ARM GAS  /tmp/cckUUDWB.s 			page 1


   1              		.cpu cortex-m4
   2              		.eabi_attribute 27, 1
   3              		.eabi_attribute 28, 1
   4              		.eabi_attribute 20, 1
   5              		.eabi_attribute 21, 1
   6              		.eabi_attribute 23, 3
   7              		.eabi_attribute 24, 1
   8              		.eabi_attribute 25, 1
   9              		.eabi_attribute 26, 1
  10              		.eabi_attribute 30, 2
  11              		.eabi_attribute 34, 1
  12              		.eabi_attribute 18, 4
  13              		.file	"adc_lld.c"
  14              		.text
  15              	.Ltext0:
  16              		.cfi_sections	.debug_frame
  17              		.section	.rodata.adc_lld_init.cst4,"aM",%progbits,4
  18              		.align	2
  19              	.LC0:
  20 0000 00000000 		.word	__stack_chk_guard
  21              		.section	.text.adc_lld_init,"ax",%progbits
  22              		.align	1
  23              		.p2align 4,,15
  24              		.global	adc_lld_init
  25              		.arch armv7e-m
  26              		.syntax unified
  27              		.thumb
  28              		.thumb_func
  29              		.fpu fpv4-sp-d16
  30              		.type	adc_lld_init, %function
  31              	adc_lld_init:
  32              	.LFB258:
  33              		.file 1 ".//ChibiOS//os/hal/ports/STM32/STM32F4xx/adc_lld.c"
  34              		.loc 1 170 25 view -0
  35              		.cfi_startproc
  36              		@ args = 0, pretend = 0, frame = 8
  37              		@ frame_needed = 0, uses_anonymous_args = 0
  38 0000 F0B5     		push	{r4, r5, r6, r7, lr}
  39              		.cfi_def_cfa_offset 20
  40              		.cfi_offset 4, -20
  41              		.cfi_offset 5, -16
  42              		.cfi_offset 6, -12
  43              		.cfi_offset 7, -8
  44              		.cfi_offset 14, -4
  45              		.loc 1 174 3 is_stmt 0 view .LVU1
  46 0002 194F     		ldr	r7, .L7
  47              		.loc 1 170 25 view .LVU2
  48 0004 194B     		ldr	r3, .L7+4
  49              		.loc 1 187 3 view .LVU3
  50 0006 1A4E     		ldr	r6, .L7+8
  51              		.loc 1 176 17 view .LVU4
  52 0008 1A4C     		ldr	r4, .L7+12
  53              		.loc 1 200 3 view .LVU5
  54 000a 1B4D     		ldr	r5, .L7+16
  55              		.loc 1 170 25 view .LVU6
  56 000c 83B0     		sub	sp, sp, #12
  57              		.cfi_def_cfa_offset 32
ARM GAS  /tmp/cckUUDWB.s 			page 2


  58              		.loc 1 174 3 view .LVU7
  59 000e 3846     		mov	r0, r7
  60              		.loc 1 170 25 view .LVU8
  61 0010 1B68     		ldr	r3, [r3]
  62 0012 0193     		str	r3, [sp, #4]
  63 0014 4FF00003 		mov	r3,#0
  64              		.loc 1 174 3 is_stmt 1 view .LVU9
  65 0018 FFF7FEFF 		bl	adcObjectInit
  66              	.LVL0:
  67              		.loc 1 175 3 view .LVU10
  68              		.loc 1 177 17 is_stmt 0 view .LVU11
  69 001c 174B     		ldr	r3, .L7+20
  70              		.loc 1 175 13 view .LVU12
  71 001e 184A     		ldr	r2, .L7+24
  72 0020 FA62     		str	r2, [r7, #44]
  73              		.loc 1 176 3 is_stmt 1 view .LVU13
  74              		.loc 1 187 3 is_stmt 0 view .LVU14
  75 0022 3046     		mov	r0, r6
  76              		.loc 1 176 17 view .LVU15
  77 0024 C7E90C43 		strd	r4, r3, [r7, #48]
  78              		.loc 1 177 3 is_stmt 1 view .LVU16
  79              		.loc 1 187 3 view .LVU17
  80 0028 FFF7FEFF 		bl	adcObjectInit
  81              	.LVL1:
  82              		.loc 1 188 3 view .LVU18
  83              		.loc 1 190 17 is_stmt 0 view .LVU19
  84 002c 154B     		ldr	r3, .L7+28
  85              		.loc 1 188 13 view .LVU20
  86 002e 164A     		ldr	r2, .L7+32
  87 0030 F262     		str	r2, [r6, #44]
  88              		.loc 1 189 3 is_stmt 1 view .LVU21
  89              		.loc 1 200 3 is_stmt 0 view .LVU22
  90 0032 2846     		mov	r0, r5
  91              		.loc 1 189 17 view .LVU23
  92 0034 A4F11802 		sub	r2, r4, #24
  93              		.loc 1 190 17 view .LVU24
  94 0038 C6E90C23 		strd	r2, r3, [r6, #48]
  95              		.loc 1 200 3 is_stmt 1 view .LVU25
  96 003c FFF7FEFF 		bl	adcObjectInit
  97              	.LVL2:
  98              		.loc 1 201 3 view .LVU26
  99              		.loc 1 201 13 is_stmt 0 view .LVU27
 100 0040 124A     		ldr	r2, .L7+36
 101              		.loc 1 203 17 view .LVU28
 102 0042 134B     		ldr	r3, .L7+40
 103 0044 6B63     		str	r3, [r5, #52]
 104              		.loc 1 202 17 view .LVU29
 105 0046 243C     		subs	r4, r4, #36
 106              		.loc 1 201 13 view .LVU30
 107 0048 C5E90B24 		strd	r2, r4, [r5, #44]
 108              		.loc 1 202 3 is_stmt 1 view .LVU31
 109              		.loc 1 203 3 view .LVU32
 110              		.loc 1 213 3 view .LVU33
 111 004c 074B     		ldr	r3, .L7+4
 112 004e 1A68     		ldr	r2, [r3]
 113 0050 019B     		ldr	r3, [sp, #4]
 114 0052 5A40     		eors	r2, r3, r2
ARM GAS  /tmp/cckUUDWB.s 			page 3


 115 0054 06D1     		bne	.L6
 116 0056 0621     		movs	r1, #6
 117 0058 1220     		movs	r0, #18
 118              		.loc 1 214 1 is_stmt 0 view .LVU34
 119 005a 03B0     		add	sp, sp, #12
 120              		.cfi_remember_state
 121              		.cfi_def_cfa_offset 20
 122              		@ sp needed
 123 005c BDE8F040 		pop	{r4, r5, r6, r7, lr}
 124              		.cfi_restore 14
 125              		.cfi_restore 7
 126              		.cfi_restore 6
 127              		.cfi_restore 5
 128              		.cfi_restore 4
 129              		.cfi_def_cfa_offset 0
 130              		.loc 1 213 3 view .LVU35
 131 0060 FFF7FEBF 		b	nvicEnableVector
 132              	.LVL3:
 133              	.L6:
 134              		.cfi_restore_state
 135 0064 FFF7FEFF 		bl	__stack_chk_fail
 136              	.LVL4:
 137              	.L8:
 138              		.align	2
 139              	.L7:
 140 0068 00000000 		.word	.LANCHOR0
 141 006c 00000000 		.word	.LC0
 142 0070 00000000 		.word	.LANCHOR1
 143 0074 90000000 		.word	_stm32_dma_streams+144
 144 0078 00000000 		.word	.LANCHOR2
 145 007c 162C0200 		.word	142358
 146 0080 00200140 		.word	1073815552
 147 0084 162C0202 		.word	33696790
 148 0088 00210140 		.word	1073815808
 149 008c 00220140 		.word	1073816064
 150 0090 162C0204 		.word	67251222
 151              		.cfi_endproc
 152              	.LFE258:
 153              		.size	adc_lld_init, .-adc_lld_init
 154              		.section	.rodata.adc_lld_start.cst4,"aM",%progbits,4
 155              		.align	2
 156              	.LC1:
 157 0000 00000000 		.word	__stack_chk_guard
 158              		.section	.text.adc_lld_start,"ax",%progbits
 159              		.align	1
 160              		.p2align 4,,15
 161              		.global	adc_lld_start
 162              		.syntax unified
 163              		.thumb
 164              		.thumb_func
 165              		.fpu fpv4-sp-d16
 166              		.type	adc_lld_start, %function
 167              	adc_lld_start:
 168              	.LVL5:
 169              	.LFB259:
 170              		.loc 1 223 37 is_stmt 1 view -0
 171              		.cfi_startproc
ARM GAS  /tmp/cckUUDWB.s 			page 4


 172              		@ args = 0, pretend = 0, frame = 8
 173              		@ frame_needed = 0, uses_anonymous_args = 0
 174              		.loc 1 223 37 is_stmt 0 view .LVU37
 175 0000 30B5     		push	{r4, r5, lr}
 176              		.cfi_def_cfa_offset 12
 177              		.cfi_offset 4, -12
 178              		.cfi_offset 5, -8
 179              		.cfi_offset 14, -4
 180 0002 364B     		ldr	r3, .L36
 181 0004 83B0     		sub	sp, sp, #12
 182              		.cfi_def_cfa_offset 24
 183              		.loc 1 223 37 view .LVU38
 184 0006 1B68     		ldr	r3, [r3]
 185 0008 0193     		str	r3, [sp, #4]
 186 000a 4FF00003 		mov	r3,#0
 187              		.loc 1 226 3 is_stmt 1 view .LVU39
 188              		.loc 1 226 6 is_stmt 0 view .LVU40
 189 000e 0378     		ldrb	r3, [r0]	@ zero_extendqisi2
 190 0010 012B     		cmp	r3, #1
 191 0012 06D0     		beq	.L29
 192              	.LVL6:
 193              	.L9:
 194              		.loc 1 277 1 view .LVU41
 195 0014 314B     		ldr	r3, .L36
 196 0016 1A68     		ldr	r2, [r3]
 197 0018 019B     		ldr	r3, [sp, #4]
 198 001a 5A40     		eors	r2, r3, r2
 199 001c 5BD1     		bne	.L30
 200 001e 03B0     		add	sp, sp, #12
 201              		.cfi_remember_state
 202              		.cfi_def_cfa_offset 12
 203              		@ sp needed
 204 0020 30BD     		pop	{r4, r5, pc}
 205              	.LVL7:
 206              	.L29:
 207              		.cfi_restore_state
 208              		.loc 1 228 8 view .LVU42
 209 0022 2F4D     		ldr	r5, .L36+4
 210 0024 A842     		cmp	r0, r5
 211 0026 0446     		mov	r4, r0
 212              		.loc 1 228 5 is_stmt 1 view .LVU43
 213              		.loc 1 228 8 is_stmt 0 view .LVU44
 214 0028 38D0     		beq	.L31
 215              	.LBB162:
 216              		.loc 1 236 27 is_stmt 1 discriminator 3 view .LVU45
 217              	.LBE162:
 218              		.loc 1 241 5 discriminator 3 view .LVU46
 219              		.loc 1 241 8 is_stmt 0 discriminator 3 view .LVU47
 220 002a 2E4D     		ldr	r5, .L36+8
 221 002c A842     		cmp	r0, r5
 222 002e 24D0     		beq	.L14
 223              	.LBB163:
 224              		.loc 1 249 27 is_stmt 1 view .LVU48
 225              	.LBE163:
 226              		.loc 1 254 5 view .LVU49
 227              		.loc 1 254 8 is_stmt 0 view .LVU50
 228 0030 2D4D     		ldr	r5, .L36+12
ARM GAS  /tmp/cckUUDWB.s 			page 5


 229 0032 A842     		cmp	r0, r5
 230 0034 0FD0     		beq	.L32
 231              	.LVL8:
 232              	.L13:
 233              	.LBB164:
 234              		.loc 1 262 27 is_stmt 1 discriminator 3 view .LVU51
 235              	.LBE164:
 236              		.loc 1 268 5 discriminator 3 view .LVU52
 237              		.loc 1 268 20 is_stmt 0 discriminator 3 view .LVU53
 238 0036 2D4A     		ldr	r2, .L36+16
 239 0038 5368     		ldr	r3, [r2, #4]
 240              		.loc 1 268 26 discriminator 3 view .LVU54
 241 003a 03F44003 		and	r3, r3, #12582912
 242              		.loc 1 268 63 discriminator 3 view .LVU55
 243 003e 43F44033 		orr	r3, r3, #196608
 244              		.loc 1 268 14 discriminator 3 view .LVU56
 245 0042 5360     		str	r3, [r2, #4]
 246              		.loc 1 273 5 is_stmt 1 discriminator 3 view .LVU57
 247              		.loc 1 273 9 is_stmt 0 discriminator 3 view .LVU58
 248 0044 E26A     		ldr	r2, [r4, #44]
 249              		.loc 1 273 20 discriminator 3 view .LVU59
 250 0046 0023     		movs	r3, #0
 251 0048 5360     		str	r3, [r2, #4]
 252              		.loc 1 274 5 is_stmt 1 discriminator 3 view .LVU60
 253              		.loc 1 274 9 is_stmt 0 discriminator 3 view .LVU61
 254 004a E26A     		ldr	r2, [r4, #44]
 255              		.loc 1 274 20 discriminator 3 view .LVU62
 256 004c 9360     		str	r3, [r2, #8]
 257              		.loc 1 275 5 is_stmt 1 discriminator 3 view .LVU63
 258              		.loc 1 275 9 is_stmt 0 discriminator 3 view .LVU64
 259 004e E36A     		ldr	r3, [r4, #44]
 260              		.loc 1 275 20 discriminator 3 view .LVU65
 261 0050 0122     		movs	r2, #1
 262 0052 9A60     		str	r2, [r3, #8]
 263              		.loc 1 277 1 discriminator 3 view .LVU66
 264 0054 DEE7     		b	.L9
 265              	.LVL9:
 266              	.L32:
 267              	.LBB165:
 268              		.loc 1 255 7 is_stmt 1 view .LVU67
 269              		.loc 1 256 7 view .LVU68
 270              		.loc 1 256 11 is_stmt 0 view .LVU69
 271 0056 0346     		mov	r3, r0
 272 0058 254A     		ldr	r2, .L36+20
 273 005a 006B     		ldr	r0, [r0, #48]
 274              	.LVL10:
 275              		.loc 1 256 11 view .LVU70
 276 005c 0621     		movs	r1, #6
 277 005e FFF7FEFF 		bl	dmaStreamAllocate
 278              	.LVL11:
 279              		.loc 1 260 7 is_stmt 1 view .LVU71
 280              		.loc 1 260 7 view .LVU72
 281              		.loc 1 260 7 view .LVU73
 282 0062 0028     		cmp	r0, #0
 283 0064 33D1     		bne	.L33
 284              	.LVL12:
 285              	.L17:
ARM GAS  /tmp/cckUUDWB.s 			page 6


 286              		.loc 1 260 7 discriminator 5 view .LVU74
 287              		.loc 1 261 7 discriminator 5 view .LVU75
 288 0066 2B6B     		ldr	r3, [r5, #48]
 289              		.loc 1 262 7 is_stmt 0 discriminator 5 view .LVU76
 290 0068 224A     		ldr	r2, .L36+24
 291              		.loc 1 261 7 discriminator 5 view .LVU77
 292 006a 1B68     		ldr	r3, [r3]
 293 006c 2249     		ldr	r1, .L36+28
 294 006e 9960     		str	r1, [r3, #8]
 295              		.loc 1 261 54 is_stmt 1 discriminator 5 view .LVU78
 296              		.loc 1 262 7 discriminator 5 view .LVU79
 297 0070 536C     		ldr	r3, [r2, #68]
 298 0072 43F48063 		orr	r3, r3, #1024
 299 0076 5364     		str	r3, [r2, #68]
 300              		.loc 1 262 7 discriminator 5 view .LVU80
 301 0078 DDE7     		b	.L13
 302              	.LVL13:
 303              	.L14:
 304              		.loc 1 262 7 is_stmt 0 discriminator 5 view .LVU81
 305              	.LBE165:
 306              	.LBB166:
 307              		.loc 1 242 7 is_stmt 1 view .LVU82
 308              		.loc 1 243 7 view .LVU83
 309              		.loc 1 243 11 is_stmt 0 view .LVU84
 310 007a 0346     		mov	r3, r0
 311 007c 1C4A     		ldr	r2, .L36+20
 312 007e 006B     		ldr	r0, [r0, #48]
 313              	.LVL14:
 314              		.loc 1 243 11 view .LVU85
 315 0080 0621     		movs	r1, #6
 316 0082 FFF7FEFF 		bl	dmaStreamAllocate
 317              	.LVL15:
 318              		.loc 1 247 7 is_stmt 1 view .LVU86
 319              		.loc 1 247 7 view .LVU87
 320              		.loc 1 247 7 view .LVU88
 321 0086 F0B9     		cbnz	r0, .L34
 322              	.LVL16:
 323              	.L16:
 324              		.loc 1 247 7 discriminator 5 view .LVU89
 325              		.loc 1 248 7 discriminator 5 view .LVU90
 326 0088 2B6B     		ldr	r3, [r5, #48]
 327              		.loc 1 249 7 is_stmt 0 discriminator 5 view .LVU91
 328 008a 1A4A     		ldr	r2, .L36+24
 329              		.loc 1 248 7 discriminator 5 view .LVU92
 330 008c 1B68     		ldr	r3, [r3]
 331 008e 1B49     		ldr	r1, .L36+32
 332 0090 9960     		str	r1, [r3, #8]
 333              		.loc 1 248 54 is_stmt 1 discriminator 5 view .LVU93
 334              		.loc 1 249 7 discriminator 5 view .LVU94
 335 0092 536C     		ldr	r3, [r2, #68]
 336 0094 43F40073 		orr	r3, r3, #512
 337 0098 5364     		str	r3, [r2, #68]
 338              		.loc 1 249 7 discriminator 5 view .LVU95
 339              		.loc 1 249 27 discriminator 5 view .LVU96
 340              	.LBE166:
 341              		.loc 1 254 5 discriminator 5 view .LVU97
 342 009a CCE7     		b	.L13
ARM GAS  /tmp/cckUUDWB.s 			page 7


 343              	.LVL17:
 344              	.L31:
 345              	.LBB167:
 346              		.loc 1 229 7 view .LVU98
 347              		.loc 1 230 7 view .LVU99
 348              		.loc 1 230 11 is_stmt 0 view .LVU100
 349 009c 0346     		mov	r3, r0
 350 009e 144A     		ldr	r2, .L36+20
 351 00a0 006B     		ldr	r0, [r0, #48]
 352              	.LVL18:
 353              		.loc 1 230 11 view .LVU101
 354 00a2 0621     		movs	r1, #6
 355 00a4 FFF7FEFF 		bl	dmaStreamAllocate
 356              	.LVL19:
 357              		.loc 1 234 7 is_stmt 1 view .LVU102
 358              		.loc 1 234 7 view .LVU103
 359              		.loc 1 234 7 view .LVU104
 360 00a8 48B9     		cbnz	r0, .L35
 361              	.LVL20:
 362              	.L12:
 363              		.loc 1 234 7 discriminator 5 view .LVU105
 364              		.loc 1 235 7 discriminator 5 view .LVU106
 365 00aa 2B6B     		ldr	r3, [r5, #48]
 366              		.loc 1 236 7 is_stmt 0 discriminator 5 view .LVU107
 367 00ac 114A     		ldr	r2, .L36+24
 368              		.loc 1 235 7 discriminator 5 view .LVU108
 369 00ae 1B68     		ldr	r3, [r3]
 370 00b0 1349     		ldr	r1, .L36+36
 371 00b2 9960     		str	r1, [r3, #8]
 372              		.loc 1 235 54 is_stmt 1 discriminator 5 view .LVU109
 373              		.loc 1 236 7 discriminator 5 view .LVU110
 374 00b4 536C     		ldr	r3, [r2, #68]
 375 00b6 43F48073 		orr	r3, r3, #256
 376 00ba 5364     		str	r3, [r2, #68]
 377              		.loc 1 236 7 discriminator 5 view .LVU111
 378              		.loc 1 236 27 discriminator 5 view .LVU112
 379              	.LBE167:
 380              		.loc 1 241 5 discriminator 5 view .LVU113
 381              	.LBB168:
 382              		.loc 1 249 27 discriminator 5 view .LVU114
 383              	.LBE168:
 384              		.loc 1 254 5 discriminator 5 view .LVU115
 385 00bc BBE7     		b	.L13
 386              	.LVL21:
 387              	.L35:
 388              	.LBB169:
 389              		.loc 1 234 7 discriminator 3 view .LVU116
 390 00be 1148     		ldr	r0, .L36+40
 391              	.LVL22:
 392              		.loc 1 234 7 is_stmt 0 discriminator 3 view .LVU117
 393 00c0 FFF7FEFF 		bl	chSysHalt
 394              	.LVL23:
 395 00c4 F1E7     		b	.L12
 396              	.LVL24:
 397              	.L34:
 398              		.loc 1 234 7 discriminator 3 view .LVU118
 399              	.LBE169:
ARM GAS  /tmp/cckUUDWB.s 			page 8


 400              	.LBB170:
 401              		.loc 1 247 7 is_stmt 1 discriminator 3 view .LVU119
 402 00c6 0F48     		ldr	r0, .L36+40
 403              	.LVL25:
 404              		.loc 1 247 7 is_stmt 0 discriminator 3 view .LVU120
 405 00c8 FFF7FEFF 		bl	chSysHalt
 406              	.LVL26:
 407 00cc DCE7     		b	.L16
 408              	.LVL27:
 409              	.L33:
 410              		.loc 1 247 7 discriminator 3 view .LVU121
 411              	.LBE170:
 412              	.LBB171:
 413              		.loc 1 260 7 is_stmt 1 discriminator 3 view .LVU122
 414 00ce 0D48     		ldr	r0, .L36+40
 415              	.LVL28:
 416              		.loc 1 260 7 is_stmt 0 discriminator 3 view .LVU123
 417 00d0 FFF7FEFF 		bl	chSysHalt
 418              	.LVL29:
 419 00d4 C7E7     		b	.L17
 420              	.LVL30:
 421              	.L30:
 422              		.loc 1 260 7 discriminator 3 view .LVU124
 423              	.LBE171:
 424              		.loc 1 277 1 view .LVU125
 425 00d6 FFF7FEFF 		bl	__stack_chk_fail
 426              	.LVL31:
 427              	.L37:
 428 00da 00BF     		.align	2
 429              	.L36:
 430 00dc 00000000 		.word	.LC1
 431 00e0 00000000 		.word	.LANCHOR0
 432 00e4 00000000 		.word	.LANCHOR1
 433 00e8 00000000 		.word	.LANCHOR2
 434 00ec 00230140 		.word	1073816320
 435 00f0 00000000 		.word	adc_lld_serve_rx_interrupt
 436 00f4 00380240 		.word	1073887232
 437 00f8 4C220140 		.word	1073816140
 438 00fc 4C210140 		.word	1073815884
 439 0100 4C200140 		.word	1073815628
 440 0104 00000000 		.word	.LANCHOR3
 441              		.cfi_endproc
 442              	.LFE259:
 443              		.size	adc_lld_start, .-adc_lld_start
 444              		.section	.rodata.adc_lld_stop.cst4,"aM",%progbits,4
 445              		.align	2
 446              	.LC2:
 447 0000 00000000 		.word	__stack_chk_guard
 448              		.section	.text.adc_lld_stop,"ax",%progbits
 449              		.align	1
 450              		.p2align 4,,15
 451              		.global	adc_lld_stop
 452              		.syntax unified
 453              		.thumb
 454              		.thumb_func
 455              		.fpu fpv4-sp-d16
 456              		.type	adc_lld_stop, %function
ARM GAS  /tmp/cckUUDWB.s 			page 9


 457              	adc_lld_stop:
 458              	.LVL32:
 459              	.LFB260:
 460              		.loc 1 286 36 is_stmt 1 view -0
 461              		.cfi_startproc
 462              		@ args = 0, pretend = 0, frame = 8
 463              		@ frame_needed = 0, uses_anonymous_args = 0
 464              		.loc 1 286 36 is_stmt 0 view .LVU127
 465 0000 10B5     		push	{r4, lr}
 466              		.cfi_def_cfa_offset 8
 467              		.cfi_offset 4, -8
 468              		.cfi_offset 14, -4
 469 0002 1B4B     		ldr	r3, .L50
 470 0004 82B0     		sub	sp, sp, #8
 471              		.cfi_def_cfa_offset 16
 472              		.loc 1 286 36 view .LVU128
 473 0006 1B68     		ldr	r3, [r3]
 474 0008 0193     		str	r3, [sp, #4]
 475 000a 4FF00003 		mov	r3,#0
 476              		.loc 1 289 3 is_stmt 1 view .LVU129
 477              		.loc 1 289 6 is_stmt 0 view .LVU130
 478 000e 0378     		ldrb	r3, [r0]	@ zero_extendqisi2
 479 0010 022B     		cmp	r3, #2
 480 0012 06D0     		beq	.L47
 481              	.LVL33:
 482              	.L38:
 483              		.loc 1 309 1 view .LVU131
 484 0014 164B     		ldr	r3, .L50
 485 0016 1A68     		ldr	r2, [r3]
 486 0018 019B     		ldr	r3, [sp, #4]
 487 001a 5A40     		eors	r2, r3, r2
 488 001c 25D1     		bne	.L48
 489 001e 02B0     		add	sp, sp, #8
 490              		.cfi_remember_state
 491              		.cfi_def_cfa_offset 8
 492              		@ sp needed
 493 0020 10BD     		pop	{r4, pc}
 494              	.LVL34:
 495              	.L47:
 496              		.cfi_restore_state
 497              		.loc 1 290 5 is_stmt 1 view .LVU132
 498 0022 0446     		mov	r4, r0
 499 0024 006B     		ldr	r0, [r0, #48]
 500              	.LVL35:
 501              		.loc 1 290 5 is_stmt 0 view .LVU133
 502 0026 FFF7FEFF 		bl	dmaStreamRelease
 503              	.LVL36:
 504              		.loc 1 291 5 is_stmt 1 view .LVU134
 505              		.loc 1 291 9 is_stmt 0 view .LVU135
 506 002a E16A     		ldr	r1, [r4, #44]
 507              		.loc 1 295 8 view .LVU136
 508 002c 114A     		ldr	r2, .L50+4
 509              		.loc 1 291 20 view .LVU137
 510 002e 0023     		movs	r3, #0
 511 0030 4B60     		str	r3, [r1, #4]
 512              		.loc 1 292 5 is_stmt 1 view .LVU138
 513              		.loc 1 292 9 is_stmt 0 view .LVU139
ARM GAS  /tmp/cckUUDWB.s 			page 10


 514 0032 E16A     		ldr	r1, [r4, #44]
 515              		.loc 1 295 8 view .LVU140
 516 0034 9442     		cmp	r4, r2
 517              		.loc 1 292 20 view .LVU141
 518 0036 8B60     		str	r3, [r1, #8]
 519              		.loc 1 295 5 is_stmt 1 view .LVU142
 520              		.loc 1 295 8 is_stmt 0 view .LVU143
 521 0038 0BD0     		beq	.L49
 522              		.loc 1 296 28 is_stmt 1 discriminator 3 view .LVU144
 523              		.loc 1 300 5 discriminator 3 view .LVU145
 524              		.loc 1 300 8 is_stmt 0 discriminator 3 view .LVU146
 525 003a 0F4B     		ldr	r3, .L50+8
 526 003c 9C42     		cmp	r4, r3
 527 003e 0ED0     		beq	.L42
 528              		.loc 1 301 28 is_stmt 1 view .LVU147
 529              		.loc 1 305 5 view .LVU148
 530              		.loc 1 305 8 is_stmt 0 view .LVU149
 531 0040 0E4B     		ldr	r3, .L50+12
 532 0042 9C42     		cmp	r4, r3
 533 0044 E6D1     		bne	.L38
 534              		.loc 1 306 7 is_stmt 1 view .LVU150
 535 0046 0E4A     		ldr	r2, .L50+16
 536 0048 536C     		ldr	r3, [r2, #68]
 537 004a 23F48063 		bic	r3, r3, #1024
 538 004e 5364     		str	r3, [r2, #68]
 539              		.loc 1 306 7 view .LVU151
 540              		.loc 1 306 28 view .LVU152
 541              		.loc 1 309 1 is_stmt 0 view .LVU153
 542 0050 E0E7     		b	.L38
 543              	.L49:
 544              		.loc 1 296 7 is_stmt 1 view .LVU154
 545 0052 0B4A     		ldr	r2, .L50+16
 546 0054 536C     		ldr	r3, [r2, #68]
 547 0056 23F48073 		bic	r3, r3, #256
 548 005a 5364     		str	r3, [r2, #68]
 549              		.loc 1 296 7 view .LVU155
 550              		.loc 1 296 28 view .LVU156
 551              		.loc 1 300 5 view .LVU157
 552              		.loc 1 301 28 view .LVU158
 553              		.loc 1 305 5 view .LVU159
 554 005c DAE7     		b	.L38
 555              	.L42:
 556              		.loc 1 301 7 view .LVU160
 557 005e 084A     		ldr	r2, .L50+16
 558 0060 536C     		ldr	r3, [r2, #68]
 559 0062 23F40073 		bic	r3, r3, #512
 560 0066 5364     		str	r3, [r2, #68]
 561              		.loc 1 301 7 view .LVU161
 562              		.loc 1 301 28 view .LVU162
 563              		.loc 1 305 5 view .LVU163
 564 0068 D4E7     		b	.L38
 565              	.LVL37:
 566              	.L48:
 567              		.loc 1 309 1 is_stmt 0 view .LVU164
 568 006a FFF7FEFF 		bl	__stack_chk_fail
 569              	.LVL38:
 570              	.L51:
ARM GAS  /tmp/cckUUDWB.s 			page 11


 571 006e 00BF     		.align	2
 572              	.L50:
 573 0070 00000000 		.word	.LC2
 574 0074 00000000 		.word	.LANCHOR0
 575 0078 00000000 		.word	.LANCHOR1
 576 007c 00000000 		.word	.LANCHOR2
 577 0080 00380240 		.word	1073887232
 578              		.cfi_endproc
 579              	.LFE260:
 580              		.size	adc_lld_stop, .-adc_lld_stop
 581              		.section	.rodata.adc_lld_start_conversion.cst4,"aM",%progbits,4
 582              		.align	2
 583              	.LC3:
 584 0000 00000000 		.word	__stack_chk_guard
 585              		.section	.text.adc_lld_start_conversion,"ax",%progbits
 586              		.align	1
 587              		.p2align 4,,15
 588              		.global	adc_lld_start_conversion
 589              		.syntax unified
 590              		.thumb
 591              		.thumb_func
 592              		.fpu fpv4-sp-d16
 593              		.type	adc_lld_start_conversion, %function
 594              	adc_lld_start_conversion:
 595              	.LVL39:
 596              	.LFB261:
 597              		.loc 1 318 48 is_stmt 1 view -0
 598              		.cfi_startproc
 599              		@ args = 0, pretend = 0, frame = 8
 600              		@ frame_needed = 0, uses_anonymous_args = 0
 601              		.loc 1 318 48 is_stmt 0 view .LVU166
 602 0000 30B5     		push	{r4, r5, lr}
 603              		.cfi_def_cfa_offset 12
 604              		.cfi_offset 4, -12
 605              		.cfi_offset 5, -8
 606              		.cfi_offset 14, -4
 607 0002 2E4B     		ldr	r3, .L63
 608              		.loc 1 324 8 view .LVU167
 609 0004 416B     		ldr	r1, [r0, #52]
 610              		.loc 1 318 48 view .LVU168
 611 0006 83B0     		sub	sp, sp, #12
 612              		.cfi_def_cfa_offset 24
 613              		.loc 1 318 48 view .LVU169
 614 0008 1B68     		ldr	r3, [r3]
 615 000a 0193     		str	r3, [sp, #4]
 616 000c 4FF00003 		mov	r3,#0
 617              		.loc 1 319 3 is_stmt 1 view .LVU170
 618              		.loc 1 320 3 view .LVU171
 619              		.loc 1 321 3 view .LVU172
 620              		.loc 1 321 29 is_stmt 0 view .LVU173
 621 0010 0369     		ldr	r3, [r0, #16]
 622              	.LVL40:
 623              		.loc 1 324 3 is_stmt 1 view .LVU174
 624              		.loc 1 325 3 view .LVU175
 625              		.loc 1 325 6 is_stmt 0 view .LVU176
 626 0012 1A78     		ldrb	r2, [r3]	@ zero_extendqisi2
 627 0014 32B1     		cbz	r2, .L53
ARM GAS  /tmp/cckUUDWB.s 			page 12


 628              		.loc 1 326 5 is_stmt 1 view .LVU177
 629              	.LVL41:
 630              		.loc 1 327 5 view .LVU178
 631              		.loc 1 327 8 is_stmt 0 view .LVU179
 632 0016 C268     		ldr	r2, [r0, #12]
 633 0018 012A     		cmp	r2, #1
 634              		.loc 1 326 10 view .LVU180
 635 001a 94BF     		ite	ls
 636 001c 41F48071 		orrls	r1, r1, #256
 637              	.LVL42:
 638              		.loc 1 330 7 is_stmt 1 view .LVU181
 639              		.loc 1 330 12 is_stmt 0 view .LVU182
 640 0020 41F48471 		orrhi	r1, r1, #264
 641              	.LVL43:
 642              	.L53:
 643              		.loc 1 333 3 is_stmt 1 view .LVU183
 644 0024 026B     		ldr	r2, [r0, #48]
 645 0026 8468     		ldr	r4, [r0, #8]
 646 0028 1268     		ldr	r2, [r2]
 647 002a D460     		str	r4, [r2, #12]
 648              		.loc 1 333 51 view .LVU184
 649              		.loc 1 334 3 view .LVU185
 650 002c 046B     		ldr	r4, [r0, #48]
 651 002e 5D88     		ldrh	r5, [r3, #2]
 652 0030 C268     		ldr	r2, [r0, #12]
 653 0032 2468     		ldr	r4, [r4]
 654 0034 02FB05F2 		mul	r2, r2, r5
 655 0038 6260     		str	r2, [r4, #4]
 656              		.loc 1 335 67 view .LVU186
 657              		.loc 1 336 3 view .LVU187
 658 003a 026B     		ldr	r2, [r0, #48]
 659 003c 1268     		ldr	r2, [r2]
 660 003e 1160     		str	r1, [r2]
 661              		.loc 1 336 39 view .LVU188
 662              		.loc 1 337 3 view .LVU189
 663 0040 026B     		ldr	r2, [r0, #48]
 664 0042 1168     		ldr	r1, [r2]
 665              	.LVL44:
 666              		.loc 1 337 3 is_stmt 0 view .LVU190
 667 0044 0A68     		ldr	r2, [r1]
 668 0046 42F00102 		orr	r2, r2, #1
 669 004a 0A60     		str	r2, [r1]
 670              		.loc 1 337 32 is_stmt 1 view .LVU191
 671              		.loc 1 340 3 view .LVU192
 672              		.loc 1 340 7 is_stmt 0 view .LVU193
 673 004c C26A     		ldr	r2, [r0, #44]
 674              		.loc 1 340 20 view .LVU194
 675 004e 0021     		movs	r1, #0
 676 0050 1160     		str	r1, [r2]
 677              		.loc 1 341 3 is_stmt 1 view .LVU195
 678              		.loc 1 341 7 is_stmt 0 view .LVU196
 679 0052 C26A     		ldr	r2, [r0, #44]
 680              		.loc 1 341 26 view .LVU197
 681 0054 5969     		ldr	r1, [r3, #20]
 682              		.loc 1 341 20 view .LVU198
 683 0056 D160     		str	r1, [r2, #12]
 684              		.loc 1 342 3 is_stmt 1 view .LVU199
ARM GAS  /tmp/cckUUDWB.s 			page 13


 685              		.loc 1 342 7 is_stmt 0 view .LVU200
 686 0058 C26A     		ldr	r2, [r0, #44]
 687              		.loc 1 342 26 view .LVU201
 688 005a 9969     		ldr	r1, [r3, #24]
 689              		.loc 1 342 20 view .LVU202
 690 005c 1161     		str	r1, [r2, #16]
 691              		.loc 1 343 3 is_stmt 1 view .LVU203
 692              		.loc 1 343 7 is_stmt 0 view .LVU204
 693 005e C26A     		ldr	r2, [r0, #44]
 694              		.loc 1 343 26 view .LVU205
 695 0060 D969     		ldr	r1, [r3, #28]
 696              		.loc 1 343 20 view .LVU206
 697 0062 D162     		str	r1, [r2, #44]
 698              		.loc 1 344 3 is_stmt 1 view .LVU207
 699              		.loc 1 344 7 is_stmt 0 view .LVU208
 700 0064 C26A     		ldr	r2, [r0, #44]
 701              		.loc 1 344 26 view .LVU209
 702 0066 196A     		ldr	r1, [r3, #32]
 703              		.loc 1 344 20 view .LVU210
 704 0068 1163     		str	r1, [r2, #48]
 705              		.loc 1 345 3 is_stmt 1 view .LVU211
 706              		.loc 1 345 7 is_stmt 0 view .LVU212
 707 006a C26A     		ldr	r2, [r0, #44]
 708              		.loc 1 345 26 view .LVU213
 709 006c 596A     		ldr	r1, [r3, #36]
 710              		.loc 1 345 20 view .LVU214
 711 006e 5163     		str	r1, [r2, #52]
 712              		.loc 1 348 3 is_stmt 1 view .LVU215
 713              		.loc 1 348 48 is_stmt 0 view .LVU216
 714 0070 DA68     		ldr	r2, [r3, #12]
 715              		.loc 1 348 7 view .LVU217
 716 0072 C16A     		ldr	r1, [r0, #44]
 717              		.loc 1 348 48 view .LVU218
 718 0074 42F08062 		orr	r2, r2, #67108864
 719 0078 42F48072 		orr	r2, r2, #256
 720              		.loc 1 348 20 view .LVU219
 721 007c 4A60     		str	r2, [r1, #4]
 722              		.loc 1 351 3 is_stmt 1 view .LVU220
 723              		.loc 1 351 13 is_stmt 0 view .LVU221
 724 007e 1B69     		ldr	r3, [r3, #16]
 725              	.LVL45:
 726              		.loc 1 355 3 is_stmt 1 view .LVU222
 727              		.loc 1 355 6 is_stmt 0 view .LVU223
 728 0080 5A00     		lsls	r2, r3, #1
 729 0082 12D5     		bpl	.L55
 730              		.loc 1 357 5 is_stmt 1 view .LVU224
 731              		.loc 1 357 43 is_stmt 0 view .LVU225
 732 0084 23F08042 		bic	r2, r3, #1073741824
 733              		.loc 1 357 9 view .LVU226
 734 0088 C46A     		ldr	r4, [r0, #44]
 735              		.loc 1 357 43 view .LVU227
 736 008a 40F20331 		movw	r1, #771
 737 008e 22F00202 		bic	r2, r2, #2
 738 0092 0A43     		orrs	r2, r2, r1
 739              		.loc 1 357 20 view .LVU228
 740 0094 A260     		str	r2, [r4, #8]
 741              		.loc 1 360 5 is_stmt 1 view .LVU229
ARM GAS  /tmp/cckUUDWB.s 			page 14


 742              		.loc 1 360 9 is_stmt 0 view .LVU230
 743 0096 C26A     		ldr	r2, [r0, #44]
 744              		.loc 1 360 27 view .LVU231
 745 0098 0B43     		orrs	r3, r3, r1
 746              	.LVL46:
 747              		.loc 1 360 20 view .LVU232
 748 009a 9360     		str	r3, [r2, #8]
 749              	.L52:
 750              		.loc 1 364 1 view .LVU233
 751 009c 074B     		ldr	r3, .L63
 752 009e 1A68     		ldr	r2, [r3]
 753 00a0 019B     		ldr	r3, [sp, #4]
 754 00a2 5A40     		eors	r2, r3, r2
 755 00a4 08D1     		bne	.L62
 756 00a6 03B0     		add	sp, sp, #12
 757              		.cfi_remember_state
 758              		.cfi_def_cfa_offset 12
 759              		@ sp needed
 760 00a8 30BD     		pop	{r4, r5, pc}
 761              	.LVL47:
 762              	.L55:
 763              		.cfi_restore_state
 764              		.loc 1 363 5 is_stmt 1 view .LVU234
 765              		.loc 1 363 9 is_stmt 0 view .LVU235
 766 00aa C26A     		ldr	r2, [r0, #44]
 767              		.loc 1 351 7 view .LVU236
 768 00ac 43F44073 		orr	r3, r3, #768
 769              	.LVL48:
 770              		.loc 1 351 7 view .LVU237
 771 00b0 43F00103 		orr	r3, r3, #1
 772              		.loc 1 363 20 view .LVU238
 773 00b4 9360     		str	r3, [r2, #8]
 774              		.loc 1 364 1 view .LVU239
 775 00b6 F1E7     		b	.L52
 776              	.L62:
 777              		.loc 1 364 1 view .LVU240
 778 00b8 FFF7FEFF 		bl	__stack_chk_fail
 779              	.LVL49:
 780              	.L64:
 781              		.loc 1 364 1 view .LVU241
 782              		.align	2
 783              	.L63:
 784 00bc 00000000 		.word	.LC3
 785              		.cfi_endproc
 786              	.LFE261:
 787              		.size	adc_lld_start_conversion, .-adc_lld_start_conversion
 788              		.section	.rodata.adc_lld_stop_conversion.cst4,"aM",%progbits,4
 789              		.align	2
 790              	.LC4:
 791 0000 00000000 		.word	__stack_chk_guard
 792              		.section	.text.adc_lld_stop_conversion,"ax",%progbits
 793              		.align	1
 794              		.p2align 4,,15
 795              		.global	adc_lld_stop_conversion
 796              		.syntax unified
 797              		.thumb
 798              		.thumb_func
ARM GAS  /tmp/cckUUDWB.s 			page 15


 799              		.fpu fpv4-sp-d16
 800              		.type	adc_lld_stop_conversion, %function
 801              	adc_lld_stop_conversion:
 802              	.LVL50:
 803              	.LFB262:
 804              		.loc 1 373 47 is_stmt 1 view -0
 805              		.cfi_startproc
 806              		@ args = 0, pretend = 0, frame = 8
 807              		@ frame_needed = 0, uses_anonymous_args = 0
 808              		.loc 1 373 47 is_stmt 0 view .LVU243
 809 0000 10B5     		push	{r4, lr}
 810              		.cfi_def_cfa_offset 8
 811              		.cfi_offset 4, -8
 812              		.cfi_offset 14, -4
 813 0002 134B     		ldr	r3, .L71
 814 0004 82B0     		sub	sp, sp, #8
 815              		.cfi_def_cfa_offset 16
 816              		.loc 1 373 47 view .LVU244
 817 0006 1B68     		ldr	r3, [r3]
 818 0008 0193     		str	r3, [sp, #4]
 819 000a 4FF00003 		mov	r3,#0
 820              		.loc 1 375 3 is_stmt 1 view .LVU245
 821 000e 036B     		ldr	r3, [r0, #48]
 822 0010 1A68     		ldr	r2, [r3]
 823 0012 1368     		ldr	r3, [r2]
 824 0014 23F01F03 		bic	r3, r3, #31
 825 0018 1360     		str	r3, [r2]
 826              		.loc 1 375 3 view .LVU246
 827 001a 016B     		ldr	r1, [r0, #48]
 828 001c 0A68     		ldr	r2, [r1]
 829              	.L66:
 830              		.loc 1 375 3 discriminator 2 view .LVU247
 831              		.loc 1 375 3 discriminator 2 view .LVU248
 832 001e 1368     		ldr	r3, [r2]
 833 0020 13F00103 		ands	r3, r3, #1
 834 0024 FBD1     		bne	.L66
 835              		.loc 1 375 3 discriminator 3 view .LVU249
 836 0026 0C7A     		ldrb	r4, [r1, #8]	@ zero_extendqisi2
 837 0028 4968     		ldr	r1, [r1, #4]
 838 002a 3D22     		movs	r2, #61
 839 002c A240     		lsls	r2, r2, r4
 840 002e 0A60     		str	r2, [r1]
 841              		.loc 1 375 3 discriminator 3 view .LVU250
 842              		.loc 1 375 33 discriminator 3 view .LVU251
 843              		.loc 1 376 3 discriminator 3 view .LVU252
 844              		.loc 1 376 7 is_stmt 0 discriminator 3 view .LVU253
 845 0030 C26A     		ldr	r2, [r0, #44]
 846              		.loc 1 376 18 discriminator 3 view .LVU254
 847 0032 5360     		str	r3, [r2, #4]
 848              		.loc 1 377 3 is_stmt 1 discriminator 3 view .LVU255
 849              		.loc 1 377 7 is_stmt 0 discriminator 3 view .LVU256
 850 0034 C26A     		ldr	r2, [r0, #44]
 851              		.loc 1 377 18 discriminator 3 view .LVU257
 852 0036 9360     		str	r3, [r2, #8]
 853              		.loc 1 378 3 is_stmt 1 discriminator 3 view .LVU258
 854              		.loc 1 378 7 is_stmt 0 discriminator 3 view .LVU259
 855 0038 C36A     		ldr	r3, [r0, #44]
ARM GAS  /tmp/cckUUDWB.s 			page 16


 856              		.loc 1 378 18 discriminator 3 view .LVU260
 857 003a 0122     		movs	r2, #1
 858 003c 9A60     		str	r2, [r3, #8]
 859              		.loc 1 379 1 discriminator 3 view .LVU261
 860 003e 044B     		ldr	r3, .L71
 861 0040 1A68     		ldr	r2, [r3]
 862 0042 019B     		ldr	r3, [sp, #4]
 863 0044 5A40     		eors	r2, r3, r2
 864 0046 01D1     		bne	.L70
 865              		.loc 1 379 1 view .LVU262
 866 0048 02B0     		add	sp, sp, #8
 867              		.cfi_remember_state
 868              		.cfi_def_cfa_offset 8
 869              		@ sp needed
 870 004a 10BD     		pop	{r4, pc}
 871              	.L70:
 872              		.cfi_restore_state
 873 004c FFF7FEFF 		bl	__stack_chk_fail
 874              	.LVL51:
 875              	.L72:
 876              		.loc 1 379 1 view .LVU263
 877              		.align	2
 878              	.L71:
 879 0050 00000000 		.word	.LC4
 880              		.cfi_endproc
 881              	.LFE262:
 882              		.size	adc_lld_stop_conversion, .-adc_lld_stop_conversion
 883              		.section	.rodata.Vector88.cst4,"aM",%progbits,4
 884              		.align	2
 885              	.LC5:
 886 0000 00000000 		.word	__stack_chk_guard
 887              		.section	.text.Vector88,"ax",%progbits
 888              		.align	1
 889              		.p2align 4,,15
 890              		.global	Vector88
 891              		.syntax unified
 892              		.thumb
 893              		.thumb_func
 894              		.fpu fpv4-sp-d16
 895              		.type	Vector88, %function
 896              	Vector88:
 897              	.LFB257:
 898              		.loc 1 110 28 is_stmt 1 view -0
 899              		.cfi_startproc
 900              		@ args = 0, pretend = 0, frame = 8
 901              		@ frame_needed = 0, uses_anonymous_args = 0
 902 0000 30B5     		push	{r4, r5, lr}
 903              		.cfi_def_cfa_offset 12
 904              		.cfi_offset 4, -12
 905              		.cfi_offset 5, -8
 906              		.cfi_offset 14, -4
 907 0002 594B     		ldr	r3, .L120
 908 0004 83B0     		sub	sp, sp, #12
 909              		.cfi_def_cfa_offset 24
 910              		.loc 1 110 28 is_stmt 0 view .LVU265
 911 0006 1B68     		ldr	r3, [r3]
 912 0008 0193     		str	r3, [sp, #4]
ARM GAS  /tmp/cckUUDWB.s 			page 17


 913 000a 4FF00003 		mov	r3,#0
 914              		.loc 1 111 3 is_stmt 1 view .LVU266
 915              		.loc 1 113 3 view .LVU267
 916              		.loc 1 113 3 view .LVU268
 917 000e FFF7FEFF 		bl	_stats_increase_irq
 918              	.LVL52:
 919              		.loc 1 113 3 view .LVU269
 920 0012 FFF7FEFF 		bl	_dbg_check_enter_isr
 921              	.LVL53:
 922              		.loc 1 116 3 view .LVU270
 923              		.loc 1 116 6 is_stmt 0 view .LVU271
 924 0016 554B     		ldr	r3, .L120+4
 925 0018 1A68     		ldr	r2, [r3]
 926              	.LVL54:
 927              		.loc 1 117 3 is_stmt 1 view .LVU272
 928              		.loc 1 117 12 is_stmt 0 view .LVU273
 929 001a 0021     		movs	r1, #0
 930 001c 1960     		str	r1, [r3]
 931              		.loc 1 120 3 is_stmt 1 view .LVU274
 932              		.loc 1 120 6 is_stmt 0 view .LVU275
 933 001e 9106     		lsls	r1, r2, #26
 934 0020 05D5     		bpl	.L74
 935              		.loc 1 120 29 discriminator 1 view .LVU276
 936 0022 534C     		ldr	r4, .L120+8
 937 0024 236B     		ldr	r3, [r4, #48]
 938 0026 1B68     		ldr	r3, [r3]
 939 0028 5B68     		ldr	r3, [r3, #4]
 940              		.loc 1 120 25 discriminator 1 view .LVU277
 941 002a 002B     		cmp	r3, #0
 942 002c 72D1     		bne	.L116
 943              	.LVL55:
 944              	.L74:
 945              		.loc 1 124 7 is_stmt 1 discriminator 6 view .LVU278
 946              		.loc 1 124 52 discriminator 6 view .LVU279
 947              		.loc 1 130 3 discriminator 6 view .LVU280
 948              		.loc 1 130 6 is_stmt 0 discriminator 6 view .LVU281
 949 002e 514B     		ldr	r3, .L120+12
 950 0030 1A68     		ldr	r2, [r3]
 951              	.LVL56:
 952              		.loc 1 131 3 is_stmt 1 discriminator 6 view .LVU282
 953              		.loc 1 131 12 is_stmt 0 discriminator 6 view .LVU283
 954 0032 0021     		movs	r1, #0
 955              		.loc 1 134 6 discriminator 6 view .LVU284
 956 0034 9206     		lsls	r2, r2, #26
 957              	.LVL57:
 958              		.loc 1 131 12 discriminator 6 view .LVU285
 959 0036 1960     		str	r1, [r3]
 960              		.loc 1 134 3 is_stmt 1 discriminator 6 view .LVU286
 961              		.loc 1 134 6 is_stmt 0 discriminator 6 view .LVU287
 962 0038 05D5     		bpl	.L78
 963              		.loc 1 134 29 discriminator 1 view .LVU288
 964 003a 4F4C     		ldr	r4, .L120+16
 965 003c 236B     		ldr	r3, [r4, #48]
 966 003e 1B68     		ldr	r3, [r3]
 967 0040 5B68     		ldr	r3, [r3, #4]
 968              		.loc 1 134 25 discriminator 1 view .LVU289
 969 0042 002B     		cmp	r3, #0
ARM GAS  /tmp/cckUUDWB.s 			page 18


 970 0044 3ED1     		bne	.L117
 971              	.L78:
 972              		.loc 1 138 7 is_stmt 1 discriminator 6 view .LVU290
 973              		.loc 1 138 52 discriminator 6 view .LVU291
 974              		.loc 1 144 3 discriminator 6 view .LVU292
 975              		.loc 1 144 6 is_stmt 0 discriminator 6 view .LVU293
 976 0046 4D4B     		ldr	r3, .L120+20
 977 0048 1A68     		ldr	r2, [r3]
 978              	.LVL58:
 979              		.loc 1 145 3 is_stmt 1 discriminator 6 view .LVU294
 980              		.loc 1 145 12 is_stmt 0 discriminator 6 view .LVU295
 981 004a 0021     		movs	r1, #0
 982 004c 1960     		str	r1, [r3]
 983              		.loc 1 148 3 is_stmt 1 discriminator 6 view .LVU296
 984              		.loc 1 148 6 is_stmt 0 discriminator 6 view .LVU297
 985 004e 9306     		lsls	r3, r2, #26
 986 0050 04D5     		bpl	.L82
 987              		.loc 1 148 29 discriminator 1 view .LVU298
 988 0052 4B4C     		ldr	r4, .L120+24
 989 0054 236B     		ldr	r3, [r4, #48]
 990 0056 1B68     		ldr	r3, [r3]
 991 0058 5B68     		ldr	r3, [r3, #4]
 992              		.loc 1 148 25 discriminator 1 view .LVU299
 993 005a 5BB9     		cbnz	r3, .L118
 994              	.LVL59:
 995              	.L82:
 996              		.loc 1 152 7 is_stmt 1 discriminator 6 view .LVU300
 997              		.loc 1 152 52 discriminator 6 view .LVU301
 998              		.loc 1 157 3 discriminator 6 view .LVU302
 999 005c FFF7FEFF 		bl	_dbg_check_leave_isr
 1000              	.LVL60:
 1001              		.loc 1 157 3 discriminator 6 view .LVU303
 1002 0060 414B     		ldr	r3, .L120
 1003 0062 1A68     		ldr	r2, [r3]
 1004 0064 019B     		ldr	r3, [sp, #4]
 1005 0066 5A40     		eors	r2, r3, r2
 1006 0068 7CD1     		bne	.L119
 1007              		.loc 1 158 1 is_stmt 0 discriminator 6 view .LVU304
 1008 006a 03B0     		add	sp, sp, #12
 1009              		.cfi_remember_state
 1010              		.cfi_def_cfa_offset 12
 1011              		@ sp needed
 1012 006c BDE83040 		pop	{r4, r5, lr}
 1013              		.cfi_restore 14
 1014              		.cfi_restore 5
 1015              		.cfi_restore 4
 1016              		.cfi_def_cfa_offset 0
 1017              		.loc 1 157 3 discriminator 6 view .LVU305
 1018 0070 FFF7FEBF 		b	_port_irq_epilogue
 1019              	.LVL61:
 1020              	.L118:
 1021              		.cfi_restore_state
 1022              		.loc 1 151 5 is_stmt 1 view .LVU306
 1023              		.loc 1 151 8 is_stmt 0 view .LVU307
 1024 0074 2369     		ldr	r3, [r4, #16]
 1025 0076 002B     		cmp	r3, #0
 1026 0078 F0D0     		beq	.L82
ARM GAS  /tmp/cckUUDWB.s 			page 19


 1027              		.loc 1 152 7 is_stmt 1 view .LVU308
 1028 007a 2046     		mov	r0, r4
 1029 007c FFF7FEFF 		bl	adc_lld_stop_conversion
 1030              	.LVL62:
 1031              		.loc 1 152 7 view .LVU309
 1032 0080 2369     		ldr	r3, [r4, #16]
 1033 0082 9B68     		ldr	r3, [r3, #8]
 1034 0084 4BB1     		cbz	r3, .L84
 1035              		.loc 1 152 7 discriminator 1 view .LVU310
 1036 0086 0522     		movs	r2, #5
 1037 0088 2270     		strb	r2, [r4]
 1038              		.loc 1 152 7 discriminator 1 view .LVU311
 1039 008a 0121     		movs	r1, #1
 1040 008c 2046     		mov	r0, r4
 1041 008e 9847     		blx	r3
 1042              	.LVL63:
 1043              		.loc 1 152 7 discriminator 1 view .LVU312
 1044 0090 2378     		ldrb	r3, [r4]	@ zero_extendqisi2
 1045 0092 052B     		cmp	r3, #5
 1046              		.loc 1 152 7 discriminator 1 view .LVU313
 1047 0094 04BF     		itt	eq
 1048 0096 0223     		moveq	r3, #2
 1049 0098 2370     		strbeq	r3, [r4]
 1050              	.L84:
 1051              		.loc 1 152 7 discriminator 5 view .LVU314
 1052 009a 0025     		movs	r5, #0
 1053 009c 2561     		str	r5, [r4, #16]
 1054              		.loc 1 152 7 discriminator 5 view .LVU315
 1055              	.LBB172:
 1056              	.LBI172:
 1057              		.file 2 ".//ChibiOS//os/hal/osal/rt/osal.h"
 1058              		.loc 2 467 20 discriminator 5 view .LVU316
 1059              	.LBE172:
 1060              		.loc 2 469 3 discriminator 5 view .LVU317
 1061              	.LBB186:
 1062              	.LBB173:
 1063              	.LBI173:
 1064              		.file 3 ".//ChibiOS//os/rt/include/chsys.h"
 1065              		.loc 3 386 20 discriminator 5 view .LVU318
 1066              	.LBB174:
 1067              		.loc 3 388 3 discriminator 5 view .LVU319
 1068              	.LBB175:
 1069              	.LBI175:
 1070              		.file 4 ".//ChibiOS//os/rt/ports/ARMCMx/chcore_v7m.h"
 1071              		.loc 4 473 20 discriminator 5 view .LVU320
 1072              	.LBE175:
 1073              	.LBE174:
 1074              	.LBE173:
 1075              	.LBE186:
 1076              		.loc 4 475 3 discriminator 5 view .LVU321
 1077              	.LBB187:
 1078              	.LBB184:
 1079              	.LBB182:
 1080              	.LBB180:
 1081              	.LBB176:
 1082              	.LBI176:
 1083              		.loc 4 444 20 discriminator 5 view .LVU322
ARM GAS  /tmp/cckUUDWB.s 			page 20


 1084              	.LBE176:
 1085              	.LBE180:
 1086              	.LBE182:
 1087              	.LBE184:
 1088              	.LBE187:
 1089              		.loc 4 447 3 discriminator 5 view .LVU323
 1090              	.LVL64:
 1091              	.LBB188:
 1092              	.LBB185:
 1093              	.LBB183:
 1094              	.LBB181:
 1095              	.LBB179:
 1096              	.LBB177:
 1097              	.LBI177:
 1098              		.file 5 ".//ChibiOS//os/ext/CMSIS/include/core_cmFunc.h"
 1099              		.loc 5 544 57 discriminator 5 view .LVU324
 1100              	.LBB178:
 1101              		.loc 5 546 3 discriminator 5 view .LVU325
 1102 009e 2023     		movs	r3, #32
 1103              		.syntax unified
 1104              	@ 546 ".//ChibiOS//os/ext/CMSIS/include/core_cmFunc.h" 1
 1105 00a0 83F31188 		MSR basepri, r3
 1106              	@ 0 "" 2
 1107              	.LVL65:
 1108              		.loc 5 546 3 is_stmt 0 discriminator 5 view .LVU326
 1109              		.thumb
 1110              		.syntax unified
 1111              	.LBE178:
 1112              	.LBE177:
 1113              	.LBE179:
 1114              	.LBE181:
 1115              		.loc 3 389 3 is_stmt 1 discriminator 5 view .LVU327
 1116 00a4 FFF7FEFF 		bl	_stats_start_measure_crit_isr
 1117              	.LVL66:
 1118              		.loc 3 390 3 discriminator 5 view .LVU328
 1119 00a8 FFF7FEFF 		bl	_dbg_check_lock_from_isr
 1120              	.LVL67:
 1121              	.LBE183:
 1122              	.LBE185:
 1123              	.LBE188:
 1124              		.loc 1 152 7 discriminator 5 view .LVU329
 1125              	.LBB189:
 1126              	.LBI189:
 1127              		.loc 2 680 20 discriminator 5 view .LVU330
 1128              	.LBB190:
 1129              		.loc 2 682 3 discriminator 5 view .LVU331
 1130 00ac 3548     		ldr	r0, .L120+28
 1131 00ae 4FF0FF31 		mov	r1, #-1
 1132 00b2 FFF7FEFF 		bl	chThdResumeI
 1133              	.LVL68:
 1134              		.loc 2 682 3 is_stmt 0 discriminator 5 view .LVU332
 1135              	.LBE190:
 1136              	.LBE189:
 1137              		.loc 1 152 7 is_stmt 1 discriminator 5 view .LVU333
 1138              	.LBB191:
 1139              	.LBI191:
 1140              		.loc 2 478 20 discriminator 5 view .LVU334
ARM GAS  /tmp/cckUUDWB.s 			page 21


 1141              	.LBB192:
 1142              		.loc 2 480 3 discriminator 5 view .LVU335
 1143              	.LBB193:
 1144              	.LBI193:
 1145              		.loc 3 406 20 discriminator 5 view .LVU336
 1146              	.LBB194:
 1147              		.loc 3 408 3 discriminator 5 view .LVU337
 1148 00b6 FFF7FEFF 		bl	_dbg_check_unlock_from_isr
 1149              	.LVL69:
 1150              		.loc 3 409 3 discriminator 5 view .LVU338
 1151 00ba FFF7FEFF 		bl	_stats_stop_measure_crit_isr
 1152              	.LVL70:
 1153              		.loc 3 410 3 discriminator 5 view .LVU339
 1154              	.LBB195:
 1155              	.LBI195:
 1156              		.loc 4 484 20 discriminator 5 view .LVU340
 1157              	.LBE195:
 1158              	.LBE194:
 1159              	.LBE193:
 1160              	.LBE192:
 1161              	.LBE191:
 1162              		.loc 4 486 3 discriminator 5 view .LVU341
 1163              	.LBB208:
 1164              	.LBB206:
 1165              	.LBB204:
 1166              	.LBB202:
 1167              	.LBB200:
 1168              	.LBB196:
 1169              	.LBI196:
 1170              		.loc 4 458 20 discriminator 5 view .LVU342
 1171              	.LBE196:
 1172              	.LBE200:
 1173              	.LBE202:
 1174              	.LBE204:
 1175              	.LBE206:
 1176              	.LBE208:
 1177              		.loc 4 461 3 discriminator 5 view .LVU343
 1178              	.LBB209:
 1179              	.LBB207:
 1180              	.LBB205:
 1181              	.LBB203:
 1182              	.LBB201:
 1183              	.LBB199:
 1184              	.LBB197:
 1185              	.LBI197:
 1186              		.loc 5 544 57 discriminator 5 view .LVU344
 1187              	.LBB198:
 1188              		.loc 5 546 3 discriminator 5 view .LVU345
 1189              		.syntax unified
 1190              	@ 546 ".//ChibiOS//os/ext/CMSIS/include/core_cmFunc.h" 1
 1191 00be 85F31188 		MSR basepri, r5
 1192              	@ 0 "" 2
 1193              	.LVL71:
 1194              		.loc 5 546 3 is_stmt 0 discriminator 5 view .LVU346
 1195              		.thumb
 1196              		.syntax unified
 1197              	.LBE198:
ARM GAS  /tmp/cckUUDWB.s 			page 22


 1198              	.LBE197:
 1199              	.LBE199:
 1200              	.LBE201:
 1201              	.LBE203:
 1202              	.LBE205:
 1203              		.loc 2 481 1 discriminator 5 view .LVU347
 1204 00c2 CBE7     		b	.L82
 1205              	.L117:
 1206              		.loc 2 481 1 discriminator 5 view .LVU348
 1207              	.LBE207:
 1208              	.LBE209:
 1209              		.loc 1 137 5 is_stmt 1 view .LVU349
 1210              		.loc 1 137 8 is_stmt 0 view .LVU350
 1211 00c4 2369     		ldr	r3, [r4, #16]
 1212 00c6 002B     		cmp	r3, #0
 1213 00c8 BDD0     		beq	.L78
 1214              		.loc 1 138 7 is_stmt 1 view .LVU351
 1215 00ca 2046     		mov	r0, r4
 1216 00cc FFF7FEFF 		bl	adc_lld_stop_conversion
 1217              	.LVL72:
 1218              		.loc 1 138 7 view .LVU352
 1219 00d0 2369     		ldr	r3, [r4, #16]
 1220 00d2 9B68     		ldr	r3, [r3, #8]
 1221 00d4 4BB1     		cbz	r3, .L80
 1222              		.loc 1 138 7 discriminator 1 view .LVU353
 1223 00d6 0522     		movs	r2, #5
 1224 00d8 2270     		strb	r2, [r4]
 1225              		.loc 1 138 7 discriminator 1 view .LVU354
 1226 00da 0121     		movs	r1, #1
 1227 00dc 2046     		mov	r0, r4
 1228 00de 9847     		blx	r3
 1229              	.LVL73:
 1230              		.loc 1 138 7 discriminator 1 view .LVU355
 1231 00e0 2378     		ldrb	r3, [r4]	@ zero_extendqisi2
 1232 00e2 052B     		cmp	r3, #5
 1233              		.loc 1 138 7 discriminator 1 view .LVU356
 1234 00e4 04BF     		itt	eq
 1235 00e6 0223     		moveq	r3, #2
 1236 00e8 2370     		strbeq	r3, [r4]
 1237              	.L80:
 1238              		.loc 1 138 7 discriminator 5 view .LVU357
 1239 00ea 0025     		movs	r5, #0
 1240 00ec 2561     		str	r5, [r4, #16]
 1241              		.loc 1 138 7 discriminator 5 view .LVU358
 1242              	.LBB210:
 1243              	.LBI210:
 1244              		.loc 2 467 20 discriminator 5 view .LVU359
 1245              	.LBE210:
 1246              		.loc 2 469 3 discriminator 5 view .LVU360
 1247              	.LBB224:
 1248              	.LBB211:
 1249              	.LBI211:
 1250              		.loc 3 386 20 discriminator 5 view .LVU361
 1251              	.LBB212:
 1252              		.loc 3 388 3 discriminator 5 view .LVU362
 1253              	.LBB213:
 1254              	.LBI213:
ARM GAS  /tmp/cckUUDWB.s 			page 23


 1255              		.loc 4 473 20 discriminator 5 view .LVU363
 1256              	.LBE213:
 1257              	.LBE212:
 1258              	.LBE211:
 1259              	.LBE224:
 1260              		.loc 4 475 3 discriminator 5 view .LVU364
 1261              	.LBB225:
 1262              	.LBB222:
 1263              	.LBB220:
 1264              	.LBB218:
 1265              	.LBB214:
 1266              	.LBI214:
 1267              		.loc 4 444 20 discriminator 5 view .LVU365
 1268              	.LBE214:
 1269              	.LBE218:
 1270              	.LBE220:
 1271              	.LBE222:
 1272              	.LBE225:
 1273              		.loc 4 447 3 discriminator 5 view .LVU366
 1274              	.LVL74:
 1275              	.LBB226:
 1276              	.LBB223:
 1277              	.LBB221:
 1278              	.LBB219:
 1279              	.LBB217:
 1280              	.LBB215:
 1281              	.LBI215:
 1282              		.loc 5 544 57 discriminator 5 view .LVU367
 1283              	.LBB216:
 1284              		.loc 5 546 3 discriminator 5 view .LVU368
 1285 00ee 2023     		movs	r3, #32
 1286              		.syntax unified
 1287              	@ 546 ".//ChibiOS//os/ext/CMSIS/include/core_cmFunc.h" 1
 1288 00f0 83F31188 		MSR basepri, r3
 1289              	@ 0 "" 2
 1290              	.LVL75:
 1291              		.loc 5 546 3 is_stmt 0 discriminator 5 view .LVU369
 1292              		.thumb
 1293              		.syntax unified
 1294              	.LBE216:
 1295              	.LBE215:
 1296              	.LBE217:
 1297              	.LBE219:
 1298              		.loc 3 389 3 is_stmt 1 discriminator 5 view .LVU370
 1299 00f4 FFF7FEFF 		bl	_stats_start_measure_crit_isr
 1300              	.LVL76:
 1301              		.loc 3 390 3 discriminator 5 view .LVU371
 1302 00f8 FFF7FEFF 		bl	_dbg_check_lock_from_isr
 1303              	.LVL77:
 1304              	.LBE221:
 1305              	.LBE223:
 1306              	.LBE226:
 1307              		.loc 1 138 7 discriminator 5 view .LVU372
 1308              	.LBB227:
 1309              	.LBI227:
 1310              		.loc 2 680 20 discriminator 5 view .LVU373
 1311              	.LBB228:
ARM GAS  /tmp/cckUUDWB.s 			page 24


 1312              		.loc 2 682 3 discriminator 5 view .LVU374
 1313 00fc 2248     		ldr	r0, .L120+32
 1314 00fe 4FF0FF31 		mov	r1, #-1
 1315 0102 FFF7FEFF 		bl	chThdResumeI
 1316              	.LVL78:
 1317              		.loc 2 682 3 is_stmt 0 discriminator 5 view .LVU375
 1318              	.LBE228:
 1319              	.LBE227:
 1320              		.loc 1 138 7 is_stmt 1 discriminator 5 view .LVU376
 1321              	.LBB229:
 1322              	.LBI229:
 1323              		.loc 2 478 20 discriminator 5 view .LVU377
 1324              	.LBB230:
 1325              		.loc 2 480 3 discriminator 5 view .LVU378
 1326              	.LBB231:
 1327              	.LBI231:
 1328              		.loc 3 406 20 discriminator 5 view .LVU379
 1329              	.LBB232:
 1330              		.loc 3 408 3 discriminator 5 view .LVU380
 1331 0106 FFF7FEFF 		bl	_dbg_check_unlock_from_isr
 1332              	.LVL79:
 1333              		.loc 3 409 3 discriminator 5 view .LVU381
 1334 010a FFF7FEFF 		bl	_stats_stop_measure_crit_isr
 1335              	.LVL80:
 1336              		.loc 3 410 3 discriminator 5 view .LVU382
 1337              	.LBB233:
 1338              	.LBI233:
 1339              		.loc 4 484 20 discriminator 5 view .LVU383
 1340              	.LBE233:
 1341              	.LBE232:
 1342              	.LBE231:
 1343              	.LBE230:
 1344              	.LBE229:
 1345              		.loc 4 486 3 discriminator 5 view .LVU384
 1346              	.LBB246:
 1347              	.LBB244:
 1348              	.LBB242:
 1349              	.LBB240:
 1350              	.LBB238:
 1351              	.LBB234:
 1352              	.LBI234:
 1353              		.loc 4 458 20 discriminator 5 view .LVU385
 1354              	.LBE234:
 1355              	.LBE238:
 1356              	.LBE240:
 1357              	.LBE242:
 1358              	.LBE244:
 1359              	.LBE246:
 1360              		.loc 4 461 3 discriminator 5 view .LVU386
 1361              	.LBB247:
 1362              	.LBB245:
 1363              	.LBB243:
 1364              	.LBB241:
 1365              	.LBB239:
 1366              	.LBB237:
 1367              	.LBB235:
 1368              	.LBI235:
ARM GAS  /tmp/cckUUDWB.s 			page 25


 1369              		.loc 5 544 57 discriminator 5 view .LVU387
 1370              	.LBB236:
 1371              		.loc 5 546 3 discriminator 5 view .LVU388
 1372              		.syntax unified
 1373              	@ 546 ".//ChibiOS//os/ext/CMSIS/include/core_cmFunc.h" 1
 1374 010e 85F31188 		MSR basepri, r5
 1375              	@ 0 "" 2
 1376              	.LVL81:
 1377              		.loc 5 546 3 is_stmt 0 discriminator 5 view .LVU389
 1378              		.thumb
 1379              		.syntax unified
 1380              	.LBE236:
 1381              	.LBE235:
 1382              	.LBE237:
 1383              	.LBE239:
 1384              	.LBE241:
 1385              	.LBE243:
 1386              		.loc 2 481 1 discriminator 5 view .LVU390
 1387 0112 98E7     		b	.L78
 1388              	.LVL82:
 1389              	.L116:
 1390              		.loc 2 481 1 discriminator 5 view .LVU391
 1391              	.LBE245:
 1392              	.LBE247:
 1393              		.loc 1 123 5 is_stmt 1 view .LVU392
 1394              		.loc 1 123 8 is_stmt 0 view .LVU393
 1395 0114 2369     		ldr	r3, [r4, #16]
 1396 0116 002B     		cmp	r3, #0
 1397 0118 89D0     		beq	.L74
 1398              		.loc 1 124 7 is_stmt 1 view .LVU394
 1399 011a 2046     		mov	r0, r4
 1400 011c FFF7FEFF 		bl	adc_lld_stop_conversion
 1401              	.LVL83:
 1402              		.loc 1 124 7 view .LVU395
 1403 0120 2369     		ldr	r3, [r4, #16]
 1404 0122 9B68     		ldr	r3, [r3, #8]
 1405 0124 4BB1     		cbz	r3, .L76
 1406              		.loc 1 124 7 discriminator 1 view .LVU396
 1407 0126 0522     		movs	r2, #5
 1408 0128 2270     		strb	r2, [r4]
 1409              		.loc 1 124 7 discriminator 1 view .LVU397
 1410 012a 0121     		movs	r1, #1
 1411 012c 2046     		mov	r0, r4
 1412 012e 9847     		blx	r3
 1413              	.LVL84:
 1414              		.loc 1 124 7 discriminator 1 view .LVU398
 1415 0130 2378     		ldrb	r3, [r4]	@ zero_extendqisi2
 1416 0132 052B     		cmp	r3, #5
 1417              		.loc 1 124 7 discriminator 1 view .LVU399
 1418 0134 04BF     		itt	eq
 1419 0136 0223     		moveq	r3, #2
 1420 0138 2370     		strbeq	r3, [r4]
 1421              	.L76:
 1422              		.loc 1 124 7 discriminator 5 view .LVU400
 1423 013a 0025     		movs	r5, #0
 1424 013c 2561     		str	r5, [r4, #16]
 1425              		.loc 1 124 7 discriminator 5 view .LVU401
ARM GAS  /tmp/cckUUDWB.s 			page 26


 1426              	.LBB248:
 1427              	.LBI248:
 1428              		.loc 2 467 20 discriminator 5 view .LVU402
 1429              	.LBE248:
 1430              		.loc 2 469 3 discriminator 5 view .LVU403
 1431              	.LBB262:
 1432              	.LBB249:
 1433              	.LBI249:
 1434              		.loc 3 386 20 discriminator 5 view .LVU404
 1435              	.LBB250:
 1436              		.loc 3 388 3 discriminator 5 view .LVU405
 1437              	.LBB251:
 1438              	.LBI251:
 1439              		.loc 4 473 20 discriminator 5 view .LVU406
 1440              	.LBE251:
 1441              	.LBE250:
 1442              	.LBE249:
 1443              	.LBE262:
 1444              		.loc 4 475 3 discriminator 5 view .LVU407
 1445              	.LBB263:
 1446              	.LBB260:
 1447              	.LBB258:
 1448              	.LBB256:
 1449              	.LBB252:
 1450              	.LBI252:
 1451              		.loc 4 444 20 discriminator 5 view .LVU408
 1452              	.LBE252:
 1453              	.LBE256:
 1454              	.LBE258:
 1455              	.LBE260:
 1456              	.LBE263:
 1457              		.loc 4 447 3 discriminator 5 view .LVU409
 1458              	.LVL85:
 1459              	.LBB264:
 1460              	.LBB261:
 1461              	.LBB259:
 1462              	.LBB257:
 1463              	.LBB255:
 1464              	.LBB253:
 1465              	.LBI253:
 1466              		.loc 5 544 57 discriminator 5 view .LVU410
 1467              	.LBB254:
 1468              		.loc 5 546 3 discriminator 5 view .LVU411
 1469 013e 2023     		movs	r3, #32
 1470              		.syntax unified
 1471              	@ 546 ".//ChibiOS//os/ext/CMSIS/include/core_cmFunc.h" 1
 1472 0140 83F31188 		MSR basepri, r3
 1473              	@ 0 "" 2
 1474              	.LVL86:
 1475              		.loc 5 546 3 is_stmt 0 discriminator 5 view .LVU412
 1476              		.thumb
 1477              		.syntax unified
 1478              	.LBE254:
 1479              	.LBE253:
 1480              	.LBE255:
 1481              	.LBE257:
 1482              		.loc 3 389 3 is_stmt 1 discriminator 5 view .LVU413
ARM GAS  /tmp/cckUUDWB.s 			page 27


 1483 0144 FFF7FEFF 		bl	_stats_start_measure_crit_isr
 1484              	.LVL87:
 1485              		.loc 3 390 3 discriminator 5 view .LVU414
 1486 0148 FFF7FEFF 		bl	_dbg_check_lock_from_isr
 1487              	.LVL88:
 1488              	.LBE259:
 1489              	.LBE261:
 1490              	.LBE264:
 1491              		.loc 1 124 7 discriminator 5 view .LVU415
 1492              	.LBB265:
 1493              	.LBI265:
 1494              		.loc 2 680 20 discriminator 5 view .LVU416
 1495              	.LBB266:
 1496              		.loc 2 682 3 discriminator 5 view .LVU417
 1497 014c 0F48     		ldr	r0, .L120+36
 1498 014e 4FF0FF31 		mov	r1, #-1
 1499 0152 FFF7FEFF 		bl	chThdResumeI
 1500              	.LVL89:
 1501              		.loc 2 682 3 is_stmt 0 discriminator 5 view .LVU418
 1502              	.LBE266:
 1503              	.LBE265:
 1504              		.loc 1 124 7 is_stmt 1 discriminator 5 view .LVU419
 1505              	.LBB267:
 1506              	.LBI267:
 1507              		.loc 2 478 20 discriminator 5 view .LVU420
 1508              	.LBB268:
 1509              		.loc 2 480 3 discriminator 5 view .LVU421
 1510              	.LBB269:
 1511              	.LBI269:
 1512              		.loc 3 406 20 discriminator 5 view .LVU422
 1513              	.LBB270:
 1514              		.loc 3 408 3 discriminator 5 view .LVU423
 1515 0156 FFF7FEFF 		bl	_dbg_check_unlock_from_isr
 1516              	.LVL90:
 1517              		.loc 3 409 3 discriminator 5 view .LVU424
 1518 015a FFF7FEFF 		bl	_stats_stop_measure_crit_isr
 1519              	.LVL91:
 1520              		.loc 3 410 3 discriminator 5 view .LVU425
 1521              	.LBB271:
 1522              	.LBI271:
 1523              		.loc 4 484 20 discriminator 5 view .LVU426
 1524              	.LBE271:
 1525              	.LBE270:
 1526              	.LBE269:
 1527              	.LBE268:
 1528              	.LBE267:
 1529              		.loc 4 486 3 discriminator 5 view .LVU427
 1530              	.LBB284:
 1531              	.LBB282:
 1532              	.LBB280:
 1533              	.LBB278:
 1534              	.LBB276:
 1535              	.LBB272:
 1536              	.LBI272:
 1537              		.loc 4 458 20 discriminator 5 view .LVU428
 1538              	.LBE272:
 1539              	.LBE276:
ARM GAS  /tmp/cckUUDWB.s 			page 28


 1540              	.LBE278:
 1541              	.LBE280:
 1542              	.LBE282:
 1543              	.LBE284:
 1544              		.loc 4 461 3 discriminator 5 view .LVU429
 1545              	.LBB285:
 1546              	.LBB283:
 1547              	.LBB281:
 1548              	.LBB279:
 1549              	.LBB277:
 1550              	.LBB275:
 1551              	.LBB273:
 1552              	.LBI273:
 1553              		.loc 5 544 57 discriminator 5 view .LVU430
 1554              	.LBB274:
 1555              		.loc 5 546 3 discriminator 5 view .LVU431
 1556              		.syntax unified
 1557              	@ 546 ".//ChibiOS//os/ext/CMSIS/include/core_cmFunc.h" 1
 1558 015e 85F31188 		MSR basepri, r5
 1559              	@ 0 "" 2
 1560              	.LVL92:
 1561              		.loc 5 546 3 is_stmt 0 discriminator 5 view .LVU432
 1562              		.thumb
 1563              		.syntax unified
 1564              	.LBE274:
 1565              	.LBE273:
 1566              	.LBE275:
 1567              	.LBE277:
 1568              	.LBE279:
 1569              	.LBE281:
 1570              		.loc 2 481 1 discriminator 5 view .LVU433
 1571 0162 64E7     		b	.L74
 1572              	.L119:
 1573              		.loc 2 481 1 discriminator 5 view .LVU434
 1574              	.LBE283:
 1575              	.LBE285:
 1576              		.loc 1 157 3 discriminator 6 view .LVU435
 1577 0164 FFF7FEFF 		bl	__stack_chk_fail
 1578              	.LVL93:
 1579              	.L121:
 1580              		.align	2
 1581              	.L120:
 1582 0168 00000000 		.word	.LC5
 1583 016c 00200140 		.word	1073815552
 1584 0170 00000000 		.word	.LANCHOR0
 1585 0174 00210140 		.word	1073815808
 1586 0178 00000000 		.word	.LANCHOR1
 1587 017c 00220140 		.word	1073816064
 1588 0180 00000000 		.word	.LANCHOR2
 1589 0184 14000000 		.word	.LANCHOR2+20
 1590 0188 14000000 		.word	.LANCHOR1+20
 1591 018c 14000000 		.word	.LANCHOR0+20
 1592              		.cfi_endproc
 1593              	.LFE257:
 1594              		.size	Vector88, .-Vector88
 1595              		.section	.rodata.adc_lld_serve_rx_interrupt.cst4,"aM",%progbits,4
 1596              		.align	2
ARM GAS  /tmp/cckUUDWB.s 			page 29


 1597              	.LC6:
 1598 0000 00000000 		.word	__stack_chk_guard
 1599              		.section	.text.adc_lld_serve_rx_interrupt,"ax",%progbits
 1600              		.align	1
 1601              		.p2align 4,,15
 1602              		.syntax unified
 1603              		.thumb
 1604              		.thumb_func
 1605              		.fpu fpv4-sp-d16
 1606              		.type	adc_lld_serve_rx_interrupt, %function
 1607              	adc_lld_serve_rx_interrupt:
 1608              	.LVL94:
 1609              	.LFB256:
 1610              		.loc 1 75 73 is_stmt 1 view -0
 1611              		.cfi_startproc
 1612              		@ args = 0, pretend = 0, frame = 8
 1613              		@ frame_needed = 0, uses_anonymous_args = 0
 1614              		.loc 1 75 73 is_stmt 0 view .LVU437
 1615 0000 30B5     		push	{r4, r5, lr}
 1616              		.cfi_def_cfa_offset 12
 1617              		.cfi_offset 4, -12
 1618              		.cfi_offset 5, -8
 1619              		.cfi_offset 14, -4
 1620 0002 4C4B     		ldr	r3, .L156
 1621 0004 83B0     		sub	sp, sp, #12
 1622              		.cfi_def_cfa_offset 24
 1623              		.loc 1 78 6 view .LVU438
 1624 0006 11F00C0F 		tst	r1, #12
 1625              		.loc 1 75 73 view .LVU439
 1626 000a 1B68     		ldr	r3, [r3]
 1627 000c 0193     		str	r3, [sp, #4]
 1628 000e 4FF00003 		mov	r3,#0
 1629              		.loc 1 78 3 is_stmt 1 view .LVU440
 1630              		.loc 1 75 73 is_stmt 0 view .LVU441
 1631 0012 0446     		mov	r4, r0
 1632              		.loc 1 78 6 view .LVU442
 1633 0014 21D1     		bne	.L155
 1634              	.LVL95:
 1635              	.LBB340:
 1636              	.LBI340:
 1637              		.loc 1 75 13 is_stmt 1 view .LVU443
 1638              	.LBB341:
 1639              		.loc 1 86 5 view .LVU444
 1640              		.loc 1 86 13 is_stmt 0 view .LVU445
 1641 0016 0369     		ldr	r3, [r0, #16]
 1642              		.loc 1 86 8 view .LVU446
 1643 0018 002B     		cmp	r3, #0
 1644 001a 43D0     		beq	.L122
 1645              		.loc 1 87 7 is_stmt 1 view .LVU447
 1646              		.loc 1 87 10 is_stmt 0 view .LVU448
 1647 001c 8D06     		lsls	r5, r1, #26
 1648 001e 48D5     		bpl	.L128
 1649              		.loc 1 89 9 is_stmt 1 view .LVU449
 1650 0020 1A78     		ldrb	r2, [r3]	@ zero_extendqisi2
 1651 0022 002A     		cmp	r2, #0
 1652 0024 53D0     		beq	.L129
 1653              		.loc 1 89 9 view .LVU450
ARM GAS  /tmp/cckUUDWB.s 			page 30


 1654 0026 5D68     		ldr	r5, [r3, #4]
 1655 0028 002D     		cmp	r5, #0
 1656 002a 3BD0     		beq	.L122
 1657              		.loc 1 89 9 view .LVU451
 1658 002c C268     		ldr	r2, [r0, #12]
 1659 002e 012A     		cmp	r2, #1
 1660 0030 75D9     		bls	.L130
 1661              	.LBB342:
 1662              		.loc 1 89 9 view .LVU452
 1663 0032 4049     		ldr	r1, .L156
 1664              	.LVL96:
 1665              		.loc 1 89 9 is_stmt 0 view .LVU453
 1666 0034 D1F800C0 		ldr	ip, [r1]
 1667 0038 0199     		ldr	r1, [sp, #4]
 1668 003a 91EA0C0C 		eors	ip, r1, ip
 1669 003e 4FEA5202 		lsr	r2, r2, #1
 1670              	.LVL97:
 1671              		.loc 1 89 9 is_stmt 1 view .LVU454
 1672              		.loc 1 89 9 view .LVU455
 1673 0042 74D1     		bne	.L154
 1674 0044 5B88     		ldrh	r3, [r3, #2]
 1675              	.LVL98:
 1676              		.loc 1 89 9 is_stmt 0 view .LVU456
 1677 0046 8168     		ldr	r1, [r0, #8]
 1678 0048 02FB03F3 		mul	r3, r2, r3
 1679              	.LVL99:
 1680              		.loc 1 89 9 view .LVU457
 1681 004c 01EB4301 		add	r1, r1, r3, lsl #1
 1682 0050 2B46     		mov	r3, r5
 1683              	.LVL100:
 1684              	.L153:
 1685              		.loc 1 89 9 view .LVU458
 1686              	.LBE342:
 1687              	.LBE341:
 1688              	.LBE340:
 1689              		.loc 1 97 1 view .LVU459
 1690 0052 03B0     		add	sp, sp, #12
 1691              		.cfi_remember_state
 1692              		.cfi_def_cfa_offset 12
 1693              		@ sp needed
 1694 0054 BDE83040 		pop	{r4, r5, lr}
 1695              		.cfi_restore 14
 1696              		.cfi_restore 5
 1697              		.cfi_restore 4
 1698              		.cfi_def_cfa_offset 0
 1699              	.LBB388:
 1700              	.LBB381:
 1701              		.loc 1 93 9 view .LVU460
 1702 0058 1847     		bx	r3	@ indirect register sibling call
 1703              	.LVL101:
 1704              	.L155:
 1705              		.cfi_restore_state
 1706              		.loc 1 93 9 view .LVU461
 1707              	.LBE381:
 1708              	.LBE388:
 1709              		.loc 1 81 5 is_stmt 1 view .LVU462
 1710 005a FFF7FEFF 		bl	adc_lld_stop_conversion
ARM GAS  /tmp/cckUUDWB.s 			page 31


 1711              	.LVL102:
 1712              		.loc 1 81 5 view .LVU463
 1713 005e 2369     		ldr	r3, [r4, #16]
 1714 0060 9A68     		ldr	r2, [r3, #8]
 1715 0062 52B1     		cbz	r2, .L125
 1716              		.loc 1 81 5 discriminator 1 view .LVU464
 1717 0064 0522     		movs	r2, #5
 1718 0066 2270     		strb	r2, [r4]
 1719              		.loc 1 81 5 discriminator 1 view .LVU465
 1720 0068 9B68     		ldr	r3, [r3, #8]
 1721 006a 0021     		movs	r1, #0
 1722 006c 2046     		mov	r0, r4
 1723 006e 9847     		blx	r3
 1724              	.LVL103:
 1725              		.loc 1 81 5 discriminator 1 view .LVU466
 1726 0070 2378     		ldrb	r3, [r4]	@ zero_extendqisi2
 1727 0072 052B     		cmp	r3, #5
 1728              		.loc 1 81 5 discriminator 1 view .LVU467
 1729 0074 04BF     		itt	eq
 1730 0076 0223     		moveq	r3, #2
 1731 0078 2370     		strbeq	r3, [r4]
 1732              	.L125:
 1733              		.loc 1 81 5 discriminator 5 view .LVU468
 1734 007a 0025     		movs	r5, #0
 1735 007c 2561     		str	r5, [r4, #16]
 1736              		.loc 1 81 5 discriminator 5 view .LVU469
 1737              	.LBB389:
 1738              	.LBI389:
 1739              		.loc 2 467 20 discriminator 5 view .LVU470
 1740              	.LBE389:
 1741              		.loc 2 469 3 discriminator 5 view .LVU471
 1742              	.LBB403:
 1743              	.LBB390:
 1744              	.LBI390:
 1745              		.loc 3 386 20 discriminator 5 view .LVU472
 1746              	.LBB391:
 1747              		.loc 3 388 3 discriminator 5 view .LVU473
 1748              	.LBB392:
 1749              	.LBI392:
 1750              		.loc 4 473 20 discriminator 5 view .LVU474
 1751              	.LBE392:
 1752              	.LBE391:
 1753              	.LBE390:
 1754              	.LBE403:
 1755              		.loc 4 475 3 discriminator 5 view .LVU475
 1756              	.LBB404:
 1757              	.LBB401:
 1758              	.LBB399:
 1759              	.LBB397:
 1760              	.LBB393:
 1761              	.LBI393:
 1762              		.loc 4 444 20 discriminator 5 view .LVU476
 1763              	.LBE393:
 1764              	.LBE397:
 1765              	.LBE399:
 1766              	.LBE401:
 1767              	.LBE404:
ARM GAS  /tmp/cckUUDWB.s 			page 32


 1768              		.loc 4 447 3 discriminator 5 view .LVU477
 1769              	.LVL104:
 1770              	.LBB405:
 1771              	.LBB402:
 1772              	.LBB400:
 1773              	.LBB398:
 1774              	.LBB396:
 1775              	.LBB394:
 1776              	.LBI394:
 1777              		.loc 5 544 57 discriminator 5 view .LVU478
 1778              	.LBB395:
 1779              		.loc 5 546 3 discriminator 5 view .LVU479
 1780 007e 2023     		movs	r3, #32
 1781              		.syntax unified
 1782              	@ 546 ".//ChibiOS//os/ext/CMSIS/include/core_cmFunc.h" 1
 1783 0080 83F31188 		MSR basepri, r3
 1784              	@ 0 "" 2
 1785              	.LVL105:
 1786              		.loc 5 546 3 is_stmt 0 discriminator 5 view .LVU480
 1787              		.thumb
 1788              		.syntax unified
 1789              	.LBE395:
 1790              	.LBE394:
 1791              	.LBE396:
 1792              	.LBE398:
 1793              		.loc 3 389 3 is_stmt 1 discriminator 5 view .LVU481
 1794 0084 FFF7FEFF 		bl	_stats_start_measure_crit_isr
 1795              	.LVL106:
 1796              		.loc 3 390 3 discriminator 5 view .LVU482
 1797 0088 FFF7FEFF 		bl	_dbg_check_lock_from_isr
 1798              	.LVL107:
 1799              	.LBE400:
 1800              	.LBE402:
 1801              	.LBE405:
 1802              		.loc 1 81 5 discriminator 5 view .LVU483
 1803              	.LBB406:
 1804              	.LBI406:
 1805              		.loc 2 680 20 discriminator 5 view .LVU484
 1806              	.LBB407:
 1807              		.loc 2 682 3 discriminator 5 view .LVU485
 1808 008c 04F11400 		add	r0, r4, #20
 1809              	.LVL108:
 1810              		.loc 2 682 3 is_stmt 0 discriminator 5 view .LVU486
 1811 0090 4FF0FF31 		mov	r1, #-1
 1812 0094 FFF7FEFF 		bl	chThdResumeI
 1813              	.LVL109:
 1814              		.loc 2 682 3 discriminator 5 view .LVU487
 1815              	.LBE407:
 1816              	.LBE406:
 1817              		.loc 1 81 5 is_stmt 1 discriminator 5 view .LVU488
 1818              	.LBB408:
 1819              	.LBI408:
 1820              		.loc 2 478 20 discriminator 5 view .LVU489
 1821              	.LBB409:
 1822              		.loc 2 480 3 discriminator 5 view .LVU490
 1823              	.LBB410:
 1824              	.LBI410:
ARM GAS  /tmp/cckUUDWB.s 			page 33


 1825              		.loc 3 406 20 discriminator 5 view .LVU491
 1826              	.LBB411:
 1827              		.loc 3 408 3 discriminator 5 view .LVU492
 1828 0098 FFF7FEFF 		bl	_dbg_check_unlock_from_isr
 1829              	.LVL110:
 1830              		.loc 3 409 3 discriminator 5 view .LVU493
 1831 009c FFF7FEFF 		bl	_stats_stop_measure_crit_isr
 1832              	.LVL111:
 1833              		.loc 3 410 3 discriminator 5 view .LVU494
 1834              	.LBB412:
 1835              	.LBI412:
 1836              		.loc 4 484 20 discriminator 5 view .LVU495
 1837              	.LBE412:
 1838              	.LBE411:
 1839              	.LBE410:
 1840              	.LBE409:
 1841              	.LBE408:
 1842              		.loc 4 486 3 discriminator 5 view .LVU496
 1843              	.LBB425:
 1844              	.LBB423:
 1845              	.LBB421:
 1846              	.LBB419:
 1847              	.LBB417:
 1848              	.LBB413:
 1849              	.LBI413:
 1850              		.loc 4 458 20 discriminator 5 view .LVU497
 1851              	.LBE413:
 1852              	.LBE417:
 1853              	.LBE419:
 1854              	.LBE421:
 1855              	.LBE423:
 1856              	.LBE425:
 1857              		.loc 4 461 3 discriminator 5 view .LVU498
 1858              	.LBB426:
 1859              	.LBB424:
 1860              	.LBB422:
 1861              	.LBB420:
 1862              	.LBB418:
 1863              	.LBB416:
 1864              	.LBB414:
 1865              	.LBI414:
 1866              		.loc 5 544 57 discriminator 5 view .LVU499
 1867              	.LBB415:
 1868              		.loc 5 546 3 discriminator 5 view .LVU500
 1869              		.syntax unified
 1870              	@ 546 ".//ChibiOS//os/ext/CMSIS/include/core_cmFunc.h" 1
 1871 00a0 85F31188 		MSR basepri, r5
 1872              	@ 0 "" 2
 1873              	.LVL112:
 1874              		.thumb
 1875              		.syntax unified
 1876              	.L122:
 1877              		.loc 5 546 3 is_stmt 0 discriminator 5 view .LVU501
 1878              	.LBE415:
 1879              	.LBE414:
 1880              	.LBE416:
 1881              	.LBE418:
ARM GAS  /tmp/cckUUDWB.s 			page 34


 1882              	.LBE420:
 1883              	.LBE422:
 1884              	.LBE424:
 1885              	.LBE426:
 1886              		.loc 1 97 1 view .LVU502
 1887 00a4 234B     		ldr	r3, .L156
 1888 00a6 1A68     		ldr	r2, [r3]
 1889 00a8 019B     		ldr	r3, [sp, #4]
 1890 00aa 5A40     		eors	r2, r3, r2
 1891 00ac 3FD1     		bne	.L154
 1892 00ae 03B0     		add	sp, sp, #12
 1893              		.cfi_remember_state
 1894              		.cfi_def_cfa_offset 12
 1895              		@ sp needed
 1896 00b0 30BD     		pop	{r4, r5, pc}
 1897              	.LVL113:
 1898              	.L128:
 1899              		.cfi_restore_state
 1900              	.LBB427:
 1901              	.LBB382:
 1902              		.loc 1 91 12 is_stmt 1 view .LVU503
 1903              		.loc 1 91 15 is_stmt 0 view .LVU504
 1904 00b2 CA06     		lsls	r2, r1, #27
 1905 00b4 F6D5     		bpl	.L122
 1906              		.loc 1 93 9 is_stmt 1 view .LVU505
 1907 00b6 5B68     		ldr	r3, [r3, #4]
 1908 00b8 002B     		cmp	r3, #0
 1909 00ba F3D0     		beq	.L122
 1910              		.loc 1 93 9 view .LVU506
 1911 00bc 1D4A     		ldr	r2, .L156
 1912 00be 1168     		ldr	r1, [r2]
 1913 00c0 019A     		ldr	r2, [sp, #4]
 1914 00c2 5140     		eors	r1, r2, r1
 1915              	.LVL114:
 1916              		.loc 1 93 9 is_stmt 0 view .LVU507
 1917 00c4 33D1     		bne	.L154
 1918 00c6 D0E90212 		ldrd	r1, r2, [r0, #8]
 1919 00ca 5208     		lsrs	r2, r2, #1
 1920 00cc C1E7     		b	.L153
 1921              	.LVL115:
 1922              	.L129:
 1923              		.loc 1 89 9 is_stmt 1 view .LVU508
 1924 00ce FFF7FEFF 		bl	adc_lld_stop_conversion
 1925              	.LVL116:
 1926              		.loc 1 89 9 view .LVU509
 1927 00d2 2369     		ldr	r3, [r4, #16]
 1928 00d4 5A68     		ldr	r2, [r3, #4]
 1929 00d6 EAB1     		cbz	r2, .L133
 1930              		.loc 1 89 9 view .LVU510
 1931 00d8 0422     		movs	r2, #4
 1932 00da 2270     		strb	r2, [r4]
 1933              		.loc 1 89 9 view .LVU511
 1934 00dc 5B68     		ldr	r3, [r3, #4]
 1935 00de D4E90212 		ldrd	r1, r2, [r4, #8]
 1936 00e2 2046     		mov	r0, r4
 1937 00e4 9847     		blx	r3
 1938              	.LVL117:
ARM GAS  /tmp/cckUUDWB.s 			page 35


 1939              		.loc 1 89 9 view .LVU512
 1940 00e6 2378     		ldrb	r3, [r4]	@ zero_extendqisi2
 1941 00e8 042B     		cmp	r3, #4
 1942 00ea 13D0     		beq	.L133
 1943              	.L134:
 1944              		.loc 1 89 9 view .LVU513
 1945              	.LBB343:
 1946              	.LBI343:
 1947              		.loc 2 467 20 view .LVU514
 1948              	.LBE343:
 1949              	.LBE382:
 1950              	.LBE427:
 1951              		.loc 2 469 3 view .LVU515
 1952              	.LBB428:
 1953              	.LBB383:
 1954              	.LBB357:
 1955              	.LBB344:
 1956              	.LBI344:
 1957              		.loc 3 386 20 view .LVU516
 1958              	.LBB345:
 1959              		.loc 3 388 3 view .LVU517
 1960              	.LBB346:
 1961              	.LBI346:
 1962              		.loc 4 473 20 view .LVU518
 1963              	.LBE346:
 1964              	.LBE345:
 1965              	.LBE344:
 1966              	.LBE357:
 1967              	.LBE383:
 1968              	.LBE428:
 1969              		.loc 4 475 3 view .LVU519
 1970              	.LBB429:
 1971              	.LBB384:
 1972              	.LBB358:
 1973              	.LBB355:
 1974              	.LBB353:
 1975              	.LBB351:
 1976              	.LBB347:
 1977              	.LBI347:
 1978              		.loc 4 444 20 view .LVU520
 1979              	.LBE347:
 1980              	.LBE351:
 1981              	.LBE353:
 1982              	.LBE355:
 1983              	.LBE358:
 1984              	.LBE384:
 1985              	.LBE429:
 1986              		.loc 4 447 3 view .LVU521
 1987              	.LVL118:
 1988              	.LBB430:
 1989              	.LBB385:
 1990              	.LBB359:
 1991              	.LBB356:
 1992              	.LBB354:
 1993              	.LBB352:
 1994              	.LBB350:
 1995              	.LBB348:
ARM GAS  /tmp/cckUUDWB.s 			page 36


 1996              	.LBI348:
 1997              		.loc 5 544 57 view .LVU522
 1998              	.LBB349:
 1999              		.loc 5 546 3 view .LVU523
 2000 00ec 2023     		movs	r3, #32
 2001              		.syntax unified
 2002              	@ 546 ".//ChibiOS//os/ext/CMSIS/include/core_cmFunc.h" 1
 2003 00ee 83F31188 		MSR basepri, r3
 2004              	@ 0 "" 2
 2005              	.LVL119:
 2006              		.loc 5 546 3 is_stmt 0 view .LVU524
 2007              		.thumb
 2008              		.syntax unified
 2009              	.LBE349:
 2010              	.LBE348:
 2011              	.LBE350:
 2012              	.LBE352:
 2013              		.loc 3 389 3 is_stmt 1 view .LVU525
 2014 00f2 FFF7FEFF 		bl	_stats_start_measure_crit_isr
 2015              	.LVL120:
 2016              		.loc 3 390 3 view .LVU526
 2017 00f6 FFF7FEFF 		bl	_dbg_check_lock_from_isr
 2018              	.LVL121:
 2019              	.LBE354:
 2020              	.LBE356:
 2021              	.LBE359:
 2022              		.loc 1 89 9 view .LVU527
 2023              	.LBB360:
 2024              	.LBI360:
 2025              		.loc 2 680 20 view .LVU528
 2026              	.LBB361:
 2027              		.loc 2 682 3 view .LVU529
 2028 00fa 04F11400 		add	r0, r4, #20
 2029              	.LVL122:
 2030              		.loc 2 682 3 is_stmt 0 view .LVU530
 2031 00fe 0021     		movs	r1, #0
 2032 0100 FFF7FEFF 		bl	chThdResumeI
 2033              	.LVL123:
 2034              		.loc 2 682 3 view .LVU531
 2035              	.LBE361:
 2036              	.LBE360:
 2037              		.loc 1 89 9 is_stmt 1 view .LVU532
 2038              	.LBB362:
 2039              	.LBI362:
 2040              		.loc 2 478 20 view .LVU533
 2041              	.LBB363:
 2042              		.loc 2 480 3 view .LVU534
 2043              	.LBB364:
 2044              	.LBI364:
 2045              		.loc 3 406 20 view .LVU535
 2046              	.LBB365:
 2047              		.loc 3 408 3 view .LVU536
 2048 0104 FFF7FEFF 		bl	_dbg_check_unlock_from_isr
 2049              	.LVL124:
 2050              		.loc 3 409 3 view .LVU537
 2051 0108 FFF7FEFF 		bl	_stats_stop_measure_crit_isr
 2052              	.LVL125:
ARM GAS  /tmp/cckUUDWB.s 			page 37


 2053              		.loc 3 410 3 view .LVU538
 2054              	.LBB366:
 2055              	.LBI366:
 2056              		.loc 4 484 20 view .LVU539
 2057              	.LBE366:
 2058              	.LBE365:
 2059              	.LBE364:
 2060              	.LBE363:
 2061              	.LBE362:
 2062              	.LBE385:
 2063              	.LBE430:
 2064              		.loc 4 486 3 view .LVU540
 2065              	.LBB431:
 2066              	.LBB386:
 2067              	.LBB379:
 2068              	.LBB377:
 2069              	.LBB375:
 2070              	.LBB373:
 2071              	.LBB371:
 2072              	.LBB367:
 2073              	.LBI367:
 2074              		.loc 4 458 20 view .LVU541
 2075              	.LBE367:
 2076              	.LBE371:
 2077              	.LBE373:
 2078              	.LBE375:
 2079              	.LBE377:
 2080              	.LBE379:
 2081              	.LBE386:
 2082              	.LBE431:
 2083              		.loc 4 461 3 view .LVU542
 2084              	.LBB432:
 2085              	.LBB387:
 2086              	.LBB380:
 2087              	.LBB378:
 2088              	.LBB376:
 2089              	.LBB374:
 2090              	.LBB372:
 2091              	.LBB370:
 2092              	.LBB368:
 2093              	.LBI368:
 2094              		.loc 5 544 57 view .LVU543
 2095              	.LBB369:
 2096              		.loc 5 546 3 view .LVU544
 2097 010c 0023     		movs	r3, #0
 2098              		.syntax unified
 2099              	@ 546 ".//ChibiOS//os/ext/CMSIS/include/core_cmFunc.h" 1
 2100 010e 83F31188 		MSR basepri, r3
 2101              	@ 0 "" 2
 2102              	.LVL126:
 2103              		.loc 5 546 3 is_stmt 0 view .LVU545
 2104              		.thumb
 2105              		.syntax unified
 2106              	.LBE369:
 2107              	.LBE368:
 2108              	.LBE370:
 2109              	.LBE372:
ARM GAS  /tmp/cckUUDWB.s 			page 38


 2110              	.LBE374:
 2111              	.LBE376:
 2112              		.loc 2 481 1 view .LVU546
 2113 0112 C7E7     		b	.L122
 2114              	.L133:
 2115              		.loc 2 481 1 view .LVU547
 2116              	.LBE378:
 2117              	.LBE380:
 2118              		.loc 1 89 9 is_stmt 1 view .LVU548
 2119 0114 0222     		movs	r2, #2
 2120 0116 0023     		movs	r3, #0
 2121 0118 2270     		strb	r2, [r4]
 2122              		.loc 1 89 9 view .LVU549
 2123 011a 2361     		str	r3, [r4, #16]
 2124 011c E6E7     		b	.L134
 2125              	.LVL127:
 2126              	.L130:
 2127              		.loc 1 89 9 view .LVU550
 2128 011e 054B     		ldr	r3, .L156
 2129 0120 1968     		ldr	r1, [r3]
 2130 0122 019B     		ldr	r3, [sp, #4]
 2131 0124 5940     		eors	r1, r3, r1
 2132              	.LVL128:
 2133              		.loc 1 89 9 is_stmt 0 view .LVU551
 2134 0126 02D1     		bne	.L154
 2135 0128 8168     		ldr	r1, [r0, #8]
 2136 012a 2B46     		mov	r3, r5
 2137 012c 91E7     		b	.L153
 2138              	.LVL129:
 2139              	.L154:
 2140              		.loc 1 89 9 view .LVU552
 2141              	.LBE387:
 2142              	.LBE432:
 2143              		.loc 1 97 1 view .LVU553
 2144 012e FFF7FEFF 		bl	__stack_chk_fail
 2145              	.LVL130:
 2146              	.L157:
 2147 0132 00BF     		.align	2
 2148              	.L156:
 2149 0134 00000000 		.word	.LC6
 2150              		.cfi_endproc
 2151              	.LFE256:
 2152              		.size	adc_lld_serve_rx_interrupt, .-adc_lld_serve_rx_interrupt
 2153              		.section	.rodata.adcSTM32EnableTSVREFE.cst4,"aM",%progbits,4
 2154              		.align	2
 2155              	.LC7:
 2156 0000 00000000 		.word	__stack_chk_guard
 2157              		.section	.text.adcSTM32EnableTSVREFE,"ax",%progbits
 2158              		.align	1
 2159              		.p2align 4,,15
 2160              		.global	adcSTM32EnableTSVREFE
 2161              		.syntax unified
 2162              		.thumb
 2163              		.thumb_func
 2164              		.fpu fpv4-sp-d16
 2165              		.type	adcSTM32EnableTSVREFE, %function
 2166              	adcSTM32EnableTSVREFE:
ARM GAS  /tmp/cckUUDWB.s 			page 39


 2167              	.LFB263:
 2168              		.loc 1 387 34 is_stmt 1 view -0
 2169              		.cfi_startproc
 2170              		@ args = 0, pretend = 0, frame = 8
 2171              		@ frame_needed = 0, uses_anonymous_args = 0
 2172 0000 00B5     		push	{lr}
 2173              		.cfi_def_cfa_offset 4
 2174              		.cfi_offset 14, -4
 2175 0002 0A4B     		ldr	r3, .L162
 2176              		.loc 1 389 12 is_stmt 0 view .LVU555
 2177 0004 0A4A     		ldr	r2, .L162+4
 2178              		.loc 1 387 34 view .LVU556
 2179 0006 83B0     		sub	sp, sp, #12
 2180              		.cfi_def_cfa_offset 16
 2181              		.loc 1 387 34 view .LVU557
 2182 0008 1B68     		ldr	r3, [r3]
 2183 000a 0193     		str	r3, [sp, #4]
 2184 000c 4FF00003 		mov	r3,#0
 2185              		.loc 1 389 3 is_stmt 1 view .LVU558
 2186              		.loc 1 389 12 is_stmt 0 view .LVU559
 2187 0010 5368     		ldr	r3, [r2, #4]
 2188 0012 43F40003 		orr	r3, r3, #8388608
 2189 0016 5360     		str	r3, [r2, #4]
 2190              		.loc 1 390 1 view .LVU560
 2191 0018 044B     		ldr	r3, .L162
 2192 001a 1A68     		ldr	r2, [r3]
 2193 001c 019B     		ldr	r3, [sp, #4]
 2194 001e 5A40     		eors	r2, r3, r2
 2195 0020 02D1     		bne	.L161
 2196 0022 03B0     		add	sp, sp, #12
 2197              		.cfi_remember_state
 2198              		.cfi_def_cfa_offset 4
 2199              		@ sp needed
 2200 0024 5DF804FB 		ldr	pc, [sp], #4
 2201              	.L161:
 2202              		.cfi_restore_state
 2203 0028 FFF7FEFF 		bl	__stack_chk_fail
 2204              	.LVL131:
 2205              	.L163:
 2206              		.align	2
 2207              	.L162:
 2208 002c 00000000 		.word	.LC7
 2209 0030 00230140 		.word	1073816320
 2210              		.cfi_endproc
 2211              	.LFE263:
 2212              		.size	adcSTM32EnableTSVREFE, .-adcSTM32EnableTSVREFE
 2213              		.section	.rodata.adcSTM32DisableTSVREFE.cst4,"aM",%progbits,4
 2214              		.align	2
 2215              	.LC8:
 2216 0000 00000000 		.word	__stack_chk_guard
 2217              		.section	.text.adcSTM32DisableTSVREFE,"ax",%progbits
 2218              		.align	1
 2219              		.p2align 4,,15
 2220              		.global	adcSTM32DisableTSVREFE
 2221              		.syntax unified
 2222              		.thumb
 2223              		.thumb_func
ARM GAS  /tmp/cckUUDWB.s 			page 40


 2224              		.fpu fpv4-sp-d16
 2225              		.type	adcSTM32DisableTSVREFE, %function
 2226              	adcSTM32DisableTSVREFE:
 2227              	.LFB264:
 2228              		.loc 1 398 35 is_stmt 1 view -0
 2229              		.cfi_startproc
 2230              		@ args = 0, pretend = 0, frame = 8
 2231              		@ frame_needed = 0, uses_anonymous_args = 0
 2232 0000 00B5     		push	{lr}
 2233              		.cfi_def_cfa_offset 4
 2234              		.cfi_offset 14, -4
 2235 0002 0A4B     		ldr	r3, .L168
 2236              		.loc 1 400 12 is_stmt 0 view .LVU562
 2237 0004 0A4A     		ldr	r2, .L168+4
 2238              		.loc 1 398 35 view .LVU563
 2239 0006 83B0     		sub	sp, sp, #12
 2240              		.cfi_def_cfa_offset 16
 2241              		.loc 1 398 35 view .LVU564
 2242 0008 1B68     		ldr	r3, [r3]
 2243 000a 0193     		str	r3, [sp, #4]
 2244 000c 4FF00003 		mov	r3,#0
 2245              		.loc 1 400 3 is_stmt 1 view .LVU565
 2246              		.loc 1 400 12 is_stmt 0 view .LVU566
 2247 0010 5368     		ldr	r3, [r2, #4]
 2248 0012 23F40003 		bic	r3, r3, #8388608
 2249 0016 5360     		str	r3, [r2, #4]
 2250              		.loc 1 401 1 view .LVU567
 2251 0018 044B     		ldr	r3, .L168
 2252 001a 1A68     		ldr	r2, [r3]
 2253 001c 019B     		ldr	r3, [sp, #4]
 2254 001e 5A40     		eors	r2, r3, r2
 2255 0020 02D1     		bne	.L167
 2256 0022 03B0     		add	sp, sp, #12
 2257              		.cfi_remember_state
 2258              		.cfi_def_cfa_offset 4
 2259              		@ sp needed
 2260 0024 5DF804FB 		ldr	pc, [sp], #4
 2261              	.L167:
 2262              		.cfi_restore_state
 2263 0028 FFF7FEFF 		bl	__stack_chk_fail
 2264              	.LVL132:
 2265              	.L169:
 2266              		.align	2
 2267              	.L168:
 2268 002c 00000000 		.word	.LC8
 2269 0030 00230140 		.word	1073816320
 2270              		.cfi_endproc
 2271              	.LFE264:
 2272              		.size	adcSTM32DisableTSVREFE, .-adcSTM32DisableTSVREFE
 2273              		.section	.rodata.adcSTM32EnableVBATE.cst4,"aM",%progbits,4
 2274              		.align	2
 2275              	.LC9:
 2276 0000 00000000 		.word	__stack_chk_guard
 2277              		.section	.text.adcSTM32EnableVBATE,"ax",%progbits
 2278              		.align	1
 2279              		.p2align 4,,15
 2280              		.global	adcSTM32EnableVBATE
ARM GAS  /tmp/cckUUDWB.s 			page 41


 2281              		.syntax unified
 2282              		.thumb
 2283              		.thumb_func
 2284              		.fpu fpv4-sp-d16
 2285              		.type	adcSTM32EnableVBATE, %function
 2286              	adcSTM32EnableVBATE:
 2287              	.LFB265:
 2288              		.loc 1 409 32 is_stmt 1 view -0
 2289              		.cfi_startproc
 2290              		@ args = 0, pretend = 0, frame = 8
 2291              		@ frame_needed = 0, uses_anonymous_args = 0
 2292 0000 00B5     		push	{lr}
 2293              		.cfi_def_cfa_offset 4
 2294              		.cfi_offset 14, -4
 2295 0002 0A4B     		ldr	r3, .L174
 2296              		.loc 1 411 12 is_stmt 0 view .LVU569
 2297 0004 0A4A     		ldr	r2, .L174+4
 2298              		.loc 1 409 32 view .LVU570
 2299 0006 83B0     		sub	sp, sp, #12
 2300              		.cfi_def_cfa_offset 16
 2301              		.loc 1 409 32 view .LVU571
 2302 0008 1B68     		ldr	r3, [r3]
 2303 000a 0193     		str	r3, [sp, #4]
 2304 000c 4FF00003 		mov	r3,#0
 2305              		.loc 1 411 3 is_stmt 1 view .LVU572
 2306              		.loc 1 411 12 is_stmt 0 view .LVU573
 2307 0010 5368     		ldr	r3, [r2, #4]
 2308 0012 43F48003 		orr	r3, r3, #4194304
 2309 0016 5360     		str	r3, [r2, #4]
 2310              		.loc 1 412 1 view .LVU574
 2311 0018 044B     		ldr	r3, .L174
 2312 001a 1A68     		ldr	r2, [r3]
 2313 001c 019B     		ldr	r3, [sp, #4]
 2314 001e 5A40     		eors	r2, r3, r2
 2315 0020 02D1     		bne	.L173
 2316 0022 03B0     		add	sp, sp, #12
 2317              		.cfi_remember_state
 2318              		.cfi_def_cfa_offset 4
 2319              		@ sp needed
 2320 0024 5DF804FB 		ldr	pc, [sp], #4
 2321              	.L173:
 2322              		.cfi_restore_state
 2323 0028 FFF7FEFF 		bl	__stack_chk_fail
 2324              	.LVL133:
 2325              	.L175:
 2326              		.align	2
 2327              	.L174:
 2328 002c 00000000 		.word	.LC9
 2329 0030 00230140 		.word	1073816320
 2330              		.cfi_endproc
 2331              	.LFE265:
 2332              		.size	adcSTM32EnableVBATE, .-adcSTM32EnableVBATE
 2333              		.section	.rodata.adcSTM32DisableVBATE.cst4,"aM",%progbits,4
 2334              		.align	2
 2335              	.LC10:
 2336 0000 00000000 		.word	__stack_chk_guard
 2337              		.section	.text.adcSTM32DisableVBATE,"ax",%progbits
ARM GAS  /tmp/cckUUDWB.s 			page 42


 2338              		.align	1
 2339              		.p2align 4,,15
 2340              		.global	adcSTM32DisableVBATE
 2341              		.syntax unified
 2342              		.thumb
 2343              		.thumb_func
 2344              		.fpu fpv4-sp-d16
 2345              		.type	adcSTM32DisableVBATE, %function
 2346              	adcSTM32DisableVBATE:
 2347              	.LFB266:
 2348              		.loc 1 420 33 is_stmt 1 view -0
 2349              		.cfi_startproc
 2350              		@ args = 0, pretend = 0, frame = 8
 2351              		@ frame_needed = 0, uses_anonymous_args = 0
 2352 0000 00B5     		push	{lr}
 2353              		.cfi_def_cfa_offset 4
 2354              		.cfi_offset 14, -4
 2355 0002 0A4B     		ldr	r3, .L180
 2356              		.loc 1 422 12 is_stmt 0 view .LVU576
 2357 0004 0A4A     		ldr	r2, .L180+4
 2358              		.loc 1 420 33 view .LVU577
 2359 0006 83B0     		sub	sp, sp, #12
 2360              		.cfi_def_cfa_offset 16
 2361              		.loc 1 420 33 view .LVU578
 2362 0008 1B68     		ldr	r3, [r3]
 2363 000a 0193     		str	r3, [sp, #4]
 2364 000c 4FF00003 		mov	r3,#0
 2365              		.loc 1 422 3 is_stmt 1 view .LVU579
 2366              		.loc 1 422 12 is_stmt 0 view .LVU580
 2367 0010 5368     		ldr	r3, [r2, #4]
 2368 0012 23F48003 		bic	r3, r3, #4194304
 2369 0016 5360     		str	r3, [r2, #4]
 2370              		.loc 1 423 1 view .LVU581
 2371 0018 044B     		ldr	r3, .L180
 2372 001a 1A68     		ldr	r2, [r3]
 2373 001c 019B     		ldr	r3, [sp, #4]
 2374 001e 5A40     		eors	r2, r3, r2
 2375 0020 02D1     		bne	.L179
 2376 0022 03B0     		add	sp, sp, #12
 2377              		.cfi_remember_state
 2378              		.cfi_def_cfa_offset 4
 2379              		@ sp needed
 2380 0024 5DF804FB 		ldr	pc, [sp], #4
 2381              	.L179:
 2382              		.cfi_restore_state
 2383 0028 FFF7FEFF 		bl	__stack_chk_fail
 2384              	.LVL134:
 2385              	.L181:
 2386              		.align	2
 2387              	.L180:
 2388 002c 00000000 		.word	.LC10
 2389 0030 00230140 		.word	1073816320
 2390              		.cfi_endproc
 2391              	.LFE266:
 2392              		.size	adcSTM32DisableVBATE, .-adcSTM32DisableVBATE
 2393              		.global	ADCD3
 2394              		.global	ADCD2
ARM GAS  /tmp/cckUUDWB.s 			page 43


 2395              		.global	ADCD1
 2396              		.section	.bss.ADCD1,"aw",%nobits
 2397              		.align	2
 2398              		.set	.LANCHOR0,. + 0
 2399              		.type	ADCD1, %object
 2400              		.size	ADCD1, 56
 2401              	ADCD1:
 2402 0000 00000000 		.space	56
 2402      00000000 
 2402      00000000 
 2402      00000000 
 2402      00000000 
 2403              		.section	.bss.ADCD2,"aw",%nobits
 2404              		.align	2
 2405              		.set	.LANCHOR1,. + 0
 2406              		.type	ADCD2, %object
 2407              		.size	ADCD2, 56
 2408              	ADCD2:
 2409 0000 00000000 		.space	56
 2409      00000000 
 2409      00000000 
 2409      00000000 
 2409      00000000 
 2410              		.section	.bss.ADCD3,"aw",%nobits
 2411              		.align	2
 2412              		.set	.LANCHOR2,. + 0
 2413              		.type	ADCD3, %object
 2414              		.size	ADCD3, 56
 2415              	ADCD3:
 2416 0000 00000000 		.space	56
 2416      00000000 
 2416      00000000 
 2416      00000000 
 2416      00000000 
 2417              		.section	.rodata.__func__.9966,"a"
 2418              		.align	2
 2419              		.set	.LANCHOR3,. + 0
 2420              		.type	__func__.9966, %object
 2421              		.size	__func__.9966, 14
 2422              	__func__.9966:
 2423 0000 6164635F 		.ascii	"adc_lld_start\000"
 2423      6C6C645F 
 2423      73746172 
 2423      7400
 2424              		.text
 2425              	.Letext0:
 2426              		.file 6 "/usr/lib/gcc/arm-none-eabi/9.2.1/include/stddef.h"
 2427              		.file 7 "/usr/lib/gcc/arm-none-eabi/9.2.1/include/stdint.h"
 2428              		.file 8 ".//ChibiOS//os/rt/ports/ARMCMx/compilers/GCC/chtypes.h"
 2429              		.file 9 ".//ChibiOS//os/rt/include/chsystypes.h"
 2430              		.file 10 ".//ChibiOS//os/rt/include/chschd.h"
 2431              		.file 11 ".//ChibiOS//os/ext/CMSIS/include/core_cm4.h"
 2432              		.file 12 ".//ChibiOS//os/ext/CMSIS/ST/system_stm32f4xx.h"
 2433              		.file 13 ".//ChibiOS//os/ext/CMSIS/ST/stm32f407xx.h"
 2434              		.file 14 ".//ChibiOS//os/rt/ports/ARMCMx/chcore.h"
 2435              		.file 15 ".//ChibiOS//os/rt/include/chdebug.h"
 2436              		.file 16 ".//ChibiOS//os/rt/include/chtm.h"
ARM GAS  /tmp/cckUUDWB.s 			page 44


 2437              		.file 17 ".//ChibiOS//os/rt/include/chstats.h"
 2438              		.file 18 ".//ChibiOS//os/rt/include/chsem.h"
 2439              		.file 19 ".//ChibiOS//os/rt/include/chmtx.h"
 2440              		.file 20 ".//ChibiOS//os/rt/include/chregistry.h"
 2441              		.file 21 ".//ChibiOS//os/rt/include/chevents.h"
 2442              		.file 22 ".//ChibiOS//os/rt/include/chqueues.h"
 2443              		.file 23 ".//ChibiOS//os/hal/ports/STM32/STM32F4xx/stm32_dma.h"
 2444              		.file 24 ".//ChibiOS//os/hal/include/hal_ioblock.h"
 2445              		.file 25 ".//ChibiOS//os/hal/ports/STM32/LLD/GPIOv2/pal_lld.h"
 2446              		.file 26 ".//ChibiOS//os/hal/include/adc.h"
 2447              		.file 27 ".//ChibiOS//os/hal/ports/STM32/STM32F4xx/adc_lld.h"
 2448              		.file 28 ".//ChibiOS//os/hal/include/can.h"
 2449              		.file 29 ".//ChibiOS//os/hal/ports/STM32/LLD/can_lld.h"
 2450              		.file 30 ".//ChibiOS//os/hal/include/dac.h"
 2451              		.file 31 ".//ChibiOS//os/hal/ports/STM32/LLD/DACv1/dac_lld.h"
 2452              		.file 32 ".//ChibiOS//os/hal/include/ext.h"
 2453              		.file 33 ".//ChibiOS//os/hal/ports/STM32/LLD/ext_lld.h"
 2454              		.file 34 ".//ChibiOS//os/hal/include/gpt.h"
 2455              		.file 35 ".//ChibiOS//os/hal/ports/STM32/LLD/TIMv1/gpt_lld.h"
 2456              		.file 36 ".//ChibiOS//os/hal/ports/STM32/LLD/TIMv1/stm32_tim.h"
 2457              		.file 37 ".//ChibiOS//os/hal/include/i2c.h"
 2458              		.file 38 ".//ChibiOS//os/hal/ports/STM32/LLD/I2Cv1/i2c_lld.h"
 2459              		.file 39 ".//ChibiOS//os/hal/include/i2s.h"
 2460              		.file 40 ".//ChibiOS//os/hal/ports/STM32/LLD/SPIv1/i2s_lld.h"
 2461              		.file 41 ".//ChibiOS//os/hal/include/pwm.h"
 2462              		.file 42 ".//ChibiOS//os/hal/ports/STM32/LLD/TIMv1/pwm_lld.h"
 2463              		.file 43 ".//ChibiOS//os/hal/include/serial.h"
 2464              		.file 44 ".//ChibiOS//os/hal/ports/STM32/LLD/USARTv1/serial_lld.h"
 2465              		.file 45 ".//ChibiOS//os/hal/include/sdc.h"
 2466              		.file 46 ".//ChibiOS//os/hal/ports/STM32/LLD/sdc_lld.h"
 2467              		.file 47 ".//ChibiOS//os/hal/include/spi.h"
 2468              		.file 48 ".//ChibiOS//os/hal/ports/STM32/LLD/SPIv1/spi_lld.h"
 2469              		.file 49 ".//ChibiOS//os/hal/include/usb.h"
 2470              		.file 50 ".//ChibiOS//os/hal/ports/STM32/LLD/OTGv1/usb_lld.h"
 2471              		.file 51 ".//ChibiOS//os/hal/ports/STM32/LLD/OTGv1/stm32_otg.h"
 2472              		.file 52 ".//ChibiOS//os/hal/ports/common/ARMCMx/nvic.h"
 2473              		.file 53 ".//ChibiOS//os/rt/include/chthreads.h"