ARM GAS  /tmp/ccsc2mgn.s 			page 1


   1              		.cpu cortex-m4
   2              		.eabi_attribute 27, 1
   3              		.eabi_attribute 28, 1
   4              		.eabi_attribute 20, 1
   5              		.eabi_attribute 21, 1
   6              		.eabi_attribute 23, 3
   7              		.eabi_attribute 24, 1
   8              		.eabi_attribute 25, 1
   9              		.eabi_attribute 26, 1
  10              		.eabi_attribute 30, 2
  11              		.eabi_attribute 34, 1
  12              		.eabi_attribute 18, 4
  13              		.file	"aseba_bridge.c"
  14              		.text
  15              	.Ltext0:
  16              		.cfi_sections	.debug_frame
  17              		.section	.rodata.led_thread.cst4,"aM",%progbits,4
  18              		.align	2
  19              	.LC0:
  20 0000 00000000 		.word	__stack_chk_guard
  21              		.section	.text.led_thread,"ax",%progbits
  22              		.align	1
  23              		.p2align 4,,15
  24              		.arch armv7e-m
  25              		.syntax unified
  26              		.thumb
  27              		.thumb_func
  28              		.fpu fpv4-sp-d16
  29              		.type	led_thread, %function
  30              	led_thread:
  31              	.LVL0:
  32              	.LFB260:
  33              		.file 1 ".//src/aseba_vm/aseba_bridge.c"
  34              		.loc 1 83 1 view -0
  35              		.cfi_startproc
  36              		@ Volatile: function does not return.
  37              		@ args = 0, pretend = 0, frame = 8
  38              		@ frame_needed = 0, uses_anonymous_args = 0
  39              		.loc 1 83 1 is_stmt 0 view .LVU1
  40 0000 00B5     		push	{lr}
  41              		.cfi_def_cfa_offset 4
  42              		.cfi_offset 14, -4
  43 0002 0A4B     		ldr	r3, .L6
  44              		.loc 1 86 9 view .LVU2
  45 0004 0A4C     		ldr	r4, .L6+4
  46              		.loc 1 83 1 view .LVU3
  47 0006 83B0     		sub	sp, sp, #12
  48              		.cfi_def_cfa_offset 16
  49              		.loc 1 86 9 view .LVU4
  50 0008 2025     		movs	r5, #32
  51              		.loc 1 83 1 view .LVU5
  52 000a 1B68     		ldr	r3, [r3]
  53 000c 0193     		str	r3, [sp, #4]
  54 000e 4FF00003 		mov	r3,#0
  55              		.loc 1 86 9 view .LVU6
  56 0012 2E46     		mov	r6, r5	@ movhi
  57              	.LVL1:
ARM GAS  /tmp/ccsc2mgn.s 			page 2


  58              	.L2:
  59              		.loc 1 84 5 is_stmt 1 discriminator 1 view .LVU7
  60              		.loc 1 85 5 discriminator 1 view .LVU8
  61              		.loc 1 86 9 discriminator 1 view .LVU9
  62 0014 2683     		strh	r6, [r4, #24]	@ movhi
  63              		.loc 1 87 9 discriminator 1 view .LVU10
  64 0016 4FF49670 		mov	r0, #300
  65 001a FFF7FEFF 		bl	chThdSleep
  66              	.LVL2:
  67              		.loc 1 88 9 discriminator 1 view .LVU11
  68 001e 6583     		strh	r5, [r4, #26]	@ movhi
  69              		.loc 1 89 9 discriminator 1 view .LVU12
  70 0020 4FF49670 		mov	r0, #300
  71 0024 FFF7FEFF 		bl	chThdSleep
  72              	.LVL3:
  73              		.loc 1 85 11 discriminator 1 view .LVU13
  74 0028 F4E7     		b	.L2
  75              	.L7:
  76 002a 00BF     		.align	2
  77              	.L6:
  78 002c 00000000 		.word	.LC0
  79 0030 000C0240 		.word	1073875968
  80              		.cfi_endproc
  81              	.LFE260:
  82              		.size	led_thread, .-led_thread
  83              		.section	.rodata.aseba_bridge_can_to_uart.str1.4,"aMS",%progbits,1
  84              		.align	2
  85              	.LC1:
  86 0000 61736562 		.ascii	"aseba can -> uart\000"
  86      61206361 
  86      6E202D3E 
  86      20756172 
  86      7400
  87              		.section	.rodata.aseba_bridge_can_to_uart.cst4,"aM",%progbits,4
  88              		.align	2
  89              	.LC2:
  90 0000 00000000 		.word	__stack_chk_guard
  91              		.section	.text.aseba_bridge_can_to_uart,"ax",%progbits
  92              		.align	1
  93              		.p2align 4,,15
  94              		.syntax unified
  95              		.thumb
  96              		.thumb_func
  97              		.fpu fpv4-sp-d16
  98              		.type	aseba_bridge_can_to_uart, %function
  99              	aseba_bridge_can_to_uart:
 100              	.LVL4:
 101              	.LFB259:
 102              		.loc 1 58 1 view -0
 103              		.cfi_startproc
 104              		@ args = 0, pretend = 0, frame = 536
 105              		@ frame_needed = 0, uses_anonymous_args = 0
 106              		.loc 1 58 1 is_stmt 0 view .LVU15
 107 0000 70B5     		push	{r4, r5, r6, lr}
 108              		.cfi_def_cfa_offset 16
 109              		.cfi_offset 4, -16
 110              		.cfi_offset 5, -12
ARM GAS  /tmp/ccsc2mgn.s 			page 3


 111              		.cfi_offset 6, -8
 112              		.cfi_offset 14, -4
 113              	.LBB6:
 114              	.LBB7:
 115              		.file 2 ".//ChibiOS//os/rt/include/chregistry.h"
 116              		.loc 2 135 11 view .LVU16
 117 0002 1B4B     		ldr	r3, .L16
 118              		.loc 2 135 30 view .LVU17
 119 0004 1B4A     		ldr	r2, .L16+4
 120              		.loc 2 135 11 view .LVU18
 121 0006 9B69     		ldr	r3, [r3, #24]
 122              	.LBE7:
 123              	.LBE6:
 124              		.loc 1 70 13 view .LVU19
 125 0008 1B4E     		ldr	r6, .L16+8
 126              	.LBB10:
 127              	.LBB8:
 128              		.loc 2 135 30 view .LVU20
 129 000a 9A61     		str	r2, [r3, #24]
 130              	.LBE8:
 131              	.LBE10:
 132              		.loc 1 58 1 view .LVU21
 133 000c 1B4B     		ldr	r3, .L16+12
 134 000e ADF5067D 		sub	sp, sp, #536
 135              		.cfi_def_cfa_offset 552
 136              		.loc 1 58 1 view .LVU22
 137 0012 0446     		mov	r4, r0
 138 0014 1B68     		ldr	r3, [r3]
 139 0016 8593     		str	r3, [sp, #532]
 140 0018 4FF00003 		mov	r3,#0
 141              		.loc 1 59 5 is_stmt 1 view .LVU23
 142              	.LVL5:
 143              	.LBB11:
 144              	.LBI6:
 145              		.loc 2 132 20 view .LVU24
 146              	.LBB9:
 147              		.loc 2 135 3 view .LVU25
 148              		.loc 2 135 3 is_stmt 0 view .LVU26
 149              	.LBE9:
 150              	.LBE11:
 151              		.loc 1 60 5 is_stmt 1 view .LVU27
 152              	.L10:
 153              		.loc 1 61 5 view .LVU28
 154              		.loc 1 62 5 view .LVU29
 155              		.loc 1 64 5 view .LVU30
 156              		.loc 1 65 9 view .LVU31
 157              		.loc 1 65 22 is_stmt 0 view .LVU32
 158 001c 01AA     		add	r2, sp, #4
 159 001e 40F20621 		movw	r1, #518
 160 0022 03A8     		add	r0, sp, #12
 161 0024 FFF7FEFF 		bl	AsebaCanRecv
 162              	.LVL6:
 163              		.loc 1 70 13 is_stmt 1 view .LVU33
 164              		.loc 1 65 22 is_stmt 0 view .LVU34
 165 0028 0346     		mov	r3, r0
 166              		.loc 1 74 13 view .LVU35
 167 002a 02A9     		add	r1, sp, #8
ARM GAS  /tmp/ccsc2mgn.s 			page 4


 168 002c 0222     		movs	r2, #2
 169 002e 2046     		mov	r0, r4
 170              		.loc 1 72 24 view .LVU36
 171 0030 9D1E     		subs	r5, r3, #2
 172              		.loc 1 65 20 view .LVU37
 173 0032 ADF80830 		strh	r3, [sp, #8]	@ movhi
 174              		.loc 1 69 9 is_stmt 1 view .LVU38
 175              		.loc 1 69 12 is_stmt 0 view .LVU39
 176 0036 B3B1     		cbz	r3, .L9
 177              	.LVL7:
 178              		.loc 1 70 13 view .LVU40
 179 0038 7369     		ldr	r3, [r6, #20]
 180 003a 83F02003 		eor	r3, r3, #32
 181 003e 7361     		str	r3, [r6, #20]
 182              		.loc 1 72 13 is_stmt 1 view .LVU41
 183              		.loc 1 74 13 is_stmt 0 view .LVU42
 184 0040 2368     		ldr	r3, [r4]
 185              		.loc 1 72 24 view .LVU43
 186 0042 ADF80850 		strh	r5, [sp, #8]	@ movhi
 187              		.loc 1 74 13 is_stmt 1 view .LVU44
 188 0046 1B68     		ldr	r3, [r3]
 189 0048 9847     		blx	r3
 190              	.LVL8:
 191              		.loc 1 75 13 view .LVU45
 192 004a 2368     		ldr	r3, [r4]
 193 004c 0222     		movs	r2, #2
 194 004e 1B68     		ldr	r3, [r3]
 195 0050 01A9     		add	r1, sp, #4
 196 0052 2046     		mov	r0, r4
 197 0054 9847     		blx	r3
 198              	.LVL9:
 199              		.loc 1 76 13 view .LVU46
 200 0056 BDF80820 		ldrh	r2, [sp, #8]
 201 005a 2368     		ldr	r3, [r4]
 202 005c 0232     		adds	r2, r2, #2
 203 005e 1B68     		ldr	r3, [r3]
 204 0060 03A9     		add	r1, sp, #12
 205 0062 2046     		mov	r0, r4
 206 0064 9847     		blx	r3
 207              	.LVL10:
 208              	.L9:
 209              		.loc 1 78 9 view .LVU47
 210 0066 0120     		movs	r0, #1
 211 0068 FFF7FEFF 		bl	chThdSleep
 212              	.LVL11:
 213              		.loc 1 64 11 view .LVU48
 214              		.loc 1 65 20 is_stmt 0 view .LVU49
 215 006c D6E7     		b	.L10
 216              	.L17:
 217 006e 00BF     		.align	2
 218              	.L16:
 219 0070 00000000 		.word	ch
 220 0074 00000000 		.word	.LC1
 221 0078 000C0240 		.word	1073875968
 222 007c 00000000 		.word	.LC2
 223              		.cfi_endproc
 224              	.LFE259:
ARM GAS  /tmp/ccsc2mgn.s 			page 5


 225              		.size	aseba_bridge_can_to_uart, .-aseba_bridge_can_to_uart
 226              		.section	.rodata.aseba_bridge_uart_to_can.str1.4,"aMS",%progbits,1
 227              		.align	2
 228              	.LC3:
 229 0000 61736562 		.ascii	"aseba uart -> can\000"
 229      61207561 
 229      7274202D 
 229      3E206361 
 229      6E00
 230              		.section	.rodata.aseba_bridge_uart_to_can.cst4,"aM",%progbits,4
 231              		.align	2
 232              	.LC4:
 233 0000 00000000 		.word	__stack_chk_guard
 234              		.section	.text.aseba_bridge_uart_to_can,"ax",%progbits
 235              		.align	1
 236              		.p2align 4,,15
 237              		.syntax unified
 238              		.thumb
 239              		.thumb_func
 240              		.fpu fpv4-sp-d16
 241              		.type	aseba_bridge_uart_to_can, %function
 242              	aseba_bridge_uart_to_can:
 243              	.LVL12:
 244              	.LFB258:
 245              		.loc 1 37 1 is_stmt 1 view -0
 246              		.cfi_startproc
 247              		@ args = 0, pretend = 0, frame = 536
 248              		@ frame_needed = 0, uses_anonymous_args = 0
 249              		.loc 1 37 1 is_stmt 0 view .LVU51
 250 0000 30B5     		push	{r4, r5, lr}
 251              		.cfi_def_cfa_offset 12
 252              		.cfi_offset 4, -12
 253              		.cfi_offset 5, -8
 254              		.cfi_offset 14, -4
 255              	.LBB12:
 256              	.LBB13:
 257              		.loc 2 135 11 view .LVU52
 258 0002 194B     		ldr	r3, .L22
 259              		.loc 2 135 30 view .LVU53
 260 0004 194A     		ldr	r2, .L22+4
 261              		.loc 2 135 11 view .LVU54
 262 0006 9B69     		ldr	r3, [r3, #24]
 263              	.LBE13:
 264              	.LBE12:
 265              		.loc 1 49 9 view .LVU55
 266 0008 194D     		ldr	r5, .L22+8
 267              	.LBB16:
 268              	.LBB14:
 269              		.loc 2 135 30 view .LVU56
 270 000a 9A61     		str	r2, [r3, #24]
 271              	.LBE14:
 272              	.LBE16:
 273              		.loc 1 37 1 view .LVU57
 274 000c 194B     		ldr	r3, .L22+12
 275 000e ADF5077D 		sub	sp, sp, #540
 276              		.cfi_def_cfa_offset 552
 277              		.loc 1 37 1 view .LVU58
ARM GAS  /tmp/ccsc2mgn.s 			page 6


 278 0012 0446     		mov	r4, r0
 279 0014 1B68     		ldr	r3, [r3]
 280 0016 8593     		str	r3, [sp, #532]
 281 0018 4FF00003 		mov	r3,#0
 282              		.loc 1 38 5 is_stmt 1 view .LVU59
 283              	.LVL13:
 284              	.LBB17:
 285              	.LBI12:
 286              		.loc 2 132 20 view .LVU60
 287              	.LBB15:
 288              		.loc 2 135 3 view .LVU61
 289              		.loc 2 135 3 is_stmt 0 view .LVU62
 290              	.LBE15:
 291              	.LBE17:
 292              		.loc 1 39 5 is_stmt 1 view .LVU63
 293              	.L19:
 294              		.loc 1 41 5 discriminator 1 view .LVU64
 295              		.loc 1 42 5 discriminator 1 view .LVU65
 296              		.loc 1 44 5 discriminator 1 view .LVU66
 297              		.loc 1 45 9 discriminator 1 view .LVU67
 298 001c 2368     		ldr	r3, [r4]
 299 001e 02A9     		add	r1, sp, #8
 300 0020 5B68     		ldr	r3, [r3, #4]
 301 0022 0222     		movs	r2, #2
 302 0024 2046     		mov	r0, r4
 303 0026 9847     		blx	r3
 304              	.LVL14:
 305              		.loc 1 46 9 discriminator 1 view .LVU68
 306 0028 2368     		ldr	r3, [r4]
 307 002a 01A9     		add	r1, sp, #4
 308 002c 5B68     		ldr	r3, [r3, #4]
 309 002e 0222     		movs	r2, #2
 310 0030 2046     		mov	r0, r4
 311 0032 9847     		blx	r3
 312              	.LVL15:
 313              		.loc 1 47 9 discriminator 1 view .LVU69
 314 0034 BDF80820 		ldrh	r2, [sp, #8]
 315 0038 2368     		ldr	r3, [r4]
 316 003a 03A9     		add	r1, sp, #12
 317 003c 0232     		adds	r2, r2, #2
 318 003e 5B68     		ldr	r3, [r3, #4]
 319 0040 2046     		mov	r0, r4
 320 0042 9847     		blx	r3
 321              	.LVL16:
 322              		.loc 1 49 9 discriminator 1 view .LVU70
 323 0044 6B69     		ldr	r3, [r5, #20]
 324 0046 83F04003 		eor	r3, r3, #64
 325 004a 6B61     		str	r3, [r5, #20]
 326              		.loc 1 51 9 discriminator 1 view .LVU71
 327 004c FFF7FEFF 		bl	aseba_can_lock
 328              	.LVL17:
 329              		.loc 1 52 9 discriminator 1 view .LVU72
 330              		.loc 1 52 48 is_stmt 0 discriminator 1 view .LVU73
 331 0050 BDF80810 		ldrh	r1, [sp, #8]
 332              		.loc 1 52 9 discriminator 1 view .LVU74
 333 0054 BDF80420 		ldrh	r2, [sp, #4]
 334 0058 0231     		adds	r1, r1, #2
ARM GAS  /tmp/ccsc2mgn.s 			page 7


 335 005a 03A8     		add	r0, sp, #12
 336 005c FFF7FEFF 		bl	AsebaCanSendSpecificSource
 337              	.LVL18:
 338              		.loc 1 53 9 is_stmt 1 discriminator 1 view .LVU75
 339 0060 FFF7FEFF 		bl	aseba_can_unlock
 340              	.LVL19:
 341              		.loc 1 44 11 discriminator 1 view .LVU76
 342 0064 DAE7     		b	.L19
 343              	.L23:
 344 0066 00BF     		.align	2
 345              	.L22:
 346 0068 00000000 		.word	ch
 347 006c 00000000 		.word	.LC3
 348 0070 000C0240 		.word	1073875968
 349 0074 00000000 		.word	.LC4
 350              		.cfi_endproc
 351              	.LFE258:
 352              		.size	aseba_bridge_uart_to_can, .-aseba_bridge_uart_to_can
 353              		.section	.rodata.aseba_bridge.cst4,"aM",%progbits,4
 354              		.align	2
 355              	.LC5:
 356 0000 00000000 		.word	__stack_chk_guard
 357              		.section	.text.aseba_bridge,"ax",%progbits
 358              		.align	1
 359              		.p2align 4,,15
 360              		.global	aseba_bridge
 361              		.syntax unified
 362              		.thumb
 363              		.thumb_func
 364              		.fpu fpv4-sp-d16
 365              		.type	aseba_bridge, %function
 366              	aseba_bridge:
 367              	.LVL20:
 368              	.LFB257:
 369              		.loc 1 21 1 view -0
 370              		.cfi_startproc
 371              		@ args = 0, pretend = 0, frame = 8
 372              		@ frame_needed = 0, uses_anonymous_args = 0
 373              		.loc 1 21 1 is_stmt 0 view .LVU78
 374 0000 30B5     		push	{r4, r5, lr}
 375              		.cfi_def_cfa_offset 12
 376              		.cfi_offset 4, -12
 377              		.cfi_offset 5, -8
 378              		.cfi_offset 14, -4
 379 0002 85B0     		sub	sp, sp, #20
 380              		.cfi_def_cfa_offset 32
 381              		.loc 1 22 15 view .LVU79
 382 0004 1549     		ldr	r1, .L28
 383              		.loc 1 21 1 view .LVU80
 384 0006 164A     		ldr	r2, .L28+4
 385              		.loc 1 24 5 view .LVU81
 386 0008 0090     		str	r0, [sp]
 387              		.loc 1 22 15 view .LVU82
 388 000a 0125     		movs	r5, #1
 389              		.loc 1 21 1 view .LVU83
 390 000c 1268     		ldr	r2, [r2]
 391 000e 0392     		str	r2, [sp, #12]
ARM GAS  /tmp/ccsc2mgn.s 			page 8


 392 0010 4FF00002 		mov	r2,#0
 393              		.loc 1 22 5 is_stmt 1 view .LVU84
 394              		.loc 1 24 5 is_stmt 0 view .LVU85
 395 0014 134B     		ldr	r3, .L28+8
 396              		.loc 1 22 15 view .LVU86
 397 0016 0D70     		strb	r5, [r1]
 398              		.loc 1 23 5 is_stmt 1 view .LVU87
 399              		.loc 1 24 5 view .LVU88
 400              		.loc 1 21 1 is_stmt 0 view .LVU89
 401 0018 0446     		mov	r4, r0
 402              		.loc 1 24 5 view .LVU90
 403 001a 4022     		movs	r2, #64
 404 001c 4FF4AF61 		mov	r1, #1400
 405 0020 1148     		ldr	r0, .L28+12
 406              	.LVL21:
 407              		.loc 1 24 5 view .LVU91
 408 0022 FFF7FEFF 		bl	chThdCreateStatic
 409              	.LVL22:
 410              		.loc 1 27 5 is_stmt 1 view .LVU92
 411              		.loc 1 28 5 view .LVU93
 412 0026 114B     		ldr	r3, .L28+16
 413 0028 1148     		ldr	r0, .L28+20
 414 002a 0094     		str	r4, [sp]
 415 002c 4022     		movs	r2, #64
 416 002e 4FF4AF61 		mov	r1, #1400
 417 0032 FFF7FEFF 		bl	chThdCreateStatic
 418              	.LVL23:
 419              		.loc 1 31 5 view .LVU94
 420              		.loc 1 32 5 view .LVU95
 421 0036 0023     		movs	r3, #0
 422 0038 0093     		str	r3, [sp]
 423 003a 4022     		movs	r2, #64
 424 003c 0D4B     		ldr	r3, .L28+24
 425 003e 0E48     		ldr	r0, .L28+28
 426 0040 4FF41E71 		mov	r1, #632
 427 0044 FFF7FEFF 		bl	chThdCreateStatic
 428              	.LVL24:
 429              		.loc 1 34 1 is_stmt 0 view .LVU96
 430 0048 054B     		ldr	r3, .L28+4
 431 004a 1A68     		ldr	r2, [r3]
 432 004c 039B     		ldr	r3, [sp, #12]
 433 004e 5A40     		eors	r2, r3, r2
 434 0050 01D1     		bne	.L27
 435 0052 05B0     		add	sp, sp, #20
 436              		.cfi_remember_state
 437              		.cfi_def_cfa_offset 12
 438              		@ sp needed
 439 0054 30BD     		pop	{r4, r5, pc}
 440              	.LVL25:
 441              	.L27:
 442              		.cfi_restore_state
 443              		.loc 1 34 1 view .LVU97
 444 0056 FFF7FEFF 		bl	__stack_chk_fail
 445              	.LVL26:
 446              	.L29:
 447 005a 00BF     		.align	2
 448              	.L28:
ARM GAS  /tmp/ccsc2mgn.s 			page 9


 449 005c 00000000 		.word	.LANCHOR0
 450 0060 00000000 		.word	.LC5
 451 0064 00000000 		.word	aseba_bridge_uart_to_can
 452 0068 00000000 		.word	.LANCHOR1
 453 006c 00000000 		.word	aseba_bridge_can_to_uart
 454 0070 00000000 		.word	.LANCHOR2
 455 0074 00000000 		.word	led_thread
 456 0078 00000000 		.word	.LANCHOR3
 457              		.cfi_endproc
 458              	.LFE257:
 459              		.size	aseba_bridge, .-aseba_bridge
 460              		.section	.rodata.aseba_is_bridge.cst4,"aM",%progbits,4
 461              		.align	2
 462              	.LC6:
 463 0000 00000000 		.word	__stack_chk_guard
 464              		.section	.text.aseba_is_bridge,"ax",%progbits
 465              		.align	1
 466              		.p2align 4,,15
 467              		.global	aseba_is_bridge
 468              		.syntax unified
 469              		.thumb
 470              		.thumb_func
 471              		.fpu fpv4-sp-d16
 472              		.type	aseba_is_bridge, %function
 473              	aseba_is_bridge:
 474              	.LFB261:
 475              		.loc 1 94 1 is_stmt 1 view -0
 476              		.cfi_startproc
 477              		@ args = 0, pretend = 0, frame = 8
 478              		@ frame_needed = 0, uses_anonymous_args = 0
 479 0000 00B5     		push	{lr}
 480              		.cfi_def_cfa_offset 4
 481              		.cfi_offset 14, -4
 482              		.loc 1 95 12 is_stmt 0 view .LVU99
 483 0002 094B     		ldr	r3, .L34
 484              		.loc 1 94 1 view .LVU100
 485 0004 094A     		ldr	r2, .L34+4
 486              		.loc 1 95 12 view .LVU101
 487 0006 1878     		ldrb	r0, [r3]	@ zero_extendqisi2
 488              		.loc 1 96 1 view .LVU102
 489 0008 084B     		ldr	r3, .L34+4
 490              		.loc 1 94 1 view .LVU103
 491 000a 83B0     		sub	sp, sp, #12
 492              		.cfi_def_cfa_offset 16
 493              		.loc 1 94 1 view .LVU104
 494 000c 1268     		ldr	r2, [r2]
 495 000e 0192     		str	r2, [sp, #4]
 496 0010 4FF00002 		mov	r2,#0
 497              		.loc 1 95 5 is_stmt 1 view .LVU105
 498              		.loc 1 96 1 is_stmt 0 view .LVU106
 499 0014 1A68     		ldr	r2, [r3]
 500 0016 019B     		ldr	r3, [sp, #4]
 501 0018 5A40     		eors	r2, r3, r2
 502 001a 02D1     		bne	.L33
 503 001c 03B0     		add	sp, sp, #12
 504              		.cfi_remember_state
 505              		.cfi_def_cfa_offset 4
ARM GAS  /tmp/ccsc2mgn.s 			page 10


 506              		@ sp needed
 507 001e 5DF804FB 		ldr	pc, [sp], #4
 508              	.L33:
 509              		.cfi_restore_state
 510 0022 FFF7FEFF 		bl	__stack_chk_fail
 511              	.LVL27:
 512              	.L35:
 513 0026 00BF     		.align	2
 514              	.L34:
 515 0028 00000000 		.word	.LANCHOR0
 516 002c 00000000 		.word	.LC6
 517              		.cfi_endproc
 518              	.LFE261:
 519              		.size	aseba_is_bridge, .-aseba_is_bridge
 520              		.section	.bss.can_to_uart_wa.10823,"aw",%nobits
 521              		.align	3
 522              		.set	.LANCHOR2,. + 0
 523              		.type	can_to_uart_wa.10823, %object
 524              		.size	can_to_uart_wa.10823, 1400
 525              	can_to_uart_wa.10823:
 526 0000 00000000 		.space	1400
 526      00000000 
 526      00000000 
 526      00000000 
 526      00000000 
 527              		.section	.bss.is_bridge,"aw",%nobits
 528              		.set	.LANCHOR0,. + 0
 529              		.type	is_bridge, %object
 530              		.size	is_bridge, 1
 531              	is_bridge:
 532 0000 00       		.space	1
 533              		.section	.bss.led_thread_wa.10824,"aw",%nobits
 534              		.align	3
 535              		.set	.LANCHOR3,. + 0
 536              		.type	led_thread_wa.10824, %object
 537              		.size	led_thread_wa.10824, 632
 538              	led_thread_wa.10824:
 539 0000 00000000 		.space	632
 539      00000000 
 539      00000000 
 539      00000000 
 539      00000000 
 540              		.section	.bss.uart_to_can_wa.10822,"aw",%nobits
 541              		.align	3
 542              		.set	.LANCHOR1,. + 0
 543              		.type	uart_to_can_wa.10822, %object
 544              		.size	uart_to_can_wa.10822, 1400
 545              	uart_to_can_wa.10822:
 546 0000 00000000 		.space	1400
 546      00000000 
 546      00000000 
 546      00000000 
 546      00000000 
 547              		.text
 548              	.Letext0:
 549              		.file 3 "/usr/lib/gcc/arm-none-eabi/9.2.1/include/stddef.h"
 550              		.file 4 "/usr/lib/gcc/arm-none-eabi/9.2.1/include/stdint.h"
ARM GAS  /tmp/ccsc2mgn.s 			page 11


 551              		.file 5 ".//ChibiOS//os/rt/ports/ARMCMx/compilers/GCC/chtypes.h"
 552              		.file 6 ".//ChibiOS//os/rt/include/chsystypes.h"
 553              		.file 7 ".//ChibiOS//os/rt/include/chschd.h"
 554              		.file 8 ".//ChibiOS//os/ext/CMSIS/include/core_cm4.h"
 555              		.file 9 ".//ChibiOS//os/ext/CMSIS/ST/system_stm32f4xx.h"
 556              		.file 10 ".//ChibiOS//os/ext/CMSIS/ST/stm32f407xx.h"
 557              		.file 11 ".//ChibiOS//os/rt/ports/ARMCMx/chcore.h"
 558              		.file 12 ".//ChibiOS//os/rt/ports/ARMCMx/chcore_v7m.h"
 559              		.file 13 ".//ChibiOS//os/rt/include/chdebug.h"
 560              		.file 14 ".//ChibiOS//os/rt/include/chtm.h"
 561              		.file 15 ".//ChibiOS//os/rt/include/chstats.h"
 562              		.file 16 ".//ChibiOS//os/rt/include/chsem.h"
 563              		.file 17 ".//ChibiOS//os/rt/include/chmtx.h"
 564              		.file 18 ".//ChibiOS//os/rt/include/chevents.h"
 565              		.file 19 ".//ChibiOS//os/rt/include/chqueues.h"
 566              		.file 20 ".//ChibiOS//os/rt/include/chstreams.h"
 567              		.file 21 ".//ChibiOS//os/hal/ports/STM32/STM32F4xx/stm32_dma.h"
 568              		.file 22 ".//ChibiOS//os/hal/include/hal_ioblock.h"
 569              		.file 23 ".//ChibiOS//os/hal/ports/STM32/LLD/GPIOv2/pal_lld.h"
 570              		.file 24 ".//ChibiOS//os/hal/include/adc.h"
 571              		.file 25 ".//ChibiOS//os/hal/ports/STM32/STM32F4xx/adc_lld.h"
 572              		.file 26 ".//ChibiOS//os/hal/include/can.h"
 573              		.file 27 ".//ChibiOS//os/hal/ports/STM32/LLD/can_lld.h"
 574              		.file 28 ".//ChibiOS//os/hal/include/dac.h"
 575              		.file 29 ".//ChibiOS//os/hal/ports/STM32/LLD/DACv1/dac_lld.h"
 576              		.file 30 ".//ChibiOS//os/hal/include/ext.h"
 577              		.file 31 ".//ChibiOS//os/hal/ports/STM32/LLD/ext_lld.h"
 578              		.file 32 ".//ChibiOS//os/hal/include/gpt.h"
 579              		.file 33 ".//ChibiOS//os/hal/ports/STM32/LLD/TIMv1/gpt_lld.h"
 580              		.file 34 ".//ChibiOS//os/hal/ports/STM32/LLD/TIMv1/stm32_tim.h"
 581              		.file 35 ".//ChibiOS//os/hal/include/i2c.h"
 582              		.file 36 ".//ChibiOS//os/hal/ports/STM32/LLD/I2Cv1/i2c_lld.h"
 583              		.file 37 ".//ChibiOS//os/hal/include/i2s.h"
 584              		.file 38 ".//ChibiOS//os/hal/ports/STM32/LLD/SPIv1/i2s_lld.h"
 585              		.file 39 ".//ChibiOS//os/hal/include/pwm.h"
 586              		.file 40 ".//ChibiOS//os/hal/ports/STM32/LLD/TIMv1/pwm_lld.h"
 587              		.file 41 ".//ChibiOS//os/hal/include/serial.h"
 588              		.file 42 ".//ChibiOS//os/hal/ports/STM32/LLD/USARTv1/serial_lld.h"
 589              		.file 43 ".//ChibiOS//os/hal/include/sdc.h"
 590              		.file 44 ".//ChibiOS//os/hal/ports/STM32/LLD/sdc_lld.h"
 591              		.file 45 ".//ChibiOS//os/hal/include/spi.h"
 592              		.file 46 ".//ChibiOS//os/hal/ports/STM32/LLD/SPIv1/spi_lld.h"
 593              		.file 47 ".//ChibiOS//os/hal/include/usb.h"
 594              		.file 48 ".//ChibiOS//os/hal/ports/STM32/LLD/OTGv1/usb_lld.h"
 595              		.file 49 ".//ChibiOS//os/hal/ports/STM32/LLD/OTGv1/stm32_otg.h"
 596              		.file 50 "/usr/include/newlib/sys/_types.h"
 597              		.file 51 "/usr/include/newlib/sys/reent.h"
 598              		.file 52 "/usr/include/newlib/sys/lock.h"
 599              		.file 53 "/usr/include/newlib/stdlib.h"
 600              		.file 54 ".//aseba/vm/vm.h"
 601              		.file 55 ".//aseba/common/consts.h"
 602              		.file 56 ".//ChibiOS//os/rt/include/chthreads.h"
 603              		.file 57 ".//aseba/transport/can/can-net.h"
 604              		.file 58 ".//src/aseba_vm/aseba_can_interface.h"