ARM GAS  /tmp/ccMrTvtk.s 			page 1


   1              		.cpu cortex-m4
   2              		.eabi_attribute 27, 1
   3              		.eabi_attribute 28, 1
   4              		.eabi_attribute 20, 1
   5              		.eabi_attribute 21, 1
   6              		.eabi_attribute 23, 3
   7              		.eabi_attribute 24, 1
   8              		.eabi_attribute 25, 1
   9              		.eabi_attribute 26, 1
  10              		.eabi_attribute 30, 2
  11              		.eabi_attribute 34, 1
  12              		.eabi_attribute 18, 4
  13              		.file	"aseba_can_interface.c"
  14              		.text
  15              	.Ltext0:
  16              		.cfi_sections	.debug_frame
  17              		.section	.rodata.aseba_can_rx_dropped.cst4,"aM",%progbits,4
  18              		.align	2
  19              	.LC0:
  20 0000 00000000 		.word	__stack_chk_guard
  21              		.section	.text.aseba_can_rx_dropped,"ax",%progbits
  22              		.align	1
  23              		.p2align 4,,15
  24              		.global	aseba_can_rx_dropped
  25              		.arch armv7e-m
  26              		.syntax unified
  27              		.thumb
  28              		.thumb_func
  29              		.fpu fpv4-sp-d16
  30              		.type	aseba_can_rx_dropped, %function
  31              	aseba_can_rx_dropped:
  32              	.LFB258:
  33              		.file 1 ".//src/aseba_vm/aseba_can_interface.c"
  34              		.loc 1 64 1 view -0
  35              		.cfi_startproc
  36              		@ args = 0, pretend = 0, frame = 8
  37              		@ frame_needed = 0, uses_anonymous_args = 0
  38 0000 00B5     		push	{lr}
  39              		.cfi_def_cfa_offset 4
  40              		.cfi_offset 14, -4
  41 0002 084B     		ldr	r3, .L6
  42 0004 83B0     		sub	sp, sp, #12
  43              		.cfi_def_cfa_offset 16
  44              		.loc 1 64 1 is_stmt 0 view .LVU1
  45 0006 1B68     		ldr	r3, [r3]
  46 0008 0193     		str	r3, [sp, #4]
  47 000a 4FF00003 		mov	r3,#0
  48              		.loc 1 65 1 is_stmt 1 view .LVU2
  49 000e 054B     		ldr	r3, .L6
  50 0010 1A68     		ldr	r2, [r3]
  51 0012 019B     		ldr	r3, [sp, #4]
  52 0014 5A40     		eors	r2, r3, r2
  53 0016 02D1     		bne	.L5
  54 0018 03B0     		add	sp, sp, #12
  55              		.cfi_remember_state
  56              		.cfi_def_cfa_offset 4
  57              		@ sp needed
ARM GAS  /tmp/ccMrTvtk.s 			page 2


  58 001a 5DF804FB 		ldr	pc, [sp], #4
  59              	.L5:
  60              		.cfi_restore_state
  61 001e FFF7FEFF 		bl	__stack_chk_fail
  62              	.LVL0:
  63              	.L7:
  64 0022 00BF     		.align	2
  65              	.L6:
  66 0024 00000000 		.word	.LC0
  67              		.cfi_endproc
  68              	.LFE258:
  69              		.size	aseba_can_rx_dropped, .-aseba_can_rx_dropped
  70              		.section	.rodata.aseba_can_is_frame_room.cst4,"aM",%progbits,4
  71              		.align	2
  72              	.LC1:
  73 0000 00000000 		.word	__stack_chk_guard
  74              		.section	.text.aseba_can_is_frame_room,"ax",%progbits
  75              		.align	1
  76              		.p2align 4,,15
  77              		.global	aseba_can_is_frame_room
  78              		.syntax unified
  79              		.thumb
  80              		.thumb_func
  81              		.fpu fpv4-sp-d16
  82              		.type	aseba_can_is_frame_room, %function
  83              	aseba_can_is_frame_room:
  84              	.LFB261:
  85              		.loc 1 94 1 view -0
  86              		.cfi_startproc
  87              		@ args = 0, pretend = 0, frame = 8
  88              		@ frame_needed = 0, uses_anonymous_args = 0
  89 0000 00B5     		push	{lr}
  90              		.cfi_def_cfa_offset 4
  91              		.cfi_offset 14, -4
  92 0002 0A4B     		ldr	r3, .L12
  93              		.loc 1 95 12 is_stmt 0 view .LVU4
  94 0004 0A48     		ldr	r0, .L12+4
  95              		.loc 1 94 1 view .LVU5
  96 0006 83B0     		sub	sp, sp, #12
  97              		.cfi_def_cfa_offset 16
  98              		.loc 1 95 12 view .LVU6
  99 0008 0021     		movs	r1, #0
 100              		.loc 1 94 1 view .LVU7
 101 000a 1B68     		ldr	r3, [r3]
 102 000c 0193     		str	r3, [sp, #4]
 103 000e 4FF00003 		mov	r3,#0
 104              		.loc 1 95 5 is_stmt 1 view .LVU8
 105              		.loc 1 95 12 is_stmt 0 view .LVU9
 106 0012 FFF7FEFF 		bl	can_lld_is_tx_empty
 107              	.LVL1:
 108              		.loc 1 96 1 view .LVU10
 109 0016 054B     		ldr	r3, .L12
 110 0018 1A68     		ldr	r2, [r3]
 111 001a 019B     		ldr	r3, [sp, #4]
 112 001c 5A40     		eors	r2, r3, r2
 113 001e 02D1     		bne	.L11
 114 0020 03B0     		add	sp, sp, #12
ARM GAS  /tmp/ccMrTvtk.s 			page 3


 115              		.cfi_remember_state
 116              		.cfi_def_cfa_offset 4
 117              		@ sp needed
 118 0022 5DF804FB 		ldr	pc, [sp], #4
 119              	.L11:
 120              		.cfi_restore_state
 121 0026 FFF7FEFF 		bl	__stack_chk_fail
 122              	.LVL2:
 123              	.L13:
 124 002a 00BF     		.align	2
 125              	.L12:
 126 002c 00000000 		.word	.LC1
 127 0030 00000000 		.word	CAND1
 128              		.cfi_endproc
 129              	.LFE261:
 130              		.size	aseba_can_is_frame_room, .-aseba_can_is_frame_room
 131              		.section	.rodata.can_rx_thread.str1.4,"aMS",%progbits,1
 132              		.align	2
 133              	.LC2:
 134 0000 43414E20 		.ascii	"CAN rx\000"
 134      727800
 135              		.section	.rodata.can_rx_thread.cst4,"aM",%progbits,4
 136              		.align	2
 137              	.LC3:
 138 0000 00000000 		.word	__stack_chk_guard
 139              		.section	.text.can_rx_thread,"ax",%progbits
 140              		.align	1
 141              		.p2align 4,,15
 142              		.syntax unified
 143              		.thumb
 144              		.thumb_func
 145              		.fpu fpv4-sp-d16
 146              		.type	can_rx_thread, %function
 147              	can_rx_thread:
 148              	.LVL3:
 149              	.LFB256:
 150              		.loc 1 19 1 is_stmt 1 view -0
 151              		.cfi_startproc
 152              		@ args = 0, pretend = 0, frame = 40
 153              		@ frame_needed = 0, uses_anonymous_args = 0
 154              		.loc 1 19 1 is_stmt 0 view .LVU12
 155 0000 10B5     		push	{r4, lr}
 156              		.cfi_def_cfa_offset 8
 157              		.cfi_offset 4, -8
 158              		.cfi_offset 14, -4
 159              	.LBB11:
 160              	.LBB12:
 161              		.file 2 ".//ChibiOS//os/rt/include/chregistry.h"
 162              		.loc 2 135 11 view .LVU13
 163 0002 1C4B     		ldr	r3, .L26
 164              		.loc 2 135 30 view .LVU14
 165 0004 1C4A     		ldr	r2, .L26+4
 166              		.loc 2 135 11 view .LVU15
 167 0006 9B69     		ldr	r3, [r3, #24]
 168              	.LBE12:
 169              	.LBE11:
 170              	.LBB15:
ARM GAS  /tmp/ccMrTvtk.s 			page 4


 171              		.loc 1 25 19 view .LVU16
 172 0008 1C4C     		ldr	r4, .L26+8
 173              	.LBE15:
 174              	.LBB16:
 175              	.LBB13:
 176              		.loc 2 135 30 view .LVU17
 177 000a 9A61     		str	r2, [r3, #24]
 178              	.LBE13:
 179              	.LBE16:
 180              		.loc 1 19 1 view .LVU18
 181 000c 1C4B     		ldr	r3, .L26+12
 182 000e 8AB0     		sub	sp, sp, #40
 183              		.cfi_def_cfa_offset 48
 184              		.loc 1 19 1 view .LVU19
 185 0010 1B68     		ldr	r3, [r3]
 186 0012 0993     		str	r3, [sp, #36]
 187 0014 4FF00003 		mov	r3,#0
 188              		.loc 1 20 5 is_stmt 1 view .LVU20
 189              		.loc 1 21 5 view .LVU21
 190              	.LVL4:
 191              	.LBB17:
 192              	.LBI11:
 193              		.loc 2 132 20 view .LVU22
 194              	.LBB14:
 195              		.loc 2 135 3 view .LVU23
 196              	.L15:
 197              		.loc 2 135 3 is_stmt 0 view .LVU24
 198              	.LBE14:
 199              	.LBE17:
 200              		.loc 1 22 5 is_stmt 1 view .LVU25
 201              	.LBB18:
 202              		.loc 1 23 9 view .LVU26
 203              		.loc 1 24 9 view .LVU27
 204              		.loc 1 25 9 view .LVU28
 205              		.loc 1 25 19 is_stmt 0 view .LVU29
 206 0018 4FF47A73 		mov	r3, #1000
 207 001c 04AA     		add	r2, sp, #16
 208 001e 0021     		movs	r1, #0
 209 0020 2046     		mov	r0, r4
 210 0022 FFF7FEFF 		bl	canReceive
 211              	.LVL5:
 212              		.loc 1 26 9 is_stmt 1 view .LVU30
 213              		.loc 1 26 12 is_stmt 0 view .LVU31
 214 0026 0028     		cmp	r0, #0
 215 0028 F6D1     		bne	.L15
 216              		.loc 1 29 9 is_stmt 1 view .LVU32
 217              		.loc 1 32 9 view .LVU33
 218              		.loc 1 32 12 is_stmt 0 view .LVU34
 219 002a 9DF81420 		ldrb	r2, [sp, #20]	@ zero_extendqisi2
 220 002e 12F0300F 		tst	r2, #48
 221 0032 F1D1     		bne	.L15
 222              		.loc 1 35 9 is_stmt 1 view .LVU35
 223              		.loc 1 35 28 is_stmt 0 view .LVU36
 224 0034 BDF80C30 		ldrh	r3, [sp, #12]
 225              		.loc 1 35 33 view .LVU37
 226 0038 BDF81810 		ldrh	r1, [sp, #24]
 227              		.loc 1 35 28 view .LVU38
ARM GAS  /tmp/ccMrTvtk.s 			page 5


 228 003c 61F30A03 		bfi	r3, r1, #0, #11
 229              		.loc 1 36 34 view .LVU39
 230 0040 02F00F02 		and	r2, r2, #15
 231              		.loc 1 36 29 view .LVU40
 232 0044 C3F30721 		ubfx	r1, r3, #8, #8
 233 0048 62F3C601 		bfi	r1, r2, #3, #4
 234              		.loc 1 35 28 view .LVU41
 235 004c ADF80C30 		strh	r3, [sp, #12]	@ movhi
 236              		.loc 1 36 9 is_stmt 1 view .LVU42
 237              		.loc 1 36 29 is_stmt 0 view .LVU43
 238 0050 8DF80D10 		strb	r1, [sp, #13]
 239              		.loc 1 37 9 is_stmt 1 view .LVU44
 240              		.loc 1 38 9 view .LVU45
 241              	.LVL6:
 242              		.loc 1 38 21 view .LVU46
 243              		.loc 1 38 9 is_stmt 0 view .LVU47
 244 0054 4AB1     		cbz	r2, .L17
 245 0056 07AB     		add	r3, sp, #28
 246 0058 1A44     		add	r2, r2, r3
 247 005a 0DF10301 		add	r1, sp, #3
 248              	.LVL7:
 249              	.L18:
 250              		.loc 1 39 13 is_stmt 1 discriminator 3 view .LVU48
 251              		.loc 1 39 48 is_stmt 0 discriminator 3 view .LVU49
 252 005e 13F8010B 		ldrb	r0, [r3], #1	@ zero_extendqisi2
 253              	.LVL8:
 254              		.loc 1 39 37 discriminator 3 view .LVU50
 255 0062 01F8010F 		strb	r0, [r1, #1]!
 256              		.loc 1 38 46 is_stmt 1 discriminator 3 view .LVU51
 257              	.LVL9:
 258              		.loc 1 38 21 discriminator 3 view .LVU52
 259              		.loc 1 38 9 is_stmt 0 discriminator 3 view .LVU53
 260 0066 9342     		cmp	r3, r2
 261 0068 F9D1     		bne	.L18
 262              	.LVL10:
 263              	.L17:
 264              		.loc 1 41 9 is_stmt 1 view .LVU54
 265 006a 01A8     		add	r0, sp, #4
 266 006c FFF7FEFF 		bl	AsebaCanFrameReceived
 267              	.LVL11:
 268 0070 D2E7     		b	.L15
 269              	.L27:
 270 0072 00BF     		.align	2
 271              	.L26:
 272 0074 00000000 		.word	ch
 273 0078 00000000 		.word	.LC2
 274 007c 00000000 		.word	CAND1
 275 0080 00000000 		.word	.LC3
 276              	.LBE18:
 277              		.cfi_endproc
 278              	.LFE256:
 279              		.size	can_rx_thread, .-can_rx_thread
 280              		.section	.rodata.aseba_can_send_frame.cst4,"aM",%progbits,4
 281              		.align	2
 282              	.LC4:
 283 0000 00000000 		.word	__stack_chk_guard
 284              		.section	.text.aseba_can_send_frame,"ax",%progbits
ARM GAS  /tmp/ccMrTvtk.s 			page 6


 285              		.align	1
 286              		.p2align 4,,15
 287              		.global	aseba_can_send_frame
 288              		.syntax unified
 289              		.thumb
 290              		.thumb_func
 291              		.fpu fpv4-sp-d16
 292              		.type	aseba_can_send_frame, %function
 293              	aseba_can_send_frame:
 294              	.LVL12:
 295              	.LFB260:
 296              		.loc 1 72 1 view -0
 297              		.cfi_startproc
 298              		@ args = 0, pretend = 0, frame = 24
 299              		@ frame_needed = 0, uses_anonymous_args = 0
 300              		.loc 1 72 1 is_stmt 0 view .LVU56
 301 0000 30B5     		push	{r4, r5, lr}
 302              		.cfi_def_cfa_offset 12
 303              		.cfi_offset 4, -12
 304              		.cfi_offset 5, -8
 305              		.cfi_offset 14, -4
 306 0002 1F4B     		ldr	r3, .L38
 307 0004 87B0     		sub	sp, sp, #28
 308              		.cfi_def_cfa_offset 40
 309              		.loc 1 72 1 view .LVU57
 310 0006 0446     		mov	r4, r0
 311              	.LBB19:
 312              	.LBB20:
 313              		.loc 1 116 5 view .LVU58
 314 0008 1E48     		ldr	r0, .L38+4
 315              	.LVL13:
 316              		.loc 1 116 5 view .LVU59
 317              	.LBE20:
 318              	.LBE19:
 319              		.loc 1 72 1 view .LVU60
 320 000a 1B68     		ldr	r3, [r3]
 321 000c 0593     		str	r3, [sp, #20]
 322 000e 4FF00003 		mov	r3,#0
 323              		.loc 1 73 5 is_stmt 1 view .LVU61
 324              	.LBB22:
 325              	.LBI19:
 326              		.loc 1 114 6 view .LVU62
 327              	.LBB21:
 328              		.loc 1 116 5 view .LVU63
 329 0012 FFF7FEFF 		bl	chMtxLock
 330              	.LVL14:
 331              	.LBE21:
 332              	.LBE22:
 333              		.loc 1 74 5 view .LVU64
 334              		.loc 1 75 5 view .LVU65
 335              		.loc 1 75 20 is_stmt 0 view .LVU66
 336 0016 627A     		ldrb	r2, [r4, #9]	@ zero_extendqisi2
 337              		.loc 1 75 13 view .LVU67
 338 0018 9DF80430 		ldrb	r3, [sp, #4]	@ zero_extendqisi2
 339              		.loc 1 78 13 view .LVU68
 340 001c BDF80810 		ldrh	r1, [sp, #8]
 341              		.loc 1 78 20 view .LVU69
ARM GAS  /tmp/ccMrTvtk.s 			page 7


 342 0020 2089     		ldrh	r0, [r4, #8]
 343              		.loc 1 75 13 view .LVU70
 344 0022 C2F3C305 		ubfx	r5, r2, #3, #4
 345 0026 23F03F03 		bic	r3, r3, #63
 346 002a 2B43     		orrs	r3, r3, r5
 347              		.loc 1 78 13 view .LVU71
 348 002c 60F30A01 		bfi	r1, r0, #0, #11
 349              		.loc 1 81 5 view .LVU72
 350 0030 12F0780F 		tst	r2, #120
 351              		.loc 1 75 13 view .LVU73
 352 0034 8DF80430 		strb	r3, [sp, #4]
 353              		.loc 1 78 13 view .LVU74
 354 0038 ADF80810 		strh	r1, [sp, #8]	@ movhi
 355              		.loc 1 76 5 is_stmt 1 view .LVU75
 356              		.loc 1 77 5 view .LVU76
 357              		.loc 1 78 5 view .LVU77
 358              		.loc 1 80 5 view .LVU78
 359              		.loc 1 81 5 view .LVU79
 360              	.LVL15:
 361              		.loc 1 81 17 view .LVU80
 362              		.loc 1 81 5 is_stmt 0 view .LVU81
 363 003c 09D0     		beq	.L29
 364 003e 2946     		mov	r1, r5
 365 0040 601E     		subs	r0, r4, #1
 366 0042 0144     		add	r1, r1, r0
 367 0044 03AB     		add	r3, sp, #12
 368              	.LVL16:
 369              	.L30:
 370              		.loc 1 82 9 is_stmt 1 discriminator 3 view .LVU82
 371              		.loc 1 82 22 is_stmt 0 discriminator 3 view .LVU83
 372 0046 10F8012F 		ldrb	r2, [r0, #1]!	@ zero_extendqisi2
 373              	.LVL17:
 374              		.loc 1 82 22 discriminator 3 view .LVU84
 375 004a 03F8012B 		strb	r2, [r3], #1
 376              		.loc 1 81 33 is_stmt 1 discriminator 3 view .LVU85
 377              	.LVL18:
 378              		.loc 1 81 17 discriminator 3 view .LVU86
 379              		.loc 1 81 5 is_stmt 0 discriminator 3 view .LVU87
 380 004e 8842     		cmp	r0, r1
 381 0050 F9D1     		bne	.L30
 382              	.LVL19:
 383              	.L29:
 384              		.loc 1 85 5 is_stmt 1 view .LVU88
 385 0052 6423     		movs	r3, #100
 386 0054 01AA     		add	r2, sp, #4
 387 0056 0021     		movs	r1, #0
 388 0058 0B48     		ldr	r0, .L38+8
 389 005a FFF7FEFF 		bl	canTransmit
 390              	.LVL20:
 391              		.loc 1 86 5 view .LVU89
 392 005e 0120     		movs	r0, #1
 393 0060 FFF7FEFF 		bl	chThdSleep
 394              	.LVL21:
 395              		.loc 1 88 5 view .LVU90
 396 0064 FFF7FEFF 		bl	AsebaCanFrameSent
 397              	.LVL22:
 398              		.loc 1 89 5 view .LVU91
ARM GAS  /tmp/ccMrTvtk.s 			page 8


 399              	.LBB23:
 400              	.LBI23:
 401              		.loc 1 119 6 view .LVU92
 402              	.LBB24:
 403              		.loc 1 121 5 view .LVU93
 404 0068 0648     		ldr	r0, .L38+4
 405 006a FFF7FEFF 		bl	chMtxUnlock
 406              	.LVL23:
 407              	.LBE24:
 408              	.LBE23:
 409              		.loc 1 90 1 is_stmt 0 view .LVU94
 410 006e 044B     		ldr	r3, .L38
 411 0070 1A68     		ldr	r2, [r3]
 412 0072 059B     		ldr	r3, [sp, #20]
 413 0074 5A40     		eors	r2, r3, r2
 414 0076 01D1     		bne	.L37
 415 0078 07B0     		add	sp, sp, #28
 416              		.cfi_remember_state
 417              		.cfi_def_cfa_offset 12
 418              		@ sp needed
 419 007a 30BD     		pop	{r4, r5, pc}
 420              	.LVL24:
 421              	.L37:
 422              		.cfi_restore_state
 423              		.loc 1 90 1 view .LVU95
 424 007c FFF7FEFF 		bl	__stack_chk_fail
 425              	.LVL25:
 426              	.L39:
 427              		.align	2
 428              	.L38:
 429 0080 00000000 		.word	.LC4
 430 0084 00000000 		.word	.LANCHOR0
 431 0088 00000000 		.word	CAND1
 432              		.cfi_endproc
 433              	.LFE260:
 434              		.size	aseba_can_send_frame, .-aseba_can_send_frame
 435              		.section	.rodata.aseba_can_tx_dropped.cst4,"aM",%progbits,4
 436              		.align	2
 437              	.LC5:
 438 0000 00000000 		.word	__stack_chk_guard
 439              		.section	.text.aseba_can_tx_dropped,"ax",%progbits
 440              		.align	1
 441              		.p2align 4,,15
 442              		.global	aseba_can_tx_dropped
 443              		.syntax unified
 444              		.thumb
 445              		.thumb_func
 446              		.fpu fpv4-sp-d16
 447              		.type	aseba_can_tx_dropped, %function
 448              	aseba_can_tx_dropped:
 449              	.LFB266:
 450              		.cfi_startproc
 451              		@ args = 0, pretend = 0, frame = 8
 452              		@ frame_needed = 0, uses_anonymous_args = 0
 453 0000 00B5     		push	{lr}
 454              		.cfi_def_cfa_offset 4
 455              		.cfi_offset 14, -4
ARM GAS  /tmp/ccMrTvtk.s 			page 9


 456 0002 084B     		ldr	r3, .L44
 457 0004 83B0     		sub	sp, sp, #12
 458              		.cfi_def_cfa_offset 16
 459 0006 1B68     		ldr	r3, [r3]
 460 0008 0193     		str	r3, [sp, #4]
 461 000a 4FF00003 		mov	r3,#0
 462 000e 054B     		ldr	r3, .L44
 463 0010 1A68     		ldr	r2, [r3]
 464 0012 019B     		ldr	r3, [sp, #4]
 465 0014 5A40     		eors	r2, r3, r2
 466 0016 02D1     		bne	.L43
 467 0018 03B0     		add	sp, sp, #12
 468              		.cfi_remember_state
 469              		.cfi_def_cfa_offset 4
 470              		@ sp needed
 471 001a 5DF804FB 		ldr	pc, [sp], #4
 472              	.L43:
 473              		.cfi_restore_state
 474 001e FFF7FEFF 		bl	__stack_chk_fail
 475              	.L45:
 476 0022 00BF     		.align	2
 477              	.L44:
 478 0024 00000000 		.word	.LC5
 479              		.cfi_endproc
 480              	.LFE266:
 481              		.size	aseba_can_tx_dropped, .-aseba_can_tx_dropped
 482              		.section	.rodata.can_init.cst4,"aM",%progbits,4
 483              		.align	2
 484              	.LC6:
 485 0000 00000000 		.word	__stack_chk_guard
 486              		.section	.text.can_init,"ax",%progbits
 487              		.align	1
 488              		.p2align 4,,15
 489              		.global	can_init
 490              		.syntax unified
 491              		.thumb
 492              		.thumb_func
 493              		.fpu fpv4-sp-d16
 494              		.type	can_init, %function
 495              	can_init:
 496              	.LFB257:
 497              		.loc 1 46 1 is_stmt 1 view -0
 498              		.cfi_startproc
 499              		@ args = 0, pretend = 0, frame = 8
 500              		@ frame_needed = 0, uses_anonymous_args = 0
 501              		.loc 1 46 1 is_stmt 0 view .LVU97
 502 0000 00B5     		push	{lr}
 503              		.cfi_def_cfa_offset 4
 504              		.cfi_offset 14, -4
 505 0002 0A4B     		ldr	r3, .L51
 506 0004 83B0     		sub	sp, sp, #12
 507              		.cfi_def_cfa_offset 16
 508              		.loc 1 46 1 view .LVU98
 509 0006 1B68     		ldr	r3, [r3]
 510 0008 0193     		str	r3, [sp, #4]
 511 000a 4FF00003 		mov	r3,#0
 512              		.loc 1 48 5 is_stmt 1 view .LVU99
ARM GAS  /tmp/ccMrTvtk.s 			page 10


 513              		.loc 1 60 5 view .LVU100
 514 000e 074B     		ldr	r3, .L51
 515 0010 1A68     		ldr	r2, [r3]
 516 0012 019B     		ldr	r3, [sp, #4]
 517 0014 5A40     		eors	r2, r3, r2
 518 0016 06D1     		bne	.L50
 519 0018 0549     		ldr	r1, .L51+4
 520 001a 0648     		ldr	r0, .L51+8
 521              		.loc 1 61 1 is_stmt 0 view .LVU101
 522 001c 03B0     		add	sp, sp, #12
 523              		.cfi_remember_state
 524              		.cfi_def_cfa_offset 4
 525              		@ sp needed
 526 001e 5DF804EB 		ldr	lr, [sp], #4
 527              		.cfi_restore 14
 528              		.cfi_def_cfa_offset 0
 529              		.loc 1 60 5 view .LVU102
 530 0022 FFF7FEBF 		b	canStart
 531              	.LVL26:
 532              	.L50:
 533              		.cfi_restore_state
 534 0026 FFF7FEFF 		bl	__stack_chk_fail
 535              	.LVL27:
 536              	.L52:
 537 002a 00BF     		.align	2
 538              	.L51:
 539 002c 00000000 		.word	.LC6
 540 0030 00000000 		.word	.LANCHOR1
 541 0034 00000000 		.word	CAND1
 542              		.cfi_endproc
 543              	.LFE257:
 544              		.size	can_init, .-can_init
 545              		.section	.rodata.aseba_can_start.cst4,"aM",%progbits,4
 546              		.align	2
 547              	.LC7:
 548 0000 00000000 		.word	__stack_chk_guard
 549              		.section	.text.aseba_can_start,"ax",%progbits
 550              		.align	1
 551              		.p2align 4,,15
 552              		.global	aseba_can_start
 553              		.syntax unified
 554              		.thumb
 555              		.thumb_func
 556              		.fpu fpv4-sp-d16
 557              		.type	aseba_can_start, %function
 558              	aseba_can_start:
 559              	.LVL28:
 560              	.LFB262:
 561              		.loc 1 99 1 is_stmt 1 view -0
 562              		.cfi_startproc
 563              		@ args = 0, pretend = 0, frame = 8
 564              		@ frame_needed = 0, uses_anonymous_args = 0
 565              		.loc 1 99 1 is_stmt 0 view .LVU104
 566 0000 30B5     		push	{r4, r5, lr}
 567              		.cfi_def_cfa_offset 12
 568              		.cfi_offset 4, -12
 569              		.cfi_offset 5, -8
ARM GAS  /tmp/ccMrTvtk.s 			page 11


 570              		.cfi_offset 14, -4
 571 0002 164B     		ldr	r3, .L57
 572              	.LBB25:
 573              	.LBB26:
 574              		.loc 1 60 5 view .LVU105
 575 0004 1649     		ldr	r1, .L57+4
 576              	.LBE26:
 577              	.LBE25:
 578              		.loc 1 106 5 view .LVU106
 579 0006 174D     		ldr	r5, .L57+8
 580              		.loc 1 99 1 view .LVU107
 581 0008 89B0     		sub	sp, sp, #36
 582              		.cfi_def_cfa_offset 48
 583              		.loc 1 99 1 view .LVU108
 584 000a 0446     		mov	r4, r0
 585              	.LBB29:
 586              	.LBB27:
 587              		.loc 1 60 5 view .LVU109
 588 000c 1648     		ldr	r0, .L57+12
 589              	.LVL29:
 590              		.loc 1 60 5 view .LVU110
 591              	.LBE27:
 592              	.LBE29:
 593              		.loc 1 99 1 view .LVU111
 594 000e 1B68     		ldr	r3, [r3]
 595 0010 0793     		str	r3, [sp, #28]
 596 0012 4FF00003 		mov	r3,#0
 597              		.loc 1 100 5 is_stmt 1 view .LVU112
 598              	.LBB30:
 599              	.LBI25:
 600              		.loc 1 45 6 view .LVU113
 601              	.LBB28:
 602              		.loc 1 48 5 view .LVU114
 603              		.loc 1 60 5 view .LVU115
 604 0016 FFF7FEFF 		bl	canStart
 605              	.LVL30:
 606              	.LBE28:
 607              	.LBE30:
 608              		.loc 1 101 5 view .LVU116
 609 001a 0023     		movs	r3, #0
 610 001c 0093     		str	r3, [sp]
 611 001e 4122     		movs	r2, #65
 612 0020 124B     		ldr	r3, .L57+16
 613 0022 1348     		ldr	r0, .L57+20
 614 0024 4FF41E71 		mov	r1, #632
 615 0028 FFF7FEFF 		bl	chThdCreateStatic
 616              	.LVL31:
 617              		.loc 1 106 5 view .LVU117
 618 002c 1149     		ldr	r1, .L57+24
 619 002e 124A     		ldr	r2, .L57+28
 620 0030 2088     		ldrh	r0, [r4]
 621 0032 4FF48063 		mov	r3, #1024
 622 0036 CDE90021 		strd	r2, r1, [sp]
 623 003a CDE90235 		strd	r3, r5, [sp, #8]
 624 003e 0F4A     		ldr	r2, .L57+32
 625 0040 0493     		str	r3, [sp, #16]
 626 0042 0F49     		ldr	r1, .L57+36
ARM GAS  /tmp/ccMrTvtk.s 			page 12


 627 0044 0F4B     		ldr	r3, .L57+40
 628 0046 FFF7FEFF 		bl	AsebaCanInit
 629              	.LVL32:
 630              		.loc 1 110 1 is_stmt 0 view .LVU118
 631 004a 044B     		ldr	r3, .L57
 632 004c 1A68     		ldr	r2, [r3]
 633 004e 079B     		ldr	r3, [sp, #28]
 634 0050 5A40     		eors	r2, r3, r2
 635 0052 01D1     		bne	.L56
 636 0054 09B0     		add	sp, sp, #36
 637              		.cfi_remember_state
 638              		.cfi_def_cfa_offset 12
 639              		@ sp needed
 640 0056 30BD     		pop	{r4, r5, pc}
 641              	.LVL33:
 642              	.L56:
 643              		.cfi_restore_state
 644              		.loc 1 110 1 view .LVU119
 645 0058 FFF7FEFF 		bl	__stack_chk_fail
 646              	.LVL34:
 647              	.L58:
 648              		.align	2
 649              	.L57:
 650 005c 00000000 		.word	.LC7
 651 0060 00000000 		.word	.LANCHOR1
 652 0064 00000000 		.word	aseba_can_receive_queue
 653 0068 00000000 		.word	CAND1
 654 006c 00000000 		.word	can_rx_thread
 655 0070 00000000 		.word	.LANCHOR2
 656 0074 00000000 		.word	aseba_can_send_queue
 657 0078 00000000 		.word	aseba_can_tx_dropped
 658 007c 00000000 		.word	aseba_can_is_frame_room
 659 0080 00000000 		.word	aseba_can_send_frame
 660 0084 00000000 		.word	aseba_can_rx_dropped
 661              		.cfi_endproc
 662              	.LFE262:
 663              		.size	aseba_can_start, .-aseba_can_start
 664              		.section	.rodata.aseba_can_lock.cst4,"aM",%progbits,4
 665              		.align	2
 666              	.LC8:
 667 0000 00000000 		.word	__stack_chk_guard
 668              		.section	.text.aseba_can_lock,"ax",%progbits
 669              		.align	1
 670              		.p2align 4,,15
 671              		.global	aseba_can_lock
 672              		.syntax unified
 673              		.thumb
 674              		.thumb_func
 675              		.fpu fpv4-sp-d16
 676              		.type	aseba_can_lock, %function
 677              	aseba_can_lock:
 678              	.LFB263:
 679              		.loc 1 115 1 is_stmt 1 view -0
 680              		.cfi_startproc
 681              		@ args = 0, pretend = 0, frame = 8
 682              		@ frame_needed = 0, uses_anonymous_args = 0
 683 0000 00B5     		push	{lr}
ARM GAS  /tmp/ccMrTvtk.s 			page 13


 684              		.cfi_def_cfa_offset 4
 685              		.cfi_offset 14, -4
 686 0002 094B     		ldr	r3, .L64
 687 0004 83B0     		sub	sp, sp, #12
 688              		.cfi_def_cfa_offset 16
 689              		.loc 1 115 1 is_stmt 0 view .LVU121
 690 0006 1B68     		ldr	r3, [r3]
 691 0008 0193     		str	r3, [sp, #4]
 692 000a 4FF00003 		mov	r3,#0
 693              		.loc 1 116 5 is_stmt 1 view .LVU122
 694 000e 064B     		ldr	r3, .L64
 695 0010 1A68     		ldr	r2, [r3]
 696 0012 019B     		ldr	r3, [sp, #4]
 697 0014 5A40     		eors	r2, r3, r2
 698 0016 05D1     		bne	.L63
 699 0018 0448     		ldr	r0, .L64+4
 700              		.loc 1 117 1 is_stmt 0 view .LVU123
 701 001a 03B0     		add	sp, sp, #12
 702              		.cfi_remember_state
 703              		.cfi_def_cfa_offset 4
 704              		@ sp needed
 705 001c 5DF804EB 		ldr	lr, [sp], #4
 706              		.cfi_restore 14
 707              		.cfi_def_cfa_offset 0
 708              		.loc 1 116 5 view .LVU124
 709 0020 FFF7FEBF 		b	chMtxLock
 710              	.LVL35:
 711              	.L63:
 712              		.cfi_restore_state
 713 0024 FFF7FEFF 		bl	__stack_chk_fail
 714              	.LVL36:
 715              	.L65:
 716              		.align	2
 717              	.L64:
 718 0028 00000000 		.word	.LC8
 719 002c 00000000 		.word	.LANCHOR0
 720              		.cfi_endproc
 721              	.LFE263:
 722              		.size	aseba_can_lock, .-aseba_can_lock
 723              		.section	.rodata.aseba_can_unlock.cst4,"aM",%progbits,4
 724              		.align	2
 725              	.LC9:
 726 0000 00000000 		.word	__stack_chk_guard
 727              		.section	.text.aseba_can_unlock,"ax",%progbits
 728              		.align	1
 729              		.p2align 4,,15
 730              		.global	aseba_can_unlock
 731              		.syntax unified
 732              		.thumb
 733              		.thumb_func
 734              		.fpu fpv4-sp-d16
 735              		.type	aseba_can_unlock, %function
 736              	aseba_can_unlock:
 737              	.LFB264:
 738              		.loc 1 120 1 is_stmt 1 view -0
 739              		.cfi_startproc
 740              		@ args = 0, pretend = 0, frame = 8
ARM GAS  /tmp/ccMrTvtk.s 			page 14


 741              		@ frame_needed = 0, uses_anonymous_args = 0
 742 0000 00B5     		push	{lr}
 743              		.cfi_def_cfa_offset 4
 744              		.cfi_offset 14, -4
 745 0002 094B     		ldr	r3, .L71
 746 0004 83B0     		sub	sp, sp, #12
 747              		.cfi_def_cfa_offset 16
 748              		.loc 1 120 1 is_stmt 0 view .LVU126
 749 0006 1B68     		ldr	r3, [r3]
 750 0008 0193     		str	r3, [sp, #4]
 751 000a 4FF00003 		mov	r3,#0
 752              		.loc 1 121 5 is_stmt 1 view .LVU127
 753 000e 064B     		ldr	r3, .L71
 754 0010 1A68     		ldr	r2, [r3]
 755 0012 019B     		ldr	r3, [sp, #4]
 756 0014 5A40     		eors	r2, r3, r2
 757 0016 05D1     		bne	.L70
 758 0018 0448     		ldr	r0, .L71+4
 759              		.loc 1 122 1 is_stmt 0 view .LVU128
 760 001a 03B0     		add	sp, sp, #12
 761              		.cfi_remember_state
 762              		.cfi_def_cfa_offset 4
 763              		@ sp needed
 764 001c 5DF804EB 		ldr	lr, [sp], #4
 765              		.cfi_restore 14
 766              		.cfi_def_cfa_offset 0
 767              		.loc 1 121 5 view .LVU129
 768 0020 FFF7FEBF 		b	chMtxUnlock
 769              	.LVL37:
 770              	.L70:
 771              		.cfi_restore_state
 772 0024 FFF7FEFF 		bl	__stack_chk_fail
 773              	.LVL38:
 774              	.L72:
 775              		.align	2
 776              	.L71:
 777 0028 00000000 		.word	.LC9
 778 002c 00000000 		.word	.LANCHOR0
 779              		.cfi_endproc
 780              	.LFE264:
 781              		.size	aseba_can_unlock, .-aseba_can_unlock
 782              		.global	aseba_can_receive_queue
 783              		.global	aseba_can_send_queue
 784              		.section	.bss.aseba_can_receive_queue,"aw",%nobits
 785              		.align	2
 786              		.type	aseba_can_receive_queue, %object
 787              		.size	aseba_can_receive_queue, 12288
 788              	aseba_can_receive_queue:
 789 0000 00000000 		.space	12288
 789      00000000 
 789      00000000 
 789      00000000 
 789      00000000 
 790              		.section	.bss.aseba_can_send_queue,"aw",%nobits
 791              		.align	2
 792              		.type	aseba_can_send_queue, %object
 793              		.size	aseba_can_send_queue, 12288
ARM GAS  /tmp/ccMrTvtk.s 			page 15


 794              	aseba_can_send_queue:
 795 0000 00000000 		.space	12288
 795      00000000 
 795      00000000 
 795      00000000 
 795      00000000 
 796              		.section	.bss.can_rx_thread_wa,"aw",%nobits
 797              		.align	3
 798              		.set	.LANCHOR2,. + 0
 799              		.type	can_rx_thread_wa, %object
 800              		.size	can_rx_thread_wa, 632
 801              	can_rx_thread_wa:
 802 0000 00000000 		.space	632
 802      00000000 
 802      00000000 
 802      00000000 
 802      00000000 
 803              		.section	.data.can_lock,"aw"
 804              		.align	2
 805              		.set	.LANCHOR0,. + 0
 806              		.type	can_lock, %object
 807              		.size	can_lock, 20
 808              	can_lock:
 809 0000 00000000 		.word	can_lock
 810 0004 00000000 		.word	can_lock
 811 0008 00000000 		.word	0
 812 000c 00000000 		.word	0
 813 0010 00000000 		.word	0
 814              		.section	.rodata.can1_config.10706,"a"
 815              		.align	2
 816              		.set	.LANCHOR1,. + 0
 817              		.type	can1_config.10706, %object
 818              		.size	can1_config.10706, 8
 819              	can1_config.10706:
 820 0000 44000000 		.word	68
 821 0004 01007B00 		.word	8060929
 822              		.text
 823              	.Letext0:
 824              		.file 3 "/usr/lib/gcc/arm-none-eabi/9.2.1/include/stddef.h"
 825              		.file 4 "/usr/lib/gcc/arm-none-eabi/9.2.1/include/stdint.h"
 826              		.file 5 ".//ChibiOS//os/rt/ports/ARMCMx/compilers/GCC/chtypes.h"
 827              		.file 6 ".//ChibiOS//os/rt/include/chsystypes.h"
 828              		.file 7 ".//ChibiOS//os/rt/include/chschd.h"
 829              		.file 8 ".//ChibiOS//os/ext/CMSIS/include/core_cm4.h"
 830              		.file 9 ".//ChibiOS//os/ext/CMSIS/ST/system_stm32f4xx.h"
 831              		.file 10 ".//ChibiOS//os/ext/CMSIS/ST/stm32f407xx.h"
 832              		.file 11 ".//ChibiOS//os/rt/ports/ARMCMx/chcore.h"
 833              		.file 12 ".//ChibiOS//os/rt/ports/ARMCMx/chcore_v7m.h"
 834              		.file 13 ".//ChibiOS//os/rt/include/chdebug.h"
 835              		.file 14 ".//ChibiOS//os/rt/include/chtm.h"
 836              		.file 15 ".//ChibiOS//os/rt/include/chstats.h"
 837              		.file 16 ".//ChibiOS//os/rt/include/chsem.h"
 838              		.file 17 ".//ChibiOS//os/rt/include/chmtx.h"
 839              		.file 18 ".//ChibiOS//os/rt/include/chevents.h"
 840              		.file 19 ".//ChibiOS//os/rt/include/chqueues.h"
 841              		.file 20 ".//ChibiOS//os/hal/ports/STM32/STM32F4xx/stm32_dma.h"
 842              		.file 21 ".//ChibiOS//os/hal/include/hal_ioblock.h"
ARM GAS  /tmp/ccMrTvtk.s 			page 16


 843              		.file 22 ".//ChibiOS//os/hal/ports/STM32/LLD/GPIOv2/pal_lld.h"
 844              		.file 23 ".//ChibiOS//os/hal/include/adc.h"
 845              		.file 24 ".//ChibiOS//os/hal/ports/STM32/STM32F4xx/adc_lld.h"
 846              		.file 25 ".//ChibiOS//os/hal/include/can.h"
 847              		.file 26 ".//ChibiOS//os/hal/ports/STM32/LLD/can_lld.h"
 848              		.file 27 ".//ChibiOS//os/hal/include/dac.h"
 849              		.file 28 ".//ChibiOS//os/hal/ports/STM32/LLD/DACv1/dac_lld.h"
 850              		.file 29 ".//ChibiOS//os/hal/include/ext.h"
 851              		.file 30 ".//ChibiOS//os/hal/ports/STM32/LLD/ext_lld.h"
 852              		.file 31 ".//ChibiOS//os/hal/include/gpt.h"
 853              		.file 32 ".//ChibiOS//os/hal/ports/STM32/LLD/TIMv1/gpt_lld.h"
 854              		.file 33 ".//ChibiOS//os/hal/ports/STM32/LLD/TIMv1/stm32_tim.h"
 855              		.file 34 ".//ChibiOS//os/hal/include/i2c.h"
 856              		.file 35 ".//ChibiOS//os/hal/ports/STM32/LLD/I2Cv1/i2c_lld.h"
 857              		.file 36 ".//ChibiOS//os/hal/include/i2s.h"
 858              		.file 37 ".//ChibiOS//os/hal/ports/STM32/LLD/SPIv1/i2s_lld.h"
 859              		.file 38 ".//ChibiOS//os/hal/include/pwm.h"
 860              		.file 39 ".//ChibiOS//os/hal/ports/STM32/LLD/TIMv1/pwm_lld.h"
 861              		.file 40 ".//ChibiOS//os/hal/include/serial.h"
 862              		.file 41 ".//ChibiOS//os/hal/ports/STM32/LLD/USARTv1/serial_lld.h"
 863              		.file 42 ".//ChibiOS//os/hal/include/sdc.h"
 864              		.file 43 ".//ChibiOS//os/hal/ports/STM32/LLD/sdc_lld.h"
 865              		.file 44 ".//ChibiOS//os/hal/include/spi.h"
 866              		.file 45 ".//ChibiOS//os/hal/ports/STM32/LLD/SPIv1/spi_lld.h"
 867              		.file 46 ".//ChibiOS//os/hal/include/usb.h"
 868              		.file 47 ".//ChibiOS//os/hal/ports/STM32/LLD/OTGv1/usb_lld.h"
 869              		.file 48 ".//ChibiOS//os/hal/ports/STM32/LLD/OTGv1/stm32_otg.h"
 870              		.file 49 "/usr/include/newlib/sys/_types.h"
 871              		.file 50 "/usr/include/newlib/sys/reent.h"
 872              		.file 51 "/usr/include/newlib/sys/lock.h"
 873              		.file 52 "/usr/include/newlib/stdlib.h"
 874              		.file 53 ".//aseba/transport/can/../../common/types.h"
 875              		.file 54 ".//aseba/transport/can/can-net.h"
 876              		.file 55 ".//aseba/vm/vm.h"
 877              		.file 56 ".//ChibiOS//os/rt/include/chthreads.h"