ARM GAS  /tmp/ccucPY5I.s 			page 1


   1              		.cpu cortex-m4
   2              		.eabi_attribute 27, 1
   3              		.eabi_attribute 28, 1
   4              		.eabi_attribute 20, 1
   5              		.eabi_attribute 21, 1
   6              		.eabi_attribute 23, 3
   7              		.eabi_attribute 24, 1
   8              		.eabi_attribute 25, 1
   9              		.eabi_attribute 26, 1
  10              		.eabi_attribute 30, 2
  11              		.eabi_attribute 34, 1
  12              		.eabi_attribute 18, 4
  13              		.file	"Asercom.c"
  14              		.text
  15              	.Ltext0:
  16              		.cfi_sections	.debug_frame
  17              		.section	.rodata.run_asercom.str1.4,"aMS",%progbits,1
  18              		.align	2
  19              	.LC0:
  20 0000 0C075745 		.ascii	"\014\007WELCOME to the SerCom protocol on e-Puck\015"
  20      4C434F4D 
  20      4520746F 
  20      20746865 
  20      20536572 
  21 002b 0A746865 		.ascii	"\012the EPFL education robot type \"H\" for help\015"
  21      20455046 
  21      4C206564 
  21      75636174 
  21      696F6E20 
  22 0057 0A00     		.ascii	"\012\000"
  23 0059 000000   		.align	2
  24              	.LC1:
  25 005c 612C2564 		.ascii	"a,%d,%d,%d\015\012\000"
  25      2C25642C 
  25      25640D0A 
  25      00
  26 0069 000000   		.align	2
  27              	.LC2:
  28 006c 612C302C 		.ascii	"a,0,0,0\015\012\000"
  28      302C300D 
  28      0A00
  29 0076 0000     		.align	2
  30              	.LC3:
  31 0078 622C2564 		.ascii	"b,%d (%d%%)\015\012\000"
  31      20282564 
  31      2525290D 
  31      0A00
  32 0086 0000     		.align	2
  33              	.LC4:
  34 0088 622C2564 		.ascii	"b,%d\015\012\000"
  34      0D0A00
  35 008f 00       		.align	2
  36              	.LC5:
  37 0090 422C2564 		.ascii	"B,%d\015\000"
  37      0D00
  38 0096 0000     		.align	2
  39              	.LC6:
ARM GAS  /tmp/ccucPY5I.s 			page 2


  40 0098 620D0A00 		.ascii	"b\015\012\000"
  41              		.align	2
  42              	.LC7:
  43 009c 632C2564 		.ascii	"c,%d\015\012\000"
  43      0D0A00
  44 00a3 00       		.align	2
  45              	.LC8:
  46 00a4 442C2564 		.ascii	"D,%d,%d\015\000"
  46      2C25640D 
  46      00
  47 00ad 000000   		.align	2
  48              	.LC9:
  49 00b0 640D0A00 		.ascii	"d\015\012\000"
  50              		.align	2
  51              	.LC10:
  52 00b4 652C2564 		.ascii	"e,%d,%d\015\012\000"
  52      2C25640D 
  52      0A00
  53 00be 0000     		.align	2
  54              	.LC11:
  55 00c0 462C2564 		.ascii	"F,%d\015\000"
  55      0D00
  56 00c6 0000     		.align	2
  57              	.LC12:
  58 00c8 660D0A00 		.ascii	"f\015\012\000"
  59              		.align	2
  60              	.LC13:
  61 00cc 67204952 		.ascii	"g IR check : 0x%x, address : 0x%x, data : 0x%x\015\012"
  61      20636865 
  61      636B203A 
  61      20307825 
  61      782C2061 
  62 00fc 00       		.ascii	"\000"
  63 00fd 000000   		.align	2
  64              	.LC14:
  65 0100 672C2564 		.ascii	"g,%d,%d,%d\015\012\000"
  65      2C25642C 
  65      25640D0A 
  65      00
  66 010d 000000   		.align	2
  67              	.LC15:
  68 0110 0A00     		.ascii	"\012\000"
  69 0112 0000     		.align	2
  70              	.LC16:
  71 0114 22412220 		.ascii	"\"A\"               Accelerometer\015\012\000"
  71      20202020 
  71      20202020 
  71      20202020 
  71      20204163 
  72 0136 0000     		.align	2
  73              	.LC17:
  74 0138 22422C23 		.ascii	"\"B,#\"             Body led 0=off 1=on 2=inverse\015"
  74      22202020 
  74      20202020 
  74      20202020 
  74      2020426F 
  75 0168 0A00     		.ascii	"\012\000"
ARM GAS  /tmp/ccucPY5I.s 			page 3


  76 016a 0000     		.align	2
  77              	.LC18:
  78 016c 22622220 		.ascii	"\"b\"               Battery value\015\012\000"
  78      20202020 
  78      20202020 
  78      20202020 
  78      20204261 
  79 018e 0000     		.align	2
  80              	.LC19:
  81 0190 22432220 		.ascii	"\"C\"               Selector position\015\012\000"
  81      20202020 
  81      20202020 
  81      20202020 
  81      20205365 
  82 01b6 0000     		.align	2
  83              	.LC20:
  84 01b8 22622220 		.ascii	"\"b\"               Battery state (1=ok, 0=low)\015"
  84      20202020 
  84      20202020 
  84      20202020 
  84      20204261 
  85 01e6 0A00     		.ascii	"\012\000"
  86              		.align	2
  87              	.LC21:
  88 01e8 22442C23 		.ascii	"\"D,#,#\"           Set motor speed left,right\015\012"
  88      2C232220 
  88      20202020 
  88      20202020 
  88      20205365 
  89 0216 00       		.ascii	"\000"
  90 0217 00       		.align	2
  91              	.LC22:
  92 0218 22452220 		.ascii	"\"E\"               Get motor speed left,right\015\012"
  92      20202020 
  92      20202020 
  92      20202020 
  92      20204765 
  93 0246 00       		.ascii	"\000"
  94 0247 00       		.align	2
  95              	.LC23:
  96 0248 22462C23 		.ascii	"\"F,#\"             Front led 0=off 1=on 2=inverse\015"
  96      22202020 
  96      20202020 
  96      20202020 
  96      20204672 
  97 0279 0A00     		.ascii	"\012\000"
  98 027b 00       		.align	2
  99              	.LC24:
 100 027c 22472220 		.ascii	"\"G\"               IR receiver\015\012\000"
 100      20202020 
 100      20202020 
 100      20202020 
 100      20204952 
 101              		.align	2
 102              	.LC25:
 103 029c 22482220 		.ascii	"\"H\"               Help\015\012\000"
 103      20202020 
ARM GAS  /tmp/ccucPY5I.s 			page 4


 103      20202020 
 103      20202020 
 103      20204865 
 104 02b5 000000   		.align	2
 105              	.LC26:
 106 02b8 22672220 		.ascii	"\"g\"               Gyro\015\012\000"
 106      20202020 
 106      20202020 
 106      20202020 
 106      20204779 
 107 02d1 000000   		.align	2
 108              	.LC27:
 109 02d4 22492220 		.ascii	"\"I\"               Get camera parameter\015\012\000"
 109      20202020 
 109      20202020 
 109      20202020 
 109      20204765 
 110 02fd 000000   		.align	2
 111              	.LC28:
 112 0300 224A2C23 		.ascii	"\"J,#,#,#,#,#,#\"   Set camera parameter mode,width"
 112      2C232C23 
 112      2C232C23 
 112      2C232220 
 112      20205365 
 113 0331 2C686569 		.ascii	",heigth,zoom(1,4 or 8),x1,y1\015\012\000"
 113      6774682C 
 113      7A6F6F6D 
 113      28312C34 
 113      206F7220 
 114              		.align	2
 115              	.LC29:
 116 0350 224B2220 		.ascii	"\"K\"               Calibrate proximity sensors\015"
 116      20202020 
 116      20202020 
 116      20202020 
 116      20204361 
 117 037e 0A00     		.ascii	"\012\000"
 118              		.align	2
 119              	.LC30:
 120 0380 224C2C23 		.ascii	"\"L,#,#\"           Led number,0=off 1=on 2=inverse"
 120      2C232220 
 120      20202020 
 120      20202020 
 120      20204C65 
 121 03b1 0D0A00   		.ascii	"\015\012\000"
 122              		.align	2
 123              	.LC31:
 124 03b4 224D2220 		.ascii	"\"M\"               Floor sensors\015\012\000"
 124      20202020 
 124      20202020 
 124      20202020 
 124      2020466C 
 125 03d6 0000     		.align	2
 126              	.LC32:
 127 03d8 224E2220 		.ascii	"\"N\"               Proximity\015\012\000"
 127      20202020 
 127      20202020 
ARM GAS  /tmp/ccucPY5I.s 			page 5


 127      20202020 
 127      20205072 
 128 03f6 0000     		.align	2
 129              	.LC33:
 130 03f8 224F2220 		.ascii	"\"O\"               Light sensors\015\012\000"
 130      20202020 
 130      20202020 
 130      20202020 
 130      20204C69 
 131 041a 0000     		.align	2
 132              	.LC34:
 133 041c 22502C23 		.ascii	"\"P,#,#\"           Set motor position left,right\015"
 133      2C232220 
 133      20202020 
 133      20202020 
 133      20205365 
 134 044c 0A00     		.ascii	"\012\000"
 135 044e 0000     		.align	2
 136              	.LC35:
 137 0450 22512220 		.ascii	"\"Q\"               Get motor position left,right\015"
 137      20202020 
 137      20202020 
 137      20202020 
 137      20204765 
 138 0480 0A00     		.ascii	"\012\000"
 139 0482 0000     		.align	2
 140              	.LC36:
 141 0484 22522220 		.ascii	"\"R\"               Reset e-puck\015\012\000"
 141      20202020 
 141      20202020 
 141      20202020 
 141      20205265 
 142 04a5 000000   		.align	2
 143              	.LC37:
 144 04a8 22532220 		.ascii	"\"S\"               Stop e-puck and turn off leds\015"
 144      20202020 
 144      20202020 
 144      20202020 
 144      20205374 
 145 04d8 0A00     		.ascii	"\012\000"
 146 04da 0000     		.align	2
 147              	.LC38:
 148 04dc 22542C23 		.ascii	"\"T,#\"             Play sound 1-5 else stop sound\015"
 148      22202020 
 148      20202020 
 148      20202020 
 148      2020506C 
 149 050d 0A00     		.ascii	"\012\000"
 150 050f 00       		.align	2
 151              	.LC39:
 152 0510 22552220 		.ascii	"\"U\"               Get microphone amplitude\015\012"
 152      20202020 
 152      20202020 
 152      20202020 
 152      20204765 
 153 053c 00       		.ascii	"\000"
 154 053d 000000   		.align	2
ARM GAS  /tmp/ccucPY5I.s 			page 6


 155              	.LC40:
 156 0540 22742220 		.ascii	"\"t\"               Temperature\015\012\000"
 156      20202020 
 156      20202020 
 156      20202020 
 156      20205465 
 157              		.align	2
 158              	.LC41:
 159 0560 22562220 		.ascii	"\"V\"               Version of SerCom\015\012\000"
 159      20202020 
 159      20202020 
 159      20202020 
 159      20205665 
 160 0586 0000     		.align	2
 161              	.LC42:
 162 0588 22572220 		.ascii	"\"W\"               Write I2C (mod,reg,val)\015\012"
 162      20202020 
 162      20202020 
 162      20202020 
 162      20205772 
 163 05b3 00       		.ascii	"\000"
 164              		.align	2
 165              	.LC43:
 166 05b4 22592220 		.ascii	"\"Y\"               Read I2C val=(mod,reg)\015\012\000"
 166      20202020 
 166      20202020 
 166      20202020 
 166      20205265 
 167 05df 00       		.align	2
 168              	.LC44:
 169 05e0 22412220 		.ascii	"\"A\"       Accelerometer\015\012\000"
 169      20202020 
 169      20204163 
 169      63656C65 
 169      726F6D65 
 170 05fa 0000     		.align	2
 171              	.LC45:
 172 05fc 22622220 		.ascii	"\"b\"       Battery value\015\012\000"
 172      20202020 
 172      20204261 
 172      74746572 
 172      79207661 
 173 0616 0000     		.align	2
 174              	.LC46:
 175 0618 22432220 		.ascii	"\"C\"       Selector position\015\012\000"
 175      20202020 
 175      20205365 
 175      6C656374 
 175      6F722070 
 176 0636 0000     		.align	2
 177              	.LC47:
 178 0638 22622220 		.ascii	"\"b\"       Battery state (1=ok, 0=low)\015\012\000"
 178      20202020 
 178      20204261 
 178      74746572 
 178      79207374 
 179              		.align	2
ARM GAS  /tmp/ccucPY5I.s 			page 7


 180              	.LC48:
 181 0660 22442C23 		.ascii	"\"D,#,#\"   Set motor speed left,right\015\012\000"
 181      2C232220 
 181      20205365 
 181      74206D6F 
 181      746F7220 
 182 0687 00       		.align	2
 183              	.LC49:
 184 0688 22452220 		.ascii	"\"E\"       Get motor speed left,right\015\012\000"
 184      20202020 
 184      20204765 
 184      74206D6F 
 184      746F7220 
 185 06af 00       		.align	2
 186              	.LC50:
 187 06b0 22472220 		.ascii	"\"G\"       IR receiver\015\012\000"
 187      20202020 
 187      20204952 
 187      20726563 
 187      65697665 
 188              		.align	2
 189              	.LC51:
 190 06c8 22482220 		.ascii	"\"H\"       Help\015\012\000"
 190      20202020 
 190      20204865 
 190      6C700D0A 
 190      00
 191 06d9 000000   		.align	2
 192              	.LC52:
 193 06dc 224B2220 		.ascii	"\"K\"       Calibrate proximity sensors\015\012\000"
 193      20202020 
 193      20204361 
 193      6C696272 
 193      61746520 
 194              		.align	2
 195              	.LC53:
 196 0704 224C2C23 		.ascii	"\"L,#,#\"   Led number,0=off 1=on 2=inverse\015\012"
 196      2C232220 
 196      20204C65 
 196      64206E75 
 196      6D626572 
 197 072f 00       		.ascii	"\000"
 198              		.align	2
 199              	.LC54:
 200 0730 224D2220 		.ascii	"\"M\"       Floor sensors\015\012\000"
 200      20202020 
 200      2020466C 
 200      6F6F7220 
 200      73656E73 
 201 074a 0000     		.align	2
 202              	.LC55:
 203 074c 224E2220 		.ascii	"\"N\"       Proximity\015\012\000"
 203      20202020 
 203      20205072 
 203      6F78696D 
 203      6974790D 
 204 0762 0000     		.align	2
ARM GAS  /tmp/ccucPY5I.s 			page 8


 205              	.LC56:
 206 0764 224F2220 		.ascii	"\"O\"       Light sensors\015\012\000"
 206      20202020 
 206      20204C69 
 206      67687420 
 206      73656E73 
 207 077e 0000     		.align	2
 208              	.LC57:
 209 0780 22502C23 		.ascii	"\"P,#,#\"   Set motor position left,right\015\012\000"
 209      2C232220 
 209      20205365 
 209      74206D6F 
 209      746F7220 
 210 07aa 0000     		.align	2
 211              	.LC58:
 212 07ac 22512220 		.ascii	"\"Q\"       Get motor position left,right\015\012\000"
 212      20202020 
 212      20204765 
 212      74206D6F 
 212      746F7220 
 213 07d6 0000     		.align	2
 214              	.LC59:
 215 07d8 22522220 		.ascii	"\"R\"       Reset e-puck\015\012\000"
 215      20202020 
 215      20205265 
 215      73657420 
 215      652D7075 
 216 07f1 000000   		.align	2
 217              	.LC60:
 218 07f4 22532220 		.ascii	"\"S\"       Stop e-puck and turn off leds\015\012\000"
 218      20202020 
 218      20205374 
 218      6F702065 
 218      2D707563 
 219 081e 0000     		.align	2
 220              	.LC61:
 221 0820 22552220 		.ascii	"\"U\"       Get microphone amplitude\015\012\000"
 221      20202020 
 221      20204765 
 221      74206D69 
 221      63726F70 
 222 0845 000000   		.align	2
 223              	.LC62:
 224 0848 22562220 		.ascii	"\"V\"       Version of SerCom\015\012\000"
 224      20202020 
 224      20205665 
 224      7273696F 
 224      6E206F66 
 225 0866 0000     		.align	2
 226              	.LC63:
 227 0868 692C2564 		.ascii	"i,%d,%d,%d,%d,%d\015\012\000"
 227      2C25642C 
 227      25642C25 
 227      642C2564 
 227      0D0A00
 228 087b 00       		.align	2
 229              	.LC64:
ARM GAS  /tmp/ccucPY5I.s 			page 9


 230 087c 4A2C2564 		.ascii	"J,%d,%d,%d,%d,%d,%d\015\000"
 230      2C25642C 
 230      25642C25 
 230      642C2564 
 230      2C25640D 
 231 0891 000000   		.align	2
 232              	.LC65:
 233 0894 6A0D0A00 		.ascii	"j\015\012\000"
 234              		.align	2
 235              	.LC66:
 236 0898 6B2C2053 		.ascii	"k, Starting calibration - Remove any object in sens"
 236      74617274 
 236      696E6720 
 236      63616C69 
 236      62726174 
 237 08cb 6F727320 		.ascii	"ors range\015\012\000"
 237      72616E67 
 237      650D0A00 
 238 08d7 00       		.align	2
 239              	.LC67:
 240 08d8 4C2C2564 		.ascii	"L,%d,%d\015\000"
 240      2C25640D 
 240      00
 241 08e1 000000   		.align	2
 242              	.LC68:
 243 08e4 6C0D0A00 		.ascii	"l\015\012\000"
 244              		.align	2
 245              	.LC69:
 246 08e8 6D2C2564 		.ascii	"m,%d,%d,%d,%d,%d\015\012\000"
 246      2C25642C 
 246      25642C25 
 246      642C2564 
 246      0D0A00
 247 08fb 00       		.align	2
 248              	.LC70:
 249 08fc 6E2C2564 		.ascii	"n,%d,%d,%d,%d,%d,%d,%d,%d\015\012\000"
 249      2C25642C 
 249      25642C25 
 249      642C2564 
 249      2C25642C 
 250              		.align	2
 251              	.LC71:
 252 0918 6E2C2564 		.ascii	"n,%d,%d,%d,%d,%d,%d,%d,%d,%d,%d\015\012\000"
 252      2C25642C 
 252      25642C25 
 252      642C2564 
 252      2C25642C 
 253 093a 0000     		.align	2
 254              	.LC72:
 255 093c 6F2C2564 		.ascii	"o,%d,%d,%d,%d,%d,%d,%d,%d\015\012\000"
 255      2C25642C 
 255      25642C25 
 255      642C2564 
 255      2C25642C 
 256              		.align	2
 257              	.LC73:
 258 0958 6F2C2564 		.ascii	"o,%d,%d,%d,%d,%d,%d,%d,%d,%d,%d\015\012\000"
ARM GAS  /tmp/ccucPY5I.s 			page 10


 258      2C25642C 
 258      25642C25 
 258      642C2564 
 258      2C25642C 
 259 097a 0000     		.align	2
 260              	.LC74:
 261 097c 502C2564 		.ascii	"P,%d,%d\015\000"
 261      2C25640D 
 261      00
 262 0985 000000   		.align	2
 263              	.LC75:
 264 0988 700D0A00 		.ascii	"p\015\012\000"
 265              		.align	2
 266              	.LC76:
 267 098c 712C2564 		.ascii	"q,%d,%d\015\012\000"
 267      2C25640D 
 267      0A00
 268 0996 0000     		.align	2
 269              	.LC77:
 270 0998 730D0A00 		.ascii	"s\015\012\000"
 271              		.align	2
 272              	.LC78:
 273 099c 542C2564 		.ascii	"T,%d\000"
 273      00
 274 09a1 000000   		.align	2
 275              	.LC79:
 276 09a4 740D0A00 		.ascii	"t\015\012\000"
 277              		.align	2
 278              	.LC80:
 279 09a8 742C2564 		.ascii	"t,%d\015\012\000"
 279      0D0A00
 280 09af 00       		.align	2
 281              	.LC81:
 282 09b0 752C2564 		.ascii	"u,%d,%d,%d\015\012\000"
 282      2C25642C 
 282      25640D0A 
 282      00
 283 09bd 000000   		.align	2
 284              	.LC82:
 285 09c0 762C5665 		.ascii	"v,Version 1.2.2 August 2008 GCtronic\015\012\000"
 285      7273696F 
 285      6E20312E 
 285      322E3220 
 285      41756775 
 286 09e7 00       		.align	2
 287              	.LC83:
 288 09e8 572C2564 		.ascii	"W,%d,%d,%d\015\000"
 288      2C25642C 
 288      25640D00 
 289              		.align	2
 290              	.LC84:
 291 09f4 770D0A00 		.ascii	"w\015\012\000"
 292              		.align	2
 293              	.LC85:
 294 09f8 592C2564 		.ascii	"Y,%d,%d\015\000"
 294      2C25640D 
 294      00
ARM GAS  /tmp/ccucPY5I.s 			page 11


 295 0a01 000000   		.align	2
 296              	.LC86:
 297 0a04 792C2564 		.ascii	"y,%d,%d\015\012\000"
 297      2C25640D 
 297      0A00
 298 0a0e 0000     		.align	2
 299              	.LC87:
 300 0a10 792C2564 		.ascii	"y,%d\015\012\000"
 300      0D0A00
 301 0a17 00       		.align	2
 302              	.LC88:
 303 0a18 25643A20 		.ascii	"%d: %d\015\012\000"
 303      25640D0A 
 303      00
 304 0a21 000000   		.align	2
 305              	.LC89:
 306 0a24 7A2C436F 		.ascii	"z,Command not found\015\012\000"
 306      6D6D616E 
 306      64206E6F 
 306      7420666F 
 306      756E640D 
 307 0a3a 0000     		.align	2
 308              	.LC90:
 309 0a3c 6B2C2043 		.ascii	"k, Calibration finished\015\012\000"
 309      616C6962 
 309      72617469 
 309      6F6E2066 
 309      696E6973 
 310 0a56 0000     		.align	2
 311              	.LC91:
 312 0a58 48572076 		.ascii	"HW version: %X\015\012\000"
 312      65727369 
 312      6F6E3A20 
 312      25580D0A 
 312      00
 313 0a69 000000   		.align	2
 314              	.LC92:
 315 0a6c 672C302C 		.ascii	"g,0,0,0\015\012\000"
 315      302C300D 
 315      0A00
 316 0a76 0000     		.align	2
 317              	.LC93:
 318 0a78 742C300D 		.ascii	"t,0\015\012\000"
 318      0A00
 319              		.section	.rodata.run_asercom.cst4,"aM",%progbits,4
 320              		.align	2
 321              	.LC94:
 322 0000 00000000 		.word	__stack_chk_guard
 323              		.section	.text.run_asercom,"ax",%progbits
 324              		.align	1
 325              		.p2align 4,,15
 326              		.global	run_asercom
 327              		.arch armv7e-m
 328              		.syntax unified
 329              		.thumb
 330              		.thumb_func
 331              		.fpu fpv4-sp-d16
ARM GAS  /tmp/ccucPY5I.s 			page 12


 332              		.type	run_asercom, %function
 333              	run_asercom:
 334              	.LFB259:
 335              		.file 1 ".//src/epuck1x/Asercom.c"
 336              		.loc 1 59 23 view -0
 337              		.cfi_startproc
 338              		@ args = 0, pretend = 0, frame = 64
 339              		@ frame_needed = 0, uses_anonymous_args = 0
 340 0000 2DE9F04F 		push	{r4, r5, r6, r7, r8, r9, r10, fp, lr}
 341              		.cfi_def_cfa_offset 36
 342              		.cfi_offset 4, -36
 343              		.cfi_offset 5, -32
 344              		.cfi_offset 6, -28
 345              		.cfi_offset 7, -24
 346              		.cfi_offset 8, -20
 347              		.cfi_offset 9, -16
 348              		.cfi_offset 10, -12
 349              		.cfi_offset 11, -8
 350              		.cfi_offset 14, -4
 351 0004 2DED028B 		vpush.64	{d8}
 352              		.cfi_def_cfa_offset 44
 353              		.cfi_offset 80, -44
 354              		.cfi_offset 81, -40
 355 0008 BF4B     		ldr	r3, .L681
 356 000a 99B0     		sub	sp, sp, #100
 357              		.cfi_def_cfa_offset 144
 358              		.loc 1 59 23 is_stmt 0 view .LVU1
 359 000c 1B68     		ldr	r3, [r3]
 360 000e 1793     		str	r3, [sp, #92]
 361 0010 4FF00003 		mov	r3,#0
 362              		.loc 1 60 5 is_stmt 1 view .LVU2
 363              		.loc 1 61 5 view .LVU3
 364              		.loc 1 62 5 view .LVU4
 365              		.loc 1 63 5 view .LVU5
 366              		.loc 1 64 5 view .LVU6
 367              		.loc 1 65 5 view .LVU7
 368              		.loc 1 67 5 view .LVU8
 369              	.LVL0:
 370              		.loc 1 69 5 view .LVU9
 371              		.loc 1 71 5 view .LVU10
 372              		.loc 1 72 5 view .LVU11
 373              		.loc 1 76 5 view .LVU12
 374 0014 FFF7FEFF 		bl	e_init_motors
 375              	.LVL1:
 376              		.loc 1 80 5 view .LVU13
 377              		.loc 1 80 16 is_stmt 0 view .LVU14
 378 0018 FFF7FEFF 		bl	getselector
 379              	.LVL2:
 380              		.loc 1 80 14 view .LVU15
 381 001c BB4B     		ldr	r3, .L681+4
 382              		.loc 1 81 8 view .LVU16
 383 001e 0A28     		cmp	r0, #10
 384              		.loc 1 80 14 view .LVU17
 385 0020 1860     		str	r0, [r3]
 386              		.loc 1 81 5 is_stmt 1 view .LVU18
 387              		.loc 1 81 8 is_stmt 0 view .LVU19
 388 0022 2BD1     		bne	.L660
ARM GAS  /tmp/ccucPY5I.s 			page 13


 389              	.LVL3:
 390              		.loc 1 94 5 is_stmt 1 view .LVU20
 391 0024 FFF7FEFF 		bl	e_init_remote_control
 392              	.LVL4:
 393              		.loc 1 101 5 view .LVU21
 394              		.loc 1 102 5 view .LVU22
 395              		.loc 1 105 14 is_stmt 0 view .LVU23
 396 0028 B94C     		ldr	r4, .L681+8
 397              		.loc 1 102 5 view .LVU24
 398 002a BA4A     		ldr	r2, .L681+12
 399              		.loc 1 107 15 view .LVU25
 400 002c BA4D     		ldr	r5, .L681+16
 401              		.loc 1 108 16 view .LVU26
 402 002e BB4E     		ldr	r6, .L681+20
 403              		.loc 1 109 14 view .LVU27
 404 0030 BB4F     		ldr	r7, .L681+24
 405              		.loc 1 105 14 view .LVU28
 406 0032 1394     		str	r4, [sp, #76]
 407              		.loc 1 102 5 view .LVU29
 408 0034 0123     		movs	r3, #1
 409 0036 4FF6FE71 		movw	r1, #65534
 410 003a 7F20     		movs	r0, #127
 411              		.loc 1 107 15 view .LVU30
 412 003c 1295     		str	r5, [sp, #72]
 413              		.loc 1 108 16 view .LVU31
 414 003e 1196     		str	r6, [sp, #68]
 415              		.loc 1 109 14 view .LVU32
 416 0040 1597     		str	r7, [sp, #84]
 417              		.loc 1 102 5 view .LVU33
 418 0042 FFF7FEFF 		bl	ReadEE
 419              	.LVL5:
 420              		.loc 1 105 5 is_stmt 1 view .LVU34
 421              		.loc 1 107 15 is_stmt 0 view .LVU35
 422 0046 2823     		movs	r3, #40
 423              		.loc 1 110 14 view .LVU36
 424 0048 B649     		ldr	r1, .L681+28
 425              		.loc 1 107 15 view .LVU37
 426 004a 2B60     		str	r3, [r5]
 427              		.loc 1 105 14 view .LVU38
 428 004c 0122     		movs	r2, #1
 429 004e 2260     		str	r2, [r4]
 430              		.loc 1 107 5 is_stmt 1 view .LVU39
 431              		.loc 1 108 5 view .LVU40
 432              		.loc 1 108 16 is_stmt 0 view .LVU41
 433 0050 3360     		str	r3, [r6]
 434              		.loc 1 109 5 is_stmt 1 view .LVU42
 435              		.loc 1 109 14 is_stmt 0 view .LVU43
 436 0052 0822     		movs	r2, #8
 437              		.loc 1 110 14 view .LVU44
 438 0054 4FF44863 		mov	r3, #3200
 439 0058 1491     		str	r1, [sp, #80]
 440              		.loc 1 109 14 view .LVU45
 441 005a 3A60     		str	r2, [r7]
 442              		.loc 1 110 5 is_stmt 1 view .LVU46
 443              		.loc 1 110 14 is_stmt 0 view .LVU47
 444 005c 0B60     		str	r3, [r1]
 445              		.loc 1 112 5 is_stmt 1 view .LVU48
ARM GAS  /tmp/ccucPY5I.s 			page 14


 446              		.loc 1 118 6 view .LVU49
 447              		.loc 1 124 10 view .LVU50
 448              		.loc 1 124 13 is_stmt 0 view .LVU51
 449 005e FFF7FEFF 		bl	isEpuckVersion1_3
 450              	.LVL6:
 451              		.loc 1 124 12 view .LVU52
 452 0062 0028     		cmp	r0, #0
 453 0064 01F0ED87 		beq	.L661
 454              	.L359:
 455              		.loc 1 127 9 is_stmt 1 view .LVU53
 456              		.loc 1 127 9 view .LVU54
 457 0068 AF48     		ldr	r0, .L681+32
 458 006a 5821     		movs	r1, #88
 459 006c FFF7FEFF 		bl	e_send_uart2_char
 460              	.LVL7:
 461              		.loc 1 127 9 view .LVU55
 462              	.L5:
 463              		.loc 1 127 9 discriminator 2 view .LVU56
 464              		.loc 1 127 9 discriminator 2 view .LVU57
 465 0070 FFF7FEFF 		bl	e_uart2_sending
 466              	.LVL8:
 467 0074 0990     		str	r0, [sp, #36]
 468 0076 0028     		cmp	r0, #0
 469 0078 FAD1     		bne	.L5
 470 007a 47E0     		b	.L6
 471              	.LVL9:
 472              	.L660:
 473              		.loc 1 84 9 view .LVU58
 474              		.loc 1 88 5 view .LVU59
 475              		.loc 1 89 9 view .LVU60
 476 007c FFF7FEFF 		bl	e_i2cp_init
 477              	.LVL10:
 478              		.loc 1 94 5 view .LVU61
 479              		.loc 1 105 14 is_stmt 0 view .LVU62
 480 0080 A34C     		ldr	r4, .L681+8
 481              		.loc 1 107 15 view .LVU63
 482 0082 A54E     		ldr	r6, .L681+16
 483              		.loc 1 108 16 view .LVU64
 484 0084 A54F     		ldr	r7, .L681+20
 485              		.loc 1 110 14 view .LVU65
 486 0086 A74B     		ldr	r3, .L681+28
 487              		.loc 1 109 14 view .LVU66
 488 0088 A54D     		ldr	r5, .L681+24
 489              		.loc 1 105 14 view .LVU67
 490 008a 1394     		str	r4, [sp, #76]
 491              		.loc 1 109 14 view .LVU68
 492 008c 1595     		str	r5, [sp, #84]
 493              		.loc 1 110 14 view .LVU69
 494 008e 1493     		str	r3, [sp, #80]
 495              		.loc 1 107 15 view .LVU70
 496 0090 1296     		str	r6, [sp, #72]
 497              		.loc 1 108 16 view .LVU71
 498 0092 1197     		str	r7, [sp, #68]
 499              		.loc 1 94 5 view .LVU72
 500 0094 FFF7FEFF 		bl	e_init_remote_control
 501              	.LVL11:
 502              		.loc 1 101 5 is_stmt 1 view .LVU73
ARM GAS  /tmp/ccucPY5I.s 			page 15


 503              		.loc 1 102 5 view .LVU74
 504 0098 9E4A     		ldr	r2, .L681+12
 505              		.loc 1 109 14 is_stmt 0 view .LVU75
 506 009a A14D     		ldr	r5, .L681+24
 507              		.loc 1 102 5 view .LVU76
 508 009c 0123     		movs	r3, #1
 509 009e 4FF6FE71 		movw	r1, #65534
 510 00a2 7F20     		movs	r0, #127
 511 00a4 FFF7FEFF 		bl	ReadEE
 512              	.LVL12:
 513              		.loc 1 105 5 is_stmt 1 view .LVU77
 514              		.loc 1 107 15 is_stmt 0 view .LVU78
 515 00a8 2823     		movs	r3, #40
 516 00aa 3360     		str	r3, [r6]
 517              		.loc 1 108 16 view .LVU79
 518 00ac 3B60     		str	r3, [r7]
 519              		.loc 1 110 14 view .LVU80
 520 00ae 9D4B     		ldr	r3, .L681+28
 521              		.loc 1 109 14 view .LVU81
 522 00b0 0821     		movs	r1, #8
 523              		.loc 1 110 14 view .LVU82
 524 00b2 4FF44862 		mov	r2, #3200
 525              		.loc 1 105 14 view .LVU83
 526 00b6 0120     		movs	r0, #1
 527              		.loc 1 109 14 view .LVU84
 528 00b8 2960     		str	r1, [r5]
 529              		.loc 1 110 14 view .LVU85
 530 00ba 1A60     		str	r2, [r3]
 531              		.loc 1 105 14 view .LVU86
 532 00bc 2060     		str	r0, [r4]
 533              		.loc 1 107 5 is_stmt 1 view .LVU87
 534              		.loc 1 108 5 view .LVU88
 535              		.loc 1 109 5 view .LVU89
 536              		.loc 1 110 5 view .LVU90
 537              		.loc 1 112 5 view .LVU91
 538              		.loc 1 113 9 view .LVU92
 539 00be FFF7FEFF 		bl	e_poxxxx_init_cam
 540              	.LVL13:
 541              		.loc 1 114 9 view .LVU93
 542              		.loc 1 114 54 is_stmt 0 view .LVU94
 543 00c2 2D68     		ldr	r5, [r5]
 544 00c4 3268     		ldr	r2, [r6]
 545              		.loc 1 114 98 view .LVU95
 546 00c6 3B68     		ldr	r3, [r7]
 547              		.loc 1 114 9 view .LVU96
 548 00c8 2468     		ldr	r4, [r4]
 549 00ca 0294     		str	r4, [sp, #8]
 550              		.loc 1 114 54 view .LVU97
 551 00cc 02FB05F2 		mul	r2, r2, r5
 552              		.loc 1 114 98 view .LVU98
 553 00d0 03FB05F3 		mul	r3, r3, r5
 554              		.loc 1 114 85 view .LVU99
 555 00d4 C3F5F071 		rsb	r1, r3, #480
 556              		.loc 1 114 42 view .LVU100
 557 00d8 C2F52070 		rsb	r0, r2, #640
 558              		.loc 1 114 110 view .LVU101
 559 00dc 01EBD171 		add	r1, r1, r1, lsr #31
ARM GAS  /tmp/ccucPY5I.s 			page 16


 560              		.loc 1 114 66 view .LVU102
 561 00e0 00EBD070 		add	r0, r0, r0, lsr #31
 562              		.loc 1 114 9 view .LVU103
 563 00e4 4910     		asrs	r1, r1, #1
 564 00e6 0195     		str	r5, [sp, #4]
 565 00e8 0095     		str	r5, [sp]
 566 00ea 4010     		asrs	r0, r0, #1
 567 00ec FFF7FEFF 		bl	e_poxxxx_config_cam
 568              	.LVL14:
 569              		.loc 1 115 9 is_stmt 1 view .LVU104
 570 00f0 FFF7FEFF 		bl	e_poxxxx_write_cam_registers
 571              	.LVL15:
 572              		.loc 1 118 6 view .LVU105
 573              		.loc 1 119 9 view .LVU106
 574 00f4 FFF7FEFF 		bl	e_acc_calibr
 575              	.LVL16:
 576              		.loc 1 120 9 view .LVU107
 577              		.loc 1 120 9 view .LVU108
 578 00f8 8B48     		ldr	r0, .L681+32
 579 00fa 5821     		movs	r1, #88
 580 00fc FFF7FEFF 		bl	e_send_uart1_char
 581              	.LVL17:
 582              		.loc 1 120 9 view .LVU109
 583              	.L3:
 584              		.loc 1 120 9 discriminator 2 view .LVU110
 585              		.loc 1 120 9 discriminator 2 view .LVU111
 586 0100 FFF7FEFF 		bl	e_uart1_sending
 587              	.LVL18:
 588 0104 0028     		cmp	r0, #0
 589 0106 FBD1     		bne	.L3
 590              		.loc 1 84 16 is_stmt 0 view .LVU112
 591 0108 0123     		movs	r3, #1
 592 010a 0993     		str	r3, [sp, #36]
 593              	.L6:
 594 010c DFF83492 		ldr	r9, .L681+60
 595 0110 864F     		ldr	r7, .L681+36
 596 0112 DFF834A2 		ldr	r10, .L681+64
 597 0116 DFF83482 		ldr	r8, .L681+68
 598              		.loc 1 84 16 discriminator 3 view .LVU113
 599 011a 4FF0000B 		mov	fp, #0
 600              	.LVL19:
 601              	.L4:
 602              		.loc 1 127 9 is_stmt 1 discriminator 3 view .LVU114
 603              		.loc 1 132 5 discriminator 3 view .LVU115
 604              		.loc 1 133 9 discriminator 3 view .LVU116
 605              		.loc 1 133 12 is_stmt 0 discriminator 3 view .LVU117
 606 011e 099B     		ldr	r3, [sp, #36]
 607 0120 002B     		cmp	r3, #0
 608 0122 00F07E81 		beq	.L623
 609              		.loc 1 134 20 view .LVU118
 610 0126 814D     		ldr	r5, .L681+36
 611              	.L8:
 612              		.loc 1 134 19 is_stmt 1 view .LVU119
 613              		.loc 1 134 20 is_stmt 0 view .LVU120
 614 0128 2846     		mov	r0, r5
 615 012a FFF7FEFF 		bl	e_getchar_uart1
 616              	.LVL20:
ARM GAS  /tmp/ccucPY5I.s 			page 17


 617              		.loc 1 134 19 view .LVU121
 618 012e 0646     		mov	r6, r0
 619 0130 68BB     		cbnz	r0, .L26
 620              	.L25:
 621              		.loc 1 137 17 is_stmt 1 view .LVU122
 622              		.loc 1 137 27 is_stmt 0 view .LVU123
 623 0132 FFF7FEFF 		bl	e_get_data
 624              	.LVL21:
 625 0136 0446     		mov	r4, r0
 626              	.LVL22:
 627              		.loc 1 138 17 is_stmt 1 view .LVU124
 628              		.loc 1 138 30 is_stmt 0 view .LVU125
 629 0138 FFF7FEFF 		bl	e_get_address
 630              	.LVL23:
 631              		.loc 1 139 17 is_stmt 1 view .LVU126
 632              		.loc 1 139 20 is_stmt 0 view .LVU127
 633 013c 10F0F70F 		tst	r0, #247
 634 0140 F2D1     		bne	.L8
 635              		.loc 1 139 62 discriminator 3 view .LVU128
 636 0142 A345     		cmp	fp, r4
 637 0144 F0D0     		beq	.L8
 638              		.loc 1 140 21 is_stmt 1 view .LVU129
 639 0146 092C     		cmp	r4, #9
 640 0148 01F27F87 		bhi	.L11
 641 014c DFE814F0 		tbh	[pc, r4, lsl #1]
 642              	.L13:
 643 0150 3301     		.2byte	(.L22-.L13)/2
 644 0152 2A01     		.2byte	(.L21-.L13)/2
 645 0154 2301     		.2byte	(.L20-.L13)/2
 646 0156 1A01     		.2byte	(.L19-.L13)/2
 647 0158 1701     		.2byte	(.L18-.L13)/2
 648 015a 1101     		.2byte	(.L17-.L13)/2
 649 015c 0E01     		.2byte	(.L16-.L13)/2
 650 015e 0701     		.2byte	(.L15-.L13)/2
 651 0160 0001     		.2byte	(.L14-.L13)/2
 652 0162 0A00     		.2byte	(.L12-.L13)/2
 653              		.p2align 1
 654              	.L12:
 655              		.loc 1 174 29 view .LVU130
 656              		.loc 1 174 36 is_stmt 0 view .LVU131
 657 0164 724B     		ldr	r3, .L681+40
 658              	.L649:
 659              		.loc 1 175 36 view .LVU132
 660 0166 734A     		ldr	r2, .L681+44
 661 0168 7349     		ldr	r1, .L681+48
 662 016a 1160     		str	r1, [r2]
 663              		.loc 1 174 36 view .LVU133
 664 016c 734A     		ldr	r2, .L681+52
 665              		.loc 1 176 29 view .LVU134
 666 016e 0E46     		mov	r6, r1
 667              		.loc 1 174 36 view .LVU135
 668 0170 1360     		str	r3, [r2]
 669              		.loc 1 175 29 is_stmt 1 view .LVU136
 670              		.loc 1 176 29 view .LVU137
 671              	.LVL24:
 672              	.L23:
 673              		.loc 1 187 21 view .LVU138
ARM GAS  /tmp/ccucPY5I.s 			page 18


 674              		.loc 1 188 21 view .LVU139
 675 0172 3046     		mov	r0, r6
 676 0174 FFF7FEFF 		bl	e_set_speed_left
 677              	.LVL25:
 678              		.loc 1 189 21 view .LVU140
 679 0178 704B     		ldr	r3, .L681+52
 680 017a 1868     		ldr	r0, [r3]
 681 017c FFF7FEFF 		bl	e_set_speed_right
 682              	.LVL26:
 683              		.loc 1 134 20 is_stmt 0 view .LVU141
 684 0180 2846     		mov	r0, r5
 685 0182 FFF7FEFF 		bl	e_getchar_uart1
 686              	.LVL27:
 687              		.loc 1 189 21 view .LVU142
 688 0186 A346     		mov	fp, r4
 689              	.LVL28:
 690              		.loc 1 134 19 is_stmt 1 view .LVU143
 691 0188 0646     		mov	r6, r0
 692 018a 0028     		cmp	r0, #0
 693 018c D1D0     		beq	.L25
 694              	.LVL29:
 695              	.L26:
 696              		.loc 1 259 9 view .LVU144
 697              		.loc 1 259 12 is_stmt 0 view .LVU145
 698 018e 97F90020 		ldrsb	r2, [r7]
 699              		.loc 1 259 23 view .LVU146
 700 0192 3B78     		ldrb	r3, [r7]	@ zero_extendqisi2
 701              		.loc 1 259 12 view .LVU147
 702 0194 002A     		cmp	r2, #0
 703 0196 C0F2B181 		blt	.L662
 704              		.loc 1 598 16 is_stmt 1 view .LVU148
 705              		.loc 1 598 19 is_stmt 0 view .LVU149
 706 019a 002B     		cmp	r3, #0
 707 019c BFD0     		beq	.L4
 708              		.loc 1 599 13 is_stmt 1 view .LVU150
 709              		.loc 1 599 16 is_stmt 0 view .LVU151
 710 019e 099A     		ldr	r2, [sp, #36]
 711              		.loc 1 600 48 view .LVU152
 712 01a0 624C     		ldr	r4, .L681+36
 713              		.loc 1 599 16 view .LVU153
 714 01a2 002A     		cmp	r2, #0
 715 01a4 00F01981 		beq	.L142
 716 01a8 03E0     		b	.L141
 717              	.L143:
 718              		.loc 1 600 48 discriminator 4 view .LVU154
 719 01aa 2046     		mov	r0, r4
 720 01ac FFF7FEFF 		bl	e_getchar_uart1
 721              	.LVL30:
 722 01b0 3B78     		ldrb	r3, [r7]	@ zero_extendqisi2
 723              	.L141:
 724              		.loc 1 600 48 is_stmt 1 discriminator 1 view .LVU155
 725              		.loc 1 600 23 discriminator 1 view .LVU156
 726 01b2 0A2B     		cmp	r3, #10
 727 01b4 F9D0     		beq	.L143
 728              		.loc 1 600 34 is_stmt 0 discriminator 3 view .LVU157
 729 01b6 0D2B     		cmp	r3, #13
 730 01b8 F7D0     		beq	.L143
ARM GAS  /tmp/ccucPY5I.s 			page 19


 731              		.loc 1 604 13 is_stmt 1 view .LVU158
 732              		.loc 1 605 15 is_stmt 0 view .LVU159
 733 01ba 0122     		movs	r2, #1
 734              		.loc 1 607 24 view .LVU160
 735 01bc 5B4C     		ldr	r4, .L681+36
 736              		.loc 1 604 23 view .LVU161
 737 01be 89F80030 		strb	r3, [r9]
 738              		.loc 1 605 13 is_stmt 1 view .LVU162
 739              		.loc 1 605 15 is_stmt 0 view .LVU163
 740 01c2 CAF80020 		str	r2, [r10]
 741              		.loc 1 606 13 is_stmt 1 view .LVU164
 742 01c6 04E0     		b	.L152
 743              	.L663:
 744 01c8 3B78     		ldrb	r3, [r7]	@ zero_extendqisi2
 745              		.loc 1 608 27 view .LVU165
 746              		.loc 1 608 21 is_stmt 0 view .LVU166
 747 01ca 0A2B     		cmp	r3, #10
 748 01cc 11D0     		beq	.L153
 749              	.L149:
 750              		.loc 1 608 38 discriminator 1 view .LVU167
 751 01ce 0D2B     		cmp	r3, #13
 752 01d0 0FD0     		beq	.L153
 753              	.L152:
 754              		.loc 1 607 17 is_stmt 1 view .LVU168
 755              		.loc 1 607 20 view .LVU169
 756              		.loc 1 607 24 is_stmt 0 view .LVU170
 757 01d2 2046     		mov	r0, r4
 758 01d4 FFF7FEFF 		bl	e_getchar_uart1
 759              	.LVL31:
 760              		.loc 1 607 45 is_stmt 1 view .LVU171
 761              		.loc 1 607 23 is_stmt 0 view .LVU172
 762 01d8 0028     		cmp	r0, #0
 763 01da F5D0     		beq	.L663
 764              		.loc 1 607 53 discriminator 1 view .LVU173
 765 01dc DAF80020 		ldr	r2, [r10]
 766              		.loc 1 607 57 discriminator 1 view .LVU174
 767 01e0 3B78     		ldrb	r3, [r7]	@ zero_extendqisi2
 768 01e2 09F80230 		strb	r3, [r9, r2]
 769              		.loc 1 608 21 discriminator 1 view .LVU175
 770 01e6 0A2B     		cmp	r3, #10
 771              		.loc 1 607 53 discriminator 1 view .LVU176
 772 01e8 02F10102 		add	r2, r2, #1
 773 01ec CAF80020 		str	r2, [r10]
 774              		.loc 1 608 27 is_stmt 1 discriminator 1 view .LVU177
 775              		.loc 1 608 21 is_stmt 0 discriminator 1 view .LVU178
 776 01f0 EDD1     		bne	.L149
 777              	.L153:
 778              		.loc 1 613 13 is_stmt 1 view .LVU179
 779              		.loc 1 613 21 is_stmt 0 view .LVU180
 780 01f2 DAF80020 		ldr	r2, [r10]
 781              		.loc 1 613 25 view .LVU181
 782 01f6 0023     		movs	r3, #0
 783 01f8 09F80230 		strb	r3, [r9, r2]
 784              		.loc 1 615 13 is_stmt 1 view .LVU182
 785              		.loc 1 615 24 is_stmt 0 view .LVU183
 786 01fc 99F80030 		ldrb	r3, [r9]	@ zero_extendqisi2
 787              		.loc 1 613 21 view .LVU184
ARM GAS  /tmp/ccucPY5I.s 			page 20


 788 0200 0132     		adds	r2, r2, #1
 789              		.loc 1 615 16 view .LVU185
 790 0202 622B     		cmp	r3, #98
 791              		.loc 1 613 21 view .LVU186
 792 0204 CAF80020 		str	r2, [r10]
 793              		.loc 1 615 16 view .LVU187
 794 0208 00F05A85 		beq	.L151
 795              		.loc 1 615 36 discriminator 1 view .LVU188
 796 020c 672B     		cmp	r3, #103
 797 020e 00F03B85 		beq	.L157
 798              		.loc 1 616 17 is_stmt 1 view .LVU189
 799              	.LBB2:
 800              		.loc 1 616 29 view .LVU190
 801              	.LVL32:
 802              		.loc 1 616 29 view .LVU191
 803 0212 4B4A     		ldr	r2, .L681+56
 804 0214 D25C     		ldrb	r2, [r2, r3]	@ zero_extendqisi2
 805 0216 02F00302 		and	r2, r2, #3
 806 021a 022A     		cmp	r2, #2
 807 021c 04BF     		itt	eq
 808 021e 203B     		subeq	r3, r3, #32
 809              	.LVL33:
 810              		.loc 1 616 29 is_stmt 0 view .LVU192
 811 0220 DBB2     		uxtbeq	r3, r3
 812 0222 A3F14102 		sub	r2, r3, #65
 813              	.LBE2:
 814              		.loc 1 616 27 view .LVU193
 815 0226 89F80030 		strb	r3, [r9]
 816              	.LVL34:
 817              		.loc 1 618 13 is_stmt 1 view .LVU194
 818 022a 332A     		cmp	r2, #51
 819 022c 00F21E85 		bhi	.L159
 820 0230 01A3     		adr	r3, .L161
 821 0232 53F822F0 		ldr	pc, [r3, r2, lsl #2]
 822 0236 00BF     		.p2align 2
 823              	.L161:
 824 0238 03170000 		.word	.L185+1
 825 023c 0D160000 		.word	.L184+1
 826 0240 7B160000 		.word	.L183+1
 827 0244 93130000 		.word	.L182+1
 828 0248 D1160000 		.word	.L181+1
 829 024c DF150000 		.word	.L180+1
 830 0250 3B160000 		.word	.L179+1
 831 0254 5D0E0000 		.word	.L178+1
 832 0258 9B120000 		.word	.L177+1
 833 025c CD110000 		.word	.L176+1
 834 0260 DD100000 		.word	.L175+1
 835 0264 A9100000 		.word	.L174+1
 836 0268 CD140000 		.word	.L173+1
 837 026c DF120000 		.word	.L172+1
 838 0270 01140000 		.word	.L171+1
 839 0274 A50D0000 		.word	.L170+1
 840 0278 A7150000 		.word	.L169+1
 841 027c 1F010000 		.word	.L4+1
 842 0280 63130000 		.word	.L168+1
 843 0284 CB130000 		.word	.L167+1
 844 0288 DD0D0000 		.word	.L166+1
ARM GAS  /tmp/ccucPY5I.s 			page 21


 845 028c 6B100000 		.word	.L165+1
 846 0290 27100000 		.word	.L164+1
 847 0294 6D0C0000 		.word	.L159+1
 848 0298 1B040000 		.word	.L163+1
 849 029c 3F0D0000 		.word	.L162+1
 850 02a0 6D0C0000 		.word	.L159+1
 851 02a4 6D0C0000 		.word	.L159+1
 852 02a8 6D0C0000 		.word	.L159+1
 853 02ac 6D0C0000 		.word	.L159+1
 854 02b0 6D0C0000 		.word	.L159+1
 855 02b4 6D0C0000 		.word	.L159+1
 856 02b8 6D0C0000 		.word	.L159+1
 857 02bc C10C0000 		.word	.L151+1
 858 02c0 6D0C0000 		.word	.L159+1
 859 02c4 6D0C0000 		.word	.L159+1
 860 02c8 6D0C0000 		.word	.L159+1
 861 02cc 6D0C0000 		.word	.L159+1
 862 02d0 890C0000 		.word	.L157+1
 863 02d4 6D0C0000 		.word	.L159+1
 864 02d8 6D0C0000 		.word	.L159+1
 865 02dc 6D0C0000 		.word	.L159+1
 866 02e0 6D0C0000 		.word	.L159+1
 867 02e4 6D0C0000 		.word	.L159+1
 868 02e8 6D0C0000 		.word	.L159+1
 869 02ec 6D0C0000 		.word	.L159+1
 870 02f0 6D0C0000 		.word	.L159+1
 871 02f4 6D0C0000 		.word	.L159+1
 872 02f8 6D0C0000 		.word	.L159+1
 873 02fc 6D0C0000 		.word	.L159+1
 874 0300 6D0C0000 		.word	.L159+1
 875 0304 050D0000 		.word	.L160+1
 876              		.p2align 1
 877              	.L682:
 878              		.align	2
 879              	.L681:
 880 0308 00000000 		.word	.LC94
 881 030c 00000000 		.word	.LANCHOR0
 882 0310 00000000 		.word	.LANCHOR2
 883 0314 00000000 		.word	.LANCHOR1
 884 0318 00000000 		.word	.LANCHOR3
 885 031c 00000000 		.word	.LANCHOR4
 886 0320 00000000 		.word	.LANCHOR5
 887 0324 00000000 		.word	.LANCHOR6
 888 0328 00000000 		.word	.LC0
 889 032c 00000000 		.word	.LANCHOR10
 890 0330 D4FEFFFF 		.word	-300
 891 0334 00000000 		.word	.LANCHOR8
 892 0338 A8FDFFFF 		.word	-600
 893 033c 00000000 		.word	.LANCHOR7
 894 0340 01000000 		.word	_ctype_+1
 895 0344 00000000 		.word	buffer
 896 0348 00000000 		.word	.LANCHOR11
 897 034c 00000000 		.word	.LANCHOR22
 898              	.LVL35:
 899              	.L14:
 900              		.loc 1 170 29 view .LVU195
 901              		.loc 1 170 36 is_stmt 0 view .LVU196
ARM GAS  /tmp/ccucPY5I.s 			page 22


 902 0350 8F4A     		ldr	r2, .L683
 903 0352 904B     		ldr	r3, .L683+4
 904 0354 1360     		str	r3, [r2]
 905              		.loc 1 171 29 is_stmt 1 view .LVU197
 906              		.loc 1 171 36 is_stmt 0 view .LVU198
 907 0356 904A     		ldr	r2, .L683+8
 908              		.loc 1 172 29 view .LVU199
 909 0358 1E46     		mov	r6, r3
 910              		.loc 1 171 36 view .LVU200
 911 035a 1360     		str	r3, [r2]
 912              		.loc 1 172 29 is_stmt 1 view .LVU201
 913 035c 09E7     		b	.L23
 914              	.L15:
 915              		.loc 1 166 29 view .LVU202
 916              		.loc 1 167 36 is_stmt 0 view .LVU203
 917 035e 8F4E     		ldr	r6, .L683+12
 918              	.L650:
 919              		.loc 1 166 36 view .LVU204
 920 0360 8B4B     		ldr	r3, .L683
 921 0362 8C4A     		ldr	r2, .L683+4
 922 0364 1A60     		str	r2, [r3]
 923              		.loc 1 167 29 is_stmt 1 view .LVU205
 924              		.loc 1 167 36 is_stmt 0 view .LVU206
 925 0366 8C4B     		ldr	r3, .L683+8
 926 0368 1E60     		str	r6, [r3]
 927              		.loc 1 168 29 is_stmt 1 view .LVU207
 928 036a 02E7     		b	.L23
 929              	.L16:
 930              		.loc 1 162 29 view .LVU208
 931              		.loc 1 163 36 is_stmt 0 view .LVU209
 932 036c 4FF41676 		mov	r6, #600
 933 0370 F6E7     		b	.L650
 934              	.L17:
 935              		.loc 1 158 29 is_stmt 1 view .LVU210
 936              		.loc 1 158 36 is_stmt 0 view .LVU211
 937 0372 874A     		ldr	r2, .L683
 938 0374 0023     		movs	r3, #0
 939 0376 1360     		str	r3, [r2]
 940              		.loc 1 159 29 is_stmt 1 view .LVU212
 941              		.loc 1 159 36 is_stmt 0 view .LVU213
 942 0378 874A     		ldr	r2, .L683+8
 943 037a 1360     		str	r3, [r2]
 944              		.loc 1 160 29 is_stmt 1 view .LVU214
 945 037c F9E6     		b	.L23
 946              	.L18:
 947              		.loc 1 154 29 view .LVU215
 948              		.loc 1 154 36 is_stmt 0 view .LVU216
 949 037e 4FF41673 		mov	r3, #600
 950 0382 F0E6     		b	.L649
 951              	.L19:
 952              		.loc 1 150 29 is_stmt 1 view .LVU217
 953              		.loc 1 150 36 is_stmt 0 view .LVU218
 954 0384 824A     		ldr	r2, .L683
 955 0386 4FF49673 		mov	r3, #300
 956 038a 1360     		str	r3, [r2]
 957              		.loc 1 151 29 is_stmt 1 view .LVU219
 958              		.loc 1 151 36 is_stmt 0 view .LVU220
ARM GAS  /tmp/ccucPY5I.s 			page 23


 959 038c 824B     		ldr	r3, .L683+8
 960 038e 4FF41676 		mov	r6, #600
 961 0392 1E60     		str	r6, [r3]
 962              		.loc 1 152 29 is_stmt 1 view .LVU221
 963 0394 EDE6     		b	.L23
 964              	.L20:
 965              		.loc 1 146 29 view .LVU222
 966              		.loc 1 146 36 is_stmt 0 view .LVU223
 967 0396 7E4B     		ldr	r3, .L683
 968 0398 4FF41676 		mov	r6, #600
 969 039c 1E60     		str	r6, [r3]
 970              		.loc 1 147 29 is_stmt 1 view .LVU224
 971              		.loc 1 147 36 is_stmt 0 view .LVU225
 972 039e 7E4B     		ldr	r3, .L683+8
 973 03a0 1E60     		str	r6, [r3]
 974              		.loc 1 148 29 is_stmt 1 view .LVU226
 975 03a2 E6E6     		b	.L23
 976              	.L21:
 977              		.loc 1 142 29 view .LVU227
 978              		.loc 1 142 36 is_stmt 0 view .LVU228
 979 03a4 7A4A     		ldr	r2, .L683
 980 03a6 4FF41673 		mov	r3, #600
 981 03aa 1360     		str	r3, [r2]
 982              		.loc 1 143 29 is_stmt 1 view .LVU229
 983              		.loc 1 143 36 is_stmt 0 view .LVU230
 984 03ac 7A4B     		ldr	r3, .L683+8
 985 03ae 4FF49676 		mov	r6, #300
 986 03b2 1E60     		str	r6, [r3]
 987              		.loc 1 144 29 is_stmt 1 view .LVU231
 988 03b4 DDE6     		b	.L23
 989              	.L22:
 990              		.loc 1 178 29 view .LVU232
 991              		.loc 1 178 32 is_stmt 0 view .LVU233
 992 03b6 7A4B     		ldr	r3, .L683+16
 993 03b8 1B78     		ldrb	r3, [r3]	@ zero_extendqisi2
 994 03ba 002B     		cmp	r3, #0
 995 03bc 01F02383 		beq	.L664
 996              	.LVL36:
 997              	.L24:
 998              		.loc 1 182 29 is_stmt 1 view .LVU234
 999 03c0 41F65071 		movw	r1, #8016
 1000 03c4 42F61430 		movw	r0, #11028
 1001 03c8 FFF7FEFF 		bl	e_play_sound
 1002              	.LVL37:
 1003              		.loc 1 183 29 view .LVU235
 1004 03cc 724B     		ldr	r3, .L683+8
 1005 03ce 1E68     		ldr	r6, [r3]
 1006 03d0 CFE6     		b	.L23
 1007              	.LVL38:
 1008              	.L145:
 1009              		.loc 1 602 48 is_stmt 0 discriminator 4 view .LVU236
 1010 03d2 2046     		mov	r0, r4
 1011 03d4 FFF7FEFF 		bl	e_getchar_uart2
 1012              	.LVL39:
 1013 03d8 3B78     		ldrb	r3, [r7]	@ zero_extendqisi2
 1014              	.L142:
 1015              		.loc 1 602 48 is_stmt 1 discriminator 1 view .LVU237
ARM GAS  /tmp/ccucPY5I.s 			page 24


 1016              		.loc 1 602 23 discriminator 1 view .LVU238
 1017 03da 0A2B     		cmp	r3, #10
 1018 03dc F9D0     		beq	.L145
 1019              		.loc 1 602 34 is_stmt 0 discriminator 3 view .LVU239
 1020 03de 0D2B     		cmp	r3, #13
 1021 03e0 F7D0     		beq	.L145
 1022              		.loc 1 604 13 is_stmt 1 view .LVU240
 1023              		.loc 1 605 15 is_stmt 0 view .LVU241
 1024 03e2 0122     		movs	r2, #1
 1025              		.loc 1 610 24 view .LVU242
 1026 03e4 6F4C     		ldr	r4, .L683+20
 1027              		.loc 1 604 23 view .LVU243
 1028 03e6 89F80030 		strb	r3, [r9]
 1029              		.loc 1 605 13 is_stmt 1 view .LVU244
 1030              		.loc 1 605 15 is_stmt 0 view .LVU245
 1031 03ea CAF80020 		str	r2, [r10]
 1032              		.loc 1 606 13 is_stmt 1 view .LVU246
 1033 03ee 06E0     		b	.L156
 1034              	.L665:
 1035 03f0 3B78     		ldrb	r3, [r7]	@ zero_extendqisi2
 1036              	.L155:
 1037              		.loc 1 611 27 view .LVU247
 1038              		.loc 1 611 21 is_stmt 0 view .LVU248
 1039 03f2 0A2B     		cmp	r3, #10
 1040 03f4 3FF4FDAE 		beq	.L153
 1041              		.loc 1 611 38 discriminator 1 view .LVU249
 1042 03f8 0D2B     		cmp	r3, #13
 1043 03fa 3FF4FAAE 		beq	.L153
 1044              	.L156:
 1045              		.loc 1 610 17 is_stmt 1 view .LVU250
 1046              		.loc 1 610 20 view .LVU251
 1047              		.loc 1 610 24 is_stmt 0 view .LVU252
 1048 03fe 2046     		mov	r0, r4
 1049 0400 FFF7FEFF 		bl	e_getchar_uart2
 1050              	.LVL40:
 1051              		.loc 1 610 45 is_stmt 1 view .LVU253
 1052              		.loc 1 610 23 is_stmt 0 view .LVU254
 1053 0404 0028     		cmp	r0, #0
 1054 0406 F3D0     		beq	.L665
 1055              		.loc 1 610 53 discriminator 1 view .LVU255
 1056 0408 DAF80020 		ldr	r2, [r10]
 1057              		.loc 1 610 57 discriminator 1 view .LVU256
 1058 040c 3B78     		ldrb	r3, [r7]	@ zero_extendqisi2
 1059 040e 09F80230 		strb	r3, [r9, r2]
 1060              		.loc 1 610 53 discriminator 1 view .LVU257
 1061 0412 0132     		adds	r2, r2, #1
 1062 0414 CAF80020 		str	r2, [r10]
 1063 0418 EBE7     		b	.L155
 1064              	.L163:
 1065              	.LBB3:
 1066              		.loc 1 1041 21 is_stmt 1 view .LVU258
 1067              		.loc 1 1041 24 is_stmt 0 view .LVU259
 1068 041a 099B     		ldr	r3, [sp, #36]
 1069 041c 002B     		cmp	r3, #0
 1070 041e 41F09881 		bne	.L666
 1071              	.LVL41:
 1072              	.L623:
ARM GAS  /tmp/ccucPY5I.s 			page 25


 1073              		.loc 1 1041 24 view .LVU260
 1074              	.LBE3:
 1075              		.loc 1 196 20 view .LVU261
 1076 0422 604D     		ldr	r5, .L683+20
 1077              	.L9:
 1078              	.LVL42:
 1079              		.loc 1 196 19 is_stmt 1 view .LVU262
 1080              		.loc 1 196 20 is_stmt 0 view .LVU263
 1081 0424 2846     		mov	r0, r5
 1082 0426 FFF7FEFF 		bl	e_getchar_uart2
 1083              	.LVL43:
 1084              		.loc 1 196 19 view .LVU264
 1085 042a 0646     		mov	r6, r0
 1086 042c 0028     		cmp	r0, #0
 1087 042e 7FF4AEAE 		bne	.L26
 1088              		.loc 1 199 17 is_stmt 1 view .LVU265
 1089              		.loc 1 199 27 is_stmt 0 view .LVU266
 1090 0432 FFF7FEFF 		bl	e_get_data
 1091              	.LVL44:
 1092 0436 0446     		mov	r4, r0
 1093              	.LVL45:
 1094              		.loc 1 200 17 is_stmt 1 view .LVU267
 1095              		.loc 1 200 30 is_stmt 0 view .LVU268
 1096 0438 FFF7FEFF 		bl	e_get_address
 1097              	.LVL46:
 1098              		.loc 1 201 17 is_stmt 1 view .LVU269
 1099              		.loc 1 201 20 is_stmt 0 view .LVU270
 1100 043c 10F0F70F 		tst	r0, #247
 1101 0440 F0D1     		bne	.L9
 1102              		.loc 1 201 62 discriminator 3 view .LVU271
 1103 0442 A345     		cmp	fp, r4
 1104 0444 EED0     		beq	.L9
 1105              		.loc 1 202 21 is_stmt 1 view .LVU272
 1106 0446 092C     		cmp	r4, #9
 1107 0448 01F20F86 		bhi	.L28
 1108 044c DFE804F0 		tbb	[pc, r4]
 1109              	.L30:
 1110 0450 48       		.byte	(.L39-.L30)/2
 1111 0451 3F       		.byte	(.L38-.L30)/2
 1112 0452 38       		.byte	(.L37-.L30)/2
 1113 0453 2F       		.byte	(.L36-.L30)/2
 1114 0454 2C       		.byte	(.L35-.L30)/2
 1115 0455 26       		.byte	(.L34-.L30)/2
 1116 0456 23       		.byte	(.L33-.L30)/2
 1117 0457 1C       		.byte	(.L32-.L30)/2
 1118 0458 15       		.byte	(.L31-.L30)/2
 1119 0459 05       		.byte	(.L29-.L30)/2
 1120              		.p2align 1
 1121              	.L29:
 1122              		.loc 1 236 29 view .LVU273
 1123              		.loc 1 236 36 is_stmt 0 view .LVU274
 1124 045a 504B     		ldr	r3, .L683+12
 1125              	.L651:
 1126              		.loc 1 237 36 view .LVU275
 1127 045c 4E4A     		ldr	r2, .L683+8
 1128 045e 4D49     		ldr	r1, .L683+4
 1129 0460 1160     		str	r1, [r2]
ARM GAS  /tmp/ccucPY5I.s 			page 26


 1130              		.loc 1 236 36 view .LVU276
 1131 0462 4B4A     		ldr	r2, .L683
 1132              		.loc 1 238 29 view .LVU277
 1133 0464 0E46     		mov	r6, r1
 1134              		.loc 1 236 36 view .LVU278
 1135 0466 1360     		str	r3, [r2]
 1136              		.loc 1 237 29 is_stmt 1 view .LVU279
 1137              		.loc 1 238 29 view .LVU280
 1138              	.LVL47:
 1139              	.L40:
 1140              		.loc 1 249 21 view .LVU281
 1141              		.loc 1 250 21 view .LVU282
 1142 0468 3046     		mov	r0, r6
 1143 046a FFF7FEFF 		bl	e_set_speed_left
 1144              	.LVL48:
 1145              		.loc 1 251 21 view .LVU283
 1146 046e 484B     		ldr	r3, .L683
 1147 0470 1868     		ldr	r0, [r3]
 1148 0472 FFF7FEFF 		bl	e_set_speed_right
 1149              	.LVL49:
 1150 0476 A346     		mov	fp, r4
 1151 0478 D4E7     		b	.L9
 1152              	.LVL50:
 1153              	.L31:
 1154              		.loc 1 232 29 view .LVU284
 1155              		.loc 1 232 36 is_stmt 0 view .LVU285
 1156 047a 454A     		ldr	r2, .L683
 1157 047c 454B     		ldr	r3, .L683+4
 1158 047e 1360     		str	r3, [r2]
 1159              		.loc 1 233 29 is_stmt 1 view .LVU286
 1160              		.loc 1 233 36 is_stmt 0 view .LVU287
 1161 0480 454A     		ldr	r2, .L683+8
 1162              		.loc 1 234 29 view .LVU288
 1163 0482 1E46     		mov	r6, r3
 1164              		.loc 1 233 36 view .LVU289
 1165 0484 1360     		str	r3, [r2]
 1166              		.loc 1 234 29 is_stmt 1 view .LVU290
 1167 0486 EFE7     		b	.L40
 1168              	.L32:
 1169              		.loc 1 228 29 view .LVU291
 1170              		.loc 1 229 36 is_stmt 0 view .LVU292
 1171 0488 444E     		ldr	r6, .L683+12
 1172              	.L652:
 1173              		.loc 1 228 36 view .LVU293
 1174 048a 414B     		ldr	r3, .L683
 1175 048c 414A     		ldr	r2, .L683+4
 1176 048e 1A60     		str	r2, [r3]
 1177              		.loc 1 229 29 is_stmt 1 view .LVU294
 1178              		.loc 1 229 36 is_stmt 0 view .LVU295
 1179 0490 414B     		ldr	r3, .L683+8
 1180 0492 1E60     		str	r6, [r3]
 1181              		.loc 1 230 29 is_stmt 1 view .LVU296
 1182 0494 E8E7     		b	.L40
 1183              	.L33:
 1184              		.loc 1 224 29 view .LVU297
 1185              		.loc 1 225 36 is_stmt 0 view .LVU298
 1186 0496 4FF41676 		mov	r6, #600
ARM GAS  /tmp/ccucPY5I.s 			page 27


 1187 049a F6E7     		b	.L652
 1188              	.L34:
 1189              		.loc 1 220 29 is_stmt 1 view .LVU299
 1190              		.loc 1 220 36 is_stmt 0 view .LVU300
 1191 049c 3C4A     		ldr	r2, .L683
 1192 049e 0023     		movs	r3, #0
 1193 04a0 1360     		str	r3, [r2]
 1194              		.loc 1 221 29 is_stmt 1 view .LVU301
 1195              		.loc 1 221 36 is_stmt 0 view .LVU302
 1196 04a2 3D4A     		ldr	r2, .L683+8
 1197 04a4 1360     		str	r3, [r2]
 1198              		.loc 1 222 29 is_stmt 1 view .LVU303
 1199 04a6 DFE7     		b	.L40
 1200              	.L35:
 1201              		.loc 1 216 29 view .LVU304
 1202              		.loc 1 216 36 is_stmt 0 view .LVU305
 1203 04a8 4FF41673 		mov	r3, #600
 1204 04ac D6E7     		b	.L651
 1205              	.L36:
 1206              		.loc 1 212 29 is_stmt 1 view .LVU306
 1207              		.loc 1 212 36 is_stmt 0 view .LVU307
 1208 04ae 384A     		ldr	r2, .L683
 1209 04b0 4FF49673 		mov	r3, #300
 1210 04b4 1360     		str	r3, [r2]
 1211              		.loc 1 213 29 is_stmt 1 view .LVU308
 1212              		.loc 1 213 36 is_stmt 0 view .LVU309
 1213 04b6 384B     		ldr	r3, .L683+8
 1214 04b8 4FF41676 		mov	r6, #600
 1215 04bc 1E60     		str	r6, [r3]
 1216              		.loc 1 214 29 is_stmt 1 view .LVU310
 1217 04be D3E7     		b	.L40
 1218              	.L37:
 1219              		.loc 1 208 29 view .LVU311
 1220              		.loc 1 208 36 is_stmt 0 view .LVU312
 1221 04c0 334B     		ldr	r3, .L683
 1222 04c2 4FF41676 		mov	r6, #600
 1223 04c6 1E60     		str	r6, [r3]
 1224              		.loc 1 209 29 is_stmt 1 view .LVU313
 1225              		.loc 1 209 36 is_stmt 0 view .LVU314
 1226 04c8 334B     		ldr	r3, .L683+8
 1227 04ca 1E60     		str	r6, [r3]
 1228              		.loc 1 210 29 is_stmt 1 view .LVU315
 1229 04cc CCE7     		b	.L40
 1230              	.L38:
 1231              		.loc 1 204 29 view .LVU316
 1232              		.loc 1 204 36 is_stmt 0 view .LVU317
 1233 04ce 304A     		ldr	r2, .L683
 1234 04d0 4FF41673 		mov	r3, #600
 1235 04d4 1360     		str	r3, [r2]
 1236              		.loc 1 205 29 is_stmt 1 view .LVU318
 1237              		.loc 1 205 36 is_stmt 0 view .LVU319
 1238 04d6 304B     		ldr	r3, .L683+8
 1239 04d8 4FF49676 		mov	r6, #300
 1240 04dc 1E60     		str	r6, [r3]
 1241              		.loc 1 206 29 is_stmt 1 view .LVU320
 1242 04de C3E7     		b	.L40
 1243              	.L39:
ARM GAS  /tmp/ccucPY5I.s 			page 28


 1244              		.loc 1 240 29 view .LVU321
 1245              		.loc 1 240 32 is_stmt 0 view .LVU322
 1246 04e0 2F4B     		ldr	r3, .L683+16
 1247 04e2 1B78     		ldrb	r3, [r3]	@ zero_extendqisi2
 1248 04e4 002B     		cmp	r3, #0
 1249 04e6 01F09582 		beq	.L667
 1250              	.LVL51:
 1251              	.L41:
 1252              		.loc 1 244 29 is_stmt 1 view .LVU323
 1253 04ea 41F65071 		movw	r1, #8016
 1254 04ee 42F61430 		movw	r0, #11028
 1255 04f2 FFF7FEFF 		bl	e_play_sound
 1256              	.LVL52:
 1257              		.loc 1 245 29 view .LVU324
 1258 04f6 284B     		ldr	r3, .L683+8
 1259 04f8 1E68     		ldr	r6, [r3]
 1260 04fa B5E7     		b	.L40
 1261              	.LVL53:
 1262              	.L662:
 1263              		.loc 1 260 13 view .LVU325
 1264              		.loc 1 260 15 is_stmt 0 view .LVU326
 1265 04fc 0022     		movs	r2, #0
 1266 04fe CDF828B0 		str	fp, [sp, #40]
 1267              		.loc 1 577 28 view .LVU327
 1268 0502 284E     		ldr	r6, .L683+20
 1269              		.loc 1 538 36 view .LVU328
 1270 0504 DFED288A 		vldr.32	s17, .L683+24	@ int
 1271              		.loc 1 295 55 view .LVU329
 1272 0508 9FED288A 		vldr.32	s16, .L683+28
 1273              		.loc 1 260 15 view .LVU330
 1274 050c DDF824B0 		ldr	fp, [sp, #36]
 1275              	.LVL54:
 1276              		.loc 1 260 15 view .LVU331
 1277 0510 CAF80020 		str	r2, [r10]
 1278              	.L131:
 1279              		.loc 1 261 13 is_stmt 1 view .LVU332
 1280              		.loc 1 262 17 view .LVU333
 1281              		.loc 1 262 25 is_stmt 0 view .LVU334
 1282 0514 5B42     		rsbs	r3, r3, #0
 1283 0516 DBB2     		uxtb	r3, r3
 1284 0518 413B     		subs	r3, r3, #65
 1285 051a 362B     		cmp	r3, #54
 1286 051c 7ED8     		bhi	.L44
 1287 051e DFE813F0 		tbh	[pc, r3, lsl #1]
 1288              	.L46:
 1289 0522 D002     		.2byte	(.L62-.L46)/2
 1290 0524 7D00     		.2byte	(.L44-.L46)/2
 1291 0526 7D00     		.2byte	(.L44-.L46)/2
 1292 0528 C101     		.2byte	(.L61-.L46)/2
 1293 052a 2902     		.2byte	(.L60-.L46)/2
 1294 052c 7D00     		.2byte	(.L44-.L46)/2
 1295 052e 7D00     		.2byte	(.L44-.L46)/2
 1296 0530 7D00     		.2byte	(.L44-.L46)/2
 1297 0532 9101     		.2byte	(.L59-.L46)/2
 1298 0534 7D00     		.2byte	(.L44-.L46)/2
 1299 0536 7D00     		.2byte	(.L44-.L46)/2
 1300 0538 5E01     		.2byte	(.L58-.L46)/2
ARM GAS  /tmp/ccucPY5I.s 			page 29


 1301 053a 1201     		.2byte	(.L57-.L46)/2
 1302 053c F400     		.2byte	(.L56-.L46)/2
 1303 053e D600     		.2byte	(.L55-.L46)/2
 1304 0540 4C02     		.2byte	(.L54-.L46)/2
 1305 0542 3C02     		.2byte	(.L53-.L46)/2
 1306 0544 7D00     		.2byte	(.L44-.L46)/2
 1307 0546 7D00     		.2byte	(.L44-.L46)/2
 1308 0548 7D00     		.2byte	(.L44-.L46)/2
 1309 054a 7D00     		.2byte	(.L44-.L46)/2
 1310 054c 7D00     		.2byte	(.L44-.L46)/2
 1311 054e A002     		.2byte	(.L52-.L46)/2
 1312 0550 7D00     		.2byte	(.L44-.L46)/2
 1313 0552 7D00     		.2byte	(.L44-.L46)/2
 1314 0554 7D00     		.2byte	(.L44-.L46)/2
 1315 0556 7D00     		.2byte	(.L44-.L46)/2
 1316 0558 7D00     		.2byte	(.L44-.L46)/2
 1317 055a 7D00     		.2byte	(.L44-.L46)/2
 1318 055c 7D00     		.2byte	(.L44-.L46)/2
 1319 055e 7D00     		.2byte	(.L44-.L46)/2
 1320 0560 7D00     		.2byte	(.L44-.L46)/2
 1321 0562 4700     		.2byte	(.L51-.L46)/2
 1322 0564 0B03     		.2byte	(.L50-.L46)/2
 1323 0566 7D00     		.2byte	(.L44-.L46)/2
 1324 0568 7D00     		.2byte	(.L44-.L46)/2
 1325 056a 7D00     		.2byte	(.L44-.L46)/2
 1326 056c 7D00     		.2byte	(.L44-.L46)/2
 1327 056e 1502     		.2byte	(.L49-.L46)/2
 1328 0570 7D00     		.2byte	(.L44-.L46)/2
 1329 0572 7D00     		.2byte	(.L44-.L46)/2
 1330 0574 7D00     		.2byte	(.L44-.L46)/2
 1331 0576 7D00     		.2byte	(.L44-.L46)/2
 1332 0578 7D00     		.2byte	(.L44-.L46)/2
 1333 057a 7D00     		.2byte	(.L44-.L46)/2
 1334 057c 7D00     		.2byte	(.L44-.L46)/2
 1335 057e 7D00     		.2byte	(.L44-.L46)/2
 1336 0580 7D00     		.2byte	(.L44-.L46)/2
 1337 0582 7D00     		.2byte	(.L44-.L46)/2
 1338 0584 7D00     		.2byte	(.L44-.L46)/2
 1339 0586 7D00     		.2byte	(.L44-.L46)/2
 1340 0588 C302     		.2byte	(.L48-.L46)/2
 1341 058a AB00     		.2byte	(.L47-.L46)/2
 1342 058c 7D00     		.2byte	(.L44-.L46)/2
 1343 058e 9C00     		.2byte	(.L45-.L46)/2
 1344              		.p2align 1
 1345              	.L684:
 1346              		.align	2
 1347              	.L683:
 1348 0590 00000000 		.word	.LANCHOR7
 1349 0594 A8FDFFFF 		.word	-600
 1350 0598 00000000 		.word	.LANCHOR8
 1351 059c D4FEFFFF 		.word	-300
 1352 05a0 00000000 		.word	.LANCHOR9
 1353 05a4 00000000 		.word	.LANCHOR10
 1354 05a8 00000000 		.word	.LANCHOR25
 1355 05ac 00000000 		.word	0
 1356              	.L51:
 1357              		.loc 1 264 25 is_stmt 1 view .LVU335
ARM GAS  /tmp/ccucPY5I.s 			page 30


 1358              		.loc 1 264 27 is_stmt 0 view .LVU336
 1359 05b0 BBF1000F 		cmp	fp, #0
 1360 05b4 01F08081 		beq	.L63
 1361              		.loc 1 265 29 is_stmt 1 view .LVU337
 1362              		.loc 1 265 36 is_stmt 0 view .LVU338
 1363 05b8 0121     		movs	r1, #1
 1364 05ba 0020     		movs	r0, #0
 1365              	.L653:
 1366              		.loc 1 277 40 view .LVU339
 1367 05bc FFF7FEFF 		bl	e_get_acc_filtered
 1368              	.LVL55:
 1369              		.loc 1 277 38 view .LVU340
 1370 05c0 B14C     		ldr	r4, .L685
 1371              		.loc 1 278 38 view .LVU341
 1372 05c2 B24D     		ldr	r5, .L685+4
 1373              		.loc 1 278 40 view .LVU342
 1374 05c4 0121     		movs	r1, #1
 1375              		.loc 1 277 40 view .LVU343
 1376 05c6 0346     		mov	r3, r0
 1377              		.loc 1 278 40 view .LVU344
 1378 05c8 0846     		mov	r0, r1
 1379              		.loc 1 277 38 view .LVU345
 1380 05ca 2360     		str	r3, [r4]
 1381              		.loc 1 278 33 is_stmt 1 view .LVU346
 1382              		.loc 1 278 40 is_stmt 0 view .LVU347
 1383 05cc FFF7FEFF 		bl	e_get_acc_filtered
 1384              	.LVL56:
 1385              		.loc 1 279 40 view .LVU348
 1386 05d0 0121     		movs	r1, #1
 1387              		.loc 1 278 40 view .LVU349
 1388 05d2 0346     		mov	r3, r0
 1389              		.loc 1 279 40 view .LVU350
 1390 05d4 0220     		movs	r0, #2
 1391              		.loc 1 278 38 view .LVU351
 1392 05d6 2B60     		str	r3, [r5]
 1393              		.loc 1 279 33 is_stmt 1 view .LVU352
 1394              		.loc 1 279 40 is_stmt 0 view .LVU353
 1395 05d8 FFF7FEFF 		bl	e_get_acc_filtered
 1396              	.LVL57:
 1397 05dc 2468     		ldr	r4, [r4]
 1398              		.loc 1 279 38 view .LVU354
 1399 05de AC4A     		ldr	r2, .L685+8
 1400 05e0 2B68     		ldr	r3, [r5]
 1401 05e2 1060     		str	r0, [r2]
 1402 05e4 E2B2     		uxtb	r2, r4
 1403 05e6 5FFA80FC 		uxtb	ip, r0
 1404 05ea C0F30721 		ubfx	r1, r0, #8, #8
 1405 05ee 1546     		mov	r5, r2
 1406 05f0 C4F30724 		ubfx	r4, r4, #8, #8
 1407 05f4 5FFA83FE 		uxtb	lr, r3
 1408 05f8 C3F30720 		ubfx	r0, r3, #8, #8
 1409              	.L64:
 1410              		.loc 1 282 25 is_stmt 1 view .LVU355
 1411              		.loc 1 282 33 is_stmt 0 view .LVU356
 1412 05fc DAF80030 		ldr	r3, [r10]
 1413              		.loc 1 283 37 view .LVU357
 1414 0600 09EB0302 		add	r2, r9, r3
ARM GAS  /tmp/ccucPY5I.s 			page 31


 1415              		.loc 1 282 37 view .LVU358
 1416 0604 09F80350 		strb	r5, [r9, r3]
 1417              		.loc 1 283 25 is_stmt 1 view .LVU359
 1418              		.loc 1 287 33 is_stmt 0 view .LVU360
 1419 0608 0633     		adds	r3, r3, #6
 1420              		.loc 1 283 37 view .LVU361
 1421 060a 5470     		strb	r4, [r2, #1]
 1422              		.loc 1 284 25 is_stmt 1 view .LVU362
 1423              		.loc 1 284 37 is_stmt 0 view .LVU363
 1424 060c 82F802E0 		strb	lr, [r2, #2]
 1425              		.loc 1 285 25 is_stmt 1 view .LVU364
 1426              		.loc 1 285 37 is_stmt 0 view .LVU365
 1427 0610 D070     		strb	r0, [r2, #3]
 1428              		.loc 1 286 25 is_stmt 1 view .LVU366
 1429              		.loc 1 286 37 is_stmt 0 view .LVU367
 1430 0612 82F804C0 		strb	ip, [r2, #4]
 1431              		.loc 1 287 25 is_stmt 1 view .LVU368
 1432              		.loc 1 287 37 is_stmt 0 view .LVU369
 1433 0616 5171     		strb	r1, [r2, #5]
 1434              		.loc 1 288 25 is_stmt 1 view .LVU370
 1435              		.loc 1 287 33 is_stmt 0 view .LVU371
 1436 0618 CAF80030 		str	r3, [r10]
 1437              	.L44:
 1438              		.loc 1 574 17 is_stmt 1 view .LVU372
 1439              		.loc 1 574 20 is_stmt 0 view .LVU373
 1440 061c BBF1000F 		cmp	fp, #0
 1441 0620 1FD0     		beq	.L133
 1442              	.L130:
 1443              		.loc 1 575 53 is_stmt 1 discriminator 1 view .LVU374
 1444              		.loc 1 575 27 discriminator 1 view .LVU375
 1445              		.loc 1 575 28 is_stmt 0 discriminator 1 view .LVU376
 1446 0622 3046     		mov	r0, r6
 1447 0624 FFF7FEFF 		bl	e_getchar_uart1
 1448              	.LVL58:
 1449              		.loc 1 575 27 discriminator 1 view .LVU377
 1450 0628 0028     		cmp	r0, #0
 1451 062a FAD0     		beq	.L130
 1452              	.L134:
 1453              		.loc 1 579 21 is_stmt 1 view .LVU378
 1454              		.loc 1 579 22 is_stmt 0 view .LVU379
 1455 062c 3B78     		ldrb	r3, [r7]	@ zero_extendqisi2
 1456              		.loc 1 579 13 view .LVU380
 1457 062e 002B     		cmp	r3, #0
 1458 0630 7FF470AF 		bne	.L131
 1459              		.loc 1 580 13 is_stmt 1 view .LVU381
 1460              		.loc 1 580 19 is_stmt 0 view .LVU382
 1461 0634 DAF80010 		ldr	r1, [r10]
 1462 0638 DDF828B0 		ldr	fp, [sp, #40]
 1463              		.loc 1 580 16 view .LVU383
 1464 063c 0029     		cmp	r1, #0
 1465 063e 3FF46EAD 		beq	.L4
 1466              		.loc 1 581 17 is_stmt 1 view .LVU384
 1467              		.loc 1 581 20 is_stmt 0 view .LVU385
 1468 0642 099A     		ldr	r2, [sp, #36]
 1469 0644 002A     		cmp	r2, #0
 1470 0646 41F08F81 		bne	.L668
 1471              		.loc 1 589 17 is_stmt 1 view .LVU386
ARM GAS  /tmp/ccucPY5I.s 			page 32


 1472              		.loc 1 593 21 view .LVU387
 1473 064a 9248     		ldr	r0, .L685+12
 1474 064c FFF7FEFF 		bl	e_send_uart2_char
 1475              	.LVL59:
 1476              		.loc 1 594 21 view .LVU388
 1477              	.L140:
 1478              		.loc 1 594 46 discriminator 1 view .LVU389
 1479              		.loc 1 594 27 discriminator 1 view .LVU390
 1480              		.loc 1 594 28 is_stmt 0 discriminator 1 view .LVU391
 1481 0650 FFF7FEFF 		bl	e_uart2_sending
 1482              	.LVL60:
 1483              		.loc 1 594 27 discriminator 1 view .LVU392
 1484 0654 0028     		cmp	r0, #0
 1485 0656 FBD1     		bne	.L140
 1486 0658 E3E6     		b	.L623
 1487              	.L45:
 1488              		.loc 1 547 25 is_stmt 1 view .LVU393
 1489              		.loc 1 547 28 is_stmt 0 view .LVU394
 1490 065a BBF1000F 		cmp	fp, #0
 1491 065e 40F07B82 		bne	.L669
 1492              	.L133:
 1493              		.loc 1 577 53 is_stmt 1 discriminator 1 view .LVU395
 1494              		.loc 1 577 27 discriminator 1 view .LVU396
 1495              		.loc 1 577 28 is_stmt 0 discriminator 1 view .LVU397
 1496 0662 3046     		mov	r0, r6
 1497 0664 FFF7FEFF 		bl	e_getchar_uart2
 1498              	.LVL61:
 1499              		.loc 1 577 27 discriminator 1 view .LVU398
 1500 0668 0028     		cmp	r0, #0
 1501 066a DFD1     		bne	.L134
 1502              	.L659:
 1503              		.loc 1 577 53 is_stmt 1 view .LVU399
 1504              		.loc 1 577 27 view .LVU400
 1505              		.loc 1 577 28 is_stmt 0 view .LVU401
 1506 066c 3046     		mov	r0, r6
 1507 066e FFF7FEFF 		bl	e_getchar_uart2
 1508              	.LVL62:
 1509              		.loc 1 577 27 view .LVU402
 1510 0672 0028     		cmp	r0, #0
 1511 0674 F5D0     		beq	.L133
 1512 0676 D9E7     		b	.L134
 1513              	.L47:
 1514              		.loc 1 514 25 is_stmt 1 view .LVU403
 1515              		.loc 1 514 29 is_stmt 0 view .LVU404
 1516 0678 0020     		movs	r0, #0
 1517 067a FFF7FEFF 		bl	e_get_micro_volume
 1518              	.LVL63:
 1519              		.loc 1 515 33 view .LVU405
 1520 067e DAF80030 		ldr	r3, [r10]
 1521              		.loc 1 515 25 is_stmt 1 view .LVU406
 1522              		.loc 1 516 37 is_stmt 0 view .LVU407
 1523 0682 09EB0302 		add	r2, r9, r3
 1524              		.loc 1 515 37 view .LVU408
 1525 0686 09F80300 		strb	r0, [r9, r3]
 1526              		.loc 1 516 25 is_stmt 1 view .LVU409
 1527              		.loc 1 516 41 is_stmt 0 view .LVU410
 1528 068a 0112     		asrs	r1, r0, #8
ARM GAS  /tmp/ccucPY5I.s 			page 33


 1529              		.loc 1 516 33 view .LVU411
 1530 068c 0233     		adds	r3, r3, #2
 1531              		.loc 1 518 29 view .LVU412
 1532 068e 0120     		movs	r0, #1
 1533              		.loc 1 516 37 view .LVU413
 1534 0690 5170     		strb	r1, [r2, #1]
 1535              		.loc 1 518 25 is_stmt 1 view .LVU414
 1536              		.loc 1 516 33 is_stmt 0 view .LVU415
 1537 0692 CAF80030 		str	r3, [r10]
 1538              		.loc 1 518 29 view .LVU416
 1539 0696 FFF7FEFF 		bl	e_get_micro_volume
 1540              	.LVL64:
 1541              		.loc 1 519 33 view .LVU417
 1542 069a DAF80030 		ldr	r3, [r10]
 1543              		.loc 1 519 25 is_stmt 1 view .LVU418
 1544              		.loc 1 520 37 is_stmt 0 view .LVU419
 1545 069e 09EB0302 		add	r2, r9, r3
 1546              		.loc 1 519 37 view .LVU420
 1547 06a2 09F80300 		strb	r0, [r9, r3]
 1548              		.loc 1 520 25 is_stmt 1 view .LVU421
 1549              		.loc 1 520 41 is_stmt 0 view .LVU422
 1550 06a6 0112     		asrs	r1, r0, #8
 1551              		.loc 1 520 33 view .LVU423
 1552 06a8 0233     		adds	r3, r3, #2
 1553              		.loc 1 522 29 view .LVU424
 1554 06aa 0220     		movs	r0, #2
 1555              		.loc 1 520 37 view .LVU425
 1556 06ac 5170     		strb	r1, [r2, #1]
 1557              		.loc 1 522 25 is_stmt 1 view .LVU426
 1558              		.loc 1 520 33 is_stmt 0 view .LVU427
 1559 06ae CAF80030 		str	r3, [r10]
 1560              		.loc 1 522 29 view .LVU428
 1561 06b2 FFF7FEFF 		bl	e_get_micro_volume
 1562              	.LVL65:
 1563              	.L654:
 1564              		.loc 1 523 33 view .LVU429
 1565 06b6 DAF80030 		ldr	r3, [r10]
 1566              		.loc 1 523 25 is_stmt 1 view .LVU430
 1567              		.loc 1 524 37 is_stmt 0 view .LVU431
 1568 06ba 09EB0302 		add	r2, r9, r3
 1569              		.loc 1 523 37 view .LVU432
 1570 06be 09F80300 		strb	r0, [r9, r3]
 1571              		.loc 1 524 25 is_stmt 1 view .LVU433
 1572              		.loc 1 524 41 is_stmt 0 view .LVU434
 1573 06c2 0112     		asrs	r1, r0, #8
 1574              		.loc 1 524 33 view .LVU435
 1575 06c4 0233     		adds	r3, r3, #2
 1576              		.loc 1 524 37 view .LVU436
 1577 06c6 5170     		strb	r1, [r2, #1]
 1578              		.loc 1 525 25 is_stmt 1 view .LVU437
 1579              		.loc 1 524 33 is_stmt 0 view .LVU438
 1580 06c8 CAF80030 		str	r3, [r10]
 1581              		.loc 1 525 25 view .LVU439
 1582 06cc A6E7     		b	.L44
 1583              	.L55:
 1584              		.loc 1 460 25 is_stmt 1 view .LVU440
 1585              		.loc 1 460 28 is_stmt 0 view .LVU441
ARM GAS  /tmp/ccucPY5I.s 			page 34


 1586 06ce BBF1000F 		cmp	fp, #0
 1587 06d2 01F02881 		beq	.L99
 1588              		.loc 1 461 29 is_stmt 1 view .LVU442
 1589              		.loc 1 461 36 is_stmt 0 view .LVU443
 1590 06d6 0020     		movs	r0, #0
 1591 06d8 C8F80000 		str	r0, [r8]
 1592              		.loc 1 461 41 is_stmt 1 view .LVU444
 1593              	.L100:
 1594              		.loc 1 463 33 discriminator 3 view .LVU445
 1595              		.loc 1 463 37 is_stmt 0 discriminator 3 view .LVU446
 1596 06dc FFF7FEFF 		bl	e_get_ambient_light
 1597              	.LVL66:
 1598              		.loc 1 464 41 discriminator 3 view .LVU447
 1599 06e0 DAF80020 		ldr	r2, [r10]
 1600              		.loc 1 461 49 discriminator 3 view .LVU448
 1601 06e4 D8F80030 		ldr	r3, [r8]
 1602              		.loc 1 463 37 discriminator 3 view .LVU449
 1603 06e8 0146     		mov	r1, r0
 1604              		.loc 1 464 33 is_stmt 1 discriminator 3 view .LVU450
 1605              		.loc 1 465 49 is_stmt 0 discriminator 3 view .LVU451
 1606 06ea 0412     		asrs	r4, r0, #8
 1607              		.loc 1 461 49 discriminator 3 view .LVU452
 1608 06ec 581C     		adds	r0, r3, #1
 1609              		.loc 1 465 45 discriminator 3 view .LVU453
 1610 06ee 09EB0203 		add	r3, r9, r2
 1611              		.loc 1 464 45 discriminator 3 view .LVU454
 1612 06f2 09F80210 		strb	r1, [r9, r2]
 1613              		.loc 1 465 33 is_stmt 1 discriminator 3 view .LVU455
 1614              		.loc 1 461 29 is_stmt 0 discriminator 3 view .LVU456
 1615 06f6 0728     		cmp	r0, #7
 1616              		.loc 1 465 41 discriminator 3 view .LVU457
 1617 06f8 02F10202 		add	r2, r2, #2
 1618              		.loc 1 465 45 discriminator 3 view .LVU458
 1619 06fc 5C70     		strb	r4, [r3, #1]
 1620              		.loc 1 461 48 is_stmt 1 discriminator 3 view .LVU459
 1621              		.loc 1 465 41 is_stmt 0 discriminator 3 view .LVU460
 1622 06fe CAF80020 		str	r2, [r10]
 1623              		.loc 1 461 49 discriminator 3 view .LVU461
 1624 0702 C8F80000 		str	r0, [r8]
 1625              		.loc 1 461 41 is_stmt 1 discriminator 3 view .LVU462
 1626              		.loc 1 461 29 is_stmt 0 discriminator 3 view .LVU463
 1627 0706 E9DD     		ble	.L100
 1628 0708 8BE7     		b	.L130
 1629              	.L56:
 1630              		.loc 1 445 25 is_stmt 1 view .LVU464
 1631              		.loc 1 445 28 is_stmt 0 view .LVU465
 1632 070a BBF1000F 		cmp	fp, #0
 1633 070e 01F0E980 		beq	.L96
 1634              		.loc 1 446 29 is_stmt 1 view .LVU466
 1635              		.loc 1 446 36 is_stmt 0 view .LVU467
 1636 0712 0020     		movs	r0, #0
 1637 0714 C8F80000 		str	r0, [r8]
 1638              		.loc 1 446 41 is_stmt 1 view .LVU468
 1639              	.L97:
 1640              		.loc 1 447 33 discriminator 3 view .LVU469
 1641              		.loc 1 447 37 is_stmt 0 discriminator 3 view .LVU470
 1642 0718 FFF7FEFF 		bl	e_get_calibrated_prox
ARM GAS  /tmp/ccucPY5I.s 			page 35


 1643              	.LVL67:
 1644              		.loc 1 448 41 discriminator 3 view .LVU471
 1645 071c DAF80020 		ldr	r2, [r10]
 1646              		.loc 1 446 49 discriminator 3 view .LVU472
 1647 0720 D8F80030 		ldr	r3, [r8]
 1648              		.loc 1 447 37 discriminator 3 view .LVU473
 1649 0724 0146     		mov	r1, r0
 1650              		.loc 1 448 33 is_stmt 1 discriminator 3 view .LVU474
 1651              		.loc 1 449 49 is_stmt 0 discriminator 3 view .LVU475
 1652 0726 0412     		asrs	r4, r0, #8
 1653              		.loc 1 446 49 discriminator 3 view .LVU476
 1654 0728 581C     		adds	r0, r3, #1
 1655              		.loc 1 449 45 discriminator 3 view .LVU477
 1656 072a 09EB0203 		add	r3, r9, r2
 1657              		.loc 1 448 45 discriminator 3 view .LVU478
 1658 072e 09F80210 		strb	r1, [r9, r2]
 1659              		.loc 1 449 33 is_stmt 1 discriminator 3 view .LVU479
 1660              		.loc 1 446 29 is_stmt 0 discriminator 3 view .LVU480
 1661 0732 0728     		cmp	r0, #7
 1662              		.loc 1 449 41 discriminator 3 view .LVU481
 1663 0734 02F10202 		add	r2, r2, #2
 1664              		.loc 1 449 45 discriminator 3 view .LVU482
 1665 0738 5C70     		strb	r4, [r3, #1]
 1666              		.loc 1 446 48 is_stmt 1 discriminator 3 view .LVU483
 1667              		.loc 1 449 41 is_stmt 0 discriminator 3 view .LVU484
 1668 073a CAF80020 		str	r2, [r10]
 1669              		.loc 1 446 49 discriminator 3 view .LVU485
 1670 073e C8F80000 		str	r0, [r8]
 1671              		.loc 1 446 41 is_stmt 1 discriminator 3 view .LVU486
 1672              		.loc 1 446 29 is_stmt 0 discriminator 3 view .LVU487
 1673 0742 E9DD     		ble	.L97
 1674 0744 6DE7     		b	.L130
 1675              	.L57:
 1676              		.loc 1 424 25 is_stmt 1 view .LVU488
 1677              		.loc 1 424 28 is_stmt 0 view .LVU489
 1678 0746 BBF1000F 		cmp	fp, #0
 1679 074a 8AD0     		beq	.L133
 1680              		.loc 1 425 29 is_stmt 1 view .LVU490
 1681 074c FFF7FEFF 		bl	e_i2cp_init
 1682              	.LVL68:
 1683              		.loc 1 426 29 view .LVU491
 1684 0750 FFF7FEFF 		bl	e_i2cp_enable
 1685              	.LVL69:
 1686              		.loc 1 427 29 view .LVU492
 1687 0754 0021     		movs	r1, #0
 1688 0756 C020     		movs	r0, #192
 1689 0758 FFF7FEFF 		bl	e_i2cp_read
 1690              	.LVL70:
 1691              		.loc 1 428 29 view .LVU493
 1692              		.loc 1 428 36 is_stmt 0 view .LVU494
 1693 075c 0023     		movs	r3, #0
 1694 075e C8F80030 		str	r3, [r8]
 1695              		.loc 1 428 41 is_stmt 1 view .LVU495
 1696              	.L92:
 1697              		.loc 1 429 33 view .LVU496
 1698              		.loc 1 429 49 view .LVU497
 1699              		.loc 1 430 38 view .LVU498
ARM GAS  /tmp/ccucPY5I.s 			page 36


 1700              		.loc 1 429 57 is_stmt 0 view .LVU499
 1701 0762 DAF80040 		ldr	r4, [r10]
 1702              		.loc 1 429 63 view .LVU500
 1703 0766 591C     		adds	r1, r3, #1
 1704              		.loc 1 430 52 view .LVU501
 1705 0768 5A1E     		subs	r2, r3, #1
 1706              		.loc 1 429 36 view .LVU502
 1707 076a DB07     		lsls	r3, r3, #31
 1708              		.loc 1 429 57 view .LVU503
 1709 076c 54BF     		ite	pl
 1710 076e 631C     		addpl	r3, r4, #1
 1711              		.loc 1 430 46 view .LVU504
 1712 0770 631C     		addmi	r3, r4, #1
 1713              		.loc 1 429 63 view .LVU505
 1714 0772 C9B2     		uxtb	r1, r1
 1715 0774 4FF0C000 		mov	r0, #192
 1716              		.loc 1 430 52 view .LVU506
 1717 0778 44BF     		itt	mi
 1718 077a D1B2     		uxtbmi	r1, r2
 1719 077c C020     		movmi	r0, #192
 1720              		.loc 1 430 46 view .LVU507
 1721 077e CAF80030 		str	r3, [r10]
 1722              		.loc 1 430 52 view .LVU508
 1723 0782 FFF7FEFF 		bl	e_i2cp_read
 1724              	.LVL71:
 1725              		.loc 1 428 49 view .LVU509
 1726 0786 D8F80030 		ldr	r3, [r8]
 1727              		.loc 1 430 50 view .LVU510
 1728 078a 09F80400 		strb	r0, [r9, r4]
 1729              		.loc 1 428 48 is_stmt 1 view .LVU511
 1730              		.loc 1 428 49 is_stmt 0 view .LVU512
 1731 078e 0133     		adds	r3, r3, #1
 1732              		.loc 1 428 29 view .LVU513
 1733 0790 052B     		cmp	r3, #5
 1734              		.loc 1 428 49 view .LVU514
 1735 0792 C8F80030 		str	r3, [r8]
 1736              		.loc 1 428 41 is_stmt 1 view .LVU515
 1737              		.loc 1 428 29 is_stmt 0 view .LVU516
 1738 0796 E4DD     		ble	.L92
 1739              		.loc 1 433 29 is_stmt 1 view .LVU517
 1740              		.loc 1 433 36 is_stmt 0 view .LVU518
 1741 0798 0D23     		movs	r3, #13
 1742 079a C8F80030 		str	r3, [r8]
 1743              		.loc 1 433 42 is_stmt 1 view .LVU519
 1744              	.L95:
 1745              		.loc 1 434 33 view .LVU520
 1746              		.loc 1 434 49 view .LVU521
 1747              		.loc 1 435 38 view .LVU522
 1748              		.loc 1 434 57 is_stmt 0 view .LVU523
 1749 079e DAF80040 		ldr	r4, [r10]
 1750              		.loc 1 434 36 view .LVU524
 1751 07a2 DD07     		lsls	r5, r3, #31
 1752              		.loc 1 434 63 view .LVU525
 1753 07a4 03F1FF31 		add	r1, r3, #-1
 1754              		.loc 1 435 52 view .LVU526
 1755 07a8 03F10102 		add	r2, r3, #1
 1756              		.loc 1 434 63 view .LVU527
ARM GAS  /tmp/ccucPY5I.s 			page 37


 1757 07ac C9B2     		uxtb	r1, r1
 1758              		.loc 1 434 57 view .LVU528
 1759 07ae 54BF     		ite	pl
 1760 07b0 631C     		addpl	r3, r4, #1
 1761              		.loc 1 435 46 view .LVU529
 1762 07b2 631C     		addmi	r3, r4, #1
 1763              		.loc 1 434 63 view .LVU530
 1764 07b4 4FF0C000 		mov	r0, #192
 1765              		.loc 1 435 52 view .LVU531
 1766 07b8 44BF     		itt	mi
 1767 07ba D1B2     		uxtbmi	r1, r2
 1768 07bc C020     		movmi	r0, #192
 1769              		.loc 1 435 46 view .LVU532
 1770 07be CAF80030 		str	r3, [r10]
 1771              		.loc 1 435 52 view .LVU533
 1772 07c2 FFF7FEFF 		bl	e_i2cp_read
 1773              	.LVL72:
 1774              		.loc 1 433 51 view .LVU534
 1775 07c6 D8F80030 		ldr	r3, [r8]
 1776              		.loc 1 435 50 view .LVU535
 1777 07ca 09F80400 		strb	r0, [r9, r4]
 1778              		.loc 1 433 50 is_stmt 1 view .LVU536
 1779              		.loc 1 433 51 is_stmt 0 view .LVU537
 1780 07ce 0133     		adds	r3, r3, #1
 1781              		.loc 1 433 29 view .LVU538
 1782 07d0 102B     		cmp	r3, #16
 1783              		.loc 1 433 51 view .LVU539
 1784 07d2 C8F80030 		str	r3, [r8]
 1785              		.loc 1 433 42 is_stmt 1 view .LVU540
 1786              		.loc 1 433 29 is_stmt 0 view .LVU541
 1787 07d6 E2DD     		ble	.L95
 1788              		.loc 1 568 29 is_stmt 1 view .LVU542
 1789 07d8 FFF7FEFF 		bl	e_i2cp_disable
 1790              	.LVL73:
 1791 07dc 21E7     		b	.L130
 1792              	.L58:
 1793              		.loc 1 399 25 view .LVU543
 1794              		.loc 1 400 36 is_stmt 0 view .LVU544
 1795 07de 2E4C     		ldr	r4, .L685+16
 1796              		.loc 1 399 28 view .LVU545
 1797 07e0 BBF1000F 		cmp	fp, #0
 1798 07e4 16D0     		beq	.L84
 1799              	.L85:
 1800              		.loc 1 400 62 is_stmt 1 discriminator 1 view .LVU546
 1801              		.loc 1 400 35 discriminator 1 view .LVU547
 1802              		.loc 1 400 36 is_stmt 0 discriminator 1 view .LVU548
 1803 07e6 2046     		mov	r0, r4
 1804 07e8 FFF7FEFF 		bl	e_getchar_uart1
 1805              	.LVL74:
 1806              		.loc 1 400 35 discriminator 1 view .LVU549
 1807 07ec 0028     		cmp	r0, #0
 1808 07ee FAD0     		beq	.L85
 1809              		.loc 1 401 36 view .LVU550
 1810 07f0 2A4C     		ldr	r4, .L685+20
 1811              	.L86:
 1812              		.loc 1 401 62 is_stmt 1 discriminator 1 view .LVU551
 1813              		.loc 1 401 35 discriminator 1 view .LVU552
ARM GAS  /tmp/ccucPY5I.s 			page 38


 1814              		.loc 1 401 36 is_stmt 0 discriminator 1 view .LVU553
 1815 07f2 2046     		mov	r0, r4
 1816 07f4 FFF7FEFF 		bl	e_getchar_uart1
 1817              	.LVL75:
 1818              		.loc 1 401 35 discriminator 1 view .LVU554
 1819 07f8 0028     		cmp	r0, #0
 1820 07fa FAD0     		beq	.L86
 1821              		.loc 1 406 25 is_stmt 1 view .LVU555
 1822 07fc 264B     		ldr	r3, .L685+16
 1823 07fe 1878     		ldrb	r0, [r3]	@ zero_extendqisi2
 1824 0800 0828     		cmp	r0, #8
 1825 0802 01F02881 		beq	.L354
 1826 0806 0928     		cmp	r0, #9
 1827 0808 17D1     		bne	.L356
 1828              		.loc 1 413 33 view .LVU556
 1829              		.loc 1 414 37 view .LVU557
 1830 080a 244B     		ldr	r3, .L685+20
 1831 080c 1878     		ldrb	r0, [r3]	@ zero_extendqisi2
 1832 080e FFF7FEFF 		bl	e_set_front_led
 1833              	.LVL76:
 1834 0812 06E7     		b	.L130
 1835              	.L84:
 1836              		.loc 1 403 62 discriminator 1 view .LVU558
 1837              		.loc 1 403 35 discriminator 1 view .LVU559
 1838              		.loc 1 403 36 is_stmt 0 discriminator 1 view .LVU560
 1839 0814 2046     		mov	r0, r4
 1840 0816 FFF7FEFF 		bl	e_getchar_uart2
 1841              	.LVL77:
 1842              		.loc 1 403 35 discriminator 1 view .LVU561
 1843 081a 0028     		cmp	r0, #0
 1844 081c FAD0     		beq	.L84
 1845              		.loc 1 404 36 view .LVU562
 1846 081e 1F4C     		ldr	r4, .L685+20
 1847              	.L88:
 1848              		.loc 1 404 62 is_stmt 1 discriminator 1 view .LVU563
 1849              		.loc 1 404 35 discriminator 1 view .LVU564
 1850              		.loc 1 404 36 is_stmt 0 discriminator 1 view .LVU565
 1851 0820 2046     		mov	r0, r4
 1852 0822 FFF7FEFF 		bl	e_getchar_uart2
 1853              	.LVL78:
 1854              		.loc 1 404 35 discriminator 1 view .LVU566
 1855 0826 0028     		cmp	r0, #0
 1856 0828 FAD0     		beq	.L88
 1857              		.loc 1 406 25 is_stmt 1 view .LVU567
 1858 082a 1B4B     		ldr	r3, .L685+16
 1859 082c 1878     		ldrb	r0, [r3]	@ zero_extendqisi2
 1860 082e 0828     		cmp	r0, #8
 1861 0830 3FF417AF 		beq	.L133
 1862 0834 0928     		cmp	r0, #9
 1863 0836 3FF414AF 		beq	.L133
 1864              	.L356:
 1865              		.loc 1 418 33 view .LVU568
 1866 083a 184B     		ldr	r3, .L685+20
 1867 083c 1978     		ldrb	r1, [r3]	@ zero_extendqisi2
 1868 083e FFF7FEFF 		bl	e_set_led
 1869              	.LVL79:
 1870              		.loc 1 419 33 view .LVU569
ARM GAS  /tmp/ccucPY5I.s 			page 39


 1871 0842 EBE6     		b	.L44
 1872              	.L59:
 1873              		.loc 1 389 25 view .LVU570
 1874              		.loc 1 389 28 is_stmt 0 view .LVU571
 1875 0844 BBF1000F 		cmp	fp, #0
 1876 0848 3FF40BAF 		beq	.L133
 1877              		.loc 1 390 29 is_stmt 1 view .LVU572
 1878              		.loc 1 390 63 is_stmt 0 view .LVU573
 1879 084c DAF80030 		ldr	r3, [r10]
 1880 0850 0333     		adds	r3, r3, #3
 1881              		.loc 1 390 29 view .LVU574
 1882 0852 09EB0300 		add	r0, r9, r3
 1883 0856 FFF7FEFF 		bl	e_poxxxx_launch_capture
 1884              	.LVL80:
 1885              		.loc 1 391 29 is_stmt 1 view .LVU575
 1886              		.loc 1 395 31 is_stmt 0 view .LVU576
 1887 085a 149B     		ldr	r3, [sp, #80]
 1888              		.loc 1 392 37 view .LVU577
 1889 085c DAF80020 		ldr	r2, [r10]
 1890              		.loc 1 395 31 view .LVU578
 1891 0860 1868     		ldr	r0, [r3]
 1892              		.loc 1 392 43 view .LVU579
 1893 0862 139B     		ldr	r3, [sp, #76]
 1894              		.loc 1 393 43 view .LVU580
 1895 0864 1299     		ldr	r1, [sp, #72]
 1896              		.loc 1 392 43 view .LVU581
 1897 0866 1B68     		ldr	r3, [r3]
 1898 0868 09F80230 		strb	r3, [r9, r2]
 1899              		.loc 1 394 37 view .LVU582
 1900 086c D31C     		adds	r3, r2, #3
 1901              		.loc 1 395 31 view .LVU583
 1902 086e 0344     		add	r3, r3, r0
 1903              		.loc 1 394 43 view .LVU584
 1904 0870 1198     		ldr	r0, [sp, #68]
 1905              		.loc 1 393 43 view .LVU585
 1906 0872 0968     		ldr	r1, [r1]
 1907              		.loc 1 394 43 view .LVU586
 1908 0874 0068     		ldr	r0, [r0]
 1909              		.loc 1 395 31 view .LVU587
 1910 0876 CAF80030 		str	r3, [r10]
 1911              		.loc 1 393 41 view .LVU588
 1912 087a 4A44     		add	r2, r2, r9
 1913              		.loc 1 391 38 view .LVU589
 1914 087c 0123     		movs	r3, #1
 1915              		.loc 1 393 43 view .LVU590
 1916 087e 5170     		strb	r1, [r2, #1]
 1917              		.loc 1 394 43 view .LVU591
 1918 0880 9070     		strb	r0, [r2, #2]
 1919              		.loc 1 391 38 view .LVU592
 1920 0882 074A     		ldr	r2, .L685+24
 1921 0884 1370     		strb	r3, [r2]
 1922              		.loc 1 392 29 is_stmt 1 view .LVU593
 1923              		.loc 1 393 29 view .LVU594
 1924              		.loc 1 394 29 view .LVU595
 1925              		.loc 1 395 29 view .LVU596
 1926 0886 CCE6     		b	.L130
 1927              	.L686:
ARM GAS  /tmp/ccucPY5I.s 			page 40


 1928              		.align	2
 1929              	.L685:
 1930 0888 00000000 		.word	.LANCHOR12
 1931 088c 00000000 		.word	.LANCHOR13
 1932 0890 00000000 		.word	.LANCHOR14
 1933 0894 00000000 		.word	buffer
 1934 0898 00000000 		.word	.LANCHOR16
 1935 089c 00000000 		.word	.LANCHOR17
 1936 08a0 00000000 		.word	.LANCHOR21
 1937              	.L61:
 1938              		.loc 1 343 25 view .LVU597
 1939              		.loc 1 344 36 is_stmt 0 view .LVU598
 1940 08a4 B84C     		ldr	r4, .L687
 1941              		.loc 1 343 28 view .LVU599
 1942 08a6 BBF1000F 		cmp	fp, #0
 1943 08aa 2FD0     		beq	.L70
 1944              	.L71:
 1945              		.loc 1 344 62 is_stmt 1 discriminator 1 view .LVU600
 1946              		.loc 1 344 35 discriminator 1 view .LVU601
 1947              		.loc 1 344 36 is_stmt 0 discriminator 1 view .LVU602
 1948 08ac 2046     		mov	r0, r4
 1949 08ae FFF7FEFF 		bl	e_getchar_uart1
 1950              	.LVL81:
 1951              		.loc 1 344 35 discriminator 1 view .LVU603
 1952 08b2 0028     		cmp	r0, #0
 1953 08b4 FAD0     		beq	.L71
 1954              		.loc 1 345 36 view .LVU604
 1955 08b6 B54C     		ldr	r4, .L687+4
 1956              	.L72:
 1957              		.loc 1 345 62 is_stmt 1 discriminator 1 view .LVU605
 1958              		.loc 1 345 35 discriminator 1 view .LVU606
 1959              		.loc 1 345 36 is_stmt 0 discriminator 1 view .LVU607
 1960 08b8 2046     		mov	r0, r4
 1961 08ba FFF7FEFF 		bl	e_getchar_uart1
 1962              	.LVL82:
 1963              		.loc 1 345 35 discriminator 1 view .LVU608
 1964 08be 0028     		cmp	r0, #0
 1965 08c0 FAD0     		beq	.L72
 1966              		.loc 1 350 25 is_stmt 1 view .LVU609
 1967              		.loc 1 350 56 is_stmt 0 view .LVU610
 1968 08c2 B24B     		ldr	r3, .L687+4
 1969              		.loc 1 352 36 view .LVU611
 1970 08c4 B04C     		ldr	r4, .L687
 1971              		.loc 1 350 56 view .LVU612
 1972 08c6 1A78     		ldrb	r2, [r3]	@ zero_extendqisi2
 1973              		.loc 1 350 34 view .LVU613
 1974 08c8 AF4B     		ldr	r3, .L687
 1975 08ca 1B78     		ldrb	r3, [r3]	@ zero_extendqisi2
 1976              		.loc 1 350 53 view .LVU614
 1977 08cc 03EB0223 		add	r3, r3, r2, lsl #8
 1978              		.loc 1 350 32 view .LVU615
 1979 08d0 AF4A     		ldr	r2, .L687+8
 1980 08d2 1360     		str	r3, [r2]
 1981              		.loc 1 351 25 is_stmt 1 view .LVU616
 1982              	.L76:
 1983              		.loc 1 352 62 discriminator 1 view .LVU617
 1984              		.loc 1 352 35 discriminator 1 view .LVU618
ARM GAS  /tmp/ccucPY5I.s 			page 41


 1985              		.loc 1 352 36 is_stmt 0 discriminator 1 view .LVU619
 1986 08d4 2046     		mov	r0, r4
 1987 08d6 FFF7FEFF 		bl	e_getchar_uart1
 1988              	.LVL83:
 1989              		.loc 1 352 35 discriminator 1 view .LVU620
 1990 08da 0028     		cmp	r0, #0
 1991 08dc FAD0     		beq	.L76
 1992              		.loc 1 353 36 view .LVU621
 1993 08de AB4C     		ldr	r4, .L687+4
 1994              	.L77:
 1995              		.loc 1 353 62 is_stmt 1 discriminator 1 view .LVU622
 1996              		.loc 1 353 35 discriminator 1 view .LVU623
 1997              		.loc 1 353 36 is_stmt 0 discriminator 1 view .LVU624
 1998 08e0 2046     		mov	r0, r4
 1999 08e2 FFF7FEFF 		bl	e_getchar_uart1
 2000              	.LVL84:
 2001              		.loc 1 353 35 discriminator 1 view .LVU625
 2002 08e6 0028     		cmp	r0, #0
 2003 08e8 FAD0     		beq	.L77
 2004              	.L80:
 2005              		.loc 1 358 25 is_stmt 1 view .LVU626
 2006              		.loc 1 358 56 is_stmt 0 view .LVU627
 2007 08ea A84B     		ldr	r3, .L687+4
 2008              		.loc 1 359 25 view .LVU628
 2009 08ec A849     		ldr	r1, .L687+8
 2010              		.loc 1 358 56 view .LVU629
 2011 08ee 1A78     		ldrb	r2, [r3]	@ zero_extendqisi2
 2012              		.loc 1 358 34 view .LVU630
 2013 08f0 A54B     		ldr	r3, .L687
 2014              		.loc 1 359 25 view .LVU631
 2015 08f2 0868     		ldr	r0, [r1]
 2016              		.loc 1 358 34 view .LVU632
 2017 08f4 1B78     		ldrb	r3, [r3]	@ zero_extendqisi2
 2018              		.loc 1 358 53 view .LVU633
 2019 08f6 03EB0223 		add	r3, r3, r2, lsl #8
 2020              		.loc 1 358 32 view .LVU634
 2021 08fa A64A     		ldr	r2, .L687+12
 2022 08fc 1446     		mov	r4, r2
 2023 08fe 1360     		str	r3, [r2]
 2024              		.loc 1 359 25 is_stmt 1 view .LVU635
 2025 0900 FFF7FEFF 		bl	e_set_speed_left
 2026              	.LVL85:
 2027              		.loc 1 360 25 view .LVU636
 2028 0904 2068     		ldr	r0, [r4]
 2029 0906 FFF7FEFF 		bl	e_set_speed_right
 2030              	.LVL86:
 2031              		.loc 1 361 25 view .LVU637
 2032 090a 87E6     		b	.L44
 2033              	.L70:
 2034              		.loc 1 347 62 discriminator 1 view .LVU638
 2035              		.loc 1 347 35 discriminator 1 view .LVU639
 2036              		.loc 1 347 36 is_stmt 0 discriminator 1 view .LVU640
 2037 090c 2046     		mov	r0, r4
 2038 090e FFF7FEFF 		bl	e_getchar_uart2
 2039              	.LVL87:
 2040              		.loc 1 347 35 discriminator 1 view .LVU641
 2041 0912 0028     		cmp	r0, #0
ARM GAS  /tmp/ccucPY5I.s 			page 42


 2042 0914 FAD0     		beq	.L70
 2043              		.loc 1 348 36 view .LVU642
 2044 0916 9D4C     		ldr	r4, .L687+4
 2045              	.L74:
 2046              		.loc 1 348 62 is_stmt 1 discriminator 1 view .LVU643
 2047              		.loc 1 348 35 discriminator 1 view .LVU644
 2048              		.loc 1 348 36 is_stmt 0 discriminator 1 view .LVU645
 2049 0918 2046     		mov	r0, r4
 2050 091a FFF7FEFF 		bl	e_getchar_uart2
 2051              	.LVL88:
 2052              		.loc 1 348 35 discriminator 1 view .LVU646
 2053 091e 0028     		cmp	r0, #0
 2054 0920 FAD0     		beq	.L74
 2055              		.loc 1 350 25 is_stmt 1 view .LVU647
 2056              		.loc 1 350 56 is_stmt 0 view .LVU648
 2057 0922 9A4B     		ldr	r3, .L687+4
 2058              		.loc 1 355 36 view .LVU649
 2059 0924 984C     		ldr	r4, .L687
 2060              		.loc 1 350 56 view .LVU650
 2061 0926 1A78     		ldrb	r2, [r3]	@ zero_extendqisi2
 2062              		.loc 1 350 34 view .LVU651
 2063 0928 974B     		ldr	r3, .L687
 2064 092a 1B78     		ldrb	r3, [r3]	@ zero_extendqisi2
 2065              		.loc 1 350 53 view .LVU652
 2066 092c 03EB0223 		add	r3, r3, r2, lsl #8
 2067              		.loc 1 350 32 view .LVU653
 2068 0930 974A     		ldr	r2, .L687+8
 2069 0932 1360     		str	r3, [r2]
 2070              		.loc 1 351 25 is_stmt 1 view .LVU654
 2071              	.L78:
 2072              		.loc 1 355 62 discriminator 1 view .LVU655
 2073              		.loc 1 355 35 discriminator 1 view .LVU656
 2074              		.loc 1 355 36 is_stmt 0 discriminator 1 view .LVU657
 2075 0934 2046     		mov	r0, r4
 2076 0936 FFF7FEFF 		bl	e_getchar_uart2
 2077              	.LVL89:
 2078              		.loc 1 355 35 discriminator 1 view .LVU658
 2079 093a 0028     		cmp	r0, #0
 2080 093c FAD0     		beq	.L78
 2081              		.loc 1 356 36 view .LVU659
 2082 093e 934C     		ldr	r4, .L687+4
 2083              	.L79:
 2084              		.loc 1 356 62 is_stmt 1 discriminator 1 view .LVU660
 2085              		.loc 1 356 35 discriminator 1 view .LVU661
 2086              		.loc 1 356 36 is_stmt 0 discriminator 1 view .LVU662
 2087 0940 2046     		mov	r0, r4
 2088 0942 FFF7FEFF 		bl	e_getchar_uart2
 2089              	.LVL90:
 2090              		.loc 1 356 35 discriminator 1 view .LVU663
 2091 0946 0028     		cmp	r0, #0
 2092 0948 FAD0     		beq	.L79
 2093 094a CEE7     		b	.L80
 2094              	.L49:
 2095              		.loc 1 370 25 is_stmt 1 view .LVU664
 2096              		.loc 1 370 27 is_stmt 0 view .LVU665
 2097 094c BBF1000F 		cmp	fp, #0
 2098 0950 41F03680 		bne	.L670
ARM GAS  /tmp/ccucPY5I.s 			page 43


 2099              	.L81:
 2100              		.loc 1 379 29 is_stmt 1 view .LVU666
 2101              		.loc 1 379 37 is_stmt 0 view .LVU667
 2102 0954 DAF80010 		ldr	r1, [r10]
 2103              		.loc 1 380 41 view .LVU668
 2104 0958 09EB0102 		add	r2, r9, r1
 2105              		.loc 1 379 41 view .LVU669
 2106 095c 0023     		movs	r3, #0
 2107              		.loc 1 384 37 view .LVU670
 2108 095e 881D     		adds	r0, r1, #6
 2109              		.loc 1 379 41 view .LVU671
 2110 0960 09F80130 		strb	r3, [r9, r1]
 2111              		.loc 1 380 29 is_stmt 1 view .LVU672
 2112              		.loc 1 384 37 is_stmt 0 view .LVU673
 2113 0964 CAF80000 		str	r0, [r10]
 2114              		.loc 1 380 41 view .LVU674
 2115 0968 5370     		strb	r3, [r2, #1]
 2116              		.loc 1 381 29 is_stmt 1 view .LVU675
 2117              		.loc 1 381 41 is_stmt 0 view .LVU676
 2118 096a 9370     		strb	r3, [r2, #2]
 2119              		.loc 1 382 29 is_stmt 1 view .LVU677
 2120              		.loc 1 382 41 is_stmt 0 view .LVU678
 2121 096c D370     		strb	r3, [r2, #3]
 2122              		.loc 1 383 29 is_stmt 1 view .LVU679
 2123              		.loc 1 383 41 is_stmt 0 view .LVU680
 2124 096e 1371     		strb	r3, [r2, #4]
 2125              		.loc 1 384 29 is_stmt 1 view .LVU681
 2126              		.loc 1 384 41 is_stmt 0 view .LVU682
 2127 0970 5371     		strb	r3, [r2, #5]
 2128 0972 53E6     		b	.L44
 2129              	.L60:
 2130              		.loc 1 363 25 is_stmt 1 view .LVU683
 2131              		.loc 1 363 37 is_stmt 0 view .LVU684
 2132 0974 864A     		ldr	r2, .L687+8
 2133              		.loc 1 363 33 view .LVU685
 2134 0976 DAF80030 		ldr	r3, [r10]
 2135              		.loc 1 365 37 view .LVU686
 2136 097a 8649     		ldr	r1, .L687+12
 2137              		.loc 1 363 37 view .LVU687
 2138 097c 1268     		ldr	r2, [r2]
 2139              		.loc 1 365 37 view .LVU688
 2140 097e 0868     		ldr	r0, [r1]
 2141              		.loc 1 363 37 view .LVU689
 2142 0980 09F80320 		strb	r2, [r9, r3]
 2143              		.loc 1 364 25 is_stmt 1 view .LVU690
 2144              		.loc 1 364 37 is_stmt 0 view .LVU691
 2145 0984 09EB0301 		add	r1, r9, r3
 2146              		.loc 1 364 46 view .LVU692
 2147 0988 1212     		asrs	r2, r2, #8
 2148              		.loc 1 366 33 view .LVU693
 2149 098a 0433     		adds	r3, r3, #4
 2150              		.loc 1 364 37 view .LVU694
 2151 098c 4A70     		strb	r2, [r1, #1]
 2152              		.loc 1 365 25 is_stmt 1 view .LVU695
 2153              		.loc 1 366 46 is_stmt 0 view .LVU696
 2154 098e 0212     		asrs	r2, r0, #8
 2155              		.loc 1 366 33 view .LVU697
ARM GAS  /tmp/ccucPY5I.s 			page 44


 2156 0990 CAF80030 		str	r3, [r10]
 2157              		.loc 1 365 37 view .LVU698
 2158 0994 8870     		strb	r0, [r1, #2]
 2159              		.loc 1 366 25 is_stmt 1 view .LVU699
 2160              		.loc 1 366 37 is_stmt 0 view .LVU700
 2161 0996 CA70     		strb	r2, [r1, #3]
 2162              		.loc 1 367 25 is_stmt 1 view .LVU701
 2163 0998 40E6     		b	.L44
 2164              	.L53:
 2165              		.loc 1 497 25 view .LVU702
 2166              		.loc 1 497 29 is_stmt 0 view .LVU703
 2167 099a FFF7FEFF 		bl	e_get_steps_left
 2168              	.LVL91:
 2169              		.loc 1 498 33 view .LVU704
 2170 099e DAF80030 		ldr	r3, [r10]
 2171              		.loc 1 498 25 is_stmt 1 view .LVU705
 2172              		.loc 1 499 37 is_stmt 0 view .LVU706
 2173 09a2 09EB0302 		add	r2, r9, r3
 2174              		.loc 1 498 37 view .LVU707
 2175 09a6 09F80300 		strb	r0, [r9, r3]
 2176              		.loc 1 499 25 is_stmt 1 view .LVU708
 2177              		.loc 1 499 41 is_stmt 0 view .LVU709
 2178 09aa 0112     		asrs	r1, r0, #8
 2179              		.loc 1 499 33 view .LVU710
 2180 09ac 0233     		adds	r3, r3, #2
 2181              		.loc 1 499 37 view .LVU711
 2182 09ae 5170     		strb	r1, [r2, #1]
 2183              		.loc 1 500 25 is_stmt 1 view .LVU712
 2184              		.loc 1 499 33 is_stmt 0 view .LVU713
 2185 09b0 CAF80030 		str	r3, [r10]
 2186              		.loc 1 500 29 view .LVU714
 2187 09b4 FFF7FEFF 		bl	e_get_steps_right
 2188              	.LVL92:
 2189 09b8 7DE6     		b	.L654
 2190              	.L54:
 2191              		.loc 1 477 25 is_stmt 1 view .LVU715
 2192              		.loc 1 478 36 is_stmt 0 view .LVU716
 2193 09ba 734C     		ldr	r4, .L687
 2194              		.loc 1 477 28 view .LVU717
 2195 09bc BBF1000F 		cmp	fp, #0
 2196 09c0 2FD0     		beq	.L103
 2197              	.L104:
 2198              		.loc 1 478 62 is_stmt 1 discriminator 1 view .LVU718
 2199              		.loc 1 478 35 discriminator 1 view .LVU719
 2200              		.loc 1 478 36 is_stmt 0 discriminator 1 view .LVU720
 2201 09c2 2046     		mov	r0, r4
 2202 09c4 FFF7FEFF 		bl	e_getchar_uart1
 2203              	.LVL93:
 2204              		.loc 1 478 35 discriminator 1 view .LVU721
 2205 09c8 0028     		cmp	r0, #0
 2206 09ca FAD0     		beq	.L104
 2207              		.loc 1 479 36 view .LVU722
 2208 09cc 6F4C     		ldr	r4, .L687+4
 2209              	.L105:
 2210              		.loc 1 479 62 is_stmt 1 discriminator 1 view .LVU723
 2211              		.loc 1 479 35 discriminator 1 view .LVU724
 2212              		.loc 1 479 36 is_stmt 0 discriminator 1 view .LVU725
ARM GAS  /tmp/ccucPY5I.s 			page 45


 2213 09ce 2046     		mov	r0, r4
 2214 09d0 FFF7FEFF 		bl	e_getchar_uart1
 2215              	.LVL94:
 2216              		.loc 1 479 35 discriminator 1 view .LVU726
 2217 09d4 0028     		cmp	r0, #0
 2218 09d6 FAD0     		beq	.L105
 2219              		.loc 1 484 25 is_stmt 1 view .LVU727
 2220              		.loc 1 484 59 is_stmt 0 view .LVU728
 2221 09d8 6C4B     		ldr	r3, .L687+4
 2222              		.loc 1 486 36 view .LVU729
 2223 09da 6B4C     		ldr	r4, .L687
 2224              		.loc 1 484 59 view .LVU730
 2225 09dc 1A78     		ldrb	r2, [r3]	@ zero_extendqisi2
 2226              		.loc 1 484 37 view .LVU731
 2227 09de 6A4B     		ldr	r3, .L687
 2228 09e0 1B78     		ldrb	r3, [r3]	@ zero_extendqisi2
 2229              		.loc 1 484 56 view .LVU732
 2230 09e2 03EB0223 		add	r3, r3, r2, lsl #8
 2231              		.loc 1 484 35 view .LVU733
 2232 09e6 6C4A     		ldr	r2, .L687+16
 2233 09e8 1360     		str	r3, [r2]
 2234              		.loc 1 485 25 is_stmt 1 view .LVU734
 2235              	.L109:
 2236              		.loc 1 486 62 discriminator 1 view .LVU735
 2237              		.loc 1 486 35 discriminator 1 view .LVU736
 2238              		.loc 1 486 36 is_stmt 0 discriminator 1 view .LVU737
 2239 09ea 2046     		mov	r0, r4
 2240 09ec FFF7FEFF 		bl	e_getchar_uart1
 2241              	.LVL95:
 2242              		.loc 1 486 35 discriminator 1 view .LVU738
 2243 09f0 0028     		cmp	r0, #0
 2244 09f2 FAD0     		beq	.L109
 2245              		.loc 1 487 36 view .LVU739
 2246 09f4 654C     		ldr	r4, .L687+4
 2247              	.L110:
 2248              		.loc 1 487 62 is_stmt 1 discriminator 1 view .LVU740
 2249              		.loc 1 487 35 discriminator 1 view .LVU741
 2250              		.loc 1 487 36 is_stmt 0 discriminator 1 view .LVU742
 2251 09f6 2046     		mov	r0, r4
 2252 09f8 FFF7FEFF 		bl	e_getchar_uart1
 2253              	.LVL96:
 2254              		.loc 1 487 35 discriminator 1 view .LVU743
 2255 09fc 0028     		cmp	r0, #0
 2256 09fe FAD0     		beq	.L110
 2257              	.L113:
 2258              		.loc 1 492 25 is_stmt 1 view .LVU744
 2259              		.loc 1 492 59 is_stmt 0 view .LVU745
 2260 0a00 624B     		ldr	r3, .L687+4
 2261              		.loc 1 493 25 view .LVU746
 2262 0a02 6549     		ldr	r1, .L687+16
 2263              		.loc 1 492 59 view .LVU747
 2264 0a04 1A78     		ldrb	r2, [r3]	@ zero_extendqisi2
 2265              		.loc 1 492 37 view .LVU748
 2266 0a06 604B     		ldr	r3, .L687
 2267              		.loc 1 493 25 view .LVU749
 2268 0a08 0868     		ldr	r0, [r1]
 2269              		.loc 1 492 37 view .LVU750
ARM GAS  /tmp/ccucPY5I.s 			page 46


 2270 0a0a 1B78     		ldrb	r3, [r3]	@ zero_extendqisi2
 2271              		.loc 1 492 56 view .LVU751
 2272 0a0c 03EB0223 		add	r3, r3, r2, lsl #8
 2273              		.loc 1 492 35 view .LVU752
 2274 0a10 624A     		ldr	r2, .L687+20
 2275 0a12 1446     		mov	r4, r2
 2276 0a14 1360     		str	r3, [r2]
 2277              		.loc 1 493 25 is_stmt 1 view .LVU753
 2278 0a16 FFF7FEFF 		bl	e_set_steps_left
 2279              	.LVL97:
 2280              		.loc 1 494 25 view .LVU754
 2281 0a1a 2068     		ldr	r0, [r4]
 2282 0a1c FFF7FEFF 		bl	e_set_steps_right
 2283              	.LVL98:
 2284              		.loc 1 495 25 view .LVU755
 2285 0a20 FCE5     		b	.L44
 2286              	.L103:
 2287              		.loc 1 481 62 discriminator 1 view .LVU756
 2288              		.loc 1 481 35 discriminator 1 view .LVU757
 2289              		.loc 1 481 36 is_stmt 0 discriminator 1 view .LVU758
 2290 0a22 2046     		mov	r0, r4
 2291 0a24 FFF7FEFF 		bl	e_getchar_uart2
 2292              	.LVL99:
 2293              		.loc 1 481 35 discriminator 1 view .LVU759
 2294 0a28 0028     		cmp	r0, #0
 2295 0a2a FAD0     		beq	.L103
 2296              		.loc 1 482 36 view .LVU760
 2297 0a2c 574C     		ldr	r4, .L687+4
 2298              	.L107:
 2299              		.loc 1 482 62 is_stmt 1 discriminator 1 view .LVU761
 2300              		.loc 1 482 35 discriminator 1 view .LVU762
 2301              		.loc 1 482 36 is_stmt 0 discriminator 1 view .LVU763
 2302 0a2e 2046     		mov	r0, r4
 2303 0a30 FFF7FEFF 		bl	e_getchar_uart2
 2304              	.LVL100:
 2305              		.loc 1 482 35 discriminator 1 view .LVU764
 2306 0a34 0028     		cmp	r0, #0
 2307 0a36 FAD0     		beq	.L107
 2308              		.loc 1 484 25 is_stmt 1 view .LVU765
 2309              		.loc 1 484 59 is_stmt 0 view .LVU766
 2310 0a38 544B     		ldr	r3, .L687+4
 2311              		.loc 1 489 36 view .LVU767
 2312 0a3a 534C     		ldr	r4, .L687
 2313              		.loc 1 484 59 view .LVU768
 2314 0a3c 1A78     		ldrb	r2, [r3]	@ zero_extendqisi2
 2315              		.loc 1 484 37 view .LVU769
 2316 0a3e 524B     		ldr	r3, .L687
 2317 0a40 1B78     		ldrb	r3, [r3]	@ zero_extendqisi2
 2318              		.loc 1 484 56 view .LVU770
 2319 0a42 03EB0223 		add	r3, r3, r2, lsl #8
 2320              		.loc 1 484 35 view .LVU771
 2321 0a46 544A     		ldr	r2, .L687+16
 2322 0a48 1360     		str	r3, [r2]
 2323              		.loc 1 485 25 is_stmt 1 view .LVU772
 2324              	.L111:
 2325              		.loc 1 489 62 discriminator 1 view .LVU773
 2326              		.loc 1 489 35 discriminator 1 view .LVU774
ARM GAS  /tmp/ccucPY5I.s 			page 47


 2327              		.loc 1 489 36 is_stmt 0 discriminator 1 view .LVU775
 2328 0a4a 2046     		mov	r0, r4
 2329 0a4c FFF7FEFF 		bl	e_getchar_uart2
 2330              	.LVL101:
 2331              		.loc 1 489 35 discriminator 1 view .LVU776
 2332 0a50 0028     		cmp	r0, #0
 2333 0a52 FAD0     		beq	.L111
 2334              		.loc 1 490 36 view .LVU777
 2335 0a54 4D4C     		ldr	r4, .L687+4
 2336              	.L112:
 2337              		.loc 1 490 62 is_stmt 1 discriminator 1 view .LVU778
 2338              		.loc 1 490 35 discriminator 1 view .LVU779
 2339              		.loc 1 490 36 is_stmt 0 discriminator 1 view .LVU780
 2340 0a56 2046     		mov	r0, r4
 2341 0a58 FFF7FEFF 		bl	e_getchar_uart2
 2342              	.LVL102:
 2343              		.loc 1 490 35 discriminator 1 view .LVU781
 2344 0a5c 0028     		cmp	r0, #0
 2345 0a5e FAD0     		beq	.L112
 2346 0a60 CEE7     		b	.L113
 2347              	.L52:
 2348              		.loc 1 537 25 is_stmt 1 view .LVU782
 2349              		.loc 1 537 28 is_stmt 0 view .LVU783
 2350 0a62 BBF1000F 		cmp	fp, #0
 2351 0a66 3FF4FCAD 		beq	.L133
 2352              	.L115:
 2353              		.loc 1 538 68 is_stmt 1 discriminator 1 view .LVU784
 2354              		.loc 1 538 35 discriminator 1 view .LVU785
 2355              		.loc 1 538 36 is_stmt 0 discriminator 1 view .LVU786
 2356 0a6a 18EE900A 		vmov	r0, s17	@ int
 2357 0a6e FFF7FEFF 		bl	e_getchar_uart1
 2358              	.LVL103:
 2359              		.loc 1 538 35 discriminator 1 view .LVU787
 2360 0a72 0028     		cmp	r0, #0
 2361 0a74 F9D0     		beq	.L115
 2362              		.loc 1 539 36 view .LVU788
 2363 0a76 4A4C     		ldr	r4, .L687+24
 2364              	.L116:
 2365              		.loc 1 539 68 is_stmt 1 discriminator 1 view .LVU789
 2366              		.loc 1 539 35 discriminator 1 view .LVU790
 2367              		.loc 1 539 36 is_stmt 0 discriminator 1 view .LVU791
 2368 0a78 2046     		mov	r0, r4
 2369 0a7a FFF7FEFF 		bl	e_getchar_uart1
 2370              	.LVL104:
 2371              		.loc 1 539 35 discriminator 1 view .LVU792
 2372 0a7e 0028     		cmp	r0, #0
 2373 0a80 FAD0     		beq	.L116
 2374              		.loc 1 540 36 view .LVU793
 2375 0a82 484C     		ldr	r4, .L687+28
 2376              	.L117:
 2377              		.loc 1 540 68 is_stmt 1 discriminator 1 view .LVU794
 2378              		.loc 1 540 35 discriminator 1 view .LVU795
 2379              		.loc 1 540 36 is_stmt 0 discriminator 1 view .LVU796
 2380 0a84 2046     		mov	r0, r4
 2381 0a86 FFF7FEFF 		bl	e_getchar_uart1
 2382              	.LVL105:
 2383              		.loc 1 540 35 discriminator 1 view .LVU797
ARM GAS  /tmp/ccucPY5I.s 			page 48


 2384 0a8a 0028     		cmp	r0, #0
 2385 0a8c FAD0     		beq	.L117
 2386              		.loc 1 541 29 is_stmt 1 view .LVU798
 2387 0a8e FFF7FEFF 		bl	e_i2cp_enable
 2388              	.LVL106:
 2389              		.loc 1 542 29 view .LVU799
 2390 0a92 444B     		ldr	r3, .L687+28
 2391 0a94 1A78     		ldrb	r2, [r3]	@ zero_extendqisi2
 2392 0a96 424B     		ldr	r3, .L687+24
 2393 0a98 1978     		ldrb	r1, [r3]	@ zero_extendqisi2
 2394 0a9a 434B     		ldr	r3, .L687+32
 2395 0a9c 1878     		ldrb	r0, [r3]	@ zero_extendqisi2
 2396 0a9e FFF7FEFF 		bl	e_i2cp_write
 2397              	.LVL107:
 2398              		.loc 1 543 29 view .LVU800
 2399 0aa2 FFF7FEFF 		bl	e_i2cp_disable
 2400              	.LVL108:
 2401 0aa6 BCE5     		b	.L130
 2402              	.L48:
 2403              		.loc 1 506 25 view .LVU801
 2404              		.loc 1 506 28 is_stmt 0 view .LVU802
 2405 0aa8 BBF1000F 		cmp	fp, #0
 2406 0aac 40F06987 		bne	.L671
 2407              	.L114:
 2408              		.loc 1 509 29 is_stmt 1 view .LVU803
 2409              		.loc 1 509 37 is_stmt 0 view .LVU804
 2410 0ab0 DAF80030 		ldr	r3, [r10]
 2411              		.loc 1 509 41 view .LVU805
 2412 0ab4 0021     		movs	r1, #0
 2413              		.loc 1 509 37 view .LVU806
 2414 0ab6 5A1C     		adds	r2, r3, #1
 2415              		.loc 1 509 41 view .LVU807
 2416 0ab8 09F80310 		strb	r1, [r9, r3]
 2417              		.loc 1 509 37 view .LVU808
 2418 0abc CAF80020 		str	r2, [r10]
 2419 0ac0 ACE5     		b	.L44
 2420              	.L62:
 2421              		.loc 1 291 25 is_stmt 1 view .LVU809
 2422              		.loc 1 291 27 is_stmt 0 view .LVU810
 2423 0ac2 BBF1000F 		cmp	fp, #0
 2424 0ac6 40F0A586 		bne	.L68
 2425              		.loc 1 294 29 is_stmt 1 view .LVU811
 2426              		.loc 1 294 32 is_stmt 0 view .LVU812
 2427 0aca FFF7FEFF 		bl	isEpuckVersion1_3
 2428              	.LVL109:
 2429              		.loc 1 294 31 view .LVU813
 2430 0ace 0028     		cmp	r0, #0
 2431 0ad0 00F0A086 		beq	.L68
 2432              		.loc 1 295 33 is_stmt 1 view .LVU814
 2433              		.loc 1 295 55 is_stmt 0 view .LVU815
 2434 0ad4 354B     		ldr	r3, .L687+36
 2435 0ad6 CDF840B0 		str	fp, [sp, #64]
 2436 0ada CDE90CBB 		strd	fp, fp, [sp, #48]
 2437 0ade CDE90EBB 		strd	fp, fp, [sp, #56]
 2438 0ae2 83ED008A 		vstr.32	s16, [r3]
 2439              		.loc 1 296 33 is_stmt 1 view .LVU816
 2440              		.loc 1 296 54 is_stmt 0 view .LVU817
ARM GAS  /tmp/ccucPY5I.s 			page 49


 2441 0ae6 83ED028A 		vstr.32	s16, [r3, #8]
 2442              		.loc 1 297 33 is_stmt 1 view .LVU818
 2443              		.loc 1 297 54 is_stmt 0 view .LVU819
 2444 0aea 83ED018A 		vstr.32	s16, [r3, #4]
 2445 0aee CDF82CB0 		str	fp, [sp, #44]
 2446 0af2 5946     		mov	r1, fp
 2447 0af4 5846     		mov	r0, fp
 2448 0af6 5C46     		mov	r4, fp
 2449 0af8 DC46     		mov	ip, fp
 2450 0afa DE46     		mov	lr, fp
 2451 0afc 5D46     		mov	r5, fp
 2452              	.L67:
 2453              		.loc 1 302 25 is_stmt 1 view .LVU820
 2454              	.LVL110:
 2455              		.loc 1 303 25 view .LVU821
 2456              		.loc 1 303 33 is_stmt 0 view .LVU822
 2457 0afe DAF80020 		ldr	r2, [r10]
 2458              		.loc 1 305 37 view .LVU823
 2459 0b02 09EB0203 		add	r3, r9, r2
 2460              		.loc 1 303 37 view .LVU824
 2461 0b06 09F80250 		strb	r5, [r9, r2]
 2462              		.loc 1 304 25 is_stmt 1 view .LVU825
 2463              	.LVL111:
 2464              		.loc 1 305 25 view .LVU826
 2465              		.loc 1 314 37 is_stmt 0 view .LVU827
 2466 0b0a 5971     		strb	r1, [r3, #5]
 2467              		.loc 1 316 37 view .LVU828
 2468 0b0c 0F99     		ldr	r1, [sp, #60]
 2469 0b0e 9971     		strb	r1, [r3, #6]
 2470              		.loc 1 318 37 view .LVU829
 2471 0b10 0E99     		ldr	r1, [sp, #56]
 2472 0b12 D971     		strb	r1, [r3, #7]
 2473              		.loc 1 321 37 view .LVU830
 2474 0b14 0B99     		ldr	r1, [sp, #44]
 2475 0b16 1972     		strb	r1, [r3, #8]
 2476              		.loc 1 323 37 view .LVU831
 2477 0b18 1099     		ldr	r1, [sp, #64]
 2478 0b1a 5972     		strb	r1, [r3, #9]
 2479              		.loc 1 325 37 view .LVU832
 2480 0b1c 0D99     		ldr	r1, [sp, #52]
 2481 0b1e 9972     		strb	r1, [r3, #10]
 2482              		.loc 1 327 33 view .LVU833
 2483 0b20 0C32     		adds	r2, r2, #12
 2484              		.loc 1 327 37 view .LVU834
 2485 0b22 0C99     		ldr	r1, [sp, #48]
 2486              		.loc 1 305 37 view .LVU835
 2487 0b24 83F801E0 		strb	lr, [r3, #1]
 2488              		.loc 1 306 25 is_stmt 1 view .LVU836
 2489              	.LVL112:
 2490              		.loc 1 307 25 view .LVU837
 2491              		.loc 1 307 37 is_stmt 0 view .LVU838
 2492 0b28 83F802C0 		strb	ip, [r3, #2]
 2493              		.loc 1 308 25 is_stmt 1 view .LVU839
 2494              	.LVL113:
 2495              		.loc 1 309 25 view .LVU840
 2496              		.loc 1 309 37 is_stmt 0 view .LVU841
 2497 0b2c DC70     		strb	r4, [r3, #3]
ARM GAS  /tmp/ccucPY5I.s 			page 50


 2498              		.loc 1 311 25 is_stmt 1 view .LVU842
 2499              	.LVL114:
 2500              		.loc 1 312 25 view .LVU843
 2501              		.loc 1 312 37 is_stmt 0 view .LVU844
 2502 0b2e 1871     		strb	r0, [r3, #4]
 2503              		.loc 1 313 25 is_stmt 1 view .LVU845
 2504              	.LVL115:
 2505              		.loc 1 314 25 view .LVU846
 2506              		.loc 1 315 25 view .LVU847
 2507              		.loc 1 316 25 view .LVU848
 2508              		.loc 1 317 25 view .LVU849
 2509              		.loc 1 318 25 view .LVU850
 2510              		.loc 1 320 25 view .LVU851
 2511              		.loc 1 321 25 view .LVU852
 2512              		.loc 1 322 25 view .LVU853
 2513              		.loc 1 323 25 view .LVU854
 2514              		.loc 1 324 25 view .LVU855
 2515              		.loc 1 325 25 view .LVU856
 2516              		.loc 1 326 25 view .LVU857
 2517              		.loc 1 327 25 view .LVU858
 2518              		.loc 1 327 37 is_stmt 0 view .LVU859
 2519 0b30 D972     		strb	r1, [r3, #11]
 2520              		.loc 1 328 25 is_stmt 1 view .LVU860
 2521              		.loc 1 327 33 is_stmt 0 view .LVU861
 2522 0b32 CAF80020 		str	r2, [r10]
 2523              		.loc 1 328 25 view .LVU862
 2524 0b36 71E5     		b	.L44
 2525              	.LVL116:
 2526              	.L50:
 2527              		.loc 1 331 25 is_stmt 1 view .LVU863
 2528              		.loc 1 331 29 is_stmt 0 view .LVU864
 2529 0b38 FFF7FEFF 		bl	isEpuckVersion1_3
 2530              	.LVL117:
 2531              		.loc 1 331 28 view .LVU865
 2532 0b3c 0028     		cmp	r0, #0
 2533 0b3e 40F03087 		bne	.L672
 2534              		.loc 1 337 29 is_stmt 1 view .LVU866
 2535              		.loc 1 337 37 is_stmt 0 view .LVU867
 2536 0b42 DAF80030 		ldr	r3, [r10]
 2537              		.loc 1 338 41 view .LVU868
 2538 0b46 09EB0302 		add	r2, r9, r3
 2539              		.loc 1 338 37 view .LVU869
 2540 0b4a 991C     		adds	r1, r3, #2
 2541              		.loc 1 337 41 view .LVU870
 2542 0b4c 09F80300 		strb	r0, [r9, r3]
 2543              		.loc 1 338 29 is_stmt 1 view .LVU871
 2544              		.loc 1 338 37 is_stmt 0 view .LVU872
 2545 0b50 CAF80010 		str	r1, [r10]
 2546              		.loc 1 338 41 view .LVU873
 2547 0b54 5070     		strb	r0, [r2, #1]
 2548 0b56 61E5     		b	.L44
 2549              	.L669:
 2550              		.loc 1 548 29 is_stmt 1 view .LVU874
 2551 0b58 FFF7FEFF 		bl	e_i2cp_enable
 2552              	.LVL118:
 2553              		.loc 1 549 29 view .LVU875
 2554              		.loc 1 549 34 is_stmt 0 view .LVU876
ARM GAS  /tmp/ccucPY5I.s 			page 51


 2555 0b5c 0020     		movs	r0, #0
 2556 0b5e C8F80000 		str	r0, [r8]
 2557              		.loc 1 549 38 is_stmt 1 view .LVU877
 2558 0b62 01E0     		b	.L119
 2559              	.L673:
 2560 0b64 D8F80000 		ldr	r0, [r8]
 2561              	.L119:
 2562              		.loc 1 550 71 discriminator 1 view .LVU878
 2563              		.loc 1 550 39 discriminator 1 view .LVU879
 2564              		.loc 1 550 40 is_stmt 0 discriminator 1 view .LVU880
 2565 0b68 4844     		add	r0, r0, r9
 2566 0b6a FFF7FEFF 		bl	e_getchar_uart1
 2567              	.LVL119:
 2568              		.loc 1 550 39 discriminator 1 view .LVU881
 2569 0b6e 0028     		cmp	r0, #0
 2570 0b70 F8D0     		beq	.L673
 2571              		.loc 1 549 44 is_stmt 1 discriminator 2 view .LVU882
 2572              		.loc 1 549 45 is_stmt 0 discriminator 2 view .LVU883
 2573 0b72 D8F80000 		ldr	r0, [r8]
 2574 0b76 0130     		adds	r0, r0, #1
 2575              		.loc 1 549 29 discriminator 2 view .LVU884
 2576 0b78 1728     		cmp	r0, #23
 2577              		.loc 1 549 45 discriminator 2 view .LVU885
 2578 0b7a C8F80000 		str	r0, [r8]
 2579              		.loc 1 549 38 is_stmt 1 discriminator 2 view .LVU886
 2580              		.loc 1 549 29 is_stmt 0 discriminator 2 view .LVU887
 2581 0b7e F3DD     		ble	.L119
 2582              		.loc 1 552 29 is_stmt 1 view .LVU888
 2583              		.loc 1 552 34 is_stmt 0 view .LVU889
 2584 0b80 9220     		movs	r0, #146
 2585 0b82 C8F80000 		str	r0, [r8]
 2586              		.loc 1 552 40 is_stmt 1 view .LVU890
 2587 0b86 15E0     		b	.L122
 2588              	.L688:
 2589              		.align	2
 2590              	.L687:
 2591 0b88 00000000 		.word	.LANCHOR16
 2592 0b8c 00000000 		.word	.LANCHOR17
 2593 0b90 00000000 		.word	.LANCHOR8
 2594 0b94 00000000 		.word	.LANCHOR7
 2595 0b98 00000000 		.word	.LANCHOR24
 2596 0b9c 00000000 		.word	.LANCHOR23
 2597 0ba0 00000000 		.word	.LANCHOR26
 2598 0ba4 00000000 		.word	.LANCHOR27
 2599 0ba8 00000000 		.word	.LANCHOR25
 2600 0bac 00000000 		.word	.LANCHOR15
 2601              	.L674:
 2602 0bb0 D8F80000 		ldr	r0, [r8]
 2603              	.L122:
 2604              		.loc 1 553 75 discriminator 1 view .LVU891
 2605              		.loc 1 553 39 discriminator 1 view .LVU892
 2606              		.loc 1 553 65 is_stmt 0 discriminator 1 view .LVU893
 2607 0bb4 7A38     		subs	r0, r0, #122
 2608              		.loc 1 553 40 discriminator 1 view .LVU894
 2609 0bb6 4844     		add	r0, r0, r9
 2610 0bb8 FFF7FEFF 		bl	e_getchar_uart1
 2611              	.LVL120:
ARM GAS  /tmp/ccucPY5I.s 			page 52


 2612              		.loc 1 553 39 discriminator 1 view .LVU895
 2613 0bbc 0028     		cmp	r0, #0
 2614 0bbe F7D0     		beq	.L674
 2615              		.loc 1 552 47 is_stmt 1 discriminator 2 view .LVU896
 2616              		.loc 1 552 48 is_stmt 0 discriminator 2 view .LVU897
 2617 0bc0 D8F80000 		ldr	r0, [r8]
 2618 0bc4 0130     		adds	r0, r0, #1
 2619              		.loc 1 552 29 discriminator 2 view .LVU898
 2620 0bc6 9428     		cmp	r0, #148
 2621              		.loc 1 552 48 discriminator 2 view .LVU899
 2622 0bc8 C8F80000 		str	r0, [r8]
 2623              		.loc 1 552 40 is_stmt 1 discriminator 2 view .LVU900
 2624              		.loc 1 552 29 is_stmt 0 discriminator 2 view .LVU901
 2625 0bcc F2DD     		ble	.L122
 2626              		.loc 1 555 29 is_stmt 1 view .LVU902
 2627              		.loc 1 555 34 is_stmt 0 view .LVU903
 2628 0bce A420     		movs	r0, #164
 2629 0bd0 C8F80000 		str	r0, [r8]
 2630              		.loc 1 555 40 is_stmt 1 view .LVU904
 2631 0bd4 01E0     		b	.L125
 2632              	.L675:
 2633 0bd6 D8F80000 		ldr	r0, [r8]
 2634              	.L125:
 2635              		.loc 1 556 75 discriminator 1 view .LVU905
 2636              		.loc 1 556 39 discriminator 1 view .LVU906
 2637              		.loc 1 556 65 is_stmt 0 discriminator 1 view .LVU907
 2638 0bda 8938     		subs	r0, r0, #137
 2639              		.loc 1 556 40 discriminator 1 view .LVU908
 2640 0bdc 4844     		add	r0, r0, r9
 2641 0bde FFF7FEFF 		bl	e_getchar_uart1
 2642              	.LVL121:
 2643              		.loc 1 556 39 discriminator 1 view .LVU909
 2644 0be2 0028     		cmp	r0, #0
 2645 0be4 F7D0     		beq	.L675
 2646              		.loc 1 555 47 is_stmt 1 discriminator 2 view .LVU910
 2647              		.loc 1 555 48 is_stmt 0 discriminator 2 view .LVU911
 2648 0be6 D8F80000 		ldr	r0, [r8]
 2649 0bea 0130     		adds	r0, r0, #1
 2650              		.loc 1 555 29 discriminator 2 view .LVU912
 2651 0bec AB28     		cmp	r0, #171
 2652              		.loc 1 555 48 discriminator 2 view .LVU913
 2653 0bee C8F80000 		str	r0, [r8]
 2654              		.loc 1 555 40 is_stmt 1 discriminator 2 view .LVU914
 2655              		.loc 1 555 29 is_stmt 0 discriminator 2 view .LVU915
 2656 0bf2 F2DD     		ble	.L125
 2657              		.loc 1 558 29 is_stmt 1 view .LVU916
 2658              		.loc 1 558 34 is_stmt 0 view .LVU917
 2659 0bf4 0021     		movs	r1, #0
 2660 0bf6 C8F80010 		str	r1, [r8]
 2661              		.loc 1 558 38 is_stmt 1 view .LVU918
 2662              	.L127:
 2663              		.loc 1 559 33 discriminator 3 view .LVU919
 2664 0bfa 19F80120 		ldrb	r2, [r9, r1]	@ zero_extendqisi2
 2665 0bfe B020     		movs	r0, #176
 2666 0c00 C9B2     		uxtb	r1, r1
 2667 0c02 FFF7FEFF 		bl	e_i2cp_write
 2668              	.LVL122:
ARM GAS  /tmp/ccucPY5I.s 			page 53


 2669              		.loc 1 558 44 discriminator 3 view .LVU920
 2670              		.loc 1 558 45 is_stmt 0 discriminator 3 view .LVU921
 2671 0c06 D8F80010 		ldr	r1, [r8]
 2672 0c0a 0131     		adds	r1, r1, #1
 2673              		.loc 1 558 29 discriminator 3 view .LVU922
 2674 0c0c 1729     		cmp	r1, #23
 2675              		.loc 1 558 45 discriminator 3 view .LVU923
 2676 0c0e C8F80010 		str	r1, [r8]
 2677              		.loc 1 558 38 is_stmt 1 discriminator 3 view .LVU924
 2678              		.loc 1 558 29 is_stmt 0 discriminator 3 view .LVU925
 2679 0c12 F2DD     		ble	.L127
 2680              		.loc 1 561 29 is_stmt 1 view .LVU926
 2681              		.loc 1 561 34 is_stmt 0 view .LVU927
 2682 0c14 9221     		movs	r1, #146
 2683 0c16 C8F80010 		str	r1, [r8]
 2684              		.loc 1 561 40 is_stmt 1 view .LVU928
 2685              	.L128:
 2686              		.loc 1 562 33 discriminator 3 view .LVU929
 2687 0c1a 09EB0103 		add	r3, r9, r1
 2688 0c1e B020     		movs	r0, #176
 2689 0c20 C9B2     		uxtb	r1, r1
 2690 0c22 13F87A2C 		ldrb	r2, [r3, #-122]	@ zero_extendqisi2
 2691 0c26 FFF7FEFF 		bl	e_i2cp_write
 2692              	.LVL123:
 2693              		.loc 1 561 47 discriminator 3 view .LVU930
 2694              		.loc 1 561 48 is_stmt 0 discriminator 3 view .LVU931
 2695 0c2a D8F80010 		ldr	r1, [r8]
 2696 0c2e 0131     		adds	r1, r1, #1
 2697              		.loc 1 561 29 discriminator 3 view .LVU932
 2698 0c30 9429     		cmp	r1, #148
 2699              		.loc 1 561 48 discriminator 3 view .LVU933
 2700 0c32 C8F80010 		str	r1, [r8]
 2701              		.loc 1 561 40 is_stmt 1 discriminator 3 view .LVU934
 2702              		.loc 1 561 29 is_stmt 0 discriminator 3 view .LVU935
 2703 0c36 F0DD     		ble	.L128
 2704              		.loc 1 564 29 is_stmt 1 view .LVU936
 2705              		.loc 1 564 34 is_stmt 0 view .LVU937
 2706 0c38 A421     		movs	r1, #164
 2707 0c3a C8F80010 		str	r1, [r8]
 2708              		.loc 1 564 40 is_stmt 1 view .LVU938
 2709              	.L129:
 2710              		.loc 1 565 33 discriminator 3 view .LVU939
 2711 0c3e 09EB0103 		add	r3, r9, r1
 2712 0c42 B020     		movs	r0, #176
 2713 0c44 C9B2     		uxtb	r1, r1
 2714 0c46 13F8892C 		ldrb	r2, [r3, #-137]	@ zero_extendqisi2
 2715 0c4a FFF7FEFF 		bl	e_i2cp_write
 2716              	.LVL124:
 2717              		.loc 1 564 47 discriminator 3 view .LVU940
 2718              		.loc 1 564 48 is_stmt 0 discriminator 3 view .LVU941
 2719 0c4e D8F80010 		ldr	r1, [r8]
 2720 0c52 0131     		adds	r1, r1, #1
 2721              		.loc 1 564 29 discriminator 3 view .LVU942
 2722 0c54 AB29     		cmp	r1, #171
 2723              		.loc 1 564 48 discriminator 3 view .LVU943
 2724 0c56 C8F80010 		str	r1, [r8]
 2725              		.loc 1 564 40 is_stmt 1 discriminator 3 view .LVU944
ARM GAS  /tmp/ccucPY5I.s 			page 54


 2726              		.loc 1 564 29 is_stmt 0 discriminator 3 view .LVU945
 2727 0c5a F0DD     		ble	.L129
 2728              		.loc 1 567 29 is_stmt 1 view .LVU946
 2729 0c5c 0122     		movs	r2, #1
 2730 0c5e 9121     		movs	r1, #145
 2731 0c60 B020     		movs	r0, #176
 2732 0c62 FFF7FEFF 		bl	e_i2cp_write
 2733              	.LVL125:
 2734              		.loc 1 568 29 view .LVU947
 2735 0c66 FFF7FEFF 		bl	e_i2cp_disable
 2736              	.LVL126:
 2737 0c6a DAE4     		b	.L130
 2738              	.LVL127:
 2739              	.L159:
 2740              	.LBB4:
 2741              		.loc 1 1071 21 view .LVU948
 2742              		.loc 1 1071 24 is_stmt 0 view .LVU949
 2743 0c6c 099B     		ldr	r3, [sp, #36]
 2744              		.loc 1 1072 25 view .LVU950
 2745 0c6e 6E48     		ldr	r0, .L689
 2746 0c70 1521     		movs	r1, #21
 2747              		.loc 1 1071 24 view .LVU951
 2748 0c72 002B     		cmp	r3, #0
 2749 0c74 00F0F586 		beq	.L351
 2750              		.loc 1 1072 25 is_stmt 1 view .LVU952
 2751              		.loc 1 1072 25 view .LVU953
 2752 0c78 FFF7FEFF 		bl	e_send_uart1_char
 2753              	.LVL128:
 2754              		.loc 1 1072 25 view .LVU954
 2755              	.L352:
 2756              		.loc 1 1072 25 discriminator 2 view .LVU955
 2757              		.loc 1 1072 25 discriminator 2 view .LVU956
 2758 0c7c FFF7FEFF 		bl	e_uart1_sending
 2759              	.LVL129:
 2760 0c80 0028     		cmp	r0, #0
 2761 0c82 FBD1     		bne	.L352
 2762 0c84 FFF74BBA 		b	.L4
 2763              	.L157:
 2764              		.loc 1 701 21 view .LVU957
 2765              		.loc 1 701 24 is_stmt 0 view .LVU958
 2766 0c88 099B     		ldr	r3, [sp, #36]
 2767 0c8a 002B     		cmp	r3, #0
 2768 0c8c 00F0F186 		beq	.L212
 2769              		.loc 1 701 35 discriminator 1 view .LVU959
 2770 0c90 FFF7FEFF 		bl	isEpuckVersion1_3
 2771              	.LVL130:
 2772              		.loc 1 701 32 discriminator 1 view .LVU960
 2773 0c94 0028     		cmp	r0, #0
 2774 0c96 41F08681 		bne	.L676
 2775              		.loc 1 704 25 is_stmt 1 view .LVU961
 2776 0c9a 644B     		ldr	r3, .L689+4
 2777 0c9c 93E80700 		ldm	r3, {r0, r1, r2}
 2778 0ca0 634B     		ldr	r3, .L689+8
 2779 0ca2 03C3     		stmia	r3!, {r0, r1}
 2780 0ca4 1A80     		strh	r2, [r3]	@ movhi
 2781              		.loc 1 706 21 view .LVU962
 2782              	.L360:
ARM GAS  /tmp/ccucPY5I.s 			page 55


 2783              		.loc 1 707 25 view .LVU963
 2784              		.loc 1 707 25 view .LVU964
 2785 0ca6 6248     		ldr	r0, .L689+8
 2786 0ca8 FFF7FEFF 		bl	strlen
 2787              	.LVL131:
 2788 0cac 0146     		mov	r1, r0
 2789 0cae 6048     		ldr	r0, .L689+8
 2790 0cb0 FFF7FEFF 		bl	e_send_uart1_char
 2791              	.LVL132:
 2792              		.loc 1 707 25 view .LVU965
 2793              	.L214:
 2794              		.loc 1 707 25 discriminator 2 view .LVU966
 2795              		.loc 1 707 25 discriminator 2 view .LVU967
 2796 0cb4 FFF7FEFF 		bl	e_uart1_sending
 2797              	.LVL133:
 2798 0cb8 0028     		cmp	r0, #0
 2799 0cba FBD1     		bne	.L214
 2800 0cbc FFF72FBA 		b	.L4
 2801              	.L151:
 2802              		.loc 1 636 21 view .LVU968
 2803              		.loc 1 636 25 is_stmt 0 view .LVU969
 2804 0cc0 FFF7FEFF 		bl	isEpuckVersion1_3
 2805              	.LVL134:
 2806              		.loc 1 636 24 view .LVU970
 2807 0cc4 0246     		mov	r2, r0
 2808 0cc6 0028     		cmp	r0, #0
 2809 0cc8 00F0F086 		beq	.L191
 2810              		.loc 1 637 25 is_stmt 1 view .LVU971
 2811 0ccc FFF7FEFF 		bl	getBatteryValueRaw
 2812              	.LVL135:
 2813 0cd0 0A90     		str	r0, [sp, #40]
 2814 0cd2 FFF7FEFF 		bl	getBatteryValuePercentage
 2815              	.LVL136:
 2816 0cd6 0A9A     		ldr	r2, [sp, #40]
 2817 0cd8 5649     		ldr	r1, .L689+12
 2818 0cda 0346     		mov	r3, r0
 2819 0cdc 5448     		ldr	r0, .L689+8
 2820 0cde FFF7FEFF 		bl	sprintf
 2821              	.LVL137:
 2822              	.L192:
 2823              		.loc 1 641 21 view .LVU972
 2824              		.loc 1 641 24 is_stmt 0 view .LVU973
 2825 0ce2 099B     		ldr	r3, [sp, #36]
 2826              		.loc 1 642 25 view .LVU974
 2827 0ce4 5248     		ldr	r0, .L689+8
 2828              		.loc 1 641 24 view .LVU975
 2829 0ce6 002B     		cmp	r3, #0
 2830 0ce8 00F0D486 		beq	.L193
 2831              		.loc 1 642 25 is_stmt 1 view .LVU976
 2832              		.loc 1 642 25 view .LVU977
 2833 0cec FFF7FEFF 		bl	strlen
 2834              	.LVL138:
 2835 0cf0 0146     		mov	r1, r0
 2836 0cf2 4F48     		ldr	r0, .L689+8
 2837 0cf4 FFF7FEFF 		bl	e_send_uart1_char
 2838              	.LVL139:
 2839              		.loc 1 642 25 view .LVU978
ARM GAS  /tmp/ccucPY5I.s 			page 56


 2840              	.L194:
 2841              		.loc 1 642 25 discriminator 2 view .LVU979
 2842              		.loc 1 642 25 discriminator 2 view .LVU980
 2843 0cf8 FFF7FEFF 		bl	e_uart1_sending
 2844              	.LVL140:
 2845 0cfc 0028     		cmp	r0, #0
 2846 0cfe FBD1     		bne	.L194
 2847 0d00 FFF70DBA 		b	.L4
 2848              	.L160:
 2849              		.loc 1 998 21 view .LVU981
 2850              		.loc 1 998 24 is_stmt 0 view .LVU982
 2851 0d04 099B     		ldr	r3, [sp, #36]
 2852 0d06 002B     		cmp	r3, #0
 2853 0d08 01F09180 		beq	.L330
 2854              		.loc 1 998 35 discriminator 1 view .LVU983
 2855 0d0c FFF7FEFF 		bl	isEpuckVersion1_3
 2856              	.LVL141:
 2857              		.loc 1 998 32 discriminator 1 view .LVU984
 2858 0d10 0028     		cmp	r0, #0
 2859 0d12 41F03581 		bne	.L677
 2860              		.loc 1 1001 25 is_stmt 1 view .LVU985
 2861 0d16 484B     		ldr	r3, .L689+16
 2862 0d18 93E80300 		ldm	r3, {r0, r1}
 2863 0d1c 474B     		ldr	r3, .L689+20
 2864 0d1e C9F80000 		str	r0, [r9]
 2865 0d22 1980     		strh	r1, [r3]	@ movhi
 2866              		.loc 1 1003 21 view .LVU986
 2867              	.L361:
 2868              		.loc 1 1004 25 view .LVU987
 2869              		.loc 1 1004 25 view .LVU988
 2870 0d24 4248     		ldr	r0, .L689+8
 2871 0d26 FFF7FEFF 		bl	strlen
 2872              	.LVL142:
 2873 0d2a 0146     		mov	r1, r0
 2874 0d2c 4048     		ldr	r0, .L689+8
 2875 0d2e FFF7FEFF 		bl	e_send_uart1_char
 2876              	.LVL143:
 2877              		.loc 1 1004 25 view .LVU989
 2878              	.L332:
 2879              		.loc 1 1004 25 discriminator 2 view .LVU990
 2880              		.loc 1 1004 25 discriminator 2 view .LVU991
 2881 0d32 FFF7FEFF 		bl	e_uart1_sending
 2882              	.LVL144:
 2883 0d36 0028     		cmp	r0, #0
 2884 0d38 FBD1     		bne	.L332
 2885 0d3a FFF7F0B9 		b	.L4
 2886              	.L162:
 2887              		.loc 1 1058 21 view .LVU992
 2888              		.loc 1 1058 24 is_stmt 0 view .LVU993
 2889 0d3e 099B     		ldr	r3, [sp, #36]
 2890 0d40 002B     		cmp	r3, #0
 2891 0d42 3FF46EAB 		beq	.L623
 2892              		.loc 1 1059 25 is_stmt 1 view .LVU994
 2893              		.loc 1 1059 32 is_stmt 0 view .LVU995
 2894 0d46 0223     		movs	r3, #2
 2895              		.loc 1 1064 33 view .LVU996
 2896 0d48 3D4D     		ldr	r5, .L689+24
ARM GAS  /tmp/ccucPY5I.s 			page 57


 2897 0d4a 394C     		ldr	r4, .L689+8
 2898              		.loc 1 1059 32 view .LVU997
 2899 0d4c C8F80030 		str	r3, [r8]
 2900              		.loc 1 1059 37 is_stmt 1 view .LVU998
 2901 0d50 07E0     		b	.L348
 2902              	.L350:
 2903              		.loc 1 1065 33 view .LVU999
 2904              		.loc 1 1059 46 view .LVU1000
 2905              		.loc 1 1059 52 is_stmt 0 view .LVU1001
 2906 0d52 D8F80030 		ldr	r3, [r8]
 2907 0d56 0233     		adds	r3, r3, #2
 2908              		.loc 1 1059 25 view .LVU1002
 2909 0d58 FE2B     		cmp	r3, #254
 2910              		.loc 1 1059 48 view .LVU1003
 2911 0d5a C8F80030 		str	r3, [r8]
 2912              		.loc 1 1059 37 is_stmt 1 view .LVU1004
 2913              		.loc 1 1059 25 is_stmt 0 view .LVU1005
 2914 0d5e 3FF7DEA9 		bgt	.L4
 2915              	.L348:
 2916              		.loc 1 1060 29 is_stmt 1 view .LVU1006
 2917 0d62 FFF7FEFF 		bl	e_i2cp_enable
 2918              	.LVL145:
 2919              		.loc 1 1061 29 view .LVU1007
 2920              		.loc 1 1061 35 is_stmt 0 view .LVU1008
 2921 0d66 0021     		movs	r1, #0
 2922 0d68 98F80000 		ldrb	r0, [r8]	@ zero_extendqisi2
 2923 0d6c FFF7FEFF 		bl	e_i2cp_read
 2924              	.LVL146:
 2925 0d70 344B     		ldr	r3, .L689+28
 2926 0d72 1E46     		mov	r6, r3
 2927 0d74 1860     		str	r0, [r3]
 2928              		.loc 1 1062 29 is_stmt 1 view .LVU1009
 2929 0d76 FFF7FEFF 		bl	e_i2cp_disable
 2930              	.LVL147:
 2931              		.loc 1 1063 29 view .LVU1010
 2932              		.loc 1 1063 37 is_stmt 0 view .LVU1011
 2933 0d7a 3368     		ldr	r3, [r6]
 2934              		.loc 1 1063 32 view .LVU1012
 2935 0d7c 002B     		cmp	r3, #0
 2936 0d7e E8DB     		blt	.L350
 2937              		.loc 1 1064 33 is_stmt 1 view .LVU1013
 2938 0d80 2946     		mov	r1, r5
 2939 0d82 D8F80020 		ldr	r2, [r8]
 2940 0d86 2046     		mov	r0, r4
 2941 0d88 FFF7FEFF 		bl	sprintf
 2942              	.LVL148:
 2943              		.loc 1 1065 33 view .LVU1014
 2944              		.loc 1 1065 33 view .LVU1015
 2945 0d8c 2046     		mov	r0, r4
 2946 0d8e FFF7FEFF 		bl	strlen
 2947              	.LVL149:
 2948 0d92 0146     		mov	r1, r0
 2949 0d94 2046     		mov	r0, r4
 2950 0d96 FFF7FEFF 		bl	e_send_uart1_char
 2951              	.LVL150:
 2952              		.loc 1 1065 33 view .LVU1016
 2953              	.L349:
ARM GAS  /tmp/ccucPY5I.s 			page 58


 2954              		.loc 1 1065 33 discriminator 2 view .LVU1017
 2955              		.loc 1 1065 33 discriminator 2 view .LVU1018
 2956 0d9a FFF7FEFF 		bl	e_uart1_sending
 2957              	.LVL151:
 2958 0d9e 0028     		cmp	r0, #0
 2959 0da0 FBD1     		bne	.L349
 2960 0da2 D6E7     		b	.L350
 2961              	.L170:
 2962              		.loc 1 932 21 view .LVU1019
 2963 0da4 2849     		ldr	r1, .L689+32
 2964 0da6 294A     		ldr	r2, .L689+36
 2965 0da8 294B     		ldr	r3, .L689+40
 2966 0daa 2148     		ldr	r0, .L689+8
 2967 0dac FFF7FEFF 		bl	sscanf
 2968              	.LVL152:
 2969              		.loc 1 933 21 view .LVU1020
 2970 0db0 264B     		ldr	r3, .L689+36
 2971 0db2 1868     		ldr	r0, [r3]
 2972 0db4 FFF7FEFF 		bl	e_set_steps_left
 2973              	.LVL153:
 2974              		.loc 1 934 21 view .LVU1021
 2975 0db8 254B     		ldr	r3, .L689+40
 2976 0dba 1868     		ldr	r0, [r3]
 2977 0dbc FFF7FEFF 		bl	e_set_steps_right
 2978              	.LVL154:
 2979              		.loc 1 935 21 view .LVU1022
 2980              		.loc 1 935 24 is_stmt 0 view .LVU1023
 2981 0dc0 099B     		ldr	r3, [sp, #36]
 2982              		.loc 1 936 25 view .LVU1024
 2983 0dc2 2448     		ldr	r0, .L689+44
 2984 0dc4 0321     		movs	r1, #3
 2985              		.loc 1 935 24 view .LVU1025
 2986 0dc6 002B     		cmp	r3, #0
 2987 0dc8 01F04280 		beq	.L309
 2988              		.loc 1 936 25 is_stmt 1 view .LVU1026
 2989              		.loc 1 936 25 view .LVU1027
 2990 0dcc FFF7FEFF 		bl	e_send_uart1_char
 2991              	.LVL155:
 2992              		.loc 1 936 25 view .LVU1028
 2993              	.L310:
 2994              		.loc 1 936 25 discriminator 2 view .LVU1029
 2995              		.loc 1 936 25 discriminator 2 view .LVU1030
 2996 0dd0 FFF7FEFF 		bl	e_uart1_sending
 2997              	.LVL156:
 2998 0dd4 0028     		cmp	r0, #0
 2999 0dd6 FBD1     		bne	.L310
 3000 0dd8 FFF7A1B9 		b	.L4
 3001              	.L166:
 3002              		.loc 1 1011 21 view .LVU1031
 3003 0ddc 0020     		movs	r0, #0
 3004 0dde FFF7FEFF 		bl	e_get_micro_volume
 3005              	.LVL157:
 3006 0de2 0246     		mov	r2, r0
 3007 0de4 0120     		movs	r0, #1
 3008 0de6 0B92     		str	r2, [sp, #44]
 3009 0de8 FFF7FEFF 		bl	e_get_micro_volume
 3010              	.LVL158:
ARM GAS  /tmp/ccucPY5I.s 			page 59


 3011 0dec 0346     		mov	r3, r0
 3012 0dee 0220     		movs	r0, #2
 3013 0df0 0A93     		str	r3, [sp, #40]
 3014 0df2 FFF7FEFF 		bl	e_get_micro_volume
 3015              	.LVL159:
 3016 0df6 DDE90A32 		ldrd	r3, r2, [sp, #40]
 3017 0dfa 0090     		str	r0, [sp]
 3018 0dfc 1649     		ldr	r1, .L689+48
 3019 0dfe 0C48     		ldr	r0, .L689+8
 3020 0e00 FFF7FEFF 		bl	sprintf
 3021              	.LVL160:
 3022              		.loc 1 1012 21 view .LVU1032
 3023              		.loc 1 1012 24 is_stmt 0 view .LVU1033
 3024 0e04 099B     		ldr	r3, [sp, #36]
 3025              		.loc 1 1013 25 view .LVU1034
 3026 0e06 0A48     		ldr	r0, .L689+8
 3027              		.loc 1 1012 24 view .LVU1035
 3028 0e08 002B     		cmp	r3, #0
 3029 0e0a 01F04780 		beq	.L334
 3030              		.loc 1 1013 25 is_stmt 1 view .LVU1036
 3031              		.loc 1 1013 25 view .LVU1037
 3032 0e0e FFF7FEFF 		bl	strlen
 3033              	.LVL161:
 3034 0e12 0146     		mov	r1, r0
 3035 0e14 0648     		ldr	r0, .L689+8
 3036 0e16 FFF7FEFF 		bl	e_send_uart1_char
 3037              	.LVL162:
 3038              		.loc 1 1013 25 view .LVU1038
 3039              	.L335:
 3040              		.loc 1 1013 25 discriminator 2 view .LVU1039
 3041              		.loc 1 1013 25 discriminator 2 view .LVU1040
 3042 0e1a FFF7FEFF 		bl	e_uart1_sending
 3043              	.LVL163:
 3044 0e1e 0028     		cmp	r0, #0
 3045 0e20 FBD1     		bne	.L335
 3046 0e22 FFF77CB9 		b	.L4
 3047              	.L690:
 3048 0e26 00BF     		.align	2
 3049              	.L689:
 3050 0e28 240A0000 		.word	.LC89
 3051 0e2c 6C0A0000 		.word	.LC92
 3052 0e30 00000000 		.word	buffer
 3053 0e34 78000000 		.word	.LC3
 3054 0e38 780A0000 		.word	.LC93
 3055 0e3c 04000000 		.word	buffer+4
 3056 0e40 180A0000 		.word	.LC88
 3057 0e44 00000000 		.word	.LANCHOR27
 3058 0e48 7C090000 		.word	.LC74
 3059 0e4c 00000000 		.word	.LANCHOR24
 3060 0e50 00000000 		.word	.LANCHOR23
 3061 0e54 88090000 		.word	.LC75
 3062 0e58 B0090000 		.word	.LC81
 3063              	.L178:
 3064              		.loc 1 714 21 view .LVU1041
 3065              		.loc 1 714 24 is_stmt 0 view .LVU1042
 3066 0e5c 099B     		ldr	r3, [sp, #36]
 3067              		.loc 1 715 25 view .LVU1043
ARM GAS  /tmp/ccucPY5I.s 			page 60


 3068 0e5e B248     		ldr	r0, .L691
 3069 0e60 0121     		movs	r1, #1
 3070              		.loc 1 714 24 view .LVU1044
 3071 0e62 002B     		cmp	r3, #0
 3072 0e64 00F0AC86 		beq	.L216
 3073              		.loc 1 715 25 is_stmt 1 view .LVU1045
 3074              		.loc 1 715 25 view .LVU1046
 3075 0e68 FFF7FEFF 		bl	e_send_uart1_char
 3076              	.LVL164:
 3077              		.loc 1 715 25 view .LVU1047
 3078              	.L217:
 3079              		.loc 1 715 25 discriminator 2 view .LVU1048
 3080              		.loc 1 715 25 discriminator 2 view .LVU1049
 3081 0e6c FFF7FEFF 		bl	e_uart1_sending
 3082              	.LVL165:
 3083 0e70 0028     		cmp	r0, #0
 3084 0e72 FBD1     		bne	.L217
 3085              		.loc 1 715 25 discriminator 3 view .LVU1050
 3086              		.loc 1 716 25 discriminator 3 view .LVU1051
 3087              		.loc 1 716 25 discriminator 3 view .LVU1052
 3088 0e74 AD48     		ldr	r0, .L691+4
 3089 0e76 2121     		movs	r1, #33
 3090 0e78 FFF7FEFF 		bl	e_send_uart1_char
 3091              	.LVL166:
 3092              		.loc 1 716 25 discriminator 3 view .LVU1053
 3093              	.L218:
 3094              		.loc 1 716 25 discriminator 2 view .LVU1054
 3095              		.loc 1 716 25 discriminator 2 view .LVU1055
 3096 0e7c FFF7FEFF 		bl	e_uart1_sending
 3097              	.LVL167:
 3098 0e80 0028     		cmp	r0, #0
 3099 0e82 FBD1     		bne	.L218
 3100              		.loc 1 716 25 discriminator 3 view .LVU1056
 3101              		.loc 1 717 25 discriminator 3 view .LVU1057
 3102              		.loc 1 717 25 discriminator 3 view .LVU1058
 3103 0e84 AA48     		ldr	r0, .L691+8
 3104 0e86 3121     		movs	r1, #49
 3105 0e88 FFF7FEFF 		bl	e_send_uart1_char
 3106              	.LVL168:
 3107              		.loc 1 717 25 discriminator 3 view .LVU1059
 3108              	.L219:
 3109              		.loc 1 717 25 discriminator 2 view .LVU1060
 3110              		.loc 1 717 25 discriminator 2 view .LVU1061
 3111 0e8c FFF7FEFF 		bl	e_uart1_sending
 3112              	.LVL169:
 3113 0e90 0028     		cmp	r0, #0
 3114 0e92 FBD1     		bne	.L219
 3115              		.loc 1 717 25 discriminator 3 view .LVU1062
 3116              		.loc 1 718 25 discriminator 3 view .LVU1063
 3117              		.loc 1 718 29 is_stmt 0 discriminator 3 view .LVU1064
 3118 0e94 FFF7FEFF 		bl	isEpuckVersion1_3
 3119              	.LVL170:
 3120              		.loc 1 718 28 discriminator 3 view .LVU1065
 3121 0e98 0028     		cmp	r0, #0
 3122 0e9a 01F07A80 		beq	.L220
 3123              		.loc 1 719 29 is_stmt 1 view .LVU1066
 3124              		.loc 1 719 29 view .LVU1067
ARM GAS  /tmp/ccucPY5I.s 			page 61


 3125 0e9e A548     		ldr	r0, .L691+12
 3126 0ea0 2121     		movs	r1, #33
 3127 0ea2 FFF7FEFF 		bl	e_send_uart1_char
 3128              	.LVL171:
 3129              		.loc 1 719 29 view .LVU1068
 3130              	.L221:
 3131              		.loc 1 719 29 discriminator 2 view .LVU1069
 3132              		.loc 1 719 29 discriminator 2 view .LVU1070
 3133 0ea6 FFF7FEFF 		bl	e_uart1_sending
 3134              	.LVL172:
 3135 0eaa 0028     		cmp	r0, #0
 3136 0eac FBD1     		bne	.L221
 3137              	.L224:
 3138              		.loc 1 721 29 view .LVU1071
 3139              		.loc 1 723 25 view .LVU1072
 3140              		.loc 1 723 25 view .LVU1073
 3141 0eae A248     		ldr	r0, .L691+16
 3142 0eb0 2521     		movs	r1, #37
 3143 0eb2 FFF7FEFF 		bl	e_send_uart1_char
 3144              	.LVL173:
 3145              		.loc 1 723 25 view .LVU1074
 3146              	.L222:
 3147              		.loc 1 723 25 discriminator 2 view .LVU1075
 3148              		.loc 1 723 25 discriminator 2 view .LVU1076
 3149 0eb6 FFF7FEFF 		bl	e_uart1_sending
 3150              	.LVL174:
 3151 0eba 0028     		cmp	r0, #0
 3152 0ebc FBD1     		bne	.L222
 3153              		.loc 1 723 25 discriminator 3 view .LVU1077
 3154              		.loc 1 724 25 discriminator 3 view .LVU1078
 3155              		.loc 1 724 25 discriminator 3 view .LVU1079
 3156 0ebe 9F48     		ldr	r0, .L691+20
 3157 0ec0 2E21     		movs	r1, #46
 3158 0ec2 FFF7FEFF 		bl	e_send_uart1_char
 3159              	.LVL175:
 3160              		.loc 1 724 25 discriminator 3 view .LVU1080
 3161              	.L225:
 3162              		.loc 1 724 25 discriminator 2 view .LVU1081
 3163              		.loc 1 724 25 discriminator 2 view .LVU1082
 3164 0ec6 FFF7FEFF 		bl	e_uart1_sending
 3165              	.LVL176:
 3166 0eca 0028     		cmp	r0, #0
 3167 0ecc FBD1     		bne	.L225
 3168              		.loc 1 724 25 discriminator 3 view .LVU1083
 3169              		.loc 1 725 25 discriminator 3 view .LVU1084
 3170              		.loc 1 725 25 discriminator 3 view .LVU1085
 3171 0ece 9C48     		ldr	r0, .L691+24
 3172 0ed0 2E21     		movs	r1, #46
 3173 0ed2 FFF7FEFF 		bl	e_send_uart1_char
 3174              	.LVL177:
 3175              		.loc 1 725 25 discriminator 3 view .LVU1086
 3176              	.L226:
 3177              		.loc 1 725 25 discriminator 2 view .LVU1087
 3178              		.loc 1 725 25 discriminator 2 view .LVU1088
 3179 0ed6 FFF7FEFF 		bl	e_uart1_sending
 3180              	.LVL178:
 3181 0eda 0028     		cmp	r0, #0
ARM GAS  /tmp/ccucPY5I.s 			page 62


 3182 0edc FBD1     		bne	.L226
 3183              		.loc 1 725 25 discriminator 3 view .LVU1089
 3184              		.loc 1 726 25 discriminator 3 view .LVU1090
 3185              		.loc 1 726 25 discriminator 3 view .LVU1091
 3186 0ede 9948     		ldr	r0, .L691+28
 3187 0ee0 3221     		movs	r1, #50
 3188 0ee2 FFF7FEFF 		bl	e_send_uart1_char
 3189              	.LVL179:
 3190              		.loc 1 726 25 discriminator 3 view .LVU1092
 3191              	.L227:
 3192              		.loc 1 726 25 discriminator 2 view .LVU1093
 3193              		.loc 1 726 25 discriminator 2 view .LVU1094
 3194 0ee6 FFF7FEFF 		bl	e_uart1_sending
 3195              	.LVL180:
 3196 0eea 0028     		cmp	r0, #0
 3197 0eec FBD1     		bne	.L227
 3198              		.loc 1 726 25 discriminator 3 view .LVU1095
 3199              		.loc 1 728 25 discriminator 3 view .LVU1096
 3200              		.loc 1 728 25 discriminator 3 view .LVU1097
 3201 0eee 9648     		ldr	r0, .L691+32
 3202 0ef0 1F21     		movs	r1, #31
 3203 0ef2 FFF7FEFF 		bl	e_send_uart1_char
 3204              	.LVL181:
 3205              		.loc 1 728 25 discriminator 3 view .LVU1098
 3206              	.L228:
 3207              		.loc 1 728 25 discriminator 2 view .LVU1099
 3208              		.loc 1 728 25 discriminator 2 view .LVU1100
 3209 0ef6 FFF7FEFF 		bl	e_uart1_sending
 3210              	.LVL182:
 3211 0efa 0028     		cmp	r0, #0
 3212 0efc FBD1     		bne	.L228
 3213              		.loc 1 728 25 discriminator 3 view .LVU1101
 3214              		.loc 1 730 25 discriminator 3 view .LVU1102
 3215              		.loc 1 730 29 is_stmt 0 discriminator 3 view .LVU1103
 3216 0efe FFF7FEFF 		bl	isEpuckVersion1_3
 3217              	.LVL183:
 3218              		.loc 1 730 28 discriminator 3 view .LVU1104
 3219 0f02 0028     		cmp	r0, #0
 3220 0f04 41F09380 		bne	.L229
 3221              	.L232:
 3222              		.loc 1 731 29 is_stmt 1 view .LVU1105
 3223              		.loc 1 733 25 view .LVU1106
 3224              		.loc 1 733 25 view .LVU1107
 3225 0f08 9048     		ldr	r0, .L691+36
 3226 0f0a 1821     		movs	r1, #24
 3227 0f0c FFF7FEFF 		bl	e_send_uart1_char
 3228              	.LVL184:
 3229              		.loc 1 733 25 view .LVU1108
 3230              	.L230:
 3231              		.loc 1 733 25 discriminator 2 view .LVU1109
 3232              		.loc 1 733 25 discriminator 2 view .LVU1110
 3233 0f10 FFF7FEFF 		bl	e_uart1_sending
 3234              	.LVL185:
 3235 0f14 0028     		cmp	r0, #0
 3236 0f16 FBD1     		bne	.L230
 3237              		.loc 1 733 25 discriminator 3 view .LVU1111
 3238              		.loc 1 734 25 discriminator 3 view .LVU1112
ARM GAS  /tmp/ccucPY5I.s 			page 63


 3239              		.loc 1 734 25 discriminator 3 view .LVU1113
 3240 0f18 8D48     		ldr	r0, .L691+40
 3241 0f1a 2821     		movs	r1, #40
 3242 0f1c FFF7FEFF 		bl	e_send_uart1_char
 3243              	.LVL186:
 3244              		.loc 1 734 25 discriminator 3 view .LVU1114
 3245              	.L233:
 3246              		.loc 1 734 25 discriminator 2 view .LVU1115
 3247              		.loc 1 734 25 discriminator 2 view .LVU1116
 3248 0f20 FFF7FEFF 		bl	e_uart1_sending
 3249              	.LVL187:
 3250 0f24 0028     		cmp	r0, #0
 3251 0f26 FBD1     		bne	.L233
 3252              		.loc 1 734 25 discriminator 3 view .LVU1117
 3253              		.loc 1 735 25 discriminator 3 view .LVU1118
 3254              		.loc 1 735 25 discriminator 3 view .LVU1119
 3255 0f28 8A48     		ldr	r0, .L691+44
 3256 0f2a 4F21     		movs	r1, #79
 3257 0f2c FFF7FEFF 		bl	e_send_uart1_char
 3258              	.LVL188:
 3259              		.loc 1 735 25 discriminator 3 view .LVU1120
 3260              	.L234:
 3261              		.loc 1 735 25 discriminator 2 view .LVU1121
 3262              		.loc 1 735 25 discriminator 2 view .LVU1122
 3263 0f30 FFF7FEFF 		bl	e_uart1_sending
 3264              	.LVL189:
 3265 0f34 0028     		cmp	r0, #0
 3266 0f36 FBD1     		bne	.L234
 3267              		.loc 1 735 25 discriminator 3 view .LVU1123
 3268              		.loc 1 736 25 discriminator 3 view .LVU1124
 3269              		.loc 1 736 25 discriminator 3 view .LVU1125
 3270 0f38 8748     		ldr	r0, .L691+48
 3271 0f3a 2F21     		movs	r1, #47
 3272 0f3c FFF7FEFF 		bl	e_send_uart1_char
 3273              	.LVL190:
 3274              		.loc 1 736 25 discriminator 3 view .LVU1126
 3275              	.L235:
 3276              		.loc 1 736 25 discriminator 2 view .LVU1127
 3277              		.loc 1 736 25 discriminator 2 view .LVU1128
 3278 0f40 FFF7FEFF 		bl	e_uart1_sending
 3279              	.LVL191:
 3280 0f44 0028     		cmp	r0, #0
 3281 0f46 FBD1     		bne	.L235
 3282              		.loc 1 736 25 discriminator 3 view .LVU1129
 3283              		.loc 1 737 25 discriminator 3 view .LVU1130
 3284              		.loc 1 737 25 discriminator 3 view .LVU1131
 3285 0f48 8448     		ldr	r0, .L691+52
 3286 0f4a 3321     		movs	r1, #51
 3287 0f4c FFF7FEFF 		bl	e_send_uart1_char
 3288              	.LVL192:
 3289              		.loc 1 737 25 discriminator 3 view .LVU1132
 3290              	.L236:
 3291              		.loc 1 737 25 discriminator 2 view .LVU1133
 3292              		.loc 1 737 25 discriminator 2 view .LVU1134
 3293 0f50 FFF7FEFF 		bl	e_uart1_sending
 3294              	.LVL193:
 3295 0f54 0028     		cmp	r0, #0
ARM GAS  /tmp/ccucPY5I.s 			page 64


 3296 0f56 FBD1     		bne	.L236
 3297              		.loc 1 737 25 discriminator 3 view .LVU1135
 3298              		.loc 1 739 25 discriminator 3 view .LVU1136
 3299              		.loc 1 739 25 discriminator 3 view .LVU1137
 3300 0f58 8148     		ldr	r0, .L691+56
 3301 0f5a 2121     		movs	r1, #33
 3302 0f5c FFF7FEFF 		bl	e_send_uart1_char
 3303              	.LVL194:
 3304              		.loc 1 739 25 discriminator 3 view .LVU1138
 3305              	.L237:
 3306              		.loc 1 739 25 discriminator 2 view .LVU1139
 3307              		.loc 1 739 25 discriminator 2 view .LVU1140
 3308 0f60 FFF7FEFF 		bl	e_uart1_sending
 3309              	.LVL195:
 3310 0f64 0028     		cmp	r0, #0
 3311 0f66 FBD1     		bne	.L237
 3312              		.loc 1 739 25 discriminator 3 view .LVU1141
 3313              		.loc 1 741 25 discriminator 3 view .LVU1142
 3314              		.loc 1 741 25 discriminator 3 view .LVU1143
 3315 0f68 7E48     		ldr	r0, .L691+60
 3316 0f6a 1D21     		movs	r1, #29
 3317 0f6c FFF7FEFF 		bl	e_send_uart1_char
 3318              	.LVL196:
 3319              		.loc 1 741 25 discriminator 3 view .LVU1144
 3320              	.L238:
 3321              		.loc 1 741 25 discriminator 2 view .LVU1145
 3322              		.loc 1 741 25 discriminator 2 view .LVU1146
 3323 0f70 FFF7FEFF 		bl	e_uart1_sending
 3324              	.LVL197:
 3325 0f74 0028     		cmp	r0, #0
 3326 0f76 FBD1     		bne	.L238
 3327              		.loc 1 741 25 discriminator 3 view .LVU1147
 3328              		.loc 1 742 25 discriminator 3 view .LVU1148
 3329              		.loc 1 742 25 discriminator 3 view .LVU1149
 3330 0f78 7B48     		ldr	r0, .L691+64
 3331 0f7a 2121     		movs	r1, #33
 3332 0f7c FFF7FEFF 		bl	e_send_uart1_char
 3333              	.LVL198:
 3334              		.loc 1 742 25 discriminator 3 view .LVU1150
 3335              	.L239:
 3336              		.loc 1 742 25 discriminator 2 view .LVU1151
 3337              		.loc 1 742 25 discriminator 2 view .LVU1152
 3338 0f80 FFF7FEFF 		bl	e_uart1_sending
 3339              	.LVL199:
 3340 0f84 0028     		cmp	r0, #0
 3341 0f86 FBD1     		bne	.L239
 3342              		.loc 1 742 25 discriminator 3 view .LVU1153
 3343              		.loc 1 743 25 discriminator 3 view .LVU1154
 3344              		.loc 1 743 25 discriminator 3 view .LVU1155
 3345 0f88 7848     		ldr	r0, .L691+68
 3346 0f8a 3121     		movs	r1, #49
 3347 0f8c FFF7FEFF 		bl	e_send_uart1_char
 3348              	.LVL200:
 3349              		.loc 1 743 25 discriminator 3 view .LVU1156
 3350              	.L240:
 3351              		.loc 1 743 25 discriminator 2 view .LVU1157
 3352              		.loc 1 743 25 discriminator 2 view .LVU1158
ARM GAS  /tmp/ccucPY5I.s 			page 65


 3353 0f90 FFF7FEFF 		bl	e_uart1_sending
 3354              	.LVL201:
 3355 0f94 0028     		cmp	r0, #0
 3356 0f96 FBD1     		bne	.L240
 3357              		.loc 1 743 25 discriminator 3 view .LVU1159
 3358              		.loc 1 744 25 discriminator 3 view .LVU1160
 3359              		.loc 1 744 25 discriminator 3 view .LVU1161
 3360 0f98 7548     		ldr	r0, .L691+72
 3361 0f9a 3121     		movs	r1, #49
 3362 0f9c FFF7FEFF 		bl	e_send_uart1_char
 3363              	.LVL202:
 3364              		.loc 1 744 25 discriminator 3 view .LVU1162
 3365              	.L241:
 3366              		.loc 1 744 25 discriminator 2 view .LVU1163
 3367              		.loc 1 744 25 discriminator 2 view .LVU1164
 3368 0fa0 FFF7FEFF 		bl	e_uart1_sending
 3369              	.LVL203:
 3370 0fa4 0028     		cmp	r0, #0
 3371 0fa6 FBD1     		bne	.L241
 3372              		.loc 1 744 25 discriminator 3 view .LVU1165
 3373              		.loc 1 745 25 discriminator 3 view .LVU1166
 3374              		.loc 1 745 25 discriminator 3 view .LVU1167
 3375 0fa8 7248     		ldr	r0, .L691+76
 3376 0faa 2021     		movs	r1, #32
 3377 0fac FFF7FEFF 		bl	e_send_uart1_char
 3378              	.LVL204:
 3379              		.loc 1 745 25 discriminator 3 view .LVU1168
 3380              	.L242:
 3381              		.loc 1 745 25 discriminator 2 view .LVU1169
 3382              		.loc 1 745 25 discriminator 2 view .LVU1170
 3383 0fb0 FFF7FEFF 		bl	e_uart1_sending
 3384              	.LVL205:
 3385 0fb4 0028     		cmp	r0, #0
 3386 0fb6 FBD1     		bne	.L242
 3387              		.loc 1 745 25 discriminator 3 view .LVU1171
 3388              		.loc 1 746 25 discriminator 3 view .LVU1172
 3389              		.loc 1 746 25 discriminator 3 view .LVU1173
 3390 0fb8 6F48     		ldr	r0, .L691+80
 3391 0fba 3121     		movs	r1, #49
 3392 0fbc FFF7FEFF 		bl	e_send_uart1_char
 3393              	.LVL206:
 3394              		.loc 1 746 25 discriminator 3 view .LVU1174
 3395              	.L243:
 3396              		.loc 1 746 25 discriminator 2 view .LVU1175
 3397              		.loc 1 746 25 discriminator 2 view .LVU1176
 3398 0fc0 FFF7FEFF 		bl	e_uart1_sending
 3399              	.LVL207:
 3400 0fc4 0028     		cmp	r0, #0
 3401 0fc6 FBD1     		bne	.L243
 3402              		.loc 1 746 25 discriminator 3 view .LVU1177
 3403              		.loc 1 747 25 discriminator 3 view .LVU1178
 3404              		.loc 1 747 25 discriminator 3 view .LVU1179
 3405 0fc8 6C48     		ldr	r0, .L691+84
 3406 0fca 3221     		movs	r1, #50
 3407 0fcc FFF7FEFF 		bl	e_send_uart1_char
 3408              	.LVL208:
 3409              		.loc 1 747 25 discriminator 3 view .LVU1180
ARM GAS  /tmp/ccucPY5I.s 			page 66


 3410              	.L244:
 3411              		.loc 1 747 25 discriminator 2 view .LVU1181
 3412              		.loc 1 747 25 discriminator 2 view .LVU1182
 3413 0fd0 FFF7FEFF 		bl	e_uart1_sending
 3414              	.LVL209:
 3415 0fd4 0028     		cmp	r0, #0
 3416 0fd6 FBD1     		bne	.L244
 3417              		.loc 1 747 25 discriminator 3 view .LVU1183
 3418              		.loc 1 748 25 discriminator 3 view .LVU1184
 3419              		.loc 1 748 29 is_stmt 0 discriminator 3 view .LVU1185
 3420 0fd8 FFF7FEFF 		bl	isEpuckVersion1_3
 3421              	.LVL210:
 3422              		.loc 1 748 28 discriminator 3 view .LVU1186
 3423 0fdc 0028     		cmp	r0, #0
 3424 0fde 41F01C80 		bne	.L245
 3425              	.L248:
 3426              		.loc 1 749 29 is_stmt 1 view .LVU1187
 3427              		.loc 1 751 25 view .LVU1188
 3428              		.loc 1 751 25 view .LVU1189
 3429 0fe2 6748     		ldr	r0, .L691+88
 3430 0fe4 2C21     		movs	r1, #44
 3431 0fe6 FFF7FEFF 		bl	e_send_uart1_char
 3432              	.LVL211:
 3433              		.loc 1 751 25 view .LVU1190
 3434              	.L246:
 3435              		.loc 1 751 25 discriminator 2 view .LVU1191
 3436              		.loc 1 751 25 discriminator 2 view .LVU1192
 3437 0fea FFF7FEFF 		bl	e_uart1_sending
 3438              	.LVL212:
 3439 0fee 0028     		cmp	r0, #0
 3440 0ff0 FBD1     		bne	.L246
 3441              		.loc 1 751 25 discriminator 3 view .LVU1193
 3442              		.loc 1 752 25 discriminator 3 view .LVU1194
 3443              		.loc 1 752 25 discriminator 3 view .LVU1195
 3444 0ff2 6448     		ldr	r0, .L691+92
 3445 0ff4 2521     		movs	r1, #37
 3446 0ff6 FFF7FEFF 		bl	e_send_uart1_char
 3447              	.LVL213:
 3448              		.loc 1 752 25 discriminator 3 view .LVU1196
 3449              	.L249:
 3450              		.loc 1 752 25 discriminator 2 view .LVU1197
 3451              		.loc 1 752 25 discriminator 2 view .LVU1198
 3452 0ffa FFF7FEFF 		bl	e_uart1_sending
 3453              	.LVL214:
 3454 0ffe 0028     		cmp	r0, #0
 3455 1000 FBD1     		bne	.L249
 3456              		.loc 1 752 25 discriminator 3 view .LVU1199
 3457              		.loc 1 753 25 discriminator 3 view .LVU1200
 3458              		.loc 1 753 25 discriminator 3 view .LVU1201
 3459 1002 6148     		ldr	r0, .L691+96
 3460 1004 2B21     		movs	r1, #43
 3461 1006 FFF7FEFF 		bl	e_send_uart1_char
 3462              	.LVL215:
 3463              		.loc 1 753 25 discriminator 3 view .LVU1202
 3464              	.L250:
 3465              		.loc 1 753 25 discriminator 2 view .LVU1203
 3466              		.loc 1 753 25 discriminator 2 view .LVU1204
ARM GAS  /tmp/ccucPY5I.s 			page 67


 3467 100a FFF7FEFF 		bl	e_uart1_sending
 3468              	.LVL216:
 3469 100e 0028     		cmp	r0, #0
 3470 1010 FBD1     		bne	.L250
 3471              		.loc 1 753 25 discriminator 3 view .LVU1205
 3472              		.loc 1 754 25 discriminator 3 view .LVU1206
 3473              		.loc 1 754 25 discriminator 3 view .LVU1207
 3474 1012 5E48     		ldr	r0, .L691+100
 3475 1014 2A21     		movs	r1, #42
 3476 1016 FFF7FEFF 		bl	e_send_uart1_char
 3477              	.LVL217:
 3478              		.loc 1 754 25 discriminator 3 view .LVU1208
 3479              	.L251:
 3480              		.loc 1 754 25 discriminator 2 view .LVU1209
 3481              		.loc 1 754 25 discriminator 2 view .LVU1210
 3482 101a FFF7FEFF 		bl	e_uart1_sending
 3483              	.LVL218:
 3484 101e 0028     		cmp	r0, #0
 3485 1020 FBD1     		bne	.L251
 3486 1022 FFF77CB8 		b	.L4
 3487              	.L164:
 3488              		.loc 1 1032 21 view .LVU1211
 3489              		.loc 1 1032 24 is_stmt 0 view .LVU1212
 3490 1026 099B     		ldr	r3, [sp, #36]
 3491 1028 002B     		cmp	r3, #0
 3492 102a 3FF4FAA9 		beq	.L623
 3493              		.loc 1 1033 25 is_stmt 1 view .LVU1213
 3494 102e 584B     		ldr	r3, .L691+104
 3495 1030 584A     		ldr	r2, .L691+108
 3496 1032 5949     		ldr	r1, .L691+112
 3497 1034 0093     		str	r3, [sp]
 3498 1036 1C46     		mov	r4, r3
 3499 1038 5848     		ldr	r0, .L691+116
 3500 103a 594B     		ldr	r3, .L691+120
 3501 103c FFF7FEFF 		bl	sscanf
 3502              	.LVL219:
 3503              		.loc 1 1034 25 view .LVU1214
 3504 1040 FFF7FEFF 		bl	e_i2cp_enable
 3505              	.LVL220:
 3506              		.loc 1 1035 25 view .LVU1215
 3507 1044 564B     		ldr	r3, .L691+120
 3508 1046 2278     		ldrb	r2, [r4]	@ zero_extendqisi2
 3509 1048 1978     		ldrb	r1, [r3]	@ zero_extendqisi2
 3510 104a 524B     		ldr	r3, .L691+108
 3511 104c 1878     		ldrb	r0, [r3]	@ zero_extendqisi2
 3512 104e FFF7FEFF 		bl	e_i2cp_write
 3513              	.LVL221:
 3514              		.loc 1 1036 25 view .LVU1216
 3515 1052 FFF7FEFF 		bl	e_i2cp_disable
 3516              	.LVL222:
 3517              		.loc 1 1037 25 view .LVU1217
 3518              		.loc 1 1037 25 view .LVU1218
 3519 1056 5348     		ldr	r0, .L691+124
 3520 1058 0321     		movs	r1, #3
 3521 105a FFF7FEFF 		bl	e_send_uart1_char
 3522              	.LVL223:
 3523              		.loc 1 1037 25 view .LVU1219
ARM GAS  /tmp/ccucPY5I.s 			page 68


 3524              	.L344:
 3525              		.loc 1 1037 25 discriminator 2 view .LVU1220
 3526              		.loc 1 1037 25 discriminator 2 view .LVU1221
 3527 105e FFF7FEFF 		bl	e_uart1_sending
 3528              	.LVL224:
 3529 1062 0028     		cmp	r0, #0
 3530 1064 FBD1     		bne	.L344
 3531 1066 FFF75AB8 		b	.L4
 3532              	.L165:
 3533              		.loc 1 1019 21 view .LVU1222
 3534              		.loc 1 1019 24 is_stmt 0 view .LVU1223
 3535 106a 099B     		ldr	r3, [sp, #36]
 3536              		.loc 1 1020 25 view .LVU1224
 3537 106c 4E48     		ldr	r0, .L691+128
 3538 106e 2621     		movs	r1, #38
 3539              		.loc 1 1019 24 view .LVU1225
 3540 1070 002B     		cmp	r3, #0
 3541 1072 00F06D85 		beq	.L337
 3542              		.loc 1 1020 25 is_stmt 1 view .LVU1226
 3543              		.loc 1 1020 25 view .LVU1227
 3544 1076 FFF7FEFF 		bl	e_send_uart1_char
 3545              	.LVL225:
 3546              		.loc 1 1020 25 view .LVU1228
 3547              	.L338:
 3548              		.loc 1 1020 25 discriminator 2 view .LVU1229
 3549              		.loc 1 1020 25 discriminator 2 view .LVU1230
 3550 107a FFF7FEFF 		bl	e_uart1_sending
 3551              	.LVL226:
 3552 107e 0028     		cmp	r0, #0
 3553 1080 FBD1     		bne	.L338
 3554              		.loc 1 1022 25 view .LVU1231
 3555              		.loc 1 1024 21 view .LVU1232
 3556 1082 4A4B     		ldr	r3, .L691+132
 3557 1084 4A49     		ldr	r1, .L691+136
 3558 1086 1A68     		ldr	r2, [r3]
 3559 1088 4448     		ldr	r0, .L691+116
 3560 108a FFF7FEFF 		bl	sprintf
 3561              	.LVL227:
 3562              		.loc 1 1025 21 view .LVU1233
 3563              		.loc 1 1026 25 view .LVU1234
 3564              		.loc 1 1026 25 view .LVU1235
 3565 108e 4348     		ldr	r0, .L691+116
 3566 1090 FFF7FEFF 		bl	strlen
 3567              	.LVL228:
 3568 1094 0146     		mov	r1, r0
 3569 1096 4148     		ldr	r0, .L691+116
 3570 1098 FFF7FEFF 		bl	e_send_uart1_char
 3571              	.LVL229:
 3572              		.loc 1 1026 25 view .LVU1236
 3573              	.L342:
 3574              		.loc 1 1026 25 discriminator 2 view .LVU1237
 3575              		.loc 1 1026 25 discriminator 2 view .LVU1238
 3576 109c FFF7FEFF 		bl	e_uart1_sending
 3577              	.LVL230:
 3578 10a0 0028     		cmp	r0, #0
 3579 10a2 FBD1     		bne	.L342
 3580 10a4 FFF73BB8 		b	.L4
ARM GAS  /tmp/ccucPY5I.s 			page 69


 3581              	.L174:
 3582              		.loc 1 848 21 view .LVU1239
 3583 10a8 424B     		ldr	r3, .L691+140
 3584 10aa 434A     		ldr	r2, .L691+144
 3585 10ac 4349     		ldr	r1, .L691+148
 3586 10ae 3B48     		ldr	r0, .L691+116
 3587 10b0 FFF7FEFF 		bl	sscanf
 3588              	.LVL231:
 3589              		.loc 1 849 21 view .LVU1240
 3590 10b4 3F4B     		ldr	r3, .L691+140
 3591 10b6 1968     		ldr	r1, [r3]
 3592 10b8 3F4B     		ldr	r3, .L691+144
 3593 10ba 1868     		ldr	r0, [r3]
 3594 10bc FFF7FEFF 		bl	e_set_led
 3595              	.LVL232:
 3596              		.loc 1 850 21 view .LVU1241
 3597              		.loc 1 850 24 is_stmt 0 view .LVU1242
 3598 10c0 099B     		ldr	r3, [sp, #36]
 3599              		.loc 1 851 25 view .LVU1243
 3600 10c2 3F48     		ldr	r0, .L691+152
 3601 10c4 0321     		movs	r1, #3
 3602              		.loc 1 850 24 view .LVU1244
 3603 10c6 002B     		cmp	r3, #0
 3604 10c8 00F04B86 		beq	.L293
 3605              		.loc 1 851 25 is_stmt 1 view .LVU1245
 3606              		.loc 1 851 25 view .LVU1246
 3607 10cc FFF7FEFF 		bl	e_send_uart1_char
 3608              	.LVL233:
 3609              		.loc 1 851 25 view .LVU1247
 3610              	.L294:
 3611              		.loc 1 851 25 discriminator 2 view .LVU1248
 3612              		.loc 1 851 25 discriminator 2 view .LVU1249
 3613 10d0 FFF7FEFF 		bl	e_uart1_sending
 3614              	.LVL234:
 3615 10d4 0028     		cmp	r0, #0
 3616 10d6 FBD1     		bne	.L294
 3617 10d8 FFF721B8 		b	.L4
 3618              	.L175:
 3619              		.loc 1 828 21 view .LVU1250
 3620              		.loc 1 828 24 is_stmt 0 view .LVU1251
 3621 10dc 099B     		ldr	r3, [sp, #36]
 3622              		.loc 1 829 25 view .LVU1252
 3623 10de 3948     		ldr	r0, .L691+156
 3624 10e0 3E21     		movs	r1, #62
 3625              		.loc 1 828 24 view .LVU1253
 3626 10e2 002B     		cmp	r3, #0
 3627 10e4 00F01E86 		beq	.L286
 3628              		.loc 1 829 25 is_stmt 1 view .LVU1254
 3629              		.loc 1 829 25 view .LVU1255
 3630 10e8 FFF7FEFF 		bl	e_send_uart1_char
 3631              	.LVL235:
 3632              		.loc 1 829 25 view .LVU1256
 3633              	.L287:
 3634              		.loc 1 829 25 discriminator 2 view .LVU1257
 3635              		.loc 1 829 25 discriminator 2 view .LVU1258
 3636 10ec FFF7FEFF 		bl	e_uart1_sending
 3637              	.LVL236:
ARM GAS  /tmp/ccucPY5I.s 			page 70


 3638 10f0 0028     		cmp	r0, #0
 3639 10f2 FBD1     		bne	.L287
 3640              		.loc 1 831 25 view .LVU1259
 3641              		.loc 1 833 21 view .LVU1260
 3642              		.loc 1 834 21 view .LVU1261
 3643 10f4 0121     		movs	r1, #1
 3644 10f6 0820     		movs	r0, #8
 3645 10f8 FFF7FEFF 		bl	e_set_led
 3646              	.LVL237:
 3647              		.loc 1 835 21 view .LVU1262
 3648              		.loc 1 835 33 view .LVU1263
 3649              		.loc 1 836 21 view .LVU1264
 3650 10fc 4FF4C870 		mov	r0, #400
 3651 1100 FFF7FEFF 		bl	chThdSleep
 3652              	.LVL238:
 3653              		.loc 1 837 21 view .LVU1265
 3654 1104 FFF7FEFF 		bl	e_led_clear
 3655              	.LVL239:
 3656              		.loc 1 838 21 view .LVU1266
 3657              		.loc 1 838 33 view .LVU1267
 3658              		.loc 1 839 21 view .LVU1268
 3659 1108 6420     		movs	r0, #100
 3660 110a FFF7FEFF 		bl	chThdSleep
 3661              	.LVL240:
 3662              		.loc 1 840 21 view .LVU1269
 3663 110e FFF7FEFF 		bl	e_calibrate_ir
 3664              	.LVL241:
 3665              		.loc 1 841 21 view .LVU1270
 3666              		.loc 1 842 25 view .LVU1271
 3667              		.loc 1 842 25 view .LVU1272
 3668 1112 2D48     		ldr	r0, .L691+160
 3669 1114 1921     		movs	r1, #25
 3670 1116 FFF7FEFF 		bl	e_send_uart1_char
 3671              	.LVL242:
 3672              		.loc 1 842 25 view .LVU1273
 3673              	.L291:
 3674              		.loc 1 842 25 discriminator 2 view .LVU1274
 3675              		.loc 1 842 25 discriminator 2 view .LVU1275
 3676 111a FFF7FEFF 		bl	e_uart1_sending
 3677              	.LVL243:
 3678 111e 0028     		cmp	r0, #0
 3679 1120 FBD1     		bne	.L291
 3680 1122 FEF7FCBF 		b	.L4
 3681              	.L692:
 3682 1126 00BF     		.align	2
 3683              	.L691:
 3684 1128 10010000 		.word	.LC15
 3685 112c 14010000 		.word	.LC16
 3686 1130 38010000 		.word	.LC17
 3687 1134 6C010000 		.word	.LC18
 3688 1138 90010000 		.word	.LC19
 3689 113c E8010000 		.word	.LC21
 3690 1140 18020000 		.word	.LC22
 3691 1144 48020000 		.word	.LC23
 3692 1148 7C020000 		.word	.LC24
 3693 114c 9C020000 		.word	.LC25
 3694 1150 D4020000 		.word	.LC27
ARM GAS  /tmp/ccucPY5I.s 			page 71


 3695 1154 00030000 		.word	.LC28
 3696 1158 50030000 		.word	.LC29
 3697 115c 80030000 		.word	.LC30
 3698 1160 B4030000 		.word	.LC31
 3699 1164 D8030000 		.word	.LC32
 3700 1168 F8030000 		.word	.LC33
 3701 116c 1C040000 		.word	.LC34
 3702 1170 50040000 		.word	.LC35
 3703 1174 84040000 		.word	.LC36
 3704 1178 A8040000 		.word	.LC37
 3705 117c DC040000 		.word	.LC38
 3706 1180 10050000 		.word	.LC39
 3707 1184 60050000 		.word	.LC41
 3708 1188 88050000 		.word	.LC42
 3709 118c B4050000 		.word	.LC43
 3710 1190 00000000 		.word	.LANCHOR27
 3711 1194 00000000 		.word	.LANCHOR25
 3712 1198 E8090000 		.word	.LC83
 3713 119c 00000000 		.word	buffer
 3714 11a0 00000000 		.word	.LANCHOR26
 3715 11a4 F4090000 		.word	.LC84
 3716 11a8 C0090000 		.word	.LC82
 3717 11ac 00000000 		.word	.LANCHOR1
 3718 11b0 580A0000 		.word	.LC91
 3719 11b4 00000000 		.word	.LANCHOR28
 3720 11b8 00000000 		.word	.LANCHOR31
 3721 11bc D8080000 		.word	.LC67
 3722 11c0 E4080000 		.word	.LC68
 3723 11c4 98080000 		.word	.LC66
 3724 11c8 3C0A0000 		.word	.LC90
 3725              	.L176:
 3726              		.loc 1 801 21 view .LVU1276
 3727              		.loc 1 801 24 is_stmt 0 view .LVU1277
 3728 11cc 099B     		ldr	r3, [sp, #36]
 3729 11ce 002B     		cmp	r3, #0
 3730 11d0 3FF427A9 		beq	.L623
 3731              		.loc 1 802 25 is_stmt 1 view .LVU1278
 3732              		.loc 1 804 25 is_stmt 0 view .LVU1279
 3733 11d4 159B     		ldr	r3, [sp, #84]
 3734 11d6 AB4D     		ldr	r5, .L693
 3735 11d8 AB4E     		ldr	r6, .L693+4
 3736 11da 0193     		str	r3, [sp, #4]
 3737              		.loc 1 802 32 view .LVU1280
 3738 11dc 4FF0FF34 		mov	r4, #-1
 3739              		.loc 1 804 25 view .LVU1281
 3740 11e0 119B     		ldr	r3, [sp, #68]
 3741 11e2 0093     		str	r3, [sp]
 3742 11e4 0395     		str	r5, [sp, #12]
 3743 11e6 0296     		str	r6, [sp, #8]
 3744 11e8 A84B     		ldr	r3, .L693+8
 3745 11ea A94A     		ldr	r2, .L693+12
 3746 11ec A949     		ldr	r1, .L693+16
 3747 11ee AA48     		ldr	r0, .L693+20
 3748              		.loc 1 802 32 view .LVU1282
 3749 11f0 3460     		str	r4, [r6]
 3750              		.loc 1 803 25 is_stmt 1 view .LVU1283
 3751              		.loc 1 803 32 is_stmt 0 view .LVU1284
ARM GAS  /tmp/ccucPY5I.s 			page 72


 3752 11f2 2C60     		str	r4, [r5]
 3753              		.loc 1 804 25 is_stmt 1 view .LVU1285
 3754 11f4 FFF7FEFF 		bl	sscanf
 3755              	.LVL244:
 3756              		.loc 1 805 25 view .LVU1286
 3757              		.loc 1 805 28 is_stmt 0 view .LVU1287
 3758 11f8 139A     		ldr	r2, [sp, #76]
 3759 11fa 1368     		ldr	r3, [r2]
 3760 11fc 002B     		cmp	r3, #0
 3761 11fe 40F00387 		bne	.L278
 3762              		.loc 1 806 29 is_stmt 1 view .LVU1288
 3763              		.loc 1 806 50 is_stmt 0 view .LVU1289
 3764 1202 129A     		ldr	r2, [sp, #72]
 3765 1204 119B     		ldr	r3, [sp, #68]
 3766 1206 1268     		ldr	r2, [r2]
 3767 1208 1B68     		ldr	r3, [r3]
 3768 120a 03FB02F3 		mul	r3, r3, r2
 3769              	.L279:
 3770 120e 1499     		ldr	r1, [sp, #80]
 3771              		.loc 1 809 28 view .LVU1290
 3772 1210 41F22B02 		movw	r2, #4139
 3773 1214 9342     		cmp	r3, r2
 3774 1216 0B60     		str	r3, [r1]
 3775              		.loc 1 809 25 is_stmt 1 view .LVU1291
 3776              		.loc 1 809 28 is_stmt 0 view .LVU1292
 3777 1218 0ADD     		ble	.L280
 3778              		.loc 1 810 29 is_stmt 1 view .LVU1293
 3779              		.loc 1 810 38 is_stmt 0 view .LVU1294
 3780 121a 1398     		ldr	r0, [sp, #76]
 3781 121c 0122     		movs	r2, #1
 3782 121e 0260     		str	r2, [r0]
 3783              		.loc 1 811 29 is_stmt 1 view .LVU1295
 3784              		.loc 1 811 39 is_stmt 0 view .LVU1296
 3785 1220 1298     		ldr	r0, [sp, #72]
 3786 1222 2823     		movs	r3, #40
 3787 1224 0360     		str	r3, [r0]
 3788              		.loc 1 812 29 is_stmt 1 view .LVU1297
 3789              		.loc 1 812 40 is_stmt 0 view .LVU1298
 3790 1226 1198     		ldr	r0, [sp, #68]
 3791              		.loc 1 813 38 view .LVU1299
 3792 1228 4FF44862 		mov	r2, #3200
 3793              		.loc 1 812 40 view .LVU1300
 3794 122c 0360     		str	r3, [r0]
 3795              		.loc 1 813 29 is_stmt 1 view .LVU1301
 3796              		.loc 1 813 38 is_stmt 0 view .LVU1302
 3797 122e 0A60     		str	r2, [r1]
 3798              	.L280:
 3799              		.loc 1 815 25 is_stmt 1 view .LVU1303
 3800 1230 FFF7FEFF 		bl	e_poxxxx_init_cam
 3801              	.LVL245:
 3802              		.loc 1 816 25 view .LVU1304
 3803              		.loc 1 816 36 is_stmt 0 view .LVU1305
 3804 1234 944B     		ldr	r3, .L693+4
 3805 1236 1868     		ldr	r0, [r3]
 3806              		.loc 1 817 63 view .LVU1306
 3807 1238 159B     		ldr	r3, [sp, #84]
 3808 123a 1D68     		ldr	r5, [r3]
ARM GAS  /tmp/ccucPY5I.s 			page 73


 3809 123c 129B     		ldr	r3, [sp, #72]
 3810 123e 1A68     		ldr	r2, [r3]
 3811              		.loc 1 816 28 view .LVU1307
 3812 1240 431C     		adds	r3, r0, #1
 3813              		.loc 1 817 63 view .LVU1308
 3814 1242 02FB05F2 		mul	r2, r2, r5
 3815              		.loc 1 816 28 view .LVU1309
 3816 1246 06D1     		bne	.L282
 3817              		.loc 1 817 29 is_stmt 1 view .LVU1310
 3818              		.loc 1 817 51 is_stmt 0 view .LVU1311
 3819 1248 C2F52070 		rsb	r0, r2, #640
 3820              		.loc 1 817 36 view .LVU1312
 3821 124c 8E4B     		ldr	r3, .L693+4
 3822              		.loc 1 817 75 view .LVU1313
 3823 124e 00EBD070 		add	r0, r0, r0, lsr #31
 3824 1252 4010     		asrs	r0, r0, #1
 3825              		.loc 1 817 36 view .LVU1314
 3826 1254 1860     		str	r0, [r3]
 3827              	.L282:
 3828              		.loc 1 819 25 is_stmt 1 view .LVU1315
 3829              		.loc 1 819 36 is_stmt 0 view .LVU1316
 3830 1256 8B4B     		ldr	r3, .L693
 3831 1258 1968     		ldr	r1, [r3]
 3832              		.loc 1 820 65 view .LVU1317
 3833 125a 119B     		ldr	r3, [sp, #68]
 3834 125c 1B68     		ldr	r3, [r3]
 3835              		.loc 1 819 28 view .LVU1318
 3836 125e 4E1C     		adds	r6, r1, #1
 3837              		.loc 1 820 65 view .LVU1319
 3838 1260 03FB05F3 		mul	r3, r3, r5
 3839              		.loc 1 819 28 view .LVU1320
 3840 1264 06D1     		bne	.L284
 3841              		.loc 1 820 29 is_stmt 1 view .LVU1321
 3842              		.loc 1 820 52 is_stmt 0 view .LVU1322
 3843 1266 C3F5F071 		rsb	r1, r3, #480
 3844              		.loc 1 820 36 view .LVU1323
 3845 126a 864C     		ldr	r4, .L693
 3846              		.loc 1 820 77 view .LVU1324
 3847 126c 01EBD171 		add	r1, r1, r1, lsr #31
 3848 1270 4910     		asrs	r1, r1, #1
 3849              		.loc 1 820 36 view .LVU1325
 3850 1272 2160     		str	r1, [r4]
 3851              	.L284:
 3852              		.loc 1 822 25 is_stmt 1 view .LVU1326
 3853 1274 139C     		ldr	r4, [sp, #76]
 3854 1276 2468     		ldr	r4, [r4]
 3855 1278 0294     		str	r4, [sp, #8]
 3856 127a CDE90055 		strd	r5, r5, [sp]
 3857 127e FFF7FEFF 		bl	e_poxxxx_config_cam
 3858              	.LVL246:
 3859              		.loc 1 823 25 view .LVU1327
 3860 1282 FFF7FEFF 		bl	e_poxxxx_write_cam_registers
 3861              	.LVL247:
 3862              		.loc 1 824 25 view .LVU1328
 3863              		.loc 1 824 25 view .LVU1329
 3864 1286 8548     		ldr	r0, .L693+24
 3865 1288 0321     		movs	r1, #3
ARM GAS  /tmp/ccucPY5I.s 			page 74


 3866 128a FFF7FEFF 		bl	e_send_uart1_char
 3867              	.LVL248:
 3868              		.loc 1 824 25 view .LVU1330
 3869              	.L285:
 3870              		.loc 1 824 25 discriminator 2 view .LVU1331
 3871              		.loc 1 824 25 discriminator 2 view .LVU1332
 3872 128e FFF7FEFF 		bl	e_uart1_sending
 3873              	.LVL249:
 3874 1292 0028     		cmp	r0, #0
 3875 1294 FBD1     		bne	.L285
 3876 1296 FEF742BF 		b	.L4
 3877              	.L177:
 3878              		.loc 1 795 21 view .LVU1333
 3879              		.loc 1 795 24 is_stmt 0 view .LVU1334
 3880 129a 099B     		ldr	r3, [sp, #36]
 3881 129c 002B     		cmp	r3, #0
 3882 129e 3FF4C0A8 		beq	.L623
 3883              		.loc 1 796 25 is_stmt 1 view .LVU1335
 3884 12a2 149B     		ldr	r3, [sp, #80]
 3885 12a4 7C48     		ldr	r0, .L693+20
 3886 12a6 1968     		ldr	r1, [r3]
 3887 12a8 159B     		ldr	r3, [sp, #84]
 3888 12aa 1A68     		ldr	r2, [r3]
 3889 12ac 119B     		ldr	r3, [sp, #68]
 3890 12ae 1B68     		ldr	r3, [r3]
 3891 12b0 0093     		str	r3, [sp]
 3892 12b2 CDE90121 		strd	r2, r1, [sp, #4]
 3893 12b6 129B     		ldr	r3, [sp, #72]
 3894 12b8 139A     		ldr	r2, [sp, #76]
 3895 12ba 7949     		ldr	r1, .L693+28
 3896 12bc 1B68     		ldr	r3, [r3]
 3897 12be 1268     		ldr	r2, [r2]
 3898 12c0 FFF7FEFF 		bl	sprintf
 3899              	.LVL250:
 3900              		.loc 1 797 25 view .LVU1336
 3901              		.loc 1 797 25 view .LVU1337
 3902 12c4 7448     		ldr	r0, .L693+20
 3903 12c6 FFF7FEFF 		bl	strlen
 3904              	.LVL251:
 3905 12ca 0146     		mov	r1, r0
 3906 12cc 7248     		ldr	r0, .L693+20
 3907 12ce FFF7FEFF 		bl	e_send_uart1_char
 3908              	.LVL252:
 3909              		.loc 1 797 25 view .LVU1338
 3910              	.L277:
 3911              		.loc 1 797 25 discriminator 2 view .LVU1339
 3912              		.loc 1 797 25 discriminator 2 view .LVU1340
 3913 12d2 FFF7FEFF 		bl	e_uart1_sending
 3914              	.LVL253:
 3915 12d6 0028     		cmp	r0, #0
 3916 12d8 FBD1     		bne	.L277
 3917 12da FEF720BF 		b	.L4
 3918              	.L172:
 3919              		.loc 1 904 21 view .LVU1341
 3920              		.loc 1 904 24 is_stmt 0 view .LVU1342
 3921 12de 099B     		ldr	r3, [sp, #36]
 3922 12e0 002B     		cmp	r3, #0
ARM GAS  /tmp/ccucPY5I.s 			page 75


 3923 12e2 00F04E85 		beq	.L303
 3924              		.loc 1 905 25 is_stmt 1 view .LVU1343
 3925 12e6 0020     		movs	r0, #0
 3926 12e8 FFF7FEFF 		bl	e_get_calibrated_prox
 3927              	.LVL254:
 3928 12ec 0246     		mov	r2, r0
 3929 12ee 0120     		movs	r0, #1
 3930 12f0 0D92     		str	r2, [sp, #52]
 3931 12f2 FFF7FEFF 		bl	e_get_calibrated_prox
 3932              	.LVL255:
 3933 12f6 0346     		mov	r3, r0
 3934 12f8 0220     		movs	r0, #2
 3935 12fa 0C93     		str	r3, [sp, #48]
 3936 12fc FFF7FEFF 		bl	e_get_calibrated_prox
 3937              	.LVL256:
 3938 1300 0646     		mov	r6, r0
 3939 1302 0320     		movs	r0, #3
 3940 1304 FFF7FEFF 		bl	e_get_calibrated_prox
 3941              	.LVL257:
 3942 1308 0146     		mov	r1, r0
 3943 130a 0420     		movs	r0, #4
 3944 130c 0B91     		str	r1, [sp, #44]
 3945 130e FFF7FEFF 		bl	e_get_calibrated_prox
 3946              	.LVL258:
 3947 1312 0446     		mov	r4, r0
 3948 1314 0520     		movs	r0, #5
 3949 1316 0A94     		str	r4, [sp, #40]
 3950 1318 FFF7FEFF 		bl	e_get_calibrated_prox
 3951              	.LVL259:
 3952 131c 0446     		mov	r4, r0
 3953 131e 0620     		movs	r0, #6
 3954 1320 FFF7FEFF 		bl	e_get_calibrated_prox
 3955              	.LVL260:
 3956 1324 0546     		mov	r5, r0
 3957 1326 0720     		movs	r0, #7
 3958 1328 FFF7FEFF 		bl	e_get_calibrated_prox
 3959              	.LVL261:
 3960 132c 0A9B     		ldr	r3, [sp, #40]
 3961 132e 0B99     		ldr	r1, [sp, #44]
 3962 1330 0293     		str	r3, [sp, #8]
 3963 1332 0191     		str	r1, [sp, #4]
 3964 1334 DDE90C32 		ldrd	r3, r2, [sp, #48]
 3965 1338 5A49     		ldr	r1, .L693+32
 3966 133a 0590     		str	r0, [sp, #20]
 3967 133c CDE90345 		strd	r4, r5, [sp, #12]
 3968 1340 5548     		ldr	r0, .L693+20
 3969 1342 0096     		str	r6, [sp]
 3970 1344 FFF7FEFF 		bl	sprintf
 3971              	.LVL262:
 3972              		.loc 1 908 25 view .LVU1344
 3973              		.loc 1 908 25 view .LVU1345
 3974 1348 5348     		ldr	r0, .L693+20
 3975 134a FFF7FEFF 		bl	strlen
 3976              	.LVL263:
 3977 134e 0146     		mov	r1, r0
 3978 1350 5148     		ldr	r0, .L693+20
 3979 1352 FFF7FEFF 		bl	e_send_uart1_char
ARM GAS  /tmp/ccucPY5I.s 			page 76


 3980              	.LVL264:
 3981              		.loc 1 908 25 view .LVU1346
 3982              	.L304:
 3983              		.loc 1 908 25 discriminator 2 view .LVU1347
 3984              		.loc 1 908 25 discriminator 2 view .LVU1348
 3985 1356 FFF7FEFF 		bl	e_uart1_sending
 3986              	.LVL265:
 3987 135a 0028     		cmp	r0, #0
 3988 135c FBD1     		bne	.L304
 3989 135e FEF7DEBE 		b	.L4
 3990              	.L168:
 3991              		.loc 1 958 21 view .LVU1349
 3992 1362 0020     		movs	r0, #0
 3993 1364 FFF7FEFF 		bl	e_set_speed_left
 3994              	.LVL266:
 3995              		.loc 1 959 21 view .LVU1350
 3996 1368 0020     		movs	r0, #0
 3997 136a FFF7FEFF 		bl	e_set_speed_right
 3998              	.LVL267:
 3999              		.loc 1 960 21 view .LVU1351
 4000 136e 0021     		movs	r1, #0
 4001 1370 0820     		movs	r0, #8
 4002 1372 FFF7FEFF 		bl	e_set_led
 4003              	.LVL268:
 4004              		.loc 1 961 21 view .LVU1352
 4005              		.loc 1 961 24 is_stmt 0 view .LVU1353
 4006 1376 099B     		ldr	r3, [sp, #36]
 4007              		.loc 1 962 25 view .LVU1354
 4008 1378 4B48     		ldr	r0, .L693+36
 4009 137a 0321     		movs	r1, #3
 4010              		.loc 1 961 24 view .LVU1355
 4011 137c 002B     		cmp	r3, #0
 4012 137e 00F0F884 		beq	.L315
 4013              		.loc 1 962 25 is_stmt 1 view .LVU1356
 4014              		.loc 1 962 25 view .LVU1357
 4015 1382 FFF7FEFF 		bl	e_send_uart1_char
 4016              	.LVL269:
 4017              		.loc 1 962 25 view .LVU1358
 4018              	.L316:
 4019              		.loc 1 962 25 discriminator 2 view .LVU1359
 4020              		.loc 1 962 25 discriminator 2 view .LVU1360
 4021 1386 FFF7FEFF 		bl	e_uart1_sending
 4022              	.LVL270:
 4023 138a 0028     		cmp	r0, #0
 4024 138c FBD1     		bne	.L316
 4025 138e FEF7C6BE 		b	.L4
 4026              	.L182:
 4027              		.loc 1 666 21 view .LVU1361
 4028 1392 4649     		ldr	r1, .L693+40
 4029 1394 464A     		ldr	r2, .L693+44
 4030 1396 474B     		ldr	r3, .L693+48
 4031 1398 3F48     		ldr	r0, .L693+20
 4032 139a FFF7FEFF 		bl	sscanf
 4033              	.LVL271:
 4034              		.loc 1 667 21 view .LVU1362
 4035 139e 444B     		ldr	r3, .L693+44
 4036 13a0 1868     		ldr	r0, [r3]
ARM GAS  /tmp/ccucPY5I.s 			page 77


 4037 13a2 FFF7FEFF 		bl	e_set_speed_left
 4038              	.LVL272:
 4039              		.loc 1 668 21 view .LVU1363
 4040 13a6 434B     		ldr	r3, .L693+48
 4041 13a8 1868     		ldr	r0, [r3]
 4042 13aa FFF7FEFF 		bl	e_set_speed_right
 4043              	.LVL273:
 4044              		.loc 1 669 21 view .LVU1364
 4045              		.loc 1 669 24 is_stmt 0 view .LVU1365
 4046 13ae 099B     		ldr	r3, [sp, #36]
 4047              		.loc 1 670 25 view .LVU1366
 4048 13b0 4148     		ldr	r0, .L693+52
 4049 13b2 0321     		movs	r1, #3
 4050              		.loc 1 669 24 view .LVU1367
 4051 13b4 002B     		cmp	r3, #0
 4052 13b6 00F05385 		beq	.L202
 4053              		.loc 1 670 25 is_stmt 1 view .LVU1368
 4054              		.loc 1 670 25 view .LVU1369
 4055 13ba FFF7FEFF 		bl	e_send_uart1_char
 4056              	.LVL274:
 4057              		.loc 1 670 25 view .LVU1370
 4058              	.L203:
 4059              		.loc 1 670 25 discriminator 2 view .LVU1371
 4060              		.loc 1 670 25 discriminator 2 view .LVU1372
 4061 13be FFF7FEFF 		bl	e_uart1_sending
 4062              	.LVL275:
 4063 13c2 0028     		cmp	r0, #0
 4064 13c4 FBD1     		bne	.L203
 4065 13c6 FEF7AABE 		b	.L4
 4066              	.L167:
 4067              		.loc 1 968 21 view .LVU1373
 4068              		.loc 1 968 24 is_stmt 0 view .LVU1374
 4069 13ca 099B     		ldr	r3, [sp, #36]
 4070 13cc 002B     		cmp	r3, #0
 4071 13ce 00F02485 		beq	.L318
 4072              		.loc 1 969 25 is_stmt 1 view .LVU1375
 4073 13d2 3A4A     		ldr	r2, .L693+56
 4074 13d4 3A49     		ldr	r1, .L693+60
 4075 13d6 3048     		ldr	r0, .L693+20
 4076 13d8 FFF7FEFF 		bl	sscanf
 4077              	.LVL276:
 4078              		.loc 1 970 25 view .LVU1376
 4079              		.loc 1 970 28 is_stmt 0 view .LVU1377
 4080 13dc 394B     		ldr	r3, .L693+64
 4081 13de 1B78     		ldrb	r3, [r3]	@ zero_extendqisi2
 4082 13e0 002B     		cmp	r3, #0
 4083 13e2 00F0C685 		beq	.L678
 4084              	.L319:
 4085              		.loc 1 974 25 is_stmt 1 view .LVU1378
 4086 13e6 354B     		ldr	r3, .L693+56
 4087 13e8 1B68     		ldr	r3, [r3]
 4088 13ea 013B     		subs	r3, r3, #1
 4089 13ec 042B     		cmp	r3, #4
 4090 13ee 00F23386 		bhi	.L320
 4091 13f2 DFE813F0 		tbh	[pc, r3, lsl #1]
 4092              	.L322:
 4093 13f6 0902     		.2byte	(.L326-.L322)/2
ARM GAS  /tmp/ccucPY5I.s 			page 78


 4094 13f8 0302     		.2byte	(.L325-.L322)/2
 4095 13fa FD01     		.2byte	(.L324-.L322)/2
 4096 13fc F601     		.2byte	(.L323-.L322)/2
 4097 13fe E601     		.2byte	(.L321-.L322)/2
 4098              		.p2align 1
 4099              	.L171:
 4100              		.loc 1 918 21 view .LVU1379
 4101              		.loc 1 918 24 is_stmt 0 view .LVU1380
 4102 1400 099B     		ldr	r3, [sp, #36]
 4103 1402 002B     		cmp	r3, #0
 4104 1404 00F05883 		beq	.L306
 4105              		.loc 1 919 25 is_stmt 1 view .LVU1381
 4106 1408 0020     		movs	r0, #0
 4107 140a FFF7FEFF 		bl	e_get_ambient_light
 4108              	.LVL277:
 4109 140e 0246     		mov	r2, r0
 4110 1410 0120     		movs	r0, #1
 4111 1412 0D92     		str	r2, [sp, #52]
 4112 1414 FFF7FEFF 		bl	e_get_ambient_light
 4113              	.LVL278:
 4114 1418 0346     		mov	r3, r0
 4115 141a 0220     		movs	r0, #2
 4116 141c 0C93     		str	r3, [sp, #48]
 4117 141e FFF7FEFF 		bl	e_get_ambient_light
 4118              	.LVL279:
 4119 1422 0646     		mov	r6, r0
 4120 1424 0320     		movs	r0, #3
 4121 1426 FFF7FEFF 		bl	e_get_ambient_light
 4122              	.LVL280:
 4123 142a 0146     		mov	r1, r0
 4124 142c 0420     		movs	r0, #4
 4125 142e 0B91     		str	r1, [sp, #44]
 4126 1430 FFF7FEFF 		bl	e_get_ambient_light
 4127              	.LVL281:
 4128 1434 0446     		mov	r4, r0
 4129 1436 0520     		movs	r0, #5
 4130 1438 0A94     		str	r4, [sp, #40]
 4131 143a FFF7FEFF 		bl	e_get_ambient_light
 4132              	.LVL282:
 4133 143e 0446     		mov	r4, r0
 4134 1440 0620     		movs	r0, #6
 4135 1442 FFF7FEFF 		bl	e_get_ambient_light
 4136              	.LVL283:
 4137 1446 0546     		mov	r5, r0
 4138 1448 0720     		movs	r0, #7
 4139 144a FFF7FEFF 		bl	e_get_ambient_light
 4140              	.LVL284:
 4141 144e 0A9B     		ldr	r3, [sp, #40]
 4142 1450 0B99     		ldr	r1, [sp, #44]
 4143 1452 0293     		str	r3, [sp, #8]
 4144 1454 0191     		str	r1, [sp, #4]
 4145 1456 DDE90C32 		ldrd	r3, r2, [sp, #48]
 4146 145a 1B49     		ldr	r1, .L693+68
 4147 145c 0590     		str	r0, [sp, #20]
 4148 145e CDE90345 		strd	r4, r5, [sp, #12]
 4149 1462 0D48     		ldr	r0, .L693+20
 4150 1464 0096     		str	r6, [sp]
ARM GAS  /tmp/ccucPY5I.s 			page 79


 4151 1466 FFF7FEFF 		bl	sprintf
 4152              	.LVL285:
 4153              		.loc 1 922 25 view .LVU1382
 4154              		.loc 1 922 25 view .LVU1383
 4155 146a 0B48     		ldr	r0, .L693+20
 4156 146c FFF7FEFF 		bl	strlen
 4157              	.LVL286:
 4158 1470 0146     		mov	r1, r0
 4159 1472 0948     		ldr	r0, .L693+20
 4160 1474 FFF7FEFF 		bl	e_send_uart1_char
 4161              	.LVL287:
 4162              		.loc 1 922 25 view .LVU1384
 4163              	.L307:
 4164              		.loc 1 922 25 discriminator 2 view .LVU1385
 4165              		.loc 1 922 25 discriminator 2 view .LVU1386
 4166 1478 FFF7FEFF 		bl	e_uart1_sending
 4167              	.LVL288:
 4168 147c 0028     		cmp	r0, #0
 4169 147e FBD1     		bne	.L307
 4170 1480 FEF74DBE 		b	.L4
 4171              	.L694:
 4172              		.align	2
 4173              	.L693:
 4174 1484 00000000 		.word	.LANCHOR30
 4175 1488 00000000 		.word	.LANCHOR29
 4176 148c 00000000 		.word	.LANCHOR3
 4177 1490 00000000 		.word	.LANCHOR2
 4178 1494 7C080000 		.word	.LC64
 4179 1498 00000000 		.word	buffer
 4180 149c 94080000 		.word	.LC65
 4181 14a0 68080000 		.word	.LC63
 4182 14a4 FC080000 		.word	.LC70
 4183 14a8 98090000 		.word	.LC77
 4184 14ac A4000000 		.word	.LC8
 4185 14b0 00000000 		.word	.LANCHOR8
 4186 14b4 00000000 		.word	.LANCHOR7
 4187 14b8 B0000000 		.word	.LC9
 4188 14bc 00000000 		.word	.LANCHOR32
 4189 14c0 9C090000 		.word	.LC78
 4190 14c4 00000000 		.word	.LANCHOR9
 4191 14c8 3C090000 		.word	.LC72
 4192              	.L173:
 4193              		.loc 1 858 21 view .LVU1387
 4194              		.loc 1 858 24 is_stmt 0 view .LVU1388
 4195 14cc 099B     		ldr	r3, [sp, #36]
 4196 14ce 002B     		cmp	r3, #0
 4197 14d0 3EF4A7AF 		beq	.L623
 4198              		.loc 1 859 25 is_stmt 1 view .LVU1389
 4199              		.loc 1 860 32 is_stmt 0 view .LVU1390
 4200 14d4 0024     		movs	r4, #0
 4201              		.loc 1 859 25 view .LVU1391
 4202 14d6 FFF7FEFF 		bl	e_i2cp_enable
 4203              	.LVL289:
 4204              		.loc 1 860 25 is_stmt 1 view .LVU1392
 4205              		.loc 1 860 32 is_stmt 0 view .LVU1393
 4206 14da C8F80040 		str	r4, [r8]
 4207              		.loc 1 860 37 is_stmt 1 view .LVU1394
ARM GAS  /tmp/ccucPY5I.s 			page 80


 4208              	.L298:
 4209              		.loc 1 861 29 view .LVU1395
 4210              		.loc 1 861 45 view .LVU1396
 4211              		.loc 1 862 34 view .LVU1397
 4212              		.loc 1 861 32 is_stmt 0 view .LVU1398
 4213 14de E507     		lsls	r5, r4, #31
 4214              		.loc 1 862 46 view .LVU1399
 4215 14e0 04F1FF33 		add	r3, r4, #-1
 4216              		.loc 1 861 57 view .LVU1400
 4217 14e4 04F10101 		add	r1, r4, #1
 4218 14e8 C9B2     		uxtb	r1, r1
 4219 14ea 4FF0C000 		mov	r0, #192
 4220              		.loc 1 862 46 view .LVU1401
 4221 14ee 44BF     		itt	mi
 4222 14f0 D9B2     		uxtbmi	r1, r3
 4223 14f2 C020     		movmi	r0, #192
 4224 14f4 FFF7FEFF 		bl	e_i2cp_read
 4225              	.LVL290:
 4226              		.loc 1 862 44 view .LVU1402
 4227 14f8 09F80400 		strb	r0, [r9, r4]
 4228              		.loc 1 860 44 is_stmt 1 view .LVU1403
 4229              		.loc 1 860 45 is_stmt 0 view .LVU1404
 4230 14fc D8F80040 		ldr	r4, [r8]
 4231 1500 0134     		adds	r4, r4, #1
 4232              		.loc 1 860 25 view .LVU1405
 4233 1502 052C     		cmp	r4, #5
 4234              		.loc 1 860 45 view .LVU1406
 4235 1504 C8F80040 		str	r4, [r8]
 4236              		.loc 1 860 37 is_stmt 1 view .LVU1407
 4237              		.loc 1 860 25 is_stmt 0 view .LVU1408
 4238 1508 E9DD     		ble	.L298
 4239              		.loc 1 865 25 is_stmt 1 view .LVU1409
 4240              		.loc 1 865 32 is_stmt 0 view .LVU1410
 4241 150a 0D24     		movs	r4, #13
 4242 150c C8F80040 		str	r4, [r8]
 4243              		.loc 1 865 38 is_stmt 1 view .LVU1411
 4244              	.L301:
 4245              		.loc 1 866 29 view .LVU1412
 4246              		.loc 1 866 45 view .LVU1413
 4247              		.loc 1 867 34 view .LVU1414
 4248              		.loc 1 866 32 is_stmt 0 view .LVU1415
 4249 1510 E207     		lsls	r2, r4, #31
 4250              		.loc 1 867 50 view .LVU1416
 4251 1512 04F10103 		add	r3, r4, #1
 4252              		.loc 1 866 61 view .LVU1417
 4253 1516 04F1FF31 		add	r1, r4, #-1
 4254 151a C9B2     		uxtb	r1, r1
 4255 151c 4FF0C000 		mov	r0, #192
 4256              		.loc 1 867 50 view .LVU1418
 4257 1520 44BF     		itt	mi
 4258 1522 D9B2     		uxtbmi	r1, r3
 4259 1524 C020     		movmi	r0, #192
 4260 1526 FFF7FEFF 		bl	e_i2cp_read
 4261              	.LVL291:
 4262              		.loc 1 867 48 view .LVU1419
 4263 152a 4C44     		add	r4, r4, r9
 4264 152c 04F8070C 		strb	r0, [r4, #-7]
ARM GAS  /tmp/ccucPY5I.s 			page 81


 4265              		.loc 1 865 46 is_stmt 1 view .LVU1420
 4266              		.loc 1 865 47 is_stmt 0 view .LVU1421
 4267 1530 D8F80040 		ldr	r4, [r8]
 4268 1534 0134     		adds	r4, r4, #1
 4269              		.loc 1 865 25 view .LVU1422
 4270 1536 102C     		cmp	r4, #16
 4271              		.loc 1 865 47 view .LVU1423
 4272 1538 C8F80040 		str	r4, [r8]
 4273              		.loc 1 865 38 is_stmt 1 view .LVU1424
 4274              		.loc 1 865 25 is_stmt 0 view .LVU1425
 4275 153c E8DD     		ble	.L301
 4276              		.loc 1 870 25 is_stmt 1 view .LVU1426
 4277 153e FFF7FEFF 		bl	e_i2cp_disable
 4278              	.LVL292:
 4279              		.loc 1 873 25 view .LVU1427
 4280              		.loc 1 883 34 is_stmt 0 view .LVU1428
 4281 1542 99F80950 		ldrb	r5, [r9, #9]	@ zero_extendqisi2
 4282              		.loc 1 881 34 view .LVU1429
 4283 1546 99F80730 		ldrb	r3, [r9, #7]	@ zero_extendqisi2
 4284              		.loc 1 882 33 view .LVU1430
 4285 154a 99F80800 		ldrb	r0, [r9, #8]	@ zero_extendqisi2
 4286              		.loc 1 880 33 view .LVU1431
 4287 154e 99F80620 		ldrb	r2, [r9, #6]	@ zero_extendqisi2
 4288              		.loc 1 879 34 view .LVU1432
 4289 1552 99F80540 		ldrb	r4, [r9, #5]	@ zero_extendqisi2
 4290              		.loc 1 878 33 view .LVU1433
 4291 1556 99F80410 		ldrb	r1, [r9, #4]	@ zero_extendqisi2
 4292              		.loc 1 873 25 view .LVU1434
 4293 155a 00EB0520 		add	r0, r0, r5, lsl #8
 4294 155e 02EB0322 		add	r2, r2, r3, lsl #8
 4295              		.loc 1 876 33 view .LVU1435
 4296 1562 99F80250 		ldrb	r5, [r9, #2]	@ zero_extendqisi2
 4297              		.loc 1 877 34 view .LVU1436
 4298 1566 99F80330 		ldrb	r3, [r9, #3]	@ zero_extendqisi2
 4299              		.loc 1 873 25 view .LVU1437
 4300 156a 0290     		str	r0, [sp, #8]
 4301 156c 0192     		str	r2, [sp, #4]
 4302              		.loc 1 875 34 view .LVU1438
 4303 156e 99F80100 		ldrb	r0, [r9, #1]	@ zero_extendqisi2
 4304              		.loc 1 874 33 view .LVU1439
 4305 1572 99F80020 		ldrb	r2, [r9]	@ zero_extendqisi2
 4306              		.loc 1 873 25 view .LVU1440
 4307 1576 01EB0421 		add	r1, r1, r4, lsl #8
 4308 157a 02EB0022 		add	r2, r2, r0, lsl #8
 4309 157e 0091     		str	r1, [sp]
 4310 1580 05EB0323 		add	r3, r5, r3, lsl #8
 4311 1584 B349     		ldr	r1, .L695
 4312 1586 B448     		ldr	r0, .L695+4
 4313 1588 FFF7FEFF 		bl	sprintf
 4314              	.LVL293:
 4315              		.loc 1 893 25 is_stmt 1 view .LVU1441
 4316              		.loc 1 893 25 view .LVU1442
 4317 158c B248     		ldr	r0, .L695+4
 4318 158e FFF7FEFF 		bl	strlen
 4319              	.LVL294:
 4320 1592 0146     		mov	r1, r0
 4321 1594 B048     		ldr	r0, .L695+4
ARM GAS  /tmp/ccucPY5I.s 			page 82


 4322 1596 FFF7FEFF 		bl	e_send_uart1_char
 4323              	.LVL295:
 4324              		.loc 1 893 25 view .LVU1443
 4325              	.L302:
 4326              		.loc 1 893 25 discriminator 2 view .LVU1444
 4327              		.loc 1 893 25 discriminator 2 view .LVU1445
 4328 159a FFF7FEFF 		bl	e_uart1_sending
 4329              	.LVL296:
 4330 159e 0028     		cmp	r0, #0
 4331 15a0 FBD1     		bne	.L302
 4332 15a2 FEF7BCBD 		b	.L4
 4333              	.L169:
 4334              		.loc 1 942 21 view .LVU1446
 4335 15a6 FFF7FEFF 		bl	e_get_steps_left
 4336              	.LVL297:
 4337 15aa 0A90     		str	r0, [sp, #40]
 4338 15ac FFF7FEFF 		bl	e_get_steps_right
 4339              	.LVL298:
 4340 15b0 0A9A     		ldr	r2, [sp, #40]
 4341 15b2 AA49     		ldr	r1, .L695+8
 4342 15b4 0346     		mov	r3, r0
 4343 15b6 A848     		ldr	r0, .L695+4
 4344 15b8 FFF7FEFF 		bl	sprintf
 4345              	.LVL299:
 4346              		.loc 1 943 21 view .LVU1447
 4347              		.loc 1 943 24 is_stmt 0 view .LVU1448
 4348 15bc 099B     		ldr	r3, [sp, #36]
 4349              		.loc 1 944 25 view .LVU1449
 4350 15be A648     		ldr	r0, .L695+4
 4351              		.loc 1 943 24 view .LVU1450
 4352 15c0 002B     		cmp	r3, #0
 4353 15c2 00F08184 		beq	.L312
 4354              		.loc 1 944 25 is_stmt 1 view .LVU1451
 4355              		.loc 1 944 25 view .LVU1452
 4356 15c6 FFF7FEFF 		bl	strlen
 4357              	.LVL300:
 4358 15ca 0146     		mov	r1, r0
 4359 15cc A248     		ldr	r0, .L695+4
 4360 15ce FFF7FEFF 		bl	e_send_uart1_char
 4361              	.LVL301:
 4362              		.loc 1 944 25 view .LVU1453
 4363              	.L313:
 4364              		.loc 1 944 25 discriminator 2 view .LVU1454
 4365              		.loc 1 944 25 discriminator 2 view .LVU1455
 4366 15d2 FFF7FEFF 		bl	e_uart1_sending
 4367              	.LVL302:
 4368 15d6 0028     		cmp	r0, #0
 4369 15d8 FBD1     		bne	.L313
 4370 15da FEF7A0BD 		b	.L4
 4371              	.L180:
 4372              		.loc 1 684 21 view .LVU1456
 4373 15de A04A     		ldr	r2, .L695+12
 4374 15e0 A049     		ldr	r1, .L695+16
 4375 15e2 9D48     		ldr	r0, .L695+4
 4376 15e4 FFF7FEFF 		bl	sscanf
 4377              	.LVL303:
 4378              		.loc 1 685 21 view .LVU1457
ARM GAS  /tmp/ccucPY5I.s 			page 83


 4379              		.loc 1 685 24 is_stmt 0 view .LVU1458
 4380 15e8 099B     		ldr	r3, [sp, #36]
 4381 15ea 002B     		cmp	r3, #0
 4382 15ec 00F04084 		beq	.L208
 4383              		.loc 1 686 25 is_stmt 1 view .LVU1459
 4384 15f0 9B4B     		ldr	r3, .L695+12
 4385 15f2 1868     		ldr	r0, [r3]
 4386 15f4 FFF7FEFF 		bl	e_set_front_led
 4387              	.LVL304:
 4388              		.loc 1 687 25 view .LVU1460
 4389              		.loc 1 687 25 view .LVU1461
 4390 15f8 9B48     		ldr	r0, .L695+20
 4391 15fa 0321     		movs	r1, #3
 4392 15fc FFF7FEFF 		bl	e_send_uart1_char
 4393              	.LVL305:
 4394              		.loc 1 687 25 view .LVU1462
 4395              	.L209:
 4396              		.loc 1 687 25 discriminator 2 view .LVU1463
 4397              		.loc 1 687 25 discriminator 2 view .LVU1464
 4398 1600 FFF7FEFF 		bl	e_uart1_sending
 4399              	.LVL306:
 4400 1604 0028     		cmp	r0, #0
 4401 1606 FBD1     		bne	.L209
 4402 1608 FEF789BD 		b	.L4
 4403              	.L184:
 4404              		.loc 1 648 21 view .LVU1465
 4405 160c 944A     		ldr	r2, .L695+12
 4406 160e 9749     		ldr	r1, .L695+24
 4407 1610 9148     		ldr	r0, .L695+4
 4408 1612 FFF7FEFF 		bl	sscanf
 4409              	.LVL307:
 4410              		.loc 1 649 21 view .LVU1466
 4411              		.loc 1 649 24 is_stmt 0 view .LVU1467
 4412 1616 099B     		ldr	r3, [sp, #36]
 4413 1618 002B     		cmp	r3, #0
 4414 161a 00F04B84 		beq	.L196
 4415              		.loc 1 650 25 is_stmt 1 view .LVU1468
 4416 161e 904B     		ldr	r3, .L695+12
 4417 1620 1868     		ldr	r0, [r3]
 4418 1622 FFF7FEFF 		bl	e_set_body_led
 4419              	.LVL308:
 4420              		.loc 1 651 25 view .LVU1469
 4421              		.loc 1 651 25 view .LVU1470
 4422 1626 9248     		ldr	r0, .L695+28
 4423 1628 0321     		movs	r1, #3
 4424 162a FFF7FEFF 		bl	e_send_uart1_char
 4425              	.LVL309:
 4426              		.loc 1 651 25 view .LVU1471
 4427              	.L197:
 4428              		.loc 1 651 25 discriminator 2 view .LVU1472
 4429              		.loc 1 651 25 discriminator 2 view .LVU1473
 4430 162e FFF7FEFF 		bl	e_uart1_sending
 4431              	.LVL310:
 4432 1632 0028     		cmp	r0, #0
 4433 1634 FBD1     		bne	.L197
 4434 1636 FEF772BD 		b	.L4
 4435              	.L179:
ARM GAS  /tmp/ccucPY5I.s 			page 84


 4436              		.loc 1 694 21 view .LVU1474
 4437              		.loc 1 694 24 is_stmt 0 view .LVU1475
 4438 163a 099B     		ldr	r3, [sp, #36]
 4439 163c 002B     		cmp	r3, #0
 4440 163e 3EF4F0AE 		beq	.L623
 4441              		.loc 1 695 25 is_stmt 1 view .LVU1476
 4442              		.loc 1 695 95 is_stmt 0 view .LVU1477
 4443 1642 FFF7FEFF 		bl	e_get_check
 4444              	.LVL311:
 4445 1646 0B90     		str	r0, [sp, #44]
 4446              		.loc 1 695 110 view .LVU1478
 4447 1648 FFF7FEFF 		bl	e_get_address
 4448              	.LVL312:
 4449 164c 0A90     		str	r0, [sp, #40]
 4450              		.loc 1 695 127 view .LVU1479
 4451 164e FFF7FEFF 		bl	e_get_data
 4452              	.LVL313:
 4453              		.loc 1 695 25 view .LVU1480
 4454 1652 8849     		ldr	r1, .L695+32
 4455 1654 0090     		str	r0, [sp]
 4456 1656 DDE90A32 		ldrd	r3, r2, [sp, #40]
 4457 165a 7F48     		ldr	r0, .L695+4
 4458 165c FFF7FEFF 		bl	sprintf
 4459              	.LVL314:
 4460              		.loc 1 696 25 is_stmt 1 view .LVU1481
 4461              		.loc 1 696 25 view .LVU1482
 4462 1660 7D48     		ldr	r0, .L695+4
 4463 1662 FFF7FEFF 		bl	strlen
 4464              	.LVL315:
 4465 1666 0146     		mov	r1, r0
 4466 1668 7B48     		ldr	r0, .L695+4
 4467 166a FFF7FEFF 		bl	e_send_uart1_char
 4468              	.LVL316:
 4469              		.loc 1 696 25 view .LVU1483
 4470              	.L211:
 4471              		.loc 1 696 25 discriminator 2 view .LVU1484
 4472              		.loc 1 696 25 discriminator 2 view .LVU1485
 4473 166e FFF7FEFF 		bl	e_uart1_sending
 4474              	.LVL317:
 4475 1672 0028     		cmp	r0, #0
 4476 1674 FBD1     		bne	.L211
 4477 1676 FEF752BD 		b	.L4
 4478              	.L183:
 4479              		.loc 1 657 21 view .LVU1486
 4480              		.loc 1 657 32 is_stmt 0 view .LVU1487
 4481 167a 7F4B     		ldr	r3, .L695+36
 4482              		.loc 1 657 80 view .LVU1488
 4483 167c 7F49     		ldr	r1, .L695+40
 4484              		.loc 1 657 32 view .LVU1489
 4485 167e 1A69     		ldr	r2, [r3, #16]
 4486              		.loc 1 657 64 view .LVU1490
 4487 1680 1869     		ldr	r0, [r3, #16]
 4488              		.loc 1 657 80 view .LVU1491
 4489 1682 0C69     		ldr	r4, [r1, #16]
 4490              		.loc 1 657 48 view .LVU1492
 4491 1684 1B69     		ldr	r3, [r3, #16]
 4492              		.loc 1 658 21 view .LVU1493
ARM GAS  /tmp/ccucPY5I.s 			page 85


 4493 1686 7E49     		ldr	r1, .L695+44
 4494              		.loc 1 657 64 view .LVU1494
 4495 1688 C0F3C030 		ubfx	r0, r0, #15, #1
 4496              		.loc 1 657 80 view .LVU1495
 4497 168c C4F30014 		ubfx	r4, r4, #4, #1
 4498              		.loc 1 657 74 view .LVU1496
 4499 1690 00EB4400 		add	r0, r0, r4, lsl #1
 4500              		.loc 1 657 48 view .LVU1497
 4501 1694 C3F38033 		ubfx	r3, r3, #14, #1
 4502              		.loc 1 657 74 view .LVU1498
 4503 1698 03EB4003 		add	r3, r3, r0, lsl #1
 4504              		.loc 1 657 32 view .LVU1499
 4505 169c C2F34032 		ubfx	r2, r2, #13, #1
 4506              		.loc 1 657 74 view .LVU1500
 4507 16a0 02EB4302 		add	r2, r2, r3, lsl #1
 4508              		.loc 1 657 30 view .LVU1501
 4509 16a4 774B     		ldr	r3, .L695+48
 4510              		.loc 1 658 21 view .LVU1502
 4511 16a6 6C48     		ldr	r0, .L695+4
 4512              		.loc 1 657 30 view .LVU1503
 4513 16a8 1A60     		str	r2, [r3]
 4514              		.loc 1 658 21 is_stmt 1 view .LVU1504
 4515 16aa FFF7FEFF 		bl	sprintf
 4516              	.LVL318:
 4517              		.loc 1 659 21 view .LVU1505
 4518              		.loc 1 659 24 is_stmt 0 view .LVU1506
 4519 16ae 099B     		ldr	r3, [sp, #36]
 4520              		.loc 1 660 25 view .LVU1507
 4521 16b0 6948     		ldr	r0, .L695+4
 4522              		.loc 1 659 24 view .LVU1508
 4523 16b2 002B     		cmp	r3, #0
 4524 16b4 00F04884 		beq	.L199
 4525              		.loc 1 660 25 is_stmt 1 view .LVU1509
 4526              		.loc 1 660 25 view .LVU1510
 4527 16b8 FFF7FEFF 		bl	strlen
 4528              	.LVL319:
 4529 16bc 0146     		mov	r1, r0
 4530 16be 6648     		ldr	r0, .L695+4
 4531 16c0 FFF7FEFF 		bl	e_send_uart1_char
 4532              	.LVL320:
 4533              		.loc 1 660 25 view .LVU1511
 4534              	.L200:
 4535              		.loc 1 660 25 discriminator 2 view .LVU1512
 4536              		.loc 1 660 25 discriminator 2 view .LVU1513
 4537 16c4 FFF7FEFF 		bl	e_uart1_sending
 4538              	.LVL321:
 4539 16c8 0028     		cmp	r0, #0
 4540 16ca FBD1     		bne	.L200
 4541 16cc FEF727BD 		b	.L4
 4542              	.L181:
 4543              		.loc 1 676 21 view .LVU1514
 4544 16d0 6D4B     		ldr	r3, .L695+52
 4545 16d2 6E4A     		ldr	r2, .L695+56
 4546 16d4 1B68     		ldr	r3, [r3]
 4547 16d6 1268     		ldr	r2, [r2]
 4548 16d8 6D49     		ldr	r1, .L695+60
 4549 16da 5F48     		ldr	r0, .L695+4
ARM GAS  /tmp/ccucPY5I.s 			page 86


 4550 16dc FFF7FEFF 		bl	sprintf
 4551              	.LVL322:
 4552              		.loc 1 677 21 view .LVU1515
 4553              		.loc 1 677 24 is_stmt 0 view .LVU1516
 4554 16e0 099B     		ldr	r3, [sp, #36]
 4555              		.loc 1 678 25 view .LVU1517
 4556 16e2 5D48     		ldr	r0, .L695+4
 4557              		.loc 1 677 24 view .LVU1518
 4558 16e4 002B     		cmp	r3, #0
 4559 16e6 00F0CD83 		beq	.L205
 4560              		.loc 1 678 25 is_stmt 1 view .LVU1519
 4561              		.loc 1 678 25 view .LVU1520
 4562 16ea FFF7FEFF 		bl	strlen
 4563              	.LVL323:
 4564 16ee 0146     		mov	r1, r0
 4565 16f0 5948     		ldr	r0, .L695+4
 4566 16f2 FFF7FEFF 		bl	e_send_uart1_char
 4567              	.LVL324:
 4568              		.loc 1 678 25 view .LVU1521
 4569              	.L206:
 4570              		.loc 1 678 25 discriminator 2 view .LVU1522
 4571              		.loc 1 678 25 discriminator 2 view .LVU1523
 4572 16f6 FFF7FEFF 		bl	e_uart1_sending
 4573              	.LVL325:
 4574 16fa 0028     		cmp	r0, #0
 4575 16fc FBD1     		bne	.L206
 4576 16fe FEF70EBD 		b	.L4
 4577              	.L185:
 4578              		.loc 1 620 21 view .LVU1524
 4579              		.loc 1 620 23 is_stmt 0 view .LVU1525
 4580 1702 099B     		ldr	r3, [sp, #36]
 4581 1704 002B     		cmp	r3, #0
 4582 1706 00F0F582 		beq	.L186
 4583              		.loc 1 621 25 is_stmt 1 view .LVU1526
 4584 170a 0121     		movs	r1, #1
 4585 170c 0020     		movs	r0, #0
 4586 170e FFF7FEFF 		bl	e_get_acc_filtered
 4587              	.LVL326:
 4588 1712 0121     		movs	r1, #1
 4589 1714 0246     		mov	r2, r0
 4590 1716 0846     		mov	r0, r1
 4591 1718 0B92     		str	r2, [sp, #44]
 4592 171a FFF7FEFF 		bl	e_get_acc_filtered
 4593              	.LVL327:
 4594 171e 0121     		movs	r1, #1
 4595 1720 0346     		mov	r3, r0
 4596 1722 0220     		movs	r0, #2
 4597 1724 0A93     		str	r3, [sp, #40]
 4598 1726 FFF7FEFF 		bl	e_get_acc_filtered
 4599              	.LVL328:
 4600 172a 5A49     		ldr	r1, .L695+64
 4601 172c 0090     		str	r0, [sp]
 4602 172e DDE90A32 		ldrd	r3, r2, [sp, #40]
 4603 1732 4948     		ldr	r0, .L695+4
 4604 1734 FFF7FEFF 		bl	sprintf
 4605              	.LVL329:
 4606              		.loc 1 629 21 view .LVU1527
ARM GAS  /tmp/ccucPY5I.s 			page 87


 4607              		.loc 1 630 25 view .LVU1528
 4608              		.loc 1 630 25 view .LVU1529
 4609 1738 4748     		ldr	r0, .L695+4
 4610 173a FFF7FEFF 		bl	strlen
 4611              	.LVL330:
 4612 173e 0146     		mov	r1, r0
 4613 1740 4548     		ldr	r0, .L695+4
 4614 1742 FFF7FEFF 		bl	e_send_uart1_char
 4615              	.LVL331:
 4616              		.loc 1 630 25 view .LVU1530
 4617              	.L187:
 4618              		.loc 1 630 25 discriminator 2 view .LVU1531
 4619              		.loc 1 630 25 discriminator 2 view .LVU1532
 4620 1746 FFF7FEFF 		bl	e_uart1_sending
 4621              	.LVL332:
 4622 174a 0028     		cmp	r0, #0
 4623 174c FBD1     		bne	.L187
 4624 174e FEF7E6BC 		b	.L4
 4625              	.L666:
 4626              		.loc 1 1042 25 view .LVU1533
 4627 1752 514B     		ldr	r3, .L695+68
 4628 1754 514A     		ldr	r2, .L695+72
 4629 1756 5249     		ldr	r1, .L695+76
 4630 1758 3F48     		ldr	r0, .L695+4
 4631 175a FFF7FEFF 		bl	sscanf
 4632              	.LVL333:
 4633              		.loc 1 1044 25 view .LVU1534
 4634 175e 4E4B     		ldr	r3, .L695+68
 4635 1760 4E4A     		ldr	r2, .L695+72
 4636 1762 5049     		ldr	r1, .L695+80
 4637 1764 1B68     		ldr	r3, [r3]
 4638 1766 1268     		ldr	r2, [r2]
 4639 1768 3B48     		ldr	r0, .L695+4
 4640 176a FFF7FEFF 		bl	sprintf
 4641              	.LVL334:
 4642              		.loc 1 1045 25 view .LVU1535
 4643              		.loc 1 1045 25 view .LVU1536
 4644 176e 3A48     		ldr	r0, .L695+4
 4645 1770 FFF7FEFF 		bl	strlen
 4646              	.LVL335:
 4647 1774 0146     		mov	r1, r0
 4648 1776 3848     		ldr	r0, .L695+4
 4649 1778 FFF7FEFF 		bl	e_send_uart1_char
 4650              	.LVL336:
 4651              		.loc 1 1045 25 view .LVU1537
 4652              	.L345:
 4653              		.loc 1 1045 25 discriminator 2 view .LVU1538
 4654              		.loc 1 1045 25 discriminator 2 view .LVU1539
 4655 177c FFF7FEFF 		bl	e_uart1_sending
 4656              	.LVL337:
 4657 1780 0028     		cmp	r0, #0
 4658 1782 FBD1     		bne	.L345
 4659              		.loc 1 1045 25 discriminator 3 view .LVU1540
 4660              		.loc 1 1050 25 discriminator 3 view .LVU1541
 4661 1784 FFF7FEFF 		bl	e_i2cp_enable
 4662              	.LVL338:
 4663              		.loc 1 1051 25 discriminator 3 view .LVU1542
ARM GAS  /tmp/ccucPY5I.s 			page 88


 4664              		.loc 1 1051 31 is_stmt 0 discriminator 3 view .LVU1543
 4665 1788 434B     		ldr	r3, .L695+68
 4666 178a 1978     		ldrb	r1, [r3]	@ zero_extendqisi2
 4667 178c 434B     		ldr	r3, .L695+72
 4668 178e 1878     		ldrb	r0, [r3]	@ zero_extendqisi2
 4669 1790 FFF7FEFF 		bl	e_i2cp_read
 4670              	.LVL339:
 4671 1794 444B     		ldr	r3, .L695+84
 4672 1796 1C46     		mov	r4, r3
 4673 1798 1860     		str	r0, [r3]
 4674              		.loc 1 1052 25 is_stmt 1 discriminator 3 view .LVU1544
 4675 179a FFF7FEFF 		bl	e_i2cp_disable
 4676              	.LVL340:
 4677              		.loc 1 1053 25 discriminator 3 view .LVU1545
 4678 179e 4349     		ldr	r1, .L695+88
 4679 17a0 2268     		ldr	r2, [r4]
 4680 17a2 2D48     		ldr	r0, .L695+4
 4681 17a4 FFF7FEFF 		bl	sprintf
 4682              	.LVL341:
 4683              		.loc 1 1054 25 discriminator 3 view .LVU1546
 4684              		.loc 1 1054 25 discriminator 3 view .LVU1547
 4685 17a8 2B48     		ldr	r0, .L695+4
 4686 17aa FFF7FEFF 		bl	strlen
 4687              	.LVL342:
 4688 17ae 0146     		mov	r1, r0
 4689 17b0 2948     		ldr	r0, .L695+4
 4690 17b2 FFF7FEFF 		bl	e_send_uart1_char
 4691              	.LVL343:
 4692              		.loc 1 1054 25 discriminator 3 view .LVU1548
 4693              	.L346:
 4694              		.loc 1 1054 25 discriminator 2 view .LVU1549
 4695              		.loc 1 1054 25 discriminator 2 view .LVU1550
 4696 17b6 FFF7FEFF 		bl	e_uart1_sending
 4697              	.LVL344:
 4698 17ba 0028     		cmp	r0, #0
 4699 17bc FBD1     		bne	.L346
 4700 17be FEF7AEBC 		b	.L4
 4701              	.L321:
 4702              		.loc 1 983 37 view .LVU1551
 4703 17c2 41F65071 		movw	r1, #8016
 4704 17c6 42F61430 		movw	r0, #11028
 4705 17ca FFF7FEFF 		bl	e_play_sound
 4706              	.LVL345:
 4707              		.loc 1 984 33 view .LVU1552
 4708              	.L327:
 4709              		.loc 1 991 25 view .LVU1553
 4710              		.loc 1 991 25 view .LVU1554
 4711 17ce 3848     		ldr	r0, .L695+92
 4712 17d0 0321     		movs	r1, #3
 4713 17d2 FFF7FEFF 		bl	e_send_uart1_char
 4714              	.LVL346:
 4715              		.loc 1 991 25 view .LVU1555
 4716              	.L328:
 4717              		.loc 1 991 25 discriminator 2 view .LVU1556
 4718              		.loc 1 991 25 discriminator 2 view .LVU1557
 4719 17d6 FFF7FEFF 		bl	e_uart1_sending
 4720              	.LVL347:
ARM GAS  /tmp/ccucPY5I.s 			page 89


 4721 17da 0028     		cmp	r0, #0
 4722 17dc FBD1     		bne	.L328
 4723 17de FEF79EBC 		b	.L4
 4724              	.L323:
 4725              		.loc 1 981 37 view .LVU1558
 4726 17e2 40F69461 		movw	r1, #3732
 4727 17e6 41F67E40 		movw	r0, #7294
 4728 17ea FFF7FEFF 		bl	e_play_sound
 4729              	.LVL348:
 4730              		.loc 1 982 33 view .LVU1559
 4731 17ee EEE7     		b	.L327
 4732              	.L324:
 4733              		.loc 1 979 37 view .LVU1560
 4734 17f0 0022     		movs	r2, #0
 4735 17f2 0221     		movs	r1, #2
 4736 17f4 0B20     		movs	r0, #11
 4737 17f6 FFF7FEFF 		bl	playMelody
 4738              	.LVL349:
 4739              		.loc 1 980 33 view .LVU1561
 4740 17fa E8E7     		b	.L327
 4741              	.L325:
 4742              		.loc 1 977 37 view .LVU1562
 4743 17fc 0022     		movs	r2, #0
 4744 17fe 0221     		movs	r1, #2
 4745 1800 0420     		movs	r0, #4
 4746 1802 FFF7FEFF 		bl	playMelody
 4747              	.LVL350:
 4748              		.loc 1 978 33 view .LVU1563
 4749 1806 E2E7     		b	.L327
 4750              	.L326:
 4751              		.loc 1 975 37 view .LVU1564
 4752 1808 0022     		movs	r2, #0
 4753 180a 0221     		movs	r1, #2
 4754 180c 0320     		movs	r0, #3
 4755 180e FFF7FEFF 		bl	playMelody
 4756              	.LVL351:
 4757              		.loc 1 976 33 view .LVU1565
 4758 1812 DCE7     		b	.L327
 4759              	.LVL352:
 4760              	.L68:
 4761              		.loc 1 976 33 is_stmt 0 view .LVU1566
 4762              	.LBE4:
 4763              		.loc 1 299 33 is_stmt 1 view .LVU1567
 4764              		.loc 1 299 44 is_stmt 0 view .LVU1568
 4765 1814 FFF7FEFF 		bl	e_read_acc_spheric
 4766              	.LVL353:
 4767 1818 264B     		ldr	r3, .L695+96
 4768 181a 83ED000A 		vstr.32	s0, [r3]
 4769 181e 1A78     		ldrb	r2, [r3]	@ zero_extendqisi2
 4770 1820 C3ED010A 		vstr.32	s1, [r3, #4]
 4771 1824 1546     		mov	r5, r2
 4772 1826 9A79     		ldrb	r2, [r3, #6]	@ zero_extendqisi2
 4773 1828 83ED021A 		vstr.32	s2, [r3, #8]
 4774 182c 0F92     		str	r2, [sp, #60]
 4775 182e DA79     		ldrb	r2, [r3, #7]	@ zero_extendqisi2
 4776 1830 0E92     		str	r2, [sp, #56]
 4777 1832 1A7A     		ldrb	r2, [r3, #8]	@ zero_extendqisi2
ARM GAS  /tmp/ccucPY5I.s 			page 90


 4778 1834 0B92     		str	r2, [sp, #44]
 4779 1836 5A7A     		ldrb	r2, [r3, #9]	@ zero_extendqisi2
 4780 1838 93F801E0 		ldrb	lr, [r3, #1]	@ zero_extendqisi2
 4781 183c 93F802C0 		ldrb	ip, [r3, #2]	@ zero_extendqisi2
 4782 1840 DC78     		ldrb	r4, [r3, #3]	@ zero_extendqisi2
 4783 1842 1879     		ldrb	r0, [r3, #4]	@ zero_extendqisi2
 4784 1844 5979     		ldrb	r1, [r3, #5]	@ zero_extendqisi2
 4785 1846 1092     		str	r2, [sp, #64]
 4786 1848 9A7A     		ldrb	r2, [r3, #10]	@ zero_extendqisi2
 4787 184a DB7A     		ldrb	r3, [r3, #11]	@ zero_extendqisi2
 4788 184c 0D92     		str	r2, [sp, #52]
 4789 184e 0C93     		str	r3, [sp, #48]
 4790 1850 FFF755B9 		b	.L67
 4791              	.L696:
 4792              		.align	2
 4793              	.L695:
 4794 1854 E8080000 		.word	.LC69
 4795 1858 00000000 		.word	buffer
 4796 185c 8C090000 		.word	.LC76
 4797 1860 00000000 		.word	.LANCHOR28
 4798 1864 C0000000 		.word	.LC11
 4799 1868 C8000000 		.word	.LC12
 4800 186c 90000000 		.word	.LC5
 4801 1870 98000000 		.word	.LC6
 4802 1874 CC000000 		.word	.LC13
 4803 1878 00080240 		.word	1073874944
 4804 187c 000C0240 		.word	1073875968
 4805 1880 9C000000 		.word	.LC7
 4806 1884 00000000 		.word	.LANCHOR0
 4807 1888 00000000 		.word	.LANCHOR7
 4808 188c 00000000 		.word	.LANCHOR8
 4809 1890 B4000000 		.word	.LC10
 4810 1894 5C000000 		.word	.LC1
 4811 1898 00000000 		.word	.LANCHOR26
 4812 189c 00000000 		.word	.LANCHOR25
 4813 18a0 F8090000 		.word	.LC85
 4814 18a4 040A0000 		.word	.LC86
 4815 18a8 00000000 		.word	.LANCHOR27
 4816 18ac 100A0000 		.word	.LC87
 4817 18b0 A4090000 		.word	.LC79
 4818 18b4 00000000 		.word	.LANCHOR15
 4819              	.L63:
 4820              		.loc 1 272 29 is_stmt 1 view .LVU1569
 4821              		.loc 1 272 32 is_stmt 0 view .LVU1570
 4822 18b8 FFF7FEFF 		bl	isEpuckVersion1_3
 4823              	.LVL354:
 4824              		.loc 1 272 31 view .LVU1571
 4825 18bc 0028     		cmp	r0, #0
 4826 18be 00F0B080 		beq	.L65
 4827              		.loc 1 273 33 is_stmt 1 view .LVU1572
 4828              		.loc 1 273 38 is_stmt 0 view .LVU1573
 4829 18c2 B04B     		ldr	r3, .L697
 4830 18c4 C3F800B0 		str	fp, [r3]
 4831              		.loc 1 274 33 is_stmt 1 view .LVU1574
 4832              		.loc 1 274 38 is_stmt 0 view .LVU1575
 4833 18c8 AF4B     		ldr	r3, .L697+4
 4834 18ca C3F800B0 		str	fp, [r3]
ARM GAS  /tmp/ccucPY5I.s 			page 91


 4835              		.loc 1 275 33 is_stmt 1 view .LVU1576
 4836              		.loc 1 275 38 is_stmt 0 view .LVU1577
 4837 18ce AF4B     		ldr	r3, .L697+8
 4838 18d0 5946     		mov	r1, fp
 4839 18d2 C3F800B0 		str	fp, [r3]
 4840 18d6 DC46     		mov	ip, fp
 4841 18d8 5846     		mov	r0, fp
 4842 18da DE46     		mov	lr, fp
 4843 18dc 5C46     		mov	r4, fp
 4844 18de 5D46     		mov	r5, fp
 4845 18e0 FEF78CBE 		b	.L64
 4846              	.L96:
 4847              		.loc 1 452 29 is_stmt 1 view .LVU1578
 4848              		.loc 1 452 36 is_stmt 0 view .LVU1579
 4849 18e4 C8F800B0 		str	fp, [r8]
 4850              		.loc 1 452 41 is_stmt 1 view .LVU1580
 4851              		.loc 1 452 43 is_stmt 0 view .LVU1581
 4852 18e8 5846     		mov	r0, fp
 4853              	.L98:
 4854              		.loc 1 453 33 is_stmt 1 discriminator 3 view .LVU1582
 4855              		.loc 1 453 37 is_stmt 0 discriminator 3 view .LVU1583
 4856 18ea FFF7FEFF 		bl	e_get_calibrated_prox
 4857              	.LVL355:
 4858              		.loc 1 454 41 discriminator 3 view .LVU1584
 4859 18ee DAF80020 		ldr	r2, [r10]
 4860              		.loc 1 452 50 discriminator 3 view .LVU1585
 4861 18f2 D8F80030 		ldr	r3, [r8]
 4862              		.loc 1 453 37 discriminator 3 view .LVU1586
 4863 18f6 0146     		mov	r1, r0
 4864              		.loc 1 454 33 is_stmt 1 discriminator 3 view .LVU1587
 4865              		.loc 1 455 49 is_stmt 0 discriminator 3 view .LVU1588
 4866 18f8 0412     		asrs	r4, r0, #8
 4867              		.loc 1 452 50 discriminator 3 view .LVU1589
 4868 18fa 581C     		adds	r0, r3, #1
 4869              		.loc 1 455 45 discriminator 3 view .LVU1590
 4870 18fc 09EB0203 		add	r3, r9, r2
 4871              		.loc 1 454 45 discriminator 3 view .LVU1591
 4872 1900 09F80210 		strb	r1, [r9, r2]
 4873              		.loc 1 455 33 is_stmt 1 discriminator 3 view .LVU1592
 4874              		.loc 1 452 29 is_stmt 0 discriminator 3 view .LVU1593
 4875 1904 0928     		cmp	r0, #9
 4876              		.loc 1 455 41 discriminator 3 view .LVU1594
 4877 1906 02F10202 		add	r2, r2, #2
 4878              		.loc 1 455 45 discriminator 3 view .LVU1595
 4879 190a 5C70     		strb	r4, [r3, #1]
 4880              		.loc 1 452 49 is_stmt 1 discriminator 3 view .LVU1596
 4881              		.loc 1 455 41 is_stmt 0 discriminator 3 view .LVU1597
 4882 190c CAF80020 		str	r2, [r10]
 4883              		.loc 1 452 50 discriminator 3 view .LVU1598
 4884 1910 C8F80000 		str	r0, [r8]
 4885              		.loc 1 452 41 is_stmt 1 discriminator 3 view .LVU1599
 4886              		.loc 1 452 29 is_stmt 0 discriminator 3 view .LVU1600
 4887 1914 E9DD     		ble	.L98
 4888              		.loc 1 577 53 is_stmt 1 view .LVU1601
 4889              		.loc 1 577 27 view .LVU1602
 4890              		.loc 1 577 28 is_stmt 0 view .LVU1603
 4891 1916 3046     		mov	r0, r6
ARM GAS  /tmp/ccucPY5I.s 			page 92


 4892 1918 FFF7FEFF 		bl	e_getchar_uart2
 4893              	.LVL356:
 4894              		.loc 1 577 27 view .LVU1604
 4895 191c 0028     		cmp	r0, #0
 4896 191e 3EF4A5AE 		beq	.L659
 4897 1922 FEF783BE 		b	.L134
 4898              	.L99:
 4899              		.loc 1 468 29 is_stmt 1 view .LVU1605
 4900              		.loc 1 468 36 is_stmt 0 view .LVU1606
 4901 1926 C8F800B0 		str	fp, [r8]
 4902              		.loc 1 468 41 is_stmt 1 view .LVU1607
 4903              		.loc 1 468 43 is_stmt 0 view .LVU1608
 4904 192a 5846     		mov	r0, fp
 4905              	.L102:
 4906              		.loc 1 469 33 is_stmt 1 discriminator 3 view .LVU1609
 4907              		.loc 1 469 37 is_stmt 0 discriminator 3 view .LVU1610
 4908 192c FFF7FEFF 		bl	e_get_ambient_light
 4909              	.LVL357:
 4910              		.loc 1 470 41 discriminator 3 view .LVU1611
 4911 1930 DAF80020 		ldr	r2, [r10]
 4912              		.loc 1 468 50 discriminator 3 view .LVU1612
 4913 1934 D8F80030 		ldr	r3, [r8]
 4914              		.loc 1 469 37 discriminator 3 view .LVU1613
 4915 1938 0146     		mov	r1, r0
 4916              		.loc 1 470 33 is_stmt 1 discriminator 3 view .LVU1614
 4917              		.loc 1 471 49 is_stmt 0 discriminator 3 view .LVU1615
 4918 193a 0412     		asrs	r4, r0, #8
 4919              		.loc 1 468 50 discriminator 3 view .LVU1616
 4920 193c 581C     		adds	r0, r3, #1
 4921              		.loc 1 471 45 discriminator 3 view .LVU1617
 4922 193e 09EB0203 		add	r3, r9, r2
 4923              		.loc 1 470 45 discriminator 3 view .LVU1618
 4924 1942 09F80210 		strb	r1, [r9, r2]
 4925              		.loc 1 471 33 is_stmt 1 discriminator 3 view .LVU1619
 4926              		.loc 1 468 29 is_stmt 0 discriminator 3 view .LVU1620
 4927 1946 0928     		cmp	r0, #9
 4928              		.loc 1 471 41 discriminator 3 view .LVU1621
 4929 1948 02F10202 		add	r2, r2, #2
 4930              		.loc 1 471 45 discriminator 3 view .LVU1622
 4931 194c 5C70     		strb	r4, [r3, #1]
 4932              		.loc 1 468 49 is_stmt 1 discriminator 3 view .LVU1623
 4933              		.loc 1 471 41 is_stmt 0 discriminator 3 view .LVU1624
 4934 194e CAF80020 		str	r2, [r10]
 4935              		.loc 1 468 50 discriminator 3 view .LVU1625
 4936 1952 C8F80000 		str	r0, [r8]
 4937              		.loc 1 468 41 is_stmt 1 discriminator 3 view .LVU1626
 4938              		.loc 1 468 29 is_stmt 0 discriminator 3 view .LVU1627
 4939 1956 E9DD     		ble	.L102
 4940              		.loc 1 577 53 is_stmt 1 view .LVU1628
 4941              		.loc 1 577 27 view .LVU1629
 4942              		.loc 1 577 28 is_stmt 0 view .LVU1630
 4943 1958 3046     		mov	r0, r6
 4944 195a FFF7FEFF 		bl	e_getchar_uart2
 4945              	.LVL358:
 4946              		.loc 1 577 27 view .LVU1631
 4947 195e 0028     		cmp	r0, #0
 4948 1960 3EF484AE 		beq	.L659
ARM GAS  /tmp/ccucPY5I.s 			page 93


 4949 1964 FEF762BE 		b	.L134
 4950              	.L668:
 4951              		.loc 1 582 21 is_stmt 1 view .LVU1632
 4952              		.loc 1 582 24 is_stmt 0 view .LVU1633
 4953 1968 894A     		ldr	r2, .L697+12
 4954 196a 1278     		ldrb	r2, [r2]	@ zero_extendqisi2
 4955 196c 002A     		cmp	r2, #0
 4956 196e 5BD1     		bne	.L679
 4957              	.L137:
 4958              		.loc 1 589 17 is_stmt 1 view .LVU1634
 4959              		.loc 1 590 21 view .LVU1635
 4960 1970 8848     		ldr	r0, .L697+16
 4961 1972 FFF7FEFF 		bl	e_send_uart1_char
 4962              	.LVL359:
 4963              		.loc 1 591 21 view .LVU1636
 4964              	.L139:
 4965              		.loc 1 591 46 discriminator 1 view .LVU1637
 4966              		.loc 1 591 27 discriminator 1 view .LVU1638
 4967              		.loc 1 591 28 is_stmt 0 discriminator 1 view .LVU1639
 4968 1976 FFF7FEFF 		bl	e_uart1_sending
 4969              	.LVL360:
 4970              		.loc 1 591 27 discriminator 1 view .LVU1640
 4971 197a 0028     		cmp	r0, #0
 4972 197c FBD1     		bne	.L139
 4973 197e FEF7CEBB 		b	.L4
 4974              	.L671:
 4975              		.loc 1 506 39 discriminator 1 view .LVU1641
 4976 1982 FFF7FEFF 		bl	isEpuckVersion1_3
 4977              	.LVL361:
 4978              		.loc 1 506 36 discriminator 1 view .LVU1642
 4979 1986 0028     		cmp	r0, #0
 4980 1988 3FF492A8 		beq	.L114
 4981              		.loc 1 507 29 is_stmt 1 view .LVU1643
 4982              		.loc 1 507 43 is_stmt 0 view .LVU1644
 4983 198c FFF7FEFF 		bl	getTemperature
 4984              	.LVL362:
 4985              		.loc 1 507 37 view .LVU1645
 4986 1990 DAF80030 		ldr	r3, [r10]
 4987 1994 5A1C     		adds	r2, r3, #1
 4988              		.loc 1 507 41 view .LVU1646
 4989 1996 09F80300 		strb	r0, [r9, r3]
 4990              		.loc 1 507 37 view .LVU1647
 4991 199a CAF80020 		str	r2, [r10]
 4992              		.loc 1 507 41 view .LVU1648
 4993 199e FEF740BE 		b	.L130
 4994              	.L672:
 4995              		.loc 1 333 29 is_stmt 1 view .LVU1649
 4996              		.loc 1 333 41 is_stmt 0 view .LVU1650
 4997 19a2 FFF7FEFF 		bl	getBatteryValueRaw
 4998              	.LVL363:
 4999              		.loc 1 334 37 view .LVU1651
 5000 19a6 DAF80030 		ldr	r3, [r10]
 5001              	.LVL364:
 5002              		.loc 1 334 29 is_stmt 1 view .LVU1652
 5003              		.loc 1 335 41 is_stmt 0 view .LVU1653
 5004 19aa 09EB0302 		add	r2, r9, r3
 5005              		.loc 1 334 41 view .LVU1654
ARM GAS  /tmp/ccucPY5I.s 			page 94


 5006 19ae 09F80300 		strb	r0, [r9, r3]
 5007              		.loc 1 335 29 is_stmt 1 view .LVU1655
 5008              		.loc 1 335 53 is_stmt 0 view .LVU1656
 5009 19b2 010A     		lsrs	r1, r0, #8
 5010              		.loc 1 335 37 view .LVU1657
 5011 19b4 0233     		adds	r3, r3, #2
 5012              		.loc 1 335 41 view .LVU1658
 5013 19b6 5170     		strb	r1, [r2, #1]
 5014              		.loc 1 335 37 view .LVU1659
 5015 19b8 CAF80030 		str	r3, [r10]
 5016 19bc FEF72EBE 		b	.L44
 5017              	.LVL365:
 5018              	.L670:
 5019              		.loc 1 370 38 discriminator 1 view .LVU1660
 5020 19c0 FFF7FEFF 		bl	isEpuckVersion1_3
 5021              	.LVL366:
 5022              		.loc 1 370 35 discriminator 1 view .LVU1661
 5023 19c4 0028     		cmp	r0, #0
 5024 19c6 3EF4C5AF 		beq	.L81
 5025              		.loc 1 371 29 is_stmt 1 view .LVU1662
 5026 19ca 734A     		ldr	r2, .L697+20
 5027 19cc 7349     		ldr	r1, .L697+24
 5028 19ce 7448     		ldr	r0, .L697+28
 5029 19d0 FFF7FEFF 		bl	getAllAxesGyro
 5030              	.LVL367:
 5031              		.loc 1 372 29 view .LVU1663
 5032              		.loc 1 372 41 is_stmt 0 view .LVU1664
 5033 19d4 724B     		ldr	r3, .L697+28
 5034              		.loc 1 372 37 view .LVU1665
 5035 19d6 DAF80020 		ldr	r2, [r10]
 5036              		.loc 1 372 41 view .LVU1666
 5037 19da 1968     		ldr	r1, [r3]
 5038              		.loc 1 374 41 view .LVU1667
 5039 19dc 6F4B     		ldr	r3, .L697+24
 5040              		.loc 1 372 41 view .LVU1668
 5041 19de 09F80210 		strb	r1, [r9, r2]
 5042              		.loc 1 373 29 is_stmt 1 view .LVU1669
 5043              		.loc 1 374 41 is_stmt 0 view .LVU1670
 5044 19e2 1C68     		ldr	r4, [r3]
 5045              		.loc 1 376 41 view .LVU1671
 5046 19e4 6C4B     		ldr	r3, .L697+20
 5047 19e6 1868     		ldr	r0, [r3]
 5048              		.loc 1 373 41 view .LVU1672
 5049 19e8 09EB0203 		add	r3, r9, r2
 5050              		.loc 1 373 49 view .LVU1673
 5051 19ec 0912     		asrs	r1, r1, #8
 5052              		.loc 1 377 37 view .LVU1674
 5053 19ee 0632     		adds	r2, r2, #6
 5054              		.loc 1 373 41 view .LVU1675
 5055 19f0 5970     		strb	r1, [r3, #1]
 5056              		.loc 1 374 29 is_stmt 1 view .LVU1676
 5057              		.loc 1 377 37 is_stmt 0 view .LVU1677
 5058 19f2 CAF80020 		str	r2, [r10]
 5059              		.loc 1 375 49 view .LVU1678
 5060 19f6 2112     		asrs	r1, r4, #8
 5061              		.loc 1 377 49 view .LVU1679
 5062 19f8 0212     		asrs	r2, r0, #8
ARM GAS  /tmp/ccucPY5I.s 			page 95


 5063              		.loc 1 374 41 view .LVU1680
 5064 19fa 9C70     		strb	r4, [r3, #2]
 5065              		.loc 1 375 29 is_stmt 1 view .LVU1681
 5066              		.loc 1 375 41 is_stmt 0 view .LVU1682
 5067 19fc D970     		strb	r1, [r3, #3]
 5068              		.loc 1 376 29 is_stmt 1 view .LVU1683
 5069              		.loc 1 376 41 is_stmt 0 view .LVU1684
 5070 19fe 1871     		strb	r0, [r3, #4]
 5071              		.loc 1 377 29 is_stmt 1 view .LVU1685
 5072              		.loc 1 377 41 is_stmt 0 view .LVU1686
 5073 1a00 5A71     		strb	r2, [r3, #5]
 5074 1a02 FEF70EBE 		b	.L130
 5075              	.LVL368:
 5076              	.L664:
 5077              		.loc 1 179 33 is_stmt 1 view .LVU1687
 5078 1a06 FFF7FEFF 		bl	e_init_sound
 5079              	.LVL369:
 5080              		.loc 1 180 33 view .LVU1688
 5081              		.loc 1 180 39 is_stmt 0 view .LVU1689
 5082 1a0a 664A     		ldr	r2, .L697+32
 5083 1a0c 0123     		movs	r3, #1
 5084 1a0e 1370     		strb	r3, [r2]
 5085 1a10 FEF7D6BC 		b	.L24
 5086              	.LVL370:
 5087              	.L667:
 5088              		.loc 1 241 33 is_stmt 1 view .LVU1690
 5089 1a14 FFF7FEFF 		bl	e_init_sound
 5090              	.LVL371:
 5091              		.loc 1 242 33 view .LVU1691
 5092              		.loc 1 242 39 is_stmt 0 view .LVU1692
 5093 1a18 624A     		ldr	r2, .L697+32
 5094 1a1a 0123     		movs	r3, #1
 5095 1a1c 1370     		strb	r3, [r2]
 5096 1a1e FEF764BD 		b	.L41
 5097              	.LVL372:
 5098              	.L65:
 5099              		.loc 1 277 33 is_stmt 1 view .LVU1693
 5100              		.loc 1 277 40 is_stmt 0 view .LVU1694
 5101 1a22 0121     		movs	r1, #1
 5102 1a24 FEF7CABD 		b	.L653
 5103              	.L679:
 5104              		.loc 1 583 25 is_stmt 1 view .LVU1695
 5105              		.loc 1 583 34 is_stmt 0 view .LVU1696
 5106 1a28 594A     		ldr	r2, .L697+12
 5107 1a2a 1370     		strb	r3, [r2]
 5108              		.loc 1 584 25 is_stmt 1 view .LVU1697
 5109              	.L138:
 5110              		.loc 1 584 57 discriminator 1 view .LVU1698
 5111              		.loc 1 584 31 discriminator 1 view .LVU1699
 5112              		.loc 1 584 33 is_stmt 0 discriminator 1 view .LVU1700
 5113 1a2c FFF7FEFF 		bl	e_poxxxx_is_img_ready
 5114              	.LVL373:
 5115              		.loc 1 584 31 discriminator 1 view .LVU1701
 5116 1a30 0028     		cmp	r0, #0
 5117 1a32 FBD0     		beq	.L138
 5118              		.loc 1 585 25 is_stmt 1 view .LVU1702
 5119              		.loc 1 585 41 is_stmt 0 view .LVU1703
ARM GAS  /tmp/ccucPY5I.s 			page 96


 5120 1a34 149D     		ldr	r5, [sp, #80]
 5121 1a36 DAF80030 		ldr	r3, [r10]
 5122 1a3a 2C68     		ldr	r4, [r5]
 5123 1a3c 1B1B     		subs	r3, r3, r4
 5124              		.loc 1 585 32 view .LVU1704
 5125 1a3e 09EB0304 		add	r4, r9, r3
 5126              		.loc 1 585 53 view .LVU1705
 5127 1a42 FFF7FEFF 		bl	dcmi_get_last_image_ptr
 5128              	.LVL374:
 5129              		.loc 1 585 25 view .LVU1706
 5130 1a46 2A68     		ldr	r2, [r5]
 5131              		.loc 1 585 53 view .LVU1707
 5132 1a48 0146     		mov	r1, r0
 5133              		.loc 1 585 25 view .LVU1708
 5134 1a4a 2046     		mov	r0, r4
 5135 1a4c FFF7FEFF 		bl	memcpy
 5136              	.LVL375:
 5137 1a50 DAF80010 		ldr	r1, [r10]
 5138 1a54 8CE7     		b	.L137
 5139              	.L354:
 5140              		.loc 1 408 33 is_stmt 1 view .LVU1709
 5141              		.loc 1 409 37 view .LVU1710
 5142 1a56 544B     		ldr	r3, .L697+36
 5143 1a58 1878     		ldrb	r0, [r3]	@ zero_extendqisi2
 5144 1a5a FFF7FEFF 		bl	e_set_body_led
 5145              	.LVL376:
 5146 1a5e FEF7E0BD 		b	.L130
 5147              	.LVL377:
 5148              	.L351:
 5149              	.LBB5:
 5150              		.loc 1 1074 25 view .LVU1711
 5151              		.loc 1 1074 25 view .LVU1712
 5152 1a62 FFF7FEFF 		bl	e_send_uart2_char
 5153              	.LVL378:
 5154              		.loc 1 1074 25 view .LVU1713
 5155              	.L353:
 5156              		.loc 1 1074 25 discriminator 2 view .LVU1714
 5157              		.loc 1 1074 25 discriminator 2 view .LVU1715
 5158 1a66 FFF7FEFF 		bl	e_uart2_sending
 5159              	.LVL379:
 5160 1a6a 0028     		cmp	r0, #0
 5161 1a6c FBD1     		bne	.L353
 5162 1a6e FEF7D8BC 		b	.L623
 5163              	.L212:
 5164              		.loc 1 704 25 view .LVU1716
 5165 1a72 4E4B     		ldr	r3, .L697+40
 5166 1a74 93E80700 		ldm	r3, {r0, r1, r2}
 5167 1a78 464B     		ldr	r3, .L697+16
 5168 1a7a 03C3     		stmia	r3!, {r0, r1}
 5169 1a7c 1846     		mov	r0, r3
 5170              		.loc 1 709 25 is_stmt 0 view .LVU1717
 5171 1a7e 0921     		movs	r1, #9
 5172              		.loc 1 704 25 view .LVU1718
 5173 1a80 20F80829 		strh	r2, [r0], #-8	@ movhi
 5174              		.loc 1 706 21 is_stmt 1 view .LVU1719
 5175              		.loc 1 709 25 view .LVU1720
 5176              		.loc 1 709 25 view .LVU1721
ARM GAS  /tmp/ccucPY5I.s 			page 97


 5177 1a84 FFF7FEFF 		bl	e_send_uart2_char
 5178              	.LVL380:
 5179              		.loc 1 709 25 view .LVU1722
 5180              	.L215:
 5181              		.loc 1 709 25 discriminator 2 view .LVU1723
 5182              		.loc 1 709 25 discriminator 2 view .LVU1724
 5183 1a88 FFF7FEFF 		bl	e_uart2_sending
 5184              	.LVL381:
 5185 1a8c 0028     		cmp	r0, #0
 5186 1a8e FBD1     		bne	.L215
 5187 1a90 FEF7C7BC 		b	.L623
 5188              	.L193:
 5189              		.loc 1 644 25 view .LVU1725
 5190              		.loc 1 644 25 view .LVU1726
 5191 1a94 FFF7FEFF 		bl	strlen
 5192              	.LVL382:
 5193 1a98 0146     		mov	r1, r0
 5194 1a9a 3E48     		ldr	r0, .L697+16
 5195 1a9c FFF7FEFF 		bl	e_send_uart2_char
 5196              	.LVL383:
 5197              		.loc 1 644 25 view .LVU1727
 5198              	.L195:
 5199              		.loc 1 644 25 discriminator 2 view .LVU1728
 5200              		.loc 1 644 25 discriminator 2 view .LVU1729
 5201 1aa0 FFF7FEFF 		bl	e_uart2_sending
 5202              	.LVL384:
 5203 1aa4 0028     		cmp	r0, #0
 5204 1aa6 FBD1     		bne	.L195
 5205 1aa8 FEF7BBBC 		b	.L623
 5206              	.L191:
 5207              		.loc 1 639 25 view .LVU1730
 5208 1aac 4049     		ldr	r1, .L697+44
 5209 1aae 3948     		ldr	r0, .L697+16
 5210 1ab0 FFF7FEFF 		bl	sprintf
 5211              	.LVL385:
 5212 1ab4 FFF715B9 		b	.L192
 5213              	.L306:
 5214              		.loc 1 924 25 view .LVU1731
 5215 1ab8 0998     		ldr	r0, [sp, #36]
 5216 1aba FFF7FEFF 		bl	e_get_ambient_light
 5217              	.LVL386:
 5218 1abe 0246     		mov	r2, r0
 5219 1ac0 0120     		movs	r0, #1
 5220 1ac2 0F92     		str	r2, [sp, #60]
 5221 1ac4 FFF7FEFF 		bl	e_get_ambient_light
 5222              	.LVL387:
 5223 1ac8 0346     		mov	r3, r0
 5224 1aca 0220     		movs	r0, #2
 5225 1acc 0E93     		str	r3, [sp, #56]
 5226 1ace FFF7FEFF 		bl	e_get_ambient_light
 5227              	.LVL388:
 5228 1ad2 0646     		mov	r6, r0
 5229 1ad4 0320     		movs	r0, #3
 5230 1ad6 FFF7FEFF 		bl	e_get_ambient_light
 5231              	.LVL389:
 5232 1ada 0146     		mov	r1, r0
 5233 1adc 0420     		movs	r0, #4
ARM GAS  /tmp/ccucPY5I.s 			page 98


 5234 1ade 0A91     		str	r1, [sp, #40]
 5235 1ae0 FFF7FEFF 		bl	e_get_ambient_light
 5236              	.LVL390:
 5237 1ae4 0146     		mov	r1, r0
 5238 1ae6 0520     		movs	r0, #5
 5239 1ae8 0B91     		str	r1, [sp, #44]
 5240 1aea FFF7FEFF 		bl	e_get_ambient_light
 5241              	.LVL391:
 5242 1aee 0146     		mov	r1, r0
 5243 1af0 0620     		movs	r0, #6
 5244 1af2 0D91     		str	r1, [sp, #52]
 5245 1af4 FFF7FEFF 		bl	e_get_ambient_light
 5246              	.LVL392:
 5247 1af8 0446     		mov	r4, r0
 5248 1afa 0720     		movs	r0, #7
 5249 1afc 0C94     		str	r4, [sp, #48]
 5250 1afe FFF7FEFF 		bl	e_get_ambient_light
 5251              	.LVL393:
 5252 1b02 0446     		mov	r4, r0
 5253 1b04 0820     		movs	r0, #8
 5254 1b06 FFF7FEFF 		bl	e_get_ambient_light
 5255              	.LVL394:
 5256 1b0a 0546     		mov	r5, r0
 5257 1b0c 0920     		movs	r0, #9
 5258 1b0e FFF7FEFF 		bl	e_get_ambient_light
 5259              	.LVL395:
 5260 1b12 0C9B     		ldr	r3, [sp, #48]
 5261 1b14 0493     		str	r3, [sp, #16]
 5262 1b16 0B9B     		ldr	r3, [sp, #44]
 5263 1b18 0D99     		ldr	r1, [sp, #52]
 5264 1b1a 0293     		str	r3, [sp, #8]
 5265 1b1c 0A9B     		ldr	r3, [sp, #40]
 5266 1b1e 0391     		str	r1, [sp, #12]
 5267 1b20 0193     		str	r3, [sp, #4]
 5268 1b22 2449     		ldr	r1, .L697+48
 5269 1b24 0790     		str	r0, [sp, #28]
 5270 1b26 DDE90E32 		ldrd	r3, r2, [sp, #56]
 5271 1b2a CDE90545 		strd	r4, r5, [sp, #20]
 5272 1b2e 1948     		ldr	r0, .L697+16
 5273 1b30 0096     		str	r6, [sp]
 5274 1b32 FFF7FEFF 		bl	sprintf
 5275              	.LVL396:
 5276              		.loc 1 928 25 view .LVU1732
 5277              		.loc 1 928 25 view .LVU1733
 5278 1b36 1748     		ldr	r0, .L697+16
 5279 1b38 FFF7FEFF 		bl	strlen
 5280              	.LVL397:
 5281 1b3c 0146     		mov	r1, r0
 5282 1b3e 1548     		ldr	r0, .L697+16
 5283 1b40 FFF7FEFF 		bl	e_send_uart2_char
 5284              	.LVL398:
 5285              		.loc 1 928 25 view .LVU1734
 5286              	.L308:
 5287              		.loc 1 928 25 discriminator 2 view .LVU1735
 5288              		.loc 1 928 25 discriminator 2 view .LVU1736
 5289 1b44 FFF7FEFF 		bl	e_uart2_sending
 5290              	.LVL399:
ARM GAS  /tmp/ccucPY5I.s 			page 99


 5291 1b48 0028     		cmp	r0, #0
 5292 1b4a FBD1     		bne	.L308
 5293 1b4c FEF769BC 		b	.L623
 5294              	.L337:
 5295              		.loc 1 1022 25 view .LVU1737
 5296              		.loc 1 1022 25 view .LVU1738
 5297 1b50 FFF7FEFF 		bl	e_send_uart2_char
 5298              	.LVL400:
 5299              		.loc 1 1022 25 view .LVU1739
 5300              	.L340:
 5301              		.loc 1 1022 25 discriminator 2 view .LVU1740
 5302              		.loc 1 1022 25 discriminator 2 view .LVU1741
 5303 1b54 FFF7FEFF 		bl	e_uart2_sending
 5304              	.LVL401:
 5305 1b58 0028     		cmp	r0, #0
 5306 1b5a FBD1     		bne	.L340
 5307              		.loc 1 1022 25 view .LVU1742
 5308              		.loc 1 1024 21 view .LVU1743
 5309 1b5c 164B     		ldr	r3, .L697+52
 5310 1b5e 1749     		ldr	r1, .L697+56
 5311 1b60 1A68     		ldr	r2, [r3]
 5312 1b62 0C48     		ldr	r0, .L697+16
 5313 1b64 FFF7FEFF 		bl	sprintf
 5314              	.LVL402:
 5315              		.loc 1 1025 21 view .LVU1744
 5316              		.loc 1 1028 25 view .LVU1745
 5317              		.loc 1 1028 25 view .LVU1746
 5318 1b68 0A48     		ldr	r0, .L697+16
 5319 1b6a FFF7FEFF 		bl	strlen
 5320              	.LVL403:
 5321 1b6e 0146     		mov	r1, r0
 5322 1b70 0848     		ldr	r0, .L697+16
 5323 1b72 FFF7FEFF 		bl	e_send_uart2_char
 5324              	.LVL404:
 5325              		.loc 1 1028 25 view .LVU1747
 5326              	.L343:
 5327              		.loc 1 1028 25 discriminator 2 view .LVU1748
 5328              		.loc 1 1028 25 discriminator 2 view .LVU1749
 5329 1b76 FFF7FEFF 		bl	e_uart2_sending
 5330              	.LVL405:
 5331 1b7a 0028     		cmp	r0, #0
 5332 1b7c FBD1     		bne	.L343
 5333 1b7e FEF750BC 		b	.L623
 5334              	.L698:
 5335 1b82 00BF     		.align	2
 5336              	.L697:
 5337 1b84 00000000 		.word	.LANCHOR12
 5338 1b88 00000000 		.word	.LANCHOR13
 5339 1b8c 00000000 		.word	.LANCHOR14
 5340 1b90 00000000 		.word	.LANCHOR21
 5341 1b94 00000000 		.word	buffer
 5342 1b98 00000000 		.word	.LANCHOR18
 5343 1b9c 00000000 		.word	.LANCHOR19
 5344 1ba0 00000000 		.word	.LANCHOR20
 5345 1ba4 00000000 		.word	.LANCHOR9
 5346 1ba8 00000000 		.word	.LANCHOR17
 5347 1bac 6C0A0000 		.word	.LC92
ARM GAS  /tmp/ccucPY5I.s 			page 100


 5348 1bb0 88000000 		.word	.LC4
 5349 1bb4 58090000 		.word	.LC73
 5350 1bb8 00000000 		.word	.LANCHOR1
 5351 1bbc 580A0000 		.word	.LC91
 5352              	.L216:
 5353              		.loc 1 756 25 view .LVU1750
 5354              		.loc 1 756 25 view .LVU1751
 5355 1bc0 FFF7FEFF 		bl	e_send_uart2_char
 5356              	.LVL406:
 5357              		.loc 1 756 25 view .LVU1752
 5358              	.L252:
 5359              		.loc 1 756 25 discriminator 2 view .LVU1753
 5360              		.loc 1 756 25 discriminator 2 view .LVU1754
 5361 1bc4 FFF7FEFF 		bl	e_uart2_sending
 5362              	.LVL407:
 5363 1bc8 0028     		cmp	r0, #0
 5364 1bca FBD1     		bne	.L252
 5365              		.loc 1 756 25 discriminator 3 view .LVU1755
 5366              		.loc 1 757 25 discriminator 3 view .LVU1756
 5367              		.loc 1 757 29 is_stmt 0 discriminator 3 view .LVU1757
 5368 1bcc FFF7FEFF 		bl	isEpuckVersion1_3
 5369              	.LVL408:
 5370              		.loc 1 757 28 discriminator 3 view .LVU1758
 5371 1bd0 0028     		cmp	r0, #0
 5372 1bd2 00F01082 		beq	.L253
 5373              	.L257:
 5374              		.loc 1 758 29 is_stmt 1 view .LVU1759
 5375              		.loc 1 760 25 view .LVU1760
 5376              		.loc 1 760 29 is_stmt 0 view .LVU1761
 5377 1bd6 FFF7FEFF 		bl	isEpuckVersion1_3
 5378              	.LVL409:
 5379              		.loc 1 760 28 view .LVU1762
 5380 1bda 0028     		cmp	r0, #0
 5381 1bdc 00F0C081 		beq	.L680
 5382              		.loc 1 761 29 is_stmt 1 view .LVU1763
 5383              		.loc 1 761 29 view .LVU1764
 5384 1be0 BF48     		ldr	r0, .L699
 5385 1be2 1921     		movs	r1, #25
 5386 1be4 FFF7FEFF 		bl	e_send_uart2_char
 5387              	.LVL410:
 5388              		.loc 1 761 29 view .LVU1765
 5389              	.L258:
 5390              		.loc 1 761 29 discriminator 2 view .LVU1766
 5391              		.loc 1 761 29 discriminator 2 view .LVU1767
 5392 1be8 FFF7FEFF 		bl	e_uart2_sending
 5393              	.LVL411:
 5394 1bec 0028     		cmp	r0, #0
 5395 1bee FBD1     		bne	.L258
 5396              	.L261:
 5397              		.loc 1 763 29 view .LVU1768
 5398              		.loc 1 766 25 view .LVU1769
 5399              		.loc 1 766 25 view .LVU1770
 5400 1bf0 BC48     		ldr	r0, .L699+4
 5401 1bf2 1D21     		movs	r1, #29
 5402 1bf4 FFF7FEFF 		bl	e_send_uart2_char
 5403              	.LVL412:
 5404              		.loc 1 766 25 view .LVU1771
ARM GAS  /tmp/ccucPY5I.s 			page 101


 5405              	.L259:
 5406              		.loc 1 766 25 discriminator 2 view .LVU1772
 5407              		.loc 1 766 25 discriminator 2 view .LVU1773
 5408 1bf8 FFF7FEFF 		bl	e_uart2_sending
 5409              	.LVL413:
 5410 1bfc 0028     		cmp	r0, #0
 5411 1bfe FBD1     		bne	.L259
 5412              		.loc 1 766 25 discriminator 3 view .LVU1774
 5413              		.loc 1 767 25 discriminator 3 view .LVU1775
 5414              		.loc 1 767 25 discriminator 3 view .LVU1776
 5415 1c00 B948     		ldr	r0, .L699+8
 5416 1c02 2621     		movs	r1, #38
 5417 1c04 FFF7FEFF 		bl	e_send_uart2_char
 5418              	.LVL414:
 5419              		.loc 1 767 25 discriminator 3 view .LVU1777
 5420              	.L262:
 5421              		.loc 1 767 25 discriminator 2 view .LVU1778
 5422              		.loc 1 767 25 discriminator 2 view .LVU1779
 5423 1c08 FFF7FEFF 		bl	e_uart2_sending
 5424              	.LVL415:
 5425 1c0c 0028     		cmp	r0, #0
 5426 1c0e FBD1     		bne	.L262
 5427              		.loc 1 767 25 discriminator 3 view .LVU1780
 5428              		.loc 1 768 25 discriminator 3 view .LVU1781
 5429              		.loc 1 768 25 discriminator 3 view .LVU1782
 5430 1c10 B648     		ldr	r0, .L699+12
 5431 1c12 2621     		movs	r1, #38
 5432 1c14 FFF7FEFF 		bl	e_send_uart2_char
 5433              	.LVL416:
 5434              		.loc 1 768 25 discriminator 3 view .LVU1783
 5435              	.L263:
 5436              		.loc 1 768 25 discriminator 2 view .LVU1784
 5437              		.loc 1 768 25 discriminator 2 view .LVU1785
 5438 1c18 FFF7FEFF 		bl	e_uart2_sending
 5439              	.LVL417:
 5440 1c1c 0028     		cmp	r0, #0
 5441 1c1e FBD1     		bne	.L263
 5442              		.loc 1 768 25 discriminator 3 view .LVU1786
 5443              		.loc 1 771 25 discriminator 3 view .LVU1787
 5444              		.loc 1 771 25 discriminator 3 view .LVU1788
 5445 1c20 B348     		ldr	r0, .L699+16
 5446 1c22 1721     		movs	r1, #23
 5447 1c24 FFF7FEFF 		bl	e_send_uart2_char
 5448              	.LVL418:
 5449              		.loc 1 771 25 discriminator 3 view .LVU1789
 5450              	.L264:
 5451              		.loc 1 771 25 discriminator 2 view .LVU1790
 5452              		.loc 1 771 25 discriminator 2 view .LVU1791
 5453 1c28 FFF7FEFF 		bl	e_uart2_sending
 5454              	.LVL419:
 5455 1c2c 0028     		cmp	r0, #0
 5456 1c2e FBD1     		bne	.L264
 5457              		.loc 1 771 25 discriminator 3 view .LVU1792
 5458              		.loc 1 773 25 discriminator 3 view .LVU1793
 5459              		.loc 1 773 25 discriminator 3 view .LVU1794
 5460 1c30 B048     		ldr	r0, .L699+20
 5461 1c32 1021     		movs	r1, #16
ARM GAS  /tmp/ccucPY5I.s 			page 102


 5462 1c34 FFF7FEFF 		bl	e_send_uart2_char
 5463              	.LVL420:
 5464              		.loc 1 773 25 discriminator 3 view .LVU1795
 5465              	.L265:
 5466              		.loc 1 773 25 discriminator 2 view .LVU1796
 5467              		.loc 1 773 25 discriminator 2 view .LVU1797
 5468 1c38 FFF7FEFF 		bl	e_uart2_sending
 5469              	.LVL421:
 5470 1c3c 0028     		cmp	r0, #0
 5471 1c3e FBD1     		bne	.L265
 5472              		.loc 1 773 25 discriminator 3 view .LVU1798
 5473              		.loc 1 776 25 discriminator 3 view .LVU1799
 5474              		.loc 1 776 25 discriminator 3 view .LVU1800
 5475 1c40 AD48     		ldr	r0, .L699+24
 5476 1c42 2721     		movs	r1, #39
 5477 1c44 FFF7FEFF 		bl	e_send_uart2_char
 5478              	.LVL422:
 5479              		.loc 1 776 25 discriminator 3 view .LVU1801
 5480              	.L266:
 5481              		.loc 1 776 25 discriminator 2 view .LVU1802
 5482              		.loc 1 776 25 discriminator 2 view .LVU1803
 5483 1c48 FFF7FEFF 		bl	e_uart2_sending
 5484              	.LVL423:
 5485 1c4c 0028     		cmp	r0, #0
 5486 1c4e FBD1     		bne	.L266
 5487              		.loc 1 776 25 discriminator 3 view .LVU1804
 5488              		.loc 1 777 25 discriminator 3 view .LVU1805
 5489              		.loc 1 777 25 discriminator 3 view .LVU1806
 5490 1c50 AA48     		ldr	r0, .L699+28
 5491 1c52 2B21     		movs	r1, #43
 5492 1c54 FFF7FEFF 		bl	e_send_uart2_char
 5493              	.LVL424:
 5494              		.loc 1 777 25 discriminator 3 view .LVU1807
 5495              	.L267:
 5496              		.loc 1 777 25 discriminator 2 view .LVU1808
 5497              		.loc 1 777 25 discriminator 2 view .LVU1809
 5498 1c58 FFF7FEFF 		bl	e_uart2_sending
 5499              	.LVL425:
 5500 1c5c 0028     		cmp	r0, #0
 5501 1c5e FBD1     		bne	.L267
 5502              		.loc 1 777 25 discriminator 3 view .LVU1810
 5503              		.loc 1 779 25 discriminator 3 view .LVU1811
 5504              		.loc 1 779 25 discriminator 3 view .LVU1812
 5505 1c60 A748     		ldr	r0, .L699+32
 5506 1c62 1921     		movs	r1, #25
 5507 1c64 FFF7FEFF 		bl	e_send_uart2_char
 5508              	.LVL426:
 5509              		.loc 1 779 25 discriminator 3 view .LVU1813
 5510              	.L268:
 5511              		.loc 1 779 25 discriminator 2 view .LVU1814
 5512              		.loc 1 779 25 discriminator 2 view .LVU1815
 5513 1c68 FFF7FEFF 		bl	e_uart2_sending
 5514              	.LVL427:
 5515 1c6c 0028     		cmp	r0, #0
 5516 1c6e FBD1     		bne	.L268
 5517              		.loc 1 779 25 discriminator 3 view .LVU1816
 5518              		.loc 1 781 25 discriminator 3 view .LVU1817
ARM GAS  /tmp/ccucPY5I.s 			page 103


 5519              		.loc 1 781 25 discriminator 3 view .LVU1818
 5520 1c70 A448     		ldr	r0, .L699+36
 5521 1c72 1521     		movs	r1, #21
 5522 1c74 FFF7FEFF 		bl	e_send_uart2_char
 5523              	.LVL428:
 5524              		.loc 1 781 25 discriminator 3 view .LVU1819
 5525              	.L269:
 5526              		.loc 1 781 25 discriminator 2 view .LVU1820
 5527              		.loc 1 781 25 discriminator 2 view .LVU1821
 5528 1c78 FFF7FEFF 		bl	e_uart2_sending
 5529              	.LVL429:
 5530 1c7c 0028     		cmp	r0, #0
 5531 1c7e FBD1     		bne	.L269
 5532              		.loc 1 781 25 discriminator 3 view .LVU1822
 5533              		.loc 1 782 25 discriminator 3 view .LVU1823
 5534              		.loc 1 782 25 discriminator 3 view .LVU1824
 5535 1c80 A148     		ldr	r0, .L699+40
 5536 1c82 1921     		movs	r1, #25
 5537 1c84 FFF7FEFF 		bl	e_send_uart2_char
 5538              	.LVL430:
 5539              		.loc 1 782 25 discriminator 3 view .LVU1825
 5540              	.L270:
 5541              		.loc 1 782 25 discriminator 2 view .LVU1826
 5542              		.loc 1 782 25 discriminator 2 view .LVU1827
 5543 1c88 FFF7FEFF 		bl	e_uart2_sending
 5544              	.LVL431:
 5545 1c8c 0028     		cmp	r0, #0
 5546 1c8e FBD1     		bne	.L270
 5547              		.loc 1 782 25 discriminator 3 view .LVU1828
 5548              		.loc 1 783 25 discriminator 3 view .LVU1829
 5549              		.loc 1 783 25 discriminator 3 view .LVU1830
 5550 1c90 9E48     		ldr	r0, .L699+44
 5551 1c92 2921     		movs	r1, #41
 5552 1c94 FFF7FEFF 		bl	e_send_uart2_char
 5553              	.LVL432:
 5554              		.loc 1 783 25 discriminator 3 view .LVU1831
 5555              	.L271:
 5556              		.loc 1 783 25 discriminator 2 view .LVU1832
 5557              		.loc 1 783 25 discriminator 2 view .LVU1833
 5558 1c98 FFF7FEFF 		bl	e_uart2_sending
 5559              	.LVL433:
 5560 1c9c 0028     		cmp	r0, #0
 5561 1c9e FBD1     		bne	.L271
 5562              		.loc 1 783 25 discriminator 3 view .LVU1834
 5563              		.loc 1 784 25 discriminator 3 view .LVU1835
 5564              		.loc 1 784 25 discriminator 3 view .LVU1836
 5565 1ca0 9B48     		ldr	r0, .L699+48
 5566 1ca2 2921     		movs	r1, #41
 5567 1ca4 FFF7FEFF 		bl	e_send_uart2_char
 5568              	.LVL434:
 5569              		.loc 1 784 25 discriminator 3 view .LVU1837
 5570              	.L272:
 5571              		.loc 1 784 25 discriminator 2 view .LVU1838
 5572              		.loc 1 784 25 discriminator 2 view .LVU1839
 5573 1ca8 FFF7FEFF 		bl	e_uart2_sending
 5574              	.LVL435:
 5575 1cac 0028     		cmp	r0, #0
ARM GAS  /tmp/ccucPY5I.s 			page 104


 5576 1cae FBD1     		bne	.L272
 5577              		.loc 1 784 25 discriminator 3 view .LVU1840
 5578              		.loc 1 785 25 discriminator 3 view .LVU1841
 5579              		.loc 1 785 25 discriminator 3 view .LVU1842
 5580 1cb0 9848     		ldr	r0, .L699+52
 5581 1cb2 1821     		movs	r1, #24
 5582 1cb4 FFF7FEFF 		bl	e_send_uart2_char
 5583              	.LVL436:
 5584              		.loc 1 785 25 discriminator 3 view .LVU1843
 5585              	.L273:
 5586              		.loc 1 785 25 discriminator 2 view .LVU1844
 5587              		.loc 1 785 25 discriminator 2 view .LVU1845
 5588 1cb8 FFF7FEFF 		bl	e_uart2_sending
 5589              	.LVL437:
 5590 1cbc 0028     		cmp	r0, #0
 5591 1cbe FBD1     		bne	.L273
 5592              		.loc 1 785 25 discriminator 3 view .LVU1846
 5593              		.loc 1 786 25 discriminator 3 view .LVU1847
 5594              		.loc 1 786 25 discriminator 3 view .LVU1848
 5595 1cc0 9548     		ldr	r0, .L699+56
 5596 1cc2 2921     		movs	r1, #41
 5597 1cc4 FFF7FEFF 		bl	e_send_uart2_char
 5598              	.LVL438:
 5599              		.loc 1 786 25 discriminator 3 view .LVU1849
 5600              	.L274:
 5601              		.loc 1 786 25 discriminator 2 view .LVU1850
 5602              		.loc 1 786 25 discriminator 2 view .LVU1851
 5603 1cc8 FFF7FEFF 		bl	e_uart2_sending
 5604              	.LVL439:
 5605 1ccc 0028     		cmp	r0, #0
 5606 1cce FBD1     		bne	.L274
 5607              		.loc 1 786 25 discriminator 3 view .LVU1852
 5608              		.loc 1 788 25 discriminator 3 view .LVU1853
 5609              		.loc 1 788 25 discriminator 3 view .LVU1854
 5610 1cd0 9248     		ldr	r0, .L699+60
 5611 1cd2 2421     		movs	r1, #36
 5612 1cd4 FFF7FEFF 		bl	e_send_uart2_char
 5613              	.LVL440:
 5614              		.loc 1 788 25 discriminator 3 view .LVU1855
 5615              	.L275:
 5616              		.loc 1 788 25 discriminator 2 view .LVU1856
 5617              		.loc 1 788 25 discriminator 2 view .LVU1857
 5618 1cd8 FFF7FEFF 		bl	e_uart2_sending
 5619              	.LVL441:
 5620 1cdc 0028     		cmp	r0, #0
 5621 1cde FBD1     		bne	.L275
 5622              		.loc 1 788 25 discriminator 3 view .LVU1858
 5623              		.loc 1 789 25 discriminator 3 view .LVU1859
 5624              		.loc 1 789 25 discriminator 3 view .LVU1860
 5625 1ce0 8F48     		ldr	r0, .L699+64
 5626 1ce2 1D21     		movs	r1, #29
 5627 1ce4 FFF7FEFF 		bl	e_send_uart2_char
 5628              	.LVL442:
 5629              		.loc 1 789 25 discriminator 3 view .LVU1861
 5630              	.L276:
 5631              		.loc 1 789 25 discriminator 2 view .LVU1862
 5632              		.loc 1 789 25 discriminator 2 view .LVU1863
ARM GAS  /tmp/ccucPY5I.s 			page 105


 5633 1ce8 FFF7FEFF 		bl	e_uart2_sending
 5634              	.LVL443:
 5635 1cec 0028     		cmp	r0, #0
 5636 1cee FBD1     		bne	.L276
