ARM GAS  /tmp/cck07AUy.s 			page 1


   1              		.cpu cortex-m4
   2              		.eabi_attribute 27, 1
   3              		.eabi_attribute 28, 1
   4              		.eabi_attribute 20, 1
   5              		.eabi_attribute 21, 1
   6              		.eabi_attribute 23, 3
   7              		.eabi_attribute 24, 1
   8              		.eabi_attribute 25, 1
   9              		.eabi_attribute 26, 1
  10              		.eabi_attribute 30, 2
  11              		.eabi_attribute 34, 1
  12              		.eabi_attribute 18, 4
  13              		.file	"audio_thread.c"
  14              		.text
  15              	.Ltext0:
  16              		.cfi_sections	.debug_frame
  17              		.section	.rodata.error_cb.str1.4,"aMS",%progbits,1
  18              		.align	2
  19              	.LC0:
  20 0000 44414320 		.ascii	"DAC failure\000"
  20      6661696C 
  20      75726500 
  21              		.section	.rodata.error_cb.cst4,"aM",%progbits,4
  22              		.align	2
  23              	.LC1:
  24 0000 00000000 		.word	__stack_chk_guard
  25              		.section	.text.error_cb,"ax",%progbits
  26              		.align	1
  27              		.p2align 4,,15
  28              		.arch armv7e-m
  29              		.syntax unified
  30              		.thumb
  31              		.thumb_func
  32              		.fpu fpv4-sp-d16
  33              		.type	error_cb, %function
  34              	error_cb:
  35              	.LVL0:
  36              	.LFB256:
  37              		.file 1 ".//src/audio/audio_thread.c"
  38              		.loc 1 66 55 view -0
  39              		.cfi_startproc
  40              		@ args = 0, pretend = 0, frame = 8
  41              		@ frame_needed = 0, uses_anonymous_args = 0
  42              		.loc 1 66 55 is_stmt 0 view .LVU1
  43 0000 00B5     		push	{lr}
  44              		.cfi_def_cfa_offset 4
  45              		.cfi_offset 14, -4
  46 0002 094B     		ldr	r3, .L7
  47 0004 83B0     		sub	sp, sp, #12
  48              		.cfi_def_cfa_offset 16
  49              		.loc 1 66 55 view .LVU2
  50 0006 1B68     		ldr	r3, [r3]
  51 0008 0193     		str	r3, [sp, #4]
  52 000a 4FF00003 		mov	r3,#0
  53              		.loc 1 68 3 is_stmt 1 view .LVU3
  54              		.loc 1 69 3 view .LVU4
  55              		.loc 1 71 3 view .LVU5
ARM GAS  /tmp/cck07AUy.s 			page 2


  56 000e 064B     		ldr	r3, .L7
  57 0010 1A68     		ldr	r2, [r3]
  58 0012 019B     		ldr	r3, [sp, #4]
  59 0014 5A40     		eors	r2, r3, r2
  60 0016 05D1     		bne	.L6
  61 0018 0448     		ldr	r0, .L7+4
  62              	.LVL1:
  63              		.loc 1 72 1 is_stmt 0 view .LVU6
  64 001a 03B0     		add	sp, sp, #12
  65              		.cfi_remember_state
  66              		.cfi_def_cfa_offset 4
  67              		@ sp needed
  68 001c 5DF804EB 		ldr	lr, [sp], #4
  69              		.cfi_restore 14
  70              		.cfi_def_cfa_offset 0
  71              		.loc 1 71 3 view .LVU7
  72 0020 FFF7FEBF 		b	chSysHalt
  73              	.LVL2:
  74              	.L6:
  75              		.cfi_restore_state
  76              		.loc 1 71 3 view .LVU8
  77 0024 FFF7FEFF 		bl	__stack_chk_fail
  78              	.LVL3:
  79              	.L8:
  80              		.loc 1 71 3 view .LVU9
  81              		.align	2
  82              	.L7:
  83 0028 00000000 		.word	.LC1
  84 002c 00000000 		.word	.LC0
  85              		.cfi_endproc
  86              	.LFE256:
  87              		.size	error_cb, .-error_cb
  88              		.section	.rodata.dac_play.cst4,"aM",%progbits,4
  89              		.align	2
  90              	.LC2:
  91 0000 00000000 		.word	__stack_chk_guard
  92              		.section	.text.dac_play,"ax",%progbits
  93              		.align	1
  94              		.p2align 4,,15
  95              		.global	dac_play
  96              		.syntax unified
  97              		.thumb
  98              		.thumb_func
  99              		.fpu fpv4-sp-d16
 100              		.type	dac_play, %function
 101              	dac_play:
 102              	.LVL4:
 103              	.LFB258:
 104              		.loc 1 105 30 is_stmt 1 view -0
 105              		.cfi_startproc
 106              		@ args = 0, pretend = 0, frame = 8
 107              		@ frame_needed = 0, uses_anonymous_args = 0
 108              		.loc 1 105 30 is_stmt 0 view .LVU11
 109 0000 30B5     		push	{r4, r5, lr}
 110              		.cfi_def_cfa_offset 12
 111              		.cfi_offset 4, -12
 112              		.cfi_offset 5, -8
ARM GAS  /tmp/cck07AUy.s 			page 3


 113              		.cfi_offset 14, -4
 114 0002 1E4A     		ldr	r2, .L16
 115              		.loc 1 106 15 view .LVU12
 116 0004 1E4B     		ldr	r3, .L16+4
 117              		.loc 1 105 30 view .LVU13
 118 0006 83B0     		sub	sp, sp, #12
 119              		.cfi_def_cfa_offset 24
 120              		.loc 1 105 30 view .LVU14
 121 0008 1268     		ldr	r2, [r2]
 122 000a 0192     		str	r2, [sp, #4]
 123 000c 4FF00002 		mov	r2,#0
 124              		.loc 1 106 2 is_stmt 1 view .LVU15
 125              		.loc 1 106 4 is_stmt 0 view .LVU16
 126 0010 1A78     		ldrb	r2, [r3]	@ zero_extendqisi2
 127              		.loc 1 105 30 view .LVU17
 128 0012 0446     		mov	r4, r0
 129              		.loc 1 106 4 view .LVU18
 130 0014 EAB9     		cbnz	r2, .L10
 131              		.loc 1 107 3 is_stmt 1 view .LVU19
 132              	.LBB10:
 133              	.LBB11:
 134              		.loc 1 153 5 is_stmt 0 view .LVU20
 135 0016 1B48     		ldr	r0, .L16+8
 136              	.LVL5:
 137              		.loc 1 153 5 view .LVU21
 138              	.LBE11:
 139              	.LBE10:
 140              		.loc 1 109 3 view .LVU22
 141 0018 1B4A     		ldr	r2, .L16+12
 142 001a 1C49     		ldr	r1, .L16+16
 143              		.loc 1 107 13 view .LVU23
 144 001c 0125     		movs	r5, #1
 145 001e 1D70     		strb	r5, [r3]
 146              		.loc 1 108 3 is_stmt 1 view .LVU24
 147              	.LVL6:
 148              	.LBB13:
 149              	.LBI10:
 150              		.loc 1 151 6 view .LVU25
 151              	.LBB12:
 152              		.loc 1 152 3 view .LVU26
 153              		.loc 1 153 5 view .LVU27
 154 0020 8023     		movs	r3, #128
 155 0022 4383     		strh	r3, [r0, #26]	@ movhi
 156              	.LVL7:
 157              		.loc 1 153 5 is_stmt 0 view .LVU28
 158              	.LBE12:
 159              	.LBE13:
 160              		.loc 1 109 3 is_stmt 1 view .LVU29
 161 0024 4FF4B473 		mov	r3, #360
 162 0028 1948     		ldr	r0, .L16+20
 163 002a FFF7FEFF 		bl	dacStartConversion
 164              	.LVL8:
 165              		.loc 1 110 3 view .LVU30
 166 002e 134B     		ldr	r3, .L16
 167 0030 1A68     		ldr	r2, [r3]
 168 0032 019B     		ldr	r3, [sp, #4]
 169 0034 5A40     		eors	r2, r3, r2
ARM GAS  /tmp/cck07AUy.s 			page 4


 170 0036 1ED1     		bne	.L15
 171              		.loc 1 110 55 is_stmt 0 view .LVU31
 172 0038 4FF4B470 		mov	r0, #360
 173 003c 00FB04F4 		mul	r4, r0, r4
 174              		.loc 1 110 3 view .LVU32
 175 0040 1448     		ldr	r0, .L16+24
 176              		.loc 1 110 48 view .LVU33
 177 0042 1549     		ldr	r1, .L16+28
 178              		.loc 1 110 3 view .LVU34
 179 0044 B1FBF4F1 		udiv	r1, r1, r4
 180              		.loc 1 114 1 view .LVU35
 181 0048 03B0     		add	sp, sp, #12
 182              		.cfi_remember_state
 183              		.cfi_def_cfa_offset 12
 184              		@ sp needed
 185 004a BDE83040 		pop	{r4, r5, lr}
 186              		.cfi_restore 14
 187              		.cfi_restore 5
 188              		.cfi_restore 4
 189              		.cfi_def_cfa_offset 0
 190              		.loc 1 110 3 view .LVU36
 191 004e FFF7FEBF 		b	gptStartContinuous
 192              	.LVL9:
 193              	.L10:
 194              		.cfi_restore_state
 195              		.loc 1 112 3 is_stmt 1 view .LVU37
 196 0052 0A4B     		ldr	r3, .L16
 197 0054 1A68     		ldr	r2, [r3]
 198 0056 019B     		ldr	r3, [sp, #4]
 199 0058 5A40     		eors	r2, r3, r2
 200 005a 0CD1     		bne	.L15
 201              		.loc 1 112 54 is_stmt 0 view .LVU38
 202 005c 4FF4B470 		mov	r0, #360
 203              	.LVL10:
 204              		.loc 1 112 54 view .LVU39
 205 0060 00FB04F4 		mul	r4, r0, r4
 206              		.loc 1 112 3 view .LVU40
 207 0064 0B48     		ldr	r0, .L16+24
 208              		.loc 1 112 47 view .LVU41
 209 0066 0C49     		ldr	r1, .L16+28
 210              		.loc 1 112 3 view .LVU42
 211 0068 B1FBF4F1 		udiv	r1, r1, r4
 212              		.loc 1 114 1 view .LVU43
 213 006c 03B0     		add	sp, sp, #12
 214              		.cfi_remember_state
 215              		.cfi_def_cfa_offset 12
 216              		@ sp needed
 217 006e BDE83040 		pop	{r4, r5, lr}
 218              		.cfi_restore 14
 219              		.cfi_restore 5
 220              		.cfi_restore 4
 221              		.cfi_def_cfa_offset 0
 222              		.loc 1 112 3 view .LVU44
 223 0072 FFF7FEBF 		b	gptChangeInterval
 224              	.LVL11:
 225              	.L15:
 226              		.cfi_restore_state
ARM GAS  /tmp/cck07AUy.s 			page 5


 227 0076 FFF7FEFF 		bl	__stack_chk_fail
 228              	.LVL12:
 229              	.L17:
 230 007a 00BF     		.align	2
 231              	.L16:
 232 007c 00000000 		.word	.LC2
 233 0080 00000000 		.word	.LANCHOR0
 234 0084 000C0240 		.word	1073875968
 235 0088 00000000 		.word	.LANCHOR1
 236 008c 00000000 		.word	.LANCHOR2
 237 0090 00000000 		.word	DACD2
 238 0094 00000000 		.word	GPTD6
 239 0098 00BD0105 		.word	84000000
 240              		.cfi_endproc
 241              	.LFE258:
 242              		.size	dac_play, .-dac_play
 243              		.section	.rodata.dac_play_buffer.cst4,"aM",%progbits,4
 244              		.align	2
 245              	.LC3:
 246 0000 00000000 		.word	__stack_chk_guard
 247              		.section	.text.dac_play_buffer,"ax",%progbits
 248              		.align	1
 249              		.p2align 4,,15
 250              		.global	dac_play_buffer
 251              		.syntax unified
 252              		.thumb
 253              		.thumb_func
 254              		.fpu fpv4-sp-d16
 255              		.type	dac_play_buffer, %function
 256              	dac_play_buffer:
 257              	.LVL13:
 258              	.LFB259:
 259              		.loc 1 116 104 is_stmt 1 view -0
 260              		.cfi_startproc
 261              		@ args = 0, pretend = 0, frame = 8
 262              		@ frame_needed = 0, uses_anonymous_args = 0
 263              		.loc 1 116 104 is_stmt 0 view .LVU46
 264 0000 F0B5     		push	{r4, r5, r6, r7, lr}
 265              		.cfi_def_cfa_offset 20
 266              		.cfi_offset 4, -20
 267              		.cfi_offset 5, -16
 268              		.cfi_offset 6, -12
 269              		.cfi_offset 7, -8
 270              		.cfi_offset 14, -4
 271 0002 1B4C     		ldr	r4, .L25
 272              		.loc 1 117 16 view .LVU47
 273 0004 1B4E     		ldr	r6, .L25+4
 274              		.loc 1 116 104 view .LVU48
 275 0006 83B0     		sub	sp, sp, #12
 276              		.cfi_def_cfa_offset 32
 277              		.loc 1 116 104 view .LVU49
 278 0008 2468     		ldr	r4, [r4]
 279 000a 0194     		str	r4, [sp, #4]
 280 000c 4FF00004 		mov	r4,#0
 281              		.loc 1 117 3 is_stmt 1 view .LVU50
 282              		.loc 1 117 5 is_stmt 0 view .LVU51
 283 0010 3478     		ldrb	r4, [r6]	@ zero_extendqisi2
ARM GAS  /tmp/cck07AUy.s 			page 6


 284              		.loc 1 116 104 view .LVU52
 285 0012 1546     		mov	r5, r2
 286              		.loc 1 117 5 view .LVU53
 287 0014 E4B9     		cbnz	r4, .L19
 288              		.loc 1 118 5 is_stmt 1 view .LVU54
 289              		.loc 1 119 27 is_stmt 0 view .LVU55
 290 0016 184C     		ldr	r4, .L25+8
 291              	.LBB14:
 292              	.LBB15:
 293              		.loc 1 153 5 view .LVU56
 294 0018 184F     		ldr	r7, .L25+12
 295              	.LBE15:
 296              	.LBE14:
 297              		.loc 1 119 27 view .LVU57
 298 001a 6360     		str	r3, [r4, #4]
 299              		.loc 1 121 5 view .LVU58
 300 001c 0246     		mov	r2, r0
 301              	.LVL14:
 302              		.loc 1 118 15 view .LVU59
 303 001e 4FF0010C 		mov	ip, #1
 304              	.LBB19:
 305              	.LBB16:
 306              		.loc 1 153 5 view .LVU60
 307 0022 8020     		movs	r0, #128
 308              	.LVL15:
 309              		.loc 1 153 5 view .LVU61
 310              	.LBE16:
 311              	.LBE19:
 312              		.loc 1 121 5 view .LVU62
 313 0024 0B46     		mov	r3, r1
 314              	.LVL16:
 315              		.loc 1 118 15 view .LVU63
 316 0026 86F800C0 		strb	ip, [r6]
 317              		.loc 1 119 5 is_stmt 1 view .LVU64
 318              		.loc 1 120 5 view .LVU65
 319              	.LVL17:
 320              	.LBB20:
 321              	.LBI14:
 322              		.loc 1 151 6 view .LVU66
 323              	.LBB17:
 324              		.loc 1 152 3 view .LVU67
 325              		.loc 1 153 5 view .LVU68
 326              	.LBE17:
 327              	.LBE20:
 328              		.loc 1 121 5 is_stmt 0 view .LVU69
 329 002a 2146     		mov	r1, r4
 330              	.LVL18:
 331              	.LBB21:
 332              	.LBB18:
 333              		.loc 1 153 5 view .LVU70
 334 002c 7883     		strh	r0, [r7, #26]	@ movhi
 335              	.LVL19:
 336              		.loc 1 153 5 view .LVU71
 337              	.LBE18:
 338              	.LBE21:
 339              		.loc 1 121 5 is_stmt 1 view .LVU72
 340 002e 1448     		ldr	r0, .L25+16
ARM GAS  /tmp/cck07AUy.s 			page 7


 341 0030 FFF7FEFF 		bl	dacStartConversion
 342              	.LVL20:
 343              		.loc 1 122 5 view .LVU73
 344 0034 0E4B     		ldr	r3, .L25
 345 0036 1A68     		ldr	r2, [r3]
 346 0038 019B     		ldr	r3, [sp, #4]
 347 003a 5A40     		eors	r2, r3, r2
 348 003c 16D1     		bne	.L24
 349 003e 1148     		ldr	r0, .L25+20
 350 0040 1149     		ldr	r1, .L25+24
 351 0042 B1FBF5F1 		udiv	r1, r1, r5
 352              		.loc 1 126 1 is_stmt 0 view .LVU74
 353 0046 03B0     		add	sp, sp, #12
 354              		.cfi_remember_state
 355              		.cfi_def_cfa_offset 20
 356              		@ sp needed
 357 0048 BDE8F040 		pop	{r4, r5, r6, r7, lr}
 358              		.cfi_restore 14
 359              		.cfi_restore 7
 360              		.cfi_restore 6
 361              		.cfi_restore 5
 362              		.cfi_restore 4
 363              		.cfi_def_cfa_offset 0
 364              	.LVL21:
 365              		.loc 1 122 5 view .LVU75
 366 004c FFF7FEBF 		b	gptStartContinuous
 367              	.LVL22:
 368              	.L19:
 369              		.cfi_restore_state
 370              		.loc 1 124 5 is_stmt 1 view .LVU76
 371 0050 074B     		ldr	r3, .L25
 372              	.LVL23:
 373              		.loc 1 124 5 is_stmt 0 view .LVU77
 374 0052 1A68     		ldr	r2, [r3]
 375 0054 019B     		ldr	r3, [sp, #4]
 376 0056 5A40     		eors	r2, r3, r2
 377              	.LVL24:
 378              		.loc 1 124 5 view .LVU78
 379 0058 08D1     		bne	.L24
 380 005a 0A48     		ldr	r0, .L25+20
 381              	.LVL25:
 382              		.loc 1 124 5 view .LVU79
 383 005c 0A49     		ldr	r1, .L25+24
 384              	.LVL26:
 385              		.loc 1 124 5 view .LVU80
 386 005e B1FBF5F1 		udiv	r1, r1, r5
 387              		.loc 1 126 1 view .LVU81
 388 0062 03B0     		add	sp, sp, #12
 389              		.cfi_remember_state
 390              		.cfi_def_cfa_offset 20
 391              		@ sp needed
 392 0064 BDE8F040 		pop	{r4, r5, r6, r7, lr}
 393              		.cfi_restore 14
 394              		.cfi_restore 7
 395              		.cfi_restore 6
 396              		.cfi_restore 5
 397              		.cfi_restore 4
ARM GAS  /tmp/cck07AUy.s 			page 8


 398              		.cfi_def_cfa_offset 0
 399              	.LVL27:
 400              		.loc 1 124 5 view .LVU82
 401 0068 FFF7FEBF 		b	gptChangeInterval
 402              	.LVL28:
 403              	.L24:
 404              		.cfi_restore_state
 405              		.loc 1 124 5 view .LVU83
 406 006c FFF7FEFF 		bl	__stack_chk_fail
 407              	.LVL29:
 408              	.L26:
 409              		.align	2
 410              	.L25:
 411 0070 00000000 		.word	.LC3
 412 0074 00000000 		.word	.LANCHOR0
 413 0078 00000000 		.word	.LANCHOR2
 414 007c 000C0240 		.word	1073875968
 415 0080 00000000 		.word	DACD2
 416 0084 00000000 		.word	GPTD6
 417 0088 00BD0105 		.word	84000000
 418              		.cfi_endproc
 419              	.LFE259:
 420              		.size	dac_play_buffer, .-dac_play_buffer
 421              		.section	.rodata.dac_change_bufferI.cst4,"aM",%progbits,4
 422              		.align	2
 423              	.LC4:
 424 0000 00000000 		.word	__stack_chk_guard
 425              		.section	.text.dac_change_bufferI,"ax",%progbits
 426              		.align	1
 427              		.p2align 4,,15
 428              		.global	dac_change_bufferI
 429              		.syntax unified
 430              		.thumb
 431              		.thumb_func
 432              		.fpu fpv4-sp-d16
 433              		.type	dac_change_bufferI, %function
 434              	dac_change_bufferI:
 435              	.LVL30:
 436              	.LFB260:
 437              		.loc 1 128 83 is_stmt 1 view -0
 438              		.cfi_startproc
 439              		@ args = 0, pretend = 0, frame = 16
 440              		@ frame_needed = 0, uses_anonymous_args = 0
 441              		.loc 1 128 83 is_stmt 0 view .LVU85
 442 0000 30B5     		push	{r4, r5, lr}
 443              		.cfi_def_cfa_offset 12
 444              		.cfi_offset 4, -12
 445              		.cfi_offset 5, -8
 446              		.cfi_offset 14, -4
 447 0002 124B     		ldr	r3, .L32
 448 0004 85B0     		sub	sp, sp, #20
 449              		.cfi_def_cfa_offset 32
 450              		.loc 1 128 83 view .LVU86
 451 0006 0446     		mov	r4, r0
 452              		.loc 1 129 3 view .LVU87
 453 0008 1148     		ldr	r0, .L32+4
 454              	.LVL31:
ARM GAS  /tmp/cck07AUy.s 			page 9


 455              		.loc 1 128 83 view .LVU88
 456 000a 1B68     		ldr	r3, [r3]
 457 000c 0393     		str	r3, [sp, #12]
 458 000e 4FF00003 		mov	r3,#0
 459              		.loc 1 129 3 is_stmt 1 view .LVU89
 460              		.loc 1 128 83 is_stmt 0 view .LVU90
 461 0012 1546     		mov	r5, r2
 462 0014 0191     		str	r1, [sp, #4]
 463              		.loc 1 129 3 view .LVU91
 464 0016 FFF7FEFF 		bl	gptStopTimerI
 465              	.LVL32:
 466              		.loc 1 130 3 is_stmt 1 view .LVU92
 467 001a 0E48     		ldr	r0, .L32+8
 468 001c FFF7FEFF 		bl	dacStopConversionI
 469              	.LVL33:
 470              		.loc 1 132 3 view .LVU93
 471 0020 019B     		ldr	r3, [sp, #4]
 472 0022 0D49     		ldr	r1, .L32+12
 473 0024 0B48     		ldr	r0, .L32+8
 474 0026 2246     		mov	r2, r4
 475 0028 FFF7FEFF 		bl	dacStartConversionI
 476              	.LVL34:
 477              		.loc 1 133 3 view .LVU94
 478 002c 074B     		ldr	r3, .L32
 479 002e 1A68     		ldr	r2, [r3]
 480 0030 039B     		ldr	r3, [sp, #12]
 481 0032 5A40     		eors	r2, r3, r2
 482 0034 08D1     		bne	.L31
 483 0036 0648     		ldr	r0, .L32+4
 484 0038 0849     		ldr	r1, .L32+16
 485 003a B1FBF5F1 		udiv	r1, r1, r5
 486              		.loc 1 135 1 is_stmt 0 view .LVU95
 487 003e 05B0     		add	sp, sp, #20
 488              		.cfi_remember_state
 489              		.cfi_def_cfa_offset 12
 490              		@ sp needed
 491 0040 BDE83040 		pop	{r4, r5, lr}
 492              		.cfi_restore 14
 493              		.cfi_restore 5
 494              		.cfi_restore 4
 495              		.cfi_def_cfa_offset 0
 496              	.LVL35:
 497              		.loc 1 133 3 view .LVU96
 498 0044 FFF7FEBF 		b	gptStartContinuousI
 499              	.LVL36:
 500              	.L31:
 501              		.cfi_restore_state
 502              		.loc 1 133 3 view .LVU97
 503 0048 FFF7FEFF 		bl	__stack_chk_fail
 504              	.LVL37:
 505              	.L33:
 506              		.align	2
 507              	.L32:
 508 004c 00000000 		.word	.LC4
 509 0050 00000000 		.word	GPTD6
 510 0054 00000000 		.word	DACD2
 511 0058 00000000 		.word	.LANCHOR2
ARM GAS  /tmp/cck07AUy.s 			page 10


 512 005c 00BD0105 		.word	84000000
 513              		.cfi_endproc
 514              	.LFE260:
 515              		.size	dac_change_bufferI, .-dac_change_bufferI
 516              		.section	.rodata.dac_stopI.cst4,"aM",%progbits,4
 517              		.align	2
 518              	.LC5:
 519 0000 00000000 		.word	__stack_chk_guard
 520              		.section	.text.dac_stopI,"ax",%progbits
 521              		.align	1
 522              		.p2align 4,,15
 523              		.global	dac_stopI
 524              		.syntax unified
 525              		.thumb
 526              		.thumb_func
 527              		.fpu fpv4-sp-d16
 528              		.type	dac_stopI, %function
 529              	dac_stopI:
 530              	.LFB261:
 531              		.loc 1 137 22 is_stmt 1 view -0
 532              		.cfi_startproc
 533              		@ args = 0, pretend = 0, frame = 8
 534              		@ frame_needed = 0, uses_anonymous_args = 0
 535 0000 00B5     		push	{lr}
 536              		.cfi_def_cfa_offset 4
 537              		.cfi_offset 14, -4
 538 0002 0E4A     		ldr	r2, .L38
 539              	.LBB22:
 540              	.LBB23:
 541              		.loc 1 155 5 is_stmt 0 view .LVU99
 542 0004 0E4B     		ldr	r3, .L38+4
 543              	.LBE23:
 544              	.LBE22:
 545              		.loc 1 139 3 view .LVU100
 546 0006 0F48     		ldr	r0, .L38+8
 547              		.loc 1 137 22 view .LVU101
 548 0008 83B0     		sub	sp, sp, #12
 549              		.cfi_def_cfa_offset 16
 550              		.loc 1 137 22 view .LVU102
 551 000a 1268     		ldr	r2, [r2]
 552 000c 0192     		str	r2, [sp, #4]
 553 000e 4FF00002 		mov	r2,#0
 554              		.loc 1 138 3 is_stmt 1 view .LVU103
 555              	.LVL38:
 556              	.LBB25:
 557              	.LBI22:
 558              		.loc 1 151 6 view .LVU104
 559              	.LBB24:
 560              		.loc 1 152 3 view .LVU105
 561              		.loc 1 155 5 view .LVU106
 562 0012 8022     		movs	r2, #128
 563 0014 1A83     		strh	r2, [r3, #24]	@ movhi
 564              	.LVL39:
 565              		.loc 1 155 5 is_stmt 0 view .LVU107
 566              	.LBE24:
 567              	.LBE25:
 568              		.loc 1 139 3 is_stmt 1 view .LVU108
ARM GAS  /tmp/cck07AUy.s 			page 11


 569 0016 FFF7FEFF 		bl	gptStopTimerI
 570              	.LVL40:
 571              		.loc 1 140 3 view .LVU109
 572 001a 0B48     		ldr	r0, .L38+12
 573 001c FFF7FEFF 		bl	dacStopConversionI
 574              	.LVL41:
 575              		.loc 1 141 3 view .LVU110
 576              		.loc 1 141 13 is_stmt 0 view .LVU111
 577 0020 0A4B     		ldr	r3, .L38+16
 578 0022 0022     		movs	r2, #0
 579 0024 1A70     		strb	r2, [r3]
 580              		.loc 1 142 1 view .LVU112
 581 0026 054B     		ldr	r3, .L38
 582 0028 1A68     		ldr	r2, [r3]
 583 002a 019B     		ldr	r3, [sp, #4]
 584 002c 5A40     		eors	r2, r3, r2
 585 002e 02D1     		bne	.L37
 586 0030 03B0     		add	sp, sp, #12
 587              		.cfi_remember_state
 588              		.cfi_def_cfa_offset 4
 589              		@ sp needed
 590 0032 5DF804FB 		ldr	pc, [sp], #4
 591              	.L37:
 592              		.cfi_restore_state
 593 0036 FFF7FEFF 		bl	__stack_chk_fail
 594              	.LVL42:
 595              	.L39:
 596 003a 00BF     		.align	2
 597              	.L38:
 598 003c 00000000 		.word	.LC5
 599 0040 000C0240 		.word	1073875968
 600 0044 00000000 		.word	GPTD6
 601 0048 00000000 		.word	DACD2
 602 004c 00000000 		.word	.LANCHOR0
 603              		.cfi_endproc
 604              	.LFE261:
 605              		.size	dac_stopI, .-dac_stopI
 606              		.section	.rodata.dac_stop.cst4,"aM",%progbits,4
 607              		.align	2
 608              	.LC6:
 609 0000 00000000 		.word	__stack_chk_guard
 610              		.section	.text.dac_stop,"ax",%progbits
 611              		.align	1
 612              		.p2align 4,,15
 613              		.global	dac_stop
 614              		.syntax unified
 615              		.thumb
 616              		.thumb_func
 617              		.fpu fpv4-sp-d16
 618              		.type	dac_stop, %function
 619              	dac_stop:
 620              	.LFB262:
 621              		.loc 1 144 21 is_stmt 1 view -0
 622              		.cfi_startproc
 623              		@ args = 0, pretend = 0, frame = 8
 624              		@ frame_needed = 0, uses_anonymous_args = 0
 625 0000 00B5     		push	{lr}
ARM GAS  /tmp/cck07AUy.s 			page 12


 626              		.cfi_def_cfa_offset 4
 627              		.cfi_offset 14, -4
 628 0002 0E4A     		ldr	r2, .L44
 629              	.LBB26:
 630              	.LBB27:
 631              		.loc 1 155 5 is_stmt 0 view .LVU114
 632 0004 0E4B     		ldr	r3, .L44+4
 633              	.LBE27:
 634              	.LBE26:
 635              		.loc 1 146 3 view .LVU115
 636 0006 0F48     		ldr	r0, .L44+8
 637              		.loc 1 144 21 view .LVU116
 638 0008 83B0     		sub	sp, sp, #12
 639              		.cfi_def_cfa_offset 16
 640              		.loc 1 144 21 view .LVU117
 641 000a 1268     		ldr	r2, [r2]
 642 000c 0192     		str	r2, [sp, #4]
 643 000e 4FF00002 		mov	r2,#0
 644              		.loc 1 145 2 is_stmt 1 view .LVU118
 645              	.LVL43:
 646              	.LBB29:
 647              	.LBI26:
 648              		.loc 1 151 6 view .LVU119
 649              	.LBB28:
 650              		.loc 1 152 3 view .LVU120
 651              		.loc 1 155 5 view .LVU121
 652 0012 8022     		movs	r2, #128
 653 0014 1A83     		strh	r2, [r3, #24]	@ movhi
 654              	.LVL44:
 655              		.loc 1 155 5 is_stmt 0 view .LVU122
 656              	.LBE28:
 657              	.LBE29:
 658              		.loc 1 146 3 is_stmt 1 view .LVU123
 659 0016 FFF7FEFF 		bl	gptStopTimer
 660              	.LVL45:
 661              		.loc 1 147 3 view .LVU124
 662 001a 0B48     		ldr	r0, .L44+12
 663 001c FFF7FEFF 		bl	dacStopConversion
 664              	.LVL46:
 665              		.loc 1 148 2 view .LVU125
 666              		.loc 1 148 12 is_stmt 0 view .LVU126
 667 0020 0A4B     		ldr	r3, .L44+16
 668 0022 0022     		movs	r2, #0
 669 0024 1A70     		strb	r2, [r3]
 670              		.loc 1 149 1 view .LVU127
 671 0026 054B     		ldr	r3, .L44
 672 0028 1A68     		ldr	r2, [r3]
 673 002a 019B     		ldr	r3, [sp, #4]
 674 002c 5A40     		eors	r2, r3, r2
 675 002e 02D1     		bne	.L43
 676 0030 03B0     		add	sp, sp, #12
 677              		.cfi_remember_state
 678              		.cfi_def_cfa_offset 4
 679              		@ sp needed
 680 0032 5DF804FB 		ldr	pc, [sp], #4
 681              	.L43:
 682              		.cfi_restore_state
ARM GAS  /tmp/cck07AUy.s 			page 13


 683 0036 FFF7FEFF 		bl	__stack_chk_fail
 684              	.LVL47:
 685              	.L45:
 686 003a 00BF     		.align	2
 687              	.L44:
 688 003c 00000000 		.word	.LC6
 689 0040 000C0240 		.word	1073875968
 690 0044 00000000 		.word	GPTD6
 691 0048 00000000 		.word	DACD2
 692 004c 00000000 		.word	.LANCHOR0
 693              		.cfi_endproc
 694              	.LFE262:
 695              		.size	dac_stop, .-dac_stop
 696              		.section	.rodata.dac_start.cst4,"aM",%progbits,4
 697              		.align	2
 698              	.LC7:
 699 0000 00000000 		.word	__stack_chk_guard
 700              		.section	.text.dac_start,"ax",%progbits
 701              		.align	1
 702              		.p2align 4,,15
 703              		.global	dac_start
 704              		.syntax unified
 705              		.thumb
 706              		.thumb_func
 707              		.fpu fpv4-sp-d16
 708              		.type	dac_start, %function
 709              	dac_start:
 710              	.LFB257:
 711              		.loc 1 79 23 is_stmt 1 view -0
 712              		.cfi_startproc
 713              		@ args = 0, pretend = 0, frame = 8
 714              		@ frame_needed = 0, uses_anonymous_args = 0
 715 0000 30B5     		push	{r4, r5, lr}
 716              		.cfi_def_cfa_offset 12
 717              		.cfi_offset 4, -12
 718              		.cfi_offset 5, -8
 719              		.cfi_offset 14, -4
 720 0002 164C     		ldr	r4, .L51
 721              		.loc 1 86 21 is_stmt 0 view .LVU129
 722 0004 1649     		ldr	r1, .L51+4
 723              		.loc 1 80 33 view .LVU130
 724 0006 174B     		ldr	r3, .L51+8
 725              		.loc 1 82 29 view .LVU131
 726 0008 174A     		ldr	r2, .L51+12
 727              		.loc 1 89 5 view .LVU132
 728 000a 1848     		ldr	r0, .L51+16
 729              		.loc 1 79 23 view .LVU133
 730 000c 83B0     		sub	sp, sp, #12
 731              		.cfi_def_cfa_offset 24
 732              		.loc 1 79 23 view .LVU134
 733 000e 2468     		ldr	r4, [r4]
 734 0010 0194     		str	r4, [sp, #4]
 735 0012 4FF00004 		mov	r4,#0
 736              		.loc 1 80 5 is_stmt 1 view .LVU135
 737              		.loc 1 86 21 is_stmt 0 view .LVU136
 738 0016 4FF40064 		mov	r4, #2048
 739 001a 0C80     		strh	r4, [r1]	@ movhi
ARM GAS  /tmp/cck07AUy.s 			page 14


 740              		.loc 1 80 33 view .LVU137
 741 001c 0125     		movs	r5, #1
 742              		.loc 1 81 27 view .LVU138
 743 001e 0024     		movs	r4, #0
 744              		.loc 1 82 29 view .LVU139
 745 0020 9A60     		str	r2, [r3, #8]
 746              		.loc 1 87 25 view .LVU140
 747 0022 8C70     		strb	r4, [r1, #2]
 748              		.loc 1 81 27 view .LVU141
 749 0024 5C60     		str	r4, [r3, #4]
 750              		.loc 1 83 28 view .LVU142
 751 0026 DC60     		str	r4, [r3, #12]
 752              		.loc 1 80 33 view .LVU143
 753 0028 1D60     		str	r5, [r3]
 754              		.loc 1 81 5 is_stmt 1 view .LVU144
 755              		.loc 1 82 5 view .LVU145
 756              		.loc 1 83 5 view .LVU146
 757              		.loc 1 85 5 view .LVU147
 758              		.loc 1 86 5 view .LVU148
 759              		.loc 1 87 5 view .LVU149
 760              		.loc 1 89 5 view .LVU150
 761 002a FFF7FEFF 		bl	dacStart
 762              	.LVL48:
 763              		.loc 1 92 2 view .LVU151
 764              		.loc 1 93 5 view .LVU152
 765              		.loc 1 93 22 is_stmt 0 view .LVU153
 766 002e 1049     		ldr	r1, .L51+20
 767 0030 104A     		ldr	r2, .L51+24
 768              		.loc 1 98 5 view .LVU154
 769 0032 1148     		ldr	r0, .L51+28
 770              		.loc 1 93 22 view .LVU155
 771 0034 0A60     		str	r2, [r1]
 772              		.loc 1 94 5 is_stmt 1 view .LVU156
 773              		.loc 1 95 5 view .LVU157
 774              		.loc 1 95 16 is_stmt 0 view .LVU158
 775 0036 2023     		movs	r3, #32
 776 0038 8B60     		str	r3, [r1, #8]
 777              		.loc 1 96 5 is_stmt 1 view .LVU159
 778              		.loc 1 98 5 view .LVU160
 779              		.loc 1 94 21 is_stmt 0 view .LVU161
 780 003a 4C60     		str	r4, [r1, #4]
 781              		.loc 1 96 17 view .LVU162
 782 003c CC60     		str	r4, [r1, #12]
 783              		.loc 1 98 5 view .LVU163
 784 003e FFF7FEFF 		bl	gptStart
 785              	.LVL49:
 786              		.loc 1 101 5 is_stmt 1 view .LVU164
 787 0042 064B     		ldr	r3, .L51
 788 0044 1A68     		ldr	r2, [r3]
 789 0046 019B     		ldr	r3, [sp, #4]
 790 0048 5A40     		eors	r2, r3, r2
 791 004a 04D1     		bne	.L50
 792              		.loc 1 103 1 is_stmt 0 view .LVU165
 793 004c 03B0     		add	sp, sp, #12
 794              		.cfi_remember_state
 795              		.cfi_def_cfa_offset 12
 796              		@ sp needed
ARM GAS  /tmp/cck07AUy.s 			page 15


 797 004e BDE83040 		pop	{r4, r5, lr}
 798              		.cfi_restore 14
 799              		.cfi_restore 5
 800              		.cfi_restore 4
 801              		.cfi_def_cfa_offset 0
 802              		.loc 1 101 5 view .LVU166
 803 0052 FFF7FEBF 		b	dac_stop
 804              	.LVL50:
 805              	.L50:
 806              		.cfi_restore_state
 807 0056 FFF7FEFF 		bl	__stack_chk_fail
 808              	.LVL51:
 809              	.L52:
 810 005a 00BF     		.align	2
 811              	.L51:
 812 005c 00000000 		.word	.LC7
 813 0060 00000000 		.word	.LANCHOR3
 814 0064 00000000 		.word	.LANCHOR2
 815 0068 00000000 		.word	error_cb
 816 006c 00000000 		.word	DACD2
 817 0070 00000000 		.word	.LANCHOR4
 818 0074 00BD0105 		.word	84000000
 819 0078 00000000 		.word	GPTD6
 820              		.cfi_endproc
 821              	.LFE257:
 822              		.size	dac_start, .-dac_start
 823              		.section	.rodata.dac_power_speaker.cst4,"aM",%progbits,4
 824              		.align	2
 825              	.LC8:
 826 0000 00000000 		.word	__stack_chk_guard
 827              		.section	.text.dac_power_speaker,"ax",%progbits
 828              		.align	1
 829              		.p2align 4,,15
 830              		.global	dac_power_speaker
 831              		.syntax unified
 832              		.thumb
 833              		.thumb_func
 834              		.fpu fpv4-sp-d16
 835              		.type	dac_power_speaker, %function
 836              	dac_power_speaker:
 837              	.LVL52:
 838              	.LFB263:
 839              		.loc 1 151 36 is_stmt 1 view -0
 840              		.cfi_startproc
 841              		@ args = 0, pretend = 0, frame = 8
 842              		@ frame_needed = 0, uses_anonymous_args = 0
 843              		.loc 1 151 36 is_stmt 0 view .LVU168
 844 0000 00B5     		push	{lr}
 845              		.cfi_def_cfa_offset 4
 846              		.cfi_offset 14, -4
 847 0002 0B4B     		ldr	r3, .L59
 848 0004 83B0     		sub	sp, sp, #12
 849              		.cfi_def_cfa_offset 16
 850              		.loc 1 151 36 view .LVU169
 851 0006 1B68     		ldr	r3, [r3]
 852 0008 0193     		str	r3, [sp, #4]
 853 000a 4FF00003 		mov	r3,#0
ARM GAS  /tmp/cck07AUy.s 			page 16


 854              		.loc 1 152 3 is_stmt 1 view .LVU170
 855              		.loc 1 153 5 is_stmt 0 view .LVU171
 856 000e 8022     		movs	r2, #128
 857 0010 084B     		ldr	r3, .L59+4
 858              		.loc 1 152 5 view .LVU172
 859 0012 40B1     		cbz	r0, .L54
 860              		.loc 1 153 5 is_stmt 1 view .LVU173
 861 0014 5A83     		strh	r2, [r3, #26]	@ movhi
 862              	.L53:
 863              		.loc 1 157 1 is_stmt 0 view .LVU174
 864 0016 064B     		ldr	r3, .L59
 865 0018 1A68     		ldr	r2, [r3]
 866 001a 019B     		ldr	r3, [sp, #4]
 867 001c 5A40     		eors	r2, r3, r2
 868 001e 04D1     		bne	.L58
 869 0020 03B0     		add	sp, sp, #12
 870              		.cfi_remember_state
 871              		.cfi_def_cfa_offset 4
 872              		@ sp needed
 873 0022 5DF804FB 		ldr	pc, [sp], #4
 874              	.L54:
 875              		.cfi_restore_state
 876              		.loc 1 155 5 is_stmt 1 view .LVU175
 877 0026 1A83     		strh	r2, [r3, #24]	@ movhi
 878              		.loc 1 157 1 is_stmt 0 view .LVU176
 879 0028 F5E7     		b	.L53
 880              	.L58:
 881 002a FFF7FEFF 		bl	__stack_chk_fail
 882              	.LVL53:
 883              	.L60:
 884              		.loc 1 157 1 view .LVU177
 885 002e 00BF     		.align	2
 886              	.L59:
 887 0030 00000000 		.word	.LC8
 888 0034 000C0240 		.word	1073875968
 889              		.cfi_endproc
 890              	.LFE263:
 891              		.size	dac_power_speaker, .-dac_power_speaker
 892              		.section	.bss.config.9976,"aw",%nobits
 893              		.align	2
 894              		.set	.LANCHOR4,. + 0
 895              		.type	config.9976, %object
 896              		.size	config.9976, 16
 897              	config.9976:
 898 0000 00000000 		.space	16
 898      00000000 
 898      00000000 
 898      00000000 
 899              		.section	.bss.dac_config.9975,"aw",%nobits
 900              		.align	2
 901              		.set	.LANCHOR3,. + 0
 902              		.type	dac_config.9975, %object
 903              		.size	dac_config.9975, 4
 904              	dac_config.9975:
 905 0000 00000000 		.space	4
 906              		.section	.bss.dac_conversion,"aw",%nobits
 907              		.align	2
ARM GAS  /tmp/cck07AUy.s 			page 17


 908              		.set	.LANCHOR2,. + 0
 909              		.type	dac_conversion, %object
 910              		.size	dac_conversion, 16
 911              	dac_conversion:
 912 0000 00000000 		.space	16
 912      00000000 
 912      00000000 
 912      00000000 
 913              		.section	.bss.dac_state,"aw",%nobits
 914              		.set	.LANCHOR0,. + 0
 915              		.type	dac_state, %object
 916              		.size	dac_state, 1
 917              	dac_state:
 918 0000 00       		.space	1
 919              		.section	.rodata.sinus_buffer,"a"
 920              		.align	2
 921              		.set	.LANCHOR1,. + 0
 922              		.type	sinus_buffer, %object
 923              		.size	sinus_buffer, 720
 924              	sinus_buffer:
 925 0000 FF07     		.short	2047
 926 0002 2208     		.short	2082
 927 0004 4608     		.short	2118
 928 0006 6A08     		.short	2154
 929 0008 8D08     		.short	2189
 930 000a B108     		.short	2225
 931 000c D408     		.short	2260
 932 000e F808     		.short	2296
 933 0010 1B09     		.short	2331
 934 0012 3F09     		.short	2367
 935 0014 6209     		.short	2402
 936 0016 8509     		.short	2437
 937 0018 A809     		.short	2472
 938 001a CB09     		.short	2507
 939 001c EE09     		.short	2542
 940 001e 100A     		.short	2576
 941 0020 330A     		.short	2611
 942 0022 550A     		.short	2645
 943 0024 770A     		.short	2679
 944 0026 990A     		.short	2713
 945 0028 BB0A     		.short	2747
 946 002a DC0A     		.short	2780
 947 002c FD0A     		.short	2813
 948 002e 1E0B     		.short	2846
 949 0030 3F0B     		.short	2879
 950 0032 600B     		.short	2912
 951 0034 800B     		.short	2944
 952 0036 A00B     		.short	2976
 953 0038 C00B     		.short	3008
 954 003a DF0B     		.short	3039
 955 003c FE0B     		.short	3070
 956 003e 1D0C     		.short	3101
 957 0040 3B0C     		.short	3131
 958 0042 590C     		.short	3161
 959 0044 770C     		.short	3191
 960 0046 950C     		.short	3221
 961 0048 B20C     		.short	3250
ARM GAS  /tmp/cck07AUy.s 			page 18


 962 004a CE0C     		.short	3278
 963 004c EB0C     		.short	3307
 964 004e 070D     		.short	3335
 965 0050 220D     		.short	3362
 966 0052 3D0D     		.short	3389
 967 0054 580D     		.short	3416
 968 0056 730D     		.short	3443
 969 0058 8C0D     		.short	3468
 970 005a A60D     		.short	3494
 971 005c BF0D     		.short	3519
 972 005e D80D     		.short	3544
 973 0060 F00D     		.short	3568
 974 0062 070E     		.short	3591
 975 0064 1F0E     		.short	3615
 976 0066 350E     		.short	3637
 977 0068 4C0E     		.short	3660
 978 006a 610E     		.short	3681
 979 006c 770E     		.short	3703
 980 006e 8B0E     		.short	3723
 981 0070 A00E     		.short	3744
 982 0072 B30E     		.short	3763
 983 0074 C60E     		.short	3782
 984 0076 D90E     		.short	3801
 985 0078 EB0E     		.short	3819
 986 007a FD0E     		.short	3837
 987 007c 0E0F     		.short	3854
 988 007e 1E0F     		.short	3870
 989 0080 2E0F     		.short	3886
 990 0082 3E0F     		.short	3902
 991 0084 4D0F     		.short	3917
 992 0086 5B0F     		.short	3931
 993 0088 680F     		.short	3944
 994 008a 760F     		.short	3958
 995 008c 820F     		.short	3970
 996 008e 8E0F     		.short	3982
 997 0090 990F     		.short	3993
 998 0092 A40F     		.short	4004
 999 0094 AE0F     		.short	4014
 1000 0096 B80F     		.short	4024
 1001 0098 C10F     		.short	4033
 1002 009a C90F     		.short	4041
 1003 009c D10F     		.short	4049
 1004 009e D80F     		.short	4056
 1005 00a0 DE0F     		.short	4062
 1006 00a2 E40F     		.short	4068
 1007 00a4 EA0F     		.short	4074
 1008 00a6 EE0F     		.short	4078
 1009 00a8 F20F     		.short	4082
 1010 00aa F60F     		.short	4086
 1011 00ac F90F     		.short	4089
 1012 00ae FB0F     		.short	4091
 1013 00b0 FC0F     		.short	4092
 1014 00b2 FD0F     		.short	4093
 1015 00b4 FE0F     		.short	4094
 1016 00b6 FD0F     		.short	4093
 1017 00b8 FC0F     		.short	4092
 1018 00ba FB0F     		.short	4091
ARM GAS  /tmp/cck07AUy.s 			page 19


 1019 00bc F90F     		.short	4089
 1020 00be F60F     		.short	4086
 1021 00c0 F20F     		.short	4082
 1022 00c2 EE0F     		.short	4078
 1023 00c4 EA0F     		.short	4074
 1024 00c6 E40F     		.short	4068
 1025 00c8 DE0F     		.short	4062
 1026 00ca D80F     		.short	4056
 1027 00cc D10F     		.short	4049
 1028 00ce C90F     		.short	4041
 1029 00d0 C10F     		.short	4033
 1030 00d2 B80F     		.short	4024
 1031 00d4 AE0F     		.short	4014
 1032 00d6 A40F     		.short	4004
 1033 00d8 990F     		.short	3993
 1034 00da 8E0F     		.short	3982
 1035 00dc 820F     		.short	3970
 1036 00de 760F     		.short	3958
 1037 00e0 680F     		.short	3944
 1038 00e2 5B0F     		.short	3931
 1039 00e4 4D0F     		.short	3917
 1040 00e6 3E0F     		.short	3902
 1041 00e8 2E0F     		.short	3886
 1042 00ea 1E0F     		.short	3870
 1043 00ec 0E0F     		.short	3854
 1044 00ee FD0E     		.short	3837
 1045 00f0 EB0E     		.short	3819
 1046 00f2 D90E     		.short	3801
 1047 00f4 C60E     		.short	3782
 1048 00f6 B30E     		.short	3763
 1049 00f8 A00E     		.short	3744
 1050 00fa 8B0E     		.short	3723
 1051 00fc 770E     		.short	3703
 1052 00fe 610E     		.short	3681
 1053 0100 4C0E     		.short	3660
 1054 0102 350E     		.short	3637
 1055 0104 1F0E     		.short	3615
 1056 0106 070E     		.short	3591
 1057 0108 F00D     		.short	3568
 1058 010a D80D     		.short	3544
 1059 010c BF0D     		.short	3519
 1060 010e A60D     		.short	3494
 1061 0110 8C0D     		.short	3468
 1062 0112 730D     		.short	3443
 1063 0114 580D     		.short	3416
 1064 0116 3D0D     		.short	3389
 1065 0118 220D     		.short	3362
 1066 011a 070D     		.short	3335
 1067 011c EB0C     		.short	3307
 1068 011e CE0C     		.short	3278
 1069 0120 B20C     		.short	3250
 1070 0122 950C     		.short	3221
 1071 0124 770C     		.short	3191
 1072 0126 590C     		.short	3161
 1073 0128 3B0C     		.short	3131
 1074 012a 1D0C     		.short	3101
 1075 012c FE0B     		.short	3070
ARM GAS  /tmp/cck07AUy.s 			page 20


 1076 012e DF0B     		.short	3039
 1077 0130 C00B     		.short	3008
 1078 0132 A00B     		.short	2976
 1079 0134 800B     		.short	2944
 1080 0136 600B     		.short	2912
 1081 0138 3F0B     		.short	2879
 1082 013a 1E0B     		.short	2846
 1083 013c FD0A     		.short	2813
 1084 013e DC0A     		.short	2780
 1085 0140 BB0A     		.short	2747
 1086 0142 990A     		.short	2713
 1087 0144 770A     		.short	2679
 1088 0146 550A     		.short	2645
 1089 0148 330A     		.short	2611
 1090 014a 100A     		.short	2576
 1091 014c EE09     		.short	2542
 1092 014e CB09     		.short	2507
 1093 0150 A809     		.short	2472
 1094 0152 8509     		.short	2437
 1095 0154 6209     		.short	2402
 1096 0156 3F09     		.short	2367
 1097 0158 1B09     		.short	2331
 1098 015a F808     		.short	2296
 1099 015c D408     		.short	2260
 1100 015e B108     		.short	2225
 1101 0160 8D08     		.short	2189
 1102 0162 6A08     		.short	2154
 1103 0164 4608     		.short	2118
 1104 0166 2208     		.short	2082
 1105 0168 FF07     		.short	2047
 1106 016a DC07     		.short	2012
 1107 016c B807     		.short	1976
 1108 016e 9407     		.short	1940
 1109 0170 7107     		.short	1905
 1110 0172 4D07     		.short	1869
 1111 0174 2A07     		.short	1834
 1112 0176 0607     		.short	1798
 1113 0178 E306     		.short	1763
 1114 017a BF06     		.short	1727
 1115 017c 9C06     		.short	1692
 1116 017e 7906     		.short	1657
 1117 0180 5606     		.short	1622
 1118 0182 3306     		.short	1587
 1119 0184 1006     		.short	1552
 1120 0186 EE05     		.short	1518
 1121 0188 CB05     		.short	1483
 1122 018a A905     		.short	1449
 1123 018c 8705     		.short	1415
 1124 018e 6505     		.short	1381
 1125 0190 4305     		.short	1347
 1126 0192 2205     		.short	1314
 1127 0194 0105     		.short	1281
 1128 0196 E004     		.short	1248
 1129 0198 BF04     		.short	1215
 1130 019a 9E04     		.short	1182
 1131 019c 7E04     		.short	1150
 1132 019e 5E04     		.short	1118
ARM GAS  /tmp/cck07AUy.s 			page 21


 1133 01a0 3E04     		.short	1086
 1134 01a2 1F04     		.short	1055
 1135 01a4 0004     		.short	1024
 1136 01a6 E103     		.short	993
 1137 01a8 C303     		.short	963
 1138 01aa A503     		.short	933
 1139 01ac 8703     		.short	903
 1140 01ae 6903     		.short	873
 1141 01b0 4C03     		.short	844
 1142 01b2 3003     		.short	816
 1143 01b4 1303     		.short	787
 1144 01b6 F702     		.short	759
 1145 01b8 DC02     		.short	732
 1146 01ba C102     		.short	705
 1147 01bc A602     		.short	678
 1148 01be 8B02     		.short	651
 1149 01c0 7202     		.short	626
 1150 01c2 5802     		.short	600
 1151 01c4 3F02     		.short	575
 1152 01c6 2602     		.short	550
 1153 01c8 0E02     		.short	526
 1154 01ca F701     		.short	503
 1155 01cc DF01     		.short	479
 1156 01ce C901     		.short	457
 1157 01d0 B201     		.short	434
 1158 01d2 9D01     		.short	413
 1159 01d4 8701     		.short	391
 1160 01d6 7301     		.short	371
 1161 01d8 5E01     		.short	350
 1162 01da 4B01     		.short	331
 1163 01dc 3801     		.short	312
 1164 01de 2501     		.short	293
 1165 01e0 1301     		.short	275
 1166 01e2 0101     		.short	257
 1167 01e4 F000     		.short	240
 1168 01e6 E000     		.short	224
 1169 01e8 D000     		.short	208
 1170 01ea C000     		.short	192
 1171 01ec B100     		.short	177
 1172 01ee A300     		.short	163
 1173 01f0 9600     		.short	150
 1174 01f2 8800     		.short	136
 1175 01f4 7C00     		.short	124
 1176 01f6 7000     		.short	112
 1177 01f8 6500     		.short	101
 1178 01fa 5A00     		.short	90
 1179 01fc 5000     		.short	80
 1180 01fe 4600     		.short	70
 1181 0200 3D00     		.short	61
 1182 0202 3500     		.short	53
 1183 0204 2D00     		.short	45
 1184 0206 2600     		.short	38
 1185 0208 2000     		.short	32
 1186 020a 1A00     		.short	26
 1187 020c 1400     		.short	20
 1188 020e 1000     		.short	16
 1189 0210 0C00     		.short	12
ARM GAS  /tmp/cck07AUy.s 			page 22


 1190 0212 0800     		.short	8
 1191 0214 0500     		.short	5
 1192 0216 0300     		.short	3
 1193 0218 0200     		.short	2
 1194 021a 0100     		.short	1
 1195 021c 0000     		.short	0
 1196 021e 0100     		.short	1
 1197 0220 0200     		.short	2
 1198 0222 0300     		.short	3
 1199 0224 0500     		.short	5
 1200 0226 0800     		.short	8
 1201 0228 0C00     		.short	12
 1202 022a 1000     		.short	16
 1203 022c 1400     		.short	20
 1204 022e 1A00     		.short	26
 1205 0230 2000     		.short	32
 1206 0232 2600     		.short	38
 1207 0234 2D00     		.short	45
 1208 0236 3500     		.short	53
 1209 0238 3D00     		.short	61
 1210 023a 4600     		.short	70
 1211 023c 5000     		.short	80
 1212 023e 5A00     		.short	90
 1213 0240 6500     		.short	101
 1214 0242 7000     		.short	112
 1215 0244 7C00     		.short	124
 1216 0246 8800     		.short	136
 1217 0248 9600     		.short	150
 1218 024a A300     		.short	163
 1219 024c B100     		.short	177
 1220 024e C000     		.short	192
 1221 0250 D000     		.short	208
 1222 0252 E000     		.short	224
 1223 0254 F000     		.short	240
 1224 0256 0101     		.short	257
 1225 0258 1301     		.short	275
 1226 025a 2501     		.short	293
 1227 025c 3801     		.short	312
 1228 025e 4B01     		.short	331
 1229 0260 5E01     		.short	350
 1230 0262 7301     		.short	371
 1231 0264 8701     		.short	391
 1232 0266 9D01     		.short	413
 1233 0268 B201     		.short	434
 1234 026a C901     		.short	457
 1235 026c DF01     		.short	479
 1236 026e F701     		.short	503
 1237 0270 0E02     		.short	526
 1238 0272 2602     		.short	550
 1239 0274 3F02     		.short	575
 1240 0276 5802     		.short	600
 1241 0278 7202     		.short	626
 1242 027a 8B02     		.short	651
 1243 027c A602     		.short	678
 1244 027e C102     		.short	705
 1245 0280 DC02     		.short	732
 1246 0282 F702     		.short	759
ARM GAS  /tmp/cck07AUy.s 			page 23


 1247 0284 1303     		.short	787
 1248 0286 3003     		.short	816
 1249 0288 4C03     		.short	844
 1250 028a 6903     		.short	873
 1251 028c 8703     		.short	903
 1252 028e A503     		.short	933
 1253 0290 C303     		.short	963
 1254 0292 E103     		.short	993
 1255 0294 0004     		.short	1024
 1256 0296 1F04     		.short	1055
 1257 0298 3E04     		.short	1086
 1258 029a 5E04     		.short	1118
 1259 029c 7E04     		.short	1150
 1260 029e 9E04     		.short	1182
 1261 02a0 BF04     		.short	1215
 1262 02a2 E004     		.short	1248
 1263 02a4 0105     		.short	1281
 1264 02a6 2205     		.short	1314
 1265 02a8 4305     		.short	1347
 1266 02aa 6505     		.short	1381
 1267 02ac 8705     		.short	1415
 1268 02ae A905     		.short	1449
 1269 02b0 CB05     		.short	1483
 1270 02b2 EE05     		.short	1518
 1271 02b4 1006     		.short	1552
 1272 02b6 3306     		.short	1587
 1273 02b8 5606     		.short	1622
 1274 02ba 7906     		.short	1657
 1275 02bc 9C06     		.short	1692
 1276 02be BF06     		.short	1727
 1277 02c0 E306     		.short	1763
 1278 02c2 0607     		.short	1798
 1279 02c4 2A07     		.short	1834
 1280 02c6 4D07     		.short	1869
 1281 02c8 7107     		.short	1905
 1282 02ca 9407     		.short	1940
 1283 02cc B807     		.short	1976
 1284 02ce DC07     		.short	2012
 1285              		.text
 1286              	.Letext0:
 1287              		.file 2 "/usr/lib/gcc/arm-none-eabi/9.2.1/include/stddef.h"
 1288              		.file 3 "/usr/lib/gcc/arm-none-eabi/9.2.1/include/stdint.h"
 1289              		.file 4 ".//ChibiOS//os/rt/ports/ARMCMx/compilers/GCC/chtypes.h"
 1290              		.file 5 ".//ChibiOS//os/rt/include/chsystypes.h"
 1291              		.file 6 ".//ChibiOS//os/rt/include/chschd.h"
 1292              		.file 7 ".//ChibiOS//os/ext/CMSIS/include/core_cm4.h"
 1293              		.file 8 ".//ChibiOS//os/ext/CMSIS/ST/system_stm32f4xx.h"
 1294              		.file 9 ".//ChibiOS//os/ext/CMSIS/ST/stm32f407xx.h"
 1295              		.file 10 ".//ChibiOS//os/rt/ports/ARMCMx/chcore.h"
 1296              		.file 11 ".//ChibiOS//os/rt/ports/ARMCMx/chcore_v7m.h"
 1297              		.file 12 ".//ChibiOS//os/rt/include/chdebug.h"
 1298              		.file 13 ".//ChibiOS//os/rt/include/chtm.h"
 1299              		.file 14 ".//ChibiOS//os/rt/include/chstats.h"
 1300              		.file 15 ".//ChibiOS//os/rt/include/chsem.h"
 1301              		.file 16 ".//ChibiOS//os/rt/include/chmtx.h"
 1302              		.file 17 ".//ChibiOS//os/rt/include/chregistry.h"
 1303              		.file 18 ".//ChibiOS//os/rt/include/chevents.h"
ARM GAS  /tmp/cck07AUy.s 			page 24


 1304              		.file 19 ".//ChibiOS//os/rt/include/chqueues.h"
 1305              		.file 20 ".//ChibiOS//os/hal/ports/STM32/STM32F4xx/stm32_dma.h"
 1306              		.file 21 ".//ChibiOS//os/hal/include/hal_ioblock.h"
 1307              		.file 22 ".//ChibiOS//os/hal/ports/STM32/LLD/GPIOv2/pal_lld.h"
 1308              		.file 23 ".//ChibiOS//os/hal/include/adc.h"
 1309              		.file 24 ".//ChibiOS//os/hal/ports/STM32/STM32F4xx/adc_lld.h"
 1310              		.file 25 ".//ChibiOS//os/hal/include/can.h"
 1311              		.file 26 ".//ChibiOS//os/hal/ports/STM32/LLD/can_lld.h"
 1312              		.file 27 ".//ChibiOS//os/hal/include/dac.h"
 1313              		.file 28 ".//ChibiOS//os/hal/ports/STM32/LLD/DACv1/dac_lld.h"
 1314              		.file 29 ".//ChibiOS//os/hal/include/ext.h"
 1315              		.file 30 ".//ChibiOS//os/hal/ports/STM32/LLD/ext_lld.h"
 1316              		.file 31 ".//ChibiOS//os/hal/include/gpt.h"
 1317              		.file 32 ".//ChibiOS//os/hal/ports/STM32/LLD/TIMv1/gpt_lld.h"
 1318              		.file 33 ".//ChibiOS//os/hal/ports/STM32/LLD/TIMv1/stm32_tim.h"
 1319              		.file 34 ".//ChibiOS//os/hal/include/i2c.h"
 1320              		.file 35 ".//ChibiOS//os/hal/ports/STM32/LLD/I2Cv1/i2c_lld.h"
 1321              		.file 36 ".//ChibiOS//os/hal/include/i2s.h"
 1322              		.file 37 ".//ChibiOS//os/hal/ports/STM32/LLD/SPIv1/i2s_lld.h"
 1323              		.file 38 ".//ChibiOS//os/hal/include/pwm.h"
 1324              		.file 39 ".//ChibiOS//os/hal/ports/STM32/LLD/TIMv1/pwm_lld.h"
 1325              		.file 40 ".//ChibiOS//os/hal/include/serial.h"
 1326              		.file 41 ".//ChibiOS//os/hal/ports/STM32/LLD/USARTv1/serial_lld.h"
 1327              		.file 42 ".//ChibiOS//os/hal/include/sdc.h"
 1328              		.file 43 ".//ChibiOS//os/hal/ports/STM32/LLD/sdc_lld.h"
 1329              		.file 44 ".//ChibiOS//os/hal/include/spi.h"
 1330              		.file 45 ".//ChibiOS//os/hal/ports/STM32/LLD/SPIv1/spi_lld.h"
 1331              		.file 46 ".//ChibiOS//os/hal/include/usb.h"
 1332              		.file 47 ".//ChibiOS//os/hal/ports/STM32/LLD/OTGv1/usb_lld.h"
 1333              		.file 48 ".//ChibiOS//os/hal/ports/STM32/LLD/OTGv1/stm32_otg.h"
 1334              		.file 49 ".//ChibiOS//os/rt/include/chsys.h"