ARM GAS  /tmp/ccJADD3f.s 			page 1


   1              		.cpu cortex-m4
   2              		.eabi_attribute 27, 1
   3              		.eabi_attribute 28, 1
   4              		.eabi_attribute 20, 1
   5              		.eabi_attribute 21, 1
   6              		.eabi_attribute 23, 3
   7              		.eabi_attribute 24, 1
   8              		.eabi_attribute 25, 1
   9              		.eabi_attribute 26, 1
  10              		.eabi_attribute 30, 2
  11              		.eabi_attribute 34, 1
  12              		.eabi_attribute 18, 4
  13              		.file	"battery_level.c"
  14              		.text
  15              	.Ltext0:
  16              		.cfi_sections	.debug_frame
  17              		.section	.rodata.adc_cb.cst4,"aM",%progbits,4
  18              		.align	2
  19              	.LC0:
  20 0000 00000000 		.word	__stack_chk_guard
  21              		.section	.text.adc_cb,"ax",%progbits
  22              		.align	1
  23              		.p2align 4,,15
  24              		.arch armv7e-m
  25              		.syntax unified
  26              		.thumb
  27              		.thumb_func
  28              		.fpu fpv4-sp-d16
  29              		.type	adc_cb, %function
  30              	adc_cb:
  31              	.LVL0:
  32              	.LFB259:
  33              		.file 1 ".//src/sensors/battery_level.c"
  34              		.loc 1 55 1 view -0
  35              		.cfi_startproc
  36              		@ args = 0, pretend = 0, frame = 8
  37              		@ frame_needed = 0, uses_anonymous_args = 0
  38              		.loc 1 55 1 is_stmt 0 view .LVU1
  39 0000 10B5     		push	{r4, lr}
  40              		.cfi_def_cfa_offset 8
  41              		.cfi_offset 4, -8
  42              		.cfi_offset 14, -4
  43 0002 1D4B     		ldr	r3, .L14
  44 0004 82B0     		sub	sp, sp, #8
  45              		.cfi_def_cfa_offset 16
  46              		.loc 1 55 1 view .LVU2
  47 0006 1B68     		ldr	r3, [r3]
  48 0008 0193     		str	r3, [sp, #4]
  49 000a 4FF00003 		mov	r3,#0
  50              		.loc 1 56 5 is_stmt 1 view .LVU3
  51              		.loc 1 59 5 view .LVU4
  52              		.loc 1 60 5 view .LVU5
  53              	.LBB43:
  54              		.loc 1 60 10 view .LVU6
  55              	.LVL1:
  56              		.loc 1 60 24 view .LVU7
  57              		.loc 1 60 5 is_stmt 0 view .LVU8
ARM GAS  /tmp/ccJADD3f.s 			page 2


  58 000e 52B1     		cbz	r2, .L2
  59 0010 0239     		subs	r1, r1, #2
  60              	.LVL2:
  61              		.loc 1 60 5 view .LVU9
  62 0012 01EB4204 		add	r4, r1, r2, lsl #1
  63 0016 0023     		movs	r3, #0
  64              	.LVL3:
  65              	.L3:
  66              		.loc 1 61 9 is_stmt 1 discriminator 3 view .LVU10
  67              		.loc 1 61 29 is_stmt 0 discriminator 3 view .LVU11
  68 0018 31F8020F 		ldrh	r0, [r1, #2]!
  69              		.loc 1 60 5 discriminator 3 view .LVU12
  70 001c A142     		cmp	r1, r4
  71              		.loc 1 61 19 discriminator 3 view .LVU13
  72 001e 0344     		add	r3, r3, r0
  73              		.loc 1 60 31 is_stmt 1 discriminator 3 view .LVU14
  74              		.loc 1 60 24 discriminator 3 view .LVU15
  75              		.loc 1 60 5 is_stmt 0 discriminator 3 view .LVU16
  76 0020 FAD1     		bne	.L3
  77 0022 B3FBF2F2 		udiv	r2, r3, r2
  78              	.LVL4:
  79              	.L2:
  80              		.loc 1 60 5 discriminator 3 view .LVU17
  81              	.LBE43:
  82              		.loc 1 63 5 is_stmt 1 view .LVU18
  83              		.loc 1 63 15 is_stmt 0 view .LVU19
  84 0026 154B     		ldr	r3, .L14+4
  85              	.LBB44:
  86              	.LBB45:
  87              	.LBB46:
  88              	.LBB47:
  89              	.LBB48:
  90              	.LBB49:
  91              		.file 2 ".//ChibiOS//os/ext/CMSIS/include/core_cmFunc.h"
  92              		.loc 2 546 3 view .LVU20
  93 0028 2024     		movs	r4, #32
  94              	.LBE49:
  95              	.LBE48:
  96              	.LBE47:
  97              	.LBE46:
  98              	.LBE45:
  99              	.LBE44:
 100              		.loc 1 63 15 view .LVU21
 101 002a 1A60     		str	r2, [r3]
 102              		.loc 1 65 5 is_stmt 1 view .LVU22
 103              	.LBB60:
 104              	.LBI44:
 105              		.file 3 ".//ChibiOS//os/rt/include/chsys.h"
 106              		.loc 3 386 20 view .LVU23
 107              	.LBB57:
 108              		.loc 3 388 3 view .LVU24
 109              	.LBB54:
 110              	.LBI46:
 111              		.file 4 ".//ChibiOS//os/rt/ports/ARMCMx/chcore_v7m.h"
 112              		.loc 4 473 20 view .LVU25
 113              	.LBE54:
 114              	.LBE57:
ARM GAS  /tmp/ccJADD3f.s 			page 3


 115              	.LBE60:
 116              		.loc 4 475 3 view .LVU26
 117              	.LBB61:
 118              	.LBB58:
 119              	.LBB55:
 120              	.LBB52:
 121              	.LBI47:
 122              		.loc 4 444 20 view .LVU27
 123              	.LBE52:
 124              	.LBE55:
 125              	.LBE58:
 126              	.LBE61:
 127              		.loc 4 447 3 view .LVU28
 128              	.LVL5:
 129              	.LBB62:
 130              	.LBB59:
 131              	.LBB56:
 132              	.LBB53:
 133              	.LBB51:
 134              	.LBI48:
 135              		.loc 2 544 57 view .LVU29
 136              	.LBB50:
 137              		.loc 2 546 3 view .LVU30
 138              		.syntax unified
 139              	@ 546 ".//ChibiOS//os/ext/CMSIS/include/core_cmFunc.h" 1
 140 002c 84F31188 		MSR basepri, r4
 141              	@ 0 "" 2
 142              	.LVL6:
 143              		.loc 2 546 3 is_stmt 0 view .LVU31
 144              		.thumb
 145              		.syntax unified
 146              	.LBE50:
 147              	.LBE51:
 148              	.LBE53:
 149              	.LBE56:
 150              		.loc 3 389 3 is_stmt 1 view .LVU32
 151 0030 FFF7FEFF 		bl	_stats_start_measure_crit_isr
 152              	.LVL7:
 153              		.loc 3 390 3 view .LVU33
 154 0034 FFF7FEFF 		bl	_dbg_check_lock_from_isr
 155              	.LVL8:
 156              	.LBE59:
 157              	.LBE62:
 158              		.loc 1 66 5 view .LVU34
 159 0038 1148     		ldr	r0, .L14+8
 160 003a 124A     		ldr	r2, .L14+12
 161 003c 1249     		ldr	r1, .L14+16
 162 003e 2346     		mov	r3, r4
 163 0040 FFF7FEFF 		bl	adcStartConversionI
 164              	.LVL9:
 165              		.loc 1 67 5 view .LVU35
 166              	.LBB63:
 167              	.LBI63:
 168              		.file 5 ".//ChibiOS//os/rt/include/chbsem.h"
 169              		.loc 5 266 20 view .LVU36
 170              	.LBB64:
 171              		.loc 5 268 3 view .LVU37
ARM GAS  /tmp/ccJADD3f.s 			page 4


 172 0044 FFF7FEFF 		bl	chDbgCheckClassI
 173              	.LVL10:
 174              		.loc 5 270 3 view .LVU38
 175              		.loc 5 270 18 is_stmt 0 view .LVU39
 176 0048 1048     		ldr	r0, .L14+20
 177              		.loc 5 270 6 view .LVU40
 178 004a 8368     		ldr	r3, [r0, #8]
 179 004c 002B     		cmp	r3, #0
 180 004e 0DDD     		ble	.L12
 181              	.L4:
 182              	.LVL11:
 183              		.loc 5 270 6 view .LVU41
 184              	.LBE64:
 185              	.LBE63:
 186              		.loc 1 68 5 is_stmt 1 view .LVU42
 187              	.LBB66:
 188              	.LBI66:
 189              		.loc 3 406 20 view .LVU43
 190              	.LBB67:
 191              		.loc 3 408 3 view .LVU44
 192 0050 FFF7FEFF 		bl	_dbg_check_unlock_from_isr
 193              	.LVL12:
 194              		.loc 3 409 3 view .LVU45
 195 0054 FFF7FEFF 		bl	_stats_stop_measure_crit_isr
 196              	.LVL13:
 197              		.loc 3 410 3 view .LVU46
 198              	.LBB68:
 199              	.LBI68:
 200              		.loc 4 484 20 view .LVU47
 201              	.LBE68:
 202              	.LBE67:
 203              	.LBE66:
 204              		.loc 4 486 3 view .LVU48
 205              	.LBB77:
 206              	.LBB75:
 207              	.LBB73:
 208              	.LBB69:
 209              	.LBI69:
 210              		.loc 4 458 20 view .LVU49
 211              	.LBE69:
 212              	.LBE73:
 213              	.LBE75:
 214              	.LBE77:
 215              		.loc 4 461 3 view .LVU50
 216              	.LBB78:
 217              	.LBB76:
 218              	.LBB74:
 219              	.LBB72:
 220              	.LBB70:
 221              	.LBI70:
 222              		.loc 2 544 57 view .LVU51
 223              	.LBB71:
 224              		.loc 2 546 3 view .LVU52
 225 0058 0023     		movs	r3, #0
 226              		.syntax unified
 227              	@ 546 ".//ChibiOS//os/ext/CMSIS/include/core_cmFunc.h" 1
 228 005a 83F31188 		MSR basepri, r3
ARM GAS  /tmp/ccJADD3f.s 			page 5


 229              	@ 0 "" 2
 230              	.LVL14:
 231              		.loc 2 546 3 is_stmt 0 view .LVU53
 232              		.thumb
 233              		.syntax unified
 234              	.LBE71:
 235              	.LBE70:
 236              	.LBE72:
 237              	.LBE74:
 238              	.LBE76:
 239              	.LBE78:
 240              		.loc 1 69 1 view .LVU54
 241 005e 064B     		ldr	r3, .L14
 242 0060 1A68     		ldr	r2, [r3]
 243 0062 019B     		ldr	r3, [sp, #4]
 244 0064 5A40     		eors	r2, r3, r2
 245 0066 04D1     		bne	.L13
 246 0068 02B0     		add	sp, sp, #8
 247              		.cfi_remember_state
 248              		.cfi_def_cfa_offset 8
 249              		@ sp needed
 250 006a 10BD     		pop	{r4, pc}
 251              	.LVL15:
 252              	.L12:
 253              		.cfi_restore_state
 254              	.LBB79:
 255              	.LBB65:
 256              		.loc 5 271 5 is_stmt 1 view .LVU55
 257 006c FFF7FEFF 		bl	chSemSignalI
 258              	.LVL16:
 259 0070 EEE7     		b	.L4
 260              	.LVL17:
 261              	.L13:
 262              		.loc 5 271 5 is_stmt 0 view .LVU56
 263              	.LBE65:
 264              	.LBE79:
 265              		.loc 1 69 1 view .LVU57
 266 0072 FFF7FEFF 		bl	__stack_chk_fail
 267              	.LVL18:
 268              	.L15:
 269 0076 00BF     		.align	2
 270              	.L14:
 271 0078 00000000 		.word	.LC0
 272 007c 00000000 		.word	.LANCHOR0
 273 0080 00000000 		.word	ADCD1
 274 0084 00000000 		.word	.LANCHOR1
 275 0088 00000000 		.word	.LANCHOR2
 276 008c 00000000 		.word	.LANCHOR3
 277              		.cfi_endproc
 278              	.LFE259:
 279              		.size	adc_cb, .-adc_cb
 280              		.section	.rodata.battery_thd.str1.4,"aMS",%progbits,1
 281              		.align	2
 282              	.LC1:
 283 0000 42617474 		.ascii	"Battery Thd\000"
 283      65727920 
 283      54686400 
ARM GAS  /tmp/ccJADD3f.s 			page 6


 284              		.align	2
 285              	.LC2:
 286 000c 2F626174 		.ascii	"/battery_level\000"
 286      74657279 
 286      5F6C6576 
 286      656C00
 287              		.section	.rodata.battery_thd.cst4,"aM",%progbits,4
 288              		.align	2
 289              	.LC3:
 290 0000 00000000 		.word	__stack_chk_guard
 291              		.section	.text.battery_thd,"ax",%progbits
 292              		.align	1
 293              		.p2align 4,,15
 294              		.syntax unified
 295              		.thumb
 296              		.thumb_func
 297              		.fpu fpv4-sp-d16
 298              		.type	battery_thd, %function
 299              	battery_thd:
 300              	.LVL19:
 301              	.LFB260:
 302              		.loc 1 75 1 is_stmt 1 view -0
 303              		.cfi_startproc
 304              		@ args = 0, pretend = 0, frame = 128
 305              		@ frame_needed = 0, uses_anonymous_args = 0
 306              		.loc 1 75 1 is_stmt 0 view .LVU59
 307 0000 30B5     		push	{r4, r5, lr}
 308              		.cfi_def_cfa_offset 12
 309              		.cfi_offset 4, -12
 310              		.cfi_offset 5, -8
 311              		.cfi_offset 14, -4
 312 0002 2DED068B 		vpush.64	{d8, d9, d10}
 313              		.cfi_def_cfa_offset 36
 314              		.cfi_offset 80, -36
 315              		.cfi_offset 81, -32
 316              		.cfi_offset 82, -28
 317              		.cfi_offset 83, -24
 318              		.cfi_offset 84, -20
 319              		.cfi_offset 85, -16
 320              	.LBB80:
 321              	.LBB81:
 322              		.file 6 ".//ChibiOS//os/rt/include/chregistry.h"
 323              		.loc 6 135 11 view .LVU60
 324 0006 374B     		ldr	r3, .L20
 325              	.LBE81:
 326              	.LBE80:
 327              		.loc 1 82 5 view .LVU61
 328 0008 374C     		ldr	r4, .L20+4
 329              	.LBB85:
 330              	.LBB82:
 331              		.loc 6 135 11 view .LVU62
 332 000a 9B69     		ldr	r3, [r3, #24]
 333              		.loc 6 135 30 view .LVU63
 334 000c 374A     		ldr	r2, .L20+8
 335              	.LBE82:
 336              	.LBE85:
 337              		.loc 1 75 1 view .LVU64
ARM GAS  /tmp/ccJADD3f.s 			page 7


 338 000e 384D     		ldr	r5, .L20+12
 339              	.LBB86:
 340              	.LBB83:
 341              		.loc 6 135 30 view .LVU65
 342 0010 9A61     		str	r2, [r3, #24]
 343              	.LBE83:
 344              	.LBE86:
 345              		.loc 1 75 1 view .LVU66
 346 0012 A3B0     		sub	sp, sp, #140
 347              		.cfi_def_cfa_offset 176
 348              		.loc 1 82 5 view .LVU67
 349 0014 0C20     		movs	r0, #12
 350              	.LVL20:
 351              		.loc 1 82 5 view .LVU68
 352 0016 0090     		str	r0, [sp]
 353              		.loc 1 75 1 view .LVU69
 354 0018 2D68     		ldr	r5, [r5]
 355 001a 2195     		str	r5, [sp, #132]
 356 001c 4FF00005 		mov	r5,#0
 357              		.loc 1 76 5 is_stmt 1 view .LVU70
 358              		.loc 1 77 5 view .LVU71
 359              	.LVL21:
 360              	.LBB87:
 361              	.LBI80:
 362              		.loc 6 132 20 view .LVU72
 363              	.LBB84:
 364              		.loc 6 135 3 view .LVU73
 365              		.loc 6 135 3 is_stmt 0 view .LVU74
 366              	.LBE84:
 367              	.LBE87:
 368              		.loc 1 79 5 is_stmt 1 view .LVU75
 369              		.loc 1 80 5 view .LVU76
 370              		.loc 1 82 5 is_stmt 0 view .LVU77
 371 0020 2346     		mov	r3, r4
 372              		.loc 1 80 5 view .LVU78
 373 0022 05A9     		add	r1, sp, #20
 374              		.loc 1 81 5 view .LVU79
 375 0024 03AA     		add	r2, sp, #12
 376              		.loc 1 80 5 view .LVU80
 377 0026 0025     		movs	r5, #0
 378              		.loc 1 82 5 view .LVU81
 379 0028 0AA8     		add	r0, sp, #40
 380              		.loc 1 80 5 view .LVU82
 381 002a CDE90511 		strd	r1, r1, [sp, #20]
 382              		.loc 1 81 5 view .LVU83
 383 002e CDE90322 		strd	r2, r2, [sp, #12]
 384              		.loc 1 80 5 view .LVU84
 385 0032 CDE90755 		strd	r5, r5, [sp, #28]
 386 0036 0995     		str	r5, [sp, #36]
 387              		.loc 1 81 5 is_stmt 1 view .LVU85
 388              		.loc 1 82 5 view .LVU86
 389 0038 FFF7FEFF 		bl	messagebus_topic_init
 390              	.LVL22:
 391              		.loc 1 83 5 view .LVU87
 392 003c 2D4A     		ldr	r2, .L20+16
 393 003e 2E48     		ldr	r0, .L20+20
 394              		.loc 1 98 37 is_stmt 0 view .LVU88
ARM GAS  /tmp/ccJADD3f.s 			page 8


 395 0040 2E4D     		ldr	r5, .L20+24
 396              		.loc 1 102 57 view .LVU89
 397 0042 DFED2FAA 		vldr.32	s21, .L20+28
 398              		.loc 1 103 60 view .LVU90
 399 0046 9FED2FAA 		vldr.32	s20, .L20+32
 400              		.loc 1 103 75 view .LVU91
 401 004a DFED2F9A 		vldr.32	s19, .L20+36
 402              		.loc 1 104 71 view .LVU92
 403 004e 9FED2F9A 		vldr.32	s18, .L20+40
 404              		.loc 1 105 65 view .LVU93
 405 0052 DFED2F8A 		vldr.32	s17, .L20+44
 406              		.loc 1 100 99 view .LVU94
 407 0056 9FED2F8A 		vldr.32	s16, .L20+48
 408              		.loc 1 83 5 view .LVU95
 409 005a 0AA9     		add	r1, sp, #40
 410 005c FFF7FEFF 		bl	messagebus_advertise_topic
 411              	.LVL23:
 412              		.loc 1 84 5 is_stmt 1 view .LVU96
 413              		.loc 1 87 5 view .LVU97
 414 0060 2D48     		ldr	r0, .L20+52
 415 0062 FFF7FEFF 		bl	adcAcquireBus
 416              	.LVL24:
 417              		.loc 1 88 5 view .LVU98
 418 0066 2023     		movs	r3, #32
 419 0068 2C4A     		ldr	r2, .L20+56
 420 006a 2D49     		ldr	r1, .L20+60
 421 006c 2A48     		ldr	r0, .L20+52
 422 006e FFF7FEFF 		bl	adcStartConversion
 423              	.LVL25:
 424              		.loc 1 91 5 view .LVU99
 425              		.loc 1 92 9 view .LVU100
 426              	.LBB88:
 427              	.LBI88:
 428              		.loc 5 141 21 view .LVU101
 429              	.LBB89:
 430              		.loc 5 143 3 view .LVU102
 431              		.loc 5 143 10 is_stmt 0 view .LVU103
 432 0072 2C48     		ldr	r0, .L20+64
 433 0074 FFF7FEFF 		bl	chSemWait
 434              	.LVL26:
 435              		.loc 5 143 10 view .LVU104
 436              	.LBE89:
 437              	.LBE88:
 438              		.loc 1 96 9 is_stmt 1 view .LVU105
 439              		.loc 1 97 13 view .LVU106
 440              		.loc 1 98 13 view .LVU107
 441              		.loc 1 98 37 is_stmt 0 view .LVU108
 442 0078 2B88     		ldrh	r3, [r5]
 443 007a 2381     		strh	r3, [r4, #8]	@ movhi
 444              	.L17:
 445              		.loc 1 102 9 is_stmt 1 view .LVU109
 446              		.loc 1 102 57 is_stmt 0 view .LVU110
 447 007c 07EE903A 		vmov	s15, r3	@ int
 448 0080 F8EEE77A 		vcvt.f32.s32	s15, s15
 449              		.loc 1 106 9 view .LVU111
 450 0084 1849     		ldr	r1, .L20+4
 451              		.loc 1 102 57 view .LVU112
ARM GAS  /tmp/ccJADD3f.s 			page 9


 452 0086 C7EEAA6A 		vdiv.f32	s13, s15, s21
 453              		.loc 1 106 9 view .LVU113
 454 008a 0C22     		movs	r2, #12
 455 008c 0AA8     		add	r0, sp, #40
 456              		.loc 1 103 60 view .LVU114
 457 008e 36EECA7A 		vsub.f32	s14, s13, s20
 458              		.loc 1 102 31 view .LVU115
 459 0092 C4ED006A 		vstr.32	s13, [r4]
 460              		.loc 1 103 9 is_stmt 1 view .LVU116
 461              		.loc 1 103 75 is_stmt 0 view .LVU117
 462 0096 27EE297A 		vmul.f32	s14, s14, s19
 463              		.loc 1 104 71 view .LVU118
 464 009a C7EE097A 		vdiv.f32	s15, s14, s18
 465              		.loc 1 105 65 view .LVU119
 466 009e 77EEA87A 		vadd.f32	s15, s15, s17
 467              		.loc 1 103 34 view .LVU120
 468 00a2 C4ED017A 		vstr.32	s15, [r4, #4]
 469              		.loc 1 106 9 is_stmt 1 view .LVU121
 470 00a6 FFF7FEFF 		bl	messagebus_topic_publish
 471              	.LVL27:
 472              		.loc 1 111 9 view .LVU122
 473 00aa 4FF4FA70 		mov	r0, #500
 474 00ae FFF7FEFF 		bl	chThdSleep
 475              	.LVL28:
 476              		.loc 1 91 11 view .LVU123
 477              		.loc 1 91 5 view .LVU124
 478              		.loc 1 92 9 view .LVU125
 479              	.LBB91:
 480              		.loc 5 141 21 view .LVU126
 481              	.LBB90:
 482              		.loc 5 143 3 view .LVU127
 483              		.loc 5 143 10 is_stmt 0 view .LVU128
 484 00b2 1C48     		ldr	r0, .L20+64
 485 00b4 FFF7FEFF 		bl	chSemWait
 486              	.LVL29:
 487              		.loc 5 143 10 view .LVU129
 488              	.LBE90:
 489              	.LBE91:
 490              		.loc 1 96 9 is_stmt 1 view .LVU130
 491              		.loc 1 100 13 view .LVU131
 492              		.loc 1 100 39 is_stmt 0 view .LVU132
 493 00b8 2389     		ldrh	r3, [r4, #8]
 494              		.loc 1 100 81 view .LVU133
 495 00ba D5ED007A 		vldr.32	s15, [r5]	@ int
 496              		.loc 1 100 79 view .LVU134
 497 00be DFED1A6A 		vldr.32	s13, .L20+68
 498              		.loc 1 100 39 view .LVU135
 499 00c2 07EE103A 		vmov	s14, r3	@ int
 500              		.loc 1 100 81 view .LVU136
 501 00c6 F8EE677A 		vcvt.f32.u32	s15, s15
 502              		.loc 1 100 39 view .LVU137
 503 00ca B8EE477A 		vcvt.f32.u32	s14, s14
 504              		.loc 1 100 99 view .LVU138
 505 00ce 67EE887A 		vmul.f32	s15, s15, s16
 506              		.loc 1 100 79 view .LVU139
 507 00d2 E7EE267A 		vfma.f32	s15, s14, s13
 508              		.loc 1 100 37 view .LVU140
ARM GAS  /tmp/ccJADD3f.s 			page 10


 509 00d6 FCEEE77A 		vcvt.u32.f32	s15, s15
 510 00da 17EE903A 		vmov	r3, s15	@ int
 511 00de 9BB2     		uxth	r3, r3
 512 00e0 2381     		strh	r3, [r4, #8]	@ movhi
 513 00e2 CBE7     		b	.L17
 514              	.L21:
 515              		.align	2
 516              	.L20:
 517 00e4 00000000 		.word	ch
 518 00e8 00000000 		.word	.LANCHOR4
 519 00ec 00000000 		.word	.LC1
 520 00f0 00000000 		.word	.LC3
 521 00f4 0C000000 		.word	.LC2
 522 00f8 00000000 		.word	bus
 523 00fc 00000000 		.word	.LANCHOR0
 524 0100 CDCC4C44 		.word	1145883853
 525 0104 9A995940 		.word	1079613850
 526 0108 0000C842 		.word	1120403456
 527 010c C8CC4C3F 		.word	1061997768
 528 0110 00000000 		.word	0
 529 0114 CDCC4C3E 		.word	1045220557
 530 0118 00000000 		.word	ADCD1
 531 011c 00000000 		.word	.LANCHOR1
 532 0120 00000000 		.word	.LANCHOR2
 533 0124 00000000 		.word	.LANCHOR3
 534 0128 CDCC4C3F 		.word	1061997773
 535              		.cfi_endproc
 536              	.LFE260:
 537              		.size	battery_thd, .-battery_thd
 538              		.section	.rodata.battery_level_start.cst4,"aM",%progbits,4
 539              		.align	2
 540              	.LC4:
 541 0000 00000000 		.word	__stack_chk_guard
 542              		.section	.text.battery_level_start,"ax",%progbits
 543              		.align	1
 544              		.p2align 4,,15
 545              		.global	battery_level_start
 546              		.syntax unified
 547              		.thumb
 548              		.thumb_func
 549              		.fpu fpv4-sp-d16
 550              		.type	battery_level_start, %function
 551              	battery_level_start:
 552              	.LFB261:
 553              		.loc 1 121 1 is_stmt 1 view -0
 554              		.cfi_startproc
 555              		@ args = 0, pretend = 0, frame = 8
 556              		@ frame_needed = 0, uses_anonymous_args = 0
 557 0000 00B5     		push	{lr}
 558              		.cfi_def_cfa_offset 4
 559              		.cfi_offset 14, -4
 560 0002 0E4B     		ldr	r3, .L26
 561              		.loc 1 122 5 is_stmt 0 view .LVU142
 562 0004 0E48     		ldr	r0, .L26+4
 563              		.loc 1 121 1 view .LVU143
 564 0006 85B0     		sub	sp, sp, #20
 565              		.cfi_def_cfa_offset 24
ARM GAS  /tmp/ccJADD3f.s 			page 11


 566              		.loc 1 122 5 view .LVU144
 567 0008 0021     		movs	r1, #0
 568              		.loc 1 121 1 view .LVU145
 569 000a 1B68     		ldr	r3, [r3]
 570 000c 0393     		str	r3, [sp, #12]
 571 000e 4FF00003 		mov	r3,#0
 572              		.loc 1 122 5 is_stmt 1 view .LVU146
 573 0012 FFF7FEFF 		bl	adcStart
 574              	.LVL30:
 575              		.loc 1 123 5 view .LVU147
 576              		.loc 1 124 5 view .LVU148
 577 0016 0023     		movs	r3, #0
 578 0018 0093     		str	r3, [sp]
 579 001a 4022     		movs	r2, #64
 580 001c 094B     		ldr	r3, .L26+8
 581 001e 0A48     		ldr	r0, .L26+12
 582 0020 4FF41E71 		mov	r1, #632
 583 0024 FFF7FEFF 		bl	chThdCreateStatic
 584              	.LVL31:
 585              		.loc 1 125 1 is_stmt 0 view .LVU149
 586 0028 044B     		ldr	r3, .L26
 587 002a 1A68     		ldr	r2, [r3]
 588 002c 039B     		ldr	r3, [sp, #12]
 589 002e 5A40     		eors	r2, r3, r2
 590 0030 02D1     		bne	.L25
 591 0032 05B0     		add	sp, sp, #20
 592              		.cfi_remember_state
 593              		.cfi_def_cfa_offset 4
 594              		@ sp needed
 595 0034 5DF804FB 		ldr	pc, [sp], #4
 596              	.L25:
 597              		.cfi_restore_state
 598 0038 FFF7FEFF 		bl	__stack_chk_fail
 599              	.LVL32:
 600              	.L27:
 601              		.align	2
 602              	.L26:
 603 003c 00000000 		.word	.LC4
 604 0040 00000000 		.word	ADCD1
 605 0044 00000000 		.word	battery_thd
 606 0048 00000000 		.word	.LANCHOR5
 607              		.cfi_endproc
 608              	.LFE261:
 609              		.size	battery_level_start, .-battery_level_start
 610              		.section	.rodata.get_battery_raw.cst4,"aM",%progbits,4
 611              		.align	2
 612              	.LC5:
 613 0000 00000000 		.word	__stack_chk_guard
 614              		.section	.text.get_battery_raw,"ax",%progbits
 615              		.align	1
 616              		.p2align 4,,15
 617              		.global	get_battery_raw
 618              		.syntax unified
 619              		.thumb
 620              		.thumb_func
 621              		.fpu fpv4-sp-d16
 622              		.type	get_battery_raw, %function
ARM GAS  /tmp/ccJADD3f.s 			page 12


 623              	get_battery_raw:
 624              	.LFB262:
 625              		.loc 1 127 32 is_stmt 1 view -0
 626              		.cfi_startproc
 627              		@ args = 0, pretend = 0, frame = 8
 628              		@ frame_needed = 0, uses_anonymous_args = 0
 629 0000 00B5     		push	{lr}
 630              		.cfi_def_cfa_offset 4
 631              		.cfi_offset 14, -4
 632              		.loc 1 128 25 is_stmt 0 view .LVU151
 633 0002 094B     		ldr	r3, .L32
 634              		.loc 1 127 32 view .LVU152
 635 0004 094A     		ldr	r2, .L32+4
 636              		.loc 1 128 25 view .LVU153
 637 0006 1889     		ldrh	r0, [r3, #8]
 638              		.loc 1 129 1 view .LVU154
 639 0008 084B     		ldr	r3, .L32+4
 640              		.loc 1 127 32 view .LVU155
 641 000a 83B0     		sub	sp, sp, #12
 642              		.cfi_def_cfa_offset 16
 643              		.loc 1 127 32 view .LVU156
 644 000c 1268     		ldr	r2, [r2]
 645 000e 0192     		str	r2, [sp, #4]
 646 0010 4FF00002 		mov	r2,#0
 647              		.loc 1 128 5 is_stmt 1 view .LVU157
 648              		.loc 1 129 1 is_stmt 0 view .LVU158
 649 0014 1A68     		ldr	r2, [r3]
 650 0016 019B     		ldr	r3, [sp, #4]
 651 0018 5A40     		eors	r2, r3, r2
 652 001a 02D1     		bne	.L31
 653 001c 03B0     		add	sp, sp, #12
 654              		.cfi_remember_state
 655              		.cfi_def_cfa_offset 4
 656              		@ sp needed
 657 001e 5DF804FB 		ldr	pc, [sp], #4
 658              	.L31:
 659              		.cfi_restore_state
 660 0022 FFF7FEFF 		bl	__stack_chk_fail
 661              	.LVL33:
 662              	.L33:
 663 0026 00BF     		.align	2
 664              	.L32:
 665 0028 00000000 		.word	.LANCHOR4
 666 002c 00000000 		.word	.LC5
 667              		.cfi_endproc
 668              	.LFE262:
 669              		.size	get_battery_raw, .-get_battery_raw
 670              		.section	.rodata.get_battery_voltage.cst4,"aM",%progbits,4
 671              		.align	2
 672              	.LC6:
 673 0000 00000000 		.word	__stack_chk_guard
 674              		.section	.text.get_battery_voltage,"ax",%progbits
 675              		.align	1
 676              		.p2align 4,,15
 677              		.global	get_battery_voltage
 678              		.syntax unified
 679              		.thumb
ARM GAS  /tmp/ccJADD3f.s 			page 13


 680              		.thumb_func
 681              		.fpu fpv4-sp-d16
 682              		.type	get_battery_voltage, %function
 683              	get_battery_voltage:
 684              	.LFB263:
 685              		.loc 1 131 33 is_stmt 1 view -0
 686              		.cfi_startproc
 687              		@ args = 0, pretend = 0, frame = 8
 688              		@ frame_needed = 0, uses_anonymous_args = 0
 689 0000 00B5     		push	{lr}
 690              		.cfi_def_cfa_offset 4
 691              		.cfi_offset 14, -4
 692              		.loc 1 132 25 is_stmt 0 view .LVU160
 693 0002 094B     		ldr	r3, .L38
 694              		.loc 1 131 33 view .LVU161
 695 0004 094A     		ldr	r2, .L38+4
 696              		.loc 1 132 25 view .LVU162
 697 0006 93ED000A 		vldr.32	s0, [r3]
 698              		.loc 1 133 1 view .LVU163
 699 000a 084B     		ldr	r3, .L38+4
 700              		.loc 1 131 33 view .LVU164
 701 000c 83B0     		sub	sp, sp, #12
 702              		.cfi_def_cfa_offset 16
 703              		.loc 1 131 33 view .LVU165
 704 000e 1268     		ldr	r2, [r2]
 705 0010 0192     		str	r2, [sp, #4]
 706 0012 4FF00002 		mov	r2,#0
 707              		.loc 1 132 5 is_stmt 1 view .LVU166
 708              		.loc 1 133 1 is_stmt 0 view .LVU167
 709 0016 1A68     		ldr	r2, [r3]
 710 0018 019B     		ldr	r3, [sp, #4]
 711 001a 5A40     		eors	r2, r3, r2
 712 001c 02D1     		bne	.L37
 713 001e 03B0     		add	sp, sp, #12
 714              		.cfi_remember_state
 715              		.cfi_def_cfa_offset 4
 716              		@ sp needed
 717 0020 5DF804FB 		ldr	pc, [sp], #4
 718              	.L37:
 719              		.cfi_restore_state
 720 0024 FFF7FEFF 		bl	__stack_chk_fail
 721              	.LVL34:
 722              	.L39:
 723              		.align	2
 724              	.L38:
 725 0028 00000000 		.word	.LANCHOR4
 726 002c 00000000 		.word	.LC6
 727              		.cfi_endproc
 728              	.LFE263:
 729              		.size	get_battery_voltage, .-get_battery_voltage
 730              		.section	.rodata.get_battery_percentage.cst4,"aM",%progbits,4
 731              		.align	2
 732              	.LC7:
 733 0000 00000000 		.word	__stack_chk_guard
 734              		.section	.text.get_battery_percentage,"ax",%progbits
 735              		.align	1
 736              		.p2align 4,,15
ARM GAS  /tmp/ccJADD3f.s 			page 14


 737              		.global	get_battery_percentage
 738              		.syntax unified
 739              		.thumb
 740              		.thumb_func
 741              		.fpu fpv4-sp-d16
 742              		.type	get_battery_percentage, %function
 743              	get_battery_percentage:
 744              	.LFB264:
 745              		.loc 1 135 35 is_stmt 1 view -0
 746              		.cfi_startproc
 747              		@ args = 0, pretend = 0, frame = 8
 748              		@ frame_needed = 0, uses_anonymous_args = 0
 749 0000 00B5     		push	{lr}
 750              		.cfi_def_cfa_offset 4
 751              		.cfi_offset 14, -4
 752              		.loc 1 136 25 is_stmt 0 view .LVU169
 753 0002 094B     		ldr	r3, .L44
 754              		.loc 1 135 35 view .LVU170
 755 0004 094A     		ldr	r2, .L44+4
 756              		.loc 1 136 25 view .LVU171
 757 0006 93ED010A 		vldr.32	s0, [r3, #4]
 758              		.loc 1 137 1 view .LVU172
 759 000a 084B     		ldr	r3, .L44+4
 760              		.loc 1 135 35 view .LVU173
 761 000c 83B0     		sub	sp, sp, #12
 762              		.cfi_def_cfa_offset 16
 763              		.loc 1 135 35 view .LVU174
 764 000e 1268     		ldr	r2, [r2]
 765 0010 0192     		str	r2, [sp, #4]
 766 0012 4FF00002 		mov	r2,#0
 767              		.loc 1 136 5 is_stmt 1 view .LVU175
 768              		.loc 1 137 1 is_stmt 0 view .LVU176
 769 0016 1A68     		ldr	r2, [r3]
 770 0018 019B     		ldr	r3, [sp, #4]
 771 001a 5A40     		eors	r2, r3, r2
 772 001c 02D1     		bne	.L43
 773 001e 03B0     		add	sp, sp, #12
 774              		.cfi_remember_state
 775              		.cfi_def_cfa_offset 4
 776              		@ sp needed
 777 0020 5DF804FB 		ldr	pc, [sp], #4
 778              	.L43:
 779              		.cfi_restore_state
 780 0024 FFF7FEFF 		bl	__stack_chk_fail
 781              	.LVL35:
 782              	.L45:
 783              		.align	2
 784              	.L44:
 785 0028 00000000 		.word	.LANCHOR4
 786 002c 00000000 		.word	.LC7
 787              		.cfi_endproc
 788              	.LFE264:
 789              		.size	get_battery_percentage, .-get_battery_percentage
 790              		.section	.rodata.battery_check.cst4,"aM",%progbits,4
 791              		.align	2
 792              	.LC8:
 793 0000 00000000 		.word	__stack_chk_guard
ARM GAS  /tmp/ccJADD3f.s 			page 15


 794              		.section	.text.battery_check,"ax",%progbits
 795              		.align	1
 796              		.p2align 4,,15
 797              		.global	battery_check
 798              		.syntax unified
 799              		.thumb
 800              		.thumb_func
 801              		.fpu fpv4-sp-d16
 802              		.type	battery_check, %function
 803              	battery_check:
 804              	.LFB265:
 805              		.loc 1 139 26 is_stmt 1 view -0
 806              		.cfi_startproc
 807              		@ args = 0, pretend = 0, frame = 8
 808              		@ frame_needed = 0, uses_anonymous_args = 0
 809 0000 10B5     		push	{r4, lr}
 810              		.cfi_def_cfa_offset 8
 811              		.cfi_offset 4, -8
 812              		.cfi_offset 14, -4
 813              		.loc 1 140 21 is_stmt 0 view .LVU178
 814 0002 164C     		ldr	r4, .L56
 815              		.loc 1 139 26 view .LVU179
 816 0004 164B     		ldr	r3, .L56+4
 817              		.loc 1 140 7 view .LVU180
 818 0006 2289     		ldrh	r2, [r4, #8]
 819              		.loc 1 139 26 view .LVU181
 820 0008 82B0     		sub	sp, sp, #8
 821              		.cfi_def_cfa_offset 16
 822              		.loc 1 139 26 view .LVU182
 823 000a 1B68     		ldr	r3, [r3]
 824 000c 0193     		str	r3, [sp, #4]
 825 000e 4FF00003 		mov	r3,#0
 826              		.loc 1 140 5 is_stmt 1 view .LVU183
 827              		.loc 1 140 7 is_stmt 0 view .LVU184
 828 0012 40F65333 		movw	r3, #2899
 829 0016 9A42     		cmp	r2, r3
 830              		.loc 1 141 9 is_stmt 1 view .LVU185
 831              		.loc 1 143 9 is_stmt 0 view .LVU186
 832 0018 8DBF     		iteet	hi
 833 001a 0021     		movhi	r1, #0
 834              		.loc 1 141 9 view .LVU187
 835 001c 0121     		movls	r1, #1
 836 001e 0020     		movls	r0, #0
 837              		.loc 1 143 9 is_stmt 1 view .LVU188
 838 0020 0846     		movhi	r0, r1
 839 0022 FFF7FEFF 		bl	set_led
 840              	.LVL36:
 841              		.loc 1 146 5 view .LVU189
 842              		.loc 1 146 7 is_stmt 0 view .LVU190
 843 0026 2289     		ldrh	r2, [r4, #8]
 844 0028 40F62723 		movw	r3, #2599
 845 002c 9A42     		cmp	r2, r3
 846              		.loc 1 147 9 view .LVU191
 847 002e 0C4B     		ldr	r3, .L56+4
 848              		.loc 1 146 7 view .LVU192
 849 0030 0BD8     		bhi	.L49
 850              		.loc 1 147 9 is_stmt 1 view .LVU193
ARM GAS  /tmp/ccJADD3f.s 			page 16


 851 0032 1A68     		ldr	r2, [r3]
 852 0034 019B     		ldr	r3, [sp, #4]
 853 0036 5A40     		eors	r2, r3, r2
 854 0038 08BF     		it	eq
 855 003a 0121     		moveq	r1, #1
 856 003c 0BD1     		bne	.L55
 857              	.L54:
 858              		.loc 1 149 9 is_stmt 0 view .LVU194
 859 003e 0120     		movs	r0, #1
 860              		.loc 1 151 1 view .LVU195
 861 0040 02B0     		add	sp, sp, #8
 862              		.cfi_remember_state
 863              		.cfi_def_cfa_offset 8
 864              		@ sp needed
 865 0042 BDE81040 		pop	{r4, lr}
 866              		.cfi_restore 14
 867              		.cfi_restore 4
 868              		.cfi_def_cfa_offset 0
 869              		.loc 1 149 9 view .LVU196
 870 0046 FFF7FEBF 		b	set_led
 871              	.LVL37:
 872              	.L49:
 873              		.cfi_restore_state
 874              		.loc 1 149 9 is_stmt 1 view .LVU197
 875 004a 1A68     		ldr	r2, [r3]
 876 004c 019B     		ldr	r3, [sp, #4]
 877 004e 5A40     		eors	r2, r3, r2
 878 0050 08BF     		it	eq
 879 0052 0021     		moveq	r1, #0
 880 0054 F3D0     		beq	.L54
 881              	.L55:
 882 0056 FFF7FEFF 		bl	__stack_chk_fail
 883              	.LVL38:
 884              	.L57:
 885 005a 00BF     		.align	2
 886              	.L56:
 887 005c 00000000 		.word	.LANCHOR4
 888 0060 00000000 		.word	.LC8
 889              		.cfi_endproc
 890              	.LFE265:
 891              		.size	battery_check, .-battery_check
 892              		.section	.bss.adc_samples,"aw",%nobits
 893              		.align	2
 894              		.set	.LANCHOR1,. + 0
 895              		.type	adc_samples, %object
 896              		.size	adc_samples, 64
 897              	adc_samples:
 898 0000 00000000 		.space	64
 898      00000000 
 898      00000000 
 898      00000000 
 898      00000000 
 899              		.section	.bss.adc_value,"aw",%nobits
 900              		.align	2
 901              		.set	.LANCHOR0,. + 0
 902              		.type	adc_value, %object
 903              		.size	adc_value, 4
ARM GAS  /tmp/ccJADD3f.s 			page 17


 904              	adc_value:
 905 0000 00000000 		.space	4
 906              		.section	.bss.battery_thd_wa.12223,"aw",%nobits
 907              		.align	3
 908              		.set	.LANCHOR5,. + 0
 909              		.type	battery_thd_wa.12223, %object
 910              		.size	battery_thd_wa.12223, 632
 911              	battery_thd_wa.12223:
 912 0000 00000000 		.space	632
 912      00000000 
 912      00000000 
 912      00000000 
 912      00000000 
 913              		.section	.bss.battery_value,"aw",%nobits
 914              		.align	2
 915              		.set	.LANCHOR4,. + 0
 916              		.type	battery_value, %object
 917              		.size	battery_value, 12
 918              	battery_value:
 919 0000 00000000 		.space	12
 919      00000000 
 919      00000000 
 920              		.section	.data.measurement_ready,"aw"
 921              		.align	2
 922              		.set	.LANCHOR3,. + 0
 923              		.type	measurement_ready, %object
 924              		.size	measurement_ready, 12
 925              	measurement_ready:
 926 0000 00000000 		.word	measurement_ready
 927 0004 00000000 		.word	measurement_ready
 928 0008 00000000 		.word	0
 929              		.section	.rodata.group,"a"
 930              		.align	2
 931              		.set	.LANCHOR2,. + 0
 932              		.type	group, %object
 933              		.size	group, 40
 934              	group:
 935 0000 00       		.byte	0
 936 0001 00       		.space	1
 937 0002 0100     		.short	1
 938 0004 00000000 		.word	adc_cb
 939 0008 00000000 		.word	0
 940 000c 00000000 		.word	0
 941 0010 00000040 		.word	1073741824
 942 0014 00000000 		.word	0
 943 0018 38000000 		.word	56
 944 001c 00000000 		.word	0
 945 0020 00000000 		.word	0
 946 0024 01000000 		.word	1
 947              		.text
 948              	.Letext0:
 949              		.file 7 "/usr/lib/gcc/arm-none-eabi/9.2.1/include/stddef.h"
 950              		.file 8 "/usr/lib/gcc/arm-none-eabi/9.2.1/include/stdint.h"
 951              		.file 9 ".//ChibiOS//os/rt/ports/ARMCMx/compilers/GCC/chtypes.h"
 952              		.file 10 ".//ChibiOS//os/rt/include/chsystypes.h"
 953              		.file 11 ".//ChibiOS//os/rt/include/chschd.h"
 954              		.file 12 ".//ChibiOS//os/ext/CMSIS/include/core_cm4.h"
ARM GAS  /tmp/ccJADD3f.s 			page 18


 955              		.file 13 ".//ChibiOS//os/ext/CMSIS/ST/system_stm32f4xx.h"
 956              		.file 14 ".//ChibiOS//os/ext/CMSIS/ST/stm32f407xx.h"
 957              		.file 15 ".//ChibiOS//os/rt/ports/ARMCMx/chcore.h"
 958              		.file 16 ".//ChibiOS//os/rt/include/chdebug.h"
 959              		.file 17 ".//ChibiOS//os/rt/include/chtm.h"
 960              		.file 18 ".//ChibiOS//os/rt/include/chstats.h"
 961              		.file 19 ".//ChibiOS//os/rt/include/chsem.h"
 962              		.file 20 ".//ChibiOS//os/rt/include/chmtx.h"
 963              		.file 21 ".//ChibiOS//os/rt/include/chcond.h"
 964              		.file 22 ".//ChibiOS//os/rt/include/chevents.h"
 965              		.file 23 ".//ChibiOS//os/rt/include/chqueues.h"
 966              		.file 24 ".//ChibiOS//os/hal/ports/STM32/STM32F4xx/stm32_dma.h"
 967              		.file 25 ".//ChibiOS//os/hal/include/hal_ioblock.h"
 968              		.file 26 ".//ChibiOS//os/hal/ports/STM32/LLD/GPIOv2/pal_lld.h"
 969              		.file 27 ".//ChibiOS//os/hal/include/adc.h"
 970              		.file 28 ".//ChibiOS//os/hal/ports/STM32/STM32F4xx/adc_lld.h"
 971              		.file 29 ".//ChibiOS//os/hal/include/can.h"
 972              		.file 30 ".//ChibiOS//os/hal/ports/STM32/LLD/can_lld.h"
 973              		.file 31 ".//ChibiOS//os/hal/include/dac.h"
 974              		.file 32 ".//ChibiOS//os/hal/ports/STM32/LLD/DACv1/dac_lld.h"
 975              		.file 33 ".//ChibiOS//os/hal/include/ext.h"
 976              		.file 34 ".//ChibiOS//os/hal/ports/STM32/LLD/ext_lld.h"
 977              		.file 35 ".//ChibiOS//os/hal/include/gpt.h"
 978              		.file 36 ".//ChibiOS//os/hal/ports/STM32/LLD/TIMv1/gpt_lld.h"
 979              		.file 37 ".//ChibiOS//os/hal/ports/STM32/LLD/TIMv1/stm32_tim.h"
 980              		.file 38 ".//ChibiOS//os/hal/include/i2c.h"
 981              		.file 39 ".//ChibiOS//os/hal/ports/STM32/LLD/I2Cv1/i2c_lld.h"
 982              		.file 40 ".//ChibiOS//os/hal/include/i2s.h"
 983              		.file 41 ".//ChibiOS//os/hal/ports/STM32/LLD/SPIv1/i2s_lld.h"
 984              		.file 42 ".//ChibiOS//os/hal/include/pwm.h"
 985              		.file 43 ".//ChibiOS//os/hal/ports/STM32/LLD/TIMv1/pwm_lld.h"
 986              		.file 44 ".//ChibiOS//os/hal/include/serial.h"
 987              		.file 45 ".//ChibiOS//os/hal/ports/STM32/LLD/USARTv1/serial_lld.h"
 988              		.file 46 ".//ChibiOS//os/hal/include/sdc.h"
 989              		.file 47 ".//ChibiOS//os/hal/ports/STM32/LLD/sdc_lld.h"
 990              		.file 48 ".//ChibiOS//os/hal/include/spi.h"
 991              		.file 49 ".//ChibiOS//os/hal/ports/STM32/LLD/SPIv1/spi_lld.h"
 992              		.file 50 ".//ChibiOS//os/hal/include/usb.h"
 993              		.file 51 ".//ChibiOS//os/hal/ports/STM32/LLD/OTGv1/usb_lld.h"
 994              		.file 52 ".//ChibiOS//os/hal/ports/STM32/LLD/OTGv1/stm32_otg.h"
 995              		.file 53 "/usr/include/newlib/sys/_types.h"
 996              		.file 54 "/usr/include/newlib/sys/reent.h"
 997              		.file 55 "/usr/include/newlib/sys/lock.h"
 998              		.file 56 ".//src/sensors/battery_level.h"
 999              		.file 57 ".//src/leds.h"
 1000              		.file 58 ".//ChibiOS_ext/os/hal/include/../ports/STM32/STM32F4xx/dcmi_lld.h"
 1001              		.file 59 "/usr/include/newlib/sys/unistd.h"
 1002              		.file 60 ".//src/msgbus/messagebus.h"
 1003              		.file 61 "/usr/include/newlib/stdlib.h"
 1004              		.file 62 ".//src/parameter/parameter.h"
 1005              		.file 63 ".//src/main.h"
 1006              		.file 64 ".//ChibiOS//os/rt/include/chthreads.h"