ARM GAS  /tmp/ccjxIjGL.s 			page 1


   1              		.cpu cortex-m4
   2              		.eabi_attribute 27, 1
   3              		.eabi_attribute 28, 1
   4              		.eabi_attribute 20, 1
   5              		.eabi_attribute 21, 1
   6              		.eabi_attribute 23, 3
   7              		.eabi_attribute 24, 1
   8              		.eabi_attribute 25, 1
   9              		.eabi_attribute 26, 1
  10              		.eabi_attribute 30, 2
  11              		.eabi_attribute 34, 1
  12              		.eabi_attribute 18, 4
  13              		.file	"button.c"
  14              		.text
  15              	.Ltext0:
  16              		.cfi_sections	.debug_frame
  17              		.section	.rodata.button_get_state.cst4,"aM",%progbits,4
  18              		.align	2
  19              	.LC0:
  20 0000 00000000 		.word	__stack_chk_guard
  21              		.section	.text.button_get_state,"ax",%progbits
  22              		.align	1
  23              		.p2align 4,,15
  24              		.global	button_get_state
  25              		.arch armv7e-m
  26              		.syntax unified
  27              		.thumb
  28              		.thumb_func
  29              		.fpu fpv4-sp-d16
  30              		.type	button_get_state, %function
  31              	button_get_state:
  32              	.LFB256:
  33              		.file 1 ".//src/button.c"
  34              		.loc 1 9 32 view -0
  35              		.cfi_startproc
  36              		@ args = 0, pretend = 0, frame = 8
  37              		@ frame_needed = 0, uses_anonymous_args = 0
  38 0000 00B5     		push	{lr}
  39              		.cfi_def_cfa_offset 4
  40              		.cfi_offset 14, -4
  41              		.loc 1 10 9 is_stmt 0 view .LVU1
  42 0002 094B     		ldr	r3, .L6
  43              		.loc 1 9 32 view .LVU2
  44 0004 094A     		ldr	r2, .L6+4
  45              		.loc 1 10 9 view .LVU3
  46 0006 1878     		ldrb	r0, [r3]	@ zero_extendqisi2
  47              		.loc 1 11 1 view .LVU4
  48 0008 084B     		ldr	r3, .L6+4
  49              		.loc 1 9 32 view .LVU5
  50 000a 83B0     		sub	sp, sp, #12
  51              		.cfi_def_cfa_offset 16
  52              		.loc 1 9 32 view .LVU6
  53 000c 1268     		ldr	r2, [r2]
  54 000e 0192     		str	r2, [sp, #4]
  55 0010 4FF00002 		mov	r2,#0
  56              		.loc 1 10 2 is_stmt 1 view .LVU7
  57              		.loc 1 11 1 is_stmt 0 view .LVU8
ARM GAS  /tmp/ccjxIjGL.s 			page 2


  58 0014 1A68     		ldr	r2, [r3]
  59 0016 019B     		ldr	r3, [sp, #4]
  60 0018 5A40     		eors	r2, r3, r2
  61 001a 02D1     		bne	.L5
  62 001c 03B0     		add	sp, sp, #12
  63              		.cfi_remember_state
  64              		.cfi_def_cfa_offset 4
  65              		@ sp needed
  66 001e 5DF804FB 		ldr	pc, [sp], #4
  67              	.L5:
  68              		.cfi_restore_state
  69 0022 FFF7FEFF 		bl	__stack_chk_fail
  70              	.LVL0:
  71              	.L7:
  72 0026 00BF     		.align	2
  73              	.L6:
  74 0028 00000000 		.word	.LANCHOR0
  75 002c 00000000 		.word	.LC0
  76              		.cfi_endproc
  77              	.LFE256:
  78              		.size	button_get_state, .-button_get_state
  79              		.section	.rodata.button_set_state.cst4,"aM",%progbits,4
  80              		.align	2
  81              	.LC1:
  82 0000 00000000 		.word	__stack_chk_guard
  83              		.section	.text.button_set_state,"ax",%progbits
  84              		.align	1
  85              		.p2align 4,,15
  86              		.global	button_set_state
  87              		.syntax unified
  88              		.thumb
  89              		.thumb_func
  90              		.fpu fpv4-sp-d16
  91              		.type	button_set_state, %function
  92              	button_set_state:
  93              	.LVL1:
  94              	.LFB257:
  95              		.loc 1 13 38 is_stmt 1 view -0
  96              		.cfi_startproc
  97              		@ args = 0, pretend = 0, frame = 8
  98              		@ frame_needed = 0, uses_anonymous_args = 0
  99              		.loc 1 13 38 is_stmt 0 view .LVU10
 100 0000 00B5     		push	{lr}
 101              		.cfi_def_cfa_offset 4
 102              		.cfi_offset 14, -4
 103              		.loc 1 14 15 view .LVU11
 104 0002 094B     		ldr	r3, .L12
 105              		.loc 1 13 38 view .LVU12
 106 0004 094A     		ldr	r2, .L12+4
 107 0006 83B0     		sub	sp, sp, #12
 108              		.cfi_def_cfa_offset 16
 109              		.loc 1 13 38 view .LVU13
 110 0008 1268     		ldr	r2, [r2]
 111 000a 0192     		str	r2, [sp, #4]
 112 000c 4FF00002 		mov	r2,#0
 113              		.loc 1 14 2 is_stmt 1 view .LVU14
 114              		.loc 1 14 15 is_stmt 0 view .LVU15
ARM GAS  /tmp/ccjxIjGL.s 			page 3


 115 0010 1870     		strb	r0, [r3]
 116              		.loc 1 15 1 view .LVU16
 117 0012 064B     		ldr	r3, .L12+4
 118 0014 1A68     		ldr	r2, [r3]
 119 0016 019B     		ldr	r3, [sp, #4]
 120 0018 5A40     		eors	r2, r3, r2
 121 001a 02D1     		bne	.L11
 122 001c 03B0     		add	sp, sp, #12
 123              		.cfi_remember_state
 124              		.cfi_def_cfa_offset 4
 125              		@ sp needed
 126 001e 5DF804FB 		ldr	pc, [sp], #4
 127              	.L11:
 128              		.cfi_restore_state
 129 0022 FFF7FEFF 		bl	__stack_chk_fail
 130              	.LVL2:
 131              	.L13:
 132              		.loc 1 15 1 view .LVU17
 133 0026 00BF     		.align	2
 134              	.L12:
 135 0028 00000000 		.word	.LANCHOR0
 136 002c 00000000 		.word	.LC1
 137              		.cfi_endproc
 138              	.LFE257:
 139              		.size	button_set_state, .-button_set_state
 140              		.section	.rodata.button_is_pressed.cst4,"aM",%progbits,4
 141              		.align	2
 142              	.LC2:
 143 0000 00000000 		.word	__stack_chk_guard
 144              		.section	.text.button_is_pressed,"ax",%progbits
 145              		.align	1
 146              		.p2align 4,,15
 147              		.global	button_is_pressed
 148              		.syntax unified
 149              		.thumb
 150              		.thumb_func
 151              		.fpu fpv4-sp-d16
 152              		.type	button_is_pressed, %function
 153              	button_is_pressed:
 154              	.LFB258:
 155              		.loc 1 17 33 is_stmt 1 view -0
 156              		.cfi_startproc
 157              		@ args = 0, pretend = 0, frame = 8
 158              		@ frame_needed = 0, uses_anonymous_args = 0
 159 0000 00B5     		push	{lr}
 160              		.cfi_def_cfa_offset 4
 161              		.cfi_offset 14, -4
 162              		.loc 1 18 21 is_stmt 0 view .LVU19
 163 0002 0C4B     		ldr	r3, .L18
 164              		.loc 1 17 33 view .LVU20
 165 0004 0C4A     		ldr	r2, .L18+4
 166              		.loc 1 18 21 view .LVU21
 167 0006 1878     		ldrb	r0, [r3]	@ zero_extendqisi2
 168              		.loc 1 19 1 view .LVU22
 169 0008 0B4B     		ldr	r3, .L18+4
 170              		.loc 1 17 33 view .LVU23
 171 000a 83B0     		sub	sp, sp, #12
ARM GAS  /tmp/ccjxIjGL.s 			page 4


 172              		.cfi_def_cfa_offset 16
 173              		.loc 1 17 33 view .LVU24
 174 000c 1268     		ldr	r2, [r2]
 175 000e 0192     		str	r2, [sp, #4]
 176 0010 4FF00002 		mov	r2,#0
 177              		.loc 1 18 2 is_stmt 1 view .LVU25
 178              		.loc 1 18 21 is_stmt 0 view .LVU26
 179 0014 A0F10100 		sub	r0, #1
 180 0018 B0FA80F0 		clz	r0, r0
 181              		.loc 1 19 1 view .LVU27
 182 001c 1A68     		ldr	r2, [r3]
 183 001e 019B     		ldr	r3, [sp, #4]
 184 0020 5A40     		eors	r2, r3, r2
 185              		.loc 1 18 21 view .LVU28
 186 0022 4FEA5010 		lsr	r0, r0, #5
 187              		.loc 1 19 1 view .LVU29
 188 0026 02D1     		bne	.L17
 189 0028 03B0     		add	sp, sp, #12
 190              		.cfi_remember_state
 191              		.cfi_def_cfa_offset 4
 192              		@ sp needed
 193 002a 5DF804FB 		ldr	pc, [sp], #4
 194              	.L17:
 195              		.cfi_restore_state
 196 002e FFF7FEFF 		bl	__stack_chk_fail
 197              	.LVL3:
 198              	.L19:
 199 0032 00BF     		.align	2
 200              	.L18:
 201 0034 00000000 		.word	.LANCHOR0
 202 0038 00000000 		.word	.LC2
 203              		.cfi_endproc
 204              	.LFE258:
 205              		.size	button_is_pressed, .-button_is_pressed
 206              		.section	.bss.button_state,"aw",%nobits
 207              		.set	.LANCHOR0,. + 0
 208              		.type	button_state, %object
 209              		.size	button_state, 1
 210              	button_state:
 211 0000 00       		.space	1
 212              		.text
 213              	.Letext0:
 214              		.file 2 "/usr/lib/gcc/arm-none-eabi/9.2.1/include/stddef.h"
 215              		.file 3 "/usr/lib/gcc/arm-none-eabi/9.2.1/include/stdint.h"
 216              		.file 4 ".//ChibiOS//os/rt/ports/ARMCMx/compilers/GCC/chtypes.h"
 217              		.file 5 ".//ChibiOS//os/rt/include/chsystypes.h"
 218              		.file 6 ".//ChibiOS//os/rt/include/chschd.h"
 219              		.file 7 ".//ChibiOS//os/ext/CMSIS/include/core_cm4.h"
 220              		.file 8 ".//ChibiOS//os/ext/CMSIS/ST/system_stm32f4xx.h"
 221              		.file 9 ".//ChibiOS//os/ext/CMSIS/ST/stm32f407xx.h"
 222              		.file 10 ".//ChibiOS//os/rt/ports/ARMCMx/chcore.h"
 223              		.file 11 ".//ChibiOS//os/rt/ports/ARMCMx/chcore_v7m.h"
 224              		.file 12 ".//ChibiOS//os/rt/include/chdebug.h"
 225              		.file 13 ".//ChibiOS//os/rt/include/chtm.h"
 226              		.file 14 ".//ChibiOS//os/rt/include/chstats.h"
 227              		.file 15 ".//ChibiOS//os/rt/include/chsem.h"
 228              		.file 16 ".//ChibiOS//os/rt/include/chmtx.h"
ARM GAS  /tmp/ccjxIjGL.s 			page 5


 229              		.file 17 ".//ChibiOS//os/rt/include/chregistry.h"
 230              		.file 18 ".//ChibiOS//os/rt/include/chevents.h"
 231              		.file 19 ".//ChibiOS//os/rt/include/chqueues.h"
 232              		.file 20 ".//ChibiOS//os/hal/ports/STM32/STM32F4xx/stm32_dma.h"
 233              		.file 21 ".//ChibiOS//os/hal/include/hal_ioblock.h"
 234              		.file 22 ".//ChibiOS//os/hal/ports/STM32/LLD/GPIOv2/pal_lld.h"
 235              		.file 23 ".//ChibiOS//os/hal/include/adc.h"
 236              		.file 24 ".//ChibiOS//os/hal/ports/STM32/STM32F4xx/adc_lld.h"
 237              		.file 25 ".//ChibiOS//os/hal/include/can.h"
 238              		.file 26 ".//ChibiOS//os/hal/ports/STM32/LLD/can_lld.h"
 239              		.file 27 ".//ChibiOS//os/hal/include/dac.h"
 240              		.file 28 ".//ChibiOS//os/hal/ports/STM32/LLD/DACv1/dac_lld.h"
 241              		.file 29 ".//ChibiOS//os/hal/include/ext.h"
 242              		.file 30 ".//ChibiOS//os/hal/ports/STM32/LLD/ext_lld.h"
 243              		.file 31 ".//ChibiOS//os/hal/include/gpt.h"
 244              		.file 32 ".//ChibiOS//os/hal/ports/STM32/LLD/TIMv1/gpt_lld.h"
 245              		.file 33 ".//ChibiOS//os/hal/ports/STM32/LLD/TIMv1/stm32_tim.h"
 246              		.file 34 ".//ChibiOS//os/hal/include/i2c.h"
 247              		.file 35 ".//ChibiOS//os/hal/ports/STM32/LLD/I2Cv1/i2c_lld.h"
 248              		.file 36 ".//ChibiOS//os/hal/include/i2s.h"
 249              		.file 37 ".//ChibiOS//os/hal/ports/STM32/LLD/SPIv1/i2s_lld.h"
 250              		.file 38 ".//ChibiOS//os/hal/include/pwm.h"
 251              		.file 39 ".//ChibiOS//os/hal/ports/STM32/LLD/TIMv1/pwm_lld.h"
 252              		.file 40 ".//ChibiOS//os/hal/include/serial.h"
 253              		.file 41 ".//ChibiOS//os/hal/ports/STM32/LLD/USARTv1/serial_lld.h"
 254              		.file 42 ".//ChibiOS//os/hal/include/sdc.h"
 255              		.file 43 ".//ChibiOS//os/hal/ports/STM32/LLD/sdc_lld.h"
 256              		.file 44 ".//ChibiOS//os/hal/include/spi.h"
 257              		.file 45 ".//ChibiOS//os/hal/ports/STM32/LLD/SPIv1/spi_lld.h"
 258              		.file 46 ".//ChibiOS//os/hal/include/usb.h"
 259              		.file 47 ".//ChibiOS//os/hal/ports/STM32/LLD/OTGv1/usb_lld.h"
 260              		.file 48 ".//ChibiOS//os/hal/ports/STM32/LLD/OTGv1/stm32_otg.h"