ARM GAS  /tmp/cc1Q7Bv1.s 			page 1


   1              		.cpu cortex-m4
   2              		.eabi_attribute 27, 1
   3              		.eabi_attribute 28, 1
   4              		.eabi_attribute 20, 1
   5              		.eabi_attribute 21, 1
   6              		.eabi_attribute 23, 3
   7              		.eabi_attribute 24, 1
   8              		.eabi_attribute 25, 1
   9              		.eabi_attribute 26, 1
  10              		.eabi_attribute 30, 2
  11              		.eabi_attribute 34, 1
  12              		.eabi_attribute 18, 4
  13              		.file	"can-buffer.c"
  14              		.text
  15              	.Ltext0:
  16              		.cfi_sections	.debug_frame
  17              		.section	.rodata.AsebaSendBuffer.cst4,"aM",%progbits,4
  18              		.align	2
  19              	.LC0:
  20 0000 00000000 		.word	__stack_chk_guard
  21              		.section	.text.AsebaSendBuffer,"ax",%progbits
  22              		.align	1
  23              		.p2align 4,,15
  24              		.global	AsebaSendBuffer
  25              		.arch armv7e-m
  26              		.syntax unified
  27              		.thumb
  28              		.thumb_func
  29              		.fpu fpv4-sp-d16
  30              		.type	AsebaSendBuffer, %function
  31              	AsebaSendBuffer:
  32              	.LVL0:
  33              	.LFB1:
  34              		.file 1 ".//aseba/transport/can/can-buffer.c"
  35              		.loc 1 26 1 view -0
  36              		.cfi_startproc
  37              		@ args = 0, pretend = 0, frame = 8
  38              		@ frame_needed = 0, uses_anonymous_args = 0
  39              		.loc 1 26 1 is_stmt 0 view .LVU1
  40 0000 30B5     		push	{r4, r5, lr}
  41              		.cfi_def_cfa_offset 12
  42              		.cfi_offset 4, -12
  43              		.cfi_offset 5, -8
  44              		.cfi_offset 14, -4
  45 0002 0D4B     		ldr	r3, .L8
  46 0004 83B0     		sub	sp, sp, #12
  47              		.cfi_def_cfa_offset 24
  48              		.loc 1 26 1 view .LVU2
  49 0006 0D46     		mov	r5, r1
  50 0008 1446     		mov	r4, r2
  51 000a 1B68     		ldr	r3, [r3]
  52 000c 0193     		str	r3, [sp, #4]
  53 000e 4FF00003 		mov	r3,#0
  54              		.loc 1 27 2 is_stmt 1 view .LVU3
  55              		.loc 1 27 18 view .LVU4
  56              		.loc 1 28 2 view .LVU5
  57              		.loc 1 28 8 is_stmt 0 view .LVU6
ARM GAS  /tmp/cc1Q7Bv1.s 			page 2


  58 0012 01E0     		b	.L2
  59              	.LVL1:
  60              	.L3:
  61              		.loc 1 29 3 is_stmt 1 view .LVU7
  62 0014 FFF7FEFF 		bl	AsebaIdle
  63              	.LVL2:
  64              	.L2:
  65              		.loc 1 28 8 view .LVU8
  66              		.loc 1 28 9 is_stmt 0 view .LVU9
  67 0018 2146     		mov	r1, r4
  68 001a 2846     		mov	r0, r5
  69 001c FFF7FEFF 		bl	AsebaCanSend
  70              	.LVL3:
  71              		.loc 1 28 8 view .LVU10
  72 0020 0028     		cmp	r0, #0
  73 0022 F7D0     		beq	.L3
  74              		.loc 1 30 1 view .LVU11
  75 0024 044B     		ldr	r3, .L8
  76 0026 1A68     		ldr	r2, [r3]
  77 0028 019B     		ldr	r3, [sp, #4]
  78 002a 5A40     		eors	r2, r3, r2
  79 002c 01D1     		bne	.L7
  80 002e 03B0     		add	sp, sp, #12
  81              		.cfi_remember_state
  82              		.cfi_def_cfa_offset 12
  83              		@ sp needed
  84 0030 30BD     		pop	{r4, r5, pc}
  85              	.LVL4:
  86              	.L7:
  87              		.cfi_restore_state
  88              		.loc 1 30 1 view .LVU12
  89 0032 FFF7FEFF 		bl	__stack_chk_fail
  90              	.LVL5:
  91              	.L9:
  92 0036 00BF     		.align	2
  93              	.L8:
  94 0038 00000000 		.word	.LC0
  95              		.cfi_endproc
  96              	.LFE1:
  97              		.size	AsebaSendBuffer, .-AsebaSendBuffer
  98              		.section	.rodata.AsebaGetBuffer.cst4,"aM",%progbits,4
  99              		.align	2
 100              	.LC1:
 101 0000 00000000 		.word	__stack_chk_guard
 102              		.section	.text.AsebaGetBuffer,"ax",%progbits
 103              		.align	1
 104              		.p2align 4,,15
 105              		.global	AsebaGetBuffer
 106              		.syntax unified
 107              		.thumb
 108              		.thumb_func
 109              		.fpu fpv4-sp-d16
 110              		.type	AsebaGetBuffer, %function
 111              	AsebaGetBuffer:
 112              	.LVL6:
 113              	.LFB2:
 114              		.loc 1 33 1 is_stmt 1 view -0
ARM GAS  /tmp/cc1Q7Bv1.s 			page 3


 115              		.cfi_startproc
 116              		@ args = 0, pretend = 0, frame = 8
 117              		@ frame_needed = 0, uses_anonymous_args = 0
 118              		.loc 1 33 1 is_stmt 0 view .LVU14
 119 0000 00B5     		push	{lr}
 120              		.cfi_def_cfa_offset 4
 121              		.cfi_offset 14, -4
 122 0002 0846     		mov	r0, r1
 123              	.LVL7:
 124              		.loc 1 33 1 view .LVU15
 125 0004 1146     		mov	r1, r2
 126              	.LVL8:
 127              		.loc 1 33 1 view .LVU16
 128 0006 1A46     		mov	r2, r3
 129              	.LVL9:
 130              		.loc 1 33 1 view .LVU17
 131 0008 094B     		ldr	r3, .L15
 132              	.LVL10:
 133              		.loc 1 33 1 view .LVU18
 134 000a 83B0     		sub	sp, sp, #12
 135              		.cfi_def_cfa_offset 16
 136              		.loc 1 33 1 view .LVU19
 137 000c 1B68     		ldr	r3, [r3]
 138 000e 0193     		str	r3, [sp, #4]
 139 0010 4FF00003 		mov	r3,#0
 140              		.loc 1 34 2 is_stmt 1 view .LVU20
 141              		.loc 1 34 18 view .LVU21
 142              		.loc 1 35 2 view .LVU22
 143              		.loc 1 35 9 is_stmt 0 view .LVU23
 144 0014 064B     		ldr	r3, .L15
 145 0016 D3F800C0 		ldr	ip, [r3]
 146 001a 019B     		ldr	r3, [sp, #4]
 147 001c 93EA0C0C 		eors	ip, r3, ip
 148 0020 04D1     		bne	.L14
 149              		.loc 1 36 1 view .LVU24
 150 0022 03B0     		add	sp, sp, #12
 151              		.cfi_remember_state
 152              		.cfi_def_cfa_offset 4
 153              		@ sp needed
 154 0024 5DF804EB 		ldr	lr, [sp], #4
 155              		.cfi_restore 14
 156              		.cfi_def_cfa_offset 0
 157              		.loc 1 35 9 view .LVU25
 158 0028 FFF7FEBF 		b	AsebaCanRecv
 159              	.LVL11:
 160              	.L14:
 161              		.cfi_restore_state
 162              		.loc 1 35 9 view .LVU26
 163 002c FFF7FEFF 		bl	__stack_chk_fail
 164              	.LVL12:
 165              	.L16:
 166              		.loc 1 35 9 view .LVU27
 167              		.align	2
 168              	.L15:
 169 0030 00000000 		.word	.LC1
 170              		.cfi_endproc
 171              	.LFE2:
ARM GAS  /tmp/cc1Q7Bv1.s 			page 4


 172              		.size	AsebaGetBuffer, .-AsebaGetBuffer
 173              		.text
 174              	.Letext0:
 175              		.file 2 "/usr/lib/gcc/arm-none-eabi/9.2.1/include/stddef.h"
 176              		.file 3 "/usr/include/newlib/sys/_types.h"
 177              		.file 4 "/usr/include/newlib/sys/reent.h"
 178              		.file 5 "/usr/include/newlib/sys/lock.h"
 179              		.file 6 "/usr/include/newlib/stdlib.h"
 180              		.file 7 ".//aseba/transport/can/../buffer/../../common/types.h"
 181              		.file 8 ".//aseba/transport/can/../buffer/../../vm/vm.h"
 182              		.file 9 ".//aseba/transport/can/../buffer/../../vm/natives.h"
 183              		.file 10 ".//aseba/transport/can/can-net.h"
 184              		.section	.debug_info,"",%progbits
 185              	.Ldebug_info0:
 186 0000 DC0C0000 		.4byte	0xcdc
 187 0004 0400     		.2byte	0x4
 188 0006 00000000 		.4byte	.Ldebug_abbrev0
 189 000a 04       		.byte	0x4
 190 000b 01       		.uleb128 0x1
 191 000c 5F050000 		.4byte	.LASF168
 192 0010 0C       		.byte	0xc
 193 0011 CD060000 		.4byte	.LASF169
 194 0015 B9030000 		.4byte	.LASF170
 195 0019 00000000 		.4byte	.Ldebug_ranges0+0
 196 001d 00000000 		.4byte	0
 197 0021 00000000 		.4byte	.Ldebug_line0
 198 0025 02       		.uleb128 0x2
 199 0026 04       		.byte	0x4
 200 0027 07       		.byte	0x7
 201 0028 58030000 		.4byte	.LASF0
 202 002c 03       		.uleb128 0x3
 203 002d 04       		.byte	0x4
 204 002e 05       		.byte	0x5
 205 002f 696E7400 		.ascii	"int\000"
 206 0033 02       		.uleb128 0x2
 207 0034 08       		.byte	0x8
 208 0035 05       		.byte	0x5
 209 0036 8A010000 		.4byte	.LASF1
 210 003a 02       		.uleb128 0x2
 211 003b 08       		.byte	0x8
 212 003c 04       		.byte	0x4
 213 003d 31050000 		.4byte	.LASF2
 214 0041 04       		.uleb128 0x4
 215 0042 89040000 		.4byte	.LASF10
 216 0046 02       		.byte	0x2
 217 0047 5E01     		.2byte	0x15e
 218 0049 17       		.byte	0x17
 219 004a 25000000 		.4byte	0x25
 220 004e 02       		.uleb128 0x2
 221 004f 01       		.byte	0x1
 222 0050 06       		.byte	0x6
 223 0051 98010000 		.4byte	.LASF3
 224 0055 02       		.uleb128 0x2
 225 0056 01       		.byte	0x1
 226 0057 08       		.byte	0x8
 227 0058 14070000 		.4byte	.LASF4
 228 005c 02       		.uleb128 0x2
ARM GAS  /tmp/cc1Q7Bv1.s 			page 5


 229 005d 02       		.byte	0x2
 230 005e 05       		.byte	0x5
 231 005f 30070000 		.4byte	.LASF5
 232 0063 02       		.uleb128 0x2
 233 0064 02       		.byte	0x2
 234 0065 07       		.byte	0x7
 235 0066 32040000 		.4byte	.LASF6
 236 006a 02       		.uleb128 0x2
 237 006b 04       		.byte	0x4
 238 006c 05       		.byte	0x5
 239 006d 09020000 		.4byte	.LASF7
 240 0071 02       		.uleb128 0x2
 241 0072 04       		.byte	0x4
 242 0073 07       		.byte	0x7
 243 0074 7C030000 		.4byte	.LASF8
 244 0078 02       		.uleb128 0x2
 245 0079 08       		.byte	0x8
 246 007a 07       		.byte	0x7
 247 007b C7000000 		.4byte	.LASF9
 248 007f 05       		.uleb128 0x5
 249 0080 BC060000 		.4byte	.LASF11
 250 0084 03       		.byte	0x3
 251 0085 2E       		.byte	0x2e
 252 0086 0E       		.byte	0xe
 253 0087 6A000000 		.4byte	0x6a
 254 008b 05       		.uleb128 0x5
 255 008c 4A080000 		.4byte	.LASF12
 256 0090 03       		.byte	0x3
 257 0091 74       		.byte	0x74
 258 0092 0E       		.byte	0xe
 259 0093 6A000000 		.4byte	0x6a
 260 0097 06       		.uleb128 0x6
 261 0098 04       		.byte	0x4
 262 0099 03       		.byte	0x3
 263 009a A5       		.byte	0xa5
 264 009b 03       		.byte	0x3
 265 009c B9000000 		.4byte	0xb9
 266 00a0 07       		.uleb128 0x7
 267 00a1 79040000 		.4byte	.LASF13
 268 00a5 03       		.byte	0x3
 269 00a6 A7       		.byte	0xa7
 270 00a7 0C       		.byte	0xc
 271 00a8 41000000 		.4byte	0x41
 272 00ac 07       		.uleb128 0x7
 273 00ad 65030000 		.4byte	.LASF14
 274 00b1 03       		.byte	0x3
 275 00b2 A8       		.byte	0xa8
 276 00b3 13       		.byte	0x13
 277 00b4 B9000000 		.4byte	0xb9
 278 00b8 00       		.byte	0
 279 00b9 08       		.uleb128 0x8
 280 00ba 55000000 		.4byte	0x55
 281 00be C9000000 		.4byte	0xc9
 282 00c2 09       		.uleb128 0x9
 283 00c3 25000000 		.4byte	0x25
 284 00c7 03       		.byte	0x3
 285 00c8 00       		.byte	0
ARM GAS  /tmp/cc1Q7Bv1.s 			page 6


 286 00c9 0A       		.uleb128 0xa
 287 00ca 08       		.byte	0x8
 288 00cb 03       		.byte	0x3
 289 00cc A2       		.byte	0xa2
 290 00cd 09       		.byte	0x9
 291 00ce ED000000 		.4byte	0xed
 292 00d2 0B       		.uleb128 0xb
 293 00d3 06080000 		.4byte	.LASF15
 294 00d7 03       		.byte	0x3
 295 00d8 A4       		.byte	0xa4
 296 00d9 07       		.byte	0x7
 297 00da 2C000000 		.4byte	0x2c
 298 00de 00       		.byte	0
 299 00df 0B       		.uleb128 0xb
 300 00e0 0E080000 		.4byte	.LASF16
 301 00e4 03       		.byte	0x3
 302 00e5 A9       		.byte	0xa9
 303 00e6 05       		.byte	0x5
 304 00e7 97000000 		.4byte	0x97
 305 00eb 04       		.byte	0x4
 306 00ec 00       		.byte	0
 307 00ed 05       		.uleb128 0x5
 308 00ee 58070000 		.4byte	.LASF17
 309 00f2 03       		.byte	0x3
 310 00f3 AA       		.byte	0xaa
 311 00f4 03       		.byte	0x3
 312 00f5 C9000000 		.4byte	0xc9
 313 00f9 0C       		.uleb128 0xc
 314 00fa 04       		.byte	0x4
 315 00fb 05       		.uleb128 0x5
 316 00fc E4080000 		.4byte	.LASF18
 317 0100 04       		.byte	0x4
 318 0101 16       		.byte	0x16
 319 0102 19       		.byte	0x19
 320 0103 71000000 		.4byte	0x71
 321 0107 05       		.uleb128 0x5
 322 0108 F1060000 		.4byte	.LASF19
 323 010c 05       		.byte	0x5
 324 010d 0C       		.byte	0xc
 325 010e 0D       		.byte	0xd
 326 010f 2C000000 		.4byte	0x2c
 327 0113 05       		.uleb128 0x5
 328 0114 FF020000 		.4byte	.LASF20
 329 0118 04       		.byte	0x4
 330 0119 23       		.byte	0x23
 331 011a 1B       		.byte	0x1b
 332 011b 07010000 		.4byte	0x107
 333 011f 0D       		.uleb128 0xd
 334 0120 10030000 		.4byte	.LASF25
 335 0124 18       		.byte	0x18
 336 0125 04       		.byte	0x4
 337 0126 34       		.byte	0x34
 338 0127 08       		.byte	0x8
 339 0128 79010000 		.4byte	0x179
 340 012c 0B       		.uleb128 0xb
 341 012d 95080000 		.4byte	.LASF21
 342 0131 04       		.byte	0x4
ARM GAS  /tmp/cc1Q7Bv1.s 			page 7


 343 0132 36       		.byte	0x36
 344 0133 13       		.byte	0x13
 345 0134 79010000 		.4byte	0x179
 346 0138 00       		.byte	0
 347 0139 0E       		.uleb128 0xe
 348 013a 5F6B00   		.ascii	"_k\000"
 349 013d 04       		.byte	0x4
 350 013e 37       		.byte	0x37
 351 013f 07       		.byte	0x7
 352 0140 2C000000 		.4byte	0x2c
 353 0144 04       		.byte	0x4
 354 0145 0B       		.uleb128 0xb
 355 0146 F1070000 		.4byte	.LASF22
 356 014a 04       		.byte	0x4
 357 014b 37       		.byte	0x37
 358 014c 0B       		.byte	0xb
 359 014d 2C000000 		.4byte	0x2c
 360 0151 08       		.byte	0x8
 361 0152 0B       		.uleb128 0xb
 362 0153 DB020000 		.4byte	.LASF23
 363 0157 04       		.byte	0x4
 364 0158 37       		.byte	0x37
 365 0159 14       		.byte	0x14
 366 015a 2C000000 		.4byte	0x2c
 367 015e 0C       		.byte	0xc
 368 015f 0B       		.uleb128 0xb
 369 0160 4C090000 		.4byte	.LASF24
 370 0164 04       		.byte	0x4
 371 0165 37       		.byte	0x37
 372 0166 1B       		.byte	0x1b
 373 0167 2C000000 		.4byte	0x2c
 374 016b 10       		.byte	0x10
 375 016c 0E       		.uleb128 0xe
 376 016d 5F7800   		.ascii	"_x\000"
 377 0170 04       		.byte	0x4
 378 0171 38       		.byte	0x38
 379 0172 0B       		.byte	0xb
 380 0173 7F010000 		.4byte	0x17f
 381 0177 14       		.byte	0x14
 382 0178 00       		.byte	0
 383 0179 0F       		.uleb128 0xf
 384 017a 04       		.byte	0x4
 385 017b 1F010000 		.4byte	0x11f
 386 017f 08       		.uleb128 0x8
 387 0180 FB000000 		.4byte	0xfb
 388 0184 8F010000 		.4byte	0x18f
 389 0188 09       		.uleb128 0x9
 390 0189 25000000 		.4byte	0x25
 391 018d 00       		.byte	0
 392 018e 00       		.byte	0
 393 018f 0D       		.uleb128 0xd
 394 0190 37030000 		.4byte	.LASF26
 395 0194 24       		.byte	0x24
 396 0195 04       		.byte	0x4
 397 0196 3C       		.byte	0x3c
 398 0197 08       		.byte	0x8
 399 0198 12020000 		.4byte	0x212
ARM GAS  /tmp/cc1Q7Bv1.s 			page 8


 400 019c 0B       		.uleb128 0xb
 401 019d 5D010000 		.4byte	.LASF27
 402 01a1 04       		.byte	0x4
 403 01a2 3E       		.byte	0x3e
 404 01a3 09       		.byte	0x9
 405 01a4 2C000000 		.4byte	0x2c
 406 01a8 00       		.byte	0
 407 01a9 0B       		.uleb128 0xb
 408 01aa 7C080000 		.4byte	.LASF28
 409 01ae 04       		.byte	0x4
 410 01af 3F       		.byte	0x3f
 411 01b0 09       		.byte	0x9
 412 01b1 2C000000 		.4byte	0x2c
 413 01b5 04       		.byte	0x4
 414 01b6 0B       		.uleb128 0xb
 415 01b7 BD010000 		.4byte	.LASF29
 416 01bb 04       		.byte	0x4
 417 01bc 40       		.byte	0x40
 418 01bd 09       		.byte	0x9
 419 01be 2C000000 		.4byte	0x2c
 420 01c2 08       		.byte	0x8
 421 01c3 0B       		.uleb128 0xb
 422 01c4 430A0000 		.4byte	.LASF30
 423 01c8 04       		.byte	0x4
 424 01c9 41       		.byte	0x41
 425 01ca 09       		.byte	0x9
 426 01cb 2C000000 		.4byte	0x2c
 427 01cf 0C       		.byte	0xc
 428 01d0 0B       		.uleb128 0xb
 429 01d1 44050000 		.4byte	.LASF31
 430 01d5 04       		.byte	0x4
 431 01d6 42       		.byte	0x42
 432 01d7 09       		.byte	0x9
 433 01d8 2C000000 		.4byte	0x2c
 434 01dc 10       		.byte	0x10
 435 01dd 0B       		.uleb128 0xb
 436 01de 13050000 		.4byte	.LASF32
 437 01e2 04       		.byte	0x4
 438 01e3 43       		.byte	0x43
 439 01e4 09       		.byte	0x9
 440 01e5 2C000000 		.4byte	0x2c
 441 01e9 14       		.byte	0x14
 442 01ea 0B       		.uleb128 0xb
 443 01eb 51090000 		.4byte	.LASF33
 444 01ef 04       		.byte	0x4
 445 01f0 44       		.byte	0x44
 446 01f1 09       		.byte	0x9
 447 01f2 2C000000 		.4byte	0x2c
 448 01f6 18       		.byte	0x18
 449 01f7 0B       		.uleb128 0xb
 450 01f8 3A070000 		.4byte	.LASF34
 451 01fc 04       		.byte	0x4
 452 01fd 45       		.byte	0x45
 453 01fe 09       		.byte	0x9
 454 01ff 2C000000 		.4byte	0x2c
 455 0203 1C       		.byte	0x1c
 456 0204 0B       		.uleb128 0xb
ARM GAS  /tmp/cc1Q7Bv1.s 			page 9


 457 0205 FD090000 		.4byte	.LASF35
 458 0209 04       		.byte	0x4
 459 020a 46       		.byte	0x46
 460 020b 09       		.byte	0x9
 461 020c 2C000000 		.4byte	0x2c
 462 0210 20       		.byte	0x20
 463 0211 00       		.byte	0
 464 0212 10       		.uleb128 0x10
 465 0213 CC010000 		.4byte	.LASF36
 466 0217 0801     		.2byte	0x108
 467 0219 04       		.byte	0x4
 468 021a 4F       		.byte	0x4f
 469 021b 08       		.byte	0x8
 470 021c 57020000 		.4byte	0x257
 471 0220 0B       		.uleb128 0xb
 472 0221 A4020000 		.4byte	.LASF37
 473 0225 04       		.byte	0x4
 474 0226 50       		.byte	0x50
 475 0227 0A       		.byte	0xa
 476 0228 57020000 		.4byte	0x257
 477 022c 00       		.byte	0
 478 022d 0B       		.uleb128 0xb
 479 022e 00000000 		.4byte	.LASF38
 480 0232 04       		.byte	0x4
 481 0233 51       		.byte	0x51
 482 0234 09       		.byte	0x9
 483 0235 57020000 		.4byte	0x257
 484 0239 80       		.byte	0x80
 485 023a 11       		.uleb128 0x11
 486 023b A8080000 		.4byte	.LASF39
 487 023f 04       		.byte	0x4
 488 0240 53       		.byte	0x53
 489 0241 0A       		.byte	0xa
 490 0242 FB000000 		.4byte	0xfb
 491 0246 0001     		.2byte	0x100
 492 0248 11       		.uleb128 0x11
 493 0249 19020000 		.4byte	.LASF40
 494 024d 04       		.byte	0x4
 495 024e 56       		.byte	0x56
 496 024f 0A       		.byte	0xa
 497 0250 FB000000 		.4byte	0xfb
 498 0254 0401     		.2byte	0x104
 499 0256 00       		.byte	0
 500 0257 08       		.uleb128 0x8
 501 0258 F9000000 		.4byte	0xf9
 502 025c 67020000 		.4byte	0x267
 503 0260 09       		.uleb128 0x9
 504 0261 25000000 		.4byte	0x25
 505 0265 1F       		.byte	0x1f
 506 0266 00       		.byte	0
 507 0267 10       		.uleb128 0x10
 508 0268 4D050000 		.4byte	.LASF41
 509 026c 9001     		.2byte	0x190
 510 026e 04       		.byte	0x4
 511 026f 62       		.byte	0x62
 512 0270 08       		.byte	0x8
 513 0271 AA020000 		.4byte	0x2aa
ARM GAS  /tmp/cc1Q7Bv1.s 			page 10


 514 0275 0B       		.uleb128 0xb
 515 0276 95080000 		.4byte	.LASF21
 516 027a 04       		.byte	0x4
 517 027b 63       		.byte	0x63
 518 027c 12       		.byte	0x12
 519 027d AA020000 		.4byte	0x2aa
 520 0281 00       		.byte	0
 521 0282 0B       		.uleb128 0xb
 522 0283 B0070000 		.4byte	.LASF42
 523 0287 04       		.byte	0x4
 524 0288 64       		.byte	0x64
 525 0289 06       		.byte	0x6
 526 028a 2C000000 		.4byte	0x2c
 527 028e 04       		.byte	0x4
 528 028f 0B       		.uleb128 0xb
 529 0290 D6020000 		.4byte	.LASF43
 530 0294 04       		.byte	0x4
 531 0295 66       		.byte	0x66
 532 0296 09       		.byte	0x9
 533 0297 B0020000 		.4byte	0x2b0
 534 029b 08       		.byte	0x8
 535 029c 0B       		.uleb128 0xb
 536 029d CC010000 		.4byte	.LASF36
 537 02a1 04       		.byte	0x4
 538 02a2 67       		.byte	0x67
 539 02a3 1E       		.byte	0x1e
 540 02a4 12020000 		.4byte	0x212
 541 02a8 88       		.byte	0x88
 542 02a9 00       		.byte	0
 543 02aa 0F       		.uleb128 0xf
 544 02ab 04       		.byte	0x4
 545 02ac 67020000 		.4byte	0x267
 546 02b0 08       		.uleb128 0x8
 547 02b1 C0020000 		.4byte	0x2c0
 548 02b5 C0020000 		.4byte	0x2c0
 549 02b9 09       		.uleb128 0x9
 550 02ba 25000000 		.4byte	0x25
 551 02be 1F       		.byte	0x1f
 552 02bf 00       		.byte	0
 553 02c0 0F       		.uleb128 0xf
 554 02c1 04       		.byte	0x4
 555 02c2 C6020000 		.4byte	0x2c6
 556 02c6 12       		.uleb128 0x12
 557 02c7 0D       		.uleb128 0xd
 558 02c8 44070000 		.4byte	.LASF44
 559 02cc 08       		.byte	0x8
 560 02cd 04       		.byte	0x4
 561 02ce 7A       		.byte	0x7a
 562 02cf 08       		.byte	0x8
 563 02d0 EF020000 		.4byte	0x2ef
 564 02d4 0B       		.uleb128 0xb
 565 02d5 B7010000 		.4byte	.LASF45
 566 02d9 04       		.byte	0x4
 567 02da 7B       		.byte	0x7b
 568 02db 11       		.byte	0x11
 569 02dc EF020000 		.4byte	0x2ef
 570 02e0 00       		.byte	0
ARM GAS  /tmp/cc1Q7Bv1.s 			page 11


 571 02e1 0B       		.uleb128 0xb
 572 02e2 20000000 		.4byte	.LASF46
 573 02e6 04       		.byte	0x4
 574 02e7 7C       		.byte	0x7c
 575 02e8 06       		.byte	0x6
 576 02e9 2C000000 		.4byte	0x2c
 577 02ed 04       		.byte	0x4
 578 02ee 00       		.byte	0
 579 02ef 0F       		.uleb128 0xf
 580 02f0 04       		.byte	0x4
 581 02f1 55000000 		.4byte	0x55
 582 02f5 0D       		.uleb128 0xd
 583 02f6 63070000 		.4byte	.LASF47
 584 02fa 68       		.byte	0x68
 585 02fb 04       		.byte	0x4
 586 02fc BA       		.byte	0xba
 587 02fd 08       		.byte	0x8
 588 02fe 38040000 		.4byte	0x438
 589 0302 0E       		.uleb128 0xe
 590 0303 5F7000   		.ascii	"_p\000"
 591 0306 04       		.byte	0x4
 592 0307 BB       		.byte	0xbb
 593 0308 12       		.byte	0x12
 594 0309 EF020000 		.4byte	0x2ef
 595 030d 00       		.byte	0
 596 030e 0E       		.uleb128 0xe
 597 030f 5F7200   		.ascii	"_r\000"
 598 0312 04       		.byte	0x4
 599 0313 BC       		.byte	0xbc
 600 0314 07       		.byte	0x7
 601 0315 2C000000 		.4byte	0x2c
 602 0319 04       		.byte	0x4
 603 031a 0E       		.uleb128 0xe
 604 031b 5F7700   		.ascii	"_w\000"
 605 031e 04       		.byte	0x4
 606 031f BD       		.byte	0xbd
 607 0320 07       		.byte	0x7
 608 0321 2C000000 		.4byte	0x2c
 609 0325 08       		.byte	0x8
 610 0326 0B       		.uleb128 0xb
 611 0327 12020000 		.4byte	.LASF48
 612 032b 04       		.byte	0x4
 613 032c BE       		.byte	0xbe
 614 032d 09       		.byte	0x9
 615 032e 5C000000 		.4byte	0x5c
 616 0332 0C       		.byte	0xc
 617 0333 0B       		.uleb128 0xb
 618 0334 8E030000 		.4byte	.LASF49
 619 0338 04       		.byte	0x4
 620 0339 BF       		.byte	0xbf
 621 033a 09       		.byte	0x9
 622 033b 5C000000 		.4byte	0x5c
 623 033f 0E       		.byte	0xe
 624 0340 0E       		.uleb128 0xe
 625 0341 5F626600 		.ascii	"_bf\000"
 626 0345 04       		.byte	0x4
 627 0346 C0       		.byte	0xc0
ARM GAS  /tmp/cc1Q7Bv1.s 			page 12


 628 0347 11       		.byte	0x11
 629 0348 C7020000 		.4byte	0x2c7
 630 034c 10       		.byte	0x10
 631 034d 0B       		.uleb128 0xb
 632 034e DE000000 		.4byte	.LASF50
 633 0352 04       		.byte	0x4
 634 0353 C1       		.byte	0xc1
 635 0354 07       		.byte	0x7
 636 0355 2C000000 		.4byte	0x2c
 637 0359 18       		.byte	0x18
 638 035a 0B       		.uleb128 0xb
 639 035b DA010000 		.4byte	.LASF51
 640 035f 04       		.byte	0x4
 641 0360 C8       		.byte	0xc8
 642 0361 0A       		.byte	0xa
 643 0362 F9000000 		.4byte	0xf9
 644 0366 1C       		.byte	0x1c
 645 0367 0B       		.uleb128 0xb
 646 0368 27030000 		.4byte	.LASF52
 647 036c 04       		.byte	0x4
 648 036d CA       		.byte	0xca
 649 036e 1D       		.byte	0x1d
 650 036f BC050000 		.4byte	0x5bc
 651 0373 20       		.byte	0x20
 652 0374 0B       		.uleb128 0xb
 653 0375 0C050000 		.4byte	.LASF53
 654 0379 04       		.byte	0x4
 655 037a CC       		.byte	0xcc
 656 037b 1D       		.byte	0x1d
 657 037c E6050000 		.4byte	0x5e6
 658 0380 24       		.byte	0x24
 659 0381 0B       		.uleb128 0xb
 660 0382 38080000 		.4byte	.LASF54
 661 0386 04       		.byte	0x4
 662 0387 CF       		.byte	0xcf
 663 0388 0D       		.byte	0xd
 664 0389 0A060000 		.4byte	0x60a
 665 038d 28       		.byte	0x28
 666 038e 0B       		.uleb128 0xb
 667 038f 170A0000 		.4byte	.LASF55
 668 0393 04       		.byte	0x4
 669 0394 D0       		.byte	0xd0
 670 0395 09       		.byte	0x9
 671 0396 24060000 		.4byte	0x624
 672 039a 2C       		.byte	0x2c
 673 039b 0E       		.uleb128 0xe
 674 039c 5F756200 		.ascii	"_ub\000"
 675 03a0 04       		.byte	0x4
 676 03a1 D3       		.byte	0xd3
 677 03a2 11       		.byte	0x11
 678 03a3 C7020000 		.4byte	0x2c7
 679 03a7 30       		.byte	0x30
 680 03a8 0E       		.uleb128 0xe
 681 03a9 5F757000 		.ascii	"_up\000"
 682 03ad 04       		.byte	0x4
 683 03ae D4       		.byte	0xd4
 684 03af 12       		.byte	0x12
ARM GAS  /tmp/cc1Q7Bv1.s 			page 13


 685 03b0 EF020000 		.4byte	0x2ef
 686 03b4 38       		.byte	0x38
 687 03b5 0E       		.uleb128 0xe
 688 03b6 5F757200 		.ascii	"_ur\000"
 689 03ba 04       		.byte	0x4
 690 03bb D5       		.byte	0xd5
 691 03bc 07       		.byte	0x7
 692 03bd 2C000000 		.4byte	0x2c
 693 03c1 3C       		.byte	0x3c
 694 03c2 0B       		.uleb128 0xb
 695 03c3 B1010000 		.4byte	.LASF56
 696 03c7 04       		.byte	0x4
 697 03c8 D8       		.byte	0xd8
 698 03c9 11       		.byte	0x11
 699 03ca 2A060000 		.4byte	0x62a
 700 03ce 40       		.byte	0x40
 701 03cf 0B       		.uleb128 0xb
 702 03d0 B0090000 		.4byte	.LASF57
 703 03d4 04       		.byte	0x4
 704 03d5 D9       		.byte	0xd9
 705 03d6 11       		.byte	0x11
 706 03d7 3A060000 		.4byte	0x63a
 707 03db 43       		.byte	0x43
 708 03dc 0E       		.uleb128 0xe
 709 03dd 5F6C6200 		.ascii	"_lb\000"
 710 03e1 04       		.byte	0x4
 711 03e2 DC       		.byte	0xdc
 712 03e3 11       		.byte	0x11
 713 03e4 C7020000 		.4byte	0x2c7
 714 03e8 44       		.byte	0x44
 715 03e9 0B       		.uleb128 0xb
 716 03ea 28020000 		.4byte	.LASF58
 717 03ee 04       		.byte	0x4
 718 03ef DF       		.byte	0xdf
 719 03f0 07       		.byte	0x7
 720 03f1 2C000000 		.4byte	0x2c
 721 03f5 4C       		.byte	0x4c
 722 03f6 0B       		.uleb128 0xb
 723 03f7 7D020000 		.4byte	.LASF59
 724 03fb 04       		.byte	0x4
 725 03fc E0       		.byte	0xe0
 726 03fd 0A       		.byte	0xa
 727 03fe 7F000000 		.4byte	0x7f
 728 0402 50       		.byte	0x50
 729 0403 0B       		.uleb128 0xb
 730 0404 89000000 		.4byte	.LASF60
 731 0408 04       		.byte	0x4
 732 0409 E3       		.byte	0xe3
 733 040a 12       		.byte	0x12
 734 040b 56040000 		.4byte	0x456
 735 040f 54       		.byte	0x54
 736 0410 0B       		.uleb128 0xb
 737 0411 90040000 		.4byte	.LASF61
 738 0415 04       		.byte	0x4
 739 0416 E7       		.byte	0xe7
 740 0417 0C       		.byte	0xc
 741 0418 13010000 		.4byte	0x113
ARM GAS  /tmp/cc1Q7Bv1.s 			page 14


 742 041c 58       		.byte	0x58
 743 041d 0B       		.uleb128 0xb
 744 041e 6B070000 		.4byte	.LASF62
 745 0422 04       		.byte	0x4
 746 0423 E9       		.byte	0xe9
 747 0424 0E       		.byte	0xe
 748 0425 ED000000 		.4byte	0xed
 749 0429 5C       		.byte	0x5c
 750 042a 0B       		.uleb128 0xb
 751 042b D3040000 		.4byte	.LASF63
 752 042f 04       		.byte	0x4
 753 0430 EA       		.byte	0xea
 754 0431 09       		.byte	0x9
 755 0432 2C000000 		.4byte	0x2c
 756 0436 64       		.byte	0x64
 757 0437 00       		.byte	0
 758 0438 13       		.uleb128 0x13
 759 0439 2C000000 		.4byte	0x2c
 760 043d 56040000 		.4byte	0x456
 761 0441 14       		.uleb128 0x14
 762 0442 56040000 		.4byte	0x456
 763 0446 14       		.uleb128 0x14
 764 0447 F9000000 		.4byte	0xf9
 765 044b 14       		.uleb128 0x14
 766 044c AA050000 		.4byte	0x5aa
 767 0450 14       		.uleb128 0x14
 768 0451 2C000000 		.4byte	0x2c
 769 0455 00       		.byte	0
 770 0456 0F       		.uleb128 0xf
 771 0457 04       		.byte	0x4
 772 0458 61040000 		.4byte	0x461
 773 045c 15       		.uleb128 0x15
 774 045d 56040000 		.4byte	0x456
 775 0461 16       		.uleb128 0x16
 776 0462 F9070000 		.4byte	.LASF64
 777 0466 2804     		.2byte	0x428
 778 0468 04       		.byte	0x4
 779 0469 6502     		.2byte	0x265
 780 046b 08       		.byte	0x8
 781 046c AA050000 		.4byte	0x5aa
 782 0470 17       		.uleb128 0x17
 783 0471 52080000 		.4byte	.LASF65
 784 0475 04       		.byte	0x4
 785 0476 6702     		.2byte	0x267
 786 0478 07       		.byte	0x7
 787 0479 2C000000 		.4byte	0x2c
 788 047d 00       		.byte	0
 789 047e 17       		.uleb128 0x17
 790 047f 21020000 		.4byte	.LASF66
 791 0483 04       		.byte	0x4
 792 0484 6C02     		.2byte	0x26c
 793 0486 0B       		.byte	0xb
 794 0487 96060000 		.4byte	0x696
 795 048b 04       		.byte	0x4
 796 048c 17       		.uleb128 0x17
 797 048d 6C030000 		.4byte	.LASF67
 798 0491 04       		.byte	0x4
ARM GAS  /tmp/cc1Q7Bv1.s 			page 15


 799 0492 6C02     		.2byte	0x26c
 800 0494 14       		.byte	0x14
 801 0495 96060000 		.4byte	0x696
 802 0499 08       		.byte	0x8
 803 049a 17       		.uleb128 0x17
 804 049b 08030000 		.4byte	.LASF68
 805 049f 04       		.byte	0x4
 806 04a0 6C02     		.2byte	0x26c
 807 04a2 1E       		.byte	0x1e
 808 04a3 96060000 		.4byte	0x696
 809 04a7 0C       		.byte	0xc
 810 04a8 17       		.uleb128 0x17
 811 04a9 AB070000 		.4byte	.LASF69
 812 04ad 04       		.byte	0x4
 813 04ae 6E02     		.2byte	0x26e
 814 04b0 08       		.byte	0x8
 815 04b1 2C000000 		.4byte	0x2c
 816 04b5 10       		.byte	0x10
 817 04b6 17       		.uleb128 0x17
 818 04b7 5F000000 		.4byte	.LASF70
 819 04bb 04       		.byte	0x4
 820 04bc 6F02     		.2byte	0x26f
 821 04be 08       		.byte	0x8
 822 04bf 96080000 		.4byte	0x896
 823 04c3 14       		.byte	0x14
 824 04c4 17       		.uleb128 0x17
 825 04c5 C7070000 		.4byte	.LASF71
 826 04c9 04       		.byte	0x4
 827 04ca 7202     		.2byte	0x272
 828 04cc 07       		.byte	0x7
 829 04cd 2C000000 		.4byte	0x2c
 830 04d1 30       		.byte	0x30
 831 04d2 17       		.uleb128 0x17
 832 04d3 B5070000 		.4byte	.LASF72
 833 04d7 04       		.byte	0x4
 834 04d8 7302     		.2byte	0x273
 835 04da 16       		.byte	0x16
 836 04db AB080000 		.4byte	0x8ab
 837 04df 34       		.byte	0x34
 838 04e0 17       		.uleb128 0x17
 839 04e1 B1060000 		.4byte	.LASF73
 840 04e5 04       		.byte	0x4
 841 04e6 7502     		.2byte	0x275
 842 04e8 07       		.byte	0x7
 843 04e9 2C000000 		.4byte	0x2c
 844 04ed 38       		.byte	0x38
 845 04ee 17       		.uleb128 0x17
 846 04ef BD070000 		.4byte	.LASF74
 847 04f3 04       		.byte	0x4
 848 04f4 7702     		.2byte	0x277
 849 04f6 0A       		.byte	0xa
 850 04f7 BC080000 		.4byte	0x8bc
 851 04fb 3C       		.byte	0x3c
 852 04fc 17       		.uleb128 0x17
 853 04fd 71040000 		.4byte	.LASF75
 854 0501 04       		.byte	0x4
 855 0502 7A02     		.2byte	0x27a
ARM GAS  /tmp/cc1Q7Bv1.s 			page 16


 856 0504 13       		.byte	0x13
 857 0505 79010000 		.4byte	0x179
 858 0509 40       		.byte	0x40
 859 050a 17       		.uleb128 0x17
 860 050b 2D030000 		.4byte	.LASF76
 861 050f 04       		.byte	0x4
 862 0510 7B02     		.2byte	0x27b
 863 0512 07       		.byte	0x7
 864 0513 2C000000 		.4byte	0x2c
 865 0517 44       		.byte	0x44
 866 0518 17       		.uleb128 0x17
 867 0519 310A0000 		.4byte	.LASF77
 868 051d 04       		.byte	0x4
 869 051e 7C02     		.2byte	0x27c
 870 0520 13       		.byte	0x13
 871 0521 79010000 		.4byte	0x179
 872 0525 48       		.byte	0x48
 873 0526 17       		.uleb128 0x17
 874 0527 C3060000 		.4byte	.LASF78
 875 052b 04       		.byte	0x4
 876 052c 7D02     		.2byte	0x27d
 877 052e 14       		.byte	0x14
 878 052f C2080000 		.4byte	0x8c2
 879 0533 4C       		.byte	0x4c
 880 0534 17       		.uleb128 0x17
 881 0535 74030000 		.4byte	.LASF79
 882 0539 04       		.byte	0x4
 883 053a 8002     		.2byte	0x280
 884 053c 07       		.byte	0x7
 885 053d 2C000000 		.4byte	0x2c
 886 0541 50       		.byte	0x50
 887 0542 17       		.uleb128 0x17
 888 0543 75020000 		.4byte	.LASF80
 889 0547 04       		.byte	0x4
 890 0548 8102     		.2byte	0x281
 891 054a 09       		.byte	0x9
 892 054b AA050000 		.4byte	0x5aa
 893 054f 54       		.byte	0x54
 894 0550 17       		.uleb128 0x17
 895 0551 22070000 		.4byte	.LASF81
 896 0555 04       		.byte	0x4
 897 0556 A402     		.2byte	0x2a4
 898 0558 07       		.byte	0x7
 899 0559 71080000 		.4byte	0x871
 900 055d 58       		.byte	0x58
 901 055e 18       		.uleb128 0x18
 902 055f 4D050000 		.4byte	.LASF41
 903 0563 04       		.byte	0x4
 904 0564 A802     		.2byte	0x2a8
 905 0566 13       		.byte	0x13
 906 0567 AA020000 		.4byte	0x2aa
 907 056b 4801     		.2byte	0x148
 908 056d 18       		.uleb128 0x18
 909 056e 4F040000 		.4byte	.LASF82
 910 0572 04       		.byte	0x4
 911 0573 A902     		.2byte	0x2a9
 912 0575 12       		.byte	0x12
ARM GAS  /tmp/cc1Q7Bv1.s 			page 17


 913 0576 67020000 		.4byte	0x267
 914 057a 4C01     		.2byte	0x14c
 915 057c 18       		.uleb128 0x18
 916 057d 99090000 		.4byte	.LASF83
 917 0581 04       		.byte	0x4
 918 0582 AD02     		.2byte	0x2ad
 919 0584 0C       		.byte	0xc
 920 0585 D3080000 		.4byte	0x8d3
 921 0589 DC02     		.2byte	0x2dc
 922 058b 18       		.uleb128 0x18
 923 058c 01020000 		.4byte	.LASF84
 924 0590 04       		.byte	0x4
 925 0591 B202     		.2byte	0x2b2
 926 0593 10       		.byte	0x10
 927 0594 57060000 		.4byte	0x657
 928 0598 E002     		.2byte	0x2e0
 929 059a 18       		.uleb128 0x18
 930 059b C7010000 		.4byte	.LASF85
 931 059f 04       		.byte	0x4
 932 05a0 B402     		.2byte	0x2b4
 933 05a2 0A       		.byte	0xa
 934 05a3 DF080000 		.4byte	0x8df
 935 05a7 EC02     		.2byte	0x2ec
 936 05a9 00       		.byte	0
 937 05aa 0F       		.uleb128 0xf
 938 05ab 04       		.byte	0x4
 939 05ac B0050000 		.4byte	0x5b0
 940 05b0 02       		.uleb128 0x2
 941 05b1 01       		.byte	0x1
 942 05b2 08       		.byte	0x8
 943 05b3 59080000 		.4byte	.LASF86
 944 05b7 15       		.uleb128 0x15
 945 05b8 B0050000 		.4byte	0x5b0
 946 05bc 0F       		.uleb128 0xf
 947 05bd 04       		.byte	0x4
 948 05be 38040000 		.4byte	0x438
 949 05c2 13       		.uleb128 0x13
 950 05c3 2C000000 		.4byte	0x2c
 951 05c7 E0050000 		.4byte	0x5e0
 952 05cb 14       		.uleb128 0x14
 953 05cc 56040000 		.4byte	0x456
 954 05d0 14       		.uleb128 0x14
 955 05d1 F9000000 		.4byte	0xf9
 956 05d5 14       		.uleb128 0x14
 957 05d6 E0050000 		.4byte	0x5e0
 958 05da 14       		.uleb128 0x14
 959 05db 2C000000 		.4byte	0x2c
 960 05df 00       		.byte	0
 961 05e0 0F       		.uleb128 0xf
 962 05e1 04       		.byte	0x4
 963 05e2 B7050000 		.4byte	0x5b7
 964 05e6 0F       		.uleb128 0xf
 965 05e7 04       		.byte	0x4
 966 05e8 C2050000 		.4byte	0x5c2
 967 05ec 13       		.uleb128 0x13
 968 05ed 8B000000 		.4byte	0x8b
 969 05f1 0A060000 		.4byte	0x60a
ARM GAS  /tmp/cc1Q7Bv1.s 			page 18


 970 05f5 14       		.uleb128 0x14
 971 05f6 56040000 		.4byte	0x456
 972 05fa 14       		.uleb128 0x14
 973 05fb F9000000 		.4byte	0xf9
 974 05ff 14       		.uleb128 0x14
 975 0600 8B000000 		.4byte	0x8b
 976 0604 14       		.uleb128 0x14
 977 0605 2C000000 		.4byte	0x2c
 978 0609 00       		.byte	0
 979 060a 0F       		.uleb128 0xf
 980 060b 04       		.byte	0x4
 981 060c EC050000 		.4byte	0x5ec
 982 0610 13       		.uleb128 0x13
 983 0611 2C000000 		.4byte	0x2c
 984 0615 24060000 		.4byte	0x624
 985 0619 14       		.uleb128 0x14
 986 061a 56040000 		.4byte	0x456
 987 061e 14       		.uleb128 0x14
 988 061f F9000000 		.4byte	0xf9
 989 0623 00       		.byte	0
 990 0624 0F       		.uleb128 0xf
 991 0625 04       		.byte	0x4
 992 0626 10060000 		.4byte	0x610
 993 062a 08       		.uleb128 0x8
 994 062b 55000000 		.4byte	0x55
 995 062f 3A060000 		.4byte	0x63a
 996 0633 09       		.uleb128 0x9
 997 0634 25000000 		.4byte	0x25
 998 0638 02       		.byte	0x2
 999 0639 00       		.byte	0
 1000 063a 08       		.uleb128 0x8
 1001 063b 55000000 		.4byte	0x55
 1002 063f 4A060000 		.4byte	0x64a
 1003 0643 09       		.uleb128 0x9
 1004 0644 25000000 		.4byte	0x25
 1005 0648 00       		.byte	0
 1006 0649 00       		.byte	0
 1007 064a 04       		.uleb128 0x4
 1008 064b 51070000 		.4byte	.LASF87
 1009 064f 04       		.byte	0x4
 1010 0650 2401     		.2byte	0x124
 1011 0652 1A       		.byte	0x1a
 1012 0653 F5020000 		.4byte	0x2f5
 1013 0657 19       		.uleb128 0x19
 1014 0658 5B090000 		.4byte	.LASF88
 1015 065c 0C       		.byte	0xc
 1016 065d 04       		.byte	0x4
 1017 065e 2801     		.2byte	0x128
 1018 0660 08       		.byte	0x8
 1019 0661 90060000 		.4byte	0x690
 1020 0665 17       		.uleb128 0x17
 1021 0666 95080000 		.4byte	.LASF21
 1022 066a 04       		.byte	0x4
 1023 066b 2A01     		.2byte	0x12a
 1024 066d 11       		.byte	0x11
 1025 066e 90060000 		.4byte	0x690
 1026 0672 00       		.byte	0
ARM GAS  /tmp/cc1Q7Bv1.s 			page 19


 1027 0673 17       		.uleb128 0x17
 1028 0674 1F040000 		.4byte	.LASF89
 1029 0678 04       		.byte	0x4
 1030 0679 2B01     		.2byte	0x12b
 1031 067b 07       		.byte	0x7
 1032 067c 2C000000 		.4byte	0x2c
 1033 0680 04       		.byte	0x4
 1034 0681 17       		.uleb128 0x17
 1035 0682 4B070000 		.4byte	.LASF90
 1036 0686 04       		.byte	0x4
 1037 0687 2C01     		.2byte	0x12c
 1038 0689 0B       		.byte	0xb
 1039 068a 96060000 		.4byte	0x696
 1040 068e 08       		.byte	0x8
 1041 068f 00       		.byte	0
 1042 0690 0F       		.uleb128 0xf
 1043 0691 04       		.byte	0x4
 1044 0692 57060000 		.4byte	0x657
 1045 0696 0F       		.uleb128 0xf
 1046 0697 04       		.byte	0x4
 1047 0698 4A060000 		.4byte	0x64a
 1048 069c 19       		.uleb128 0x19
 1049 069d 57000000 		.4byte	.LASF91
 1050 06a1 0E       		.byte	0xe
 1051 06a2 04       		.byte	0x4
 1052 06a3 4401     		.2byte	0x144
 1053 06a5 08       		.byte	0x8
 1054 06a6 D5060000 		.4byte	0x6d5
 1055 06aa 17       		.uleb128 0x17
 1056 06ab 00080000 		.4byte	.LASF92
 1057 06af 04       		.byte	0x4
 1058 06b0 4501     		.2byte	0x145
 1059 06b2 12       		.byte	0x12
 1060 06b3 D5060000 		.4byte	0x6d5
 1061 06b7 00       		.byte	0
 1062 06b8 17       		.uleb128 0x17
 1063 06b9 8F080000 		.4byte	.LASF93
 1064 06bd 04       		.byte	0x4
 1065 06be 4601     		.2byte	0x146
 1066 06c0 12       		.byte	0x12
 1067 06c1 D5060000 		.4byte	0x6d5
 1068 06c5 06       		.byte	0x6
 1069 06c6 17       		.uleb128 0x17
 1070 06c7 DF080000 		.4byte	.LASF94
 1071 06cb 04       		.byte	0x4
 1072 06cc 4701     		.2byte	0x147
 1073 06ce 12       		.byte	0x12
 1074 06cf 63000000 		.4byte	0x63
 1075 06d3 0C       		.byte	0xc
 1076 06d4 00       		.byte	0
 1077 06d5 08       		.uleb128 0x8
 1078 06d6 63000000 		.4byte	0x63
 1079 06da E5060000 		.4byte	0x6e5
 1080 06de 09       		.uleb128 0x9
 1081 06df 25000000 		.4byte	0x25
 1082 06e3 02       		.byte	0x2
 1083 06e4 00       		.byte	0
ARM GAS  /tmp/cc1Q7Bv1.s 			page 20


 1084 06e5 1A       		.uleb128 0x1a
 1085 06e6 D0       		.byte	0xd0
 1086 06e7 04       		.byte	0x4
 1087 06e8 8502     		.2byte	0x285
 1088 06ea 07       		.byte	0x7
 1089 06eb FA070000 		.4byte	0x7fa
 1090 06ef 17       		.uleb128 0x17
 1091 06f0 30090000 		.4byte	.LASF95
 1092 06f4 04       		.byte	0x4
 1093 06f5 8702     		.2byte	0x287
 1094 06f7 18       		.byte	0x18
 1095 06f8 25000000 		.4byte	0x25
 1096 06fc 00       		.byte	0
 1097 06fd 17       		.uleb128 0x17
 1098 06fe 9B080000 		.4byte	.LASF96
 1099 0702 04       		.byte	0x4
 1100 0703 8802     		.2byte	0x288
 1101 0705 12       		.byte	0x12
 1102 0706 AA050000 		.4byte	0x5aa
 1103 070a 04       		.byte	0x4
 1104 070b 17       		.uleb128 0x17
 1105 070c 64040000 		.4byte	.LASF97
 1106 0710 04       		.byte	0x4
 1107 0711 8902     		.2byte	0x289
 1108 0713 10       		.byte	0x10
 1109 0714 FA070000 		.4byte	0x7fa
 1110 0718 08       		.byte	0x8
 1111 0719 17       		.uleb128 0x17
 1112 071a 080A0000 		.4byte	.LASF98
 1113 071e 04       		.byte	0x4
 1114 071f 8A02     		.2byte	0x28a
 1115 0721 17       		.byte	0x17
 1116 0722 8F010000 		.4byte	0x18f
 1117 0726 24       		.byte	0x24
 1118 0727 17       		.uleb128 0x17
 1119 0728 18030000 		.4byte	.LASF99
 1120 072c 04       		.byte	0x4
 1121 072d 8B02     		.2byte	0x28b
 1122 072f 0F       		.byte	0xf
 1123 0730 2C000000 		.4byte	0x2c
 1124 0734 48       		.byte	0x48
 1125 0735 17       		.uleb128 0x17
 1126 0736 74070000 		.4byte	.LASF100
 1127 073a 04       		.byte	0x4
 1128 073b 8C02     		.2byte	0x28c
 1129 073d 2C       		.byte	0x2c
 1130 073e 78000000 		.4byte	0x78
 1131 0742 50       		.byte	0x50
 1132 0743 17       		.uleb128 0x17
 1133 0744 1E0A0000 		.4byte	.LASF101
 1134 0748 04       		.byte	0x4
 1135 0749 8D02     		.2byte	0x28d
 1136 074b 1A       		.byte	0x1a
 1137 074c 9C060000 		.4byte	0x69c
 1138 0750 58       		.byte	0x58
 1139 0751 17       		.uleb128 0x17
 1140 0752 9E070000 		.4byte	.LASF102
ARM GAS  /tmp/cc1Q7Bv1.s 			page 21


 1141 0756 04       		.byte	0x4
 1142 0757 8E02     		.2byte	0x28e
 1143 0759 16       		.byte	0x16
 1144 075a ED000000 		.4byte	0xed
 1145 075e 68       		.byte	0x68
 1146 075f 17       		.uleb128 0x17
 1147 0760 230A0000 		.4byte	.LASF103
 1148 0764 04       		.byte	0x4
 1149 0765 8F02     		.2byte	0x28f
 1150 0767 16       		.byte	0x16
 1151 0768 ED000000 		.4byte	0xed
 1152 076c 70       		.byte	0x70
 1153 076d 17       		.uleb128 0x17
 1154 076e 4F010000 		.4byte	.LASF104
 1155 0772 04       		.byte	0x4
 1156 0773 9002     		.2byte	0x290
 1157 0775 16       		.byte	0x16
 1158 0776 ED000000 		.4byte	0xed
 1159 077a 78       		.byte	0x78
 1160 077b 17       		.uleb128 0x17
 1161 077c 89090000 		.4byte	.LASF105
 1162 0780 04       		.byte	0x4
 1163 0781 9102     		.2byte	0x291
 1164 0783 10       		.byte	0x10
 1165 0784 0A080000 		.4byte	0x80a
 1166 0788 80       		.byte	0x80
 1167 0789 17       		.uleb128 0x17
 1168 078a 58040000 		.4byte	.LASF106
 1169 078e 04       		.byte	0x4
 1170 078f 9202     		.2byte	0x292
 1171 0791 10       		.byte	0x10
 1172 0792 1A080000 		.4byte	0x81a
 1173 0796 88       		.byte	0x88
 1174 0797 17       		.uleb128 0x17
 1175 0798 EC080000 		.4byte	.LASF107
 1176 079c 04       		.byte	0x4
 1177 079d 9302     		.2byte	0x293
 1178 079f 0F       		.byte	0xf
 1179 07a0 2C000000 		.4byte	0x2c
 1180 07a4 A0       		.byte	0xa0
 1181 07a5 17       		.uleb128 0x17
 1182 07a6 96020000 		.4byte	.LASF108
 1183 07aa 04       		.byte	0x4
 1184 07ab 9402     		.2byte	0x294
 1185 07ad 16       		.byte	0x16
 1186 07ae ED000000 		.4byte	0xed
 1187 07b2 A4       		.byte	0xa4
 1188 07b3 17       		.uleb128 0x17
 1189 07b4 21010000 		.4byte	.LASF109
 1190 07b8 04       		.byte	0x4
 1191 07b9 9502     		.2byte	0x295
 1192 07bb 16       		.byte	0x16
 1193 07bc ED000000 		.4byte	0xed
 1194 07c0 AC       		.byte	0xac
 1195 07c1 17       		.uleb128 0x17
 1196 07c2 85020000 		.4byte	.LASF110
 1197 07c6 04       		.byte	0x4
ARM GAS  /tmp/cc1Q7Bv1.s 			page 22


 1198 07c7 9602     		.2byte	0x296
 1199 07c9 16       		.byte	0x16
 1200 07ca ED000000 		.4byte	0xed
 1201 07ce B4       		.byte	0xb4
 1202 07cf 17       		.uleb128 0x17
 1203 07d0 99000000 		.4byte	.LASF111
 1204 07d4 04       		.byte	0x4
 1205 07d5 9702     		.2byte	0x297
 1206 07d7 16       		.byte	0x16
 1207 07d8 ED000000 		.4byte	0xed
 1208 07dc BC       		.byte	0xbc
 1209 07dd 17       		.uleb128 0x17
 1210 07de A8000000 		.4byte	.LASF112
 1211 07e2 04       		.byte	0x4
 1212 07e3 9802     		.2byte	0x298
 1213 07e5 16       		.byte	0x16
 1214 07e6 ED000000 		.4byte	0xed
 1215 07ea C4       		.byte	0xc4
 1216 07eb 17       		.uleb128 0x17
 1217 07ec 27070000 		.4byte	.LASF113
 1218 07f0 04       		.byte	0x4
 1219 07f1 9902     		.2byte	0x299
 1220 07f3 08       		.byte	0x8
 1221 07f4 2C000000 		.4byte	0x2c
 1222 07f8 CC       		.byte	0xcc
 1223 07f9 00       		.byte	0
 1224 07fa 08       		.uleb128 0x8
 1225 07fb B0050000 		.4byte	0x5b0
 1226 07ff 0A080000 		.4byte	0x80a
 1227 0803 09       		.uleb128 0x9
 1228 0804 25000000 		.4byte	0x25
 1229 0808 19       		.byte	0x19
 1230 0809 00       		.byte	0
 1231 080a 08       		.uleb128 0x8
 1232 080b B0050000 		.4byte	0x5b0
 1233 080f 1A080000 		.4byte	0x81a
 1234 0813 09       		.uleb128 0x9
 1235 0814 25000000 		.4byte	0x25
 1236 0818 07       		.byte	0x7
 1237 0819 00       		.byte	0
 1238 081a 08       		.uleb128 0x8
 1239 081b B0050000 		.4byte	0x5b0
 1240 081f 2A080000 		.4byte	0x82a
 1241 0823 09       		.uleb128 0x9
 1242 0824 25000000 		.4byte	0x25
 1243 0828 17       		.byte	0x17
 1244 0829 00       		.byte	0
 1245 082a 1A       		.uleb128 0x1a
 1246 082b F0       		.byte	0xf0
 1247 082c 04       		.byte	0x4
 1248 082d 9E02     		.2byte	0x29e
 1249 082f 07       		.byte	0x7
 1250 0830 51080000 		.4byte	0x851
 1251 0834 17       		.uleb128 0x17
 1252 0835 3D050000 		.4byte	.LASF114
 1253 0839 04       		.byte	0x4
 1254 083a A102     		.2byte	0x2a1
ARM GAS  /tmp/cc1Q7Bv1.s 			page 23


 1255 083c 1B       		.byte	0x1b
 1256 083d 51080000 		.4byte	0x851
 1257 0841 00       		.byte	0
 1258 0842 17       		.uleb128 0x17
 1259 0843 80090000 		.4byte	.LASF115
 1260 0847 04       		.byte	0x4
 1261 0848 A202     		.2byte	0x2a2
 1262 084a 18       		.byte	0x18
 1263 084b 61080000 		.4byte	0x861
 1264 084f 78       		.byte	0x78
 1265 0850 00       		.byte	0
 1266 0851 08       		.uleb128 0x8
 1267 0852 EF020000 		.4byte	0x2ef
 1268 0856 61080000 		.4byte	0x861
 1269 085a 09       		.uleb128 0x9
 1270 085b 25000000 		.4byte	0x25
 1271 085f 1D       		.byte	0x1d
 1272 0860 00       		.byte	0
 1273 0861 08       		.uleb128 0x8
 1274 0862 25000000 		.4byte	0x25
 1275 0866 71080000 		.4byte	0x871
 1276 086a 09       		.uleb128 0x9
 1277 086b 25000000 		.4byte	0x25
 1278 086f 1D       		.byte	0x1d
 1279 0870 00       		.byte	0
 1280 0871 1B       		.uleb128 0x1b
 1281 0872 F0       		.byte	0xf0
 1282 0873 04       		.byte	0x4
 1283 0874 8302     		.2byte	0x283
 1284 0876 03       		.byte	0x3
 1285 0877 96080000 		.4byte	0x896
 1286 087b 1C       		.uleb128 0x1c
 1287 087c F9070000 		.4byte	.LASF64
 1288 0880 04       		.byte	0x4
 1289 0881 9A02     		.2byte	0x29a
 1290 0883 0B       		.byte	0xb
 1291 0884 E5060000 		.4byte	0x6e5
 1292 0888 1C       		.uleb128 0x1c
 1293 0889 B6090000 		.4byte	.LASF116
 1294 088d 04       		.byte	0x4
 1295 088e A302     		.2byte	0x2a3
 1296 0890 0B       		.byte	0xb
 1297 0891 2A080000 		.4byte	0x82a
 1298 0895 00       		.byte	0
 1299 0896 08       		.uleb128 0x8
 1300 0897 B0050000 		.4byte	0x5b0
 1301 089b A6080000 		.4byte	0x8a6
 1302 089f 09       		.uleb128 0x9
 1303 08a0 25000000 		.4byte	0x25
 1304 08a4 18       		.byte	0x18
 1305 08a5 00       		.byte	0
 1306 08a6 1D       		.uleb128 0x1d
 1307 08a7 EC000000 		.4byte	.LASF171
 1308 08ab 0F       		.uleb128 0xf
 1309 08ac 04       		.byte	0x4
 1310 08ad A6080000 		.4byte	0x8a6
 1311 08b1 1E       		.uleb128 0x1e
ARM GAS  /tmp/cc1Q7Bv1.s 			page 24


 1312 08b2 BC080000 		.4byte	0x8bc
 1313 08b6 14       		.uleb128 0x14
 1314 08b7 56040000 		.4byte	0x456
 1315 08bb 00       		.byte	0
 1316 08bc 0F       		.uleb128 0xf
 1317 08bd 04       		.byte	0x4
 1318 08be B1080000 		.4byte	0x8b1
 1319 08c2 0F       		.uleb128 0xf
 1320 08c3 04       		.byte	0x4
 1321 08c4 79010000 		.4byte	0x179
 1322 08c8 1E       		.uleb128 0x1e
 1323 08c9 D3080000 		.4byte	0x8d3
 1324 08cd 14       		.uleb128 0x14
 1325 08ce 2C000000 		.4byte	0x2c
 1326 08d2 00       		.byte	0
 1327 08d3 0F       		.uleb128 0xf
 1328 08d4 04       		.byte	0x4
 1329 08d5 D9080000 		.4byte	0x8d9
 1330 08d9 0F       		.uleb128 0xf
 1331 08da 04       		.byte	0x4
 1332 08db C8080000 		.4byte	0x8c8
 1333 08df 08       		.uleb128 0x8
 1334 08e0 4A060000 		.4byte	0x64a
 1335 08e4 EF080000 		.4byte	0x8ef
 1336 08e8 09       		.uleb128 0x9
 1337 08e9 25000000 		.4byte	0x25
 1338 08ed 02       		.byte	0x2
 1339 08ee 00       		.byte	0
 1340 08ef 1F       		.uleb128 0x1f
 1341 08f0 3E080000 		.4byte	.LASF117
 1342 08f4 04       		.byte	0x4
 1343 08f5 3303     		.2byte	0x333
 1344 08f7 17       		.byte	0x17
 1345 08f8 56040000 		.4byte	0x456
 1346 08fc 1F       		.uleb128 0x1f
 1347 08fd 1D090000 		.4byte	.LASF118
 1348 0901 04       		.byte	0x4
 1349 0902 3403     		.2byte	0x334
 1350 0904 1D       		.byte	0x1d
 1351 0905 5C040000 		.4byte	0x45c
 1352 0909 20       		.uleb128 0x20
 1353 090a 55050000 		.4byte	.LASF119
 1354 090e 06       		.byte	0x6
 1355 090f 67       		.byte	0x67
 1356 0910 0E       		.byte	0xe
 1357 0911 AA050000 		.4byte	0x5aa
 1358 0915 05       		.uleb128 0x5
 1359 0916 E4040000 		.4byte	.LASF120
 1360 091a 07       		.byte	0x7
 1361 091b 23       		.byte	0x23
 1362 091c 16       		.byte	0x16
 1363 091d 5C000000 		.4byte	0x5c
 1364 0921 05       		.uleb128 0x5
 1365 0922 19000000 		.4byte	.LASF121
 1366 0926 07       		.byte	0x7
 1367 0927 24       		.byte	0x24
 1368 0928 18       		.byte	0x18
ARM GAS  /tmp/cc1Q7Bv1.s 			page 25


 1369 0929 63000000 		.4byte	0x63
 1370 092d 05       		.uleb128 0x5
 1371 092e 31020000 		.4byte	.LASF122
 1372 0932 07       		.byte	0x7
 1373 0933 26       		.byte	0x26
 1374 0934 17       		.byte	0x17
 1375 0935 55000000 		.4byte	0x55
 1376 0939 15       		.uleb128 0x15
 1377 093a 2D090000 		.4byte	0x92d
 1378 093e 0A       		.uleb128 0xa
 1379 093f 40       		.byte	0x40
 1380 0940 08       		.byte	0x8
 1381 0941 45       		.byte	0x45
 1382 0942 09       		.byte	0x9
 1383 0943 E2090000 		.4byte	0x9e2
 1384 0947 0B       		.uleb128 0xb
 1385 0948 26040000 		.4byte	.LASF123
 1386 094c 08       		.byte	0x8
 1387 094d 48       		.byte	0x48
 1388 094e 09       		.byte	0x9
 1389 094f 21090000 		.4byte	0x921
 1390 0953 00       		.byte	0
 1391 0954 0B       		.uleb128 0xb
 1392 0955 0C000000 		.4byte	.LASF124
 1393 0959 08       		.byte	0x8
 1394 095a 4B       		.byte	0x4b
 1395 095b 09       		.byte	0x9
 1396 095c 21090000 		.4byte	0x921
 1397 0960 02       		.byte	0x2
 1398 0961 0B       		.uleb128 0xb
 1399 0962 DB040000 		.4byte	.LASF125
 1400 0966 08       		.byte	0x8
 1401 0967 4C       		.byte	0x4c
 1402 0968 0B       		.byte	0xb
 1403 0969 E2090000 		.4byte	0x9e2
 1404 096d 04       		.byte	0x4
 1405 096e 0B       		.uleb128 0xb
 1406 096f B9000000 		.4byte	.LASF126
 1407 0973 08       		.byte	0x8
 1408 0974 4F       		.byte	0x4f
 1409 0975 09       		.byte	0x9
 1410 0976 21090000 		.4byte	0x921
 1411 097a 08       		.byte	0x8
 1412 097b 0B       		.uleb128 0xb
 1413 097c 4D000000 		.4byte	.LASF127
 1414 0980 08       		.byte	0x8
 1415 0981 50       		.byte	0x50
 1416 0982 0B       		.byte	0xb
 1417 0983 E8090000 		.4byte	0x9e8
 1418 0987 0C       		.byte	0xc
 1419 0988 0B       		.uleb128 0xb
 1420 0989 85080000 		.4byte	.LASF128
 1421 098d 08       		.byte	0x8
 1422 098e 53       		.byte	0x53
 1423 098f 09       		.byte	0x9
 1424 0990 21090000 		.4byte	0x921
 1425 0994 10       		.byte	0x10
ARM GAS  /tmp/cc1Q7Bv1.s 			page 26


 1426 0995 0B       		.uleb128 0xb
 1427 0996 A3090000 		.4byte	.LASF129
 1428 099a 08       		.byte	0x8
 1429 099b 54       		.byte	0x54
 1430 099c 0B       		.byte	0xb
 1431 099d E8090000 		.4byte	0x9e8
 1432 09a1 14       		.byte	0x14
 1433 09a2 0B       		.uleb128 0xb
 1434 09a3 93090000 		.4byte	.LASF130
 1435 09a7 08       		.byte	0x8
 1436 09a8 57       		.byte	0x57
 1437 09a9 09       		.byte	0x9
 1438 09aa 21090000 		.4byte	0x921
 1439 09ae 18       		.byte	0x18
 1440 09af 0E       		.uleb128 0xe
 1441 09b0 706300   		.ascii	"pc\000"
 1442 09b3 08       		.byte	0x8
 1443 09b4 58       		.byte	0x58
 1444 09b5 09       		.byte	0x9
 1445 09b6 21090000 		.4byte	0x921
 1446 09ba 1A       		.byte	0x1a
 1447 09bb 0E       		.uleb128 0xe
 1448 09bc 737000   		.ascii	"sp\000"
 1449 09bf 08       		.byte	0x8
 1450 09c0 59       		.byte	0x59
 1451 09c1 09       		.byte	0x9
 1452 09c2 15090000 		.4byte	0x915
 1453 09c6 1C       		.byte	0x1c
 1454 09c7 0B       		.uleb128 0xb
 1455 09c8 AC020000 		.4byte	.LASF131
 1456 09cc 08       		.byte	0x8
 1457 09cd 5C       		.byte	0x5c
 1458 09ce 09       		.byte	0x9
 1459 09cf EE090000 		.4byte	0x9ee
 1460 09d3 1E       		.byte	0x1e
 1461 09d4 0B       		.uleb128 0xb
 1462 09d5 03070000 		.4byte	.LASF132
 1463 09d9 08       		.byte	0x8
 1464 09da 5D       		.byte	0x5d
 1465 09db 09       		.byte	0x9
 1466 09dc 21090000 		.4byte	0x921
 1467 09e0 3E       		.byte	0x3e
 1468 09e1 00       		.byte	0
 1469 09e2 0F       		.uleb128 0xf
 1470 09e3 04       		.byte	0x4
 1471 09e4 21090000 		.4byte	0x921
 1472 09e8 0F       		.uleb128 0xf
 1473 09e9 04       		.byte	0x4
 1474 09ea 15090000 		.4byte	0x915
 1475 09ee 08       		.uleb128 0x8
 1476 09ef 21090000 		.4byte	0x921
 1477 09f3 FE090000 		.4byte	0x9fe
 1478 09f7 09       		.uleb128 0x9
 1479 09f8 25000000 		.4byte	0x25
 1480 09fc 0F       		.byte	0xf
 1481 09fd 00       		.byte	0
 1482 09fe 05       		.uleb128 0x5
ARM GAS  /tmp/cc1Q7Bv1.s 			page 27


 1483 09ff 1D050000 		.4byte	.LASF133
 1484 0a03 08       		.byte	0x8
 1485 0a04 5E       		.byte	0x5e
 1486 0a05 03       		.byte	0x3
 1487 0a06 3E090000 		.4byte	0x93e
 1488 0a0a 0F       		.uleb128 0xf
 1489 0a0b 04       		.byte	0x4
 1490 0a0c FE090000 		.4byte	0x9fe
 1491 0a10 0A       		.uleb128 0xa
 1492 0a11 08       		.byte	0x8
 1493 0a12 09       		.byte	0x9
 1494 0a13 47       		.byte	0x47
 1495 0a14 09       		.byte	0x9
 1496 0a15 340A0000 		.4byte	0xa34
 1497 0a19 0B       		.uleb128 0xb
 1498 0a1a 2D040000 		.4byte	.LASF134
 1499 0a1e 09       		.byte	0x9
 1500 0a1f 49       		.byte	0x49
 1501 0a20 09       		.byte	0x9
 1502 0a21 15090000 		.4byte	0x915
 1503 0a25 00       		.byte	0
 1504 0a26 0B       		.uleb128 0xb
 1505 0a27 B4030000 		.4byte	.LASF135
 1506 0a2b 09       		.byte	0x9
 1507 0a2c 4A       		.byte	0x4a
 1508 0a2d 0E       		.byte	0xe
 1509 0a2e E0050000 		.4byte	0x5e0
 1510 0a32 04       		.byte	0x4
 1511 0a33 00       		.byte	0
 1512 0a34 05       		.uleb128 0x5
 1513 0a35 26000000 		.4byte	.LASF136
 1514 0a39 09       		.byte	0x9
 1515 0a3a 4B       		.byte	0x4b
 1516 0a3b 03       		.byte	0x3
 1517 0a3c 100A0000 		.4byte	0xa10
 1518 0a40 0A       		.uleb128 0xa
 1519 0a41 08       		.byte	0x8
 1520 0a42 09       		.byte	0x9
 1521 0a43 4E       		.byte	0x4e
 1522 0a44 09       		.byte	0x9
 1523 0a45 710A0000 		.4byte	0xa71
 1524 0a49 0B       		.uleb128 0xb
 1525 0a4a B4030000 		.4byte	.LASF135
 1526 0a4e 09       		.byte	0x9
 1527 0a4f 50       		.byte	0x50
 1528 0a50 0E       		.byte	0xe
 1529 0a51 E0050000 		.4byte	0x5e0
 1530 0a55 00       		.byte	0
 1531 0a56 0E       		.uleb128 0xe
 1532 0a57 646F6300 		.ascii	"doc\000"
 1533 0a5b 09       		.byte	0x9
 1534 0a5c 51       		.byte	0x51
 1535 0a5d 0E       		.byte	0xe
 1536 0a5e E0050000 		.4byte	0x5e0
 1537 0a62 04       		.byte	0x4
 1538 0a63 0B       		.uleb128 0xb
 1539 0a64 45040000 		.4byte	.LASF137
ARM GAS  /tmp/cc1Q7Bv1.s 			page 28


 1540 0a68 09       		.byte	0x9
 1541 0a69 52       		.byte	0x52
 1542 0a6a 29       		.byte	0x29
 1543 0a6b 710A0000 		.4byte	0xa71
 1544 0a6f 08       		.byte	0x8
 1545 0a70 00       		.byte	0
 1546 0a71 08       		.uleb128 0x8
 1547 0a72 340A0000 		.4byte	0xa34
 1548 0a76 800A0000 		.4byte	0xa80
 1549 0a7a 21       		.uleb128 0x21
 1550 0a7b 25000000 		.4byte	0x25
 1551 0a7f 00       		.byte	0
 1552 0a80 05       		.uleb128 0x5
 1553 0a81 DE090000 		.4byte	.LASF138
 1554 0a85 09       		.byte	0x9
 1555 0a86 53       		.byte	0x53
 1556 0a87 03       		.byte	0x3
 1557 0a88 400A0000 		.4byte	0xa40
 1558 0a8c 15       		.uleb128 0x15
 1559 0a8d 800A0000 		.4byte	0xa80
 1560 0a91 20       		.uleb128 0x20
 1561 0a92 7F070000 		.4byte	.LASF139
 1562 0a96 09       		.byte	0x9
 1563 0a97 62       		.byte	0x62
 1564 0a98 2D       		.byte	0x2d
 1565 0a99 8C0A0000 		.4byte	0xa8c
 1566 0a9d 20       		.uleb128 0x20
 1567 0a9e 61090000 		.4byte	.LASF140
 1568 0aa2 09       		.byte	0x9
 1569 0aa3 67       		.byte	0x67
 1570 0aa4 2D       		.byte	0x2d
 1571 0aa5 8C0A0000 		.4byte	0xa8c
 1572 0aa9 20       		.uleb128 0x20
 1573 0aaa 66010000 		.4byte	.LASF141
 1574 0aae 09       		.byte	0x9
 1575 0aaf 6C       		.byte	0x6c
 1576 0ab0 2D       		.byte	0x2d
 1577 0ab1 8C0A0000 		.4byte	0xa8c
 1578 0ab5 20       		.uleb128 0x20
 1579 0ab6 E1020000 		.4byte	.LASF142
 1580 0aba 09       		.byte	0x9
 1581 0abb 71       		.byte	0x71
 1582 0abc 2D       		.byte	0x2d
 1583 0abd 8C0A0000 		.4byte	0xa8c
 1584 0ac1 20       		.uleb128 0x20
 1585 0ac2 B8020000 		.4byte	.LASF143
 1586 0ac6 09       		.byte	0x9
 1587 0ac7 76       		.byte	0x76
 1588 0ac8 2D       		.byte	0x2d
 1589 0ac9 8C0A0000 		.4byte	0xa8c
 1590 0acd 20       		.uleb128 0x20
 1591 0ace 01040000 		.4byte	.LASF144
 1592 0ad2 09       		.byte	0x9
 1593 0ad3 7B       		.byte	0x7b
 1594 0ad4 2D       		.byte	0x2d
 1595 0ad5 8C0A0000 		.4byte	0xa8c
 1596 0ad9 20       		.uleb128 0x20
ARM GAS  /tmp/cc1Q7Bv1.s 			page 29


 1597 0ada B5040000 		.4byte	.LASF145
 1598 0ade 09       		.byte	0x9
 1599 0adf 80       		.byte	0x80
 1600 0ae0 2D       		.byte	0x2d
 1601 0ae1 8C0A0000 		.4byte	0xa8c
 1602 0ae5 20       		.uleb128 0x20
 1603 0ae6 B1080000 		.4byte	.LASF146
 1604 0aea 09       		.byte	0x9
 1605 0aeb 85       		.byte	0x85
 1606 0aec 2D       		.byte	0x2d
 1607 0aed 8C0A0000 		.4byte	0xa8c
 1608 0af1 20       		.uleb128 0x20
 1609 0af2 5E080000 		.4byte	.LASF147
 1610 0af6 09       		.byte	0x9
 1611 0af7 8A       		.byte	0x8a
 1612 0af8 2D       		.byte	0x2d
 1613 0af9 8C0A0000 		.4byte	0xa8c
 1614 0afd 20       		.uleb128 0x20
 1615 0afe 55020000 		.4byte	.LASF148
 1616 0b02 09       		.byte	0x9
 1617 0b03 8F       		.byte	0x8f
 1618 0b04 2D       		.byte	0x2d
 1619 0b05 8C0A0000 		.4byte	0xa8c
 1620 0b09 20       		.uleb128 0x20
 1621 0b0a 37020000 		.4byte	.LASF149
 1622 0b0e 09       		.byte	0x9
 1623 0b0f 94       		.byte	0x94
 1624 0b10 2D       		.byte	0x2d
 1625 0b11 8C0A0000 		.4byte	0xa8c
 1626 0b15 20       		.uleb128 0x20
 1627 0b16 6A000000 		.4byte	.LASF150
 1628 0b1a 09       		.byte	0x9
 1629 0b1b 99       		.byte	0x99
 1630 0b1c 2D       		.byte	0x2d
 1631 0b1d 8C0A0000 		.4byte	0xa8c
 1632 0b21 20       		.uleb128 0x20
 1633 0b22 F9080000 		.4byte	.LASF151
 1634 0b26 09       		.byte	0x9
 1635 0b27 9E       		.byte	0x9e
 1636 0b28 2D       		.byte	0x2d
 1637 0b29 8C0A0000 		.4byte	0xa8c
 1638 0b2d 20       		.uleb128 0x20
 1639 0b2e E2010000 		.4byte	.LASF152
 1640 0b32 09       		.byte	0x9
 1641 0b33 A3       		.byte	0xa3
 1642 0b34 2D       		.byte	0x2d
 1643 0b35 8C0A0000 		.4byte	0xa8c
 1644 0b39 20       		.uleb128 0x20
 1645 0b3a 16080000 		.4byte	.LASF153
 1646 0b3e 09       		.byte	0x9
 1647 0b3f A8       		.byte	0xa8
 1648 0b40 2D       		.byte	0x2d
 1649 0b41 8C0A0000 		.4byte	0xa8c
 1650 0b45 20       		.uleb128 0x20
 1651 0b46 EB040000 		.4byte	.LASF154
 1652 0b4a 09       		.byte	0x9
 1653 0b4b AD       		.byte	0xad
ARM GAS  /tmp/cc1Q7Bv1.s 			page 30


 1654 0b4c 2D       		.byte	0x2d
 1655 0b4d 8C0A0000 		.4byte	0xa8c
 1656 0b51 20       		.uleb128 0x20
 1657 0b52 96040000 		.4byte	.LASF155
 1658 0b56 09       		.byte	0x9
 1659 0b57 B2       		.byte	0xb2
 1660 0b58 2D       		.byte	0x2d
 1661 0b59 8C0A0000 		.4byte	0xa8c
 1662 0b5d 20       		.uleb128 0x20
 1663 0b5e 30010000 		.4byte	.LASF156
 1664 0b62 09       		.byte	0x9
 1665 0b63 B7       		.byte	0xb7
 1666 0b64 2D       		.byte	0x2d
 1667 0b65 8C0A0000 		.4byte	0xa8c
 1668 0b69 20       		.uleb128 0x20
 1669 0b6a BE090000 		.4byte	.LASF157
 1670 0b6e 09       		.byte	0x9
 1671 0b6f BC       		.byte	0xbc
 1672 0b70 2D       		.byte	0x2d
 1673 0b71 8C0A0000 		.4byte	0xa8c
 1674 0b75 20       		.uleb128 0x20
 1675 0b76 94030000 		.4byte	.LASF158
 1676 0b7a 09       		.byte	0x9
 1677 0b7b C1       		.byte	0xc1
 1678 0b7c 2D       		.byte	0x2d
 1679 0b7d 8C0A0000 		.4byte	0xa8c
 1680 0b81 20       		.uleb128 0x20
 1681 0b82 F7000000 		.4byte	.LASF159
 1682 0b86 09       		.byte	0x9
 1683 0b87 C6       		.byte	0xc6
 1684 0b88 2D       		.byte	0x2d
 1685 0b89 8C0A0000 		.4byte	0xa8c
 1686 0b8d 20       		.uleb128 0x20
 1687 0b8e 3C030000 		.4byte	.LASF160
 1688 0b92 09       		.byte	0x9
 1689 0b93 CF       		.byte	0xcf
 1690 0b94 2D       		.byte	0x2d
 1691 0b95 8C0A0000 		.4byte	0xa8c
 1692 0b99 22       		.uleb128 0x22
 1693 0b9a 3D090000 		.4byte	.LASF172
 1694 0b9e 01       		.byte	0x1
 1695 0b9f 20       		.byte	0x20
 1696 0ba0 08       		.byte	0x8
 1697 0ba1 21090000 		.4byte	0x921
 1698 0ba5 00000000 		.4byte	.LFB2
 1699 0ba9 34000000 		.4byte	.LFE2-.LFB2
 1700 0bad 01       		.uleb128 0x1
 1701 0bae 9C       		.byte	0x9c
 1702 0baf 280C0000 		.4byte	0xc28
 1703 0bb3 23       		.uleb128 0x23
 1704 0bb4 766D00   		.ascii	"vm\000"
 1705 0bb7 01       		.byte	0x1
 1706 0bb8 20       		.byte	0x20
 1707 0bb9 25       		.byte	0x25
 1708 0bba 0A0A0000 		.4byte	0xa0a
 1709 0bbe 04000000 		.4byte	.LLST3
 1710 0bc2 00000000 		.4byte	.LVUS3
ARM GAS  /tmp/cc1Q7Bv1.s 			page 31


 1711 0bc6 24       		.uleb128 0x24
 1712 0bc7 E7000000 		.4byte	.LASF161
 1713 0bcb 01       		.byte	0x1
 1714 0bcc 20       		.byte	0x20
 1715 0bcd 30       		.byte	0x30
 1716 0bce 280C0000 		.4byte	0xc28
 1717 0bd2 2F000000 		.4byte	.LLST4
 1718 0bd6 25000000 		.4byte	.LVUS4
 1719 0bda 24       		.uleb128 0x24
 1720 0bdb 8F000000 		.4byte	.LASF162
 1721 0bdf 01       		.byte	0x1
 1722 0be0 20       		.byte	0x20
 1723 0be1 3D       		.byte	0x3d
 1724 0be2 21090000 		.4byte	0x921
 1725 0be6 78000000 		.4byte	.LLST5
 1726 0bea 74000000 		.4byte	.LVUS5
 1727 0bee 24       		.uleb128 0x24
 1728 0bef 2A050000 		.4byte	.LASF163
 1729 0bf3 01       		.byte	0x1
 1730 0bf4 20       		.byte	0x20
 1731 0bf5 50       		.byte	0x50
 1732 0bf6 E2090000 		.4byte	0x9e2
 1733 0bfa A3000000 		.4byte	.LLST6
 1734 0bfe 99000000 		.4byte	.LVUS6
 1735 0c02 25       		.uleb128 0x25
 1736 0c03 2C000000 		.4byte	.LVL11
 1737 0c07 B20C0000 		.4byte	0xcb2
 1738 0c0b 1E0C0000 		.4byte	0xc1e
 1739 0c0f 26       		.uleb128 0x26
 1740 0c10 01       		.uleb128 0x1
 1741 0c11 50       		.byte	0x50
 1742 0c12 03       		.uleb128 0x3
 1743 0c13 F3       		.byte	0xf3
 1744 0c14 01       		.uleb128 0x1
 1745 0c15 51       		.byte	0x51
 1746 0c16 26       		.uleb128 0x26
 1747 0c17 01       		.uleb128 0x1
 1748 0c18 52       		.byte	0x52
 1749 0c19 03       		.uleb128 0x3
 1750 0c1a F3       		.byte	0xf3
 1751 0c1b 01       		.uleb128 0x1
 1752 0c1c 53       		.byte	0x53
 1753 0c1d 00       		.byte	0
 1754 0c1e 27       		.uleb128 0x27
 1755 0c1f 30000000 		.4byte	.LVL12
 1756 0c23 BE0C0000 		.4byte	0xcbe
 1757 0c27 00       		.byte	0
 1758 0c28 0F       		.uleb128 0xf
 1759 0c29 04       		.byte	0x4
 1760 0c2a 2D090000 		.4byte	0x92d
 1761 0c2e 28       		.uleb128 0x28
 1762 0c2f CF080000 		.4byte	.LASF173
 1763 0c33 01       		.byte	0x1
 1764 0c34 19       		.byte	0x19
 1765 0c35 06       		.byte	0x6
 1766 0c36 00000000 		.4byte	.LFB1
 1767 0c3a 3C000000 		.4byte	.LFE1-.LFB1
ARM GAS  /tmp/cc1Q7Bv1.s 			page 32


 1768 0c3e 01       		.uleb128 0x1
 1769 0c3f 9C       		.byte	0x9c
 1770 0c40 AC0C0000 		.4byte	0xcac
 1771 0c44 23       		.uleb128 0x23
 1772 0c45 766D00   		.ascii	"vm\000"
 1773 0c48 01       		.byte	0x1
 1774 0c49 19       		.byte	0x19
 1775 0c4a 24       		.byte	0x24
 1776 0c4b 0A0A0000 		.4byte	0xa0a
 1777 0c4f EC000000 		.4byte	.LLST0
 1778 0c53 E8000000 		.4byte	.LVUS0
 1779 0c57 24       		.uleb128 0x24
 1780 0c58 E7000000 		.4byte	.LASF161
 1781 0c5c 01       		.byte	0x1
 1782 0c5d 19       		.byte	0x19
 1783 0c5e 35       		.byte	0x35
 1784 0c5f AC0C0000 		.4byte	0xcac
 1785 0c63 11010000 		.4byte	.LLST1
 1786 0c67 0D010000 		.4byte	.LVUS1
 1787 0c6b 24       		.uleb128 0x24
 1788 0c6c A9090000 		.4byte	.LASF164
 1789 0c70 01       		.byte	0x1
 1790 0c71 19       		.byte	0x19
 1791 0c72 42       		.byte	0x42
 1792 0c73 21090000 		.4byte	0x921
 1793 0c77 33010000 		.4byte	.LLST2
 1794 0c7b 2F010000 		.4byte	.LVUS2
 1795 0c7f 27       		.uleb128 0x27
 1796 0c80 18000000 		.4byte	.LVL2
 1797 0c84 C70C0000 		.4byte	0xcc7
 1798 0c88 29       		.uleb128 0x29
 1799 0c89 20000000 		.4byte	.LVL3
 1800 0c8d D30C0000 		.4byte	0xcd3
 1801 0c91 A20C0000 		.4byte	0xca2
 1802 0c95 26       		.uleb128 0x26
 1803 0c96 01       		.uleb128 0x1
 1804 0c97 50       		.byte	0x50
 1805 0c98 02       		.uleb128 0x2
 1806 0c99 75       		.byte	0x75
 1807 0c9a 00       		.sleb128 0
 1808 0c9b 26       		.uleb128 0x26
 1809 0c9c 01       		.uleb128 0x1
 1810 0c9d 51       		.byte	0x51
 1811 0c9e 02       		.uleb128 0x2
 1812 0c9f 74       		.byte	0x74
 1813 0ca0 00       		.sleb128 0
 1814 0ca1 00       		.byte	0
 1815 0ca2 27       		.uleb128 0x27
 1816 0ca3 36000000 		.4byte	.LVL5
 1817 0ca7 BE0C0000 		.4byte	0xcbe
 1818 0cab 00       		.byte	0
 1819 0cac 0F       		.uleb128 0xf
 1820 0cad 04       		.byte	0x4
 1821 0cae 39090000 		.4byte	0x939
 1822 0cb2 2A       		.uleb128 0x2a
 1823 0cb3 360A0000 		.4byte	.LASF165
 1824 0cb7 360A0000 		.4byte	.LASF165
ARM GAS  /tmp/cc1Q7Bv1.s 			page 33


 1825 0cbb 0A       		.byte	0xa
 1826 0cbc 66       		.byte	0x66
 1827 0cbd 08       		.byte	0x8
 1828 0cbe 2B       		.uleb128 0x2b
 1829 0cbf E0070000 		.4byte	.LASF174
 1830 0cc3 E0070000 		.4byte	.LASF174
 1831 0cc7 2A       		.uleb128 0x2a
 1832 0cc8 7F040000 		.4byte	.LASF166
 1833 0ccc 7F040000 		.4byte	.LASF166
 1834 0cd0 0A       		.byte	0xa
 1835 0cd1 73       		.byte	0x73
 1836 0cd2 06       		.byte	0x6
 1837 0cd3 2A       		.uleb128 0x2a
 1838 0cd4 A4010000 		.4byte	.LASF167
 1839 0cd8 A4010000 		.4byte	.LASF167
 1840 0cdc 0A       		.byte	0xa
 1841 0cdd 55       		.byte	0x55
 1842 0cde 08       		.byte	0x8
 1843 0cdf 00       		.byte	0
 1844              		.section	.debug_abbrev,"",%progbits
 1845              	.Ldebug_abbrev0:
 1846 0000 01       		.uleb128 0x1
 1847 0001 11       		.uleb128 0x11
 1848 0002 01       		.byte	0x1
 1849 0003 25       		.uleb128 0x25
 1850 0004 0E       		.uleb128 0xe
 1851 0005 13       		.uleb128 0x13
 1852 0006 0B       		.uleb128 0xb
 1853 0007 03       		.uleb128 0x3
 1854 0008 0E       		.uleb128 0xe
 1855 0009 1B       		.uleb128 0x1b
 1856 000a 0E       		.uleb128 0xe
 1857 000b 55       		.uleb128 0x55
 1858 000c 17       		.uleb128 0x17
 1859 000d 11       		.uleb128 0x11
 1860 000e 01       		.uleb128 0x1
 1861 000f 10       		.uleb128 0x10
 1862 0010 17       		.uleb128 0x17
 1863 0011 00       		.byte	0
 1864 0012 00       		.byte	0
 1865 0013 02       		.uleb128 0x2
 1866 0014 24       		.uleb128 0x24
 1867 0015 00       		.byte	0
 1868 0016 0B       		.uleb128 0xb
 1869 0017 0B       		.uleb128 0xb
 1870 0018 3E       		.uleb128 0x3e
 1871 0019 0B       		.uleb128 0xb
 1872 001a 03       		.uleb128 0x3
 1873 001b 0E       		.uleb128 0xe
 1874 001c 00       		.byte	0
 1875 001d 00       		.byte	0
 1876 001e 03       		.uleb128 0x3
 1877 001f 24       		.uleb128 0x24
 1878 0020 00       		.byte	0
 1879 0021 0B       		.uleb128 0xb
 1880 0022 0B       		.uleb128 0xb
 1881 0023 3E       		.uleb128 0x3e
ARM GAS  /tmp/cc1Q7Bv1.s 			page 34


 1882 0024 0B       		.uleb128 0xb
 1883 0025 03       		.uleb128 0x3
 1884 0026 08       		.uleb128 0x8
 1885 0027 00       		.byte	0
 1886 0028 00       		.byte	0
 1887 0029 04       		.uleb128 0x4
 1888 002a 16       		.uleb128 0x16
 1889 002b 00       		.byte	0
 1890 002c 03       		.uleb128 0x3
 1891 002d 0E       		.uleb128 0xe
 1892 002e 3A       		.uleb128 0x3a
 1893 002f 0B       		.uleb128 0xb
 1894 0030 3B       		.uleb128 0x3b
 1895 0031 05       		.uleb128 0x5
 1896 0032 39       		.uleb128 0x39
 1897 0033 0B       		.uleb128 0xb
 1898 0034 49       		.uleb128 0x49
 1899 0035 13       		.uleb128 0x13
 1900 0036 00       		.byte	0
 1901 0037 00       		.byte	0
 1902 0038 05       		.uleb128 0x5
 1903 0039 16       		.uleb128 0x16
 1904 003a 00       		.byte	0
 1905 003b 03       		.uleb128 0x3
 1906 003c 0E       		.uleb128 0xe
 1907 003d 3A       		.uleb128 0x3a
 1908 003e 0B       		.uleb128 0xb
 1909 003f 3B       		.uleb128 0x3b
 1910 0040 0B       		.uleb128 0xb
 1911 0041 39       		.uleb128 0x39
 1912 0042 0B       		.uleb128 0xb
 1913 0043 49       		.uleb128 0x49
 1914 0044 13       		.uleb128 0x13
 1915 0045 00       		.byte	0
 1916 0046 00       		.byte	0
 1917 0047 06       		.uleb128 0x6
 1918 0048 17       		.uleb128 0x17
 1919 0049 01       		.byte	0x1
 1920 004a 0B       		.uleb128 0xb
 1921 004b 0B       		.uleb128 0xb
 1922 004c 3A       		.uleb128 0x3a
 1923 004d 0B       		.uleb128 0xb
 1924 004e 3B       		.uleb128 0x3b
 1925 004f 0B       		.uleb128 0xb
 1926 0050 39       		.uleb128 0x39
 1927 0051 0B       		.uleb128 0xb
 1928 0052 01       		.uleb128 0x1
 1929 0053 13       		.uleb128 0x13
 1930 0054 00       		.byte	0
 1931 0055 00       		.byte	0
 1932 0056 07       		.uleb128 0x7
 1933 0057 0D       		.uleb128 0xd
 1934 0058 00       		.byte	0
 1935 0059 03       		.uleb128 0x3
 1936 005a 0E       		.uleb128 0xe
 1937 005b 3A       		.uleb128 0x3a
 1938 005c 0B       		.uleb128 0xb
ARM GAS  /tmp/cc1Q7Bv1.s 			page 35


 1939 005d 3B       		.uleb128 0x3b
 1940 005e 0B       		.uleb128 0xb
 1941 005f 39       		.uleb128 0x39
 1942 0060 0B       		.uleb128 0xb
 1943 0061 49       		.uleb128 0x49
 1944 0062 13       		.uleb128 0x13
 1945 0063 00       		.byte	0
 1946 0064 00       		.byte	0
 1947 0065 08       		.uleb128 0x8
 1948 0066 01       		.uleb128 0x1
 1949 0067 01       		.byte	0x1
 1950 0068 49       		.uleb128 0x49
 1951 0069 13       		.uleb128 0x13
 1952 006a 01       		.uleb128 0x1
 1953 006b 13       		.uleb128 0x13
 1954 006c 00       		.byte	0
 1955 006d 00       		.byte	0
 1956 006e 09       		.uleb128 0x9
 1957 006f 21       		.uleb128 0x21
 1958 0070 00       		.byte	0
 1959 0071 49       		.uleb128 0x49
 1960 0072 13       		.uleb128 0x13
 1961 0073 2F       		.uleb128 0x2f
 1962 0074 0B       		.uleb128 0xb
 1963 0075 00       		.byte	0
 1964 0076 00       		.byte	0
 1965 0077 0A       		.uleb128 0xa
 1966 0078 13       		.uleb128 0x13
 1967 0079 01       		.byte	0x1
 1968 007a 0B       		.uleb128 0xb
 1969 007b 0B       		.uleb128 0xb
 1970 007c 3A       		.uleb128 0x3a
 1971 007d 0B       		.uleb128 0xb
 1972 007e 3B       		.uleb128 0x3b
 1973 007f 0B       		.uleb128 0xb
 1974 0080 39       		.uleb128 0x39
 1975 0081 0B       		.uleb128 0xb
 1976 0082 01       		.uleb128 0x1
 1977 0083 13       		.uleb128 0x13
 1978 0084 00       		.byte	0
 1979 0085 00       		.byte	0
 1980 0086 0B       		.uleb128 0xb
 1981 0087 0D       		.uleb128 0xd
 1982 0088 00       		.byte	0
 1983 0089 03       		.uleb128 0x3
 1984 008a 0E       		.uleb128 0xe
 1985 008b 3A       		.uleb128 0x3a
 1986 008c 0B       		.uleb128 0xb
 1987 008d 3B       		.uleb128 0x3b
 1988 008e 0B       		.uleb128 0xb
 1989 008f 39       		.uleb128 0x39
 1990 0090 0B       		.uleb128 0xb
 1991 0091 49       		.uleb128 0x49
 1992 0092 13       		.uleb128 0x13
 1993 0093 38       		.uleb128 0x38
 1994 0094 0B       		.uleb128 0xb
 1995 0095 00       		.byte	0
ARM GAS  /tmp/cc1Q7Bv1.s 			page 36


 1996 0096 00       		.byte	0
 1997 0097 0C       		.uleb128 0xc
 1998 0098 0F       		.uleb128 0xf
 1999 0099 00       		.byte	0
 2000 009a 0B       		.uleb128 0xb
 2001 009b 0B       		.uleb128 0xb
 2002 009c 00       		.byte	0
 2003 009d 00       		.byte	0
 2004 009e 0D       		.uleb128 0xd
 2005 009f 13       		.uleb128 0x13
 2006 00a0 01       		.byte	0x1
 2007 00a1 03       		.uleb128 0x3
 2008 00a2 0E       		.uleb128 0xe
 2009 00a3 0B       		.uleb128 0xb
 2010 00a4 0B       		.uleb128 0xb
 2011 00a5 3A       		.uleb128 0x3a
 2012 00a6 0B       		.uleb128 0xb
 2013 00a7 3B       		.uleb128 0x3b
 2014 00a8 0B       		.uleb128 0xb
 2015 00a9 39       		.uleb128 0x39
 2016 00aa 0B       		.uleb128 0xb
 2017 00ab 01       		.uleb128 0x1
 2018 00ac 13       		.uleb128 0x13
 2019 00ad 00       		.byte	0
 2020 00ae 00       		.byte	0
 2021 00af 0E       		.uleb128 0xe
 2022 00b0 0D       		.uleb128 0xd
 2023 00b1 00       		.byte	0
 2024 00b2 03       		.uleb128 0x3
 2025 00b3 08       		.uleb128 0x8
 2026 00b4 3A       		.uleb128 0x3a
 2027 00b5 0B       		.uleb128 0xb
 2028 00b6 3B       		.uleb128 0x3b
 2029 00b7 0B       		.uleb128 0xb
 2030 00b8 39       		.uleb128 0x39
 2031 00b9 0B       		.uleb128 0xb
 2032 00ba 49       		.uleb128 0x49
 2033 00bb 13       		.uleb128 0x13
 2034 00bc 38       		.uleb128 0x38
 2035 00bd 0B       		.uleb128 0xb
 2036 00be 00       		.byte	0
 2037 00bf 00       		.byte	0
 2038 00c0 0F       		.uleb128 0xf
 2039 00c1 0F       		.uleb128 0xf
 2040 00c2 00       		.byte	0
 2041 00c3 0B       		.uleb128 0xb
 2042 00c4 0B       		.uleb128 0xb
 2043 00c5 49       		.uleb128 0x49
 2044 00c6 13       		.uleb128 0x13
 2045 00c7 00       		.byte	0
 2046 00c8 00       		.byte	0
 2047 00c9 10       		.uleb128 0x10
 2048 00ca 13       		.uleb128 0x13
 2049 00cb 01       		.byte	0x1
 2050 00cc 03       		.uleb128 0x3
 2051 00cd 0E       		.uleb128 0xe
 2052 00ce 0B       		.uleb128 0xb
ARM GAS  /tmp/cc1Q7Bv1.s 			page 37


 2053 00cf 05       		.uleb128 0x5
 2054 00d0 3A       		.uleb128 0x3a
 2055 00d1 0B       		.uleb128 0xb
 2056 00d2 3B       		.uleb128 0x3b
 2057 00d3 0B       		.uleb128 0xb
 2058 00d4 39       		.uleb128 0x39
 2059 00d5 0B       		.uleb128 0xb
 2060 00d6 01       		.uleb128 0x1
 2061 00d7 13       		.uleb128 0x13
 2062 00d8 00       		.byte	0
 2063 00d9 00       		.byte	0
 2064 00da 11       		.uleb128 0x11
 2065 00db 0D       		.uleb128 0xd
 2066 00dc 00       		.byte	0
 2067 00dd 03       		.uleb128 0x3
 2068 00de 0E       		.uleb128 0xe
 2069 00df 3A       		.uleb128 0x3a
 2070 00e0 0B       		.uleb128 0xb
 2071 00e1 3B       		.uleb128 0x3b
 2072 00e2 0B       		.uleb128 0xb
 2073 00e3 39       		.uleb128 0x39
 2074 00e4 0B       		.uleb128 0xb
 2075 00e5 49       		.uleb128 0x49
 2076 00e6 13       		.uleb128 0x13
 2077 00e7 38       		.uleb128 0x38
 2078 00e8 05       		.uleb128 0x5
 2079 00e9 00       		.byte	0
 2080 00ea 00       		.byte	0
 2081 00eb 12       		.uleb128 0x12
 2082 00ec 15       		.uleb128 0x15
 2083 00ed 00       		.byte	0
 2084 00ee 27       		.uleb128 0x27
 2085 00ef 19       		.uleb128 0x19
 2086 00f0 00       		.byte	0
 2087 00f1 00       		.byte	0
 2088 00f2 13       		.uleb128 0x13
 2089 00f3 15       		.uleb128 0x15
 2090 00f4 01       		.byte	0x1
 2091 00f5 27       		.uleb128 0x27
 2092 00f6 19       		.uleb128 0x19
 2093 00f7 49       		.uleb128 0x49
 2094 00f8 13       		.uleb128 0x13
 2095 00f9 01       		.uleb128 0x1
 2096 00fa 13       		.uleb128 0x13
 2097 00fb 00       		.byte	0
 2098 00fc 00       		.byte	0
 2099 00fd 14       		.uleb128 0x14
 2100 00fe 05       		.uleb128 0x5
 2101 00ff 00       		.byte	0
 2102 0100 49       		.uleb128 0x49
 2103 0101 13       		.uleb128 0x13
 2104 0102 00       		.byte	0
 2105 0103 00       		.byte	0
 2106 0104 15       		.uleb128 0x15
 2107 0105 26       		.uleb128 0x26
 2108 0106 00       		.byte	0
 2109 0107 49       		.uleb128 0x49
ARM GAS  /tmp/cc1Q7Bv1.s 			page 38


 2110 0108 13       		.uleb128 0x13
 2111 0109 00       		.byte	0
 2112 010a 00       		.byte	0
 2113 010b 16       		.uleb128 0x16
 2114 010c 13       		.uleb128 0x13
 2115 010d 01       		.byte	0x1
 2116 010e 03       		.uleb128 0x3
 2117 010f 0E       		.uleb128 0xe
 2118 0110 0B       		.uleb128 0xb
 2119 0111 05       		.uleb128 0x5
 2120 0112 3A       		.uleb128 0x3a
 2121 0113 0B       		.uleb128 0xb
 2122 0114 3B       		.uleb128 0x3b
 2123 0115 05       		.uleb128 0x5
 2124 0116 39       		.uleb128 0x39
 2125 0117 0B       		.uleb128 0xb
 2126 0118 01       		.uleb128 0x1
 2127 0119 13       		.uleb128 0x13
 2128 011a 00       		.byte	0
 2129 011b 00       		.byte	0
 2130 011c 17       		.uleb128 0x17
 2131 011d 0D       		.uleb128 0xd
 2132 011e 00       		.byte	0
 2133 011f 03       		.uleb128 0x3
 2134 0120 0E       		.uleb128 0xe
 2135 0121 3A       		.uleb128 0x3a
 2136 0122 0B       		.uleb128 0xb
 2137 0123 3B       		.uleb128 0x3b
 2138 0124 05       		.uleb128 0x5
 2139 0125 39       		.uleb128 0x39
 2140 0126 0B       		.uleb128 0xb
 2141 0127 49       		.uleb128 0x49
 2142 0128 13       		.uleb128 0x13
 2143 0129 38       		.uleb128 0x38
 2144 012a 0B       		.uleb128 0xb
 2145 012b 00       		.byte	0
 2146 012c 00       		.byte	0
 2147 012d 18       		.uleb128 0x18
 2148 012e 0D       		.uleb128 0xd
 2149 012f 00       		.byte	0
 2150 0130 03       		.uleb128 0x3
 2151 0131 0E       		.uleb128 0xe
 2152 0132 3A       		.uleb128 0x3a
 2153 0133 0B       		.uleb128 0xb
 2154 0134 3B       		.uleb128 0x3b
 2155 0135 05       		.uleb128 0x5
 2156 0136 39       		.uleb128 0x39
 2157 0137 0B       		.uleb128 0xb
 2158 0138 49       		.uleb128 0x49
 2159 0139 13       		.uleb128 0x13
 2160 013a 38       		.uleb128 0x38
 2161 013b 05       		.uleb128 0x5
 2162 013c 00       		.byte	0
 2163 013d 00       		.byte	0
 2164 013e 19       		.uleb128 0x19
 2165 013f 13       		.uleb128 0x13
 2166 0140 01       		.byte	0x1
ARM GAS  /tmp/cc1Q7Bv1.s 			page 39


 2167 0141 03       		.uleb128 0x3
 2168 0142 0E       		.uleb128 0xe
 2169 0143 0B       		.uleb128 0xb
 2170 0144 0B       		.uleb128 0xb
 2171 0145 3A       		.uleb128 0x3a
 2172 0146 0B       		.uleb128 0xb
 2173 0147 3B       		.uleb128 0x3b
 2174 0148 05       		.uleb128 0x5
 2175 0149 39       		.uleb128 0x39
 2176 014a 0B       		.uleb128 0xb
 2177 014b 01       		.uleb128 0x1
 2178 014c 13       		.uleb128 0x13
 2179 014d 00       		.byte	0
 2180 014e 00       		.byte	0
 2181 014f 1A       		.uleb128 0x1a
 2182 0150 13       		.uleb128 0x13
 2183 0151 01       		.byte	0x1
 2184 0152 0B       		.uleb128 0xb
 2185 0153 0B       		.uleb128 0xb
 2186 0154 3A       		.uleb128 0x3a
 2187 0155 0B       		.uleb128 0xb
 2188 0156 3B       		.uleb128 0x3b
 2189 0157 05       		.uleb128 0x5
 2190 0158 39       		.uleb128 0x39
 2191 0159 0B       		.uleb128 0xb
 2192 015a 01       		.uleb128 0x1
 2193 015b 13       		.uleb128 0x13
 2194 015c 00       		.byte	0
 2195 015d 00       		.byte	0
 2196 015e 1B       		.uleb128 0x1b
 2197 015f 17       		.uleb128 0x17
 2198 0160 01       		.byte	0x1
 2199 0161 0B       		.uleb128 0xb
 2200 0162 0B       		.uleb128 0xb
 2201 0163 3A       		.uleb128 0x3a
 2202 0164 0B       		.uleb128 0xb
 2203 0165 3B       		.uleb128 0x3b
 2204 0166 05       		.uleb128 0x5
 2205 0167 39       		.uleb128 0x39
 2206 0168 0B       		.uleb128 0xb
 2207 0169 01       		.uleb128 0x1
 2208 016a 13       		.uleb128 0x13
 2209 016b 00       		.byte	0
 2210 016c 00       		.byte	0
 2211 016d 1C       		.uleb128 0x1c
 2212 016e 0D       		.uleb128 0xd
 2213 016f 00       		.byte	0
 2214 0170 03       		.uleb128 0x3
 2215 0171 0E       		.uleb128 0xe
 2216 0172 3A       		.uleb128 0x3a
 2217 0173 0B       		.uleb128 0xb
 2218 0174 3B       		.uleb128 0x3b
 2219 0175 05       		.uleb128 0x5
 2220 0176 39       		.uleb128 0x39
 2221 0177 0B       		.uleb128 0xb
 2222 0178 49       		.uleb128 0x49
 2223 0179 13       		.uleb128 0x13
ARM GAS  /tmp/cc1Q7Bv1.s 			page 40


 2224 017a 00       		.byte	0
 2225 017b 00       		.byte	0
 2226 017c 1D       		.uleb128 0x1d
 2227 017d 13       		.uleb128 0x13
 2228 017e 00       		.byte	0
 2229 017f 03       		.uleb128 0x3
 2230 0180 0E       		.uleb128 0xe
 2231 0181 3C       		.uleb128 0x3c
 2232 0182 19       		.uleb128 0x19
 2233 0183 00       		.byte	0
 2234 0184 00       		.byte	0
 2235 0185 1E       		.uleb128 0x1e
 2236 0186 15       		.uleb128 0x15
 2237 0187 01       		.byte	0x1
 2238 0188 27       		.uleb128 0x27
 2239 0189 19       		.uleb128 0x19
 2240 018a 01       		.uleb128 0x1
 2241 018b 13       		.uleb128 0x13
 2242 018c 00       		.byte	0
 2243 018d 00       		.byte	0
 2244 018e 1F       		.uleb128 0x1f
 2245 018f 34       		.uleb128 0x34
 2246 0190 00       		.byte	0
 2247 0191 03       		.uleb128 0x3
 2248 0192 0E       		.uleb128 0xe
 2249 0193 3A       		.uleb128 0x3a
 2250 0194 0B       		.uleb128 0xb
 2251 0195 3B       		.uleb128 0x3b
 2252 0196 05       		.uleb128 0x5
 2253 0197 39       		.uleb128 0x39
 2254 0198 0B       		.uleb128 0xb
 2255 0199 49       		.uleb128 0x49
 2256 019a 13       		.uleb128 0x13
 2257 019b 3F       		.uleb128 0x3f
 2258 019c 19       		.uleb128 0x19
 2259 019d 3C       		.uleb128 0x3c
 2260 019e 19       		.uleb128 0x19
 2261 019f 00       		.byte	0
 2262 01a0 00       		.byte	0
 2263 01a1 20       		.uleb128 0x20
 2264 01a2 34       		.uleb128 0x34
 2265 01a3 00       		.byte	0
 2266 01a4 03       		.uleb128 0x3
 2267 01a5 0E       		.uleb128 0xe
 2268 01a6 3A       		.uleb128 0x3a
 2269 01a7 0B       		.uleb128 0xb
 2270 01a8 3B       		.uleb128 0x3b
 2271 01a9 0B       		.uleb128 0xb
 2272 01aa 39       		.uleb128 0x39
 2273 01ab 0B       		.uleb128 0xb
 2274 01ac 49       		.uleb128 0x49
 2275 01ad 13       		.uleb128 0x13
 2276 01ae 3F       		.uleb128 0x3f
 2277 01af 19       		.uleb128 0x19
 2278 01b0 3C       		.uleb128 0x3c
 2279 01b1 19       		.uleb128 0x19
 2280 01b2 00       		.byte	0
ARM GAS  /tmp/cc1Q7Bv1.s 			page 41


 2281 01b3 00       		.byte	0
 2282 01b4 21       		.uleb128 0x21
 2283 01b5 21       		.uleb128 0x21
 2284 01b6 00       		.byte	0
 2285 01b7 49       		.uleb128 0x49
 2286 01b8 13       		.uleb128 0x13
 2287 01b9 00       		.byte	0
 2288 01ba 00       		.byte	0
 2289 01bb 22       		.uleb128 0x22
 2290 01bc 2E       		.uleb128 0x2e
 2291 01bd 01       		.byte	0x1
 2292 01be 3F       		.uleb128 0x3f
 2293 01bf 19       		.uleb128 0x19
 2294 01c0 03       		.uleb128 0x3
 2295 01c1 0E       		.uleb128 0xe
 2296 01c2 3A       		.uleb128 0x3a
 2297 01c3 0B       		.uleb128 0xb
 2298 01c4 3B       		.uleb128 0x3b
 2299 01c5 0B       		.uleb128 0xb
 2300 01c6 39       		.uleb128 0x39
 2301 01c7 0B       		.uleb128 0xb
 2302 01c8 27       		.uleb128 0x27
 2303 01c9 19       		.uleb128 0x19
 2304 01ca 49       		.uleb128 0x49
 2305 01cb 13       		.uleb128 0x13
 2306 01cc 11       		.uleb128 0x11
 2307 01cd 01       		.uleb128 0x1
 2308 01ce 12       		.uleb128 0x12
 2309 01cf 06       		.uleb128 0x6
 2310 01d0 40       		.uleb128 0x40
 2311 01d1 18       		.uleb128 0x18
 2312 01d2 9742     		.uleb128 0x2117
 2313 01d4 19       		.uleb128 0x19
 2314 01d5 01       		.uleb128 0x1
 2315 01d6 13       		.uleb128 0x13
 2316 01d7 00       		.byte	0
 2317 01d8 00       		.byte	0
 2318 01d9 23       		.uleb128 0x23
 2319 01da 05       		.uleb128 0x5
 2320 01db 00       		.byte	0
 2321 01dc 03       		.uleb128 0x3
 2322 01dd 08       		.uleb128 0x8
 2323 01de 3A       		.uleb128 0x3a
 2324 01df 0B       		.uleb128 0xb
 2325 01e0 3B       		.uleb128 0x3b
 2326 01e1 0B       		.uleb128 0xb
 2327 01e2 39       		.uleb128 0x39
 2328 01e3 0B       		.uleb128 0xb
 2329 01e4 49       		.uleb128 0x49
 2330 01e5 13       		.uleb128 0x13
 2331 01e6 02       		.uleb128 0x2
 2332 01e7 17       		.uleb128 0x17
 2333 01e8 B742     		.uleb128 0x2137
 2334 01ea 17       		.uleb128 0x17
 2335 01eb 00       		.byte	0
 2336 01ec 00       		.byte	0
 2337 01ed 24       		.uleb128 0x24
ARM GAS  /tmp/cc1Q7Bv1.s 			page 42


 2338 01ee 05       		.uleb128 0x5
 2339 01ef 00       		.byte	0
 2340 01f0 03       		.uleb128 0x3
 2341 01f1 0E       		.uleb128 0xe
 2342 01f2 3A       		.uleb128 0x3a
 2343 01f3 0B       		.uleb128 0xb
 2344 01f4 3B       		.uleb128 0x3b
 2345 01f5 0B       		.uleb128 0xb
 2346 01f6 39       		.uleb128 0x39
 2347 01f7 0B       		.uleb128 0xb
 2348 01f8 49       		.uleb128 0x49
 2349 01f9 13       		.uleb128 0x13
 2350 01fa 02       		.uleb128 0x2
 2351 01fb 17       		.uleb128 0x17
 2352 01fc B742     		.uleb128 0x2137
 2353 01fe 17       		.uleb128 0x17
 2354 01ff 00       		.byte	0
 2355 0200 00       		.byte	0
 2356 0201 25       		.uleb128 0x25
 2357 0202 898201   		.uleb128 0x4109
 2358 0205 01       		.byte	0x1
 2359 0206 11       		.uleb128 0x11
 2360 0207 01       		.uleb128 0x1
 2361 0208 9542     		.uleb128 0x2115
 2362 020a 19       		.uleb128 0x19
 2363 020b 31       		.uleb128 0x31
 2364 020c 13       		.uleb128 0x13
 2365 020d 01       		.uleb128 0x1
 2366 020e 13       		.uleb128 0x13
 2367 020f 00       		.byte	0
 2368 0210 00       		.byte	0
 2369 0211 26       		.uleb128 0x26
 2370 0212 8A8201   		.uleb128 0x410a
 2371 0215 00       		.byte	0
 2372 0216 02       		.uleb128 0x2
 2373 0217 18       		.uleb128 0x18
 2374 0218 9142     		.uleb128 0x2111
 2375 021a 18       		.uleb128 0x18
 2376 021b 00       		.byte	0
 2377 021c 00       		.byte	0
 2378 021d 27       		.uleb128 0x27
 2379 021e 898201   		.uleb128 0x4109
 2380 0221 00       		.byte	0
 2381 0222 11       		.uleb128 0x11
 2382 0223 01       		.uleb128 0x1
 2383 0224 31       		.uleb128 0x31
 2384 0225 13       		.uleb128 0x13
 2385 0226 00       		.byte	0
 2386 0227 00       		.byte	0
 2387 0228 28       		.uleb128 0x28
 2388 0229 2E       		.uleb128 0x2e
 2389 022a 01       		.byte	0x1
 2390 022b 3F       		.uleb128 0x3f
 2391 022c 19       		.uleb128 0x19
 2392 022d 03       		.uleb128 0x3
 2393 022e 0E       		.uleb128 0xe
 2394 022f 3A       		.uleb128 0x3a
ARM GAS  /tmp/cc1Q7Bv1.s 			page 43


 2395 0230 0B       		.uleb128 0xb
 2396 0231 3B       		.uleb128 0x3b
 2397 0232 0B       		.uleb128 0xb
 2398 0233 39       		.uleb128 0x39
 2399 0234 0B       		.uleb128 0xb
 2400 0235 27       		.uleb128 0x27
 2401 0236 19       		.uleb128 0x19
 2402 0237 11       		.uleb128 0x11
 2403 0238 01       		.uleb128 0x1
 2404 0239 12       		.uleb128 0x12
 2405 023a 06       		.uleb128 0x6
 2406 023b 40       		.uleb128 0x40
 2407 023c 18       		.uleb128 0x18
 2408 023d 9742     		.uleb128 0x2117
 2409 023f 19       		.uleb128 0x19
 2410 0240 01       		.uleb128 0x1
 2411 0241 13       		.uleb128 0x13
 2412 0242 00       		.byte	0
 2413 0243 00       		.byte	0
 2414 0244 29       		.uleb128 0x29
 2415 0245 898201   		.uleb128 0x4109
 2416 0248 01       		.byte	0x1
 2417 0249 11       		.uleb128 0x11
 2418 024a 01       		.uleb128 0x1
 2419 024b 31       		.uleb128 0x31
 2420 024c 13       		.uleb128 0x13
 2421 024d 01       		.uleb128 0x1
 2422 024e 13       		.uleb128 0x13
 2423 024f 00       		.byte	0
 2424 0250 00       		.byte	0
 2425 0251 2A       		.uleb128 0x2a
 2426 0252 2E       		.uleb128 0x2e
 2427 0253 00       		.byte	0
 2428 0254 3F       		.uleb128 0x3f
 2429 0255 19       		.uleb128 0x19
 2430 0256 3C       		.uleb128 0x3c
 2431 0257 19       		.uleb128 0x19
 2432 0258 6E       		.uleb128 0x6e
 2433 0259 0E       		.uleb128 0xe
 2434 025a 03       		.uleb128 0x3
 2435 025b 0E       		.uleb128 0xe
 2436 025c 3A       		.uleb128 0x3a
 2437 025d 0B       		.uleb128 0xb
 2438 025e 3B       		.uleb128 0x3b
 2439 025f 0B       		.uleb128 0xb
 2440 0260 39       		.uleb128 0x39
 2441 0261 0B       		.uleb128 0xb
 2442 0262 00       		.byte	0
 2443 0263 00       		.byte	0
 2444 0264 2B       		.uleb128 0x2b
 2445 0265 2E       		.uleb128 0x2e
 2446 0266 00       		.byte	0
 2447 0267 3F       		.uleb128 0x3f
 2448 0268 19       		.uleb128 0x19
 2449 0269 3C       		.uleb128 0x3c
 2450 026a 19       		.uleb128 0x19
 2451 026b 6E       		.uleb128 0x6e
ARM GAS  /tmp/cc1Q7Bv1.s 			page 44


 2452 026c 0E       		.uleb128 0xe
 2453 026d 03       		.uleb128 0x3
 2454 026e 0E       		.uleb128 0xe
 2455 026f 00       		.byte	0
 2456 0270 00       		.byte	0
 2457 0271 00       		.byte	0
 2458              		.section	.debug_loc,"",%progbits
 2459              	.Ldebug_loc0:
 2460              	.LVUS3:
 2461 0000 00       		.uleb128 0
 2462 0001 00       		.uleb128 .LVU15
 2463 0002 00       		.uleb128 .LVU15
 2464 0003 00       		.uleb128 0
 2465              	.LLST3:
 2466 0004 00000000 		.4byte	.LVL6
 2467 0008 04000000 		.4byte	.LVL7
 2468 000c 0100     		.2byte	0x1
 2469 000e 50       		.byte	0x50
 2470 000f 04000000 		.4byte	.LVL7
 2471 0013 34000000 		.4byte	.LFE2
 2472 0017 0400     		.2byte	0x4
 2473 0019 F3       		.byte	0xf3
 2474 001a 01       		.uleb128 0x1
 2475 001b 50       		.byte	0x50
 2476 001c 9F       		.byte	0x9f
 2477 001d 00000000 		.4byte	0
 2478 0021 00000000 		.4byte	0
 2479              	.LVUS4:
 2480 0025 00       		.uleb128 0
 2481 0026 00       		.uleb128 .LVU16
 2482 0027 00       		.uleb128 .LVU16
 2483 0028 00       		.uleb128 .LVU26
 2484 0029 00       		.uleb128 .LVU26
 2485 002a 00       		.uleb128 .LVU26
 2486 002b 00       		.uleb128 .LVU26
 2487 002c 00       		.uleb128 .LVU27
 2488 002d 00       		.uleb128 .LVU27
 2489 002e 00       		.uleb128 0
 2490              	.LLST4:
 2491 002f 00000000 		.4byte	.LVL6
 2492 0033 06000000 		.4byte	.LVL8
 2493 0037 0100     		.2byte	0x1
 2494 0039 51       		.byte	0x51
 2495 003a 06000000 		.4byte	.LVL8
 2496 003e 2B000000 		.4byte	.LVL11-1
 2497 0042 0100     		.2byte	0x1
 2498 0044 50       		.byte	0x50
 2499 0045 2B000000 		.4byte	.LVL11-1
 2500 0049 2C000000 		.4byte	.LVL11
 2501 004d 0400     		.2byte	0x4
 2502 004f F3       		.byte	0xf3
 2503 0050 01       		.uleb128 0x1
 2504 0051 51       		.byte	0x51
 2505 0052 9F       		.byte	0x9f
 2506 0053 2C000000 		.4byte	.LVL11
 2507 0057 2F000000 		.4byte	.LVL12-1
 2508 005b 0100     		.2byte	0x1
ARM GAS  /tmp/cc1Q7Bv1.s 			page 45


 2509 005d 50       		.byte	0x50
 2510 005e 2F000000 		.4byte	.LVL12-1
 2511 0062 34000000 		.4byte	.LFE2
 2512 0066 0400     		.2byte	0x4
 2513 0068 F3       		.byte	0xf3
 2514 0069 01       		.uleb128 0x1
 2515 006a 51       		.byte	0x51
 2516 006b 9F       		.byte	0x9f
 2517 006c 00000000 		.4byte	0
 2518 0070 00000000 		.4byte	0
 2519              	.LVUS5:
 2520 0074 00       		.uleb128 0
 2521 0075 00       		.uleb128 .LVU17
 2522 0076 00       		.uleb128 .LVU17
 2523 0077 00       		.uleb128 0
 2524              	.LLST5:
 2525 0078 00000000 		.4byte	.LVL6
 2526 007c 08000000 		.4byte	.LVL9
 2527 0080 0100     		.2byte	0x1
 2528 0082 52       		.byte	0x52
 2529 0083 08000000 		.4byte	.LVL9
 2530 0087 34000000 		.4byte	.LFE2
 2531 008b 0400     		.2byte	0x4
 2532 008d F3       		.byte	0xf3
 2533 008e 01       		.uleb128 0x1
 2534 008f 52       		.byte	0x52
 2535 0090 9F       		.byte	0x9f
 2536 0091 00000000 		.4byte	0
 2537 0095 00000000 		.4byte	0
 2538              	.LVUS6:
 2539 0099 00       		.uleb128 0
 2540 009a 00       		.uleb128 .LVU18
 2541 009b 00       		.uleb128 .LVU18
 2542 009c 00       		.uleb128 .LVU26
 2543 009d 00       		.uleb128 .LVU26
 2544 009e 00       		.uleb128 .LVU26
 2545 009f 00       		.uleb128 .LVU26
 2546 00a0 00       		.uleb128 .LVU27
 2547 00a1 00       		.uleb128 .LVU27
 2548 00a2 00       		.uleb128 0
 2549              	.LLST6:
 2550 00a3 00000000 		.4byte	.LVL6
 2551 00a7 0A000000 		.4byte	.LVL10
 2552 00ab 0100     		.2byte	0x1
 2553 00ad 53       		.byte	0x53
 2554 00ae 0A000000 		.4byte	.LVL10
 2555 00b2 2B000000 		.4byte	.LVL11-1
 2556 00b6 0100     		.2byte	0x1
 2557 00b8 52       		.byte	0x52
 2558 00b9 2B000000 		.4byte	.LVL11-1
 2559 00bd 2C000000 		.4byte	.LVL11
 2560 00c1 0400     		.2byte	0x4
 2561 00c3 F3       		.byte	0xf3
 2562 00c4 01       		.uleb128 0x1
 2563 00c5 53       		.byte	0x53
 2564 00c6 9F       		.byte	0x9f
 2565 00c7 2C000000 		.4byte	.LVL11
ARM GAS  /tmp/cc1Q7Bv1.s 			page 46


 2566 00cb 2F000000 		.4byte	.LVL12-1
 2567 00cf 0100     		.2byte	0x1
 2568 00d1 52       		.byte	0x52
 2569 00d2 2F000000 		.4byte	.LVL12-1
 2570 00d6 34000000 		.4byte	.LFE2
 2571 00da 0400     		.2byte	0x4
 2572 00dc F3       		.byte	0xf3
 2573 00dd 01       		.uleb128 0x1
 2574 00de 53       		.byte	0x53
 2575 00df 9F       		.byte	0x9f
 2576 00e0 00000000 		.4byte	0
 2577 00e4 00000000 		.4byte	0
 2578              	.LVUS0:
 2579 00e8 00       		.uleb128 0
 2580 00e9 00       		.uleb128 .LVU7
 2581 00ea 00       		.uleb128 .LVU7
 2582 00eb 00       		.uleb128 0
 2583              	.LLST0:
 2584 00ec 00000000 		.4byte	.LVL0
 2585 00f0 14000000 		.4byte	.LVL1
 2586 00f4 0100     		.2byte	0x1
 2587 00f6 50       		.byte	0x50
 2588 00f7 14000000 		.4byte	.LVL1
 2589 00fb 3C000000 		.4byte	.LFE1
 2590 00ff 0400     		.2byte	0x4
 2591 0101 F3       		.byte	0xf3
 2592 0102 01       		.uleb128 0x1
 2593 0103 50       		.byte	0x50
 2594 0104 9F       		.byte	0x9f
 2595 0105 00000000 		.4byte	0
 2596 0109 00000000 		.4byte	0
 2597              	.LVUS1:
 2598 010d 00       		.uleb128 0
 2599 010e 00       		.uleb128 .LVU7
 2600 010f 00       		.uleb128 .LVU7
 2601 0110 00       		.uleb128 0
 2602              	.LLST1:
 2603 0111 00000000 		.4byte	.LVL0
 2604 0115 14000000 		.4byte	.LVL1
 2605 0119 0100     		.2byte	0x1
 2606 011b 51       		.byte	0x51
 2607 011c 14000000 		.4byte	.LVL1
 2608 0120 3C000000 		.4byte	.LFE1
 2609 0124 0100     		.2byte	0x1
 2610 0126 55       		.byte	0x55
 2611 0127 00000000 		.4byte	0
 2612 012b 00000000 		.4byte	0
 2613              	.LVUS2:
 2614 012f 00       		.uleb128 0
 2615 0130 00       		.uleb128 .LVU7
 2616 0131 00       		.uleb128 .LVU7
 2617 0132 00       		.uleb128 0
 2618              	.LLST2:
 2619 0133 00000000 		.4byte	.LVL0
 2620 0137 14000000 		.4byte	.LVL1
 2621 013b 0100     		.2byte	0x1
 2622 013d 52       		.byte	0x52
ARM GAS  /tmp/cc1Q7Bv1.s 			page 47


 2623 013e 14000000 		.4byte	.LVL1
 2624 0142 3C000000 		.4byte	.LFE1
 2625 0146 0400     		.2byte	0x4
 2626 0148 F3       		.byte	0xf3
 2627 0149 01       		.uleb128 0x1
 2628 014a 52       		.byte	0x52
 2629 014b 9F       		.byte	0x9f
 2630 014c 00000000 		.4byte	0
 2631 0150 00000000 		.4byte	0
 2632              		.section	.debug_aranges,"",%progbits
 2633 0000 24000000 		.4byte	0x24
 2634 0004 0200     		.2byte	0x2
 2635 0006 00000000 		.4byte	.Ldebug_info0
 2636 000a 04       		.byte	0x4
 2637 000b 00       		.byte	0
 2638 000c 0000     		.2byte	0
 2639 000e 0000     		.2byte	0
 2640 0010 00000000 		.4byte	.LFB1
 2641 0014 3C000000 		.4byte	.LFE1-.LFB1
 2642 0018 00000000 		.4byte	.LFB2
 2643 001c 34000000 		.4byte	.LFE2-.LFB2
 2644 0020 00000000 		.4byte	0
 2645 0024 00000000 		.4byte	0
 2646              		.section	.debug_ranges,"",%progbits
 2647              	.Ldebug_ranges0:
 2648 0000 00000000 		.4byte	.LFB1
 2649 0004 3C000000 		.4byte	.LFE1
 2650 0008 00000000 		.4byte	.LFB2
 2651 000c 34000000 		.4byte	.LFE2
 2652 0010 00000000 		.4byte	0
 2653 0014 00000000 		.4byte	0
 2654              		.section	.debug_line,"",%progbits
 2655              	.Ldebug_line0:
 2656 0000 B5010000 		.section	.debug_str,"MS",%progbits,1
 2656      03004D01 
 2656      00000201 
 2656      FB0E0D00 
 2656      01010101 
 2657              	.LASF38:
 2658 0000 5F64736F 		.ascii	"_dso_handle\000"
 2658      5F68616E 
 2658      646C6500 
 2659              	.LASF124:
 2660 000c 62797465 		.ascii	"bytecodeSize\000"
 2660      636F6465 
 2660      53697A65 
 2660      00
 2661              	.LASF121:
 2662 0019 75696E74 		.ascii	"uint16\000"
 2662      313600
 2663              	.LASF46:
 2664 0020 5F73697A 		.ascii	"_size\000"
 2664      6500
 2665              	.LASF136:
 2666 0026 41736562 		.ascii	"AsebaNativeFunctionArgumentDescription\000"
 2666      614E6174 
 2666      69766546 
ARM GAS  /tmp/cc1Q7Bv1.s 			page 48


 2666      756E6374 
 2666      696F6E41 
 2667              	.LASF127:
 2668 004d 76617269 		.ascii	"variables\000"
 2668      61626C65 
 2668      7300
 2669              	.LASF91:
 2670 0057 5F72616E 		.ascii	"_rand48\000"
 2670      64343800 
 2671              	.LASF70:
 2672 005f 5F656D65 		.ascii	"_emergency\000"
 2672      7267656E 
 2672      637900
 2673              	.LASF150:
 2674 006a 41736562 		.ascii	"AsebaNativeDescription_vecstat\000"
 2674      614E6174 
 2674      69766544 
 2674      65736372 
 2674      69707469 
 2675              	.LASF60:
 2676 0089 5F646174 		.ascii	"_data\000"
 2676      6100
 2677              	.LASF162:
 2678 008f 6D61784C 		.ascii	"maxLength\000"
 2678      656E6774 
 2678      6800
 2679              	.LASF111:
 2680 0099 5F776372 		.ascii	"_wcrtomb_state\000"
 2680      746F6D62 
 2680      5F737461 
 2680      746500
 2681              	.LASF112:
 2682 00a8 5F776373 		.ascii	"_wcsrtombs_state\000"
 2682      72746F6D 
 2682      62735F73 
 2682      74617465 
 2682      00
 2683              	.LASF126:
 2684 00b9 76617269 		.ascii	"variablesSize\000"
 2684      61626C65 
 2684      7353697A 
 2684      6500
 2685              	.LASF9:
 2686 00c7 6C6F6E67 		.ascii	"long long unsigned int\000"
 2686      206C6F6E 
 2686      6720756E 
 2686      7369676E 
 2686      65642069 
 2687              	.LASF50:
 2688 00de 5F6C6266 		.ascii	"_lbfsize\000"
 2688      73697A65 
 2688      00
 2689              	.LASF161:
 2690 00e7 64617461 		.ascii	"data\000"
 2690      00
 2691              	.LASF171:
 2692 00ec 5F5F6C6F 		.ascii	"__locale_t\000"
ARM GAS  /tmp/cc1Q7Bv1.s 			page 49


 2692      63616C65 
 2692      5F7400
 2693              	.LASF159:
 2694 00f7 41736562 		.ascii	"AsebaNativeDescription_vecnonzerosequence\000"
 2694      614E6174 
 2694      69766544 
 2694      65736372 
 2694      69707469 
 2695              	.LASF109:
 2696 0121 5F6D6272 		.ascii	"_mbrtowc_state\000"
 2696      746F7763 
 2696      5F737461 
 2696      746500
 2697              	.LASF156:
 2698 0130 41736562 		.ascii	"AsebaNativeDescription_mathcos\000"
 2698      614E6174 
 2698      69766544 
 2698      65736372 
 2698      69707469 
 2699              	.LASF104:
 2700 014f 5F776374 		.ascii	"_wctomb_state\000"
 2700      6F6D625F 
 2700      73746174 
 2700      6500
 2701              	.LASF27:
 2702 015d 5F5F746D 		.ascii	"__tm_sec\000"
 2702      5F736563 
 2702      00
 2703              	.LASF141:
 2704 0166 41736562 		.ascii	"AsebaNativeDescription_vecaddscalar\000"
 2704      614E6174 
 2704      69766544 
 2704      65736372 
 2704      69707469 
 2705              	.LASF1:
 2706 018a 6C6F6E67 		.ascii	"long long int\000"
 2706      206C6F6E 
 2706      6720696E 
 2706      7400
 2707              	.LASF3:
 2708 0198 7369676E 		.ascii	"signed char\000"
 2708      65642063 
 2708      68617200 
 2709              	.LASF167:
 2710 01a4 41736562 		.ascii	"AsebaCanSend\000"
 2710      6143616E 
 2710      53656E64 
 2710      00
 2711              	.LASF56:
 2712 01b1 5F756275 		.ascii	"_ubuf\000"
 2712      6600
 2713              	.LASF45:
 2714 01b7 5F626173 		.ascii	"_base\000"
 2714      6500
 2715              	.LASF29:
 2716 01bd 5F5F746D 		.ascii	"__tm_hour\000"
 2716      5F686F75 
ARM GAS  /tmp/cc1Q7Bv1.s 			page 50


 2716      7200
 2717              	.LASF85:
 2718 01c7 5F5F7366 		.ascii	"__sf\000"
 2718      00
 2719              	.LASF36:
 2720 01cc 5F6F6E5F 		.ascii	"_on_exit_args\000"
 2720      65786974 
 2720      5F617267 
 2720      7300
 2721              	.LASF51:
 2722 01da 5F636F6F 		.ascii	"_cookie\000"
 2722      6B696500 
 2723              	.LASF152:
 2724 01e2 41736562 		.ascii	"AsebaNativeDescription_vecsort\000"
 2724      614E6174 
 2724      69766544 
 2724      65736372 
 2724      69707469 
 2725              	.LASF84:
 2726 0201 5F5F7367 		.ascii	"__sglue\000"
 2726      6C756500 
 2727              	.LASF7:
 2728 0209 6C6F6E67 		.ascii	"long int\000"
 2728      20696E74 
 2728      00
 2729              	.LASF48:
 2730 0212 5F666C61 		.ascii	"_flags\000"
 2730      677300
 2731              	.LASF40:
 2732 0219 5F69735F 		.ascii	"_is_cxa\000"
 2732      63786100 
 2733              	.LASF66:
 2734 0221 5F737464 		.ascii	"_stdin\000"
 2734      696E00
 2735              	.LASF58:
 2736 0228 5F626C6B 		.ascii	"_blksize\000"
 2736      73697A65 
 2736      00
 2737              	.LASF122:
 2738 0231 75696E74 		.ascii	"uint8\000"
 2738      3800
 2739              	.LASF149:
 2740 0237 41736562 		.ascii	"AsebaNativeDescription_vecdot\000"
 2740      614E6174 
 2740      69766544 
 2740      65736372 
 2740      69707469 
 2741              	.LASF148:
 2742 0255 41736562 		.ascii	"AsebaNativeDescription_vecclamp\000"
 2742      614E6174 
 2742      69766544 
 2742      65736372 
 2742      69707469 
 2743              	.LASF80:
 2744 0275 5F637674 		.ascii	"_cvtbuf\000"
 2744      62756600 
 2745              	.LASF59:
ARM GAS  /tmp/cc1Q7Bv1.s 			page 51


 2746 027d 5F6F6666 		.ascii	"_offset\000"
 2746      73657400 
 2747              	.LASF110:
 2748 0285 5F6D6273 		.ascii	"_mbsrtowcs_state\000"
 2748      72746F77 
 2748      63735F73 
 2748      74617465 
 2748      00
 2749              	.LASF108:
 2750 0296 5F6D6272 		.ascii	"_mbrlen_state\000"
 2750      6C656E5F 
 2750      73746174 
 2750      6500
 2751              	.LASF37:
 2752 02a4 5F666E61 		.ascii	"_fnargs\000"
 2752      72677300 
 2753              	.LASF131:
 2754 02ac 62726561 		.ascii	"breakpoints\000"
 2754      6B706F69 
 2754      6E747300 
 2755              	.LASF143:
 2756 02b8 41736562 		.ascii	"AsebaNativeDescription_vecsub\000"
 2756      614E6174 
 2756      69766544 
 2756      65736372 
 2756      69707469 
 2757              	.LASF43:
 2758 02d6 5F666E73 		.ascii	"_fns\000"
 2758      00
 2759              	.LASF23:
 2760 02db 5F736967 		.ascii	"_sign\000"
 2760      6E00
 2761              	.LASF142:
 2762 02e1 41736562 		.ascii	"AsebaNativeDescription_vecadd\000"
 2762      614E6174 
 2762      69766544 
 2762      65736372 
 2762      69707469 
 2763              	.LASF20:
 2764 02ff 5F666C6F 		.ascii	"_flock_t\000"
 2764      636B5F74 
 2764      00
 2765              	.LASF68:
 2766 0308 5F737464 		.ascii	"_stderr\000"
 2766      65727200 
 2767              	.LASF25:
 2768 0310 5F426967 		.ascii	"_Bigint\000"
 2768      696E7400 
 2769              	.LASF99:
 2770 0318 5F67616D 		.ascii	"_gamma_signgam\000"
 2770      6D615F73 
 2770      69676E67 
 2770      616D00
 2771              	.LASF52:
 2772 0327 5F726561 		.ascii	"_read\000"
 2772      6400
 2773              	.LASF76:
ARM GAS  /tmp/cc1Q7Bv1.s 			page 52


 2774 032d 5F726573 		.ascii	"_result_k\000"
 2774      756C745F 
 2774      6B00
 2775              	.LASF26:
 2776 0337 5F5F746D 		.ascii	"__tm\000"
 2776      00
 2777              	.LASF160:
 2778 033c 41736562 		.ascii	"AsebaNativeDescription_rand\000"
 2778      614E6174 
 2778      69766544 
 2778      65736372 
 2778      69707469 
 2779              	.LASF0:
 2780 0358 756E7369 		.ascii	"unsigned int\000"
 2780      676E6564 
 2780      20696E74 
 2780      00
 2781              	.LASF14:
 2782 0365 5F5F7763 		.ascii	"__wchb\000"
 2782      686200
 2783              	.LASF67:
 2784 036c 5F737464 		.ascii	"_stdout\000"
 2784      6F757400 
 2785              	.LASF79:
 2786 0374 5F637674 		.ascii	"_cvtlen\000"
 2786      6C656E00 
 2787              	.LASF8:
 2788 037c 6C6F6E67 		.ascii	"long unsigned int\000"
 2788      20756E73 
 2788      69676E65 
 2788      6420696E 
 2788      7400
 2789              	.LASF49:
 2790 038e 5F66696C 		.ascii	"_file\000"
 2790      6500
 2791              	.LASF158:
 2792 0394 41736562 		.ascii	"AsebaNativeDescription_mathsqrt\000"
 2792      614E6174 
 2792      69766544 
 2792      65736372 
 2792      69707469 
 2793              	.LASF135:
 2794 03b4 6E616D65 		.ascii	"name\000"
 2794      00
 2795              	.LASF170:
 2796 03b9 2F686F6D 		.ascii	"/home/olof/Documents/MICRO-315/micro-315/tp4/lib/e-"
 2796      652F6F6C 
 2796      6F662F44 
 2796      6F63756D 
 2796      656E7473 
 2797 03ec 7075636B 		.ascii	"puck2_main-processor\000"
 2797      325F6D61 
 2797      696E2D70 
 2797      726F6365 
 2797      73736F72 
 2798              	.LASF144:
 2799 0401 41736562 		.ascii	"AsebaNativeDescription_vecmul\000"
ARM GAS  /tmp/cc1Q7Bv1.s 			page 53


 2799      614E6174 
 2799      69766544 
 2799      65736372 
 2799      69707469 
 2800              	.LASF89:
 2801 041f 5F6E696F 		.ascii	"_niobs\000"
 2801      627300
 2802              	.LASF123:
 2803 0426 6E6F6465 		.ascii	"nodeId\000"
 2803      496400
 2804              	.LASF134:
 2805 042d 73697A65 		.ascii	"size\000"
 2805      00
 2806              	.LASF6:
 2807 0432 73686F72 		.ascii	"short unsigned int\000"
 2807      7420756E 
 2807      7369676E 
 2807      65642069 
 2807      6E7400
 2808              	.LASF137:
 2809 0445 61726775 		.ascii	"arguments\000"
 2809      6D656E74 
 2809      7300
 2810              	.LASF82:
 2811 044f 5F617465 		.ascii	"_atexit0\000"
 2811      78697430 
 2811      00
 2812              	.LASF106:
 2813 0458 5F736967 		.ascii	"_signal_buf\000"
 2813      6E616C5F 
 2813      62756600 
 2814              	.LASF97:
 2815 0464 5F617363 		.ascii	"_asctime_buf\000"
 2815      74696D65 
 2815      5F627566 
 2815      00
 2816              	.LASF75:
 2817 0471 5F726573 		.ascii	"_result\000"
 2817      756C7400 
 2818              	.LASF13:
 2819 0479 5F5F7763 		.ascii	"__wch\000"
 2819      6800
 2820              	.LASF166:
 2821 047f 41736562 		.ascii	"AsebaIdle\000"
 2821      6149646C 
 2821      6500
 2822              	.LASF10:
 2823 0489 77696E74 		.ascii	"wint_t\000"
 2823      5F7400
 2824              	.LASF61:
 2825 0490 5F6C6F63 		.ascii	"_lock\000"
 2825      6B00
 2826              	.LASF155:
 2827 0496 41736562 		.ascii	"AsebaNativeDescription_mathsin\000"
 2827      614E6174 
 2827      69766544 
 2827      65736372 
ARM GAS  /tmp/cc1Q7Bv1.s 			page 54


 2827      69707469 
 2828              	.LASF145:
 2829 04b5 41736562 		.ascii	"AsebaNativeDescription_vecdiv\000"
 2829      614E6174 
 2829      69766544 
 2829      65736372 
 2829      69707469 
 2830              	.LASF63:
 2831 04d3 5F666C61 		.ascii	"_flags2\000"
 2831      67733200 
 2832              	.LASF125:
 2833 04db 62797465 		.ascii	"bytecode\000"
 2833      636F6465 
 2833      00
 2834              	.LASF120:
 2835 04e4 73696E74 		.ascii	"sint16\000"
 2835      313600
 2836              	.LASF154:
 2837 04eb 41736562 		.ascii	"AsebaNativeDescription_mathatan2\000"
 2837      614E6174 
 2837      69766544 
 2837      65736372 
 2837      69707469 
 2838              	.LASF53:
 2839 050c 5F777269 		.ascii	"_write\000"
 2839      746500
 2840              	.LASF32:
 2841 0513 5F5F746D 		.ascii	"__tm_year\000"
 2841      5F796561 
 2841      7200
 2842              	.LASF133:
 2843 051d 41736562 		.ascii	"AsebaVMState\000"
 2843      61564D53 
 2843      74617465 
 2843      00
 2844              	.LASF163:
 2845 052a 736F7572 		.ascii	"source\000"
 2845      636500
 2846              	.LASF2:
 2847 0531 6C6F6E67 		.ascii	"long double\000"
 2847      20646F75 
 2847      626C6500 
 2848              	.LASF114:
 2849 053d 5F6E6578 		.ascii	"_nextf\000"
 2849      746600
 2850              	.LASF31:
 2851 0544 5F5F746D 		.ascii	"__tm_mon\000"
 2851      5F6D6F6E 
 2851      00
 2852              	.LASF41:
 2853 054d 5F617465 		.ascii	"_atexit\000"
 2853      78697400 
 2854              	.LASF119:
 2855 0555 7375626F 		.ascii	"suboptarg\000"
 2855      70746172 
 2855      6700
 2856              	.LASF168:
ARM GAS  /tmp/cc1Q7Bv1.s 			page 55


 2857 055f 474E5520 		.ascii	"GNU C17 9.2.1 20191025 (release) [ARM/arm-9-branch "
 2857      43313720 
 2857      392E322E 
 2857      31203230 
 2857      31393130 
 2858 0592 72657669 		.ascii	"revision 277599] -mcpu=cortex-m4 -mfloat-abi=hard -"
 2858      73696F6E 
 2858      20323737 
 2858      3539395D 
 2858      202D6D63 
 2859 05c5 6D667075 		.ascii	"mfpu=fpv4-sp-d16 -mno-thumb-interwork -mthumb -marc"
 2859      3D667076 
 2859      342D7370 
 2859      2D643136 
 2859      202D6D6E 
 2860 05f8 683D6172 		.ascii	"h=armv7e-m+fp -ggdb -O2 -fomit-frame-pointer -falig"
 2860      6D763765 
 2860      2D6D2B66 
 2860      70202D67 
 2860      67646220 
 2861 062b 6E2D6675 		.ascii	"n-functions=16 -fno-strict-aliasing -fstack-protect"
 2861      6E637469 
 2861      6F6E733D 
 2861      3136202D 
 2861      666E6F2D 
 2862 065e 6F722D61 		.ascii	"or-all -ffunction-sections -fdata-sections -fno-com"
 2862      6C6C202D 
 2862      6666756E 
 2862      6374696F 
 2862      6E2D7365 
 2863 0691 6D6F6E20 		.ascii	"mon -fsingle-precision-constant\000"
 2863      2D667369 
 2863      6E676C65 
 2863      2D707265 
 2863      63697369 
 2864              	.LASF73:
 2865 06b1 5F5F7364 		.ascii	"__sdidinit\000"
 2865      6964696E 
 2865      697400
 2866              	.LASF11:
 2867 06bc 5F6F6666 		.ascii	"_off_t\000"
 2867      5F7400
 2868              	.LASF78:
 2869 06c3 5F667265 		.ascii	"_freelist\000"
 2869      656C6973 
 2869      7400
 2870              	.LASF169:
 2871 06cd 2E2F2F61 		.ascii	".//aseba/transport/can/can-buffer.c\000"
 2871      73656261 
 2871      2F747261 
 2871      6E73706F 
 2871      72742F63 
 2872              	.LASF19:
 2873 06f1 5F4C4F43 		.ascii	"_LOCK_RECURSIVE_T\000"
 2873      4B5F5245 
 2873      43555253 
 2873      4956455F 
ARM GAS  /tmp/cc1Q7Bv1.s 			page 56


 2873      5400
 2874              	.LASF132:
 2875 0703 62726561 		.ascii	"breakpointsCount\000"
 2875      6B706F69 
 2875      6E747343 
 2875      6F756E74 
 2875      00
 2876              	.LASF4:
 2877 0714 756E7369 		.ascii	"unsigned char\000"
 2877      676E6564 
 2877      20636861 
 2877      7200
 2878              	.LASF81:
 2879 0722 5F6E6577 		.ascii	"_new\000"
 2879      00
 2880              	.LASF113:
 2881 0727 5F685F65 		.ascii	"_h_errno\000"
 2881      72726E6F 
 2881      00
 2882              	.LASF5:
 2883 0730 73686F72 		.ascii	"short int\000"
 2883      7420696E 
 2883      7400
 2884              	.LASF34:
 2885 073a 5F5F746D 		.ascii	"__tm_yday\000"
 2885      5F796461 
 2885      7900
 2886              	.LASF44:
 2887 0744 5F5F7362 		.ascii	"__sbuf\000"
 2887      756600
 2888              	.LASF90:
 2889 074b 5F696F62 		.ascii	"_iobs\000"
 2889      7300
 2890              	.LASF87:
 2891 0751 5F5F4649 		.ascii	"__FILE\000"
 2891      4C4500
 2892              	.LASF17:
 2893 0758 5F6D6273 		.ascii	"_mbstate_t\000"
 2893      74617465 
 2893      5F7400
 2894              	.LASF47:
 2895 0763 5F5F7346 		.ascii	"__sFILE\000"
 2895      494C4500 
 2896              	.LASF62:
 2897 076b 5F6D6273 		.ascii	"_mbstate\000"
 2897      74617465 
 2897      00
 2898              	.LASF100:
 2899 0774 5F72616E 		.ascii	"_rand_next\000"
 2899      645F6E65 
 2899      787400
 2900              	.LASF139:
 2901 077f 41736562 		.ascii	"AsebaNativeDescription_veccopy\000"
 2901      614E6174 
 2901      69766544 
 2901      65736372 
 2901      69707469 
ARM GAS  /tmp/cc1Q7Bv1.s 			page 57


 2902              	.LASF102:
 2903 079e 5F6D626C 		.ascii	"_mblen_state\000"
 2903      656E5F73 
 2903      74617465 
 2903      00
 2904              	.LASF69:
 2905 07ab 5F696E63 		.ascii	"_inc\000"
 2905      00
 2906              	.LASF42:
 2907 07b0 5F696E64 		.ascii	"_ind\000"
 2907      00
 2908              	.LASF72:
 2909 07b5 5F6C6F63 		.ascii	"_locale\000"
 2909      616C6500 
 2910              	.LASF74:
 2911 07bd 5F5F636C 		.ascii	"__cleanup\000"
 2911      65616E75 
 2911      7000
 2912              	.LASF71:
 2913 07c7 5F756E73 		.ascii	"_unspecified_locale_info\000"
 2913      70656369 
 2913      66696564 
 2913      5F6C6F63 
 2913      616C655F 
 2914              	.LASF174:
 2915 07e0 5F5F7374 		.ascii	"__stack_chk_fail\000"
 2915      61636B5F 
 2915      63686B5F 
 2915      6661696C 
 2915      00
 2916              	.LASF22:
 2917 07f1 5F6D6178 		.ascii	"_maxwds\000"
 2917      77647300 
 2918              	.LASF64:
 2919 07f9 5F726565 		.ascii	"_reent\000"
 2919      6E7400
 2920              	.LASF92:
 2921 0800 5F736565 		.ascii	"_seed\000"
 2921      6400
 2922              	.LASF15:
 2923 0806 5F5F636F 		.ascii	"__count\000"
 2923      756E7400 
 2924              	.LASF16:
 2925 080e 5F5F7661 		.ascii	"__value\000"
 2925      6C756500 
 2926              	.LASF153:
 2927 0816 41736562 		.ascii	"AsebaNativeDescription_mathmuldiv\000"
 2927      614E6174 
 2927      69766544 
 2927      65736372 
 2927      69707469 
 2928              	.LASF54:
 2929 0838 5F736565 		.ascii	"_seek\000"
 2929      6B00
 2930              	.LASF117:
 2931 083e 5F696D70 		.ascii	"_impure_ptr\000"
 2931      7572655F 
ARM GAS  /tmp/cc1Q7Bv1.s 			page 58


 2931      70747200 
 2932              	.LASF12:
 2933 084a 5F66706F 		.ascii	"_fpos_t\000"
 2933      735F7400 
 2934              	.LASF65:
 2935 0852 5F657272 		.ascii	"_errno\000"
 2935      6E6F00
 2936              	.LASF86:
 2937 0859 63686172 		.ascii	"char\000"
 2937      00
 2938              	.LASF147:
 2939 085e 41736562 		.ascii	"AsebaNativeDescription_vecmax\000"
 2939      614E6174 
 2939      69766544 
 2939      65736372 
 2939      69707469 
 2940              	.LASF28:
 2941 087c 5F5F746D 		.ascii	"__tm_min\000"
 2941      5F6D696E 
 2941      00
 2942              	.LASF128:
 2943 0885 73746163 		.ascii	"stackSize\000"
 2943      6B53697A 
 2943      6500
 2944              	.LASF93:
 2945 088f 5F6D756C 		.ascii	"_mult\000"
 2945      7400
 2946              	.LASF21:
 2947 0895 5F6E6578 		.ascii	"_next\000"
 2947      7400
 2948              	.LASF96:
 2949 089b 5F737472 		.ascii	"_strtok_last\000"
 2949      746F6B5F 
 2949      6C617374 
 2949      00
 2950              	.LASF39:
 2951 08a8 5F666E74 		.ascii	"_fntypes\000"
 2951      79706573 
 2951      00
 2952              	.LASF146:
 2953 08b1 41736562 		.ascii	"AsebaNativeDescription_vecmin\000"
 2953      614E6174 
 2953      69766544 
 2953      65736372 
 2953      69707469 
 2954              	.LASF173:
 2955 08cf 41736562 		.ascii	"AsebaSendBuffer\000"
 2955      6153656E 
 2955      64427566 
 2955      66657200 
 2956              	.LASF94:
 2957 08df 5F616464 		.ascii	"_add\000"
 2957      00
 2958              	.LASF18:
 2959 08e4 5F5F554C 		.ascii	"__ULong\000"
 2959      6F6E6700 
 2960              	.LASF107:
ARM GAS  /tmp/cc1Q7Bv1.s 			page 59


 2961 08ec 5F676574 		.ascii	"_getdate_err\000"
 2961      64617465 
 2961      5F657272 
 2961      00
 2962              	.LASF151:
 2963 08f9 41736562 		.ascii	"AsebaNativeDescription_vecargbounds\000"
 2963      614E6174 
 2963      69766544 
 2963      65736372 
 2963      69707469 
 2964              	.LASF118:
 2965 091d 5F676C6F 		.ascii	"_global_impure_ptr\000"
 2965      62616C5F 
 2965      696D7075 
 2965      72655F70 
 2965      747200
 2966              	.LASF95:
 2967 0930 5F756E75 		.ascii	"_unused_rand\000"
 2967      7365645F 
 2967      72616E64 
 2967      00
 2968              	.LASF172:
 2969 093d 41736562 		.ascii	"AsebaGetBuffer\000"
 2969      61476574 
 2969      42756666 
 2969      657200
 2970              	.LASF24:
 2971 094c 5F776473 		.ascii	"_wds\000"
 2971      00
 2972              	.LASF33:
 2973 0951 5F5F746D 		.ascii	"__tm_wday\000"
 2973      5F776461 
 2973      7900
 2974              	.LASF88:
 2975 095b 5F676C75 		.ascii	"_glue\000"
 2975      6500
 2976              	.LASF140:
 2977 0961 41736562 		.ascii	"AsebaNativeDescription_vecfill\000"
 2977      614E6174 
 2977      69766544 
 2977      65736372 
 2977      69707469 
 2978              	.LASF115:
 2979 0980 5F6E6D61 		.ascii	"_nmalloc\000"
 2979      6C6C6F63 
 2979      00
 2980              	.LASF105:
 2981 0989 5F6C3634 		.ascii	"_l64a_buf\000"
 2981      615F6275 
 2981      6600
 2982              	.LASF130:
 2983 0993 666C6167 		.ascii	"flags\000"
 2983      7300
 2984              	.LASF83:
 2985 0999 5F736967 		.ascii	"_sig_func\000"
 2985      5F66756E 
 2985      6300
ARM GAS  /tmp/cc1Q7Bv1.s 			page 60


 2986              	.LASF129:
 2987 09a3 73746163 		.ascii	"stack\000"
 2987      6B00
 2988              	.LASF164:
 2989 09a9 6C656E67 		.ascii	"length\000"
 2989      746800
 2990              	.LASF57:
 2991 09b0 5F6E6275 		.ascii	"_nbuf\000"
 2991      6600
 2992              	.LASF116:
 2993 09b6 5F756E75 		.ascii	"_unused\000"
 2993      73656400 
 2994              	.LASF157:
 2995 09be 41736562 		.ascii	"AsebaNativeDescription_mathrot2\000"
 2995      614E6174 
 2995      69766544 
 2995      65736372 
 2995      69707469 
 2996              	.LASF138:
 2997 09de 41736562 		.ascii	"AsebaNativeFunctionDescription\000"
 2997      614E6174 
 2997      69766546 
 2997      756E6374 
 2997      696F6E44 
 2998              	.LASF35:
 2999 09fd 5F5F746D 		.ascii	"__tm_isdst\000"
 2999      5F697364 
 2999      737400
 3000              	.LASF98:
 3001 0a08 5F6C6F63 		.ascii	"_localtime_buf\000"
 3001      616C7469 
 3001      6D655F62 
 3001      756600
 3002              	.LASF55:
 3003 0a17 5F636C6F 		.ascii	"_close\000"
 3003      736500
 3004              	.LASF101:
 3005 0a1e 5F723438 		.ascii	"_r48\000"
 3005      00
 3006              	.LASF103:
 3007 0a23 5F6D6274 		.ascii	"_mbtowc_state\000"
 3007      6F77635F 
 3007      73746174 
 3007      6500
 3008              	.LASF77:
 3009 0a31 5F703573 		.ascii	"_p5s\000"
 3009      00
 3010              	.LASF165:
 3011 0a36 41736562 		.ascii	"AsebaCanRecv\000"
 3011      6143616E 
 3011      52656376 
 3011      00
 3012              	.LASF30:
 3013 0a43 5F5F746D 		.ascii	"__tm_mday\000"
 3013      5F6D6461 
 3013      7900
 3014              		.ident	"GCC: (15:9-2019-q4-0ubuntu1) 9.2.1 20191025 (release) [ARM/arm-9-branch revision 277599]"
ARM GAS  /tmp/cc1Q7Bv1.s 			page 61


ARM GAS  /tmp/cc1Q7Bv1.s 			page 62


DEFINED SYMBOLS
                            *ABS*:0000000000000000 can-buffer.c
     /tmp/cc1Q7Bv1.s:18     .rodata.AsebaSendBuffer.cst4:0000000000000000 $d
     /tmp/cc1Q7Bv1.s:22     .text.AsebaSendBuffer:0000000000000000 $t
     /tmp/cc1Q7Bv1.s:31     .text.AsebaSendBuffer:0000000000000000 AsebaSendBuffer
     /tmp/cc1Q7Bv1.s:94     .text.AsebaSendBuffer:0000000000000038 $d
     /tmp/cc1Q7Bv1.s:99     .rodata.AsebaGetBuffer.cst4:0000000000000000 $d
     /tmp/cc1Q7Bv1.s:103    .text.AsebaGetBuffer:0000000000000000 $t
     /tmp/cc1Q7Bv1.s:111    .text.AsebaGetBuffer:0000000000000000 AsebaGetBuffer
     /tmp/cc1Q7Bv1.s:169    .text.AsebaGetBuffer:0000000000000030 $d

UNDEFINED SYMBOLS
__stack_chk_guard
AsebaIdle
AsebaCanSend
__stack_chk_fail
AsebaCanRecv
