ARM GAS  /tmp/cc1Q7Bv1.s 			page 1


   1              		.cpu cortex-m4
   2              		.eabi_attribute 27, 1
   3              		.eabi_attribute 28, 1
   4              		.eabi_attribute 20, 1
   5              		.eabi_attribute 21, 1
   6              		.eabi_attribute 23, 3
   7              		.eabi_attribute 24, 1
   8              		.eabi_attribute 25, 1
   9              		.eabi_attribute 26, 1
  10              		.eabi_attribute 30, 2
  11              		.eabi_attribute 34, 1
  12              		.eabi_attribute 18, 4
  13              		.file	"can-buffer.c"
  14              		.text
  15              	.Ltext0:
  16              		.cfi_sections	.debug_frame
  17              		.section	.rodata.AsebaSendBuffer.cst4,"aM",%progbits,4
  18              		.align	2
  19              	.LC0:
  20 0000 00000000 		.word	__stack_chk_guard
  21              		.section	.text.AsebaSendBuffer,"ax",%progbits
  22              		.align	1
  23              		.p2align 4,,15
  24              		.global	AsebaSendBuffer
  25              		.arch armv7e-m
  26              		.syntax unified
  27              		.thumb
  28              		.thumb_func
  29              		.fpu fpv4-sp-d16
  30              		.type	AsebaSendBuffer, %function
  31              	AsebaSendBuffer:
  32              	.LVL0:
  33              	.LFB1:
  34              		.file 1 ".//aseba/transport/can/can-buffer.c"
  35              		.loc 1 26 1 view -0
  36              		.cfi_startproc
  37              		@ args = 0, pretend = 0, frame = 8
  38              		@ frame_needed = 0, uses_anonymous_args = 0
  39              		.loc 1 26 1 is_stmt 0 view .LVU1
  40 0000 30B5     		push	{r4, r5, lr}
  41              		.cfi_def_cfa_offset 12
  42              		.cfi_offset 4, -12
  43              		.cfi_offset 5, -8
  44              		.cfi_offset 14, -4
  45 0002 0D4B     		ldr	r3, .L8
  46 0004 83B0     		sub	sp, sp, #12
  47              		.cfi_def_cfa_offset 24
  48              		.loc 1 26 1 view .LVU2
  49 0006 0D46     		mov	r5, r1
  50 0008 1446     		mov	r4, r2
  51 000a 1B68     		ldr	r3, [r3]
  52 000c 0193     		str	r3, [sp, #4]
  53 000e 4FF00003 		mov	r3,#0
  54              		.loc 1 27 2 is_stmt 1 view .LVU3
  55              		.loc 1 27 18 view .LVU4
  56              		.loc 1 28 2 view .LVU5
  57              		.loc 1 28 8 is_stmt 0 view .LVU6
ARM GAS  /tmp/cc1Q7Bv1.s 			page 2


  58 0012 01E0     		b	.L2
  59              	.LVL1:
  60              	.L3:
  61              		.loc 1 29 3 is_stmt 1 view .LVU7
  62 0014 FFF7FEFF 		bl	AsebaIdle
  63              	.LVL2:
  64              	.L2:
  65              		.loc 1 28 8 view .LVU8
  66              		.loc 1 28 9 is_stmt 0 view .LVU9
  67 0018 2146     		mov	r1, r4
  68 001a 2846     		mov	r0, r5
  69 001c FFF7FEFF 		bl	AsebaCanSend
  70              	.LVL3:
  71              		.loc 1 28 8 view .LVU10
  72 0020 0028     		cmp	r0, #0
  73 0022 F7D0     		beq	.L3
  74              		.loc 1 30 1 view .LVU11
  75 0024 044B     		ldr	r3, .L8
  76 0026 1A68     		ldr	r2, [r3]
  77 0028 019B     		ldr	r3, [sp, #4]
  78 002a 5A40     		eors	r2, r3, r2
  79 002c 01D1     		bne	.L7
  80 002e 03B0     		add	sp, sp, #12
  81              		.cfi_remember_state
  82              		.cfi_def_cfa_offset 12
  83              		@ sp needed
  84 0030 30BD     		pop	{r4, r5, pc}
  85              	.LVL4:
  86              	.L7:
  87              		.cfi_restore_state
  88              		.loc 1 30 1 view .LVU12
  89 0032 FFF7FEFF 		bl	__stack_chk_fail
  90              	.LVL5:
  91              	.L9:
  92 0036 00BF     		.align	2
  93              	.L8:
  94 0038 00000000 		.word	.LC0
  95              		.cfi_endproc
  96              	.LFE1:
  97              		.size	AsebaSendBuffer, .-AsebaSendBuffer
  98              		.section	.rodata.AsebaGetBuffer.cst4,"aM",%progbits,4
  99              		.align	2
 100              	.LC1:
 101 0000 00000000 		.word	__stack_chk_guard
 102              		.section	.text.AsebaGetBuffer,"ax",%progbits
 103              		.align	1
 104              		.p2align 4,,15
 105              		.global	AsebaGetBuffer
 106              		.syntax unified
 107              		.thumb
 108              		.thumb_func
 109              		.fpu fpv4-sp-d16
 110              		.type	AsebaGetBuffer, %function
 111              	AsebaGetBuffer:
 112              	.LVL6:
 113              	.LFB2:
 114              		.loc 1 33 1 is_stmt 1 view -0
ARM GAS  /tmp/cc1Q7Bv1.s 			page 3


 115              		.cfi_startproc
 116              		@ args = 0, pretend = 0, frame = 8
 117              		@ frame_needed = 0, uses_anonymous_args = 0
 118              		.loc 1 33 1 is_stmt 0 view .LVU14
 119 0000 00B5     		push	{lr}
 120              		.cfi_def_cfa_offset 4
 121              		.cfi_offset 14, -4
 122 0002 0846     		mov	r0, r1
 123              	.LVL7:
 124              		.loc 1 33 1 view .LVU15
 125 0004 1146     		mov	r1, r2
 126              	.LVL8:
 127              		.loc 1 33 1 view .LVU16
 128 0006 1A46     		mov	r2, r3
 129              	.LVL9:
 130              		.loc 1 33 1 view .LVU17
 131 0008 094B     		ldr	r3, .L15
 132              	.LVL10:
 133              		.loc 1 33 1 view .LVU18
 134 000a 83B0     		sub	sp, sp, #12
 135              		.cfi_def_cfa_offset 16
 136              		.loc 1 33 1 view .LVU19
 137 000c 1B68     		ldr	r3, [r3]
 138 000e 0193     		str	r3, [sp, #4]
 139 0010 4FF00003 		mov	r3,#0
 140              		.loc 1 34 2 is_stmt 1 view .LVU20
 141              		.loc 1 34 18 view .LVU21
 142              		.loc 1 35 2 view .LVU22
 143              		.loc 1 35 9 is_stmt 0 view .LVU23
 144 0014 064B     		ldr	r3, .L15
 145 0016 D3F800C0 		ldr	ip, [r3]
 146 001a 019B     		ldr	r3, [sp, #4]
 147 001c 93EA0C0C 		eors	ip, r3, ip
 148 0020 04D1     		bne	.L14
 149              		.loc 1 36 1 view .LVU24
 150 0022 03B0     		add	sp, sp, #12
 151              		.cfi_remember_state
 152              		.cfi_def_cfa_offset 4
 153              		@ sp needed
 154 0024 5DF804EB 		ldr	lr, [sp], #4
 155              		.cfi_restore 14
 156              		.cfi_def_cfa_offset 0
 157              		.loc 1 35 9 view .LVU25
 158 0028 FFF7FEBF 		b	AsebaCanRecv
 159              	.LVL11:
 160              	.L14:
 161              		.cfi_restore_state
 162              		.loc 1 35 9 view .LVU26
 163 002c FFF7FEFF 		bl	__stack_chk_fail
 164              	.LVL12:
 165              	.L16:
 166              		.loc 1 35 9 view .LVU27
 167              		.align	2
 168              	.L15:
 169 0030 00000000 		.word	.LC1
 170              		.cfi_endproc
 171              	.LFE2:
ARM GAS  /tmp/cc1Q7Bv1.s 			page 4


 172              		.size	AsebaGetBuffer, .-AsebaGetBuffer
 173              		.text
 174              	.Letext0:
 175              		.file 2 "/usr/lib/gcc/arm-none-eabi/9.2.1/include/stddef.h"
 176              		.file 3 "/usr/include/newlib/sys/_types.h"
 177              		.file 4 "/usr/include/newlib/sys/reent.h"
 178              		.file 5 "/usr/include/newlib/sys/lock.h"
 179              		.file 6 "/usr/include/newlib/stdlib.h"
 180              		.file 7 ".//aseba/transport/can/../buffer/../../common/types.h"
 181              		.file 8 ".//aseba/transport/can/../buffer/../../vm/vm.h"
 182              		.file 9 ".//aseba/transport/can/../buffer/../../vm/natives.h"
 183              		.file 10 ".//aseba/transport/can/can-net.h"