ARM GAS  /tmp/cccUr8Dk.s 			page 1


   1              		.cpu cortex-m4
   2              		.eabi_attribute 27, 1
   3              		.eabi_attribute 28, 1
   4              		.eabi_attribute 20, 1
   5              		.eabi_attribute 21, 1
   6              		.eabi_attribute 23, 3
   7              		.eabi_attribute 24, 1
   8              		.eabi_attribute 25, 1
   9              		.eabi_attribute 26, 1
  10              		.eabi_attribute 30, 2
  11              		.eabi_attribute 34, 1
  12              		.eabi_attribute 18, 4
  13              		.file	"can-net.c"
  14              		.text
  15              	.Ltext0:
  16              		.cfi_sections	.debug_frame
  17              		.section	.rodata.AsebaCanSendQueueToPhysicalLayer.cst4,"aM",%progbits,4
  18              		.align	2
  19              	.LC0:
  20 0000 00000000 		.word	__stack_chk_guard
  21              		.section	.text.AsebaCanSendQueueToPhysicalLayer,"ax",%progbits
  22              		.align	1
  23              		.p2align 4,,15
  24              		.arch armv7e-m
  25              		.syntax unified
  26              		.thumb
  27              		.thumb_func
  28              		.fpu fpv4-sp-d16
  29              		.type	AsebaCanSendQueueToPhysicalLayer, %function
  30              	AsebaCanSendQueueToPhysicalLayer:
  31              	.LFB4:
  32              		.file 1 ".//aseba/transport/can/can-net.c"
  33              		.loc 1 113 1 view -0
  34              		.cfi_startproc
  35              		@ args = 0, pretend = 0, frame = 8
  36              		@ frame_needed = 0, uses_anonymous_args = 0
  37 0000 70B5     		push	{r4, r5, r6, lr}
  38              		.cfi_def_cfa_offset 16
  39              		.cfi_offset 4, -16
  40              		.cfi_offset 5, -12
  41              		.cfi_offset 6, -8
  42              		.cfi_offset 14, -4
  43 0002 1B4B     		ldr	r3, .L20
  44 0004 1B4C     		ldr	r4, .L20+4
  45 0006 82B0     		sub	sp, sp, #8
  46              		.cfi_def_cfa_offset 24
  47              		.loc 1 113 1 is_stmt 0 view .LVU1
  48 0008 1B68     		ldr	r3, [r3]
  49 000a 0193     		str	r3, [sp, #4]
  50 000c 4FF00003 		mov	r3,#0
  51              		.loc 1 114 2 is_stmt 1 view .LVU2
  52              		.loc 1 116 2 view .LVU3
  53              		.loc 1 118 26 is_stmt 0 view .LVU4
  54 0010 0125     		movs	r5, #1
  55              		.loc 1 121 27 view .LVU5
  56 0012 0026     		movs	r6, #0
  57              	.L2:
ARM GAS  /tmp/cccUr8Dk.s 			page 2


  58              		.loc 1 116 8 is_stmt 1 view .LVU6
  59              		.loc 1 116 9 is_stmt 0 view .LVU7
  60 0014 A368     		ldr	r3, [r4, #8]
  61 0016 9847     		blx	r3
  62              	.LVL0:
  63              		.loc 1 116 8 view .LVU8
  64 0018 F8B1     		cbz	r0, .L1
  65              	.L18:
  66              		.loc 1 116 34 discriminator 1 view .LVU9
  67 001a E28B     		ldrh	r2, [r4, #30]
  68 001c A38B     		ldrh	r3, [r4, #28]
  69 001e 9A42     		cmp	r2, r3
  70 0020 1BD0     		beq	.L1
  71              		.loc 1 118 3 is_stmt 1 view .LVU10
  72              		.loc 1 119 8 is_stmt 0 view .LVU11
  73 0022 A368     		ldr	r3, [r4, #8]
  74              		.loc 1 118 26 view .LVU12
  75 0024 A585     		strh	r5, [r4, #44]	@ movhi
  76              		.loc 1 119 3 is_stmt 1 view .LVU13
  77              		.loc 1 119 8 is_stmt 0 view .LVU14
  78 0026 9847     		blx	r3
  79              	.LVL1:
  80              		.loc 1 119 5 view .LVU15
  81 0028 F0B1     		cbz	r0, .L3
  82              		.loc 1 119 45 discriminator 1 view .LVU16
  83 002a E38B     		ldrh	r3, [r4, #30]
  84              		.loc 1 119 6 discriminator 1 view .LVU17
  85 002c A28B     		ldrh	r2, [r4, #28]
  86 002e 9A42     		cmp	r2, r3
  87 0030 1AD0     		beq	.L3
  88              		.loc 1 125 3 is_stmt 1 view .LVU18
  89              		.loc 1 125 43 is_stmt 0 view .LVU19
  90 0032 6069     		ldr	r0, [r4, #20]
  91              		.loc 1 125 3 view .LVU20
  92 0034 6268     		ldr	r2, [r4, #4]
  93              		.loc 1 125 43 view .LVU21
  94 0036 03EB4303 		add	r3, r3, r3, lsl #1
  95              		.loc 1 125 3 view .LVU22
  96 003a 00EB8300 		add	r0, r0, r3, lsl #2
  97 003e 9047     		blx	r2
  98              	.LVL2:
  99              		.loc 1 127 3 is_stmt 1 view .LVU23
 100              		.loc 1 127 8 is_stmt 0 view .LVU24
 101 0040 E38B     		ldrh	r3, [r4, #30]
 102              		.loc 1 128 6 view .LVU25
 103 0042 A269     		ldr	r2, [r4, #24]
 104              		.loc 1 131 26 view .LVU26
 105 0044 A685     		strh	r6, [r4, #44]	@ movhi
 106              		.loc 1 127 8 view .LVU27
 107 0046 0133     		adds	r3, r3, #1
 108 0048 9BB2     		uxth	r3, r3
 109              	.LVL3:
 110              		.loc 1 128 3 is_stmt 1 view .LVU28
 111              		.loc 1 129 9 is_stmt 0 view .LVU29
 112 004a 9342     		cmp	r3, r2
 113 004c 28BF     		it	cs
 114 004e 0023     		movcs	r3, #0
ARM GAS  /tmp/cccUr8Dk.s 			page 3


 115              	.LVL4:
 116              		.loc 1 130 3 is_stmt 1 view .LVU30
 117              		.loc 1 130 32 is_stmt 0 view .LVU31
 118 0050 E383     		strh	r3, [r4, #30]	@ movhi
 119              		.loc 1 131 3 is_stmt 1 view .LVU32
 120              		.loc 1 116 8 view .LVU33
 121              		.loc 1 116 9 is_stmt 0 view .LVU34
 122 0052 A368     		ldr	r3, [r4, #8]
 123              	.LVL5:
 124              		.loc 1 116 9 view .LVU35
 125 0054 9847     		blx	r3
 126              	.LVL6:
 127              		.loc 1 116 8 view .LVU36
 128 0056 0028     		cmp	r0, #0
 129 0058 DFD1     		bne	.L18
 130              	.L1:
 131              		.loc 1 134 1 view .LVU37
 132 005a 054B     		ldr	r3, .L20
 133 005c 1A68     		ldr	r2, [r3]
 134 005e 019B     		ldr	r3, [sp, #4]
 135 0060 5A40     		eors	r2, r3, r2
 136 0062 03D1     		bne	.L19
 137 0064 02B0     		add	sp, sp, #8
 138              		.cfi_remember_state
 139              		.cfi_def_cfa_offset 16
 140              		@ sp needed
 141 0066 70BD     		pop	{r4, r5, r6, pc}
 142              	.L3:
 143              		.cfi_restore_state
 144              		.loc 1 121 4 is_stmt 1 view .LVU38
 145              		.loc 1 121 27 is_stmt 0 view .LVU39
 146 0068 A685     		strh	r6, [r4, #44]	@ movhi
 147              		.loc 1 122 4 is_stmt 1 view .LVU40
 148 006a D3E7     		b	.L2
 149              	.L19:
 150              		.loc 1 134 1 is_stmt 0 view .LVU41
 151 006c FFF7FEFF 		bl	__stack_chk_fail
 152              	.LVL7:
 153              	.L21:
 154              		.align	2
 155              	.L20:
 156 0070 00000000 		.word	.LC0
 157 0074 00000000 		.word	.LANCHOR0
 158              		.cfi_endproc
 159              	.LFE4:
 160              		.size	AsebaCanSendQueueToPhysicalLayer, .-AsebaCanSendQueueToPhysicalLayer
 161              		.section	.rodata.AsebaCanSendQueueInsert.cst4,"aM",%progbits,4
 162              		.align	2
 163              	.LC1:
 164 0000 00000000 		.word	__stack_chk_guard
 165              		.section	.text.AsebaCanSendQueueInsert,"ax",%progbits
 166              		.align	1
 167              		.p2align 4,,15
 168              		.syntax unified
 169              		.thumb
 170              		.thumb_func
 171              		.fpu fpv4-sp-d16
ARM GAS  /tmp/cccUr8Dk.s 			page 4


 172              		.type	AsebaCanSendQueueInsert, %function
 173              	AsebaCanSendQueueInsert:
 174              	.LVL8:
 175              	.LFB3:
 176              		.loc 1 98 1 is_stmt 1 view -0
 177              		.cfi_startproc
 178              		@ args = 0, pretend = 0, frame = 8
 179              		@ frame_needed = 0, uses_anonymous_args = 0
 180              		.loc 1 98 1 is_stmt 0 view .LVU43
 181 0000 2DE9F041 		push	{r4, r5, r6, r7, r8, lr}
 182              		.cfi_def_cfa_offset 24
 183              		.cfi_offset 4, -24
 184              		.cfi_offset 5, -20
 185              		.cfi_offset 6, -16
 186              		.cfi_offset 7, -12
 187              		.cfi_offset 8, -8
 188              		.cfi_offset 14, -4
 189              		.loc 1 100 36 view .LVU44
 190 0004 174F     		ldr	r7, .L27
 191              		.loc 1 98 1 view .LVU45
 192 0006 184B     		ldr	r3, .L27+4
 193              		.loc 1 100 36 view .LVU46
 194 0008 BC8B     		ldrh	r4, [r7, #28]
 195              		.loc 1 100 27 view .LVU47
 196 000a 7E69     		ldr	r6, [r7, #20]
 197              		.loc 1 98 1 view .LVU48
 198 000c 82B0     		sub	sp, sp, #8
 199              		.cfi_def_cfa_offset 32
 200              		.loc 1 98 1 view .LVU49
 201 000e 1B68     		ldr	r3, [r3]
 202 0010 0193     		str	r3, [sp, #4]
 203 0012 4FF00003 		mov	r3,#0
 204              		.loc 1 99 2 is_stmt 1 view .LVU50
 205              		.loc 1 100 2 view .LVU51
 206              		.loc 1 100 27 is_stmt 0 view .LVU52
 207 0016 04EB4403 		add	r3, r4, r4, lsl #1
 208 001a 06EB8306 		add	r6, r6, r3, lsl #2
 209              		.loc 1 98 1 view .LVU53
 210 001e 0546     		mov	r5, r0
 211              		.loc 1 100 2 view .LVU54
 212 0020 3046     		mov	r0, r6
 213              	.LVL9:
 214              		.loc 1 98 1 view .LVU55
 215 0022 9046     		mov	r8, r2
 216              		.loc 1 100 2 view .LVU56
 217 0024 FFF7FEFF 		bl	memcpy
 218              	.LVL10:
 219              		.loc 1 101 2 is_stmt 1 view .LVU57
 220              		.loc 1 102 2 view .LVU58
 221              		.loc 1 101 53 is_stmt 0 view .LVU59
 222 0028 3089     		ldrh	r0, [r6, #8]
 223              		.loc 1 106 5 view .LVU60
 224 002a B969     		ldr	r1, [r7, #24]
 225              		.loc 1 105 7 view .LVU61
 226 002c 631C     		adds	r3, r4, #1
 227              		.loc 1 101 53 view .LVU62
 228 002e 08F00F08 		and	r8, r8, #15
ARM GAS  /tmp/cccUr8Dk.s 			page 5


 229              	.LVL11:
 230              		.loc 1 101 53 view .LVU63
 231 0032 C5F30A05 		ubfx	r5, r5, #0, #11
 232 0036 20F4FF40 		bic	r0, r0, #32640
 233              		.loc 1 105 7 view .LVU64
 234 003a 9BB2     		uxth	r3, r3
 235              		.loc 1 107 8 view .LVU65
 236 003c 8B42     		cmp	r3, r1
 237 003e 28BF     		it	cs
 238 0040 0023     		movcs	r3, #0
 239              		.loc 1 101 53 view .LVU66
 240 0042 45EAC825 		orr	r5, r5, r8, lsl #11
 241 0046 20F07F00 		bic	r0, r0, #127
 242              		.loc 1 108 30 view .LVU67
 243 004a BB83     		strh	r3, [r7, #28]	@ movhi
 244              		.loc 1 101 53 view .LVU68
 245 004c 0543     		orrs	r5, r5, r0
 246              		.loc 1 109 1 view .LVU69
 247 004e 064B     		ldr	r3, .L27+4
 248              		.loc 1 101 53 view .LVU70
 249 0050 3581     		strh	r5, [r6, #8]	@ movhi
 250              		.loc 1 105 2 is_stmt 1 view .LVU71
 251              		.loc 1 106 2 view .LVU72
 252              	.LVL12:
 253              		.loc 1 108 2 view .LVU73
 254              		.loc 1 109 1 is_stmt 0 view .LVU74
 255 0052 1A68     		ldr	r2, [r3]
 256 0054 019B     		ldr	r3, [sp, #4]
 257 0056 5A40     		eors	r2, r3, r2
 258 0058 02D1     		bne	.L26
 259 005a 02B0     		add	sp, sp, #8
 260              		.cfi_remember_state
 261              		.cfi_def_cfa_offset 24
 262              		@ sp needed
 263 005c BDE8F081 		pop	{r4, r5, r6, r7, r8, pc}
 264              	.LVL13:
 265              	.L26:
 266              		.cfi_restore_state
 267              		.loc 1 109 1 view .LVU75
 268 0060 FFF7FEFF 		bl	__stack_chk_fail
 269              	.LVL14:
 270              	.L28:
 271              		.loc 1 109 1 view .LVU76
 272              		.align	2
 273              	.L27:
 274 0064 00000000 		.word	.LANCHOR0
 275 0068 00000000 		.word	.LC1
 276              		.cfi_endproc
 277              	.LFE3:
 278              		.size	AsebaCanSendQueueInsert, .-AsebaCanSendQueueInsert
 279              		.section	.rodata.AsebaCanGetMinMultipleOfHeight.cst4,"aM",%progbits,4
 280              		.align	2
 281              	.LC2:
 282 0000 00000000 		.word	__stack_chk_guard
 283              		.section	.text.AsebaCanGetMinMultipleOfHeight,"ax",%progbits
 284              		.align	1
 285              		.p2align 4,,15
ARM GAS  /tmp/cccUr8Dk.s 			page 6


 286              		.global	AsebaCanGetMinMultipleOfHeight
 287              		.syntax unified
 288              		.thumb
 289              		.thumb_func
 290              		.fpu fpv4-sp-d16
 291              		.type	AsebaCanGetMinMultipleOfHeight, %function
 292              	AsebaCanGetMinMultipleOfHeight:
 293              	.LVL15:
 294              	.LFB0:
 295              		.loc 1 70 1 is_stmt 1 view -0
 296              		.cfi_startproc
 297              		@ args = 0, pretend = 0, frame = 8
 298              		@ frame_needed = 0, uses_anonymous_args = 0
 299              		.loc 1 70 1 is_stmt 0 view .LVU78
 300 0000 00B5     		push	{lr}
 301              		.cfi_def_cfa_offset 4
 302              		.cfi_offset 14, -4
 303 0002 0B4B     		ldr	r3, .L37
 304              		.loc 1 72 5 view .LVU79
 305 0004 4207     		lsls	r2, r0, #29
 306              		.loc 1 70 1 view .LVU80
 307 0006 83B0     		sub	sp, sp, #12
 308              		.cfi_def_cfa_offset 16
 309              		.loc 1 75 1 view .LVU81
 310 0008 094A     		ldr	r2, .L37
 311              		.loc 1 70 1 view .LVU82
 312 000a 1B68     		ldr	r3, [r3]
 313 000c 0193     		str	r3, [sp, #4]
 314 000e 4FF00003 		mov	r3,#0
 315              		.loc 1 71 2 is_stmt 1 view .LVU83
 316              		.loc 1 71 9 is_stmt 0 view .LVU84
 317 0012 4FEAD003 		lsr	r3, r0, #3
 318              	.LVL16:
 319              		.loc 1 72 2 is_stmt 1 view .LVU85
 320              		.loc 1 73 3 view .LVU86
 321              		.loc 1 73 4 is_stmt 0 view .LVU87
 322 0016 18BF     		it	ne
 323 0018 0133     		addne	r3, r3, #1
 324              	.LVL17:
 325              		.loc 1 74 2 is_stmt 1 view .LVU88
 326              		.loc 1 75 1 is_stmt 0 view .LVU89
 327 001a 1168     		ldr	r1, [r2]
 328 001c 019A     		ldr	r2, [sp, #4]
 329 001e 5140     		eors	r1, r2, r1
 330 0020 03D1     		bne	.L36
 331 0022 1846     		mov	r0, r3
 332              	.LVL18:
 333              		.loc 1 75 1 view .LVU90
 334 0024 03B0     		add	sp, sp, #12
 335              		.cfi_remember_state
 336              		.cfi_def_cfa_offset 4
 337              		@ sp needed
 338 0026 5DF804FB 		ldr	pc, [sp], #4
 339              	.LVL19:
 340              	.L36:
 341              		.cfi_restore_state
 342              		.loc 1 75 1 view .LVU91
ARM GAS  /tmp/cccUr8Dk.s 			page 7


 343 002a FFF7FEFF 		bl	__stack_chk_fail
 344              	.LVL20:
 345              	.L38:
 346              		.loc 1 75 1 view .LVU92
 347 002e 00BF     		.align	2
 348              	.L37:
 349 0030 00000000 		.word	.LC2
 350              		.cfi_endproc
 351              	.LFE0:
 352              		.size	AsebaCanGetMinMultipleOfHeight, .-AsebaCanGetMinMultipleOfHeight
 353              		.section	.rodata.AsebaCanInit.cst4,"aM",%progbits,4
 354              		.align	2
 355              	.LC3:
 356 0000 00000000 		.word	__stack_chk_guard
 357              		.section	.text.AsebaCanInit,"ax",%progbits
 358              		.align	1
 359              		.p2align 4,,15
 360              		.global	AsebaCanInit
 361              		.syntax unified
 362              		.thumb
 363              		.thumb_func
 364              		.fpu fpv4-sp-d16
 365              		.type	AsebaCanInit, %function
 366              	AsebaCanInit:
 367              	.LVL21:
 368              	.LFB9:
 369              		.loc 1 190 1 is_stmt 1 view -0
 370              		.cfi_startproc
 371              		@ args = 20, pretend = 0, frame = 8
 372              		@ frame_needed = 0, uses_anonymous_args = 0
 373              		.loc 1 190 1 is_stmt 0 view .LVU94
 374 0000 70B5     		push	{r4, r5, r6, lr}
 375              		.cfi_def_cfa_offset 16
 376              		.cfi_offset 4, -16
 377              		.cfi_offset 5, -12
 378              		.cfi_offset 6, -8
 379              		.cfi_offset 14, -4
 380              		.loc 1 191 14 view .LVU95
 381 0002 114C     		ldr	r4, .L43
 382              		.loc 1 190 1 view .LVU96
 383 0004 114D     		ldr	r5, .L43+4
 384 0006 82B0     		sub	sp, sp, #8
 385              		.cfi_def_cfa_offset 24
 386              		.loc 1 190 1 view .LVU97
 387 0008 2D68     		ldr	r5, [r5]
 388 000a 0195     		str	r5, [sp, #4]
 389 000c 4FF00005 		mov	r5,#0
 390              		.loc 1 191 2 is_stmt 1 view .LVU98
 391              		.loc 1 191 14 is_stmt 0 view .LVU99
 392 0010 2080     		strh	r0, [r4]	@ movhi
 393              		.loc 1 193 2 is_stmt 1 view .LVU100
 394              		.loc 1 193 23 is_stmt 0 view .LVU101
 395 0012 6160     		str	r1, [r4, #4]
 396              		.loc 1 194 2 is_stmt 1 view .LVU102
 397              		.loc 1 194 24 is_stmt 0 view .LVU103
 398 0014 A260     		str	r2, [r4, #8]
 399              		.loc 1 195 2 is_stmt 1 view .LVU104
ARM GAS  /tmp/cccUr8Dk.s 			page 8


 400              		.loc 1 195 35 is_stmt 0 view .LVU105
 401 0016 E360     		str	r3, [r4, #12]
 402              		.loc 1 196 2 is_stmt 1 view .LVU106
 403              		.loc 1 190 1 is_stmt 0 view .LVU107
 404 0018 099A     		ldr	r2, [sp, #36]
 405              	.LVL22:
 406              		.loc 1 190 1 view .LVU108
 407 001a 0A9B     		ldr	r3, [sp, #40]
 408              	.LVL23:
 409              		.loc 1 190 1 view .LVU109
 410 001c 0798     		ldr	r0, [sp, #28]
 411              	.LVL24:
 412              		.loc 1 190 1 view .LVU110
 413 001e 0899     		ldr	r1, [sp, #32]
 414              	.LVL25:
 415              		.loc 1 190 1 view .LVU111
 416 0020 069E     		ldr	r6, [sp, #24]
 417              		.loc 1 196 31 view .LVU112
 418 0022 2661     		str	r6, [r4, #16]
 419              		.loc 1 198 2 is_stmt 1 view .LVU113
 420              		.loc 1 204 25 is_stmt 0 view .LVU114
 421 0024 C4E90823 		strd	r2, r3, [r4, #32]
 422              		.loc 1 199 25 view .LVU115
 423 0028 C4E90501 		strd	r0, r1, [r4, #20]
 424              		.loc 1 200 2 is_stmt 1 view .LVU116
 425              		.loc 1 201 2 view .LVU117
 426              		.loc 1 200 30 is_stmt 0 view .LVU118
 427 002c 0025     		movs	r5, #0
 428              		.loc 1 209 1 view .LVU119
 429 002e 074B     		ldr	r3, .L43+4
 430              		.loc 1 208 25 view .LVU120
 431 0030 A585     		strh	r5, [r4, #44]	@ movhi
 432              		.loc 1 200 30 view .LVU121
 433 0032 E561     		str	r5, [r4, #28]
 434              		.loc 1 203 2 is_stmt 1 view .LVU122
 435              		.loc 1 204 2 view .LVU123
 436              		.loc 1 205 2 view .LVU124
 437              		.loc 1 206 2 view .LVU125
 438              		.loc 1 205 30 is_stmt 0 view .LVU126
 439 0034 A562     		str	r5, [r4, #40]
 440              		.loc 1 208 2 is_stmt 1 view .LVU127
 441              		.loc 1 209 1 is_stmt 0 view .LVU128
 442 0036 1A68     		ldr	r2, [r3]
 443 0038 019B     		ldr	r3, [sp, #4]
 444 003a 5A40     		eors	r2, r3, r2
 445 003c 01D1     		bne	.L42
 446 003e 02B0     		add	sp, sp, #8
 447              		.cfi_remember_state
 448              		.cfi_def_cfa_offset 16
 449              		@ sp needed
 450 0040 70BD     		pop	{r4, r5, r6, pc}
 451              	.LVL26:
 452              	.L42:
 453              		.cfi_restore_state
 454              		.loc 1 209 1 view .LVU129
 455 0042 FFF7FEFF 		bl	__stack_chk_fail
 456              	.LVL27:
ARM GAS  /tmp/cccUr8Dk.s 			page 9


 457              	.L44:
 458              		.loc 1 209 1 view .LVU130
 459 0046 00BF     		.align	2
 460              	.L43:
 461 0048 00000000 		.word	.LANCHOR0
 462 004c 00000000 		.word	.LC3
 463              		.cfi_endproc
 464              	.LFE9:
 465              		.size	AsebaCanInit, .-AsebaCanInit
 466              		.section	.rodata.AsebaCanSendSpecificSource.cst4,"aM",%progbits,4
 467              		.align	2
 468              	.LC4:
 469 0000 00000000 		.word	__stack_chk_guard
 470              		.section	.text.AsebaCanSendSpecificSource,"ax",%progbits
 471              		.align	1
 472              		.p2align 4,,15
 473              		.global	AsebaCanSendSpecificSource
 474              		.syntax unified
 475              		.thumb
 476              		.thumb_func
 477              		.fpu fpv4-sp-d16
 478              		.type	AsebaCanSendSpecificSource, %function
 479              	AsebaCanSendSpecificSource:
 480              	.LVL28:
 481              	.LFB11:
 482              		.loc 1 217 1 is_stmt 1 view -0
 483              		.cfi_startproc
 484              		@ args = 0, pretend = 0, frame = 8
 485              		@ frame_needed = 0, uses_anonymous_args = 0
 486              		.loc 1 217 1 is_stmt 0 view .LVU132
 487 0000 2DE9F041 		push	{r4, r5, r6, r7, r8, lr}
 488              		.cfi_def_cfa_offset 24
 489              		.cfi_offset 4, -24
 490              		.cfi_offset 5, -20
 491              		.cfi_offset 6, -16
 492              		.cfi_offset 7, -12
 493              		.cfi_offset 8, -8
 494              		.cfi_offset 14, -4
 495 0004 2A4B     		ldr	r3, .L64
 496 0006 82B0     		sub	sp, sp, #8
 497              		.cfi_def_cfa_offset 32
 498              		.loc 1 217 1 view .LVU133
 499 0008 0D46     		mov	r5, r1
 500 000a 1B68     		ldr	r3, [r3]
 501 000c 0193     		str	r3, [sp, #4]
 502 000e 4FF00003 		mov	r3,#0
 503              		.loc 1 219 2 is_stmt 1 view .LVU134
 504              		.loc 1 217 1 is_stmt 0 view .LVU135
 505 0012 0746     		mov	r7, r0
 506 0014 1646     		mov	r6, r2
 507              		.loc 1 219 2 view .LVU136
 508 0016 FFF7FEFF 		bl	AsebaCanSendQueueToPhysicalLayer
 509              	.LVL29:
 510              		.loc 1 222 2 is_stmt 1 view .LVU137
 511              	.LBB52:
 512              	.LBI52:
 513              		.loc 1 69 8 view .LVU138
ARM GAS  /tmp/cccUr8Dk.s 			page 10


 514              	.LBB53:
 515              		.loc 1 71 2 view .LVU139
 516              	.LBE53:
 517              	.LBE52:
 518              	.LBB56:
 519              	.LBB57:
 520              		.loc 1 93 17 is_stmt 0 view .LVU140
 521 001a 2649     		ldr	r1, .L64+4
 522              	.LBE57:
 523              	.LBE56:
 524              	.LBB64:
 525              	.LBB54:
 526              		.loc 1 72 5 view .LVU141
 527 001c 6B07     		lsls	r3, r5, #29
 528              	.LBE54:
 529              	.LBE64:
 530              	.LBB65:
 531              	.LBB62:
 532              	.LBB58:
 533              	.LBB59:
 534              		.loc 1 82 7 view .LVU142
 535 001e C88B     		ldrh	r0, [r1, #30]
 536              		.loc 1 81 7 view .LVU143
 537 0020 8B8B     		ldrh	r3, [r1, #28]
 538              	.LBE59:
 539              	.LBE58:
 540              		.loc 1 93 32 view .LVU144
 541 0022 0A8B     		ldrh	r2, [r1, #24]
 542              	.LBE62:
 543              	.LBE65:
 544              	.LBB66:
 545              	.LBB55:
 546              		.loc 1 71 9 view .LVU145
 547 0024 C5F3CC04 		ubfx	r4, r5, #3, #13
 548              	.LVL30:
 549              		.loc 1 72 2 is_stmt 1 view .LVU146
 550              		.loc 1 73 3 view .LVU147
 551              		.loc 1 73 4 is_stmt 0 view .LVU148
 552 0028 18BF     		it	ne
 553 002a 0134     		addne	r4, r4, #1
 554              	.LVL31:
 555              		.loc 1 74 2 is_stmt 1 view .LVU149
 556              		.loc 1 74 2 is_stmt 0 view .LVU150
 557              	.LBE55:
 558              	.LBE66:
 559              		.loc 1 223 2 is_stmt 1 view .LVU151
 560              	.LBB67:
 561              	.LBI56:
 562              		.loc 1 91 15 view .LVU152
 563              	.LBB63:
 564              		.loc 1 93 2 view .LVU153
 565              	.LBB61:
 566              	.LBI58:
 567              		.loc 1 78 15 view .LVU154
 568              	.LBB60:
 569              		.loc 1 80 2 view .LVU155
 570              		.loc 1 81 2 view .LVU156
ARM GAS  /tmp/cccUr8Dk.s 			page 11


 571              		.loc 1 82 2 view .LVU157
 572              		.loc 1 84 2 view .LVU158
 573              		.loc 1 84 5 is_stmt 0 view .LVU159
 574 002c 8342     		cmp	r3, r0
 575              		.loc 1 85 3 is_stmt 1 view .LVU160
 576              		.loc 1 87 33 is_stmt 0 view .LVU161
 577 002e 36BF     		itet	cc
 578 0030 101A     		subcc	r0, r2, r0
 579              	.LVL32:
 580              		.loc 1 85 15 view .LVU162
 581 0032 1B1A     		subcs	r3, r3, r0
 582              	.LVL33:
 583              		.loc 1 87 3 is_stmt 1 view .LVU163
 584              		.loc 1 87 40 is_stmt 0 view .LVU164
 585 0034 1B18     		addcc	r3, r3, r0
 586 0036 9BB2     		uxth	r3, r3
 587              	.LVL34:
 588              		.loc 1 87 40 view .LVU165
 589              	.LBE60:
 590              	.LBE61:
 591              		.loc 1 93 32 view .LVU166
 592 0038 D31A     		subs	r3, r2, r3
 593              	.LBE63:
 594              	.LBE67:
 595              		.loc 1 223 5 view .LVU167
 596 003a 9BB2     		uxth	r3, r3
 597 003c A342     		cmp	r3, r4
 598 003e 2ED9     		bls	.L62
 599              	.LVL35:
 600              	.LBB68:
 601              	.LBI68:
 602              		.loc 1 216 8 is_stmt 1 view .LVU168
 603              	.LBB69:
 604              		.loc 1 230 2 view .LVU169
 605              		.loc 1 230 5 is_stmt 0 view .LVU170
 606 0040 082D     		cmp	r5, #8
 607 0042 10D8     		bhi	.L51
 608              		.loc 1 232 3 is_stmt 1 view .LVU171
 609 0044 2A46     		mov	r2, r5
 610 0046 3946     		mov	r1, r7
 611 0048 46F44070 		orr	r0, r6, #768
 612 004c FFF7FEFF 		bl	AsebaCanSendQueueInsert
 613              	.LVL36:
 614              	.L52:
 615              		.loc 1 248 2 view .LVU172
 616 0050 FFF7FEFF 		bl	AsebaCanSendQueueToPhysicalLayer
 617              	.LVL37:
 618              		.loc 1 250 2 view .LVU173
 619              		.loc 1 248 2 is_stmt 0 view .LVU174
 620 0054 0120     		movs	r0, #1
 621              	.L50:
 622              	.LBE69:
 623              	.LBE68:
 624              		.loc 1 251 1 view .LVU175
 625 0056 164B     		ldr	r3, .L64
 626 0058 1A68     		ldr	r2, [r3]
 627 005a 019B     		ldr	r3, [sp, #4]
ARM GAS  /tmp/cccUr8Dk.s 			page 12


 628 005c 5A40     		eors	r2, r3, r2
 629 005e 24D1     		bne	.L63
 630 0060 02B0     		add	sp, sp, #8
 631              		.cfi_remember_state
 632              		.cfi_def_cfa_offset 24
 633              		@ sp needed
 634 0062 BDE8F081 		pop	{r4, r5, r6, r7, r8, pc}
 635              	.LVL38:
 636              	.L51:
 637              		.cfi_restore_state
 638              	.LBB74:
 639              	.LBB72:
 640              	.LBB70:
 641              		.loc 1 236 3 is_stmt 1 view .LVU176
 642              		.loc 1 238 3 view .LVU177
 643 0066 0822     		movs	r2, #8
 644 0068 3946     		mov	r1, r7
 645 006a 46F48070 		orr	r0, r6, #256
 646 006e FFF7FEFF 		bl	AsebaCanSendQueueInsert
 647              	.LVL39:
 648              		.loc 1 239 3 view .LVU178
 649              		.loc 1 239 9 view .LVU179
 650 0072 102D     		cmp	r5, #16
 651 0074 17D9     		bls	.L56
 652 0076 1024     		movs	r4, #16
 653              	.LVL40:
 654              		.loc 1 239 9 is_stmt 0 view .LVU180
 655 0078 A7F10808 		sub	r8, r7, #8
 656              	.LVL41:
 657              	.L54:
 658              		.loc 1 241 4 is_stmt 1 view .LVU181
 659 007c 08EB0401 		add	r1, r8, r4
 660 0080 0822     		movs	r2, #8
 661 0082 3046     		mov	r0, r6
 662 0084 FFF7FEFF 		bl	AsebaCanSendQueueInsert
 663              	.LVL42:
 664              		.loc 1 242 4 view .LVU182
 665              		.loc 1 239 9 view .LVU183
 666 0088 2146     		mov	r1, r4
 667 008a 0834     		adds	r4, r4, #8
 668              	.LVL43:
 669              		.loc 1 239 9 is_stmt 0 view .LVU184
 670 008c A542     		cmp	r5, r4
 671 008e F5D8     		bhi	.L54
 672              	.LVL44:
 673              	.L53:
 674              		.loc 1 244 3 is_stmt 1 view .LVU185
 675 0090 6A1A     		subs	r2, r5, r1
 676 0092 46F40070 		orr	r0, r6, #512
 677 0096 3944     		add	r1, r1, r7
 678 0098 FFF7FEFF 		bl	AsebaCanSendQueueInsert
 679              	.LVL45:
 680 009c D8E7     		b	.L52
 681              	.LVL46:
 682              	.L62:
 683              		.loc 1 244 3 is_stmt 0 view .LVU186
 684              	.LBE70:
ARM GAS  /tmp/cccUr8Dk.s 			page 13


 685              	.LBE72:
 686              	.LBE74:
 687              		.loc 1 225 3 is_stmt 1 view .LVU187
 688 009e 0B69     		ldr	r3, [r1, #16]
 689 00a0 9847     		blx	r3
 690              	.LVL47:
 691              		.loc 1 226 3 view .LVU188
 692              		.loc 1 226 10 is_stmt 0 view .LVU189
 693 00a2 0020     		movs	r0, #0
 694 00a4 D7E7     		b	.L50
 695              	.LVL48:
 696              	.L56:
 697              	.LBB75:
 698              	.LBB73:
 699              	.LBB71:
 700              		.loc 1 236 10 view .LVU190
 701 00a6 0821     		movs	r1, #8
 702 00a8 F2E7     		b	.L53
 703              	.LVL49:
 704              	.L63:
 705              		.loc 1 236 10 view .LVU191
 706              	.LBE71:
 707              	.LBE73:
 708              	.LBE75:
 709              		.loc 1 251 1 view .LVU192
 710 00aa FFF7FEFF 		bl	__stack_chk_fail
 711              	.LVL50:
 712              	.L65:
 713 00ae 00BF     		.align	2
 714              	.L64:
 715 00b0 00000000 		.word	.LC4
 716 00b4 00000000 		.word	.LANCHOR0
 717              		.cfi_endproc
 718              	.LFE11:
 719              		.size	AsebaCanSendSpecificSource, .-AsebaCanSendSpecificSource
 720              		.section	.rodata.AsebaCanSend.cst4,"aM",%progbits,4
 721              		.align	2
 722              	.LC5:
 723 0000 00000000 		.word	__stack_chk_guard
 724              		.section	.text.AsebaCanSend,"ax",%progbits
 725              		.align	1
 726              		.p2align 4,,15
 727              		.global	AsebaCanSend
 728              		.syntax unified
 729              		.thumb
 730              		.thumb_func
 731              		.fpu fpv4-sp-d16
 732              		.type	AsebaCanSend, %function
 733              	AsebaCanSend:
 734              	.LVL51:
 735              	.LFB10:
 736              		.loc 1 212 1 is_stmt 1 view -0
 737              		.cfi_startproc
 738              		@ args = 0, pretend = 0, frame = 8
 739              		@ frame_needed = 0, uses_anonymous_args = 0
 740              		.loc 1 212 1 is_stmt 0 view .LVU194
 741 0000 00B5     		push	{lr}
ARM GAS  /tmp/cccUr8Dk.s 			page 14


 742              		.cfi_def_cfa_offset 4
 743              		.cfi_offset 14, -4
 744 0002 0A4B     		ldr	r3, .L71
 745 0004 83B0     		sub	sp, sp, #12
 746              		.cfi_def_cfa_offset 16
 747              		.loc 1 212 1 view .LVU195
 748 0006 1B68     		ldr	r3, [r3]
 749 0008 0193     		str	r3, [sp, #4]
 750 000a 4FF00003 		mov	r3,#0
 751              		.loc 1 213 2 is_stmt 1 view .LVU196
 752              		.loc 1 213 9 is_stmt 0 view .LVU197
 753 000e 074B     		ldr	r3, .L71
 754 0010 1A68     		ldr	r2, [r3]
 755 0012 019B     		ldr	r3, [sp, #4]
 756 0014 5A40     		eors	r2, r3, r2
 757 0016 06D1     		bne	.L70
 758 0018 054B     		ldr	r3, .L71+4
 759 001a 1A88     		ldrh	r2, [r3]
 760              		.loc 1 214 1 view .LVU198
 761 001c 03B0     		add	sp, sp, #12
 762              		.cfi_remember_state
 763              		.cfi_def_cfa_offset 4
 764              		@ sp needed
 765 001e 5DF804EB 		ldr	lr, [sp], #4
 766              		.cfi_restore 14
 767              		.cfi_def_cfa_offset 0
 768              		.loc 1 213 9 view .LVU199
 769 0022 FFF7FEBF 		b	AsebaCanSendSpecificSource
 770              	.LVL52:
 771              	.L70:
 772              		.cfi_restore_state
 773              		.loc 1 213 9 view .LVU200
 774 0026 FFF7FEFF 		bl	__stack_chk_fail
 775              	.LVL53:
 776              	.L72:
 777              		.loc 1 213 9 view .LVU201
 778 002a 00BF     		.align	2
 779              	.L71:
 780 002c 00000000 		.word	.LC5
 781 0030 00000000 		.word	.LANCHOR0
 782              		.cfi_endproc
 783              	.LFE10:
 784              		.size	AsebaCanSend, .-AsebaCanSend
 785              		.section	.rodata.AsebaCanRecvBufferEmpty.cst4,"aM",%progbits,4
 786              		.align	2
 787              	.LC6:
 788 0000 00000000 		.word	__stack_chk_guard
 789              		.section	.text.AsebaCanRecvBufferEmpty,"ax",%progbits
 790              		.align	1
 791              		.p2align 4,,15
 792              		.global	AsebaCanRecvBufferEmpty
 793              		.syntax unified
 794              		.thumb
 795              		.thumb_func
 796              		.fpu fpv4-sp-d16
 797              		.type	AsebaCanRecvBufferEmpty, %function
 798              	AsebaCanRecvBufferEmpty:
ARM GAS  /tmp/cccUr8Dk.s 			page 15


 799              	.LFB12:
 800              		.loc 1 255 1 is_stmt 1 view -0
 801              		.cfi_startproc
 802              		@ args = 0, pretend = 0, frame = 8
 803              		@ frame_needed = 0, uses_anonymous_args = 0
 804 0000 00B5     		push	{lr}
 805              		.cfi_def_cfa_offset 4
 806              		.cfi_offset 14, -4
 807              		.loc 1 256 17 is_stmt 0 view .LVU203
 808 0002 0C4B     		ldr	r3, .L77
 809              		.loc 1 255 1 view .LVU204
 810 0004 0C4A     		ldr	r2, .L77+4
 811              		.loc 1 256 37 view .LVU205
 812 0006 188D     		ldrh	r0, [r3, #40]
 813 0008 5B8D     		ldrh	r3, [r3, #42]
 814              		.loc 1 255 1 view .LVU206
 815 000a 83B0     		sub	sp, sp, #12
 816              		.cfi_def_cfa_offset 16
 817              		.loc 1 256 37 view .LVU207
 818 000c C01A     		subs	r0, r0, r3
 819              		.loc 1 257 1 view .LVU208
 820 000e 0A4B     		ldr	r3, .L77+4
 821              		.loc 1 255 1 view .LVU209
 822 0010 1268     		ldr	r2, [r2]
 823 0012 0192     		str	r2, [sp, #4]
 824 0014 4FF00002 		mov	r2,#0
 825              		.loc 1 256 2 is_stmt 1 view .LVU210
 826              		.loc 1 256 37 is_stmt 0 view .LVU211
 827 0018 B0FA80F0 		clz	r0, r0
 828              		.loc 1 257 1 view .LVU212
 829 001c 1A68     		ldr	r2, [r3]
 830 001e 019B     		ldr	r3, [sp, #4]
 831 0020 5A40     		eors	r2, r3, r2
 832              		.loc 1 256 37 view .LVU213
 833 0022 4FEA5010 		lsr	r0, r0, #5
 834              		.loc 1 257 1 view .LVU214
 835 0026 02D1     		bne	.L76
 836 0028 03B0     		add	sp, sp, #12
 837              		.cfi_remember_state
 838              		.cfi_def_cfa_offset 4
 839              		@ sp needed
 840 002a 5DF804FB 		ldr	pc, [sp], #4
 841              	.L76:
 842              		.cfi_restore_state
 843 002e FFF7FEFF 		bl	__stack_chk_fail
 844              	.LVL54:
 845              	.L78:
 846 0032 00BF     		.align	2
 847              	.L77:
 848 0034 00000000 		.word	.LANCHOR0
 849 0038 00000000 		.word	.LC6
 850              		.cfi_endproc
 851              	.LFE12:
 852              		.size	AsebaCanRecvBufferEmpty, .-AsebaCanRecvBufferEmpty
 853              		.section	.rodata.AsebaCanFrameSent.cst4,"aM",%progbits,4
 854              		.align	2
 855              	.LC7:
ARM GAS  /tmp/cccUr8Dk.s 			page 16


 856 0000 00000000 		.word	__stack_chk_guard
 857              		.section	.text.AsebaCanFrameSent,"ax",%progbits
 858              		.align	1
 859              		.p2align 4,,15
 860              		.global	AsebaCanFrameSent
 861              		.syntax unified
 862              		.thumb
 863              		.thumb_func
 864              		.fpu fpv4-sp-d16
 865              		.type	AsebaCanFrameSent, %function
 866              	AsebaCanFrameSent:
 867              	.LFB13:
 868              		.loc 1 260 1 is_stmt 1 view -0
 869              		.cfi_startproc
 870              		@ args = 0, pretend = 0, frame = 8
 871              		@ frame_needed = 0, uses_anonymous_args = 0
 872 0000 00B5     		push	{lr}
 873              		.cfi_def_cfa_offset 4
 874              		.cfi_offset 14, -4
 875 0002 0F4A     		ldr	r2, .L86
 876              		.loc 1 262 15 is_stmt 0 view .LVU216
 877 0004 0F4B     		ldr	r3, .L86+4
 878              		.loc 1 260 1 view .LVU217
 879 0006 83B0     		sub	sp, sp, #12
 880              		.cfi_def_cfa_offset 16
 881              		.loc 1 260 1 view .LVU218
 882 0008 1268     		ldr	r2, [r2]
 883 000a 0192     		str	r2, [sp, #4]
 884 000c 4FF00002 		mov	r2,#0
 885              		.loc 1 262 2 is_stmt 1 view .LVU219
 886              		.loc 1 262 15 is_stmt 0 view .LVU220
 887 0010 9B8D     		ldrh	r3, [r3, #44]
 888 0012 9BB2     		uxth	r3, r3
 889              		.loc 1 262 5 view .LVU221
 890 0014 3BB1     		cbz	r3, .L85
 891              		.loc 1 264 1 view .LVU222
 892 0016 0A4B     		ldr	r3, .L86
 893 0018 1A68     		ldr	r2, [r3]
 894 001a 019B     		ldr	r3, [sp, #4]
 895 001c 5A40     		eors	r2, r3, r2
 896 001e 0CD1     		bne	.L84
 897 0020 03B0     		add	sp, sp, #12
 898              		.cfi_remember_state
 899              		.cfi_def_cfa_offset 4
 900              		@ sp needed
 901 0022 5DF804FB 		ldr	pc, [sp], #4
 902              	.L85:
 903              		.cfi_restore_state
 904              		.loc 1 263 3 is_stmt 1 view .LVU223
 905 0026 064B     		ldr	r3, .L86
 906 0028 1A68     		ldr	r2, [r3]
 907 002a 019B     		ldr	r3, [sp, #4]
 908 002c 5A40     		eors	r2, r3, r2
 909 002e 04D1     		bne	.L84
 910              		.loc 1 264 1 is_stmt 0 view .LVU224
 911 0030 03B0     		add	sp, sp, #12
 912              		.cfi_remember_state
ARM GAS  /tmp/cccUr8Dk.s 			page 17


 913              		.cfi_def_cfa_offset 4
 914              		@ sp needed
 915 0032 5DF804EB 		ldr	lr, [sp], #4
 916              		.cfi_restore 14
 917              		.cfi_def_cfa_offset 0
 918              		.loc 1 263 3 view .LVU225
 919 0036 FFF7FEBF 		b	AsebaCanSendQueueToPhysicalLayer
 920              	.LVL55:
 921              	.L84:
 922              		.cfi_restore_state
 923              		.loc 1 264 1 view .LVU226
 924 003a FFF7FEFF 		bl	__stack_chk_fail
 925              	.LVL56:
 926              	.L87:
 927 003e 00BF     		.align	2
 928              	.L86:
 929 0040 00000000 		.word	.LC7
 930 0044 00000000 		.word	.LANCHOR0
 931              		.cfi_endproc
 932              	.LFE13:
 933              		.size	AsebaCanFrameSent, .-AsebaCanFrameSent
 934              		.section	.rodata.AsebaCanFlushQueue.cst4,"aM",%progbits,4
 935              		.align	2
 936              	.LC8:
 937 0000 00000000 		.word	__stack_chk_guard
 938              		.section	.text.AsebaCanFlushQueue,"ax",%progbits
 939              		.align	1
 940              		.p2align 4,,15
 941              		.global	AsebaCanFlushQueue
 942              		.syntax unified
 943              		.thumb
 944              		.thumb_func
 945              		.fpu fpv4-sp-d16
 946              		.type	AsebaCanFlushQueue, %function
 947              	AsebaCanFlushQueue:
 948              	.LFB14:
 949              		.loc 1 267 1 is_stmt 1 view -0
 950              		.cfi_startproc
 951              		@ args = 0, pretend = 0, frame = 8
 952              		@ frame_needed = 0, uses_anonymous_args = 0
 953 0000 10B5     		push	{r4, lr}
 954              		.cfi_def_cfa_offset 8
 955              		.cfi_offset 4, -8
 956              		.cfi_offset 14, -4
 957 0002 0D4B     		ldr	r3, .L97
 958 0004 0D4C     		ldr	r4, .L97+4
 959 0006 82B0     		sub	sp, sp, #8
 960              		.cfi_def_cfa_offset 16
 961              		.loc 1 267 1 is_stmt 0 view .LVU228
 962 0008 1B68     		ldr	r3, [r3]
 963 000a 0193     		str	r3, [sp, #4]
 964 000c 4FF00003 		mov	r3,#0
 965              		.loc 1 268 2 is_stmt 1 view .LVU229
 966              		.loc 1 268 7 is_stmt 0 view .LVU230
 967 0010 01E0     		b	.L89
 968              	.L90:
 969              		.loc 1 269 3 is_stmt 1 view .LVU231
ARM GAS  /tmp/cccUr8Dk.s 			page 18


 970 0012 FFF7FEFF 		bl	AsebaIdle
 971              	.LVL57:
 972              	.L89:
 973              		.loc 1 268 7 view .LVU232
 974 0016 E28B     		ldrh	r2, [r4, #30]
 975 0018 A38B     		ldrh	r3, [r4, #28]
 976 001a 9A42     		cmp	r2, r3
 977 001c F9D1     		bne	.L90
 978              		.loc 1 268 72 is_stmt 0 discriminator 1 view .LVU233
 979 001e A368     		ldr	r3, [r4, #8]
 980 0020 9847     		blx	r3
 981              	.LVL58:
 982              		.loc 1 268 68 discriminator 1 view .LVU234
 983 0022 0028     		cmp	r0, #0
 984 0024 F5D0     		beq	.L90
 985              		.loc 1 270 1 view .LVU235
 986 0026 044B     		ldr	r3, .L97
 987 0028 1A68     		ldr	r2, [r3]
 988 002a 019B     		ldr	r3, [sp, #4]
 989 002c 5A40     		eors	r2, r3, r2
 990 002e 01D1     		bne	.L96
 991 0030 02B0     		add	sp, sp, #8
 992              		.cfi_remember_state
 993              		.cfi_def_cfa_offset 8
 994              		@ sp needed
 995 0032 10BD     		pop	{r4, pc}
 996              	.L96:
 997              		.cfi_restore_state
 998 0034 FFF7FEFF 		bl	__stack_chk_fail
 999              	.LVL59:
 1000              	.L98:
 1001              		.align	2
 1002              	.L97:
 1003 0038 00000000 		.word	.LC8
 1004 003c 00000000 		.word	.LANCHOR0
 1005              		.cfi_endproc
 1006              	.LFE14:
 1007              		.size	AsebaCanFlushQueue, .-AsebaCanFlushQueue
 1008              		.section	.rodata.AsebaCanRecv.cst4,"aM",%progbits,4
 1009              		.align	2
 1010              	.LC9:
 1011 0000 00000000 		.word	__stack_chk_guard
 1012              		.section	.text.AsebaCanRecv,"ax",%progbits
 1013              		.align	1
 1014              		.p2align 4,,15
 1015              		.global	AsebaCanRecv
 1016              		.syntax unified
 1017              		.thumb
 1018              		.thumb_func
 1019              		.fpu fpv4-sp-d16
 1020              		.type	AsebaCanRecv, %function
 1021              	AsebaCanRecv:
 1022              	.LVL60:
 1023              	.LFB15:
 1024              		.loc 1 273 1 is_stmt 1 view -0
 1025              		.cfi_startproc
 1026              		@ args = 0, pretend = 0, frame = 24
ARM GAS  /tmp/cccUr8Dk.s 			page 19


 1027              		@ frame_needed = 0, uses_anonymous_args = 0
 1028              		.loc 1 273 1 is_stmt 0 view .LVU237
 1029 0000 2DE9F04F 		push	{r4, r5, r6, r7, r8, r9, r10, fp, lr}
 1030              		.cfi_def_cfa_offset 36
 1031              		.cfi_offset 4, -36
 1032              		.cfi_offset 5, -32
 1033              		.cfi_offset 6, -28
 1034              		.cfi_offset 7, -24
 1035              		.cfi_offset 8, -20
 1036              		.cfi_offset 9, -16
 1037              		.cfi_offset 10, -12
 1038              		.cfi_offset 11, -8
 1039              		.cfi_offset 14, -4
 1040              		.loc 1 280 9 view .LVU238
 1041 0004 5D4B     		ldr	r3, .L140
 1042              		.loc 1 273 1 view .LVU239
 1043 0006 5E4C     		ldr	r4, .L140+4
 1044              		.loc 1 280 9 view .LVU240
 1045 0008 5E8D     		ldrh	r6, [r3, #42]
 1046              		.loc 1 280 54 view .LVU241
 1047 000a B3F828A0 		ldrh	r10, [r3, #40]
 1048              		.loc 1 273 1 view .LVU242
 1049 000e 87B0     		sub	sp, sp, #28
 1050              		.cfi_def_cfa_offset 64
 1051              		.loc 1 273 1 view .LVU243
 1052 0010 2468     		ldr	r4, [r4]
 1053 0012 0594     		str	r4, [sp, #20]
 1054 0014 4FF00004 		mov	r4,#0
 1055              		.loc 1 274 2 is_stmt 1 view .LVU244
 1056              	.LVL61:
 1057              		.loc 1 275 2 view .LVU245
 1058              		.loc 1 276 2 view .LVU246
 1059              		.loc 1 277 2 view .LVU247
 1060              		.loc 1 280 2 view .LVU248
 1061              		.loc 1 306 20 is_stmt 0 view .LVU249
 1062 0018 D3E90878 		ldrd	r7, r8, [r3, #32]
 1063              		.loc 1 273 1 view .LVU250
 1064 001c 0090     		str	r0, [sp]
 1065 001e 1546     		mov	r5, r2
 1066 0020 0846     		mov	r0, r1
 1067              	.LVL62:
 1068              		.loc 1 280 9 view .LVU251
 1069 0022 3446     		mov	r4, r6
 1070              		.loc 1 280 2 view .LVU252
 1071 0024 04E0     		b	.L110
 1072              	.LVL63:
 1073              	.L101:
 1074              		.loc 1 305 3 is_stmt 1 view .LVU253
 1075              		.loc 1 305 4 is_stmt 0 view .LVU254
 1076 0026 0134     		adds	r4, r4, #1
 1077              	.LVL64:
 1078              		.loc 1 305 4 view .LVU255
 1079 0028 A4B2     		uxth	r4, r4
 1080              	.LVL65:
 1081              		.loc 1 306 3 is_stmt 1 view .LVU256
 1082              		.loc 1 307 6 is_stmt 0 view .LVU257
 1083 002a 4445     		cmp	r4, r8
ARM GAS  /tmp/cccUr8Dk.s 			page 20


 1084 002c 28BF     		it	cs
 1085 002e 0024     		movcs	r4, #0
 1086              	.LVL66:
 1087              	.L110:
 1088              		.loc 1 280 41 is_stmt 1 discriminator 1 view .LVU258
 1089              		.loc 1 280 2 is_stmt 0 discriminator 1 view .LVU259
 1090 0030 A245     		cmp	r10, r4
 1091 0032 6CD0     		beq	.L135
 1092              		.loc 1 282 3 is_stmt 1 view .LVU260
 1093              		.loc 1 282 24 is_stmt 0 view .LVU261
 1094 0034 04EB4409 		add	r9, r4, r4, lsl #1
 1095 0038 07EB8909 		add	r9, r7, r9, lsl #2
 1096              		.loc 1 282 5 view .LVU262
 1097 003c 99F90920 		ldrsb	r2, [r9, #9]
 1098 0040 002A     		cmp	r2, #0
 1099 0042 F0DA     		bge	.L101
 1100              		.loc 1 284 4 is_stmt 1 view .LVU263
 1101              		.loc 1 284 8 is_stmt 0 view .LVU264
 1102 0044 B9F80820 		ldrh	r2, [r9, #8]
 1103 0048 C2F30221 		ubfx	r1, r2, #8, #3
 1104              		.loc 1 284 7 view .LVU265
 1105 004c 0329     		cmp	r1, #3
 1106              		.loc 1 284 8 view .LVU266
 1107 004e C2F30A02 		ubfx	r2, r2, #0, #11
 1108              		.loc 1 284 7 view .LVU267
 1109 0052 62D0     		beq	.L136
 1110              		.loc 1 298 9 is_stmt 1 view .LVU268
 1111              		.loc 1 298 12 is_stmt 0 view .LVU269
 1112 0054 0229     		cmp	r1, #2
 1113 0056 E6D1     		bne	.L101
 1114              		.loc 1 300 5 is_stmt 1 view .LVU270
 1115              	.LVL67:
 1116              		.loc 1 301 5 view .LVU271
 1117 0058 5FFA82F9 		uxtb	r9, r2
 1118              	.LVL68:
 1119              		.loc 1 302 5 view .LVU272
 1120              		.loc 1 311 2 view .LVU273
 1121              		.loc 1 315 2 view .LVU274
 1122              		.loc 1 315 10 is_stmt 0 view .LVU275
 1123 005c A5F80090 		strh	r9, [r5]	@ movhi
 1124              		.loc 1 316 2 is_stmt 1 view .LVU276
 1125              	.LVL69:
 1126              		.loc 1 316 2 is_stmt 0 view .LVU277
 1127 0060 0196     		str	r6, [sp, #4]
 1128              		.loc 1 280 9 view .LVU278
 1129 0062 3546     		mov	r5, r6
 1130              	.LVL70:
 1131              		.loc 1 276 9 view .LVU279
 1132 0064 4FF0000B 		mov	fp, #0
 1133 0068 0646     		mov	r6, r0
 1134              	.LVL71:
 1135              		.loc 1 276 9 view .LVU280
 1136 006a 04E0     		b	.L109
 1137              	.LVL72:
 1138              	.L112:
 1139              		.loc 1 336 3 is_stmt 1 view .LVU281
 1140              		.loc 1 336 4 is_stmt 0 view .LVU282
ARM GAS  /tmp/cccUr8Dk.s 			page 21


 1141 006c 0135     		adds	r5, r5, #1
 1142              	.LVL73:
 1143              		.loc 1 336 4 view .LVU283
 1144 006e ADB2     		uxth	r5, r5
 1145              	.LVL74:
 1146              		.loc 1 337 3 is_stmt 1 view .LVU284
 1147              		.loc 1 338 6 is_stmt 0 view .LVU285
 1148 0070 A845     		cmp	r8, r5
 1149 0072 98BF     		it	ls
 1150 0074 0025     		movls	r5, #0
 1151              	.LVL75:
 1152              	.L109:
 1153              		.loc 1 317 2 is_stmt 1 view .LVU286
 1154              		.loc 1 319 3 view .LVU287
 1155              		.loc 1 319 24 is_stmt 0 view .LVU288
 1156 0076 05EB4501 		add	r1, r5, r5, lsl #1
 1157 007a 07EB8101 		add	r1, r7, r1, lsl #2
 1158              		.loc 1 319 5 view .LVU289
 1159 007e 91F90920 		ldrsb	r2, [r1, #9]
 1160 0082 002A     		cmp	r2, #0
 1161 0084 F2DA     		bge	.L112
 1162              		.loc 1 321 4 is_stmt 1 view .LVU290
 1163              		.loc 1 321 7 is_stmt 0 view .LVU291
 1164 0086 0A7A     		ldrb	r2, [r1, #8]	@ zero_extendqisi2
 1165 0088 9145     		cmp	r9, r2
 1166 008a 23D0     		beq	.L137
 1167              	.L113:
 1168              		.loc 1 332 4 is_stmt 1 view .LVU292
 1169              		.loc 1 332 7 is_stmt 0 view .LVU293
 1170 008c AC42     		cmp	r4, r5
 1171 008e EDD1     		bne	.L112
 1172              		.loc 1 332 7 view .LVU294
 1173 0090 019E     		ldr	r6, [sp, #4]
 1174              	.LVL76:
 1175              	.LBB76:
 1176              	.LBB77:
 1177              		.loc 1 158 8 is_stmt 1 view .LVU295
 1178 0092 B245     		cmp	r10, r6
 1179 0094 18BF     		it	ne
 1180 0096 0021     		movne	r1, #0
 1181 0098 09D1     		bne	.L115
 1182 009a 12E0     		b	.L103
 1183              	.L117:
 1184              		.loc 1 163 3 view .LVU296
 1185              		.loc 1 163 8 is_stmt 0 view .LVU297
 1186 009c 0136     		adds	r6, r6, #1
 1187 009e B6B2     		uxth	r6, r6
 1188              	.LVL77:
 1189              		.loc 1 164 3 is_stmt 1 view .LVU298
 1190              		.loc 1 165 9 is_stmt 0 view .LVU299
 1191 00a0 B045     		cmp	r8, r6
 1192 00a2 98BF     		it	ls
 1193 00a4 0026     		movls	r6, #0
 1194              	.LVL78:
 1195              		.loc 1 166 3 is_stmt 1 view .LVU300
 1196              		.loc 1 158 8 view .LVU301
 1197 00a6 B245     		cmp	r10, r6
ARM GAS  /tmp/cccUr8Dk.s 			page 22


 1198 00a8 4FF00101 		mov	r1, #1
 1199 00ac 32D0     		beq	.L131
 1200              	.LVL79:
 1201              	.L115:
 1202              		.loc 1 160 3 view .LVU302
 1203              		.loc 1 160 7 is_stmt 0 view .LVU303
 1204 00ae 06EB4602 		add	r2, r6, r6, lsl #1
 1205 00b2 07EB8202 		add	r2, r7, r2, lsl #2
 1206              		.loc 1 160 6 view .LVU304
 1207 00b6 92F90920 		ldrsb	r2, [r2, #9]
 1208 00ba 002A     		cmp	r2, #0
 1209 00bc EEDA     		bge	.L117
 1210              	.LVL80:
 1211              	.L134:
 1212              		.loc 1 160 6 view .LVU305
 1213 00be 01B1     		cbz	r1, .L103
 1214 00c0 5E85     		strh	r6, [r3, #42]	@ movhi
 1215              	.L103:
 1216              	.LBE77:
 1217              	.LBE76:
 1218              		.loc 1 345 1 view .LVU306
 1219 00c2 2F4B     		ldr	r3, .L140+4
 1220 00c4 1A68     		ldr	r2, [r3]
 1221 00c6 059B     		ldr	r3, [sp, #20]
 1222 00c8 5A40     		eors	r2, r3, r2
 1223 00ca 54D1     		bne	.L138
 1224 00cc 5846     		mov	r0, fp
 1225 00ce 07B0     		add	sp, sp, #28
 1226              		.cfi_remember_state
 1227              		.cfi_def_cfa_offset 36
 1228              		@ sp needed
 1229 00d0 BDE8F08F 		pop	{r4, r5, r6, r7, r8, r9, r10, fp, pc}
 1230              	.LVL81:
 1231              	.L137:
 1232              		.cfi_restore_state
 1233              		.loc 1 323 4 is_stmt 1 view .LVU307
 1234              		.loc 1 323 7 is_stmt 0 view .LVU308
 1235 00d4 B345     		cmp	fp, r6
 1236 00d6 04D3     		bcc	.L139
 1237              	.L114:
 1238              		.loc 1 329 5 is_stmt 1 view .LVU309
 1239              		.loc 1 329 32 is_stmt 0 view .LVU310
 1240 00d8 4A7A     		ldrb	r2, [r1, #9]	@ zero_extendqisi2
 1241 00da 6FF3C712 		bfc	r2, #7, #1
 1242 00de 4A72     		strb	r2, [r1, #9]
 1243 00e0 D4E7     		b	.L113
 1244              	.L139:
 1245              	.LBB78:
 1246              		.loc 1 325 6 is_stmt 1 view .LVU311
 1247              		.loc 1 325 22 is_stmt 0 view .LVU312
 1248 00e2 487A     		ldrb	r0, [r1, #9]	@ zero_extendqisi2
 1249              		.loc 1 326 6 view .LVU313
 1250 00e4 009B     		ldr	r3, [sp]
 1251              		.loc 1 325 22 view .LVU314
 1252 00e6 A6EB0B02 		sub	r2, r6, fp
 1253 00ea C0F3C300 		ubfx	r0, r0, #3, #4
 1254 00ee 8242     		cmp	r2, r0
ARM GAS  /tmp/cccUr8Dk.s 			page 23


 1255 00f0 28BF     		it	cs
 1256 00f2 0246     		movcs	r2, r0
 1257              	.LVL82:
 1258              		.loc 1 326 6 is_stmt 1 view .LVU315
 1259 00f4 03EB0B00 		add	r0, r3, fp
 1260 00f8 CDE90212 		strd	r1, r2, [sp, #8]
 1261 00fc FFF7FEFF 		bl	memcpy
 1262              	.LVL83:
 1263              		.loc 1 327 6 view .LVU316
 1264              		.loc 1 327 10 is_stmt 0 view .LVU317
 1265 0100 039A     		ldr	r2, [sp, #12]
 1266 0102 1E4B     		ldr	r3, .L140
 1267 0104 0299     		ldr	r1, [sp, #8]
 1268 0106 9344     		add	fp, fp, r2
 1269              	.LVL84:
 1270              		.loc 1 327 10 view .LVU318
 1271 0108 1FFA8BFB 		uxth	fp, fp
 1272              	.LVL85:
 1273              		.loc 1 327 10 view .LVU319
 1274 010c E4E7     		b	.L114
 1275              	.LVL86:
 1276              	.L135:
 1277              		.loc 1 327 10 view .LVU320
 1278              	.LBE78:
 1279              		.loc 1 312 10 view .LVU321
 1280 010e 4FF0000B 		mov	fp, #0
 1281 0112 D6E7     		b	.L103
 1282              	.LVL87:
 1283              	.L131:
 1284              		.loc 1 312 10 view .LVU322
 1285 0114 A3F82AA0 		strh	r10, [r3, #42]	@ movhi
 1286 0118 D3E7     		b	.L103
 1287              	.LVL88:
 1288              	.L136:
 1289              	.LBB79:
 1290              		.loc 1 287 5 is_stmt 1 view .LVU323
 1291              		.loc 1 287 18 is_stmt 0 view .LVU324
 1292 011a 99F80920 		ldrb	r2, [r9, #9]	@ zero_extendqisi2
 1293 011e C2F3C30B 		ubfx	fp, r2, #3, #4
 1294 0122 8345     		cmp	fp, r0
 1295 0124 28BF     		it	cs
 1296 0126 8346     		movcs	fp, r0
 1297              		.loc 1 288 5 view .LVU325
 1298 0128 5A46     		mov	r2, fp
 1299 012a 0098     		ldr	r0, [sp]
 1300              	.LVL89:
 1301              		.loc 1 288 5 view .LVU326
 1302 012c 4946     		mov	r1, r9
 1303 012e FFF7FEFF 		bl	memcpy
 1304              	.LVL90:
 1305              		.loc 1 289 15 view .LVU327
 1306 0132 99F80820 		ldrb	r2, [r9, #8]	@ zero_extendqisi2
 1307              		.loc 1 289 13 view .LVU328
 1308 0136 2A80     		strh	r2, [r5]	@ movhi
 1309              		.loc 1 290 32 view .LVU329
 1310 0138 99F80920 		ldrb	r2, [r9, #9]	@ zero_extendqisi2
 1311              	.LBB80:
ARM GAS  /tmp/cccUr8Dk.s 			page 24


 1312              	.LBB81:
 1313              		.loc 1 158 8 view .LVU330
 1314 013c B245     		cmp	r10, r6
 1315              	.LBE81:
 1316              	.LBE80:
 1317              		.loc 1 290 32 view .LVU331
 1318 013e 6FF3C712 		bfc	r2, #7, #1
 1319              		.loc 1 287 12 view .LVU332
 1320 0142 1FFA8BFB 		uxth	fp, fp
 1321              	.LVL91:
 1322              		.loc 1 288 5 is_stmt 1 view .LVU333
 1323              		.loc 1 289 5 view .LVU334
 1324              		.loc 1 290 5 view .LVU335
 1325              		.loc 1 290 32 is_stmt 0 view .LVU336
 1326 0146 89F80920 		strb	r2, [r9, #9]
 1327              	.LVL92:
 1328              		.loc 1 293 5 is_stmt 1 view .LVU337
 1329              	.LBB83:
 1330              	.LBI80:
 1331              		.loc 1 155 13 view .LVU338
 1332              	.LBB82:
 1333              		.loc 1 157 2 view .LVU339
 1334              		.loc 1 158 2 view .LVU340
 1335              		.loc 1 158 8 view .LVU341
 1336 014a BAD0     		beq	.L103
 1337 014c 0B4B     		ldr	r3, .L140
 1338 014e 0021     		movs	r1, #0
 1339 0150 08E0     		b	.L107
 1340              	.L104:
 1341              		.loc 1 163 3 view .LVU342
 1342              		.loc 1 163 8 is_stmt 0 view .LVU343
 1343 0152 0136     		adds	r6, r6, #1
 1344 0154 B6B2     		uxth	r6, r6
 1345              	.LVL93:
 1346              		.loc 1 164 3 is_stmt 1 view .LVU344
 1347              		.loc 1 165 9 is_stmt 0 view .LVU345
 1348 0156 B045     		cmp	r8, r6
 1349 0158 98BF     		it	ls
 1350 015a 0026     		movls	r6, #0
 1351              	.LVL94:
 1352              		.loc 1 166 3 is_stmt 1 view .LVU346
 1353              		.loc 1 158 8 view .LVU347
 1354 015c B245     		cmp	r10, r6
 1355 015e 4FF00101 		mov	r1, #1
 1356 0162 D7D0     		beq	.L131
 1357              	.LVL95:
 1358              	.L107:
 1359              		.loc 1 160 3 view .LVU348
 1360              		.loc 1 160 7 is_stmt 0 view .LVU349
 1361 0164 06EB4602 		add	r2, r6, r6, lsl #1
 1362 0168 07EB8202 		add	r2, r7, r2, lsl #2
 1363              		.loc 1 160 6 view .LVU350
 1364 016c 92F90920 		ldrsb	r2, [r2, #9]
 1365 0170 002A     		cmp	r2, #0
 1366 0172 EEDA     		bge	.L104
 1367 0174 A3E7     		b	.L134
 1368              	.LVL96:
ARM GAS  /tmp/cccUr8Dk.s 			page 25


 1369              	.L138:
 1370              		.loc 1 160 6 view .LVU351
 1371              	.LBE82:
 1372              	.LBE83:
 1373              	.LBE79:
 1374              		.loc 1 345 1 view .LVU352
 1375 0176 FFF7FEFF 		bl	__stack_chk_fail
 1376              	.LVL97:
 1377              	.L141:
 1378 017a 00BF     		.align	2
 1379              	.L140:
 1380 017c 00000000 		.word	.LANCHOR0
 1381 0180 00000000 		.word	.LC9
 1382              		.cfi_endproc
 1383              	.LFE15:
 1384              		.size	AsebaCanRecv, .-AsebaCanRecv
 1385              		.section	.rodata.AsebaCanFrameReceived.cst4,"aM",%progbits,4
 1386              		.align	2
 1387              	.LC10:
 1388 0000 00000000 		.word	__stack_chk_guard
 1389              		.section	.text.AsebaCanFrameReceived,"ax",%progbits
 1390              		.align	1
 1391              		.p2align 4,,15
 1392              		.global	AsebaCanFrameReceived
 1393              		.syntax unified
 1394              		.thumb
 1395              		.thumb_func
 1396              		.fpu fpv4-sp-d16
 1397              		.type	AsebaCanFrameReceived, %function
 1398              	AsebaCanFrameReceived:
 1399              	.LVL98:
 1400              	.LFB16:
 1401              		.loc 1 351 1 is_stmt 1 view -0
 1402              		.cfi_startproc
 1403              		@ args = 0, pretend = 0, frame = 8
 1404              		@ frame_needed = 0, uses_anonymous_args = 0
 1405              		.loc 1 351 1 is_stmt 0 view .LVU354
 1406 0000 F0B5     		push	{r4, r5, r6, r7, lr}
 1407              		.cfi_def_cfa_offset 20
 1408              		.cfi_offset 4, -20
 1409              		.cfi_offset 5, -16
 1410              		.cfi_offset 6, -12
 1411              		.cfi_offset 7, -8
 1412              		.cfi_offset 14, -4
 1413              		.loc 1 353 18 view .LVU355
 1414 0002 0689     		ldrh	r6, [r0, #8]
 1415              		.loc 1 351 1 view .LVU356
 1416 0004 584B     		ldr	r3, .L187
 1417              		.loc 1 356 6 view .LVU357
 1418 0006 C6F30221 		ubfx	r1, r6, #8, #3
 1419              		.loc 1 351 1 view .LVU358
 1420 000a 83B0     		sub	sp, sp, #12
 1421              		.cfi_def_cfa_offset 32
 1422              		.loc 1 356 5 view .LVU359
 1423 000c 0329     		cmp	r1, #3
 1424              		.loc 1 351 1 view .LVU360
 1425 000e 0746     		mov	r7, r0
ARM GAS  /tmp/cccUr8Dk.s 			page 26


 1426 0010 1B68     		ldr	r3, [r3]
 1427 0012 0193     		str	r3, [sp, #4]
 1428 0014 4FF00003 		mov	r3,#0
 1429              		.loc 1 353 2 is_stmt 1 view .LVU361
 1430 0018 F6B2     		uxtb	r6, r6
 1431              	.LVL99:
 1432              		.loc 1 356 2 view .LVU362
 1433              		.loc 1 356 5 is_stmt 0 view .LVU363
 1434 001a 1AD0     		beq	.L182
 1435              		.loc 1 361 7 is_stmt 1 view .LVU364
 1436              		.loc 1 361 10 is_stmt 0 view .LVU365
 1437 001c 0129     		cmp	r1, #1
 1438 001e 59D0     		beq	.L183
 1439 0020 5248     		ldr	r0, .L187+4
 1440              	.LVL100:
 1441              		.loc 1 361 10 view .LVU366
 1442 0022 751C     		adds	r5, r6, #1
 1443 0024 0246     		mov	r2, r0
 1444 0026 0023     		movs	r3, #0
 1445 0028 02E0     		b	.L153
 1446              	.LVL101:
 1447              	.L152:
 1448              	.LBB84:
 1449              		.loc 1 379 40 is_stmt 1 discriminator 2 view .LVU367
 1450              		.loc 1 379 15 discriminator 2 view .LVU368
 1451 002a 0133     		adds	r3, r3, #1
 1452              	.LVL102:
 1453              		.loc 1 379 3 is_stmt 0 discriminator 2 view .LVU369
 1454 002c 142B     		cmp	r3, #20
 1455 002e 16D0     		beq	.L149
 1456              	.L153:
 1457              	.LVL103:
 1458              		.loc 1 381 4 is_stmt 1 view .LVU370
 1459              		.loc 1 381 16 is_stmt 0 view .LVU371
 1460 0030 32F8024B 		ldrh	r4, [r2], #2
 1461              		.loc 1 381 7 view .LVU372
 1462 0034 AC42     		cmp	r4, r5
 1463 0036 F8D1     		bne	.L152
 1464              		.loc 1 383 5 is_stmt 1 view .LVU373
 1465              		.loc 1 383 8 is_stmt 0 view .LVU374
 1466 0038 0229     		cmp	r1, #2
 1467 003a 02D1     		bne	.L142
 1468              		.loc 1 384 6 is_stmt 1 view .LVU375
 1469              		.loc 1 384 18 is_stmt 0 view .LVU376
 1470 003c 0022     		movs	r2, #0
 1471 003e 20F81320 		strh	r2, [r0, r3, lsl #1]	@ movhi
 1472              	.LVL104:
 1473              	.L142:
 1474              		.loc 1 384 18 view .LVU377
 1475              	.LBE84:
 1476              		.loc 1 412 1 view .LVU378
 1477 0042 494B     		ldr	r3, .L187
 1478 0044 1A68     		ldr	r2, [r3]
 1479 0046 019B     		ldr	r3, [sp, #4]
 1480 0048 5A40     		eors	r2, r3, r2
 1481 004a 40F08A80 		bne	.L181
 1482 004e 03B0     		add	sp, sp, #12
ARM GAS  /tmp/cccUr8Dk.s 			page 27


 1483              		.cfi_remember_state
 1484              		.cfi_def_cfa_offset 20
 1485              		@ sp needed
 1486 0050 F0BD     		pop	{r4, r5, r6, r7, pc}
 1487              	.LVL105:
 1488              	.L182:
 1489              		.cfi_restore_state
 1490              		.loc 1 358 3 is_stmt 1 view .LVU379
 1491              		.loc 1 358 7 is_stmt 0 view .LVU380
 1492 0052 0146     		mov	r1, r0
 1493 0054 3046     		mov	r0, r6
 1494              	.LVL106:
 1495              		.loc 1 358 7 view .LVU381
 1496 0056 FFF7FEFF 		bl	AsebaShouldDropPacket
 1497              	.LVL107:
 1498              		.loc 1 358 6 view .LVU382
 1499 005a 0028     		cmp	r0, #0
 1500 005c F1D1     		bne	.L142
 1501              	.L149:
 1502              		.loc 1 390 2 is_stmt 1 view .LVU383
 1503              	.LBB85:
 1504              	.LBI85:
 1505              		.loc 1 149 15 view .LVU384
 1506              	.LBB86:
 1507              		.loc 1 151 2 view .LVU385
 1508              		.loc 1 151 17 is_stmt 0 view .LVU386
 1509 005e 4448     		ldr	r0, .L187+8
 1510              	.LBB87:
 1511              	.LBB88:
 1512              		.loc 1 140 7 view .LVU387
 1513 0060 048D     		ldrh	r4, [r0, #40]
 1514              		.loc 1 141 7 view .LVU388
 1515 0062 438D     		ldrh	r3, [r0, #42]
 1516              	.LBE88:
 1517              	.LBE87:
 1518              		.loc 1 151 17 view .LVU389
 1519 0064 456A     		ldr	r5, [r0, #36]
 1520              	.LBB92:
 1521              	.LBB89:
 1522              		.loc 1 142 5 view .LVU390
 1523 0066 9C42     		cmp	r4, r3
 1524              	.LBE89:
 1525              	.LBE92:
 1526              		.loc 1 151 32 view .LVU391
 1527 0068 AAB2     		uxth	r2, r5
 1528              	.LBB93:
 1529              	.LBI87:
 1530              		.loc 1 137 15 is_stmt 1 view .LVU392
 1531              	.LBB90:
 1532              		.loc 1 139 2 view .LVU393
 1533              		.loc 1 140 2 view .LVU394
 1534              	.LVL108:
 1535              		.loc 1 141 2 view .LVU395
 1536              		.loc 1 142 2 view .LVU396
 1537              		.loc 1 142 5 is_stmt 0 view .LVU397
 1538 006a 15D2     		bcs	.L145
 1539              		.loc 1 145 3 is_stmt 1 view .LVU398
ARM GAS  /tmp/cccUr8Dk.s 			page 28


 1540              		.loc 1 145 33 is_stmt 0 view .LVU399
 1541 006c D11A     		subs	r1, r2, r3
 1542              		.loc 1 145 40 view .LVU400
 1543 006e 2144     		add	r1, r1, r4
 1544 0070 89B2     		uxth	r1, r1
 1545              	.LVL109:
 1546              		.loc 1 145 40 view .LVU401
 1547              	.LBE90:
 1548              	.LBE93:
 1549              		.loc 1 151 32 view .LVU402
 1550 0072 521A     		subs	r2, r2, r1
 1551              	.LBE86:
 1552              	.LBE85:
 1553              		.loc 1 390 5 view .LVU403
 1554 0074 92B2     		uxth	r2, r2
 1555 0076 012A     		cmp	r2, #1
 1556 0078 14D8     		bhi	.L155
 1557              	.L185:
 1558              		.loc 1 393 3 is_stmt 1 view .LVU404
 1559              		.loc 1 393 7 is_stmt 0 view .LVU405
 1560 007a 3A89     		ldrh	r2, [r7, #8]
 1561 007c C2F30222 		ubfx	r2, r2, #8, #3
 1562              		.loc 1 393 6 view .LVU406
 1563 0080 022A     		cmp	r2, #2
 1564 0082 3CD0     		beq	.L184
 1565              	.LVL110:
 1566              	.L157:
 1567              		.loc 1 399 3 is_stmt 1 view .LVU407
 1568 0084 384B     		ldr	r3, .L187
 1569 0086 1A68     		ldr	r2, [r3]
 1570 0088 019B     		ldr	r3, [sp, #4]
 1571 008a 5A40     		eors	r2, r3, r2
 1572 008c 69D1     		bne	.L181
 1573 008e C368     		ldr	r3, [r0, #12]
 1574              		.loc 1 412 1 is_stmt 0 view .LVU408
 1575 0090 03B0     		add	sp, sp, #12
 1576              		.cfi_remember_state
 1577              		.cfi_def_cfa_offset 20
 1578              		@ sp needed
 1579 0092 BDE8F040 		pop	{r4, r5, r6, r7, lr}
 1580              		.cfi_restore 14
 1581              		.cfi_restore 7
 1582              		.cfi_restore 6
 1583              		.cfi_restore 5
 1584              		.cfi_restore 4
 1585              		.cfi_def_cfa_offset 0
 1586              	.LVL111:
 1587              		.loc 1 399 3 view .LVU409
 1588 0096 1847     		bx	r3	@ indirect register sibling call
 1589              	.LVL112:
 1590              	.L145:
 1591              		.cfi_restore_state
 1592              	.LBB96:
 1593              	.LBB95:
 1594              	.LBB94:
 1595              	.LBB91:
 1596              		.loc 1 143 3 is_stmt 1 view .LVU410
ARM GAS  /tmp/cccUr8Dk.s 			page 29


 1597              		.loc 1 143 15 is_stmt 0 view .LVU411
 1598 0098 E11A     		subs	r1, r4, r3
 1599 009a 89B2     		uxth	r1, r1
 1600              	.LVL113:
 1601              		.loc 1 143 15 view .LVU412
 1602              	.LBE91:
 1603              	.LBE94:
 1604              		.loc 1 151 32 view .LVU413
 1605 009c 521A     		subs	r2, r2, r1
 1606              	.LBE95:
 1607              	.LBE96:
 1608              		.loc 1 390 5 view .LVU414
 1609 009e 92B2     		uxth	r2, r2
 1610 00a0 012A     		cmp	r2, #1
 1611 00a2 EAD9     		bls	.L185
 1612              	.L155:
 1613              	.LBB97:
 1614              		.loc 1 403 3 is_stmt 1 view .LVU415
 1615              		.loc 1 405 3 view .LVU416
 1616              		.loc 1 405 29 is_stmt 0 view .LVU417
 1617 00a4 04EB4402 		add	r2, r4, r4, lsl #1
 1618              		.loc 1 405 10 view .LVU418
 1619 00a8 036A     		ldr	r3, [r0, #32]
 1620              		.loc 1 405 3 view .LVU419
 1621 00aa D7F800C0 		ldr	ip, [r7]	@ unaligned
 1622 00ae 7968     		ldr	r1, [r7, #4]	@ unaligned
 1623 00b0 BE68     		ldr	r6, [r7, #8]	@ unaligned
 1624              	.LVL114:
 1625              		.loc 1 405 3 view .LVU420
 1626 00b2 43F822C0 		str	ip, [r3, r2, lsl #2]	@ unaligned
 1627              		.loc 1 405 10 view .LVU421
 1628 00b6 03EB8203 		add	r3, r3, r2, lsl #2
 1629              		.loc 1 407 8 view .LVU422
 1630 00ba 0134     		adds	r4, r4, #1
 1631              		.loc 1 405 3 view .LVU423
 1632 00bc 9E60     		str	r6, [r3, #8]	@ unaligned
 1633              		.loc 1 406 3 is_stmt 1 view .LVU424
 1634              		.loc 1 406 56 is_stmt 0 view .LVU425
 1635 00be 5A7A     		ldrb	r2, [r3, #9]	@ zero_extendqisi2
 1636              		.loc 1 405 3 view .LVU426
 1637 00c0 5960     		str	r1, [r3, #4]	@ unaligned
 1638              		.loc 1 407 8 view .LVU427
 1639 00c2 A4B2     		uxth	r4, r4
 1640              		.loc 1 409 9 view .LVU428
 1641 00c4 AC42     		cmp	r4, r5
 1642 00c6 28BF     		it	cs
 1643 00c8 0024     		movcs	r4, #0
 1644              		.loc 1 406 56 view .LVU429
 1645 00ca 42F08002 		orr	r2, r2, #128
 1646 00ce 5A72     		strb	r2, [r3, #9]
 1647              		.loc 1 407 3 is_stmt 1 view .LVU430
 1648              		.loc 1 408 3 view .LVU431
 1649              	.LVL115:
 1650              		.loc 1 410 3 view .LVU432
 1651              		.loc 1 410 31 is_stmt 0 view .LVU433
 1652 00d0 0485     		strh	r4, [r0, #40]	@ movhi
 1653 00d2 B6E7     		b	.L142
ARM GAS  /tmp/cccUr8Dk.s 			page 30


 1654              	.LVL116:
 1655              	.L183:
 1656              		.loc 1 410 31 view .LVU434
 1657              	.LBE97:
 1658              		.loc 1 363 3 is_stmt 1 view .LVU435
 1659              		.loc 1 363 7 is_stmt 0 view .LVU436
 1660 00d4 0146     		mov	r1, r0
 1661 00d6 3046     		mov	r0, r6
 1662              	.LVL117:
 1663              		.loc 1 363 7 view .LVU437
 1664 00d8 FFF7FEFF 		bl	AsebaShouldDropPacket
 1665              	.LVL118:
 1666              		.loc 1 363 6 view .LVU438
 1667 00dc 0028     		cmp	r0, #0
 1668 00de BED0     		beq	.L149
 1669 00e0 2248     		ldr	r0, .L187+4
 1670 00e2 0023     		movs	r3, #0
 1671 00e4 0246     		mov	r2, r0
 1672 00e6 02E0     		b	.L151
 1673              	.LVL119:
 1674              	.L150:
 1675              	.LBB98:
 1676              		.loc 1 366 41 is_stmt 1 discriminator 2 view .LVU439
 1677              		.loc 1 366 16 discriminator 2 view .LVU440
 1678 00e8 0133     		adds	r3, r3, #1
 1679              	.LVL120:
 1680              		.loc 1 366 4 is_stmt 0 discriminator 2 view .LVU441
 1681 00ea 142B     		cmp	r3, #20
 1682 00ec B7D0     		beq	.L149
 1683              	.L151:
 1684              	.LVL121:
 1685              		.loc 1 368 5 is_stmt 1 view .LVU442
 1686              		.loc 1 368 17 is_stmt 0 view .LVU443
 1687 00ee 32F8021B 		ldrh	r1, [r2], #2
 1688              		.loc 1 368 8 view .LVU444
 1689 00f2 0029     		cmp	r1, #0
 1690 00f4 F8D1     		bne	.L150
 1691              		.loc 1 370 6 is_stmt 1 view .LVU445
 1692              		.loc 1 370 27 is_stmt 0 view .LVU446
 1693 00f6 0136     		adds	r6, r6, #1
 1694              	.LVL122:
 1695              		.loc 1 370 18 view .LVU447
 1696 00f8 20F81360 		strh	r6, [r0, r3, lsl #1]	@ movhi
 1697              		.loc 1 371 6 is_stmt 1 view .LVU448
 1698 00fc A1E7     		b	.L142
 1699              	.LVL123:
 1700              	.L184:
 1701              		.loc 1 371 6 is_stmt 0 view .LVU449
 1702              	.LBE98:
 1703              	.LBB99:
 1704              	.LBB100:
 1705              		.loc 1 176 41 is_stmt 1 view .LVU450
 1706              		.loc 1 176 2 is_stmt 0 view .LVU451
 1707 00fe 9C42     		cmp	r4, r3
 1708 0100 C0D0     		beq	.L157
 1709              		.loc 1 179 7 view .LVU452
 1710 0102 076A     		ldr	r7, [r0, #32]
ARM GAS  /tmp/cccUr8Dk.s 			page 31


 1711              	.LVL124:
 1712              		.loc 1 179 7 view .LVU453
 1713 0104 1A46     		mov	r2, r3
 1714              	.LVL125:
 1715              	.L161:
 1716              		.loc 1 179 3 is_stmt 1 view .LVU454
 1717              		.loc 1 179 7 is_stmt 0 view .LVU455
 1718 0106 02EB4201 		add	r1, r2, r2, lsl #1
 1719 010a 07EB8101 		add	r1, r7, r1, lsl #2
 1720              		.loc 1 179 6 view .LVU456
 1721 010e 91F808C0 		ldrb	ip, [r1, #8]	@ zero_extendqisi2
 1722 0112 6645     		cmp	r6, ip
 1723 0114 05D1     		bne	.L159
 1724              		.loc 1 180 4 is_stmt 1 view .LVU457
 1725              		.loc 1 180 31 is_stmt 0 view .LVU458
 1726 0116 91F809C0 		ldrb	ip, [r1, #9]	@ zero_extendqisi2
 1727 011a 6FF3C71C 		bfc	ip, #7, #1
 1728 011e 81F809C0 		strb	ip, [r1, #9]
 1729              	.L159:
 1730              		.loc 1 182 3 is_stmt 1 view .LVU459
 1731              		.loc 1 182 4 is_stmt 0 view .LVU460
 1732 0122 0132     		adds	r2, r2, #1
 1733              	.LVL126:
 1734              		.loc 1 182 4 view .LVU461
 1735 0124 92B2     		uxth	r2, r2
 1736              	.LVL127:
 1737              		.loc 1 183 3 is_stmt 1 view .LVU462
 1738              		.loc 1 184 6 is_stmt 0 view .LVU463
 1739 0126 9542     		cmp	r5, r2
 1740 0128 98BF     		it	ls
 1741 012a 0022     		movls	r2, #0
 1742              	.LVL128:
 1743              		.loc 1 176 41 is_stmt 1 view .LVU464
 1744              		.loc 1 176 2 is_stmt 0 view .LVU465
 1745 012c A242     		cmp	r2, r4
 1746 012e EAD1     		bne	.L161
 1747 0130 0021     		movs	r1, #0
 1748 0132 08E0     		b	.L164
 1749              	.LVL129:
 1750              	.L162:
 1751              		.loc 1 176 2 view .LVU466
 1752              	.LBE100:
 1753              	.LBE99:
 1754              	.LBB101:
 1755              	.LBB102:
 1756              		.loc 1 163 3 is_stmt 1 view .LVU467
 1757              		.loc 1 163 8 is_stmt 0 view .LVU468
 1758 0134 0133     		adds	r3, r3, #1
 1759 0136 9BB2     		uxth	r3, r3
 1760              	.LVL130:
 1761              		.loc 1 164 3 is_stmt 1 view .LVU469
 1762              		.loc 1 165 9 is_stmt 0 view .LVU470
 1763 0138 9D42     		cmp	r5, r3
 1764 013a 98BF     		it	ls
 1765 013c 0023     		movls	r3, #0
 1766              	.LVL131:
 1767              		.loc 1 166 3 is_stmt 1 view .LVU471
ARM GAS  /tmp/cccUr8Dk.s 			page 32


 1768              		.loc 1 158 8 view .LVU472
 1769 013e 9C42     		cmp	r4, r3
 1770 0140 4FF00101 		mov	r1, #1
 1771 0144 0BD0     		beq	.L186
 1772              	.LVL132:
 1773              	.L164:
 1774              		.loc 1 160 3 view .LVU473
 1775              		.loc 1 160 7 is_stmt 0 view .LVU474
 1776 0146 03EB4302 		add	r2, r3, r3, lsl #1
 1777 014a 07EB8202 		add	r2, r7, r2, lsl #2
 1778              		.loc 1 160 6 view .LVU475
 1779 014e 92F90920 		ldrsb	r2, [r2, #9]
 1780 0152 002A     		cmp	r2, #0
 1781 0154 EEDA     		bge	.L162
 1782 0156 0029     		cmp	r1, #0
 1783 0158 94D0     		beq	.L157
 1784 015a 4385     		strh	r3, [r0, #42]	@ movhi
 1785 015c 92E7     		b	.L157
 1786              	.LVL133:
 1787              	.L186:
 1788              		.loc 1 160 6 view .LVU476
 1789 015e 4485     		strh	r4, [r0, #42]	@ movhi
 1790 0160 90E7     		b	.L157
 1791              	.LVL134:
 1792              	.L181:
 1793              		.loc 1 160 6 view .LVU477
 1794              	.LBE102:
 1795              	.LBE101:
 1796              		.loc 1 412 1 view .LVU478
 1797 0162 FFF7FEFF 		bl	__stack_chk_fail
 1798              	.LVL135:
 1799              	.L188:
 1800 0166 00BF     		.align	2
 1801              	.L187:
 1802 0168 00000000 		.word	.LC10
 1803 016c 00000000 		.word	.LANCHOR1
 1804 0170 00000000 		.word	.LANCHOR0
 1805              		.cfi_endproc
 1806              	.LFE16:
 1807              		.size	AsebaCanFrameReceived, .-AsebaCanFrameReceived
 1808              		.section	.rodata.AsebaCanRecvFreeQueue.cst4,"aM",%progbits,4
 1809              		.align	2
 1810              	.LC11:
 1811 0000 00000000 		.word	__stack_chk_guard
 1812              		.section	.text.AsebaCanRecvFreeQueue,"ax",%progbits
 1813              		.align	1
 1814              		.p2align 4,,15
 1815              		.global	AsebaCanRecvFreeQueue
 1816              		.syntax unified
 1817              		.thumb
 1818              		.thumb_func
 1819              		.fpu fpv4-sp-d16
 1820              		.type	AsebaCanRecvFreeQueue, %function
 1821              	AsebaCanRecvFreeQueue:
 1822              	.LFB17:
 1823              		.loc 1 415 1 is_stmt 1 view -0
 1824              		.cfi_startproc
ARM GAS  /tmp/cccUr8Dk.s 			page 33


 1825              		@ args = 0, pretend = 0, frame = 8
 1826              		@ frame_needed = 0, uses_anonymous_args = 0
 1827 0000 00B5     		push	{lr}
 1828              		.cfi_def_cfa_offset 4
 1829              		.cfi_offset 14, -4
 1830              		.loc 1 417 25 is_stmt 0 view .LVU480
 1831 0002 1448     		ldr	r0, .L201
 1832              		.loc 1 415 1 view .LVU481
 1833 0004 144B     		ldr	r3, .L201+4
 1834              		.loc 1 417 25 view .LVU482
 1835 0006 416A     		ldr	r1, [r0, #36]
 1836              		.loc 1 415 1 view .LVU483
 1837 0008 83B0     		sub	sp, sp, #12
 1838              		.cfi_def_cfa_offset 16
 1839              		.loc 1 415 1 view .LVU484
 1840 000a 1B68     		ldr	r3, [r3]
 1841 000c 0193     		str	r3, [sp, #4]
 1842 000e 4FF00003 		mov	r3,#0
 1843              		.loc 1 416 2 is_stmt 1 view .LVU485
 1844              		.loc 1 417 2 view .LVU486
 1845              	.LVL136:
 1846              		.loc 1 417 13 view .LVU487
 1847              		.loc 1 417 2 is_stmt 0 view .LVU488
 1848 0012 59B1     		cbz	r1, .L190
 1849 0014 036A     		ldr	r3, [r0, #32]
 1850 0016 01EB4101 		add	r1, r1, r1, lsl #1
 1851 001a 03EB8101 		add	r1, r3, r1, lsl #2
 1852              	.LVL137:
 1853              	.L191:
 1854              		.loc 1 418 3 is_stmt 1 discriminator 3 view .LVU489
 1855              		.loc 1 418 30 is_stmt 0 discriminator 3 view .LVU490
 1856 001e 5A7A     		ldrb	r2, [r3, #9]	@ zero_extendqisi2
 1857 0020 6FF3C712 		bfc	r2, #7, #1
 1858 0024 5A72     		strb	r2, [r3, #9]
 1859              		.loc 1 417 41 is_stmt 1 discriminator 3 view .LVU491
 1860              		.loc 1 417 13 discriminator 3 view .LVU492
 1861 0026 0C33     		adds	r3, r3, #12
 1862              		.loc 1 417 2 is_stmt 0 discriminator 3 view .LVU493
 1863 0028 8B42     		cmp	r3, r1
 1864 002a F8D1     		bne	.L191
 1865              	.L190:
 1866              		.loc 1 419 2 is_stmt 1 view .LVU494
 1867              		.loc 1 420 2 view .LVU495
 1868 002c 0B4B     		ldr	r3, .L201+8
 1869              		.loc 1 419 30 is_stmt 0 view .LVU496
 1870 002e 0022     		movs	r2, #0
 1871 0030 03F12801 		add	r1, r3, #40
 1872 0034 8262     		str	r2, [r0, #40]
 1873              		.loc 1 422 2 is_stmt 1 view .LVU497
 1874              	.LVL138:
 1875              		.loc 1 422 13 view .LVU498
 1876              	.L192:
 1877              		.loc 1 423 3 discriminator 3 view .LVU499
 1878              		.loc 1 423 15 is_stmt 0 discriminator 3 view .LVU500
 1879 0036 23F8022F 		strh	r2, [r3, #2]!	@ movhi
 1880              		.loc 1 422 38 is_stmt 1 discriminator 3 view .LVU501
 1881              		.loc 1 422 13 discriminator 3 view .LVU502
ARM GAS  /tmp/cccUr8Dk.s 			page 34


 1882              		.loc 1 422 2 is_stmt 0 discriminator 3 view .LVU503
 1883 003a 8B42     		cmp	r3, r1
 1884 003c FBD1     		bne	.L192
 1885              		.loc 1 424 1 view .LVU504
 1886 003e 064B     		ldr	r3, .L201+4
 1887 0040 1A68     		ldr	r2, [r3]
 1888 0042 019B     		ldr	r3, [sp, #4]
 1889 0044 5A40     		eors	r2, r3, r2
 1890 0046 02D1     		bne	.L200
 1891 0048 03B0     		add	sp, sp, #12
 1892              		.cfi_remember_state
 1893              		.cfi_def_cfa_offset 4
 1894              		@ sp needed
 1895 004a 5DF804FB 		ldr	pc, [sp], #4
 1896              	.L200:
 1897              		.cfi_restore_state
 1898 004e FFF7FEFF 		bl	__stack_chk_fail
 1899              	.LVL139:
 1900              	.L202:
 1901 0052 00BF     		.align	2
 1902              	.L201:
 1903 0054 00000000 		.word	.LANCHOR0
 1904 0058 00000000 		.word	.LC11
 1905 005c FEFFFFFF 		.word	.LANCHOR1-2
 1906              		.cfi_endproc
 1907              	.LFE17:
 1908              		.size	AsebaCanRecvFreeQueue, .-AsebaCanRecvFreeQueue
 1909              		.section	.bss.asebaCan,"aw",%nobits
 1910              		.align	2
 1911              		.set	.LANCHOR0,. + 0
 1912              		.type	asebaCan, %object
 1913              		.size	asebaCan, 48
 1914              	asebaCan:
 1915 0000 00000000 		.space	48
 1915      00000000 
 1915      00000000 
 1915      00000000 
 1915      00000000 
 1916              		.section	.bss.dropping,"aw",%nobits
 1917              		.align	2
 1918              		.set	.LANCHOR1,. + 0
 1919              		.type	dropping, %object
 1920              		.size	dropping, 40
 1921              	dropping:
 1922 0000 00000000 		.space	40
 1922      00000000 
 1922      00000000 
 1922      00000000 
 1922      00000000 
 1923              		.text
 1924              	.Letext0:
 1925              		.file 2 "/usr/lib/gcc/arm-none-eabi/9.2.1/include/stddef.h"
 1926              		.file 3 "/usr/include/newlib/sys/_types.h"
 1927              		.file 4 "/usr/include/newlib/sys/reent.h"
 1928              		.file 5 "/usr/include/newlib/sys/lock.h"
 1929              		.file 6 "/usr/include/newlib/stdlib.h"
 1930              		.file 7 ".//aseba/transport/can/../../common/types.h"
ARM GAS  /tmp/cccUr8Dk.s 			page 35


 1931              		.file 8 ".//aseba/transport/can/can-net.h"
 1932              		.file 9 "<built-in>"