ARM GAS  /tmp/ccCdwTe8.s 			page 1


   1              		.cpu cortex-m4
   2              		.eabi_attribute 27, 1
   3              		.eabi_attribute 28, 1
   4              		.eabi_attribute 20, 1
   5              		.eabi_attribute 21, 1
   6              		.eabi_attribute 23, 3
   7              		.eabi_attribute 24, 1
   8              		.eabi_attribute 25, 1
   9              		.eabi_attribute 26, 1
  10              		.eabi_attribute 30, 2
  11              		.eabi_attribute 34, 1
  12              		.eabi_attribute 18, 4
  13              		.file	"chcore_v7m.c"
  14              		.text
  15              	.Ltext0:
  16              		.cfi_sections	.debug_frame
  17              		.section	.rodata.SVC_Handler.cst4,"aM",%progbits,4
  18              		.align	2
  19              	.LC0:
  20 0000 00000000 		.word	__stack_chk_guard
  21              		.section	.text.SVC_Handler,"ax",%progbits
  22              		.align	1
  23              		.p2align 4,,15
  24              		.global	SVC_Handler
  25              		.arch armv7e-m
  26              		.syntax unified
  27              		.thumb
  28              		.thumb_func
  29              		.fpu fpv4-sp-d16
  30              		.type	SVC_Handler, %function
  31              	SVC_Handler:
  32              	.LFB219:
  33              		.file 1 ".//ChibiOS//os/rt/ports/ARMCMx/chcore_v7m.c"
  34              		.loc 1 62 24 view -0
  35              		.cfi_startproc
  36              		@ args = 0, pretend = 0, frame = 8
  37              		@ frame_needed = 1, uses_anonymous_args = 0
  38 0000 80B5     		push	{r7, lr}
  39              		.cfi_def_cfa_offset 8
  40              		.cfi_offset 7, -8
  41              		.cfi_offset 14, -4
  42 0002 0F4B     		ldr	r3, .L6
  43              		.loc 1 68 14 is_stmt 0 view .LVU1
  44 0004 0F4A     		ldr	r2, .L6+4
  45              		.loc 1 62 24 view .LVU2
  46 0006 82B0     		sub	sp, sp, #8
  47              		.cfi_def_cfa_offset 16
  48 0008 00AF     		add	r7, sp, #0
  49              		.cfi_def_cfa_register 7
  50              		.loc 1 62 24 view .LVU3
  51 000a 1B68     		ldr	r3, [r3]
  52 000c 7B60     		str	r3, [r7, #4]
  53 000e 4FF00003 		mov	r3,#0
  54              		.loc 1 64 3 is_stmt 1 view .LVU4
  55              		.loc 1 68 3 view .LVU5
  56              		.loc 1 68 14 is_stmt 0 view .LVU6
  57 0012 5368     		ldr	r3, [r2, #4]
ARM GAS  /tmp/ccCdwTe8.s 			page 2


  58 0014 23F00103 		bic	r3, r3, #1
  59 0018 5360     		str	r3, [r2, #4]
  60              		.loc 1 72 3 is_stmt 1 view .LVU7
  61              	.LBB51:
  62              	.LBI51:
  63              		.file 2 ".//ChibiOS//os/ext/CMSIS/include/core_cmFunc.h"
  64              		.loc 2 424 61 view .LVU8
  65              	.LBB52:
  66              		.loc 2 426 3 view .LVU9
  67              		.loc 2 428 3 view .LVU10
  68              		.syntax unified
  69              	@ 428 ".//ChibiOS//os/ext/CMSIS/include/core_cmFunc.h" 1
  70 001a EFF30983 		MRS r3, psp
  71              	
  72              	@ 0 "" 2
  73              	.LVL0:
  74              		.loc 2 429 3 view .LVU11
  75              		.loc 2 429 3 is_stmt 0 view .LVU12
  76              		.thumb
  77              		.syntax unified
  78              	.LBE52:
  79              	.LBE51:
  80              		.loc 1 76 3 is_stmt 1 view .LVU13
  81              		.loc 1 79 3 view .LVU14
  82              	.LBB53:
  83              	.LBI53:
  84              		.loc 2 439 57 view .LVU15
  85              	.LBB54:
  86              		.loc 2 441 3 view .LVU16
  87              	.LBE54:
  88              	.LBE53:
  89              		.loc 1 76 7 is_stmt 0 view .LVU17
  90 001e 6833     		adds	r3, r3, #104
  91              	.LVL1:
  92              	.LBB56:
  93              	.LBB55:
  94              		.loc 2 441 3 view .LVU18
  95              		.syntax unified
  96              	@ 441 ".//ChibiOS//os/ext/CMSIS/include/core_cmFunc.h" 1
  97 0020 83F30988 		MSR psp, r3
  98              	
  99              	@ 0 "" 2
 100              	.LVL2:
 101              		.loc 2 441 3 view .LVU19
 102              		.thumb
 103              		.syntax unified
 104              	.LBE55:
 105              	.LBE56:
 106              		.loc 1 82 3 is_stmt 1 view .LVU20
 107              	.LBB57:
 108              	.LBI57:
 109              		.file 3 ".//ChibiOS//os/rt/ports/ARMCMx/chcore_v7m.h"
 110              		.loc 3 484 20 view .LVU21
 111              	.LBE57:
 112              		.loc 3 486 3 view .LVU22
 113              	.LBB62:
 114              	.LBB58:
ARM GAS  /tmp/ccCdwTe8.s 			page 3


 115              	.LBI58:
 116              		.loc 3 458 20 view .LVU23
 117              	.LBE58:
 118              	.LBE62:
 119              		.loc 3 461 3 view .LVU24
 120              	.LBB63:
 121              	.LBB61:
 122              	.LBB59:
 123              	.LBI59:
 124              		.loc 2 544 57 view .LVU25
 125              	.LBB60:
 126              		.loc 2 546 3 view .LVU26
 127 0024 0023     		movs	r3, #0
 128              	.LVL3:
 129              		.loc 2 546 3 is_stmt 0 view .LVU27
 130              		.syntax unified
 131              	@ 546 ".//ChibiOS//os/ext/CMSIS/include/core_cmFunc.h" 1
 132 0026 83F31188 		MSR basepri, r3
 133              	@ 0 "" 2
 134              	.LVL4:
 135              		.loc 2 546 3 view .LVU28
 136              		.thumb
 137              		.syntax unified
 138              	.LBE60:
 139              	.LBE59:
 140              	.LBE61:
 141              	.LBE63:
 142              		.loc 1 83 1 view .LVU29
 143 002a 054B     		ldr	r3, .L6
 144 002c 1A68     		ldr	r2, [r3]
 145 002e 7B68     		ldr	r3, [r7, #4]
 146 0030 5A40     		eors	r2, r3, r2
 147 0032 02D1     		bne	.L5
 148 0034 0837     		adds	r7, r7, #8
 149              		.cfi_remember_state
 150              		.cfi_def_cfa_offset 8
 151 0036 BD46     		mov	sp, r7
 152              		.cfi_def_cfa_register 13
 153              		@ sp needed
 154 0038 80BD     		pop	{r7, pc}
 155              	.L5:
 156              		.cfi_restore_state
 157 003a FFF7FEFF 		bl	__stack_chk_fail
 158              	.LVL5:
 159              	.L7:
 160 003e 00BF     		.align	2
 161              	.L6:
 162 0040 00000000 		.word	.LC0
 163 0044 30EF00E0 		.word	-536809680
 164              		.cfi_endproc
 165              	.LFE219:
 166              		.size	SVC_Handler, .-SVC_Handler
 167              		.section	.rodata._port_irq_epilogue.cst4,"aM",%progbits,4
 168              		.align	2
 169              	.LC1:
 170 0000 00000000 		.word	__stack_chk_guard
 171              		.section	.text._port_irq_epilogue,"ax",%progbits
ARM GAS  /tmp/ccCdwTe8.s 			page 4


 172              		.align	1
 173              		.p2align 4,,15
 174              		.global	_port_irq_epilogue
 175              		.syntax unified
 176              		.thumb
 177              		.thumb_func
 178              		.fpu fpv4-sp-d16
 179              		.type	_port_irq_epilogue, %function
 180              	_port_irq_epilogue:
 181              	.LFB220:
 182              		.loc 1 122 31 is_stmt 1 view -0
 183              		.cfi_startproc
 184              		@ args = 0, pretend = 0, frame = 8
 185              		@ frame_needed = 1, uses_anonymous_args = 0
 186 0000 90B5     		push	{r4, r7, lr}
 187              		.cfi_def_cfa_offset 12
 188              		.cfi_offset 4, -12
 189              		.cfi_offset 7, -8
 190              		.cfi_offset 14, -4
 191 0002 1B4B     		ldr	r3, .L16
 192 0004 83B0     		sub	sp, sp, #12
 193              		.cfi_def_cfa_offset 24
 194 0006 00AF     		add	r7, sp, #0
 195              		.cfi_def_cfa_register 7
 196              		.loc 1 122 31 is_stmt 0 view .LVU31
 197 0008 1B68     		ldr	r3, [r3]
 198 000a 7B60     		str	r3, [r7, #4]
 199 000c 4FF00003 		mov	r3,#0
 200              		.loc 1 124 3 is_stmt 1 view .LVU32
 201              	.LBB64:
 202              	.LBI64:
 203              		.loc 3 473 20 view .LVU33
 204              	.LBE64:
 205              		.loc 3 475 3 view .LVU34
 206              	.LBB69:
 207              	.LBB65:
 208              	.LBI65:
 209              		.loc 3 444 20 view .LVU35
 210              	.LBE65:
 211              	.LBE69:
 212              		.loc 3 447 3 view .LVU36
 213              	.LVL6:
 214              	.LBB70:
 215              	.LBB68:
 216              	.LBB66:
 217              	.LBI66:
 218              		.loc 2 544 57 view .LVU37
 219              	.LBB67:
 220              		.loc 2 546 3 view .LVU38
 221 0010 2023     		movs	r3, #32
 222              		.syntax unified
 223              	@ 546 ".//ChibiOS//os/ext/CMSIS/include/core_cmFunc.h" 1
 224 0012 83F31188 		MSR basepri, r3
 225              	@ 0 "" 2
 226              	.LVL7:
 227              		.loc 2 546 3 is_stmt 0 view .LVU39
 228              		.thumb
ARM GAS  /tmp/ccCdwTe8.s 			page 5


 229              		.syntax unified
 230              	.LBE67:
 231              	.LBE66:
 232              	.LBE68:
 233              	.LBE70:
 234              		.loc 1 125 3 is_stmt 1 view .LVU40
 235              		.loc 1 125 11 is_stmt 0 view .LVU41
 236 0016 174B     		ldr	r3, .L16+4
 237 0018 5B68     		ldr	r3, [r3, #4]
 238              		.loc 1 125 6 view .LVU42
 239 001a 13F40063 		ands	r3, r3, #2048
 240 001e 09D1     		bne	.L14
 241              		.loc 1 165 3 is_stmt 1 view .LVU43
 242              	.LBB71:
 243              	.LBI71:
 244              		.loc 3 484 20 view .LVU44
 245              	.LBB72:
 246              		.loc 3 486 3 view .LVU45
 247              	.LBB73:
 248              	.LBI73:
 249              		.loc 3 458 20 view .LVU46
 250              	.LBE73:
 251              	.LBE72:
 252              	.LBE71:
 253              		.loc 3 461 3 view .LVU47
 254              	.LVL8:
 255              	.LBB78:
 256              	.LBB77:
 257              	.LBB76:
 258              	.LBB74:
 259              	.LBI74:
 260              		.loc 2 544 57 view .LVU48
 261              	.LBB75:
 262              		.loc 2 546 3 view .LVU49
 263              		.syntax unified
 264              	@ 546 ".//ChibiOS//os/ext/CMSIS/include/core_cmFunc.h" 1
 265 0020 83F31188 		MSR basepri, r3
 266              	@ 0 "" 2
 267              	.LVL9:
 268              		.thumb
 269              		.syntax unified
 270              	.L8:
 271              		.loc 2 546 3 is_stmt 0 view .LVU50
 272              	.LBE75:
 273              	.LBE74:
 274              	.LBE76:
 275              	.LBE77:
 276              	.LBE78:
 277              		.loc 1 166 1 view .LVU51
 278 0024 124B     		ldr	r3, .L16
 279 0026 1A68     		ldr	r2, [r3]
 280 0028 7B68     		ldr	r3, [r7, #4]
 281 002a 5A40     		eors	r2, r3, r2
 282 002c 1DD1     		bne	.L15
 283 002e 0C37     		adds	r7, r7, #12
 284              		.cfi_remember_state
 285              		.cfi_def_cfa_offset 12
ARM GAS  /tmp/ccCdwTe8.s 			page 6


 286 0030 BD46     		mov	sp, r7
 287              		.cfi_def_cfa_register 13
 288              		@ sp needed
 289 0032 90BD     		pop	{r4, r7, pc}
 290              	.L14:
 291              		.cfi_restore_state
 292              	.LBB79:
 293              		.loc 1 126 5 is_stmt 1 view .LVU52
 294              		.loc 1 130 7 view .LVU53
 295              	.LBB80:
 296              	.LBI80:
 297              		.loc 2 587 61 view .LVU54
 298              	.LBB81:
 299              		.loc 2 590 3 view .LVU55
 300              		.loc 2 593 3 view .LVU56
 301              		.loc 2 594 3 view .LVU57
 302              		.syntax unified
 303              	@ 594 ".//ChibiOS//os/ext/CMSIS/include/core_cmFunc.h" 1
 304 0034 F1EE103A 		VMRS r3, fpscr
 305              	@ 0 "" 2
 306              	.LVL10:
 307              		.loc 2 595 3 view .LVU58
 308              		.loc 2 596 3 view .LVU59
 309              		.loc 2 596 3 is_stmt 0 view .LVU60
 310              		.thumb
 311              		.syntax unified
 312              	.LBE81:
 313              	.LBE80:
 314              		.loc 1 134 5 is_stmt 1 view .LVU61
 315              	.LBB82:
 316              	.LBI82:
 317              		.loc 2 424 61 view .LVU62
 318              	.LBB83:
 319              		.loc 2 426 3 view .LVU63
 320              		.loc 2 428 3 view .LVU64
 321              		.syntax unified
 322              	@ 428 ".//ChibiOS//os/ext/CMSIS/include/core_cmFunc.h" 1
 323 0038 EFF30984 		MRS r4, psp
 324              	
 325              	@ 0 "" 2
 326              	.LVL11:
 327              		.loc 2 429 3 view .LVU65
 328              		.loc 2 429 3 is_stmt 0 view .LVU66
 329              		.thumb
 330              		.syntax unified
 331              	.LBE83:
 332              	.LBE82:
 333              		.loc 1 138 5 is_stmt 1 view .LVU67
 334              		.loc 1 141 5 view .LVU68
 335              		.loc 1 141 16 is_stmt 0 view .LVU69
 336 003c 4FF08072 		mov	r2, #16777216
 337              		.loc 1 143 32 view .LVU70
 338 0040 0D4B     		ldr	r3, .L16+8
 339              		.loc 1 141 16 view .LVU71
 340 0042 44F84C2C 		str	r2, [r4, #-76]
 341              		.loc 1 143 5 is_stmt 1 view .LVU72
 342              		.loc 1 143 32 is_stmt 0 view .LVU73
ARM GAS  /tmp/ccCdwTe8.s 			page 7


 343 0046 DB68     		ldr	r3, [r3, #12]
 344              		.loc 1 143 17 view .LVU74
 345 0048 44F8083C 		str	r3, [r4, #-8]
 346              		.loc 1 147 5 is_stmt 1 view .LVU75
 347              	.LVL12:
 348              	.LBB84:
 349              	.LBI84:
 350              		.loc 2 439 57 view .LVU76
 351              	.LBB85:
 352              		.loc 2 441 3 view .LVU77
 353              	.LBE85:
 354              	.LBE84:
 355              		.loc 1 138 9 is_stmt 0 view .LVU78
 356 004c A4F16803 		sub	r3, r4, #104
 357              	.LVL13:
 358              	.LBB87:
 359              	.LBB86:
 360              		.loc 2 441 3 view .LVU79
 361              		.syntax unified
 362              	@ 441 ".//ChibiOS//os/ext/CMSIS/include/core_cmFunc.h" 1
 363 0050 83F30988 		MSR psp, r3
 364              	
 365              	@ 0 "" 2
 366              	.LVL14:
 367              		.loc 2 441 3 view .LVU80
 368              		.thumb
 369              		.syntax unified
 370              	.LBE86:
 371              	.LBE87:
 372              		.loc 1 151 5 is_stmt 1 view .LVU81
 373              		.loc 1 151 9 is_stmt 0 view .LVU82
 374 0054 FFF7FEFF 		bl	chSchIsPreemptionRequired
 375              	.LVL15:
 376              		.loc 1 151 8 view .LVU83
 377 0058 18B1     		cbz	r0, .L10
 378              		.loc 1 153 7 is_stmt 1 view .LVU84
 379              		.loc 1 153 16 is_stmt 0 view .LVU85
 380 005a 084B     		ldr	r3, .L16+12
 381 005c 44F8503C 		str	r3, [r4, #-80]
 382 0060 E0E7     		b	.L8
 383              	.L10:
 384              		.loc 1 158 7 is_stmt 1 view .LVU86
 385              		.loc 1 158 16 is_stmt 0 view .LVU87
 386 0062 074B     		ldr	r3, .L16+16
 387 0064 44F8503C 		str	r3, [r4, #-80]
 388 0068 DCE7     		b	.L8
 389              	.LVL16:
 390              	.L15:
 391              		.loc 1 158 16 view .LVU88
 392              	.LBE79:
 393              		.loc 1 166 1 view .LVU89
 394 006a FFF7FEFF 		bl	__stack_chk_fail
 395              	.LVL17:
 396              	.L17:
 397 006e 00BF     		.align	2
 398              	.L16:
 399 0070 00000000 		.word	.LC1
ARM GAS  /tmp/ccCdwTe8.s 			page 8


 400 0074 00ED00E0 		.word	-536810240
 401 0078 30EF00E0 		.word	-536809680
 402 007c 00000000 		.word	_port_switch_from_isr
 403 0080 00000000 		.word	_port_exit_from_isr
 404              		.cfi_endproc
 405              	.LFE220:
 406              		.size	_port_irq_epilogue, .-_port_irq_epilogue
 407              		.text
 408              	.Letext0:
 409              		.file 4 "/usr/lib/gcc/arm-none-eabi/9.2.1/include/stdint.h"
 410              		.file 5 ".//ChibiOS//os/rt/ports/ARMCMx/compilers/GCC/chtypes.h"
 411              		.file 6 ".//ChibiOS//os/rt/include/chsystypes.h"
 412              		.file 7 ".//ChibiOS//os/rt/include/chschd.h"
 413              		.file 8 ".//ChibiOS//os/ext/CMSIS/include/core_cm4.h"
 414              		.file 9 ".//ChibiOS//os/ext/CMSIS/ST/system_stm32f4xx.h"
 415              		.file 10 ".//ChibiOS//os/rt/ports/ARMCMx/chcore.h"
 416              		.file 11 ".//ChibiOS//os/rt/include/chdebug.h"
 417              		.file 12 ".//ChibiOS//os/rt/include/chtm.h"
 418              		.file 13 ".//ChibiOS//os/rt/include/chstats.h"
 419              		.file 14 ".//ChibiOS//os/rt/include/chsem.h"
 420              		.file 15 ".//ChibiOS//os/rt/include/chmtx.h"
 421              		.file 16 ".//ChibiOS//os/rt/include/chregistry.h"