ARM GAS  /tmp/ccCdwTe8.s 			page 1


   1              		.cpu cortex-m4
   2              		.eabi_attribute 27, 1
   3              		.eabi_attribute 28, 1
   4              		.eabi_attribute 20, 1
   5              		.eabi_attribute 21, 1
   6              		.eabi_attribute 23, 3
   7              		.eabi_attribute 24, 1
   8              		.eabi_attribute 25, 1
   9              		.eabi_attribute 26, 1
  10              		.eabi_attribute 30, 2
  11              		.eabi_attribute 34, 1
  12              		.eabi_attribute 18, 4
  13              		.file	"chcore_v7m.c"
  14              		.text
  15              	.Ltext0:
  16              		.cfi_sections	.debug_frame
  17              		.section	.rodata.SVC_Handler.cst4,"aM",%progbits,4
  18              		.align	2
  19              	.LC0:
  20 0000 00000000 		.word	__stack_chk_guard
  21              		.section	.text.SVC_Handler,"ax",%progbits
  22              		.align	1
  23              		.p2align 4,,15
  24              		.global	SVC_Handler
  25              		.arch armv7e-m
  26              		.syntax unified
  27              		.thumb
  28              		.thumb_func
  29              		.fpu fpv4-sp-d16
  30              		.type	SVC_Handler, %function
  31              	SVC_Handler:
  32              	.LFB219:
  33              		.file 1 ".//ChibiOS//os/rt/ports/ARMCMx/chcore_v7m.c"
  34              		.loc 1 62 24 view -0
  35              		.cfi_startproc
  36              		@ args = 0, pretend = 0, frame = 8
  37              		@ frame_needed = 1, uses_anonymous_args = 0
  38 0000 80B5     		push	{r7, lr}
  39              		.cfi_def_cfa_offset 8
  40              		.cfi_offset 7, -8
  41              		.cfi_offset 14, -4
  42 0002 0F4B     		ldr	r3, .L6
  43              		.loc 1 68 14 is_stmt 0 view .LVU1
  44 0004 0F4A     		ldr	r2, .L6+4
  45              		.loc 1 62 24 view .LVU2
  46 0006 82B0     		sub	sp, sp, #8
  47              		.cfi_def_cfa_offset 16
  48 0008 00AF     		add	r7, sp, #0
  49              		.cfi_def_cfa_register 7
  50              		.loc 1 62 24 view .LVU3
  51 000a 1B68     		ldr	r3, [r3]
  52 000c 7B60     		str	r3, [r7, #4]
  53 000e 4FF00003 		mov	r3,#0
  54              		.loc 1 64 3 is_stmt 1 view .LVU4
  55              		.loc 1 68 3 view .LVU5
  56              		.loc 1 68 14 is_stmt 0 view .LVU6
  57 0012 5368     		ldr	r3, [r2, #4]
ARM GAS  /tmp/ccCdwTe8.s 			page 2


  58 0014 23F00103 		bic	r3, r3, #1
  59 0018 5360     		str	r3, [r2, #4]
  60              		.loc 1 72 3 is_stmt 1 view .LVU7
  61              	.LBB51:
  62              	.LBI51:
  63              		.file 2 ".//ChibiOS//os/ext/CMSIS/include/core_cmFunc.h"
  64              		.loc 2 424 61 view .LVU8
  65              	.LBB52:
  66              		.loc 2 426 3 view .LVU9
  67              		.loc 2 428 3 view .LVU10
  68              		.syntax unified
  69              	@ 428 ".//ChibiOS//os/ext/CMSIS/include/core_cmFunc.h" 1
  70 001a EFF30983 		MRS r3, psp
  71              	
  72              	@ 0 "" 2
  73              	.LVL0:
  74              		.loc 2 429 3 view .LVU11
  75              		.loc 2 429 3 is_stmt 0 view .LVU12
  76              		.thumb
  77              		.syntax unified
  78              	.LBE52:
  79              	.LBE51:
  80              		.loc 1 76 3 is_stmt 1 view .LVU13
  81              		.loc 1 79 3 view .LVU14
  82              	.LBB53:
  83              	.LBI53:
  84              		.loc 2 439 57 view .LVU15
  85              	.LBB54:
  86              		.loc 2 441 3 view .LVU16
  87              	.LBE54:
  88              	.LBE53:
  89              		.loc 1 76 7 is_stmt 0 view .LVU17
  90 001e 6833     		adds	r3, r3, #104
  91              	.LVL1:
  92              	.LBB56:
  93              	.LBB55:
  94              		.loc 2 441 3 view .LVU18
  95              		.syntax unified
  96              	@ 441 ".//ChibiOS//os/ext/CMSIS/include/core_cmFunc.h" 1
  97 0020 83F30988 		MSR psp, r3
  98              	
  99              	@ 0 "" 2
 100              	.LVL2:
 101              		.loc 2 441 3 view .LVU19
 102              		.thumb
 103              		.syntax unified
 104              	.LBE55:
 105              	.LBE56:
 106              		.loc 1 82 3 is_stmt 1 view .LVU20
 107              	.LBB57:
 108              	.LBI57:
 109              		.file 3 ".//ChibiOS//os/rt/ports/ARMCMx/chcore_v7m.h"
 110              		.loc 3 484 20 view .LVU21
 111              	.LBE57:
 112              		.loc 3 486 3 view .LVU22
 113              	.LBB62:
 114              	.LBB58:
ARM GAS  /tmp/ccCdwTe8.s 			page 3


 115              	.LBI58:
 116              		.loc 3 458 20 view .LVU23
 117              	.LBE58:
 118              	.LBE62:
 119              		.loc 3 461 3 view .LVU24
 120              	.LBB63:
 121              	.LBB61:
 122              	.LBB59:
 123              	.LBI59:
 124              		.loc 2 544 57 view .LVU25
 125              	.LBB60:
 126              		.loc 2 546 3 view .LVU26
 127 0024 0023     		movs	r3, #0
 128              	.LVL3:
 129              		.loc 2 546 3 is_stmt 0 view .LVU27
 130              		.syntax unified
 131              	@ 546 ".//ChibiOS//os/ext/CMSIS/include/core_cmFunc.h" 1
 132 0026 83F31188 		MSR basepri, r3
 133              	@ 0 "" 2
 134              	.LVL4:
 135              		.loc 2 546 3 view .LVU28
 136              		.thumb
 137              		.syntax unified
 138              	.LBE60:
 139              	.LBE59:
 140              	.LBE61:
 141              	.LBE63:
 142              		.loc 1 83 1 view .LVU29
 143 002a 054B     		ldr	r3, .L6
 144 002c 1A68     		ldr	r2, [r3]
 145 002e 7B68     		ldr	r3, [r7, #4]
 146 0030 5A40     		eors	r2, r3, r2
 147 0032 02D1     		bne	.L5
 148 0034 0837     		adds	r7, r7, #8
 149              		.cfi_remember_state
 150              		.cfi_def_cfa_offset 8
 151 0036 BD46     		mov	sp, r7
 152              		.cfi_def_cfa_register 13
 153              		@ sp needed
 154 0038 80BD     		pop	{r7, pc}
 155              	.L5:
 156              		.cfi_restore_state
 157 003a FFF7FEFF 		bl	__stack_chk_fail
 158              	.LVL5:
 159              	.L7:
 160 003e 00BF     		.align	2
 161              	.L6:
 162 0040 00000000 		.word	.LC0
 163 0044 30EF00E0 		.word	-536809680
 164              		.cfi_endproc
 165              	.LFE219:
 166              		.size	SVC_Handler, .-SVC_Handler
 167              		.section	.rodata._port_irq_epilogue.cst4,"aM",%progbits,4
 168              		.align	2
 169              	.LC1:
 170 0000 00000000 		.word	__stack_chk_guard
 171              		.section	.text._port_irq_epilogue,"ax",%progbits
ARM GAS  /tmp/ccCdwTe8.s 			page 4


 172              		.align	1
 173              		.p2align 4,,15
 174              		.global	_port_irq_epilogue
 175              		.syntax unified
 176              		.thumb
 177              		.thumb_func
 178              		.fpu fpv4-sp-d16
 179              		.type	_port_irq_epilogue, %function
 180              	_port_irq_epilogue:
 181              	.LFB220:
 182              		.loc 1 122 31 is_stmt 1 view -0
 183              		.cfi_startproc
 184              		@ args = 0, pretend = 0, frame = 8
 185              		@ frame_needed = 1, uses_anonymous_args = 0
 186 0000 90B5     		push	{r4, r7, lr}
 187              		.cfi_def_cfa_offset 12
 188              		.cfi_offset 4, -12
 189              		.cfi_offset 7, -8
 190              		.cfi_offset 14, -4
 191 0002 1B4B     		ldr	r3, .L16
 192 0004 83B0     		sub	sp, sp, #12
 193              		.cfi_def_cfa_offset 24
 194 0006 00AF     		add	r7, sp, #0
 195              		.cfi_def_cfa_register 7
 196              		.loc 1 122 31 is_stmt 0 view .LVU31
 197 0008 1B68     		ldr	r3, [r3]
 198 000a 7B60     		str	r3, [r7, #4]
 199 000c 4FF00003 		mov	r3,#0
 200              		.loc 1 124 3 is_stmt 1 view .LVU32
 201              	.LBB64:
 202              	.LBI64:
 203              		.loc 3 473 20 view .LVU33
 204              	.LBE64:
 205              		.loc 3 475 3 view .LVU34
 206              	.LBB69:
 207              	.LBB65:
 208              	.LBI65:
 209              		.loc 3 444 20 view .LVU35
 210              	.LBE65:
 211              	.LBE69:
 212              		.loc 3 447 3 view .LVU36
 213              	.LVL6:
 214              	.LBB70:
 215              	.LBB68:
 216              	.LBB66:
 217              	.LBI66:
 218              		.loc 2 544 57 view .LVU37
 219              	.LBB67:
 220              		.loc 2 546 3 view .LVU38
 221 0010 2023     		movs	r3, #32
 222              		.syntax unified
 223              	@ 546 ".//ChibiOS//os/ext/CMSIS/include/core_cmFunc.h" 1
 224 0012 83F31188 		MSR basepri, r3
 225              	@ 0 "" 2
 226              	.LVL7:
 227              		.loc 2 546 3 is_stmt 0 view .LVU39
 228              		.thumb
ARM GAS  /tmp/ccCdwTe8.s 			page 5


 229              		.syntax unified
 230              	.LBE67:
 231              	.LBE66:
 232              	.LBE68:
 233              	.LBE70:
 234              		.loc 1 125 3 is_stmt 1 view .LVU40
 235              		.loc 1 125 11 is_stmt 0 view .LVU41
 236 0016 174B     		ldr	r3, .L16+4
 237 0018 5B68     		ldr	r3, [r3, #4]
 238              		.loc 1 125 6 view .LVU42
 239 001a 13F40063 		ands	r3, r3, #2048
 240 001e 09D1     		bne	.L14
 241              		.loc 1 165 3 is_stmt 1 view .LVU43
 242              	.LBB71:
 243              	.LBI71:
 244              		.loc 3 484 20 view .LVU44
 245              	.LBB72:
 246              		.loc 3 486 3 view .LVU45
 247              	.LBB73:
 248              	.LBI73:
 249              		.loc 3 458 20 view .LVU46
 250              	.LBE73:
 251              	.LBE72:
 252              	.LBE71:
 253              		.loc 3 461 3 view .LVU47
 254              	.LVL8:
 255              	.LBB78:
 256              	.LBB77:
 257              	.LBB76:
 258              	.LBB74:
 259              	.LBI74:
 260              		.loc 2 544 57 view .LVU48
 261              	.LBB75:
 262              		.loc 2 546 3 view .LVU49
 263              		.syntax unified
 264              	@ 546 ".//ChibiOS//os/ext/CMSIS/include/core_cmFunc.h" 1
 265 0020 83F31188 		MSR basepri, r3
 266              	@ 0 "" 2
 267              	.LVL9:
 268              		.thumb
 269              		.syntax unified
 270              	.L8:
 271              		.loc 2 546 3 is_stmt 0 view .LVU50
 272              	.LBE75:
 273              	.LBE74:
 274              	.LBE76:
 275              	.LBE77:
 276              	.LBE78:
 277              		.loc 1 166 1 view .LVU51
 278 0024 124B     		ldr	r3, .L16
 279 0026 1A68     		ldr	r2, [r3]
 280 0028 7B68     		ldr	r3, [r7, #4]
 281 002a 5A40     		eors	r2, r3, r2
 282 002c 1DD1     		bne	.L15
 283 002e 0C37     		adds	r7, r7, #12
 284              		.cfi_remember_state
 285              		.cfi_def_cfa_offset 12
ARM GAS  /tmp/ccCdwTe8.s 			page 6


 286 0030 BD46     		mov	sp, r7
 287              		.cfi_def_cfa_register 13
 288              		@ sp needed
 289 0032 90BD     		pop	{r4, r7, pc}
 290              	.L14:
 291              		.cfi_restore_state
 292              	.LBB79:
 293              		.loc 1 126 5 is_stmt 1 view .LVU52
 294              		.loc 1 130 7 view .LVU53
 295              	.LBB80:
 296              	.LBI80:
 297              		.loc 2 587 61 view .LVU54
 298              	.LBB81:
 299              		.loc 2 590 3 view .LVU55
 300              		.loc 2 593 3 view .LVU56
 301              		.loc 2 594 3 view .LVU57
 302              		.syntax unified
 303              	@ 594 ".//ChibiOS//os/ext/CMSIS/include/core_cmFunc.h" 1
 304 0034 F1EE103A 		VMRS r3, fpscr
 305              	@ 0 "" 2
 306              	.LVL10:
 307              		.loc 2 595 3 view .LVU58
 308              		.loc 2 596 3 view .LVU59
 309              		.loc 2 596 3 is_stmt 0 view .LVU60
 310              		.thumb
 311              		.syntax unified
 312              	.LBE81:
 313              	.LBE80:
 314              		.loc 1 134 5 is_stmt 1 view .LVU61
 315              	.LBB82:
 316              	.LBI82:
 317              		.loc 2 424 61 view .LVU62
 318              	.LBB83:
 319              		.loc 2 426 3 view .LVU63
 320              		.loc 2 428 3 view .LVU64
 321              		.syntax unified
 322              	@ 428 ".//ChibiOS//os/ext/CMSIS/include/core_cmFunc.h" 1
 323 0038 EFF30984 		MRS r4, psp
 324              	
 325              	@ 0 "" 2
 326              	.LVL11:
 327              		.loc 2 429 3 view .LVU65
 328              		.loc 2 429 3 is_stmt 0 view .LVU66
 329              		.thumb
 330              		.syntax unified
 331              	.LBE83:
 332              	.LBE82:
 333              		.loc 1 138 5 is_stmt 1 view .LVU67
 334              		.loc 1 141 5 view .LVU68
 335              		.loc 1 141 16 is_stmt 0 view .LVU69
 336 003c 4FF08072 		mov	r2, #16777216
 337              		.loc 1 143 32 view .LVU70
 338 0040 0D4B     		ldr	r3, .L16+8
 339              		.loc 1 141 16 view .LVU71
 340 0042 44F84C2C 		str	r2, [r4, #-76]
 341              		.loc 1 143 5 is_stmt 1 view .LVU72
 342              		.loc 1 143 32 is_stmt 0 view .LVU73
ARM GAS  /tmp/ccCdwTe8.s 			page 7


 343 0046 DB68     		ldr	r3, [r3, #12]
 344              		.loc 1 143 17 view .LVU74
 345 0048 44F8083C 		str	r3, [r4, #-8]
 346              		.loc 1 147 5 is_stmt 1 view .LVU75
 347              	.LVL12:
 348              	.LBB84:
 349              	.LBI84:
 350              		.loc 2 439 57 view .LVU76
 351              	.LBB85:
 352              		.loc 2 441 3 view .LVU77
 353              	.LBE85:
 354              	.LBE84:
 355              		.loc 1 138 9 is_stmt 0 view .LVU78
 356 004c A4F16803 		sub	r3, r4, #104
 357              	.LVL13:
 358              	.LBB87:
 359              	.LBB86:
 360              		.loc 2 441 3 view .LVU79
 361              		.syntax unified
 362              	@ 441 ".//ChibiOS//os/ext/CMSIS/include/core_cmFunc.h" 1
 363 0050 83F30988 		MSR psp, r3
 364              	
 365              	@ 0 "" 2
 366              	.LVL14:
 367              		.loc 2 441 3 view .LVU80
 368              		.thumb
 369              		.syntax unified
 370              	.LBE86:
 371              	.LBE87:
 372              		.loc 1 151 5 is_stmt 1 view .LVU81
 373              		.loc 1 151 9 is_stmt 0 view .LVU82
 374 0054 FFF7FEFF 		bl	chSchIsPreemptionRequired
 375              	.LVL15:
 376              		.loc 1 151 8 view .LVU83
 377 0058 18B1     		cbz	r0, .L10
 378              		.loc 1 153 7 is_stmt 1 view .LVU84
 379              		.loc 1 153 16 is_stmt 0 view .LVU85
 380 005a 084B     		ldr	r3, .L16+12
 381 005c 44F8503C 		str	r3, [r4, #-80]
 382 0060 E0E7     		b	.L8
 383              	.L10:
 384              		.loc 1 158 7 is_stmt 1 view .LVU86
 385              		.loc 1 158 16 is_stmt 0 view .LVU87
 386 0062 074B     		ldr	r3, .L16+16
 387 0064 44F8503C 		str	r3, [r4, #-80]
 388 0068 DCE7     		b	.L8
 389              	.LVL16:
 390              	.L15:
 391              		.loc 1 158 16 view .LVU88
 392              	.LBE79:
 393              		.loc 1 166 1 view .LVU89
 394 006a FFF7FEFF 		bl	__stack_chk_fail
 395              	.LVL17:
 396              	.L17:
 397 006e 00BF     		.align	2
 398              	.L16:
 399 0070 00000000 		.word	.LC1
ARM GAS  /tmp/ccCdwTe8.s 			page 8


 400 0074 00ED00E0 		.word	-536810240
 401 0078 30EF00E0 		.word	-536809680
 402 007c 00000000 		.word	_port_switch_from_isr
 403 0080 00000000 		.word	_port_exit_from_isr
 404              		.cfi_endproc
 405              	.LFE220:
 406              		.size	_port_irq_epilogue, .-_port_irq_epilogue
 407              		.text
 408              	.Letext0:
 409              		.file 4 "/usr/lib/gcc/arm-none-eabi/9.2.1/include/stdint.h"
 410              		.file 5 ".//ChibiOS//os/rt/ports/ARMCMx/compilers/GCC/chtypes.h"
 411              		.file 6 ".//ChibiOS//os/rt/include/chsystypes.h"
 412              		.file 7 ".//ChibiOS//os/rt/include/chschd.h"
 413              		.file 8 ".//ChibiOS//os/ext/CMSIS/include/core_cm4.h"
 414              		.file 9 ".//ChibiOS//os/ext/CMSIS/ST/system_stm32f4xx.h"
 415              		.file 10 ".//ChibiOS//os/rt/ports/ARMCMx/chcore.h"
 416              		.file 11 ".//ChibiOS//os/rt/include/chdebug.h"
 417              		.file 12 ".//ChibiOS//os/rt/include/chtm.h"
 418              		.file 13 ".//ChibiOS//os/rt/include/chstats.h"
 419              		.file 14 ".//ChibiOS//os/rt/include/chsem.h"
 420              		.file 15 ".//ChibiOS//os/rt/include/chmtx.h"
 421              		.file 16 ".//ChibiOS//os/rt/include/chregistry.h"
 422              		.section	.debug_info,"",%progbits
 423              	.Ldebug_info0:
 424 0000 CC100000 		.4byte	0x10cc
 425 0004 0400     		.2byte	0x4
 426 0006 00000000 		.4byte	.Ldebug_abbrev0
 427 000a 04       		.byte	0x4
 428 000b 01       		.uleb128 0x1
 429 000c 1E070000 		.4byte	.LASF192
 430 0010 0C       		.byte	0xc
 431 0011 0F030000 		.4byte	.LASF193
 432 0015 70080000 		.4byte	.LASF194
 433 0019 A0000000 		.4byte	.Ldebug_ranges0+0xa0
 434 001d 00000000 		.4byte	0
 435 0021 00000000 		.4byte	.Ldebug_line0
 436 0025 02       		.uleb128 0x2
 437 0026 04       		.byte	0x4
 438 0027 05       		.byte	0x5
 439 0028 696E7400 		.ascii	"int\000"
 440 002c 03       		.uleb128 0x3
 441 002d 04       		.byte	0x4
 442 002e 07       		.byte	0x7
 443 002f 9E040000 		.4byte	.LASF0
 444 0033 03       		.uleb128 0x3
 445 0034 08       		.byte	0x8
 446 0035 05       		.byte	0x5
 447 0036 10040000 		.4byte	.LASF1
 448 003a 03       		.uleb128 0x3
 449 003b 08       		.byte	0x8
 450 003c 04       		.byte	0x4
 451 003d 2C050000 		.4byte	.LASF2
 452 0041 03       		.uleb128 0x3
 453 0042 01       		.byte	0x1
 454 0043 06       		.byte	0x6
 455 0044 91010000 		.4byte	.LASF3
 456 0048 03       		.uleb128 0x3
ARM GAS  /tmp/ccCdwTe8.s 			page 9


 457 0049 02       		.byte	0x2
 458 004a 05       		.byte	0x5
 459 004b 97060000 		.4byte	.LASF4
 460 004f 04       		.uleb128 0x4
 461 0050 5B000000 		.4byte	.LASF6
 462 0054 04       		.byte	0x4
 463 0055 28       		.byte	0x28
 464 0056 18       		.byte	0x18
 465 0057 60000000 		.4byte	0x60
 466 005b 05       		.uleb128 0x5
 467 005c 4F000000 		.4byte	0x4f
 468 0060 03       		.uleb128 0x3
 469 0061 04       		.byte	0x4
 470 0062 05       		.byte	0x5
 471 0063 0C010000 		.4byte	.LASF5
 472 0067 04       		.uleb128 0x4
 473 0068 A7010000 		.4byte	.LASF7
 474 006c 04       		.byte	0x4
 475 006d 2E       		.byte	0x2e
 476 006e 18       		.byte	0x18
 477 006f 78000000 		.4byte	0x78
 478 0073 05       		.uleb128 0x5
 479 0074 67000000 		.4byte	0x67
 480 0078 03       		.uleb128 0x3
 481 0079 01       		.byte	0x1
 482 007a 08       		.byte	0x8
 483 007b D3010000 		.4byte	.LASF8
 484 007f 04       		.uleb128 0x4
 485 0080 D4050000 		.4byte	.LASF9
 486 0084 04       		.byte	0x4
 487 0085 31       		.byte	0x31
 488 0086 19       		.byte	0x19
 489 0087 8B000000 		.4byte	0x8b
 490 008b 03       		.uleb128 0x3
 491 008c 02       		.byte	0x2
 492 008d 07       		.byte	0x7
 493 008e E7080000 		.4byte	.LASF10
 494 0092 04       		.uleb128 0x4
 495 0093 CE080000 		.4byte	.LASF11
 496 0097 04       		.byte	0x4
 497 0098 34       		.byte	0x34
 498 0099 19       		.byte	0x19
 499 009a A8000000 		.4byte	0xa8
 500 009e 05       		.uleb128 0x5
 501 009f 92000000 		.4byte	0x92
 502 00a3 06       		.uleb128 0x6
 503 00a4 9E000000 		.4byte	0x9e
 504 00a8 03       		.uleb128 0x3
 505 00a9 04       		.byte	0x4
 506 00aa 07       		.byte	0x7
 507 00ab 4B030000 		.4byte	.LASF12
 508 00af 04       		.uleb128 0x4
 509 00b0 A1060000 		.4byte	.LASF13
 510 00b4 04       		.byte	0x4
 511 00b5 37       		.byte	0x37
 512 00b6 19       		.byte	0x19
 513 00b7 BB000000 		.4byte	0xbb
ARM GAS  /tmp/ccCdwTe8.s 			page 10


 514 00bb 03       		.uleb128 0x3
 515 00bc 08       		.byte	0x8
 516 00bd 07       		.byte	0x7
 517 00be B5050000 		.4byte	.LASF14
 518 00c2 04       		.uleb128 0x4
 519 00c3 AB040000 		.4byte	.LASF15
 520 00c7 05       		.byte	0x5
 521 00c8 45       		.byte	0x45
 522 00c9 1D       		.byte	0x1d
 523 00ca 92000000 		.4byte	0x92
 524 00ce 04       		.uleb128 0x4
 525 00cf 4B010000 		.4byte	.LASF16
 526 00d3 05       		.byte	0x5
 527 00d4 46       		.byte	0x46
 528 00d5 1D       		.byte	0x1d
 529 00d6 AF000000 		.4byte	0xaf
 530 00da 04       		.uleb128 0x4
 531 00db 4B060000 		.4byte	.LASF17
 532 00df 05       		.byte	0x5
 533 00e0 48       		.byte	0x48
 534 00e1 1D       		.byte	0x1d
 535 00e2 67000000 		.4byte	0x67
 536 00e6 04       		.uleb128 0x4
 537 00e7 42010000 		.4byte	.LASF18
 538 00eb 05       		.byte	0x5
 539 00ec 49       		.byte	0x49
 540 00ed 1D       		.byte	0x1d
 541 00ee 67000000 		.4byte	0x67
 542 00f2 04       		.uleb128 0x4
 543 00f3 F7060000 		.4byte	.LASF19
 544 00f7 05       		.byte	0x5
 545 00f8 4A       		.byte	0x4a
 546 00f9 1D       		.byte	0x1d
 547 00fa 67000000 		.4byte	0x67
 548 00fe 04       		.uleb128 0x4
 549 00ff 01060000 		.4byte	.LASF20
 550 0103 05       		.byte	0x5
 551 0104 4B       		.byte	0x4b
 552 0105 1D       		.byte	0x1d
 553 0106 67000000 		.4byte	0x67
 554 010a 04       		.uleb128 0x4
 555 010b 39000000 		.4byte	.LASF21
 556 010f 05       		.byte	0x5
 557 0110 4C       		.byte	0x4c
 558 0111 1D       		.byte	0x1d
 559 0112 92000000 		.4byte	0x92
 560 0116 04       		.uleb128 0x4
 561 0117 DD050000 		.4byte	.LASF22
 562 011b 05       		.byte	0x5
 563 011c 4D       		.byte	0x4d
 564 011d 1D       		.byte	0x1d
 565 011e 4F000000 		.4byte	0x4f
 566 0122 04       		.uleb128 0x4
 567 0123 AF010000 		.4byte	.LASF23
 568 0127 05       		.byte	0x5
 569 0128 4F       		.byte	0x4f
 570 0129 1D       		.byte	0x1d
ARM GAS  /tmp/ccCdwTe8.s 			page 11


 571 012a 92000000 		.4byte	0x92
 572 012e 04       		.uleb128 0x4
 573 012f A7020000 		.4byte	.LASF24
 574 0133 05       		.byte	0x5
 575 0134 51       		.byte	0x51
 576 0135 1D       		.byte	0x1d
 577 0136 4F000000 		.4byte	0x4f
 578 013a 04       		.uleb128 0x4
 579 013b C4030000 		.4byte	.LASF25
 580 013f 05       		.byte	0x5
 581 0140 52       		.byte	0x52
 582 0141 1D       		.byte	0x1d
 583 0142 92000000 		.4byte	0x92
 584 0146 04       		.uleb128 0x4
 585 0147 1B000000 		.4byte	.LASF26
 586 014b 06       		.byte	0x6
 587 014c 33       		.byte	0x33
 588 014d 12       		.byte	0x12
 589 014e 92000000 		.4byte	0x92
 590 0152 05       		.uleb128 0x5
 591 0153 46010000 		.4byte	0x146
 592 0157 04       		.uleb128 0x4
 593 0158 23050000 		.4byte	.LASF27
 594 015c 06       		.byte	0x6
 595 015d 3F       		.byte	0x3f
 596 015e 1A       		.byte	0x1a
 597 015f 63010000 		.4byte	0x163
 598 0163 07       		.uleb128 0x7
 599 0164 82030000 		.4byte	.LASF51
 600 0168 68       		.byte	0x68
 601 0169 07       		.byte	0x7
 602 016a C2       		.byte	0xc2
 603 016b 08       		.byte	0x8
 604 016c 98020000 		.4byte	0x298
 605 0170 08       		.uleb128 0x8
 606 0171 15010000 		.4byte	.LASF28
 607 0175 07       		.byte	0x7
 608 0176 C3       		.byte	0xc3
 609 0177 1A       		.byte	0x1a
 610 0178 A4020000 		.4byte	0x2a4
 611 017c 00       		.byte	0
 612 017d 08       		.uleb128 0x8
 613 017e 35010000 		.4byte	.LASF29
 614 0182 07       		.byte	0x7
 615 0183 C5       		.byte	0xc5
 616 0184 1A       		.byte	0x1a
 617 0185 A4020000 		.4byte	0x2a4
 618 0189 04       		.byte	0x4
 619 018a 08       		.uleb128 0x8
 620 018b 28020000 		.4byte	.LASF30
 621 018f 07       		.byte	0x7
 622 0190 C7       		.byte	0xc7
 623 0191 19       		.byte	0x19
 624 0192 0A010000 		.4byte	0x10a
 625 0196 08       		.byte	0x8
 626 0197 08       		.uleb128 0x8
 627 0198 33000000 		.4byte	.LASF31
ARM GAS  /tmp/ccCdwTe8.s 			page 12


 628 019c 07       		.byte	0x7
 629 019d C8       		.byte	0xc8
 630 019e 19       		.byte	0x19
 631 019f 7A070000 		.4byte	0x77a
 632 01a3 0C       		.byte	0xc
 633 01a4 08       		.uleb128 0x8
 634 01a5 04010000 		.4byte	.LASF32
 635 01a9 07       		.byte	0x7
 636 01aa CA       		.byte	0xca
 637 01ab 1A       		.byte	0x1a
 638 01ac A4020000 		.4byte	0x2a4
 639 01b0 10       		.byte	0x10
 640 01b1 08       		.uleb128 0x8
 641 01b2 CC050000 		.4byte	.LASF33
 642 01b6 07       		.byte	0x7
 643 01b7 CB       		.byte	0xcb
 644 01b8 1A       		.byte	0x1a
 645 01b9 A4020000 		.4byte	0x2a4
 646 01bd 14       		.byte	0x14
 647 01be 08       		.uleb128 0x8
 648 01bf 46090000 		.4byte	.LASF34
 649 01c3 07       		.byte	0x7
 650 01c4 D2       		.byte	0xd2
 651 01c5 1A       		.byte	0x1a
 652 01c6 880C0000 		.4byte	0xc88
 653 01ca 18       		.byte	0x18
 654 01cb 08       		.uleb128 0x8
 655 01cc 1E090000 		.4byte	.LASF35
 656 01d0 07       		.byte	0x7
 657 01d1 D8       		.byte	0xd8
 658 01d2 1A       		.byte	0x1a
 659 01d3 9F0C0000 		.4byte	0xc9f
 660 01d7 1C       		.byte	0x1c
 661 01d8 08       		.uleb128 0x8
 662 01d9 66090000 		.4byte	.LASF36
 663 01dd 07       		.byte	0x7
 664 01de DD       		.byte	0xdd
 665 01df 19       		.byte	0x19
 666 01e0 E6000000 		.4byte	0xe6
 667 01e4 20       		.byte	0x20
 668 01e5 08       		.uleb128 0x8
 669 01e6 7D040000 		.4byte	.LASF37
 670 01ea 07       		.byte	0x7
 671 01eb E1       		.byte	0xe1
 672 01ec 19       		.byte	0x19
 673 01ed DA000000 		.4byte	0xda
 674 01f1 21       		.byte	0x21
 675 01f2 08       		.uleb128 0x8
 676 01f3 BB040000 		.4byte	.LASF38
 677 01f7 07       		.byte	0x7
 678 01f8 E6       		.byte	0xe6
 679 01f9 19       		.byte	0x19
 680 01fa F2000000 		.4byte	0xf2
 681 01fe 22       		.byte	0x22
 682 01ff 08       		.uleb128 0x8
 683 0200 9D010000 		.4byte	.LASF39
 684 0204 07       		.byte	0x7
ARM GAS  /tmp/ccCdwTe8.s 			page 13


 685 0205 EC       		.byte	0xec
 686 0206 19       		.byte	0x19
 687 0207 FE000000 		.4byte	0xfe
 688 020b 23       		.byte	0x23
 689 020c 08       		.uleb128 0x8
 690 020d 01050000 		.4byte	.LASF40
 691 0211 07       		.byte	0x7
 692 0212 F3       		.byte	0xf3
 693 0213 19       		.byte	0x19
 694 0214 52010000 		.4byte	0x152
 695 0218 24       		.byte	0x24
 696 0219 09       		.uleb128 0x9
 697 021a 705F7500 		.ascii	"p_u\000"
 698 021e 07       		.byte	0x7
 699 021f 3101     		.2byte	0x131
 700 0221 19       		.byte	0x19
 701 0222 A70B0000 		.4byte	0xba7
 702 0226 28       		.byte	0x28
 703 0227 0A       		.uleb128 0xa
 704 0228 69040000 		.4byte	.LASF41
 705 022c 07       		.byte	0x7
 706 022d 3601     		.2byte	0x136
 707 022f 19       		.byte	0x19
 708 0230 AA020000 		.4byte	0x2aa
 709 0234 2C       		.byte	0x2c
 710 0235 0A       		.uleb128 0xa
 711 0236 4A000000 		.4byte	.LASF42
 712 023a 07       		.byte	0x7
 713 023b 3C01     		.2byte	0x13c
 714 023d 19       		.byte	0x19
 715 023e D1020000 		.4byte	0x2d1
 716 0242 30       		.byte	0x30
 717 0243 0A       		.uleb128 0xa
 718 0244 60090000 		.4byte	.LASF43
 719 0248 07       		.byte	0x7
 720 0249 4001     		.2byte	0x140
 721 024b 19       		.byte	0x19
 722 024c 16010000 		.4byte	0x116
 723 0250 38       		.byte	0x38
 724 0251 0A       		.uleb128 0xa
 725 0252 D0020000 		.4byte	.LASF44
 726 0256 07       		.byte	0x7
 727 0257 4601     		.2byte	0x146
 728 0259 19       		.byte	0x19
 729 025a 22010000 		.4byte	0x122
 730 025e 3C       		.byte	0x3c
 731 025f 0A       		.uleb128 0xa
 732 0260 64010000 		.4byte	.LASF45
 733 0264 07       		.byte	0x7
 734 0265 4D01     		.2byte	0x14d
 735 0267 1A       		.byte	0x1a
 736 0268 820C0000 		.4byte	0xc82
 737 026c 40       		.byte	0x40
 738 026d 0A       		.uleb128 0xa
 739 026e 4B050000 		.4byte	.LASF46
 740 0272 07       		.byte	0x7
 741 0273 5101     		.2byte	0x151
ARM GAS  /tmp/ccCdwTe8.s 			page 14


 742 0275 19       		.byte	0x19
 743 0276 0A010000 		.4byte	0x10a
 744 027a 44       		.byte	0x44
 745 027b 0A       		.uleb128 0xa
 746 027c B3040000 		.4byte	.LASF47
 747 0280 07       		.byte	0x7
 748 0281 5801     		.2byte	0x158
 749 0283 1A       		.byte	0x1a
 750 0284 91030000 		.4byte	0x391
 751 0288 48       		.byte	0x48
 752 0289 0A       		.uleb128 0xa
 753 028a 00000000 		.4byte	.LASF48
 754 028e 07       		.byte	0x7
 755 028f 5E01     		.2byte	0x15e
 756 0291 19       		.byte	0x19
 757 0292 510B0000 		.4byte	0xb51
 758 0296 50       		.byte	0x50
 759 0297 00       		.byte	0
 760 0298 04       		.uleb128 0x4
 761 0299 38050000 		.4byte	.LASF49
 762 029d 06       		.byte	0x6
 763 029e 44       		.byte	0x44
 764 029f 14       		.byte	0x14
 765 02a0 A4020000 		.4byte	0x2a4
 766 02a4 0B       		.uleb128 0xb
 767 02a5 04       		.byte	0x4
 768 02a6 57010000 		.4byte	0x157
 769 02aa 04       		.uleb128 0x4
 770 02ab 0F070000 		.4byte	.LASF50
 771 02af 06       		.byte	0x6
 772 02b0 49       		.byte	0x49
 773 02b1 20       		.byte	0x20
 774 02b2 B6020000 		.4byte	0x2b6
 775 02b6 07       		.uleb128 0x7
 776 02b7 CB030000 		.4byte	.LASF52
 777 02bb 04       		.byte	0x4
 778 02bc 07       		.byte	0x7
 779 02bd B0       		.byte	0xb0
 780 02be 08       		.byte	0x8
 781 02bf D1020000 		.4byte	0x2d1
 782 02c3 08       		.uleb128 0x8
 783 02c4 15010000 		.4byte	.LASF28
 784 02c8 07       		.byte	0x7
 785 02c9 B1       		.byte	0xb1
 786 02ca 1A       		.byte	0x1a
 787 02cb A4020000 		.4byte	0x2a4
 788 02cf 00       		.byte	0
 789 02d0 00       		.byte	0
 790 02d1 04       		.uleb128 0x4
 791 02d2 54010000 		.4byte	.LASF53
 792 02d6 06       		.byte	0x6
 793 02d7 50       		.byte	0x50
 794 02d8 21       		.byte	0x21
 795 02d9 DD020000 		.4byte	0x2dd
 796 02dd 07       		.uleb128 0x7
 797 02de E3050000 		.4byte	.LASF54
 798 02e2 08       		.byte	0x8
ARM GAS  /tmp/ccCdwTe8.s 			page 15


 799 02e3 07       		.byte	0x7
 800 02e4 B7       		.byte	0xb7
 801 02e5 08       		.byte	0x8
 802 02e6 05030000 		.4byte	0x305
 803 02ea 08       		.uleb128 0x8
 804 02eb 15010000 		.4byte	.LASF28
 805 02ef 07       		.byte	0x7
 806 02f0 B8       		.byte	0xb8
 807 02f1 1A       		.byte	0x1a
 808 02f2 A4020000 		.4byte	0x2a4
 809 02f6 00       		.byte	0
 810 02f7 08       		.uleb128 0x8
 811 02f8 35010000 		.4byte	.LASF29
 812 02fc 07       		.byte	0x7
 813 02fd B9       		.byte	0xb9
 814 02fe 1A       		.byte	0x1a
 815 02ff A4020000 		.4byte	0x2a4
 816 0303 04       		.byte	0x4
 817 0304 00       		.byte	0
 818 0305 04       		.uleb128 0x4
 819 0306 B7030000 		.4byte	.LASF55
 820 030a 06       		.byte	0x6
 821 030b 57       		.byte	0x57
 822 030c 1E       		.byte	0x1e
 823 030d 11030000 		.4byte	0x311
 824 0311 0C       		.uleb128 0xc
 825 0312 EE020000 		.4byte	.LASF56
 826 0316 1C       		.byte	0x1c
 827 0317 07       		.byte	0x7
 828 0318 9001     		.2byte	0x190
 829 031a 08       		.byte	0x8
 830 031b 74030000 		.4byte	0x374
 831 031f 0A       		.uleb128 0xa
 832 0320 33060000 		.4byte	.LASF57
 833 0324 07       		.byte	0x7
 834 0325 9101     		.2byte	0x191
 835 0327 19       		.byte	0x19
 836 0328 D1020000 		.4byte	0x2d1
 837 032c 00       		.byte	0
 838 032d 0A       		.uleb128 0xa
 839 032e BE060000 		.4byte	.LASF58
 840 0332 07       		.byte	0x7
 841 0333 9201     		.2byte	0x192
 842 0335 19       		.byte	0x19
 843 0336 0A010000 		.4byte	0x10a
 844 033a 08       		.byte	0x8
 845 033b 0A       		.uleb128 0xa
 846 033c 55000000 		.4byte	.LASF59
 847 0340 07       		.byte	0x7
 848 0341 9401     		.2byte	0x194
 849 0343 19       		.byte	0x19
 850 0344 7A070000 		.4byte	0x77a
 851 0348 0C       		.byte	0xc
 852 0349 0A       		.uleb128 0xa
 853 034a F8010000 		.4byte	.LASF60
 854 034e 07       		.byte	0x7
 855 034f 9701     		.2byte	0x197
ARM GAS  /tmp/ccCdwTe8.s 			page 16


 856 0351 1A       		.byte	0x1a
 857 0352 A4020000 		.4byte	0x2a4
 858 0356 10       		.byte	0x10
 859 0357 0A       		.uleb128 0xa
 860 0358 5E060000 		.4byte	.LASF61
 861 035c 07       		.byte	0x7
 862 035d 9801     		.2byte	0x198
 863 035f 1A       		.byte	0x1a
 864 0360 A4020000 		.4byte	0x2a4
 865 0364 14       		.byte	0x14
 866 0365 0A       		.uleb128 0xa
 867 0366 0B060000 		.4byte	.LASF62
 868 036a 07       		.byte	0x7
 869 036b 9B01     		.2byte	0x19b
 870 036d 1A       		.byte	0x1a
 871 036e A4020000 		.4byte	0x2a4
 872 0372 18       		.byte	0x18
 873 0373 00       		.byte	0
 874 0374 04       		.uleb128 0x4
 875 0375 6E000000 		.4byte	.LASF63
 876 0379 06       		.byte	0x6
 877 037a 5C       		.byte	0x5c
 878 037b 10       		.byte	0x10
 879 037c 80030000 		.4byte	0x380
 880 0380 0B       		.uleb128 0xb
 881 0381 04       		.byte	0x4
 882 0382 86030000 		.4byte	0x386
 883 0386 0D       		.uleb128 0xd
 884 0387 91030000 		.4byte	0x391
 885 038b 0E       		.uleb128 0xe
 886 038c 91030000 		.4byte	0x391
 887 0390 00       		.byte	0
 888 0391 0F       		.uleb128 0xf
 889 0392 04       		.byte	0x4
 890 0393 04       		.uleb128 0x4
 891 0394 A7030000 		.4byte	.LASF64
 892 0398 06       		.byte	0x6
 893 0399 61       		.byte	0x61
 894 039a 21       		.byte	0x21
 895 039b 9F030000 		.4byte	0x39f
 896 039f 0C       		.uleb128 0xc
 897 03a0 8C050000 		.4byte	.LASF65
 898 03a4 14       		.byte	0x14
 899 03a5 07       		.byte	0x7
 900 03a6 6B01     		.2byte	0x16b
 901 03a8 08       		.byte	0x8
 902 03a9 F4030000 		.4byte	0x3f4
 903 03ad 0A       		.uleb128 0xa
 904 03ae 44040000 		.4byte	.LASF66
 905 03b2 07       		.byte	0x7
 906 03b3 6C01     		.2byte	0x16c
 907 03b5 1A       		.byte	0x1a
 908 03b6 A50C0000 		.4byte	0xca5
 909 03ba 00       		.byte	0
 910 03bb 0A       		.uleb128 0xa
 911 03bc 4C040000 		.4byte	.LASF67
 912 03c0 07       		.byte	0x7
ARM GAS  /tmp/ccCdwTe8.s 			page 17


 913 03c1 6D01     		.2byte	0x16d
 914 03c3 1A       		.byte	0x1a
 915 03c4 A50C0000 		.4byte	0xca5
 916 03c8 04       		.byte	0x4
 917 03c9 0A       		.uleb128 0xa
 918 03ca 83050000 		.4byte	.LASF68
 919 03ce 07       		.byte	0x7
 920 03cf 6E01     		.2byte	0x16e
 921 03d1 19       		.byte	0x19
 922 03d2 46010000 		.4byte	0x146
 923 03d6 08       		.byte	0x8
 924 03d7 0A       		.uleb128 0xa
 925 03d8 B6020000 		.4byte	.LASF69
 926 03dc 07       		.byte	0x7
 927 03dd 6F01     		.2byte	0x16f
 928 03df 19       		.byte	0x19
 929 03e0 74030000 		.4byte	0x374
 930 03e4 0C       		.byte	0xc
 931 03e5 0A       		.uleb128 0xa
 932 03e6 C8000000 		.4byte	.LASF70
 933 03ea 07       		.byte	0x7
 934 03eb 7101     		.2byte	0x171
 935 03ed 1A       		.byte	0x1a
 936 03ee 91030000 		.4byte	0x391
 937 03f2 10       		.byte	0x10
 938 03f3 00       		.byte	0
 939 03f4 04       		.uleb128 0x4
 940 03f5 8C030000 		.4byte	.LASF71
 941 03f9 06       		.byte	0x6
 942 03fa 66       		.byte	0x66
 943 03fb 28       		.byte	0x28
 944 03fc 00040000 		.4byte	0x400
 945 0400 0C       		.uleb128 0xc
 946 0401 77000000 		.4byte	.LASF72
 947 0405 10       		.byte	0x10
 948 0406 07       		.byte	0x7
 949 0407 7B01     		.2byte	0x17b
 950 0409 08       		.byte	0x8
 951 040a 47040000 		.4byte	0x447
 952 040e 0A       		.uleb128 0xa
 953 040f 44040000 		.4byte	.LASF66
 954 0413 07       		.byte	0x7
 955 0414 7C01     		.2byte	0x17c
 956 0416 1A       		.byte	0x1a
 957 0417 A50C0000 		.4byte	0xca5
 958 041b 00       		.byte	0
 959 041c 0A       		.uleb128 0xa
 960 041d 4C040000 		.4byte	.LASF67
 961 0421 07       		.byte	0x7
 962 0422 7E01     		.2byte	0x17e
 963 0424 1A       		.byte	0x1a
 964 0425 A50C0000 		.4byte	0xca5
 965 0429 04       		.byte	0x4
 966 042a 0A       		.uleb128 0xa
 967 042b 83050000 		.4byte	.LASF68
 968 042f 07       		.byte	0x7
 969 0430 8001     		.2byte	0x180
ARM GAS  /tmp/ccCdwTe8.s 			page 18


 970 0432 19       		.byte	0x19
 971 0433 46010000 		.4byte	0x146
 972 0437 08       		.byte	0x8
 973 0438 0A       		.uleb128 0xa
 974 0439 53060000 		.4byte	.LASF73
 975 043d 07       		.byte	0x7
 976 043e 8201     		.2byte	0x182
 977 0440 19       		.byte	0x19
 978 0441 52010000 		.4byte	0x152
 979 0445 0C       		.byte	0xc
 980 0446 00       		.byte	0
 981 0447 04       		.uleb128 0x4
 982 0448 00020000 		.4byte	.LASF74
 983 044c 06       		.byte	0x6
 984 044d 6B       		.byte	0x6b
 985 044e 20       		.byte	0x20
 986 044f 53040000 		.4byte	0x453
 987 0453 10       		.uleb128 0x10
 988 0454 C5060000 		.4byte	.LASF75
 989 0458 1404     		.2byte	0x414
 990 045a 07       		.byte	0x7
 991 045b A201     		.2byte	0x1a2
 992 045d 08       		.byte	0x8
 993 045e 9B040000 		.4byte	0x49b
 994 0462 0A       		.uleb128 0xa
 995 0463 E1010000 		.4byte	.LASF76
 996 0467 07       		.byte	0x7
 997 0468 AA01     		.2byte	0x1aa
 998 046a 24       		.byte	0x24
 999 046b 8E0C0000 		.4byte	0xc8e
 1000 046f 00       		.byte	0
 1001 0470 0A       		.uleb128 0xa
 1002 0471 FC020000 		.4byte	.LASF77
 1003 0475 07       		.byte	0x7
 1004 0476 AF01     		.2byte	0x1af
 1005 0478 19       		.byte	0x19
 1006 0479 2E010000 		.4byte	0x12e
 1007 047d 04       		.byte	0x4
 1008 047e 0A       		.uleb128 0xa
 1009 047f 93000000 		.4byte	.LASF78
 1010 0483 07       		.byte	0x7
 1011 0484 B301     		.2byte	0x1b3
 1012 0486 19       		.byte	0x19
 1013 0487 2E010000 		.4byte	0x12e
 1014 048b 08       		.byte	0x8
 1015 048c 0A       		.uleb128 0xa
 1016 048d EB010000 		.4byte	.LASF79
 1017 0491 07       		.byte	0x7
 1018 0492 B901     		.2byte	0x1b9
 1019 0494 19       		.byte	0x19
 1020 0495 D90A0000 		.4byte	0xad9
 1021 0499 0C       		.byte	0xc
 1022 049a 00       		.byte	0
 1023 049b 04       		.uleb128 0x4
 1024 049c 00090000 		.4byte	.LASF80
 1025 04a0 06       		.byte	0x6
 1026 04a1 70       		.byte	0x70
ARM GAS  /tmp/ccCdwTe8.s 			page 19


 1027 04a2 1A       		.byte	0x1a
 1028 04a3 A7040000 		.4byte	0x4a7
 1029 04a7 10       		.uleb128 0x10
 1030 04a8 B8080000 		.4byte	.LASF81
 1031 04ac 7006     		.2byte	0x670
 1032 04ae 07       		.byte	0x7
 1033 04af C201     		.2byte	0x1c2
 1034 04b1 08       		.byte	0x8
 1035 04b2 1C050000 		.4byte	0x51c
 1036 04b6 0A       		.uleb128 0xa
 1037 04b7 45060000 		.4byte	.LASF82
 1038 04bb 07       		.byte	0x7
 1039 04bc C601     		.2byte	0x1c6
 1040 04be 19       		.byte	0x19
 1041 04bf 05030000 		.4byte	0x305
 1042 04c3 00       		.byte	0
 1043 04c4 0A       		.uleb128 0xa
 1044 04c5 E2060000 		.4byte	.LASF83
 1045 04c9 07       		.byte	0x7
 1046 04ca CA01     		.2byte	0x1ca
 1047 04cc 19       		.byte	0x19
 1048 04cd F4030000 		.4byte	0x3f4
 1049 04d1 1C       		.byte	0x1c
 1050 04d2 09       		.uleb128 0x9
 1051 04d3 64626700 		.ascii	"dbg\000"
 1052 04d7 07       		.byte	0x7
 1053 04d8 CE01     		.2byte	0x1ce
 1054 04da 19       		.byte	0x19
 1055 04db 47040000 		.4byte	0x447
 1056 04df 2C       		.byte	0x2c
 1057 04e0 11       		.uleb128 0x11
 1058 04e1 15060000 		.4byte	.LASF84
 1059 04e5 07       		.byte	0x7
 1060 04e6 D201     		.2byte	0x1d2
 1061 04e8 19       		.byte	0x19
 1062 04e9 57010000 		.4byte	0x157
 1063 04ed 4004     		.2byte	0x440
 1064 04ef 12       		.uleb128 0x12
 1065 04f0 746D00   		.ascii	"tm\000"
 1066 04f3 07       		.byte	0x7
 1067 04f4 D701     		.2byte	0x1d7
 1068 04f6 19       		.byte	0x19
 1069 04f7 FC0A0000 		.4byte	0xafc
 1070 04fb A804     		.2byte	0x4a8
 1071 04fd 11       		.uleb128 0x11
 1072 04fe A8050000 		.4byte	.LASF85
 1073 0502 07       		.byte	0x7
 1074 0503 DD01     		.2byte	0x1dd
 1075 0505 19       		.byte	0x19
 1076 0506 9B0B0000 		.4byte	0xb9b
 1077 050a B004     		.2byte	0x4b0
 1078 050c 11       		.uleb128 0x11
 1079 050d 8F040000 		.4byte	.LASF86
 1080 0511 07       		.byte	0x7
 1081 0512 E301     		.2byte	0x1e3
 1082 0514 03       		.byte	0x3
 1083 0515 AB0C0000 		.4byte	0xcab
ARM GAS  /tmp/ccCdwTe8.s 			page 20


 1084 0519 E804     		.2byte	0x4e8
 1085 051b 00       		.byte	0
 1086 051c 13       		.uleb128 0x13
 1087 051d 8C       		.byte	0x8c
 1088 051e 08       		.byte	0x8
 1089 051f 7001     		.2byte	0x170
 1090 0521 09       		.byte	0x9
 1091 0522 4D060000 		.4byte	0x64d
 1092 0526 0A       		.uleb128 0xa
 1093 0527 3C010000 		.4byte	.LASF87
 1094 052b 08       		.byte	0x8
 1095 052c 7201     		.2byte	0x172
 1096 052e 11       		.byte	0x11
 1097 052f A3000000 		.4byte	0xa3
 1098 0533 00       		.byte	0
 1099 0534 0A       		.uleb128 0xa
 1100 0535 77010000 		.4byte	.LASF88
 1101 0539 08       		.byte	0x8
 1102 053a 7301     		.2byte	0x173
 1103 053c 11       		.byte	0x11
 1104 053d 9E000000 		.4byte	0x9e
 1105 0541 04       		.byte	0x4
 1106 0542 0A       		.uleb128 0xa
 1107 0543 8E000000 		.4byte	.LASF89
 1108 0547 08       		.byte	0x8
 1109 0548 7401     		.2byte	0x174
 1110 054a 11       		.byte	0x11
 1111 054b 9E000000 		.4byte	0x9e
 1112 054f 08       		.byte	0x8
 1113 0550 0A       		.uleb128 0xa
 1114 0551 FE000000 		.4byte	.LASF90
 1115 0555 08       		.byte	0x8
 1116 0556 7501     		.2byte	0x175
 1117 0558 11       		.byte	0x11
 1118 0559 9E000000 		.4byte	0x9e
 1119 055d 0C       		.byte	0xc
 1120 055e 09       		.uleb128 0x9
 1121 055f 53435200 		.ascii	"SCR\000"
 1122 0563 08       		.byte	0x8
 1123 0564 7601     		.2byte	0x176
 1124 0566 11       		.byte	0x11
 1125 0567 9E000000 		.4byte	0x9e
 1126 056b 10       		.byte	0x10
 1127 056c 09       		.uleb128 0x9
 1128 056d 43435200 		.ascii	"CCR\000"
 1129 0571 08       		.byte	0x8
 1130 0572 7701     		.2byte	0x177
 1131 0574 11       		.byte	0x11
 1132 0575 9E000000 		.4byte	0x9e
 1133 0579 14       		.byte	0x14
 1134 057a 09       		.uleb128 0x9
 1135 057b 53485000 		.ascii	"SHP\000"
 1136 057f 08       		.byte	0x8
 1137 0580 7801     		.2byte	0x178
 1138 0582 11       		.byte	0x11
 1139 0583 5D060000 		.4byte	0x65d
 1140 0587 18       		.byte	0x18
ARM GAS  /tmp/ccCdwTe8.s 			page 21


 1141 0588 0A       		.uleb128 0xa
 1142 0589 A1020000 		.4byte	.LASF91
 1143 058d 08       		.byte	0x8
 1144 058e 7901     		.2byte	0x179
 1145 0590 11       		.byte	0x11
 1146 0591 9E000000 		.4byte	0x9e
 1147 0595 24       		.byte	0x24
 1148 0596 0A       		.uleb128 0xa
 1149 0597 40060000 		.4byte	.LASF92
 1150 059b 08       		.byte	0x8
 1151 059c 7A01     		.2byte	0x17a
 1152 059e 11       		.byte	0x11
 1153 059f 9E000000 		.4byte	0x9e
 1154 05a3 28       		.byte	0x28
 1155 05a4 0A       		.uleb128 0xa
 1156 05a5 45020000 		.4byte	.LASF93
 1157 05a9 08       		.byte	0x8
 1158 05aa 7B01     		.2byte	0x17b
 1159 05ac 11       		.byte	0x11
 1160 05ad 9E000000 		.4byte	0x9e
 1161 05b1 2C       		.byte	0x2c
 1162 05b2 0A       		.uleb128 0xa
 1163 05b3 23020000 		.4byte	.LASF94
 1164 05b7 08       		.byte	0x8
 1165 05b8 7C01     		.2byte	0x17c
 1166 05ba 11       		.byte	0x11
 1167 05bb 9E000000 		.4byte	0x9e
 1168 05bf 30       		.byte	0x30
 1169 05c0 0A       		.uleb128 0xa
 1170 05c1 91060000 		.4byte	.LASF95
 1171 05c5 08       		.byte	0x8
 1172 05c6 7D01     		.2byte	0x17d
 1173 05c8 11       		.byte	0x11
 1174 05c9 9E000000 		.4byte	0x9e
 1175 05cd 34       		.byte	0x34
 1176 05ce 0A       		.uleb128 0xa
 1177 05cf 9D050000 		.4byte	.LASF96
 1178 05d3 08       		.byte	0x8
 1179 05d4 7E01     		.2byte	0x17e
 1180 05d6 11       		.byte	0x11
 1181 05d7 9E000000 		.4byte	0x9e
 1182 05db 38       		.byte	0x38
 1183 05dc 0A       		.uleb128 0xa
 1184 05dd 3B060000 		.4byte	.LASF97
 1185 05e1 08       		.byte	0x8
 1186 05e2 7F01     		.2byte	0x17f
 1187 05e4 11       		.byte	0x11
 1188 05e5 9E000000 		.4byte	0x9e
 1189 05e9 3C       		.byte	0x3c
 1190 05ea 09       		.uleb128 0x9
 1191 05eb 50465200 		.ascii	"PFR\000"
 1192 05ef 08       		.byte	0x8
 1193 05f0 8001     		.2byte	0x180
 1194 05f2 11       		.byte	0x11
 1195 05f3 77060000 		.4byte	0x677
 1196 05f7 40       		.byte	0x40
 1197 05f8 09       		.uleb128 0x9
ARM GAS  /tmp/ccCdwTe8.s 			page 22


 1198 05f9 44465200 		.ascii	"DFR\000"
 1199 05fd 08       		.byte	0x8
 1200 05fe 8101     		.2byte	0x181
 1201 0600 11       		.byte	0x11
 1202 0601 A3000000 		.4byte	0xa3
 1203 0605 48       		.byte	0x48
 1204 0606 09       		.uleb128 0x9
 1205 0607 41445200 		.ascii	"ADR\000"
 1206 060b 08       		.byte	0x8
 1207 060c 8201     		.2byte	0x182
 1208 060e 11       		.byte	0x11
 1209 060f A3000000 		.4byte	0xa3
 1210 0613 4C       		.byte	0x4c
 1211 0614 0A       		.uleb128 0xa
 1212 0615 8C060000 		.4byte	.LASF98
 1213 0619 08       		.byte	0x8
 1214 061a 8301     		.2byte	0x183
 1215 061c 11       		.byte	0x11
 1216 061d 91060000 		.4byte	0x691
 1217 0621 50       		.byte	0x50
 1218 0622 0A       		.uleb128 0xa
 1219 0623 B9060000 		.4byte	.LASF99
 1220 0627 08       		.byte	0x8
 1221 0628 8401     		.2byte	0x184
 1222 062a 11       		.byte	0x11
 1223 062b AB060000 		.4byte	0x6ab
 1224 062f 60       		.byte	0x60
 1225 0630 0A       		.uleb128 0xa
 1226 0631 C9010000 		.4byte	.LASF100
 1227 0635 08       		.byte	0x8
 1228 0636 8501     		.2byte	0x185
 1229 0638 11       		.byte	0x11
 1230 0639 B0060000 		.4byte	0x6b0
 1231 063d 74       		.byte	0x74
 1232 063e 0A       		.uleb128 0xa
 1233 063f FA080000 		.4byte	.LASF101
 1234 0643 08       		.byte	0x8
 1235 0644 8601     		.2byte	0x186
 1236 0646 11       		.byte	0x11
 1237 0647 9E000000 		.4byte	0x9e
 1238 064b 88       		.byte	0x88
 1239 064c 00       		.byte	0
 1240 064d 14       		.uleb128 0x14
 1241 064e 73000000 		.4byte	0x73
 1242 0652 5D060000 		.4byte	0x65d
 1243 0656 15       		.uleb128 0x15
 1244 0657 2C000000 		.4byte	0x2c
 1245 065b 0B       		.byte	0xb
 1246 065c 00       		.byte	0
 1247 065d 05       		.uleb128 0x5
 1248 065e 4D060000 		.4byte	0x64d
 1249 0662 14       		.uleb128 0x14
 1250 0663 A3000000 		.4byte	0xa3
 1251 0667 72060000 		.4byte	0x672
 1252 066b 15       		.uleb128 0x15
 1253 066c 2C000000 		.4byte	0x2c
 1254 0670 01       		.byte	0x1
ARM GAS  /tmp/ccCdwTe8.s 			page 23


 1255 0671 00       		.byte	0
 1256 0672 06       		.uleb128 0x6
 1257 0673 62060000 		.4byte	0x662
 1258 0677 05       		.uleb128 0x5
 1259 0678 72060000 		.4byte	0x672
 1260 067c 14       		.uleb128 0x14
 1261 067d A3000000 		.4byte	0xa3
 1262 0681 8C060000 		.4byte	0x68c
 1263 0685 15       		.uleb128 0x15
 1264 0686 2C000000 		.4byte	0x2c
 1265 068a 03       		.byte	0x3
 1266 068b 00       		.byte	0
 1267 068c 06       		.uleb128 0x6
 1268 068d 7C060000 		.4byte	0x67c
 1269 0691 05       		.uleb128 0x5
 1270 0692 8C060000 		.4byte	0x68c
 1271 0696 14       		.uleb128 0x14
 1272 0697 A3000000 		.4byte	0xa3
 1273 069b A6060000 		.4byte	0x6a6
 1274 069f 15       		.uleb128 0x15
 1275 06a0 2C000000 		.4byte	0x2c
 1276 06a4 04       		.byte	0x4
 1277 06a5 00       		.byte	0
 1278 06a6 06       		.uleb128 0x6
 1279 06a7 96060000 		.4byte	0x696
 1280 06ab 05       		.uleb128 0x5
 1281 06ac A6060000 		.4byte	0x6a6
 1282 06b0 14       		.uleb128 0x14
 1283 06b1 92000000 		.4byte	0x92
 1284 06b5 C0060000 		.4byte	0x6c0
 1285 06b9 15       		.uleb128 0x15
 1286 06ba 2C000000 		.4byte	0x2c
 1287 06be 04       		.byte	0x4
 1288 06bf 00       		.byte	0
 1289 06c0 16       		.uleb128 0x16
 1290 06c1 1A020000 		.4byte	.LASF102
 1291 06c5 08       		.byte	0x8
 1292 06c6 8701     		.2byte	0x187
 1293 06c8 03       		.byte	0x3
 1294 06c9 1C050000 		.4byte	0x51c
 1295 06cd 14       		.uleb128 0x14
 1296 06ce 92000000 		.4byte	0x92
 1297 06d2 DD060000 		.4byte	0x6dd
 1298 06d6 15       		.uleb128 0x15
 1299 06d7 2C000000 		.4byte	0x2c
 1300 06db 00       		.byte	0
 1301 06dc 00       		.byte	0
 1302 06dd 13       		.uleb128 0x13
 1303 06de 18       		.byte	0x18
 1304 06df 08       		.byte	0x8
 1305 06e0 8E04     		.2byte	0x48e
 1306 06e2 09       		.byte	0x9
 1307 06e3 3C070000 		.4byte	0x73c
 1308 06e7 0A       		.uleb128 0xa
 1309 06e8 C9010000 		.4byte	.LASF100
 1310 06ec 08       		.byte	0x8
 1311 06ed 9004     		.2byte	0x490
ARM GAS  /tmp/ccCdwTe8.s 			page 24


 1312 06ef 11       		.byte	0x11
 1313 06f0 CD060000 		.4byte	0x6cd
 1314 06f4 00       		.byte	0
 1315 06f5 0A       		.uleb128 0xa
 1316 06f6 E9060000 		.4byte	.LASF103
 1317 06fa 08       		.byte	0x8
 1318 06fb 9104     		.2byte	0x491
 1319 06fd 11       		.byte	0x11
 1320 06fe 9E000000 		.4byte	0x9e
 1321 0702 04       		.byte	0x4
 1322 0703 0A       		.uleb128 0xa
 1323 0704 86060000 		.4byte	.LASF104
 1324 0708 08       		.byte	0x8
 1325 0709 9204     		.2byte	0x492
 1326 070b 11       		.byte	0x11
 1327 070c 9E000000 		.4byte	0x9e
 1328 0710 08       		.byte	0x8
 1329 0711 0A       		.uleb128 0xa
 1330 0712 77060000 		.4byte	.LASF105
 1331 0716 08       		.byte	0x8
 1332 0717 9304     		.2byte	0x493
 1333 0719 11       		.byte	0x11
 1334 071a 9E000000 		.4byte	0x9e
 1335 071e 0C       		.byte	0xc
 1336 071f 0A       		.uleb128 0xa
 1337 0720 C2080000 		.4byte	.LASF106
 1338 0724 08       		.byte	0x8
 1339 0725 9404     		.2byte	0x494
 1340 0727 11       		.byte	0x11
 1341 0728 A3000000 		.4byte	0xa3
 1342 072c 10       		.byte	0x10
 1343 072d 0A       		.uleb128 0xa
 1344 072e C8080000 		.4byte	.LASF107
 1345 0732 08       		.byte	0x8
 1346 0733 9504     		.2byte	0x495
 1347 0735 11       		.byte	0x11
 1348 0736 A3000000 		.4byte	0xa3
 1349 073a 14       		.byte	0x14
 1350 073b 00       		.byte	0
 1351 073c 16       		.uleb128 0x16
 1352 073d 35090000 		.4byte	.LASF108
 1353 0741 08       		.byte	0x8
 1354 0742 9604     		.2byte	0x496
 1355 0744 03       		.byte	0x3
 1356 0745 DD060000 		.4byte	0x6dd
 1357 0749 17       		.uleb128 0x17
 1358 074a 5C040000 		.4byte	.LASF109
 1359 074e 08       		.byte	0x8
 1360 074f A706     		.2byte	0x6a7
 1361 0751 19       		.byte	0x19
 1362 0752 5B000000 		.4byte	0x5b
 1363 0756 18       		.uleb128 0x18
 1364 0757 65030000 		.4byte	.LASF110
 1365 075b 09       		.byte	0x9
 1366 075c 4C       		.byte	0x4c
 1367 075d 11       		.byte	0x11
 1368 075e 92000000 		.4byte	0x92
ARM GAS  /tmp/ccCdwTe8.s 			page 25


 1369 0762 04       		.uleb128 0x4
 1370 0763 6E010000 		.4byte	.LASF111
 1371 0767 0A       		.byte	0xa
 1372 0768 65       		.byte	0x65
 1373 0769 0F       		.byte	0xf
 1374 076a 91030000 		.4byte	0x391
 1375 076e 04       		.uleb128 0x4
 1376 076f 57020000 		.4byte	.LASF112
 1377 0773 0A       		.byte	0xa
 1378 0774 6D       		.byte	0x6d
 1379 0775 12       		.byte	0x12
 1380 0776 AF000000 		.4byte	0xaf
 1381 077a 07       		.uleb128 0x7
 1382 077b BB010000 		.4byte	.LASF113
 1383 077f 04       		.byte	0x4
 1384 0780 0A       		.byte	0xa
 1385 0781 89       		.byte	0x89
 1386 0782 08       		.byte	0x8
 1387 0783 95070000 		.4byte	0x795
 1388 0787 19       		.uleb128 0x19
 1389 0788 72313300 		.ascii	"r13\000"
 1390 078c 0A       		.byte	0xa
 1391 078d 8A       		.byte	0x8a
 1392 078e 17       		.byte	0x17
 1393 078f F0080000 		.4byte	0x8f0
 1394 0793 00       		.byte	0
 1395 0794 00       		.byte	0
 1396 0795 07       		.uleb128 0x7
 1397 0796 56050000 		.4byte	.LASF114
 1398 079a 64       		.byte	0x64
 1399 079b 03       		.byte	0x3
 1400 079c F4       		.byte	0xf4
 1401 079d 08       		.byte	0x8
 1402 079e F0080000 		.4byte	0x8f0
 1403 07a2 19       		.uleb128 0x19
 1404 07a3 73313600 		.ascii	"s16\000"
 1405 07a7 03       		.byte	0x3
 1406 07a8 F6       		.byte	0xf6
 1407 07a9 11       		.byte	0x11
 1408 07aa 62070000 		.4byte	0x762
 1409 07ae 00       		.byte	0
 1410 07af 19       		.uleb128 0x19
 1411 07b0 73313700 		.ascii	"s17\000"
 1412 07b4 03       		.byte	0x3
 1413 07b5 F7       		.byte	0xf7
 1414 07b6 11       		.byte	0x11
 1415 07b7 62070000 		.4byte	0x762
 1416 07bb 04       		.byte	0x4
 1417 07bc 19       		.uleb128 0x19
 1418 07bd 73313800 		.ascii	"s18\000"
 1419 07c1 03       		.byte	0x3
 1420 07c2 F8       		.byte	0xf8
 1421 07c3 11       		.byte	0x11
 1422 07c4 62070000 		.4byte	0x762
 1423 07c8 08       		.byte	0x8
 1424 07c9 19       		.uleb128 0x19
 1425 07ca 73313900 		.ascii	"s19\000"
ARM GAS  /tmp/ccCdwTe8.s 			page 26


 1426 07ce 03       		.byte	0x3
 1427 07cf F9       		.byte	0xf9
 1428 07d0 11       		.byte	0x11
 1429 07d1 62070000 		.4byte	0x762
 1430 07d5 0C       		.byte	0xc
 1431 07d6 19       		.uleb128 0x19
 1432 07d7 73323000 		.ascii	"s20\000"
 1433 07db 03       		.byte	0x3
 1434 07dc FA       		.byte	0xfa
 1435 07dd 11       		.byte	0x11
 1436 07de 62070000 		.4byte	0x762
 1437 07e2 10       		.byte	0x10
 1438 07e3 19       		.uleb128 0x19
 1439 07e4 73323100 		.ascii	"s21\000"
 1440 07e8 03       		.byte	0x3
 1441 07e9 FB       		.byte	0xfb
 1442 07ea 11       		.byte	0x11
 1443 07eb 62070000 		.4byte	0x762
 1444 07ef 14       		.byte	0x14
 1445 07f0 19       		.uleb128 0x19
 1446 07f1 73323200 		.ascii	"s22\000"
 1447 07f5 03       		.byte	0x3
 1448 07f6 FC       		.byte	0xfc
 1449 07f7 11       		.byte	0x11
 1450 07f8 62070000 		.4byte	0x762
 1451 07fc 18       		.byte	0x18
 1452 07fd 19       		.uleb128 0x19
 1453 07fe 73323300 		.ascii	"s23\000"
 1454 0802 03       		.byte	0x3
 1455 0803 FD       		.byte	0xfd
 1456 0804 11       		.byte	0x11
 1457 0805 62070000 		.4byte	0x762
 1458 0809 1C       		.byte	0x1c
 1459 080a 19       		.uleb128 0x19
 1460 080b 73323400 		.ascii	"s24\000"
 1461 080f 03       		.byte	0x3
 1462 0810 FE       		.byte	0xfe
 1463 0811 11       		.byte	0x11
 1464 0812 62070000 		.4byte	0x762
 1465 0816 20       		.byte	0x20
 1466 0817 19       		.uleb128 0x19
 1467 0818 73323500 		.ascii	"s25\000"
 1468 081c 03       		.byte	0x3
 1469 081d FF       		.byte	0xff
 1470 081e 11       		.byte	0x11
 1471 081f 62070000 		.4byte	0x762
 1472 0823 24       		.byte	0x24
 1473 0824 09       		.uleb128 0x9
 1474 0825 73323600 		.ascii	"s26\000"
 1475 0829 03       		.byte	0x3
 1476 082a 0001     		.2byte	0x100
 1477 082c 11       		.byte	0x11
 1478 082d 62070000 		.4byte	0x762
 1479 0831 28       		.byte	0x28
 1480 0832 09       		.uleb128 0x9
 1481 0833 73323700 		.ascii	"s27\000"
 1482 0837 03       		.byte	0x3
ARM GAS  /tmp/ccCdwTe8.s 			page 27


 1483 0838 0101     		.2byte	0x101
 1484 083a 11       		.byte	0x11
 1485 083b 62070000 		.4byte	0x762
 1486 083f 2C       		.byte	0x2c
 1487 0840 09       		.uleb128 0x9
 1488 0841 73323800 		.ascii	"s28\000"
 1489 0845 03       		.byte	0x3
 1490 0846 0201     		.2byte	0x102
 1491 0848 11       		.byte	0x11
 1492 0849 62070000 		.4byte	0x762
 1493 084d 30       		.byte	0x30
 1494 084e 09       		.uleb128 0x9
 1495 084f 73323900 		.ascii	"s29\000"
 1496 0853 03       		.byte	0x3
 1497 0854 0301     		.2byte	0x103
 1498 0856 11       		.byte	0x11
 1499 0857 62070000 		.4byte	0x762
 1500 085b 34       		.byte	0x34
 1501 085c 09       		.uleb128 0x9
 1502 085d 73333000 		.ascii	"s30\000"
 1503 0861 03       		.byte	0x3
 1504 0862 0401     		.2byte	0x104
 1505 0864 11       		.byte	0x11
 1506 0865 62070000 		.4byte	0x762
 1507 0869 38       		.byte	0x38
 1508 086a 09       		.uleb128 0x9
 1509 086b 73333100 		.ascii	"s31\000"
 1510 086f 03       		.byte	0x3
 1511 0870 0501     		.2byte	0x105
 1512 0872 11       		.byte	0x11
 1513 0873 62070000 		.4byte	0x762
 1514 0877 3C       		.byte	0x3c
 1515 0878 09       		.uleb128 0x9
 1516 0879 723400   		.ascii	"r4\000"
 1517 087c 03       		.byte	0x3
 1518 087d 0701     		.2byte	0x107
 1519 087f 11       		.byte	0x11
 1520 0880 62070000 		.4byte	0x762
 1521 0884 40       		.byte	0x40
 1522 0885 09       		.uleb128 0x9
 1523 0886 723500   		.ascii	"r5\000"
 1524 0889 03       		.byte	0x3
 1525 088a 0801     		.2byte	0x108
 1526 088c 11       		.byte	0x11
 1527 088d 62070000 		.4byte	0x762
 1528 0891 44       		.byte	0x44
 1529 0892 09       		.uleb128 0x9
 1530 0893 723600   		.ascii	"r6\000"
 1531 0896 03       		.byte	0x3
 1532 0897 0901     		.2byte	0x109
 1533 0899 11       		.byte	0x11
 1534 089a 62070000 		.4byte	0x762
 1535 089e 48       		.byte	0x48
 1536 089f 09       		.uleb128 0x9
 1537 08a0 723700   		.ascii	"r7\000"
 1538 08a3 03       		.byte	0x3
 1539 08a4 0A01     		.2byte	0x10a
ARM GAS  /tmp/ccCdwTe8.s 			page 28


 1540 08a6 11       		.byte	0x11
 1541 08a7 62070000 		.4byte	0x762
 1542 08ab 4C       		.byte	0x4c
 1543 08ac 09       		.uleb128 0x9
 1544 08ad 723800   		.ascii	"r8\000"
 1545 08b0 03       		.byte	0x3
 1546 08b1 0B01     		.2byte	0x10b
 1547 08b3 11       		.byte	0x11
 1548 08b4 62070000 		.4byte	0x762
 1549 08b8 50       		.byte	0x50
 1550 08b9 09       		.uleb128 0x9
 1551 08ba 723900   		.ascii	"r9\000"
 1552 08bd 03       		.byte	0x3
 1553 08be 0C01     		.2byte	0x10c
 1554 08c0 11       		.byte	0x11
 1555 08c1 62070000 		.4byte	0x762
 1556 08c5 54       		.byte	0x54
 1557 08c6 09       		.uleb128 0x9
 1558 08c7 72313000 		.ascii	"r10\000"
 1559 08cb 03       		.byte	0x3
 1560 08cc 0D01     		.2byte	0x10d
 1561 08ce 11       		.byte	0x11
 1562 08cf 62070000 		.4byte	0x762
 1563 08d3 58       		.byte	0x58
 1564 08d4 09       		.uleb128 0x9
 1565 08d5 72313100 		.ascii	"r11\000"
 1566 08d9 03       		.byte	0x3
 1567 08da 0E01     		.2byte	0x10e
 1568 08dc 11       		.byte	0x11
 1569 08dd 62070000 		.4byte	0x762
 1570 08e1 5C       		.byte	0x5c
 1571 08e2 09       		.uleb128 0x9
 1572 08e3 6C7200   		.ascii	"lr\000"
 1573 08e6 03       		.byte	0x3
 1574 08e7 0F01     		.2byte	0x10f
 1575 08e9 11       		.byte	0x11
 1576 08ea 62070000 		.4byte	0x762
 1577 08ee 60       		.byte	0x60
 1578 08ef 00       		.byte	0
 1579 08f0 0B       		.uleb128 0xb
 1580 08f1 04       		.byte	0x4
 1581 08f2 95070000 		.4byte	0x795
 1582 08f6 07       		.uleb128 0x7
 1583 08f7 62020000 		.4byte	.LASF115
 1584 08fb 68       		.byte	0x68
 1585 08fc 03       		.byte	0x3
 1586 08fd D5       		.byte	0xd5
 1587 08fe 08       		.byte	0x8
 1588 08ff 470A0000 		.4byte	0xa47
 1589 0903 19       		.uleb128 0x19
 1590 0904 723000   		.ascii	"r0\000"
 1591 0907 03       		.byte	0x3
 1592 0908 D6       		.byte	0xd6
 1593 0909 11       		.byte	0x11
 1594 090a 62070000 		.4byte	0x762
 1595 090e 00       		.byte	0
 1596 090f 19       		.uleb128 0x19
ARM GAS  /tmp/ccCdwTe8.s 			page 29


 1597 0910 723100   		.ascii	"r1\000"
 1598 0913 03       		.byte	0x3
 1599 0914 D7       		.byte	0xd7
 1600 0915 11       		.byte	0x11
 1601 0916 62070000 		.4byte	0x762
 1602 091a 04       		.byte	0x4
 1603 091b 19       		.uleb128 0x19
 1604 091c 723200   		.ascii	"r2\000"
 1605 091f 03       		.byte	0x3
 1606 0920 D8       		.byte	0xd8
 1607 0921 11       		.byte	0x11
 1608 0922 62070000 		.4byte	0x762
 1609 0926 08       		.byte	0x8
 1610 0927 19       		.uleb128 0x19
 1611 0928 723300   		.ascii	"r3\000"
 1612 092b 03       		.byte	0x3
 1613 092c D9       		.byte	0xd9
 1614 092d 11       		.byte	0x11
 1615 092e 62070000 		.4byte	0x762
 1616 0932 0C       		.byte	0xc
 1617 0933 19       		.uleb128 0x19
 1618 0934 72313200 		.ascii	"r12\000"
 1619 0938 03       		.byte	0x3
 1620 0939 DA       		.byte	0xda
 1621 093a 11       		.byte	0x11
 1622 093b 62070000 		.4byte	0x762
 1623 093f 10       		.byte	0x10
 1624 0940 08       		.uleb128 0x8
 1625 0941 80020000 		.4byte	.LASF116
 1626 0945 03       		.byte	0x3
 1627 0946 DB       		.byte	0xdb
 1628 0947 11       		.byte	0x11
 1629 0948 62070000 		.4byte	0x762
 1630 094c 14       		.byte	0x14
 1631 094d 19       		.uleb128 0x19
 1632 094e 706300   		.ascii	"pc\000"
 1633 0951 03       		.byte	0x3
 1634 0952 DC       		.byte	0xdc
 1635 0953 11       		.byte	0x11
 1636 0954 62070000 		.4byte	0x762
 1637 0958 18       		.byte	0x18
 1638 0959 08       		.uleb128 0x8
 1639 095a 3B030000 		.4byte	.LASF117
 1640 095e 03       		.byte	0x3
 1641 095f DD       		.byte	0xdd
 1642 0960 11       		.byte	0x11
 1643 0961 62070000 		.4byte	0x762
 1644 0965 1C       		.byte	0x1c
 1645 0966 19       		.uleb128 0x19
 1646 0967 733000   		.ascii	"s0\000"
 1647 096a 03       		.byte	0x3
 1648 096b DF       		.byte	0xdf
 1649 096c 11       		.byte	0x11
 1650 096d 62070000 		.4byte	0x762
 1651 0971 20       		.byte	0x20
 1652 0972 19       		.uleb128 0x19
 1653 0973 733100   		.ascii	"s1\000"
ARM GAS  /tmp/ccCdwTe8.s 			page 30


 1654 0976 03       		.byte	0x3
 1655 0977 E0       		.byte	0xe0
 1656 0978 11       		.byte	0x11
 1657 0979 62070000 		.4byte	0x762
 1658 097d 24       		.byte	0x24
 1659 097e 19       		.uleb128 0x19
 1660 097f 733200   		.ascii	"s2\000"
 1661 0982 03       		.byte	0x3
 1662 0983 E1       		.byte	0xe1
 1663 0984 11       		.byte	0x11
 1664 0985 62070000 		.4byte	0x762
 1665 0989 28       		.byte	0x28
 1666 098a 19       		.uleb128 0x19
 1667 098b 733300   		.ascii	"s3\000"
 1668 098e 03       		.byte	0x3
 1669 098f E2       		.byte	0xe2
 1670 0990 11       		.byte	0x11
 1671 0991 62070000 		.4byte	0x762
 1672 0995 2C       		.byte	0x2c
 1673 0996 19       		.uleb128 0x19
 1674 0997 733400   		.ascii	"s4\000"
 1675 099a 03       		.byte	0x3
 1676 099b E3       		.byte	0xe3
 1677 099c 11       		.byte	0x11
 1678 099d 62070000 		.4byte	0x762
 1679 09a1 30       		.byte	0x30
 1680 09a2 19       		.uleb128 0x19
 1681 09a3 733500   		.ascii	"s5\000"
 1682 09a6 03       		.byte	0x3
 1683 09a7 E4       		.byte	0xe4
 1684 09a8 11       		.byte	0x11
 1685 09a9 62070000 		.4byte	0x762
 1686 09ad 34       		.byte	0x34
 1687 09ae 19       		.uleb128 0x19
 1688 09af 733600   		.ascii	"s6\000"
 1689 09b2 03       		.byte	0x3
 1690 09b3 E5       		.byte	0xe5
 1691 09b4 11       		.byte	0x11
 1692 09b5 62070000 		.4byte	0x762
 1693 09b9 38       		.byte	0x38
 1694 09ba 19       		.uleb128 0x19
 1695 09bb 733700   		.ascii	"s7\000"
 1696 09be 03       		.byte	0x3
 1697 09bf E6       		.byte	0xe6
 1698 09c0 11       		.byte	0x11
 1699 09c1 62070000 		.4byte	0x762
 1700 09c5 3C       		.byte	0x3c
 1701 09c6 19       		.uleb128 0x19
 1702 09c7 733800   		.ascii	"s8\000"
 1703 09ca 03       		.byte	0x3
 1704 09cb E7       		.byte	0xe7
 1705 09cc 11       		.byte	0x11
 1706 09cd 62070000 		.4byte	0x762
 1707 09d1 40       		.byte	0x40
 1708 09d2 19       		.uleb128 0x19
 1709 09d3 733900   		.ascii	"s9\000"
 1710 09d6 03       		.byte	0x3
ARM GAS  /tmp/ccCdwTe8.s 			page 31


 1711 09d7 E8       		.byte	0xe8
 1712 09d8 11       		.byte	0x11
 1713 09d9 62070000 		.4byte	0x762
 1714 09dd 44       		.byte	0x44
 1715 09de 19       		.uleb128 0x19
 1716 09df 73313000 		.ascii	"s10\000"
 1717 09e3 03       		.byte	0x3
 1718 09e4 E9       		.byte	0xe9
 1719 09e5 11       		.byte	0x11
 1720 09e6 62070000 		.4byte	0x762
 1721 09ea 48       		.byte	0x48
 1722 09eb 19       		.uleb128 0x19
 1723 09ec 73313100 		.ascii	"s11\000"
 1724 09f0 03       		.byte	0x3
 1725 09f1 EA       		.byte	0xea
 1726 09f2 11       		.byte	0x11
 1727 09f3 62070000 		.4byte	0x762
 1728 09f7 4C       		.byte	0x4c
 1729 09f8 19       		.uleb128 0x19
 1730 09f9 73313200 		.ascii	"s12\000"
 1731 09fd 03       		.byte	0x3
 1732 09fe EB       		.byte	0xeb
 1733 09ff 11       		.byte	0x11
 1734 0a00 62070000 		.4byte	0x762
 1735 0a04 50       		.byte	0x50
 1736 0a05 19       		.uleb128 0x19
 1737 0a06 73313300 		.ascii	"s13\000"
 1738 0a0a 03       		.byte	0x3
 1739 0a0b EC       		.byte	0xec
 1740 0a0c 11       		.byte	0x11
 1741 0a0d 62070000 		.4byte	0x762
 1742 0a11 54       		.byte	0x54
 1743 0a12 19       		.uleb128 0x19
 1744 0a13 73313400 		.ascii	"s14\000"
 1745 0a17 03       		.byte	0x3
 1746 0a18 ED       		.byte	0xed
 1747 0a19 11       		.byte	0x11
 1748 0a1a 62070000 		.4byte	0x762
 1749 0a1e 58       		.byte	0x58
 1750 0a1f 19       		.uleb128 0x19
 1751 0a20 73313500 		.ascii	"s15\000"
 1752 0a24 03       		.byte	0x3
 1753 0a25 EE       		.byte	0xee
 1754 0a26 11       		.byte	0x11
 1755 0a27 62070000 		.4byte	0x762
 1756 0a2b 5C       		.byte	0x5c
 1757 0a2c 08       		.uleb128 0x8
 1758 0a2d AA060000 		.4byte	.LASF118
 1759 0a31 03       		.byte	0x3
 1760 0a32 EF       		.byte	0xef
 1761 0a33 11       		.byte	0x11
 1762 0a34 62070000 		.4byte	0x762
 1763 0a38 60       		.byte	0x60
 1764 0a39 08       		.uleb128 0x8
 1765 0a3a D7080000 		.4byte	.LASF119
 1766 0a3e 03       		.byte	0x3
 1767 0a3f F0       		.byte	0xf0
ARM GAS  /tmp/ccCdwTe8.s 			page 32


 1768 0a40 11       		.byte	0x11
 1769 0a41 62070000 		.4byte	0x762
 1770 0a45 64       		.byte	0x64
 1771 0a46 00       		.byte	0
 1772 0a47 1A       		.uleb128 0x1a
 1773 0a48 10       		.byte	0x10
 1774 0a49 0B       		.byte	0xb
 1775 0a4a 51       		.byte	0x51
 1776 0a4b 09       		.byte	0x9
 1777 0a4c 850A0000 		.4byte	0xa85
 1778 0a50 08       		.uleb128 0x8
 1779 0a51 3E090000 		.4byte	.LASF120
 1780 0a55 0B       		.byte	0xb
 1781 0a56 55       		.byte	0x55
 1782 0a57 19       		.byte	0x19
 1783 0a58 46010000 		.4byte	0x146
 1784 0a5c 00       		.byte	0
 1785 0a5d 08       		.uleb128 0x8
 1786 0a5e A7000000 		.4byte	.LASF121
 1787 0a62 0B       		.byte	0xb
 1788 0a63 59       		.byte	0x59
 1789 0a64 1A       		.byte	0x1a
 1790 0a65 A4020000 		.4byte	0x2a4
 1791 0a69 04       		.byte	0x4
 1792 0a6a 08       		.uleb128 0x8
 1793 0a6b 73040000 		.4byte	.LASF122
 1794 0a6f 0B       		.byte	0xb
 1795 0a70 5D       		.byte	0x5d
 1796 0a71 1A       		.byte	0x1a
 1797 0a72 91030000 		.4byte	0x391
 1798 0a76 08       		.byte	0x8
 1799 0a77 08       		.uleb128 0x8
 1800 0a78 AD020000 		.4byte	.LASF123
 1801 0a7c 0B       		.byte	0xb
 1802 0a7d 61       		.byte	0x61
 1803 0a7e 19       		.byte	0x19
 1804 0a7f 67000000 		.4byte	0x67
 1805 0a83 0C       		.byte	0xc
 1806 0a84 00       		.byte	0
 1807 0a85 04       		.uleb128 0x4
 1808 0a86 DB030000 		.4byte	.LASF124
 1809 0a8a 0B       		.byte	0xb
 1810 0a8b 62       		.byte	0x62
 1811 0a8c 03       		.byte	0x3
 1812 0a8d 470A0000 		.4byte	0xa47
 1813 0a91 1B       		.uleb128 0x1b
 1814 0a92 0804     		.2byte	0x408
 1815 0a94 0B       		.byte	0xb
 1816 0a95 67       		.byte	0x67
 1817 0a96 09       		.byte	0x9
 1818 0a97 C30A0000 		.4byte	0xac3
 1819 0a9b 08       		.uleb128 0x8
 1820 0a9c 54040000 		.4byte	.LASF125
 1821 0aa0 0B       		.byte	0xb
 1822 0aa1 6B       		.byte	0x6b
 1823 0aa2 19       		.byte	0x19
 1824 0aa3 2C000000 		.4byte	0x2c
ARM GAS  /tmp/ccCdwTe8.s 			page 33


 1825 0aa7 00       		.byte	0
 1826 0aa8 08       		.uleb128 0x8
 1827 0aa9 54090000 		.4byte	.LASF126
 1828 0aad 0B       		.byte	0xb
 1829 0aae 6F       		.byte	0x6f
 1830 0aaf 1A       		.byte	0x1a
 1831 0ab0 C30A0000 		.4byte	0xac3
 1832 0ab4 04       		.byte	0x4
 1833 0ab5 08       		.uleb128 0x8
 1834 0ab6 F7040000 		.4byte	.LASF127
 1835 0aba 0B       		.byte	0xb
 1836 0abb 73       		.byte	0x73
 1837 0abc 19       		.byte	0x19
 1838 0abd C90A0000 		.4byte	0xac9
 1839 0ac1 08       		.byte	0x8
 1840 0ac2 00       		.byte	0
 1841 0ac3 0B       		.uleb128 0xb
 1842 0ac4 04       		.byte	0x4
 1843 0ac5 850A0000 		.4byte	0xa85
 1844 0ac9 14       		.uleb128 0x14
 1845 0aca 850A0000 		.4byte	0xa85
 1846 0ace D90A0000 		.4byte	0xad9
 1847 0ad2 15       		.uleb128 0x15
 1848 0ad3 2C000000 		.4byte	0x2c
 1849 0ad7 3F       		.byte	0x3f
 1850 0ad8 00       		.byte	0
 1851 0ad9 04       		.uleb128 0x4
 1852 0ada BE020000 		.4byte	.LASF128
 1853 0ade 0B       		.byte	0xb
 1854 0adf 74       		.byte	0x74
 1855 0ae0 03       		.byte	0x3
 1856 0ae1 910A0000 		.4byte	0xa91
 1857 0ae5 1A       		.uleb128 0x1a
 1858 0ae6 04       		.byte	0x4
 1859 0ae7 0C       		.byte	0xc
 1860 0ae8 38       		.byte	0x38
 1861 0ae9 09       		.byte	0x9
 1862 0aea FC0A0000 		.4byte	0xafc
 1863 0aee 08       		.uleb128 0x8
 1864 0aef F0040000 		.4byte	.LASF129
 1865 0af3 0C       		.byte	0xc
 1866 0af4 3C       		.byte	0x3c
 1867 0af5 19       		.byte	0x19
 1868 0af6 C2000000 		.4byte	0xc2
 1869 0afa 00       		.byte	0
 1870 0afb 00       		.byte	0
 1871 0afc 04       		.uleb128 0x4
 1872 0afd 66060000 		.4byte	.LASF130
 1873 0b01 0C       		.byte	0xc
 1874 0b02 3D       		.byte	0x3d
 1875 0b03 03       		.byte	0x3
 1876 0b04 E50A0000 		.4byte	0xae5
 1877 0b08 1A       		.uleb128 0x1a
 1878 0b09 18       		.byte	0x18
 1879 0b0a 0C       		.byte	0xc
 1880 0b0b 48       		.byte	0x48
 1881 0b0c 09       		.byte	0x9
ARM GAS  /tmp/ccCdwTe8.s 			page 34


 1882 0b0d 510B0000 		.4byte	0xb51
 1883 0b11 08       		.uleb128 0x8
 1884 0b12 2E060000 		.4byte	.LASF131
 1885 0b16 0C       		.byte	0xc
 1886 0b17 49       		.byte	0x49
 1887 0b18 19       		.byte	0x19
 1888 0b19 C2000000 		.4byte	0xc2
 1889 0b1d 00       		.byte	0
 1890 0b1e 08       		.uleb128 0x8
 1891 0b1f 7A020000 		.4byte	.LASF132
 1892 0b23 0C       		.byte	0xc
 1893 0b24 4A       		.byte	0x4a
 1894 0b25 19       		.byte	0x19
 1895 0b26 C2000000 		.4byte	0xc2
 1896 0b2a 04       		.byte	0x4
 1897 0b2b 08       		.uleb128 0x8
 1898 0b2c 5B090000 		.4byte	.LASF133
 1899 0b30 0C       		.byte	0xc
 1900 0b31 4B       		.byte	0x4b
 1901 0b32 19       		.byte	0x19
 1902 0b33 C2000000 		.4byte	0xc2
 1903 0b37 08       		.byte	0x8
 1904 0b38 19       		.uleb128 0x19
 1905 0b39 6E00     		.ascii	"n\000"
 1906 0b3b 0C       		.byte	0xc
 1907 0b3c 4C       		.byte	0x4c
 1908 0b3d 19       		.byte	0x19
 1909 0b3e 3A010000 		.4byte	0x13a
 1910 0b42 0C       		.byte	0xc
 1911 0b43 08       		.uleb128 0x8
 1912 0b44 86010000 		.4byte	.LASF134
 1913 0b48 0C       		.byte	0xc
 1914 0b49 4D       		.byte	0x4d
 1915 0b4a 19       		.byte	0x19
 1916 0b4b CE000000 		.4byte	0xce
 1917 0b4f 10       		.byte	0x10
 1918 0b50 00       		.byte	0
 1919 0b51 04       		.uleb128 0x4
 1920 0b52 AD000000 		.4byte	.LASF135
 1921 0b56 0C       		.byte	0xc
 1922 0b57 4E       		.byte	0x4e
 1923 0b58 03       		.byte	0x3
 1924 0b59 080B0000 		.4byte	0xb08
 1925 0b5d 1A       		.uleb128 0x1a
 1926 0b5e 38       		.byte	0x38
 1927 0b5f 0D       		.byte	0xd
 1928 0b60 38       		.byte	0x38
 1929 0b61 09       		.byte	0x9
 1930 0b62 9B0B0000 		.4byte	0xb9b
 1931 0b66 08       		.uleb128 0x8
 1932 0b67 EA030000 		.4byte	.LASF136
 1933 0b6b 0D       		.byte	0xd
 1934 0b6c 39       		.byte	0x39
 1935 0b6d 19       		.byte	0x19
 1936 0b6e 3A010000 		.4byte	0x13a
 1937 0b72 00       		.byte	0
 1938 0b73 08       		.uleb128 0x8
ARM GAS  /tmp/ccCdwTe8.s 			page 35


 1939 0b74 3C020000 		.4byte	.LASF137
 1940 0b78 0D       		.byte	0xd
 1941 0b79 3A       		.byte	0x3a
 1942 0b7a 19       		.byte	0x19
 1943 0b7b 3A010000 		.4byte	0x13a
 1944 0b7f 04       		.byte	0x4
 1945 0b80 08       		.uleb128 0x8
 1946 0b81 40030000 		.4byte	.LASF138
 1947 0b85 0D       		.byte	0xd
 1948 0b86 3B       		.byte	0x3b
 1949 0b87 19       		.byte	0x19
 1950 0b88 510B0000 		.4byte	0xb51
 1951 0b8c 08       		.byte	0x8
 1952 0b8d 08       		.uleb128 0x8
 1953 0b8e 04030000 		.4byte	.LASF139
 1954 0b92 0D       		.byte	0xd
 1955 0b93 3D       		.byte	0x3d
 1956 0b94 19       		.byte	0x19
 1957 0b95 510B0000 		.4byte	0xb51
 1958 0b99 20       		.byte	0x20
 1959 0b9a 00       		.byte	0
 1960 0b9b 04       		.uleb128 0x4
 1961 0b9c CE040000 		.4byte	.LASF140
 1962 0ba0 0D       		.byte	0xd
 1963 0ba1 3F       		.byte	0x3f
 1964 0ba2 03       		.byte	0x3
 1965 0ba3 5D0B0000 		.4byte	0xb5d
 1966 0ba7 1C       		.uleb128 0x1c
 1967 0ba8 04       		.byte	0x4
 1968 0ba9 07       		.byte	0x7
 1969 0baa FA       		.byte	0xfa
 1970 0bab 03       		.byte	0x3
 1971 0bac 0C0C0000 		.4byte	0xc0c
 1972 0bb0 1D       		.uleb128 0x1d
 1973 0bb1 E0080000 		.4byte	.LASF141
 1974 0bb5 07       		.byte	0x7
 1975 0bb6 0101     		.2byte	0x101
 1976 0bb8 19       		.byte	0x19
 1977 0bb9 16010000 		.4byte	0x116
 1978 0bbd 1D       		.uleb128 0x1d
 1979 0bbe CF000000 		.4byte	.LASF142
 1980 0bc2 07       		.byte	0x7
 1981 0bc3 0801     		.2byte	0x108
 1982 0bc5 19       		.byte	0x19
 1983 0bc6 16010000 		.4byte	0x116
 1984 0bca 1D       		.uleb128 0x1d
 1985 0bcb 35020000 		.4byte	.LASF143
 1986 0bcf 07       		.byte	0x7
 1987 0bd0 0F01     		.2byte	0x10f
 1988 0bd2 1A       		.byte	0x1a
 1989 0bd3 91030000 		.4byte	0x391
 1990 0bd7 1D       		.uleb128 0x1d
 1991 0bd8 C3010000 		.4byte	.LASF144
 1992 0bdc 07       		.byte	0x7
 1993 0bdd 1601     		.2byte	0x116
 1994 0bdf 1A       		.byte	0x1a
 1995 0be0 0C0C0000 		.4byte	0xc0c
ARM GAS  /tmp/ccCdwTe8.s 			page 36


 1996 0be4 1D       		.uleb128 0x1d
 1997 0be5 08000000 		.4byte	.LASF145
 1998 0be9 07       		.byte	0x7
 1999 0bea 1E01     		.2byte	0x11e
 2000 0bec 1A       		.byte	0x1a
 2001 0bed 3A0C0000 		.4byte	0xc3a
 2002 0bf1 1D       		.uleb128 0x1d
 2003 0bf2 DB020000 		.4byte	.LASF146
 2004 0bf6 07       		.byte	0x7
 2005 0bf7 2701     		.2byte	0x127
 2006 0bf9 1A       		.byte	0x1a
 2007 0bfa 820C0000 		.4byte	0xc82
 2008 0bfe 1D       		.uleb128 0x1d
 2009 0bff E2000000 		.4byte	.LASF147
 2010 0c03 07       		.byte	0x7
 2011 0c04 2F01     		.2byte	0x12f
 2012 0c06 19       		.byte	0x19
 2013 0c07 22010000 		.4byte	0x122
 2014 0c0b 00       		.byte	0
 2015 0c0c 0B       		.uleb128 0xb
 2016 0c0d 04       		.byte	0x4
 2017 0c0e 98020000 		.4byte	0x298
 2018 0c12 07       		.uleb128 0x7
 2019 0c13 75030000 		.4byte	.LASF148
 2020 0c17 0C       		.byte	0xc
 2021 0c18 0E       		.byte	0xe
 2022 0c19 34       		.byte	0x34
 2023 0c1a 10       		.byte	0x10
 2024 0c1b 3A0C0000 		.4byte	0xc3a
 2025 0c1f 08       		.uleb128 0x8
 2026 0c20 7E060000 		.4byte	.LASF149
 2027 0c24 0E       		.byte	0xe
 2028 0c25 35       		.byte	0x35
 2029 0c26 19       		.byte	0x19
 2030 0c27 D1020000 		.4byte	0x2d1
 2031 0c2b 00       		.byte	0
 2032 0c2c 08       		.uleb128 0x8
 2033 0c2d A2050000 		.4byte	.LASF150
 2034 0c31 0E       		.byte	0xe
 2035 0c32 37       		.byte	0x37
 2036 0c33 19       		.byte	0x19
 2037 0c34 2E010000 		.4byte	0x12e
 2038 0c38 08       		.byte	0x8
 2039 0c39 00       		.byte	0
 2040 0c3a 0B       		.uleb128 0xb
 2041 0c3b 04       		.byte	0x4
 2042 0c3c 120C0000 		.4byte	0xc12
 2043 0c40 07       		.uleb128 0x7
 2044 0c41 B0060000 		.4byte	.LASF151
 2045 0c45 14       		.byte	0x14
 2046 0c46 0F       		.byte	0xf
 2047 0c47 39       		.byte	0x39
 2048 0c48 08       		.byte	0x8
 2049 0c49 820C0000 		.4byte	0xc82
 2050 0c4d 08       		.uleb128 0x8
 2051 0c4e 29040000 		.4byte	.LASF152
 2052 0c52 0F       		.byte	0xf
ARM GAS  /tmp/ccCdwTe8.s 			page 37


 2053 0c53 3A       		.byte	0x3a
 2054 0c54 19       		.byte	0x19
 2055 0c55 D1020000 		.4byte	0x2d1
 2056 0c59 00       		.byte	0
 2057 0c5a 08       		.uleb128 0x8
 2058 0c5b C0000000 		.4byte	.LASF153
 2059 0c5f 0F       		.byte	0xf
 2060 0c60 3C       		.byte	0x3c
 2061 0c61 1A       		.byte	0x1a
 2062 0c62 A4020000 		.4byte	0x2a4
 2063 0c66 08       		.byte	0x8
 2064 0c67 08       		.uleb128 0x8
 2065 0c68 4D090000 		.4byte	.LASF154
 2066 0c6c 0F       		.byte	0xf
 2067 0c6d 3E       		.byte	0x3e
 2068 0c6e 1A       		.byte	0x1a
 2069 0c6f F40D0000 		.4byte	0xdf4
 2070 0c73 0C       		.byte	0xc
 2071 0c74 08       		.uleb128 0x8
 2072 0c75 2F020000 		.4byte	.LASF155
 2073 0c79 0F       		.byte	0xf
 2074 0c7a 41       		.byte	0x41
 2075 0c7b 19       		.byte	0x19
 2076 0c7c 2E010000 		.4byte	0x12e
 2077 0c80 10       		.byte	0x10
 2078 0c81 00       		.byte	0
 2079 0c82 0B       		.uleb128 0xb
 2080 0c83 04       		.byte	0x4
 2081 0c84 400C0000 		.4byte	0xc40
 2082 0c88 0B       		.uleb128 0xb
 2083 0c89 04       		.byte	0x4
 2084 0c8a 9A0C0000 		.4byte	0xc9a
 2085 0c8e 05       		.uleb128 0x5
 2086 0c8f 880C0000 		.4byte	0xc88
 2087 0c93 03       		.uleb128 0x3
 2088 0c94 01       		.byte	0x1
 2089 0c95 08       		.byte	0x8
 2090 0c96 15020000 		.4byte	.LASF156
 2091 0c9a 06       		.uleb128 0x6
 2092 0c9b 930C0000 		.4byte	0xc93
 2093 0c9f 0B       		.uleb128 0xb
 2094 0ca0 04       		.byte	0x4
 2095 0ca1 6E070000 		.4byte	0x76e
 2096 0ca5 0B       		.uleb128 0xb
 2097 0ca6 04       		.byte	0x4
 2098 0ca7 93030000 		.4byte	0x393
 2099 0cab 14       		.uleb128 0x14
 2100 0cac 6E070000 		.4byte	0x76e
 2101 0cb0 BB0C0000 		.4byte	0xcbb
 2102 0cb4 15       		.uleb128 0x15
 2103 0cb5 2C000000 		.4byte	0x2c
 2104 0cb9 30       		.byte	0x30
 2105 0cba 00       		.byte	0
 2106 0cbb 1E       		.uleb128 0x1e
 2107 0cbc 636800   		.ascii	"ch\000"
 2108 0cbf 07       		.byte	0x7
 2109 0cc0 0902     		.2byte	0x209
ARM GAS  /tmp/ccCdwTe8.s 			page 38


 2110 0cc2 14       		.byte	0x14
 2111 0cc3 9B040000 		.4byte	0x49b
 2112 0cc7 1A       		.uleb128 0x1a
 2113 0cc8 16       		.byte	0x16
 2114 0cc9 10       		.byte	0x10
 2115 0cca 34       		.byte	0x34
 2116 0ccb 09       		.byte	0x9
 2117 0ccc BB0D0000 		.4byte	0xdbb
 2118 0cd0 08       		.uleb128 0x8
 2119 0cd1 25000000 		.4byte	.LASF157
 2120 0cd5 10       		.byte	0x10
 2121 0cd6 35       		.byte	0x35
 2122 0cd7 0D       		.byte	0xd
 2123 0cd8 BB0D0000 		.4byte	0xdbb
 2124 0cdc 00       		.byte	0
 2125 0cdd 08       		.uleb128 0x8
 2126 0cde 5D030000 		.4byte	.LASF158
 2127 0ce2 10       		.byte	0x10
 2128 0ce3 36       		.byte	0x36
 2129 0ce4 0D       		.byte	0xd
 2130 0ce5 67000000 		.4byte	0x67
 2131 0ce9 04       		.byte	0x4
 2132 0cea 08       		.uleb128 0x8
 2133 0ceb 16090000 		.4byte	.LASF159
 2134 0cef 10       		.byte	0x10
 2135 0cf0 37       		.byte	0x37
 2136 0cf1 0D       		.byte	0xd
 2137 0cf2 67000000 		.4byte	0x67
 2138 0cf6 05       		.byte	0x5
 2139 0cf7 08       		.uleb128 0x8
 2140 0cf8 1E040000 		.4byte	.LASF160
 2141 0cfc 10       		.byte	0x10
 2142 0cfd 38       		.byte	0x38
 2143 0cfe 0D       		.byte	0xd
 2144 0cff 7F000000 		.4byte	0x7f
 2145 0d03 06       		.byte	0x6
 2146 0d04 08       		.uleb128 0x8
 2147 0d05 9C000000 		.4byte	.LASF161
 2148 0d09 10       		.byte	0x10
 2149 0d0a 39       		.byte	0x39
 2150 0d0b 0D       		.byte	0xd
 2151 0d0c 67000000 		.4byte	0x67
 2152 0d10 08       		.byte	0x8
 2153 0d11 08       		.uleb128 0x8
 2154 0d12 C2040000 		.4byte	.LASF162
 2155 0d16 10       		.byte	0x10
 2156 0d17 3A       		.byte	0x3a
 2157 0d18 0D       		.byte	0xd
 2158 0d19 67000000 		.4byte	0x67
 2159 0d1d 09       		.byte	0x9
 2160 0d1e 08       		.uleb128 0x8
 2161 0d1f E9000000 		.4byte	.LASF163
 2162 0d23 10       		.byte	0x10
 2163 0d24 3B       		.byte	0x3b
 2164 0d25 0D       		.byte	0xd
 2165 0d26 67000000 		.4byte	0x67
 2166 0d2a 0A       		.byte	0xa
ARM GAS  /tmp/ccCdwTe8.s 			page 39


 2167 0d2b 08       		.uleb128 0x8
 2168 0d2c 6E020000 		.4byte	.LASF164
 2169 0d30 10       		.byte	0x10
 2170 0d31 3C       		.byte	0x3c
 2171 0d32 0D       		.byte	0xd
 2172 0d33 67000000 		.4byte	0x67
 2173 0d37 0B       		.byte	0xb
 2174 0d38 08       		.uleb128 0x8
 2175 0d39 63000000 		.4byte	.LASF165
 2176 0d3d 10       		.byte	0x10
 2177 0d3e 3D       		.byte	0x3d
 2178 0d3f 0D       		.byte	0xd
 2179 0d40 67000000 		.4byte	0x67
 2180 0d44 0C       		.byte	0xc
 2181 0d45 08       		.uleb128 0x8
 2182 0d46 4A020000 		.4byte	.LASF166
 2183 0d4a 10       		.byte	0x10
 2184 0d4b 3E       		.byte	0x3e
 2185 0d4c 0D       		.byte	0xd
 2186 0d4d 67000000 		.4byte	0x67
 2187 0d51 0D       		.byte	0xd
 2188 0d52 08       		.uleb128 0x8
 2189 0d53 D5060000 		.4byte	.LASF167
 2190 0d57 10       		.byte	0x10
 2191 0d58 3F       		.byte	0x3f
 2192 0d59 0D       		.byte	0xd
 2193 0d5a 67000000 		.4byte	0x67
 2194 0d5e 0E       		.byte	0xe
 2195 0d5f 08       		.uleb128 0x8
 2196 0d60 0F000000 		.4byte	.LASF168
 2197 0d64 10       		.byte	0x10
 2198 0d65 40       		.byte	0x40
 2199 0d66 0D       		.byte	0xd
 2200 0d67 67000000 		.4byte	0x67
 2201 0d6b 0F       		.byte	0xf
 2202 0d6c 08       		.uleb128 0x8
 2203 0d6d FF060000 		.4byte	.LASF169
 2204 0d71 10       		.byte	0x10
 2205 0d72 41       		.byte	0x41
 2206 0d73 0D       		.byte	0xd
 2207 0d74 67000000 		.4byte	0x67
 2208 0d78 10       		.byte	0x10
 2209 0d79 08       		.uleb128 0x8
 2210 0d7a 28010000 		.4byte	.LASF170
 2211 0d7e 10       		.byte	0x10
 2212 0d7f 43       		.byte	0x43
 2213 0d80 0D       		.byte	0xd
 2214 0d81 67000000 		.4byte	0x67
 2215 0d85 11       		.byte	0x11
 2216 0d86 08       		.uleb128 0x8
 2217 0d87 F4050000 		.4byte	.LASF171
 2218 0d8b 10       		.byte	0x10
 2219 0d8c 44       		.byte	0x44
 2220 0d8d 0D       		.byte	0xd
 2221 0d8e 67000000 		.4byte	0x67
 2222 0d92 12       		.byte	0x12
 2223 0d93 08       		.uleb128 0x8
ARM GAS  /tmp/ccCdwTe8.s 			page 40


 2224 0d94 08050000 		.4byte	.LASF172
 2225 0d98 10       		.byte	0x10
 2226 0d99 45       		.byte	0x45
 2227 0d9a 0D       		.byte	0xd
 2228 0d9b 67000000 		.4byte	0x67
 2229 0d9f 13       		.byte	0x13
 2230 0da0 08       		.uleb128 0x8
 2231 0da1 F0030000 		.4byte	.LASF173
 2232 0da5 10       		.byte	0x10
 2233 0da6 46       		.byte	0x46
 2234 0da7 0D       		.byte	0xd
 2235 0da8 67000000 		.4byte	0x67
 2236 0dac 14       		.byte	0x14
 2237 0dad 08       		.uleb128 0x8
 2238 0dae 62050000 		.4byte	.LASF174
 2239 0db2 10       		.byte	0x10
 2240 0db3 48       		.byte	0x48
 2241 0db4 0D       		.byte	0xd
 2242 0db5 67000000 		.4byte	0x67
 2243 0db9 15       		.byte	0x15
 2244 0dba 00       		.byte	0
 2245 0dbb 14       		.uleb128 0x14
 2246 0dbc 930C0000 		.4byte	0xc93
 2247 0dc0 CB0D0000 		.4byte	0xdcb
 2248 0dc4 15       		.uleb128 0x15
 2249 0dc5 2C000000 		.4byte	0x2c
 2250 0dc9 03       		.byte	0x3
 2251 0dca 00       		.byte	0
 2252 0dcb 04       		.uleb128 0x4
 2253 0dcc 0C090000 		.4byte	.LASF175
 2254 0dd0 10       		.byte	0x10
 2255 0dd1 49       		.byte	0x49
 2256 0dd2 03       		.byte	0x3
 2257 0dd3 C70C0000 		.4byte	0xcc7
 2258 0dd7 06       		.uleb128 0x6
 2259 0dd8 CB0D0000 		.4byte	0xdcb
 2260 0ddc 18       		.uleb128 0x18
 2261 0ddd 41000000 		.4byte	.LASF176
 2262 0de1 10       		.byte	0x10
 2263 0de2 6E       		.byte	0x6e
 2264 0de3 1D       		.byte	0x1d
 2265 0de4 D70D0000 		.4byte	0xdd7
 2266 0de8 04       		.uleb128 0x4
 2267 0de9 EF060000 		.4byte	.LASF177
 2268 0ded 0F       		.byte	0xf
 2269 0dee 34       		.byte	0x34
 2270 0def 19       		.byte	0x19
 2271 0df0 400C0000 		.4byte	0xc40
 2272 0df4 0B       		.uleb128 0xb
 2273 0df5 04       		.byte	0x4
 2274 0df6 E80D0000 		.4byte	0xde8
 2275 0dfa 1F       		.uleb128 0x1f
 2276 0dfb DD040000 		.4byte	.LASF179
 2277 0dff 01       		.byte	0x1
 2278 0e00 7A       		.byte	0x7a
 2279 0e01 06       		.byte	0x6
 2280 0e02 00000000 		.4byte	.LFB220
ARM GAS  /tmp/ccCdwTe8.s 			page 41


 2281 0e06 84000000 		.4byte	.LFE220-.LFB220
 2282 0e0a 01       		.uleb128 0x1
 2283 0e0b 9C       		.byte	0x9c
 2284 0e0c 480F0000 		.4byte	0xf48
 2285 0e10 20       		.uleb128 0x20
 2286 0e11 34000000 		.4byte	.LBB79
 2287 0e15 36000000 		.4byte	.LBE79-.LBB79
 2288 0e19 A40E0000 		.4byte	0xea4
 2289 0e1d 21       		.uleb128 0x21
 2290 0e1e A2030000 		.4byte	.LASF178
 2291 0e22 01       		.byte	0x1
 2292 0e23 7E       		.byte	0x7e
 2293 0e24 19       		.byte	0x19
 2294 0e25 480F0000 		.4byte	0xf48
 2295 0e29 08000000 		.4byte	.LLST6
 2296 0e2d 00000000 		.4byte	.LVUS6
 2297 0e31 22       		.uleb128 0x22
 2298 0e32 41100000 		.4byte	0x1041
 2299 0e36 34000000 		.4byte	.LBI80
 2300 0e3a 02       		.byte	.LVU54
 2301 0e3b 34000000 		.4byte	.LBB80
 2302 0e3f 04000000 		.4byte	.LBE80-.LBB80
 2303 0e43 01       		.byte	0x1
 2304 0e44 82       		.byte	0x82
 2305 0e45 0E       		.byte	0xe
 2306 0e46 500E0000 		.4byte	0xe50
 2307 0e4a 23       		.uleb128 0x23
 2308 0e4b 53100000 		.4byte	0x1053
 2309 0e4f 00       		.byte	0
 2310 0e50 22       		.uleb128 0x22
 2311 0e51 99100000 		.4byte	0x1099
 2312 0e55 38000000 		.4byte	.LBI82
 2313 0e59 04       		.byte	.LVU62
 2314 0e5a 38000000 		.4byte	.LBB82
 2315 0e5e 04000000 		.4byte	.LBE82-.LBB82
 2316 0e62 01       		.byte	0x1
 2317 0e63 86       		.byte	0x86
 2318 0e64 22       		.byte	0x22
 2319 0e65 770E0000 		.4byte	0xe77
 2320 0e69 24       		.uleb128 0x24
 2321 0e6a AB100000 		.4byte	0x10ab
 2322 0e6e 44000000 		.4byte	.LLST7
 2323 0e72 42000000 		.4byte	.LVUS7
 2324 0e76 00       		.byte	0
 2325 0e77 25       		.uleb128 0x25
 2326 0e78 7D100000 		.4byte	0x107d
 2327 0e7c 4C000000 		.4byte	.LBI84
 2328 0e80 01       		.byte	.LVU76
 2329 0e81 88000000 		.4byte	.Ldebug_ranges0+0x88
 2330 0e85 01       		.byte	0x1
 2331 0e86 93       		.byte	0x93
 2332 0e87 05       		.byte	0x5
 2333 0e88 9A0E0000 		.4byte	0xe9a
 2334 0e8c 26       		.uleb128 0x26
 2335 0e8d 8B100000 		.4byte	0x108b
 2336 0e91 5B000000 		.4byte	.LLST8
 2337 0e95 57000000 		.4byte	.LVUS8
ARM GAS  /tmp/ccCdwTe8.s 			page 42


 2338 0e99 00       		.byte	0
 2339 0e9a 27       		.uleb128 0x27
 2340 0e9b 58000000 		.4byte	.LVL15
 2341 0e9f B9100000 		.4byte	0x10b9
 2342 0ea3 00       		.byte	0
 2343 0ea4 25       		.uleb128 0x25
 2344 0ea5 23100000 		.4byte	0x1023
 2345 0ea9 10000000 		.4byte	.LBI64
 2346 0ead 01       		.byte	.LVU33
 2347 0eae 38000000 		.4byte	.Ldebug_ranges0+0x38
 2348 0eb2 01       		.byte	0x1
 2349 0eb3 7C       		.byte	0x7c
 2350 0eb4 03       		.byte	0x3
 2351 0eb5 F10E0000 		.4byte	0xef1
 2352 0eb9 28       		.uleb128 0x28
 2353 0eba 37100000 		.4byte	0x1037
 2354 0ebe 10000000 		.4byte	.LBI65
 2355 0ec2 03       		.byte	.LVU35
 2356 0ec3 40000000 		.4byte	.Ldebug_ranges0+0x40
 2357 0ec7 03       		.byte	0x3
 2358 0ec8 DB01     		.2byte	0x1db
 2359 0eca 03       		.byte	0x3
 2360 0ecb 29       		.uleb128 0x29
 2361 0ecc 61100000 		.4byte	0x1061
 2362 0ed0 10000000 		.4byte	.LBI66
 2363 0ed4 05       		.byte	.LVU37
 2364 0ed5 10000000 		.4byte	.LBB66
 2365 0ed9 06000000 		.4byte	.LBE66-.LBB66
 2366 0edd 03       		.byte	0x3
 2367 0ede BF01     		.2byte	0x1bf
 2368 0ee0 03       		.byte	0x3
 2369 0ee1 26       		.uleb128 0x26
 2370 0ee2 6F100000 		.4byte	0x106f
 2371 0ee6 7E000000 		.4byte	.LLST4
 2372 0eea 7C000000 		.4byte	.LVUS4
 2373 0eee 00       		.byte	0
 2374 0eef 00       		.byte	0
 2375 0ef0 00       		.byte	0
 2376 0ef1 25       		.uleb128 0x25
 2377 0ef2 19100000 		.4byte	0x1019
 2378 0ef6 20000000 		.4byte	.LBI71
 2379 0efa 01       		.byte	.LVU44
 2380 0efb 58000000 		.4byte	.Ldebug_ranges0+0x58
 2381 0eff 01       		.byte	0x1
 2382 0f00 A5       		.byte	0xa5
 2383 0f01 03       		.byte	0x3
 2384 0f02 3E0F0000 		.4byte	0xf3e
 2385 0f06 28       		.uleb128 0x28
 2386 0f07 2D100000 		.4byte	0x102d
 2387 0f0b 20000000 		.4byte	.LBI73
 2388 0f0f 03       		.byte	.LVU46
 2389 0f10 70000000 		.4byte	.Ldebug_ranges0+0x70
 2390 0f14 03       		.byte	0x3
 2391 0f15 E601     		.2byte	0x1e6
 2392 0f17 03       		.byte	0x3
 2393 0f18 29       		.uleb128 0x29
 2394 0f19 61100000 		.4byte	0x1061
ARM GAS  /tmp/ccCdwTe8.s 			page 43


 2395 0f1d 20000000 		.4byte	.LBI74
 2396 0f21 05       		.byte	.LVU48
 2397 0f22 20000000 		.4byte	.LBB74
 2398 0f26 04000000 		.4byte	.LBE74-.LBB74
 2399 0f2a 03       		.byte	0x3
 2400 0f2b CD01     		.2byte	0x1cd
 2401 0f2d 03       		.byte	0x3
 2402 0f2e 26       		.uleb128 0x26
 2403 0f2f 6F100000 		.4byte	0x106f
 2404 0f33 95000000 		.4byte	.LLST5
 2405 0f37 93000000 		.4byte	.LVUS5
 2406 0f3b 00       		.byte	0
 2407 0f3c 00       		.byte	0
 2408 0f3d 00       		.byte	0
 2409 0f3e 27       		.uleb128 0x27
 2410 0f3f 6E000000 		.4byte	.LVL17
 2411 0f43 C6100000 		.4byte	0x10c6
 2412 0f47 00       		.byte	0
 2413 0f48 0B       		.uleb128 0xb
 2414 0f49 04       		.byte	0x4
 2415 0f4a F6080000 		.4byte	0x8f6
 2416 0f4e 1F       		.uleb128 0x1f
 2417 0f4f 29090000 		.4byte	.LASF180
 2418 0f53 01       		.byte	0x1
 2419 0f54 3E       		.byte	0x3e
 2420 0f55 06       		.byte	0x6
 2421 0f56 00000000 		.4byte	.LFB219
 2422 0f5a 48000000 		.4byte	.LFE219-.LFB219
 2423 0f5e 01       		.uleb128 0x1
 2424 0f5f 9C       		.byte	0x9c
 2425 0f60 19100000 		.4byte	0x1019
 2426 0f64 21       		.uleb128 0x21
 2427 0f65 A2030000 		.4byte	.LASF178
 2428 0f69 01       		.byte	0x1
 2429 0f6a 40       		.byte	0x40
 2430 0f6b 17       		.byte	0x17
 2431 0f6c 480F0000 		.4byte	0xf48
 2432 0f70 AF000000 		.4byte	.LLST0
 2433 0f74 A9000000 		.4byte	.LVUS0
 2434 0f78 22       		.uleb128 0x22
 2435 0f79 99100000 		.4byte	0x1099
 2436 0f7d 1A000000 		.4byte	.LBI51
 2437 0f81 01       		.byte	.LVU8
 2438 0f82 1A000000 		.4byte	.LBB51
 2439 0f86 04000000 		.4byte	.LBE51-.LBB51
 2440 0f8a 01       		.byte	0x1
 2441 0f8b 48       		.byte	0x48
 2442 0f8c 20       		.byte	0x20
 2443 0f8d 9F0F0000 		.4byte	0xf9f
 2444 0f91 24       		.uleb128 0x24
 2445 0f92 AB100000 		.4byte	0x10ab
 2446 0f96 DD000000 		.4byte	.LLST1
 2447 0f9a DB000000 		.4byte	.LVUS1
 2448 0f9e 00       		.byte	0
 2449 0f9f 25       		.uleb128 0x25
 2450 0fa0 7D100000 		.4byte	0x107d
 2451 0fa4 1E000000 		.4byte	.LBI53
ARM GAS  /tmp/ccCdwTe8.s 			page 44


 2452 0fa8 04       		.byte	.LVU15
 2453 0fa9 00000000 		.4byte	.Ldebug_ranges0+0
 2454 0fad 01       		.byte	0x1
 2455 0fae 4F       		.byte	0x4f
 2456 0faf 03       		.byte	0x3
 2457 0fb0 C20F0000 		.4byte	0xfc2
 2458 0fb4 26       		.uleb128 0x26
 2459 0fb5 8B100000 		.4byte	0x108b
 2460 0fb9 F4000000 		.4byte	.LLST2
 2461 0fbd F0000000 		.4byte	.LVUS2
 2462 0fc1 00       		.byte	0
 2463 0fc2 25       		.uleb128 0x25
 2464 0fc3 19100000 		.4byte	0x1019
 2465 0fc7 24000000 		.4byte	.LBI57
 2466 0fcb 02       		.byte	.LVU21
 2467 0fcc 18000000 		.4byte	.Ldebug_ranges0+0x18
 2468 0fd0 01       		.byte	0x1
 2469 0fd1 52       		.byte	0x52
 2470 0fd2 03       		.byte	0x3
 2471 0fd3 0F100000 		.4byte	0x100f
 2472 0fd7 28       		.uleb128 0x28
 2473 0fd8 2D100000 		.4byte	0x102d
 2474 0fdc 24000000 		.4byte	.LBI58
 2475 0fe0 04       		.byte	.LVU23
 2476 0fe1 20000000 		.4byte	.Ldebug_ranges0+0x20
 2477 0fe5 03       		.byte	0x3
 2478 0fe6 E601     		.2byte	0x1e6
 2479 0fe8 03       		.byte	0x3
 2480 0fe9 29       		.uleb128 0x29
 2481 0fea 61100000 		.4byte	0x1061
 2482 0fee 24000000 		.4byte	.LBI59
 2483 0ff2 06       		.byte	.LVU25
 2484 0ff3 24000000 		.4byte	.LBB59
 2485 0ff7 06000000 		.4byte	.LBE59-.LBB59
 2486 0ffb 03       		.byte	0x3
 2487 0ffc CD01     		.2byte	0x1cd
 2488 0ffe 03       		.byte	0x3
 2489 0fff 26       		.uleb128 0x26
 2490 1000 6F100000 		.4byte	0x106f
 2491 1004 17010000 		.4byte	.LLST3
 2492 1008 15010000 		.4byte	.LVUS3
 2493 100c 00       		.byte	0
 2494 100d 00       		.byte	0
 2495 100e 00       		.byte	0
 2496 100f 27       		.uleb128 0x27
 2497 1010 3E000000 		.4byte	.LVL5
 2498 1014 C6100000 		.4byte	0x10c6
 2499 1018 00       		.byte	0
 2500 1019 2A       		.uleb128 0x2a
 2501 101a 6E050000 		.4byte	.LASF181
 2502 101e 03       		.byte	0x3
 2503 101f E401     		.2byte	0x1e4
 2504 1021 14       		.byte	0x14
 2505 1022 03       		.byte	0x3
 2506 1023 2A       		.uleb128 0x2a
 2507 1024 31040000 		.4byte	.LASF182
 2508 1028 03       		.byte	0x3
ARM GAS  /tmp/ccCdwTe8.s 			page 45


 2509 1029 D901     		.2byte	0x1d9
 2510 102b 14       		.byte	0x14
 2511 102c 03       		.byte	0x3
 2512 102d 2A       		.uleb128 0x2a
 2513 102e 1C010000 		.4byte	.LASF183
 2514 1032 03       		.byte	0x3
 2515 1033 CA01     		.2byte	0x1ca
 2516 1035 14       		.byte	0x14
 2517 1036 03       		.byte	0x3
 2518 1037 2A       		.uleb128 0x2a
 2519 1038 85040000 		.4byte	.LASF184
 2520 103c 03       		.byte	0x3
 2521 103d BC01     		.2byte	0x1bc
 2522 103f 14       		.byte	0x14
 2523 1040 03       		.byte	0x3
 2524 1041 2B       		.uleb128 0x2b
 2525 1042 E2020000 		.4byte	.LASF189
 2526 1046 02       		.byte	0x2
 2527 1047 4B02     		.2byte	0x24b
 2528 1049 3D       		.byte	0x3d
 2529 104a 92000000 		.4byte	0x92
 2530 104e 03       		.byte	0x3
 2531 104f 61100000 		.4byte	0x1061
 2532 1053 2C       		.uleb128 0x2c
 2533 1054 F7000000 		.4byte	.LASF191
 2534 1058 02       		.byte	0x2
 2535 1059 4E02     		.2byte	0x24e
 2536 105b 0C       		.byte	0xc
 2537 105c 92000000 		.4byte	0x92
 2538 1060 00       		.byte	0
 2539 1061 2D       		.uleb128 0x2d
 2540 1062 20060000 		.4byte	.LASF185
 2541 1066 02       		.byte	0x2
 2542 1067 2002     		.2byte	0x220
 2543 1069 39       		.byte	0x39
 2544 106a 03       		.byte	0x3
 2545 106b 7D100000 		.4byte	0x107d
 2546 106f 2E       		.uleb128 0x2e
 2547 1070 0F020000 		.4byte	.LASF187
 2548 1074 02       		.byte	0x2
 2549 1075 2002     		.2byte	0x220
 2550 1077 50       		.byte	0x50
 2551 1078 92000000 		.4byte	0x92
 2552 107c 00       		.byte	0
 2553 107d 2D       		.uleb128 0x2d
 2554 107e D8000000 		.4byte	.LASF186
 2555 1082 02       		.byte	0x2
 2556 1083 B701     		.2byte	0x1b7
 2557 1085 39       		.byte	0x39
 2558 1086 03       		.byte	0x3
 2559 1087 99100000 		.4byte	0x1099
 2560 108b 2E       		.uleb128 0x2e
 2561 108c 14050000 		.4byte	.LASF188
 2562 1090 02       		.byte	0x2
 2563 1091 B701     		.2byte	0x1b7
 2564 1093 4C       		.byte	0x4c
 2565 1094 92000000 		.4byte	0x92
ARM GAS  /tmp/ccCdwTe8.s 			page 46


 2566 1098 00       		.byte	0
 2567 1099 2B       		.uleb128 0x2b
 2568 109a 7C010000 		.4byte	.LASF190
 2569 109e 02       		.byte	0x2
 2570 109f A801     		.2byte	0x1a8
 2571 10a1 3D       		.byte	0x3d
 2572 10a2 92000000 		.4byte	0x92
 2573 10a6 03       		.byte	0x3
 2574 10a7 B9100000 		.4byte	0x10b9
 2575 10ab 2C       		.uleb128 0x2c
 2576 10ac F7000000 		.4byte	.LASF191
 2577 10b0 02       		.byte	0x2
 2578 10b1 AA01     		.2byte	0x1aa
 2579 10b3 15       		.byte	0x15
 2580 10b4 92000000 		.4byte	0x92
 2581 10b8 00       		.byte	0
 2582 10b9 2F       		.uleb128 0x2f
 2583 10ba 87020000 		.4byte	.LASF195
 2584 10be 87020000 		.4byte	.LASF195
 2585 10c2 07       		.byte	0x7
 2586 10c3 1802     		.2byte	0x218
 2587 10c5 08       		.byte	0x8
 2588 10c6 30       		.uleb128 0x30
 2589 10c7 FF030000 		.4byte	.LASF196
 2590 10cb FF030000 		.4byte	.LASF196
 2591 10cf 00       		.byte	0
 2592              		.section	.debug_abbrev,"",%progbits
 2593              	.Ldebug_abbrev0:
 2594 0000 01       		.uleb128 0x1
 2595 0001 11       		.uleb128 0x11
 2596 0002 01       		.byte	0x1
 2597 0003 25       		.uleb128 0x25
 2598 0004 0E       		.uleb128 0xe
 2599 0005 13       		.uleb128 0x13
 2600 0006 0B       		.uleb128 0xb
 2601 0007 03       		.uleb128 0x3
 2602 0008 0E       		.uleb128 0xe
 2603 0009 1B       		.uleb128 0x1b
 2604 000a 0E       		.uleb128 0xe
 2605 000b 55       		.uleb128 0x55
 2606 000c 17       		.uleb128 0x17
 2607 000d 11       		.uleb128 0x11
 2608 000e 01       		.uleb128 0x1
 2609 000f 10       		.uleb128 0x10
 2610 0010 17       		.uleb128 0x17
 2611 0011 00       		.byte	0
 2612 0012 00       		.byte	0
 2613 0013 02       		.uleb128 0x2
 2614 0014 24       		.uleb128 0x24
 2615 0015 00       		.byte	0
 2616 0016 0B       		.uleb128 0xb
 2617 0017 0B       		.uleb128 0xb
 2618 0018 3E       		.uleb128 0x3e
 2619 0019 0B       		.uleb128 0xb
 2620 001a 03       		.uleb128 0x3
 2621 001b 08       		.uleb128 0x8
 2622 001c 00       		.byte	0
ARM GAS  /tmp/ccCdwTe8.s 			page 47


 2623 001d 00       		.byte	0
 2624 001e 03       		.uleb128 0x3
 2625 001f 24       		.uleb128 0x24
 2626 0020 00       		.byte	0
 2627 0021 0B       		.uleb128 0xb
 2628 0022 0B       		.uleb128 0xb
 2629 0023 3E       		.uleb128 0x3e
 2630 0024 0B       		.uleb128 0xb
 2631 0025 03       		.uleb128 0x3
 2632 0026 0E       		.uleb128 0xe
 2633 0027 00       		.byte	0
 2634 0028 00       		.byte	0
 2635 0029 04       		.uleb128 0x4
 2636 002a 16       		.uleb128 0x16
 2637 002b 00       		.byte	0
 2638 002c 03       		.uleb128 0x3
 2639 002d 0E       		.uleb128 0xe
 2640 002e 3A       		.uleb128 0x3a
 2641 002f 0B       		.uleb128 0xb
 2642 0030 3B       		.uleb128 0x3b
 2643 0031 0B       		.uleb128 0xb
 2644 0032 39       		.uleb128 0x39
 2645 0033 0B       		.uleb128 0xb
 2646 0034 49       		.uleb128 0x49
 2647 0035 13       		.uleb128 0x13
 2648 0036 00       		.byte	0
 2649 0037 00       		.byte	0
 2650 0038 05       		.uleb128 0x5
 2651 0039 35       		.uleb128 0x35
 2652 003a 00       		.byte	0
 2653 003b 49       		.uleb128 0x49
 2654 003c 13       		.uleb128 0x13
 2655 003d 00       		.byte	0
 2656 003e 00       		.byte	0
 2657 003f 06       		.uleb128 0x6
 2658 0040 26       		.uleb128 0x26
 2659 0041 00       		.byte	0
 2660 0042 49       		.uleb128 0x49
 2661 0043 13       		.uleb128 0x13
 2662 0044 00       		.byte	0
 2663 0045 00       		.byte	0
 2664 0046 07       		.uleb128 0x7
 2665 0047 13       		.uleb128 0x13
 2666 0048 01       		.byte	0x1
 2667 0049 03       		.uleb128 0x3
 2668 004a 0E       		.uleb128 0xe
 2669 004b 0B       		.uleb128 0xb
 2670 004c 0B       		.uleb128 0xb
 2671 004d 3A       		.uleb128 0x3a
 2672 004e 0B       		.uleb128 0xb
 2673 004f 3B       		.uleb128 0x3b
 2674 0050 0B       		.uleb128 0xb
 2675 0051 39       		.uleb128 0x39
 2676 0052 0B       		.uleb128 0xb
 2677 0053 01       		.uleb128 0x1
 2678 0054 13       		.uleb128 0x13
 2679 0055 00       		.byte	0
ARM GAS  /tmp/ccCdwTe8.s 			page 48


 2680 0056 00       		.byte	0
 2681 0057 08       		.uleb128 0x8
 2682 0058 0D       		.uleb128 0xd
 2683 0059 00       		.byte	0
 2684 005a 03       		.uleb128 0x3
 2685 005b 0E       		.uleb128 0xe
 2686 005c 3A       		.uleb128 0x3a
 2687 005d 0B       		.uleb128 0xb
 2688 005e 3B       		.uleb128 0x3b
 2689 005f 0B       		.uleb128 0xb
 2690 0060 39       		.uleb128 0x39
 2691 0061 0B       		.uleb128 0xb
 2692 0062 49       		.uleb128 0x49
 2693 0063 13       		.uleb128 0x13
 2694 0064 38       		.uleb128 0x38
 2695 0065 0B       		.uleb128 0xb
 2696 0066 00       		.byte	0
 2697 0067 00       		.byte	0
 2698 0068 09       		.uleb128 0x9
 2699 0069 0D       		.uleb128 0xd
 2700 006a 00       		.byte	0
 2701 006b 03       		.uleb128 0x3
 2702 006c 08       		.uleb128 0x8
 2703 006d 3A       		.uleb128 0x3a
 2704 006e 0B       		.uleb128 0xb
 2705 006f 3B       		.uleb128 0x3b
 2706 0070 05       		.uleb128 0x5
 2707 0071 39       		.uleb128 0x39
 2708 0072 0B       		.uleb128 0xb
 2709 0073 49       		.uleb128 0x49
 2710 0074 13       		.uleb128 0x13
 2711 0075 38       		.uleb128 0x38
 2712 0076 0B       		.uleb128 0xb
 2713 0077 00       		.byte	0
 2714 0078 00       		.byte	0
 2715 0079 0A       		.uleb128 0xa
 2716 007a 0D       		.uleb128 0xd
 2717 007b 00       		.byte	0
 2718 007c 03       		.uleb128 0x3
 2719 007d 0E       		.uleb128 0xe
 2720 007e 3A       		.uleb128 0x3a
 2721 007f 0B       		.uleb128 0xb
 2722 0080 3B       		.uleb128 0x3b
 2723 0081 05       		.uleb128 0x5
 2724 0082 39       		.uleb128 0x39
 2725 0083 0B       		.uleb128 0xb
 2726 0084 49       		.uleb128 0x49
 2727 0085 13       		.uleb128 0x13
 2728 0086 38       		.uleb128 0x38
 2729 0087 0B       		.uleb128 0xb
 2730 0088 00       		.byte	0
 2731 0089 00       		.byte	0
 2732 008a 0B       		.uleb128 0xb
 2733 008b 0F       		.uleb128 0xf
 2734 008c 00       		.byte	0
 2735 008d 0B       		.uleb128 0xb
 2736 008e 0B       		.uleb128 0xb
ARM GAS  /tmp/ccCdwTe8.s 			page 49


 2737 008f 49       		.uleb128 0x49
 2738 0090 13       		.uleb128 0x13
 2739 0091 00       		.byte	0
 2740 0092 00       		.byte	0
 2741 0093 0C       		.uleb128 0xc
 2742 0094 13       		.uleb128 0x13
 2743 0095 01       		.byte	0x1
 2744 0096 03       		.uleb128 0x3
 2745 0097 0E       		.uleb128 0xe
 2746 0098 0B       		.uleb128 0xb
 2747 0099 0B       		.uleb128 0xb
 2748 009a 3A       		.uleb128 0x3a
 2749 009b 0B       		.uleb128 0xb
 2750 009c 3B       		.uleb128 0x3b
 2751 009d 05       		.uleb128 0x5
 2752 009e 39       		.uleb128 0x39
 2753 009f 0B       		.uleb128 0xb
 2754 00a0 01       		.uleb128 0x1
 2755 00a1 13       		.uleb128 0x13
 2756 00a2 00       		.byte	0
 2757 00a3 00       		.byte	0
 2758 00a4 0D       		.uleb128 0xd
 2759 00a5 15       		.uleb128 0x15
 2760 00a6 01       		.byte	0x1
 2761 00a7 27       		.uleb128 0x27
 2762 00a8 19       		.uleb128 0x19
 2763 00a9 01       		.uleb128 0x1
 2764 00aa 13       		.uleb128 0x13
 2765 00ab 00       		.byte	0
 2766 00ac 00       		.byte	0
 2767 00ad 0E       		.uleb128 0xe
 2768 00ae 05       		.uleb128 0x5
 2769 00af 00       		.byte	0
 2770 00b0 49       		.uleb128 0x49
 2771 00b1 13       		.uleb128 0x13
 2772 00b2 00       		.byte	0
 2773 00b3 00       		.byte	0
 2774 00b4 0F       		.uleb128 0xf
 2775 00b5 0F       		.uleb128 0xf
 2776 00b6 00       		.byte	0
 2777 00b7 0B       		.uleb128 0xb
 2778 00b8 0B       		.uleb128 0xb
 2779 00b9 00       		.byte	0
 2780 00ba 00       		.byte	0
 2781 00bb 10       		.uleb128 0x10
 2782 00bc 13       		.uleb128 0x13
 2783 00bd 01       		.byte	0x1
 2784 00be 03       		.uleb128 0x3
 2785 00bf 0E       		.uleb128 0xe
 2786 00c0 0B       		.uleb128 0xb
 2787 00c1 05       		.uleb128 0x5
 2788 00c2 3A       		.uleb128 0x3a
 2789 00c3 0B       		.uleb128 0xb
 2790 00c4 3B       		.uleb128 0x3b
 2791 00c5 05       		.uleb128 0x5
 2792 00c6 39       		.uleb128 0x39
 2793 00c7 0B       		.uleb128 0xb
ARM GAS  /tmp/ccCdwTe8.s 			page 50


 2794 00c8 01       		.uleb128 0x1
 2795 00c9 13       		.uleb128 0x13
 2796 00ca 00       		.byte	0
 2797 00cb 00       		.byte	0
 2798 00cc 11       		.uleb128 0x11
 2799 00cd 0D       		.uleb128 0xd
 2800 00ce 00       		.byte	0
 2801 00cf 03       		.uleb128 0x3
 2802 00d0 0E       		.uleb128 0xe
 2803 00d1 3A       		.uleb128 0x3a
 2804 00d2 0B       		.uleb128 0xb
 2805 00d3 3B       		.uleb128 0x3b
 2806 00d4 05       		.uleb128 0x5
 2807 00d5 39       		.uleb128 0x39
 2808 00d6 0B       		.uleb128 0xb
 2809 00d7 49       		.uleb128 0x49
 2810 00d8 13       		.uleb128 0x13
 2811 00d9 38       		.uleb128 0x38
 2812 00da 05       		.uleb128 0x5
 2813 00db 00       		.byte	0
 2814 00dc 00       		.byte	0
 2815 00dd 12       		.uleb128 0x12
 2816 00de 0D       		.uleb128 0xd
 2817 00df 00       		.byte	0
 2818 00e0 03       		.uleb128 0x3
 2819 00e1 08       		.uleb128 0x8
 2820 00e2 3A       		.uleb128 0x3a
 2821 00e3 0B       		.uleb128 0xb
 2822 00e4 3B       		.uleb128 0x3b
 2823 00e5 05       		.uleb128 0x5
 2824 00e6 39       		.uleb128 0x39
 2825 00e7 0B       		.uleb128 0xb
 2826 00e8 49       		.uleb128 0x49
 2827 00e9 13       		.uleb128 0x13
 2828 00ea 38       		.uleb128 0x38
 2829 00eb 05       		.uleb128 0x5
 2830 00ec 00       		.byte	0
 2831 00ed 00       		.byte	0
 2832 00ee 13       		.uleb128 0x13
 2833 00ef 13       		.uleb128 0x13
 2834 00f0 01       		.byte	0x1
 2835 00f1 0B       		.uleb128 0xb
 2836 00f2 0B       		.uleb128 0xb
 2837 00f3 3A       		.uleb128 0x3a
 2838 00f4 0B       		.uleb128 0xb
 2839 00f5 3B       		.uleb128 0x3b
 2840 00f6 05       		.uleb128 0x5
 2841 00f7 39       		.uleb128 0x39
 2842 00f8 0B       		.uleb128 0xb
 2843 00f9 01       		.uleb128 0x1
 2844 00fa 13       		.uleb128 0x13
 2845 00fb 00       		.byte	0
 2846 00fc 00       		.byte	0
 2847 00fd 14       		.uleb128 0x14
 2848 00fe 01       		.uleb128 0x1
 2849 00ff 01       		.byte	0x1
 2850 0100 49       		.uleb128 0x49
ARM GAS  /tmp/ccCdwTe8.s 			page 51


 2851 0101 13       		.uleb128 0x13
 2852 0102 01       		.uleb128 0x1
 2853 0103 13       		.uleb128 0x13
 2854 0104 00       		.byte	0
 2855 0105 00       		.byte	0
 2856 0106 15       		.uleb128 0x15
 2857 0107 21       		.uleb128 0x21
 2858 0108 00       		.byte	0
 2859 0109 49       		.uleb128 0x49
 2860 010a 13       		.uleb128 0x13
 2861 010b 2F       		.uleb128 0x2f
 2862 010c 0B       		.uleb128 0xb
 2863 010d 00       		.byte	0
 2864 010e 00       		.byte	0
 2865 010f 16       		.uleb128 0x16
 2866 0110 16       		.uleb128 0x16
 2867 0111 00       		.byte	0
 2868 0112 03       		.uleb128 0x3
 2869 0113 0E       		.uleb128 0xe
 2870 0114 3A       		.uleb128 0x3a
 2871 0115 0B       		.uleb128 0xb
 2872 0116 3B       		.uleb128 0x3b
 2873 0117 05       		.uleb128 0x5
 2874 0118 39       		.uleb128 0x39
 2875 0119 0B       		.uleb128 0xb
 2876 011a 49       		.uleb128 0x49
 2877 011b 13       		.uleb128 0x13
 2878 011c 00       		.byte	0
 2879 011d 00       		.byte	0
 2880 011e 17       		.uleb128 0x17
 2881 011f 34       		.uleb128 0x34
 2882 0120 00       		.byte	0
 2883 0121 03       		.uleb128 0x3
 2884 0122 0E       		.uleb128 0xe
 2885 0123 3A       		.uleb128 0x3a
 2886 0124 0B       		.uleb128 0xb
 2887 0125 3B       		.uleb128 0x3b
 2888 0126 05       		.uleb128 0x5
 2889 0127 39       		.uleb128 0x39
 2890 0128 0B       		.uleb128 0xb
 2891 0129 49       		.uleb128 0x49
 2892 012a 13       		.uleb128 0x13
 2893 012b 3F       		.uleb128 0x3f
 2894 012c 19       		.uleb128 0x19
 2895 012d 3C       		.uleb128 0x3c
 2896 012e 19       		.uleb128 0x19
 2897 012f 00       		.byte	0
 2898 0130 00       		.byte	0
 2899 0131 18       		.uleb128 0x18
 2900 0132 34       		.uleb128 0x34
 2901 0133 00       		.byte	0
 2902 0134 03       		.uleb128 0x3
 2903 0135 0E       		.uleb128 0xe
 2904 0136 3A       		.uleb128 0x3a
 2905 0137 0B       		.uleb128 0xb
 2906 0138 3B       		.uleb128 0x3b
 2907 0139 0B       		.uleb128 0xb
ARM GAS  /tmp/ccCdwTe8.s 			page 52


 2908 013a 39       		.uleb128 0x39
 2909 013b 0B       		.uleb128 0xb
 2910 013c 49       		.uleb128 0x49
 2911 013d 13       		.uleb128 0x13
 2912 013e 3F       		.uleb128 0x3f
 2913 013f 19       		.uleb128 0x19
 2914 0140 3C       		.uleb128 0x3c
 2915 0141 19       		.uleb128 0x19
 2916 0142 00       		.byte	0
 2917 0143 00       		.byte	0
 2918 0144 19       		.uleb128 0x19
 2919 0145 0D       		.uleb128 0xd
 2920 0146 00       		.byte	0
 2921 0147 03       		.uleb128 0x3
 2922 0148 08       		.uleb128 0x8
 2923 0149 3A       		.uleb128 0x3a
 2924 014a 0B       		.uleb128 0xb
 2925 014b 3B       		.uleb128 0x3b
 2926 014c 0B       		.uleb128 0xb
 2927 014d 39       		.uleb128 0x39
 2928 014e 0B       		.uleb128 0xb
 2929 014f 49       		.uleb128 0x49
 2930 0150 13       		.uleb128 0x13
 2931 0151 38       		.uleb128 0x38
 2932 0152 0B       		.uleb128 0xb
 2933 0153 00       		.byte	0
 2934 0154 00       		.byte	0
 2935 0155 1A       		.uleb128 0x1a
 2936 0156 13       		.uleb128 0x13
 2937 0157 01       		.byte	0x1
 2938 0158 0B       		.uleb128 0xb
 2939 0159 0B       		.uleb128 0xb
 2940 015a 3A       		.uleb128 0x3a
 2941 015b 0B       		.uleb128 0xb
 2942 015c 3B       		.uleb128 0x3b
 2943 015d 0B       		.uleb128 0xb
 2944 015e 39       		.uleb128 0x39
 2945 015f 0B       		.uleb128 0xb
 2946 0160 01       		.uleb128 0x1
 2947 0161 13       		.uleb128 0x13
 2948 0162 00       		.byte	0
 2949 0163 00       		.byte	0
 2950 0164 1B       		.uleb128 0x1b
 2951 0165 13       		.uleb128 0x13
 2952 0166 01       		.byte	0x1
 2953 0167 0B       		.uleb128 0xb
 2954 0168 05       		.uleb128 0x5
 2955 0169 3A       		.uleb128 0x3a
 2956 016a 0B       		.uleb128 0xb
 2957 016b 3B       		.uleb128 0x3b
 2958 016c 0B       		.uleb128 0xb
 2959 016d 39       		.uleb128 0x39
 2960 016e 0B       		.uleb128 0xb
 2961 016f 01       		.uleb128 0x1
 2962 0170 13       		.uleb128 0x13
 2963 0171 00       		.byte	0
 2964 0172 00       		.byte	0
ARM GAS  /tmp/ccCdwTe8.s 			page 53


 2965 0173 1C       		.uleb128 0x1c
 2966 0174 17       		.uleb128 0x17
 2967 0175 01       		.byte	0x1
 2968 0176 0B       		.uleb128 0xb
 2969 0177 0B       		.uleb128 0xb
 2970 0178 3A       		.uleb128 0x3a
 2971 0179 0B       		.uleb128 0xb
 2972 017a 3B       		.uleb128 0x3b
 2973 017b 0B       		.uleb128 0xb
 2974 017c 39       		.uleb128 0x39
 2975 017d 0B       		.uleb128 0xb
 2976 017e 01       		.uleb128 0x1
 2977 017f 13       		.uleb128 0x13
 2978 0180 00       		.byte	0
 2979 0181 00       		.byte	0
 2980 0182 1D       		.uleb128 0x1d
 2981 0183 0D       		.uleb128 0xd
 2982 0184 00       		.byte	0
 2983 0185 03       		.uleb128 0x3
 2984 0186 0E       		.uleb128 0xe
 2985 0187 3A       		.uleb128 0x3a
 2986 0188 0B       		.uleb128 0xb
 2987 0189 3B       		.uleb128 0x3b
 2988 018a 05       		.uleb128 0x5
 2989 018b 39       		.uleb128 0x39
 2990 018c 0B       		.uleb128 0xb
 2991 018d 49       		.uleb128 0x49
 2992 018e 13       		.uleb128 0x13
 2993 018f 00       		.byte	0
 2994 0190 00       		.byte	0
 2995 0191 1E       		.uleb128 0x1e
 2996 0192 34       		.uleb128 0x34
 2997 0193 00       		.byte	0
 2998 0194 03       		.uleb128 0x3
 2999 0195 08       		.uleb128 0x8
 3000 0196 3A       		.uleb128 0x3a
 3001 0197 0B       		.uleb128 0xb
 3002 0198 3B       		.uleb128 0x3b
 3003 0199 05       		.uleb128 0x5
 3004 019a 39       		.uleb128 0x39
 3005 019b 0B       		.uleb128 0xb
 3006 019c 49       		.uleb128 0x49
 3007 019d 13       		.uleb128 0x13
 3008 019e 3F       		.uleb128 0x3f
 3009 019f 19       		.uleb128 0x19
 3010 01a0 3C       		.uleb128 0x3c
 3011 01a1 19       		.uleb128 0x19
 3012 01a2 00       		.byte	0
 3013 01a3 00       		.byte	0
 3014 01a4 1F       		.uleb128 0x1f
 3015 01a5 2E       		.uleb128 0x2e
 3016 01a6 01       		.byte	0x1
 3017 01a7 3F       		.uleb128 0x3f
 3018 01a8 19       		.uleb128 0x19
 3019 01a9 03       		.uleb128 0x3
 3020 01aa 0E       		.uleb128 0xe
 3021 01ab 3A       		.uleb128 0x3a
ARM GAS  /tmp/ccCdwTe8.s 			page 54


 3022 01ac 0B       		.uleb128 0xb
 3023 01ad 3B       		.uleb128 0x3b
 3024 01ae 0B       		.uleb128 0xb
 3025 01af 39       		.uleb128 0x39
 3026 01b0 0B       		.uleb128 0xb
 3027 01b1 27       		.uleb128 0x27
 3028 01b2 19       		.uleb128 0x19
 3029 01b3 11       		.uleb128 0x11
 3030 01b4 01       		.uleb128 0x1
 3031 01b5 12       		.uleb128 0x12
 3032 01b6 06       		.uleb128 0x6
 3033 01b7 40       		.uleb128 0x40
 3034 01b8 18       		.uleb128 0x18
 3035 01b9 9742     		.uleb128 0x2117
 3036 01bb 19       		.uleb128 0x19
 3037 01bc 01       		.uleb128 0x1
 3038 01bd 13       		.uleb128 0x13
 3039 01be 00       		.byte	0
 3040 01bf 00       		.byte	0
 3041 01c0 20       		.uleb128 0x20
 3042 01c1 0B       		.uleb128 0xb
 3043 01c2 01       		.byte	0x1
 3044 01c3 11       		.uleb128 0x11
 3045 01c4 01       		.uleb128 0x1
 3046 01c5 12       		.uleb128 0x12
 3047 01c6 06       		.uleb128 0x6
 3048 01c7 01       		.uleb128 0x1
 3049 01c8 13       		.uleb128 0x13
 3050 01c9 00       		.byte	0
 3051 01ca 00       		.byte	0
 3052 01cb 21       		.uleb128 0x21
 3053 01cc 34       		.uleb128 0x34
 3054 01cd 00       		.byte	0
 3055 01ce 03       		.uleb128 0x3
 3056 01cf 0E       		.uleb128 0xe
 3057 01d0 3A       		.uleb128 0x3a
 3058 01d1 0B       		.uleb128 0xb
 3059 01d2 3B       		.uleb128 0x3b
 3060 01d3 0B       		.uleb128 0xb
 3061 01d4 39       		.uleb128 0x39
 3062 01d5 0B       		.uleb128 0xb
 3063 01d6 49       		.uleb128 0x49
 3064 01d7 13       		.uleb128 0x13
 3065 01d8 02       		.uleb128 0x2
 3066 01d9 17       		.uleb128 0x17
 3067 01da B742     		.uleb128 0x2137
 3068 01dc 17       		.uleb128 0x17
 3069 01dd 00       		.byte	0
 3070 01de 00       		.byte	0
 3071 01df 22       		.uleb128 0x22
 3072 01e0 1D       		.uleb128 0x1d
 3073 01e1 01       		.byte	0x1
 3074 01e2 31       		.uleb128 0x31
 3075 01e3 13       		.uleb128 0x13
 3076 01e4 52       		.uleb128 0x52
 3077 01e5 01       		.uleb128 0x1
 3078 01e6 B842     		.uleb128 0x2138
ARM GAS  /tmp/ccCdwTe8.s 			page 55


 3079 01e8 0B       		.uleb128 0xb
 3080 01e9 11       		.uleb128 0x11
 3081 01ea 01       		.uleb128 0x1
 3082 01eb 12       		.uleb128 0x12
 3083 01ec 06       		.uleb128 0x6
 3084 01ed 58       		.uleb128 0x58
 3085 01ee 0B       		.uleb128 0xb
 3086 01ef 59       		.uleb128 0x59
 3087 01f0 0B       		.uleb128 0xb
 3088 01f1 57       		.uleb128 0x57
 3089 01f2 0B       		.uleb128 0xb
 3090 01f3 01       		.uleb128 0x1
 3091 01f4 13       		.uleb128 0x13
 3092 01f5 00       		.byte	0
 3093 01f6 00       		.byte	0
 3094 01f7 23       		.uleb128 0x23
 3095 01f8 34       		.uleb128 0x34
 3096 01f9 00       		.byte	0
 3097 01fa 31       		.uleb128 0x31
 3098 01fb 13       		.uleb128 0x13
 3099 01fc 00       		.byte	0
 3100 01fd 00       		.byte	0
 3101 01fe 24       		.uleb128 0x24
 3102 01ff 34       		.uleb128 0x34
 3103 0200 00       		.byte	0
 3104 0201 31       		.uleb128 0x31
 3105 0202 13       		.uleb128 0x13
 3106 0203 02       		.uleb128 0x2
 3107 0204 17       		.uleb128 0x17
 3108 0205 B742     		.uleb128 0x2137
 3109 0207 17       		.uleb128 0x17
 3110 0208 00       		.byte	0
 3111 0209 00       		.byte	0
 3112 020a 25       		.uleb128 0x25
 3113 020b 1D       		.uleb128 0x1d
 3114 020c 01       		.byte	0x1
 3115 020d 31       		.uleb128 0x31
 3116 020e 13       		.uleb128 0x13
 3117 020f 52       		.uleb128 0x52
 3118 0210 01       		.uleb128 0x1
 3119 0211 B842     		.uleb128 0x2138
 3120 0213 0B       		.uleb128 0xb
 3121 0214 55       		.uleb128 0x55
 3122 0215 17       		.uleb128 0x17
 3123 0216 58       		.uleb128 0x58
 3124 0217 0B       		.uleb128 0xb
 3125 0218 59       		.uleb128 0x59
 3126 0219 0B       		.uleb128 0xb
 3127 021a 57       		.uleb128 0x57
 3128 021b 0B       		.uleb128 0xb
 3129 021c 01       		.uleb128 0x1
 3130 021d 13       		.uleb128 0x13
 3131 021e 00       		.byte	0
 3132 021f 00       		.byte	0
 3133 0220 26       		.uleb128 0x26
 3134 0221 05       		.uleb128 0x5
 3135 0222 00       		.byte	0
ARM GAS  /tmp/ccCdwTe8.s 			page 56


 3136 0223 31       		.uleb128 0x31
 3137 0224 13       		.uleb128 0x13
 3138 0225 02       		.uleb128 0x2
 3139 0226 17       		.uleb128 0x17
 3140 0227 B742     		.uleb128 0x2137
 3141 0229 17       		.uleb128 0x17
 3142 022a 00       		.byte	0
 3143 022b 00       		.byte	0
 3144 022c 27       		.uleb128 0x27
 3145 022d 898201   		.uleb128 0x4109
 3146 0230 00       		.byte	0
 3147 0231 11       		.uleb128 0x11
 3148 0232 01       		.uleb128 0x1
 3149 0233 31       		.uleb128 0x31
 3150 0234 13       		.uleb128 0x13
 3151 0235 00       		.byte	0
 3152 0236 00       		.byte	0
 3153 0237 28       		.uleb128 0x28
 3154 0238 1D       		.uleb128 0x1d
 3155 0239 01       		.byte	0x1
 3156 023a 31       		.uleb128 0x31
 3157 023b 13       		.uleb128 0x13
 3158 023c 52       		.uleb128 0x52
 3159 023d 01       		.uleb128 0x1
 3160 023e B842     		.uleb128 0x2138
 3161 0240 0B       		.uleb128 0xb
 3162 0241 55       		.uleb128 0x55
 3163 0242 17       		.uleb128 0x17
 3164 0243 58       		.uleb128 0x58
 3165 0244 0B       		.uleb128 0xb
 3166 0245 59       		.uleb128 0x59
 3167 0246 05       		.uleb128 0x5
 3168 0247 57       		.uleb128 0x57
 3169 0248 0B       		.uleb128 0xb
 3170 0249 00       		.byte	0
 3171 024a 00       		.byte	0
 3172 024b 29       		.uleb128 0x29
 3173 024c 1D       		.uleb128 0x1d
 3174 024d 01       		.byte	0x1
 3175 024e 31       		.uleb128 0x31
 3176 024f 13       		.uleb128 0x13
 3177 0250 52       		.uleb128 0x52
 3178 0251 01       		.uleb128 0x1
 3179 0252 B842     		.uleb128 0x2138
 3180 0254 0B       		.uleb128 0xb
 3181 0255 11       		.uleb128 0x11
 3182 0256 01       		.uleb128 0x1
 3183 0257 12       		.uleb128 0x12
 3184 0258 06       		.uleb128 0x6
 3185 0259 58       		.uleb128 0x58
 3186 025a 0B       		.uleb128 0xb
 3187 025b 59       		.uleb128 0x59
 3188 025c 05       		.uleb128 0x5
 3189 025d 57       		.uleb128 0x57
 3190 025e 0B       		.uleb128 0xb
 3191 025f 00       		.byte	0
 3192 0260 00       		.byte	0
ARM GAS  /tmp/ccCdwTe8.s 			page 57


 3193 0261 2A       		.uleb128 0x2a
 3194 0262 2E       		.uleb128 0x2e
 3195 0263 00       		.byte	0
 3196 0264 03       		.uleb128 0x3
 3197 0265 0E       		.uleb128 0xe
 3198 0266 3A       		.uleb128 0x3a
 3199 0267 0B       		.uleb128 0xb
 3200 0268 3B       		.uleb128 0x3b
 3201 0269 05       		.uleb128 0x5
 3202 026a 39       		.uleb128 0x39
 3203 026b 0B       		.uleb128 0xb
 3204 026c 27       		.uleb128 0x27
 3205 026d 19       		.uleb128 0x19
 3206 026e 20       		.uleb128 0x20
 3207 026f 0B       		.uleb128 0xb
 3208 0270 00       		.byte	0
 3209 0271 00       		.byte	0
 3210 0272 2B       		.uleb128 0x2b
 3211 0273 2E       		.uleb128 0x2e
 3212 0274 01       		.byte	0x1
 3213 0275 03       		.uleb128 0x3
 3214 0276 0E       		.uleb128 0xe
 3215 0277 3A       		.uleb128 0x3a
 3216 0278 0B       		.uleb128 0xb
 3217 0279 3B       		.uleb128 0x3b
 3218 027a 05       		.uleb128 0x5
 3219 027b 39       		.uleb128 0x39
 3220 027c 0B       		.uleb128 0xb
 3221 027d 27       		.uleb128 0x27
 3222 027e 19       		.uleb128 0x19
 3223 027f 49       		.uleb128 0x49
 3224 0280 13       		.uleb128 0x13
 3225 0281 20       		.uleb128 0x20
 3226 0282 0B       		.uleb128 0xb
 3227 0283 01       		.uleb128 0x1
 3228 0284 13       		.uleb128 0x13
 3229 0285 00       		.byte	0
 3230 0286 00       		.byte	0
 3231 0287 2C       		.uleb128 0x2c
 3232 0288 34       		.uleb128 0x34
 3233 0289 00       		.byte	0
 3234 028a 03       		.uleb128 0x3
 3235 028b 0E       		.uleb128 0xe
 3236 028c 3A       		.uleb128 0x3a
 3237 028d 0B       		.uleb128 0xb
 3238 028e 3B       		.uleb128 0x3b
 3239 028f 05       		.uleb128 0x5
 3240 0290 39       		.uleb128 0x39
 3241 0291 0B       		.uleb128 0xb
 3242 0292 49       		.uleb128 0x49
 3243 0293 13       		.uleb128 0x13
 3244 0294 00       		.byte	0
 3245 0295 00       		.byte	0
 3246 0296 2D       		.uleb128 0x2d
 3247 0297 2E       		.uleb128 0x2e
 3248 0298 01       		.byte	0x1
 3249 0299 03       		.uleb128 0x3
ARM GAS  /tmp/ccCdwTe8.s 			page 58


 3250 029a 0E       		.uleb128 0xe
 3251 029b 3A       		.uleb128 0x3a
 3252 029c 0B       		.uleb128 0xb
 3253 029d 3B       		.uleb128 0x3b
 3254 029e 05       		.uleb128 0x5
 3255 029f 39       		.uleb128 0x39
 3256 02a0 0B       		.uleb128 0xb
 3257 02a1 27       		.uleb128 0x27
 3258 02a2 19       		.uleb128 0x19
 3259 02a3 20       		.uleb128 0x20
 3260 02a4 0B       		.uleb128 0xb
 3261 02a5 01       		.uleb128 0x1
 3262 02a6 13       		.uleb128 0x13
 3263 02a7 00       		.byte	0
 3264 02a8 00       		.byte	0
 3265 02a9 2E       		.uleb128 0x2e
 3266 02aa 05       		.uleb128 0x5
 3267 02ab 00       		.byte	0
 3268 02ac 03       		.uleb128 0x3
 3269 02ad 0E       		.uleb128 0xe
 3270 02ae 3A       		.uleb128 0x3a
 3271 02af 0B       		.uleb128 0xb
 3272 02b0 3B       		.uleb128 0x3b
 3273 02b1 05       		.uleb128 0x5
 3274 02b2 39       		.uleb128 0x39
 3275 02b3 0B       		.uleb128 0xb
 3276 02b4 49       		.uleb128 0x49
 3277 02b5 13       		.uleb128 0x13
 3278 02b6 00       		.byte	0
 3279 02b7 00       		.byte	0
 3280 02b8 2F       		.uleb128 0x2f
 3281 02b9 2E       		.uleb128 0x2e
 3282 02ba 00       		.byte	0
 3283 02bb 3F       		.uleb128 0x3f
 3284 02bc 19       		.uleb128 0x19
 3285 02bd 3C       		.uleb128 0x3c
 3286 02be 19       		.uleb128 0x19
 3287 02bf 6E       		.uleb128 0x6e
 3288 02c0 0E       		.uleb128 0xe
 3289 02c1 03       		.uleb128 0x3
 3290 02c2 0E       		.uleb128 0xe
 3291 02c3 3A       		.uleb128 0x3a
 3292 02c4 0B       		.uleb128 0xb
 3293 02c5 3B       		.uleb128 0x3b
 3294 02c6 05       		.uleb128 0x5
 3295 02c7 39       		.uleb128 0x39
 3296 02c8 0B       		.uleb128 0xb
 3297 02c9 00       		.byte	0
 3298 02ca 00       		.byte	0
 3299 02cb 30       		.uleb128 0x30
 3300 02cc 2E       		.uleb128 0x2e
 3301 02cd 00       		.byte	0
 3302 02ce 3F       		.uleb128 0x3f
 3303 02cf 19       		.uleb128 0x19
 3304 02d0 3C       		.uleb128 0x3c
 3305 02d1 19       		.uleb128 0x19
 3306 02d2 6E       		.uleb128 0x6e
ARM GAS  /tmp/ccCdwTe8.s 			page 59


 3307 02d3 0E       		.uleb128 0xe
 3308 02d4 03       		.uleb128 0x3
 3309 02d5 0E       		.uleb128 0xe
 3310 02d6 00       		.byte	0
 3311 02d7 00       		.byte	0
 3312 02d8 00       		.byte	0
 3313              		.section	.debug_loc,"",%progbits
 3314              	.Ldebug_loc0:
 3315              	.LVUS6:
 3316 0000 01       		.uleb128 .LVU66
 3317 0001 03       		.uleb128 .LVU68
 3318 0002 03       		.uleb128 .LVU68
 3319 0003 00       		.uleb128 .LVU79
 3320 0004 00       		.uleb128 .LVU79
 3321 0005 00       		.uleb128 .LVU83
 3322 0006 00       		.uleb128 .LVU83
 3323 0007 00       		.uleb128 .LVU88
 3324              	.LLST6:
 3325 0008 3C000000 		.4byte	.LVL11
 3326 000c 3C000000 		.4byte	.LVL11
 3327 0010 0100     		.2byte	0x1
 3328 0012 54       		.byte	0x54
 3329 0013 3C000000 		.4byte	.LVL11
 3330 0017 50000000 		.4byte	.LVL13
 3331 001b 0400     		.2byte	0x4
 3332 001d 74       		.byte	0x74
 3333 001e 987F     		.sleb128 -104
 3334 0020 9F       		.byte	0x9f
 3335 0021 50000000 		.4byte	.LVL13
 3336 0025 57000000 		.4byte	.LVL15-1
 3337 0029 0100     		.2byte	0x1
 3338 002b 53       		.byte	0x53
 3339 002c 57000000 		.4byte	.LVL15-1
 3340 0030 6A000000 		.4byte	.LVL16
 3341 0034 0400     		.2byte	0x4
 3342 0036 74       		.byte	0x74
 3343 0037 987F     		.sleb128 -104
 3344 0039 9F       		.byte	0x9f
 3345 003a 00000000 		.4byte	0
 3346 003e 00000000 		.4byte	0
 3347              	.LVUS7:
 3348 0042 00       		.uleb128 .LVU65
 3349 0043 01       		.uleb128 .LVU66
 3350              	.LLST7:
 3351 0044 3C000000 		.4byte	.LVL11
 3352 0048 3C000000 		.4byte	.LVL11
 3353 004c 0100     		.2byte	0x1
 3354 004e 54       		.byte	0x54
 3355 004f 00000000 		.4byte	0
 3356 0053 00000000 		.4byte	0
 3357              	.LVUS8:
 3358 0057 01       		.uleb128 .LVU76
 3359 0058 00       		.uleb128 .LVU79
 3360 0059 00       		.uleb128 .LVU79
 3361 005a 00       		.uleb128 .LVU80
 3362              	.LLST8:
 3363 005b 4C000000 		.4byte	.LVL12
ARM GAS  /tmp/ccCdwTe8.s 			page 60


 3364 005f 50000000 		.4byte	.LVL13
 3365 0063 0400     		.2byte	0x4
 3366 0065 74       		.byte	0x74
 3367 0066 987F     		.sleb128 -104
 3368 0068 9F       		.byte	0x9f
 3369 0069 50000000 		.4byte	.LVL13
 3370 006d 54000000 		.4byte	.LVL14
 3371 0071 0100     		.2byte	0x1
 3372 0073 53       		.byte	0x53
 3373 0074 00000000 		.4byte	0
 3374 0078 00000000 		.4byte	0
 3375              	.LVUS4:
 3376 007c 05       		.uleb128 .LVU37
 3377 007d 00       		.uleb128 .LVU39
 3378              	.LLST4:
 3379 007e 10000000 		.4byte	.LVL6
 3380 0082 16000000 		.4byte	.LVL7
 3381 0086 0300     		.2byte	0x3
 3382 0088 08       		.byte	0x8
 3383 0089 20       		.byte	0x20
 3384 008a 9F       		.byte	0x9f
 3385 008b 00000000 		.4byte	0
 3386 008f 00000000 		.4byte	0
 3387              	.LVUS5:
 3388 0093 05       		.uleb128 .LVU48
 3389 0094 00       		.uleb128 .LVU50
 3390              	.LLST5:
 3391 0095 20000000 		.4byte	.LVL8
 3392 0099 24000000 		.4byte	.LVL9
 3393 009d 0200     		.2byte	0x2
 3394 009f 30       		.byte	0x30
 3395 00a0 9F       		.byte	0x9f
 3396 00a1 00000000 		.4byte	0
 3397 00a5 00000000 		.4byte	0
 3398              	.LVUS0:
 3399 00a9 01       		.uleb128 .LVU12
 3400 00aa 03       		.uleb128 .LVU14
 3401 00ab 03       		.uleb128 .LVU14
 3402 00ac 00       		.uleb128 .LVU18
 3403 00ad 00       		.uleb128 .LVU18
 3404 00ae 00       		.uleb128 .LVU27
 3405              	.LLST0:
 3406 00af 1E000000 		.4byte	.LVL0
 3407 00b3 1E000000 		.4byte	.LVL0
 3408 00b7 0100     		.2byte	0x1
 3409 00b9 53       		.byte	0x53
 3410 00ba 1E000000 		.4byte	.LVL0
 3411 00be 20000000 		.4byte	.LVL1
 3412 00c2 0400     		.2byte	0x4
 3413 00c4 73       		.byte	0x73
 3414 00c5 E800     		.sleb128 104
 3415 00c7 9F       		.byte	0x9f
 3416 00c8 20000000 		.4byte	.LVL1
 3417 00cc 26000000 		.4byte	.LVL3
 3418 00d0 0100     		.2byte	0x1
 3419 00d2 53       		.byte	0x53
 3420 00d3 00000000 		.4byte	0
ARM GAS  /tmp/ccCdwTe8.s 			page 61


 3421 00d7 00000000 		.4byte	0
 3422              	.LVUS1:
 3423 00db 00       		.uleb128 .LVU11
 3424 00dc 01       		.uleb128 .LVU12
 3425              	.LLST1:
 3426 00dd 1E000000 		.4byte	.LVL0
 3427 00e1 1E000000 		.4byte	.LVL0
 3428 00e5 0100     		.2byte	0x1
 3429 00e7 53       		.byte	0x53
 3430 00e8 00000000 		.4byte	0
 3431 00ec 00000000 		.4byte	0
 3432              	.LVUS2:
 3433 00f0 04       		.uleb128 .LVU15
 3434 00f1 00       		.uleb128 .LVU18
 3435 00f2 00       		.uleb128 .LVU18
 3436 00f3 00       		.uleb128 .LVU19
 3437              	.LLST2:
 3438 00f4 1E000000 		.4byte	.LVL0
 3439 00f8 20000000 		.4byte	.LVL1
 3440 00fc 0400     		.2byte	0x4
 3441 00fe 73       		.byte	0x73
 3442 00ff E800     		.sleb128 104
 3443 0101 9F       		.byte	0x9f
 3444 0102 20000000 		.4byte	.LVL1
 3445 0106 24000000 		.4byte	.LVL2
 3446 010a 0100     		.2byte	0x1
 3447 010c 53       		.byte	0x53
 3448 010d 00000000 		.4byte	0
 3449 0111 00000000 		.4byte	0
 3450              	.LVUS3:
 3451 0115 06       		.uleb128 .LVU25
 3452 0116 00       		.uleb128 .LVU28
 3453              	.LLST3:
 3454 0117 24000000 		.4byte	.LVL2
 3455 011b 2A000000 		.4byte	.LVL4
 3456 011f 0200     		.2byte	0x2
 3457 0121 30       		.byte	0x30
 3458 0122 9F       		.byte	0x9f
 3459 0123 00000000 		.4byte	0
 3460 0127 00000000 		.4byte	0
 3461              		.section	.debug_aranges,"",%progbits
 3462 0000 24000000 		.4byte	0x24
 3463 0004 0200     		.2byte	0x2
 3464 0006 00000000 		.4byte	.Ldebug_info0
 3465 000a 04       		.byte	0x4
 3466 000b 00       		.byte	0
 3467 000c 0000     		.2byte	0
 3468 000e 0000     		.2byte	0
 3469 0010 00000000 		.4byte	.LFB219
 3470 0014 48000000 		.4byte	.LFE219-.LFB219
 3471 0018 00000000 		.4byte	.LFB220
 3472 001c 84000000 		.4byte	.LFE220-.LFB220
 3473 0020 00000000 		.4byte	0
 3474 0024 00000000 		.4byte	0
 3475              		.section	.debug_ranges,"",%progbits
 3476              	.Ldebug_ranges0:
 3477 0000 1E000000 		.4byte	.LBB53
ARM GAS  /tmp/ccCdwTe8.s 			page 62


 3478 0004 1E000000 		.4byte	.LBE53
 3479 0008 20000000 		.4byte	.LBB56
 3480 000c 24000000 		.4byte	.LBE56
 3481 0010 00000000 		.4byte	0
 3482 0014 00000000 		.4byte	0
 3483 0018 24000000 		.4byte	.LBB57
 3484 001c 24000000 		.4byte	.LBE57
 3485 0020 24000000 		.4byte	.LBB62
 3486 0024 24000000 		.4byte	.LBE62
 3487 0028 24000000 		.4byte	.LBB63
 3488 002c 2A000000 		.4byte	.LBE63
 3489 0030 00000000 		.4byte	0
 3490 0034 00000000 		.4byte	0
 3491 0038 10000000 		.4byte	.LBB64
 3492 003c 10000000 		.4byte	.LBE64
 3493 0040 10000000 		.4byte	.LBB69
 3494 0044 10000000 		.4byte	.LBE69
 3495 0048 10000000 		.4byte	.LBB70
 3496 004c 16000000 		.4byte	.LBE70
 3497 0050 00000000 		.4byte	0
 3498 0054 00000000 		.4byte	0
 3499 0058 20000000 		.4byte	.LBB71
 3500 005c 20000000 		.4byte	.LBE71
 3501 0060 20000000 		.4byte	.LBB78
 3502 0064 24000000 		.4byte	.LBE78
 3503 0068 00000000 		.4byte	0
 3504 006c 00000000 		.4byte	0
 3505 0070 20000000 		.4byte	.LBB73
 3506 0074 20000000 		.4byte	.LBE73
 3507 0078 20000000 		.4byte	.LBB76
 3508 007c 24000000 		.4byte	.LBE76
 3509 0080 00000000 		.4byte	0
 3510 0084 00000000 		.4byte	0
 3511 0088 4C000000 		.4byte	.LBB84
 3512 008c 4C000000 		.4byte	.LBE84
 3513 0090 50000000 		.4byte	.LBB87
 3514 0094 54000000 		.4byte	.LBE87
 3515 0098 00000000 		.4byte	0
 3516 009c 00000000 		.4byte	0
 3517 00a0 00000000 		.4byte	.LFB219
 3518 00a4 48000000 		.4byte	.LFE219
 3519 00a8 00000000 		.4byte	.LFB220
 3520 00ac 84000000 		.4byte	.LFE220
 3521 00b0 00000000 		.4byte	0
 3522 00b4 00000000 		.4byte	0
 3523              		.section	.debug_line,"",%progbits
 3524              	.Ldebug_line0:
 3525 0000 5B030000 		.section	.debug_str,"MS",%progbits,1
 3525      0300BF01 
 3525      00000201 
 3525      FB0E0D00 
 3525      01010101 
 3526              	.LASF48:
 3527 0000 705F7374 		.ascii	"p_stats\000"
 3527      61747300 
 3528              	.LASF145:
 3529 0008 77747365 		.ascii	"wtsemp\000"
ARM GAS  /tmp/ccCdwTe8.s 			page 63


 3529      6D7000
 3530              	.LASF168:
 3531 000f 63665F6F 		.ascii	"cf_off_name\000"
 3531      66665F6E 
 3531      616D6500 
 3532              	.LASF26:
 3533 001b 73797374 		.ascii	"systime_t\000"
 3533      696D655F 
 3533      7400
 3534              	.LASF157:
 3535 0025 63685F69 		.ascii	"ch_identifier\000"
 3535      64656E74 
 3535      69666965 
 3535      7200
 3536              	.LASF31:
 3537 0033 705F6374 		.ascii	"p_ctx\000"
 3537      7800
 3538              	.LASF21:
 3539 0039 74707269 		.ascii	"tprio_t\000"
 3539      6F5F7400 
 3540              	.LASF176:
 3541 0041 63685F64 		.ascii	"ch_debug\000"
 3541      65627567 
 3541      00
 3542              	.LASF42:
 3543 004a 705F6D73 		.ascii	"p_msgqueue\000"
 3543      67717565 
 3543      756500
 3544              	.LASF59:
 3545 0055 725F6374 		.ascii	"r_ctx\000"
 3545      7800
 3546              	.LASF6:
 3547 005b 696E7433 		.ascii	"int32_t\000"
 3547      325F7400 
 3548              	.LASF165:
 3549 0063 63665F6F 		.ascii	"cf_off_ctx\000"
 3549      66665F63 
 3549      747800
 3550              	.LASF63:
 3551 006e 76746675 		.ascii	"vtfunc_t\000"
 3551      6E635F74 
 3551      00
 3552              	.LASF72:
 3553 0077 63685F76 		.ascii	"ch_virtual_timers_list\000"
 3553      69727475 
 3553      616C5F74 
 3553      696D6572 
 3553      735F6C69 
 3554              	.LASF89:
 3555 008e 56544F52 		.ascii	"VTOR\000"
 3555      00
 3556              	.LASF78:
 3557 0093 6C6F636B 		.ascii	"lock_cnt\000"
 3557      5F636E74 
 3557      00
 3558              	.LASF161:
 3559 009c 63685F70 		.ascii	"ch_ptrsize\000"
ARM GAS  /tmp/ccCdwTe8.s 			page 64


 3559      74727369 
 3559      7A6500
 3560              	.LASF121:
 3561 00a7 73655F74 		.ascii	"se_tp\000"
 3561      7000
 3562              	.LASF135:
 3563 00ad 74696D65 		.ascii	"time_measurement_t\000"
 3563      5F6D6561 
 3563      73757265 
 3563      6D656E74 
 3563      5F7400
 3564              	.LASF153:
 3565 00c0 6D5F6F77 		.ascii	"m_owner\000"
 3565      6E657200 
 3566              	.LASF70:
 3567 00c8 76745F70 		.ascii	"vt_par\000"
 3567      617200
 3568              	.LASF142:
 3569 00cf 65786974 		.ascii	"exitcode\000"
 3569      636F6465 
 3569      00
 3570              	.LASF186:
 3571 00d8 5F5F7365 		.ascii	"__set_PSP\000"
 3571      745F5053 
 3571      5000
 3572              	.LASF147:
 3573 00e2 65776D61 		.ascii	"ewmask\000"
 3573      736B00
 3574              	.LASF163:
 3575 00e9 63685F74 		.ascii	"ch_threadsize\000"
 3575      68726561 
 3575      6473697A 
 3575      6500
 3576              	.LASF191:
 3577 00f7 72657375 		.ascii	"result\000"
 3577      6C7400
 3578              	.LASF90:
 3579 00fe 41495243 		.ascii	"AIRCR\000"
 3579      5200
 3580              	.LASF32:
 3581 0104 705F6E65 		.ascii	"p_newer\000"
 3581      77657200 
 3582              	.LASF5:
 3583 010c 6C6F6E67 		.ascii	"long int\000"
 3583      20696E74 
 3583      00
 3584              	.LASF28:
 3585 0115 705F6E65 		.ascii	"p_next\000"
 3585      787400
 3586              	.LASF183:
 3587 011c 706F7274 		.ascii	"port_unlock\000"
 3587      5F756E6C 
 3587      6F636B00 
 3588              	.LASF170:
 3589 0128 63665F6F 		.ascii	"cf_off_state\000"
 3589      66665F73 
 3589      74617465 
ARM GAS  /tmp/ccCdwTe8.s 			page 65


 3589      00
 3590              	.LASF29:
 3591 0135 705F7072 		.ascii	"p_prev\000"
 3591      657600
 3592              	.LASF87:
 3593 013c 43505549 		.ascii	"CPUID\000"
 3593      4400
 3594              	.LASF18:
 3595 0142 74737461 		.ascii	"tstate_t\000"
 3595      74655F74 
 3595      00
 3596              	.LASF16:
 3597 014b 72747469 		.ascii	"rttime_t\000"
 3597      6D655F74 
 3597      00
 3598              	.LASF53:
 3599 0154 74687265 		.ascii	"threads_queue_t\000"
 3599      6164735F 
 3599      71756575 
 3599      655F7400 
 3600              	.LASF45:
 3601 0164 705F6D74 		.ascii	"p_mtxlist\000"
 3601      786C6973 
 3601      7400
 3602              	.LASF111:
 3603 016e 72656761 		.ascii	"regarm_t\000"
 3603      726D5F74 
 3603      00
 3604              	.LASF88:
 3605 0177 49435352 		.ascii	"ICSR\000"
 3605      00
 3606              	.LASF190:
 3607 017c 5F5F6765 		.ascii	"__get_PSP\000"
 3607      745F5053 
 3607      5000
 3608              	.LASF134:
 3609 0186 63756D75 		.ascii	"cumulative\000"
 3609      6C617469 
 3609      766500
 3610              	.LASF3:
 3611 0191 7369676E 		.ascii	"signed char\000"
 3611      65642063 
 3611      68617200 
 3612              	.LASF39:
 3613 019d 705F7072 		.ascii	"p_preempt\000"
 3613      65656D70 
 3613      7400
 3614              	.LASF7:
 3615 01a7 75696E74 		.ascii	"uint8_t\000"
 3615      385F7400 
 3616              	.LASF23:
 3617 01af 6576656E 		.ascii	"eventmask_t\000"
 3617      746D6173 
 3617      6B5F7400 
 3618              	.LASF113:
 3619 01bb 636F6E74 		.ascii	"context\000"
 3619      65787400 
ARM GAS  /tmp/ccCdwTe8.s 			page 66


 3620              	.LASF144:
 3621 01c3 77747472 		.ascii	"wttrp\000"
 3621      7000
 3622              	.LASF100:
 3623 01c9 52455345 		.ascii	"RESERVED0\000"
 3623      52564544 
 3623      3000
 3624              	.LASF8:
 3625 01d3 756E7369 		.ascii	"unsigned char\000"
 3625      676E6564 
 3625      20636861 
 3625      7200
 3626              	.LASF76:
 3627 01e1 70616E69 		.ascii	"panic_msg\000"
 3627      635F6D73 
 3627      6700
 3628              	.LASF79:
 3629 01eb 74726163 		.ascii	"trace_buffer\000"
 3629      655F6275 
 3629      66666572 
 3629      00
 3630              	.LASF60:
 3631 01f8 725F6E65 		.ascii	"r_newer\000"
 3631      77657200 
 3632              	.LASF74:
 3633 0200 73797374 		.ascii	"system_debug_t\000"
 3633      656D5F64 
 3633      65627567 
 3633      5F7400
 3634              	.LASF187:
 3635 020f 76616C75 		.ascii	"value\000"
 3635      6500
 3636              	.LASF156:
 3637 0215 63686172 		.ascii	"char\000"
 3637      00
 3638              	.LASF102:
 3639 021a 5343425F 		.ascii	"SCB_Type\000"
 3639      54797065 
 3639      00
 3640              	.LASF94:
 3641 0223 44465352 		.ascii	"DFSR\000"
 3641      00
 3642              	.LASF30:
 3643 0228 705F7072 		.ascii	"p_prio\000"
 3643      696F00
 3644              	.LASF155:
 3645 022f 6D5F636E 		.ascii	"m_cnt\000"
 3645      7400
 3646              	.LASF143:
 3647 0235 77746F62 		.ascii	"wtobjp\000"
 3647      6A7000
 3648              	.LASF137:
 3649 023c 6E5F6374 		.ascii	"n_ctxswc\000"
 3649      78737763 
 3649      00
 3650              	.LASF93:
 3651 0245 48465352 		.ascii	"HFSR\000"
ARM GAS  /tmp/ccCdwTe8.s 			page 67


 3651      00
 3652              	.LASF166:
 3653 024a 63665F6F 		.ascii	"cf_off_newer\000"
 3653      66665F6E 
 3653      65776572 
 3653      00
 3654              	.LASF112:
 3655 0257 73746B61 		.ascii	"stkalign_t\000"
 3655      6C69676E 
 3655      5F7400
 3656              	.LASF115:
 3657 0262 706F7274 		.ascii	"port_extctx\000"
 3657      5F657874 
 3657      63747800 
 3658              	.LASF164:
 3659 026e 63665F6F 		.ascii	"cf_off_prio\000"
 3659      66665F70 
 3659      72696F00 
 3660              	.LASF132:
 3661 027a 776F7273 		.ascii	"worst\000"
 3661      7400
 3662              	.LASF116:
 3663 0280 6C725F74 		.ascii	"lr_thd\000"
 3663      686400
 3664              	.LASF195:
 3665 0287 63685363 		.ascii	"chSchIsPreemptionRequired\000"
 3665      68497350 
 3665      7265656D 
 3665      7074696F 
 3665      6E526571 
 3666              	.LASF91:
 3667 02a1 53484353 		.ascii	"SHCSR\000"
 3667      5200
 3668              	.LASF24:
 3669 02a7 636E745F 		.ascii	"cnt_t\000"
 3669      7400
 3670              	.LASF123:
 3671 02ad 73655F73 		.ascii	"se_state\000"
 3671      74617465 
 3671      00
 3672              	.LASF69:
 3673 02b6 76745F66 		.ascii	"vt_func\000"
 3673      756E6300 
 3674              	.LASF128:
 3675 02be 63685F74 		.ascii	"ch_trace_buffer_t\000"
 3675      72616365 
 3675      5F627566 
 3675      6665725F 
 3675      7400
 3676              	.LASF44:
 3677 02d0 705F6570 		.ascii	"p_epending\000"
 3677      656E6469 
 3677      6E6700
 3678              	.LASF146:
 3679 02db 77746D74 		.ascii	"wtmtxp\000"
 3679      787000
 3680              	.LASF189:
ARM GAS  /tmp/ccCdwTe8.s 			page 68


 3681 02e2 5F5F6765 		.ascii	"__get_FPSCR\000"
 3681      745F4650 
 3681      53435200 
 3682              	.LASF56:
 3683 02ee 63685F72 		.ascii	"ch_ready_list\000"
 3683      65616479 
 3683      5F6C6973 
 3683      7400
 3684              	.LASF77:
 3685 02fc 6973725F 		.ascii	"isr_cnt\000"
 3685      636E7400 
 3686              	.LASF139:
 3687 0304 6D5F6372 		.ascii	"m_crit_isr\000"
 3687      69745F69 
 3687      737200
 3688              	.LASF193:
 3689 030f 2E2F2F43 		.ascii	".//ChibiOS//os/rt/ports/ARMCMx/chcore_v7m.c\000"
 3689      68696269 
 3689      4F532F2F 
 3689      6F732F72 
 3689      742F706F 
 3690              	.LASF117:
 3691 033b 78707372 		.ascii	"xpsr\000"
 3691      00
 3692              	.LASF138:
 3693 0340 6D5F6372 		.ascii	"m_crit_thd\000"
 3693      69745F74 
 3693      686400
 3694              	.LASF12:
 3695 034b 6C6F6E67 		.ascii	"long unsigned int\000"
 3695      20756E73 
 3695      69676E65 
 3695      6420696E 
 3695      7400
 3696              	.LASF158:
 3697 035d 63685F7A 		.ascii	"ch_zero\000"
 3697      65726F00 
 3698              	.LASF110:
 3699 0365 53797374 		.ascii	"SystemCoreClock\000"
 3699      656D436F 
 3699      7265436C 
 3699      6F636B00 
 3700              	.LASF148:
 3701 0375 63685F73 		.ascii	"ch_semaphore\000"
 3701      656D6170 
 3701      686F7265 
 3701      00
 3702              	.LASF51:
 3703 0382 63685F74 		.ascii	"ch_thread\000"
 3703      68726561 
 3703      6400
 3704              	.LASF71:
 3705 038c 76697274 		.ascii	"virtual_timers_list_t\000"
 3705      75616C5F 
 3705      74696D65 
 3705      72735F6C 
 3705      6973745F 
ARM GAS  /tmp/ccCdwTe8.s 			page 69


 3706              	.LASF178:
 3707 03a2 63747870 		.ascii	"ctxp\000"
 3707      00
 3708              	.LASF64:
 3709 03a7 76697274 		.ascii	"virtual_timer_t\000"
 3709      75616C5F 
 3709      74696D65 
 3709      725F7400 
 3710              	.LASF55:
 3711 03b7 72656164 		.ascii	"ready_list_t\000"
 3711      795F6C69 
 3711      73745F74 
 3711      00
 3712              	.LASF25:
 3713 03c4 75636E74 		.ascii	"ucnt_t\000"
 3713      5F7400
 3714              	.LASF52:
 3715 03cb 63685F74 		.ascii	"ch_threads_list\000"
 3715      68726561 
 3715      64735F6C 
 3715      69737400 
 3716              	.LASF124:
 3717 03db 63685F73 		.ascii	"ch_swc_event_t\000"
 3717      77635F65 
 3717      76656E74 
 3717      5F7400
 3718              	.LASF136:
 3719 03ea 6E5F6972 		.ascii	"n_irq\000"
 3719      7100
 3720              	.LASF173:
 3721 03f0 63665F6F 		.ascii	"cf_off_preempt\000"
 3721      66665F70 
 3721      7265656D 
 3721      707400
 3722              	.LASF196:
 3723 03ff 5F5F7374 		.ascii	"__stack_chk_fail\000"
 3723      61636B5F 
 3723      63686B5F 
 3723      6661696C 
 3723      00
 3724              	.LASF1:
 3725 0410 6C6F6E67 		.ascii	"long long int\000"
 3725      206C6F6E 
 3725      6720696E 
 3725      7400
 3726              	.LASF160:
 3727 041e 63685F76 		.ascii	"ch_version\000"
 3727      65727369 
 3727      6F6E00
 3728              	.LASF152:
 3729 0429 6D5F7175 		.ascii	"m_queue\000"
 3729      65756500 
 3730              	.LASF182:
 3731 0431 706F7274 		.ascii	"port_lock_from_isr\000"
 3731      5F6C6F63 
 3731      6B5F6672 
 3731      6F6D5F69 
ARM GAS  /tmp/ccCdwTe8.s 			page 70


 3731      737200
 3732              	.LASF66:
 3733 0444 76745F6E 		.ascii	"vt_next\000"
 3733      65787400 
 3734              	.LASF67:
 3735 044c 76745F70 		.ascii	"vt_prev\000"
 3735      72657600 
 3736              	.LASF125:
 3737 0454 74625F73 		.ascii	"tb_size\000"
 3737      697A6500 
 3738              	.LASF109:
 3739 045c 49544D5F 		.ascii	"ITM_RxBuffer\000"
 3739      52784275 
 3739      66666572 
 3739      00
 3740              	.LASF41:
 3741 0469 705F7761 		.ascii	"p_waiting\000"
 3741      6974696E 
 3741      6700
 3742              	.LASF122:
 3743 0473 73655F77 		.ascii	"se_wtobjp\000"
 3743      746F626A 
 3743      7000
 3744              	.LASF37:
 3745 047d 705F666C 		.ascii	"p_flags\000"
 3745      61677300 
 3746              	.LASF184:
 3747 0485 706F7274 		.ascii	"port_lock\000"
 3747      5F6C6F63 
 3747      6B00
 3748              	.LASF86:
 3749 048f 69646C65 		.ascii	"idle_thread_wa\000"
 3749      5F746872 
 3749      6561645F 
 3749      776100
 3750              	.LASF0:
 3751 049e 756E7369 		.ascii	"unsigned int\000"
 3751      676E6564 
 3751      20696E74 
 3751      00
 3752              	.LASF15:
 3753 04ab 7274636E 		.ascii	"rtcnt_t\000"
 3753      745F7400 
 3754              	.LASF47:
 3755 04b3 705F6D70 		.ascii	"p_mpool\000"
 3755      6F6F6C00 
 3756              	.LASF38:
 3757 04bb 705F7265 		.ascii	"p_refs\000"
 3757      667300
 3758              	.LASF162:
 3759 04c2 63685F74 		.ascii	"ch_timesize\000"
 3759      696D6573 
 3759      697A6500 
 3760              	.LASF140:
 3761 04ce 6B65726E 		.ascii	"kernel_stats_t\000"
 3761      656C5F73 
 3761      74617473 
ARM GAS  /tmp/ccCdwTe8.s 			page 71


 3761      5F7400
 3762              	.LASF179:
 3763 04dd 5F706F72 		.ascii	"_port_irq_epilogue\000"
 3763      745F6972 
 3763      715F6570 
 3763      696C6F67 
 3763      756500
 3764              	.LASF129:
 3765 04f0 6F666673 		.ascii	"offset\000"
 3765      657400
 3766              	.LASF127:
 3767 04f7 74625F62 		.ascii	"tb_buffer\000"
 3767      75666665 
 3767      7200
 3768              	.LASF40:
 3769 0501 705F7469 		.ascii	"p_time\000"
 3769      6D6500
 3770              	.LASF172:
 3771 0508 63665F6F 		.ascii	"cf_off_refs\000"
 3771      66665F72 
 3771      65667300 
 3772              	.LASF188:
 3773 0514 746F704F 		.ascii	"topOfProcStack\000"
 3773      6650726F 
 3773      63537461 
 3773      636B00
 3774              	.LASF27:
 3775 0523 74687265 		.ascii	"thread_t\000"
 3775      61645F74 
 3775      00
 3776              	.LASF2:
 3777 052c 6C6F6E67 		.ascii	"long double\000"
 3777      20646F75 
 3777      626C6500 
 3778              	.LASF49:
 3779 0538 74687265 		.ascii	"thread_reference_t\000"
 3779      61645F72 
 3779      65666572 
 3779      656E6365 
 3779      5F7400
 3780              	.LASF46:
 3781 054b 705F7265 		.ascii	"p_realprio\000"
 3781      616C7072 
 3781      696F00
 3782              	.LASF114:
 3783 0556 706F7274 		.ascii	"port_intctx\000"
 3783      5F696E74 
 3783      63747800 
 3784              	.LASF174:
 3785 0562 63665F6F 		.ascii	"cf_off_time\000"
 3785      66665F74 
 3785      696D6500 
 3786              	.LASF181:
 3787 056e 706F7274 		.ascii	"port_unlock_from_isr\000"
 3787      5F756E6C 
 3787      6F636B5F 
 3787      66726F6D 
ARM GAS  /tmp/ccCdwTe8.s 			page 72


 3787      5F697372 
 3788              	.LASF68:
 3789 0583 76745F64 		.ascii	"vt_delta\000"
 3789      656C7461 
 3789      00
 3790              	.LASF65:
 3791 058c 63685F76 		.ascii	"ch_virtual_timer\000"
 3791      69727475 
 3791      616C5F74 
 3791      696D6572 
 3791      00
 3792              	.LASF96:
 3793 059d 42464152 		.ascii	"BFAR\000"
 3793      00
 3794              	.LASF150:
 3795 05a2 735F636E 		.ascii	"s_cnt\000"
 3795      7400
 3796              	.LASF85:
 3797 05a8 6B65726E 		.ascii	"kernel_stats\000"
 3797      656C5F73 
 3797      74617473 
 3797      00
 3798              	.LASF14:
 3799 05b5 6C6F6E67 		.ascii	"long long unsigned int\000"
 3799      206C6F6E 
 3799      6720756E 
 3799      7369676E 
 3799      65642069 
 3800              	.LASF33:
 3801 05cc 705F6F6C 		.ascii	"p_older\000"
 3801      64657200 
 3802              	.LASF9:
 3803 05d4 75696E74 		.ascii	"uint16_t\000"
 3803      31365F74 
 3803      00
 3804              	.LASF22:
 3805 05dd 6D73675F 		.ascii	"msg_t\000"
 3805      7400
 3806              	.LASF54:
 3807 05e3 63685F74 		.ascii	"ch_threads_queue\000"
 3807      68726561 
 3807      64735F71 
 3807      75657565 
 3807      00
 3808              	.LASF171:
 3809 05f4 63665F6F 		.ascii	"cf_off_flags\000"
 3809      66665F66 
 3809      6C616773 
 3809      00
 3810              	.LASF20:
 3811 0601 74736C69 		.ascii	"tslices_t\000"
 3811      6365735F 
 3811      7400
 3812              	.LASF62:
 3813 060b 725F6375 		.ascii	"r_current\000"
 3813      7272656E 
 3813      7400
ARM GAS  /tmp/ccCdwTe8.s 			page 73


 3814              	.LASF84:
 3815 0615 6D61696E 		.ascii	"mainthread\000"
 3815      74687265 
 3815      616400
 3816              	.LASF185:
 3817 0620 5F5F7365 		.ascii	"__set_BASEPRI\000"
 3817      745F4241 
 3817      53455052 
 3817      4900
 3818              	.LASF131:
 3819 062e 62657374 		.ascii	"best\000"
 3819      00
 3820              	.LASF57:
 3821 0633 725F7175 		.ascii	"r_queue\000"
 3821      65756500 
 3822              	.LASF97:
 3823 063b 41465352 		.ascii	"AFSR\000"
 3823      00
 3824              	.LASF92:
 3825 0640 43465352 		.ascii	"CFSR\000"
 3825      00
 3826              	.LASF82:
 3827 0645 726C6973 		.ascii	"rlist\000"
 3827      7400
 3828              	.LASF17:
 3829 064b 746D6F64 		.ascii	"tmode_t\000"
 3829      655F7400 
 3830              	.LASF73:
 3831 0653 76745F73 		.ascii	"vt_systime\000"
 3831      79737469 
 3831      6D6500
 3832              	.LASF61:
 3833 065e 725F6F6C 		.ascii	"r_older\000"
 3833      64657200 
 3834              	.LASF130:
 3835 0666 746D5F63 		.ascii	"tm_calibration_t\000"
 3835      616C6962 
 3835      72617469 
 3835      6F6E5F74 
 3835      00
 3836              	.LASF105:
 3837 0677 46504453 		.ascii	"FPDSCR\000"
 3837      435200
 3838              	.LASF149:
 3839 067e 735F7175 		.ascii	"s_queue\000"
 3839      65756500 
 3840              	.LASF104:
 3841 0686 46504341 		.ascii	"FPCAR\000"
 3841      5200
 3842              	.LASF98:
 3843 068c 4D4D4652 		.ascii	"MMFR\000"
 3843      00
 3844              	.LASF95:
 3845 0691 4D4D4641 		.ascii	"MMFAR\000"
 3845      5200
 3846              	.LASF4:
 3847 0697 73686F72 		.ascii	"short int\000"
ARM GAS  /tmp/ccCdwTe8.s 			page 74


 3847      7420696E 
 3847      7400
 3848              	.LASF13:
 3849 06a1 75696E74 		.ascii	"uint64_t\000"
 3849      36345F74 
 3849      00
 3850              	.LASF118:
 3851 06aa 66707363 		.ascii	"fpscr\000"
 3851      7200
 3852              	.LASF151:
 3853 06b0 63685F6D 		.ascii	"ch_mutex\000"
 3853      75746578 
 3853      00
 3854              	.LASF99:
 3855 06b9 49534152 		.ascii	"ISAR\000"
 3855      00
 3856              	.LASF58:
 3857 06be 725F7072 		.ascii	"r_prio\000"
 3857      696F00
 3858              	.LASF75:
 3859 06c5 63685F73 		.ascii	"ch_system_debug\000"
 3859      79737465 
 3859      6D5F6465 
 3859      62756700 
 3860              	.LASF167:
 3861 06d5 63665F6F 		.ascii	"cf_off_older\000"
 3861      66665F6F 
 3861      6C646572 
 3861      00
 3862              	.LASF83:
 3863 06e2 76746C69 		.ascii	"vtlist\000"
 3863      737400
 3864              	.LASF103:
 3865 06e9 46504343 		.ascii	"FPCCR\000"
 3865      5200
 3866              	.LASF177:
 3867 06ef 6D757465 		.ascii	"mutex_t\000"
 3867      785F7400 
 3868              	.LASF19:
 3869 06f7 74726566 		.ascii	"trefs_t\000"
 3869      735F7400 
 3870              	.LASF169:
 3871 06ff 63665F6F 		.ascii	"cf_off_stklimit\000"
 3871      66665F73 
 3871      746B6C69 
 3871      6D697400 
 3872              	.LASF50:
 3873 070f 74687265 		.ascii	"threads_list_t\000"
 3873      6164735F 
 3873      6C697374 
 3873      5F7400
 3874              	.LASF192:
 3875 071e 474E5520 		.ascii	"GNU C17 9.2.1 20191025 (release) [ARM/arm-9-branch "
 3875      43313720 
 3875      392E322E 
 3875      31203230 
 3875      31393130 
ARM GAS  /tmp/ccCdwTe8.s 			page 75


 3876 0751 72657669 		.ascii	"revision 277599] -mcpu=cortex-m4 -mfloat-abi=hard -"
 3876      73696F6E 
 3876      20323737 
 3876      3539395D 
 3876      202D6D63 
 3877 0784 6D667075 		.ascii	"mfpu=fpv4-sp-d16 -mno-thumb-interwork -mthumb -marc"
 3877      3D667076 
 3877      342D7370 
 3877      2D643136 
 3877      202D6D6E 
 3878 07b7 683D6172 		.ascii	"h=armv7e-m+fp -ggdb -O2 -fomit-frame-pointer -falig"
 3878      6D763765 
 3878      2D6D2B66 
 3878      70202D67 
 3878      67646220 
 3879 07ea 6E2D6675 		.ascii	"n-functions=16 -fno-strict-aliasing -fstack-protect"
 3879      6E637469 
 3879      6F6E733D 
 3879      3136202D 
 3879      666E6F2D 
 3880 081d 6F722D61 		.ascii	"or-all -ffunction-sections -fdata-sections -fno-com"
 3880      6C6C202D 
 3880      6666756E 
 3880      6374696F 
 3880      6E2D7365 
 3881 0850 6D6F6E20 		.ascii	"mon -fsingle-precision-constant\000"
 3881      2D667369 
 3881      6E676C65 
 3881      2D707265 
 3881      63697369 
 3882              	.LASF194:
 3883 0870 2F686F6D 		.ascii	"/home/olof/Documents/MICRO-315/micro-315/tp4/lib/e-"
 3883      652F6F6C 
 3883      6F662F44 
 3883      6F63756D 
 3883      656E7473 
 3884 08a3 7075636B 		.ascii	"puck2_main-processor\000"
 3884      325F6D61 
 3884      696E2D70 
 3884      726F6365 
 3884      73736F72 
 3885              	.LASF81:
 3886 08b8 63685F73 		.ascii	"ch_system\000"
 3886      79737465 
 3886      6D00
 3887              	.LASF106:
 3888 08c2 4D564652 		.ascii	"MVFR0\000"
 3888      3000
 3889              	.LASF107:
 3890 08c8 4D564652 		.ascii	"MVFR1\000"
 3890      3100
 3891              	.LASF11:
 3892 08ce 75696E74 		.ascii	"uint32_t\000"
 3892      33325F74 
 3892      00
 3893              	.LASF119:
 3894 08d7 72657365 		.ascii	"reserved\000"
ARM GAS  /tmp/ccCdwTe8.s 			page 76


 3894      72766564 
 3894      00
 3895              	.LASF141:
 3896 08e0 7264796D 		.ascii	"rdymsg\000"
 3896      736700
 3897              	.LASF10:
 3898 08e7 73686F72 		.ascii	"short unsigned int\000"
 3898      7420756E 
 3898      7369676E 
 3898      65642069 
 3898      6E7400
 3899              	.LASF101:
 3900 08fa 43504143 		.ascii	"CPACR\000"
 3900      5200
 3901              	.LASF80:
 3902 0900 63685F73 		.ascii	"ch_system_t\000"
 3902      79737465 
 3902      6D5F7400 
 3903              	.LASF175:
 3904 090c 63686465 		.ascii	"chdebug_t\000"
 3904      6275675F 
 3904      7400
 3905              	.LASF159:
 3906 0916 63685F73 		.ascii	"ch_size\000"
 3906      697A6500 
 3907              	.LASF35:
 3908 091e 705F7374 		.ascii	"p_stklimit\000"
 3908      6B6C696D 
 3908      697400
 3909              	.LASF180:
 3910 0929 5356435F 		.ascii	"SVC_Handler\000"
 3910      48616E64 
 3910      6C657200 
 3911              	.LASF108:
 3912 0935 4650555F 		.ascii	"FPU_Type\000"
 3912      54797065 
 3912      00
 3913              	.LASF120:
 3914 093e 73655F74 		.ascii	"se_time\000"
 3914      696D6500 
 3915              	.LASF34:
 3916 0946 705F6E61 		.ascii	"p_name\000"
 3916      6D6500
 3917              	.LASF154:
 3918 094d 6D5F6E65 		.ascii	"m_next\000"
 3918      787400
 3919              	.LASF126:
 3920 0954 74625F70 		.ascii	"tb_ptr\000"
 3920      747200
 3921              	.LASF133:
 3922 095b 6C617374 		.ascii	"last\000"
 3922      00
 3923              	.LASF43:
 3924 0960 705F6D73 		.ascii	"p_msg\000"
 3924      6700
 3925              	.LASF36:
 3926 0966 705F7374 		.ascii	"p_state\000"
ARM GAS  /tmp/ccCdwTe8.s 			page 77


 3926      61746500 
 3927              		.ident	"GCC: (15:9-2019-q4-0ubuntu1) 9.2.1 20191025 (release) [ARM/arm-9-branch revision 277599]"
ARM GAS  /tmp/ccCdwTe8.s 			page 78


DEFINED SYMBOLS
                            *ABS*:0000000000000000 chcore_v7m.c
     /tmp/ccCdwTe8.s:18     .rodata.SVC_Handler.cst4:0000000000000000 $d
     /tmp/ccCdwTe8.s:22     .text.SVC_Handler:0000000000000000 $t
     /tmp/ccCdwTe8.s:31     .text.SVC_Handler:0000000000000000 SVC_Handler
     /tmp/ccCdwTe8.s:162    .text.SVC_Handler:0000000000000040 $d
     /tmp/ccCdwTe8.s:168    .rodata._port_irq_epilogue.cst4:0000000000000000 $d
     /tmp/ccCdwTe8.s:172    .text._port_irq_epilogue:0000000000000000 $t
     /tmp/ccCdwTe8.s:180    .text._port_irq_epilogue:0000000000000000 _port_irq_epilogue
     /tmp/ccCdwTe8.s:399    .text._port_irq_epilogue:0000000000000070 $d

UNDEFINED SYMBOLS
__stack_chk_guard
__stack_chk_fail
chSchIsPreemptionRequired
_port_switch_from_isr
_port_exit_from_isr
