ARM GAS  /tmp/ccXSf789.s 			page 1


   1              		.cpu cortex-m4
   2              		.eabi_attribute 27, 1
   3              		.eabi_attribute 28, 1
   4              		.eabi_attribute 20, 1
   5              		.eabi_attribute 21, 1
   6              		.eabi_attribute 23, 3
   7              		.eabi_attribute 24, 1
   8              		.eabi_attribute 25, 1
   9              		.eabi_attribute 26, 1
  10              		.eabi_attribute 30, 2
  11              		.eabi_attribute 34, 1
  12              		.eabi_attribute 18, 4
  13              		.file	"chdynamic.c"
  14              		.text
  15              	.Ltext0:
  16              		.cfi_sections	.debug_frame
  17              		.section	.rodata.chThdAddRef.cst4,"aM",%progbits,4
  18              		.align	2
  19              	.LC0:
  20 0000 00000000 		.word	__stack_chk_guard
  21              		.section	.text.chThdAddRef,"ax",%progbits
  22              		.align	1
  23              		.p2align 4,,15
  24              		.global	chThdAddRef
  25              		.arch armv7e-m
  26              		.syntax unified
  27              		.thumb
  28              		.thumb_func
  29              		.fpu fpv4-sp-d16
  30              		.type	chThdAddRef, %function
  31              	chThdAddRef:
  32              	.LVL0:
  33              	.LFB219:
  34              		.file 1 ".//ChibiOS//os/rt/src/chdynamic.c"
  35              		.loc 1 68 37 view -0
  36              		.cfi_startproc
  37              		@ args = 0, pretend = 0, frame = 8
  38              		@ frame_needed = 0, uses_anonymous_args = 0
  39              		.loc 1 68 37 is_stmt 0 view .LVU1
  40 0000 10B5     		push	{r4, lr}
  41              		.cfi_def_cfa_offset 8
  42              		.cfi_offset 4, -8
  43              		.cfi_offset 14, -4
  44 0002 1C4B     		ldr	r3, .L10
  45 0004 82B0     		sub	sp, sp, #8
  46              		.cfi_def_cfa_offset 16
  47              		.loc 1 68 37 view .LVU2
  48 0006 1B68     		ldr	r3, [r3]
  49 0008 0193     		str	r3, [sp, #4]
  50 000a 4FF00003 		mov	r3,#0
  51              		.loc 1 70 3 is_stmt 1 view .LVU3
  52              	.LBB44:
  53              	.LBI44:
  54              		.file 2 ".//ChibiOS//os/rt/include/chsys.h"
  55              		.loc 2 346 20 view .LVU4
  56              	.LBB45:
  57              		.loc 2 348 3 view .LVU5
ARM GAS  /tmp/ccXSf789.s 			page 2


  58              	.LBB46:
  59              	.LBI46:
  60              		.file 3 ".//ChibiOS//os/rt/ports/ARMCMx/chcore_v7m.h"
  61              		.loc 3 444 20 view .LVU6
  62              	.LBE46:
  63              	.LBE45:
  64              	.LBE44:
  65              		.loc 3 447 3 view .LVU7
  66              	.LVL1:
  67              	.LBB55:
  68              	.LBB53:
  69              	.LBB51:
  70              	.LBB47:
  71              	.LBI47:
  72              		.file 4 ".//ChibiOS//os/ext/CMSIS/include/core_cmFunc.h"
  73              		.loc 4 544 57 view .LVU8
  74              	.LBB48:
  75              		.loc 4 546 3 view .LVU9
  76              	.LBE48:
  77              	.LBE47:
  78              	.LBE51:
  79              	.LBE53:
  80              	.LBE55:
  81              		.loc 1 68 37 is_stmt 0 view .LVU10
  82 000e 0446     		mov	r4, r0
  83              	.LBB56:
  84              	.LBB54:
  85              	.LBB52:
  86              	.LBB50:
  87              	.LBB49:
  88              		.loc 4 546 3 view .LVU11
  89 0010 2023     		movs	r3, #32
  90              		.syntax unified
  91              	@ 546 ".//ChibiOS//os/ext/CMSIS/include/core_cmFunc.h" 1
  92 0012 83F31188 		MSR basepri, r3
  93              	@ 0 "" 2
  94              	.LVL2:
  95              		.loc 4 546 3 view .LVU12
  96              		.thumb
  97              		.syntax unified
  98              	.LBE49:
  99              	.LBE50:
 100              	.LBE52:
 101              		.loc 2 349 3 is_stmt 1 view .LVU13
 102 0016 FFF7FEFF 		bl	_stats_start_measure_crit_thd
 103              	.LVL3:
 104              		.loc 2 350 3 view .LVU14
 105 001a FFF7FEFF 		bl	_dbg_check_lock
 106              	.LVL4:
 107              	.LBE54:
 108              	.LBE56:
 109              		.loc 1 71 3 view .LVU15
 110              		.loc 1 71 3 view .LVU16
 111              		.loc 1 71 3 view .LVU17
 112 001e 94F82230 		ldrb	r3, [r4, #34]	@ zero_extendqisi2
 113 0022 FF2B     		cmp	r3, #255
 114 0024 1ED0     		beq	.L7
ARM GAS  /tmp/ccXSf789.s 			page 3


 115              	.L2:
 116              		.loc 1 71 3 discriminator 5 view .LVU18
 117              		.loc 1 72 3 discriminator 5 view .LVU19
 118              		.loc 1 72 13 is_stmt 0 discriminator 5 view .LVU20
 119 0026 0133     		adds	r3, r3, #1
 120 0028 84F82230 		strb	r3, [r4, #34]
 121              		.loc 1 73 3 is_stmt 1 discriminator 5 view .LVU21
 122              	.LBB57:
 123              	.LBI57:
 124              		.loc 2 358 20 discriminator 5 view .LVU22
 125              	.LBB58:
 126              		.loc 2 360 3 discriminator 5 view .LVU23
 127 002c FFF7FEFF 		bl	_dbg_check_unlock
 128              	.LVL5:
 129              		.loc 2 361 3 discriminator 5 view .LVU24
 130 0030 FFF7FEFF 		bl	_stats_stop_measure_crit_thd
 131              	.LVL6:
 132              		.loc 2 367 3 discriminator 5 view .LVU25
 133              		.loc 2 367 3 discriminator 5 view .LVU26
 134              		.loc 2 367 3 discriminator 5 view .LVU27
 135 0034 104B     		ldr	r3, .L10+4
 136 0036 1A68     		ldr	r2, [r3]
 137 0038 9A42     		cmp	r2, r3
 138 003a 04D0     		beq	.L3
 139              		.loc 2 367 3 is_stmt 0 view .LVU28
 140 003c 9969     		ldr	r1, [r3, #24]
 141 003e 9368     		ldr	r3, [r2, #8]
 142 0040 8A68     		ldr	r2, [r1, #8]
 143 0042 9A42     		cmp	r2, r3
 144 0044 0AD3     		bcc	.L8
 145              	.L3:
 146              		.loc 2 367 3 is_stmt 1 view .LVU29
 147              		.loc 2 371 3 view .LVU30
 148              	.LBB59:
 149              	.LBI59:
 150              		.loc 3 458 20 view .LVU31
 151              	.LBE59:
 152              	.LBE58:
 153              	.LBE57:
 154              		.loc 3 461 3 view .LVU32
 155              	.LVL7:
 156              	.LBB65:
 157              	.LBB63:
 158              	.LBB62:
 159              	.LBB60:
 160              	.LBI60:
 161              		.loc 4 544 57 view .LVU33
 162              	.LBB61:
 163              		.loc 4 546 3 view .LVU34
 164 0046 0023     		movs	r3, #0
 165              		.syntax unified
 166              	@ 546 ".//ChibiOS//os/ext/CMSIS/include/core_cmFunc.h" 1
 167 0048 83F31188 		MSR basepri, r3
 168              	@ 0 "" 2
 169              	.LVL8:
 170              		.loc 4 546 3 is_stmt 0 view .LVU35
 171              		.thumb
ARM GAS  /tmp/ccXSf789.s 			page 4


 172              		.syntax unified
 173              	.LBE61:
 174              	.LBE60:
 175              	.LBE62:
 176              	.LBE63:
 177              	.LBE65:
 178              		.loc 1 75 3 is_stmt 1 view .LVU36
 179              		.loc 1 76 1 is_stmt 0 view .LVU37
 180 004c 094B     		ldr	r3, .L10
 181 004e 1A68     		ldr	r2, [r3]
 182 0050 019B     		ldr	r3, [sp, #4]
 183 0052 5A40     		eors	r2, r3, r2
 184 0054 0CD1     		bne	.L9
 185 0056 2046     		mov	r0, r4
 186 0058 02B0     		add	sp, sp, #8
 187              		.cfi_remember_state
 188              		.cfi_def_cfa_offset 8
 189              		@ sp needed
 190 005a 10BD     		pop	{r4, pc}
 191              	.LVL9:
 192              	.L8:
 193              		.cfi_restore_state
 194              	.LBB66:
 195              	.LBB64:
 196              		.loc 2 367 3 is_stmt 1 view .LVU38
 197 005c 0748     		ldr	r0, .L10+8
 198 005e FFF7FEFF 		bl	chSysHalt
 199              	.LVL10:
 200 0062 F0E7     		b	.L3
 201              	.L7:
 202              		.loc 2 367 3 is_stmt 0 view .LVU39
 203              	.LBE64:
 204              	.LBE66:
 205              		.loc 1 71 3 is_stmt 1 discriminator 3 view .LVU40
 206 0064 0648     		ldr	r0, .L10+12
 207 0066 FFF7FEFF 		bl	chSysHalt
 208              	.LVL11:
 209 006a 94F82230 		ldrb	r3, [r4, #34]	@ zero_extendqisi2
 210 006e DAE7     		b	.L2
 211              	.L9:
 212              		.loc 1 76 1 is_stmt 0 view .LVU41
 213 0070 FFF7FEFF 		bl	__stack_chk_fail
 214              	.LVL12:
 215              	.L11:
 216              		.align	2
 217              	.L10:
 218 0074 00000000 		.word	.LC0
 219 0078 00000000 		.word	ch
 220 007c 00000000 		.word	.LANCHOR1
 221 0080 00000000 		.word	.LANCHOR0
 222              		.cfi_endproc
 223              	.LFE219:
 224              		.size	chThdAddRef, .-chThdAddRef
 225              		.section	.rodata.chThdRelease.cst4,"aM",%progbits,4
 226              		.align	2
 227              	.LC1:
 228 0000 00000000 		.word	__stack_chk_guard
ARM GAS  /tmp/ccXSf789.s 			page 5


 229              		.section	.text.chThdRelease,"ax",%progbits
 230              		.align	1
 231              		.p2align 4,,15
 232              		.global	chThdRelease
 233              		.syntax unified
 234              		.thumb
 235              		.thumb_func
 236              		.fpu fpv4-sp-d16
 237              		.type	chThdRelease, %function
 238              	chThdRelease:
 239              	.LVL13:
 240              	.LFB220:
 241              		.loc 1 91 33 is_stmt 1 view -0
 242              		.cfi_startproc
 243              		@ args = 0, pretend = 0, frame = 8
 244              		@ frame_needed = 0, uses_anonymous_args = 0
 245              		.loc 1 91 33 is_stmt 0 view .LVU43
 246 0000 30B5     		push	{r4, r5, lr}
 247              		.cfi_def_cfa_offset 12
 248              		.cfi_offset 4, -12
 249              		.cfi_offset 5, -8
 250              		.cfi_offset 14, -4
 251 0002 334B     		ldr	r3, .L27
 252 0004 83B0     		sub	sp, sp, #12
 253              		.cfi_def_cfa_offset 24
 254              		.loc 1 91 33 view .LVU44
 255 0006 1B68     		ldr	r3, [r3]
 256 0008 0193     		str	r3, [sp, #4]
 257 000a 4FF00003 		mov	r3,#0
 258              		.loc 1 92 3 is_stmt 1 view .LVU45
 259              		.loc 1 94 3 view .LVU46
 260              	.LBB77:
 261              	.LBI77:
 262              		.loc 2 346 20 view .LVU47
 263              	.LBB78:
 264              		.loc 2 348 3 view .LVU48
 265              	.LBB79:
 266              	.LBI79:
 267              		.loc 3 444 20 view .LVU49
 268              	.LBE79:
 269              	.LBE78:
 270              	.LBE77:
 271              		.loc 3 447 3 view .LVU50
 272              	.LVL14:
 273              	.LBB88:
 274              	.LBB86:
 275              	.LBB84:
 276              	.LBB80:
 277              	.LBI80:
 278              		.loc 4 544 57 view .LVU51
 279              	.LBB81:
 280              		.loc 4 546 3 view .LVU52
 281              	.LBE81:
 282              	.LBE80:
 283              	.LBE84:
 284              	.LBE86:
 285              	.LBE88:
ARM GAS  /tmp/ccXSf789.s 			page 6


 286              		.loc 1 91 33 is_stmt 0 view .LVU53
 287 000e 0546     		mov	r5, r0
 288              	.LBB89:
 289              	.LBB87:
 290              	.LBB85:
 291              	.LBB83:
 292              	.LBB82:
 293              		.loc 4 546 3 view .LVU54
 294 0010 2023     		movs	r3, #32
 295              		.syntax unified
 296              	@ 546 ".//ChibiOS//os/ext/CMSIS/include/core_cmFunc.h" 1
 297 0012 83F31188 		MSR basepri, r3
 298              	@ 0 "" 2
 299              	.LVL15:
 300              		.loc 4 546 3 view .LVU55
 301              		.thumb
 302              		.syntax unified
 303              	.LBE82:
 304              	.LBE83:
 305              	.LBE85:
 306              		.loc 2 349 3 is_stmt 1 view .LVU56
 307 0016 FFF7FEFF 		bl	_stats_start_measure_crit_thd
 308              	.LVL16:
 309              		.loc 2 350 3 view .LVU57
 310 001a FFF7FEFF 		bl	_dbg_check_lock
 311              	.LVL17:
 312              	.LBE87:
 313              	.LBE89:
 314              		.loc 1 95 3 view .LVU58
 315              		.loc 1 95 3 view .LVU59
 316              		.loc 1 95 3 view .LVU60
 317 001e 95F82230 		ldrb	r3, [r5, #34]	@ zero_extendqisi2
 318 0022 1BB3     		cbz	r3, .L24
 319              	.L13:
 320              		.loc 1 95 3 discriminator 5 view .LVU61
 321              		.loc 1 96 3 discriminator 5 view .LVU62
 322              		.loc 1 96 13 is_stmt 0 discriminator 5 view .LVU63
 323 0024 013B     		subs	r3, r3, #1
 324 0026 DCB2     		uxtb	r4, r3
 325 0028 85F82240 		strb	r4, [r5, #34]
 326              		.loc 1 97 3 is_stmt 1 discriminator 5 view .LVU64
 327              	.LVL18:
 328              		.loc 1 98 3 discriminator 5 view .LVU65
 329              	.LBB90:
 330              	.LBI90:
 331              		.loc 2 358 20 discriminator 5 view .LVU66
 332              	.LBB91:
 333              		.loc 2 360 3 discriminator 5 view .LVU67
 334 002c FFF7FEFF 		bl	_dbg_check_unlock
 335              	.LVL19:
 336              		.loc 2 361 3 discriminator 5 view .LVU68
 337 0030 FFF7FEFF 		bl	_stats_stop_measure_crit_thd
 338              	.LVL20:
 339              		.loc 2 367 3 discriminator 5 view .LVU69
 340              		.loc 2 367 3 discriminator 5 view .LVU70
 341              		.loc 2 367 3 discriminator 5 view .LVU71
 342 0034 274B     		ldr	r3, .L27+4
ARM GAS  /tmp/ccXSf789.s 			page 7


 343 0036 1A68     		ldr	r2, [r3]
 344 0038 9A42     		cmp	r2, r3
 345 003a 04D0     		beq	.L14
 346              		.loc 2 367 3 is_stmt 0 view .LVU72
 347 003c 9969     		ldr	r1, [r3, #24]
 348 003e 9368     		ldr	r3, [r2, #8]
 349 0040 8A68     		ldr	r2, [r1, #8]
 350 0042 9A42     		cmp	r2, r3
 351 0044 0ED3     		bcc	.L25
 352              	.L14:
 353              		.loc 2 367 3 is_stmt 1 view .LVU73
 354              		.loc 2 371 3 view .LVU74
 355              	.LBB92:
 356              	.LBI92:
 357              		.loc 3 458 20 view .LVU75
 358              	.LBE92:
 359              	.LBE91:
 360              	.LBE90:
 361              		.loc 3 461 3 view .LVU76
 362              	.LVL21:
 363              	.LBB98:
 364              	.LBB96:
 365              	.LBB95:
 366              	.LBB93:
 367              	.LBI93:
 368              		.loc 4 544 57 view .LVU77
 369              	.LBB94:
 370              		.loc 4 546 3 view .LVU78
 371 0046 0023     		movs	r3, #0
 372              		.syntax unified
 373              	@ 546 ".//ChibiOS//os/ext/CMSIS/include/core_cmFunc.h" 1
 374 0048 83F31188 		MSR basepri, r3
 375              	@ 0 "" 2
 376              	.LVL22:
 377              		.loc 4 546 3 is_stmt 0 view .LVU79
 378              		.thumb
 379              		.syntax unified
 380              	.LBE94:
 381              	.LBE93:
 382              	.LBE95:
 383              	.LBE96:
 384              	.LBE98:
 385              		.loc 1 103 3 is_stmt 1 view .LVU80
 386              		.loc 1 103 6 is_stmt 0 view .LVU81
 387 004c 1CB9     		cbnz	r4, .L12
 388              		.loc 1 103 28 discriminator 1 view .LVU82
 389 004e 95F82030 		ldrb	r3, [r5, #32]	@ zero_extendqisi2
 390 0052 0F2B     		cmp	r3, #15
 391 0054 10D0     		beq	.L26
 392              	.L12:
 393              		.loc 1 127 1 view .LVU83
 394 0056 1E4B     		ldr	r3, .L27
 395 0058 1A68     		ldr	r2, [r3]
 396 005a 019B     		ldr	r3, [sp, #4]
 397 005c 5A40     		eors	r2, r3, r2
 398 005e 35D1     		bne	.L23
 399 0060 03B0     		add	sp, sp, #12
ARM GAS  /tmp/ccXSf789.s 			page 8


 400              		.cfi_remember_state
 401              		.cfi_def_cfa_offset 12
 402              		@ sp needed
 403 0062 30BD     		pop	{r4, r5, pc}
 404              	.LVL23:
 405              	.L25:
 406              		.cfi_restore_state
 407              	.LBB99:
 408              	.LBB97:
 409              		.loc 2 367 3 is_stmt 1 view .LVU84
 410 0064 1C48     		ldr	r0, .L27+8
 411 0066 FFF7FEFF 		bl	chSysHalt
 412              	.LVL24:
 413 006a ECE7     		b	.L14
 414              	.LVL25:
 415              	.L24:
 416              		.loc 2 367 3 is_stmt 0 view .LVU85
 417              	.LBE97:
 418              	.LBE99:
 419              		.loc 1 95 3 is_stmt 1 discriminator 3 view .LVU86
 420 006c 1B48     		ldr	r0, .L27+12
 421 006e FFF7FEFF 		bl	chSysHalt
 422              	.LVL26:
 423 0072 95F82230 		ldrb	r3, [r5, #34]	@ zero_extendqisi2
 424 0076 D5E7     		b	.L13
 425              	.LVL27:
 426              	.L26:
 427              		.loc 1 104 5 view .LVU87
 428 0078 95F82130 		ldrb	r3, [r5, #33]	@ zero_extendqisi2
 429 007c 03F00303 		and	r3, r3, #3
 430 0080 012B     		cmp	r3, #1
 431 0082 12D0     		beq	.L16
 432 0084 022B     		cmp	r3, #2
 433 0086 E6D1     		bne	.L12
 434              		.loc 1 116 7 view .LVU88
 435 0088 D5E90432 		ldrd	r3, r2, [r5, #16]
 436 008c 1361     		str	r3, [r2, #16]
 437              		.loc 1 116 7 view .LVU89
 438 008e 6A69     		ldr	r2, [r5, #20]
 439 0090 5A61     		str	r2, [r3, #20]
 440              		.loc 1 116 21 view .LVU90
 441              		.loc 1 118 7 view .LVU91
 442 0092 0F4B     		ldr	r3, .L27
 443 0094 1A68     		ldr	r2, [r3]
 444 0096 019B     		ldr	r3, [sp, #4]
 445 0098 5A40     		eors	r2, r3, r2
 446 009a 17D1     		bne	.L23
 447 009c A86C     		ldr	r0, [r5, #72]
 448 009e 2946     		mov	r1, r5
 449              		.loc 1 127 1 is_stmt 0 view .LVU92
 450 00a0 03B0     		add	sp, sp, #12
 451              		.cfi_remember_state
 452              		.cfi_def_cfa_offset 12
 453              		@ sp needed
 454 00a2 BDE83040 		pop	{r4, r5, lr}
 455              		.cfi_restore 14
 456              		.cfi_restore 5
ARM GAS  /tmp/ccXSf789.s 			page 9


 457              		.cfi_restore 4
 458              		.cfi_def_cfa_offset 0
 459              	.LVL28:
 460              		.loc 1 118 7 view .LVU93
 461 00a6 FFF7FEBF 		b	chPoolFree
 462              	.LVL29:
 463              	.L16:
 464              		.cfi_restore_state
 465              		.loc 1 108 7 is_stmt 1 view .LVU94
 466 00aa D5E90423 		ldrd	r2, r3, [r5, #16]
 467 00ae 1A61     		str	r2, [r3, #16]
 468              		.loc 1 108 7 view .LVU95
 469 00b0 D5E90432 		ldrd	r3, r2, [r5, #16]
 470 00b4 5A61     		str	r2, [r3, #20]
 471              		.loc 1 108 21 view .LVU96
 472              		.loc 1 110 7 view .LVU97
 473 00b6 064B     		ldr	r3, .L27
 474 00b8 1A68     		ldr	r2, [r3]
 475 00ba 019B     		ldr	r3, [sp, #4]
 476 00bc 5A40     		eors	r2, r3, r2
 477 00be 05D1     		bne	.L23
 478 00c0 2846     		mov	r0, r5
 479              		.loc 1 127 1 is_stmt 0 view .LVU98
 480 00c2 03B0     		add	sp, sp, #12
 481              		.cfi_remember_state
 482              		.cfi_def_cfa_offset 12
 483              		@ sp needed
 484 00c4 BDE83040 		pop	{r4, r5, lr}
 485              		.cfi_restore 14
 486              		.cfi_restore 5
 487              		.cfi_restore 4
 488              		.cfi_def_cfa_offset 0
 489              	.LVL30:
 490              		.loc 1 110 7 view .LVU99
 491 00c8 FFF7FEBF 		b	chHeapFree
 492              	.LVL31:
 493              	.L23:
 494              		.cfi_restore_state
 495              		.loc 1 127 1 view .LVU100
 496 00cc FFF7FEFF 		bl	__stack_chk_fail
 497              	.LVL32:
 498              	.L28:
 499              		.align	2
 500              	.L27:
 501 00d0 00000000 		.word	.LC1
 502 00d4 00000000 		.word	ch
 503 00d8 00000000 		.word	.LANCHOR1
 504 00dc 00000000 		.word	.LANCHOR2
 505              		.cfi_endproc
 506              	.LFE220:
 507              		.size	chThdRelease, .-chThdRelease
 508              		.section	.rodata.chThdCreateFromHeap.cst4,"aM",%progbits,4
 509              		.align	2
 510              	.LC2:
 511 0000 00000000 		.word	__stack_chk_guard
 512              		.section	.text.chThdCreateFromHeap,"ax",%progbits
 513              		.align	1
ARM GAS  /tmp/ccXSf789.s 			page 10


 514              		.p2align 4,,15
 515              		.global	chThdCreateFromHeap
 516              		.syntax unified
 517              		.thumb
 518              		.thumb_func
 519              		.fpu fpv4-sp-d16
 520              		.type	chThdCreateFromHeap, %function
 521              	chThdCreateFromHeap:
 522              	.LVL33:
 523              	.LFB221:
 524              		.loc 1 153 68 is_stmt 1 view -0
 525              		.cfi_startproc
 526              		@ args = 4, pretend = 0, frame = 8
 527              		@ frame_needed = 0, uses_anonymous_args = 0
 528              		.loc 1 153 68 is_stmt 0 view .LVU102
 529 0000 2DE9F043 		push	{r4, r5, r6, r7, r8, r9, lr}
 530              		.cfi_def_cfa_offset 28
 531              		.cfi_offset 4, -28
 532              		.cfi_offset 5, -24
 533              		.cfi_offset 6, -20
 534              		.cfi_offset 7, -16
 535              		.cfi_offset 8, -12
 536              		.cfi_offset 9, -8
 537              		.cfi_offset 14, -4
 538 0004 1F46     		mov	r7, r3
 539 0006 85B0     		sub	sp, sp, #20
 540              		.cfi_def_cfa_offset 48
 541              		.loc 1 153 68 view .LVU103
 542 0008 264B     		ldr	r3, .L39
 543              	.LVL34:
 544              		.loc 1 153 68 view .LVU104
 545 000a DDF83090 		ldr	r9, [sp, #48]
 546 000e 9046     		mov	r8, r2
 547 0010 1B68     		ldr	r3, [r3]
 548 0012 0393     		str	r3, [sp, #12]
 549 0014 4FF00003 		mov	r3,#0
 550              		.loc 1 154 3 is_stmt 1 view .LVU105
 551              		.loc 1 155 3 view .LVU106
 552              		.loc 1 157 3 view .LVU107
 553              		.loc 1 153 68 is_stmt 0 view .LVU108
 554 0018 0D46     		mov	r5, r1
 555              		.loc 1 157 9 view .LVU109
 556 001a FFF7FEFF 		bl	chHeapAlloc
 557              	.LVL35:
 558              		.loc 1 158 3 is_stmt 1 view .LVU110
 559              		.loc 1 158 6 is_stmt 0 view .LVU111
 560 001e 0446     		mov	r4, r0
 561 0020 80B3     		cbz	r0, .L29
 562              		.loc 1 163 3 is_stmt 1 view .LVU112
 563 0022 00F16806 		add	r6, r0, #104
 564 0026 3146     		mov	r1, r6
 565 0028 FF22     		movs	r2, #255
 566 002a FFF7FEFF 		bl	_thread_memfill
 567              	.LVL36:
 568              		.loc 1 166 3 view .LVU113
 569 002e 3046     		mov	r0, r6
 570 0030 5522     		movs	r2, #85
ARM GAS  /tmp/ccXSf789.s 			page 11


 571 0032 6119     		adds	r1, r4, r5
 572 0034 FFF7FEFF 		bl	_thread_memfill
 573              	.LVL37:
 574              		.loc 1 171 3 view .LVU114
 575              	.LBB110:
 576              	.LBI110:
 577              		.loc 2 346 20 view .LVU115
 578              	.LBB111:
 579              		.loc 2 348 3 view .LVU116
 580              	.LBB112:
 581              	.LBI112:
 582              		.loc 3 444 20 view .LVU117
 583              	.LBE112:
 584              	.LBE111:
 585              	.LBE110:
 586              		.loc 3 447 3 view .LVU118
 587              	.LBB117:
 588              	.LBB116:
 589              	.LBB115:
 590              	.LBB113:
 591              	.LBI113:
 592              		.loc 4 544 57 view .LVU119
 593              	.LBB114:
 594              		.loc 4 546 3 view .LVU120
 595 0038 2023     		movs	r3, #32
 596              		.syntax unified
 597              	@ 546 ".//ChibiOS//os/ext/CMSIS/include/core_cmFunc.h" 1
 598 003a 83F31188 		MSR basepri, r3
 599              	@ 0 "" 2
 600              	.LVL38:
 601              		.loc 4 546 3 is_stmt 0 view .LVU121
 602              		.thumb
 603              		.syntax unified
 604              	.LBE114:
 605              	.LBE113:
 606              	.LBE115:
 607              		.loc 2 349 3 is_stmt 1 view .LVU122
 608 003e FFF7FEFF 		bl	_stats_start_measure_crit_thd
 609              	.LVL39:
 610              		.loc 2 350 3 view .LVU123
 611 0042 FFF7FEFF 		bl	_dbg_check_lock
 612              	.LVL40:
 613              	.LBE116:
 614              	.LBE117:
 615              		.loc 1 172 3 view .LVU124
 616              		.loc 1 172 8 is_stmt 0 view .LVU125
 617 0046 4246     		mov	r2, r8
 618 0048 3B46     		mov	r3, r7
 619 004a 2946     		mov	r1, r5
 620 004c 2046     		mov	r0, r4
 621 004e CDF80090 		str	r9, [sp]
 622 0052 FFF7FEFF 		bl	chThdCreateI
 623              	.LVL41:
 624              		.loc 1 173 15 view .LVU126
 625 0056 0123     		movs	r3, #1
 626 0058 80F82130 		strb	r3, [r0, #33]
 627              		.loc 1 174 3 view .LVU127
ARM GAS  /tmp/ccXSf789.s 			page 12


 628 005c 0021     		movs	r1, #0
 629              		.loc 1 172 8 view .LVU128
 630 005e 0446     		mov	r4, r0
 631              	.LVL42:
 632              		.loc 1 173 3 is_stmt 1 view .LVU129
 633              		.loc 1 174 3 view .LVU130
 634 0060 FFF7FEFF 		bl	chSchWakeupS
 635              	.LVL43:
 636              		.loc 1 175 3 view .LVU131
 637              	.LBB118:
 638              	.LBI118:
 639              		.loc 2 358 20 view .LVU132
 640              	.LBB119:
 641              		.loc 2 360 3 view .LVU133
 642 0064 FFF7FEFF 		bl	_dbg_check_unlock
 643              	.LVL44:
 644              		.loc 2 361 3 view .LVU134
 645 0068 FFF7FEFF 		bl	_stats_stop_measure_crit_thd
 646              	.LVL45:
 647              		.loc 2 367 3 view .LVU135
 648              		.loc 2 367 3 view .LVU136
 649              		.loc 2 367 3 view .LVU137
 650 006c 0E4B     		ldr	r3, .L39+4
 651 006e 1A68     		ldr	r2, [r3]
 652 0070 9A42     		cmp	r2, r3
 653 0072 04D0     		beq	.L31
 654 0074 9969     		ldr	r1, [r3, #24]
 655 0076 9368     		ldr	r3, [r2, #8]
 656 0078 8A68     		ldr	r2, [r1, #8]
 657 007a 9A42     		cmp	r2, r3
 658 007c 0BD3     		bcc	.L37
 659              	.L31:
 660              		.loc 2 367 3 view .LVU138
 661              		.loc 2 371 3 view .LVU139
 662              	.LBB120:
 663              	.LBI120:
 664              		.loc 3 458 20 view .LVU140
 665              	.LBE120:
 666              	.LBE119:
 667              	.LBE118:
 668              		.loc 3 461 3 view .LVU141
 669              	.LVL46:
 670              	.LBB126:
 671              	.LBB124:
 672              	.LBB123:
 673              	.LBB121:
 674              	.LBI121:
 675              		.loc 4 544 57 view .LVU142
 676              	.LBB122:
 677              		.loc 4 546 3 view .LVU143
 678 007e 0023     		movs	r3, #0
 679              		.syntax unified
 680              	@ 546 ".//ChibiOS//os/ext/CMSIS/include/core_cmFunc.h" 1
 681 0080 83F31188 		MSR basepri, r3
 682              	@ 0 "" 2
 683              	.LVL47:
 684              		.thumb
ARM GAS  /tmp/ccXSf789.s 			page 13


 685              		.syntax unified
 686              	.L29:
 687              		.loc 4 546 3 is_stmt 0 view .LVU144
 688              	.LBE122:
 689              	.LBE121:
 690              	.LBE123:
 691              	.LBE124:
 692              	.LBE126:
 693              		.loc 1 178 1 view .LVU145
 694 0084 074B     		ldr	r3, .L39
 695 0086 1A68     		ldr	r2, [r3]
 696 0088 039B     		ldr	r3, [sp, #12]
 697 008a 5A40     		eors	r2, r3, r2
 698 008c 07D1     		bne	.L38
 699 008e 2046     		mov	r0, r4
 700 0090 05B0     		add	sp, sp, #20
 701              		.cfi_remember_state
 702              		.cfi_def_cfa_offset 28
 703              		@ sp needed
 704 0092 BDE8F083 		pop	{r4, r5, r6, r7, r8, r9, pc}
 705              	.LVL48:
 706              	.L37:
 707              		.cfi_restore_state
 708              	.LBB127:
 709              	.LBB125:
 710              		.loc 2 367 3 is_stmt 1 view .LVU146
 711 0096 0548     		ldr	r0, .L39+8
 712 0098 FFF7FEFF 		bl	chSysHalt
 713              	.LVL49:
 714 009c EFE7     		b	.L31
 715              	.LVL50:
 716              	.L38:
 717              		.loc 2 367 3 is_stmt 0 view .LVU147
 718              	.LBE125:
 719              	.LBE127:
 720              		.loc 1 178 1 view .LVU148
 721 009e FFF7FEFF 		bl	__stack_chk_fail
 722              	.LVL51:
 723              	.L40:
 724 00a2 00BF     		.align	2
 725              	.L39:
 726 00a4 00000000 		.word	.LC2
 727 00a8 00000000 		.word	ch
 728 00ac 00000000 		.word	.LANCHOR1
 729              		.cfi_endproc
 730              	.LFE221:
 731              		.size	chThdCreateFromHeap, .-chThdCreateFromHeap
 732              		.section	.rodata.chThdCreateFromMemoryPool.cst4,"aM",%progbits,4
 733              		.align	2
 734              	.LC3:
 735 0000 00000000 		.word	__stack_chk_guard
 736              		.section	.text.chThdCreateFromMemoryPool,"ax",%progbits
 737              		.align	1
 738              		.p2align 4,,15
 739              		.global	chThdCreateFromMemoryPool
 740              		.syntax unified
 741              		.thumb
ARM GAS  /tmp/ccXSf789.s 			page 14


 742              		.thumb_func
 743              		.fpu fpv4-sp-d16
 744              		.type	chThdCreateFromMemoryPool, %function
 745              	chThdCreateFromMemoryPool:
 746              	.LVL52:
 747              	.LFB222:
 748              		.loc 1 205 60 is_stmt 1 view -0
 749              		.cfi_startproc
 750              		@ args = 0, pretend = 0, frame = 8
 751              		@ frame_needed = 0, uses_anonymous_args = 0
 752              		.loc 1 205 60 is_stmt 0 view .LVU150
 753 0000 2DE9F043 		push	{r4, r5, r6, r7, r8, r9, lr}
 754              		.cfi_def_cfa_offset 28
 755              		.cfi_offset 4, -28
 756              		.cfi_offset 5, -24
 757              		.cfi_offset 6, -20
 758              		.cfi_offset 7, -16
 759              		.cfi_offset 8, -12
 760              		.cfi_offset 9, -8
 761              		.cfi_offset 14, -4
 762 0004 9946     		mov	r9, r3
 763 0006 2B4B     		ldr	r3, .L53
 764              	.LVL53:
 765              		.loc 1 205 60 view .LVU151
 766 0008 85B0     		sub	sp, sp, #20
 767              		.cfi_def_cfa_offset 48
 768              		.loc 1 205 60 view .LVU152
 769 000a 0F46     		mov	r7, r1
 770 000c 9046     		mov	r8, r2
 771 000e 1B68     		ldr	r3, [r3]
 772 0010 0393     		str	r3, [sp, #12]
 773 0012 4FF00003 		mov	r3,#0
 774              		.loc 1 206 3 is_stmt 1 view .LVU153
 775              		.loc 1 207 3 view .LVU154
 776              		.loc 1 209 3 view .LVU155
 777              		.loc 1 209 3 view .LVU156
 778              		.loc 1 209 3 view .LVU157
 779 0016 0546     		mov	r5, r0
 780 0018 0028     		cmp	r0, #0
 781 001a 44D0     		beq	.L50
 782              	.LVL54:
 783              	.L42:
 784              		.loc 1 209 3 discriminator 5 view .LVU158
 785              		.loc 1 211 3 discriminator 5 view .LVU159
 786              		.loc 1 211 9 is_stmt 0 discriminator 5 view .LVU160
 787 001c 2846     		mov	r0, r5
 788 001e FFF7FEFF 		bl	chPoolAlloc
 789              	.LVL55:
 790              		.loc 1 212 3 is_stmt 1 discriminator 5 view .LVU161
 791              		.loc 1 212 6 is_stmt 0 discriminator 5 view .LVU162
 792 0022 0446     		mov	r4, r0
 793 0024 90B3     		cbz	r0, .L41
 794              		.loc 1 217 3 is_stmt 1 view .LVU163
 795 0026 00F16806 		add	r6, r0, #104
 796 002a 3146     		mov	r1, r6
 797 002c FF22     		movs	r2, #255
 798 002e FFF7FEFF 		bl	_thread_memfill
ARM GAS  /tmp/ccXSf789.s 			page 15


 799              	.LVL56:
 800              		.loc 1 220 3 view .LVU164
 801 0032 6968     		ldr	r1, [r5, #4]
 802 0034 3046     		mov	r0, r6
 803 0036 2144     		add	r1, r1, r4
 804 0038 5522     		movs	r2, #85
 805 003a FFF7FEFF 		bl	_thread_memfill
 806              	.LVL57:
 807              		.loc 1 225 3 view .LVU165
 808              	.LBB138:
 809              	.LBI138:
 810              		.loc 2 346 20 view .LVU166
 811              	.LBB139:
 812              		.loc 2 348 3 view .LVU167
 813              	.LBB140:
 814              	.LBI140:
 815              		.loc 3 444 20 view .LVU168
 816              	.LBE140:
 817              	.LBE139:
 818              	.LBE138:
 819              		.loc 3 447 3 view .LVU169
 820              	.LBB145:
 821              	.LBB144:
 822              	.LBB143:
 823              	.LBB141:
 824              	.LBI141:
 825              		.loc 4 544 57 view .LVU170
 826              	.LBB142:
 827              		.loc 4 546 3 view .LVU171
 828 003e 2023     		movs	r3, #32
 829              		.syntax unified
 830              	@ 546 ".//ChibiOS//os/ext/CMSIS/include/core_cmFunc.h" 1
 831 0040 83F31188 		MSR basepri, r3
 832              	@ 0 "" 2
 833              	.LVL58:
 834              		.loc 4 546 3 is_stmt 0 view .LVU172
 835              		.thumb
 836              		.syntax unified
 837              	.LBE142:
 838              	.LBE141:
 839              	.LBE143:
 840              		.loc 2 349 3 is_stmt 1 view .LVU173
 841 0044 FFF7FEFF 		bl	_stats_start_measure_crit_thd
 842              	.LVL59:
 843              		.loc 2 350 3 view .LVU174
 844 0048 FFF7FEFF 		bl	_dbg_check_lock
 845              	.LVL60:
 846              	.LBE144:
 847              	.LBE145:
 848              		.loc 1 226 3 view .LVU175
 849              		.loc 1 226 8 is_stmt 0 view .LVU176
 850 004c CDF80090 		str	r9, [sp]
 851 0050 3A46     		mov	r2, r7
 852 0052 6968     		ldr	r1, [r5, #4]
 853 0054 4346     		mov	r3, r8
 854 0056 2046     		mov	r0, r4
 855 0058 FFF7FEFF 		bl	chThdCreateI
ARM GAS  /tmp/ccXSf789.s 			page 16


 856              	.LVL61:
 857              		.loc 1 227 15 view .LVU177
 858 005c 0223     		movs	r3, #2
 859 005e 80F82130 		strb	r3, [r0, #33]
 860              		.loc 1 228 15 view .LVU178
 861 0062 8564     		str	r5, [r0, #72]
 862              		.loc 1 229 3 view .LVU179
 863 0064 0021     		movs	r1, #0
 864              		.loc 1 226 8 view .LVU180
 865 0066 0446     		mov	r4, r0
 866              	.LVL62:
 867              		.loc 1 227 3 is_stmt 1 view .LVU181
 868              		.loc 1 228 3 view .LVU182
 869              		.loc 1 229 3 view .LVU183
 870 0068 FFF7FEFF 		bl	chSchWakeupS
 871              	.LVL63:
 872              		.loc 1 230 3 view .LVU184
 873              	.LBB146:
 874              	.LBI146:
 875              		.loc 2 358 20 view .LVU185
 876              	.LBB147:
 877              		.loc 2 360 3 view .LVU186
 878 006c FFF7FEFF 		bl	_dbg_check_unlock
 879              	.LVL64:
 880              		.loc 2 361 3 view .LVU187
 881 0070 FFF7FEFF 		bl	_stats_stop_measure_crit_thd
 882              	.LVL65:
 883              		.loc 2 367 3 view .LVU188
 884              		.loc 2 367 3 view .LVU189
 885              		.loc 2 367 3 view .LVU190
 886 0074 104B     		ldr	r3, .L53+4
 887 0076 1A68     		ldr	r2, [r3]
 888 0078 9A42     		cmp	r2, r3
 889 007a 04D0     		beq	.L44
 890 007c 9969     		ldr	r1, [r3, #24]
 891 007e 9368     		ldr	r3, [r2, #8]
 892 0080 8A68     		ldr	r2, [r1, #8]
 893 0082 9A42     		cmp	r2, r3
 894 0084 0BD3     		bcc	.L51
 895              	.L44:
 896              		.loc 2 367 3 view .LVU191
 897              		.loc 2 371 3 view .LVU192
 898              	.LBB148:
 899              	.LBI148:
 900              		.loc 3 458 20 view .LVU193
 901              	.LBE148:
 902              	.LBE147:
 903              	.LBE146:
 904              		.loc 3 461 3 view .LVU194
 905              	.LVL66:
 906              	.LBB154:
 907              	.LBB152:
 908              	.LBB151:
 909              	.LBB149:
 910              	.LBI149:
 911              		.loc 4 544 57 view .LVU195
 912              	.LBB150:
ARM GAS  /tmp/ccXSf789.s 			page 17


 913              		.loc 4 546 3 view .LVU196
 914 0086 0023     		movs	r3, #0
 915              		.syntax unified
 916              	@ 546 ".//ChibiOS//os/ext/CMSIS/include/core_cmFunc.h" 1
 917 0088 83F31188 		MSR basepri, r3
 918              	@ 0 "" 2
 919              	.LVL67:
 920              		.thumb
 921              		.syntax unified
 922              	.L41:
 923              		.loc 4 546 3 is_stmt 0 view .LVU197
 924              	.LBE150:
 925              	.LBE149:
 926              	.LBE151:
 927              	.LBE152:
 928              	.LBE154:
 929              		.loc 1 233 1 view .LVU198
 930 008c 094B     		ldr	r3, .L53
 931 008e 1A68     		ldr	r2, [r3]
 932 0090 039B     		ldr	r3, [sp, #12]
 933 0092 5A40     		eors	r2, r3, r2
 934 0094 0BD1     		bne	.L52
 935 0096 2046     		mov	r0, r4
 936 0098 05B0     		add	sp, sp, #20
 937              		.cfi_remember_state
 938              		.cfi_def_cfa_offset 28
 939              		@ sp needed
 940 009a BDE8F083 		pop	{r4, r5, r6, r7, r8, r9, pc}
 941              	.LVL68:
 942              	.L51:
 943              		.cfi_restore_state
 944              	.LBB155:
 945              	.LBB153:
 946              		.loc 2 367 3 is_stmt 1 view .LVU199
 947 009e 0748     		ldr	r0, .L53+8
 948 00a0 FFF7FEFF 		bl	chSysHalt
 949              	.LVL69:
 950 00a4 EFE7     		b	.L44
 951              	.LVL70:
 952              	.L50:
 953              		.loc 2 367 3 is_stmt 0 view .LVU200
 954              	.LBE153:
 955              	.LBE155:
 956              		.loc 1 209 3 is_stmt 1 discriminator 3 view .LVU201
 957 00a6 0648     		ldr	r0, .L53+12
 958              	.LVL71:
 959              		.loc 1 209 3 is_stmt 0 discriminator 3 view .LVU202
 960 00a8 FFF7FEFF 		bl	chSysHalt
 961              	.LVL72:
 962              		.loc 1 209 3 discriminator 3 view .LVU203
 963 00ac B6E7     		b	.L42
 964              	.L52:
 965              		.loc 1 233 1 view .LVU204
 966 00ae FFF7FEFF 		bl	__stack_chk_fail
 967              	.LVL73:
 968              	.L54:
 969 00b2 00BF     		.align	2
ARM GAS  /tmp/ccXSf789.s 			page 18


 970              	.L53:
 971 00b4 00000000 		.word	.LC3
 972 00b8 00000000 		.word	ch
 973 00bc 00000000 		.word	.LANCHOR1
 974 00c0 00000000 		.word	.LANCHOR3
 975              		.cfi_endproc
 976              	.LFE222:
 977              		.size	chThdCreateFromMemoryPool, .-chThdCreateFromMemoryPool
 978              		.section	.rodata.__func__.7261,"a"
 979              		.align	2
 980              		.set	.LANCHOR1,. + 0
 981              		.type	__func__.7261, %object
 982              		.size	__func__.7261, 12
 983              	__func__.7261:
 984 0000 63685379 		.ascii	"chSysUnlock\000"
 984      73556E6C 
 984      6F636B00 
 985              		.section	.rodata.__func__.7957,"a"
 986              		.align	2
 987              		.set	.LANCHOR0,. + 0
 988              		.type	__func__.7957, %object
 989              		.size	__func__.7957, 12
 990              	__func__.7957:
 991 0000 63685468 		.ascii	"chThdAddRef\000"
 991      64416464 
 991      52656600 
 992              		.section	.rodata.__func__.7962,"a"
 993              		.align	2
 994              		.set	.LANCHOR2,. + 0
 995              		.type	__func__.7962, %object
 996              		.size	__func__.7962, 13
 997              	__func__.7962:
 998 0000 63685468 		.ascii	"chThdRelease\000"
 998      6452656C 
 998      65617365 
 998      00
 999              		.section	.rodata.__func__.7984,"a"
 1000              		.align	2
 1001              		.set	.LANCHOR3,. + 0
 1002              		.type	__func__.7984, %object
 1003              		.size	__func__.7984, 26
 1004              	__func__.7984:
 1005 0000 63685468 		.ascii	"chThdCreateFromMemoryPool\000"
 1005      64437265 
 1005      61746546 
 1005      726F6D4D 
 1005      656D6F72 
 1006              		.text
 1007              	.Letext0:
 1008              		.file 5 "/usr/lib/gcc/arm-none-eabi/9.2.1/include/stddef.h"
 1009              		.file 6 "/usr/lib/gcc/arm-none-eabi/9.2.1/include/stdint.h"
 1010              		.file 7 ".//ChibiOS//os/rt/ports/ARMCMx/compilers/GCC/chtypes.h"
 1011              		.file 8 ".//ChibiOS//os/rt/include/chsystypes.h"
 1012              		.file 9 ".//ChibiOS//os/rt/include/chschd.h"
 1013              		.file 10 ".//ChibiOS//os/ext/CMSIS/include/core_cm4.h"
 1014              		.file 11 ".//ChibiOS//os/ext/CMSIS/ST/system_stm32f4xx.h"
 1015              		.file 12 ".//ChibiOS//os/rt/ports/ARMCMx/chcore.h"
ARM GAS  /tmp/ccXSf789.s 			page 19


 1016              		.file 13 ".//ChibiOS//os/rt/include/chdebug.h"
 1017              		.file 14 ".//ChibiOS//os/rt/include/chtm.h"
 1018              		.file 15 ".//ChibiOS//os/rt/include/chstats.h"
 1019              		.file 16 ".//ChibiOS//os/rt/include/chsem.h"
 1020              		.file 17 ".//ChibiOS//os/rt/include/chmtx.h"
 1021              		.file 18 ".//ChibiOS//os/rt/include/chthreads.h"
 1022              		.file 19 ".//ChibiOS//os/rt/include/chregistry.h"
 1023              		.file 20 ".//ChibiOS//os/rt/include/chmemcore.h"
 1024              		.file 21 ".//ChibiOS//os/rt/include/chheap.h"
 1025              		.file 22 ".//ChibiOS//os/rt/include/chmempools.h"