ARM GAS  /tmp/cccp0e2D.s 			page 1


   1              		.cpu cortex-m4
   2              		.eabi_attribute 27, 1
   3              		.eabi_attribute 28, 1
   4              		.eabi_attribute 20, 1
   5              		.eabi_attribute 21, 1
   6              		.eabi_attribute 23, 3
   7              		.eabi_attribute 24, 1
   8              		.eabi_attribute 25, 1
   9              		.eabi_attribute 26, 1
  10              		.eabi_attribute 30, 2
  11              		.eabi_attribute 34, 1
  12              		.eabi_attribute 18, 4
  13              		.file	"chevents.c"
  14              		.text
  15              	.Ltext0:
  16              		.cfi_sections	.debug_frame
  17              		.section	.rodata.chEvtRegisterMaskWithFlags.cst4,"aM",%progbits,4
  18              		.align	2
  19              	.LC0:
  20 0000 00000000 		.word	__stack_chk_guard
  21              		.section	.text.chEvtRegisterMaskWithFlags,"ax",%progbits
  22              		.align	1
  23              		.p2align 4,,15
  24              		.global	chEvtRegisterMaskWithFlags
  25              		.arch armv7e-m
  26              		.syntax unified
  27              		.thumb
  28              		.thumb_func
  29              		.fpu fpv4-sp-d16
  30              		.type	chEvtRegisterMaskWithFlags, %function
  31              	chEvtRegisterMaskWithFlags:
  32              	.LVL0:
  33              	.LFB219:
  34              		.file 1 ".//ChibiOS//os/rt/src/chevents.c"
  35              		.loc 1 106 54 view -0
  36              		.cfi_startproc
  37              		@ args = 0, pretend = 0, frame = 8
  38              		@ frame_needed = 0, uses_anonymous_args = 0
  39              		.loc 1 106 54 is_stmt 0 view .LVU1
  40 0000 2DE9F041 		push	{r4, r5, r6, r7, r8, lr}
  41              		.cfi_def_cfa_offset 24
  42              		.cfi_offset 4, -24
  43              		.cfi_offset 5, -20
  44              		.cfi_offset 6, -16
  45              		.cfi_offset 7, -12
  46              		.cfi_offset 8, -8
  47              		.cfi_offset 14, -4
  48 0004 1F46     		mov	r7, r3
  49 0006 1F4B     		ldr	r3, .L13
  50              	.LVL1:
  51              		.loc 1 106 54 view .LVU2
  52 0008 82B0     		sub	sp, sp, #8
  53              		.cfi_def_cfa_offset 32
  54              		.loc 1 106 54 view .LVU3
  55 000a 0C46     		mov	r4, r1
  56 000c 9046     		mov	r8, r2
  57 000e 1B68     		ldr	r3, [r3]
ARM GAS  /tmp/cccp0e2D.s 			page 2


  58 0010 0193     		str	r3, [sp, #4]
  59 0012 4FF00003 		mov	r3,#0
  60              		.loc 1 108 3 is_stmt 1 view .LVU4
  61              		.loc 1 108 3 view .LVU5
  62              		.loc 1 108 3 view .LVU6
  63 0016 0546     		mov	r5, r0
  64 0018 68B3     		cbz	r0, .L2
  65              		.loc 1 108 3 is_stmt 0 discriminator 4 view .LVU7
  66 001a 61B3     		cbz	r1, .L2
  67              	.LVL2:
  68              	.L3:
  69              		.loc 1 108 3 is_stmt 1 discriminator 7 view .LVU8
  70              		.loc 1 110 3 discriminator 7 view .LVU9
  71              	.LBB89:
  72              	.LBI89:
  73              		.file 2 ".//ChibiOS//os/rt/include/chsys.h"
  74              		.loc 2 346 20 discriminator 7 view .LVU10
  75              	.LBB90:
  76              		.loc 2 348 3 discriminator 7 view .LVU11
  77              	.LBB91:
  78              	.LBI91:
  79              		.file 3 ".//ChibiOS//os/rt/ports/ARMCMx/chcore_v7m.h"
  80              		.loc 3 444 20 discriminator 7 view .LVU12
  81              	.LBE91:
  82              	.LBE90:
  83              	.LBE89:
  84              		.loc 3 447 3 discriminator 7 view .LVU13
  85              	.LBB97:
  86              	.LBB95:
  87              	.LBB94:
  88              	.LBB92:
  89              	.LBI92:
  90              		.file 4 ".//ChibiOS//os/ext/CMSIS/include/core_cmFunc.h"
  91              		.loc 4 544 57 discriminator 7 view .LVU14
  92              	.LBB93:
  93              		.loc 4 546 3 discriminator 7 view .LVU15
  94 001c 2023     		movs	r3, #32
  95              		.syntax unified
  96              	@ 546 ".//ChibiOS//os/ext/CMSIS/include/core_cmFunc.h" 1
  97 001e 83F31188 		MSR basepri, r3
  98              	@ 0 "" 2
  99              	.LVL3:
 100              		.loc 4 546 3 is_stmt 0 discriminator 7 view .LVU16
 101              		.thumb
 102              		.syntax unified
 103              	.LBE93:
 104              	.LBE92:
 105              	.LBE94:
 106              		.loc 2 349 3 is_stmt 1 discriminator 7 view .LVU17
 107 0022 FFF7FEFF 		bl	_stats_start_measure_crit_thd
 108              	.LVL4:
 109              		.loc 2 350 3 discriminator 7 view .LVU18
 110              	.LBE95:
 111              	.LBE97:
 112              		.loc 1 113 22 is_stmt 0 discriminator 7 view .LVU19
 113 0026 184E     		ldr	r6, .L13+4
 114              	.LBB98:
ARM GAS  /tmp/cccp0e2D.s 			page 3


 115              	.LBB96:
 116              		.loc 2 350 3 discriminator 7 view .LVU20
 117 0028 FFF7FEFF 		bl	_dbg_check_lock
 118              	.LVL5:
 119              	.LBE96:
 120              	.LBE98:
 121              		.loc 1 111 3 is_stmt 1 discriminator 7 view .LVU21
 122              		.loc 1 111 25 is_stmt 0 discriminator 7 view .LVU22
 123 002c 2B68     		ldr	r3, [r5]
 124              		.loc 1 111 20 discriminator 7 view .LVU23
 125 002e 2360     		str	r3, [r4]
 126              		.loc 1 112 3 is_stmt 1 discriminator 7 view .LVU24
 127              		.loc 1 112 20 is_stmt 0 discriminator 7 view .LVU25
 128 0030 2C60     		str	r4, [r5]
 129              		.loc 1 113 3 is_stmt 1 discriminator 7 view .LVU26
 130              		.loc 1 113 22 is_stmt 0 discriminator 7 view .LVU27
 131 0032 B369     		ldr	r3, [r6, #24]
 132              		.loc 1 113 20 discriminator 7 view .LVU28
 133 0034 6360     		str	r3, [r4, #4]
 134              		.loc 1 114 3 is_stmt 1 discriminator 7 view .LVU29
 135              		.loc 1 115 20 is_stmt 0 discriminator 7 view .LVU30
 136 0036 0023     		movs	r3, #0
 137 0038 C4E90337 		strd	r3, r7, [r4, #12]
 138              		.loc 1 114 20 discriminator 7 view .LVU31
 139 003c C4F80880 		str	r8, [r4, #8]
 140              		.loc 1 115 3 is_stmt 1 discriminator 7 view .LVU32
 141              		.loc 1 116 3 discriminator 7 view .LVU33
 142              		.loc 1 117 3 discriminator 7 view .LVU34
 143              	.LBB99:
 144              	.LBI99:
 145              		.loc 2 358 20 discriminator 7 view .LVU35
 146              	.LBB100:
 147              		.loc 2 360 3 discriminator 7 view .LVU36
 148 0040 FFF7FEFF 		bl	_dbg_check_unlock
 149              	.LVL6:
 150              		.loc 2 361 3 discriminator 7 view .LVU37
 151 0044 FFF7FEFF 		bl	_stats_stop_measure_crit_thd
 152              	.LVL7:
 153              		.loc 2 367 3 discriminator 7 view .LVU38
 154              		.loc 2 367 3 discriminator 7 view .LVU39
 155              		.loc 2 367 3 discriminator 7 view .LVU40
 156 0048 3368     		ldr	r3, [r6]
 157 004a B342     		cmp	r3, r6
 158 004c 04D0     		beq	.L4
 159              		.loc 2 367 3 is_stmt 0 view .LVU41
 160 004e B269     		ldr	r2, [r6, #24]
 161 0050 9B68     		ldr	r3, [r3, #8]
 162 0052 9268     		ldr	r2, [r2, #8]
 163 0054 9A42     		cmp	r2, r3
 164 0056 0AD3     		bcc	.L11
 165              	.L4:
 166              		.loc 2 367 3 is_stmt 1 view .LVU42
 167              		.loc 2 371 3 view .LVU43
 168              	.LBB101:
 169              	.LBI101:
 170              		.loc 3 458 20 view .LVU44
 171              	.LBE101:
ARM GAS  /tmp/cccp0e2D.s 			page 4


 172              	.LBE100:
 173              	.LBE99:
 174              		.loc 3 461 3 view .LVU45
 175              	.LVL8:
 176              	.LBB107:
 177              	.LBB105:
 178              	.LBB104:
 179              	.LBB102:
 180              	.LBI102:
 181              		.loc 4 544 57 view .LVU46
 182              	.LBB103:
 183              		.loc 4 546 3 view .LVU47
 184 0058 0023     		movs	r3, #0
 185              		.syntax unified
 186              	@ 546 ".//ChibiOS//os/ext/CMSIS/include/core_cmFunc.h" 1
 187 005a 83F31188 		MSR basepri, r3
 188              	@ 0 "" 2
 189              	.LVL9:
 190              		.loc 4 546 3 is_stmt 0 view .LVU48
 191              		.thumb
 192              		.syntax unified
 193              	.LBE103:
 194              	.LBE102:
 195              	.LBE104:
 196              	.LBE105:
 197              	.LBE107:
 198              		.loc 1 118 1 view .LVU49
 199 005e 094B     		ldr	r3, .L13
 200 0060 1A68     		ldr	r2, [r3]
 201 0062 019B     		ldr	r3, [sp, #4]
 202 0064 5A40     		eors	r2, r3, r2
 203 0066 0AD1     		bne	.L12
 204 0068 02B0     		add	sp, sp, #8
 205              		.cfi_remember_state
 206              		.cfi_def_cfa_offset 24
 207              		@ sp needed
 208 006a BDE8F081 		pop	{r4, r5, r6, r7, r8, pc}
 209              	.LVL10:
 210              	.L11:
 211              		.cfi_restore_state
 212              	.LBB108:
 213              	.LBB106:
 214              		.loc 2 367 3 is_stmt 1 view .LVU50
 215 006e 0748     		ldr	r0, .L13+8
 216 0070 FFF7FEFF 		bl	chSysHalt
 217              	.LVL11:
 218 0074 F0E7     		b	.L4
 219              	.LVL12:
 220              	.L2:
 221              		.loc 2 367 3 is_stmt 0 view .LVU51
 222              	.LBE106:
 223              	.LBE108:
 224              		.loc 1 108 3 is_stmt 1 discriminator 5 view .LVU52
 225 0076 0648     		ldr	r0, .L13+12
 226              	.LVL13:
 227              		.loc 1 108 3 is_stmt 0 discriminator 5 view .LVU53
 228 0078 FFF7FEFF 		bl	chSysHalt
ARM GAS  /tmp/cccp0e2D.s 			page 5


 229              	.LVL14:
 230              		.loc 1 108 3 discriminator 5 view .LVU54
 231 007c CEE7     		b	.L3
 232              	.L12:
 233              		.loc 1 118 1 view .LVU55
 234 007e FFF7FEFF 		bl	__stack_chk_fail
 235              	.LVL15:
 236              	.L14:
 237 0082 00BF     		.align	2
 238              	.L13:
 239 0084 00000000 		.word	.LC0
 240 0088 00000000 		.word	ch
 241 008c 00000000 		.word	.LANCHOR1
 242 0090 00000000 		.word	.LANCHOR0
 243              		.cfi_endproc
 244              	.LFE219:
 245              		.size	chEvtRegisterMaskWithFlags, .-chEvtRegisterMaskWithFlags
 246              		.section	.rodata.chEvtUnregister.cst4,"aM",%progbits,4
 247              		.align	2
 248              	.LC1:
 249 0000 00000000 		.word	__stack_chk_guard
 250              		.section	.text.chEvtUnregister,"ax",%progbits
 251              		.align	1
 252              		.p2align 4,,15
 253              		.global	chEvtUnregister
 254              		.syntax unified
 255              		.thumb
 256              		.thumb_func
 257              		.fpu fpv4-sp-d16
 258              		.type	chEvtUnregister, %function
 259              	chEvtUnregister:
 260              	.LVL16:
 261              	.LFB220:
 262              		.loc 1 133 66 is_stmt 1 view -0
 263              		.cfi_startproc
 264              		@ args = 0, pretend = 0, frame = 8
 265              		@ frame_needed = 0, uses_anonymous_args = 0
 266              		.loc 1 133 66 is_stmt 0 view .LVU57
 267 0000 30B5     		push	{r4, r5, lr}
 268              		.cfi_def_cfa_offset 12
 269              		.cfi_offset 4, -12
 270              		.cfi_offset 5, -8
 271              		.cfi_offset 14, -4
 272 0002 1E4B     		ldr	r3, .L31
 273 0004 83B0     		sub	sp, sp, #12
 274              		.cfi_def_cfa_offset 24
 275              		.loc 1 133 66 view .LVU58
 276 0006 0D46     		mov	r5, r1
 277 0008 1B68     		ldr	r3, [r3]
 278 000a 0193     		str	r3, [sp, #4]
 279 000c 4FF00003 		mov	r3,#0
 280              		.loc 1 134 3 is_stmt 1 view .LVU59
 281              		.loc 1 136 3 view .LVU60
 282              		.loc 1 136 3 view .LVU61
 283              		.loc 1 136 3 view .LVU62
 284 0010 0446     		mov	r4, r0
 285 0012 68B3     		cbz	r0, .L16
ARM GAS  /tmp/cccp0e2D.s 			page 6


 286              		.loc 1 136 3 is_stmt 0 discriminator 4 view .LVU63
 287 0014 61B3     		cbz	r1, .L16
 288              	.LVL17:
 289              	.L17:
 290              		.loc 1 136 3 is_stmt 1 discriminator 7 view .LVU64
 291              		.loc 1 139 3 discriminator 7 view .LVU65
 292              		.loc 1 141 3 discriminator 7 view .LVU66
 293              	.LBB119:
 294              	.LBI119:
 295              		.loc 2 346 20 discriminator 7 view .LVU67
 296              	.LBB120:
 297              		.loc 2 348 3 discriminator 7 view .LVU68
 298              	.LBB121:
 299              	.LBI121:
 300              		.loc 3 444 20 discriminator 7 view .LVU69
 301              	.LBE121:
 302              	.LBE120:
 303              	.LBE119:
 304              		.loc 3 447 3 discriminator 7 view .LVU70
 305              	.LBB126:
 306              	.LBB125:
 307              	.LBB124:
 308              	.LBB122:
 309              	.LBI122:
 310              		.loc 4 544 57 discriminator 7 view .LVU71
 311              	.LBB123:
 312              		.loc 4 546 3 discriminator 7 view .LVU72
 313 0016 2023     		movs	r3, #32
 314              		.syntax unified
 315              	@ 546 ".//ChibiOS//os/ext/CMSIS/include/core_cmFunc.h" 1
 316 0018 83F31188 		MSR basepri, r3
 317              	@ 0 "" 2
 318              	.LVL18:
 319              		.loc 4 546 3 is_stmt 0 discriminator 7 view .LVU73
 320              		.thumb
 321              		.syntax unified
 322              	.LBE123:
 323              	.LBE122:
 324              	.LBE124:
 325              		.loc 2 349 3 is_stmt 1 discriminator 7 view .LVU74
 326 001c FFF7FEFF 		bl	_stats_start_measure_crit_thd
 327              	.LVL19:
 328              		.loc 2 350 3 discriminator 7 view .LVU75
 329 0020 FFF7FEFF 		bl	_dbg_check_lock
 330              	.LVL20:
 331              		.loc 2 351 1 is_stmt 0 discriminator 7 view .LVU76
 332 0024 2346     		mov	r3, r4
 333 0026 01E0     		b	.L18
 334              	.LVL21:
 335              	.L20:
 336              		.loc 2 351 1 discriminator 7 view .LVU77
 337              	.LBE125:
 338              	.LBE126:
 339              		.loc 1 145 5 is_stmt 1 view .LVU78
 340              		.loc 1 145 8 is_stmt 0 view .LVU79
 341 0028 AB42     		cmp	r3, r5
 342 002a 1ED0     		beq	.L28
ARM GAS  /tmp/cccp0e2D.s 			page 7


 343              	.LVL22:
 344              	.L18:
 345              		.loc 1 143 9 is_stmt 1 view .LVU80
 346 002c 1A46     		mov	r2, r3
 347              		.loc 1 143 11 is_stmt 0 view .LVU81
 348 002e 1B68     		ldr	r3, [r3]
 349              	.LVL23:
 350              		.loc 1 143 9 view .LVU82
 351 0030 A342     		cmp	r3, r4
 352 0032 F9D1     		bne	.L20
 353              	.L19:
 354              		.loc 1 151 3 is_stmt 1 view .LVU83
 355              	.LBB127:
 356              	.LBI127:
 357              		.loc 2 358 20 view .LVU84
 358              	.LBB128:
 359              		.loc 2 360 3 view .LVU85
 360 0034 FFF7FEFF 		bl	_dbg_check_unlock
 361              	.LVL24:
 362              		.loc 2 361 3 view .LVU86
 363 0038 FFF7FEFF 		bl	_stats_stop_measure_crit_thd
 364              	.LVL25:
 365              		.loc 2 367 3 view .LVU87
 366              		.loc 2 367 3 view .LVU88
 367              		.loc 2 367 3 view .LVU89
 368 003c 104B     		ldr	r3, .L31+4
 369 003e 1A68     		ldr	r2, [r3]
 370 0040 9A42     		cmp	r2, r3
 371 0042 04D0     		beq	.L21
 372 0044 9969     		ldr	r1, [r3, #24]
 373 0046 9368     		ldr	r3, [r2, #8]
 374 0048 8A68     		ldr	r2, [r1, #8]
 375 004a 9A42     		cmp	r2, r3
 376 004c 09D3     		bcc	.L29
 377              	.L21:
 378              		.loc 2 367 3 view .LVU90
 379              		.loc 2 371 3 view .LVU91
 380              	.LBB129:
 381              	.LBI129:
 382              		.loc 3 458 20 view .LVU92
 383              	.LBE129:
 384              	.LBE128:
 385              	.LBE127:
 386              		.loc 3 461 3 view .LVU93
 387              	.LVL26:
 388              	.LBB135:
 389              	.LBB133:
 390              	.LBB132:
 391              	.LBB130:
 392              	.LBI130:
 393              		.loc 4 544 57 view .LVU94
 394              	.LBB131:
 395              		.loc 4 546 3 view .LVU95
 396 004e 0023     		movs	r3, #0
 397              		.syntax unified
 398              	@ 546 ".//ChibiOS//os/ext/CMSIS/include/core_cmFunc.h" 1
 399 0050 83F31188 		MSR basepri, r3
ARM GAS  /tmp/cccp0e2D.s 			page 8


 400              	@ 0 "" 2
 401              	.LVL27:
 402              		.loc 4 546 3 is_stmt 0 view .LVU96
 403              		.thumb
 404              		.syntax unified
 405              	.LBE131:
 406              	.LBE130:
 407              	.LBE132:
 408              	.LBE133:
 409              	.LBE135:
 410              		.loc 1 152 1 view .LVU97
 411 0054 094B     		ldr	r3, .L31
 412 0056 1A68     		ldr	r2, [r3]
 413 0058 019B     		ldr	r3, [sp, #4]
 414 005a 5A40     		eors	r2, r3, r2
 415 005c 0CD1     		bne	.L30
 416 005e 03B0     		add	sp, sp, #12
 417              		.cfi_remember_state
 418              		.cfi_def_cfa_offset 12
 419              		@ sp needed
 420 0060 30BD     		pop	{r4, r5, pc}
 421              	.LVL28:
 422              	.L29:
 423              		.cfi_restore_state
 424              	.LBB136:
 425              	.LBB134:
 426              		.loc 2 367 3 is_stmt 1 view .LVU98
 427 0062 0848     		ldr	r0, .L31+8
 428 0064 FFF7FEFF 		bl	chSysHalt
 429              	.LVL29:
 430 0068 F1E7     		b	.L21
 431              	.LVL30:
 432              	.L28:
 433              		.loc 2 367 3 is_stmt 0 view .LVU99
 434              	.LBE134:
 435              	.LBE136:
 436              		.loc 1 146 7 is_stmt 1 view .LVU100
 437              		.loc 1 146 23 is_stmt 0 view .LVU101
 438 006a 1B68     		ldr	r3, [r3]
 439              		.loc 1 146 18 view .LVU102
 440 006c 1360     		str	r3, [r2]
 441              		.loc 1 147 7 is_stmt 1 view .LVU103
 442 006e E1E7     		b	.L19
 443              	.LVL31:
 444              	.L16:
 445              		.loc 1 136 3 discriminator 5 view .LVU104
 446 0070 0548     		ldr	r0, .L31+12
 447              	.LVL32:
 448              		.loc 1 136 3 is_stmt 0 discriminator 5 view .LVU105
 449 0072 FFF7FEFF 		bl	chSysHalt
 450              	.LVL33:
 451              		.loc 1 136 3 discriminator 5 view .LVU106
 452 0076 CEE7     		b	.L17
 453              	.L30:
 454              		.loc 1 152 1 view .LVU107
 455 0078 FFF7FEFF 		bl	__stack_chk_fail
 456              	.LVL34:
ARM GAS  /tmp/cccp0e2D.s 			page 9


 457              	.L32:
 458              		.align	2
 459              	.L31:
 460 007c 00000000 		.word	.LC1
 461 0080 00000000 		.word	ch
 462 0084 00000000 		.word	.LANCHOR1
 463 0088 00000000 		.word	.LANCHOR2
 464              		.cfi_endproc
 465              	.LFE220:
 466              		.size	chEvtUnregister, .-chEvtUnregister
 467              		.section	.rodata.chEvtGetAndClearEvents.cst4,"aM",%progbits,4
 468              		.align	2
 469              	.LC2:
 470 0000 00000000 		.word	__stack_chk_guard
 471              		.section	.text.chEvtGetAndClearEvents,"ax",%progbits
 472              		.align	1
 473              		.p2align 4,,15
 474              		.global	chEvtGetAndClearEvents
 475              		.syntax unified
 476              		.thumb
 477              		.thumb_func
 478              		.fpu fpv4-sp-d16
 479              		.type	chEvtGetAndClearEvents, %function
 480              	chEvtGetAndClearEvents:
 481              	.LVL35:
 482              	.LFB221:
 483              		.loc 1 162 56 is_stmt 1 view -0
 484              		.cfi_startproc
 485              		@ args = 0, pretend = 0, frame = 8
 486              		@ frame_needed = 0, uses_anonymous_args = 0
 487              		.loc 1 162 56 is_stmt 0 view .LVU109
 488 0000 30B5     		push	{r4, r5, lr}
 489              		.cfi_def_cfa_offset 12
 490              		.cfi_offset 4, -12
 491              		.cfi_offset 5, -8
 492              		.cfi_offset 14, -4
 493 0002 194B     		ldr	r3, .L39
 494 0004 83B0     		sub	sp, sp, #12
 495              		.cfi_def_cfa_offset 24
 496              		.loc 1 162 56 view .LVU110
 497 0006 1B68     		ldr	r3, [r3]
 498 0008 0193     		str	r3, [sp, #4]
 499 000a 4FF00003 		mov	r3,#0
 500              		.loc 1 163 3 is_stmt 1 view .LVU111
 501              		.loc 1 165 3 view .LVU112
 502              	.LBB147:
 503              	.LBI147:
 504              		.loc 2 346 20 view .LVU113
 505              	.LBB148:
 506              		.loc 2 348 3 view .LVU114
 507              	.LBB149:
 508              	.LBI149:
 509              		.loc 3 444 20 view .LVU115
 510              	.LBE149:
 511              	.LBE148:
 512              	.LBE147:
 513              		.loc 3 447 3 view .LVU116
ARM GAS  /tmp/cccp0e2D.s 			page 10


 514              	.LVL36:
 515              	.LBB159:
 516              	.LBB156:
 517              	.LBB154:
 518              	.LBB150:
 519              	.LBI150:
 520              		.loc 4 544 57 view .LVU117
 521              	.LBB151:
 522              		.loc 4 546 3 view .LVU118
 523              	.LBE151:
 524              	.LBE150:
 525              	.LBE154:
 526              	.LBE156:
 527              	.LBE159:
 528              		.loc 1 162 56 is_stmt 0 view .LVU119
 529 000e 0446     		mov	r4, r0
 530              	.LBB160:
 531              	.LBB157:
 532              	.LBB155:
 533              	.LBB153:
 534              	.LBB152:
 535              		.loc 4 546 3 view .LVU120
 536 0010 2023     		movs	r3, #32
 537              		.syntax unified
 538              	@ 546 ".//ChibiOS//os/ext/CMSIS/include/core_cmFunc.h" 1
 539 0012 83F31188 		MSR basepri, r3
 540              	@ 0 "" 2
 541              	.LVL37:
 542              		.loc 4 546 3 view .LVU121
 543              		.thumb
 544              		.syntax unified
 545              	.LBE152:
 546              	.LBE153:
 547              	.LBE155:
 548              		.loc 2 349 3 is_stmt 1 view .LVU122
 549              	.LBE157:
 550              	.LBE160:
 551              		.loc 1 166 7 is_stmt 0 view .LVU123
 552 0016 154D     		ldr	r5, .L39+4
 553              	.LBB161:
 554              	.LBB158:
 555              		.loc 2 349 3 view .LVU124
 556 0018 FFF7FEFF 		bl	_stats_start_measure_crit_thd
 557              	.LVL38:
 558              		.loc 2 350 3 is_stmt 1 view .LVU125
 559 001c FFF7FEFF 		bl	_dbg_check_lock
 560              	.LVL39:
 561              	.LBE158:
 562              	.LBE161:
 563              		.loc 1 166 3 view .LVU126
 564              		.loc 1 166 7 is_stmt 0 view .LVU127
 565 0020 AB69     		ldr	r3, [r5, #24]
 566              		.loc 1 166 12 view .LVU128
 567 0022 D86B     		ldr	r0, [r3, #60]
 568              		.loc 1 167 21 view .LVU129
 569 0024 20EA0402 		bic	r2, r0, r4
 570 0028 DA63     		str	r2, [r3, #60]
ARM GAS  /tmp/cccp0e2D.s 			page 11


 571              		.loc 1 166 5 view .LVU130
 572 002a 0440     		ands	r4, r4, r0
 573              	.LVL40:
 574              		.loc 1 167 3 is_stmt 1 view .LVU131
 575              		.loc 1 168 3 view .LVU132
 576              	.LBB162:
 577              	.LBI162:
 578              		.loc 2 358 20 view .LVU133
 579              	.LBB163:
 580              		.loc 2 360 3 view .LVU134
 581 002c FFF7FEFF 		bl	_dbg_check_unlock
 582              	.LVL41:
 583              		.loc 2 361 3 view .LVU135
 584 0030 FFF7FEFF 		bl	_stats_stop_measure_crit_thd
 585              	.LVL42:
 586              		.loc 2 367 3 view .LVU136
 587              		.loc 2 367 3 view .LVU137
 588              		.loc 2 367 3 view .LVU138
 589 0034 2B68     		ldr	r3, [r5]
 590 0036 AB42     		cmp	r3, r5
 591 0038 04D0     		beq	.L34
 592 003a AA69     		ldr	r2, [r5, #24]
 593 003c 9B68     		ldr	r3, [r3, #8]
 594 003e 9268     		ldr	r2, [r2, #8]
 595 0040 9A42     		cmp	r2, r3
 596 0042 0AD3     		bcc	.L37
 597              	.L34:
 598              		.loc 2 367 3 view .LVU139
 599              		.loc 2 371 3 view .LVU140
 600              	.LBB164:
 601              	.LBI164:
 602              		.loc 3 458 20 view .LVU141
 603              	.LBE164:
 604              	.LBE163:
 605              	.LBE162:
 606              		.loc 3 461 3 view .LVU142
 607              	.LVL43:
 608              	.LBB170:
 609              	.LBB168:
 610              	.LBB167:
 611              	.LBB165:
 612              	.LBI165:
 613              		.loc 4 544 57 view .LVU143
 614              	.LBB166:
 615              		.loc 4 546 3 view .LVU144
 616 0044 0023     		movs	r3, #0
 617              		.syntax unified
 618              	@ 546 ".//ChibiOS//os/ext/CMSIS/include/core_cmFunc.h" 1
 619 0046 83F31188 		MSR basepri, r3
 620              	@ 0 "" 2
 621              	.LVL44:
 622              		.loc 4 546 3 is_stmt 0 view .LVU145
 623              		.thumb
 624              		.syntax unified
 625              	.LBE166:
 626              	.LBE165:
 627              	.LBE167:
ARM GAS  /tmp/cccp0e2D.s 			page 12


 628              	.LBE168:
 629              	.LBE170:
 630              		.loc 1 170 3 is_stmt 1 view .LVU146
 631              		.loc 1 171 1 is_stmt 0 view .LVU147
 632 004a 074B     		ldr	r3, .L39
 633 004c 1A68     		ldr	r2, [r3]
 634 004e 019B     		ldr	r3, [sp, #4]
 635 0050 5A40     		eors	r2, r3, r2
 636 0052 06D1     		bne	.L38
 637 0054 2046     		mov	r0, r4
 638 0056 03B0     		add	sp, sp, #12
 639              		.cfi_remember_state
 640              		.cfi_def_cfa_offset 12
 641              		@ sp needed
 642 0058 30BD     		pop	{r4, r5, pc}
 643              	.LVL45:
 644              	.L37:
 645              		.cfi_restore_state
 646              	.LBB171:
 647              	.LBB169:
 648              		.loc 2 367 3 is_stmt 1 view .LVU148
 649 005a 0548     		ldr	r0, .L39+8
 650 005c FFF7FEFF 		bl	chSysHalt
 651              	.LVL46:
 652 0060 F0E7     		b	.L34
 653              	.L38:
 654              	.LBE169:
 655              	.LBE171:
 656              		.loc 1 171 1 is_stmt 0 view .LVU149
 657 0062 FFF7FEFF 		bl	__stack_chk_fail
 658              	.LVL47:
 659              	.L40:
 660 0066 00BF     		.align	2
 661              	.L39:
 662 0068 00000000 		.word	.LC2
 663 006c 00000000 		.word	ch
 664 0070 00000000 		.word	.LANCHOR1
 665              		.cfi_endproc
 666              	.LFE221:
 667              		.size	chEvtGetAndClearEvents, .-chEvtGetAndClearEvents
 668              		.section	.rodata.chEvtAddEvents.cst4,"aM",%progbits,4
 669              		.align	2
 670              	.LC3:
 671 0000 00000000 		.word	__stack_chk_guard
 672              		.section	.text.chEvtAddEvents,"ax",%progbits
 673              		.align	1
 674              		.p2align 4,,15
 675              		.global	chEvtAddEvents
 676              		.syntax unified
 677              		.thumb
 678              		.thumb_func
 679              		.fpu fpv4-sp-d16
 680              		.type	chEvtAddEvents, %function
 681              	chEvtAddEvents:
 682              	.LVL48:
 683              	.LFB222:
 684              		.loc 1 182 48 is_stmt 1 view -0
ARM GAS  /tmp/cccp0e2D.s 			page 13


 685              		.cfi_startproc
 686              		@ args = 0, pretend = 0, frame = 8
 687              		@ frame_needed = 0, uses_anonymous_args = 0
 688              		.loc 1 182 48 is_stmt 0 view .LVU151
 689 0000 30B5     		push	{r4, r5, lr}
 690              		.cfi_def_cfa_offset 12
 691              		.cfi_offset 4, -12
 692              		.cfi_offset 5, -8
 693              		.cfi_offset 14, -4
 694 0002 184B     		ldr	r3, .L47
 695 0004 83B0     		sub	sp, sp, #12
 696              		.cfi_def_cfa_offset 24
 697              		.loc 1 182 48 view .LVU152
 698 0006 1B68     		ldr	r3, [r3]
 699 0008 0193     		str	r3, [sp, #4]
 700 000a 4FF00003 		mov	r3,#0
 701              		.loc 1 184 3 is_stmt 1 view .LVU153
 702              	.LBB182:
 703              	.LBI182:
 704              		.loc 2 346 20 view .LVU154
 705              	.LBB183:
 706              		.loc 2 348 3 view .LVU155
 707              	.LBB184:
 708              	.LBI184:
 709              		.loc 3 444 20 view .LVU156
 710              	.LBE184:
 711              	.LBE183:
 712              	.LBE182:
 713              		.loc 3 447 3 view .LVU157
 714              	.LVL49:
 715              	.LBB194:
 716              	.LBB191:
 717              	.LBB189:
 718              	.LBB185:
 719              	.LBI185:
 720              		.loc 4 544 57 view .LVU158
 721              	.LBB186:
 722              		.loc 4 546 3 view .LVU159
 723              	.LBE186:
 724              	.LBE185:
 725              	.LBE189:
 726              	.LBE191:
 727              	.LBE194:
 728              		.loc 1 182 48 is_stmt 0 view .LVU160
 729 000e 0446     		mov	r4, r0
 730              	.LBB195:
 731              	.LBB192:
 732              	.LBB190:
 733              	.LBB188:
 734              	.LBB187:
 735              		.loc 4 546 3 view .LVU161
 736 0010 2023     		movs	r3, #32
 737              		.syntax unified
 738              	@ 546 ".//ChibiOS//os/ext/CMSIS/include/core_cmFunc.h" 1
 739 0012 83F31188 		MSR basepri, r3
 740              	@ 0 "" 2
 741              	.LVL50:
ARM GAS  /tmp/cccp0e2D.s 			page 14


 742              		.loc 4 546 3 view .LVU162
 743              		.thumb
 744              		.syntax unified
 745              	.LBE187:
 746              	.LBE188:
 747              	.LBE190:
 748              		.loc 2 349 3 is_stmt 1 view .LVU163
 749              	.LBE192:
 750              	.LBE195:
 751              		.loc 1 185 3 is_stmt 0 view .LVU164
 752 0016 144D     		ldr	r5, .L47+4
 753              	.LBB196:
 754              	.LBB193:
 755              		.loc 2 349 3 view .LVU165
 756 0018 FFF7FEFF 		bl	_stats_start_measure_crit_thd
 757              	.LVL51:
 758              		.loc 2 350 3 is_stmt 1 view .LVU166
 759 001c FFF7FEFF 		bl	_dbg_check_lock
 760              	.LVL52:
 761              	.LBE193:
 762              	.LBE196:
 763              		.loc 1 185 3 view .LVU167
 764 0020 AB69     		ldr	r3, [r5, #24]
 765              		.loc 1 185 21 is_stmt 0 view .LVU168
 766 0022 D86B     		ldr	r0, [r3, #60]
 767 0024 0443     		orrs	r4, r4, r0
 768              	.LVL53:
 769              		.loc 1 185 21 view .LVU169
 770 0026 DC63     		str	r4, [r3, #60]
 771              		.loc 1 186 3 is_stmt 1 view .LVU170
 772              	.LVL54:
 773              		.loc 1 187 3 view .LVU171
 774              	.LBB197:
 775              	.LBI197:
 776              		.loc 2 358 20 view .LVU172
 777              	.LBB198:
 778              		.loc 2 360 3 view .LVU173
 779 0028 FFF7FEFF 		bl	_dbg_check_unlock
 780              	.LVL55:
 781              		.loc 2 361 3 view .LVU174
 782 002c FFF7FEFF 		bl	_stats_stop_measure_crit_thd
 783              	.LVL56:
 784              		.loc 2 367 3 view .LVU175
 785              		.loc 2 367 3 view .LVU176
 786              		.loc 2 367 3 view .LVU177
 787 0030 2B68     		ldr	r3, [r5]
 788 0032 AB42     		cmp	r3, r5
 789 0034 04D0     		beq	.L42
 790 0036 AA69     		ldr	r2, [r5, #24]
 791 0038 9B68     		ldr	r3, [r3, #8]
 792 003a 9268     		ldr	r2, [r2, #8]
 793 003c 9A42     		cmp	r2, r3
 794 003e 0AD3     		bcc	.L45
 795              	.L42:
 796              		.loc 2 367 3 view .LVU178
 797              		.loc 2 371 3 view .LVU179
 798              	.LBB199:
ARM GAS  /tmp/cccp0e2D.s 			page 15


 799              	.LBI199:
 800              		.loc 3 458 20 view .LVU180
 801              	.LBE199:
 802              	.LBE198:
 803              	.LBE197:
 804              		.loc 3 461 3 view .LVU181
 805              	.LVL57:
 806              	.LBB205:
 807              	.LBB203:
 808              	.LBB202:
 809              	.LBB200:
 810              	.LBI200:
 811              		.loc 4 544 57 view .LVU182
 812              	.LBB201:
 813              		.loc 4 546 3 view .LVU183
 814 0040 0023     		movs	r3, #0
 815              		.syntax unified
 816              	@ 546 ".//ChibiOS//os/ext/CMSIS/include/core_cmFunc.h" 1
 817 0042 83F31188 		MSR basepri, r3
 818              	@ 0 "" 2
 819              	.LVL58:
 820              		.loc 4 546 3 is_stmt 0 view .LVU184
 821              		.thumb
 822              		.syntax unified
 823              	.LBE201:
 824              	.LBE200:
 825              	.LBE202:
 826              	.LBE203:
 827              	.LBE205:
 828              		.loc 1 189 3 is_stmt 1 view .LVU185
 829              		.loc 1 190 1 is_stmt 0 view .LVU186
 830 0046 074B     		ldr	r3, .L47
 831 0048 1A68     		ldr	r2, [r3]
 832 004a 019B     		ldr	r3, [sp, #4]
 833 004c 5A40     		eors	r2, r3, r2
 834 004e 06D1     		bne	.L46
 835 0050 2046     		mov	r0, r4
 836 0052 03B0     		add	sp, sp, #12
 837              		.cfi_remember_state
 838              		.cfi_def_cfa_offset 12
 839              		@ sp needed
 840 0054 30BD     		pop	{r4, r5, pc}
 841              	.LVL59:
 842              	.L45:
 843              		.cfi_restore_state
 844              	.LBB206:
 845              	.LBB204:
 846              		.loc 2 367 3 is_stmt 1 view .LVU187
 847 0056 0548     		ldr	r0, .L47+8
 848 0058 FFF7FEFF 		bl	chSysHalt
 849              	.LVL60:
 850 005c F0E7     		b	.L42
 851              	.L46:
 852              	.LBE204:
 853              	.LBE206:
 854              		.loc 1 190 1 is_stmt 0 view .LVU188
 855 005e FFF7FEFF 		bl	__stack_chk_fail
ARM GAS  /tmp/cccp0e2D.s 			page 16


 856              	.LVL61:
 857              	.L48:
 858 0062 00BF     		.align	2
 859              	.L47:
 860 0064 00000000 		.word	.LC3
 861 0068 00000000 		.word	ch
 862 006c 00000000 		.word	.LANCHOR1
 863              		.cfi_endproc
 864              	.LFE222:
 865              		.size	chEvtAddEvents, .-chEvtAddEvents
 866              		.section	.rodata.chEvtGetAndClearFlags.cst4,"aM",%progbits,4
 867              		.align	2
 868              	.LC4:
 869 0000 00000000 		.word	__stack_chk_guard
 870              		.section	.text.chEvtGetAndClearFlags,"ax",%progbits
 871              		.align	1
 872              		.p2align 4,,15
 873              		.global	chEvtGetAndClearFlags
 874              		.syntax unified
 875              		.thumb
 876              		.thumb_func
 877              		.fpu fpv4-sp-d16
 878              		.type	chEvtGetAndClearFlags, %function
 879              	chEvtGetAndClearFlags:
 880              	.LVL62:
 881              	.LFB224:
 882              		.loc 1 241 59 is_stmt 1 view -0
 883              		.cfi_startproc
 884              		@ args = 0, pretend = 0, frame = 8
 885              		@ frame_needed = 0, uses_anonymous_args = 0
 886              		.loc 1 241 59 is_stmt 0 view .LVU190
 887 0000 30B5     		push	{r4, r5, lr}
 888              		.cfi_def_cfa_offset 12
 889              		.cfi_offset 4, -12
 890              		.cfi_offset 5, -8
 891              		.cfi_offset 14, -4
 892 0002 174B     		ldr	r3, .L55
 893 0004 83B0     		sub	sp, sp, #12
 894              		.cfi_def_cfa_offset 24
 895              		.loc 1 241 59 view .LVU191
 896 0006 1B68     		ldr	r3, [r3]
 897 0008 0193     		str	r3, [sp, #4]
 898 000a 4FF00003 		mov	r3,#0
 899              		.loc 1 242 3 is_stmt 1 view .LVU192
 900              		.loc 1 244 3 view .LVU193
 901              	.LBB217:
 902              	.LBI217:
 903              		.loc 2 346 20 view .LVU194
 904              	.LBB218:
 905              		.loc 2 348 3 view .LVU195
 906              	.LBB219:
 907              	.LBI219:
 908              		.loc 3 444 20 view .LVU196
 909              	.LBE219:
 910              	.LBE218:
 911              	.LBE217:
 912              		.loc 3 447 3 view .LVU197
ARM GAS  /tmp/cccp0e2D.s 			page 17


 913              	.LVL63:
 914              	.LBB228:
 915              	.LBB226:
 916              	.LBB224:
 917              	.LBB220:
 918              	.LBI220:
 919              		.loc 4 544 57 view .LVU198
 920              	.LBB221:
 921              		.loc 4 546 3 view .LVU199
 922              	.LBE221:
 923              	.LBE220:
 924              	.LBE224:
 925              	.LBE226:
 926              	.LBE228:
 927              		.loc 1 241 59 is_stmt 0 view .LVU200
 928 000e 0446     		mov	r4, r0
 929              	.LBB229:
 930              	.LBB227:
 931              	.LBB225:
 932              	.LBB223:
 933              	.LBB222:
 934              		.loc 4 546 3 view .LVU201
 935 0010 2023     		movs	r3, #32
 936              		.syntax unified
 937              	@ 546 ".//ChibiOS//os/ext/CMSIS/include/core_cmFunc.h" 1
 938 0012 83F31188 		MSR basepri, r3
 939              	@ 0 "" 2
 940              	.LVL64:
 941              		.loc 4 546 3 view .LVU202
 942              		.thumb
 943              		.syntax unified
 944              	.LBE222:
 945              	.LBE223:
 946              	.LBE225:
 947              		.loc 2 349 3 is_stmt 1 view .LVU203
 948 0016 FFF7FEFF 		bl	_stats_start_measure_crit_thd
 949              	.LVL65:
 950              		.loc 2 350 3 view .LVU204
 951 001a FFF7FEFF 		bl	_dbg_check_lock
 952              	.LVL66:
 953              	.LBE227:
 954              	.LBE229:
 955              		.loc 1 245 3 view .LVU205
 956              		.loc 1 246 17 is_stmt 0 view .LVU206
 957 001e 0023     		movs	r3, #0
 958              		.loc 1 245 9 view .LVU207
 959 0020 E568     		ldr	r5, [r4, #12]
 960              	.LVL67:
 961              		.loc 1 246 3 is_stmt 1 view .LVU208
 962              		.loc 1 246 17 is_stmt 0 view .LVU209
 963 0022 E360     		str	r3, [r4, #12]
 964              		.loc 1 247 3 is_stmt 1 view .LVU210
 965              	.LBB230:
 966              	.LBI230:
 967              		.loc 2 358 20 view .LVU211
 968              	.LBB231:
 969              		.loc 2 360 3 view .LVU212
ARM GAS  /tmp/cccp0e2D.s 			page 18


 970 0024 FFF7FEFF 		bl	_dbg_check_unlock
 971              	.LVL68:
 972              		.loc 2 361 3 view .LVU213
 973 0028 FFF7FEFF 		bl	_stats_stop_measure_crit_thd
 974              	.LVL69:
 975              		.loc 2 367 3 view .LVU214
 976              		.loc 2 367 3 view .LVU215
 977              		.loc 2 367 3 view .LVU216
 978 002c 0D4B     		ldr	r3, .L55+4
 979 002e 1A68     		ldr	r2, [r3]
 980 0030 9A42     		cmp	r2, r3
 981 0032 04D0     		beq	.L50
 982 0034 9969     		ldr	r1, [r3, #24]
 983 0036 9368     		ldr	r3, [r2, #8]
 984 0038 8A68     		ldr	r2, [r1, #8]
 985 003a 9A42     		cmp	r2, r3
 986 003c 0AD3     		bcc	.L53
 987              	.L50:
 988              		.loc 2 367 3 view .LVU217
 989              		.loc 2 371 3 view .LVU218
 990              	.LBB232:
 991              	.LBI232:
 992              		.loc 3 458 20 view .LVU219
 993              	.LBE232:
 994              	.LBE231:
 995              	.LBE230:
 996              		.loc 3 461 3 view .LVU220
 997              	.LVL70:
 998              	.LBB238:
 999              	.LBB236:
 1000              	.LBB235:
 1001              	.LBB233:
 1002              	.LBI233:
 1003              		.loc 4 544 57 view .LVU221
 1004              	.LBB234:
 1005              		.loc 4 546 3 view .LVU222
 1006 003e 0023     		movs	r3, #0
 1007              		.syntax unified
 1008              	@ 546 ".//ChibiOS//os/ext/CMSIS/include/core_cmFunc.h" 1
 1009 0040 83F31188 		MSR basepri, r3
 1010              	@ 0 "" 2
 1011              	.LVL71:
 1012              		.loc 4 546 3 is_stmt 0 view .LVU223
 1013              		.thumb
 1014              		.syntax unified
 1015              	.LBE234:
 1016              	.LBE233:
 1017              	.LBE235:
 1018              	.LBE236:
 1019              	.LBE238:
 1020              		.loc 1 249 3 is_stmt 1 view .LVU224
 1021              		.loc 1 250 1 is_stmt 0 view .LVU225
 1022 0044 064B     		ldr	r3, .L55
 1023 0046 1A68     		ldr	r2, [r3]
 1024 0048 019B     		ldr	r3, [sp, #4]
 1025 004a 5A40     		eors	r2, r3, r2
 1026 004c 06D1     		bne	.L54
ARM GAS  /tmp/cccp0e2D.s 			page 19


 1027 004e 2846     		mov	r0, r5
 1028 0050 03B0     		add	sp, sp, #12
 1029              		.cfi_remember_state
 1030              		.cfi_def_cfa_offset 12
 1031              		@ sp needed
 1032 0052 30BD     		pop	{r4, r5, pc}
 1033              	.LVL72:
 1034              	.L53:
 1035              		.cfi_restore_state
 1036              	.LBB239:
 1037              	.LBB237:
 1038              		.loc 2 367 3 is_stmt 1 view .LVU226
 1039 0054 0448     		ldr	r0, .L55+8
 1040 0056 FFF7FEFF 		bl	chSysHalt
 1041              	.LVL73:
 1042 005a F0E7     		b	.L50
 1043              	.L54:
 1044              	.LBE237:
 1045              	.LBE239:
 1046              		.loc 1 250 1 is_stmt 0 view .LVU227
 1047 005c FFF7FEFF 		bl	__stack_chk_fail
 1048              	.LVL74:
 1049              	.L56:
 1050              		.align	2
 1051              	.L55:
 1052 0060 00000000 		.word	.LC4
 1053 0064 00000000 		.word	ch
 1054 0068 00000000 		.word	.LANCHOR1
 1055              		.cfi_endproc
 1056              	.LFE224:
 1057              		.size	chEvtGetAndClearFlags, .-chEvtGetAndClearFlags
 1058              		.section	.rodata.chEvtSignalI.cst4,"aM",%progbits,4
 1059              		.align	2
 1060              	.LC5:
 1061 0000 00000000 		.word	__stack_chk_guard
 1062              		.section	.text.chEvtSignalI,"ax",%progbits
 1063              		.align	1
 1064              		.p2align 4,,15
 1065              		.global	chEvtSignalI
 1066              		.syntax unified
 1067              		.thumb
 1068              		.thumb_func
 1069              		.fpu fpv4-sp-d16
 1070              		.type	chEvtSignalI, %function
 1071              	chEvtSignalI:
 1072              	.LVL75:
 1073              	.LFB226:
 1074              		.loc 1 282 53 is_stmt 1 view -0
 1075              		.cfi_startproc
 1076              		@ args = 0, pretend = 0, frame = 8
 1077              		@ frame_needed = 0, uses_anonymous_args = 0
 1078              		.loc 1 282 53 is_stmt 0 view .LVU229
 1079 0000 30B5     		push	{r4, r5, lr}
 1080              		.cfi_def_cfa_offset 12
 1081              		.cfi_offset 4, -12
 1082              		.cfi_offset 5, -8
 1083              		.cfi_offset 14, -4
ARM GAS  /tmp/cccp0e2D.s 			page 20


 1084 0002 1A4B     		ldr	r3, .L69
 1085 0004 83B0     		sub	sp, sp, #12
 1086              		.cfi_def_cfa_offset 24
 1087              		.loc 1 282 53 view .LVU230
 1088 0006 0446     		mov	r4, r0
 1089 0008 0D46     		mov	r5, r1
 1090 000a 1B68     		ldr	r3, [r3]
 1091 000c 0193     		str	r3, [sp, #4]
 1092 000e 4FF00003 		mov	r3,#0
 1093              		.loc 1 284 3 is_stmt 1 view .LVU231
 1094 0012 FFF7FEFF 		bl	chDbgCheckClassI
 1095              	.LVL76:
 1096              		.loc 1 285 3 view .LVU232
 1097              		.loc 1 285 3 view .LVU233
 1098              		.loc 1 285 3 view .LVU234
 1099 0016 1CB3     		cbz	r4, .L66
 1100              	.L58:
 1101              		.loc 1 285 3 discriminator 5 view .LVU235
 1102              		.loc 1 287 3 discriminator 5 view .LVU236
 1103              		.loc 1 287 18 is_stmt 0 discriminator 5 view .LVU237
 1104 0018 E16B     		ldr	r1, [r4, #60]
 1105              		.loc 1 289 11 discriminator 5 view .LVU238
 1106 001a 94F82030 		ldrb	r3, [r4, #32]	@ zero_extendqisi2
 1107              		.loc 1 287 18 discriminator 5 view .LVU239
 1108 001e 2943     		orrs	r1, r1, r5
 1109              		.loc 1 289 6 discriminator 5 view .LVU240
 1110 0020 0A2B     		cmp	r3, #10
 1111              		.loc 1 287 18 discriminator 5 view .LVU241
 1112 0022 E163     		str	r1, [r4, #60]
 1113              		.loc 1 289 3 is_stmt 1 discriminator 5 view .LVU242
 1114              		.loc 1 289 6 is_stmt 0 discriminator 5 view .LVU243
 1115 0024 18D0     		beq	.L67
 1116              		.loc 1 290 63 view .LVU244
 1117 0026 0B2B     		cmp	r3, #11
 1118 0028 06D0     		beq	.L68
 1119              	.L57:
 1120              		.loc 1 296 1 view .LVU245
 1121 002a 104B     		ldr	r3, .L69
 1122 002c 1A68     		ldr	r2, [r3]
 1123 002e 019B     		ldr	r3, [sp, #4]
 1124 0030 5A40     		eors	r2, r3, r2
 1125 0032 19D1     		bne	.L65
 1126 0034 03B0     		add	sp, sp, #12
 1127              		.cfi_remember_state
 1128              		.cfi_def_cfa_offset 12
 1129              		@ sp needed
 1130 0036 30BD     		pop	{r4, r5, pc}
 1131              	.LVL77:
 1132              	.L68:
 1133              		.cfi_restore_state
 1134              		.loc 1 292 34 view .LVU246
 1135 0038 A36A     		ldr	r3, [r4, #40]
 1136              		.loc 1 291 43 view .LVU247
 1137 003a 8B43     		bics	r3, r3, r1
 1138 003c F5D1     		bne	.L57
 1139              	.L60:
 1140              		.loc 1 293 5 is_stmt 1 view .LVU248
ARM GAS  /tmp/cccp0e2D.s 			page 21


 1141              		.loc 1 293 20 is_stmt 0 view .LVU249
 1142 003e 0023     		movs	r3, #0
 1143 0040 A362     		str	r3, [r4, #40]
 1144              		.loc 1 294 5 is_stmt 1 view .LVU250
 1145              		.loc 1 294 12 is_stmt 0 view .LVU251
 1146 0042 0A4B     		ldr	r3, .L69
 1147 0044 1A68     		ldr	r2, [r3]
 1148 0046 019B     		ldr	r3, [sp, #4]
 1149 0048 5A40     		eors	r2, r3, r2
 1150 004a 0DD1     		bne	.L65
 1151 004c 2046     		mov	r0, r4
 1152              		.loc 1 296 1 view .LVU252
 1153 004e 03B0     		add	sp, sp, #12
 1154              		.cfi_remember_state
 1155              		.cfi_def_cfa_offset 12
 1156              		@ sp needed
 1157 0050 BDE83040 		pop	{r4, r5, lr}
 1158              		.cfi_restore 14
 1159              		.cfi_restore 5
 1160              		.cfi_restore 4
 1161              		.cfi_def_cfa_offset 0
 1162              	.LVL78:
 1163              		.loc 1 294 12 view .LVU253
 1164 0054 FFF7FEBF 		b	chSchReadyI
 1165              	.LVL79:
 1166              	.L67:
 1167              		.cfi_restore_state
 1168              		.loc 1 290 25 discriminator 1 view .LVU254
 1169 0058 A36A     		ldr	r3, [r4, #40]
 1170              		.loc 1 289 42 discriminator 1 view .LVU255
 1171 005a 1942     		tst	r1, r3
 1172 005c EFD1     		bne	.L60
 1173 005e E4E7     		b	.L57
 1174              	.L66:
 1175              		.loc 1 285 3 is_stmt 1 discriminator 3 view .LVU256
 1176 0060 0348     		ldr	r0, .L69+4
 1177 0062 FFF7FEFF 		bl	chSysHalt
 1178              	.LVL80:
 1179 0066 D7E7     		b	.L58
 1180              	.L65:
 1181              		.loc 1 296 1 is_stmt 0 view .LVU257
 1182 0068 FFF7FEFF 		bl	__stack_chk_fail
 1183              	.LVL81:
 1184              	.L70:
 1185              		.align	2
 1186              	.L69:
 1187 006c 00000000 		.word	.LC5
 1188 0070 00000000 		.word	.LANCHOR3
 1189              		.cfi_endproc
 1190              	.LFE226:
 1191              		.size	chEvtSignalI, .-chEvtSignalI
 1192              		.section	.rodata.chEvtBroadcastFlagsI.cst4,"aM",%progbits,4
 1193              		.align	2
 1194              	.LC6:
 1195 0000 00000000 		.word	__stack_chk_guard
 1196              		.section	.text.chEvtBroadcastFlagsI,"ax",%progbits
 1197              		.align	1
ARM GAS  /tmp/cccp0e2D.s 			page 22


 1198              		.p2align 4,,15
 1199              		.global	chEvtBroadcastFlagsI
 1200              		.syntax unified
 1201              		.thumb
 1202              		.thumb_func
 1203              		.fpu fpv4-sp-d16
 1204              		.type	chEvtBroadcastFlagsI, %function
 1205              	chEvtBroadcastFlagsI:
 1206              	.LVL82:
 1207              	.LFB223:
 1208              		.loc 1 209 68 is_stmt 1 view -0
 1209              		.cfi_startproc
 1210              		@ args = 0, pretend = 0, frame = 8
 1211              		@ frame_needed = 0, uses_anonymous_args = 0
 1212              		.loc 1 209 68 is_stmt 0 view .LVU259
 1213 0000 70B5     		push	{r4, r5, r6, lr}
 1214              		.cfi_def_cfa_offset 16
 1215              		.cfi_offset 4, -16
 1216              		.cfi_offset 5, -12
 1217              		.cfi_offset 6, -8
 1218              		.cfi_offset 14, -4
 1219 0002 144B     		ldr	r3, .L88
 1220 0004 82B0     		sub	sp, sp, #8
 1221              		.cfi_def_cfa_offset 24
 1222              		.loc 1 209 68 view .LVU260
 1223 0006 0646     		mov	r6, r0
 1224 0008 0D46     		mov	r5, r1
 1225 000a 1B68     		ldr	r3, [r3]
 1226 000c 0193     		str	r3, [sp, #4]
 1227 000e 4FF00003 		mov	r3,#0
 1228              		.loc 1 210 3 is_stmt 1 view .LVU261
 1229              		.loc 1 212 3 view .LVU262
 1230 0012 FFF7FEFF 		bl	chDbgCheckClassI
 1231              	.LVL83:
 1232              		.loc 1 213 3 view .LVU263
 1233              		.loc 1 213 3 view .LVU264
 1234              		.loc 1 213 3 view .LVU265
 1235 0016 BEB1     		cbz	r6, .L86
 1236              	.L72:
 1237              		.loc 1 213 3 discriminator 5 view .LVU266
 1238              		.loc 1 215 3 discriminator 5 view .LVU267
 1239              		.loc 1 215 7 is_stmt 0 discriminator 5 view .LVU268
 1240 0018 3468     		ldr	r4, [r6]
 1241              	.LVL84:
 1242              		.loc 1 217 3 is_stmt 1 discriminator 5 view .LVU269
 1243              		.loc 1 217 9 discriminator 5 view .LVU270
 1244 001a A642     		cmp	r6, r4
 1245 001c 0DD0     		beq	.L71
 1246              	.L76:
 1247              		.loc 1 219 5 view .LVU271
 1248              		.loc 1 219 19 is_stmt 0 view .LVU272
 1249 001e E368     		ldr	r3, [r4, #12]
 1250 0020 2B43     		orrs	r3, r3, r5
 1251 0022 E360     		str	r3, [r4, #12]
 1252              		.loc 1 222 5 is_stmt 1 view .LVU273
 1253              		.loc 1 222 8 is_stmt 0 view .LVU274
 1254 0024 15B1     		cbz	r5, .L74
ARM GAS  /tmp/cccp0e2D.s 			page 23


 1255              		.loc 1 223 25 discriminator 1 view .LVU275
 1256 0026 2269     		ldr	r2, [r4, #16]
 1257              		.loc 1 222 36 discriminator 1 view .LVU276
 1258 0028 1342     		tst	r3, r2
 1259 002a 03D0     		beq	.L75
 1260              	.L74:
 1261              		.loc 1 224 7 is_stmt 1 view .LVU277
 1262 002c D4E90101 		ldrd	r0, r1, [r4, #4]
 1263 0030 FFF7FEFF 		bl	chEvtSignalI
 1264              	.LVL85:
 1265              	.L75:
 1266              		.loc 1 226 5 view .LVU278
 1267              		.loc 1 226 9 is_stmt 0 view .LVU279
 1268 0034 2468     		ldr	r4, [r4]
 1269              	.LVL86:
 1270              		.loc 1 217 9 is_stmt 1 view .LVU280
 1271 0036 A642     		cmp	r6, r4
 1272 0038 F1D1     		bne	.L76
 1273              	.L71:
 1274              		.loc 1 228 1 is_stmt 0 view .LVU281
 1275 003a 064B     		ldr	r3, .L88
 1276 003c 1A68     		ldr	r2, [r3]
 1277 003e 019B     		ldr	r3, [sp, #4]
 1278 0040 5A40     		eors	r2, r3, r2
 1279 0042 05D1     		bne	.L87
 1280 0044 02B0     		add	sp, sp, #8
 1281              		.cfi_remember_state
 1282              		.cfi_def_cfa_offset 16
 1283              		@ sp needed
 1284 0046 70BD     		pop	{r4, r5, r6, pc}
 1285              	.LVL87:
 1286              	.L86:
 1287              		.cfi_restore_state
 1288              		.loc 1 213 3 is_stmt 1 discriminator 3 view .LVU282
 1289 0048 0348     		ldr	r0, .L88+4
 1290 004a FFF7FEFF 		bl	chSysHalt
 1291              	.LVL88:
 1292 004e E3E7     		b	.L72
 1293              	.LVL89:
 1294              	.L87:
 1295              		.loc 1 228 1 is_stmt 0 view .LVU283
 1296 0050 FFF7FEFF 		bl	__stack_chk_fail
 1297              	.LVL90:
 1298              	.L89:
 1299              		.align	2
 1300              	.L88:
 1301 0054 00000000 		.word	.LC6
 1302 0058 00000000 		.word	.LANCHOR4
 1303              		.cfi_endproc
 1304              	.LFE223:
 1305              		.size	chEvtBroadcastFlagsI, .-chEvtBroadcastFlagsI
 1306              		.section	.rodata.chEvtSignal.cst4,"aM",%progbits,4
 1307              		.align	2
 1308              	.LC7:
 1309 0000 00000000 		.word	__stack_chk_guard
 1310              		.section	.text.chEvtSignal,"ax",%progbits
 1311              		.align	1
ARM GAS  /tmp/cccp0e2D.s 			page 24


 1312              		.p2align 4,,15
 1313              		.global	chEvtSignal
 1314              		.syntax unified
 1315              		.thumb
 1316              		.thumb_func
 1317              		.fpu fpv4-sp-d16
 1318              		.type	chEvtSignal, %function
 1319              	chEvtSignal:
 1320              	.LVL91:
 1321              	.LFB225:
 1322              		.loc 1 260 52 is_stmt 1 view -0
 1323              		.cfi_startproc
 1324              		@ args = 0, pretend = 0, frame = 16
 1325              		@ frame_needed = 0, uses_anonymous_args = 0
 1326              		.loc 1 260 52 is_stmt 0 view .LVU285
 1327 0000 10B5     		push	{r4, lr}
 1328              		.cfi_def_cfa_offset 8
 1329              		.cfi_offset 4, -8
 1330              		.cfi_offset 14, -4
 1331 0002 1C4B     		ldr	r3, .L98
 1332 0004 84B0     		sub	sp, sp, #16
 1333              		.cfi_def_cfa_offset 24
 1334              		.loc 1 260 52 view .LVU286
 1335 0006 1B68     		ldr	r3, [r3]
 1336 0008 0393     		str	r3, [sp, #12]
 1337 000a 4FF00003 		mov	r3,#0
 1338              		.loc 1 262 3 is_stmt 1 view .LVU287
 1339              		.loc 1 262 3 view .LVU288
 1340              		.loc 1 262 3 view .LVU289
 1341 000e 0446     		mov	r4, r0
 1342 0010 40B3     		cbz	r0, .L95
 1343              	.LVL92:
 1344              	.L91:
 1345              		.loc 1 262 3 is_stmt 0 view .LVU290
 1346 0012 0191     		str	r1, [sp, #4]
 1347              		.loc 1 262 3 is_stmt 1 discriminator 5 view .LVU291
 1348              		.loc 1 264 3 discriminator 5 view .LVU292
 1349              	.LBB250:
 1350              	.LBI250:
 1351              		.loc 2 346 20 discriminator 5 view .LVU293
 1352              	.LBB251:
 1353              		.loc 2 348 3 discriminator 5 view .LVU294
 1354              	.LBB252:
 1355              	.LBI252:
 1356              		.loc 3 444 20 discriminator 5 view .LVU295
 1357              	.LBE252:
 1358              	.LBE251:
 1359              	.LBE250:
 1360              		.loc 3 447 3 discriminator 5 view .LVU296
 1361              	.LVL93:
 1362              	.LBB257:
 1363              	.LBB256:
 1364              	.LBB255:
 1365              	.LBB253:
 1366              	.LBI253:
 1367              		.loc 4 544 57 discriminator 5 view .LVU297
 1368              	.LBB254:
ARM GAS  /tmp/cccp0e2D.s 			page 25


 1369              		.loc 4 546 3 discriminator 5 view .LVU298
 1370 0014 2023     		movs	r3, #32
 1371              		.syntax unified
 1372              	@ 546 ".//ChibiOS//os/ext/CMSIS/include/core_cmFunc.h" 1
 1373 0016 83F31188 		MSR basepri, r3
 1374              	@ 0 "" 2
 1375              	.LVL94:
 1376              		.loc 4 546 3 is_stmt 0 discriminator 5 view .LVU299
 1377              		.thumb
 1378              		.syntax unified
 1379              	.LBE254:
 1380              	.LBE253:
 1381              	.LBE255:
 1382              		.loc 2 349 3 is_stmt 1 discriminator 5 view .LVU300
 1383 001a FFF7FEFF 		bl	_stats_start_measure_crit_thd
 1384              	.LVL95:
 1385              		.loc 2 350 3 discriminator 5 view .LVU301
 1386 001e FFF7FEFF 		bl	_dbg_check_lock
 1387              	.LVL96:
 1388              	.LBE256:
 1389              	.LBE257:
 1390              		.loc 1 265 3 discriminator 5 view .LVU302
 1391 0022 0199     		ldr	r1, [sp, #4]
 1392 0024 2046     		mov	r0, r4
 1393 0026 FFF7FEFF 		bl	chEvtSignalI
 1394              	.LVL97:
 1395              		.loc 1 266 3 discriminator 5 view .LVU303
 1396 002a FFF7FEFF 		bl	chSchRescheduleS
 1397              	.LVL98:
 1398              		.loc 1 267 3 discriminator 5 view .LVU304
 1399              	.LBB258:
 1400              	.LBI258:
 1401              		.loc 2 358 20 discriminator 5 view .LVU305
 1402              	.LBB259:
 1403              		.loc 2 360 3 discriminator 5 view .LVU306
 1404 002e FFF7FEFF 		bl	_dbg_check_unlock
 1405              	.LVL99:
 1406              		.loc 2 361 3 discriminator 5 view .LVU307
 1407 0032 FFF7FEFF 		bl	_stats_stop_measure_crit_thd
 1408              	.LVL100:
 1409              		.loc 2 367 3 discriminator 5 view .LVU308
 1410              		.loc 2 367 3 discriminator 5 view .LVU309
 1411              		.loc 2 367 3 discriminator 5 view .LVU310
 1412 0036 104B     		ldr	r3, .L98+4
 1413 0038 1A68     		ldr	r2, [r3]
 1414 003a 9A42     		cmp	r2, r3
 1415 003c 04D0     		beq	.L92
 1416              		.loc 2 367 3 is_stmt 0 view .LVU311
 1417 003e 9969     		ldr	r1, [r3, #24]
 1418 0040 9368     		ldr	r3, [r2, #8]
 1419 0042 8A68     		ldr	r2, [r1, #8]
 1420 0044 9A42     		cmp	r2, r3
 1421 0046 09D3     		bcc	.L96
 1422              	.L92:
 1423              		.loc 2 367 3 is_stmt 1 view .LVU312
 1424              		.loc 2 371 3 view .LVU313
 1425              	.LBB260:
ARM GAS  /tmp/cccp0e2D.s 			page 26


 1426              	.LBI260:
 1427              		.loc 3 458 20 view .LVU314
 1428              	.LBE260:
 1429              	.LBE259:
 1430              	.LBE258:
 1431              		.loc 3 461 3 view .LVU315
 1432              	.LVL101:
 1433              	.LBB266:
 1434              	.LBB264:
 1435              	.LBB263:
 1436              	.LBB261:
 1437              	.LBI261:
 1438              		.loc 4 544 57 view .LVU316
 1439              	.LBB262:
 1440              		.loc 4 546 3 view .LVU317
 1441 0048 0023     		movs	r3, #0
 1442              		.syntax unified
 1443              	@ 546 ".//ChibiOS//os/ext/CMSIS/include/core_cmFunc.h" 1
 1444 004a 83F31188 		MSR basepri, r3
 1445              	@ 0 "" 2
 1446              	.LVL102:
 1447              		.loc 4 546 3 is_stmt 0 view .LVU318
 1448              		.thumb
 1449              		.syntax unified
 1450              	.LBE262:
 1451              	.LBE261:
 1452              	.LBE263:
 1453              	.LBE264:
 1454              	.LBE266:
 1455              		.loc 1 268 1 view .LVU319
 1456 004e 094B     		ldr	r3, .L98
 1457 0050 1A68     		ldr	r2, [r3]
 1458 0052 039B     		ldr	r3, [sp, #12]
 1459 0054 5A40     		eors	r2, r3, r2
 1460 0056 0BD1     		bne	.L97
 1461 0058 04B0     		add	sp, sp, #16
 1462              		.cfi_remember_state
 1463              		.cfi_def_cfa_offset 8
 1464              		@ sp needed
 1465 005a 10BD     		pop	{r4, pc}
 1466              	.LVL103:
 1467              	.L96:
 1468              		.cfi_restore_state
 1469              	.LBB267:
 1470              	.LBB265:
 1471              		.loc 2 367 3 is_stmt 1 view .LVU320
 1472 005c 0748     		ldr	r0, .L98+8
 1473 005e FFF7FEFF 		bl	chSysHalt
 1474              	.LVL104:
 1475 0062 F1E7     		b	.L92
 1476              	.LVL105:
 1477              	.L95:
 1478              		.loc 2 367 3 is_stmt 0 view .LVU321
 1479              	.LBE265:
 1480              	.LBE267:
 1481              		.loc 1 262 3 discriminator 3 view .LVU322
 1482 0064 0648     		ldr	r0, .L98+12
ARM GAS  /tmp/cccp0e2D.s 			page 27


 1483              	.LVL106:
 1484              		.loc 1 262 3 discriminator 3 view .LVU323
 1485 0066 0191     		str	r1, [sp, #4]
 1486              		.loc 1 262 3 is_stmt 1 discriminator 3 view .LVU324
 1487 0068 FFF7FEFF 		bl	chSysHalt
 1488              	.LVL107:
 1489              		.loc 1 262 3 is_stmt 0 discriminator 3 view .LVU325
 1490 006c 0199     		ldr	r1, [sp, #4]
 1491 006e D0E7     		b	.L91
 1492              	.LVL108:
 1493              	.L97:
 1494              		.loc 1 268 1 view .LVU326
 1495 0070 FFF7FEFF 		bl	__stack_chk_fail
 1496              	.LVL109:
 1497              	.L99:
 1498              		.align	2
 1499              	.L98:
 1500 0074 00000000 		.word	.LC7
 1501 0078 00000000 		.word	ch
 1502 007c 00000000 		.word	.LANCHOR1
 1503 0080 00000000 		.word	.LANCHOR5
 1504              		.cfi_endproc
 1505              	.LFE225:
 1506              		.size	chEvtSignal, .-chEvtSignal
 1507              		.section	.rodata.chEvtBroadcastFlags.cst4,"aM",%progbits,4
 1508              		.align	2
 1509              	.LC8:
 1510 0000 00000000 		.word	__stack_chk_guard
 1511              		.section	.text.chEvtBroadcastFlags,"ax",%progbits
 1512              		.align	1
 1513              		.p2align 4,,15
 1514              		.global	chEvtBroadcastFlags
 1515              		.syntax unified
 1516              		.thumb
 1517              		.thumb_func
 1518              		.fpu fpv4-sp-d16
 1519              		.type	chEvtBroadcastFlags, %function
 1520              	chEvtBroadcastFlags:
 1521              	.LVL110:
 1522              	.LFB227:
 1523              		.loc 1 311 67 is_stmt 1 view -0
 1524              		.cfi_startproc
 1525              		@ args = 0, pretend = 0, frame = 16
 1526              		@ frame_needed = 0, uses_anonymous_args = 0
 1527              		.loc 1 311 67 is_stmt 0 view .LVU328
 1528 0000 00B5     		push	{lr}
 1529              		.cfi_def_cfa_offset 4
 1530              		.cfi_offset 14, -4
 1531 0002 85B0     		sub	sp, sp, #20
 1532              		.cfi_def_cfa_offset 24
 1533              		.loc 1 311 67 view .LVU329
 1534 0004 CDE90010 		strd	r1, r0, [sp]
 1535 0008 174B     		ldr	r3, .L106
 1536 000a 1B68     		ldr	r3, [r3]
 1537 000c 0393     		str	r3, [sp, #12]
 1538 000e 4FF00003 		mov	r3,#0
 1539              		.loc 1 313 3 is_stmt 1 view .LVU330
ARM GAS  /tmp/cccp0e2D.s 			page 28


 1540              	.LBB278:
 1541              	.LBI278:
 1542              		.loc 2 346 20 view .LVU331
 1543              	.LBB279:
 1544              		.loc 2 348 3 view .LVU332
 1545              	.LBB280:
 1546              	.LBI280:
 1547              		.loc 3 444 20 view .LVU333
 1548              	.LBE280:
 1549              	.LBE279:
 1550              	.LBE278:
 1551              		.loc 3 447 3 view .LVU334
 1552              	.LVL111:
 1553              	.LBB285:
 1554              	.LBB284:
 1555              	.LBB283:
 1556              	.LBB281:
 1557              	.LBI281:
 1558              		.loc 4 544 57 view .LVU335
 1559              	.LBB282:
 1560              		.loc 4 546 3 view .LVU336
 1561 0012 2023     		movs	r3, #32
 1562              		.syntax unified
 1563              	@ 546 ".//ChibiOS//os/ext/CMSIS/include/core_cmFunc.h" 1
 1564 0014 83F31188 		MSR basepri, r3
 1565              	@ 0 "" 2
 1566              	.LVL112:
 1567              		.loc 4 546 3 is_stmt 0 view .LVU337
 1568              		.thumb
 1569              		.syntax unified
 1570              	.LBE282:
 1571              	.LBE281:
 1572              	.LBE283:
 1573              		.loc 2 349 3 is_stmt 1 view .LVU338
 1574 0018 FFF7FEFF 		bl	_stats_start_measure_crit_thd
 1575              	.LVL113:
 1576              		.loc 2 350 3 view .LVU339
 1577 001c FFF7FEFF 		bl	_dbg_check_lock
 1578              	.LVL114:
 1579              	.LBE284:
 1580              	.LBE285:
 1581              		.loc 1 314 3 view .LVU340
 1582 0020 DDE90010 		ldrd	r1, r0, [sp]
 1583 0024 FFF7FEFF 		bl	chEvtBroadcastFlagsI
 1584              	.LVL115:
 1585              		.loc 1 315 3 view .LVU341
 1586 0028 FFF7FEFF 		bl	chSchRescheduleS
 1587              	.LVL116:
 1588              		.loc 1 316 3 view .LVU342
 1589              	.LBB286:
 1590              	.LBI286:
 1591              		.loc 2 358 20 view .LVU343
 1592              	.LBB287:
 1593              		.loc 2 360 3 view .LVU344
 1594 002c FFF7FEFF 		bl	_dbg_check_unlock
 1595              	.LVL117:
 1596              		.loc 2 361 3 view .LVU345
ARM GAS  /tmp/cccp0e2D.s 			page 29


 1597 0030 FFF7FEFF 		bl	_stats_stop_measure_crit_thd
 1598              	.LVL118:
 1599              		.loc 2 367 3 view .LVU346
 1600              		.loc 2 367 3 view .LVU347
 1601              		.loc 2 367 3 view .LVU348
 1602 0034 0D4B     		ldr	r3, .L106+4
 1603 0036 1A68     		ldr	r2, [r3]
 1604 0038 9A42     		cmp	r2, r3
 1605 003a 04D0     		beq	.L101
 1606 003c 9969     		ldr	r1, [r3, #24]
 1607 003e 9368     		ldr	r3, [r2, #8]
 1608 0040 8A68     		ldr	r2, [r1, #8]
 1609 0042 9A42     		cmp	r2, r3
 1610 0044 0AD3     		bcc	.L104
 1611              	.L101:
 1612              		.loc 2 367 3 view .LVU349
 1613              		.loc 2 371 3 view .LVU350
 1614              	.LBB288:
 1615              	.LBI288:
 1616              		.loc 3 458 20 view .LVU351
 1617              	.LBE288:
 1618              	.LBE287:
 1619              	.LBE286:
 1620              		.loc 3 461 3 view .LVU352
 1621              	.LVL119:
 1622              	.LBB294:
 1623              	.LBB292:
 1624              	.LBB291:
 1625              	.LBB289:
 1626              	.LBI289:
 1627              		.loc 4 544 57 view .LVU353
 1628              	.LBB290:
 1629              		.loc 4 546 3 view .LVU354
 1630 0046 0023     		movs	r3, #0
 1631              		.syntax unified
 1632              	@ 546 ".//ChibiOS//os/ext/CMSIS/include/core_cmFunc.h" 1
 1633 0048 83F31188 		MSR basepri, r3
 1634              	@ 0 "" 2
 1635              	.LVL120:
 1636              		.loc 4 546 3 is_stmt 0 view .LVU355
 1637              		.thumb
 1638              		.syntax unified
 1639              	.LBE290:
 1640              	.LBE289:
 1641              	.LBE291:
 1642              	.LBE292:
 1643              	.LBE294:
 1644              		.loc 1 317 1 view .LVU356
 1645 004c 064B     		ldr	r3, .L106
 1646 004e 1A68     		ldr	r2, [r3]
 1647 0050 039B     		ldr	r3, [sp, #12]
 1648 0052 5A40     		eors	r2, r3, r2
 1649 0054 06D1     		bne	.L105
 1650 0056 05B0     		add	sp, sp, #20
 1651              		.cfi_remember_state
 1652              		.cfi_def_cfa_offset 4
 1653              	.LVL121:
ARM GAS  /tmp/cccp0e2D.s 			page 30


 1654              		.loc 1 317 1 view .LVU357
 1655              		@ sp needed
 1656 0058 5DF804FB 		ldr	pc, [sp], #4
 1657              	.LVL122:
 1658              	.L104:
 1659              		.cfi_restore_state
 1660              	.LBB295:
 1661              	.LBB293:
 1662              		.loc 2 367 3 is_stmt 1 view .LVU358
 1663 005c 0448     		ldr	r0, .L106+8
 1664 005e FFF7FEFF 		bl	chSysHalt
 1665              	.LVL123:
 1666 0062 F0E7     		b	.L101
 1667              	.L105:
 1668              	.LBE293:
 1669              	.LBE295:
 1670              		.loc 1 317 1 is_stmt 0 view .LVU359
 1671 0064 FFF7FEFF 		bl	__stack_chk_fail
 1672              	.LVL124:
 1673              	.L107:
 1674              		.align	2
 1675              	.L106:
 1676 0068 00000000 		.word	.LC8
 1677 006c 00000000 		.word	ch
 1678 0070 00000000 		.word	.LANCHOR1
 1679              		.cfi_endproc
 1680              	.LFE227:
 1681              		.size	chEvtBroadcastFlags, .-chEvtBroadcastFlags
 1682              		.section	.rodata.chEvtGetAndClearFlagsI.cst4,"aM",%progbits,4
 1683              		.align	2
 1684              	.LC9:
 1685 0000 00000000 		.word	__stack_chk_guard
 1686              		.section	.text.chEvtGetAndClearFlagsI,"ax",%progbits
 1687              		.align	1
 1688              		.p2align 4,,15
 1689              		.global	chEvtGetAndClearFlagsI
 1690              		.syntax unified
 1691              		.thumb
 1692              		.thumb_func
 1693              		.fpu fpv4-sp-d16
 1694              		.type	chEvtGetAndClearFlagsI, %function
 1695              	chEvtGetAndClearFlagsI:
 1696              	.LVL125:
 1697              	.LFB228:
 1698              		.loc 1 330 60 is_stmt 1 view -0
 1699              		.cfi_startproc
 1700              		@ args = 0, pretend = 0, frame = 8
 1701              		@ frame_needed = 0, uses_anonymous_args = 0
 1702              		.loc 1 330 60 is_stmt 0 view .LVU361
 1703 0000 00B5     		push	{lr}
 1704              		.cfi_def_cfa_offset 4
 1705              		.cfi_offset 14, -4
 1706 0002 0A4A     		ldr	r2, .L112
 1707 0004 83B0     		sub	sp, sp, #12
 1708              		.cfi_def_cfa_offset 16
 1709              		.loc 1 334 17 view .LVU362
 1710 0006 0023     		movs	r3, #0
ARM GAS  /tmp/cccp0e2D.s 			page 31


 1711              		.loc 1 330 60 view .LVU363
 1712 0008 1268     		ldr	r2, [r2]
 1713 000a 0192     		str	r2, [sp, #4]
 1714 000c 4FF00002 		mov	r2,#0
 1715              		.loc 1 331 3 is_stmt 1 view .LVU364
 1716              		.loc 1 333 3 view .LVU365
 1717              		.loc 1 333 9 is_stmt 0 view .LVU366
 1718 0010 C268     		ldr	r2, [r0, #12]
 1719              	.LVL126:
 1720              		.loc 1 334 3 is_stmt 1 view .LVU367
 1721              		.loc 1 334 17 is_stmt 0 view .LVU368
 1722 0012 C360     		str	r3, [r0, #12]
 1723              		.loc 1 336 3 is_stmt 1 view .LVU369
 1724              		.loc 1 337 1 is_stmt 0 view .LVU370
 1725 0014 054B     		ldr	r3, .L112
 1726 0016 1968     		ldr	r1, [r3]
 1727 0018 019B     		ldr	r3, [sp, #4]
 1728 001a 5940     		eors	r1, r3, r1
 1729 001c 03D1     		bne	.L111
 1730 001e 1046     		mov	r0, r2
 1731              	.LVL127:
 1732              		.loc 1 337 1 view .LVU371
 1733 0020 03B0     		add	sp, sp, #12
 1734              		.cfi_remember_state
 1735              		.cfi_def_cfa_offset 4
 1736              		@ sp needed
 1737 0022 5DF804FB 		ldr	pc, [sp], #4
 1738              	.LVL128:
 1739              	.L111:
 1740              		.cfi_restore_state
 1741              		.loc 1 337 1 view .LVU372
 1742 0026 FFF7FEFF 		bl	__stack_chk_fail
 1743              	.LVL129:
 1744              	.L113:
 1745              		.loc 1 337 1 view .LVU373
 1746 002a 00BF     		.align	2
 1747              	.L112:
 1748 002c 00000000 		.word	.LC9
 1749              		.cfi_endproc
 1750              	.LFE228:
 1751              		.size	chEvtGetAndClearFlagsI, .-chEvtGetAndClearFlagsI
 1752              		.section	.rodata.chEvtDispatch.cst4,"aM",%progbits,4
 1753              		.align	2
 1754              	.LC10:
 1755 0000 00000000 		.word	__stack_chk_guard
 1756              		.section	.text.chEvtDispatch,"ax",%progbits
 1757              		.align	1
 1758              		.p2align 4,,15
 1759              		.global	chEvtDispatch
 1760              		.syntax unified
 1761              		.thumb
 1762              		.thumb_func
 1763              		.fpu fpv4-sp-d16
 1764              		.type	chEvtDispatch, %function
 1765              	chEvtDispatch:
 1766              	.LVL130:
 1767              	.LFB229:
ARM GAS  /tmp/cccp0e2D.s 			page 32


 1768              		.loc 1 348 69 is_stmt 1 view -0
 1769              		.cfi_startproc
 1770              		@ args = 0, pretend = 0, frame = 8
 1771              		@ frame_needed = 0, uses_anonymous_args = 0
 1772              		.loc 1 348 69 is_stmt 0 view .LVU375
 1773 0000 2DE9F041 		push	{r4, r5, r6, r7, r8, lr}
 1774              		.cfi_def_cfa_offset 24
 1775              		.cfi_offset 4, -24
 1776              		.cfi_offset 5, -20
 1777              		.cfi_offset 6, -16
 1778              		.cfi_offset 7, -12
 1779              		.cfi_offset 8, -8
 1780              		.cfi_offset 14, -4
 1781 0004 194B     		ldr	r3, .L130
 1782 0006 82B0     		sub	sp, sp, #8
 1783              		.cfi_def_cfa_offset 32
 1784              		.loc 1 348 69 view .LVU376
 1785 0008 0D46     		mov	r5, r1
 1786 000a 1B68     		ldr	r3, [r3]
 1787 000c 0193     		str	r3, [sp, #4]
 1788 000e 4FF00003 		mov	r3,#0
 1789              		.loc 1 349 3 is_stmt 1 view .LVU377
 1790              		.loc 1 351 3 view .LVU378
 1791              		.loc 1 351 3 view .LVU379
 1792              		.loc 1 351 3 view .LVU380
 1793 0012 0646     		mov	r6, r0
 1794 0014 20B3     		cbz	r0, .L127
 1795              	.LVL131:
 1796              	.L115:
 1797              		.loc 1 354 9 view .LVU381
 1798 0016 9DB1     		cbz	r5, .L114
 1799              		.loc 1 356 7 is_stmt 0 view .LVU382
 1800 0018 DFF85480 		ldr	r8, .L130+4
 1801              		.loc 1 354 9 view .LVU383
 1802 001c 0024     		movs	r4, #0
 1803              		.loc 1 357 18 view .LVU384
 1804 001e 0127     		movs	r7, #1
 1805              	.LVL132:
 1806              	.L116:
 1807              		.loc 1 355 5 is_stmt 1 view .LVU385
 1808              		.loc 1 355 36 is_stmt 0 view .LVU386
 1809 0020 25FA04F3 		lsr	r3, r5, r4
 1810              		.loc 1 355 8 view .LVU387
 1811 0024 DB07     		lsls	r3, r3, #31
 1812 0026 13D5     		bpl	.L117
 1813              		.loc 1 356 7 is_stmt 1 discriminator 1 view .LVU388
 1814              		.loc 1 356 7 discriminator 1 view .LVU389
 1815              		.loc 1 356 7 discriminator 1 view .LVU390
 1816 0028 56F82430 		ldr	r3, [r6, r4, lsl #2]
 1817 002c 93B1     		cbz	r3, .L128
 1818              	.L118:
 1819              		.loc 1 356 7 discriminator 5 view .LVU391
 1820              		.loc 1 357 7 discriminator 5 view .LVU392
 1821              		.loc 1 357 18 is_stmt 0 discriminator 5 view .LVU393
 1822 002e 07FA04F2 		lsl	r2, r7, r4
 1823              		.loc 1 358 7 discriminator 5 view .LVU394
 1824 0032 2046     		mov	r0, r4
ARM GAS  /tmp/cccp0e2D.s 			page 33


 1825              		.loc 1 357 14 discriminator 5 view .LVU395
 1826 0034 25EA0205 		bic	r5, r5, r2
 1827              	.LVL133:
 1828              		.loc 1 358 7 is_stmt 1 discriminator 5 view .LVU396
 1829              		.loc 1 360 8 is_stmt 0 discriminator 5 view .LVU397
 1830 0038 0134     		adds	r4, r4, #1
 1831              	.LVL134:
 1832              		.loc 1 358 7 discriminator 5 view .LVU398
 1833 003a 9847     		blx	r3
 1834              	.LVL135:
 1835              		.loc 1 360 5 is_stmt 1 discriminator 5 view .LVU399
 1836              		.loc 1 354 9 discriminator 5 view .LVU400
 1837 003c 002D     		cmp	r5, #0
 1838 003e EFD1     		bne	.L116
 1839              	.LVL136:
 1840              	.L114:
 1841              		.loc 1 362 1 is_stmt 0 view .LVU401
 1842 0040 0A4B     		ldr	r3, .L130
 1843 0042 1A68     		ldr	r2, [r3]
 1844 0044 019B     		ldr	r3, [sp, #4]
 1845 0046 5A40     		eors	r2, r3, r2
 1846 0048 0ED1     		bne	.L129
 1847 004a 02B0     		add	sp, sp, #8
 1848              		.cfi_remember_state
 1849              		.cfi_def_cfa_offset 24
 1850              		@ sp needed
 1851 004c BDE8F081 		pop	{r4, r5, r6, r7, r8, pc}
 1852              	.LVL137:
 1853              	.L117:
 1854              		.cfi_restore_state
 1855              		.loc 1 360 5 is_stmt 1 view .LVU402
 1856              		.loc 1 360 8 is_stmt 0 view .LVU403
 1857 0050 0134     		adds	r4, r4, #1
 1858              	.LVL138:
 1859              		.loc 1 354 9 is_stmt 1 view .LVU404
 1860              		.loc 1 354 9 is_stmt 0 view .LVU405
 1861 0052 E5E7     		b	.L116
 1862              	.L128:
 1863              		.loc 1 356 7 is_stmt 1 discriminator 3 view .LVU406
 1864 0054 4046     		mov	r0, r8
 1865 0056 FFF7FEFF 		bl	chSysHalt
 1866              	.LVL139:
 1867 005a 56F82430 		ldr	r3, [r6, r4, lsl #2]
 1868 005e E6E7     		b	.L118
 1869              	.LVL140:
 1870              	.L127:
 1871              		.loc 1 351 3 discriminator 3 view .LVU407
 1872 0060 0348     		ldr	r0, .L130+4
 1873              	.LVL141:
 1874              		.loc 1 351 3 is_stmt 0 discriminator 3 view .LVU408
 1875 0062 FFF7FEFF 		bl	chSysHalt
 1876              	.LVL142:
 1877              		.loc 1 351 3 discriminator 3 view .LVU409
 1878 0066 D6E7     		b	.L115
 1879              	.L129:
 1880              		.loc 1 362 1 view .LVU410
 1881 0068 FFF7FEFF 		bl	__stack_chk_fail
ARM GAS  /tmp/cccp0e2D.s 			page 34


 1882              	.LVL143:
 1883              	.L131:
 1884              		.align	2
 1885              	.L130:
 1886 006c 00000000 		.word	.LC10
 1887 0070 00000000 		.word	.LANCHOR6
 1888              		.cfi_endproc
 1889              	.LFE229:
 1890              		.size	chEvtDispatch, .-chEvtDispatch
 1891              		.section	.rodata.chEvtWaitOne.cst4,"aM",%progbits,4
 1892              		.align	2
 1893              	.LC11:
 1894 0000 00000000 		.word	__stack_chk_guard
 1895              		.section	.text.chEvtWaitOne,"ax",%progbits
 1896              		.align	1
 1897              		.p2align 4,,15
 1898              		.global	chEvtWaitOne
 1899              		.syntax unified
 1900              		.thumb
 1901              		.thumb_func
 1902              		.fpu fpv4-sp-d16
 1903              		.type	chEvtWaitOne, %function
 1904              	chEvtWaitOne:
 1905              	.LVL144:
 1906              	.LFB230:
 1907              		.loc 1 383 46 is_stmt 1 view -0
 1908              		.cfi_startproc
 1909              		@ args = 0, pretend = 0, frame = 8
 1910              		@ frame_needed = 0, uses_anonymous_args = 0
 1911              		.loc 1 383 46 is_stmt 0 view .LVU412
 1912 0000 70B5     		push	{r4, r5, r6, lr}
 1913              		.cfi_def_cfa_offset 16
 1914              		.cfi_offset 4, -16
 1915              		.cfi_offset 5, -12
 1916              		.cfi_offset 6, -8
 1917              		.cfi_offset 14, -4
 1918 0002 1F4B     		ldr	r3, .L140
 1919              		.loc 1 384 13 view .LVU413
 1920 0004 1F4D     		ldr	r5, .L140+4
 1921              		.loc 1 383 46 view .LVU414
 1922 0006 82B0     		sub	sp, sp, #8
 1923              		.cfi_def_cfa_offset 24
 1924              		.loc 1 383 46 view .LVU415
 1925 0008 1B68     		ldr	r3, [r3]
 1926 000a 0193     		str	r3, [sp, #4]
 1927 000c 4FF00003 		mov	r3,#0
 1928              		.loc 1 384 3 is_stmt 1 view .LVU416
 1929              		.loc 1 384 13 is_stmt 0 view .LVU417
 1930 0010 AE69     		ldr	r6, [r5, #24]
 1931              	.LVL145:
 1932              		.loc 1 385 3 is_stmt 1 view .LVU418
 1933              		.loc 1 387 3 view .LVU419
 1934              	.LBB306:
 1935              	.LBI306:
 1936              		.loc 2 346 20 view .LVU420
 1937              	.LBB307:
 1938              		.loc 2 348 3 view .LVU421
ARM GAS  /tmp/cccp0e2D.s 			page 35


 1939              	.LBB308:
 1940              	.LBI308:
 1941              		.loc 3 444 20 view .LVU422
 1942              	.LBE308:
 1943              	.LBE307:
 1944              	.LBE306:
 1945              		.loc 3 447 3 view .LVU423
 1946              	.LBB317:
 1947              	.LBB315:
 1948              	.LBB313:
 1949              	.LBB309:
 1950              	.LBI309:
 1951              		.loc 4 544 57 view .LVU424
 1952              	.LBB310:
 1953              		.loc 4 546 3 view .LVU425
 1954              	.LBE310:
 1955              	.LBE309:
 1956              	.LBE313:
 1957              	.LBE315:
 1958              	.LBE317:
 1959              		.loc 1 383 46 is_stmt 0 view .LVU426
 1960 0012 0446     		mov	r4, r0
 1961              	.LBB318:
 1962              	.LBB316:
 1963              	.LBB314:
 1964              	.LBB312:
 1965              	.LBB311:
 1966              		.loc 4 546 3 view .LVU427
 1967 0014 2023     		movs	r3, #32
 1968              		.syntax unified
 1969              	@ 546 ".//ChibiOS//os/ext/CMSIS/include/core_cmFunc.h" 1
 1970 0016 83F31188 		MSR basepri, r3
 1971              	@ 0 "" 2
 1972              	.LVL146:
 1973              		.loc 4 546 3 view .LVU428
 1974              		.thumb
 1975              		.syntax unified
 1976              	.LBE311:
 1977              	.LBE312:
 1978              	.LBE314:
 1979              		.loc 2 349 3 is_stmt 1 view .LVU429
 1980 001a FFF7FEFF 		bl	_stats_start_measure_crit_thd
 1981              	.LVL147:
 1982              		.loc 2 350 3 view .LVU430
 1983 001e FFF7FEFF 		bl	_dbg_check_lock
 1984              	.LVL148:
 1985              	.LBE316:
 1986              	.LBE318:
 1987              		.loc 1 388 3 view .LVU431
 1988              		.loc 1 388 10 is_stmt 0 view .LVU432
 1989 0022 F36B     		ldr	r3, [r6, #60]
 1990              	.LVL149:
 1991              		.loc 1 389 3 is_stmt 1 view .LVU433
 1992              		.loc 1 389 6 is_stmt 0 view .LVU434
 1993 0024 13EA0402 		ands	r2, r3, r4
 1994              	.LVL150:
 1995              		.loc 1 389 6 view .LVU435
ARM GAS  /tmp/cccp0e2D.s 			page 36


 1996 0028 1FD0     		beq	.L137
 1997              	.LVL151:
 1998              	.L133:
 1999              		.loc 1 394 3 is_stmt 1 view .LVU436
 2000              		.loc 1 394 5 is_stmt 0 view .LVU437
 2001 002a 5442     		rsbs	r4, r2, #0
 2002              	.LVL152:
 2003              		.loc 1 394 5 view .LVU438
 2004 002c 1440     		ands	r4, r4, r2
 2005              	.LVL153:
 2006              		.loc 1 395 3 is_stmt 1 view .LVU439
 2007              		.loc 1 395 19 is_stmt 0 view .LVU440
 2008 002e 23EA0403 		bic	r3, r3, r4
 2009 0032 F363     		str	r3, [r6, #60]
 2010              		.loc 1 396 3 is_stmt 1 view .LVU441
 2011              	.LBB319:
 2012              	.LBI319:
 2013              		.loc 2 358 20 view .LVU442
 2014              	.LBB320:
 2015              		.loc 2 360 3 view .LVU443
 2016 0034 FFF7FEFF 		bl	_dbg_check_unlock
 2017              	.LVL154:
 2018              		.loc 2 361 3 view .LVU444
 2019 0038 FFF7FEFF 		bl	_stats_stop_measure_crit_thd
 2020              	.LVL155:
 2021              		.loc 2 367 3 view .LVU445
 2022              		.loc 2 367 3 view .LVU446
 2023              		.loc 2 367 3 view .LVU447
 2024 003c 2B68     		ldr	r3, [r5]
 2025 003e AB42     		cmp	r3, r5
 2026 0040 04D0     		beq	.L134
 2027 0042 AA69     		ldr	r2, [r5, #24]
 2028 0044 9B68     		ldr	r3, [r3, #8]
 2029 0046 9268     		ldr	r2, [r2, #8]
 2030 0048 9A42     		cmp	r2, r3
 2031 004a 0AD3     		bcc	.L138
 2032              	.L134:
 2033              		.loc 2 367 3 view .LVU448
 2034              		.loc 2 371 3 view .LVU449
 2035              	.LBB321:
 2036              	.LBI321:
 2037              		.loc 3 458 20 view .LVU450
 2038              	.LBE321:
 2039              	.LBE320:
 2040              	.LBE319:
 2041              		.loc 3 461 3 view .LVU451
 2042              	.LVL156:
 2043              	.LBB327:
 2044              	.LBB325:
 2045              	.LBB324:
 2046              	.LBB322:
 2047              	.LBI322:
 2048              		.loc 4 544 57 view .LVU452
 2049              	.LBB323:
 2050              		.loc 4 546 3 view .LVU453
 2051 004c 0023     		movs	r3, #0
 2052              		.syntax unified
ARM GAS  /tmp/cccp0e2D.s 			page 37


 2053              	@ 546 ".//ChibiOS//os/ext/CMSIS/include/core_cmFunc.h" 1
 2054 004e 83F31188 		MSR basepri, r3
 2055              	@ 0 "" 2
 2056              	.LVL157:
 2057              		.loc 4 546 3 is_stmt 0 view .LVU454
 2058              		.thumb
 2059              		.syntax unified
 2060              	.LBE323:
 2061              	.LBE322:
 2062              	.LBE324:
 2063              	.LBE325:
 2064              	.LBE327:
 2065              		.loc 1 398 3 is_stmt 1 view .LVU455
 2066              		.loc 1 399 1 is_stmt 0 view .LVU456
 2067 0052 0B4B     		ldr	r3, .L140
 2068 0054 1A68     		ldr	r2, [r3]
 2069 0056 019B     		ldr	r3, [sp, #4]
 2070 0058 5A40     		eors	r2, r3, r2
 2071 005a 0ED1     		bne	.L139
 2072 005c 2046     		mov	r0, r4
 2073 005e 02B0     		add	sp, sp, #8
 2074              		.cfi_remember_state
 2075              		.cfi_def_cfa_offset 16
 2076              		@ sp needed
 2077 0060 70BD     		pop	{r4, r5, r6, pc}
 2078              	.LVL158:
 2079              	.L138:
 2080              		.cfi_restore_state
 2081              	.LBB328:
 2082              	.LBB326:
 2083              		.loc 2 367 3 is_stmt 1 view .LVU457
 2084 0062 0948     		ldr	r0, .L140+8
 2085 0064 FFF7FEFF 		bl	chSysHalt
 2086              	.LVL159:
 2087 0068 F0E7     		b	.L134
 2088              	.LVL160:
 2089              	.L137:
 2090              		.loc 2 367 3 is_stmt 0 view .LVU458
 2091              	.LBE326:
 2092              	.LBE328:
 2093              		.loc 1 390 5 is_stmt 1 view .LVU459
 2094              		.loc 1 390 21 is_stmt 0 view .LVU460
 2095 006a B462     		str	r4, [r6, #40]
 2096              		.loc 1 391 5 is_stmt 1 view .LVU461
 2097 006c 0A20     		movs	r0, #10
 2098 006e FFF7FEFF 		bl	chSchGoSleepS
 2099              	.LVL161:
 2100              		.loc 1 392 5 view .LVU462
 2101              		.loc 1 392 12 is_stmt 0 view .LVU463
 2102 0072 F36B     		ldr	r3, [r6, #60]
 2103              		.loc 1 392 7 view .LVU464
 2104 0074 03EA0402 		and	r2, r3, r4
 2105              	.LVL162:
 2106              		.loc 1 392 7 view .LVU465
 2107 0078 D7E7     		b	.L133
 2108              	.LVL163:
 2109              	.L139:
ARM GAS  /tmp/cccp0e2D.s 			page 38


 2110              		.loc 1 399 1 view .LVU466
 2111 007a FFF7FEFF 		bl	__stack_chk_fail
 2112              	.LVL164:
 2113              	.L141:
 2114 007e 00BF     		.align	2
 2115              	.L140:
 2116 0080 00000000 		.word	.LC11
 2117 0084 00000000 		.word	ch
 2118 0088 00000000 		.word	.LANCHOR1
 2119              		.cfi_endproc
 2120              	.LFE230:
 2121              		.size	chEvtWaitOne, .-chEvtWaitOne
 2122              		.section	.rodata.chEvtWaitAny.cst4,"aM",%progbits,4
 2123              		.align	2
 2124              	.LC12:
 2125 0000 00000000 		.word	__stack_chk_guard
 2126              		.section	.text.chEvtWaitAny,"ax",%progbits
 2127              		.align	1
 2128              		.p2align 4,,15
 2129              		.global	chEvtWaitAny
 2130              		.syntax unified
 2131              		.thumb
 2132              		.thumb_func
 2133              		.fpu fpv4-sp-d16
 2134              		.type	chEvtWaitAny, %function
 2135              	chEvtWaitAny:
 2136              	.LVL165:
 2137              	.LFB231:
 2138              		.loc 1 413 46 is_stmt 1 view -0
 2139              		.cfi_startproc
 2140              		@ args = 0, pretend = 0, frame = 8
 2141              		@ frame_needed = 0, uses_anonymous_args = 0
 2142              		.loc 1 413 46 is_stmt 0 view .LVU468
 2143 0000 F0B5     		push	{r4, r5, r6, r7, lr}
 2144              		.cfi_def_cfa_offset 20
 2145              		.cfi_offset 4, -20
 2146              		.cfi_offset 5, -16
 2147              		.cfi_offset 6, -12
 2148              		.cfi_offset 7, -8
 2149              		.cfi_offset 14, -4
 2150 0002 1E4B     		ldr	r3, .L150
 2151              		.loc 1 414 13 view .LVU469
 2152 0004 1E4D     		ldr	r5, .L150+4
 2153              		.loc 1 413 46 view .LVU470
 2154 0006 83B0     		sub	sp, sp, #12
 2155              		.cfi_def_cfa_offset 32
 2156              		.loc 1 413 46 view .LVU471
 2157 0008 1B68     		ldr	r3, [r3]
 2158 000a 0193     		str	r3, [sp, #4]
 2159 000c 4FF00003 		mov	r3,#0
 2160              		.loc 1 414 3 is_stmt 1 view .LVU472
 2161              		.loc 1 414 13 is_stmt 0 view .LVU473
 2162 0010 AE69     		ldr	r6, [r5, #24]
 2163              	.LVL166:
 2164              		.loc 1 415 3 is_stmt 1 view .LVU474
 2165              		.loc 1 417 3 view .LVU475
 2166              	.LBB339:
ARM GAS  /tmp/cccp0e2D.s 			page 39


 2167              	.LBI339:
 2168              		.loc 2 346 20 view .LVU476
 2169              	.LBB340:
 2170              		.loc 2 348 3 view .LVU477
 2171              	.LBB341:
 2172              	.LBI341:
 2173              		.loc 3 444 20 view .LVU478
 2174              	.LBE341:
 2175              	.LBE340:
 2176              	.LBE339:
 2177              		.loc 3 447 3 view .LVU479
 2178              	.LBB350:
 2179              	.LBB348:
 2180              	.LBB346:
 2181              	.LBB342:
 2182              	.LBI342:
 2183              		.loc 4 544 57 view .LVU480
 2184              	.LBB343:
 2185              		.loc 4 546 3 view .LVU481
 2186              	.LBE343:
 2187              	.LBE342:
 2188              	.LBE346:
 2189              	.LBE348:
 2190              	.LBE350:
 2191              		.loc 1 413 46 is_stmt 0 view .LVU482
 2192 0012 0446     		mov	r4, r0
 2193              	.LBB351:
 2194              	.LBB349:
 2195              	.LBB347:
 2196              	.LBB345:
 2197              	.LBB344:
 2198              		.loc 4 546 3 view .LVU483
 2199 0014 2023     		movs	r3, #32
 2200              		.syntax unified
 2201              	@ 546 ".//ChibiOS//os/ext/CMSIS/include/core_cmFunc.h" 1
 2202 0016 83F31188 		MSR basepri, r3
 2203              	@ 0 "" 2
 2204              	.LVL167:
 2205              		.loc 4 546 3 view .LVU484
 2206              		.thumb
 2207              		.syntax unified
 2208              	.LBE344:
 2209              	.LBE345:
 2210              	.LBE347:
 2211              		.loc 2 349 3 is_stmt 1 view .LVU485
 2212 001a FFF7FEFF 		bl	_stats_start_measure_crit_thd
 2213              	.LVL168:
 2214              		.loc 2 350 3 view .LVU486
 2215 001e FFF7FEFF 		bl	_dbg_check_lock
 2216              	.LVL169:
 2217              	.LBE349:
 2218              	.LBE351:
 2219              		.loc 1 418 3 view .LVU487
 2220              		.loc 1 418 10 is_stmt 0 view .LVU488
 2221 0022 F36B     		ldr	r3, [r6, #60]
 2222              	.LVL170:
 2223              		.loc 1 419 3 is_stmt 1 view .LVU489
ARM GAS  /tmp/cccp0e2D.s 			page 40


 2224              		.loc 1 419 6 is_stmt 0 view .LVU490
 2225 0024 13EA0407 		ands	r7, r3, r4
 2226              	.LVL171:
 2227              		.loc 1 419 6 view .LVU491
 2228 0028 1DD0     		beq	.L147
 2229              	.LVL172:
 2230              	.L143:
 2231              		.loc 1 424 3 is_stmt 1 view .LVU492
 2232              		.loc 1 424 19 is_stmt 0 view .LVU493
 2233 002a 23EA0703 		bic	r3, r3, r7
 2234 002e F363     		str	r3, [r6, #60]
 2235              		.loc 1 425 3 is_stmt 1 view .LVU494
 2236              	.LBB352:
 2237              	.LBI352:
 2238              		.loc 2 358 20 view .LVU495
 2239              	.LBB353:
 2240              		.loc 2 360 3 view .LVU496
 2241 0030 FFF7FEFF 		bl	_dbg_check_unlock
 2242              	.LVL173:
 2243              		.loc 2 361 3 view .LVU497
 2244 0034 FFF7FEFF 		bl	_stats_stop_measure_crit_thd
 2245              	.LVL174:
 2246              		.loc 2 367 3 view .LVU498
 2247              		.loc 2 367 3 view .LVU499
 2248              		.loc 2 367 3 view .LVU500
 2249 0038 2B68     		ldr	r3, [r5]
 2250 003a AB42     		cmp	r3, r5
 2251 003c 04D0     		beq	.L144
 2252 003e AA69     		ldr	r2, [r5, #24]
 2253 0040 9B68     		ldr	r3, [r3, #8]
 2254 0042 9268     		ldr	r2, [r2, #8]
 2255 0044 9A42     		cmp	r2, r3
 2256 0046 0AD3     		bcc	.L148
 2257              	.L144:
 2258              		.loc 2 367 3 view .LVU501
 2259              		.loc 2 371 3 view .LVU502
 2260              	.LBB354:
 2261              	.LBI354:
 2262              		.loc 3 458 20 view .LVU503
 2263              	.LBE354:
 2264              	.LBE353:
 2265              	.LBE352:
 2266              		.loc 3 461 3 view .LVU504
 2267              	.LVL175:
 2268              	.LBB360:
 2269              	.LBB358:
 2270              	.LBB357:
 2271              	.LBB355:
 2272              	.LBI355:
 2273              		.loc 4 544 57 view .LVU505
 2274              	.LBB356:
 2275              		.loc 4 546 3 view .LVU506
 2276 0048 0023     		movs	r3, #0
 2277              		.syntax unified
 2278              	@ 546 ".//ChibiOS//os/ext/CMSIS/include/core_cmFunc.h" 1
 2279 004a 83F31188 		MSR basepri, r3
 2280              	@ 0 "" 2
ARM GAS  /tmp/cccp0e2D.s 			page 41


 2281              	.LVL176:
 2282              		.loc 4 546 3 is_stmt 0 view .LVU507
 2283              		.thumb
 2284              		.syntax unified
 2285              	.LBE356:
 2286              	.LBE355:
 2287              	.LBE357:
 2288              	.LBE358:
 2289              	.LBE360:
 2290              		.loc 1 427 3 is_stmt 1 view .LVU508
 2291              		.loc 1 428 1 is_stmt 0 view .LVU509
 2292 004e 0B4B     		ldr	r3, .L150
 2293 0050 1A68     		ldr	r2, [r3]
 2294 0052 019B     		ldr	r3, [sp, #4]
 2295 0054 5A40     		eors	r2, r3, r2
 2296 0056 0ED1     		bne	.L149
 2297 0058 3846     		mov	r0, r7
 2298 005a 03B0     		add	sp, sp, #12
 2299              		.cfi_remember_state
 2300              		.cfi_def_cfa_offset 20
 2301              		@ sp needed
 2302 005c F0BD     		pop	{r4, r5, r6, r7, pc}
 2303              	.LVL177:
 2304              	.L148:
 2305              		.cfi_restore_state
 2306              	.LBB361:
 2307              	.LBB359:
 2308              		.loc 2 367 3 is_stmt 1 view .LVU510
 2309 005e 0948     		ldr	r0, .L150+8
 2310 0060 FFF7FEFF 		bl	chSysHalt
 2311              	.LVL178:
 2312 0064 F0E7     		b	.L144
 2313              	.L147:
 2314              		.loc 2 367 3 is_stmt 0 view .LVU511
 2315              	.LBE359:
 2316              	.LBE361:
 2317              		.loc 1 420 5 is_stmt 1 view .LVU512
 2318              		.loc 1 420 21 is_stmt 0 view .LVU513
 2319 0066 B462     		str	r4, [r6, #40]
 2320              		.loc 1 421 5 is_stmt 1 view .LVU514
 2321 0068 0A20     		movs	r0, #10
 2322 006a FFF7FEFF 		bl	chSchGoSleepS
 2323              	.LVL179:
 2324              		.loc 1 422 5 view .LVU515
 2325              		.loc 1 422 12 is_stmt 0 view .LVU516
 2326 006e F36B     		ldr	r3, [r6, #60]
 2327              		.loc 1 422 7 view .LVU517
 2328 0070 03EA0407 		and	r7, r3, r4
 2329              	.LVL180:
 2330              		.loc 1 422 7 view .LVU518
 2331 0074 D9E7     		b	.L143
 2332              	.L149:
 2333              		.loc 1 428 1 view .LVU519
 2334 0076 FFF7FEFF 		bl	__stack_chk_fail
 2335              	.LVL181:
 2336              	.L151:
 2337 007a 00BF     		.align	2
ARM GAS  /tmp/cccp0e2D.s 			page 42


 2338              	.L150:
 2339 007c 00000000 		.word	.LC12
 2340 0080 00000000 		.word	ch
 2341 0084 00000000 		.word	.LANCHOR1
 2342              		.cfi_endproc
 2343              	.LFE231:
 2344              		.size	chEvtWaitAny, .-chEvtWaitAny
 2345              		.section	.rodata.chEvtWaitAll.cst4,"aM",%progbits,4
 2346              		.align	2
 2347              	.LC13:
 2348 0000 00000000 		.word	__stack_chk_guard
 2349              		.section	.text.chEvtWaitAll,"ax",%progbits
 2350              		.align	1
 2351              		.p2align 4,,15
 2352              		.global	chEvtWaitAll
 2353              		.syntax unified
 2354              		.thumb
 2355              		.thumb_func
 2356              		.fpu fpv4-sp-d16
 2357              		.type	chEvtWaitAll, %function
 2358              	chEvtWaitAll:
 2359              	.LVL182:
 2360              	.LFB232:
 2361              		.loc 1 441 46 is_stmt 1 view -0
 2362              		.cfi_startproc
 2363              		@ args = 0, pretend = 0, frame = 8
 2364              		@ frame_needed = 0, uses_anonymous_args = 0
 2365              		.loc 1 441 46 is_stmt 0 view .LVU521
 2366 0000 70B5     		push	{r4, r5, r6, lr}
 2367              		.cfi_def_cfa_offset 16
 2368              		.cfi_offset 4, -16
 2369              		.cfi_offset 5, -12
 2370              		.cfi_offset 6, -8
 2371              		.cfi_offset 14, -4
 2372 0002 1C4B     		ldr	r3, .L159
 2373              		.loc 1 442 13 view .LVU522
 2374 0004 1C4D     		ldr	r5, .L159+4
 2375              		.loc 1 441 46 view .LVU523
 2376 0006 82B0     		sub	sp, sp, #8
 2377              		.cfi_def_cfa_offset 24
 2378              		.loc 1 441 46 view .LVU524
 2379 0008 1B68     		ldr	r3, [r3]
 2380 000a 0193     		str	r3, [sp, #4]
 2381 000c 4FF00003 		mov	r3,#0
 2382              		.loc 1 442 3 is_stmt 1 view .LVU525
 2383              		.loc 1 442 13 is_stmt 0 view .LVU526
 2384 0010 AE69     		ldr	r6, [r5, #24]
 2385              	.LVL183:
 2386              		.loc 1 444 3 is_stmt 1 view .LVU527
 2387              	.LBB372:
 2388              	.LBI372:
 2389              		.loc 2 346 20 view .LVU528
 2390              	.LBB373:
 2391              		.loc 2 348 3 view .LVU529
 2392              	.LBB374:
 2393              	.LBI374:
 2394              		.loc 3 444 20 view .LVU530
ARM GAS  /tmp/cccp0e2D.s 			page 43


 2395              	.LBE374:
 2396              	.LBE373:
 2397              	.LBE372:
 2398              		.loc 3 447 3 view .LVU531
 2399              	.LBB383:
 2400              	.LBB381:
 2401              	.LBB379:
 2402              	.LBB375:
 2403              	.LBI375:
 2404              		.loc 4 544 57 view .LVU532
 2405              	.LBB376:
 2406              		.loc 4 546 3 view .LVU533
 2407              	.LBE376:
 2408              	.LBE375:
 2409              	.LBE379:
 2410              	.LBE381:
 2411              	.LBE383:
 2412              		.loc 1 441 46 is_stmt 0 view .LVU534
 2413 0012 0446     		mov	r4, r0
 2414              	.LBB384:
 2415              	.LBB382:
 2416              	.LBB380:
 2417              	.LBB378:
 2418              	.LBB377:
 2419              		.loc 4 546 3 view .LVU535
 2420 0014 2023     		movs	r3, #32
 2421              		.syntax unified
 2422              	@ 546 ".//ChibiOS//os/ext/CMSIS/include/core_cmFunc.h" 1
 2423 0016 83F31188 		MSR basepri, r3
 2424              	@ 0 "" 2
 2425              	.LVL184:
 2426              		.loc 4 546 3 view .LVU536
 2427              		.thumb
 2428              		.syntax unified
 2429              	.LBE377:
 2430              	.LBE378:
 2431              	.LBE380:
 2432              		.loc 2 349 3 is_stmt 1 view .LVU537
 2433 001a FFF7FEFF 		bl	_stats_start_measure_crit_thd
 2434              	.LVL185:
 2435              		.loc 2 350 3 view .LVU538
 2436 001e FFF7FEFF 		bl	_dbg_check_lock
 2437              	.LVL186:
 2438              	.LBE382:
 2439              	.LBE384:
 2440              		.loc 1 445 3 view .LVU539
 2441              		.loc 1 445 11 is_stmt 0 view .LVU540
 2442 0022 F36B     		ldr	r3, [r6, #60]
 2443              		.loc 1 445 6 view .LVU541
 2444 0024 34EA0302 		bics	r2, r4, r3
 2445 0028 04D0     		beq	.L153
 2446              		.loc 1 446 5 is_stmt 1 view .LVU542
 2447              		.loc 1 446 21 is_stmt 0 view .LVU543
 2448 002a B462     		str	r4, [r6, #40]
 2449              		.loc 1 447 5 is_stmt 1 view .LVU544
 2450 002c 0B20     		movs	r0, #11
 2451 002e FFF7FEFF 		bl	chSchGoSleepS
ARM GAS  /tmp/cccp0e2D.s 			page 44


 2452              	.LVL187:
 2453 0032 F36B     		ldr	r3, [r6, #60]
 2454              	.L153:
 2455              		.loc 1 449 3 view .LVU545
 2456              		.loc 1 449 19 is_stmt 0 view .LVU546
 2457 0034 23EA0403 		bic	r3, r3, r4
 2458 0038 F363     		str	r3, [r6, #60]
 2459              		.loc 1 450 3 is_stmt 1 view .LVU547
 2460              	.LBB385:
 2461              	.LBI385:
 2462              		.loc 2 358 20 view .LVU548
 2463              	.LBB386:
 2464              		.loc 2 360 3 view .LVU549
 2465 003a FFF7FEFF 		bl	_dbg_check_unlock
 2466              	.LVL188:
 2467              		.loc 2 361 3 view .LVU550
 2468 003e FFF7FEFF 		bl	_stats_stop_measure_crit_thd
 2469              	.LVL189:
 2470              		.loc 2 367 3 view .LVU551
 2471              		.loc 2 367 3 view .LVU552
 2472              		.loc 2 367 3 view .LVU553
 2473 0042 2B68     		ldr	r3, [r5]
 2474 0044 AB42     		cmp	r3, r5
 2475 0046 04D0     		beq	.L154
 2476 0048 AA69     		ldr	r2, [r5, #24]
 2477 004a 9B68     		ldr	r3, [r3, #8]
 2478 004c 9268     		ldr	r2, [r2, #8]
 2479 004e 9A42     		cmp	r2, r3
 2480 0050 0AD3     		bcc	.L157
 2481              	.L154:
 2482              		.loc 2 367 3 view .LVU554
 2483              		.loc 2 371 3 view .LVU555
 2484              	.LBB387:
 2485              	.LBI387:
 2486              		.loc 3 458 20 view .LVU556
 2487              	.LBE387:
 2488              	.LBE386:
 2489              	.LBE385:
 2490              		.loc 3 461 3 view .LVU557
 2491              	.LVL190:
 2492              	.LBB393:
 2493              	.LBB391:
 2494              	.LBB390:
 2495              	.LBB388:
 2496              	.LBI388:
 2497              		.loc 4 544 57 view .LVU558
 2498              	.LBB389:
 2499              		.loc 4 546 3 view .LVU559
 2500 0052 0023     		movs	r3, #0
 2501              		.syntax unified
 2502              	@ 546 ".//ChibiOS//os/ext/CMSIS/include/core_cmFunc.h" 1
 2503 0054 83F31188 		MSR basepri, r3
 2504              	@ 0 "" 2
 2505              	.LVL191:
 2506              		.loc 4 546 3 is_stmt 0 view .LVU560
 2507              		.thumb
 2508              		.syntax unified
ARM GAS  /tmp/cccp0e2D.s 			page 45


 2509              	.LBE389:
 2510              	.LBE388:
 2511              	.LBE390:
 2512              	.LBE391:
 2513              	.LBE393:
 2514              		.loc 1 452 3 is_stmt 1 view .LVU561
 2515              		.loc 1 453 1 is_stmt 0 view .LVU562
 2516 0058 064B     		ldr	r3, .L159
 2517 005a 1A68     		ldr	r2, [r3]
 2518 005c 019B     		ldr	r3, [sp, #4]
 2519 005e 5A40     		eors	r2, r3, r2
 2520 0060 06D1     		bne	.L158
 2521 0062 2046     		mov	r0, r4
 2522 0064 02B0     		add	sp, sp, #8
 2523              		.cfi_remember_state
 2524              		.cfi_def_cfa_offset 16
 2525              		@ sp needed
 2526 0066 70BD     		pop	{r4, r5, r6, pc}
 2527              	.LVL192:
 2528              	.L157:
 2529              		.cfi_restore_state
 2530              	.LBB394:
 2531              	.LBB392:
 2532              		.loc 2 367 3 is_stmt 1 view .LVU563
 2533 0068 0448     		ldr	r0, .L159+8
 2534 006a FFF7FEFF 		bl	chSysHalt
 2535              	.LVL193:
 2536 006e F0E7     		b	.L154
 2537              	.L158:
 2538              	.LBE392:
 2539              	.LBE394:
 2540              		.loc 1 453 1 is_stmt 0 view .LVU564
 2541 0070 FFF7FEFF 		bl	__stack_chk_fail
 2542              	.LVL194:
 2543              	.L160:
 2544              		.align	2
 2545              	.L159:
 2546 0074 00000000 		.word	.LC13
 2547 0078 00000000 		.word	ch
 2548 007c 00000000 		.word	.LANCHOR1
 2549              		.cfi_endproc
 2550              	.LFE232:
 2551              		.size	chEvtWaitAll, .-chEvtWaitAll
 2552              		.section	.rodata.chEvtWaitOneTimeout.cst4,"aM",%progbits,4
 2553              		.align	2
 2554              	.LC14:
 2555 0000 00000000 		.word	__stack_chk_guard
 2556              		.section	.text.chEvtWaitOneTimeout,"ax",%progbits
 2557              		.align	1
 2558              		.p2align 4,,15
 2559              		.global	chEvtWaitOneTimeout
 2560              		.syntax unified
 2561              		.thumb
 2562              		.thumb_func
 2563              		.fpu fpv4-sp-d16
 2564              		.type	chEvtWaitOneTimeout, %function
 2565              	chEvtWaitOneTimeout:
ARM GAS  /tmp/cccp0e2D.s 			page 46


 2566              	.LVL195:
 2567              	.LFB233:
 2568              		.loc 1 479 69 is_stmt 1 view -0
 2569              		.cfi_startproc
 2570              		@ args = 0, pretend = 0, frame = 8
 2571              		@ frame_needed = 0, uses_anonymous_args = 0
 2572              		.loc 1 479 69 is_stmt 0 view .LVU566
 2573 0000 2DE9F041 		push	{r4, r5, r6, r7, r8, lr}
 2574              		.cfi_def_cfa_offset 24
 2575              		.cfi_offset 4, -24
 2576              		.cfi_offset 5, -20
 2577              		.cfi_offset 6, -16
 2578              		.cfi_offset 7, -12
 2579              		.cfi_offset 8, -8
 2580              		.cfi_offset 14, -4
 2581 0004 2D4B     		ldr	r3, .L179
 2582              		.loc 1 480 13 view .LVU567
 2583 0006 2E4E     		ldr	r6, .L179+4
 2584              		.loc 1 479 69 view .LVU568
 2585 0008 82B0     		sub	sp, sp, #8
 2586              		.cfi_def_cfa_offset 32
 2587              		.loc 1 479 69 view .LVU569
 2588 000a 1B68     		ldr	r3, [r3]
 2589 000c 0193     		str	r3, [sp, #4]
 2590 000e 4FF00003 		mov	r3,#0
 2591              		.loc 1 480 3 is_stmt 1 view .LVU570
 2592              		.loc 1 480 13 is_stmt 0 view .LVU571
 2593 0012 D6F81880 		ldr	r8, [r6, #24]
 2594              	.LVL196:
 2595              		.loc 1 481 3 is_stmt 1 view .LVU572
 2596              		.loc 1 483 3 view .LVU573
 2597              	.LBB415:
 2598              	.LBI415:
 2599              		.loc 2 346 20 view .LVU574
 2600              	.LBB416:
 2601              		.loc 2 348 3 view .LVU575
 2602              	.LBB417:
 2603              	.LBI417:
 2604              		.loc 3 444 20 view .LVU576
 2605              	.LBE417:
 2606              	.LBE416:
 2607              	.LBE415:
 2608              		.loc 3 447 3 view .LVU577
 2609              	.LBB426:
 2610              	.LBB424:
 2611              	.LBB422:
 2612              	.LBB418:
 2613              	.LBI418:
 2614              		.loc 4 544 57 view .LVU578
 2615              	.LBB419:
 2616              		.loc 4 546 3 view .LVU579
 2617              	.LBE419:
 2618              	.LBE418:
 2619              	.LBE422:
 2620              	.LBE424:
 2621              	.LBE426:
 2622              		.loc 1 479 69 is_stmt 0 view .LVU580
ARM GAS  /tmp/cccp0e2D.s 			page 47


 2623 0016 0546     		mov	r5, r0
 2624 0018 0F46     		mov	r7, r1
 2625              	.LBB427:
 2626              	.LBB425:
 2627              	.LBB423:
 2628              	.LBB421:
 2629              	.LBB420:
 2630              		.loc 4 546 3 view .LVU581
 2631 001a 2023     		movs	r3, #32
 2632              		.syntax unified
 2633              	@ 546 ".//ChibiOS//os/ext/CMSIS/include/core_cmFunc.h" 1
 2634 001c 83F31188 		MSR basepri, r3
 2635              	@ 0 "" 2
 2636              	.LVL197:
 2637              		.loc 4 546 3 view .LVU582
 2638              		.thumb
 2639              		.syntax unified
 2640              	.LBE420:
 2641              	.LBE421:
 2642              	.LBE423:
 2643              		.loc 2 349 3 is_stmt 1 view .LVU583
 2644 0020 FFF7FEFF 		bl	_stats_start_measure_crit_thd
 2645              	.LVL198:
 2646              		.loc 2 350 3 view .LVU584
 2647 0024 FFF7FEFF 		bl	_dbg_check_lock
 2648              	.LVL199:
 2649              	.LBE425:
 2650              	.LBE427:
 2651              		.loc 1 484 3 view .LVU585
 2652              		.loc 1 484 10 is_stmt 0 view .LVU586
 2653 0028 D8F83C30 		ldr	r3, [r8, #60]
 2654              	.LVL200:
 2655              		.loc 1 485 3 is_stmt 1 view .LVU587
 2656              		.loc 1 485 6 is_stmt 0 view .LVU588
 2657 002c 13EA0504 		ands	r4, r3, r5
 2658              	.LVL201:
 2659              		.loc 1 485 6 view .LVU589
 2660 0030 0CD1     		bne	.L162
 2661              		.loc 1 486 5 is_stmt 1 view .LVU590
 2662              		.loc 1 486 8 is_stmt 0 view .LVU591
 2663 0032 4FB3     		cbz	r7, .L176
 2664              		.loc 1 490 5 is_stmt 1 view .LVU592
 2665              		.loc 1 490 21 is_stmt 0 view .LVU593
 2666 0034 C8F82850 		str	r5, [r8, #40]
 2667              		.loc 1 491 5 is_stmt 1 view .LVU594
 2668              		.loc 1 491 9 is_stmt 0 view .LVU595
 2669 0038 3946     		mov	r1, r7
 2670 003a 0A20     		movs	r0, #10
 2671 003c FFF7FEFF 		bl	chSchGoSleepTimeoutS
 2672              	.LVL202:
 2673              		.loc 1 491 8 view .LVU596
 2674 0040 0028     		cmp	r0, #0
 2675 0042 09DB     		blt	.L175
 2676              		.loc 1 495 5 is_stmt 1 view .LVU597
 2677              		.loc 1 495 12 is_stmt 0 view .LVU598
 2678 0044 D8F83C30 		ldr	r3, [r8, #60]
 2679              		.loc 1 495 7 view .LVU599
ARM GAS  /tmp/cccp0e2D.s 			page 48


 2680 0048 03EA0504 		and	r4, r3, r5
 2681              	.LVL203:
 2682              	.L162:
 2683              		.loc 1 497 3 is_stmt 1 view .LVU600
 2684              		.loc 1 497 5 is_stmt 0 view .LVU601
 2685 004c 6242     		rsbs	r2, r4, #0
 2686 004e 1440     		ands	r4, r4, r2
 2687              	.LVL204:
 2688              		.loc 1 498 3 is_stmt 1 view .LVU602
 2689              		.loc 1 498 19 is_stmt 0 view .LVU603
 2690 0050 23EA0403 		bic	r3, r3, r4
 2691 0054 C8F83C30 		str	r3, [r8, #60]
 2692              	.LVL205:
 2693              	.L175:
 2694              		.loc 1 499 3 is_stmt 1 view .LVU604
 2695              	.LBB428:
 2696              	.LBI428:
 2697              		.loc 2 358 20 view .LVU605
 2698              	.LBB429:
 2699              		.loc 2 360 3 view .LVU606
 2700 0058 FFF7FEFF 		bl	_dbg_check_unlock
 2701              	.LVL206:
 2702              		.loc 2 361 3 view .LVU607
 2703 005c FFF7FEFF 		bl	_stats_stop_measure_crit_thd
 2704              	.LVL207:
 2705              		.loc 2 367 3 view .LVU608
 2706              		.loc 2 367 3 view .LVU609
 2707              		.loc 2 367 3 view .LVU610
 2708 0060 3368     		ldr	r3, [r6]
 2709 0062 B342     		cmp	r3, r6
 2710 0064 04D0     		beq	.L168
 2711 0066 B269     		ldr	r2, [r6, #24]
 2712 0068 9B68     		ldr	r3, [r3, #8]
 2713 006a 9268     		ldr	r2, [r2, #8]
 2714 006c 9A42     		cmp	r2, r3
 2715 006e 1ED3     		bcc	.L177
 2716              	.L168:
 2717              		.loc 2 367 3 view .LVU611
 2718              		.loc 2 371 3 view .LVU612
 2719              	.LBB430:
 2720              	.LBI430:
 2721              		.loc 3 458 20 view .LVU613
 2722              	.LBE430:
 2723              	.LBE429:
 2724              	.LBE428:
 2725              		.loc 3 461 3 view .LVU614
 2726              	.LVL208:
 2727              	.LBB436:
 2728              	.LBB434:
 2729              	.LBB433:
 2730              	.LBB431:
 2731              	.LBI431:
 2732              		.loc 4 544 57 view .LVU615
 2733              	.LBB432:
 2734              		.loc 4 546 3 view .LVU616
 2735 0070 0023     		movs	r3, #0
 2736              		.syntax unified
ARM GAS  /tmp/cccp0e2D.s 			page 49


 2737              	@ 546 ".//ChibiOS//os/ext/CMSIS/include/core_cmFunc.h" 1
 2738 0072 83F31188 		MSR basepri, r3
 2739              	@ 0 "" 2
 2740              	.LVL209:
 2741              		.thumb
 2742              		.syntax unified
 2743              	.L161:
 2744              		.loc 4 546 3 is_stmt 0 view .LVU617
 2745              	.LBE432:
 2746              	.LBE431:
 2747              	.LBE433:
 2748              	.LBE434:
 2749              	.LBE436:
 2750              		.loc 1 502 1 view .LVU618
 2751 0076 114B     		ldr	r3, .L179
 2752 0078 1A68     		ldr	r2, [r3]
 2753 007a 019B     		ldr	r3, [sp, #4]
 2754 007c 5A40     		eors	r2, r3, r2
 2755 007e 1AD1     		bne	.L178
 2756 0080 2046     		mov	r0, r4
 2757 0082 02B0     		add	sp, sp, #8
 2758              		.cfi_remember_state
 2759              		.cfi_def_cfa_offset 24
 2760              		@ sp needed
 2761 0084 BDE8F081 		pop	{r4, r5, r6, r7, r8, pc}
 2762              	.LVL210:
 2763              	.L176:
 2764              		.cfi_restore_state
 2765              		.loc 1 487 7 is_stmt 1 view .LVU619
 2766              	.LBB437:
 2767              	.LBI437:
 2768              		.loc 2 358 20 view .LVU620
 2769              	.LBB438:
 2770              		.loc 2 360 3 view .LVU621
 2771 0088 FFF7FEFF 		bl	_dbg_check_unlock
 2772              	.LVL211:
 2773              		.loc 2 361 3 view .LVU622
 2774 008c FFF7FEFF 		bl	_stats_stop_measure_crit_thd
 2775              	.LVL212:
 2776              		.loc 2 367 3 view .LVU623
 2777              		.loc 2 367 3 view .LVU624
 2778              		.loc 2 367 3 view .LVU625
 2779 0090 3368     		ldr	r3, [r6]
 2780 0092 B342     		cmp	r3, r6
 2781 0094 07D0     		beq	.L164
 2782 0096 B269     		ldr	r2, [r6, #24]
 2783 0098 9B68     		ldr	r3, [r3, #8]
 2784 009a 9268     		ldr	r2, [r2, #8]
 2785 009c 9A42     		cmp	r2, r3
 2786 009e 02D2     		bcs	.L164
 2787              		.loc 2 367 3 view .LVU626
 2788 00a0 0848     		ldr	r0, .L179+8
 2789 00a2 FFF7FEFF 		bl	chSysHalt
 2790              	.LVL213:
 2791              	.L164:
 2792              		.loc 2 367 3 view .LVU627
 2793              		.loc 2 371 3 view .LVU628
ARM GAS  /tmp/cccp0e2D.s 			page 50


 2794              	.LBB439:
 2795              	.LBI439:
 2796              		.loc 3 458 20 view .LVU629
 2797              	.LBE439:
 2798              	.LBE438:
 2799              	.LBE437:
 2800              		.loc 3 461 3 view .LVU630
 2801              	.LBB444:
 2802              	.LBB443:
 2803              	.LBB442:
 2804              	.LBB440:
 2805              	.LBI440:
 2806              		.loc 4 544 57 view .LVU631
 2807              	.LBB441:
 2808              		.loc 4 546 3 view .LVU632
 2809 00a6 0024     		movs	r4, #0
 2810              	.LVL214:
 2811              		.loc 4 546 3 is_stmt 0 view .LVU633
 2812              		.syntax unified
 2813              	@ 546 ".//ChibiOS//os/ext/CMSIS/include/core_cmFunc.h" 1
 2814 00a8 84F31188 		MSR basepri, r4
 2815              	@ 0 "" 2
 2816              	.LVL215:
 2817              		.loc 4 546 3 view .LVU634
 2818              		.thumb
 2819              		.syntax unified
 2820              	.LBE441:
 2821              	.LBE440:
 2822              	.LBE442:
 2823              		.loc 2 372 1 view .LVU635
 2824 00ac E3E7     		b	.L161
 2825              	.L177:
 2826              		.loc 2 372 1 view .LVU636
 2827              	.LBE443:
 2828              	.LBE444:
 2829              	.LBB445:
 2830              	.LBB435:
 2831              		.loc 2 367 3 is_stmt 1 view .LVU637
 2832 00ae 0548     		ldr	r0, .L179+8
 2833 00b0 FFF7FEFF 		bl	chSysHalt
 2834              	.LVL216:
 2835 00b4 DCE7     		b	.L168
 2836              	.L178:
 2837              	.LBE435:
 2838              	.LBE445:
 2839              		.loc 1 502 1 is_stmt 0 view .LVU638
 2840 00b6 FFF7FEFF 		bl	__stack_chk_fail
 2841              	.LVL217:
 2842              	.L180:
 2843 00ba 00BF     		.align	2
 2844              	.L179:
 2845 00bc 00000000 		.word	.LC14
 2846 00c0 00000000 		.word	ch
 2847 00c4 00000000 		.word	.LANCHOR1
 2848              		.cfi_endproc
 2849              	.LFE233:
 2850              		.size	chEvtWaitOneTimeout, .-chEvtWaitOneTimeout
ARM GAS  /tmp/cccp0e2D.s 			page 51


 2851              		.section	.rodata.chEvtWaitAnyTimeout.cst4,"aM",%progbits,4
 2852              		.align	2
 2853              	.LC15:
 2854 0000 00000000 		.word	__stack_chk_guard
 2855              		.section	.text.chEvtWaitAnyTimeout,"ax",%progbits
 2856              		.align	1
 2857              		.p2align 4,,15
 2858              		.global	chEvtWaitAnyTimeout
 2859              		.syntax unified
 2860              		.thumb
 2861              		.thumb_func
 2862              		.fpu fpv4-sp-d16
 2863              		.type	chEvtWaitAnyTimeout, %function
 2864              	chEvtWaitAnyTimeout:
 2865              	.LVL218:
 2866              	.LFB234:
 2867              		.loc 1 522 69 is_stmt 1 view -0
 2868              		.cfi_startproc
 2869              		@ args = 0, pretend = 0, frame = 8
 2870              		@ frame_needed = 0, uses_anonymous_args = 0
 2871              		.loc 1 522 69 is_stmt 0 view .LVU640
 2872 0000 2DE9F041 		push	{r4, r5, r6, r7, r8, lr}
 2873              		.cfi_def_cfa_offset 24
 2874              		.cfi_offset 4, -24
 2875              		.cfi_offset 5, -20
 2876              		.cfi_offset 6, -16
 2877              		.cfi_offset 7, -12
 2878              		.cfi_offset 8, -8
 2879              		.cfi_offset 14, -4
 2880 0004 2A4B     		ldr	r3, .L199
 2881              		.loc 1 523 13 view .LVU641
 2882 0006 2B4D     		ldr	r5, .L199+4
 2883              		.loc 1 522 69 view .LVU642
 2884 0008 82B0     		sub	sp, sp, #8
 2885              		.cfi_def_cfa_offset 32
 2886              		.loc 1 522 69 view .LVU643
 2887 000a 1B68     		ldr	r3, [r3]
 2888 000c 0193     		str	r3, [sp, #4]
 2889 000e 4FF00003 		mov	r3,#0
 2890              		.loc 1 523 3 is_stmt 1 view .LVU644
 2891              		.loc 1 523 13 is_stmt 0 view .LVU645
 2892 0012 AF69     		ldr	r7, [r5, #24]
 2893              	.LVL219:
 2894              		.loc 1 524 3 is_stmt 1 view .LVU646
 2895              		.loc 1 526 3 view .LVU647
 2896              	.LBB466:
 2897              	.LBI466:
 2898              		.loc 2 346 20 view .LVU648
 2899              	.LBB467:
 2900              		.loc 2 348 3 view .LVU649
 2901              	.LBB468:
 2902              	.LBI468:
 2903              		.loc 3 444 20 view .LVU650
 2904              	.LBE468:
 2905              	.LBE467:
 2906              	.LBE466:
 2907              		.loc 3 447 3 view .LVU651
ARM GAS  /tmp/cccp0e2D.s 			page 52


 2908              	.LBB477:
 2909              	.LBB475:
 2910              	.LBB473:
 2911              	.LBB469:
 2912              	.LBI469:
 2913              		.loc 4 544 57 view .LVU652
 2914              	.LBB470:
 2915              		.loc 4 546 3 view .LVU653
 2916              	.LBE470:
 2917              	.LBE469:
 2918              	.LBE473:
 2919              	.LBE475:
 2920              	.LBE477:
 2921              		.loc 1 522 69 is_stmt 0 view .LVU654
 2922 0014 0446     		mov	r4, r0
 2923 0016 0E46     		mov	r6, r1
 2924              	.LBB478:
 2925              	.LBB476:
 2926              	.LBB474:
 2927              	.LBB472:
 2928              	.LBB471:
 2929              		.loc 4 546 3 view .LVU655
 2930 0018 2023     		movs	r3, #32
 2931              		.syntax unified
 2932              	@ 546 ".//ChibiOS//os/ext/CMSIS/include/core_cmFunc.h" 1
 2933 001a 83F31188 		MSR basepri, r3
 2934              	@ 0 "" 2
 2935              	.LVL220:
 2936              		.loc 4 546 3 view .LVU656
 2937              		.thumb
 2938              		.syntax unified
 2939              	.LBE471:
 2940              	.LBE472:
 2941              	.LBE474:
 2942              		.loc 2 349 3 is_stmt 1 view .LVU657
 2943 001e FFF7FEFF 		bl	_stats_start_measure_crit_thd
 2944              	.LVL221:
 2945              		.loc 2 350 3 view .LVU658
 2946 0022 FFF7FEFF 		bl	_dbg_check_lock
 2947              	.LVL222:
 2948              	.LBE476:
 2949              	.LBE478:
 2950              		.loc 1 527 3 view .LVU659
 2951              		.loc 1 527 10 is_stmt 0 view .LVU660
 2952 0026 FB6B     		ldr	r3, [r7, #60]
 2953              	.LVL223:
 2954              		.loc 1 528 3 is_stmt 1 view .LVU661
 2955              		.loc 1 528 6 is_stmt 0 view .LVU662
 2956 0028 13EA0408 		ands	r8, r3, r4
 2957              	.LVL224:
 2958              		.loc 1 528 6 view .LVU663
 2959 002c 0AD1     		bne	.L182
 2960              		.loc 1 529 5 is_stmt 1 view .LVU664
 2961              		.loc 1 529 8 is_stmt 0 view .LVU665
 2962 002e 26B3     		cbz	r6, .L196
 2963              		.loc 1 533 5 is_stmt 1 view .LVU666
 2964              		.loc 1 533 21 is_stmt 0 view .LVU667
ARM GAS  /tmp/cccp0e2D.s 			page 53


 2965 0030 BC62     		str	r4, [r7, #40]
 2966              		.loc 1 534 5 is_stmt 1 view .LVU668
 2967              		.loc 1 534 9 is_stmt 0 view .LVU669
 2968 0032 3146     		mov	r1, r6
 2969 0034 0A20     		movs	r0, #10
 2970 0036 FFF7FEFF 		bl	chSchGoSleepTimeoutS
 2971              	.LVL225:
 2972              		.loc 1 534 8 view .LVU670
 2973 003a 0028     		cmp	r0, #0
 2974 003c 05DB     		blt	.L195
 2975              		.loc 1 538 5 is_stmt 1 view .LVU671
 2976              		.loc 1 538 12 is_stmt 0 view .LVU672
 2977 003e FB6B     		ldr	r3, [r7, #60]
 2978              		.loc 1 538 7 view .LVU673
 2979 0040 03EA0408 		and	r8, r3, r4
 2980              	.LVL226:
 2981              	.L182:
 2982              		.loc 1 540 3 is_stmt 1 view .LVU674
 2983              		.loc 1 540 19 is_stmt 0 view .LVU675
 2984 0044 23EA0803 		bic	r3, r3, r8
 2985 0048 FB63     		str	r3, [r7, #60]
 2986              	.LVL227:
 2987              	.L195:
 2988              		.loc 1 541 3 is_stmt 1 view .LVU676
 2989              	.LBB479:
 2990              	.LBI479:
 2991              		.loc 2 358 20 view .LVU677
 2992              	.LBB480:
 2993              		.loc 2 360 3 view .LVU678
 2994 004a FFF7FEFF 		bl	_dbg_check_unlock
 2995              	.LVL228:
 2996              		.loc 2 361 3 view .LVU679
 2997 004e FFF7FEFF 		bl	_stats_stop_measure_crit_thd
 2998              	.LVL229:
 2999              		.loc 2 367 3 view .LVU680
 3000              		.loc 2 367 3 view .LVU681
 3001              		.loc 2 367 3 view .LVU682
 3002 0052 2B68     		ldr	r3, [r5]
 3003 0054 AB42     		cmp	r3, r5
 3004 0056 04D0     		beq	.L188
 3005 0058 AA69     		ldr	r2, [r5, #24]
 3006 005a 9B68     		ldr	r3, [r3, #8]
 3007 005c 9268     		ldr	r2, [r2, #8]
 3008 005e 9A42     		cmp	r2, r3
 3009 0060 1FD3     		bcc	.L197
 3010              	.L188:
 3011              		.loc 2 367 3 view .LVU683
 3012              		.loc 2 371 3 view .LVU684
 3013              	.LBB481:
 3014              	.LBI481:
 3015              		.loc 3 458 20 view .LVU685
 3016              	.LBE481:
 3017              	.LBE480:
 3018              	.LBE479:
 3019              		.loc 3 461 3 view .LVU686
 3020              	.LVL230:
 3021              	.LBB487:
ARM GAS  /tmp/cccp0e2D.s 			page 54


 3022              	.LBB485:
 3023              	.LBB484:
 3024              	.LBB482:
 3025              	.LBI482:
 3026              		.loc 4 544 57 view .LVU687
 3027              	.LBB483:
 3028              		.loc 4 546 3 view .LVU688
 3029 0062 0023     		movs	r3, #0
 3030              		.syntax unified
 3031              	@ 546 ".//ChibiOS//os/ext/CMSIS/include/core_cmFunc.h" 1
 3032 0064 83F31188 		MSR basepri, r3
 3033              	@ 0 "" 2
 3034              	.LVL231:
 3035              		.thumb
 3036              		.syntax unified
 3037              	.L181:
 3038              		.loc 4 546 3 is_stmt 0 view .LVU689
 3039              	.LBE483:
 3040              	.LBE482:
 3041              	.LBE484:
 3042              	.LBE485:
 3043              	.LBE487:
 3044              		.loc 1 544 1 view .LVU690
 3045 0068 114B     		ldr	r3, .L199
 3046 006a 1A68     		ldr	r2, [r3]
 3047 006c 019B     		ldr	r3, [sp, #4]
 3048 006e 5A40     		eors	r2, r3, r2
 3049 0070 1BD1     		bne	.L198
 3050 0072 4046     		mov	r0, r8
 3051 0074 02B0     		add	sp, sp, #8
 3052              		.cfi_remember_state
 3053              		.cfi_def_cfa_offset 24
 3054              		@ sp needed
 3055 0076 BDE8F081 		pop	{r4, r5, r6, r7, r8, pc}
 3056              	.LVL232:
 3057              	.L196:
 3058              		.cfi_restore_state
 3059              		.loc 1 530 7 is_stmt 1 view .LVU691
 3060              	.LBB488:
 3061              	.LBI488:
 3062              		.loc 2 358 20 view .LVU692
 3063              	.LBB489:
 3064              		.loc 2 360 3 view .LVU693
 3065 007a FFF7FEFF 		bl	_dbg_check_unlock
 3066              	.LVL233:
 3067              		.loc 2 361 3 view .LVU694
 3068 007e FFF7FEFF 		bl	_stats_stop_measure_crit_thd
 3069              	.LVL234:
 3070              		.loc 2 367 3 view .LVU695
 3071              		.loc 2 367 3 view .LVU696
 3072              		.loc 2 367 3 view .LVU697
 3073 0082 2B68     		ldr	r3, [r5]
 3074 0084 AB42     		cmp	r3, r5
 3075 0086 07D0     		beq	.L184
 3076 0088 AA69     		ldr	r2, [r5, #24]
 3077 008a 9B68     		ldr	r3, [r3, #8]
 3078 008c 9268     		ldr	r2, [r2, #8]
ARM GAS  /tmp/cccp0e2D.s 			page 55


 3079 008e 9A42     		cmp	r2, r3
 3080 0090 02D2     		bcs	.L184
 3081              		.loc 2 367 3 view .LVU698
 3082 0092 0948     		ldr	r0, .L199+8
 3083 0094 FFF7FEFF 		bl	chSysHalt
 3084              	.LVL235:
 3085              	.L184:
 3086              		.loc 2 367 3 view .LVU699
 3087              		.loc 2 371 3 view .LVU700
 3088              	.LBB490:
 3089              	.LBI490:
 3090              		.loc 3 458 20 view .LVU701
 3091              	.LBE490:
 3092              	.LBE489:
 3093              	.LBE488:
 3094              		.loc 3 461 3 view .LVU702
 3095              	.LBB495:
 3096              	.LBB494:
 3097              	.LBB493:
 3098              	.LBB491:
 3099              	.LBI491:
 3100              		.loc 4 544 57 view .LVU703
 3101              	.LBB492:
 3102              		.loc 4 546 3 view .LVU704
 3103 0098 4FF00008 		mov	r8, #0
 3104              	.LVL236:
 3105              		.loc 4 546 3 is_stmt 0 view .LVU705
 3106              		.syntax unified
 3107              	@ 546 ".//ChibiOS//os/ext/CMSIS/include/core_cmFunc.h" 1
 3108 009c 88F31188 		MSR basepri, r8
 3109              	@ 0 "" 2
 3110              	.LVL237:
 3111              		.loc 4 546 3 view .LVU706
 3112              		.thumb
 3113              		.syntax unified
 3114              	.LBE492:
 3115              	.LBE491:
 3116              	.LBE493:
 3117              		.loc 2 372 1 view .LVU707
 3118 00a0 E2E7     		b	.L181
 3119              	.L197:
 3120              		.loc 2 372 1 view .LVU708
 3121              	.LBE494:
 3122              	.LBE495:
 3123              	.LBB496:
 3124              	.LBB486:
 3125              		.loc 2 367 3 is_stmt 1 view .LVU709
 3126 00a2 0548     		ldr	r0, .L199+8
 3127 00a4 FFF7FEFF 		bl	chSysHalt
 3128              	.LVL238:
 3129 00a8 DBE7     		b	.L188
 3130              	.L198:
 3131              	.LBE486:
 3132              	.LBE496:
 3133              		.loc 1 544 1 is_stmt 0 view .LVU710
 3134 00aa FFF7FEFF 		bl	__stack_chk_fail
 3135              	.LVL239:
ARM GAS  /tmp/cccp0e2D.s 			page 56


 3136              	.L200:
 3137 00ae 00BF     		.align	2
 3138              	.L199:
 3139 00b0 00000000 		.word	.LC15
 3140 00b4 00000000 		.word	ch
 3141 00b8 00000000 		.word	.LANCHOR1
 3142              		.cfi_endproc
 3143              	.LFE234:
 3144              		.size	chEvtWaitAnyTimeout, .-chEvtWaitAnyTimeout
 3145              		.section	.rodata.chEvtWaitAllTimeout.cst4,"aM",%progbits,4
 3146              		.align	2
 3147              	.LC16:
 3148 0000 00000000 		.word	__stack_chk_guard
 3149              		.section	.text.chEvtWaitAllTimeout,"ax",%progbits
 3150              		.align	1
 3151              		.p2align 4,,15
 3152              		.global	chEvtWaitAllTimeout
 3153              		.syntax unified
 3154              		.thumb
 3155              		.thumb_func
 3156              		.fpu fpv4-sp-d16
 3157              		.type	chEvtWaitAllTimeout, %function
 3158              	chEvtWaitAllTimeout:
 3159              	.LVL240:
 3160              	.LFB235:
 3161              		.loc 1 563 69 is_stmt 1 view -0
 3162              		.cfi_startproc
 3163              		@ args = 0, pretend = 0, frame = 8
 3164              		@ frame_needed = 0, uses_anonymous_args = 0
 3165              		.loc 1 563 69 is_stmt 0 view .LVU712
 3166 0000 F0B5     		push	{r4, r5, r6, r7, lr}
 3167              		.cfi_def_cfa_offset 20
 3168              		.cfi_offset 4, -20
 3169              		.cfi_offset 5, -16
 3170              		.cfi_offset 6, -12
 3171              		.cfi_offset 7, -8
 3172              		.cfi_offset 14, -4
 3173 0002 294B     		ldr	r3, .L218
 3174              		.loc 1 564 13 view .LVU713
 3175 0004 294D     		ldr	r5, .L218+4
 3176              		.loc 1 563 69 view .LVU714
 3177 0006 83B0     		sub	sp, sp, #12
 3178              		.cfi_def_cfa_offset 32
 3179              		.loc 1 563 69 view .LVU715
 3180 0008 1B68     		ldr	r3, [r3]
 3181 000a 0193     		str	r3, [sp, #4]
 3182 000c 4FF00003 		mov	r3,#0
 3183              		.loc 1 564 3 is_stmt 1 view .LVU716
 3184              		.loc 1 564 13 is_stmt 0 view .LVU717
 3185 0010 AF69     		ldr	r7, [r5, #24]
 3186              	.LVL241:
 3187              		.loc 1 566 3 is_stmt 1 view .LVU718
 3188              	.LBB517:
 3189              	.LBI517:
 3190              		.loc 2 346 20 view .LVU719
 3191              	.LBB518:
 3192              		.loc 2 348 3 view .LVU720
ARM GAS  /tmp/cccp0e2D.s 			page 57


 3193              	.LBB519:
 3194              	.LBI519:
 3195              		.loc 3 444 20 view .LVU721
 3196              	.LBE519:
 3197              	.LBE518:
 3198              	.LBE517:
 3199              		.loc 3 447 3 view .LVU722
 3200              	.LBB528:
 3201              	.LBB526:
 3202              	.LBB524:
 3203              	.LBB520:
 3204              	.LBI520:
 3205              		.loc 4 544 57 view .LVU723
 3206              	.LBB521:
 3207              		.loc 4 546 3 view .LVU724
 3208              	.LBE521:
 3209              	.LBE520:
 3210              	.LBE524:
 3211              	.LBE526:
 3212              	.LBE528:
 3213              		.loc 1 563 69 is_stmt 0 view .LVU725
 3214 0012 0446     		mov	r4, r0
 3215 0014 0E46     		mov	r6, r1
 3216              	.LBB529:
 3217              	.LBB527:
 3218              	.LBB525:
 3219              	.LBB523:
 3220              	.LBB522:
 3221              		.loc 4 546 3 view .LVU726
 3222 0016 2023     		movs	r3, #32
 3223              		.syntax unified
 3224              	@ 546 ".//ChibiOS//os/ext/CMSIS/include/core_cmFunc.h" 1
 3225 0018 83F31188 		MSR basepri, r3
 3226              	@ 0 "" 2
 3227              	.LVL242:
 3228              		.loc 4 546 3 view .LVU727
 3229              		.thumb
 3230              		.syntax unified
 3231              	.LBE522:
 3232              	.LBE523:
 3233              	.LBE525:
 3234              		.loc 2 349 3 is_stmt 1 view .LVU728
 3235 001c FFF7FEFF 		bl	_stats_start_measure_crit_thd
 3236              	.LVL243:
 3237              		.loc 2 350 3 view .LVU729
 3238 0020 FFF7FEFF 		bl	_dbg_check_lock
 3239              	.LVL244:
 3240              	.LBE527:
 3241              	.LBE529:
 3242              		.loc 1 567 3 view .LVU730
 3243              		.loc 1 567 11 is_stmt 0 view .LVU731
 3244 0024 FB6B     		ldr	r3, [r7, #60]
 3245              		.loc 1 567 6 view .LVU732
 3246 0026 34EA0302 		bics	r2, r4, r3
 3247 002a 08D0     		beq	.L202
 3248              		.loc 1 568 5 is_stmt 1 view .LVU733
 3249              		.loc 1 568 8 is_stmt 0 view .LVU734
ARM GAS  /tmp/cccp0e2D.s 			page 58


 3250 002c 0EB3     		cbz	r6, .L206
 3251              		.loc 1 572 5 is_stmt 1 view .LVU735
 3252              		.loc 1 572 21 is_stmt 0 view .LVU736
 3253 002e BC62     		str	r4, [r7, #40]
 3254              		.loc 1 573 5 is_stmt 1 view .LVU737
 3255              		.loc 1 573 9 is_stmt 0 view .LVU738
 3256 0030 3146     		mov	r1, r6
 3257 0032 0B20     		movs	r0, #11
 3258 0034 FFF7FEFF 		bl	chSchGoSleepTimeoutS
 3259              	.LVL245:
 3260              		.loc 1 573 8 view .LVU739
 3261 0038 0028     		cmp	r0, #0
 3262 003a 1ADB     		blt	.L206
 3263 003c FB6B     		ldr	r3, [r7, #60]
 3264              	.L202:
 3265              		.loc 1 578 3 is_stmt 1 view .LVU740
 3266              		.loc 1 578 19 is_stmt 0 view .LVU741
 3267 003e 23EA0403 		bic	r3, r3, r4
 3268 0042 FB63     		str	r3, [r7, #60]
 3269              		.loc 1 579 3 is_stmt 1 view .LVU742
 3270              	.LBB530:
 3271              	.LBI530:
 3272              		.loc 2 358 20 view .LVU743
 3273              	.LBB531:
 3274              		.loc 2 360 3 view .LVU744
 3275 0044 FFF7FEFF 		bl	_dbg_check_unlock
 3276              	.LVL246:
 3277              		.loc 2 361 3 view .LVU745
 3278 0048 FFF7FEFF 		bl	_stats_stop_measure_crit_thd
 3279              	.LVL247:
 3280              		.loc 2 367 3 view .LVU746
 3281              		.loc 2 367 3 view .LVU747
 3282              		.loc 2 367 3 view .LVU748
 3283 004c 2B68     		ldr	r3, [r5]
 3284 004e AB42     		cmp	r3, r5
 3285 0050 04D0     		beq	.L208
 3286 0052 AA69     		ldr	r2, [r5, #24]
 3287 0054 9B68     		ldr	r3, [r3, #8]
 3288 0056 9268     		ldr	r2, [r2, #8]
 3289 0058 9A42     		cmp	r2, r3
 3290 005a 1AD3     		bcc	.L215
 3291              	.L208:
 3292              		.loc 2 367 3 view .LVU749
 3293              		.loc 2 371 3 view .LVU750
 3294              	.LBB532:
 3295              	.LBI532:
 3296              		.loc 3 458 20 view .LVU751
 3297              	.LBE532:
 3298              	.LBE531:
 3299              	.LBE530:
 3300              		.loc 3 461 3 view .LVU752
 3301              	.LVL248:
 3302              	.LBB538:
 3303              	.LBB536:
 3304              	.LBB535:
 3305              	.LBB533:
 3306              	.LBI533:
ARM GAS  /tmp/cccp0e2D.s 			page 59


 3307              		.loc 4 544 57 view .LVU753
 3308              	.LBB534:
 3309              		.loc 4 546 3 view .LVU754
 3310 005c 0023     		movs	r3, #0
 3311              		.syntax unified
 3312              	@ 546 ".//ChibiOS//os/ext/CMSIS/include/core_cmFunc.h" 1
 3313 005e 83F31188 		MSR basepri, r3
 3314              	@ 0 "" 2
 3315              	.LVL249:
 3316              		.loc 4 546 3 is_stmt 0 view .LVU755
 3317              		.thumb
 3318              		.syntax unified
 3319              	.LBE534:
 3320              	.LBE533:
 3321              	.LBE535:
 3322              		.loc 2 372 1 view .LVU756
 3323 0062 2046     		mov	r0, r4
 3324              	.L201:
 3325              		.loc 2 372 1 view .LVU757
 3326              	.LBE536:
 3327              	.LBE538:
 3328              		.loc 1 582 1 view .LVU758
 3329 0064 104B     		ldr	r3, .L218
 3330 0066 1A68     		ldr	r2, [r3]
 3331 0068 019B     		ldr	r3, [sp, #4]
 3332 006a 5A40     		eors	r2, r3, r2
 3333 006c 19D1     		bne	.L216
 3334 006e 03B0     		add	sp, sp, #12
 3335              		.cfi_remember_state
 3336              		.cfi_def_cfa_offset 20
 3337              		@ sp needed
 3338 0070 F0BD     		pop	{r4, r5, r6, r7, pc}
 3339              	.LVL250:
 3340              	.L206:
 3341              		.cfi_restore_state
 3342              		.loc 1 574 7 is_stmt 1 view .LVU759
 3343              	.LBB539:
 3344              	.LBI539:
 3345              		.loc 2 358 20 view .LVU760
 3346              	.LBB540:
 3347              		.loc 2 360 3 view .LVU761
 3348 0072 FFF7FEFF 		bl	_dbg_check_unlock
 3349              	.LVL251:
 3350              		.loc 2 361 3 view .LVU762
 3351 0076 FFF7FEFF 		bl	_stats_stop_measure_crit_thd
 3352              	.LVL252:
 3353              		.loc 2 367 3 view .LVU763
 3354              		.loc 2 367 3 view .LVU764
 3355              		.loc 2 367 3 view .LVU765
 3356 007a 2B68     		ldr	r3, [r5]
 3357 007c AB42     		cmp	r3, r5
 3358 007e 04D0     		beq	.L207
 3359 0080 AA69     		ldr	r2, [r5, #24]
 3360 0082 9B68     		ldr	r3, [r3, #8]
 3361 0084 9268     		ldr	r2, [r2, #8]
 3362 0086 9A42     		cmp	r2, r3
 3363 0088 07D3     		bcc	.L217
ARM GAS  /tmp/cccp0e2D.s 			page 60


 3364              	.L207:
 3365              		.loc 2 367 3 view .LVU766
 3366              		.loc 2 371 3 view .LVU767
 3367              	.LBB541:
 3368              	.LBI541:
 3369              		.loc 3 458 20 view .LVU768
 3370              	.LBE541:
 3371              	.LBE540:
 3372              	.LBE539:
 3373              		.loc 3 461 3 view .LVU769
 3374              	.LVL253:
 3375              	.LBB547:
 3376              	.LBB545:
 3377              	.LBB544:
 3378              	.LBB542:
 3379              	.LBI542:
 3380              		.loc 4 544 57 view .LVU770
 3381              	.LBB543:
 3382              		.loc 4 546 3 view .LVU771
 3383 008a 0020     		movs	r0, #0
 3384              		.syntax unified
 3385              	@ 546 ".//ChibiOS//os/ext/CMSIS/include/core_cmFunc.h" 1
 3386 008c 80F31188 		MSR basepri, r0
 3387              	@ 0 "" 2
 3388              	.LVL254:
 3389              		.loc 4 546 3 is_stmt 0 view .LVU772
 3390              		.thumb
 3391              		.syntax unified
 3392              	.LBE543:
 3393              	.LBE542:
 3394              	.LBE544:
 3395              		.loc 2 372 1 view .LVU773
 3396 0090 E8E7     		b	.L201
 3397              	.L215:
 3398              		.loc 2 372 1 view .LVU774
 3399              	.LBE545:
 3400              	.LBE547:
 3401              	.LBB548:
 3402              	.LBB537:
 3403              		.loc 2 367 3 is_stmt 1 view .LVU775
 3404 0092 0748     		ldr	r0, .L218+8
 3405 0094 FFF7FEFF 		bl	chSysHalt
 3406              	.LVL255:
 3407 0098 E0E7     		b	.L208
 3408              	.L217:
 3409              		.loc 2 367 3 is_stmt 0 view .LVU776
 3410              	.LBE537:
 3411              	.LBE548:
 3412              	.LBB549:
 3413              	.LBB546:
 3414              		.loc 2 367 3 is_stmt 1 view .LVU777
 3415 009a 0548     		ldr	r0, .L218+8
 3416 009c FFF7FEFF 		bl	chSysHalt
 3417              	.LVL256:
 3418 00a0 F3E7     		b	.L207
 3419              	.L216:
 3420              	.LBE546:
ARM GAS  /tmp/cccp0e2D.s 			page 61


 3421              	.LBE549:
 3422              		.loc 1 582 1 is_stmt 0 view .LVU778
 3423 00a2 FFF7FEFF 		bl	__stack_chk_fail
 3424              	.LVL257:
 3425              	.L219:
 3426 00a6 00BF     		.align	2
 3427              	.L218:
 3428 00a8 00000000 		.word	.LC16
 3429 00ac 00000000 		.word	ch
 3430 00b0 00000000 		.word	.LANCHOR1
 3431              		.cfi_endproc
 3432              	.LFE235:
 3433              		.size	chEvtWaitAllTimeout, .-chEvtWaitAllTimeout
 3434              		.section	.rodata.__func__.7261,"a"
 3435              		.align	2
 3436              		.set	.LANCHOR1,. + 0
 3437              		.type	__func__.7261, %object
 3438              		.size	__func__.7261, 12
 3439              	__func__.7261:
 3440 0000 63685379 		.ascii	"chSysUnlock\000"
 3440      73556E6C 
 3440      6F636B00 
 3441              		.section	.rodata.__func__.7960,"a"
 3442              		.align	2
 3443              		.set	.LANCHOR0,. + 0
 3444              		.type	__func__.7960, %object
 3445              		.size	__func__.7960, 27
 3446              	__func__.7960:
 3447 0000 63684576 		.ascii	"chEvtRegisterMaskWithFlags\000"
 3447      74526567 
 3447      69737465 
 3447      724D6173 
 3447      6B576974 
 3448              		.section	.rodata.__func__.7966,"a"
 3449              		.align	2
 3450              		.set	.LANCHOR2,. + 0
 3451              		.type	__func__.7966, %object
 3452              		.size	__func__.7966, 16
 3453              	__func__.7966:
 3454 0000 63684576 		.ascii	"chEvtUnregister\000"
 3454      74556E72 
 3454      65676973 
 3454      74657200 
 3455              		.section	.rodata.__func__.7982,"a"
 3456              		.align	2
 3457              		.set	.LANCHOR4,. + 0
 3458              		.type	__func__.7982, %object
 3459              		.size	__func__.7982, 21
 3460              	__func__.7982:
 3461 0000 63684576 		.ascii	"chEvtBroadcastFlagsI\000"
 3461      7442726F 
 3461      61646361 
 3461      7374466C 
 3461      61677349 
 3462              		.section	.rodata.__func__.7994,"a"
 3463              		.align	2
 3464              		.set	.LANCHOR5,. + 0
ARM GAS  /tmp/cccp0e2D.s 			page 62


 3465              		.type	__func__.7994, %object
 3466              		.size	__func__.7994, 12
 3467              	__func__.7994:
 3468 0000 63684576 		.ascii	"chEvtSignal\000"
 3468      74536967 
 3468      6E616C00 
 3469              		.section	.rodata.__func__.7999,"a"
 3470              		.align	2
 3471              		.set	.LANCHOR3,. + 0
 3472              		.type	__func__.7999, %object
 3473              		.size	__func__.7999, 13
 3474              	__func__.7999:
 3475 0000 63684576 		.ascii	"chEvtSignalI\000"
 3475      74536967 
 3475      6E616C49 
 3475      00
 3476              		.section	.rodata.__func__.8013,"a"
 3477              		.align	2
 3478              		.set	.LANCHOR6,. + 0
 3479              		.type	__func__.8013, %object
 3480              		.size	__func__.8013, 14
 3481              	__func__.8013:
 3482 0000 63684576 		.ascii	"chEvtDispatch\000"
 3482      74446973 
 3482      70617463 
 3482      6800
 3483              		.text
 3484              	.Letext0:
 3485              		.file 5 "/usr/lib/gcc/arm-none-eabi/9.2.1/include/stdint.h"
 3486              		.file 6 ".//ChibiOS//os/rt/ports/ARMCMx/compilers/GCC/chtypes.h"
 3487              		.file 7 ".//ChibiOS//os/rt/include/chsystypes.h"
 3488              		.file 8 ".//ChibiOS//os/rt/include/chschd.h"
 3489              		.file 9 ".//ChibiOS//os/ext/CMSIS/include/core_cm4.h"
 3490              		.file 10 ".//ChibiOS//os/ext/CMSIS/ST/system_stm32f4xx.h"
 3491              		.file 11 ".//ChibiOS//os/rt/ports/ARMCMx/chcore.h"
 3492              		.file 12 ".//ChibiOS//os/rt/include/chdebug.h"
 3493              		.file 13 ".//ChibiOS//os/rt/include/chtm.h"
 3494              		.file 14 ".//ChibiOS//os/rt/include/chstats.h"
 3495              		.file 15 ".//ChibiOS//os/rt/include/chsem.h"
 3496              		.file 16 ".//ChibiOS//os/rt/include/chmtx.h"
 3497              		.file 17 ".//ChibiOS//os/rt/include/chregistry.h"
 3498              		.file 18 ".//ChibiOS//os/rt/include/chevents.h"