ARM GAS  /tmp/cccxOv79.s 			page 1


   1              		.cpu cortex-m4
   2              		.eabi_attribute 27, 1
   3              		.eabi_attribute 28, 1
   4              		.eabi_attribute 20, 1
   5              		.eabi_attribute 21, 1
   6              		.eabi_attribute 23, 3
   7              		.eabi_attribute 24, 1
   8              		.eabi_attribute 25, 1
   9              		.eabi_attribute 26, 1
  10              		.eabi_attribute 30, 2
  11              		.eabi_attribute 34, 1
  12              		.eabi_attribute 18, 4
  13              		.file	"chheap.c"
  14              		.text
  15              	.Ltext0:
  16              		.cfi_sections	.debug_frame
  17              		.section	.rodata._heap_init.cst4,"aM",%progbits,4
  18              		.align	2
  19              	.LC0:
  20 0000 00000000 		.word	__stack_chk_guard
  21              		.section	.text._heap_init,"ax",%progbits
  22              		.align	1
  23              		.p2align 4,,15
  24              		.global	_heap_init
  25              		.arch armv7e-m
  26              		.syntax unified
  27              		.thumb
  28              		.thumb_func
  29              		.fpu fpv4-sp-d16
  30              		.type	_heap_init, %function
  31              	_heap_init:
  32              	.LFB219:
  33              		.file 1 ".//ChibiOS//os/rt/src/chheap.c"
  34              		.loc 1 91 23 view -0
  35              		.cfi_startproc
  36              		@ args = 0, pretend = 0, frame = 8
  37              		@ frame_needed = 0, uses_anonymous_args = 0
  38 0000 00B5     		push	{lr}
  39              		.cfi_def_cfa_offset 4
  40              		.cfi_offset 14, -4
  41 0002 0C4B     		ldr	r3, .L7
  42              		.loc 1 93 27 is_stmt 0 view .LVU1
  43 0004 0C48     		ldr	r0, .L7+4
  44 0006 0D4A     		ldr	r2, .L7+8
  45              		.loc 1 91 23 view .LVU2
  46 0008 83B0     		sub	sp, sp, #12
  47              		.cfi_def_cfa_offset 16
  48              		.loc 1 91 23 view .LVU3
  49 000a 1B68     		ldr	r3, [r3]
  50 000c 0193     		str	r3, [sp, #4]
  51 000e 4FF00003 		mov	r3,#0
  52              		.loc 1 93 3 is_stmt 1 view .LVU4
  53              		.loc 1 94 32 is_stmt 0 view .LVU5
  54 0012 0023     		movs	r3, #0
  55              		.loc 1 95 30 view .LVU6
  56 0014 C0E90233 		strd	r3, r3, [r0, #8]
  57              		.loc 1 97 3 view .LVU7
ARM GAS  /tmp/cccxOv79.s 			page 2


  58 0018 064B     		ldr	r3, .L7
  59              		.loc 1 93 27 view .LVU8
  60 001a 0260     		str	r2, [r0]
  61              		.loc 1 94 3 is_stmt 1 view .LVU9
  62              		.loc 1 97 3 view .LVU10
  63 001c 1A68     		ldr	r2, [r3]
  64 001e 019B     		ldr	r3, [sp, #4]
  65 0020 5A40     		eors	r2, r3, r2
  66 0022 05D1     		bne	.L6
  67 0024 1030     		adds	r0, r0, #16
  68              		.loc 1 101 1 is_stmt 0 view .LVU11
  69 0026 03B0     		add	sp, sp, #12
  70              		.cfi_remember_state
  71              		.cfi_def_cfa_offset 4
  72              		@ sp needed
  73 0028 5DF804EB 		ldr	lr, [sp], #4
  74              		.cfi_restore 14
  75              		.cfi_def_cfa_offset 0
  76              		.loc 1 97 3 view .LVU12
  77 002c FFF7FEBF 		b	chMtxObjectInit
  78              	.LVL0:
  79              	.L6:
  80              		.cfi_restore_state
  81 0030 FFF7FEFF 		bl	__stack_chk_fail
  82              	.LVL1:
  83              	.L8:
  84              		.align	2
  85              	.L7:
  86 0034 00000000 		.word	.LC0
  87 0038 00000000 		.word	.LANCHOR0
  88 003c 00000000 		.word	chCoreAlloc
  89              		.cfi_endproc
  90              	.LFE219:
  91              		.size	_heap_init, .-_heap_init
  92              		.section	.rodata.chHeapObjectInit.cst4,"aM",%progbits,4
  93              		.align	2
  94              	.LC1:
  95 0000 00000000 		.word	__stack_chk_guard
  96              		.section	.text.chHeapObjectInit,"ax",%progbits
  97              		.align	1
  98              		.p2align 4,,15
  99              		.global	chHeapObjectInit
 100              		.syntax unified
 101              		.thumb
 102              		.thumb_func
 103              		.fpu fpv4-sp-d16
 104              		.type	chHeapObjectInit, %function
 105              	chHeapObjectInit:
 106              	.LVL2:
 107              	.LFB220:
 108              		.loc 1 114 69 is_stmt 1 view -0
 109              		.cfi_startproc
 110              		@ args = 0, pretend = 0, frame = 8
 111              		@ frame_needed = 0, uses_anonymous_args = 0
 112              		.loc 1 114 69 is_stmt 0 view .LVU14
 113 0000 70B5     		push	{r4, r5, r6, lr}
 114              		.cfi_def_cfa_offset 16
ARM GAS  /tmp/cccxOv79.s 			page 3


 115              		.cfi_offset 4, -16
 116              		.cfi_offset 5, -12
 117              		.cfi_offset 6, -8
 118              		.cfi_offset 14, -4
 119              		.loc 1 117 3 view .LVU15
 120 0002 41EA0203 		orr	r3, r1, r2
 121              		.loc 1 114 69 view .LVU16
 122 0006 1546     		mov	r5, r2
 123 0008 104A     		ldr	r2, .L18
 124              	.LVL3:
 125              		.loc 1 114 69 view .LVU17
 126 000a 82B0     		sub	sp, sp, #8
 127              		.cfi_def_cfa_offset 24
 128              		.loc 1 117 3 view .LVU18
 129 000c 5B07     		lsls	r3, r3, #29
 130              		.loc 1 114 69 view .LVU19
 131 000e 0C46     		mov	r4, r1
 132 0010 0646     		mov	r6, r0
 133 0012 1268     		ldr	r2, [r2]
 134 0014 0192     		str	r2, [sp, #4]
 135 0016 4FF00002 		mov	r2,#0
 136              		.loc 1 115 3 is_stmt 1 view .LVU20
 137              	.LVL4:
 138              		.loc 1 117 3 view .LVU21
 139              		.loc 1 117 3 view .LVU22
 140              		.loc 1 117 3 view .LVU23
 141 001a 02D0     		beq	.L10
 142              		.loc 1 117 3 discriminator 5 view .LVU24
 143 001c 0C48     		ldr	r0, .L18+4
 144              	.LVL5:
 145              		.loc 1 117 3 is_stmt 0 discriminator 5 view .LVU25
 146 001e FFF7FEFF 		bl	chSysHalt
 147              	.LVL6:
 148              	.L10:
 149              		.loc 1 117 3 is_stmt 1 discriminator 7 view .LVU26
 150              		.loc 1 119 3 discriminator 7 view .LVU27
 151              		.loc 1 119 21 is_stmt 0 discriminator 7 view .LVU28
 152 0022 0023     		movs	r3, #0
 153              		.loc 1 123 21 discriminator 7 view .LVU29
 154 0024 083D     		subs	r5, r5, #8
 155              	.LVL7:
 156              		.loc 1 119 21 discriminator 7 view .LVU30
 157 0026 3360     		str	r3, [r6]
 158              		.loc 1 120 3 is_stmt 1 discriminator 7 view .LVU31
 159              		.loc 1 121 3 discriminator 7 view .LVU32
 160              		.loc 1 121 24 is_stmt 0 discriminator 7 view .LVU33
 161 0028 F360     		str	r3, [r6, #12]
 162              		.loc 1 122 3 is_stmt 1 discriminator 7 view .LVU34
 163              		.loc 1 120 26 is_stmt 0 discriminator 7 view .LVU35
 164 002a B460     		str	r4, [r6, #8]
 165              		.loc 1 123 14 discriminator 7 view .LVU36
 166 002c C4E90035 		strd	r3, r5, [r4]
 167              		.loc 1 125 3 is_stmt 1 discriminator 7 view .LVU37
 168 0030 064B     		ldr	r3, .L18
 169 0032 1A68     		ldr	r2, [r3]
 170 0034 019B     		ldr	r3, [sp, #4]
 171 0036 5A40     		eors	r2, r3, r2
ARM GAS  /tmp/cccxOv79.s 			page 4


 172 0038 06D1     		bne	.L17
 173 003a 06F11000 		add	r0, r6, #16
 174              		.loc 1 129 1 is_stmt 0 discriminator 7 view .LVU38
 175 003e 02B0     		add	sp, sp, #8
 176              		.cfi_remember_state
 177              		.cfi_def_cfa_offset 16
 178              		@ sp needed
 179 0040 BDE87040 		pop	{r4, r5, r6, lr}
 180              		.cfi_restore 14
 181              		.cfi_restore 6
 182              		.cfi_restore 5
 183              		.cfi_restore 4
 184              		.cfi_def_cfa_offset 0
 185              	.LVL8:
 186              		.loc 1 125 3 discriminator 7 view .LVU39
 187 0044 FFF7FEBF 		b	chMtxObjectInit
 188              	.LVL9:
 189              	.L17:
 190              		.cfi_restore_state
 191              		.loc 1 125 3 discriminator 7 view .LVU40
 192 0048 FFF7FEFF 		bl	__stack_chk_fail
 193              	.LVL10:
 194              	.L19:
 195              		.align	2
 196              	.L18:
 197 004c 00000000 		.word	.LC1
 198 0050 00000000 		.word	.LANCHOR1
 199              		.cfi_endproc
 200              	.LFE220:
 201              		.size	chHeapObjectInit, .-chHeapObjectInit
 202              		.section	.rodata.chHeapAlloc.cst4,"aM",%progbits,4
 203              		.align	2
 204              	.LC2:
 205 0000 00000000 		.word	__stack_chk_guard
 206              		.section	.text.chHeapAlloc,"ax",%progbits
 207              		.align	1
 208              		.p2align 4,,15
 209              		.global	chHeapAlloc
 210              		.syntax unified
 211              		.thumb
 212              		.thumb_func
 213              		.fpu fpv4-sp-d16
 214              		.type	chHeapAlloc, %function
 215              	chHeapAlloc:
 216              	.LVL11:
 217              	.LFB221:
 218              		.loc 1 147 54 is_stmt 1 view -0
 219              		.cfi_startproc
 220              		@ args = 0, pretend = 0, frame = 16
 221              		@ frame_needed = 0, uses_anonymous_args = 0
 222              		.loc 1 147 54 is_stmt 0 view .LVU42
 223 0000 F0B5     		push	{r4, r5, r6, r7, lr}
 224              		.cfi_def_cfa_offset 20
 225              		.cfi_offset 4, -20
 226              		.cfi_offset 5, -16
 227              		.cfi_offset 6, -12
 228              		.cfi_offset 7, -8
ARM GAS  /tmp/cccxOv79.s 			page 5


 229              		.cfi_offset 14, -4
 230              		.loc 1 151 11 view .LVU43
 231 0002 244E     		ldr	r6, .L37
 232              		.loc 1 147 54 view .LVU44
 233 0004 244B     		ldr	r3, .L37+4
 234 0006 85B0     		sub	sp, sp, #20
 235              		.cfi_def_cfa_offset 40
 236              		.loc 1 151 11 view .LVU45
 237 0008 0028     		cmp	r0, #0
 238 000a 18BF     		it	ne
 239 000c 0646     		movne	r6, r0
 240              		.loc 1 157 3 view .LVU46
 241 000e 06F11000 		add	r0, r6, #16
 242              	.LVL12:
 243              		.loc 1 154 10 view .LVU47
 244 0012 0731     		adds	r1, r1, #7
 245              	.LVL13:
 246              		.loc 1 147 54 view .LVU48
 247 0014 1B68     		ldr	r3, [r3]
 248 0016 0393     		str	r3, [sp, #12]
 249 0018 4FF00003 		mov	r3,#0
 250              		.loc 1 148 3 is_stmt 1 view .LVU49
 251              		.loc 1 150 3 view .LVU50
 252              	.LVL14:
 253              		.loc 1 154 3 view .LVU51
 254              		.loc 1 154 8 is_stmt 0 view .LVU52
 255 001c 21F00705 		bic	r5, r1, #7
 256              	.LVL15:
 257              		.loc 1 155 3 is_stmt 1 view .LVU53
 258              		.loc 1 157 3 is_stmt 0 view .LVU54
 259 0020 0190     		str	r0, [sp, #4]
 260              		.loc 1 155 6 view .LVU55
 261 0022 06F10804 		add	r4, r6, #8
 262              	.LVL16:
 263              		.loc 1 157 3 is_stmt 1 view .LVU56
 264 0026 FFF7FEFF 		bl	chMtxLock
 265              	.LVL17:
 266              		.loc 1 158 3 view .LVU57
 267              		.loc 1 158 9 is_stmt 0 view .LVU58
 268 002a 0198     		ldr	r0, [sp, #4]
 269 002c 02E0     		b	.L22
 270              	.LVL18:
 271              	.L26:
 272              		.loc 1 159 5 is_stmt 1 view .LVU59
 273              		.loc 1 160 5 view .LVU60
 274              		.loc 1 160 14 is_stmt 0 view .LVU61
 275 002e 6368     		ldr	r3, [r4, #4]
 276              		.loc 1 160 8 view .LVU62
 277 0030 AB42     		cmp	r3, r5
 278 0032 17D2     		bcs	.L35
 279              	.LVL19:
 280              	.L22:
 281              		.loc 1 158 9 is_stmt 1 view .LVU63
 282 0034 2246     		mov	r2, r4
 283              		.loc 1 158 17 is_stmt 0 view .LVU64
 284 0036 2468     		ldr	r4, [r4]
 285              	.LVL20:
ARM GAS  /tmp/cccxOv79.s 			page 6


 286              		.loc 1 158 9 view .LVU65
 287 0038 002C     		cmp	r4, #0
 288 003a F8D1     		bne	.L26
 289              		.loc 1 186 3 is_stmt 1 view .LVU66
 290 003c FFF7FEFF 		bl	chMtxUnlock
 291              	.LVL21:
 292              		.loc 1 190 3 view .LVU67
 293              		.loc 1 190 12 is_stmt 0 view .LVU68
 294 0040 3368     		ldr	r3, [r6]
 295              		.loc 1 190 6 view .LVU69
 296 0042 3BB1     		cbz	r3, .L20
 297              		.loc 1 191 5 is_stmt 1 view .LVU70
 298              		.loc 1 191 10 is_stmt 0 view .LVU71
 299 0044 05F10800 		add	r0, r5, #8
 300 0048 9847     		blx	r3
 301              	.LVL22:
 302              		.loc 1 192 5 is_stmt 1 view .LVU72
 303              		.loc 1 192 8 is_stmt 0 view .LVU73
 304 004a 18B1     		cbz	r0, .L20
 305              		.loc 1 193 7 is_stmt 1 view .LVU74
 306              		.loc 1 194 18 is_stmt 0 view .LVU75
 307 004c C0E90065 		strd	r6, r5, [r0]
 308              		.loc 1 195 7 is_stmt 1 view .LVU76
 309              		.loc 1 195 9 is_stmt 0 view .LVU77
 310 0050 00F10804 		add	r4, r0, #8
 311              	.LVL23:
 312              		.loc 1 198 7 is_stmt 1 view .LVU78
 313              	.L20:
 314              		.loc 1 204 1 is_stmt 0 view .LVU79
 315 0054 104B     		ldr	r3, .L37+4
 316 0056 1A68     		ldr	r2, [r3]
 317 0058 039B     		ldr	r3, [sp, #12]
 318 005a 5A40     		eors	r2, r3, r2
 319 005c 18D1     		bne	.L36
 320 005e 2046     		mov	r0, r4
 321 0060 05B0     		add	sp, sp, #20
 322              		.cfi_remember_state
 323              		.cfi_def_cfa_offset 20
 324              		@ sp needed
 325 0062 F0BD     		pop	{r4, r5, r6, r7, pc}
 326              	.LVL24:
 327              	.L35:
 328              		.cfi_restore_state
 329              		.loc 1 161 7 is_stmt 1 view .LVU80
 330              		.loc 1 161 30 is_stmt 0 view .LVU81
 331 0064 05F10801 		add	r1, r5, #8
 332              		.loc 1 161 10 view .LVU82
 333 0068 8B42     		cmp	r3, r1
 334              		.loc 1 165 31 view .LVU83
 335 006a 2368     		ldr	r3, [r4]
 336              		.loc 1 161 10 view .LVU84
 337 006c 05D2     		bcs	.L23
 338              		.loc 1 165 9 is_stmt 1 view .LVU85
 339              		.loc 1 165 22 is_stmt 0 view .LVU86
 340 006e 1360     		str	r3, [r2]
 341              	.L24:
 342              		.loc 1 177 7 is_stmt 1 view .LVU87
ARM GAS  /tmp/cccxOv79.s 			page 7


 343              		.loc 1 177 20 is_stmt 0 view .LVU88
 344 0070 44F8086B 		str	r6, [r4], #8
 345              	.LVL25:
 346              		.loc 1 178 7 is_stmt 1 view .LVU89
 347 0074 FFF7FEFF 		bl	chMtxUnlock
 348              	.LVL26:
 349              		.loc 1 181 7 view .LVU90
 350              		.loc 1 181 14 is_stmt 0 view .LVU91
 351 0078 ECE7     		b	.L20
 352              	.LVL27:
 353              	.L23:
 354              		.loc 1 170 9 is_stmt 1 view .LVU92
 355              		.loc 1 172 22 is_stmt 0 view .LVU93
 356 007a 6350     		str	r3, [r4, r1]
 357              		.loc 1 173 63 view .LVU94
 358 007c 6FF00707 		mvn	r7, #7
 359 0080 6368     		ldr	r3, [r4, #4]
 360              		.loc 1 170 12 view .LVU95
 361 0082 2144     		add	r1, r1, r4
 362              	.LVL28:
 363              		.loc 1 172 9 is_stmt 1 view .LVU96
 364              		.loc 1 173 9 view .LVU97
 365              		.loc 1 173 63 is_stmt 0 view .LVU98
 366 0084 7F1B     		subs	r7, r7, r5
 367 0086 3B44     		add	r3, r3, r7
 368              		.loc 1 173 20 view .LVU99
 369 0088 4B60     		str	r3, [r1, #4]
 370              		.loc 1 174 9 is_stmt 1 view .LVU100
 371              		.loc 1 174 22 is_stmt 0 view .LVU101
 372 008a 1160     		str	r1, [r2]
 373              		.loc 1 175 9 is_stmt 1 view .LVU102
 374              		.loc 1 175 20 is_stmt 0 view .LVU103
 375 008c 6560     		str	r5, [r4, #4]
 376 008e EFE7     		b	.L24
 377              	.LVL29:
 378              	.L36:
 379              		.loc 1 204 1 view .LVU104
 380 0090 FFF7FEFF 		bl	__stack_chk_fail
 381              	.LVL30:
 382              	.L38:
 383              		.align	2
 384              	.L37:
 385 0094 00000000 		.word	.LANCHOR0
 386 0098 00000000 		.word	.LC2
 387              		.cfi_endproc
 388              	.LFE221:
 389              		.size	chHeapAlloc, .-chHeapAlloc
 390              		.section	.rodata.chHeapFree.cst4,"aM",%progbits,4
 391              		.align	2
 392              	.LC3:
 393 0000 00000000 		.word	__stack_chk_guard
 394              		.section	.text.chHeapFree,"ax",%progbits
 395              		.align	1
 396              		.p2align 4,,15
 397              		.global	chHeapFree
 398              		.syntax unified
 399              		.thumb
ARM GAS  /tmp/cccxOv79.s 			page 8


 400              		.thumb_func
 401              		.fpu fpv4-sp-d16
 402              		.type	chHeapFree, %function
 403              	chHeapFree:
 404              	.LVL31:
 405              	.LFB222:
 406              		.loc 1 213 26 is_stmt 1 view -0
 407              		.cfi_startproc
 408              		@ args = 0, pretend = 0, frame = 8
 409              		@ frame_needed = 0, uses_anonymous_args = 0
 410              		.loc 1 213 26 is_stmt 0 view .LVU106
 411 0000 2DE9F043 		push	{r4, r5, r6, r7, r8, r9, lr}
 412              		.cfi_def_cfa_offset 28
 413              		.cfi_offset 4, -28
 414              		.cfi_offset 5, -24
 415              		.cfi_offset 6, -20
 416              		.cfi_offset 7, -16
 417              		.cfi_offset 8, -12
 418              		.cfi_offset 9, -8
 419              		.cfi_offset 14, -4
 420 0004 304B     		ldr	r3, .L60
 421 0006 83B0     		sub	sp, sp, #12
 422              		.cfi_def_cfa_offset 40
 423              		.loc 1 213 26 view .LVU107
 424 0008 1B68     		ldr	r3, [r3]
 425 000a 0193     		str	r3, [sp, #4]
 426 000c 4FF00003 		mov	r3,#0
 427              		.loc 1 214 3 is_stmt 1 view .LVU108
 428              		.loc 1 215 3 view .LVU109
 429              		.loc 1 217 3 view .LVU110
 430              		.loc 1 217 3 view .LVU111
 431              		.loc 1 217 3 view .LVU112
 432 0010 8146     		mov	r9, r0
 433 0012 0028     		cmp	r0, #0
 434 0014 52D0     		beq	.L55
 435              	.LVL32:
 436              	.L40:
 437              		.loc 1 217 3 discriminator 5 view .LVU113
 438              		.loc 1 220 3 discriminator 5 view .LVU114
 439              		.loc 1 222 9 is_stmt 0 discriminator 5 view .LVU115
 440 0016 59F8083C 		ldr	r3, [r9, #-8]
 441              		.loc 1 227 5 discriminator 5 view .LVU116
 442 001a 2C4E     		ldr	r6, .L60+4
 443              		.loc 1 225 3 discriminator 5 view .LVU117
 444 001c 03F11007 		add	r7, r3, #16
 445 0020 3846     		mov	r0, r7
 446              		.loc 1 223 6 discriminator 5 view .LVU118
 447 0022 03F10808 		add	r8, r3, #8
 448              		.loc 1 225 3 discriminator 5 view .LVU119
 449 0026 FFF7FEFF 		bl	chMtxLock
 450              	.LVL33:
 451              		.loc 1 223 6 discriminator 5 view .LVU120
 452 002a 4446     		mov	r4, r8
 453              		.loc 1 220 6 discriminator 5 view .LVU121
 454 002c A9F10805 		sub	r5, r9, #8
 455              	.LVL34:
 456              		.loc 1 222 3 is_stmt 1 discriminator 5 view .LVU122
ARM GAS  /tmp/cccxOv79.s 			page 9


 457              		.loc 1 223 3 discriminator 5 view .LVU123
 458              		.loc 1 225 3 discriminator 5 view .LVU124
 459              	.L48:
 460              		.loc 1 226 3 discriminator 1 view .LVU125
 461              		.loc 1 227 5 discriminator 1 view .LVU126
 462              		.loc 1 227 5 discriminator 1 view .LVU127
 463              		.loc 1 227 5 discriminator 1 view .LVU128
 464 0030 AC42     		cmp	r4, r5
 465 0032 04D8     		bhi	.L41
 466              		.loc 1 227 5 is_stmt 0 discriminator 3 view .LVU129
 467 0034 6368     		ldr	r3, [r4, #4]
 468 0036 0833     		adds	r3, r3, #8
 469 0038 2344     		add	r3, r3, r4
 470 003a 9D42     		cmp	r5, r3
 471 003c 23D3     		bcc	.L56
 472              	.L41:
 473              		.loc 1 227 5 is_stmt 1 discriminator 7 view .LVU130
 474              		.loc 1 229 5 discriminator 7 view .LVU131
 475              		.loc 1 229 8 is_stmt 0 discriminator 7 view .LVU132
 476 003e 4445     		cmp	r4, r8
 477              		.loc 1 230 18 discriminator 7 view .LVU133
 478 0040 2368     		ldr	r3, [r4]
 479              		.loc 1 229 8 discriminator 7 view .LVU134
 480 0042 01D0     		beq	.L42
 481              		.loc 1 229 33 discriminator 2 view .LVU135
 482 0044 AC42     		cmp	r4, r5
 483 0046 02D2     		bcs	.L45
 484              	.L42:
 485              		.loc 1 229 47 discriminator 3 view .LVU136
 486 0048 1BB1     		cbz	r3, .L44
 487              		.loc 1 230 33 view .LVU137
 488 004a AB42     		cmp	r3, r5
 489 004c 01D8     		bhi	.L44
 490              	.L45:
 491              		.loc 1 247 5 is_stmt 1 view .LVU138
 492              	.LVL35:
 493              		.loc 1 226 9 view .LVU139
 494              		.loc 1 247 8 is_stmt 0 view .LVU140
 495 004e 1C46     		mov	r4, r3
 496              		.loc 1 227 5 view .LVU141
 497 0050 EEE7     		b	.L48
 498              	.LVL36:
 499              	.L44:
 500              		.loc 1 232 7 is_stmt 1 view .LVU142
 501              		.loc 1 232 20 is_stmt 0 view .LVU143
 502 0052 49F8083C 		str	r3, [r9, #-8]
 503              		.loc 1 233 7 is_stmt 1 view .LVU144
 504              		.loc 1 233 20 is_stmt 0 view .LVU145
 505 0056 2560     		str	r5, [r4]
 506              		.loc 1 235 7 is_stmt 1 view .LVU146
 507              		.loc 1 235 31 is_stmt 0 view .LVU147
 508 0058 59E90223 		ldrd	r2, r3, [r9, #-8]
 509              		.loc 1 235 11 view .LVU148
 510 005c 09EB0301 		add	r1, r9, r3
 511              		.loc 1 235 10 view .LVU149
 512 0060 8A42     		cmp	r2, r1
 513 0062 14D0     		beq	.L57
ARM GAS  /tmp/cccxOv79.s 			page 10


 514              		.loc 1 240 7 is_stmt 1 view .LVU150
 515              		.loc 1 240 12 is_stmt 0 view .LVU151
 516 0064 6268     		ldr	r2, [r4, #4]
 517 0066 02F10803 		add	r3, r2, #8
 518 006a 2344     		add	r3, r3, r4
 519              		.loc 1 240 10 view .LVU152
 520 006c 9D42     		cmp	r5, r3
 521 006e 1CD0     		beq	.L58
 522              	.L47:
 523              		.loc 1 245 7 is_stmt 1 view .LVU153
 524              		.loc 1 249 3 view .LVU154
 525 0070 154B     		ldr	r3, .L60
 526 0072 1A68     		ldr	r2, [r3]
 527 0074 019B     		ldr	r3, [sp, #4]
 528 0076 5A40     		eors	r2, r3, r2
 529 0078 24D1     		bne	.L59
 530 007a 3846     		mov	r0, r7
 531              		.loc 1 252 1 is_stmt 0 view .LVU155
 532 007c 03B0     		add	sp, sp, #12
 533              		.cfi_remember_state
 534              		.cfi_def_cfa_offset 28
 535              		@ sp needed
 536 007e BDE8F043 		pop	{r4, r5, r6, r7, r8, r9, lr}
 537              		.cfi_restore 14
 538              		.cfi_restore 9
 539              		.cfi_restore 8
 540              		.cfi_restore 7
 541              		.cfi_restore 6
 542              		.cfi_restore 5
 543              		.cfi_restore 4
 544              		.cfi_def_cfa_offset 0
 545              	.LVL37:
 546              		.loc 1 249 3 view .LVU156
 547 0082 FFF7FEBF 		b	chMtxUnlock
 548              	.LVL38:
 549              	.L56:
 550              		.cfi_restore_state
 551              		.loc 1 227 5 is_stmt 1 discriminator 5 view .LVU157
 552 0086 3046     		mov	r0, r6
 553 0088 FFF7FEFF 		bl	chSysHalt
 554              	.LVL39:
 555 008c D7E7     		b	.L41
 556              	.L57:
 557              		.loc 1 237 9 view .LVU158
 558              		.loc 1 237 20 is_stmt 0 view .LVU159
 559 008e 5168     		ldr	r1, [r2, #4]
 560 0090 0833     		adds	r3, r3, #8
 561 0092 0B44     		add	r3, r3, r1
 562 0094 49F8043C 		str	r3, [r9, #-4]
 563              		.loc 1 238 9 is_stmt 1 view .LVU160
 564              		.loc 1 238 41 is_stmt 0 view .LVU161
 565 0098 1368     		ldr	r3, [r2]
 566              		.loc 1 238 22 view .LVU162
 567 009a 49F8083C 		str	r3, [r9, #-8]
 568              		.loc 1 240 7 is_stmt 1 view .LVU163
 569              		.loc 1 240 12 is_stmt 0 view .LVU164
 570 009e 6268     		ldr	r2, [r4, #4]
ARM GAS  /tmp/cccxOv79.s 			page 11


 571 00a0 02F10803 		add	r3, r2, #8
 572 00a4 2344     		add	r3, r3, r4
 573              		.loc 1 240 10 view .LVU165
 574 00a6 9D42     		cmp	r5, r3
 575 00a8 E2D1     		bne	.L47
 576              	.L58:
 577              		.loc 1 242 9 is_stmt 1 view .LVU166
 578              		.loc 1 242 20 is_stmt 0 view .LVU167
 579 00aa 59F8043C 		ldr	r3, [r9, #-4]
 580 00ae 0833     		adds	r3, r3, #8
 581 00b0 1A44     		add	r2, r2, r3
 582 00b2 6260     		str	r2, [r4, #4]
 583              		.loc 1 243 9 is_stmt 1 view .LVU168
 584              		.loc 1 243 31 is_stmt 0 view .LVU169
 585 00b4 59F8083C 		ldr	r3, [r9, #-8]
 586              		.loc 1 243 22 view .LVU170
 587 00b8 2360     		str	r3, [r4]
 588 00ba D9E7     		b	.L47
 589              	.LVL40:
 590              	.L55:
 591              		.loc 1 217 3 is_stmt 1 discriminator 3 view .LVU171
 592 00bc 0348     		ldr	r0, .L60+4
 593              	.LVL41:
 594              		.loc 1 217 3 is_stmt 0 discriminator 3 view .LVU172
 595 00be FFF7FEFF 		bl	chSysHalt
 596              	.LVL42:
 597 00c2 A8E7     		b	.L40
 598              	.LVL43:
 599              	.L59:
 600              		.loc 1 249 3 view .LVU173
 601 00c4 FFF7FEFF 		bl	__stack_chk_fail
 602              	.LVL44:
 603              	.L61:
 604              		.align	2
 605              	.L60:
 606 00c8 00000000 		.word	.LC3
 607 00cc 00000000 		.word	.LANCHOR2
 608              		.cfi_endproc
 609              	.LFE222:
 610              		.size	chHeapFree, .-chHeapFree
 611              		.section	.rodata.chHeapStatus.cst4,"aM",%progbits,4
 612              		.align	2
 613              	.LC4:
 614 0000 00000000 		.word	__stack_chk_guard
 615              		.section	.text.chHeapStatus,"ax",%progbits
 616              		.align	1
 617              		.p2align 4,,15
 618              		.global	chHeapStatus
 619              		.syntax unified
 620              		.thumb
 621              		.thumb_func
 622              		.fpu fpv4-sp-d16
 623              		.type	chHeapStatus, %function
 624              	chHeapStatus:
 625              	.LVL45:
 626              	.LFB223:
 627              		.loc 1 267 58 is_stmt 1 view -0
ARM GAS  /tmp/cccxOv79.s 			page 12


 628              		.cfi_startproc
 629              		@ args = 0, pretend = 0, frame = 16
 630              		@ frame_needed = 0, uses_anonymous_args = 0
 631              		.loc 1 267 58 is_stmt 0 view .LVU175
 632 0000 70B5     		push	{r4, r5, r6, lr}
 633              		.cfi_def_cfa_offset 16
 634              		.cfi_offset 4, -16
 635              		.cfi_offset 5, -12
 636              		.cfi_offset 6, -8
 637              		.cfi_offset 14, -4
 638              		.loc 1 272 11 view .LVU176
 639 0002 164C     		ldr	r4, .L75
 640              		.loc 1 267 58 view .LVU177
 641 0004 164B     		ldr	r3, .L75+4
 642 0006 84B0     		sub	sp, sp, #16
 643              		.cfi_def_cfa_offset 32
 644              		.loc 1 272 11 view .LVU178
 645 0008 0028     		cmp	r0, #0
 646 000a 18BF     		it	ne
 647 000c 0446     		movne	r4, r0
 648              		.loc 1 275 3 view .LVU179
 649 000e 04F11000 		add	r0, r4, #16
 650              	.LVL46:
 651              		.loc 1 267 58 view .LVU180
 652 0012 1B68     		ldr	r3, [r3]
 653 0014 0393     		str	r3, [sp, #12]
 654 0016 4FF00003 		mov	r3,#0
 655              		.loc 1 268 3 is_stmt 1 view .LVU181
 656              		.loc 1 269 3 view .LVU182
 657              		.loc 1 271 3 view .LVU183
 658              	.LVL47:
 659              		.loc 1 275 3 view .LVU184
 660              		.loc 1 267 58 is_stmt 0 view .LVU185
 661 001a 0E46     		mov	r6, r1
 662              		.loc 1 275 3 view .LVU186
 663 001c 0190     		str	r0, [sp, #4]
 664 001e FFF7FEFF 		bl	chMtxLock
 665              	.LVL48:
 666              		.loc 1 276 3 is_stmt 1 view .LVU187
 667              		.loc 1 277 3 view .LVU188
 668              		.loc 1 278 3 view .LVU189
 669              		.loc 1 279 3 view .LVU190
 670              		.loc 1 279 9 view .LVU191
 671              		.loc 1 279 17 is_stmt 0 view .LVU192
 672 0022 A368     		ldr	r3, [r4, #8]
 673              		.loc 1 279 9 view .LVU193
 674 0024 0198     		ldr	r0, [sp, #4]
 675 0026 9BB1     		cbz	r3, .L68
 676              		.loc 1 276 6 view .LVU194
 677 0028 0022     		movs	r2, #0
 678              		.loc 1 277 5 view .LVU195
 679 002a 1446     		mov	r4, r2
 680              	.LVL49:
 681              	.L65:
 682              		.loc 1 280 5 is_stmt 1 view .LVU196
 683              		.loc 1 279 17 is_stmt 0 view .LVU197
 684 002c D3E90035 		ldrd	r3, r5, [r3]
ARM GAS  /tmp/cccxOv79.s 			page 13


 685              		.loc 1 281 6 view .LVU198
 686 0030 0134     		adds	r4, r4, #1
 687              	.LVL50:
 688              		.loc 1 280 8 view .LVU199
 689 0032 2A44     		add	r2, r2, r5
 690              	.LVL51:
 691              		.loc 1 281 5 is_stmt 1 view .LVU200
 692              		.loc 1 282 5 view .LVU201
 693              		.loc 1 279 9 view .LVU202
 694 0034 002B     		cmp	r3, #0
 695 0036 F9D1     		bne	.L65
 696              	.LVL52:
 697              	.L64:
 698              		.loc 1 284 3 view .LVU203
 699              		.loc 1 284 6 is_stmt 0 view .LVU204
 700 0038 06B1     		cbz	r6, .L66
 701              		.loc 1 285 5 is_stmt 1 view .LVU205
 702              		.loc 1 285 12 is_stmt 0 view .LVU206
 703 003a 3260     		str	r2, [r6]
 704              	.L66:
 705              		.loc 1 287 3 is_stmt 1 view .LVU207
 706 003c FFF7FEFF 		bl	chMtxUnlock
 707              	.LVL53:
 708              		.loc 1 289 3 view .LVU208
 709              		.loc 1 290 1 is_stmt 0 view .LVU209
 710 0040 074B     		ldr	r3, .L75+4
 711 0042 1A68     		ldr	r2, [r3]
 712 0044 039B     		ldr	r3, [sp, #12]
 713 0046 5A40     		eors	r2, r3, r2
 714 0048 05D1     		bne	.L74
 715 004a 2046     		mov	r0, r4
 716 004c 04B0     		add	sp, sp, #16
 717              		.cfi_remember_state
 718              		.cfi_def_cfa_offset 16
 719              		@ sp needed
 720 004e 70BD     		pop	{r4, r5, r6, pc}
 721              	.LVL54:
 722              	.L68:
 723              		.cfi_restore_state
 724              		.loc 1 276 6 view .LVU210
 725 0050 1A46     		mov	r2, r3
 726              		.loc 1 277 5 view .LVU211
 727 0052 1C46     		mov	r4, r3
 728              	.LVL55:
 729              		.loc 1 277 5 view .LVU212
 730 0054 F0E7     		b	.L64
 731              	.LVL56:
 732              	.L74:
 733              		.loc 1 290 1 view .LVU213
 734 0056 FFF7FEFF 		bl	__stack_chk_fail
 735              	.LVL57:
 736              	.L76:
 737 005a 00BF     		.align	2
 738              	.L75:
 739 005c 00000000 		.word	.LANCHOR0
 740 0060 00000000 		.word	.LC4
 741              		.cfi_endproc
ARM GAS  /tmp/cccxOv79.s 			page 14


 742              	.LFE223:
 743              		.size	chHeapStatus, .-chHeapStatus
 744              		.section	.bss.default_heap,"aw",%nobits
 745              		.align	3
 746              		.set	.LANCHOR0,. + 0
 747              		.type	default_heap, %object
 748              		.size	default_heap, 40
 749              	default_heap:
 750 0000 00000000 		.space	40
 750      00000000 
 750      00000000 
 750      00000000 
 750      00000000 
 751              		.section	.rodata.__func__.7964,"a"
 752              		.align	2
 753              		.set	.LANCHOR1,. + 0
 754              		.type	__func__.7964, %object
 755              		.size	__func__.7964, 17
 756              	__func__.7964:
 757 0000 63684865 		.ascii	"chHeapObjectInit\000"
 757      61704F62 
 757      6A656374 
 757      496E6974 
 757      00
 758              		.section	.rodata.__func__.7981,"a"
 759              		.align	2
 760              		.set	.LANCHOR2,. + 0
 761              		.type	__func__.7981, %object
 762              		.size	__func__.7981, 11
 763              	__func__.7981:
 764 0000 63684865 		.ascii	"chHeapFree\000"
 764      61704672 
 764      656500
 765              		.text
 766              	.Letext0:
 767              		.file 2 "/usr/lib/gcc/arm-none-eabi/9.2.1/include/stddef.h"
 768              		.file 3 "/usr/lib/gcc/arm-none-eabi/9.2.1/include/stdint.h"
 769              		.file 4 ".//ChibiOS//os/rt/ports/ARMCMx/compilers/GCC/chtypes.h"
 770              		.file 5 ".//ChibiOS//os/rt/include/chsystypes.h"
 771              		.file 6 ".//ChibiOS//os/rt/include/chschd.h"
 772              		.file 7 ".//ChibiOS//os/ext/CMSIS/include/core_cm4.h"
 773              		.file 8 ".//ChibiOS//os/ext/CMSIS/ST/system_stm32f4xx.h"
 774              		.file 9 ".//ChibiOS//os/rt/ports/ARMCMx/chcore.h"
 775              		.file 10 ".//ChibiOS//os/rt/ports/ARMCMx/chcore_v7m.h"
 776              		.file 11 ".//ChibiOS//os/rt/include/chdebug.h"
 777              		.file 12 ".//ChibiOS//os/rt/include/chtm.h"
 778              		.file 13 ".//ChibiOS//os/rt/include/chstats.h"
 779              		.file 14 ".//ChibiOS//os/rt/include/chsem.h"
 780              		.file 15 ".//ChibiOS//os/rt/include/chmtx.h"
 781              		.file 16 ".//ChibiOS//os/rt/include/chregistry.h"
 782              		.file 17 ".//ChibiOS//os/rt/include/chmemcore.h"
 783              		.file 18 ".//ChibiOS//os/rt/include/chheap.h"
 784              		.file 19 ".//ChibiOS//os/rt/include/chsys.h"