ARM GAS  /tmp/cc5UaDAt.s 			page 1


   1              		.cpu cortex-m4
   2              		.eabi_attribute 27, 1
   3              		.eabi_attribute 28, 1
   4              		.eabi_attribute 20, 1
   5              		.eabi_attribute 21, 1
   6              		.eabi_attribute 23, 3
   7              		.eabi_attribute 24, 1
   8              		.eabi_attribute 25, 1
   9              		.eabi_attribute 26, 1
  10              		.eabi_attribute 30, 2
  11              		.eabi_attribute 34, 1
  12              		.eabi_attribute 18, 4
  13              		.file	"chmempools.c"
  14              		.text
  15              	.Ltext0:
  16              		.cfi_sections	.debug_frame
  17              		.section	.rodata.chPoolObjectInit.cst4,"aM",%progbits,4
  18              		.align	2
  19              	.LC0:
  20 0000 00000000 		.word	__stack_chk_guard
  21              		.section	.text.chPoolObjectInit,"ax",%progbits
  22              		.align	1
  23              		.p2align 4,,15
  24              		.global	chPoolObjectInit
  25              		.arch armv7e-m
  26              		.syntax unified
  27              		.thumb
  28              		.thumb_func
  29              		.fpu fpv4-sp-d16
  30              		.type	chPoolObjectInit, %function
  31              	chPoolObjectInit:
  32              	.LVL0:
  33              	.LFB219:
  34              		.file 1 ".//ChibiOS//os/rt/src/chmempools.c"
  35              		.loc 1 75 78 view -0
  36              		.cfi_startproc
  37              		@ args = 0, pretend = 0, frame = 8
  38              		@ frame_needed = 0, uses_anonymous_args = 0
  39              		.loc 1 75 78 is_stmt 0 view .LVU1
  40 0000 70B5     		push	{r4, r5, r6, lr}
  41              		.cfi_def_cfa_offset 16
  42              		.cfi_offset 4, -16
  43              		.cfi_offset 5, -12
  44              		.cfi_offset 6, -8
  45              		.cfi_offset 14, -4
  46 0002 0E4B     		ldr	r3, .L11
  47 0004 82B0     		sub	sp, sp, #8
  48              		.cfi_def_cfa_offset 24
  49              		.loc 1 75 78 view .LVU2
  50 0006 0D46     		mov	r5, r1
  51 0008 1646     		mov	r6, r2
  52 000a 1B68     		ldr	r3, [r3]
  53 000c 0193     		str	r3, [sp, #4]
  54 000e 4FF00003 		mov	r3,#0
  55              		.loc 1 77 3 is_stmt 1 view .LVU3
  56              		.loc 1 77 3 view .LVU4
  57              		.loc 1 77 3 view .LVU5
ARM GAS  /tmp/cc5UaDAt.s 			page 2


  58 0012 0446     		mov	r4, r0
  59 0014 60B1     		cbz	r0, .L2
  60              		.loc 1 77 3 is_stmt 0 discriminator 4 view .LVU6
  61 0016 0329     		cmp	r1, #3
  62 0018 0AD9     		bls	.L2
  63              	.LVL1:
  64              	.L3:
  65              		.loc 1 77 3 is_stmt 1 discriminator 7 view .LVU7
  66              		.loc 1 79 3 discriminator 7 view .LVU8
  67              		.loc 1 79 15 is_stmt 0 discriminator 7 view .LVU9
  68 001a 0023     		movs	r3, #0
  69              		.loc 1 80 22 discriminator 7 view .LVU10
  70 001c C4E90035 		strd	r3, r5, [r4]
  71              		.loc 1 81 3 is_stmt 1 discriminator 7 view .LVU11
  72              		.loc 1 82 1 is_stmt 0 discriminator 7 view .LVU12
  73 0020 064B     		ldr	r3, .L11
  74              		.loc 1 81 19 discriminator 7 view .LVU13
  75 0022 A660     		str	r6, [r4, #8]
  76              		.loc 1 82 1 discriminator 7 view .LVU14
  77 0024 1A68     		ldr	r2, [r3]
  78 0026 019B     		ldr	r3, [sp, #4]
  79 0028 5A40     		eors	r2, r3, r2
  80 002a 05D1     		bne	.L10
  81              		.loc 1 82 1 view .LVU15
  82 002c 02B0     		add	sp, sp, #8
  83              		.cfi_remember_state
  84              		.cfi_def_cfa_offset 16
  85              		@ sp needed
  86 002e 70BD     		pop	{r4, r5, r6, pc}
  87              	.LVL2:
  88              	.L2:
  89              		.cfi_restore_state
  90              		.loc 1 77 3 is_stmt 1 discriminator 5 view .LVU16
  91 0030 0348     		ldr	r0, .L11+4
  92              	.LVL3:
  93              		.loc 1 77 3 is_stmt 0 discriminator 5 view .LVU17
  94 0032 FFF7FEFF 		bl	chSysHalt
  95              	.LVL4:
  96              		.loc 1 77 3 discriminator 5 view .LVU18
  97 0036 F0E7     		b	.L3
  98              	.L10:
  99              		.loc 1 82 1 view .LVU19
 100 0038 FFF7FEFF 		bl	__stack_chk_fail
 101              	.LVL5:
 102              	.L12:
 103              		.align	2
 104              	.L11:
 105 003c 00000000 		.word	.LC0
 106 0040 00000000 		.word	.LANCHOR0
 107              		.cfi_endproc
 108              	.LFE219:
 109              		.size	chPoolObjectInit, .-chPoolObjectInit
 110              		.section	.rodata.chPoolAllocI.cst4,"aM",%progbits,4
 111              		.align	2
 112              	.LC1:
 113 0000 00000000 		.word	__stack_chk_guard
 114              		.section	.text.chPoolAllocI,"ax",%progbits
ARM GAS  /tmp/cc5UaDAt.s 			page 3


 115              		.align	1
 116              		.p2align 4,,15
 117              		.global	chPoolAllocI
 118              		.syntax unified
 119              		.thumb
 120              		.thumb_func
 121              		.fpu fpv4-sp-d16
 122              		.type	chPoolAllocI, %function
 123              	chPoolAllocI:
 124              	.LVL6:
 125              	.LFB221:
 126              		.loc 1 120 39 is_stmt 1 view -0
 127              		.cfi_startproc
 128              		@ args = 0, pretend = 0, frame = 8
 129              		@ frame_needed = 0, uses_anonymous_args = 0
 130              		.loc 1 120 39 is_stmt 0 view .LVU21
 131 0000 10B5     		push	{r4, lr}
 132              		.cfi_def_cfa_offset 8
 133              		.cfi_offset 4, -8
 134              		.cfi_offset 14, -4
 135 0002 144B     		ldr	r3, .L25
 136 0004 82B0     		sub	sp, sp, #8
 137              		.cfi_def_cfa_offset 16
 138              		.loc 1 120 39 view .LVU22
 139 0006 0446     		mov	r4, r0
 140 0008 1B68     		ldr	r3, [r3]
 141 000a 0193     		str	r3, [sp, #4]
 142 000c 4FF00003 		mov	r3,#0
 143              		.loc 1 121 3 is_stmt 1 view .LVU23
 144              		.loc 1 123 3 view .LVU24
 145 0010 FFF7FEFF 		bl	chDbgCheckClassI
 146              	.LVL7:
 147              		.loc 1 124 3 view .LVU25
 148              		.loc 1 124 3 view .LVU26
 149              		.loc 1 124 3 view .LVU27
 150 0014 BCB1     		cbz	r4, .L24
 151              	.L14:
 152              		.loc 1 124 3 discriminator 5 view .LVU28
 153              		.loc 1 126 3 discriminator 5 view .LVU29
 154              		.loc 1 126 8 is_stmt 0 discriminator 5 view .LVU30
 155 0016 2068     		ldr	r0, [r4]
 156              	.LVL8:
 157              		.loc 1 128 3 is_stmt 1 discriminator 5 view .LVU31
 158              		.loc 1 128 6 is_stmt 0 discriminator 5 view .LVU32
 159 0018 40B1     		cbz	r0, .L15
 160              		.loc 1 129 5 is_stmt 1 view .LVU33
 161              		.loc 1 129 30 is_stmt 0 view .LVU34
 162 001a 0368     		ldr	r3, [r0]
 163              		.loc 1 129 17 view .LVU35
 164 001c 2360     		str	r3, [r4]
 165              	.L13:
 166              		.loc 1 137 1 view .LVU36
 167 001e 0D4B     		ldr	r3, .L25
 168 0020 1A68     		ldr	r2, [r3]
 169 0022 019B     		ldr	r3, [sp, #4]
 170 0024 5A40     		eors	r2, r3, r2
 171 0026 12D1     		bne	.L23
ARM GAS  /tmp/cc5UaDAt.s 			page 4


 172 0028 02B0     		add	sp, sp, #8
 173              		.cfi_remember_state
 174              		.cfi_def_cfa_offset 8
 175              		@ sp needed
 176 002a 10BD     		pop	{r4, pc}
 177              	.LVL9:
 178              	.L15:
 179              		.cfi_restore_state
 180              	.LBB28:
 181              	.LBI28:
 182              		.loc 1 120 7 is_stmt 1 view .LVU37
 183              	.LBB29:
 184              		.loc 1 131 8 view .LVU38
 185              		.loc 1 131 14 is_stmt 0 view .LVU39
 186 002c A368     		ldr	r3, [r4, #8]
 187              		.loc 1 131 11 view .LVU40
 188 002e 002B     		cmp	r3, #0
 189 0030 F5D0     		beq	.L13
 190              		.loc 1 132 5 is_stmt 1 view .LVU41
 191              		.loc 1 132 12 is_stmt 0 view .LVU42
 192 0032 084A     		ldr	r2, .L25
 193 0034 1168     		ldr	r1, [r2]
 194 0036 019A     		ldr	r2, [sp, #4]
 195 0038 5140     		eors	r1, r2, r1
 196 003a 08D1     		bne	.L23
 197 003c 6068     		ldr	r0, [r4, #4]
 198              	.LVL10:
 199              		.loc 1 132 12 view .LVU43
 200              	.LBE29:
 201              	.LBE28:
 202              		.loc 1 137 1 view .LVU44
 203 003e 02B0     		add	sp, sp, #8
 204              		.cfi_remember_state
 205              		.cfi_def_cfa_offset 8
 206              		@ sp needed
 207 0040 BDE81040 		pop	{r4, lr}
 208              		.cfi_restore 14
 209              		.cfi_restore 4
 210              		.cfi_def_cfa_offset 0
 211              	.LVL11:
 212              	.LBB31:
 213              	.LBB30:
 214              		.loc 1 132 12 view .LVU45
 215 0044 1847     		bx	r3
 216              	.LVL12:
 217              	.L24:
 218              		.cfi_restore_state
 219              		.loc 1 132 12 view .LVU46
 220              	.LBE30:
 221              	.LBE31:
 222              		.loc 1 124 3 is_stmt 1 discriminator 3 view .LVU47
 223 0046 0448     		ldr	r0, .L25+4
 224 0048 FFF7FEFF 		bl	chSysHalt
 225              	.LVL13:
 226 004c E3E7     		b	.L14
 227              	.LVL14:
 228              	.L23:
ARM GAS  /tmp/cc5UaDAt.s 			page 5


 229              		.loc 1 137 1 is_stmt 0 view .LVU48
 230 004e FFF7FEFF 		bl	__stack_chk_fail
 231              	.LVL15:
 232              	.L26:
 233              		.loc 1 137 1 view .LVU49
 234 0052 00BF     		.align	2
 235              	.L25:
 236 0054 00000000 		.word	.LC1
 237 0058 00000000 		.word	.LANCHOR1
 238              		.cfi_endproc
 239              	.LFE221:
 240              		.size	chPoolAllocI, .-chPoolAllocI
 241              		.section	.rodata.chPoolAlloc.cst4,"aM",%progbits,4
 242              		.align	2
 243              	.LC2:
 244 0000 00000000 		.word	__stack_chk_guard
 245              		.section	.text.chPoolAlloc,"ax",%progbits
 246              		.align	1
 247              		.p2align 4,,15
 248              		.global	chPoolAlloc
 249              		.syntax unified
 250              		.thumb
 251              		.thumb_func
 252              		.fpu fpv4-sp-d16
 253              		.type	chPoolAlloc, %function
 254              	chPoolAlloc:
 255              	.LVL16:
 256              	.LFB222:
 257              		.loc 1 149 38 is_stmt 1 view -0
 258              		.cfi_startproc
 259              		@ args = 0, pretend = 0, frame = 16
 260              		@ frame_needed = 0, uses_anonymous_args = 0
 261              		.loc 1 149 38 is_stmt 0 view .LVU51
 262 0000 10B5     		push	{r4, lr}
 263              		.cfi_def_cfa_offset 8
 264              		.cfi_offset 4, -8
 265              		.cfi_offset 14, -4
 266 0002 84B0     		sub	sp, sp, #16
 267              		.cfi_def_cfa_offset 24
 268              		.loc 1 149 38 view .LVU52
 269 0004 174B     		ldr	r3, .L33
 270 0006 0190     		str	r0, [sp, #4]
 271 0008 1B68     		ldr	r3, [r3]
 272 000a 0393     		str	r3, [sp, #12]
 273 000c 4FF00003 		mov	r3,#0
 274              		.loc 1 150 3 is_stmt 1 view .LVU53
 275              		.loc 1 152 3 view .LVU54
 276              	.LBB42:
 277              	.LBI42:
 278              		.file 2 ".//ChibiOS//os/rt/include/chsys.h"
 279              		.loc 2 346 20 view .LVU55
 280              	.LBB43:
 281              		.loc 2 348 3 view .LVU56
 282              	.LBB44:
 283              	.LBI44:
 284              		.file 3 ".//ChibiOS//os/rt/ports/ARMCMx/chcore_v7m.h"
 285              		.loc 3 444 20 view .LVU57
ARM GAS  /tmp/cc5UaDAt.s 			page 6


 286              	.LBE44:
 287              	.LBE43:
 288              	.LBE42:
 289              		.loc 3 447 3 view .LVU58
 290              	.LVL17:
 291              	.LBB49:
 292              	.LBB48:
 293              	.LBB47:
 294              	.LBB45:
 295              	.LBI45:
 296              		.file 4 ".//ChibiOS//os/ext/CMSIS/include/core_cmFunc.h"
 297              		.loc 4 544 57 view .LVU59
 298              	.LBB46:
 299              		.loc 4 546 3 view .LVU60
 300 0010 2023     		movs	r3, #32
 301              		.syntax unified
 302              	@ 546 ".//ChibiOS//os/ext/CMSIS/include/core_cmFunc.h" 1
 303 0012 83F31188 		MSR basepri, r3
 304              	@ 0 "" 2
 305              	.LVL18:
 306              		.loc 4 546 3 is_stmt 0 view .LVU61
 307              		.thumb
 308              		.syntax unified
 309              	.LBE46:
 310              	.LBE45:
 311              	.LBE47:
 312              		.loc 2 349 3 is_stmt 1 view .LVU62
 313 0016 FFF7FEFF 		bl	_stats_start_measure_crit_thd
 314              	.LVL19:
 315              		.loc 2 350 3 view .LVU63
 316 001a FFF7FEFF 		bl	_dbg_check_lock
 317              	.LVL20:
 318              	.LBE48:
 319              	.LBE49:
 320              		.loc 1 153 3 view .LVU64
 321              		.loc 1 153 10 is_stmt 0 view .LVU65
 322 001e 0198     		ldr	r0, [sp, #4]
 323 0020 FFF7FEFF 		bl	chPoolAllocI
 324              	.LVL21:
 325 0024 0446     		mov	r4, r0
 326              	.LVL22:
 327              		.loc 1 154 3 is_stmt 1 view .LVU66
 328              	.LBB50:
 329              	.LBI50:
 330              		.loc 2 358 20 view .LVU67
 331              	.LBB51:
 332              		.loc 2 360 3 view .LVU68
 333 0026 FFF7FEFF 		bl	_dbg_check_unlock
 334              	.LVL23:
 335              		.loc 2 361 3 view .LVU69
 336 002a FFF7FEFF 		bl	_stats_stop_measure_crit_thd
 337              	.LVL24:
 338              		.loc 2 367 3 view .LVU70
 339              		.loc 2 367 3 view .LVU71
 340              		.loc 2 367 3 view .LVU72
 341 002e 0E4B     		ldr	r3, .L33+4
 342 0030 1A68     		ldr	r2, [r3]
ARM GAS  /tmp/cc5UaDAt.s 			page 7


 343 0032 9A42     		cmp	r2, r3
 344 0034 04D0     		beq	.L28
 345 0036 9969     		ldr	r1, [r3, #24]
 346 0038 9368     		ldr	r3, [r2, #8]
 347 003a 8A68     		ldr	r2, [r1, #8]
 348 003c 9A42     		cmp	r2, r3
 349 003e 0AD3     		bcc	.L31
 350              	.L28:
 351              		.loc 2 367 3 view .LVU73
 352              		.loc 2 371 3 view .LVU74
 353              	.LBB52:
 354              	.LBI52:
 355              		.loc 3 458 20 view .LVU75
 356              	.LBE52:
 357              	.LBE51:
 358              	.LBE50:
 359              		.loc 3 461 3 view .LVU76
 360              	.LVL25:
 361              	.LBB58:
 362              	.LBB56:
 363              	.LBB55:
 364              	.LBB53:
 365              	.LBI53:
 366              		.loc 4 544 57 view .LVU77
 367              	.LBB54:
 368              		.loc 4 546 3 view .LVU78
 369 0040 0023     		movs	r3, #0
 370              		.syntax unified
 371              	@ 546 ".//ChibiOS//os/ext/CMSIS/include/core_cmFunc.h" 1
 372 0042 83F31188 		MSR basepri, r3
 373              	@ 0 "" 2
 374              	.LVL26:
 375              		.loc 4 546 3 is_stmt 0 view .LVU79
 376              		.thumb
 377              		.syntax unified
 378              	.LBE54:
 379              	.LBE53:
 380              	.LBE55:
 381              	.LBE56:
 382              	.LBE58:
 383              		.loc 1 156 3 is_stmt 1 view .LVU80
 384              		.loc 1 157 1 is_stmt 0 view .LVU81
 385 0046 074B     		ldr	r3, .L33
 386 0048 1A68     		ldr	r2, [r3]
 387 004a 039B     		ldr	r3, [sp, #12]
 388 004c 5A40     		eors	r2, r3, r2
 389 004e 06D1     		bne	.L32
 390 0050 2046     		mov	r0, r4
 391 0052 04B0     		add	sp, sp, #16
 392              		.cfi_remember_state
 393              		.cfi_def_cfa_offset 8
 394              		@ sp needed
 395 0054 10BD     		pop	{r4, pc}
 396              	.LVL27:
 397              	.L31:
 398              		.cfi_restore_state
 399              	.LBB59:
ARM GAS  /tmp/cc5UaDAt.s 			page 8


 400              	.LBB57:
 401              		.loc 2 367 3 is_stmt 1 view .LVU82
 402 0056 0548     		ldr	r0, .L33+8
 403 0058 FFF7FEFF 		bl	chSysHalt
 404              	.LVL28:
 405 005c F0E7     		b	.L28
 406              	.L32:
 407              	.LBE57:
 408              	.LBE59:
 409              		.loc 1 157 1 is_stmt 0 view .LVU83
 410 005e FFF7FEFF 		bl	__stack_chk_fail
 411              	.LVL29:
 412              	.L34:
 413 0062 00BF     		.align	2
 414              	.L33:
 415 0064 00000000 		.word	.LC2
 416 0068 00000000 		.word	ch
 417 006c 00000000 		.word	.LANCHOR2
 418              		.cfi_endproc
 419              	.LFE222:
 420              		.size	chPoolAlloc, .-chPoolAlloc
 421              		.section	.rodata.chPoolFreeI.cst4,"aM",%progbits,4
 422              		.align	2
 423              	.LC3:
 424 0000 00000000 		.word	__stack_chk_guard
 425              		.section	.text.chPoolFreeI,"ax",%progbits
 426              		.align	1
 427              		.p2align 4,,15
 428              		.global	chPoolFreeI
 429              		.syntax unified
 430              		.thumb
 431              		.thumb_func
 432              		.fpu fpv4-sp-d16
 433              		.type	chPoolFreeI, %function
 434              	chPoolFreeI:
 435              	.LVL30:
 436              	.LFB223:
 437              		.loc 1 171 49 is_stmt 1 view -0
 438              		.cfi_startproc
 439              		@ args = 0, pretend = 0, frame = 8
 440              		@ frame_needed = 0, uses_anonymous_args = 0
 441              		.loc 1 171 49 is_stmt 0 view .LVU85
 442 0000 30B5     		push	{r4, r5, lr}
 443              		.cfi_def_cfa_offset 12
 444              		.cfi_offset 4, -12
 445              		.cfi_offset 5, -8
 446              		.cfi_offset 14, -4
 447 0002 0E4B     		ldr	r3, .L44
 448 0004 83B0     		sub	sp, sp, #12
 449              		.cfi_def_cfa_offset 24
 450              		.loc 1 171 49 view .LVU86
 451 0006 0446     		mov	r4, r0
 452 0008 0D46     		mov	r5, r1
 453 000a 1B68     		ldr	r3, [r3]
 454 000c 0193     		str	r3, [sp, #4]
 455 000e 4FF00003 		mov	r3,#0
 456              		.loc 1 172 3 is_stmt 1 view .LVU87
ARM GAS  /tmp/cc5UaDAt.s 			page 9


 457              	.LVL31:
 458              		.loc 1 174 3 view .LVU88
 459 0012 FFF7FEFF 		bl	chDbgCheckClassI
 460              	.LVL32:
 461              		.loc 1 175 3 view .LVU89
 462              		.loc 1 175 3 view .LVU90
 463              		.loc 1 175 3 view .LVU91
 464 0016 54B1     		cbz	r4, .L36
 465              		.loc 1 175 3 is_stmt 0 discriminator 4 view .LVU92
 466 0018 4DB1     		cbz	r5, .L36
 467              	.L37:
 468              		.loc 1 175 3 is_stmt 1 discriminator 7 view .LVU93
 469              		.loc 1 177 3 discriminator 7 view .LVU94
 470              		.loc 1 177 20 is_stmt 0 discriminator 7 view .LVU95
 471 001a 2368     		ldr	r3, [r4]
 472              		.loc 1 177 16 discriminator 7 view .LVU96
 473 001c 2B60     		str	r3, [r5]
 474              		.loc 1 178 3 is_stmt 1 discriminator 7 view .LVU97
 475              		.loc 1 179 1 is_stmt 0 discriminator 7 view .LVU98
 476 001e 074B     		ldr	r3, .L44
 477              		.loc 1 178 15 discriminator 7 view .LVU99
 478 0020 2560     		str	r5, [r4]
 479              		.loc 1 179 1 discriminator 7 view .LVU100
 480 0022 1A68     		ldr	r2, [r3]
 481 0024 019B     		ldr	r3, [sp, #4]
 482 0026 5A40     		eors	r2, r3, r2
 483 0028 05D1     		bne	.L43
 484              		.loc 1 179 1 view .LVU101
 485 002a 03B0     		add	sp, sp, #12
 486              		.cfi_remember_state
 487              		.cfi_def_cfa_offset 12
 488              		@ sp needed
 489 002c 30BD     		pop	{r4, r5, pc}
 490              	.LVL33:
 491              	.L36:
 492              		.cfi_restore_state
 493              		.loc 1 175 3 is_stmt 1 discriminator 5 view .LVU102
 494 002e 0448     		ldr	r0, .L44+4
 495 0030 FFF7FEFF 		bl	chSysHalt
 496              	.LVL34:
 497 0034 F1E7     		b	.L37
 498              	.L43:
 499              		.loc 1 179 1 is_stmt 0 view .LVU103
 500 0036 FFF7FEFF 		bl	__stack_chk_fail
 501              	.LVL35:
 502              	.L45:
 503 003a 00BF     		.align	2
 504              	.L44:
 505 003c 00000000 		.word	.LC3
 506 0040 00000000 		.word	.LANCHOR3
 507              		.cfi_endproc
 508              	.LFE223:
 509              		.size	chPoolFreeI, .-chPoolFreeI
 510              		.section	.rodata.chPoolFree.cst4,"aM",%progbits,4
 511              		.align	2
 512              	.LC4:
 513 0000 00000000 		.word	__stack_chk_guard
ARM GAS  /tmp/cc5UaDAt.s 			page 10


 514              		.section	.text.chPoolFree,"ax",%progbits
 515              		.align	1
 516              		.p2align 4,,15
 517              		.global	chPoolFree
 518              		.syntax unified
 519              		.thumb
 520              		.thumb_func
 521              		.fpu fpv4-sp-d16
 522              		.type	chPoolFree, %function
 523              	chPoolFree:
 524              	.LVL36:
 525              	.LFB224:
 526              		.loc 1 193 48 is_stmt 1 view -0
 527              		.cfi_startproc
 528              		@ args = 0, pretend = 0, frame = 16
 529              		@ frame_needed = 0, uses_anonymous_args = 0
 530              		.loc 1 193 48 is_stmt 0 view .LVU105
 531 0000 00B5     		push	{lr}
 532              		.cfi_def_cfa_offset 4
 533              		.cfi_offset 14, -4
 534 0002 85B0     		sub	sp, sp, #20
 535              		.cfi_def_cfa_offset 24
 536              		.loc 1 193 48 view .LVU106
 537 0004 CDE90010 		strd	r1, r0, [sp]
 538 0008 164B     		ldr	r3, .L52
 539 000a 1B68     		ldr	r3, [r3]
 540 000c 0393     		str	r3, [sp, #12]
 541 000e 4FF00003 		mov	r3,#0
 542              		.loc 1 195 3 is_stmt 1 view .LVU107
 543              	.LBB70:
 544              	.LBI70:
 545              		.loc 2 346 20 view .LVU108
 546              	.LBB71:
 547              		.loc 2 348 3 view .LVU109
 548              	.LBB72:
 549              	.LBI72:
 550              		.loc 3 444 20 view .LVU110
 551              	.LBE72:
 552              	.LBE71:
 553              	.LBE70:
 554              		.loc 3 447 3 view .LVU111
 555              	.LVL37:
 556              	.LBB77:
 557              	.LBB76:
 558              	.LBB75:
 559              	.LBB73:
 560              	.LBI73:
 561              		.loc 4 544 57 view .LVU112
 562              	.LBB74:
 563              		.loc 4 546 3 view .LVU113
 564 0012 2023     		movs	r3, #32
 565              		.syntax unified
 566              	@ 546 ".//ChibiOS//os/ext/CMSIS/include/core_cmFunc.h" 1
 567 0014 83F31188 		MSR basepri, r3
 568              	@ 0 "" 2
 569              	.LVL38:
 570              		.loc 4 546 3 is_stmt 0 view .LVU114
ARM GAS  /tmp/cc5UaDAt.s 			page 11


 571              		.thumb
 572              		.syntax unified
 573              	.LBE74:
 574              	.LBE73:
 575              	.LBE75:
 576              		.loc 2 349 3 is_stmt 1 view .LVU115
 577 0018 FFF7FEFF 		bl	_stats_start_measure_crit_thd
 578              	.LVL39:
 579              		.loc 2 350 3 view .LVU116
 580 001c FFF7FEFF 		bl	_dbg_check_lock
 581              	.LVL40:
 582              	.LBE76:
 583              	.LBE77:
 584              		.loc 1 196 3 view .LVU117
 585 0020 DDE90010 		ldrd	r1, r0, [sp]
 586 0024 FFF7FEFF 		bl	chPoolFreeI
 587              	.LVL41:
 588              		.loc 1 197 3 view .LVU118
 589              	.LBB78:
 590              	.LBI78:
 591              		.loc 2 358 20 view .LVU119
 592              	.LBB79:
 593              		.loc 2 360 3 view .LVU120
 594 0028 FFF7FEFF 		bl	_dbg_check_unlock
 595              	.LVL42:
 596              		.loc 2 361 3 view .LVU121
 597 002c FFF7FEFF 		bl	_stats_stop_measure_crit_thd
 598              	.LVL43:
 599              		.loc 2 367 3 view .LVU122
 600              		.loc 2 367 3 view .LVU123
 601              		.loc 2 367 3 view .LVU124
 602 0030 0D4B     		ldr	r3, .L52+4
 603 0032 1A68     		ldr	r2, [r3]
 604 0034 9A42     		cmp	r2, r3
 605 0036 04D0     		beq	.L47
 606 0038 9969     		ldr	r1, [r3, #24]
 607 003a 9368     		ldr	r3, [r2, #8]
 608 003c 8A68     		ldr	r2, [r1, #8]
 609 003e 9A42     		cmp	r2, r3
 610 0040 0AD3     		bcc	.L50
 611              	.L47:
 612              		.loc 2 367 3 view .LVU125
 613              		.loc 2 371 3 view .LVU126
 614              	.LBB80:
 615              	.LBI80:
 616              		.loc 3 458 20 view .LVU127
 617              	.LBE80:
 618              	.LBE79:
 619              	.LBE78:
 620              		.loc 3 461 3 view .LVU128
 621              	.LVL44:
 622              	.LBB86:
 623              	.LBB84:
 624              	.LBB83:
 625              	.LBB81:
 626              	.LBI81:
 627              		.loc 4 544 57 view .LVU129
ARM GAS  /tmp/cc5UaDAt.s 			page 12


 628              	.LBB82:
 629              		.loc 4 546 3 view .LVU130
 630 0042 0023     		movs	r3, #0
 631              		.syntax unified
 632              	@ 546 ".//ChibiOS//os/ext/CMSIS/include/core_cmFunc.h" 1
 633 0044 83F31188 		MSR basepri, r3
 634              	@ 0 "" 2
 635              	.LVL45:
 636              		.loc 4 546 3 is_stmt 0 view .LVU131
 637              		.thumb
 638              		.syntax unified
 639              	.LBE82:
 640              	.LBE81:
 641              	.LBE83:
 642              	.LBE84:
 643              	.LBE86:
 644              		.loc 1 198 1 view .LVU132
 645 0048 064B     		ldr	r3, .L52
 646 004a 1A68     		ldr	r2, [r3]
 647 004c 039B     		ldr	r3, [sp, #12]
 648 004e 5A40     		eors	r2, r3, r2
 649 0050 06D1     		bne	.L51
 650 0052 05B0     		add	sp, sp, #20
 651              		.cfi_remember_state
 652              		.cfi_def_cfa_offset 4
 653              	.LVL46:
 654              		.loc 1 198 1 view .LVU133
 655              		@ sp needed
 656 0054 5DF804FB 		ldr	pc, [sp], #4
 657              	.LVL47:
 658              	.L50:
 659              		.cfi_restore_state
 660              	.LBB87:
 661              	.LBB85:
 662              		.loc 2 367 3 is_stmt 1 view .LVU134
 663 0058 0448     		ldr	r0, .L52+8
 664 005a FFF7FEFF 		bl	chSysHalt
 665              	.LVL48:
 666 005e F0E7     		b	.L47
 667              	.L51:
 668              	.LBE85:
 669              	.LBE87:
 670              		.loc 1 198 1 is_stmt 0 view .LVU135
 671 0060 FFF7FEFF 		bl	__stack_chk_fail
 672              	.LVL49:
 673              	.L53:
 674              		.align	2
 675              	.L52:
 676 0064 00000000 		.word	.LC4
 677 0068 00000000 		.word	ch
 678 006c 00000000 		.word	.LANCHOR2
 679              		.cfi_endproc
 680              	.LFE224:
 681              		.size	chPoolFree, .-chPoolFree
 682              		.section	.rodata.chPoolLoadArray.cst4,"aM",%progbits,4
 683              		.align	2
 684              	.LC5:
ARM GAS  /tmp/cc5UaDAt.s 			page 13


 685 0000 00000000 		.word	__stack_chk_guard
 686              		.section	.text.chPoolLoadArray,"ax",%progbits
 687              		.align	1
 688              		.p2align 4,,15
 689              		.global	chPoolLoadArray
 690              		.syntax unified
 691              		.thumb
 692              		.thumb_func
 693              		.fpu fpv4-sp-d16
 694              		.type	chPoolLoadArray, %function
 695              	chPoolLoadArray:
 696              	.LVL50:
 697              	.LFB220:
 698              		.loc 1 97 60 is_stmt 1 view -0
 699              		.cfi_startproc
 700              		@ args = 0, pretend = 0, frame = 8
 701              		@ frame_needed = 0, uses_anonymous_args = 0
 702              		.loc 1 97 60 is_stmt 0 view .LVU137
 703 0000 70B5     		push	{r4, r5, r6, lr}
 704              		.cfi_def_cfa_offset 16
 705              		.cfi_offset 4, -16
 706              		.cfi_offset 5, -12
 707              		.cfi_offset 6, -8
 708              		.cfi_offset 14, -4
 709 0002 154B     		ldr	r3, .L65
 710 0004 82B0     		sub	sp, sp, #8
 711              		.cfi_def_cfa_offset 24
 712              		.loc 1 97 60 view .LVU138
 713 0006 0D46     		mov	r5, r1
 714 0008 1446     		mov	r4, r2
 715 000a 1B68     		ldr	r3, [r3]
 716 000c 0193     		str	r3, [sp, #4]
 717 000e 4FF00003 		mov	r3,#0
 718              		.loc 1 99 3 is_stmt 1 view .LVU139
 719              		.loc 1 99 3 view .LVU140
 720              		.loc 1 99 3 view .LVU141
 721 0012 0646     		mov	r6, r0
 722 0014 58B1     		cbz	r0, .L55
 723              		.loc 1 99 3 is_stmt 0 discriminator 4 view .LVU142
 724 0016 72B9     		cbnz	r2, .L57
 725              		.loc 1 99 3 is_stmt 1 view .LVU143
 726 0018 0F4B     		ldr	r3, .L65
 727 001a 1A68     		ldr	r2, [r3]
 728 001c 019B     		ldr	r3, [sp, #4]
 729 001e 5A40     		eors	r2, r3, r2
 730              	.LVL51:
 731              		.loc 1 99 3 is_stmt 0 view .LVU144
 732 0020 18D1     		bne	.L64
 733 0022 0E48     		ldr	r0, .L65+4
 734              	.LVL52:
 735              		.loc 1 108 1 view .LVU145
 736 0024 02B0     		add	sp, sp, #8
 737              		.cfi_remember_state
 738              		.cfi_def_cfa_offset 16
 739              		@ sp needed
 740 0026 BDE87040 		pop	{r4, r5, r6, lr}
 741              		.cfi_restore 14
ARM GAS  /tmp/cc5UaDAt.s 			page 14


 742              		.cfi_restore 6
 743              		.cfi_restore 5
 744              		.cfi_restore 4
 745              		.cfi_def_cfa_offset 0
 746              	.LVL53:
 747              		.loc 1 99 3 view .LVU146
 748 002a FFF7FEBF 		b	chSysHalt
 749              	.LVL54:
 750              	.L55:
 751              		.cfi_restore_state
 752              		.loc 1 99 3 is_stmt 1 discriminator 5 view .LVU147
 753 002e 0B48     		ldr	r0, .L65+4
 754              	.LVL55:
 755              		.loc 1 99 3 is_stmt 0 discriminator 5 view .LVU148
 756 0030 FFF7FEFF 		bl	chSysHalt
 757              	.LVL56:
 758              		.loc 1 101 9 is_stmt 1 discriminator 5 view .LVU149
 759 0034 3CB1     		cbz	r4, .L54
 760              	.LVL57:
 761              	.L57:
 762              		.loc 1 102 5 view .LVU150
 763              	.LBB88:
 764              	.LBI88:
 765              		.file 5 ".//ChibiOS//os/rt/include/chmempools.h"
 766              		.loc 5 137 20 view .LVU151
 767              	.LBB89:
 768              		.loc 5 139 3 view .LVU152
 769 0036 2946     		mov	r1, r5
 770 0038 3046     		mov	r0, r6
 771 003a FFF7FEFF 		bl	chPoolFree
 772              	.LVL58:
 773              		.loc 5 139 3 is_stmt 0 view .LVU153
 774              	.LBE89:
 775              	.LBE88:
 776              		.loc 1 104 5 is_stmt 1 view .LVU154
 777              		.loc 1 104 7 is_stmt 0 view .LVU155
 778 003e 7368     		ldr	r3, [r6, #4]
 779              		.loc 1 101 9 view .LVU156
 780 0040 013C     		subs	r4, r4, #1
 781              	.LVL59:
 782              		.loc 1 104 7 view .LVU157
 783 0042 1D44     		add	r5, r5, r3
 784              	.LVL60:
 785              		.loc 1 106 5 is_stmt 1 view .LVU158
 786              		.loc 1 101 9 view .LVU159
 787 0044 F7D1     		bne	.L57
 788              	.L54:
 789              		.loc 1 108 1 is_stmt 0 view .LVU160
 790 0046 044B     		ldr	r3, .L65
 791 0048 1A68     		ldr	r2, [r3]
 792 004a 019B     		ldr	r3, [sp, #4]
 793 004c 5A40     		eors	r2, r3, r2
 794 004e 01D1     		bne	.L64
 795 0050 02B0     		add	sp, sp, #8
 796              		.cfi_remember_state
 797              		.cfi_def_cfa_offset 16
 798              		@ sp needed
ARM GAS  /tmp/cc5UaDAt.s 			page 15


 799 0052 70BD     		pop	{r4, r5, r6, pc}
 800              	.LVL61:
 801              	.L64:
 802              		.cfi_restore_state
 803              		.loc 1 108 1 view .LVU161
 804 0054 FFF7FEFF 		bl	__stack_chk_fail
 805              	.LVL62:
 806              	.L66:
 807              		.align	2
 808              	.L65:
 809 0058 00000000 		.word	.LC5
 810 005c 00000000 		.word	.LANCHOR4
 811              		.cfi_endproc
 812              	.LFE220:
 813              		.size	chPoolLoadArray, .-chPoolLoadArray
 814              		.section	.rodata.__func__.7261,"a"
 815              		.align	2
 816              		.set	.LANCHOR2,. + 0
 817              		.type	__func__.7261, %object
 818              		.size	__func__.7261, 12
 819              	__func__.7261:
 820 0000 63685379 		.ascii	"chSysUnlock\000"
 820      73556E6C 
 820      6F636B00 
 821              		.section	.rodata.__func__.7959,"a"
 822              		.align	2
 823              		.set	.LANCHOR0,. + 0
 824              		.type	__func__.7959, %object
 825              		.size	__func__.7959, 17
 826              	__func__.7959:
 827 0000 6368506F 		.ascii	"chPoolObjectInit\000"
 827      6F6C4F62 
 827      6A656374 
 827      496E6974 
 827      00
 828              		.section	.rodata.__func__.7965,"a"
 829              		.align	2
 830              		.set	.LANCHOR4,. + 0
 831              		.type	__func__.7965, %object
 832              		.size	__func__.7965, 16
 833              	__func__.7965:
 834 0000 6368506F 		.ascii	"chPoolLoadArray\000"
 834      6F6C4C6F 
 834      61644172 
 834      72617900 
 835              		.section	.rodata.__func__.7973,"a"
 836              		.align	2
 837              		.set	.LANCHOR1,. + 0
 838              		.type	__func__.7973, %object
 839              		.size	__func__.7973, 13
 840              	__func__.7973:
 841 0000 6368506F 		.ascii	"chPoolAllocI\000"
 841      6F6C416C 
 841      6C6F6349 
 841      00
 842              		.section	.rodata.__func__.7983,"a"
 843              		.align	2
ARM GAS  /tmp/cc5UaDAt.s 			page 16


 844              		.set	.LANCHOR3,. + 0
 845              		.type	__func__.7983, %object
 846              		.size	__func__.7983, 12
 847              	__func__.7983:
 848 0000 6368506F 		.ascii	"chPoolFreeI\000"
 848      6F6C4672 
 848      65654900 
 849              		.text
 850              	.Letext0:
 851              		.file 6 "/usr/lib/gcc/arm-none-eabi/9.2.1/include/stddef.h"
 852              		.file 7 "/usr/lib/gcc/arm-none-eabi/9.2.1/include/stdint.h"
 853              		.file 8 ".//ChibiOS//os/rt/ports/ARMCMx/compilers/GCC/chtypes.h"
 854              		.file 9 ".//ChibiOS//os/rt/include/chsystypes.h"
 855              		.file 10 ".//ChibiOS//os/rt/include/chschd.h"
 856              		.file 11 ".//ChibiOS//os/ext/CMSIS/include/core_cm4.h"
 857              		.file 12 ".//ChibiOS//os/ext/CMSIS/ST/system_stm32f4xx.h"
 858              		.file 13 ".//ChibiOS//os/rt/ports/ARMCMx/chcore.h"
 859              		.file 14 ".//ChibiOS//os/rt/include/chdebug.h"
 860              		.file 15 ".//ChibiOS//os/rt/include/chtm.h"
 861              		.file 16 ".//ChibiOS//os/rt/include/chstats.h"
 862              		.file 17 ".//ChibiOS//os/rt/include/chsem.h"
 863              		.file 18 ".//ChibiOS//os/rt/include/chmtx.h"
 864              		.file 19 ".//ChibiOS//os/rt/include/chregistry.h"
 865              		.file 20 ".//ChibiOS//os/rt/include/chmemcore.h"
 866              		.section	.debug_info,"",%progbits
 867              	.Ldebug_info0:
 868 0000 47110000 		.4byte	0x1147
 869 0004 0400     		.2byte	0x4
 870 0006 00000000 		.4byte	.Ldebug_abbrev0
 871 000a 04       		.byte	0x4
 872 000b 01       		.uleb128 0x1
 873 000c F2040000 		.4byte	.LASF180
 874 0010 0C       		.byte	0xc
 875 0011 DA010000 		.4byte	.LASF181
 876 0015 FE020000 		.4byte	.LASF182
 877 0019 E8000000 		.4byte	.Ldebug_ranges0+0xe8
 878 001d 00000000 		.4byte	0
 879 0021 00000000 		.4byte	.Ldebug_line0
 880 0025 02       		.uleb128 0x2
 881 0026 04       		.byte	0x4
 882 0027 05       		.byte	0x5
 883 0028 696E7400 		.ascii	"int\000"
 884 002c 03       		.uleb128 0x3
 885 002d 22000000 		.4byte	.LASF5
 886 0031 06       		.byte	0x6
 887 0032 D1       		.byte	0xd1
 888 0033 17       		.byte	0x17
 889 0034 38000000 		.4byte	0x38
 890 0038 04       		.uleb128 0x4
 891 0039 04       		.byte	0x4
 892 003a 07       		.byte	0x7
 893 003b 91020000 		.4byte	.LASF0
 894 003f 04       		.uleb128 0x4
 895 0040 08       		.byte	0x8
 896 0041 05       		.byte	0x5
 897 0042 4E010000 		.4byte	.LASF1
 898 0046 04       		.uleb128 0x4
ARM GAS  /tmp/cc5UaDAt.s 			page 17


 899 0047 08       		.byte	0x8
 900 0048 04       		.byte	0x4
 901 0049 7E040000 		.4byte	.LASF2
 902 004d 04       		.uleb128 0x4
 903 004e 01       		.byte	0x1
 904 004f 06       		.byte	0x6
 905 0050 5C010000 		.4byte	.LASF3
 906 0054 04       		.uleb128 0x4
 907 0055 02       		.byte	0x2
 908 0056 05       		.byte	0x5
 909 0057 C6060000 		.4byte	.LASF4
 910 005b 03       		.uleb128 0x3
 911 005c A6060000 		.4byte	.LASF6
 912 0060 07       		.byte	0x7
 913 0061 28       		.byte	0x28
 914 0062 18       		.byte	0x18
 915 0063 6C000000 		.4byte	0x6c
 916 0067 05       		.uleb128 0x5
 917 0068 5B000000 		.4byte	0x5b
 918 006c 04       		.uleb128 0x4
 919 006d 04       		.byte	0x4
 920 006e 05       		.byte	0x5
 921 006f C2010000 		.4byte	.LASF7
 922 0073 03       		.uleb128 0x3
 923 0074 A2080000 		.4byte	.LASF8
 924 0078 07       		.byte	0x7
 925 0079 2E       		.byte	0x2e
 926 007a 18       		.byte	0x18
 927 007b 7F000000 		.4byte	0x7f
 928 007f 04       		.uleb128 0x4
 929 0080 01       		.byte	0x1
 930 0081 08       		.byte	0x8
 931 0082 AE060000 		.4byte	.LASF9
 932 0086 03       		.uleb128 0x3
 933 0087 A6020000 		.4byte	.LASF10
 934 008b 07       		.byte	0x7
 935 008c 31       		.byte	0x31
 936 008d 19       		.byte	0x19
 937 008e 92000000 		.4byte	0x92
 938 0092 04       		.uleb128 0x4
 939 0093 02       		.byte	0x2
 940 0094 07       		.byte	0x7
 941 0095 4C030000 		.4byte	.LASF11
 942 0099 03       		.uleb128 0x3
 943 009a 89070000 		.4byte	.LASF12
 944 009e 07       		.byte	0x7
 945 009f 34       		.byte	0x34
 946 00a0 19       		.byte	0x19
 947 00a1 A5000000 		.4byte	0xa5
 948 00a5 04       		.uleb128 0x4
 949 00a6 04       		.byte	0x4
 950 00a7 07       		.byte	0x7
 951 00a8 BE070000 		.4byte	.LASF13
 952 00ac 03       		.uleb128 0x3
 953 00ad 37000000 		.4byte	.LASF14
 954 00b1 07       		.byte	0x7
 955 00b2 37       		.byte	0x37
ARM GAS  /tmp/cc5UaDAt.s 			page 18


 956 00b3 19       		.byte	0x19
 957 00b4 B8000000 		.4byte	0xb8
 958 00b8 04       		.uleb128 0x4
 959 00b9 08       		.byte	0x8
 960 00ba 07       		.byte	0x7
 961 00bb A5000000 		.4byte	.LASF15
 962 00bf 03       		.uleb128 0x3
 963 00c0 4F040000 		.4byte	.LASF16
 964 00c4 08       		.byte	0x8
 965 00c5 45       		.byte	0x45
 966 00c6 1D       		.byte	0x1d
 967 00c7 99000000 		.4byte	0x99
 968 00cb 03       		.uleb128 0x3
 969 00cc 31010000 		.4byte	.LASF17
 970 00d0 08       		.byte	0x8
 971 00d1 46       		.byte	0x46
 972 00d2 1D       		.byte	0x1d
 973 00d3 AC000000 		.4byte	0xac
 974 00d7 03       		.uleb128 0x3
 975 00d8 FB060000 		.4byte	.LASF18
 976 00dc 08       		.byte	0x8
 977 00dd 48       		.byte	0x48
 978 00de 1D       		.byte	0x1d
 979 00df 73000000 		.4byte	0x73
 980 00e3 03       		.uleb128 0x3
 981 00e4 CB010000 		.4byte	.LASF19
 982 00e8 08       		.byte	0x8
 983 00e9 49       		.byte	0x49
 984 00ea 1D       		.byte	0x1d
 985 00eb 73000000 		.4byte	0x73
 986 00ef 03       		.uleb128 0x3
 987 00f0 61060000 		.4byte	.LASF20
 988 00f4 08       		.byte	0x8
 989 00f5 4A       		.byte	0x4a
 990 00f6 1D       		.byte	0x1d
 991 00f7 73000000 		.4byte	0x73
 992 00fb 03       		.uleb128 0x3
 993 00fc A8010000 		.4byte	.LASF21
 994 0100 08       		.byte	0x8
 995 0101 4B       		.byte	0x4b
 996 0102 1D       		.byte	0x1d
 997 0103 73000000 		.4byte	0x73
 998 0107 03       		.uleb128 0x3
 999 0108 95060000 		.4byte	.LASF22
 1000 010c 08       		.byte	0x8
 1001 010d 4C       		.byte	0x4c
 1002 010e 1D       		.byte	0x1d
 1003 010f 99000000 		.4byte	0x99
 1004 0113 03       		.uleb128 0x3
 1005 0114 78030000 		.4byte	.LASF23
 1006 0118 08       		.byte	0x8
 1007 0119 4D       		.byte	0x4d
 1008 011a 1D       		.byte	0x1d
 1009 011b 5B000000 		.4byte	0x5b
 1010 011f 03       		.uleb128 0x3
 1011 0120 E7030000 		.4byte	.LASF24
 1012 0124 08       		.byte	0x8
ARM GAS  /tmp/cc5UaDAt.s 			page 19


 1013 0125 4F       		.byte	0x4f
 1014 0126 1D       		.byte	0x1d
 1015 0127 99000000 		.4byte	0x99
 1016 012b 03       		.uleb128 0x3
 1017 012c 80020000 		.4byte	.LASF25
 1018 0130 08       		.byte	0x8
 1019 0131 51       		.byte	0x51
 1020 0132 1D       		.byte	0x1d
 1021 0133 5B000000 		.4byte	0x5b
 1022 0137 03       		.uleb128 0x3
 1023 0138 83030000 		.4byte	.LASF26
 1024 013c 08       		.byte	0x8
 1025 013d 52       		.byte	0x52
 1026 013e 1D       		.byte	0x1d
 1027 013f 99000000 		.4byte	0x99
 1028 0143 03       		.uleb128 0x3
 1029 0144 FD070000 		.4byte	.LASF27
 1030 0148 09       		.byte	0x9
 1031 0149 33       		.byte	0x33
 1032 014a 12       		.byte	0x12
 1033 014b 99000000 		.4byte	0x99
 1034 014f 05       		.uleb128 0x5
 1035 0150 43010000 		.4byte	0x143
 1036 0154 03       		.uleb128 0x3
 1037 0155 E8070000 		.4byte	.LASF28
 1038 0159 09       		.byte	0x9
 1039 015a 3F       		.byte	0x3f
 1040 015b 1A       		.byte	0x1a
 1041 015c 60010000 		.4byte	0x160
 1042 0160 06       		.uleb128 0x6
 1043 0161 6E030000 		.4byte	.LASF52
 1044 0165 68       		.byte	0x68
 1045 0166 0A       		.byte	0xa
 1046 0167 C2       		.byte	0xc2
 1047 0168 08       		.byte	0x8
 1048 0169 95020000 		.4byte	0x295
 1049 016d 07       		.uleb128 0x7
 1050 016e F4060000 		.4byte	.LASF29
 1051 0172 0A       		.byte	0xa
 1052 0173 C3       		.byte	0xc3
 1053 0174 1A       		.byte	0x1a
 1054 0175 A1020000 		.4byte	0x2a1
 1055 0179 00       		.byte	0
 1056 017a 07       		.uleb128 0x7
 1057 017b 8E060000 		.4byte	.LASF30
 1058 017f 0A       		.byte	0xa
 1059 0180 C5       		.byte	0xc5
 1060 0181 1A       		.byte	0x1a
 1061 0182 A1020000 		.4byte	0x2a1
 1062 0186 04       		.byte	0x4
 1063 0187 07       		.uleb128 0x7
 1064 0188 3A010000 		.4byte	.LASF31
 1065 018c 0A       		.byte	0xa
 1066 018d C7       		.byte	0xc7
 1067 018e 19       		.byte	0x19
 1068 018f 07010000 		.4byte	0x107
 1069 0193 08       		.byte	0x8
ARM GAS  /tmp/cc5UaDAt.s 			page 20


 1070 0194 07       		.uleb128 0x7
 1071 0195 CC040000 		.4byte	.LASF32
 1072 0199 0A       		.byte	0xa
 1073 019a C8       		.byte	0xc8
 1074 019b 19       		.byte	0x19
 1075 019c 4A050000 		.4byte	0x54a
 1076 01a0 0C       		.byte	0xc
 1077 01a1 07       		.uleb128 0x7
 1078 01a2 FD010000 		.4byte	.LASF33
 1079 01a6 0A       		.byte	0xa
 1080 01a7 CA       		.byte	0xca
 1081 01a8 1A       		.byte	0x1a
 1082 01a9 A1020000 		.4byte	0x2a1
 1083 01ad 10       		.byte	0x10
 1084 01ae 07       		.uleb128 0x7
 1085 01af BE040000 		.4byte	.LASF34
 1086 01b3 0A       		.byte	0xa
 1087 01b4 CB       		.byte	0xcb
 1088 01b5 1A       		.byte	0x1a
 1089 01b6 A1020000 		.4byte	0x2a1
 1090 01ba 14       		.byte	0x14
 1091 01bb 07       		.uleb128 0x7
 1092 01bc F5080000 		.4byte	.LASF35
 1093 01c0 0A       		.byte	0xa
 1094 01c1 D2       		.byte	0xd2
 1095 01c2 1A       		.byte	0x1a
 1096 01c3 07090000 		.4byte	0x907
 1097 01c7 18       		.byte	0x18
 1098 01c8 07       		.uleb128 0x7
 1099 01c9 86020000 		.4byte	.LASF36
 1100 01cd 0A       		.byte	0xa
 1101 01ce D8       		.byte	0xd8
 1102 01cf 1A       		.byte	0x1a
 1103 01d0 1E090000 		.4byte	0x91e
 1104 01d4 1C       		.byte	0x1c
 1105 01d5 07       		.uleb128 0x7
 1106 01d6 D0060000 		.4byte	.LASF37
 1107 01da 0A       		.byte	0xa
 1108 01db DD       		.byte	0xdd
 1109 01dc 19       		.byte	0x19
 1110 01dd E3000000 		.4byte	0xe3
 1111 01e1 20       		.byte	0x20
 1112 01e2 07       		.uleb128 0x7
 1113 01e3 19090000 		.4byte	.LASF38
 1114 01e7 0A       		.byte	0xa
 1115 01e8 E1       		.byte	0xe1
 1116 01e9 19       		.byte	0x19
 1117 01ea D7000000 		.4byte	0xd7
 1118 01ee 21       		.byte	0x21
 1119 01ef 07       		.uleb128 0x7
 1120 01f0 84080000 		.4byte	.LASF39
 1121 01f4 0A       		.byte	0xa
 1122 01f5 E6       		.byte	0xe6
 1123 01f6 19       		.byte	0x19
 1124 01f7 EF000000 		.4byte	0xef
 1125 01fb 22       		.byte	0x22
 1126 01fc 07       		.uleb128 0x7
ARM GAS  /tmp/cc5UaDAt.s 			page 21


 1127 01fd D8060000 		.4byte	.LASF40
 1128 0201 0A       		.byte	0xa
 1129 0202 EC       		.byte	0xec
 1130 0203 19       		.byte	0x19
 1131 0204 FB000000 		.4byte	0xfb
 1132 0208 23       		.byte	0x23
 1133 0209 07       		.uleb128 0x7
 1134 020a BF020000 		.4byte	.LASF41
 1135 020e 0A       		.byte	0xa
 1136 020f F3       		.byte	0xf3
 1137 0210 19       		.byte	0x19
 1138 0211 4F010000 		.4byte	0x14f
 1139 0215 24       		.byte	0x24
 1140 0216 08       		.uleb128 0x8
 1141 0217 705F7500 		.ascii	"p_u\000"
 1142 021b 0A       		.byte	0xa
 1143 021c 3101     		.2byte	0x131
 1144 021e 19       		.byte	0x19
 1145 021f 26080000 		.4byte	0x826
 1146 0223 28       		.byte	0x28
 1147 0224 09       		.uleb128 0x9
 1148 0225 28040000 		.4byte	.LASF42
 1149 0229 0A       		.byte	0xa
 1150 022a 3601     		.2byte	0x136
 1151 022c 19       		.byte	0x19
 1152 022d A7020000 		.4byte	0x2a7
 1153 0231 2C       		.byte	0x2c
 1154 0232 09       		.uleb128 0x9
 1155 0233 D6020000 		.4byte	.LASF43
 1156 0237 0A       		.byte	0xa
 1157 0238 3C01     		.2byte	0x13c
 1158 023a 19       		.byte	0x19
 1159 023b CE020000 		.4byte	0x2ce
 1160 023f 30       		.byte	0x30
 1161 0240 09       		.uleb128 0x9
 1162 0241 53080000 		.4byte	.LASF44
 1163 0245 0A       		.byte	0xa
 1164 0246 4001     		.2byte	0x140
 1165 0248 19       		.byte	0x19
 1166 0249 13010000 		.4byte	0x113
 1167 024d 38       		.byte	0x38
 1168 024e 09       		.uleb128 0x9
 1169 024f 7E070000 		.4byte	.LASF45
 1170 0253 0A       		.byte	0xa
 1171 0254 4601     		.2byte	0x146
 1172 0256 19       		.byte	0x19
 1173 0257 1F010000 		.4byte	0x11f
 1174 025b 3C       		.byte	0x3c
 1175 025c 09       		.uleb128 0x9
 1176 025d BC060000 		.4byte	.LASF46
 1177 0261 0A       		.byte	0xa
 1178 0262 4D01     		.2byte	0x14d
 1179 0264 1A       		.byte	0x1a
 1180 0265 01090000 		.4byte	0x901
 1181 0269 40       		.byte	0x40
 1182 026a 09       		.uleb128 0x9
 1183 026b 07080000 		.4byte	.LASF47
ARM GAS  /tmp/cc5UaDAt.s 			page 22


 1184 026f 0A       		.byte	0xa
 1185 0270 5101     		.2byte	0x151
 1186 0272 19       		.byte	0x19
 1187 0273 07010000 		.4byte	0x107
 1188 0277 44       		.byte	0x44
 1189 0278 09       		.uleb128 0x9
 1190 0279 85010000 		.4byte	.LASF48
 1191 027d 0A       		.byte	0xa
 1192 027e 5801     		.2byte	0x158
 1193 0280 1A       		.byte	0x1a
 1194 0281 8E030000 		.4byte	0x38e
 1195 0285 48       		.byte	0x48
 1196 0286 09       		.uleb128 0x9
 1197 0287 1B070000 		.4byte	.LASF49
 1198 028b 0A       		.byte	0xa
 1199 028c 5E01     		.2byte	0x15e
 1200 028e 19       		.byte	0x19
 1201 028f D0070000 		.4byte	0x7d0
 1202 0293 50       		.byte	0x50
 1203 0294 00       		.byte	0
 1204 0295 03       		.uleb128 0x3
 1205 0296 D3080000 		.4byte	.LASF50
 1206 029a 09       		.byte	0x9
 1207 029b 44       		.byte	0x44
 1208 029c 14       		.byte	0x14
 1209 029d A1020000 		.4byte	0x2a1
 1210 02a1 0A       		.uleb128 0xa
 1211 02a2 04       		.byte	0x4
 1212 02a3 54010000 		.4byte	0x154
 1213 02a7 03       		.uleb128 0x3
 1214 02a8 FE030000 		.4byte	.LASF51
 1215 02ac 09       		.byte	0x9
 1216 02ad 49       		.byte	0x49
 1217 02ae 20       		.byte	0x20
 1218 02af B3020000 		.4byte	0x2b3
 1219 02b3 06       		.uleb128 0x6
 1220 02b4 A6070000 		.4byte	.LASF53
 1221 02b8 04       		.byte	0x4
 1222 02b9 0A       		.byte	0xa
 1223 02ba B0       		.byte	0xb0
 1224 02bb 08       		.byte	0x8
 1225 02bc CE020000 		.4byte	0x2ce
 1226 02c0 07       		.uleb128 0x7
 1227 02c1 F4060000 		.4byte	.LASF29
 1228 02c5 0A       		.byte	0xa
 1229 02c6 B1       		.byte	0xb1
 1230 02c7 1A       		.byte	0x1a
 1231 02c8 A1020000 		.4byte	0x2a1
 1232 02cc 00       		.byte	0
 1233 02cd 00       		.byte	0
 1234 02ce 03       		.uleb128 0x3
 1235 02cf 32070000 		.4byte	.LASF54
 1236 02d3 09       		.byte	0x9
 1237 02d4 50       		.byte	0x50
 1238 02d5 21       		.byte	0x21
 1239 02d6 DA020000 		.4byte	0x2da
 1240 02da 06       		.uleb128 0x6
ARM GAS  /tmp/cc5UaDAt.s 			page 23


 1241 02db 59000000 		.4byte	.LASF55
 1242 02df 08       		.byte	0x8
 1243 02e0 0A       		.byte	0xa
 1244 02e1 B7       		.byte	0xb7
 1245 02e2 08       		.byte	0x8
 1246 02e3 02030000 		.4byte	0x302
 1247 02e7 07       		.uleb128 0x7
 1248 02e8 F4060000 		.4byte	.LASF29
 1249 02ec 0A       		.byte	0xa
 1250 02ed B8       		.byte	0xb8
 1251 02ee 1A       		.byte	0x1a
 1252 02ef A1020000 		.4byte	0x2a1
 1253 02f3 00       		.byte	0
 1254 02f4 07       		.uleb128 0x7
 1255 02f5 8E060000 		.4byte	.LASF30
 1256 02f9 0A       		.byte	0xa
 1257 02fa B9       		.byte	0xb9
 1258 02fb 1A       		.byte	0x1a
 1259 02fc A1020000 		.4byte	0x2a1
 1260 0300 04       		.byte	0x4
 1261 0301 00       		.byte	0
 1262 0302 03       		.uleb128 0x3
 1263 0303 0D000000 		.4byte	.LASF56
 1264 0307 09       		.byte	0x9
 1265 0308 57       		.byte	0x57
 1266 0309 1E       		.byte	0x1e
 1267 030a 0E030000 		.4byte	0x30e
 1268 030e 0B       		.uleb128 0xb
 1269 030f D9030000 		.4byte	.LASF57
 1270 0313 1C       		.byte	0x1c
 1271 0314 0A       		.byte	0xa
 1272 0315 9001     		.2byte	0x190
 1273 0317 08       		.byte	0x8
 1274 0318 71030000 		.4byte	0x371
 1275 031c 09       		.uleb128 0x9
 1276 031d 9E070000 		.4byte	.LASF58
 1277 0321 0A       		.byte	0xa
 1278 0322 9101     		.2byte	0x191
 1279 0324 19       		.byte	0x19
 1280 0325 CE020000 		.4byte	0x2ce
 1281 0329 00       		.byte	0
 1282 032a 09       		.uleb128 0x9
 1283 032b 21040000 		.4byte	.LASF59
 1284 032f 0A       		.byte	0xa
 1285 0330 9201     		.2byte	0x192
 1286 0332 19       		.byte	0x19
 1287 0333 07010000 		.4byte	0x107
 1288 0337 08       		.byte	0x8
 1289 0338 09       		.uleb128 0x9
 1290 0339 C6040000 		.4byte	.LASF60
 1291 033d 0A       		.byte	0xa
 1292 033e 9401     		.2byte	0x194
 1293 0340 19       		.byte	0x19
 1294 0341 4A050000 		.4byte	0x54a
 1295 0345 0C       		.byte	0xc
 1296 0346 09       		.uleb128 0x9
 1297 0347 15020000 		.4byte	.LASF61
ARM GAS  /tmp/cc5UaDAt.s 			page 24


 1298 034b 0A       		.byte	0xa
 1299 034c 9701     		.2byte	0x197
 1300 034e 1A       		.byte	0x1a
 1301 034f A1020000 		.4byte	0x2a1
 1302 0353 10       		.byte	0x10
 1303 0354 09       		.uleb128 0x9
 1304 0355 4E060000 		.4byte	.LASF62
 1305 0359 0A       		.byte	0xa
 1306 035a 9801     		.2byte	0x198
 1307 035c 1A       		.byte	0x1a
 1308 035d A1020000 		.4byte	0x2a1
 1309 0361 14       		.byte	0x14
 1310 0362 09       		.uleb128 0x9
 1311 0363 44060000 		.4byte	.LASF63
 1312 0367 0A       		.byte	0xa
 1313 0368 9B01     		.2byte	0x19b
 1314 036a 1A       		.byte	0x1a
 1315 036b A1020000 		.4byte	0x2a1
 1316 036f 18       		.byte	0x18
 1317 0370 00       		.byte	0
 1318 0371 03       		.uleb128 0x3
 1319 0372 12080000 		.4byte	.LASF64
 1320 0376 09       		.byte	0x9
 1321 0377 5C       		.byte	0x5c
 1322 0378 10       		.byte	0x10
 1323 0379 7D030000 		.4byte	0x37d
 1324 037d 0A       		.uleb128 0xa
 1325 037e 04       		.byte	0x4
 1326 037f 83030000 		.4byte	0x383
 1327 0383 0C       		.uleb128 0xc
 1328 0384 8E030000 		.4byte	0x38e
 1329 0388 0D       		.uleb128 0xd
 1330 0389 8E030000 		.4byte	0x38e
 1331 038d 00       		.byte	0
 1332 038e 0E       		.uleb128 0xe
 1333 038f 04       		.byte	0x4
 1334 0390 03       		.uleb128 0x3
 1335 0391 7E060000 		.4byte	.LASF65
 1336 0395 09       		.byte	0x9
 1337 0396 61       		.byte	0x61
 1338 0397 21       		.byte	0x21
 1339 0398 9C030000 		.4byte	0x39c
 1340 039c 0B       		.uleb128 0xb
 1341 039d 42070000 		.4byte	.LASF66
 1342 03a1 14       		.byte	0x14
 1343 03a2 0A       		.byte	0xa
 1344 03a3 6B01     		.2byte	0x16b
 1345 03a5 08       		.byte	0x8
 1346 03a6 F1030000 		.4byte	0x3f1
 1347 03aa 09       		.uleb128 0x9
 1348 03ab 9E020000 		.4byte	.LASF67
 1349 03af 0A       		.byte	0xa
 1350 03b0 6C01     		.2byte	0x16c
 1351 03b2 1A       		.byte	0x1a
 1352 03b3 24090000 		.4byte	0x924
 1353 03b7 00       		.byte	0
 1354 03b8 09       		.uleb128 0x9
ARM GAS  /tmp/cc5UaDAt.s 			page 25


 1355 03b9 32020000 		.4byte	.LASF68
 1356 03bd 0A       		.byte	0xa
 1357 03be 6D01     		.2byte	0x16d
 1358 03c0 1A       		.byte	0x1a
 1359 03c1 24090000 		.4byte	0x924
 1360 03c5 04       		.byte	0x4
 1361 03c6 09       		.uleb128 0x9
 1362 03c7 CD020000 		.4byte	.LASF69
 1363 03cb 0A       		.byte	0xa
 1364 03cc 6E01     		.2byte	0x16e
 1365 03ce 19       		.byte	0x19
 1366 03cf 43010000 		.4byte	0x143
 1367 03d3 08       		.byte	0x8
 1368 03d4 09       		.uleb128 0x9
 1369 03d5 72090000 		.4byte	.LASF70
 1370 03d9 0A       		.byte	0xa
 1371 03da 6F01     		.2byte	0x16f
 1372 03dc 19       		.byte	0x19
 1373 03dd 71030000 		.4byte	0x371
 1374 03e1 0C       		.byte	0xc
 1375 03e2 09       		.uleb128 0x9
 1376 03e3 66080000 		.4byte	.LASF71
 1377 03e7 0A       		.byte	0xa
 1378 03e8 7101     		.2byte	0x171
 1379 03ea 1A       		.byte	0x1a
 1380 03eb 8E030000 		.4byte	0x38e
 1381 03ef 10       		.byte	0x10
 1382 03f0 00       		.byte	0
 1383 03f1 03       		.uleb128 0x3
 1384 03f2 0E010000 		.4byte	.LASF72
 1385 03f6 09       		.byte	0x9
 1386 03f7 66       		.byte	0x66
 1387 03f8 28       		.byte	0x28
 1388 03f9 FD030000 		.4byte	0x3fd
 1389 03fd 0B       		.uleb128 0xb
 1390 03fe 67040000 		.4byte	.LASF73
 1391 0402 10       		.byte	0x10
 1392 0403 0A       		.byte	0xa
 1393 0404 7B01     		.2byte	0x17b
 1394 0406 08       		.byte	0x8
 1395 0407 44040000 		.4byte	0x444
 1396 040b 09       		.uleb128 0x9
 1397 040c 9E020000 		.4byte	.LASF67
 1398 0410 0A       		.byte	0xa
 1399 0411 7C01     		.2byte	0x17c
 1400 0413 1A       		.byte	0x1a
 1401 0414 24090000 		.4byte	0x924
 1402 0418 00       		.byte	0
 1403 0419 09       		.uleb128 0x9
 1404 041a 32020000 		.4byte	.LASF68
 1405 041e 0A       		.byte	0xa
 1406 041f 7E01     		.2byte	0x17e
 1407 0421 1A       		.byte	0x1a
 1408 0422 24090000 		.4byte	0x924
 1409 0426 04       		.byte	0x4
 1410 0427 09       		.uleb128 0x9
 1411 0428 CD020000 		.4byte	.LASF69
ARM GAS  /tmp/cc5UaDAt.s 			page 26


 1412 042c 0A       		.byte	0xa
 1413 042d 8001     		.2byte	0x180
 1414 042f 19       		.byte	0x19
 1415 0430 43010000 		.4byte	0x143
 1416 0434 08       		.byte	0x8
 1417 0435 09       		.uleb128 0x9
 1418 0436 01090000 		.4byte	.LASF74
 1419 043a 0A       		.byte	0xa
 1420 043b 8201     		.2byte	0x182
 1421 043d 19       		.byte	0x19
 1422 043e 4F010000 		.4byte	0x14f
 1423 0442 0C       		.byte	0xc
 1424 0443 00       		.byte	0
 1425 0444 03       		.uleb128 0x3
 1426 0445 6A000000 		.4byte	.LASF75
 1427 0449 09       		.byte	0x9
 1428 044a 6B       		.byte	0x6b
 1429 044b 20       		.byte	0x20
 1430 044c 50040000 		.4byte	0x450
 1431 0450 0F       		.uleb128 0xf
 1432 0451 44020000 		.4byte	.LASF76
 1433 0455 1404     		.2byte	0x414
 1434 0457 0A       		.byte	0xa
 1435 0458 A201     		.2byte	0x1a2
 1436 045a 08       		.byte	0x8
 1437 045b 98040000 		.4byte	0x498
 1438 045f 09       		.uleb128 0x9
 1439 0460 29080000 		.4byte	.LASF77
 1440 0464 0A       		.byte	0xa
 1441 0465 AA01     		.2byte	0x1aa
 1442 0467 24       		.byte	0x24
 1443 0468 0D090000 		.4byte	0x90d
 1444 046c 00       		.byte	0
 1445 046d 09       		.uleb128 0x9
 1446 046e 8B080000 		.4byte	.LASF78
 1447 0472 0A       		.byte	0xa
 1448 0473 AF01     		.2byte	0x1af
 1449 0475 19       		.byte	0x19
 1450 0476 2B010000 		.4byte	0x12b
 1451 047a 04       		.byte	0x4
 1452 047b 09       		.uleb128 0x9
 1453 047c 68020000 		.4byte	.LASF79
 1454 0480 0A       		.byte	0xa
 1455 0481 B301     		.2byte	0x1b3
 1456 0483 19       		.byte	0x19
 1457 0484 2B010000 		.4byte	0x12b
 1458 0488 08       		.byte	0x8
 1459 0489 09       		.uleb128 0x9
 1460 048a 0C090000 		.4byte	.LASF80
 1461 048e 0A       		.byte	0xa
 1462 048f B901     		.2byte	0x1b9
 1463 0491 19       		.byte	0x19
 1464 0492 58070000 		.4byte	0x758
 1465 0496 0C       		.byte	0xc
 1466 0497 00       		.byte	0
 1467 0498 03       		.uleb128 0x3
 1468 0499 9B030000 		.4byte	.LASF81
ARM GAS  /tmp/cc5UaDAt.s 			page 27


 1469 049d 09       		.byte	0x9
 1470 049e 70       		.byte	0x70
 1471 049f 1A       		.byte	0x1a
 1472 04a0 A4040000 		.4byte	0x4a4
 1473 04a4 0F       		.uleb128 0xf
 1474 04a5 B8010000 		.4byte	.LASF82
 1475 04a9 7006     		.2byte	0x670
 1476 04ab 0A       		.byte	0xa
 1477 04ac C201     		.2byte	0x1c2
 1478 04ae 08       		.byte	0x8
 1479 04af 19050000 		.4byte	0x519
 1480 04b3 09       		.uleb128 0x9
 1481 04b4 9C080000 		.4byte	.LASF83
 1482 04b8 0A       		.byte	0xa
 1483 04b9 C601     		.2byte	0x1c6
 1484 04bb 19       		.byte	0x19
 1485 04bc 02030000 		.4byte	0x302
 1486 04c0 00       		.byte	0
 1487 04c1 09       		.uleb128 0x9
 1488 04c2 95010000 		.4byte	.LASF84
 1489 04c6 0A       		.byte	0xa
 1490 04c7 CA01     		.2byte	0x1ca
 1491 04c9 19       		.byte	0x19
 1492 04ca F1030000 		.4byte	0x3f1
 1493 04ce 1C       		.byte	0x1c
 1494 04cf 08       		.uleb128 0x8
 1495 04d0 64626700 		.ascii	"dbg\000"
 1496 04d4 0A       		.byte	0xa
 1497 04d5 CE01     		.2byte	0x1ce
 1498 04d7 19       		.byte	0x19
 1499 04d8 44040000 		.4byte	0x444
 1500 04dc 2C       		.byte	0x2c
 1501 04dd 10       		.uleb128 0x10
 1502 04de E5000000 		.4byte	.LASF85
 1503 04e2 0A       		.byte	0xa
 1504 04e3 D201     		.2byte	0x1d2
 1505 04e5 19       		.byte	0x19
 1506 04e6 54010000 		.4byte	0x154
 1507 04ea 4004     		.2byte	0x440
 1508 04ec 11       		.uleb128 0x11
 1509 04ed 746D00   		.ascii	"tm\000"
 1510 04f0 0A       		.byte	0xa
 1511 04f1 D701     		.2byte	0x1d7
 1512 04f3 19       		.byte	0x19
 1513 04f4 7B070000 		.4byte	0x77b
 1514 04f8 A804     		.2byte	0x4a8
 1515 04fa 10       		.uleb128 0x10
 1516 04fb 40000000 		.4byte	.LASF86
 1517 04ff 0A       		.byte	0xa
 1518 0500 DD01     		.2byte	0x1dd
 1519 0502 19       		.byte	0x19
 1520 0503 1A080000 		.4byte	0x81a
 1521 0507 B004     		.2byte	0x4b0
 1522 0509 10       		.uleb128 0x10
 1523 050a 71020000 		.4byte	.LASF87
 1524 050e 0A       		.byte	0xa
 1525 050f E301     		.2byte	0x1e3
ARM GAS  /tmp/cc5UaDAt.s 			page 28


 1526 0511 03       		.byte	0x3
 1527 0512 2A090000 		.4byte	0x92a
 1528 0516 E804     		.2byte	0x4e8
 1529 0518 00       		.byte	0
 1530 0519 12       		.uleb128 0x12
 1531 051a 24010000 		.4byte	.LASF88
 1532 051e 0B       		.byte	0xb
 1533 051f A706     		.2byte	0x6a7
 1534 0521 19       		.byte	0x19
 1535 0522 67000000 		.4byte	0x67
 1536 0526 13       		.uleb128 0x13
 1537 0527 AF020000 		.4byte	.LASF89
 1538 052b 0C       		.byte	0xc
 1539 052c 4C       		.byte	0x4c
 1540 052d 11       		.byte	0x11
 1541 052e 99000000 		.4byte	0x99
 1542 0532 03       		.uleb128 0x3
 1543 0533 29020000 		.4byte	.LASF90
 1544 0537 0D       		.byte	0xd
 1545 0538 65       		.byte	0x65
 1546 0539 0F       		.byte	0xf
 1547 053a 8E030000 		.4byte	0x38e
 1548 053e 03       		.uleb128 0x3
 1549 053f F3030000 		.4byte	.LASF91
 1550 0543 0D       		.byte	0xd
 1551 0544 6D       		.byte	0x6d
 1552 0545 12       		.byte	0x12
 1553 0546 AC000000 		.4byte	0xac
 1554 054a 06       		.uleb128 0x6
 1555 054b 4B080000 		.4byte	.LASF92
 1556 054f 04       		.byte	0x4
 1557 0550 0D       		.byte	0xd
 1558 0551 89       		.byte	0x89
 1559 0552 08       		.byte	0x8
 1560 0553 65050000 		.4byte	0x565
 1561 0557 14       		.uleb128 0x14
 1562 0558 72313300 		.ascii	"r13\000"
 1563 055c 0D       		.byte	0xd
 1564 055d 8A       		.byte	0x8a
 1565 055e 17       		.byte	0x17
 1566 055f C0060000 		.4byte	0x6c0
 1567 0563 00       		.byte	0
 1568 0564 00       		.byte	0
 1569 0565 06       		.uleb128 0x6
 1570 0566 4D000000 		.4byte	.LASF93
 1571 056a 64       		.byte	0x64
 1572 056b 03       		.byte	0x3
 1573 056c F4       		.byte	0xf4
 1574 056d 08       		.byte	0x8
 1575 056e C0060000 		.4byte	0x6c0
 1576 0572 14       		.uleb128 0x14
 1577 0573 73313600 		.ascii	"s16\000"
 1578 0577 03       		.byte	0x3
 1579 0578 F6       		.byte	0xf6
 1580 0579 11       		.byte	0x11
 1581 057a 32050000 		.4byte	0x532
 1582 057e 00       		.byte	0
ARM GAS  /tmp/cc5UaDAt.s 			page 29


 1583 057f 14       		.uleb128 0x14
 1584 0580 73313700 		.ascii	"s17\000"
 1585 0584 03       		.byte	0x3
 1586 0585 F7       		.byte	0xf7
 1587 0586 11       		.byte	0x11
 1588 0587 32050000 		.4byte	0x532
 1589 058b 04       		.byte	0x4
 1590 058c 14       		.uleb128 0x14
 1591 058d 73313800 		.ascii	"s18\000"
 1592 0591 03       		.byte	0x3
 1593 0592 F8       		.byte	0xf8
 1594 0593 11       		.byte	0x11
 1595 0594 32050000 		.4byte	0x532
 1596 0598 08       		.byte	0x8
 1597 0599 14       		.uleb128 0x14
 1598 059a 73313900 		.ascii	"s19\000"
 1599 059e 03       		.byte	0x3
 1600 059f F9       		.byte	0xf9
 1601 05a0 11       		.byte	0x11
 1602 05a1 32050000 		.4byte	0x532
 1603 05a5 0C       		.byte	0xc
 1604 05a6 14       		.uleb128 0x14
 1605 05a7 73323000 		.ascii	"s20\000"
 1606 05ab 03       		.byte	0x3
 1607 05ac FA       		.byte	0xfa
 1608 05ad 11       		.byte	0x11
 1609 05ae 32050000 		.4byte	0x532
 1610 05b2 10       		.byte	0x10
 1611 05b3 14       		.uleb128 0x14
 1612 05b4 73323100 		.ascii	"s21\000"
 1613 05b8 03       		.byte	0x3
 1614 05b9 FB       		.byte	0xfb
 1615 05ba 11       		.byte	0x11
 1616 05bb 32050000 		.4byte	0x532
 1617 05bf 14       		.byte	0x14
 1618 05c0 14       		.uleb128 0x14
 1619 05c1 73323200 		.ascii	"s22\000"
 1620 05c5 03       		.byte	0x3
 1621 05c6 FC       		.byte	0xfc
 1622 05c7 11       		.byte	0x11
 1623 05c8 32050000 		.4byte	0x532
 1624 05cc 18       		.byte	0x18
 1625 05cd 14       		.uleb128 0x14
 1626 05ce 73323300 		.ascii	"s23\000"
 1627 05d2 03       		.byte	0x3
 1628 05d3 FD       		.byte	0xfd
 1629 05d4 11       		.byte	0x11
 1630 05d5 32050000 		.4byte	0x532
 1631 05d9 1C       		.byte	0x1c
 1632 05da 14       		.uleb128 0x14
 1633 05db 73323400 		.ascii	"s24\000"
 1634 05df 03       		.byte	0x3
 1635 05e0 FE       		.byte	0xfe
 1636 05e1 11       		.byte	0x11
 1637 05e2 32050000 		.4byte	0x532
 1638 05e6 20       		.byte	0x20
 1639 05e7 14       		.uleb128 0x14
ARM GAS  /tmp/cc5UaDAt.s 			page 30


 1640 05e8 73323500 		.ascii	"s25\000"
 1641 05ec 03       		.byte	0x3
 1642 05ed FF       		.byte	0xff
 1643 05ee 11       		.byte	0x11
 1644 05ef 32050000 		.4byte	0x532
 1645 05f3 24       		.byte	0x24
 1646 05f4 08       		.uleb128 0x8
 1647 05f5 73323600 		.ascii	"s26\000"
 1648 05f9 03       		.byte	0x3
 1649 05fa 0001     		.2byte	0x100
 1650 05fc 11       		.byte	0x11
 1651 05fd 32050000 		.4byte	0x532
 1652 0601 28       		.byte	0x28
 1653 0602 08       		.uleb128 0x8
 1654 0603 73323700 		.ascii	"s27\000"
 1655 0607 03       		.byte	0x3
 1656 0608 0101     		.2byte	0x101
 1657 060a 11       		.byte	0x11
 1658 060b 32050000 		.4byte	0x532
 1659 060f 2C       		.byte	0x2c
 1660 0610 08       		.uleb128 0x8
 1661 0611 73323800 		.ascii	"s28\000"
 1662 0615 03       		.byte	0x3
 1663 0616 0201     		.2byte	0x102
 1664 0618 11       		.byte	0x11
 1665 0619 32050000 		.4byte	0x532
 1666 061d 30       		.byte	0x30
 1667 061e 08       		.uleb128 0x8
 1668 061f 73323900 		.ascii	"s29\000"
 1669 0623 03       		.byte	0x3
 1670 0624 0301     		.2byte	0x103
 1671 0626 11       		.byte	0x11
 1672 0627 32050000 		.4byte	0x532
 1673 062b 34       		.byte	0x34
 1674 062c 08       		.uleb128 0x8
 1675 062d 73333000 		.ascii	"s30\000"
 1676 0631 03       		.byte	0x3
 1677 0632 0401     		.2byte	0x104
 1678 0634 11       		.byte	0x11
 1679 0635 32050000 		.4byte	0x532
 1680 0639 38       		.byte	0x38
 1681 063a 08       		.uleb128 0x8
 1682 063b 73333100 		.ascii	"s31\000"
 1683 063f 03       		.byte	0x3
 1684 0640 0501     		.2byte	0x105
 1685 0642 11       		.byte	0x11
 1686 0643 32050000 		.4byte	0x532
 1687 0647 3C       		.byte	0x3c
 1688 0648 08       		.uleb128 0x8
 1689 0649 723400   		.ascii	"r4\000"
 1690 064c 03       		.byte	0x3
 1691 064d 0701     		.2byte	0x107
 1692 064f 11       		.byte	0x11
 1693 0650 32050000 		.4byte	0x532
 1694 0654 40       		.byte	0x40
 1695 0655 08       		.uleb128 0x8
 1696 0656 723500   		.ascii	"r5\000"
ARM GAS  /tmp/cc5UaDAt.s 			page 31


 1697 0659 03       		.byte	0x3
 1698 065a 0801     		.2byte	0x108
 1699 065c 11       		.byte	0x11
 1700 065d 32050000 		.4byte	0x532
 1701 0661 44       		.byte	0x44
 1702 0662 08       		.uleb128 0x8
 1703 0663 723600   		.ascii	"r6\000"
 1704 0666 03       		.byte	0x3
 1705 0667 0901     		.2byte	0x109
 1706 0669 11       		.byte	0x11
 1707 066a 32050000 		.4byte	0x532
 1708 066e 48       		.byte	0x48
 1709 066f 08       		.uleb128 0x8
 1710 0670 723700   		.ascii	"r7\000"
 1711 0673 03       		.byte	0x3
 1712 0674 0A01     		.2byte	0x10a
 1713 0676 11       		.byte	0x11
 1714 0677 32050000 		.4byte	0x532
 1715 067b 4C       		.byte	0x4c
 1716 067c 08       		.uleb128 0x8
 1717 067d 723800   		.ascii	"r8\000"
 1718 0680 03       		.byte	0x3
 1719 0681 0B01     		.2byte	0x10b
 1720 0683 11       		.byte	0x11
 1721 0684 32050000 		.4byte	0x532
 1722 0688 50       		.byte	0x50
 1723 0689 08       		.uleb128 0x8
 1724 068a 723900   		.ascii	"r9\000"
 1725 068d 03       		.byte	0x3
 1726 068e 0C01     		.2byte	0x10c
 1727 0690 11       		.byte	0x11
 1728 0691 32050000 		.4byte	0x532
 1729 0695 54       		.byte	0x54
 1730 0696 08       		.uleb128 0x8
 1731 0697 72313000 		.ascii	"r10\000"
 1732 069b 03       		.byte	0x3
 1733 069c 0D01     		.2byte	0x10d
 1734 069e 11       		.byte	0x11
 1735 069f 32050000 		.4byte	0x532
 1736 06a3 58       		.byte	0x58
 1737 06a4 08       		.uleb128 0x8
 1738 06a5 72313100 		.ascii	"r11\000"
 1739 06a9 03       		.byte	0x3
 1740 06aa 0E01     		.2byte	0x10e
 1741 06ac 11       		.byte	0x11
 1742 06ad 32050000 		.4byte	0x532
 1743 06b1 5C       		.byte	0x5c
 1744 06b2 08       		.uleb128 0x8
 1745 06b3 6C7200   		.ascii	"lr\000"
 1746 06b6 03       		.byte	0x3
 1747 06b7 0F01     		.2byte	0x10f
 1748 06b9 11       		.byte	0x11
 1749 06ba 32050000 		.4byte	0x532
 1750 06be 60       		.byte	0x60
 1751 06bf 00       		.byte	0
 1752 06c0 0A       		.uleb128 0xa
 1753 06c1 04       		.byte	0x4
ARM GAS  /tmp/cc5UaDAt.s 			page 32


 1754 06c2 65050000 		.4byte	0x565
 1755 06c6 15       		.uleb128 0x15
 1756 06c7 10       		.byte	0x10
 1757 06c8 0E       		.byte	0xe
 1758 06c9 51       		.byte	0x51
 1759 06ca 09       		.byte	0x9
 1760 06cb 04070000 		.4byte	0x704
 1761 06cf 07       		.uleb128 0x7
 1762 06d0 1A000000 		.4byte	.LASF94
 1763 06d4 0E       		.byte	0xe
 1764 06d5 55       		.byte	0x55
 1765 06d6 19       		.byte	0x19
 1766 06d7 43010000 		.4byte	0x143
 1767 06db 00       		.byte	0
 1768 06dc 07       		.uleb128 0x7
 1769 06dd D4010000 		.4byte	.LASF95
 1770 06e1 0E       		.byte	0xe
 1771 06e2 59       		.byte	0x59
 1772 06e3 1A       		.byte	0x1a
 1773 06e4 A1020000 		.4byte	0x2a1
 1774 06e8 04       		.byte	0x4
 1775 06e9 07       		.uleb128 0x7
 1776 06ea 5A090000 		.4byte	.LASF96
 1777 06ee 0E       		.byte	0xe
 1778 06ef 5D       		.byte	0x5d
 1779 06f0 1A       		.byte	0x1a
 1780 06f1 8E030000 		.4byte	0x38e
 1781 06f5 08       		.byte	0x8
 1782 06f6 07       		.uleb128 0x7
 1783 06f7 93080000 		.4byte	.LASF97
 1784 06fb 0E       		.byte	0xe
 1785 06fc 61       		.byte	0x61
 1786 06fd 19       		.byte	0x19
 1787 06fe 73000000 		.4byte	0x73
 1788 0702 0C       		.byte	0xc
 1789 0703 00       		.byte	0
 1790 0704 03       		.uleb128 0x3
 1791 0705 A3040000 		.4byte	.LASF98
 1792 0709 0E       		.byte	0xe
 1793 070a 62       		.byte	0x62
 1794 070b 03       		.byte	0x3
 1795 070c C6060000 		.4byte	0x6c6
 1796 0710 16       		.uleb128 0x16
 1797 0711 0804     		.2byte	0x408
 1798 0713 0E       		.byte	0xe
 1799 0714 67       		.byte	0x67
 1800 0715 09       		.byte	0x9
 1801 0716 42070000 		.4byte	0x742
 1802 071a 07       		.uleb128 0x7
 1803 071b 0D020000 		.4byte	.LASF99
 1804 071f 0E       		.byte	0xe
 1805 0720 6B       		.byte	0x6b
 1806 0721 19       		.byte	0x19
 1807 0722 38000000 		.4byte	0x38
 1808 0726 00       		.byte	0
 1809 0727 07       		.uleb128 0x7
 1810 0728 30000000 		.4byte	.LASF100
ARM GAS  /tmp/cc5UaDAt.s 			page 33


 1811 072c 0E       		.byte	0xe
 1812 072d 6F       		.byte	0x6f
 1813 072e 1A       		.byte	0x1a
 1814 072f 42070000 		.4byte	0x742
 1815 0733 04       		.byte	0x4
 1816 0734 07       		.uleb128 0x7
 1817 0735 69060000 		.4byte	.LASF101
 1818 0739 0E       		.byte	0xe
 1819 073a 73       		.byte	0x73
 1820 073b 19       		.byte	0x19
 1821 073c 48070000 		.4byte	0x748
 1822 0740 08       		.byte	0x8
 1823 0741 00       		.byte	0
 1824 0742 0A       		.uleb128 0xa
 1825 0743 04       		.byte	0x4
 1826 0744 04070000 		.4byte	0x704
 1827 0748 17       		.uleb128 0x17
 1828 0749 04070000 		.4byte	0x704
 1829 074d 58070000 		.4byte	0x758
 1830 0751 18       		.uleb128 0x18
 1831 0752 38000000 		.4byte	0x38
 1832 0756 3F       		.byte	0x3f
 1833 0757 00       		.byte	0
 1834 0758 03       		.uleb128 0x3
 1835 0759 BC000000 		.4byte	.LASF102
 1836 075d 0E       		.byte	0xe
 1837 075e 74       		.byte	0x74
 1838 075f 03       		.byte	0x3
 1839 0760 10070000 		.4byte	0x710
 1840 0764 15       		.uleb128 0x15
 1841 0765 04       		.byte	0x4
 1842 0766 0F       		.byte	0xf
 1843 0767 38       		.byte	0x38
 1844 0768 09       		.byte	0x9
 1845 0769 7B070000 		.4byte	0x77b
 1846 076d 07       		.uleb128 0x7
 1847 076e 33080000 		.4byte	.LASF103
 1848 0772 0F       		.byte	0xf
 1849 0773 3C       		.byte	0x3c
 1850 0774 19       		.byte	0x19
 1851 0775 BF000000 		.4byte	0xbf
 1852 0779 00       		.byte	0
 1853 077a 00       		.byte	0
 1854 077b 03       		.uleb128 0x3
 1855 077c E1040000 		.4byte	.LASF104
 1856 0780 0F       		.byte	0xf
 1857 0781 3D       		.byte	0x3d
 1858 0782 03       		.byte	0x3
 1859 0783 64070000 		.4byte	0x764
 1860 0787 15       		.uleb128 0x15
 1861 0788 18       		.byte	0x18
 1862 0789 0F       		.byte	0xf
 1863 078a 48       		.byte	0x48
 1864 078b 09       		.byte	0x9
 1865 078c D0070000 		.4byte	0x7d0
 1866 0790 07       		.uleb128 0x7
 1867 0791 F1070000 		.4byte	.LASF105
ARM GAS  /tmp/cc5UaDAt.s 			page 34


 1868 0795 0F       		.byte	0xf
 1869 0796 49       		.byte	0x49
 1870 0797 19       		.byte	0x19
 1871 0798 BF000000 		.4byte	0xbf
 1872 079c 00       		.byte	0
 1873 079d 07       		.uleb128 0x7
 1874 079e 8C000000 		.4byte	.LASF106
 1875 07a2 0F       		.byte	0xf
 1876 07a3 4A       		.byte	0x4a
 1877 07a4 19       		.byte	0x19
 1878 07a5 BF000000 		.4byte	0xbf
 1879 07a9 04       		.byte	0x4
 1880 07aa 07       		.uleb128 0x7
 1881 07ab 7E030000 		.4byte	.LASF107
 1882 07af 0F       		.byte	0xf
 1883 07b0 4B       		.byte	0x4b
 1884 07b1 19       		.byte	0x19
 1885 07b2 BF000000 		.4byte	0xbf
 1886 07b6 08       		.byte	0x8
 1887 07b7 14       		.uleb128 0x14
 1888 07b8 6E00     		.ascii	"n\000"
 1889 07ba 0F       		.byte	0xf
 1890 07bb 4C       		.byte	0x4c
 1891 07bc 19       		.byte	0x19
 1892 07bd 37010000 		.4byte	0x137
 1893 07c1 0C       		.byte	0xc
 1894 07c2 07       		.uleb128 0x7
 1895 07c3 56060000 		.4byte	.LASF108
 1896 07c7 0F       		.byte	0xf
 1897 07c8 4D       		.byte	0x4d
 1898 07c9 19       		.byte	0x19
 1899 07ca CB000000 		.4byte	0xcb
 1900 07ce 10       		.byte	0x10
 1901 07cf 00       		.byte	0
 1902 07d0 03       		.uleb128 0x3
 1903 07d1 92000000 		.4byte	.LASF109
 1904 07d5 0F       		.byte	0xf
 1905 07d6 4E       		.byte	0x4e
 1906 07d7 03       		.byte	0x3
 1907 07d8 87070000 		.4byte	0x787
 1908 07dc 15       		.uleb128 0x15
 1909 07dd 38       		.byte	0x38
 1910 07de 10       		.byte	0x10
 1911 07df 38       		.byte	0x38
 1912 07e0 09       		.byte	0x9
 1913 07e1 1A080000 		.4byte	0x81a
 1914 07e5 07       		.uleb128 0x7
 1915 07e6 F8020000 		.4byte	.LASF110
 1916 07ea 10       		.byte	0x10
 1917 07eb 39       		.byte	0x39
 1918 07ec 19       		.byte	0x19
 1919 07ed 37010000 		.4byte	0x137
 1920 07f1 00       		.byte	0
 1921 07f2 07       		.uleb128 0x7
 1922 07f3 9D060000 		.4byte	.LASF111
 1923 07f7 10       		.byte	0x10
 1924 07f8 3A       		.byte	0x3a
ARM GAS  /tmp/cc5UaDAt.s 			page 35


 1925 07f9 19       		.byte	0x19
 1926 07fa 37010000 		.4byte	0x137
 1927 07fe 04       		.byte	0x4
 1928 07ff 07       		.uleb128 0x7
 1929 0800 3D090000 		.4byte	.LASF112
 1930 0804 10       		.byte	0x10
 1931 0805 3B       		.byte	0x3b
 1932 0806 19       		.byte	0x19
 1933 0807 D0070000 		.4byte	0x7d0
 1934 080b 08       		.byte	0x8
 1935 080c 07       		.uleb128 0x7
 1936 080d CE030000 		.4byte	.LASF113
 1937 0811 10       		.byte	0x10
 1938 0812 3D       		.byte	0x3d
 1939 0813 19       		.byte	0x19
 1940 0814 D0070000 		.4byte	0x7d0
 1941 0818 20       		.byte	0x20
 1942 0819 00       		.byte	0
 1943 081a 03       		.uleb128 0x3
 1944 081b 5F030000 		.4byte	.LASF114
 1945 081f 10       		.byte	0x10
 1946 0820 3F       		.byte	0x3f
 1947 0821 03       		.byte	0x3
 1948 0822 DC070000 		.4byte	0x7dc
 1949 0826 19       		.uleb128 0x19
 1950 0827 04       		.byte	0x4
 1951 0828 0A       		.byte	0xa
 1952 0829 FA       		.byte	0xfa
 1953 082a 03       		.byte	0x3
 1954 082b 8B080000 		.4byte	0x88b
 1955 082f 1A       		.uleb128 0x1a
 1956 0830 29000000 		.4byte	.LASF115
 1957 0834 0A       		.byte	0xa
 1958 0835 0101     		.2byte	0x101
 1959 0837 19       		.byte	0x19
 1960 0838 13010000 		.4byte	0x113
 1961 083c 1A       		.uleb128 0x1a
 1962 083d DC000000 		.4byte	.LASF116
 1963 0841 0A       		.byte	0xa
 1964 0842 0801     		.2byte	0x108
 1965 0844 19       		.byte	0x19
 1966 0845 13010000 		.4byte	0x113
 1967 0849 1A       		.uleb128 0x1a
 1968 084a E6080000 		.4byte	.LASF117
 1969 084e 0A       		.byte	0xa
 1970 084f 0F01     		.2byte	0x10f
 1971 0851 1A       		.byte	0x1a
 1972 0852 8E030000 		.4byte	0x38e
 1973 0856 1A       		.uleb128 0x1a
 1974 0857 B2010000 		.4byte	.LASF118
 1975 085b 0A       		.byte	0xa
 1976 085c 1601     		.2byte	0x116
 1977 085e 1A       		.byte	0x1a
 1978 085f 8B080000 		.4byte	0x88b
 1979 0863 1A       		.uleb128 0x1a
 1980 0864 C6020000 		.4byte	.LASF119
 1981 0868 0A       		.byte	0xa
ARM GAS  /tmp/cc5UaDAt.s 			page 36


 1982 0869 1E01     		.2byte	0x11e
 1983 086b 1A       		.byte	0x1a
 1984 086c B9080000 		.4byte	0x8b9
 1985 0870 1A       		.uleb128 0x1a
 1986 0871 D5070000 		.4byte	.LASF120
 1987 0875 0A       		.byte	0xa
 1988 0876 2701     		.2byte	0x127
 1989 0878 1A       		.byte	0x1a
 1990 0879 01090000 		.4byte	0x901
 1991 087d 1A       		.uleb128 0x1a
 1992 087e ED060000 		.4byte	.LASF121
 1993 0882 0A       		.byte	0xa
 1994 0883 2F01     		.2byte	0x12f
 1995 0885 19       		.byte	0x19
 1996 0886 1F010000 		.4byte	0x11f
 1997 088a 00       		.byte	0
 1998 088b 0A       		.uleb128 0xa
 1999 088c 04       		.byte	0x4
 2000 088d 95020000 		.4byte	0x295
 2001 0891 06       		.uleb128 0x6
 2002 0892 71070000 		.4byte	.LASF122
 2003 0896 0C       		.byte	0xc
 2004 0897 11       		.byte	0x11
 2005 0898 34       		.byte	0x34
 2006 0899 10       		.byte	0x10
 2007 089a B9080000 		.4byte	0x8b9
 2008 089e 07       		.uleb128 0x7
 2009 089f 05020000 		.4byte	.LASF123
 2010 08a3 11       		.byte	0x11
 2011 08a4 35       		.byte	0x35
 2012 08a5 19       		.byte	0x19
 2013 08a6 CE020000 		.4byte	0x2ce
 2014 08aa 00       		.byte	0
 2015 08ab 07       		.uleb128 0x7
 2016 08ac 46030000 		.4byte	.LASF124
 2017 08b0 11       		.byte	0x11
 2018 08b1 37       		.byte	0x37
 2019 08b2 19       		.byte	0x19
 2020 08b3 2B010000 		.4byte	0x12b
 2021 08b7 08       		.byte	0x8
 2022 08b8 00       		.byte	0
 2023 08b9 0A       		.uleb128 0xa
 2024 08ba 04       		.byte	0x4
 2025 08bb 91080000 		.4byte	0x891
 2026 08bf 06       		.uleb128 0x6
 2027 08c0 3A080000 		.4byte	.LASF125
 2028 08c4 14       		.byte	0x14
 2029 08c5 12       		.byte	0x12
 2030 08c6 39       		.byte	0x39
 2031 08c7 08       		.byte	0x8
 2032 08c8 01090000 		.4byte	0x901
 2033 08cc 07       		.uleb128 0x7
 2034 08cd 8D010000 		.4byte	.LASF126
 2035 08d1 12       		.byte	0x12
 2036 08d2 3A       		.byte	0x3a
 2037 08d3 19       		.byte	0x19
 2038 08d4 CE020000 		.4byte	0x2ce
ARM GAS  /tmp/cc5UaDAt.s 			page 37


 2039 08d8 00       		.byte	0
 2040 08d9 07       		.uleb128 0x7
 2041 08da 48090000 		.4byte	.LASF127
 2042 08de 12       		.byte	0x12
 2043 08df 3C       		.byte	0x3c
 2044 08e0 1A       		.byte	0x1a
 2045 08e1 A1020000 		.4byte	0x2a1
 2046 08e5 08       		.byte	0x8
 2047 08e6 07       		.uleb128 0x7
 2048 08e7 F6070000 		.4byte	.LASF128
 2049 08eb 12       		.byte	0x12
 2050 08ec 3E       		.byte	0x3e
 2051 08ed 1A       		.byte	0x1a
 2052 08ee 730A0000 		.4byte	0xa73
 2053 08f2 0C       		.byte	0xc
 2054 08f3 07       		.uleb128 0x7
 2055 08f4 54020000 		.4byte	.LASF129
 2056 08f8 12       		.byte	0x12
 2057 08f9 41       		.byte	0x41
 2058 08fa 19       		.byte	0x19
 2059 08fb 2B010000 		.4byte	0x12b
 2060 08ff 10       		.byte	0x10
 2061 0900 00       		.byte	0
 2062 0901 0A       		.uleb128 0xa
 2063 0902 04       		.byte	0x4
 2064 0903 BF080000 		.4byte	0x8bf
 2065 0907 0A       		.uleb128 0xa
 2066 0908 04       		.byte	0x4
 2067 0909 19090000 		.4byte	0x919
 2068 090d 05       		.uleb128 0x5
 2069 090e 07090000 		.4byte	0x907
 2070 0912 04       		.uleb128 0x4
 2071 0913 01       		.byte	0x1
 2072 0914 08       		.byte	0x8
 2073 0915 D0070000 		.4byte	.LASF130
 2074 0919 1B       		.uleb128 0x1b
 2075 091a 12090000 		.4byte	0x912
 2076 091e 0A       		.uleb128 0xa
 2077 091f 04       		.byte	0x4
 2078 0920 3E050000 		.4byte	0x53e
 2079 0924 0A       		.uleb128 0xa
 2080 0925 04       		.byte	0x4
 2081 0926 90030000 		.4byte	0x390
 2082 092a 17       		.uleb128 0x17
 2083 092b 3E050000 		.4byte	0x53e
 2084 092f 3A090000 		.4byte	0x93a
 2085 0933 18       		.uleb128 0x18
 2086 0934 38000000 		.4byte	0x38
 2087 0938 30       		.byte	0x30
 2088 0939 00       		.byte	0
 2089 093a 1C       		.uleb128 0x1c
 2090 093b 636800   		.ascii	"ch\000"
 2091 093e 0A       		.byte	0xa
 2092 093f 0902     		.2byte	0x209
 2093 0941 14       		.byte	0x14
 2094 0942 98040000 		.4byte	0x498
 2095 0946 15       		.uleb128 0x15
ARM GAS  /tmp/cc5UaDAt.s 			page 38


 2096 0947 16       		.byte	0x16
 2097 0948 13       		.byte	0x13
 2098 0949 34       		.byte	0x34
 2099 094a 09       		.byte	0x9
 2100 094b 3A0A0000 		.4byte	0xa3a
 2101 094f 07       		.uleb128 0x7
 2102 0950 64090000 		.4byte	.LASF131
 2103 0954 13       		.byte	0x13
 2104 0955 35       		.byte	0x35
 2105 0956 0D       		.byte	0xd
 2106 0957 3A0A0000 		.4byte	0xa3a
 2107 095b 00       		.byte	0
 2108 095c 07       		.uleb128 0x7
 2109 095d 0D040000 		.4byte	.LASF132
 2110 0961 13       		.byte	0x13
 2111 0962 36       		.byte	0x36
 2112 0963 0D       		.byte	0xd
 2113 0964 73000000 		.4byte	0x73
 2114 0968 04       		.byte	0x4
 2115 0969 07       		.uleb128 0x7
 2116 096a B6070000 		.4byte	.LASF133
 2117 096e 13       		.byte	0x13
 2118 096f 37       		.byte	0x37
 2119 0970 0D       		.byte	0xd
 2120 0971 73000000 		.4byte	0x73
 2121 0975 05       		.byte	0x5
 2122 0976 07       		.uleb128 0x7
 2123 0977 E2060000 		.4byte	.LASF134
 2124 097b 13       		.byte	0x13
 2125 097c 38       		.byte	0x38
 2126 097d 0D       		.byte	0xd
 2127 097e 86000000 		.4byte	0x86
 2128 0982 06       		.byte	0x6
 2129 0983 07       		.uleb128 0x7
 2130 0984 73060000 		.4byte	.LASF135
 2131 0988 13       		.byte	0x13
 2132 0989 39       		.byte	0x39
 2133 098a 0D       		.byte	0xd
 2134 098b 73000000 		.4byte	0x73
 2135 098f 08       		.byte	0x8
 2136 0990 07       		.uleb128 0x7
 2137 0991 8A040000 		.4byte	.LASF136
 2138 0995 13       		.byte	0x13
 2139 0996 3A       		.byte	0x3a
 2140 0997 0D       		.byte	0xd
 2141 0998 73000000 		.4byte	0x73
 2142 099c 09       		.byte	0x9
 2143 099d 07       		.uleb128 0x7
 2144 099e CE000000 		.4byte	.LASF137
 2145 09a2 13       		.byte	0x13
 2146 09a3 3B       		.byte	0x3b
 2147 09a4 0D       		.byte	0xd
 2148 09a5 73000000 		.4byte	0x73
 2149 09a9 0A       		.byte	0xa
 2150 09aa 07       		.uleb128 0x7
 2151 09ab 92070000 		.4byte	.LASF138
 2152 09af 13       		.byte	0x13
ARM GAS  /tmp/cc5UaDAt.s 			page 39


 2153 09b0 3C       		.byte	0x3c
 2154 09b1 0D       		.byte	0xd
 2155 09b2 73000000 		.4byte	0x73
 2156 09b6 0B       		.byte	0xb
 2157 09b7 07       		.uleb128 0x7
 2158 09b8 6D080000 		.4byte	.LASF139
 2159 09bc 13       		.byte	0x13
 2160 09bd 3D       		.byte	0x3d
 2161 09be 0D       		.byte	0xd
 2162 09bf 73000000 		.4byte	0x73
 2163 09c3 0C       		.byte	0xc
 2164 09c4 07       		.uleb128 0x7
 2165 09c5 53070000 		.4byte	.LASF140
 2166 09c9 13       		.byte	0x13
 2167 09ca 3E       		.byte	0x3e
 2168 09cb 0D       		.byte	0xd
 2169 09cc 73000000 		.4byte	0x73
 2170 09d0 0D       		.byte	0xd
 2171 09d1 07       		.uleb128 0x7
 2172 09d2 00000000 		.4byte	.LASF141
 2173 09d6 13       		.byte	0x13
 2174 09d7 3F       		.byte	0x3f
 2175 09d8 0D       		.byte	0xd
 2176 09d9 73000000 		.4byte	0x73
 2177 09dd 0E       		.byte	0xe
 2178 09de 07       		.uleb128 0x7
 2179 09df B2040000 		.4byte	.LASF142
 2180 09e3 13       		.byte	0x13
 2181 09e4 40       		.byte	0x40
 2182 09e5 0D       		.byte	0xd
 2183 09e6 73000000 		.4byte	0x73
 2184 09ea 0F       		.byte	0xf
 2185 09eb 07       		.uleb128 0x7
 2186 09ec 68010000 		.4byte	.LASF143
 2187 09f0 13       		.byte	0x13
 2188 09f1 41       		.byte	0x41
 2189 09f2 0D       		.byte	0xd
 2190 09f3 73000000 		.4byte	0x73
 2191 09f7 10       		.byte	0x10
 2192 09f8 07       		.uleb128 0x7
 2193 09f9 41010000 		.4byte	.LASF144
 2194 09fd 13       		.byte	0x13
 2195 09fe 43       		.byte	0x43
 2196 09ff 0D       		.byte	0xd
 2197 0a00 73000000 		.4byte	0x73
 2198 0a04 11       		.byte	0x11
 2199 0a05 07       		.uleb128 0x7
 2200 0a06 78010000 		.4byte	.LASF145
 2201 0a0a 13       		.byte	0x13
 2202 0a0b 44       		.byte	0x44
 2203 0a0c 0D       		.byte	0xd
 2204 0a0d 73000000 		.4byte	0x73
 2205 0a11 12       		.byte	0x12
 2206 0a12 07       		.uleb128 0x7
 2207 0a13 15040000 		.4byte	.LASF146
 2208 0a17 13       		.byte	0x13
 2209 0a18 45       		.byte	0x45
ARM GAS  /tmp/cc5UaDAt.s 			page 40


 2210 0a19 0D       		.byte	0xd
 2211 0a1a 73000000 		.4byte	0x73
 2212 0a1e 13       		.byte	0x13
 2213 0a1f 07       		.uleb128 0x7
 2214 0a20 03070000 		.4byte	.LASF147
 2215 0a24 13       		.byte	0x13
 2216 0a25 46       		.byte	0x46
 2217 0a26 0D       		.byte	0xd
 2218 0a27 73000000 		.4byte	0x73
 2219 0a2b 14       		.byte	0x14
 2220 0a2c 07       		.uleb128 0x7
 2221 0a2d B1030000 		.4byte	.LASF148
 2222 0a31 13       		.byte	0x13
 2223 0a32 48       		.byte	0x48
 2224 0a33 0D       		.byte	0xd
 2225 0a34 73000000 		.4byte	0x73
 2226 0a38 15       		.byte	0x15
 2227 0a39 00       		.byte	0
 2228 0a3a 17       		.uleb128 0x17
 2229 0a3b 12090000 		.4byte	0x912
 2230 0a3f 4A0A0000 		.4byte	0xa4a
 2231 0a43 18       		.uleb128 0x18
 2232 0a44 38000000 		.4byte	0x38
 2233 0a48 03       		.byte	0x3
 2234 0a49 00       		.byte	0
 2235 0a4a 03       		.uleb128 0x3
 2236 0a4b 50090000 		.4byte	.LASF149
 2237 0a4f 13       		.byte	0x13
 2238 0a50 49       		.byte	0x49
 2239 0a51 03       		.byte	0x3
 2240 0a52 46090000 		.4byte	0x946
 2241 0a56 1B       		.uleb128 0x1b
 2242 0a57 4A0A0000 		.4byte	0xa4a
 2243 0a5b 13       		.uleb128 0x13
 2244 0a5c E1020000 		.4byte	.LASF150
 2245 0a60 13       		.byte	0x13
 2246 0a61 6E       		.byte	0x6e
 2247 0a62 1D       		.byte	0x1d
 2248 0a63 560A0000 		.4byte	0xa56
 2249 0a67 03       		.uleb128 0x3
 2250 0a68 5A020000 		.4byte	.LASF151
 2251 0a6c 12       		.byte	0x12
 2252 0a6d 34       		.byte	0x34
 2253 0a6e 19       		.byte	0x19
 2254 0a6f BF080000 		.4byte	0x8bf
 2255 0a73 0A       		.uleb128 0xa
 2256 0a74 04       		.byte	0x4
 2257 0a75 670A0000 		.4byte	0xa67
 2258 0a79 03       		.uleb128 0x3
 2259 0a7a 59080000 		.4byte	.LASF152
 2260 0a7e 14       		.byte	0x14
 2261 0a7f 36       		.byte	0x36
 2262 0a80 11       		.byte	0x11
 2263 0a81 850A0000 		.4byte	0xa85
 2264 0a85 0A       		.uleb128 0xa
 2265 0a86 04       		.byte	0x4
 2266 0a87 8B0A0000 		.4byte	0xa8b
ARM GAS  /tmp/cc5UaDAt.s 			page 41


 2267 0a8b 1D       		.uleb128 0x1d
 2268 0a8c 8E030000 		.4byte	0x38e
 2269 0a90 9A0A0000 		.4byte	0xa9a
 2270 0a94 0D       		.uleb128 0xd
 2271 0a95 2C000000 		.4byte	0x2c
 2272 0a99 00       		.byte	0
 2273 0a9a 06       		.uleb128 0x6
 2274 0a9b 78080000 		.4byte	.LASF153
 2275 0a9f 04       		.byte	0x4
 2276 0aa0 05       		.byte	0x5
 2277 0aa1 38       		.byte	0x38
 2278 0aa2 08       		.byte	0x8
 2279 0aa3 B50A0000 		.4byte	0xab5
 2280 0aa7 07       		.uleb128 0x7
 2281 0aa8 ED080000 		.4byte	.LASF154
 2282 0aac 05       		.byte	0x5
 2283 0aad 39       		.byte	0x39
 2284 0aae 1A       		.byte	0x1a
 2285 0aaf B50A0000 		.4byte	0xab5
 2286 0ab3 00       		.byte	0
 2287 0ab4 00       		.byte	0
 2288 0ab5 0A       		.uleb128 0xa
 2289 0ab6 04       		.byte	0x4
 2290 0ab7 9A0A0000 		.4byte	0xa9a
 2291 0abb 15       		.uleb128 0x15
 2292 0abc 0C       		.byte	0xc
 2293 0abd 05       		.byte	0x5
 2294 0abe 40       		.byte	0x40
 2295 0abf 09       		.byte	0x9
 2296 0ac0 EC0A0000 		.4byte	0xaec
 2297 0ac4 07       		.uleb128 0x7
 2298 0ac5 43080000 		.4byte	.LASF155
 2299 0ac9 05       		.byte	0x5
 2300 0aca 41       		.byte	0x41
 2301 0acb 1A       		.byte	0x1a
 2302 0acc B50A0000 		.4byte	0xab5
 2303 0ad0 00       		.byte	0
 2304 0ad1 07       		.uleb128 0x7
 2305 0ad2 D2040000 		.4byte	.LASF156
 2306 0ad6 05       		.byte	0x5
 2307 0ad7 42       		.byte	0x42
 2308 0ad8 19       		.byte	0x19
 2309 0ad9 2C000000 		.4byte	0x2c
 2310 0add 04       		.byte	0x4
 2311 0ade 07       		.uleb128 0x7
 2312 0adf 1D020000 		.4byte	.LASF157
 2313 0ae3 05       		.byte	0x5
 2314 0ae4 44       		.byte	0x44
 2315 0ae5 19       		.byte	0x19
 2316 0ae6 790A0000 		.4byte	0xa79
 2317 0aea 08       		.byte	0x8
 2318 0aeb 00       		.byte	0
 2319 0aec 03       		.uleb128 0x3
 2320 0aed EA020000 		.4byte	.LASF158
 2321 0af1 05       		.byte	0x5
 2322 0af2 46       		.byte	0x46
 2323 0af3 03       		.byte	0x3
ARM GAS  /tmp/cc5UaDAt.s 			page 42


 2324 0af4 BB0A0000 		.4byte	0xabb
 2325 0af8 1E       		.uleb128 0x1e
 2326 0af9 B6080000 		.4byte	.LASF160
 2327 0afd 01       		.byte	0x1
 2328 0afe C1       		.byte	0xc1
 2329 0aff 06       		.byte	0x6
 2330 0b00 00000000 		.4byte	.LFB224
 2331 0b04 70000000 		.4byte	.LFE224-.LFB224
 2332 0b08 01       		.uleb128 0x1
 2333 0b09 9C       		.byte	0x9c
 2334 0b0a 3A0C0000 		.4byte	0xc3a
 2335 0b0e 1F       		.uleb128 0x1f
 2336 0b0f 6D7000   		.ascii	"mp\000"
 2337 0b12 01       		.byte	0x1
 2338 0b13 C1       		.byte	0xc1
 2339 0b14 20       		.byte	0x20
 2340 0b15 3A0C0000 		.4byte	0xc3a
 2341 0b19 04000000 		.4byte	.LLST13
 2342 0b1d 00000000 		.4byte	.LVUS13
 2343 0b21 20       		.uleb128 0x20
 2344 0b22 2D070000 		.4byte	.LASF159
 2345 0b26 01       		.byte	0x1
 2346 0b27 C1       		.byte	0xc1
 2347 0b28 2A       		.byte	0x2a
 2348 0b29 8E030000 		.4byte	0x38e
 2349 0b2d 2B000000 		.4byte	.LLST14
 2350 0b31 23000000 		.4byte	.LVUS14
 2351 0b35 21       		.uleb128 0x21
 2352 0b36 37100000 		.4byte	0x1037
 2353 0b3a 12000000 		.4byte	.LBI70
 2354 0b3e 01       		.byte	.LVU108
 2355 0b3f 80000000 		.4byte	.Ldebug_ranges0+0x80
 2356 0b43 01       		.byte	0x1
 2357 0b44 C3       		.byte	0xc3
 2358 0b45 03       		.byte	0x3
 2359 0b46 980B0000 		.4byte	0xb98
 2360 0b4a 22       		.uleb128 0x22
 2361 0b4b 4B100000 		.4byte	0x104b
 2362 0b4f 12000000 		.4byte	.LBI72
 2363 0b53 03       		.byte	.LVU110
 2364 0b54 98000000 		.4byte	.Ldebug_ranges0+0x98
 2365 0b58 02       		.byte	0x2
 2366 0b59 5C01     		.2byte	0x15c
 2367 0b5b 03       		.byte	0x3
 2368 0b5c 850B0000 		.4byte	0xb85
 2369 0b60 23       		.uleb128 0x23
 2370 0b61 55100000 		.4byte	0x1055
 2371 0b65 12000000 		.4byte	.LBI73
 2372 0b69 05       		.byte	.LVU112
 2373 0b6a 12000000 		.4byte	.LBB73
 2374 0b6e 06000000 		.4byte	.LBE73-.LBB73
 2375 0b72 03       		.byte	0x3
 2376 0b73 BF01     		.2byte	0x1bf
 2377 0b75 03       		.byte	0x3
 2378 0b76 24       		.uleb128 0x24
 2379 0b77 63100000 		.4byte	0x1063
 2380 0b7b 64000000 		.4byte	.LLST15
ARM GAS  /tmp/cc5UaDAt.s 			page 43


 2381 0b7f 62000000 		.4byte	.LVUS15
 2382 0b83 00       		.byte	0
 2383 0b84 00       		.byte	0
 2384 0b85 25       		.uleb128 0x25
 2385 0b86 1C000000 		.4byte	.LVL39
 2386 0b8a F8100000 		.4byte	0x10f8
 2387 0b8e 25       		.uleb128 0x25
 2388 0b8f 20000000 		.4byte	.LVL40
 2389 0b93 04110000 		.4byte	0x1104
 2390 0b97 00       		.byte	0
 2391 0b98 21       		.uleb128 0x21
 2392 0b99 19100000 		.4byte	0x1019
 2393 0b9d 28000000 		.4byte	.LBI78
 2394 0ba1 01       		.byte	.LVU119
 2395 0ba2 B0000000 		.4byte	.Ldebug_ranges0+0xb0
 2396 0ba6 01       		.byte	0x1
 2397 0ba7 C5       		.byte	0xc5
 2398 0ba8 03       		.byte	0x3
 2399 0ba9 140C0000 		.4byte	0xc14
 2400 0bad 26       		.uleb128 0x26
 2401 0bae B0000000 		.4byte	.Ldebug_ranges0+0xb0
 2402 0bb2 22       		.uleb128 0x22
 2403 0bb3 41100000 		.4byte	0x1041
 2404 0bb7 42000000 		.4byte	.LBI80
 2405 0bbb 02       		.byte	.LVU127
 2406 0bbc D0000000 		.4byte	.Ldebug_ranges0+0xd0
 2407 0bc0 02       		.byte	0x2
 2408 0bc1 7301     		.2byte	0x173
 2409 0bc3 03       		.byte	0x3
 2410 0bc4 ED0B0000 		.4byte	0xbed
 2411 0bc8 23       		.uleb128 0x23
 2412 0bc9 55100000 		.4byte	0x1055
 2413 0bcd 42000000 		.4byte	.LBI81
 2414 0bd1 04       		.byte	.LVU129
 2415 0bd2 42000000 		.4byte	.LBB81
 2416 0bd6 06000000 		.4byte	.LBE81-.LBB81
 2417 0bda 03       		.byte	0x3
 2418 0bdb CD01     		.2byte	0x1cd
 2419 0bdd 03       		.byte	0x3
 2420 0bde 24       		.uleb128 0x24
 2421 0bdf 63100000 		.4byte	0x1063
 2422 0be3 7B000000 		.4byte	.LLST16
 2423 0be7 79000000 		.4byte	.LVUS16
 2424 0beb 00       		.byte	0
 2425 0bec 00       		.byte	0
 2426 0bed 25       		.uleb128 0x25
 2427 0bee 2C000000 		.4byte	.LVL42
 2428 0bf2 10110000 		.4byte	0x1110
 2429 0bf6 25       		.uleb128 0x25
 2430 0bf7 30000000 		.4byte	.LVL43
 2431 0bfb 1C110000 		.4byte	0x111c
 2432 0bff 27       		.uleb128 0x27
 2433 0c00 5E000000 		.4byte	.LVL48
 2434 0c04 28110000 		.4byte	0x1128
 2435 0c08 28       		.uleb128 0x28
 2436 0c09 01       		.uleb128 0x1
 2437 0c0a 50       		.byte	0x50
ARM GAS  /tmp/cc5UaDAt.s 			page 44


 2438 0c0b 05       		.uleb128 0x5
 2439 0c0c 03       		.byte	0x3
 2440 0c0d 00000000 		.4byte	.LANCHOR2
 2441 0c11 00       		.byte	0
 2442 0c12 00       		.byte	0
 2443 0c13 00       		.byte	0
 2444 0c14 29       		.uleb128 0x29
 2445 0c15 28000000 		.4byte	.LVL41
 2446 0c19 400C0000 		.4byte	0xc40
 2447 0c1d 300C0000 		.4byte	0xc30
 2448 0c21 28       		.uleb128 0x28
 2449 0c22 01       		.uleb128 0x1
 2450 0c23 50       		.byte	0x50
 2451 0c24 03       		.uleb128 0x3
 2452 0c25 91       		.byte	0x91
 2453 0c26 6C       		.sleb128 -20
 2454 0c27 06       		.byte	0x6
 2455 0c28 28       		.uleb128 0x28
 2456 0c29 01       		.uleb128 0x1
 2457 0c2a 51       		.byte	0x51
 2458 0c2b 03       		.uleb128 0x3
 2459 0c2c 7D       		.byte	0x7d
 2460 0c2d 00       		.sleb128 0
 2461 0c2e 06       		.byte	0x6
 2462 0c2f 00       		.byte	0
 2463 0c30 25       		.uleb128 0x25
 2464 0c31 64000000 		.4byte	.LVL49
 2465 0c35 35110000 		.4byte	0x1135
 2466 0c39 00       		.byte	0
 2467 0c3a 0A       		.uleb128 0xa
 2468 0c3b 04       		.byte	0x4
 2469 0c3c EC0A0000 		.4byte	0xaec
 2470 0c40 1E       		.uleb128 0x1e
 2471 0c41 DC070000 		.4byte	.LASF161
 2472 0c45 01       		.byte	0x1
 2473 0c46 AB       		.byte	0xab
 2474 0c47 06       		.byte	0x6
 2475 0c48 00000000 		.4byte	.LFB223
 2476 0c4c 44000000 		.4byte	.LFE223-.LFB223
 2477 0c50 01       		.uleb128 0x1
 2478 0c51 9C       		.byte	0x9c
 2479 0c52 CA0C0000 		.4byte	0xcca
 2480 0c56 1F       		.uleb128 0x1f
 2481 0c57 6D7000   		.ascii	"mp\000"
 2482 0c5a 01       		.byte	0x1
 2483 0c5b AB       		.byte	0xab
 2484 0c5c 21       		.byte	0x21
 2485 0c5d 3A0C0000 		.4byte	0xc3a
 2486 0c61 93000000 		.4byte	.LLST10
 2487 0c65 8F000000 		.4byte	.LVUS10
 2488 0c69 20       		.uleb128 0x20
 2489 0c6a 2D070000 		.4byte	.LASF159
 2490 0c6e 01       		.byte	0x1
 2491 0c6f AB       		.byte	0xab
 2492 0c70 2B       		.byte	0x2b
 2493 0c71 8E030000 		.4byte	0x38e
 2494 0c75 B5000000 		.4byte	.LLST11
ARM GAS  /tmp/cc5UaDAt.s 			page 45


 2495 0c79 B1000000 		.4byte	.LVUS11
 2496 0c7d 2A       		.uleb128 0x2a
 2497 0c7e 70687000 		.ascii	"php\000"
 2498 0c82 01       		.byte	0x1
 2499 0c83 AC       		.byte	0xac
 2500 0c84 17       		.byte	0x17
 2501 0c85 B50A0000 		.4byte	0xab5
 2502 0c89 D7000000 		.4byte	.LLST12
 2503 0c8d D3000000 		.4byte	.LVUS12
 2504 0c91 2B       		.uleb128 0x2b
 2505 0c92 12070000 		.4byte	.LASF162
 2506 0c96 DA0C0000 		.4byte	0xcda
 2507 0c9a 05       		.uleb128 0x5
 2508 0c9b 03       		.byte	0x3
 2509 0c9c 00000000 		.4byte	__func__.7983
 2510 0ca0 25       		.uleb128 0x25
 2511 0ca1 16000000 		.4byte	.LVL32
 2512 0ca5 3E110000 		.4byte	0x113e
 2513 0ca9 29       		.uleb128 0x29
 2514 0caa 34000000 		.4byte	.LVL34
 2515 0cae 28110000 		.4byte	0x1128
 2516 0cb2 C00C0000 		.4byte	0xcc0
 2517 0cb6 28       		.uleb128 0x28
 2518 0cb7 01       		.uleb128 0x1
 2519 0cb8 50       		.byte	0x50
 2520 0cb9 05       		.uleb128 0x5
 2521 0cba 03       		.byte	0x3
 2522 0cbb 00000000 		.4byte	.LANCHOR3
 2523 0cbf 00       		.byte	0
 2524 0cc0 25       		.uleb128 0x25
 2525 0cc1 3A000000 		.4byte	.LVL35
 2526 0cc5 35110000 		.4byte	0x1135
 2527 0cc9 00       		.byte	0
 2528 0cca 17       		.uleb128 0x17
 2529 0ccb 19090000 		.4byte	0x919
 2530 0ccf DA0C0000 		.4byte	0xcda
 2531 0cd3 18       		.uleb128 0x18
 2532 0cd4 38000000 		.4byte	0x38
 2533 0cd8 0B       		.byte	0xb
 2534 0cd9 00       		.byte	0
 2535 0cda 1B       		.uleb128 0x1b
 2536 0cdb CA0C0000 		.4byte	0xcca
 2537 0cdf 2C       		.uleb128 0x2c
 2538 0ce0 AA080000 		.4byte	.LASF183
 2539 0ce4 01       		.byte	0x1
 2540 0ce5 95       		.byte	0x95
 2541 0ce6 07       		.byte	0x7
 2542 0ce7 8E030000 		.4byte	0x38e
 2543 0ceb 00000000 		.4byte	.LFB222
 2544 0cef 70000000 		.4byte	.LFE222-.LFB222
 2545 0cf3 01       		.uleb128 0x1
 2546 0cf4 9C       		.byte	0x9c
 2547 0cf5 1E0E0000 		.4byte	0xe1e
 2548 0cf9 1F       		.uleb128 0x1f
 2549 0cfa 6D7000   		.ascii	"mp\000"
 2550 0cfd 01       		.byte	0x1
 2551 0cfe 95       		.byte	0x95
ARM GAS  /tmp/cc5UaDAt.s 			page 46


 2552 0cff 22       		.byte	0x22
 2553 0d00 3A0C0000 		.4byte	0xc3a
 2554 0d04 F9000000 		.4byte	.LLST6
 2555 0d08 F5000000 		.4byte	.LVUS6
 2556 0d0c 2D       		.uleb128 0x2d
 2557 0d0d 2D070000 		.4byte	.LASF159
 2558 0d11 01       		.byte	0x1
 2559 0d12 96       		.byte	0x96
 2560 0d13 09       		.byte	0x9
 2561 0d14 8E030000 		.4byte	0x38e
 2562 0d18 1C010000 		.4byte	.LLST7
 2563 0d1c 18010000 		.4byte	.LVUS7
 2564 0d20 21       		.uleb128 0x21
 2565 0d21 37100000 		.4byte	0x1037
 2566 0d25 10000000 		.4byte	.LBI42
 2567 0d29 02       		.byte	.LVU55
 2568 0d2a 18000000 		.4byte	.Ldebug_ranges0+0x18
 2569 0d2e 01       		.byte	0x1
 2570 0d2f 98       		.byte	0x98
 2571 0d30 03       		.byte	0x3
 2572 0d31 830D0000 		.4byte	0xd83
 2573 0d35 22       		.uleb128 0x22
 2574 0d36 4B100000 		.4byte	0x104b
 2575 0d3a 10000000 		.4byte	.LBI44
 2576 0d3e 04       		.byte	.LVU57
 2577 0d3f 30000000 		.4byte	.Ldebug_ranges0+0x30
 2578 0d43 02       		.byte	0x2
 2579 0d44 5C01     		.2byte	0x15c
 2580 0d46 03       		.byte	0x3
 2581 0d47 700D0000 		.4byte	0xd70
 2582 0d4b 23       		.uleb128 0x23
 2583 0d4c 55100000 		.4byte	0x1055
 2584 0d50 10000000 		.4byte	.LBI45
 2585 0d54 06       		.byte	.LVU59
 2586 0d55 10000000 		.4byte	.LBB45
 2587 0d59 06000000 		.4byte	.LBE45-.LBB45
 2588 0d5d 03       		.byte	0x3
 2589 0d5e BF01     		.2byte	0x1bf
 2590 0d60 03       		.byte	0x3
 2591 0d61 24       		.uleb128 0x24
 2592 0d62 63100000 		.4byte	0x1063
 2593 0d66 3C010000 		.4byte	.LLST8
 2594 0d6a 3A010000 		.4byte	.LVUS8
 2595 0d6e 00       		.byte	0
 2596 0d6f 00       		.byte	0
 2597 0d70 25       		.uleb128 0x25
 2598 0d71 1A000000 		.4byte	.LVL19
 2599 0d75 F8100000 		.4byte	0x10f8
 2600 0d79 25       		.uleb128 0x25
 2601 0d7a 1E000000 		.4byte	.LVL20
 2602 0d7e 04110000 		.4byte	0x1104
 2603 0d82 00       		.byte	0
 2604 0d83 21       		.uleb128 0x21
 2605 0d84 19100000 		.4byte	0x1019
 2606 0d88 26000000 		.4byte	.LBI50
 2607 0d8c 01       		.byte	.LVU67
 2608 0d8d 48000000 		.4byte	.Ldebug_ranges0+0x48
ARM GAS  /tmp/cc5UaDAt.s 			page 47


 2609 0d91 01       		.byte	0x1
 2610 0d92 9A       		.byte	0x9a
 2611 0d93 03       		.byte	0x3
 2612 0d94 FF0D0000 		.4byte	0xdff
 2613 0d98 26       		.uleb128 0x26
 2614 0d99 48000000 		.4byte	.Ldebug_ranges0+0x48
 2615 0d9d 22       		.uleb128 0x22
 2616 0d9e 41100000 		.4byte	0x1041
 2617 0da2 40000000 		.4byte	.LBI52
 2618 0da6 02       		.byte	.LVU75
 2619 0da7 68000000 		.4byte	.Ldebug_ranges0+0x68
 2620 0dab 02       		.byte	0x2
 2621 0dac 7301     		.2byte	0x173
 2622 0dae 03       		.byte	0x3
 2623 0daf D80D0000 		.4byte	0xdd8
 2624 0db3 23       		.uleb128 0x23
 2625 0db4 55100000 		.4byte	0x1055
 2626 0db8 40000000 		.4byte	.LBI53
 2627 0dbc 04       		.byte	.LVU77
 2628 0dbd 40000000 		.4byte	.LBB53
 2629 0dc1 06000000 		.4byte	.LBE53-.LBB53
 2630 0dc5 03       		.byte	0x3
 2631 0dc6 CD01     		.2byte	0x1cd
 2632 0dc8 03       		.byte	0x3
 2633 0dc9 24       		.uleb128 0x24
 2634 0dca 63100000 		.4byte	0x1063
 2635 0dce 53010000 		.4byte	.LLST9
 2636 0dd2 51010000 		.4byte	.LVUS9
 2637 0dd6 00       		.byte	0
 2638 0dd7 00       		.byte	0
 2639 0dd8 25       		.uleb128 0x25
 2640 0dd9 2A000000 		.4byte	.LVL23
 2641 0ddd 10110000 		.4byte	0x1110
 2642 0de1 25       		.uleb128 0x25
 2643 0de2 2E000000 		.4byte	.LVL24
 2644 0de6 1C110000 		.4byte	0x111c
 2645 0dea 27       		.uleb128 0x27
 2646 0deb 5C000000 		.4byte	.LVL28
 2647 0def 28110000 		.4byte	0x1128
 2648 0df3 28       		.uleb128 0x28
 2649 0df4 01       		.uleb128 0x1
 2650 0df5 50       		.byte	0x50
 2651 0df6 05       		.uleb128 0x5
 2652 0df7 03       		.byte	0x3
 2653 0df8 00000000 		.4byte	.LANCHOR2
 2654 0dfc 00       		.byte	0
 2655 0dfd 00       		.byte	0
 2656 0dfe 00       		.byte	0
 2657 0dff 29       		.uleb128 0x29
 2658 0e00 24000000 		.4byte	.LVL21
 2659 0e04 1E0E0000 		.4byte	0xe1e
 2660 0e08 140E0000 		.4byte	0xe14
 2661 0e0c 28       		.uleb128 0x28
 2662 0e0d 01       		.uleb128 0x1
 2663 0e0e 50       		.byte	0x50
 2664 0e0f 03       		.uleb128 0x3
 2665 0e10 91       		.byte	0x91
ARM GAS  /tmp/cc5UaDAt.s 			page 48


 2666 0e11 6C       		.sleb128 -20
 2667 0e12 06       		.byte	0x6
 2668 0e13 00       		.byte	0
 2669 0e14 25       		.uleb128 0x25
 2670 0e15 62000000 		.4byte	.LVL29
 2671 0e19 35110000 		.4byte	0x1135
 2672 0e1d 00       		.byte	0
 2673 0e1e 2E       		.uleb128 0x2e
 2674 0e1f 96040000 		.4byte	.LASF184
 2675 0e23 01       		.byte	0x1
 2676 0e24 78       		.byte	0x78
 2677 0e25 07       		.byte	0x7
 2678 0e26 8E030000 		.4byte	0x38e
 2679 0e2a 01       		.byte	0x1
 2680 0e2b 560E0000 		.4byte	0xe56
 2681 0e2f 2F       		.uleb128 0x2f
 2682 0e30 6D7000   		.ascii	"mp\000"
 2683 0e33 01       		.byte	0x1
 2684 0e34 78       		.byte	0x78
 2685 0e35 23       		.byte	0x23
 2686 0e36 3A0C0000 		.4byte	0xc3a
 2687 0e3a 30       		.uleb128 0x30
 2688 0e3b 2D070000 		.4byte	.LASF159
 2689 0e3f 01       		.byte	0x1
 2690 0e40 79       		.byte	0x79
 2691 0e41 09       		.byte	0x9
 2692 0e42 8E030000 		.4byte	0x38e
 2693 0e46 2B       		.uleb128 0x2b
 2694 0e47 12070000 		.4byte	.LASF162
 2695 0e4b 660E0000 		.4byte	0xe66
 2696 0e4f 05       		.uleb128 0x5
 2697 0e50 03       		.byte	0x3
 2698 0e51 00000000 		.4byte	__func__.7973
 2699 0e55 00       		.byte	0
 2700 0e56 17       		.uleb128 0x17
 2701 0e57 19090000 		.4byte	0x919
 2702 0e5b 660E0000 		.4byte	0xe66
 2703 0e5f 18       		.uleb128 0x18
 2704 0e60 38000000 		.4byte	0x38
 2705 0e64 0C       		.byte	0xc
 2706 0e65 00       		.byte	0
 2707 0e66 1B       		.uleb128 0x1b
 2708 0e67 560E0000 		.4byte	0xe56
 2709 0e6b 1E       		.uleb128 0x1e
 2710 0e6c 2D090000 		.4byte	.LASF163
 2711 0e70 01       		.byte	0x1
 2712 0e71 61       		.byte	0x61
 2713 0e72 06       		.byte	0x6
 2714 0e73 00000000 		.4byte	.LFB220
 2715 0e77 60000000 		.4byte	.LFE220-.LFB220
 2716 0e7b 01       		.uleb128 0x1
 2717 0e7c 9C       		.byte	0x9c
 2718 0e7d 490F0000 		.4byte	0xf49
 2719 0e81 1F       		.uleb128 0x1f
 2720 0e82 6D7000   		.ascii	"mp\000"
 2721 0e85 01       		.byte	0x1
 2722 0e86 61       		.byte	0x61
ARM GAS  /tmp/cc5UaDAt.s 			page 49


 2723 0e87 25       		.byte	0x25
 2724 0e88 3A0C0000 		.4byte	0xc3a
 2725 0e8c 71010000 		.4byte	.LLST17
 2726 0e90 67010000 		.4byte	.LVUS17
 2727 0e94 1F       		.uleb128 0x1f
 2728 0e95 7000     		.ascii	"p\000"
 2729 0e97 01       		.byte	0x1
 2730 0e98 61       		.byte	0x61
 2731 0e99 2F       		.byte	0x2f
 2732 0e9a 8E030000 		.4byte	0x38e
 2733 0e9e BB010000 		.4byte	.LLST18
 2734 0ea2 B3010000 		.4byte	.LVUS18
 2735 0ea6 1F       		.uleb128 0x1f
 2736 0ea7 6E00     		.ascii	"n\000"
 2737 0ea9 01       		.byte	0x1
 2738 0eaa 61       		.byte	0x61
 2739 0eab 39       		.byte	0x39
 2740 0eac 2C000000 		.4byte	0x2c
 2741 0eb0 FE010000 		.4byte	.LLST19
 2742 0eb4 F2010000 		.4byte	.LVUS19
 2743 0eb8 2B       		.uleb128 0x2b
 2744 0eb9 12070000 		.4byte	.LASF162
 2745 0ebd 590F0000 		.4byte	0xf59
 2746 0ec1 05       		.uleb128 0x5
 2747 0ec2 03       		.byte	0x3
 2748 0ec3 00000000 		.4byte	__func__.7965
 2749 0ec7 31       		.uleb128 0x31
 2750 0ec8 F40F0000 		.4byte	0xff4
 2751 0ecc 36000000 		.4byte	.LBI88
 2752 0ed0 01       		.byte	.LVU151
 2753 0ed1 36000000 		.4byte	.LBB88
 2754 0ed5 08000000 		.4byte	.LBE88-.LBB88
 2755 0ed9 01       		.byte	0x1
 2756 0eda 66       		.byte	0x66
 2757 0edb 05       		.byte	0x5
 2758 0edc 110F0000 		.4byte	0xf11
 2759 0ee0 24       		.uleb128 0x24
 2760 0ee1 0C100000 		.4byte	0x100c
 2761 0ee5 4F020000 		.4byte	.LLST20
 2762 0ee9 4D020000 		.4byte	.LVUS20
 2763 0eed 24       		.uleb128 0x24
 2764 0eee 01100000 		.4byte	0x1001
 2765 0ef2 64020000 		.4byte	.LLST21
 2766 0ef6 62020000 		.4byte	.LVUS21
 2767 0efa 27       		.uleb128 0x27
 2768 0efb 3E000000 		.4byte	.LVL58
 2769 0eff F80A0000 		.4byte	0xaf8
 2770 0f03 28       		.uleb128 0x28
 2771 0f04 01       		.uleb128 0x1
 2772 0f05 50       		.byte	0x50
 2773 0f06 02       		.uleb128 0x2
 2774 0f07 76       		.byte	0x76
 2775 0f08 00       		.sleb128 0
 2776 0f09 28       		.uleb128 0x28
 2777 0f0a 01       		.uleb128 0x1
 2778 0f0b 51       		.byte	0x51
 2779 0f0c 02       		.uleb128 0x2
ARM GAS  /tmp/cc5UaDAt.s 			page 50


 2780 0f0d 75       		.byte	0x75
 2781 0f0e 00       		.sleb128 0
 2782 0f0f 00       		.byte	0
 2783 0f10 00       		.byte	0
 2784 0f11 32       		.uleb128 0x32
 2785 0f12 2E000000 		.4byte	.LVL54
 2786 0f16 28110000 		.4byte	0x1128
 2787 0f1a 280F0000 		.4byte	0xf28
 2788 0f1e 28       		.uleb128 0x28
 2789 0f1f 01       		.uleb128 0x1
 2790 0f20 50       		.byte	0x50
 2791 0f21 05       		.uleb128 0x5
 2792 0f22 03       		.byte	0x3
 2793 0f23 00000000 		.4byte	.LANCHOR4
 2794 0f27 00       		.byte	0
 2795 0f28 29       		.uleb128 0x29
 2796 0f29 34000000 		.4byte	.LVL56
 2797 0f2d 28110000 		.4byte	0x1128
 2798 0f31 3F0F0000 		.4byte	0xf3f
 2799 0f35 28       		.uleb128 0x28
 2800 0f36 01       		.uleb128 0x1
 2801 0f37 50       		.byte	0x50
 2802 0f38 05       		.uleb128 0x5
 2803 0f39 03       		.byte	0x3
 2804 0f3a 00000000 		.4byte	.LANCHOR4
 2805 0f3e 00       		.byte	0
 2806 0f3f 25       		.uleb128 0x25
 2807 0f40 58000000 		.4byte	.LVL62
 2808 0f44 35110000 		.4byte	0x1135
 2809 0f48 00       		.byte	0
 2810 0f49 17       		.uleb128 0x17
 2811 0f4a 19090000 		.4byte	0x919
 2812 0f4e 590F0000 		.4byte	0xf59
 2813 0f52 18       		.uleb128 0x18
 2814 0f53 38000000 		.4byte	0x38
 2815 0f57 0F       		.byte	0xf
 2816 0f58 00       		.byte	0
 2817 0f59 1B       		.uleb128 0x1b
 2818 0f5a 490F0000 		.4byte	0xf49
 2819 0f5e 1E       		.uleb128 0x1e
 2820 0f5f BD030000 		.4byte	.LASF164
 2821 0f63 01       		.byte	0x1
 2822 0f64 4B       		.byte	0x4b
 2823 0f65 06       		.byte	0x6
 2824 0f66 00000000 		.4byte	.LFB219
 2825 0f6a 44000000 		.4byte	.LFE219-.LFB219
 2826 0f6e 01       		.uleb128 0x1
 2827 0f6f 9C       		.byte	0x9c
 2828 0f70 DF0F0000 		.4byte	0xfdf
 2829 0f74 1F       		.uleb128 0x1f
 2830 0f75 6D7000   		.ascii	"mp\000"
 2831 0f78 01       		.byte	0x1
 2832 0f79 4B       		.byte	0x4b
 2833 0f7a 26       		.byte	0x26
 2834 0f7b 3A0C0000 		.4byte	0xc3a
 2835 0f7f 7F020000 		.4byte	.LLST0
 2836 0f83 77020000 		.4byte	.LVUS0
ARM GAS  /tmp/cc5UaDAt.s 			page 51


 2837 0f87 20       		.uleb128 0x20
 2838 0f88 FC080000 		.4byte	.LASF165
 2839 0f8c 01       		.byte	0x1
 2840 0f8d 4B       		.byte	0x4b
 2841 0f8e 31       		.byte	0x31
 2842 0f8f 2C000000 		.4byte	0x2c
 2843 0f93 BB020000 		.4byte	.LLST1
 2844 0f97 B3020000 		.4byte	.LVUS1
 2845 0f9b 20       		.uleb128 0x20
 2846 0f9c 79000000 		.4byte	.LASF166
 2847 0fa0 01       		.byte	0x1
 2848 0fa1 4B       		.byte	0x4b
 2849 0fa2 44       		.byte	0x44
 2850 0fa3 790A0000 		.4byte	0xa79
 2851 0fa7 F7020000 		.4byte	.LLST2
 2852 0fab EF020000 		.4byte	.LVUS2
 2853 0faf 2B       		.uleb128 0x2b
 2854 0fb0 12070000 		.4byte	.LASF162
 2855 0fb4 EF0F0000 		.4byte	0xfef
 2856 0fb8 05       		.uleb128 0x5
 2857 0fb9 03       		.byte	0x3
 2858 0fba 00000000 		.4byte	__func__.7959
 2859 0fbe 29       		.uleb128 0x29
 2860 0fbf 36000000 		.4byte	.LVL4
 2861 0fc3 28110000 		.4byte	0x1128
 2862 0fc7 D50F0000 		.4byte	0xfd5
 2863 0fcb 28       		.uleb128 0x28
 2864 0fcc 01       		.uleb128 0x1
 2865 0fcd 50       		.byte	0x50
 2866 0fce 05       		.uleb128 0x5
 2867 0fcf 03       		.byte	0x3
 2868 0fd0 00000000 		.4byte	.LANCHOR0
 2869 0fd4 00       		.byte	0
 2870 0fd5 25       		.uleb128 0x25
 2871 0fd6 3C000000 		.4byte	.LVL5
 2872 0fda 35110000 		.4byte	0x1135
 2873 0fde 00       		.byte	0
 2874 0fdf 17       		.uleb128 0x17
 2875 0fe0 19090000 		.4byte	0x919
 2876 0fe4 EF0F0000 		.4byte	0xfef
 2877 0fe8 18       		.uleb128 0x18
 2878 0fe9 38000000 		.4byte	0x38
 2879 0fed 10       		.byte	0x10
 2880 0fee 00       		.byte	0
 2881 0fef 1B       		.uleb128 0x1b
 2882 0ff0 DF0F0000 		.4byte	0xfdf
 2883 0ff4 33       		.uleb128 0x33
 2884 0ff5 A7030000 		.4byte	.LASF167
 2885 0ff9 05       		.byte	0x5
 2886 0ffa 89       		.byte	0x89
 2887 0ffb 14       		.byte	0x14
 2888 0ffc 03       		.byte	0x3
 2889 0ffd 19100000 		.4byte	0x1019
 2890 1001 2F       		.uleb128 0x2f
 2891 1002 6D7000   		.ascii	"mp\000"
 2892 1005 05       		.byte	0x5
 2893 1006 89       		.byte	0x89
ARM GAS  /tmp/cc5UaDAt.s 			page 52


 2894 1007 2D       		.byte	0x2d
 2895 1008 3A0C0000 		.4byte	0xc3a
 2896 100c 34       		.uleb128 0x34
 2897 100d 2D070000 		.4byte	.LASF159
 2898 1011 05       		.byte	0x5
 2899 1012 89       		.byte	0x89
 2900 1013 37       		.byte	0x37
 2901 1014 8E030000 		.4byte	0x38e
 2902 1018 00       		.byte	0
 2903 1019 35       		.uleb128 0x35
 2904 101a 21090000 		.4byte	.LASF168
 2905 101e 02       		.byte	0x2
 2906 101f 6601     		.2byte	0x166
 2907 1021 14       		.byte	0x14
 2908 1022 03       		.byte	0x3
 2909 1023 37100000 		.4byte	0x1037
 2910 1027 2B       		.uleb128 0x2b
 2911 1028 12070000 		.4byte	.LASF162
 2912 102c DA0C0000 		.4byte	0xcda
 2913 1030 05       		.uleb128 0x5
 2914 1031 03       		.byte	0x3
 2915 1032 00000000 		.4byte	__func__.7261
 2916 1036 00       		.byte	0
 2917 1037 36       		.uleb128 0x36
 2918 1038 23070000 		.4byte	.LASF169
 2919 103c 02       		.byte	0x2
 2920 103d 5A01     		.2byte	0x15a
 2921 103f 14       		.byte	0x14
 2922 1040 03       		.byte	0x3
 2923 1041 36       		.uleb128 0x36
 2924 1042 9C010000 		.4byte	.LASF170
 2925 1046 03       		.byte	0x3
 2926 1047 CA01     		.2byte	0x1ca
 2927 1049 14       		.byte	0x14
 2928 104a 03       		.byte	0x3
 2929 104b 36       		.uleb128 0x36
 2930 104c 82000000 		.4byte	.LASF171
 2931 1050 03       		.byte	0x3
 2932 1051 BC01     		.2byte	0x1bc
 2933 1053 14       		.byte	0x14
 2934 1054 03       		.byte	0x3
 2935 1055 35       		.uleb128 0x35
 2936 1056 1B080000 		.4byte	.LASF172
 2937 105a 04       		.byte	0x4
 2938 105b 2002     		.2byte	0x220
 2939 105d 39       		.byte	0x39
 2940 105e 03       		.byte	0x3
 2941 105f 71100000 		.4byte	0x1071
 2942 1063 37       		.uleb128 0x37
 2943 1064 62020000 		.4byte	.LASF173
 2944 1068 04       		.byte	0x4
 2945 1069 2002     		.2byte	0x220
 2946 106b 50       		.byte	0x50
 2947 106c 99000000 		.4byte	0x99
 2948 1070 00       		.byte	0
 2949 1071 38       		.uleb128 0x38
 2950 1072 1E0E0000 		.4byte	0xe1e
ARM GAS  /tmp/cc5UaDAt.s 			page 53


 2951 1076 00000000 		.4byte	.LFB221
 2952 107a 5C000000 		.4byte	.LFE221-.LFB221
 2953 107e 01       		.uleb128 0x1
 2954 107f 9C       		.byte	0x9c
 2955 1080 F8100000 		.4byte	0x10f8
 2956 1084 24       		.uleb128 0x24
 2957 1085 2F0E0000 		.4byte	0xe2f
 2958 1089 33030000 		.4byte	.LLST3
 2959 108d 2B030000 		.4byte	.LVUS3
 2960 1091 39       		.uleb128 0x39
 2961 1092 3A0E0000 		.4byte	0xe3a
 2962 1096 72030000 		.4byte	.LLST4
 2963 109a 6A030000 		.4byte	.LVUS4
 2964 109e 21       		.uleb128 0x21
 2965 109f 1E0E0000 		.4byte	0xe1e
 2966 10a3 2C000000 		.4byte	.LBI28
 2967 10a7 00       		.byte	.LVU37
 2968 10a8 00000000 		.4byte	.Ldebug_ranges0+0
 2969 10ac 01       		.byte	0x1
 2970 10ad 78       		.byte	0x78
 2971 10ae 07       		.byte	0x7
 2972 10af CE100000 		.4byte	0x10ce
 2973 10b3 24       		.uleb128 0x24
 2974 10b4 2F0E0000 		.4byte	0xe2f
 2975 10b8 AD030000 		.4byte	.LLST5
 2976 10bc A9030000 		.4byte	.LVUS5
 2977 10c0 26       		.uleb128 0x26
 2978 10c1 00000000 		.4byte	.Ldebug_ranges0+0
 2979 10c5 3A       		.uleb128 0x3a
 2980 10c6 3A0E0000 		.4byte	0xe3a
 2981 10ca 01       		.uleb128 0x1
 2982 10cb 50       		.byte	0x50
 2983 10cc 00       		.byte	0
 2984 10cd 00       		.byte	0
 2985 10ce 25       		.uleb128 0x25
 2986 10cf 14000000 		.4byte	.LVL7
 2987 10d3 3E110000 		.4byte	0x113e
 2988 10d7 29       		.uleb128 0x29
 2989 10d8 4C000000 		.4byte	.LVL13
 2990 10dc 28110000 		.4byte	0x1128
 2991 10e0 EE100000 		.4byte	0x10ee
 2992 10e4 28       		.uleb128 0x28
 2993 10e5 01       		.uleb128 0x1
 2994 10e6 50       		.byte	0x50
 2995 10e7 05       		.uleb128 0x5
 2996 10e8 03       		.byte	0x3
 2997 10e9 00000000 		.4byte	.LANCHOR1
 2998 10ed 00       		.byte	0
 2999 10ee 25       		.uleb128 0x25
 3000 10ef 52000000 		.4byte	.LVL15
 3001 10f3 35110000 		.4byte	0x1135
 3002 10f7 00       		.byte	0
 3003 10f8 3B       		.uleb128 0x3b
 3004 10f9 F0000000 		.4byte	.LASF174
 3005 10fd F0000000 		.4byte	.LASF174
 3006 1101 10       		.byte	0x10
 3007 1102 4F       		.byte	0x4f
ARM GAS  /tmp/cc5UaDAt.s 			page 54


 3008 1103 08       		.byte	0x8
 3009 1104 3B       		.uleb128 0x3b
 3010 1105 57040000 		.4byte	.LASF175
 3011 1109 57040000 		.4byte	.LASF175
 3012 110d 0E       		.byte	0xe
 3013 110e D8       		.byte	0xd8
 3014 110f 08       		.byte	0x8
 3015 1110 3B       		.uleb128 0x3b
 3016 1111 C1080000 		.4byte	.LASF176
 3017 1115 C1080000 		.4byte	.LASF176
 3018 1119 0E       		.byte	0xe
 3019 111a D9       		.byte	0xd9
 3020 111b 08       		.byte	0x8
 3021 111c 3B       		.uleb128 0x3b
 3022 111d 32040000 		.4byte	.LASF177
 3023 1121 32040000 		.4byte	.LASF177
 3024 1125 10       		.byte	0x10
 3025 1126 50       		.byte	0x50
 3026 1127 08       		.byte	0x8
 3027 1128 3C       		.uleb128 0x3c
 3028 1129 3A020000 		.4byte	.LASF178
 3029 112d 3A020000 		.4byte	.LASF178
 3030 1131 02       		.byte	0x2
 3031 1132 1601     		.2byte	0x116
 3032 1134 08       		.byte	0x8
 3033 1135 3D       		.uleb128 0x3d
 3034 1136 60070000 		.4byte	.LASF185
 3035 113a 60070000 		.4byte	.LASF185
 3036 113e 3B       		.uleb128 0x3b
 3037 113f 8A030000 		.4byte	.LASF179
 3038 1143 8A030000 		.4byte	.LASF179
 3039 1147 0E       		.byte	0xe
 3040 1148 DE       		.byte	0xde
 3041 1149 08       		.byte	0x8
 3042 114a 00       		.byte	0
 3043              		.section	.debug_abbrev,"",%progbits
 3044              	.Ldebug_abbrev0:
 3045 0000 01       		.uleb128 0x1
 3046 0001 11       		.uleb128 0x11
 3047 0002 01       		.byte	0x1
 3048 0003 25       		.uleb128 0x25
 3049 0004 0E       		.uleb128 0xe
 3050 0005 13       		.uleb128 0x13
 3051 0006 0B       		.uleb128 0xb
 3052 0007 03       		.uleb128 0x3
 3053 0008 0E       		.uleb128 0xe
 3054 0009 1B       		.uleb128 0x1b
 3055 000a 0E       		.uleb128 0xe
 3056 000b 55       		.uleb128 0x55
 3057 000c 17       		.uleb128 0x17
 3058 000d 11       		.uleb128 0x11
 3059 000e 01       		.uleb128 0x1
 3060 000f 10       		.uleb128 0x10
 3061 0010 17       		.uleb128 0x17
 3062 0011 00       		.byte	0
 3063 0012 00       		.byte	0
 3064 0013 02       		.uleb128 0x2
ARM GAS  /tmp/cc5UaDAt.s 			page 55


 3065 0014 24       		.uleb128 0x24
 3066 0015 00       		.byte	0
 3067 0016 0B       		.uleb128 0xb
 3068 0017 0B       		.uleb128 0xb
 3069 0018 3E       		.uleb128 0x3e
 3070 0019 0B       		.uleb128 0xb
 3071 001a 03       		.uleb128 0x3
 3072 001b 08       		.uleb128 0x8
 3073 001c 00       		.byte	0
 3074 001d 00       		.byte	0
 3075 001e 03       		.uleb128 0x3
 3076 001f 16       		.uleb128 0x16
 3077 0020 00       		.byte	0
 3078 0021 03       		.uleb128 0x3
 3079 0022 0E       		.uleb128 0xe
 3080 0023 3A       		.uleb128 0x3a
 3081 0024 0B       		.uleb128 0xb
 3082 0025 3B       		.uleb128 0x3b
 3083 0026 0B       		.uleb128 0xb
 3084 0027 39       		.uleb128 0x39
 3085 0028 0B       		.uleb128 0xb
 3086 0029 49       		.uleb128 0x49
 3087 002a 13       		.uleb128 0x13
 3088 002b 00       		.byte	0
 3089 002c 00       		.byte	0
 3090 002d 04       		.uleb128 0x4
 3091 002e 24       		.uleb128 0x24
 3092 002f 00       		.byte	0
 3093 0030 0B       		.uleb128 0xb
 3094 0031 0B       		.uleb128 0xb
 3095 0032 3E       		.uleb128 0x3e
 3096 0033 0B       		.uleb128 0xb
 3097 0034 03       		.uleb128 0x3
 3098 0035 0E       		.uleb128 0xe
 3099 0036 00       		.byte	0
 3100 0037 00       		.byte	0
 3101 0038 05       		.uleb128 0x5
 3102 0039 35       		.uleb128 0x35
 3103 003a 00       		.byte	0
 3104 003b 49       		.uleb128 0x49
 3105 003c 13       		.uleb128 0x13
 3106 003d 00       		.byte	0
 3107 003e 00       		.byte	0
 3108 003f 06       		.uleb128 0x6
 3109 0040 13       		.uleb128 0x13
 3110 0041 01       		.byte	0x1
 3111 0042 03       		.uleb128 0x3
 3112 0043 0E       		.uleb128 0xe
 3113 0044 0B       		.uleb128 0xb
 3114 0045 0B       		.uleb128 0xb
 3115 0046 3A       		.uleb128 0x3a
 3116 0047 0B       		.uleb128 0xb
 3117 0048 3B       		.uleb128 0x3b
 3118 0049 0B       		.uleb128 0xb
 3119 004a 39       		.uleb128 0x39
 3120 004b 0B       		.uleb128 0xb
 3121 004c 01       		.uleb128 0x1
ARM GAS  /tmp/cc5UaDAt.s 			page 56


 3122 004d 13       		.uleb128 0x13
 3123 004e 00       		.byte	0
 3124 004f 00       		.byte	0
 3125 0050 07       		.uleb128 0x7
 3126 0051 0D       		.uleb128 0xd
 3127 0052 00       		.byte	0
 3128 0053 03       		.uleb128 0x3
 3129 0054 0E       		.uleb128 0xe
 3130 0055 3A       		.uleb128 0x3a
 3131 0056 0B       		.uleb128 0xb
 3132 0057 3B       		.uleb128 0x3b
 3133 0058 0B       		.uleb128 0xb
 3134 0059 39       		.uleb128 0x39
 3135 005a 0B       		.uleb128 0xb
 3136 005b 49       		.uleb128 0x49
 3137 005c 13       		.uleb128 0x13
 3138 005d 38       		.uleb128 0x38
 3139 005e 0B       		.uleb128 0xb
 3140 005f 00       		.byte	0
 3141 0060 00       		.byte	0
 3142 0061 08       		.uleb128 0x8
 3143 0062 0D       		.uleb128 0xd
 3144 0063 00       		.byte	0
 3145 0064 03       		.uleb128 0x3
 3146 0065 08       		.uleb128 0x8
 3147 0066 3A       		.uleb128 0x3a
 3148 0067 0B       		.uleb128 0xb
 3149 0068 3B       		.uleb128 0x3b
 3150 0069 05       		.uleb128 0x5
 3151 006a 39       		.uleb128 0x39
 3152 006b 0B       		.uleb128 0xb
 3153 006c 49       		.uleb128 0x49
 3154 006d 13       		.uleb128 0x13
 3155 006e 38       		.uleb128 0x38
 3156 006f 0B       		.uleb128 0xb
 3157 0070 00       		.byte	0
 3158 0071 00       		.byte	0
 3159 0072 09       		.uleb128 0x9
 3160 0073 0D       		.uleb128 0xd
 3161 0074 00       		.byte	0
 3162 0075 03       		.uleb128 0x3
 3163 0076 0E       		.uleb128 0xe
 3164 0077 3A       		.uleb128 0x3a
 3165 0078 0B       		.uleb128 0xb
 3166 0079 3B       		.uleb128 0x3b
 3167 007a 05       		.uleb128 0x5
 3168 007b 39       		.uleb128 0x39
 3169 007c 0B       		.uleb128 0xb
 3170 007d 49       		.uleb128 0x49
 3171 007e 13       		.uleb128 0x13
 3172 007f 38       		.uleb128 0x38
 3173 0080 0B       		.uleb128 0xb
 3174 0081 00       		.byte	0
 3175 0082 00       		.byte	0
 3176 0083 0A       		.uleb128 0xa
 3177 0084 0F       		.uleb128 0xf
 3178 0085 00       		.byte	0
ARM GAS  /tmp/cc5UaDAt.s 			page 57


 3179 0086 0B       		.uleb128 0xb
 3180 0087 0B       		.uleb128 0xb
 3181 0088 49       		.uleb128 0x49
 3182 0089 13       		.uleb128 0x13
 3183 008a 00       		.byte	0
 3184 008b 00       		.byte	0
 3185 008c 0B       		.uleb128 0xb
 3186 008d 13       		.uleb128 0x13
 3187 008e 01       		.byte	0x1
 3188 008f 03       		.uleb128 0x3
 3189 0090 0E       		.uleb128 0xe
 3190 0091 0B       		.uleb128 0xb
 3191 0092 0B       		.uleb128 0xb
 3192 0093 3A       		.uleb128 0x3a
 3193 0094 0B       		.uleb128 0xb
 3194 0095 3B       		.uleb128 0x3b
 3195 0096 05       		.uleb128 0x5
 3196 0097 39       		.uleb128 0x39
 3197 0098 0B       		.uleb128 0xb
 3198 0099 01       		.uleb128 0x1
 3199 009a 13       		.uleb128 0x13
 3200 009b 00       		.byte	0
 3201 009c 00       		.byte	0
 3202 009d 0C       		.uleb128 0xc
 3203 009e 15       		.uleb128 0x15
 3204 009f 01       		.byte	0x1
 3205 00a0 27       		.uleb128 0x27
 3206 00a1 19       		.uleb128 0x19
 3207 00a2 01       		.uleb128 0x1
 3208 00a3 13       		.uleb128 0x13
 3209 00a4 00       		.byte	0
 3210 00a5 00       		.byte	0
 3211 00a6 0D       		.uleb128 0xd
 3212 00a7 05       		.uleb128 0x5
 3213 00a8 00       		.byte	0
 3214 00a9 49       		.uleb128 0x49
 3215 00aa 13       		.uleb128 0x13
 3216 00ab 00       		.byte	0
 3217 00ac 00       		.byte	0
 3218 00ad 0E       		.uleb128 0xe
 3219 00ae 0F       		.uleb128 0xf
 3220 00af 00       		.byte	0
 3221 00b0 0B       		.uleb128 0xb
 3222 00b1 0B       		.uleb128 0xb
 3223 00b2 00       		.byte	0
 3224 00b3 00       		.byte	0
 3225 00b4 0F       		.uleb128 0xf
 3226 00b5 13       		.uleb128 0x13
 3227 00b6 01       		.byte	0x1
 3228 00b7 03       		.uleb128 0x3
 3229 00b8 0E       		.uleb128 0xe
 3230 00b9 0B       		.uleb128 0xb
 3231 00ba 05       		.uleb128 0x5
 3232 00bb 3A       		.uleb128 0x3a
 3233 00bc 0B       		.uleb128 0xb
 3234 00bd 3B       		.uleb128 0x3b
 3235 00be 05       		.uleb128 0x5
ARM GAS  /tmp/cc5UaDAt.s 			page 58


 3236 00bf 39       		.uleb128 0x39
 3237 00c0 0B       		.uleb128 0xb
 3238 00c1 01       		.uleb128 0x1
 3239 00c2 13       		.uleb128 0x13
 3240 00c3 00       		.byte	0
 3241 00c4 00       		.byte	0
 3242 00c5 10       		.uleb128 0x10
 3243 00c6 0D       		.uleb128 0xd
 3244 00c7 00       		.byte	0
 3245 00c8 03       		.uleb128 0x3
 3246 00c9 0E       		.uleb128 0xe
 3247 00ca 3A       		.uleb128 0x3a
 3248 00cb 0B       		.uleb128 0xb
 3249 00cc 3B       		.uleb128 0x3b
 3250 00cd 05       		.uleb128 0x5
 3251 00ce 39       		.uleb128 0x39
 3252 00cf 0B       		.uleb128 0xb
 3253 00d0 49       		.uleb128 0x49
 3254 00d1 13       		.uleb128 0x13
 3255 00d2 38       		.uleb128 0x38
 3256 00d3 05       		.uleb128 0x5
 3257 00d4 00       		.byte	0
 3258 00d5 00       		.byte	0
 3259 00d6 11       		.uleb128 0x11
 3260 00d7 0D       		.uleb128 0xd
 3261 00d8 00       		.byte	0
 3262 00d9 03       		.uleb128 0x3
 3263 00da 08       		.uleb128 0x8
 3264 00db 3A       		.uleb128 0x3a
 3265 00dc 0B       		.uleb128 0xb
 3266 00dd 3B       		.uleb128 0x3b
 3267 00de 05       		.uleb128 0x5
 3268 00df 39       		.uleb128 0x39
 3269 00e0 0B       		.uleb128 0xb
 3270 00e1 49       		.uleb128 0x49
 3271 00e2 13       		.uleb128 0x13
 3272 00e3 38       		.uleb128 0x38
 3273 00e4 05       		.uleb128 0x5
 3274 00e5 00       		.byte	0
 3275 00e6 00       		.byte	0
 3276 00e7 12       		.uleb128 0x12
 3277 00e8 34       		.uleb128 0x34
 3278 00e9 00       		.byte	0
 3279 00ea 03       		.uleb128 0x3
 3280 00eb 0E       		.uleb128 0xe
 3281 00ec 3A       		.uleb128 0x3a
 3282 00ed 0B       		.uleb128 0xb
 3283 00ee 3B       		.uleb128 0x3b
 3284 00ef 05       		.uleb128 0x5
 3285 00f0 39       		.uleb128 0x39
 3286 00f1 0B       		.uleb128 0xb
 3287 00f2 49       		.uleb128 0x49
 3288 00f3 13       		.uleb128 0x13
 3289 00f4 3F       		.uleb128 0x3f
 3290 00f5 19       		.uleb128 0x19
 3291 00f6 3C       		.uleb128 0x3c
 3292 00f7 19       		.uleb128 0x19
ARM GAS  /tmp/cc5UaDAt.s 			page 59


 3293 00f8 00       		.byte	0
 3294 00f9 00       		.byte	0
 3295 00fa 13       		.uleb128 0x13
 3296 00fb 34       		.uleb128 0x34
 3297 00fc 00       		.byte	0
 3298 00fd 03       		.uleb128 0x3
 3299 00fe 0E       		.uleb128 0xe
 3300 00ff 3A       		.uleb128 0x3a
 3301 0100 0B       		.uleb128 0xb
 3302 0101 3B       		.uleb128 0x3b
 3303 0102 0B       		.uleb128 0xb
 3304 0103 39       		.uleb128 0x39
 3305 0104 0B       		.uleb128 0xb
 3306 0105 49       		.uleb128 0x49
 3307 0106 13       		.uleb128 0x13
 3308 0107 3F       		.uleb128 0x3f
 3309 0108 19       		.uleb128 0x19
 3310 0109 3C       		.uleb128 0x3c
 3311 010a 19       		.uleb128 0x19
 3312 010b 00       		.byte	0
 3313 010c 00       		.byte	0
 3314 010d 14       		.uleb128 0x14
 3315 010e 0D       		.uleb128 0xd
 3316 010f 00       		.byte	0
 3317 0110 03       		.uleb128 0x3
 3318 0111 08       		.uleb128 0x8
 3319 0112 3A       		.uleb128 0x3a
 3320 0113 0B       		.uleb128 0xb
 3321 0114 3B       		.uleb128 0x3b
 3322 0115 0B       		.uleb128 0xb
 3323 0116 39       		.uleb128 0x39
 3324 0117 0B       		.uleb128 0xb
 3325 0118 49       		.uleb128 0x49
 3326 0119 13       		.uleb128 0x13
 3327 011a 38       		.uleb128 0x38
 3328 011b 0B       		.uleb128 0xb
 3329 011c 00       		.byte	0
 3330 011d 00       		.byte	0
 3331 011e 15       		.uleb128 0x15
 3332 011f 13       		.uleb128 0x13
 3333 0120 01       		.byte	0x1
 3334 0121 0B       		.uleb128 0xb
 3335 0122 0B       		.uleb128 0xb
 3336 0123 3A       		.uleb128 0x3a
 3337 0124 0B       		.uleb128 0xb
 3338 0125 3B       		.uleb128 0x3b
 3339 0126 0B       		.uleb128 0xb
 3340 0127 39       		.uleb128 0x39
 3341 0128 0B       		.uleb128 0xb
 3342 0129 01       		.uleb128 0x1
 3343 012a 13       		.uleb128 0x13
 3344 012b 00       		.byte	0
 3345 012c 00       		.byte	0
 3346 012d 16       		.uleb128 0x16
 3347 012e 13       		.uleb128 0x13
 3348 012f 01       		.byte	0x1
 3349 0130 0B       		.uleb128 0xb
ARM GAS  /tmp/cc5UaDAt.s 			page 60


 3350 0131 05       		.uleb128 0x5
 3351 0132 3A       		.uleb128 0x3a
 3352 0133 0B       		.uleb128 0xb
 3353 0134 3B       		.uleb128 0x3b
 3354 0135 0B       		.uleb128 0xb
 3355 0136 39       		.uleb128 0x39
 3356 0137 0B       		.uleb128 0xb
 3357 0138 01       		.uleb128 0x1
 3358 0139 13       		.uleb128 0x13
 3359 013a 00       		.byte	0
 3360 013b 00       		.byte	0
 3361 013c 17       		.uleb128 0x17
 3362 013d 01       		.uleb128 0x1
 3363 013e 01       		.byte	0x1
 3364 013f 49       		.uleb128 0x49
 3365 0140 13       		.uleb128 0x13
 3366 0141 01       		.uleb128 0x1
 3367 0142 13       		.uleb128 0x13
 3368 0143 00       		.byte	0
 3369 0144 00       		.byte	0
 3370 0145 18       		.uleb128 0x18
 3371 0146 21       		.uleb128 0x21
 3372 0147 00       		.byte	0
 3373 0148 49       		.uleb128 0x49
 3374 0149 13       		.uleb128 0x13
 3375 014a 2F       		.uleb128 0x2f
 3376 014b 0B       		.uleb128 0xb
 3377 014c 00       		.byte	0
 3378 014d 00       		.byte	0
 3379 014e 19       		.uleb128 0x19
 3380 014f 17       		.uleb128 0x17
 3381 0150 01       		.byte	0x1
 3382 0151 0B       		.uleb128 0xb
 3383 0152 0B       		.uleb128 0xb
 3384 0153 3A       		.uleb128 0x3a
 3385 0154 0B       		.uleb128 0xb
 3386 0155 3B       		.uleb128 0x3b
 3387 0156 0B       		.uleb128 0xb
 3388 0157 39       		.uleb128 0x39
 3389 0158 0B       		.uleb128 0xb
 3390 0159 01       		.uleb128 0x1
 3391 015a 13       		.uleb128 0x13
 3392 015b 00       		.byte	0
 3393 015c 00       		.byte	0
 3394 015d 1A       		.uleb128 0x1a
 3395 015e 0D       		.uleb128 0xd
 3396 015f 00       		.byte	0
 3397 0160 03       		.uleb128 0x3
 3398 0161 0E       		.uleb128 0xe
 3399 0162 3A       		.uleb128 0x3a
 3400 0163 0B       		.uleb128 0xb
 3401 0164 3B       		.uleb128 0x3b
 3402 0165 05       		.uleb128 0x5
 3403 0166 39       		.uleb128 0x39
 3404 0167 0B       		.uleb128 0xb
 3405 0168 49       		.uleb128 0x49
 3406 0169 13       		.uleb128 0x13
ARM GAS  /tmp/cc5UaDAt.s 			page 61


 3407 016a 00       		.byte	0
 3408 016b 00       		.byte	0
 3409 016c 1B       		.uleb128 0x1b
 3410 016d 26       		.uleb128 0x26
 3411 016e 00       		.byte	0
 3412 016f 49       		.uleb128 0x49
 3413 0170 13       		.uleb128 0x13
 3414 0171 00       		.byte	0
 3415 0172 00       		.byte	0
 3416 0173 1C       		.uleb128 0x1c
 3417 0174 34       		.uleb128 0x34
 3418 0175 00       		.byte	0
 3419 0176 03       		.uleb128 0x3
 3420 0177 08       		.uleb128 0x8
 3421 0178 3A       		.uleb128 0x3a
 3422 0179 0B       		.uleb128 0xb
 3423 017a 3B       		.uleb128 0x3b
 3424 017b 05       		.uleb128 0x5
 3425 017c 39       		.uleb128 0x39
 3426 017d 0B       		.uleb128 0xb
 3427 017e 49       		.uleb128 0x49
 3428 017f 13       		.uleb128 0x13
 3429 0180 3F       		.uleb128 0x3f
 3430 0181 19       		.uleb128 0x19
 3431 0182 3C       		.uleb128 0x3c
 3432 0183 19       		.uleb128 0x19
 3433 0184 00       		.byte	0
 3434 0185 00       		.byte	0
 3435 0186 1D       		.uleb128 0x1d
 3436 0187 15       		.uleb128 0x15
 3437 0188 01       		.byte	0x1
 3438 0189 27       		.uleb128 0x27
 3439 018a 19       		.uleb128 0x19
 3440 018b 49       		.uleb128 0x49
 3441 018c 13       		.uleb128 0x13
 3442 018d 01       		.uleb128 0x1
 3443 018e 13       		.uleb128 0x13
 3444 018f 00       		.byte	0
 3445 0190 00       		.byte	0
 3446 0191 1E       		.uleb128 0x1e
 3447 0192 2E       		.uleb128 0x2e
 3448 0193 01       		.byte	0x1
 3449 0194 3F       		.uleb128 0x3f
 3450 0195 19       		.uleb128 0x19
 3451 0196 03       		.uleb128 0x3
 3452 0197 0E       		.uleb128 0xe
 3453 0198 3A       		.uleb128 0x3a
 3454 0199 0B       		.uleb128 0xb
 3455 019a 3B       		.uleb128 0x3b
 3456 019b 0B       		.uleb128 0xb
 3457 019c 39       		.uleb128 0x39
 3458 019d 0B       		.uleb128 0xb
 3459 019e 27       		.uleb128 0x27
 3460 019f 19       		.uleb128 0x19
 3461 01a0 11       		.uleb128 0x11
 3462 01a1 01       		.uleb128 0x1
 3463 01a2 12       		.uleb128 0x12
ARM GAS  /tmp/cc5UaDAt.s 			page 62


 3464 01a3 06       		.uleb128 0x6
 3465 01a4 40       		.uleb128 0x40
 3466 01a5 18       		.uleb128 0x18
 3467 01a6 9742     		.uleb128 0x2117
 3468 01a8 19       		.uleb128 0x19
 3469 01a9 01       		.uleb128 0x1
 3470 01aa 13       		.uleb128 0x13
 3471 01ab 00       		.byte	0
 3472 01ac 00       		.byte	0
 3473 01ad 1F       		.uleb128 0x1f
 3474 01ae 05       		.uleb128 0x5
 3475 01af 00       		.byte	0
 3476 01b0 03       		.uleb128 0x3
 3477 01b1 08       		.uleb128 0x8
 3478 01b2 3A       		.uleb128 0x3a
 3479 01b3 0B       		.uleb128 0xb
 3480 01b4 3B       		.uleb128 0x3b
 3481 01b5 0B       		.uleb128 0xb
 3482 01b6 39       		.uleb128 0x39
 3483 01b7 0B       		.uleb128 0xb
 3484 01b8 49       		.uleb128 0x49
 3485 01b9 13       		.uleb128 0x13
 3486 01ba 02       		.uleb128 0x2
 3487 01bb 17       		.uleb128 0x17
 3488 01bc B742     		.uleb128 0x2137
 3489 01be 17       		.uleb128 0x17
 3490 01bf 00       		.byte	0
 3491 01c0 00       		.byte	0
 3492 01c1 20       		.uleb128 0x20
 3493 01c2 05       		.uleb128 0x5
 3494 01c3 00       		.byte	0
 3495 01c4 03       		.uleb128 0x3
 3496 01c5 0E       		.uleb128 0xe
 3497 01c6 3A       		.uleb128 0x3a
 3498 01c7 0B       		.uleb128 0xb
 3499 01c8 3B       		.uleb128 0x3b
 3500 01c9 0B       		.uleb128 0xb
 3501 01ca 39       		.uleb128 0x39
 3502 01cb 0B       		.uleb128 0xb
 3503 01cc 49       		.uleb128 0x49
 3504 01cd 13       		.uleb128 0x13
 3505 01ce 02       		.uleb128 0x2
 3506 01cf 17       		.uleb128 0x17
 3507 01d0 B742     		.uleb128 0x2137
 3508 01d2 17       		.uleb128 0x17
 3509 01d3 00       		.byte	0
 3510 01d4 00       		.byte	0
 3511 01d5 21       		.uleb128 0x21
 3512 01d6 1D       		.uleb128 0x1d
 3513 01d7 01       		.byte	0x1
 3514 01d8 31       		.uleb128 0x31
 3515 01d9 13       		.uleb128 0x13
 3516 01da 52       		.uleb128 0x52
 3517 01db 01       		.uleb128 0x1
 3518 01dc B842     		.uleb128 0x2138
 3519 01de 0B       		.uleb128 0xb
 3520 01df 55       		.uleb128 0x55
ARM GAS  /tmp/cc5UaDAt.s 			page 63


 3521 01e0 17       		.uleb128 0x17
 3522 01e1 58       		.uleb128 0x58
 3523 01e2 0B       		.uleb128 0xb
 3524 01e3 59       		.uleb128 0x59
 3525 01e4 0B       		.uleb128 0xb
 3526 01e5 57       		.uleb128 0x57
 3527 01e6 0B       		.uleb128 0xb
 3528 01e7 01       		.uleb128 0x1
 3529 01e8 13       		.uleb128 0x13
 3530 01e9 00       		.byte	0
 3531 01ea 00       		.byte	0
 3532 01eb 22       		.uleb128 0x22
 3533 01ec 1D       		.uleb128 0x1d
 3534 01ed 01       		.byte	0x1
 3535 01ee 31       		.uleb128 0x31
 3536 01ef 13       		.uleb128 0x13
 3537 01f0 52       		.uleb128 0x52
 3538 01f1 01       		.uleb128 0x1
 3539 01f2 B842     		.uleb128 0x2138
 3540 01f4 0B       		.uleb128 0xb
 3541 01f5 55       		.uleb128 0x55
 3542 01f6 17       		.uleb128 0x17
 3543 01f7 58       		.uleb128 0x58
 3544 01f8 0B       		.uleb128 0xb
 3545 01f9 59       		.uleb128 0x59
 3546 01fa 05       		.uleb128 0x5
 3547 01fb 57       		.uleb128 0x57
 3548 01fc 0B       		.uleb128 0xb
 3549 01fd 01       		.uleb128 0x1
 3550 01fe 13       		.uleb128 0x13
 3551 01ff 00       		.byte	0
 3552 0200 00       		.byte	0
 3553 0201 23       		.uleb128 0x23
 3554 0202 1D       		.uleb128 0x1d
 3555 0203 01       		.byte	0x1
 3556 0204 31       		.uleb128 0x31
 3557 0205 13       		.uleb128 0x13
 3558 0206 52       		.uleb128 0x52
 3559 0207 01       		.uleb128 0x1
 3560 0208 B842     		.uleb128 0x2138
 3561 020a 0B       		.uleb128 0xb
 3562 020b 11       		.uleb128 0x11
 3563 020c 01       		.uleb128 0x1
 3564 020d 12       		.uleb128 0x12
 3565 020e 06       		.uleb128 0x6
 3566 020f 58       		.uleb128 0x58
 3567 0210 0B       		.uleb128 0xb
 3568 0211 59       		.uleb128 0x59
 3569 0212 05       		.uleb128 0x5
 3570 0213 57       		.uleb128 0x57
 3571 0214 0B       		.uleb128 0xb
 3572 0215 00       		.byte	0
 3573 0216 00       		.byte	0
 3574 0217 24       		.uleb128 0x24
 3575 0218 05       		.uleb128 0x5
 3576 0219 00       		.byte	0
 3577 021a 31       		.uleb128 0x31
ARM GAS  /tmp/cc5UaDAt.s 			page 64


 3578 021b 13       		.uleb128 0x13
 3579 021c 02       		.uleb128 0x2
 3580 021d 17       		.uleb128 0x17
 3581 021e B742     		.uleb128 0x2137
 3582 0220 17       		.uleb128 0x17
 3583 0221 00       		.byte	0
 3584 0222 00       		.byte	0
 3585 0223 25       		.uleb128 0x25
 3586 0224 898201   		.uleb128 0x4109
 3587 0227 00       		.byte	0
 3588 0228 11       		.uleb128 0x11
 3589 0229 01       		.uleb128 0x1
 3590 022a 31       		.uleb128 0x31
 3591 022b 13       		.uleb128 0x13
 3592 022c 00       		.byte	0
 3593 022d 00       		.byte	0
 3594 022e 26       		.uleb128 0x26
 3595 022f 0B       		.uleb128 0xb
 3596 0230 01       		.byte	0x1
 3597 0231 55       		.uleb128 0x55
 3598 0232 17       		.uleb128 0x17
 3599 0233 00       		.byte	0
 3600 0234 00       		.byte	0
 3601 0235 27       		.uleb128 0x27
 3602 0236 898201   		.uleb128 0x4109
 3603 0239 01       		.byte	0x1
 3604 023a 11       		.uleb128 0x11
 3605 023b 01       		.uleb128 0x1
 3606 023c 31       		.uleb128 0x31
 3607 023d 13       		.uleb128 0x13
 3608 023e 00       		.byte	0
 3609 023f 00       		.byte	0
 3610 0240 28       		.uleb128 0x28
 3611 0241 8A8201   		.uleb128 0x410a
 3612 0244 00       		.byte	0
 3613 0245 02       		.uleb128 0x2
 3614 0246 18       		.uleb128 0x18
 3615 0247 9142     		.uleb128 0x2111
 3616 0249 18       		.uleb128 0x18
 3617 024a 00       		.byte	0
 3618 024b 00       		.byte	0
 3619 024c 29       		.uleb128 0x29
 3620 024d 898201   		.uleb128 0x4109
 3621 0250 01       		.byte	0x1
 3622 0251 11       		.uleb128 0x11
 3623 0252 01       		.uleb128 0x1
 3624 0253 31       		.uleb128 0x31
 3625 0254 13       		.uleb128 0x13
 3626 0255 01       		.uleb128 0x1
 3627 0256 13       		.uleb128 0x13
 3628 0257 00       		.byte	0
 3629 0258 00       		.byte	0
 3630 0259 2A       		.uleb128 0x2a
 3631 025a 34       		.uleb128 0x34
 3632 025b 00       		.byte	0
 3633 025c 03       		.uleb128 0x3
 3634 025d 08       		.uleb128 0x8
ARM GAS  /tmp/cc5UaDAt.s 			page 65


 3635 025e 3A       		.uleb128 0x3a
 3636 025f 0B       		.uleb128 0xb
 3637 0260 3B       		.uleb128 0x3b
 3638 0261 0B       		.uleb128 0xb
 3639 0262 39       		.uleb128 0x39
 3640 0263 0B       		.uleb128 0xb
 3641 0264 49       		.uleb128 0x49
 3642 0265 13       		.uleb128 0x13
 3643 0266 02       		.uleb128 0x2
 3644 0267 17       		.uleb128 0x17
 3645 0268 B742     		.uleb128 0x2137
 3646 026a 17       		.uleb128 0x17
 3647 026b 00       		.byte	0
 3648 026c 00       		.byte	0
 3649 026d 2B       		.uleb128 0x2b
 3650 026e 34       		.uleb128 0x34
 3651 026f 00       		.byte	0
 3652 0270 03       		.uleb128 0x3
 3653 0271 0E       		.uleb128 0xe
 3654 0272 49       		.uleb128 0x49
 3655 0273 13       		.uleb128 0x13
 3656 0274 34       		.uleb128 0x34
 3657 0275 19       		.uleb128 0x19
 3658 0276 02       		.uleb128 0x2
 3659 0277 18       		.uleb128 0x18
 3660 0278 00       		.byte	0
 3661 0279 00       		.byte	0
 3662 027a 2C       		.uleb128 0x2c
 3663 027b 2E       		.uleb128 0x2e
 3664 027c 01       		.byte	0x1
 3665 027d 3F       		.uleb128 0x3f
 3666 027e 19       		.uleb128 0x19
 3667 027f 03       		.uleb128 0x3
 3668 0280 0E       		.uleb128 0xe
 3669 0281 3A       		.uleb128 0x3a
 3670 0282 0B       		.uleb128 0xb
 3671 0283 3B       		.uleb128 0x3b
 3672 0284 0B       		.uleb128 0xb
 3673 0285 39       		.uleb128 0x39
 3674 0286 0B       		.uleb128 0xb
 3675 0287 27       		.uleb128 0x27
 3676 0288 19       		.uleb128 0x19
 3677 0289 49       		.uleb128 0x49
 3678 028a 13       		.uleb128 0x13
 3679 028b 11       		.uleb128 0x11
 3680 028c 01       		.uleb128 0x1
 3681 028d 12       		.uleb128 0x12
 3682 028e 06       		.uleb128 0x6
 3683 028f 40       		.uleb128 0x40
 3684 0290 18       		.uleb128 0x18
 3685 0291 9742     		.uleb128 0x2117
 3686 0293 19       		.uleb128 0x19
 3687 0294 01       		.uleb128 0x1
 3688 0295 13       		.uleb128 0x13
 3689 0296 00       		.byte	0
 3690 0297 00       		.byte	0
 3691 0298 2D       		.uleb128 0x2d
ARM GAS  /tmp/cc5UaDAt.s 			page 66


 3692 0299 34       		.uleb128 0x34
 3693 029a 00       		.byte	0
 3694 029b 03       		.uleb128 0x3
 3695 029c 0E       		.uleb128 0xe
 3696 029d 3A       		.uleb128 0x3a
 3697 029e 0B       		.uleb128 0xb
 3698 029f 3B       		.uleb128 0x3b
 3699 02a0 0B       		.uleb128 0xb
 3700 02a1 39       		.uleb128 0x39
 3701 02a2 0B       		.uleb128 0xb
 3702 02a3 49       		.uleb128 0x49
 3703 02a4 13       		.uleb128 0x13
 3704 02a5 02       		.uleb128 0x2
 3705 02a6 17       		.uleb128 0x17
 3706 02a7 B742     		.uleb128 0x2137
 3707 02a9 17       		.uleb128 0x17
 3708 02aa 00       		.byte	0
 3709 02ab 00       		.byte	0
 3710 02ac 2E       		.uleb128 0x2e
 3711 02ad 2E       		.uleb128 0x2e
 3712 02ae 01       		.byte	0x1
 3713 02af 3F       		.uleb128 0x3f
 3714 02b0 19       		.uleb128 0x19
 3715 02b1 03       		.uleb128 0x3
 3716 02b2 0E       		.uleb128 0xe
 3717 02b3 3A       		.uleb128 0x3a
 3718 02b4 0B       		.uleb128 0xb
 3719 02b5 3B       		.uleb128 0x3b
 3720 02b6 0B       		.uleb128 0xb
 3721 02b7 39       		.uleb128 0x39
 3722 02b8 0B       		.uleb128 0xb
 3723 02b9 27       		.uleb128 0x27
 3724 02ba 19       		.uleb128 0x19
 3725 02bb 49       		.uleb128 0x49
 3726 02bc 13       		.uleb128 0x13
 3727 02bd 20       		.uleb128 0x20
 3728 02be 0B       		.uleb128 0xb
 3729 02bf 01       		.uleb128 0x1
 3730 02c0 13       		.uleb128 0x13
 3731 02c1 00       		.byte	0
 3732 02c2 00       		.byte	0
 3733 02c3 2F       		.uleb128 0x2f
 3734 02c4 05       		.uleb128 0x5
 3735 02c5 00       		.byte	0
 3736 02c6 03       		.uleb128 0x3
 3737 02c7 08       		.uleb128 0x8
 3738 02c8 3A       		.uleb128 0x3a
 3739 02c9 0B       		.uleb128 0xb
 3740 02ca 3B       		.uleb128 0x3b
 3741 02cb 0B       		.uleb128 0xb
 3742 02cc 39       		.uleb128 0x39
 3743 02cd 0B       		.uleb128 0xb
 3744 02ce 49       		.uleb128 0x49
 3745 02cf 13       		.uleb128 0x13
 3746 02d0 00       		.byte	0
 3747 02d1 00       		.byte	0
 3748 02d2 30       		.uleb128 0x30
ARM GAS  /tmp/cc5UaDAt.s 			page 67


 3749 02d3 34       		.uleb128 0x34
 3750 02d4 00       		.byte	0
 3751 02d5 03       		.uleb128 0x3
 3752 02d6 0E       		.uleb128 0xe
 3753 02d7 3A       		.uleb128 0x3a
 3754 02d8 0B       		.uleb128 0xb
 3755 02d9 3B       		.uleb128 0x3b
 3756 02da 0B       		.uleb128 0xb
 3757 02db 39       		.uleb128 0x39
 3758 02dc 0B       		.uleb128 0xb
 3759 02dd 49       		.uleb128 0x49
 3760 02de 13       		.uleb128 0x13
 3761 02df 00       		.byte	0
 3762 02e0 00       		.byte	0
 3763 02e1 31       		.uleb128 0x31
 3764 02e2 1D       		.uleb128 0x1d
 3765 02e3 01       		.byte	0x1
 3766 02e4 31       		.uleb128 0x31
 3767 02e5 13       		.uleb128 0x13
 3768 02e6 52       		.uleb128 0x52
 3769 02e7 01       		.uleb128 0x1
 3770 02e8 B842     		.uleb128 0x2138
 3771 02ea 0B       		.uleb128 0xb
 3772 02eb 11       		.uleb128 0x11
 3773 02ec 01       		.uleb128 0x1
 3774 02ed 12       		.uleb128 0x12
 3775 02ee 06       		.uleb128 0x6
 3776 02ef 58       		.uleb128 0x58
 3777 02f0 0B       		.uleb128 0xb
 3778 02f1 59       		.uleb128 0x59
 3779 02f2 0B       		.uleb128 0xb
 3780 02f3 57       		.uleb128 0x57
 3781 02f4 0B       		.uleb128 0xb
 3782 02f5 01       		.uleb128 0x1
 3783 02f6 13       		.uleb128 0x13
 3784 02f7 00       		.byte	0
 3785 02f8 00       		.byte	0
 3786 02f9 32       		.uleb128 0x32
 3787 02fa 898201   		.uleb128 0x4109
 3788 02fd 01       		.byte	0x1
 3789 02fe 11       		.uleb128 0x11
 3790 02ff 01       		.uleb128 0x1
 3791 0300 9542     		.uleb128 0x2115
 3792 0302 19       		.uleb128 0x19
 3793 0303 31       		.uleb128 0x31
 3794 0304 13       		.uleb128 0x13
 3795 0305 01       		.uleb128 0x1
 3796 0306 13       		.uleb128 0x13
 3797 0307 00       		.byte	0
 3798 0308 00       		.byte	0
 3799 0309 33       		.uleb128 0x33
 3800 030a 2E       		.uleb128 0x2e
 3801 030b 01       		.byte	0x1
 3802 030c 03       		.uleb128 0x3
 3803 030d 0E       		.uleb128 0xe
 3804 030e 3A       		.uleb128 0x3a
 3805 030f 0B       		.uleb128 0xb
ARM GAS  /tmp/cc5UaDAt.s 			page 68


 3806 0310 3B       		.uleb128 0x3b
 3807 0311 0B       		.uleb128 0xb
 3808 0312 39       		.uleb128 0x39
 3809 0313 0B       		.uleb128 0xb
 3810 0314 27       		.uleb128 0x27
 3811 0315 19       		.uleb128 0x19
 3812 0316 20       		.uleb128 0x20
 3813 0317 0B       		.uleb128 0xb
 3814 0318 01       		.uleb128 0x1
 3815 0319 13       		.uleb128 0x13
 3816 031a 00       		.byte	0
 3817 031b 00       		.byte	0
 3818 031c 34       		.uleb128 0x34
 3819 031d 05       		.uleb128 0x5
 3820 031e 00       		.byte	0
 3821 031f 03       		.uleb128 0x3
 3822 0320 0E       		.uleb128 0xe
 3823 0321 3A       		.uleb128 0x3a
 3824 0322 0B       		.uleb128 0xb
 3825 0323 3B       		.uleb128 0x3b
 3826 0324 0B       		.uleb128 0xb
 3827 0325 39       		.uleb128 0x39
 3828 0326 0B       		.uleb128 0xb
 3829 0327 49       		.uleb128 0x49
 3830 0328 13       		.uleb128 0x13
 3831 0329 00       		.byte	0
 3832 032a 00       		.byte	0
 3833 032b 35       		.uleb128 0x35
 3834 032c 2E       		.uleb128 0x2e
 3835 032d 01       		.byte	0x1
 3836 032e 03       		.uleb128 0x3
 3837 032f 0E       		.uleb128 0xe
 3838 0330 3A       		.uleb128 0x3a
 3839 0331 0B       		.uleb128 0xb
 3840 0332 3B       		.uleb128 0x3b
 3841 0333 05       		.uleb128 0x5
 3842 0334 39       		.uleb128 0x39
 3843 0335 0B       		.uleb128 0xb
 3844 0336 27       		.uleb128 0x27
 3845 0337 19       		.uleb128 0x19
 3846 0338 20       		.uleb128 0x20
 3847 0339 0B       		.uleb128 0xb
 3848 033a 01       		.uleb128 0x1
 3849 033b 13       		.uleb128 0x13
 3850 033c 00       		.byte	0
 3851 033d 00       		.byte	0
 3852 033e 36       		.uleb128 0x36
 3853 033f 2E       		.uleb128 0x2e
 3854 0340 00       		.byte	0
 3855 0341 03       		.uleb128 0x3
 3856 0342 0E       		.uleb128 0xe
 3857 0343 3A       		.uleb128 0x3a
 3858 0344 0B       		.uleb128 0xb
 3859 0345 3B       		.uleb128 0x3b
 3860 0346 05       		.uleb128 0x5
 3861 0347 39       		.uleb128 0x39
 3862 0348 0B       		.uleb128 0xb
ARM GAS  /tmp/cc5UaDAt.s 			page 69


 3863 0349 27       		.uleb128 0x27
 3864 034a 19       		.uleb128 0x19
 3865 034b 20       		.uleb128 0x20
 3866 034c 0B       		.uleb128 0xb
 3867 034d 00       		.byte	0
 3868 034e 00       		.byte	0
 3869 034f 37       		.uleb128 0x37
 3870 0350 05       		.uleb128 0x5
 3871 0351 00       		.byte	0
 3872 0352 03       		.uleb128 0x3
 3873 0353 0E       		.uleb128 0xe
 3874 0354 3A       		.uleb128 0x3a
 3875 0355 0B       		.uleb128 0xb
 3876 0356 3B       		.uleb128 0x3b
 3877 0357 05       		.uleb128 0x5
 3878 0358 39       		.uleb128 0x39
 3879 0359 0B       		.uleb128 0xb
 3880 035a 49       		.uleb128 0x49
 3881 035b 13       		.uleb128 0x13
 3882 035c 00       		.byte	0
 3883 035d 00       		.byte	0
 3884 035e 38       		.uleb128 0x38
 3885 035f 2E       		.uleb128 0x2e
 3886 0360 01       		.byte	0x1
 3887 0361 31       		.uleb128 0x31
 3888 0362 13       		.uleb128 0x13
 3889 0363 11       		.uleb128 0x11
 3890 0364 01       		.uleb128 0x1
 3891 0365 12       		.uleb128 0x12
 3892 0366 06       		.uleb128 0x6
 3893 0367 40       		.uleb128 0x40
 3894 0368 18       		.uleb128 0x18
 3895 0369 01       		.uleb128 0x1
 3896 036a 13       		.uleb128 0x13
 3897 036b 00       		.byte	0
 3898 036c 00       		.byte	0
 3899 036d 39       		.uleb128 0x39
 3900 036e 34       		.uleb128 0x34
 3901 036f 00       		.byte	0
 3902 0370 31       		.uleb128 0x31
 3903 0371 13       		.uleb128 0x13
 3904 0372 02       		.uleb128 0x2
 3905 0373 17       		.uleb128 0x17
 3906 0374 B742     		.uleb128 0x2137
 3907 0376 17       		.uleb128 0x17
 3908 0377 00       		.byte	0
 3909 0378 00       		.byte	0
 3910 0379 3A       		.uleb128 0x3a
 3911 037a 34       		.uleb128 0x34
 3912 037b 00       		.byte	0
 3913 037c 31       		.uleb128 0x31
 3914 037d 13       		.uleb128 0x13
 3915 037e 02       		.uleb128 0x2
 3916 037f 18       		.uleb128 0x18
 3917 0380 00       		.byte	0
 3918 0381 00       		.byte	0
 3919 0382 3B       		.uleb128 0x3b
ARM GAS  /tmp/cc5UaDAt.s 			page 70


 3920 0383 2E       		.uleb128 0x2e
 3921 0384 00       		.byte	0
 3922 0385 3F       		.uleb128 0x3f
 3923 0386 19       		.uleb128 0x19
 3924 0387 3C       		.uleb128 0x3c
 3925 0388 19       		.uleb128 0x19
 3926 0389 6E       		.uleb128 0x6e
 3927 038a 0E       		.uleb128 0xe
 3928 038b 03       		.uleb128 0x3
 3929 038c 0E       		.uleb128 0xe
 3930 038d 3A       		.uleb128 0x3a
 3931 038e 0B       		.uleb128 0xb
 3932 038f 3B       		.uleb128 0x3b
 3933 0390 0B       		.uleb128 0xb
 3934 0391 39       		.uleb128 0x39
 3935 0392 0B       		.uleb128 0xb
 3936 0393 00       		.byte	0
 3937 0394 00       		.byte	0
 3938 0395 3C       		.uleb128 0x3c
 3939 0396 2E       		.uleb128 0x2e
 3940 0397 00       		.byte	0
 3941 0398 3F       		.uleb128 0x3f
 3942 0399 19       		.uleb128 0x19
 3943 039a 3C       		.uleb128 0x3c
 3944 039b 19       		.uleb128 0x19
 3945 039c 6E       		.uleb128 0x6e
 3946 039d 0E       		.uleb128 0xe
 3947 039e 03       		.uleb128 0x3
 3948 039f 0E       		.uleb128 0xe
 3949 03a0 3A       		.uleb128 0x3a
 3950 03a1 0B       		.uleb128 0xb
 3951 03a2 3B       		.uleb128 0x3b
 3952 03a3 05       		.uleb128 0x5
 3953 03a4 39       		.uleb128 0x39
 3954 03a5 0B       		.uleb128 0xb
 3955 03a6 00       		.byte	0
 3956 03a7 00       		.byte	0
 3957 03a8 3D       		.uleb128 0x3d
 3958 03a9 2E       		.uleb128 0x2e
 3959 03aa 00       		.byte	0
 3960 03ab 3F       		.uleb128 0x3f
 3961 03ac 19       		.uleb128 0x19
 3962 03ad 3C       		.uleb128 0x3c
 3963 03ae 19       		.uleb128 0x19
 3964 03af 6E       		.uleb128 0x6e
 3965 03b0 0E       		.uleb128 0xe
 3966 03b1 03       		.uleb128 0x3
 3967 03b2 0E       		.uleb128 0xe
 3968 03b3 00       		.byte	0
 3969 03b4 00       		.byte	0
 3970 03b5 00       		.byte	0
 3971              		.section	.debug_loc,"",%progbits
 3972              	.Ldebug_loc0:
 3973              	.LVUS13:
 3974 0000 00       		.uleb128 0
 3975 0001 00       		.uleb128 .LVU116
 3976 0002 00       		.uleb128 .LVU116
ARM GAS  /tmp/cc5UaDAt.s 			page 71


 3977 0003 00       		.uleb128 0
 3978              	.LLST13:
 3979 0004 00000000 		.4byte	.LVL36
 3980 0008 1B000000 		.4byte	.LVL39-1
 3981 000c 0100     		.2byte	0x1
 3982 000e 50       		.byte	0x50
 3983 000f 1B000000 		.4byte	.LVL39-1
 3984 0013 70000000 		.4byte	.LFE224
 3985 0017 0200     		.2byte	0x2
 3986 0019 91       		.byte	0x91
 3987 001a 6C       		.sleb128 -20
 3988 001b 00000000 		.4byte	0
 3989 001f 00000000 		.4byte	0
 3990              	.LVUS14:
 3991 0023 00       		.uleb128 0
 3992 0024 00       		.uleb128 .LVU116
 3993 0025 00       		.uleb128 .LVU116
 3994 0026 00       		.uleb128 .LVU133
 3995 0027 00       		.uleb128 .LVU133
 3996 0028 00       		.uleb128 .LVU134
 3997 0029 00       		.uleb128 .LVU134
 3998 002a 00       		.uleb128 0
 3999              	.LLST14:
 4000 002b 00000000 		.4byte	.LVL36
 4001 002f 1B000000 		.4byte	.LVL39-1
 4002 0033 0100     		.2byte	0x1
 4003 0035 51       		.byte	0x51
 4004 0036 1B000000 		.4byte	.LVL39-1
 4005 003a 54000000 		.4byte	.LVL46
 4006 003e 0200     		.2byte	0x2
 4007 0040 7D       		.byte	0x7d
 4008 0041 00       		.sleb128 0
 4009 0042 54000000 		.4byte	.LVL46
 4010 0046 58000000 		.4byte	.LVL47
 4011 004a 0200     		.2byte	0x2
 4012 004c 91       		.byte	0x91
 4013 004d 68       		.sleb128 -24
 4014 004e 58000000 		.4byte	.LVL47
 4015 0052 70000000 		.4byte	.LFE224
 4016 0056 0200     		.2byte	0x2
 4017 0058 7D       		.byte	0x7d
 4018 0059 00       		.sleb128 0
 4019 005a 00000000 		.4byte	0
 4020 005e 00000000 		.4byte	0
 4021              	.LVUS15:
 4022 0062 05       		.uleb128 .LVU112
 4023 0063 00       		.uleb128 .LVU114
 4024              	.LLST15:
 4025 0064 12000000 		.4byte	.LVL37
 4026 0068 18000000 		.4byte	.LVL38
 4027 006c 0300     		.2byte	0x3
 4028 006e 08       		.byte	0x8
 4029 006f 20       		.byte	0x20
 4030 0070 9F       		.byte	0x9f
 4031 0071 00000000 		.4byte	0
 4032 0075 00000000 		.4byte	0
 4033              	.LVUS16:
ARM GAS  /tmp/cc5UaDAt.s 			page 72


 4034 0079 04       		.uleb128 .LVU129
 4035 007a 00       		.uleb128 .LVU131
 4036              	.LLST16:
 4037 007b 42000000 		.4byte	.LVL44
 4038 007f 48000000 		.4byte	.LVL45
 4039 0083 0200     		.2byte	0x2
 4040 0085 30       		.byte	0x30
 4041 0086 9F       		.byte	0x9f
 4042 0087 00000000 		.4byte	0
 4043 008b 00000000 		.4byte	0
 4044              	.LVUS10:
 4045 008f 00       		.uleb128 0
 4046 0090 00       		.uleb128 .LVU89
 4047 0091 00       		.uleb128 .LVU89
 4048 0092 00       		.uleb128 0
 4049              	.LLST10:
 4050 0093 00000000 		.4byte	.LVL30
 4051 0097 15000000 		.4byte	.LVL32-1
 4052 009b 0100     		.2byte	0x1
 4053 009d 50       		.byte	0x50
 4054 009e 15000000 		.4byte	.LVL32-1
 4055 00a2 44000000 		.4byte	.LFE223
 4056 00a6 0100     		.2byte	0x1
 4057 00a8 54       		.byte	0x54
 4058 00a9 00000000 		.4byte	0
 4059 00ad 00000000 		.4byte	0
 4060              	.LVUS11:
 4061 00b1 00       		.uleb128 0
 4062 00b2 00       		.uleb128 .LVU89
 4063 00b3 00       		.uleb128 .LVU89
 4064 00b4 00       		.uleb128 0
 4065              	.LLST11:
 4066 00b5 00000000 		.4byte	.LVL30
 4067 00b9 15000000 		.4byte	.LVL32-1
 4068 00bd 0100     		.2byte	0x1
 4069 00bf 51       		.byte	0x51
 4070 00c0 15000000 		.4byte	.LVL32-1
 4071 00c4 44000000 		.4byte	.LFE223
 4072 00c8 0100     		.2byte	0x1
 4073 00ca 55       		.byte	0x55
 4074 00cb 00000000 		.4byte	0
 4075 00cf 00000000 		.4byte	0
 4076              	.LVUS12:
 4077 00d3 01       		.uleb128 .LVU88
 4078 00d4 00       		.uleb128 .LVU89
 4079 00d5 00       		.uleb128 .LVU89
 4080 00d6 00       		.uleb128 0
 4081              	.LLST12:
 4082 00d7 12000000 		.4byte	.LVL31
 4083 00db 15000000 		.4byte	.LVL32-1
 4084 00df 0100     		.2byte	0x1
 4085 00e1 51       		.byte	0x51
 4086 00e2 15000000 		.4byte	.LVL32-1
 4087 00e6 44000000 		.4byte	.LFE223
 4088 00ea 0100     		.2byte	0x1
 4089 00ec 55       		.byte	0x55
 4090 00ed 00000000 		.4byte	0
ARM GAS  /tmp/cc5UaDAt.s 			page 73


 4091 00f1 00000000 		.4byte	0
 4092              	.LVUS6:
 4093 00f5 00       		.uleb128 0
 4094 00f6 00       		.uleb128 .LVU63
 4095 00f7 00       		.uleb128 .LVU63
 4096 00f8 00       		.uleb128 0
 4097              	.LLST6:
 4098 00f9 00000000 		.4byte	.LVL16
 4099 00fd 19000000 		.4byte	.LVL19-1
 4100 0101 0100     		.2byte	0x1
 4101 0103 50       		.byte	0x50
 4102 0104 19000000 		.4byte	.LVL19-1
 4103 0108 70000000 		.4byte	.LFE222
 4104 010c 0200     		.2byte	0x2
 4105 010e 91       		.byte	0x91
 4106 010f 6C       		.sleb128 -20
 4107 0110 00000000 		.4byte	0
 4108 0114 00000000 		.4byte	0
 4109              	.LVUS7:
 4110 0118 00       		.uleb128 .LVU66
 4111 0119 00       		.uleb128 .LVU69
 4112 011a 00       		.uleb128 .LVU69
 4113 011b 00       		.uleb128 0
 4114              	.LLST7:
 4115 011c 26000000 		.4byte	.LVL22
 4116 0120 29000000 		.4byte	.LVL23-1
 4117 0124 0100     		.2byte	0x1
 4118 0126 50       		.byte	0x50
 4119 0127 29000000 		.4byte	.LVL23-1
 4120 012b 70000000 		.4byte	.LFE222
 4121 012f 0100     		.2byte	0x1
 4122 0131 54       		.byte	0x54
 4123 0132 00000000 		.4byte	0
 4124 0136 00000000 		.4byte	0
 4125              	.LVUS8:
 4126 013a 06       		.uleb128 .LVU59
 4127 013b 00       		.uleb128 .LVU61
 4128              	.LLST8:
 4129 013c 10000000 		.4byte	.LVL17
 4130 0140 16000000 		.4byte	.LVL18
 4131 0144 0300     		.2byte	0x3
 4132 0146 08       		.byte	0x8
 4133 0147 20       		.byte	0x20
 4134 0148 9F       		.byte	0x9f
 4135 0149 00000000 		.4byte	0
 4136 014d 00000000 		.4byte	0
 4137              	.LVUS9:
 4138 0151 04       		.uleb128 .LVU77
 4139 0152 00       		.uleb128 .LVU79
 4140              	.LLST9:
 4141 0153 40000000 		.4byte	.LVL25
 4142 0157 46000000 		.4byte	.LVL26
 4143 015b 0200     		.2byte	0x2
 4144 015d 30       		.byte	0x30
 4145 015e 9F       		.byte	0x9f
 4146 015f 00000000 		.4byte	0
 4147 0163 00000000 		.4byte	0
ARM GAS  /tmp/cc5UaDAt.s 			page 74


 4148              	.LVUS17:
 4149 0167 00       		.uleb128 0
 4150 0168 00       		.uleb128 .LVU145
 4151 0169 00       		.uleb128 .LVU145
 4152 016a 00       		.uleb128 .LVU146
 4153 016b 00       		.uleb128 .LVU146
 4154 016c 00       		.uleb128 .LVU147
 4155 016d 00       		.uleb128 .LVU147
 4156 016e 00       		.uleb128 .LVU148
 4157 016f 00       		.uleb128 .LVU148
 4158 0170 00       		.uleb128 0
 4159              	.LLST17:
 4160 0171 00000000 		.4byte	.LVL50
 4161 0175 24000000 		.4byte	.LVL52
 4162 0179 0100     		.2byte	0x1
 4163 017b 50       		.byte	0x50
 4164 017c 24000000 		.4byte	.LVL52
 4165 0180 2A000000 		.4byte	.LVL53
 4166 0184 0100     		.2byte	0x1
 4167 0186 56       		.byte	0x56
 4168 0187 2A000000 		.4byte	.LVL53
 4169 018b 2E000000 		.4byte	.LVL54
 4170 018f 0400     		.2byte	0x4
 4171 0191 F3       		.byte	0xf3
 4172 0192 01       		.uleb128 0x1
 4173 0193 50       		.byte	0x50
 4174 0194 9F       		.byte	0x9f
 4175 0195 2E000000 		.4byte	.LVL54
 4176 0199 30000000 		.4byte	.LVL55
 4177 019d 0100     		.2byte	0x1
 4178 019f 50       		.byte	0x50
 4179 01a0 30000000 		.4byte	.LVL55
 4180 01a4 60000000 		.4byte	.LFE220
 4181 01a8 0100     		.2byte	0x1
 4182 01aa 56       		.byte	0x56
 4183 01ab 00000000 		.4byte	0
 4184 01af 00000000 		.4byte	0
 4185              	.LVUS18:
 4186 01b3 00       		.uleb128 0
 4187 01b4 00       		.uleb128 .LVU147
 4188 01b5 00       		.uleb128 .LVU147
 4189 01b6 00       		.uleb128 .LVU147
 4190 01b7 00       		.uleb128 .LVU147
 4191 01b8 00       		.uleb128 .LVU149
 4192 01b9 00       		.uleb128 .LVU149
 4193 01ba 00       		.uleb128 0
 4194              	.LLST18:
 4195 01bb 00000000 		.4byte	.LVL50
 4196 01bf 2D000000 		.4byte	.LVL54-1
 4197 01c3 0100     		.2byte	0x1
 4198 01c5 51       		.byte	0x51
 4199 01c6 2D000000 		.4byte	.LVL54-1
 4200 01ca 2E000000 		.4byte	.LVL54
 4201 01ce 0400     		.2byte	0x4
 4202 01d0 F3       		.byte	0xf3
 4203 01d1 01       		.uleb128 0x1
 4204 01d2 51       		.byte	0x51
ARM GAS  /tmp/cc5UaDAt.s 			page 75


 4205 01d3 9F       		.byte	0x9f
 4206 01d4 2E000000 		.4byte	.LVL54
 4207 01d8 33000000 		.4byte	.LVL56-1
 4208 01dc 0100     		.2byte	0x1
 4209 01de 51       		.byte	0x51
 4210 01df 33000000 		.4byte	.LVL56-1
 4211 01e3 60000000 		.4byte	.LFE220
 4212 01e7 0100     		.2byte	0x1
 4213 01e9 55       		.byte	0x55
 4214 01ea 00000000 		.4byte	0
 4215 01ee 00000000 		.4byte	0
 4216              	.LVUS19:
 4217 01f2 00       		.uleb128 0
 4218 01f3 00       		.uleb128 .LVU144
 4219 01f4 00       		.uleb128 .LVU144
 4220 01f5 00       		.uleb128 .LVU146
 4221 01f6 00       		.uleb128 .LVU146
 4222 01f7 00       		.uleb128 .LVU147
 4223 01f8 00       		.uleb128 .LVU147
 4224 01f9 00       		.uleb128 .LVU149
 4225 01fa 00       		.uleb128 .LVU149
 4226 01fb 00       		.uleb128 .LVU157
 4227 01fc 00       		.uleb128 .LVU157
 4228 01fd 01       		.uleb128 .LVU159
 4229              	.LLST19:
 4230 01fe 00000000 		.4byte	.LVL50
 4231 0202 20000000 		.4byte	.LVL51
 4232 0206 0100     		.2byte	0x1
 4233 0208 52       		.byte	0x52
 4234 0209 20000000 		.4byte	.LVL51
 4235 020d 2A000000 		.4byte	.LVL53
 4236 0211 0100     		.2byte	0x1
 4237 0213 54       		.byte	0x54
 4238 0214 2A000000 		.4byte	.LVL53
 4239 0218 2E000000 		.4byte	.LVL54
 4240 021c 0400     		.2byte	0x4
 4241 021e F3       		.byte	0xf3
 4242 021f 01       		.uleb128 0x1
 4243 0220 52       		.byte	0x52
 4244 0221 9F       		.byte	0x9f
 4245 0222 2E000000 		.4byte	.LVL54
 4246 0226 33000000 		.4byte	.LVL56-1
 4247 022a 0100     		.2byte	0x1
 4248 022c 52       		.byte	0x52
 4249 022d 33000000 		.4byte	.LVL56-1
 4250 0231 42000000 		.4byte	.LVL59
 4251 0235 0100     		.2byte	0x1
 4252 0237 54       		.byte	0x54
 4253 0238 42000000 		.4byte	.LVL59
 4254 023c 44000000 		.4byte	.LVL60
 4255 0240 0300     		.2byte	0x3
 4256 0242 74       		.byte	0x74
 4257 0243 01       		.sleb128 1
 4258 0244 9F       		.byte	0x9f
 4259 0245 00000000 		.4byte	0
 4260 0249 00000000 		.4byte	0
 4261              	.LVUS20:
ARM GAS  /tmp/cc5UaDAt.s 			page 76


 4262 024d 01       		.uleb128 .LVU151
 4263 024e 00       		.uleb128 .LVU153
 4264              	.LLST20:
 4265 024f 36000000 		.4byte	.LVL57
 4266 0253 3E000000 		.4byte	.LVL58
 4267 0257 0100     		.2byte	0x1
 4268 0259 55       		.byte	0x55
 4269 025a 00000000 		.4byte	0
 4270 025e 00000000 		.4byte	0
 4271              	.LVUS21:
 4272 0262 01       		.uleb128 .LVU151
 4273 0263 00       		.uleb128 .LVU153
 4274              	.LLST21:
 4275 0264 36000000 		.4byte	.LVL57
 4276 0268 3E000000 		.4byte	.LVL58
 4277 026c 0100     		.2byte	0x1
 4278 026e 56       		.byte	0x56
 4279 026f 00000000 		.4byte	0
 4280 0273 00000000 		.4byte	0
 4281              	.LVUS0:
 4282 0277 00       		.uleb128 0
 4283 0278 00       		.uleb128 .LVU7
 4284 0279 00       		.uleb128 .LVU7
 4285 027a 00       		.uleb128 .LVU16
 4286 027b 00       		.uleb128 .LVU16
 4287 027c 00       		.uleb128 .LVU17
 4288 027d 00       		.uleb128 .LVU17
 4289 027e 00       		.uleb128 0
 4290              	.LLST0:
 4291 027f 00000000 		.4byte	.LVL0
 4292 0283 1A000000 		.4byte	.LVL1
 4293 0287 0100     		.2byte	0x1
 4294 0289 50       		.byte	0x50
 4295 028a 1A000000 		.4byte	.LVL1
 4296 028e 30000000 		.4byte	.LVL2
 4297 0292 0100     		.2byte	0x1
 4298 0294 54       		.byte	0x54
 4299 0295 30000000 		.4byte	.LVL2
 4300 0299 32000000 		.4byte	.LVL3
 4301 029d 0100     		.2byte	0x1
 4302 029f 50       		.byte	0x50
 4303 02a0 32000000 		.4byte	.LVL3
 4304 02a4 44000000 		.4byte	.LFE219
 4305 02a8 0100     		.2byte	0x1
 4306 02aa 54       		.byte	0x54
 4307 02ab 00000000 		.4byte	0
 4308 02af 00000000 		.4byte	0
 4309              	.LVUS1:
 4310 02b3 00       		.uleb128 0
 4311 02b4 00       		.uleb128 .LVU7
 4312 02b5 00       		.uleb128 .LVU7
 4313 02b6 00       		.uleb128 .LVU16
 4314 02b7 00       		.uleb128 .LVU16
 4315 02b8 00       		.uleb128 .LVU18
 4316 02b9 00       		.uleb128 .LVU18
 4317 02ba 00       		.uleb128 0
 4318              	.LLST1:
ARM GAS  /tmp/cc5UaDAt.s 			page 77


 4319 02bb 00000000 		.4byte	.LVL0
 4320 02bf 1A000000 		.4byte	.LVL1
 4321 02c3 0100     		.2byte	0x1
 4322 02c5 51       		.byte	0x51
 4323 02c6 1A000000 		.4byte	.LVL1
 4324 02ca 30000000 		.4byte	.LVL2
 4325 02ce 0100     		.2byte	0x1
 4326 02d0 55       		.byte	0x55
 4327 02d1 30000000 		.4byte	.LVL2
 4328 02d5 35000000 		.4byte	.LVL4-1
 4329 02d9 0100     		.2byte	0x1
 4330 02db 51       		.byte	0x51
 4331 02dc 35000000 		.4byte	.LVL4-1
 4332 02e0 44000000 		.4byte	.LFE219
 4333 02e4 0100     		.2byte	0x1
 4334 02e6 55       		.byte	0x55
 4335 02e7 00000000 		.4byte	0
 4336 02eb 00000000 		.4byte	0
 4337              	.LVUS2:
 4338 02ef 00       		.uleb128 0
 4339 02f0 00       		.uleb128 .LVU7
 4340 02f1 00       		.uleb128 .LVU7
 4341 02f2 00       		.uleb128 .LVU16
 4342 02f3 00       		.uleb128 .LVU16
 4343 02f4 00       		.uleb128 .LVU18
 4344 02f5 00       		.uleb128 .LVU18
 4345 02f6 00       		.uleb128 0
 4346              	.LLST2:
 4347 02f7 00000000 		.4byte	.LVL0
 4348 02fb 1A000000 		.4byte	.LVL1
 4349 02ff 0100     		.2byte	0x1
 4350 0301 52       		.byte	0x52
 4351 0302 1A000000 		.4byte	.LVL1
 4352 0306 30000000 		.4byte	.LVL2
 4353 030a 0100     		.2byte	0x1
 4354 030c 56       		.byte	0x56
 4355 030d 30000000 		.4byte	.LVL2
 4356 0311 35000000 		.4byte	.LVL4-1
 4357 0315 0100     		.2byte	0x1
 4358 0317 52       		.byte	0x52
 4359 0318 35000000 		.4byte	.LVL4-1
 4360 031c 44000000 		.4byte	.LFE219
 4361 0320 0100     		.2byte	0x1
 4362 0322 56       		.byte	0x56
 4363 0323 00000000 		.4byte	0
 4364 0327 00000000 		.4byte	0
 4365              	.LVUS3:
 4366 032b 00       		.uleb128 0
 4367 032c 00       		.uleb128 .LVU25
 4368 032d 00       		.uleb128 .LVU25
 4369 032e 00       		.uleb128 .LVU45
 4370 032f 00       		.uleb128 .LVU45
 4371 0330 00       		.uleb128 .LVU46
 4372 0331 00       		.uleb128 .LVU46
 4373 0332 00       		.uleb128 0
 4374              	.LLST3:
 4375 0333 00000000 		.4byte	.LVL6
ARM GAS  /tmp/cc5UaDAt.s 			page 78


 4376 0337 13000000 		.4byte	.LVL7-1
 4377 033b 0100     		.2byte	0x1
 4378 033d 50       		.byte	0x50
 4379 033e 13000000 		.4byte	.LVL7-1
 4380 0342 44000000 		.4byte	.LVL11
 4381 0346 0100     		.2byte	0x1
 4382 0348 54       		.byte	0x54
 4383 0349 44000000 		.4byte	.LVL11
 4384 034d 46000000 		.4byte	.LVL12
 4385 0351 0400     		.2byte	0x4
 4386 0353 F3       		.byte	0xf3
 4387 0354 01       		.uleb128 0x1
 4388 0355 50       		.byte	0x50
 4389 0356 9F       		.byte	0x9f
 4390 0357 46000000 		.4byte	.LVL12
 4391 035b 5C000000 		.4byte	.LFE221
 4392 035f 0100     		.2byte	0x1
 4393 0361 54       		.byte	0x54
 4394 0362 00000000 		.4byte	0
 4395 0366 00000000 		.4byte	0
 4396              	.LVUS4:
 4397 036a 00       		.uleb128 .LVU31
 4398 036b 00       		.uleb128 .LVU43
 4399 036c 00       		.uleb128 .LVU43
 4400 036d 00       		.uleb128 .LVU45
 4401 036e 00       		.uleb128 .LVU45
 4402 036f 00       		.uleb128 .LVU46
 4403 0370 00       		.uleb128 .LVU48
 4404 0371 00       		.uleb128 .LVU49
 4405              	.LLST4:
 4406 0372 18000000 		.4byte	.LVL8
 4407 0376 3E000000 		.4byte	.LVL10
 4408 037a 0100     		.2byte	0x1
 4409 037c 50       		.byte	0x50
 4410 037d 3E000000 		.4byte	.LVL10
 4411 0381 44000000 		.4byte	.LVL11
 4412 0385 0200     		.2byte	0x2
 4413 0387 74       		.byte	0x74
 4414 0388 00       		.sleb128 0
 4415 0389 44000000 		.4byte	.LVL11
 4416 038d 45000000 		.4byte	.LVL12-1
 4417 0391 0300     		.2byte	0x3
 4418 0393 F3       		.byte	0xf3
 4419 0394 01       		.uleb128 0x1
 4420 0395 50       		.byte	0x50
 4421 0396 4E000000 		.4byte	.LVL14
 4422 039a 51000000 		.4byte	.LVL15-1
 4423 039e 0100     		.2byte	0x1
 4424 03a0 50       		.byte	0x50
 4425 03a1 00000000 		.4byte	0
 4426 03a5 00000000 		.4byte	0
 4427              	.LVUS5:
 4428 03a9 00       		.uleb128 .LVU37
 4429 03aa 00       		.uleb128 .LVU45
 4430 03ab 00       		.uleb128 .LVU45
 4431 03ac 00       		.uleb128 .LVU46
 4432              	.LLST5:
ARM GAS  /tmp/cc5UaDAt.s 			page 79


 4433 03ad 2C000000 		.4byte	.LVL9
 4434 03b1 44000000 		.4byte	.LVL11
 4435 03b5 0100     		.2byte	0x1
 4436 03b7 54       		.byte	0x54
 4437 03b8 44000000 		.4byte	.LVL11
 4438 03bc 46000000 		.4byte	.LVL12
 4439 03c0 0400     		.2byte	0x4
 4440 03c2 F3       		.byte	0xf3
 4441 03c3 01       		.uleb128 0x1
 4442 03c4 50       		.byte	0x50
 4443 03c5 9F       		.byte	0x9f
 4444 03c6 00000000 		.4byte	0
 4445 03ca 00000000 		.4byte	0
 4446              		.section	.debug_aranges,"",%progbits
 4447 0000 44000000 		.4byte	0x44
 4448 0004 0200     		.2byte	0x2
 4449 0006 00000000 		.4byte	.Ldebug_info0
 4450 000a 04       		.byte	0x4
 4451 000b 00       		.byte	0
 4452 000c 0000     		.2byte	0
 4453 000e 0000     		.2byte	0
 4454 0010 00000000 		.4byte	.LFB219
 4455 0014 44000000 		.4byte	.LFE219-.LFB219
 4456 0018 00000000 		.4byte	.LFB221
 4457 001c 5C000000 		.4byte	.LFE221-.LFB221
 4458 0020 00000000 		.4byte	.LFB222
 4459 0024 70000000 		.4byte	.LFE222-.LFB222
 4460 0028 00000000 		.4byte	.LFB223
 4461 002c 44000000 		.4byte	.LFE223-.LFB223
 4462 0030 00000000 		.4byte	.LFB224
 4463 0034 70000000 		.4byte	.LFE224-.LFB224
 4464 0038 00000000 		.4byte	.LFB220
 4465 003c 60000000 		.4byte	.LFE220-.LFB220
 4466 0040 00000000 		.4byte	0
 4467 0044 00000000 		.4byte	0
 4468              		.section	.debug_ranges,"",%progbits
 4469              	.Ldebug_ranges0:
 4470 0000 2C000000 		.4byte	.LBB28
 4471 0004 3E000000 		.4byte	.LBE28
 4472 0008 44000000 		.4byte	.LBB31
 4473 000c 46000000 		.4byte	.LBE31
 4474 0010 00000000 		.4byte	0
 4475 0014 00000000 		.4byte	0
 4476 0018 10000000 		.4byte	.LBB42
 4477 001c 10000000 		.4byte	.LBE42
 4478 0020 10000000 		.4byte	.LBB49
 4479 0024 1E000000 		.4byte	.LBE49
 4480 0028 00000000 		.4byte	0
 4481 002c 00000000 		.4byte	0
 4482 0030 10000000 		.4byte	.LBB44
 4483 0034 10000000 		.4byte	.LBE44
 4484 0038 10000000 		.4byte	.LBB47
 4485 003c 16000000 		.4byte	.LBE47
 4486 0040 00000000 		.4byte	0
 4487 0044 00000000 		.4byte	0
 4488 0048 26000000 		.4byte	.LBB50
 4489 004c 40000000 		.4byte	.LBE50
ARM GAS  /tmp/cc5UaDAt.s 			page 80


 4490 0050 40000000 		.4byte	.LBB58
 4491 0054 46000000 		.4byte	.LBE58
 4492 0058 56000000 		.4byte	.LBB59
 4493 005c 5E000000 		.4byte	.LBE59
 4494 0060 00000000 		.4byte	0
 4495 0064 00000000 		.4byte	0
 4496 0068 40000000 		.4byte	.LBB52
 4497 006c 40000000 		.4byte	.LBE52
 4498 0070 40000000 		.4byte	.LBB55
 4499 0074 46000000 		.4byte	.LBE55
 4500 0078 00000000 		.4byte	0
 4501 007c 00000000 		.4byte	0
 4502 0080 12000000 		.4byte	.LBB70
 4503 0084 12000000 		.4byte	.LBE70
 4504 0088 12000000 		.4byte	.LBB77
 4505 008c 20000000 		.4byte	.LBE77
 4506 0090 00000000 		.4byte	0
 4507 0094 00000000 		.4byte	0
 4508 0098 12000000 		.4byte	.LBB72
 4509 009c 12000000 		.4byte	.LBE72
 4510 00a0 12000000 		.4byte	.LBB75
 4511 00a4 18000000 		.4byte	.LBE75
 4512 00a8 00000000 		.4byte	0
 4513 00ac 00000000 		.4byte	0
 4514 00b0 28000000 		.4byte	.LBB78
 4515 00b4 42000000 		.4byte	.LBE78
 4516 00b8 42000000 		.4byte	.LBB86
 4517 00bc 48000000 		.4byte	.LBE86
 4518 00c0 58000000 		.4byte	.LBB87
 4519 00c4 60000000 		.4byte	.LBE87
 4520 00c8 00000000 		.4byte	0
 4521 00cc 00000000 		.4byte	0
 4522 00d0 42000000 		.4byte	.LBB80
 4523 00d4 42000000 		.4byte	.LBE80
 4524 00d8 42000000 		.4byte	.LBB83
 4525 00dc 48000000 		.4byte	.LBE83
 4526 00e0 00000000 		.4byte	0
 4527 00e4 00000000 		.4byte	0
 4528 00e8 00000000 		.4byte	.LFB219
 4529 00ec 44000000 		.4byte	.LFE219
 4530 00f0 00000000 		.4byte	.LFB221
 4531 00f4 5C000000 		.4byte	.LFE221
 4532 00f8 00000000 		.4byte	.LFB222
 4533 00fc 70000000 		.4byte	.LFE222
 4534 0100 00000000 		.4byte	.LFB223
 4535 0104 44000000 		.4byte	.LFE223
 4536 0108 00000000 		.4byte	.LFB224
 4537 010c 70000000 		.4byte	.LFE224
 4538 0110 00000000 		.4byte	.LFB220
 4539 0114 60000000 		.4byte	.LFE220
 4540 0118 00000000 		.4byte	0
 4541 011c 00000000 		.4byte	0
 4542              		.section	.debug_line,"",%progbits
 4543              	.Ldebug_line0:
 4544 0000 01050000 		.section	.debug_str,"MS",%progbits,1
 4544      03000B02 
 4544      00000201 
ARM GAS  /tmp/cc5UaDAt.s 			page 81


 4544      FB0E0D00 
 4544      01010101 
 4545              	.LASF141:
 4546 0000 63665F6F 		.ascii	"cf_off_older\000"
 4546      66665F6F 
 4546      6C646572 
 4546      00
 4547              	.LASF56:
 4548 000d 72656164 		.ascii	"ready_list_t\000"
 4548      795F6C69 
 4548      73745F74 
 4548      00
 4549              	.LASF94:
 4550 001a 73655F74 		.ascii	"se_time\000"
 4550      696D6500 
 4551              	.LASF5:
 4552 0022 73697A65 		.ascii	"size_t\000"
 4552      5F7400
 4553              	.LASF115:
 4554 0029 7264796D 		.ascii	"rdymsg\000"
 4554      736700
 4555              	.LASF100:
 4556 0030 74625F70 		.ascii	"tb_ptr\000"
 4556      747200
 4557              	.LASF14:
 4558 0037 75696E74 		.ascii	"uint64_t\000"
 4558      36345F74 
 4558      00
 4559              	.LASF86:
 4560 0040 6B65726E 		.ascii	"kernel_stats\000"
 4560      656C5F73 
 4560      74617473 
 4560      00
 4561              	.LASF93:
 4562 004d 706F7274 		.ascii	"port_intctx\000"
 4562      5F696E74 
 4562      63747800 
 4563              	.LASF55:
 4564 0059 63685F74 		.ascii	"ch_threads_queue\000"
 4564      68726561 
 4564      64735F71 
 4564      75657565 
 4564      00
 4565              	.LASF75:
 4566 006a 73797374 		.ascii	"system_debug_t\000"
 4566      656D5F64 
 4566      65627567 
 4566      5F7400
 4567              	.LASF166:
 4568 0079 70726F76 		.ascii	"provider\000"
 4568      69646572 
 4568      00
 4569              	.LASF171:
 4570 0082 706F7274 		.ascii	"port_lock\000"
 4570      5F6C6F63 
 4570      6B00
 4571              	.LASF106:
ARM GAS  /tmp/cc5UaDAt.s 			page 82


 4572 008c 776F7273 		.ascii	"worst\000"
 4572      7400
 4573              	.LASF109:
 4574 0092 74696D65 		.ascii	"time_measurement_t\000"
 4574      5F6D6561 
 4574      73757265 
 4574      6D656E74 
 4574      5F7400
 4575              	.LASF15:
 4576 00a5 6C6F6E67 		.ascii	"long long unsigned int\000"
 4576      206C6F6E 
 4576      6720756E 
 4576      7369676E 
 4576      65642069 
 4577              	.LASF102:
 4578 00bc 63685F74 		.ascii	"ch_trace_buffer_t\000"
 4578      72616365 
 4578      5F627566 
 4578      6665725F 
 4578      7400
 4579              	.LASF137:
 4580 00ce 63685F74 		.ascii	"ch_threadsize\000"
 4580      68726561 
 4580      6473697A 
 4580      6500
 4581              	.LASF116:
 4582 00dc 65786974 		.ascii	"exitcode\000"
 4582      636F6465 
 4582      00
 4583              	.LASF85:
 4584 00e5 6D61696E 		.ascii	"mainthread\000"
 4584      74687265 
 4584      616400
 4585              	.LASF174:
 4586 00f0 5F737461 		.ascii	"_stats_start_measure_crit_thd\000"
 4586      74735F73 
 4586      74617274 
 4586      5F6D6561 
 4586      73757265 
 4587              	.LASF72:
 4588 010e 76697274 		.ascii	"virtual_timers_list_t\000"
 4588      75616C5F 
 4588      74696D65 
 4588      72735F6C 
 4588      6973745F 
 4589              	.LASF88:
 4590 0124 49544D5F 		.ascii	"ITM_RxBuffer\000"
 4590      52784275 
 4590      66666572 
 4590      00
 4591              	.LASF17:
 4592 0131 72747469 		.ascii	"rttime_t\000"
 4592      6D655F74 
 4592      00
 4593              	.LASF31:
 4594 013a 705F7072 		.ascii	"p_prio\000"
 4594      696F00
ARM GAS  /tmp/cc5UaDAt.s 			page 83


 4595              	.LASF144:
 4596 0141 63665F6F 		.ascii	"cf_off_state\000"
 4596      66665F73 
 4596      74617465 
 4596      00
 4597              	.LASF1:
 4598 014e 6C6F6E67 		.ascii	"long long int\000"
 4598      206C6F6E 
 4598      6720696E 
 4598      7400
 4599              	.LASF3:
 4600 015c 7369676E 		.ascii	"signed char\000"
 4600      65642063 
 4600      68617200 
 4601              	.LASF143:
 4602 0168 63665F6F 		.ascii	"cf_off_stklimit\000"
 4602      66665F73 
 4602      746B6C69 
 4602      6D697400 
 4603              	.LASF145:
 4604 0178 63665F6F 		.ascii	"cf_off_flags\000"
 4604      66665F66 
 4604      6C616773 
 4604      00
 4605              	.LASF48:
 4606 0185 705F6D70 		.ascii	"p_mpool\000"
 4606      6F6F6C00 
 4607              	.LASF126:
 4608 018d 6D5F7175 		.ascii	"m_queue\000"
 4608      65756500 
 4609              	.LASF84:
 4610 0195 76746C69 		.ascii	"vtlist\000"
 4610      737400
 4611              	.LASF170:
 4612 019c 706F7274 		.ascii	"port_unlock\000"
 4612      5F756E6C 
 4612      6F636B00 
 4613              	.LASF21:
 4614 01a8 74736C69 		.ascii	"tslices_t\000"
 4614      6365735F 
 4614      7400
 4615              	.LASF118:
 4616 01b2 77747472 		.ascii	"wttrp\000"
 4616      7000
 4617              	.LASF82:
 4618 01b8 63685F73 		.ascii	"ch_system\000"
 4618      79737465 
 4618      6D00
 4619              	.LASF7:
 4620 01c2 6C6F6E67 		.ascii	"long int\000"
 4620      20696E74 
 4620      00
 4621              	.LASF19:
 4622 01cb 74737461 		.ascii	"tstate_t\000"
 4622      74655F74 
 4622      00
 4623              	.LASF95:
ARM GAS  /tmp/cc5UaDAt.s 			page 84


 4624 01d4 73655F74 		.ascii	"se_tp\000"
 4624      7000
 4625              	.LASF181:
 4626 01da 2E2F2F43 		.ascii	".//ChibiOS//os/rt/src/chmempools.c\000"
 4626      68696269 
 4626      4F532F2F 
 4626      6F732F72 
 4626      742F7372 
 4627              	.LASF33:
 4628 01fd 705F6E65 		.ascii	"p_newer\000"
 4628      77657200 
 4629              	.LASF123:
 4630 0205 735F7175 		.ascii	"s_queue\000"
 4630      65756500 
 4631              	.LASF99:
 4632 020d 74625F73 		.ascii	"tb_size\000"
 4632      697A6500 
 4633              	.LASF61:
 4634 0215 725F6E65 		.ascii	"r_newer\000"
 4634      77657200 
 4635              	.LASF157:
 4636 021d 6D705F70 		.ascii	"mp_provider\000"
 4636      726F7669 
 4636      64657200 
 4637              	.LASF90:
 4638 0229 72656761 		.ascii	"regarm_t\000"
 4638      726D5F74 
 4638      00
 4639              	.LASF68:
 4640 0232 76745F70 		.ascii	"vt_prev\000"
 4640      72657600 
 4641              	.LASF178:
 4642 023a 63685379 		.ascii	"chSysHalt\000"
 4642      7348616C 
 4642      7400
 4643              	.LASF76:
 4644 0244 63685F73 		.ascii	"ch_system_debug\000"
 4644      79737465 
 4644      6D5F6465 
 4644      62756700 
 4645              	.LASF129:
 4646 0254 6D5F636E 		.ascii	"m_cnt\000"
 4646      7400
 4647              	.LASF151:
 4648 025a 6D757465 		.ascii	"mutex_t\000"
 4648      785F7400 
 4649              	.LASF173:
 4650 0262 76616C75 		.ascii	"value\000"
 4650      6500
 4651              	.LASF79:
 4652 0268 6C6F636B 		.ascii	"lock_cnt\000"
 4652      5F636E74 
 4652      00
 4653              	.LASF87:
 4654 0271 69646C65 		.ascii	"idle_thread_wa\000"
 4654      5F746872 
 4654      6561645F 
ARM GAS  /tmp/cc5UaDAt.s 			page 85


 4654      776100
 4655              	.LASF25:
 4656 0280 636E745F 		.ascii	"cnt_t\000"
 4656      7400
 4657              	.LASF36:
 4658 0286 705F7374 		.ascii	"p_stklimit\000"
 4658      6B6C696D 
 4658      697400
 4659              	.LASF0:
 4660 0291 756E7369 		.ascii	"unsigned int\000"
 4660      676E6564 
 4660      20696E74 
 4660      00
 4661              	.LASF67:
 4662 029e 76745F6E 		.ascii	"vt_next\000"
 4662      65787400 
 4663              	.LASF10:
 4664 02a6 75696E74 		.ascii	"uint16_t\000"
 4664      31365F74 
 4664      00
 4665              	.LASF89:
 4666 02af 53797374 		.ascii	"SystemCoreClock\000"
 4666      656D436F 
 4666      7265436C 
 4666      6F636B00 
 4667              	.LASF41:
 4668 02bf 705F7469 		.ascii	"p_time\000"
 4668      6D6500
 4669              	.LASF119:
 4670 02c6 77747365 		.ascii	"wtsemp\000"
 4670      6D7000
 4671              	.LASF69:
 4672 02cd 76745F64 		.ascii	"vt_delta\000"
 4672      656C7461 
 4672      00
 4673              	.LASF43:
 4674 02d6 705F6D73 		.ascii	"p_msgqueue\000"
 4674      67717565 
 4674      756500
 4675              	.LASF150:
 4676 02e1 63685F64 		.ascii	"ch_debug\000"
 4676      65627567 
 4676      00
 4677              	.LASF158:
 4678 02ea 6D656D6F 		.ascii	"memory_pool_t\000"
 4678      72795F70 
 4678      6F6F6C5F 
 4678      7400
 4679              	.LASF110:
 4680 02f8 6E5F6972 		.ascii	"n_irq\000"
 4680      7100
 4681              	.LASF182:
 4682 02fe 2F686F6D 		.ascii	"/home/olof/Documents/MICRO-315/micro-315/tp4/lib/e-"
 4682      652F6F6C 
 4682      6F662F44 
 4682      6F63756D 
 4682      656E7473 
ARM GAS  /tmp/cc5UaDAt.s 			page 86


 4683 0331 7075636B 		.ascii	"puck2_main-processor\000"
 4683      325F6D61 
 4683      696E2D70 
 4683      726F6365 
 4683      73736F72 
 4684              	.LASF124:
 4685 0346 735F636E 		.ascii	"s_cnt\000"
 4685      7400
 4686              	.LASF11:
 4687 034c 73686F72 		.ascii	"short unsigned int\000"
 4687      7420756E 
 4687      7369676E 
 4687      65642069 
 4687      6E7400
 4688              	.LASF114:
 4689 035f 6B65726E 		.ascii	"kernel_stats_t\000"
 4689      656C5F73 
 4689      74617473 
 4689      5F7400
 4690              	.LASF52:
 4691 036e 63685F74 		.ascii	"ch_thread\000"
 4691      68726561 
 4691      6400
 4692              	.LASF23:
 4693 0378 6D73675F 		.ascii	"msg_t\000"
 4693      7400
 4694              	.LASF107:
 4695 037e 6C617374 		.ascii	"last\000"
 4695      00
 4696              	.LASF26:
 4697 0383 75636E74 		.ascii	"ucnt_t\000"
 4697      5F7400
 4698              	.LASF179:
 4699 038a 63684462 		.ascii	"chDbgCheckClassI\000"
 4699      67436865 
 4699      636B436C 
 4699      61737349 
 4699      00
 4700              	.LASF81:
 4701 039b 63685F73 		.ascii	"ch_system_t\000"
 4701      79737465 
 4701      6D5F7400 
 4702              	.LASF167:
 4703 03a7 6368506F 		.ascii	"chPoolAdd\000"
 4703      6F6C4164 
 4703      6400
 4704              	.LASF148:
 4705 03b1 63665F6F 		.ascii	"cf_off_time\000"
 4705      66665F74 
 4705      696D6500 
 4706              	.LASF164:
 4707 03bd 6368506F 		.ascii	"chPoolObjectInit\000"
 4707      6F6C4F62 
 4707      6A656374 
 4707      496E6974 
 4707      00
 4708              	.LASF113:
ARM GAS  /tmp/cc5UaDAt.s 			page 87


 4709 03ce 6D5F6372 		.ascii	"m_crit_isr\000"
 4709      69745F69 
 4709      737200
 4710              	.LASF57:
 4711 03d9 63685F72 		.ascii	"ch_ready_list\000"
 4711      65616479 
 4711      5F6C6973 
 4711      7400
 4712              	.LASF24:
 4713 03e7 6576656E 		.ascii	"eventmask_t\000"
 4713      746D6173 
 4713      6B5F7400 
 4714              	.LASF91:
 4715 03f3 73746B61 		.ascii	"stkalign_t\000"
 4715      6C69676E 
 4715      5F7400
 4716              	.LASF51:
 4717 03fe 74687265 		.ascii	"threads_list_t\000"
 4717      6164735F 
 4717      6C697374 
 4717      5F7400
 4718              	.LASF132:
 4719 040d 63685F7A 		.ascii	"ch_zero\000"
 4719      65726F00 
 4720              	.LASF146:
 4721 0415 63665F6F 		.ascii	"cf_off_refs\000"
 4721      66665F72 
 4721      65667300 
 4722              	.LASF59:
 4723 0421 725F7072 		.ascii	"r_prio\000"
 4723      696F00
 4724              	.LASF42:
 4725 0428 705F7761 		.ascii	"p_waiting\000"
 4725      6974696E 
 4725      6700
 4726              	.LASF177:
 4727 0432 5F737461 		.ascii	"_stats_stop_measure_crit_thd\000"
 4727      74735F73 
 4727      746F705F 
 4727      6D656173 
 4727      7572655F 
 4728              	.LASF16:
 4729 044f 7274636E 		.ascii	"rtcnt_t\000"
 4729      745F7400 
 4730              	.LASF175:
 4731 0457 5F646267 		.ascii	"_dbg_check_lock\000"
 4731      5F636865 
 4731      636B5F6C 
 4731      6F636B00 
 4732              	.LASF73:
 4733 0467 63685F76 		.ascii	"ch_virtual_timers_list\000"
 4733      69727475 
 4733      616C5F74 
 4733      696D6572 
 4733      735F6C69 
 4734              	.LASF2:
 4735 047e 6C6F6E67 		.ascii	"long double\000"
ARM GAS  /tmp/cc5UaDAt.s 			page 88


 4735      20646F75 
 4735      626C6500 
 4736              	.LASF136:
 4737 048a 63685F74 		.ascii	"ch_timesize\000"
 4737      696D6573 
 4737      697A6500 
 4738              	.LASF184:
 4739 0496 6368506F 		.ascii	"chPoolAllocI\000"
 4739      6F6C416C 
 4739      6C6F6349 
 4739      00
 4740              	.LASF98:
 4741 04a3 63685F73 		.ascii	"ch_swc_event_t\000"
 4741      77635F65 
 4741      76656E74 
 4741      5F7400
 4742              	.LASF142:
 4743 04b2 63665F6F 		.ascii	"cf_off_name\000"
 4743      66665F6E 
 4743      616D6500 
 4744              	.LASF34:
 4745 04be 705F6F6C 		.ascii	"p_older\000"
 4745      64657200 
 4746              	.LASF60:
 4747 04c6 725F6374 		.ascii	"r_ctx\000"
 4747      7800
 4748              	.LASF32:
 4749 04cc 705F6374 		.ascii	"p_ctx\000"
 4749      7800
 4750              	.LASF156:
 4751 04d2 6D705F6F 		.ascii	"mp_object_size\000"
 4751      626A6563 
 4751      745F7369 
 4751      7A6500
 4752              	.LASF104:
 4753 04e1 746D5F63 		.ascii	"tm_calibration_t\000"
 4753      616C6962 
 4753      72617469 
 4753      6F6E5F74 
 4753      00
 4754              	.LASF180:
 4755 04f2 474E5520 		.ascii	"GNU C17 9.2.1 20191025 (release) [ARM/arm-9-branch "
 4755      43313720 
 4755      392E322E 
 4755      31203230 
 4755      31393130 
 4756 0525 72657669 		.ascii	"revision 277599] -mcpu=cortex-m4 -mfloat-abi=hard -"
 4756      73696F6E 
 4756      20323737 
 4756      3539395D 
 4756      202D6D63 
 4757 0558 6D667075 		.ascii	"mfpu=fpv4-sp-d16 -mno-thumb-interwork -mthumb -marc"
 4757      3D667076 
 4757      342D7370 
 4757      2D643136 
 4757      202D6D6E 
 4758 058b 683D6172 		.ascii	"h=armv7e-m+fp -ggdb -O2 -fomit-frame-pointer -falig"
ARM GAS  /tmp/cc5UaDAt.s 			page 89


 4758      6D763765 
 4758      2D6D2B66 
 4758      70202D67 
 4758      67646220 
 4759 05be 6E2D6675 		.ascii	"n-functions=16 -fno-strict-aliasing -fstack-protect"
 4759      6E637469 
 4759      6F6E733D 
 4759      3136202D 
 4759      666E6F2D 
 4760 05f1 6F722D61 		.ascii	"or-all -ffunction-sections -fdata-sections -fno-com"
 4760      6C6C202D 
 4760      6666756E 
 4760      6374696F 
 4760      6E2D7365 
 4761 0624 6D6F6E20 		.ascii	"mon -fsingle-precision-constant\000"
 4761      2D667369 
 4761      6E676C65 
 4761      2D707265 
 4761      63697369 
 4762              	.LASF63:
 4763 0644 725F6375 		.ascii	"r_current\000"
 4763      7272656E 
 4763      7400
 4764              	.LASF62:
 4765 064e 725F6F6C 		.ascii	"r_older\000"
 4765      64657200 
 4766              	.LASF108:
 4767 0656 63756D75 		.ascii	"cumulative\000"
 4767      6C617469 
 4767      766500
 4768              	.LASF20:
 4769 0661 74726566 		.ascii	"trefs_t\000"
 4769      735F7400 
 4770              	.LASF101:
 4771 0669 74625F62 		.ascii	"tb_buffer\000"
 4771      75666665 
 4771      7200
 4772              	.LASF135:
 4773 0673 63685F70 		.ascii	"ch_ptrsize\000"
 4773      74727369 
 4773      7A6500
 4774              	.LASF65:
 4775 067e 76697274 		.ascii	"virtual_timer_t\000"
 4775      75616C5F 
 4775      74696D65 
 4775      725F7400 
 4776              	.LASF30:
 4777 068e 705F7072 		.ascii	"p_prev\000"
 4777      657600
 4778              	.LASF22:
 4779 0695 74707269 		.ascii	"tprio_t\000"
 4779      6F5F7400 
 4780              	.LASF111:
 4781 069d 6E5F6374 		.ascii	"n_ctxswc\000"
 4781      78737763 
 4781      00
 4782              	.LASF6:
ARM GAS  /tmp/cc5UaDAt.s 			page 90


 4783 06a6 696E7433 		.ascii	"int32_t\000"
 4783      325F7400 
 4784              	.LASF9:
 4785 06ae 756E7369 		.ascii	"unsigned char\000"
 4785      676E6564 
 4785      20636861 
 4785      7200
 4786              	.LASF46:
 4787 06bc 705F6D74 		.ascii	"p_mtxlist\000"
 4787      786C6973 
 4787      7400
 4788              	.LASF4:
 4789 06c6 73686F72 		.ascii	"short int\000"
 4789      7420696E 
 4789      7400
 4790              	.LASF37:
 4791 06d0 705F7374 		.ascii	"p_state\000"
 4791      61746500 
 4792              	.LASF40:
 4793 06d8 705F7072 		.ascii	"p_preempt\000"
 4793      65656D70 
 4793      7400
 4794              	.LASF134:
 4795 06e2 63685F76 		.ascii	"ch_version\000"
 4795      65727369 
 4795      6F6E00
 4796              	.LASF121:
 4797 06ed 65776D61 		.ascii	"ewmask\000"
 4797      736B00
 4798              	.LASF29:
 4799 06f4 705F6E65 		.ascii	"p_next\000"
 4799      787400
 4800              	.LASF18:
 4801 06fb 746D6F64 		.ascii	"tmode_t\000"
 4801      655F7400 
 4802              	.LASF147:
 4803 0703 63665F6F 		.ascii	"cf_off_preempt\000"
 4803      66665F70 
 4803      7265656D 
 4803      707400
 4804              	.LASF162:
 4805 0712 5F5F6675 		.ascii	"__func__\000"
 4805      6E635F5F 
 4805      00
 4806              	.LASF49:
 4807 071b 705F7374 		.ascii	"p_stats\000"
 4807      61747300 
 4808              	.LASF169:
 4809 0723 63685379 		.ascii	"chSysLock\000"
 4809      734C6F63 
 4809      6B00
 4810              	.LASF159:
 4811 072d 6F626A70 		.ascii	"objp\000"
 4811      00
 4812              	.LASF54:
 4813 0732 74687265 		.ascii	"threads_queue_t\000"
 4813      6164735F 
ARM GAS  /tmp/cc5UaDAt.s 			page 91


 4813      71756575 
 4813      655F7400 
 4814              	.LASF66:
 4815 0742 63685F76 		.ascii	"ch_virtual_timer\000"
 4815      69727475 
 4815      616C5F74 
 4815      696D6572 
 4815      00
 4816              	.LASF140:
 4817 0753 63665F6F 		.ascii	"cf_off_newer\000"
 4817      66665F6E 
 4817      65776572 
 4817      00
 4818              	.LASF185:
 4819 0760 5F5F7374 		.ascii	"__stack_chk_fail\000"
 4819      61636B5F 
 4819      63686B5F 
 4819      6661696C 
 4819      00
 4820              	.LASF122:
 4821 0771 63685F73 		.ascii	"ch_semaphore\000"
 4821      656D6170 
 4821      686F7265 
 4821      00
 4822              	.LASF45:
 4823 077e 705F6570 		.ascii	"p_epending\000"
 4823      656E6469 
 4823      6E6700
 4824              	.LASF12:
 4825 0789 75696E74 		.ascii	"uint32_t\000"
 4825      33325F74 
 4825      00
 4826              	.LASF138:
 4827 0792 63665F6F 		.ascii	"cf_off_prio\000"
 4827      66665F70 
 4827      72696F00 
 4828              	.LASF58:
 4829 079e 725F7175 		.ascii	"r_queue\000"
 4829      65756500 
 4830              	.LASF53:
 4831 07a6 63685F74 		.ascii	"ch_threads_list\000"
 4831      68726561 
 4831      64735F6C 
 4831      69737400 
 4832              	.LASF133:
 4833 07b6 63685F73 		.ascii	"ch_size\000"
 4833      697A6500 
 4834              	.LASF13:
 4835 07be 6C6F6E67 		.ascii	"long unsigned int\000"
 4835      20756E73 
 4835      69676E65 
 4835      6420696E 
 4835      7400
 4836              	.LASF130:
 4837 07d0 63686172 		.ascii	"char\000"
 4837      00
 4838              	.LASF120:
ARM GAS  /tmp/cc5UaDAt.s 			page 92


 4839 07d5 77746D74 		.ascii	"wtmtxp\000"
 4839      787000
 4840              	.LASF161:
 4841 07dc 6368506F 		.ascii	"chPoolFreeI\000"
 4841      6F6C4672 
 4841      65654900 
 4842              	.LASF28:
 4843 07e8 74687265 		.ascii	"thread_t\000"
 4843      61645F74 
 4843      00
 4844              	.LASF105:
 4845 07f1 62657374 		.ascii	"best\000"
 4845      00
 4846              	.LASF128:
 4847 07f6 6D5F6E65 		.ascii	"m_next\000"
 4847      787400
 4848              	.LASF27:
 4849 07fd 73797374 		.ascii	"systime_t\000"
 4849      696D655F 
 4849      7400
 4850              	.LASF47:
 4851 0807 705F7265 		.ascii	"p_realprio\000"
 4851      616C7072 
 4851      696F00
 4852              	.LASF64:
 4853 0812 76746675 		.ascii	"vtfunc_t\000"
 4853      6E635F74 
 4853      00
 4854              	.LASF172:
 4855 081b 5F5F7365 		.ascii	"__set_BASEPRI\000"
 4855      745F4241 
 4855      53455052 
 4855      4900
 4856              	.LASF77:
 4857 0829 70616E69 		.ascii	"panic_msg\000"
 4857      635F6D73 
 4857      6700
 4858              	.LASF103:
 4859 0833 6F666673 		.ascii	"offset\000"
 4859      657400
 4860              	.LASF125:
 4861 083a 63685F6D 		.ascii	"ch_mutex\000"
 4861      75746578 
 4861      00
 4862              	.LASF155:
 4863 0843 6D705F6E 		.ascii	"mp_next\000"
 4863      65787400 
 4864              	.LASF92:
 4865 084b 636F6E74 		.ascii	"context\000"
 4865      65787400 
 4866              	.LASF44:
 4867 0853 705F6D73 		.ascii	"p_msg\000"
 4867      6700
 4868              	.LASF152:
 4869 0859 6D656D67 		.ascii	"memgetfunc_t\000"
 4869      65746675 
 4869      6E635F74 
ARM GAS  /tmp/cc5UaDAt.s 			page 93


 4869      00
 4870              	.LASF71:
 4871 0866 76745F70 		.ascii	"vt_par\000"
 4871      617200
 4872              	.LASF139:
 4873 086d 63665F6F 		.ascii	"cf_off_ctx\000"
 4873      66665F63 
 4873      747800
 4874              	.LASF153:
 4875 0878 706F6F6C 		.ascii	"pool_header\000"
 4875      5F686561 
 4875      64657200 
 4876              	.LASF39:
 4877 0884 705F7265 		.ascii	"p_refs\000"
 4877      667300
 4878              	.LASF78:
 4879 088b 6973725F 		.ascii	"isr_cnt\000"
 4879      636E7400 
 4880              	.LASF97:
 4881 0893 73655F73 		.ascii	"se_state\000"
 4881      74617465 
 4881      00
 4882              	.LASF83:
 4883 089c 726C6973 		.ascii	"rlist\000"
 4883      7400
 4884              	.LASF8:
 4885 08a2 75696E74 		.ascii	"uint8_t\000"
 4885      385F7400 
 4886              	.LASF183:
 4887 08aa 6368506F 		.ascii	"chPoolAlloc\000"
 4887      6F6C416C 
 4887      6C6F6300 
 4888              	.LASF160:
 4889 08b6 6368506F 		.ascii	"chPoolFree\000"
 4889      6F6C4672 
 4889      656500
 4890              	.LASF176:
 4891 08c1 5F646267 		.ascii	"_dbg_check_unlock\000"
 4891      5F636865 
 4891      636B5F75 
 4891      6E6C6F63 
 4891      6B00
 4892              	.LASF50:
 4893 08d3 74687265 		.ascii	"thread_reference_t\000"
 4893      61645F72 
 4893      65666572 
 4893      656E6365 
 4893      5F7400
 4894              	.LASF117:
 4895 08e6 77746F62 		.ascii	"wtobjp\000"
 4895      6A7000
 4896              	.LASF154:
 4897 08ed 70685F6E 		.ascii	"ph_next\000"
 4897      65787400 
 4898              	.LASF35:
 4899 08f5 705F6E61 		.ascii	"p_name\000"
 4899      6D6500
ARM GAS  /tmp/cc5UaDAt.s 			page 94


 4900              	.LASF165:
 4901 08fc 73697A65 		.ascii	"size\000"
 4901      00
 4902              	.LASF74:
 4903 0901 76745F73 		.ascii	"vt_systime\000"
 4903      79737469 
 4903      6D6500
 4904              	.LASF80:
 4905 090c 74726163 		.ascii	"trace_buffer\000"
 4905      655F6275 
 4905      66666572 
 4905      00
 4906              	.LASF38:
 4907 0919 705F666C 		.ascii	"p_flags\000"
 4907      61677300 
 4908              	.LASF168:
 4909 0921 63685379 		.ascii	"chSysUnlock\000"
 4909      73556E6C 
 4909      6F636B00 
 4910              	.LASF163:
 4911 092d 6368506F 		.ascii	"chPoolLoadArray\000"
 4911      6F6C4C6F 
 4911      61644172 
 4911      72617900 
 4912              	.LASF112:
 4913 093d 6D5F6372 		.ascii	"m_crit_thd\000"
 4913      69745F74 
 4913      686400
 4914              	.LASF127:
 4915 0948 6D5F6F77 		.ascii	"m_owner\000"
 4915      6E657200 
 4916              	.LASF149:
 4917 0950 63686465 		.ascii	"chdebug_t\000"
 4917      6275675F 
 4917      7400
 4918              	.LASF96:
 4919 095a 73655F77 		.ascii	"se_wtobjp\000"
 4919      746F626A 
 4919      7000
 4920              	.LASF131:
 4921 0964 63685F69 		.ascii	"ch_identifier\000"
 4921      64656E74 
 4921      69666965 
 4921      7200
 4922              	.LASF70:
 4923 0972 76745F66 		.ascii	"vt_func\000"
 4923      756E6300 
 4924              		.ident	"GCC: (15:9-2019-q4-0ubuntu1) 9.2.1 20191025 (release) [ARM/arm-9-branch revision 277599]"
ARM GAS  /tmp/cc5UaDAt.s 			page 95


DEFINED SYMBOLS
                            *ABS*:0000000000000000 chmempools.c
     /tmp/cc5UaDAt.s:18     .rodata.chPoolObjectInit.cst4:0000000000000000 $d
     /tmp/cc5UaDAt.s:22     .text.chPoolObjectInit:0000000000000000 $t
     /tmp/cc5UaDAt.s:31     .text.chPoolObjectInit:0000000000000000 chPoolObjectInit
     /tmp/cc5UaDAt.s:105    .text.chPoolObjectInit:000000000000003c $d
     /tmp/cc5UaDAt.s:111    .rodata.chPoolAllocI.cst4:0000000000000000 $d
     /tmp/cc5UaDAt.s:115    .text.chPoolAllocI:0000000000000000 $t
     /tmp/cc5UaDAt.s:123    .text.chPoolAllocI:0000000000000000 chPoolAllocI
     /tmp/cc5UaDAt.s:236    .text.chPoolAllocI:0000000000000054 $d
     /tmp/cc5UaDAt.s:242    .rodata.chPoolAlloc.cst4:0000000000000000 $d
     /tmp/cc5UaDAt.s:246    .text.chPoolAlloc:0000000000000000 $t
     /tmp/cc5UaDAt.s:254    .text.chPoolAlloc:0000000000000000 chPoolAlloc
     /tmp/cc5UaDAt.s:415    .text.chPoolAlloc:0000000000000064 $d
     /tmp/cc5UaDAt.s:422    .rodata.chPoolFreeI.cst4:0000000000000000 $d
     /tmp/cc5UaDAt.s:426    .text.chPoolFreeI:0000000000000000 $t
     /tmp/cc5UaDAt.s:434    .text.chPoolFreeI:0000000000000000 chPoolFreeI
     /tmp/cc5UaDAt.s:505    .text.chPoolFreeI:000000000000003c $d
     /tmp/cc5UaDAt.s:511    .rodata.chPoolFree.cst4:0000000000000000 $d
     /tmp/cc5UaDAt.s:515    .text.chPoolFree:0000000000000000 $t
     /tmp/cc5UaDAt.s:523    .text.chPoolFree:0000000000000000 chPoolFree
     /tmp/cc5UaDAt.s:676    .text.chPoolFree:0000000000000064 $d
     /tmp/cc5UaDAt.s:683    .rodata.chPoolLoadArray.cst4:0000000000000000 $d
     /tmp/cc5UaDAt.s:687    .text.chPoolLoadArray:0000000000000000 $t
     /tmp/cc5UaDAt.s:695    .text.chPoolLoadArray:0000000000000000 chPoolLoadArray
     /tmp/cc5UaDAt.s:809    .text.chPoolLoadArray:0000000000000058 $d
     /tmp/cc5UaDAt.s:815    .rodata.__func__.7261:0000000000000000 $d
     /tmp/cc5UaDAt.s:819    .rodata.__func__.7261:0000000000000000 __func__.7261
     /tmp/cc5UaDAt.s:822    .rodata.__func__.7959:0000000000000000 $d
     /tmp/cc5UaDAt.s:826    .rodata.__func__.7959:0000000000000000 __func__.7959
     /tmp/cc5UaDAt.s:829    .rodata.__func__.7965:0000000000000000 $d
     /tmp/cc5UaDAt.s:833    .rodata.__func__.7965:0000000000000000 __func__.7965
     /tmp/cc5UaDAt.s:836    .rodata.__func__.7973:0000000000000000 $d
     /tmp/cc5UaDAt.s:840    .rodata.__func__.7973:0000000000000000 __func__.7973
     /tmp/cc5UaDAt.s:843    .rodata.__func__.7983:0000000000000000 $d
     /tmp/cc5UaDAt.s:847    .rodata.__func__.7983:0000000000000000 __func__.7983

UNDEFINED SYMBOLS
__stack_chk_guard
chSysHalt
__stack_chk_fail
chDbgCheckClassI
_stats_start_measure_crit_thd
_dbg_check_lock
_dbg_check_unlock
_stats_stop_measure_crit_thd
ch
