ARM GAS  /tmp/cc5UaDAt.s 			page 1


   1              		.cpu cortex-m4
   2              		.eabi_attribute 27, 1
   3              		.eabi_attribute 28, 1
   4              		.eabi_attribute 20, 1
   5              		.eabi_attribute 21, 1
   6              		.eabi_attribute 23, 3
   7              		.eabi_attribute 24, 1
   8              		.eabi_attribute 25, 1
   9              		.eabi_attribute 26, 1
  10              		.eabi_attribute 30, 2
  11              		.eabi_attribute 34, 1
  12              		.eabi_attribute 18, 4
  13              		.file	"chmempools.c"
  14              		.text
  15              	.Ltext0:
  16              		.cfi_sections	.debug_frame
  17              		.section	.rodata.chPoolObjectInit.cst4,"aM",%progbits,4
  18              		.align	2
  19              	.LC0:
  20 0000 00000000 		.word	__stack_chk_guard
  21              		.section	.text.chPoolObjectInit,"ax",%progbits
  22              		.align	1
  23              		.p2align 4,,15
  24              		.global	chPoolObjectInit
  25              		.arch armv7e-m
  26              		.syntax unified
  27              		.thumb
  28              		.thumb_func
  29              		.fpu fpv4-sp-d16
  30              		.type	chPoolObjectInit, %function
  31              	chPoolObjectInit:
  32              	.LVL0:
  33              	.LFB219:
  34              		.file 1 ".//ChibiOS//os/rt/src/chmempools.c"
  35              		.loc 1 75 78 view -0
  36              		.cfi_startproc
  37              		@ args = 0, pretend = 0, frame = 8
  38              		@ frame_needed = 0, uses_anonymous_args = 0
  39              		.loc 1 75 78 is_stmt 0 view .LVU1
  40 0000 70B5     		push	{r4, r5, r6, lr}
  41              		.cfi_def_cfa_offset 16
  42              		.cfi_offset 4, -16
  43              		.cfi_offset 5, -12
  44              		.cfi_offset 6, -8
  45              		.cfi_offset 14, -4
  46 0002 0E4B     		ldr	r3, .L11
  47 0004 82B0     		sub	sp, sp, #8
  48              		.cfi_def_cfa_offset 24
  49              		.loc 1 75 78 view .LVU2
  50 0006 0D46     		mov	r5, r1
  51 0008 1646     		mov	r6, r2
  52 000a 1B68     		ldr	r3, [r3]
  53 000c 0193     		str	r3, [sp, #4]
  54 000e 4FF00003 		mov	r3,#0
  55              		.loc 1 77 3 is_stmt 1 view .LVU3
  56              		.loc 1 77 3 view .LVU4
  57              		.loc 1 77 3 view .LVU5
ARM GAS  /tmp/cc5UaDAt.s 			page 2


  58 0012 0446     		mov	r4, r0
  59 0014 60B1     		cbz	r0, .L2
  60              		.loc 1 77 3 is_stmt 0 discriminator 4 view .LVU6
  61 0016 0329     		cmp	r1, #3
  62 0018 0AD9     		bls	.L2
  63              	.LVL1:
  64              	.L3:
  65              		.loc 1 77 3 is_stmt 1 discriminator 7 view .LVU7
  66              		.loc 1 79 3 discriminator 7 view .LVU8
  67              		.loc 1 79 15 is_stmt 0 discriminator 7 view .LVU9
  68 001a 0023     		movs	r3, #0
  69              		.loc 1 80 22 discriminator 7 view .LVU10
  70 001c C4E90035 		strd	r3, r5, [r4]
  71              		.loc 1 81 3 is_stmt 1 discriminator 7 view .LVU11
  72              		.loc 1 82 1 is_stmt 0 discriminator 7 view .LVU12
  73 0020 064B     		ldr	r3, .L11
  74              		.loc 1 81 19 discriminator 7 view .LVU13
  75 0022 A660     		str	r6, [r4, #8]
  76              		.loc 1 82 1 discriminator 7 view .LVU14
  77 0024 1A68     		ldr	r2, [r3]
  78 0026 019B     		ldr	r3, [sp, #4]
  79 0028 5A40     		eors	r2, r3, r2
  80 002a 05D1     		bne	.L10
  81              		.loc 1 82 1 view .LVU15
  82 002c 02B0     		add	sp, sp, #8
  83              		.cfi_remember_state
  84              		.cfi_def_cfa_offset 16
  85              		@ sp needed
  86 002e 70BD     		pop	{r4, r5, r6, pc}
  87              	.LVL2:
  88              	.L2:
  89              		.cfi_restore_state
  90              		.loc 1 77 3 is_stmt 1 discriminator 5 view .LVU16
  91 0030 0348     		ldr	r0, .L11+4
  92              	.LVL3:
  93              		.loc 1 77 3 is_stmt 0 discriminator 5 view .LVU17
  94 0032 FFF7FEFF 		bl	chSysHalt
  95              	.LVL4:
  96              		.loc 1 77 3 discriminator 5 view .LVU18
  97 0036 F0E7     		b	.L3
  98              	.L10:
  99              		.loc 1 82 1 view .LVU19
 100 0038 FFF7FEFF 		bl	__stack_chk_fail
 101              	.LVL5:
 102              	.L12:
 103              		.align	2
 104              	.L11:
 105 003c 00000000 		.word	.LC0
 106 0040 00000000 		.word	.LANCHOR0
 107              		.cfi_endproc
 108              	.LFE219:
 109              		.size	chPoolObjectInit, .-chPoolObjectInit
 110              		.section	.rodata.chPoolAllocI.cst4,"aM",%progbits,4
 111              		.align	2
 112              	.LC1:
 113 0000 00000000 		.word	__stack_chk_guard
 114              		.section	.text.chPoolAllocI,"ax",%progbits
ARM GAS  /tmp/cc5UaDAt.s 			page 3


 115              		.align	1
 116              		.p2align 4,,15
 117              		.global	chPoolAllocI
 118              		.syntax unified
 119              		.thumb
 120              		.thumb_func
 121              		.fpu fpv4-sp-d16
 122              		.type	chPoolAllocI, %function
 123              	chPoolAllocI:
 124              	.LVL6:
 125              	.LFB221:
 126              		.loc 1 120 39 is_stmt 1 view -0
 127              		.cfi_startproc
 128              		@ args = 0, pretend = 0, frame = 8
 129              		@ frame_needed = 0, uses_anonymous_args = 0
 130              		.loc 1 120 39 is_stmt 0 view .LVU21
 131 0000 10B5     		push	{r4, lr}
 132              		.cfi_def_cfa_offset 8
 133              		.cfi_offset 4, -8
 134              		.cfi_offset 14, -4
 135 0002 144B     		ldr	r3, .L25
 136 0004 82B0     		sub	sp, sp, #8
 137              		.cfi_def_cfa_offset 16
 138              		.loc 1 120 39 view .LVU22
 139 0006 0446     		mov	r4, r0
 140 0008 1B68     		ldr	r3, [r3]
 141 000a 0193     		str	r3, [sp, #4]
 142 000c 4FF00003 		mov	r3,#0
 143              		.loc 1 121 3 is_stmt 1 view .LVU23
 144              		.loc 1 123 3 view .LVU24
 145 0010 FFF7FEFF 		bl	chDbgCheckClassI
 146              	.LVL7:
 147              		.loc 1 124 3 view .LVU25
 148              		.loc 1 124 3 view .LVU26
 149              		.loc 1 124 3 view .LVU27
 150 0014 BCB1     		cbz	r4, .L24
 151              	.L14:
 152              		.loc 1 124 3 discriminator 5 view .LVU28
 153              		.loc 1 126 3 discriminator 5 view .LVU29
 154              		.loc 1 126 8 is_stmt 0 discriminator 5 view .LVU30
 155 0016 2068     		ldr	r0, [r4]
 156              	.LVL8:
 157              		.loc 1 128 3 is_stmt 1 discriminator 5 view .LVU31
 158              		.loc 1 128 6 is_stmt 0 discriminator 5 view .LVU32
 159 0018 40B1     		cbz	r0, .L15
 160              		.loc 1 129 5 is_stmt 1 view .LVU33
 161              		.loc 1 129 30 is_stmt 0 view .LVU34
 162 001a 0368     		ldr	r3, [r0]
 163              		.loc 1 129 17 view .LVU35
 164 001c 2360     		str	r3, [r4]
 165              	.L13:
 166              		.loc 1 137 1 view .LVU36
 167 001e 0D4B     		ldr	r3, .L25
 168 0020 1A68     		ldr	r2, [r3]
 169 0022 019B     		ldr	r3, [sp, #4]
 170 0024 5A40     		eors	r2, r3, r2
 171 0026 12D1     		bne	.L23
ARM GAS  /tmp/cc5UaDAt.s 			page 4


 172 0028 02B0     		add	sp, sp, #8
 173              		.cfi_remember_state
 174              		.cfi_def_cfa_offset 8
 175              		@ sp needed
 176 002a 10BD     		pop	{r4, pc}
 177              	.LVL9:
 178              	.L15:
 179              		.cfi_restore_state
 180              	.LBB28:
 181              	.LBI28:
 182              		.loc 1 120 7 is_stmt 1 view .LVU37
 183              	.LBB29:
 184              		.loc 1 131 8 view .LVU38
 185              		.loc 1 131 14 is_stmt 0 view .LVU39
 186 002c A368     		ldr	r3, [r4, #8]
 187              		.loc 1 131 11 view .LVU40
 188 002e 002B     		cmp	r3, #0
 189 0030 F5D0     		beq	.L13
 190              		.loc 1 132 5 is_stmt 1 view .LVU41
 191              		.loc 1 132 12 is_stmt 0 view .LVU42
 192 0032 084A     		ldr	r2, .L25
 193 0034 1168     		ldr	r1, [r2]
 194 0036 019A     		ldr	r2, [sp, #4]
 195 0038 5140     		eors	r1, r2, r1
 196 003a 08D1     		bne	.L23
 197 003c 6068     		ldr	r0, [r4, #4]
 198              	.LVL10:
 199              		.loc 1 132 12 view .LVU43
 200              	.LBE29:
 201              	.LBE28:
 202              		.loc 1 137 1 view .LVU44
 203 003e 02B0     		add	sp, sp, #8
 204              		.cfi_remember_state
 205              		.cfi_def_cfa_offset 8
 206              		@ sp needed
 207 0040 BDE81040 		pop	{r4, lr}
 208              		.cfi_restore 14
 209              		.cfi_restore 4
 210              		.cfi_def_cfa_offset 0
 211              	.LVL11:
 212              	.LBB31:
 213              	.LBB30:
 214              		.loc 1 132 12 view .LVU45
 215 0044 1847     		bx	r3
 216              	.LVL12:
 217              	.L24:
 218              		.cfi_restore_state
 219              		.loc 1 132 12 view .LVU46
 220              	.LBE30:
 221              	.LBE31:
 222              		.loc 1 124 3 is_stmt 1 discriminator 3 view .LVU47
 223 0046 0448     		ldr	r0, .L25+4
 224 0048 FFF7FEFF 		bl	chSysHalt
 225              	.LVL13:
 226 004c E3E7     		b	.L14
 227              	.LVL14:
 228              	.L23:
ARM GAS  /tmp/cc5UaDAt.s 			page 5


 229              		.loc 1 137 1 is_stmt 0 view .LVU48
 230 004e FFF7FEFF 		bl	__stack_chk_fail
 231              	.LVL15:
 232              	.L26:
 233              		.loc 1 137 1 view .LVU49
 234 0052 00BF     		.align	2
 235              	.L25:
 236 0054 00000000 		.word	.LC1
 237 0058 00000000 		.word	.LANCHOR1
 238              		.cfi_endproc
 239              	.LFE221:
 240              		.size	chPoolAllocI, .-chPoolAllocI
 241              		.section	.rodata.chPoolAlloc.cst4,"aM",%progbits,4
 242              		.align	2
 243              	.LC2:
 244 0000 00000000 		.word	__stack_chk_guard
 245              		.section	.text.chPoolAlloc,"ax",%progbits
 246              		.align	1
 247              		.p2align 4,,15
 248              		.global	chPoolAlloc
 249              		.syntax unified
 250              		.thumb
 251              		.thumb_func
 252              		.fpu fpv4-sp-d16
 253              		.type	chPoolAlloc, %function
 254              	chPoolAlloc:
 255              	.LVL16:
 256              	.LFB222:
 257              		.loc 1 149 38 is_stmt 1 view -0
 258              		.cfi_startproc
 259              		@ args = 0, pretend = 0, frame = 16
 260              		@ frame_needed = 0, uses_anonymous_args = 0
 261              		.loc 1 149 38 is_stmt 0 view .LVU51
 262 0000 10B5     		push	{r4, lr}
 263              		.cfi_def_cfa_offset 8
 264              		.cfi_offset 4, -8
 265              		.cfi_offset 14, -4
 266 0002 84B0     		sub	sp, sp, #16
 267              		.cfi_def_cfa_offset 24
 268              		.loc 1 149 38 view .LVU52
 269 0004 174B     		ldr	r3, .L33
 270 0006 0190     		str	r0, [sp, #4]
 271 0008 1B68     		ldr	r3, [r3]
 272 000a 0393     		str	r3, [sp, #12]
 273 000c 4FF00003 		mov	r3,#0
 274              		.loc 1 150 3 is_stmt 1 view .LVU53
 275              		.loc 1 152 3 view .LVU54
 276              	.LBB42:
 277              	.LBI42:
 278              		.file 2 ".//ChibiOS//os/rt/include/chsys.h"
 279              		.loc 2 346 20 view .LVU55
 280              	.LBB43:
 281              		.loc 2 348 3 view .LVU56
 282              	.LBB44:
 283              	.LBI44:
 284              		.file 3 ".//ChibiOS//os/rt/ports/ARMCMx/chcore_v7m.h"
 285              		.loc 3 444 20 view .LVU57
ARM GAS  /tmp/cc5UaDAt.s 			page 6


 286              	.LBE44:
 287              	.LBE43:
 288              	.LBE42:
 289              		.loc 3 447 3 view .LVU58
 290              	.LVL17:
 291              	.LBB49:
 292              	.LBB48:
 293              	.LBB47:
 294              	.LBB45:
 295              	.LBI45:
 296              		.file 4 ".//ChibiOS//os/ext/CMSIS/include/core_cmFunc.h"
 297              		.loc 4 544 57 view .LVU59
 298              	.LBB46:
 299              		.loc 4 546 3 view .LVU60
 300 0010 2023     		movs	r3, #32
 301              		.syntax unified
 302              	@ 546 ".//ChibiOS//os/ext/CMSIS/include/core_cmFunc.h" 1
 303 0012 83F31188 		MSR basepri, r3
 304              	@ 0 "" 2
 305              	.LVL18:
 306              		.loc 4 546 3 is_stmt 0 view .LVU61
 307              		.thumb
 308              		.syntax unified
 309              	.LBE46:
 310              	.LBE45:
 311              	.LBE47:
 312              		.loc 2 349 3 is_stmt 1 view .LVU62
 313 0016 FFF7FEFF 		bl	_stats_start_measure_crit_thd
 314              	.LVL19:
 315              		.loc 2 350 3 view .LVU63
 316 001a FFF7FEFF 		bl	_dbg_check_lock
 317              	.LVL20:
 318              	.LBE48:
 319              	.LBE49:
 320              		.loc 1 153 3 view .LVU64
 321              		.loc 1 153 10 is_stmt 0 view .LVU65
 322 001e 0198     		ldr	r0, [sp, #4]
 323 0020 FFF7FEFF 		bl	chPoolAllocI
 324              	.LVL21:
 325 0024 0446     		mov	r4, r0
 326              	.LVL22:
 327              		.loc 1 154 3 is_stmt 1 view .LVU66
 328              	.LBB50:
 329              	.LBI50:
 330              		.loc 2 358 20 view .LVU67
 331              	.LBB51:
 332              		.loc 2 360 3 view .LVU68
 333 0026 FFF7FEFF 		bl	_dbg_check_unlock
 334              	.LVL23:
 335              		.loc 2 361 3 view .LVU69
 336 002a FFF7FEFF 		bl	_stats_stop_measure_crit_thd
 337              	.LVL24:
 338              		.loc 2 367 3 view .LVU70
 339              		.loc 2 367 3 view .LVU71
 340              		.loc 2 367 3 view .LVU72
 341 002e 0E4B     		ldr	r3, .L33+4
 342 0030 1A68     		ldr	r2, [r3]
ARM GAS  /tmp/cc5UaDAt.s 			page 7


 343 0032 9A42     		cmp	r2, r3
 344 0034 04D0     		beq	.L28
 345 0036 9969     		ldr	r1, [r3, #24]
 346 0038 9368     		ldr	r3, [r2, #8]
 347 003a 8A68     		ldr	r2, [r1, #8]
 348 003c 9A42     		cmp	r2, r3
 349 003e 0AD3     		bcc	.L31
 350              	.L28:
 351              		.loc 2 367 3 view .LVU73
 352              		.loc 2 371 3 view .LVU74
 353              	.LBB52:
 354              	.LBI52:
 355              		.loc 3 458 20 view .LVU75
 356              	.LBE52:
 357              	.LBE51:
 358              	.LBE50:
 359              		.loc 3 461 3 view .LVU76
 360              	.LVL25:
 361              	.LBB58:
 362              	.LBB56:
 363              	.LBB55:
 364              	.LBB53:
 365              	.LBI53:
 366              		.loc 4 544 57 view .LVU77
 367              	.LBB54:
 368              		.loc 4 546 3 view .LVU78
 369 0040 0023     		movs	r3, #0
 370              		.syntax unified
 371              	@ 546 ".//ChibiOS//os/ext/CMSIS/include/core_cmFunc.h" 1
 372 0042 83F31188 		MSR basepri, r3
 373              	@ 0 "" 2
 374              	.LVL26:
 375              		.loc 4 546 3 is_stmt 0 view .LVU79
 376              		.thumb
 377              		.syntax unified
 378              	.LBE54:
 379              	.LBE53:
 380              	.LBE55:
 381              	.LBE56:
 382              	.LBE58:
 383              		.loc 1 156 3 is_stmt 1 view .LVU80
 384              		.loc 1 157 1 is_stmt 0 view .LVU81
 385 0046 074B     		ldr	r3, .L33
 386 0048 1A68     		ldr	r2, [r3]
 387 004a 039B     		ldr	r3, [sp, #12]
 388 004c 5A40     		eors	r2, r3, r2
 389 004e 06D1     		bne	.L32
 390 0050 2046     		mov	r0, r4
 391 0052 04B0     		add	sp, sp, #16
 392              		.cfi_remember_state
 393              		.cfi_def_cfa_offset 8
 394              		@ sp needed
 395 0054 10BD     		pop	{r4, pc}
 396              	.LVL27:
 397              	.L31:
 398              		.cfi_restore_state
 399              	.LBB59:
ARM GAS  /tmp/cc5UaDAt.s 			page 8


 400              	.LBB57:
 401              		.loc 2 367 3 is_stmt 1 view .LVU82
 402 0056 0548     		ldr	r0, .L33+8
 403 0058 FFF7FEFF 		bl	chSysHalt
 404              	.LVL28:
 405 005c F0E7     		b	.L28
 406              	.L32:
 407              	.LBE57:
 408              	.LBE59:
 409              		.loc 1 157 1 is_stmt 0 view .LVU83
 410 005e FFF7FEFF 		bl	__stack_chk_fail
 411              	.LVL29:
 412              	.L34:
 413 0062 00BF     		.align	2
 414              	.L33:
 415 0064 00000000 		.word	.LC2
 416 0068 00000000 		.word	ch
 417 006c 00000000 		.word	.LANCHOR2
 418              		.cfi_endproc
 419              	.LFE222:
 420              		.size	chPoolAlloc, .-chPoolAlloc
 421              		.section	.rodata.chPoolFreeI.cst4,"aM",%progbits,4
 422              		.align	2
 423              	.LC3:
 424 0000 00000000 		.word	__stack_chk_guard
 425              		.section	.text.chPoolFreeI,"ax",%progbits
 426              		.align	1
 427              		.p2align 4,,15
 428              		.global	chPoolFreeI
 429              		.syntax unified
 430              		.thumb
 431              		.thumb_func
 432              		.fpu fpv4-sp-d16
 433              		.type	chPoolFreeI, %function
 434              	chPoolFreeI:
 435              	.LVL30:
 436              	.LFB223:
 437              		.loc 1 171 49 is_stmt 1 view -0
 438              		.cfi_startproc
 439              		@ args = 0, pretend = 0, frame = 8
 440              		@ frame_needed = 0, uses_anonymous_args = 0
 441              		.loc 1 171 49 is_stmt 0 view .LVU85
 442 0000 30B5     		push	{r4, r5, lr}
 443              		.cfi_def_cfa_offset 12
 444              		.cfi_offset 4, -12
 445              		.cfi_offset 5, -8
 446              		.cfi_offset 14, -4
 447 0002 0E4B     		ldr	r3, .L44
 448 0004 83B0     		sub	sp, sp, #12
 449              		.cfi_def_cfa_offset 24
 450              		.loc 1 171 49 view .LVU86
 451 0006 0446     		mov	r4, r0
 452 0008 0D46     		mov	r5, r1
 453 000a 1B68     		ldr	r3, [r3]
 454 000c 0193     		str	r3, [sp, #4]
 455 000e 4FF00003 		mov	r3,#0
 456              		.loc 1 172 3 is_stmt 1 view .LVU87
ARM GAS  /tmp/cc5UaDAt.s 			page 9


 457              	.LVL31:
 458              		.loc 1 174 3 view .LVU88
 459 0012 FFF7FEFF 		bl	chDbgCheckClassI
 460              	.LVL32:
 461              		.loc 1 175 3 view .LVU89
 462              		.loc 1 175 3 view .LVU90
 463              		.loc 1 175 3 view .LVU91
 464 0016 54B1     		cbz	r4, .L36
 465              		.loc 1 175 3 is_stmt 0 discriminator 4 view .LVU92
 466 0018 4DB1     		cbz	r5, .L36
 467              	.L37:
 468              		.loc 1 175 3 is_stmt 1 discriminator 7 view .LVU93
 469              		.loc 1 177 3 discriminator 7 view .LVU94
 470              		.loc 1 177 20 is_stmt 0 discriminator 7 view .LVU95
 471 001a 2368     		ldr	r3, [r4]
 472              		.loc 1 177 16 discriminator 7 view .LVU96
 473 001c 2B60     		str	r3, [r5]
 474              		.loc 1 178 3 is_stmt 1 discriminator 7 view .LVU97
 475              		.loc 1 179 1 is_stmt 0 discriminator 7 view .LVU98
 476 001e 074B     		ldr	r3, .L44
 477              		.loc 1 178 15 discriminator 7 view .LVU99
 478 0020 2560     		str	r5, [r4]
 479              		.loc 1 179 1 discriminator 7 view .LVU100
 480 0022 1A68     		ldr	r2, [r3]
 481 0024 019B     		ldr	r3, [sp, #4]
 482 0026 5A40     		eors	r2, r3, r2
 483 0028 05D1     		bne	.L43
 484              		.loc 1 179 1 view .LVU101
 485 002a 03B0     		add	sp, sp, #12
 486              		.cfi_remember_state
 487              		.cfi_def_cfa_offset 12
 488              		@ sp needed
 489 002c 30BD     		pop	{r4, r5, pc}
 490              	.LVL33:
 491              	.L36:
 492              		.cfi_restore_state
 493              		.loc 1 175 3 is_stmt 1 discriminator 5 view .LVU102
 494 002e 0448     		ldr	r0, .L44+4
 495 0030 FFF7FEFF 		bl	chSysHalt
 496              	.LVL34:
 497 0034 F1E7     		b	.L37
 498              	.L43:
 499              		.loc 1 179 1 is_stmt 0 view .LVU103
 500 0036 FFF7FEFF 		bl	__stack_chk_fail
 501              	.LVL35:
 502              	.L45:
 503 003a 00BF     		.align	2
 504              	.L44:
 505 003c 00000000 		.word	.LC3
 506 0040 00000000 		.word	.LANCHOR3
 507              		.cfi_endproc
 508              	.LFE223:
 509              		.size	chPoolFreeI, .-chPoolFreeI
 510              		.section	.rodata.chPoolFree.cst4,"aM",%progbits,4
 511              		.align	2
 512              	.LC4:
 513 0000 00000000 		.word	__stack_chk_guard
ARM GAS  /tmp/cc5UaDAt.s 			page 10


 514              		.section	.text.chPoolFree,"ax",%progbits
 515              		.align	1
 516              		.p2align 4,,15
 517              		.global	chPoolFree
 518              		.syntax unified
 519              		.thumb
 520              		.thumb_func
 521              		.fpu fpv4-sp-d16
 522              		.type	chPoolFree, %function
 523              	chPoolFree:
 524              	.LVL36:
 525              	.LFB224:
 526              		.loc 1 193 48 is_stmt 1 view -0
 527              		.cfi_startproc
 528              		@ args = 0, pretend = 0, frame = 16
 529              		@ frame_needed = 0, uses_anonymous_args = 0
 530              		.loc 1 193 48 is_stmt 0 view .LVU105
 531 0000 00B5     		push	{lr}
 532              		.cfi_def_cfa_offset 4
 533              		.cfi_offset 14, -4
 534 0002 85B0     		sub	sp, sp, #20
 535              		.cfi_def_cfa_offset 24
 536              		.loc 1 193 48 view .LVU106
 537 0004 CDE90010 		strd	r1, r0, [sp]
 538 0008 164B     		ldr	r3, .L52
 539 000a 1B68     		ldr	r3, [r3]
 540 000c 0393     		str	r3, [sp, #12]
 541 000e 4FF00003 		mov	r3,#0
 542              		.loc 1 195 3 is_stmt 1 view .LVU107
 543              	.LBB70:
 544              	.LBI70:
 545              		.loc 2 346 20 view .LVU108
 546              	.LBB71:
 547              		.loc 2 348 3 view .LVU109
 548              	.LBB72:
 549              	.LBI72:
 550              		.loc 3 444 20 view .LVU110
 551              	.LBE72:
 552              	.LBE71:
 553              	.LBE70:
 554              		.loc 3 447 3 view .LVU111
 555              	.LVL37:
 556              	.LBB77:
 557              	.LBB76:
 558              	.LBB75:
 559              	.LBB73:
 560              	.LBI73:
 561              		.loc 4 544 57 view .LVU112
 562              	.LBB74:
 563              		.loc 4 546 3 view .LVU113
 564 0012 2023     		movs	r3, #32
 565              		.syntax unified
 566              	@ 546 ".//ChibiOS//os/ext/CMSIS/include/core_cmFunc.h" 1
 567 0014 83F31188 		MSR basepri, r3
 568              	@ 0 "" 2
 569              	.LVL38:
 570              		.loc 4 546 3 is_stmt 0 view .LVU114
ARM GAS  /tmp/cc5UaDAt.s 			page 11


 571              		.thumb
 572              		.syntax unified
 573              	.LBE74:
 574              	.LBE73:
 575              	.LBE75:
 576              		.loc 2 349 3 is_stmt 1 view .LVU115
 577 0018 FFF7FEFF 		bl	_stats_start_measure_crit_thd
 578              	.LVL39:
 579              		.loc 2 350 3 view .LVU116
 580 001c FFF7FEFF 		bl	_dbg_check_lock
 581              	.LVL40:
 582              	.LBE76:
 583              	.LBE77:
 584              		.loc 1 196 3 view .LVU117
 585 0020 DDE90010 		ldrd	r1, r0, [sp]
 586 0024 FFF7FEFF 		bl	chPoolFreeI
 587              	.LVL41:
 588              		.loc 1 197 3 view .LVU118
 589              	.LBB78:
 590              	.LBI78:
 591              		.loc 2 358 20 view .LVU119
 592              	.LBB79:
 593              		.loc 2 360 3 view .LVU120
 594 0028 FFF7FEFF 		bl	_dbg_check_unlock
 595              	.LVL42:
 596              		.loc 2 361 3 view .LVU121
 597 002c FFF7FEFF 		bl	_stats_stop_measure_crit_thd
 598              	.LVL43:
 599              		.loc 2 367 3 view .LVU122
 600              		.loc 2 367 3 view .LVU123
 601              		.loc 2 367 3 view .LVU124
 602 0030 0D4B     		ldr	r3, .L52+4
 603 0032 1A68     		ldr	r2, [r3]
 604 0034 9A42     		cmp	r2, r3
 605 0036 04D0     		beq	.L47
 606 0038 9969     		ldr	r1, [r3, #24]
 607 003a 9368     		ldr	r3, [r2, #8]
 608 003c 8A68     		ldr	r2, [r1, #8]
 609 003e 9A42     		cmp	r2, r3
 610 0040 0AD3     		bcc	.L50
 611              	.L47:
 612              		.loc 2 367 3 view .LVU125
 613              		.loc 2 371 3 view .LVU126
 614              	.LBB80:
 615              	.LBI80:
 616              		.loc 3 458 20 view .LVU127
 617              	.LBE80:
 618              	.LBE79:
 619              	.LBE78:
 620              		.loc 3 461 3 view .LVU128
 621              	.LVL44:
 622              	.LBB86:
 623              	.LBB84:
 624              	.LBB83:
 625              	.LBB81:
 626              	.LBI81:
 627              		.loc 4 544 57 view .LVU129
ARM GAS  /tmp/cc5UaDAt.s 			page 12


 628              	.LBB82:
 629              		.loc 4 546 3 view .LVU130
 630 0042 0023     		movs	r3, #0
 631              		.syntax unified
 632              	@ 546 ".//ChibiOS//os/ext/CMSIS/include/core_cmFunc.h" 1
 633 0044 83F31188 		MSR basepri, r3
 634              	@ 0 "" 2
 635              	.LVL45:
 636              		.loc 4 546 3 is_stmt 0 view .LVU131
 637              		.thumb
 638              		.syntax unified
 639              	.LBE82:
 640              	.LBE81:
 641              	.LBE83:
 642              	.LBE84:
 643              	.LBE86:
 644              		.loc 1 198 1 view .LVU132
 645 0048 064B     		ldr	r3, .L52
 646 004a 1A68     		ldr	r2, [r3]
 647 004c 039B     		ldr	r3, [sp, #12]
 648 004e 5A40     		eors	r2, r3, r2
 649 0050 06D1     		bne	.L51
 650 0052 05B0     		add	sp, sp, #20
 651              		.cfi_remember_state
 652              		.cfi_def_cfa_offset 4
 653              	.LVL46:
 654              		.loc 1 198 1 view .LVU133
 655              		@ sp needed
 656 0054 5DF804FB 		ldr	pc, [sp], #4
 657              	.LVL47:
 658              	.L50:
 659              		.cfi_restore_state
 660              	.LBB87:
 661              	.LBB85:
 662              		.loc 2 367 3 is_stmt 1 view .LVU134
 663 0058 0448     		ldr	r0, .L52+8
 664 005a FFF7FEFF 		bl	chSysHalt
 665              	.LVL48:
 666 005e F0E7     		b	.L47
 667              	.L51:
 668              	.LBE85:
 669              	.LBE87:
 670              		.loc 1 198 1 is_stmt 0 view .LVU135
 671 0060 FFF7FEFF 		bl	__stack_chk_fail
 672              	.LVL49:
 673              	.L53:
 674              		.align	2
 675              	.L52:
 676 0064 00000000 		.word	.LC4
 677 0068 00000000 		.word	ch
 678 006c 00000000 		.word	.LANCHOR2
 679              		.cfi_endproc
 680              	.LFE224:
 681              		.size	chPoolFree, .-chPoolFree
 682              		.section	.rodata.chPoolLoadArray.cst4,"aM",%progbits,4
 683              		.align	2
 684              	.LC5:
ARM GAS  /tmp/cc5UaDAt.s 			page 13


 685 0000 00000000 		.word	__stack_chk_guard
 686              		.section	.text.chPoolLoadArray,"ax",%progbits
 687              		.align	1
 688              		.p2align 4,,15
 689              		.global	chPoolLoadArray
 690              		.syntax unified
 691              		.thumb
 692              		.thumb_func
 693              		.fpu fpv4-sp-d16
 694              		.type	chPoolLoadArray, %function
 695              	chPoolLoadArray:
 696              	.LVL50:
 697              	.LFB220:
 698              		.loc 1 97 60 is_stmt 1 view -0
 699              		.cfi_startproc
 700              		@ args = 0, pretend = 0, frame = 8
 701              		@ frame_needed = 0, uses_anonymous_args = 0
 702              		.loc 1 97 60 is_stmt 0 view .LVU137
 703 0000 70B5     		push	{r4, r5, r6, lr}
 704              		.cfi_def_cfa_offset 16
 705              		.cfi_offset 4, -16
 706              		.cfi_offset 5, -12
 707              		.cfi_offset 6, -8
 708              		.cfi_offset 14, -4
 709 0002 154B     		ldr	r3, .L65
 710 0004 82B0     		sub	sp, sp, #8
 711              		.cfi_def_cfa_offset 24
 712              		.loc 1 97 60 view .LVU138
 713 0006 0D46     		mov	r5, r1
 714 0008 1446     		mov	r4, r2
 715 000a 1B68     		ldr	r3, [r3]
 716 000c 0193     		str	r3, [sp, #4]
 717 000e 4FF00003 		mov	r3,#0
 718              		.loc 1 99 3 is_stmt 1 view .LVU139
 719              		.loc 1 99 3 view .LVU140
 720              		.loc 1 99 3 view .LVU141
 721 0012 0646     		mov	r6, r0
 722 0014 58B1     		cbz	r0, .L55
 723              		.loc 1 99 3 is_stmt 0 discriminator 4 view .LVU142
 724 0016 72B9     		cbnz	r2, .L57
 725              		.loc 1 99 3 is_stmt 1 view .LVU143
 726 0018 0F4B     		ldr	r3, .L65
 727 001a 1A68     		ldr	r2, [r3]
 728 001c 019B     		ldr	r3, [sp, #4]
 729 001e 5A40     		eors	r2, r3, r2
 730              	.LVL51:
 731              		.loc 1 99 3 is_stmt 0 view .LVU144
 732 0020 18D1     		bne	.L64
 733 0022 0E48     		ldr	r0, .L65+4
 734              	.LVL52:
 735              		.loc 1 108 1 view .LVU145
 736 0024 02B0     		add	sp, sp, #8
 737              		.cfi_remember_state
 738              		.cfi_def_cfa_offset 16
 739              		@ sp needed
 740 0026 BDE87040 		pop	{r4, r5, r6, lr}
 741              		.cfi_restore 14
ARM GAS  /tmp/cc5UaDAt.s 			page 14


 742              		.cfi_restore 6
 743              		.cfi_restore 5
 744              		.cfi_restore 4
 745              		.cfi_def_cfa_offset 0
 746              	.LVL53:
 747              		.loc 1 99 3 view .LVU146
 748 002a FFF7FEBF 		b	chSysHalt
 749              	.LVL54:
 750              	.L55:
 751              		.cfi_restore_state
 752              		.loc 1 99 3 is_stmt 1 discriminator 5 view .LVU147
 753 002e 0B48     		ldr	r0, .L65+4
 754              	.LVL55:
 755              		.loc 1 99 3 is_stmt 0 discriminator 5 view .LVU148
 756 0030 FFF7FEFF 		bl	chSysHalt
 757              	.LVL56:
 758              		.loc 1 101 9 is_stmt 1 discriminator 5 view .LVU149
 759 0034 3CB1     		cbz	r4, .L54
 760              	.LVL57:
 761              	.L57:
 762              		.loc 1 102 5 view .LVU150
 763              	.LBB88:
 764              	.LBI88:
 765              		.file 5 ".//ChibiOS//os/rt/include/chmempools.h"
 766              		.loc 5 137 20 view .LVU151
 767              	.LBB89:
 768              		.loc 5 139 3 view .LVU152
 769 0036 2946     		mov	r1, r5
 770 0038 3046     		mov	r0, r6
 771 003a FFF7FEFF 		bl	chPoolFree
 772              	.LVL58:
 773              		.loc 5 139 3 is_stmt 0 view .LVU153
 774              	.LBE89:
 775              	.LBE88:
 776              		.loc 1 104 5 is_stmt 1 view .LVU154
 777              		.loc 1 104 7 is_stmt 0 view .LVU155
 778 003e 7368     		ldr	r3, [r6, #4]
 779              		.loc 1 101 9 view .LVU156
 780 0040 013C     		subs	r4, r4, #1
 781              	.LVL59:
 782              		.loc 1 104 7 view .LVU157
 783 0042 1D44     		add	r5, r5, r3
 784              	.LVL60:
 785              		.loc 1 106 5 is_stmt 1 view .LVU158
 786              		.loc 1 101 9 view .LVU159
 787 0044 F7D1     		bne	.L57
 788              	.L54:
 789              		.loc 1 108 1 is_stmt 0 view .LVU160
 790 0046 044B     		ldr	r3, .L65
 791 0048 1A68     		ldr	r2, [r3]
 792 004a 019B     		ldr	r3, [sp, #4]
 793 004c 5A40     		eors	r2, r3, r2
 794 004e 01D1     		bne	.L64
 795 0050 02B0     		add	sp, sp, #8
 796              		.cfi_remember_state
 797              		.cfi_def_cfa_offset 16
 798              		@ sp needed
ARM GAS  /tmp/cc5UaDAt.s 			page 15


 799 0052 70BD     		pop	{r4, r5, r6, pc}
 800              	.LVL61:
 801              	.L64:
 802              		.cfi_restore_state
 803              		.loc 1 108 1 view .LVU161
 804 0054 FFF7FEFF 		bl	__stack_chk_fail
 805              	.LVL62:
 806              	.L66:
 807              		.align	2
 808              	.L65:
 809 0058 00000000 		.word	.LC5
 810 005c 00000000 		.word	.LANCHOR4
 811              		.cfi_endproc
 812              	.LFE220:
 813              		.size	chPoolLoadArray, .-chPoolLoadArray
 814              		.section	.rodata.__func__.7261,"a"
 815              		.align	2
 816              		.set	.LANCHOR2,. + 0
 817              		.type	__func__.7261, %object
 818              		.size	__func__.7261, 12
 819              	__func__.7261:
 820 0000 63685379 		.ascii	"chSysUnlock\000"
 820      73556E6C 
 820      6F636B00 
 821              		.section	.rodata.__func__.7959,"a"
 822              		.align	2
 823              		.set	.LANCHOR0,. + 0
 824              		.type	__func__.7959, %object
 825              		.size	__func__.7959, 17
 826              	__func__.7959:
 827 0000 6368506F 		.ascii	"chPoolObjectInit\000"
 827      6F6C4F62 
 827      6A656374 
 827      496E6974 
 827      00
 828              		.section	.rodata.__func__.7965,"a"
 829              		.align	2
 830              		.set	.LANCHOR4,. + 0
 831              		.type	__func__.7965, %object
 832              		.size	__func__.7965, 16
 833              	__func__.7965:
 834 0000 6368506F 		.ascii	"chPoolLoadArray\000"
 834      6F6C4C6F 
 834      61644172 
 834      72617900 
 835              		.section	.rodata.__func__.7973,"a"
 836              		.align	2
 837              		.set	.LANCHOR1,. + 0
 838              		.type	__func__.7973, %object
 839              		.size	__func__.7973, 13
 840              	__func__.7973:
 841 0000 6368506F 		.ascii	"chPoolAllocI\000"
 841      6F6C416C 
 841      6C6F6349 
 841      00
 842              		.section	.rodata.__func__.7983,"a"
 843              		.align	2
ARM GAS  /tmp/cc5UaDAt.s 			page 16


 844              		.set	.LANCHOR3,. + 0
 845              		.type	__func__.7983, %object
 846              		.size	__func__.7983, 12
 847              	__func__.7983:
 848 0000 6368506F 		.ascii	"chPoolFreeI\000"
 848      6F6C4672 
 848      65654900 
 849              		.text
 850              	.Letext0:
 851              		.file 6 "/usr/lib/gcc/arm-none-eabi/9.2.1/include/stddef.h"
 852              		.file 7 "/usr/lib/gcc/arm-none-eabi/9.2.1/include/stdint.h"
 853              		.file 8 ".//ChibiOS//os/rt/ports/ARMCMx/compilers/GCC/chtypes.h"
 854              		.file 9 ".//ChibiOS//os/rt/include/chsystypes.h"
 855              		.file 10 ".//ChibiOS//os/rt/include/chschd.h"
 856              		.file 11 ".//ChibiOS//os/ext/CMSIS/include/core_cm4.h"
 857              		.file 12 ".//ChibiOS//os/ext/CMSIS/ST/system_stm32f4xx.h"
 858              		.file 13 ".//ChibiOS//os/rt/ports/ARMCMx/chcore.h"
 859              		.file 14 ".//ChibiOS//os/rt/include/chdebug.h"
 860              		.file 15 ".//ChibiOS//os/rt/include/chtm.h"
 861              		.file 16 ".//ChibiOS//os/rt/include/chstats.h"
 862              		.file 17 ".//ChibiOS//os/rt/include/chsem.h"
 863              		.file 18 ".//ChibiOS//os/rt/include/chmtx.h"
 864              		.file 19 ".//ChibiOS//os/rt/include/chregistry.h"
 865              		.file 20 ".//ChibiOS//os/rt/include/chmemcore.h"