ARM GAS  /tmp/ccc3S50T.s 			page 1


   1              		.cpu cortex-m4
   2              		.eabi_attribute 27, 1
   3              		.eabi_attribute 28, 1
   4              		.eabi_attribute 20, 1
   5              		.eabi_attribute 21, 1
   6              		.eabi_attribute 23, 3
   7              		.eabi_attribute 24, 1
   8              		.eabi_attribute 25, 1
   9              		.eabi_attribute 26, 1
  10              		.eabi_attribute 30, 2
  11              		.eabi_attribute 34, 1
  12              		.eabi_attribute 18, 4
  13              		.file	"chmemcore.c"
  14              		.text
  15              	.Ltext0:
  16              		.cfi_sections	.debug_frame
  17              		.section	.rodata._core_init.cst4,"aM",%progbits,4
  18              		.align	2
  19              	.LC0:
  20 0000 00000000 		.word	__stack_chk_guard
  21              		.section	.text._core_init,"ax",%progbits
  22              		.align	1
  23              		.p2align 4,,15
  24              		.global	_core_init
  25              		.arch armv7e-m
  26              		.syntax unified
  27              		.thumb
  28              		.thumb_func
  29              		.fpu fpv4-sp-d16
  30              		.type	_core_init, %function
  31              	_core_init:
  32              	.LFB219:
  33              		.file 1 ".//ChibiOS//os/rt/src/chmemcore.c"
  34              		.loc 1 78 23 view -0
  35              		.cfi_startproc
  36              		@ args = 0, pretend = 0, frame = 8
  37              		@ frame_needed = 0, uses_anonymous_args = 0
  38 0000 00B5     		push	{lr}
  39              		.cfi_def_cfa_offset 4
  40              		.cfi_offset 14, -4
  41              		.loc 1 85 23 is_stmt 0 view .LVU1
  42 0002 0E4B     		ldr	r3, .L6
  43              		.loc 1 84 24 view .LVU2
  44 0004 0E4A     		ldr	r2, .L6+4
  45              		.loc 1 85 10 view .LVU3
  46 0006 0F49     		ldr	r1, .L6+8
  47              		.loc 1 78 23 view .LVU4
  48 0008 DFF840C0 		ldr	ip, .L6+16
  49              		.loc 1 84 11 view .LVU5
  50 000c 0E48     		ldr	r0, .L6+12
  51              		.loc 1 78 23 view .LVU6
  52 000e 83B0     		sub	sp, sp, #12
  53              		.cfi_def_cfa_offset 16
  54              		.loc 1 85 23 view .LVU7
  55 0010 23F00703 		bic	r3, r3, #7
  56              		.loc 1 78 23 view .LVU8
  57 0014 DCF800C0 		ldr	ip, [ip]
ARM GAS  /tmp/ccc3S50T.s 			page 2


  58 0018 CDF804C0 		str	ip, [sp, #4]
  59 001c 4FF0000C 		mov	ip,#0
  60              		.loc 1 80 3 is_stmt 1 view .LVU9
  61              		.loc 1 81 3 view .LVU10
  62              		.loc 1 84 3 view .LVU11
  63              		.loc 1 84 24 is_stmt 0 view .LVU12
  64 0020 22F00702 		bic	r2, r2, #7
  65              		.loc 1 85 10 view .LVU13
  66 0024 0B60     		str	r3, [r1]
  67              		.loc 1 95 1 view .LVU14
  68 0026 094B     		ldr	r3, .L6+16
  69              		.loc 1 84 11 view .LVU15
  70 0028 0260     		str	r2, [r0]
  71              		.loc 1 85 3 is_stmt 1 view .LVU16
  72              		.loc 1 95 1 is_stmt 0 view .LVU17
  73 002a 1A68     		ldr	r2, [r3]
  74 002c 019B     		ldr	r3, [sp, #4]
  75 002e 5A40     		eors	r2, r3, r2
  76 0030 02D1     		bne	.L5
  77 0032 03B0     		add	sp, sp, #12
  78              		.cfi_remember_state
  79              		.cfi_def_cfa_offset 4
  80              		@ sp needed
  81 0034 5DF804FB 		ldr	pc, [sp], #4
  82              	.L5:
  83              		.cfi_restore_state
  84 0038 FFF7FEFF 		bl	__stack_chk_fail
  85              	.LVL0:
  86              	.L7:
  87              		.align	2
  88              	.L6:
  89 003c 00000000 		.word	__heap_end__
  90 0040 07000000 		.word	__heap_base__+7
  91 0044 00000000 		.word	.LANCHOR1
  92 0048 00000000 		.word	.LANCHOR0
  93 004c 00000000 		.word	.LC0
  94              		.cfi_endproc
  95              	.LFE219:
  96              		.size	_core_init, .-_core_init
  97              		.section	.rodata.chCoreAlloc.cst4,"aM",%progbits,4
  98              		.align	2
  99              	.LC1:
 100 0000 00000000 		.word	__stack_chk_guard
 101              		.section	.text.chCoreAlloc,"ax",%progbits
 102              		.align	1
 103              		.p2align 4,,15
 104              		.global	chCoreAlloc
 105              		.syntax unified
 106              		.thumb
 107              		.thumb_func
 108              		.fpu fpv4-sp-d16
 109              		.type	chCoreAlloc, %function
 110              	chCoreAlloc:
 111              	.LVL1:
 112              	.LFB220:
 113              		.loc 1 109 32 is_stmt 1 view -0
 114              		.cfi_startproc
ARM GAS  /tmp/ccc3S50T.s 			page 3


 115              		@ args = 0, pretend = 0, frame = 8
 116              		@ frame_needed = 0, uses_anonymous_args = 0
 117              		.loc 1 109 32 is_stmt 0 view .LVU19
 118 0000 30B5     		push	{r4, r5, lr}
 119              		.cfi_def_cfa_offset 12
 120              		.cfi_offset 4, -12
 121              		.cfi_offset 5, -8
 122              		.cfi_offset 14, -4
 123 0002 1D4B     		ldr	r3, .L16
 124 0004 83B0     		sub	sp, sp, #12
 125              		.cfi_def_cfa_offset 24
 126              		.loc 1 109 32 view .LVU20
 127 0006 1B68     		ldr	r3, [r3]
 128 0008 0193     		str	r3, [sp, #4]
 129 000a 4FF00003 		mov	r3,#0
 130              		.loc 1 110 3 is_stmt 1 view .LVU21
 131              		.loc 1 112 3 view .LVU22
 132              	.LBB33:
 133              	.LBI33:
 134              		.file 2 ".//ChibiOS//os/rt/include/chsys.h"
 135              		.loc 2 346 20 view .LVU23
 136              	.LBB34:
 137              		.loc 2 348 3 view .LVU24
 138              	.LBB35:
 139              	.LBI35:
 140              		.file 3 ".//ChibiOS//os/rt/ports/ARMCMx/chcore_v7m.h"
 141              		.loc 3 444 20 view .LVU25
 142              	.LBE35:
 143              	.LBE34:
 144              	.LBE33:
 145              		.loc 3 447 3 view .LVU26
 146              	.LVL2:
 147              	.LBB44:
 148              	.LBB42:
 149              	.LBB40:
 150              	.LBB36:
 151              	.LBI36:
 152              		.file 4 ".//ChibiOS//os/ext/CMSIS/include/core_cmFunc.h"
 153              		.loc 4 544 57 view .LVU27
 154              	.LBB37:
 155              		.loc 4 546 3 view .LVU28
 156              	.LBE37:
 157              	.LBE36:
 158              	.LBE40:
 159              	.LBE42:
 160              	.LBE44:
 161              		.loc 1 109 32 is_stmt 0 view .LVU29
 162 000e 0446     		mov	r4, r0
 163              	.LBB45:
 164              	.LBB43:
 165              	.LBB41:
 166              	.LBB39:
 167              	.LBB38:
 168              		.loc 4 546 3 view .LVU30
 169 0010 2023     		movs	r3, #32
 170              		.syntax unified
 171              	@ 546 ".//ChibiOS//os/ext/CMSIS/include/core_cmFunc.h" 1
ARM GAS  /tmp/ccc3S50T.s 			page 4


 172 0012 83F31188 		MSR basepri, r3
 173              	@ 0 "" 2
 174              	.LVL3:
 175              		.loc 4 546 3 view .LVU31
 176              		.thumb
 177              		.syntax unified
 178              	.LBE38:
 179              	.LBE39:
 180              	.LBE41:
 181              		.loc 2 349 3 is_stmt 1 view .LVU32
 182 0016 FFF7FEFF 		bl	_stats_start_measure_crit_thd
 183              	.LVL4:
 184              		.loc 2 350 3 view .LVU33
 185 001a FFF7FEFF 		bl	_dbg_check_lock
 186              	.LVL5:
 187              	.LBE43:
 188              	.LBE45:
 189              		.loc 1 113 3 view .LVU34
 190              	.LBB46:
 191              	.LBI46:
 192              		.loc 1 131 7 view .LVU35
 193              	.LBB47:
 194              		.loc 1 132 3 view .LVU36
 195              		.loc 1 134 3 view .LVU37
 196 001e FFF7FEFF 		bl	chDbgCheckClassI
 197              	.LVL6:
 198              		.loc 1 136 3 view .LVU38
 199              		.loc 1 138 23 is_stmt 0 view .LVU39
 200 0022 164A     		ldr	r2, .L16+4
 201 0024 164B     		ldr	r3, .L16+8
 202 0026 1568     		ldr	r5, [r2]
 203 0028 1B68     		ldr	r3, [r3]
 204              		.loc 1 136 10 view .LVU40
 205 002a E01D     		adds	r0, r4, #7
 206              		.loc 1 136 8 view .LVU41
 207 002c 20F00700 		bic	r0, r0, #7
 208              	.LVL7:
 209              		.loc 1 138 3 is_stmt 1 view .LVU42
 210              		.loc 1 138 23 is_stmt 0 view .LVU43
 211 0030 5B1B     		subs	r3, r3, r5
 212              		.loc 1 138 6 view .LVU44
 213 0032 9842     		cmp	r0, r3
 214              		.loc 1 142 3 is_stmt 1 view .LVU45
 215              	.LVL8:
 216              		.loc 1 143 3 view .LVU46
 217              		.loc 1 143 11 is_stmt 0 view .LVU47
 218 0034 9ABF     		itte	ls
 219 0036 4019     		addls	r0, r0, r5
 220              	.LVL9:
 221              		.loc 1 143 11 view .LVU48
 222 0038 1060     		strls	r0, [r2]
 223              		.loc 1 145 3 is_stmt 1 view .LVU49
 224              		.loc 1 140 12 is_stmt 0 view .LVU50
 225 003a 0025     		movhi	r5, #0
 226              	.LVL10:
 227              		.loc 1 140 12 view .LVU51
 228              	.LBE47:
ARM GAS  /tmp/ccc3S50T.s 			page 5


 229              	.LBE46:
 230              		.loc 1 114 3 is_stmt 1 view .LVU52
 231              	.LBB48:
 232              	.LBI48:
 233              		.loc 2 358 20 view .LVU53
 234              	.LBB49:
 235              		.loc 2 360 3 view .LVU54
 236 003c FFF7FEFF 		bl	_dbg_check_unlock
 237              	.LVL11:
 238              		.loc 2 361 3 view .LVU55
 239 0040 FFF7FEFF 		bl	_stats_stop_measure_crit_thd
 240              	.LVL12:
 241              		.loc 2 367 3 view .LVU56
 242              		.loc 2 367 3 view .LVU57
 243              		.loc 2 367 3 view .LVU58
 244 0044 0F4B     		ldr	r3, .L16+12
 245 0046 1A68     		ldr	r2, [r3]
 246 0048 9A42     		cmp	r2, r3
 247 004a 04D0     		beq	.L10
 248 004c 9969     		ldr	r1, [r3, #24]
 249 004e 9368     		ldr	r3, [r2, #8]
 250 0050 8A68     		ldr	r2, [r1, #8]
 251 0052 9A42     		cmp	r2, r3
 252 0054 0AD3     		bcc	.L14
 253              	.L10:
 254              		.loc 2 367 3 view .LVU59
 255              		.loc 2 371 3 view .LVU60
 256              	.LBB50:
 257              	.LBI50:
 258              		.loc 3 458 20 view .LVU61
 259              	.LBE50:
 260              	.LBE49:
 261              	.LBE48:
 262              		.loc 3 461 3 view .LVU62
 263              	.LVL13:
 264              	.LBB56:
 265              	.LBB54:
 266              	.LBB53:
 267              	.LBB51:
 268              	.LBI51:
 269              		.loc 4 544 57 view .LVU63
 270              	.LBB52:
 271              		.loc 4 546 3 view .LVU64
 272 0056 0023     		movs	r3, #0
 273              		.syntax unified
 274              	@ 546 ".//ChibiOS//os/ext/CMSIS/include/core_cmFunc.h" 1
 275 0058 83F31188 		MSR basepri, r3
 276              	@ 0 "" 2
 277              	.LVL14:
 278              		.loc 4 546 3 is_stmt 0 view .LVU65
 279              		.thumb
 280              		.syntax unified
 281              	.LBE52:
 282              	.LBE51:
 283              	.LBE53:
 284              	.LBE54:
 285              	.LBE56:
ARM GAS  /tmp/ccc3S50T.s 			page 6


 286              		.loc 1 116 3 is_stmt 1 view .LVU66
 287              		.loc 1 117 1 is_stmt 0 view .LVU67
 288 005c 064B     		ldr	r3, .L16
 289 005e 1A68     		ldr	r2, [r3]
 290 0060 019B     		ldr	r3, [sp, #4]
 291 0062 5A40     		eors	r2, r3, r2
 292 0064 06D1     		bne	.L15
 293 0066 2846     		mov	r0, r5
 294 0068 03B0     		add	sp, sp, #12
 295              		.cfi_remember_state
 296              		.cfi_def_cfa_offset 12
 297              		@ sp needed
 298 006a 30BD     		pop	{r4, r5, pc}
 299              	.LVL15:
 300              	.L14:
 301              		.cfi_restore_state
 302              	.LBB57:
 303              	.LBB55:
 304              		.loc 2 367 3 is_stmt 1 view .LVU68
 305 006c 0648     		ldr	r0, .L16+16
 306 006e FFF7FEFF 		bl	chSysHalt
 307              	.LVL16:
 308 0072 F0E7     		b	.L10
 309              	.L15:
 310              	.LBE55:
 311              	.LBE57:
 312              		.loc 1 117 1 is_stmt 0 view .LVU69
 313 0074 FFF7FEFF 		bl	__stack_chk_fail
 314              	.LVL17:
 315              	.L17:
 316              		.align	2
 317              	.L16:
 318 0078 00000000 		.word	.LC1
 319 007c 00000000 		.word	.LANCHOR0
 320 0080 00000000 		.word	.LANCHOR1
 321 0084 00000000 		.word	ch
 322 0088 00000000 		.word	.LANCHOR2
 323              		.cfi_endproc
 324              	.LFE220:
 325              		.size	chCoreAlloc, .-chCoreAlloc
 326              		.section	.rodata.chCoreAllocI.cst4,"aM",%progbits,4
 327              		.align	2
 328              	.LC2:
 329 0000 00000000 		.word	__stack_chk_guard
 330              		.section	.text.chCoreAllocI,"ax",%progbits
 331              		.align	1
 332              		.p2align 4,,15
 333              		.global	chCoreAllocI
 334              		.syntax unified
 335              		.thumb
 336              		.thumb_func
 337              		.fpu fpv4-sp-d16
 338              		.type	chCoreAllocI, %function
 339              	chCoreAllocI:
 340              	.LVL18:
 341              	.LFB221:
 342              		.loc 1 131 33 is_stmt 1 view -0
ARM GAS  /tmp/ccc3S50T.s 			page 7


 343              		.cfi_startproc
 344              		@ args = 0, pretend = 0, frame = 8
 345              		@ frame_needed = 0, uses_anonymous_args = 0
 346              		.loc 1 131 33 is_stmt 0 view .LVU71
 347 0000 10B5     		push	{r4, lr}
 348              		.cfi_def_cfa_offset 8
 349              		.cfi_offset 4, -8
 350              		.cfi_offset 14, -4
 351 0002 104B     		ldr	r3, .L24
 352 0004 82B0     		sub	sp, sp, #8
 353              		.cfi_def_cfa_offset 16
 354              		.loc 1 131 33 view .LVU72
 355 0006 0446     		mov	r4, r0
 356 0008 1B68     		ldr	r3, [r3]
 357 000a 0193     		str	r3, [sp, #4]
 358 000c 4FF00003 		mov	r3,#0
 359              		.loc 1 132 3 is_stmt 1 view .LVU73
 360              		.loc 1 134 3 view .LVU74
 361 0010 FFF7FEFF 		bl	chDbgCheckClassI
 362              	.LVL19:
 363              		.loc 1 136 3 view .LVU75
 364              		.loc 1 138 23 is_stmt 0 view .LVU76
 365 0014 0C49     		ldr	r1, .L24+4
 366 0016 0D4B     		ldr	r3, .L24+8
 367 0018 0868     		ldr	r0, [r1]
 368 001a 1A68     		ldr	r2, [r3]
 369              		.loc 1 136 10 view .LVU77
 370 001c E31D     		adds	r3, r4, #7
 371              		.loc 1 136 8 view .LVU78
 372 001e 23F00703 		bic	r3, r3, #7
 373              	.LVL20:
 374              		.loc 1 138 3 is_stmt 1 view .LVU79
 375              		.loc 1 138 23 is_stmt 0 view .LVU80
 376 0022 121A     		subs	r2, r2, r0
 377              		.loc 1 138 6 view .LVU81
 378 0024 9A42     		cmp	r2, r3
 379              		.loc 1 142 3 is_stmt 1 view .LVU82
 380              	.LVL21:
 381              		.loc 1 143 3 view .LVU83
 382              		.loc 1 143 11 is_stmt 0 view .LVU84
 383 0026 24BF     		itt	cs
 384 0028 1B18     		addcs	r3, r3, r0
 385              	.LVL22:
 386              		.loc 1 143 11 view .LVU85
 387 002a 0B60     		strcs	r3, [r1]
 388              		.loc 1 145 3 is_stmt 1 view .LVU86
 389              		.loc 1 146 1 is_stmt 0 view .LVU87
 390 002c 054B     		ldr	r3, .L24
 391              		.loc 1 140 12 view .LVU88
 392 002e 38BF     		it	cc
 393 0030 0020     		movcc	r0, #0
 394              	.LVL23:
 395              		.loc 1 146 1 view .LVU89
 396 0032 1A68     		ldr	r2, [r3]
 397 0034 019B     		ldr	r3, [sp, #4]
 398 0036 5A40     		eors	r2, r3, r2
 399 0038 01D1     		bne	.L23
ARM GAS  /tmp/ccc3S50T.s 			page 8


 400 003a 02B0     		add	sp, sp, #8
 401              		.cfi_remember_state
 402              		.cfi_def_cfa_offset 8
 403              		@ sp needed
 404 003c 10BD     		pop	{r4, pc}
 405              	.LVL24:
 406              	.L23:
 407              		.cfi_restore_state
 408              		.loc 1 146 1 view .LVU90
 409 003e FFF7FEFF 		bl	__stack_chk_fail
 410              	.LVL25:
 411              	.L25:
 412 0042 00BF     		.align	2
 413              	.L24:
 414 0044 00000000 		.word	.LC2
 415 0048 00000000 		.word	.LANCHOR0
 416 004c 00000000 		.word	.LANCHOR1
 417              		.cfi_endproc
 418              	.LFE221:
 419              		.size	chCoreAllocI, .-chCoreAllocI
 420              		.section	.rodata.chCoreGetStatusX.cst4,"aM",%progbits,4
 421              		.align	2
 422              	.LC3:
 423 0000 00000000 		.word	__stack_chk_guard
 424              		.section	.text.chCoreGetStatusX,"ax",%progbits
 425              		.align	1
 426              		.p2align 4,,15
 427              		.global	chCoreGetStatusX
 428              		.syntax unified
 429              		.thumb
 430              		.thumb_func
 431              		.fpu fpv4-sp-d16
 432              		.type	chCoreGetStatusX, %function
 433              	chCoreGetStatusX:
 434              	.LFB222:
 435              		.loc 1 155 31 is_stmt 1 view -0
 436              		.cfi_startproc
 437              		@ args = 0, pretend = 0, frame = 8
 438              		@ frame_needed = 0, uses_anonymous_args = 0
 439 0000 00B5     		push	{lr}
 440              		.cfi_def_cfa_offset 4
 441              		.cfi_offset 14, -4
 442              		.loc 1 158 26 is_stmt 0 view .LVU92
 443 0002 0A4A     		ldr	r2, .L30
 444 0004 0A4B     		ldr	r3, .L30+4
 445 0006 1068     		ldr	r0, [r2]
 446 0008 1B68     		ldr	r3, [r3]
 447              		.loc 1 155 31 view .LVU93
 448 000a 0A4A     		ldr	r2, .L30+8
 449 000c 83B0     		sub	sp, sp, #12
 450              		.cfi_def_cfa_offset 16
 451              		.loc 1 158 26 view .LVU94
 452 000e C01A     		subs	r0, r0, r3
 453              		.loc 1 160 1 view .LVU95
 454 0010 084B     		ldr	r3, .L30+8
 455              		.loc 1 155 31 view .LVU96
 456 0012 1268     		ldr	r2, [r2]
ARM GAS  /tmp/ccc3S50T.s 			page 9


 457 0014 0192     		str	r2, [sp, #4]
 458 0016 4FF00002 		mov	r2,#0
 459              		.loc 1 158 3 is_stmt 1 view .LVU97
 460              		.loc 1 160 1 is_stmt 0 view .LVU98
 461 001a 1A68     		ldr	r2, [r3]
 462 001c 019B     		ldr	r3, [sp, #4]
 463 001e 5A40     		eors	r2, r3, r2
 464 0020 02D1     		bne	.L29
 465 0022 03B0     		add	sp, sp, #12
 466              		.cfi_remember_state
 467              		.cfi_def_cfa_offset 4
 468              		@ sp needed
 469 0024 5DF804FB 		ldr	pc, [sp], #4
 470              	.L29:
 471              		.cfi_restore_state
 472 0028 FFF7FEFF 		bl	__stack_chk_fail
 473              	.LVL26:
 474              	.L31:
 475              		.align	2
 476              	.L30:
 477 002c 00000000 		.word	.LANCHOR1
 478 0030 00000000 		.word	.LANCHOR0
 479 0034 00000000 		.word	.LC3
 480              		.cfi_endproc
 481              	.LFE222:
 482              		.size	chCoreGetStatusX, .-chCoreGetStatusX
 483              		.section	.bss.endmem,"aw",%nobits
 484              		.align	2
 485              		.set	.LANCHOR1,. + 0
 486              		.type	endmem, %object
 487              		.size	endmem, 4
 488              	endmem:
 489 0000 00000000 		.space	4
 490              		.section	.bss.nextmem,"aw",%nobits
 491              		.align	2
 492              		.set	.LANCHOR0,. + 0
 493              		.type	nextmem, %object
 494              		.size	nextmem, 4
 495              	nextmem:
 496 0000 00000000 		.space	4
 497              		.section	.rodata.__func__.7261,"a"
 498              		.align	2
 499              		.set	.LANCHOR2,. + 0
 500              		.type	__func__.7261, %object
 501              		.size	__func__.7261, 12
 502              	__func__.7261:
 503 0000 63685379 		.ascii	"chSysUnlock\000"
 503      73556E6C 
 503      6F636B00 
 504              		.text
 505              	.Letext0:
 506              		.file 5 "/usr/lib/gcc/arm-none-eabi/9.2.1/include/stddef.h"
 507              		.file 6 "/usr/lib/gcc/arm-none-eabi/9.2.1/include/stdint.h"
 508              		.file 7 ".//ChibiOS//os/rt/ports/ARMCMx/compilers/GCC/chtypes.h"
 509              		.file 8 ".//ChibiOS//os/rt/include/chsystypes.h"
 510              		.file 9 ".//ChibiOS//os/rt/include/chschd.h"
 511              		.file 10 ".//ChibiOS//os/ext/CMSIS/include/core_cm4.h"
ARM GAS  /tmp/ccc3S50T.s 			page 10


 512              		.file 11 ".//ChibiOS//os/ext/CMSIS/ST/system_stm32f4xx.h"
 513              		.file 12 ".//ChibiOS//os/rt/ports/ARMCMx/chcore.h"
 514              		.file 13 ".//ChibiOS//os/rt/include/chdebug.h"
 515              		.file 14 ".//ChibiOS//os/rt/include/chtm.h"
 516              		.file 15 ".//ChibiOS//os/rt/include/chstats.h"
 517              		.file 16 ".//ChibiOS//os/rt/include/chsem.h"
 518              		.file 17 ".//ChibiOS//os/rt/include/chmtx.h"
 519              		.file 18 ".//ChibiOS//os/rt/include/chregistry.h"