ARM GAS  /tmp/ccyjThYZ.s 			page 1


   1              		.cpu cortex-m4
   2              		.eabi_attribute 27, 1
   3              		.eabi_attribute 28, 1
   4              		.eabi_attribute 20, 1
   5              		.eabi_attribute 21, 1
   6              		.eabi_attribute 23, 3
   7              		.eabi_attribute 24, 1
   8              		.eabi_attribute 25, 1
   9              		.eabi_attribute 26, 1
  10              		.eabi_attribute 30, 2
  11              		.eabi_attribute 34, 1
  12              		.eabi_attribute 18, 4
  13              		.file	"chmsg.c"
  14              		.text
  15              	.Ltext0:
  16              		.cfi_sections	.debug_frame
  17              		.section	.rodata.chMsgSend.cst4,"aM",%progbits,4
  18              		.align	2
  19              	.LC0:
  20 0000 00000000 		.word	__stack_chk_guard
  21              		.section	.text.chMsgSend,"ax",%progbits
  22              		.align	1
  23              		.p2align 4,,15
  24              		.global	chMsgSend
  25              		.arch armv7e-m
  26              		.syntax unified
  27              		.thumb
  28              		.thumb_func
  29              		.fpu fpv4-sp-d16
  30              		.type	chMsgSend, %function
  31              	chMsgSend:
  32              	.LVL0:
  33              	.LFB219:
  34              		.file 1 ".//ChibiOS//os/rt/src/chmsg.c"
  35              		.loc 1 87 42 view -0
  36              		.cfi_startproc
  37              		@ args = 0, pretend = 0, frame = 8
  38              		@ frame_needed = 0, uses_anonymous_args = 0
  39              		.loc 1 87 42 is_stmt 0 view .LVU1
  40 0000 F0B5     		push	{r4, r5, r6, r7, lr}
  41              		.cfi_def_cfa_offset 20
  42              		.cfi_offset 4, -20
  43              		.cfi_offset 5, -16
  44              		.cfi_offset 6, -12
  45              		.cfi_offset 7, -8
  46              		.cfi_offset 14, -4
  47 0002 244B     		ldr	r3, .L12
  48              		.loc 1 88 13 view .LVU2
  49 0004 244E     		ldr	r6, .L12+4
  50              		.loc 1 87 42 view .LVU3
  51 0006 83B0     		sub	sp, sp, #12
  52              		.cfi_def_cfa_offset 32
  53              		.loc 1 88 13 view .LVU4
  54 0008 B569     		ldr	r5, [r6, #24]
  55              		.loc 1 87 42 view .LVU5
  56 000a 1B68     		ldr	r3, [r3]
  57 000c 0193     		str	r3, [sp, #4]
ARM GAS  /tmp/ccyjThYZ.s 			page 2


  58 000e 4FF00003 		mov	r3,#0
  59              		.loc 1 88 3 is_stmt 1 view .LVU6
  60              	.LVL1:
  61              		.loc 1 90 3 view .LVU7
  62              		.loc 1 90 3 view .LVU8
  63              		.loc 1 90 3 view .LVU9
  64              		.loc 1 87 42 is_stmt 0 view .LVU10
  65 0012 0F46     		mov	r7, r1
  66              		.loc 1 90 3 view .LVU11
  67 0014 0446     		mov	r4, r0
  68 0016 0028     		cmp	r0, #0
  69 0018 36D0     		beq	.L8
  70              	.LVL2:
  71              	.L2:
  72              		.loc 1 90 3 is_stmt 1 discriminator 5 view .LVU12
  73              		.loc 1 92 3 discriminator 5 view .LVU13
  74              	.LBB49:
  75              	.LBI49:
  76              		.file 2 ".//ChibiOS//os/rt/include/chsys.h"
  77              		.loc 2 346 20 discriminator 5 view .LVU14
  78              	.LBB50:
  79              		.loc 2 348 3 discriminator 5 view .LVU15
  80              	.LBB51:
  81              	.LBI51:
  82              		.file 3 ".//ChibiOS//os/rt/ports/ARMCMx/chcore_v7m.h"
  83              		.loc 3 444 20 discriminator 5 view .LVU16
  84              	.LBE51:
  85              	.LBE50:
  86              	.LBE49:
  87              		.loc 3 447 3 discriminator 5 view .LVU17
  88              	.LBB56:
  89              	.LBB55:
  90              	.LBB54:
  91              	.LBB52:
  92              	.LBI52:
  93              		.file 4 ".//ChibiOS//os/ext/CMSIS/include/core_cmFunc.h"
  94              		.loc 4 544 57 discriminator 5 view .LVU18
  95              	.LBB53:
  96              		.loc 4 546 3 discriminator 5 view .LVU19
  97 001a 2023     		movs	r3, #32
  98              		.syntax unified
  99              	@ 546 ".//ChibiOS//os/ext/CMSIS/include/core_cmFunc.h" 1
 100 001c 83F31188 		MSR basepri, r3
 101              	@ 0 "" 2
 102              	.LVL3:
 103              		.loc 4 546 3 is_stmt 0 discriminator 5 view .LVU20
 104              		.thumb
 105              		.syntax unified
 106              	.LBE53:
 107              	.LBE52:
 108              	.LBE54:
 109              		.loc 2 349 3 is_stmt 1 discriminator 5 view .LVU21
 110 0020 FFF7FEFF 		bl	_stats_start_measure_crit_thd
 111              	.LVL4:
 112              		.loc 2 350 3 discriminator 5 view .LVU22
 113 0024 FFF7FEFF 		bl	_dbg_check_lock
 114              	.LVL5:
ARM GAS  /tmp/ccyjThYZ.s 			page 3


 115              	.LBE55:
 116              	.LBE56:
 117              		.loc 1 93 3 discriminator 5 view .LVU23
 118              		.loc 1 94 21 is_stmt 0 discriminator 5 view .LVU24
 119 0028 04F13003 		add	r3, r4, #48
 120              		.loc 1 93 14 discriminator 5 view .LVU25
 121 002c AF63     		str	r7, [r5, #56]
 122              		.loc 1 94 3 is_stmt 1 discriminator 5 view .LVU26
 123              		.loc 1 94 19 is_stmt 0 discriminator 5 view .LVU27
 124 002e AB62     		str	r3, [r5, #40]
 125              		.loc 1 95 3 is_stmt 1 discriminator 5 view .LVU28
 126              	.LVL6:
 127              	.LBB57:
 128              	.LBI57:
 129              		.file 5 ".//ChibiOS//os/rt/include/chschd.h"
 130              		.loc 5 663 20 discriminator 5 view .LVU29
 131              	.LBB58:
 132              		.loc 5 665 3 discriminator 5 view .LVU30
 133              		.loc 5 665 14 is_stmt 0 discriminator 5 view .LVU31
 134 0030 2B60     		str	r3, [r5]
 135              		.loc 5 666 3 is_stmt 1 discriminator 5 view .LVU32
 136              		.loc 5 666 19 is_stmt 0 discriminator 5 view .LVU33
 137 0032 636B     		ldr	r3, [r4, #52]
 138              	.LVL7:
 139              		.loc 5 666 14 discriminator 5 view .LVU34
 140 0034 6B60     		str	r3, [r5, #4]
 141              		.loc 5 667 3 is_stmt 1 discriminator 5 view .LVU35
 142              		.loc 5 667 22 is_stmt 0 discriminator 5 view .LVU36
 143 0036 1D60     		str	r5, [r3]
 144              	.LVL8:
 145              		.loc 5 668 3 is_stmt 1 discriminator 5 view .LVU37
 146              	.LBE58:
 147              	.LBE57:
 148              		.loc 1 96 6 is_stmt 0 discriminator 5 view .LVU38
 149 0038 94F82030 		ldrb	r3, [r4, #32]	@ zero_extendqisi2
 150              	.LBB60:
 151              	.LBB59:
 152              		.loc 5 668 15 discriminator 5 view .LVU39
 153 003c 6563     		str	r5, [r4, #52]
 154              	.LVL9:
 155              		.loc 5 668 15 discriminator 5 view .LVU40
 156              	.LBE59:
 157              	.LBE60:
 158              		.loc 1 96 3 is_stmt 1 discriminator 5 view .LVU41
 159              		.loc 1 96 6 is_stmt 0 discriminator 5 view .LVU42
 160 003e 0E2B     		cmp	r3, #14
 161 0040 1ED0     		beq	.L9
 162              	.L3:
 163              		.loc 1 99 3 is_stmt 1 view .LVU43
 164 0042 0C20     		movs	r0, #12
 165 0044 FFF7FEFF 		bl	chSchGoSleepS
 166              	.LVL10:
 167              		.loc 1 100 3 view .LVU44
 168              		.loc 1 100 7 is_stmt 0 view .LVU45
 169 0048 AC6A     		ldr	r4, [r5, #40]
 170              	.LVL11:
 171              		.loc 1 101 3 is_stmt 1 view .LVU46
ARM GAS  /tmp/ccyjThYZ.s 			page 4


 172              	.LBB61:
 173              	.LBI61:
 174              		.loc 2 358 20 view .LVU47
 175              	.LBB62:
 176              		.loc 2 360 3 view .LVU48
 177 004a FFF7FEFF 		bl	_dbg_check_unlock
 178              	.LVL12:
 179              		.loc 2 361 3 view .LVU49
 180 004e FFF7FEFF 		bl	_stats_stop_measure_crit_thd
 181              	.LVL13:
 182              		.loc 2 367 3 view .LVU50
 183              		.loc 2 367 3 view .LVU51
 184              		.loc 2 367 3 view .LVU52
 185 0052 3368     		ldr	r3, [r6]
 186 0054 B342     		cmp	r3, r6
 187 0056 04D0     		beq	.L4
 188 0058 B269     		ldr	r2, [r6, #24]
 189 005a 9B68     		ldr	r3, [r3, #8]
 190 005c 9268     		ldr	r2, [r2, #8]
 191 005e 9A42     		cmp	r2, r3
 192 0060 0AD3     		bcc	.L10
 193              	.L4:
 194              		.loc 2 367 3 view .LVU53
 195              		.loc 2 371 3 view .LVU54
 196              	.LBB63:
 197              	.LBI63:
 198              		.loc 3 458 20 view .LVU55
 199              	.LBE63:
 200              	.LBE62:
 201              	.LBE61:
 202              		.loc 3 461 3 view .LVU56
 203              	.LVL14:
 204              	.LBB69:
 205              	.LBB67:
 206              	.LBB66:
 207              	.LBB64:
 208              	.LBI64:
 209              		.loc 4 544 57 view .LVU57
 210              	.LBB65:
 211              		.loc 4 546 3 view .LVU58
 212 0062 0023     		movs	r3, #0
 213              		.syntax unified
 214              	@ 546 ".//ChibiOS//os/ext/CMSIS/include/core_cmFunc.h" 1
 215 0064 83F31188 		MSR basepri, r3
 216              	@ 0 "" 2
 217              	.LVL15:
 218              		.loc 4 546 3 is_stmt 0 view .LVU59
 219              		.thumb
 220              		.syntax unified
 221              	.LBE65:
 222              	.LBE64:
 223              	.LBE66:
 224              	.LBE67:
 225              	.LBE69:
 226              		.loc 1 103 3 is_stmt 1 view .LVU60
 227              		.loc 1 104 1 is_stmt 0 view .LVU61
 228 0068 0A4B     		ldr	r3, .L12
ARM GAS  /tmp/ccyjThYZ.s 			page 5


 229 006a 1A68     		ldr	r2, [r3]
 230 006c 019B     		ldr	r3, [sp, #4]
 231 006e 5A40     		eors	r2, r3, r2
 232 0070 0ED1     		bne	.L11
 233 0072 2046     		mov	r0, r4
 234 0074 03B0     		add	sp, sp, #12
 235              		.cfi_remember_state
 236              		.cfi_def_cfa_offset 20
 237              		@ sp needed
 238 0076 F0BD     		pop	{r4, r5, r6, r7, pc}
 239              	.LVL16:
 240              	.L10:
 241              		.cfi_restore_state
 242              	.LBB70:
 243              	.LBB68:
 244              		.loc 2 367 3 is_stmt 1 view .LVU62
 245 0078 0848     		ldr	r0, .L12+8
 246 007a FFF7FEFF 		bl	chSysHalt
 247              	.LVL17:
 248 007e F0E7     		b	.L4
 249              	.LVL18:
 250              	.L9:
 251              		.loc 2 367 3 is_stmt 0 view .LVU63
 252              	.LBE68:
 253              	.LBE70:
 254              		.loc 1 97 5 is_stmt 1 view .LVU64
 255              		.loc 1 97 12 is_stmt 0 view .LVU65
 256 0080 2046     		mov	r0, r4
 257 0082 FFF7FEFF 		bl	chSchReadyI
 258              	.LVL19:
 259 0086 DCE7     		b	.L3
 260              	.LVL20:
 261              	.L8:
 262              		.loc 1 90 3 is_stmt 1 discriminator 3 view .LVU66
 263 0088 0548     		ldr	r0, .L12+12
 264              	.LVL21:
 265              		.loc 1 90 3 is_stmt 0 discriminator 3 view .LVU67
 266 008a FFF7FEFF 		bl	chSysHalt
 267              	.LVL22:
 268              		.loc 1 90 3 discriminator 3 view .LVU68
 269 008e C4E7     		b	.L2
 270              	.LVL23:
 271              	.L11:
 272              		.loc 1 104 1 view .LVU69
 273 0090 FFF7FEFF 		bl	__stack_chk_fail
 274              	.LVL24:
 275              	.L13:
 276              		.align	2
 277              	.L12:
 278 0094 00000000 		.word	.LC0
 279 0098 00000000 		.word	ch
 280 009c 00000000 		.word	.LANCHOR1
 281 00a0 00000000 		.word	.LANCHOR0
 282              		.cfi_endproc
 283              	.LFE219:
 284              		.size	chMsgSend, .-chMsgSend
 285              		.section	.rodata.chMsgWait.cst4,"aM",%progbits,4
ARM GAS  /tmp/ccyjThYZ.s 			page 6


 286              		.align	2
 287              	.LC1:
 288 0000 00000000 		.word	__stack_chk_guard
 289              		.section	.text.chMsgWait,"ax",%progbits
 290              		.align	1
 291              		.p2align 4,,15
 292              		.global	chMsgWait
 293              		.syntax unified
 294              		.thumb
 295              		.thumb_func
 296              		.fpu fpv4-sp-d16
 297              		.type	chMsgWait, %function
 298              	chMsgWait:
 299              	.LFB220:
 300              		.loc 1 120 27 is_stmt 1 view -0
 301              		.cfi_startproc
 302              		@ args = 0, pretend = 0, frame = 8
 303              		@ frame_needed = 0, uses_anonymous_args = 0
 304 0000 30B5     		push	{r4, r5, lr}
 305              		.cfi_def_cfa_offset 12
 306              		.cfi_offset 4, -12
 307              		.cfi_offset 5, -8
 308              		.cfi_offset 14, -4
 309 0002 1F4B     		ldr	r3, .L22
 310 0004 83B0     		sub	sp, sp, #12
 311              		.cfi_def_cfa_offset 24
 312              		.loc 1 120 27 is_stmt 0 view .LVU71
 313 0006 1B68     		ldr	r3, [r3]
 314 0008 0193     		str	r3, [sp, #4]
 315 000a 4FF00003 		mov	r3,#0
 316              		.loc 1 121 3 is_stmt 1 view .LVU72
 317              		.loc 1 123 3 view .LVU73
 318              	.LBB85:
 319              	.LBI85:
 320              		.loc 2 346 20 view .LVU74
 321              	.LBB86:
 322              		.loc 2 348 3 view .LVU75
 323              	.LBB87:
 324              	.LBI87:
 325              		.loc 3 444 20 view .LVU76
 326              	.LBE87:
 327              	.LBE86:
 328              	.LBE85:
 329              		.loc 3 447 3 view .LVU77
 330              	.LVL25:
 331              	.LBB93:
 332              	.LBB91:
 333              	.LBB90:
 334              	.LBB88:
 335              	.LBI88:
 336              		.loc 4 544 57 view .LVU78
 337              	.LBB89:
 338              		.loc 4 546 3 view .LVU79
 339 000e 2023     		movs	r3, #32
 340              		.syntax unified
 341              	@ 546 ".//ChibiOS//os/ext/CMSIS/include/core_cmFunc.h" 1
 342 0010 83F31188 		MSR basepri, r3
ARM GAS  /tmp/ccyjThYZ.s 			page 7


 343              	@ 0 "" 2
 344              	.LVL26:
 345              		.loc 4 546 3 is_stmt 0 view .LVU80
 346              		.thumb
 347              		.syntax unified
 348              	.LBE89:
 349              	.LBE88:
 350              	.LBE90:
 351              		.loc 2 349 3 is_stmt 1 view .LVU81
 352              	.LBE91:
 353              	.LBE93:
 354              		.loc 1 124 8 is_stmt 0 view .LVU82
 355 0014 1B4C     		ldr	r4, .L22+4
 356              	.LBB94:
 357              	.LBB92:
 358              		.loc 2 349 3 view .LVU83
 359 0016 FFF7FEFF 		bl	_stats_start_measure_crit_thd
 360              	.LVL27:
 361              		.loc 2 350 3 is_stmt 1 view .LVU84
 362 001a FFF7FEFF 		bl	_dbg_check_lock
 363              	.LVL28:
 364              	.LBE92:
 365              	.LBE94:
 366              		.loc 1 124 3 view .LVU85
 367              		.loc 1 124 8 is_stmt 0 view .LVU86
 368 001e A569     		ldr	r5, [r4, #24]
 369              	.LVL29:
 370              	.LBB95:
 371              	.LBI95:
 372              		.file 6 ".//ChibiOS//os/rt/include/chmsg.h"
 373              		.loc 6 79 20 is_stmt 1 view .LVU87
 374              	.LBB96:
 375              		.loc 6 81 3 view .LVU88
 376 0020 FFF7FEFF 		bl	chDbgCheckClassI
 377              	.LVL30:
 378              		.loc 6 83 3 view .LVU89
 379              		.loc 6 83 3 is_stmt 0 view .LVU90
 380              	.LBE96:
 381              	.LBE95:
 382              		.loc 1 124 6 view .LVU91
 383 0024 2B6B     		ldr	r3, [r5, #48]
 384              	.LBB98:
 385              	.LBB97:
 386              		.loc 6 83 54 view .LVU92
 387 0026 3035     		adds	r5, r5, #48
 388              	.LBE97:
 389              	.LBE98:
 390              		.loc 1 124 6 view .LVU93
 391 0028 AB42     		cmp	r3, r5
 392 002a 23D0     		beq	.L19
 393              	.L15:
 394              		.loc 1 127 3 is_stmt 1 view .LVU94
 395              		.loc 1 127 27 is_stmt 0 view .LVU95
 396 002c A369     		ldr	r3, [r4, #24]
 397              	.LVL31:
 398              	.LBB99:
 399              	.LBI99:
ARM GAS  /tmp/ccyjThYZ.s 			page 8


 400              		.loc 5 671 25 is_stmt 1 view .LVU96
 401              	.LBB100:
 402              		.loc 5 672 3 view .LVU97
 403              		.loc 5 672 13 is_stmt 0 view .LVU98
 404 002e 1D6B     		ldr	r5, [r3, #48]
 405              	.LVL32:
 406              		.loc 5 674 3 is_stmt 1 view .LVU99
 407              		.loc 5 674 19 is_stmt 0 view .LVU100
 408 0030 2A68     		ldr	r2, [r5]
 409              		.loc 5 674 15 view .LVU101
 410 0032 43F8302F 		str	r2, [r3, #48]!
 411              	.LVL33:
 412              		.loc 5 675 3 is_stmt 1 view .LVU102
 413              	.LBE100:
 414              	.LBE99:
 415              		.loc 1 128 15 is_stmt 0 view .LVU103
 416 0036 0D21     		movs	r1, #13
 417              	.LBB102:
 418              	.LBB101:
 419              		.loc 5 675 23 view .LVU104
 420 0038 5360     		str	r3, [r2, #4]
 421              		.loc 5 677 3 is_stmt 1 view .LVU105
 422              	.LVL34:
 423              		.loc 5 677 3 is_stmt 0 view .LVU106
 424              	.LBE101:
 425              	.LBE102:
 426              		.loc 1 128 3 is_stmt 1 view .LVU107
 427              		.loc 1 128 15 is_stmt 0 view .LVU108
 428 003a 85F82010 		strb	r1, [r5, #32]
 429              		.loc 1 129 3 is_stmt 1 view .LVU109
 430              	.LBB103:
 431              	.LBI103:
 432              		.loc 2 358 20 view .LVU110
 433              	.LBB104:
 434              		.loc 2 360 3 view .LVU111
 435 003e FFF7FEFF 		bl	_dbg_check_unlock
 436              	.LVL35:
 437              		.loc 2 361 3 view .LVU112
 438 0042 FFF7FEFF 		bl	_stats_stop_measure_crit_thd
 439              	.LVL36:
 440              		.loc 2 367 3 view .LVU113
 441              		.loc 2 367 3 view .LVU114
 442              		.loc 2 367 3 view .LVU115
 443 0046 2368     		ldr	r3, [r4]
 444 0048 A342     		cmp	r3, r4
 445 004a 04D0     		beq	.L16
 446 004c A269     		ldr	r2, [r4, #24]
 447 004e 9B68     		ldr	r3, [r3, #8]
 448 0050 9268     		ldr	r2, [r2, #8]
 449 0052 9A42     		cmp	r2, r3
 450 0054 0AD3     		bcc	.L20
 451              	.L16:
 452              		.loc 2 367 3 view .LVU116
 453              		.loc 2 371 3 view .LVU117
 454              	.LBB105:
 455              	.LBI105:
 456              		.loc 3 458 20 view .LVU118
ARM GAS  /tmp/ccyjThYZ.s 			page 9


 457              	.LBE105:
 458              	.LBE104:
 459              	.LBE103:
 460              		.loc 3 461 3 view .LVU119
 461              	.LVL37:
 462              	.LBB111:
 463              	.LBB109:
 464              	.LBB108:
 465              	.LBB106:
 466              	.LBI106:
 467              		.loc 4 544 57 view .LVU120
 468              	.LBB107:
 469              		.loc 4 546 3 view .LVU121
 470 0056 0023     		movs	r3, #0
 471              		.syntax unified
 472              	@ 546 ".//ChibiOS//os/ext/CMSIS/include/core_cmFunc.h" 1
 473 0058 83F31188 		MSR basepri, r3
 474              	@ 0 "" 2
 475              	.LVL38:
 476              		.loc 4 546 3 is_stmt 0 view .LVU122
 477              		.thumb
 478              		.syntax unified
 479              	.LBE107:
 480              	.LBE106:
 481              	.LBE108:
 482              	.LBE109:
 483              	.LBE111:
 484              		.loc 1 131 3 is_stmt 1 view .LVU123
 485              		.loc 1 132 1 is_stmt 0 view .LVU124
 486 005c 084B     		ldr	r3, .L22
 487 005e 1A68     		ldr	r2, [r3]
 488 0060 019B     		ldr	r3, [sp, #4]
 489 0062 5A40     		eors	r2, r3, r2
 490 0064 0AD1     		bne	.L21
 491 0066 2846     		mov	r0, r5
 492 0068 03B0     		add	sp, sp, #12
 493              		.cfi_remember_state
 494              		.cfi_def_cfa_offset 12
 495              		@ sp needed
 496 006a 30BD     		pop	{r4, r5, pc}
 497              	.LVL39:
 498              	.L20:
 499              		.cfi_restore_state
 500              	.LBB112:
 501              	.LBB110:
 502              		.loc 2 367 3 is_stmt 1 view .LVU125
 503 006c 0648     		ldr	r0, .L22+8
 504 006e FFF7FEFF 		bl	chSysHalt
 505              	.LVL40:
 506 0072 F0E7     		b	.L16
 507              	.LVL41:
 508              	.L19:
 509              		.loc 2 367 3 is_stmt 0 view .LVU126
 510              	.LBE110:
 511              	.LBE112:
 512              		.loc 1 125 5 is_stmt 1 view .LVU127
 513 0074 0E20     		movs	r0, #14
ARM GAS  /tmp/ccyjThYZ.s 			page 10


 514 0076 FFF7FEFF 		bl	chSchGoSleepS
 515              	.LVL42:
 516 007a D7E7     		b	.L15
 517              	.LVL43:
 518              	.L21:
 519              		.loc 1 132 1 is_stmt 0 view .LVU128
 520 007c FFF7FEFF 		bl	__stack_chk_fail
 521              	.LVL44:
 522              	.L23:
 523              		.align	2
 524              	.L22:
 525 0080 00000000 		.word	.LC1
 526 0084 00000000 		.word	ch
 527 0088 00000000 		.word	.LANCHOR1
 528              		.cfi_endproc
 529              	.LFE220:
 530              		.size	chMsgWait, .-chMsgWait
 531              		.section	.rodata.chMsgRelease.cst4,"aM",%progbits,4
 532              		.align	2
 533              	.LC2:
 534 0000 00000000 		.word	__stack_chk_guard
 535              		.section	.text.chMsgRelease,"ax",%progbits
 536              		.align	1
 537              		.p2align 4,,15
 538              		.global	chMsgRelease
 539              		.syntax unified
 540              		.thumb
 541              		.thumb_func
 542              		.fpu fpv4-sp-d16
 543              		.type	chMsgRelease, %function
 544              	chMsgRelease:
 545              	.LVL45:
 546              	.LFB221:
 547              		.loc 1 144 44 is_stmt 1 view -0
 548              		.cfi_startproc
 549              		@ args = 0, pretend = 0, frame = 8
 550              		@ frame_needed = 0, uses_anonymous_args = 0
 551              		.loc 1 144 44 is_stmt 0 view .LVU130
 552 0000 30B5     		push	{r4, r5, lr}
 553              		.cfi_def_cfa_offset 12
 554              		.cfi_offset 4, -12
 555              		.cfi_offset 5, -8
 556              		.cfi_offset 14, -4
 557 0002 1C4B     		ldr	r3, .L34
 558 0004 83B0     		sub	sp, sp, #12
 559              		.cfi_def_cfa_offset 24
 560              		.loc 1 144 44 view .LVU131
 561 0006 1B68     		ldr	r3, [r3]
 562 0008 0193     		str	r3, [sp, #4]
 563 000a 4FF00003 		mov	r3,#0
 564              		.loc 1 146 3 is_stmt 1 view .LVU132
 565              	.LBB125:
 566              	.LBI125:
 567              		.loc 2 346 20 view .LVU133
 568              	.LBB126:
 569              		.loc 2 348 3 view .LVU134
 570              	.LBB127:
ARM GAS  /tmp/ccyjThYZ.s 			page 11


 571              	.LBI127:
 572              		.loc 3 444 20 view .LVU135
 573              	.LBE127:
 574              	.LBE126:
 575              	.LBE125:
 576              		.loc 3 447 3 view .LVU136
 577              	.LVL46:
 578              	.LBB136:
 579              	.LBB134:
 580              	.LBB132:
 581              	.LBB128:
 582              	.LBI128:
 583              		.loc 4 544 57 view .LVU137
 584              	.LBB129:
 585              		.loc 4 546 3 view .LVU138
 586              	.LBE129:
 587              	.LBE128:
 588              	.LBE132:
 589              	.LBE134:
 590              	.LBE136:
 591              		.loc 1 144 44 is_stmt 0 view .LVU139
 592 000e 0446     		mov	r4, r0
 593 0010 0D46     		mov	r5, r1
 594              	.LBB137:
 595              	.LBB135:
 596              	.LBB133:
 597              	.LBB131:
 598              	.LBB130:
 599              		.loc 4 546 3 view .LVU140
 600 0012 2023     		movs	r3, #32
 601              		.syntax unified
 602              	@ 546 ".//ChibiOS//os/ext/CMSIS/include/core_cmFunc.h" 1
 603 0014 83F31188 		MSR basepri, r3
 604              	@ 0 "" 2
 605              	.LVL47:
 606              		.loc 4 546 3 view .LVU141
 607              		.thumb
 608              		.syntax unified
 609              	.LBE130:
 610              	.LBE131:
 611              	.LBE133:
 612              		.loc 2 349 3 is_stmt 1 view .LVU142
 613 0018 FFF7FEFF 		bl	_stats_start_measure_crit_thd
 614              	.LVL48:
 615              		.loc 2 350 3 view .LVU143
 616 001c FFF7FEFF 		bl	_dbg_check_lock
 617              	.LVL49:
 618              	.LBE135:
 619              	.LBE137:
 620              		.loc 1 147 3 view .LVU144
 621              		.loc 1 147 3 view .LVU145
 622              		.loc 1 147 3 view .LVU146
 623 0020 94F82030 		ldrb	r3, [r4, #32]	@ zero_extendqisi2
 624 0024 0D2B     		cmp	r3, #13
 625 0026 02D0     		beq	.L25
 626              		.loc 1 147 3 discriminator 3 view .LVU147
 627 0028 1348     		ldr	r0, .L34+4
ARM GAS  /tmp/ccyjThYZ.s 			page 12


 628 002a FFF7FEFF 		bl	chSysHalt
 629              	.LVL50:
 630              	.L25:
 631              		.loc 1 147 3 discriminator 5 view .LVU148
 632              		.loc 1 148 3 discriminator 5 view .LVU149
 633              	.LBB138:
 634              	.LBI138:
 635              		.loc 6 111 20 discriminator 5 view .LVU150
 636              	.LBB139:
 637              		.loc 6 113 3 discriminator 5 view .LVU151
 638 002e FFF7FEFF 		bl	chDbgCheckClassS
 639              	.LVL51:
 640              		.loc 6 115 3 discriminator 5 view .LVU152
 641 0032 2946     		mov	r1, r5
 642 0034 2046     		mov	r0, r4
 643 0036 FFF7FEFF 		bl	chSchWakeupS
 644              	.LVL52:
 645              		.loc 6 115 3 is_stmt 0 discriminator 5 view .LVU153
 646              	.LBE139:
 647              	.LBE138:
 648              		.loc 1 149 3 is_stmt 1 discriminator 5 view .LVU154
 649              	.LBB140:
 650              	.LBI140:
 651              		.loc 2 358 20 discriminator 5 view .LVU155
 652              	.LBB141:
 653              		.loc 2 360 3 discriminator 5 view .LVU156
 654 003a FFF7FEFF 		bl	_dbg_check_unlock
 655              	.LVL53:
 656              		.loc 2 361 3 discriminator 5 view .LVU157
 657 003e FFF7FEFF 		bl	_stats_stop_measure_crit_thd
 658              	.LVL54:
 659              		.loc 2 367 3 discriminator 5 view .LVU158
 660              		.loc 2 367 3 discriminator 5 view .LVU159
 661              		.loc 2 367 3 discriminator 5 view .LVU160
 662 0042 0E4B     		ldr	r3, .L34+8
 663 0044 1A68     		ldr	r2, [r3]
 664 0046 9A42     		cmp	r2, r3
 665 0048 04D0     		beq	.L26
 666              		.loc 2 367 3 is_stmt 0 view .LVU161
 667 004a 9969     		ldr	r1, [r3, #24]
 668 004c 9368     		ldr	r3, [r2, #8]
 669 004e 8A68     		ldr	r2, [r1, #8]
 670 0050 9A42     		cmp	r2, r3
 671 0052 09D3     		bcc	.L32
 672              	.L26:
 673              		.loc 2 367 3 is_stmt 1 view .LVU162
 674              		.loc 2 371 3 view .LVU163
 675              	.LBB142:
 676              	.LBI142:
 677              		.loc 3 458 20 view .LVU164
 678              	.LBE142:
 679              	.LBE141:
 680              	.LBE140:
 681              		.loc 3 461 3 view .LVU165
 682              	.LVL55:
 683              	.LBB148:
 684              	.LBB146:
ARM GAS  /tmp/ccyjThYZ.s 			page 13


 685              	.LBB145:
 686              	.LBB143:
 687              	.LBI143:
 688              		.loc 4 544 57 view .LVU166
 689              	.LBB144:
 690              		.loc 4 546 3 view .LVU167
 691 0054 0023     		movs	r3, #0
 692              		.syntax unified
 693              	@ 546 ".//ChibiOS//os/ext/CMSIS/include/core_cmFunc.h" 1
 694 0056 83F31188 		MSR basepri, r3
 695              	@ 0 "" 2
 696              	.LVL56:
 697              		.loc 4 546 3 is_stmt 0 view .LVU168
 698              		.thumb
 699              		.syntax unified
 700              	.LBE144:
 701              	.LBE143:
 702              	.LBE145:
 703              	.LBE146:
 704              	.LBE148:
 705              		.loc 1 150 1 view .LVU169
 706 005a 064B     		ldr	r3, .L34
 707 005c 1A68     		ldr	r2, [r3]
 708 005e 019B     		ldr	r3, [sp, #4]
 709 0060 5A40     		eors	r2, r3, r2
 710 0062 05D1     		bne	.L33
 711 0064 03B0     		add	sp, sp, #12
 712              		.cfi_remember_state
 713              		.cfi_def_cfa_offset 12
 714              		@ sp needed
 715 0066 30BD     		pop	{r4, r5, pc}
 716              	.LVL57:
 717              	.L32:
 718              		.cfi_restore_state
 719              	.LBB149:
 720              	.LBB147:
 721              		.loc 2 367 3 is_stmt 1 view .LVU170
 722 0068 0548     		ldr	r0, .L34+12
 723 006a FFF7FEFF 		bl	chSysHalt
 724              	.LVL58:
 725 006e F1E7     		b	.L26
 726              	.L33:
 727              	.LBE147:
 728              	.LBE149:
 729              		.loc 1 150 1 is_stmt 0 view .LVU171
 730 0070 FFF7FEFF 		bl	__stack_chk_fail
 731              	.LVL59:
 732              	.L35:
 733              		.align	2
 734              	.L34:
 735 0074 00000000 		.word	.LC2
 736 0078 00000000 		.word	.LANCHOR2
 737 007c 00000000 		.word	ch
 738 0080 00000000 		.word	.LANCHOR1
 739              		.cfi_endproc
 740              	.LFE221:
 741              		.size	chMsgRelease, .-chMsgRelease
ARM GAS  /tmp/ccyjThYZ.s 			page 14


 742              		.section	.rodata.__func__.7261,"a"
 743              		.align	2
 744              		.set	.LANCHOR1,. + 0
 745              		.type	__func__.7261, %object
 746              		.size	__func__.7261, 12
 747              	__func__.7261:
 748 0000 63685379 		.ascii	"chSysUnlock\000"
 748      73556E6C 
 748      6F636B00 
 749              		.section	.rodata.__func__.7959,"a"
 750              		.align	2
 751              		.set	.LANCHOR0,. + 0
 752              		.type	__func__.7959, %object
 753              		.size	__func__.7959, 10
 754              	__func__.7959:
 755 0000 63684D73 		.ascii	"chMsgSend\000"
 755      6753656E 
 755      6400
 756              		.section	.rodata.__func__.7968,"a"
 757              		.align	2
 758              		.set	.LANCHOR2,. + 0
 759              		.type	__func__.7968, %object
 760              		.size	__func__.7968, 13
 761              	__func__.7968:
 762 0000 63684D73 		.ascii	"chMsgRelease\000"
 762      6752656C 
 762      65617365 
 762      00
 763              		.text
 764              	.Letext0:
 765              		.file 7 "/usr/lib/gcc/arm-none-eabi/9.2.1/include/stdint.h"
 766              		.file 8 ".//ChibiOS//os/rt/ports/ARMCMx/compilers/GCC/chtypes.h"
 767              		.file 9 ".//ChibiOS//os/rt/include/chsystypes.h"
 768              		.file 10 ".//ChibiOS//os/ext/CMSIS/include/core_cm4.h"
 769              		.file 11 ".//ChibiOS//os/ext/CMSIS/ST/system_stm32f4xx.h"
 770              		.file 12 ".//ChibiOS//os/rt/ports/ARMCMx/chcore.h"
 771              		.file 13 ".//ChibiOS//os/rt/include/chdebug.h"
 772              		.file 14 ".//ChibiOS//os/rt/include/chtm.h"
 773              		.file 15 ".//ChibiOS//os/rt/include/chstats.h"
 774              		.file 16 ".//ChibiOS//os/rt/include/chsem.h"
 775              		.file 17 ".//ChibiOS//os/rt/include/chmtx.h"
 776              		.file 18 ".//ChibiOS//os/rt/include/chregistry.h"
 777              		.section	.debug_info,"",%progbits
 778              	.Ldebug_info0:
 779 0000 0A110000 		.4byte	0x110a
 780 0004 0400     		.2byte	0x4
 781 0006 00000000 		.4byte	.Ldebug_abbrev0
 782 000a 04       		.byte	0x4
 783 000b 01       		.uleb128 0x1
 784 000c C3040000 		.4byte	.LASF175
 785 0010 0C       		.byte	0xc
 786 0011 27020000 		.4byte	.LASF176
 787 0015 E1020000 		.4byte	.LASF177
 788 0019 98010000 		.4byte	.Ldebug_ranges0+0x198
 789 001d 00000000 		.4byte	0
 790 0021 00000000 		.4byte	.Ldebug_line0
 791 0025 02       		.uleb128 0x2
ARM GAS  /tmp/ccyjThYZ.s 			page 15


 792 0026 04       		.byte	0x4
 793 0027 05       		.byte	0x5
 794 0028 696E7400 		.ascii	"int\000"
 795 002c 03       		.uleb128 0x3
 796 002d 04       		.byte	0x4
 797 002e 07       		.byte	0x7
 798 002f 82020000 		.4byte	.LASF0
 799 0033 03       		.uleb128 0x3
 800 0034 08       		.byte	0x8
 801 0035 05       		.byte	0x5
 802 0036 42010000 		.4byte	.LASF1
 803 003a 03       		.uleb128 0x3
 804 003b 08       		.byte	0x8
 805 003c 04       		.byte	0x4
 806 003d 5D040000 		.4byte	.LASF2
 807 0041 03       		.uleb128 0x3
 808 0042 01       		.byte	0x1
 809 0043 06       		.byte	0x6
 810 0044 50010000 		.4byte	.LASF3
 811 0048 03       		.uleb128 0x3
 812 0049 02       		.byte	0x2
 813 004a 05       		.byte	0x5
 814 004b AD060000 		.4byte	.LASF4
 815 004f 04       		.uleb128 0x4
 816 0050 8D060000 		.4byte	.LASF6
 817 0054 07       		.byte	0x7
 818 0055 28       		.byte	0x28
 819 0056 18       		.byte	0x18
 820 0057 60000000 		.4byte	0x60
 821 005b 05       		.uleb128 0x5
 822 005c 4F000000 		.4byte	0x4f
 823 0060 03       		.uleb128 0x3
 824 0061 04       		.byte	0x4
 825 0062 05       		.byte	0x5
 826 0063 B0010000 		.4byte	.LASF5
 827 0067 04       		.uleb128 0x4
 828 0068 92080000 		.4byte	.LASF7
 829 006c 07       		.byte	0x7
 830 006d 2E       		.byte	0x2e
 831 006e 18       		.byte	0x18
 832 006f 73000000 		.4byte	0x73
 833 0073 03       		.uleb128 0x3
 834 0074 01       		.byte	0x1
 835 0075 08       		.byte	0x8
 836 0076 95060000 		.4byte	.LASF8
 837 007a 04       		.uleb128 0x4
 838 007b 97020000 		.4byte	.LASF9
 839 007f 07       		.byte	0x7
 840 0080 31       		.byte	0x31
 841 0081 19       		.byte	0x19
 842 0082 86000000 		.4byte	0x86
 843 0086 03       		.uleb128 0x3
 844 0087 02       		.byte	0x2
 845 0088 07       		.byte	0x7
 846 0089 2F030000 		.4byte	.LASF10
 847 008d 04       		.uleb128 0x4
 848 008e 7D070000 		.4byte	.LASF11
ARM GAS  /tmp/ccyjThYZ.s 			page 16


 849 0092 07       		.byte	0x7
 850 0093 34       		.byte	0x34
 851 0094 19       		.byte	0x19
 852 0095 99000000 		.4byte	0x99
 853 0099 03       		.uleb128 0x3
 854 009a 04       		.byte	0x4
 855 009b 07       		.byte	0x7
 856 009c BE070000 		.4byte	.LASF12
 857 00a0 04       		.uleb128 0x4
 858 00a1 34000000 		.4byte	.LASF13
 859 00a5 07       		.byte	0x7
 860 00a6 37       		.byte	0x37
 861 00a7 19       		.byte	0x19
 862 00a8 AC000000 		.4byte	0xac
 863 00ac 03       		.uleb128 0x3
 864 00ad 08       		.byte	0x8
 865 00ae 07       		.byte	0x7
 866 00af 99000000 		.4byte	.LASF14
 867 00b3 04       		.uleb128 0x4
 868 00b4 2E040000 		.4byte	.LASF15
 869 00b8 08       		.byte	0x8
 870 00b9 45       		.byte	0x45
 871 00ba 1D       		.byte	0x1d
 872 00bb 8D000000 		.4byte	0x8d
 873 00bf 04       		.uleb128 0x4
 874 00c0 25010000 		.4byte	.LASF16
 875 00c4 08       		.byte	0x8
 876 00c5 46       		.byte	0x46
 877 00c6 1D       		.byte	0x1d
 878 00c7 A0000000 		.4byte	0xa0
 879 00cb 04       		.uleb128 0x4
 880 00cc DE060000 		.4byte	.LASF17
 881 00d0 08       		.byte	0x8
 882 00d1 48       		.byte	0x48
 883 00d2 1D       		.byte	0x1d
 884 00d3 67000000 		.4byte	0x67
 885 00d7 04       		.uleb128 0x4
 886 00d8 C3010000 		.4byte	.LASF18
 887 00dc 08       		.byte	0x8
 888 00dd 49       		.byte	0x49
 889 00de 1D       		.byte	0x1d
 890 00df 67000000 		.4byte	0x67
 891 00e3 04       		.uleb128 0x4
 892 00e4 32060000 		.4byte	.LASF19
 893 00e8 08       		.byte	0x8
 894 00e9 4A       		.byte	0x4a
 895 00ea 1D       		.byte	0x1d
 896 00eb 67000000 		.4byte	0x67
 897 00ef 04       		.uleb128 0x4
 898 00f0 9C010000 		.4byte	.LASF20
 899 00f4 08       		.byte	0x8
 900 00f5 4B       		.byte	0x4b
 901 00f6 1D       		.byte	0x1d
 902 00f7 67000000 		.4byte	0x67
 903 00fb 04       		.uleb128 0x4
 904 00fc 76060000 		.4byte	.LASF21
 905 0100 08       		.byte	0x8
ARM GAS  /tmp/ccyjThYZ.s 			page 17


 906 0101 4C       		.byte	0x4c
 907 0102 1D       		.byte	0x1d
 908 0103 8D000000 		.4byte	0x8d
 909 0107 04       		.uleb128 0x4
 910 0108 68030000 		.4byte	.LASF22
 911 010c 08       		.byte	0x8
 912 010d 4D       		.byte	0x4d
 913 010e 1D       		.byte	0x1d
 914 010f 4F000000 		.4byte	0x4f
 915 0113 04       		.uleb128 0x4
 916 0114 CD030000 		.4byte	.LASF23
 917 0118 08       		.byte	0x8
 918 0119 4F       		.byte	0x4f
 919 011a 1D       		.byte	0x1d
 920 011b 8D000000 		.4byte	0x8d
 921 011f 04       		.uleb128 0x4
 922 0120 71020000 		.4byte	.LASF24
 923 0124 08       		.byte	0x8
 924 0125 51       		.byte	0x51
 925 0126 1D       		.byte	0x1d
 926 0127 4F000000 		.4byte	0x4f
 927 012b 04       		.uleb128 0x4
 928 012c 73030000 		.4byte	.LASF25
 929 0130 08       		.byte	0x8
 930 0131 52       		.byte	0x52
 931 0132 1D       		.byte	0x1d
 932 0133 8D000000 		.4byte	0x8d
 933 0137 04       		.uleb128 0x4
 934 0138 FC070000 		.4byte	.LASF26
 935 013c 09       		.byte	0x9
 936 013d 33       		.byte	0x33
 937 013e 12       		.byte	0x12
 938 013f 8D000000 		.4byte	0x8d
 939 0143 05       		.uleb128 0x5
 940 0144 37010000 		.4byte	0x137
 941 0148 04       		.uleb128 0x4
 942 0149 DC070000 		.4byte	.LASF27
 943 014d 09       		.byte	0x9
 944 014e 3F       		.byte	0x3f
 945 014f 1A       		.byte	0x1a
 946 0150 54010000 		.4byte	0x154
 947 0154 06       		.uleb128 0x6
 948 0155 51030000 		.4byte	.LASF51
 949 0159 68       		.byte	0x68
 950 015a 05       		.byte	0x5
 951 015b C2       		.byte	0xc2
 952 015c 08       		.byte	0x8
 953 015d 89020000 		.4byte	0x289
 954 0161 07       		.uleb128 0x7
 955 0162 D7060000 		.4byte	.LASF28
 956 0166 05       		.byte	0x5
 957 0167 C3       		.byte	0xc3
 958 0168 1A       		.byte	0x1a
 959 0169 95020000 		.4byte	0x295
 960 016d 00       		.byte	0
 961 016e 07       		.uleb128 0x7
 962 016f 6F060000 		.4byte	.LASF29
ARM GAS  /tmp/ccyjThYZ.s 			page 18


 963 0173 05       		.byte	0x5
 964 0174 C5       		.byte	0xc5
 965 0175 1A       		.byte	0x1a
 966 0176 95020000 		.4byte	0x295
 967 017a 04       		.byte	0x4
 968 017b 07       		.uleb128 0x7
 969 017c 2E010000 		.4byte	.LASF30
 970 0180 05       		.byte	0x5
 971 0181 C7       		.byte	0xc7
 972 0182 19       		.byte	0x19
 973 0183 FB000000 		.4byte	0xfb
 974 0187 08       		.byte	0x8
 975 0188 07       		.uleb128 0x7
 976 0189 A5040000 		.4byte	.LASF31
 977 018d 05       		.byte	0x5
 978 018e C8       		.byte	0xc8
 979 018f 19       		.byte	0x19
 980 0190 3E050000 		.4byte	0x53e
 981 0194 0C       		.byte	0xc
 982 0195 07       		.uleb128 0x7
 983 0196 EC010000 		.4byte	.LASF32
 984 019a 05       		.byte	0x5
 985 019b CA       		.byte	0xca
 986 019c 1A       		.byte	0x1a
 987 019d 95020000 		.4byte	0x295
 988 01a1 10       		.byte	0x10
 989 01a2 07       		.uleb128 0x7
 990 01a3 97040000 		.4byte	.LASF33
 991 01a7 05       		.byte	0x5
 992 01a8 CB       		.byte	0xcb
 993 01a9 1A       		.byte	0x1a
 994 01aa 95020000 		.4byte	0x295
 995 01ae 14       		.byte	0x14
 996 01af 07       		.uleb128 0x7
 997 01b0 D3080000 		.4byte	.LASF34
 998 01b4 05       		.byte	0x5
 999 01b5 D2       		.byte	0xd2
 1000 01b6 1A       		.byte	0x1a
 1001 01b7 FB080000 		.4byte	0x8fb
 1002 01bb 18       		.byte	0x18
 1003 01bc 07       		.uleb128 0x7
 1004 01bd 77020000 		.4byte	.LASF35
 1005 01c1 05       		.byte	0x5
 1006 01c2 D8       		.byte	0xd8
 1007 01c3 1A       		.byte	0x1a
 1008 01c4 12090000 		.4byte	0x912
 1009 01c8 1C       		.byte	0x1c
 1010 01c9 07       		.uleb128 0x7
 1011 01ca B7060000 		.4byte	.LASF36
 1012 01ce 05       		.byte	0x5
 1013 01cf DD       		.byte	0xdd
 1014 01d0 19       		.byte	0x19
 1015 01d1 D7000000 		.4byte	0xd7
 1016 01d5 20       		.byte	0x20
 1017 01d6 07       		.uleb128 0x7
 1018 01d7 F5060000 		.4byte	.LASF37
 1019 01db 05       		.byte	0x5
ARM GAS  /tmp/ccyjThYZ.s 			page 19


 1020 01dc E1       		.byte	0xe1
 1021 01dd 19       		.byte	0x19
 1022 01de CB000000 		.4byte	0xcb
 1023 01e2 21       		.byte	0x21
 1024 01e3 07       		.uleb128 0x7
 1025 01e4 74080000 		.4byte	.LASF38
 1026 01e8 05       		.byte	0x5
 1027 01e9 E6       		.byte	0xe6
 1028 01ea 19       		.byte	0x19
 1029 01eb E3000000 		.4byte	0xe3
 1030 01ef 22       		.byte	0x22
 1031 01f0 07       		.uleb128 0x7
 1032 01f1 BF060000 		.4byte	.LASF39
 1033 01f5 05       		.byte	0x5
 1034 01f6 EC       		.byte	0xec
 1035 01f7 19       		.byte	0x19
 1036 01f8 EF000000 		.4byte	0xef
 1037 01fc 23       		.byte	0x23
 1038 01fd 07       		.uleb128 0x7
 1039 01fe B0020000 		.4byte	.LASF40
 1040 0202 05       		.byte	0x5
 1041 0203 F3       		.byte	0xf3
 1042 0204 19       		.byte	0x19
 1043 0205 43010000 		.4byte	0x143
 1044 0209 24       		.byte	0x24
 1045 020a 08       		.uleb128 0x8
 1046 020b 705F7500 		.ascii	"p_u\000"
 1047 020f 05       		.byte	0x5
 1048 0210 3101     		.2byte	0x131
 1049 0212 19       		.byte	0x19
 1050 0213 1A080000 		.4byte	0x81a
 1051 0217 28       		.byte	0x28
 1052 0218 09       		.uleb128 0x9
 1053 0219 07040000 		.4byte	.LASF41
 1054 021d 05       		.byte	0x5
 1055 021e 3601     		.2byte	0x136
 1056 0220 19       		.byte	0x19
 1057 0221 9B020000 		.4byte	0x29b
 1058 0225 2C       		.byte	0x2c
 1059 0226 09       		.uleb128 0x9
 1060 0227 C7020000 		.4byte	.LASF42
 1061 022b 05       		.byte	0x5
 1062 022c 3C01     		.2byte	0x13c
 1063 022e 19       		.byte	0x19
 1064 022f C2020000 		.4byte	0x2c2
 1065 0233 30       		.byte	0x30
 1066 0234 09       		.uleb128 0x9
 1067 0235 41080000 		.4byte	.LASF43
 1068 0239 05       		.byte	0x5
 1069 023a 4001     		.2byte	0x140
 1070 023c 19       		.byte	0x19
 1071 023d 07010000 		.4byte	0x107
 1072 0241 38       		.byte	0x38
 1073 0242 09       		.uleb128 0x9
 1074 0243 72070000 		.4byte	.LASF44
 1075 0247 05       		.byte	0x5
 1076 0248 4601     		.2byte	0x146
ARM GAS  /tmp/ccyjThYZ.s 			page 20


 1077 024a 19       		.byte	0x19
 1078 024b 13010000 		.4byte	0x113
 1079 024f 3C       		.byte	0x3c
 1080 0250 09       		.uleb128 0x9
 1081 0251 A3060000 		.4byte	.LASF45
 1082 0255 05       		.byte	0x5
 1083 0256 4D01     		.2byte	0x14d
 1084 0258 1A       		.byte	0x1a
 1085 0259 F5080000 		.4byte	0x8f5
 1086 025d 40       		.byte	0x40
 1087 025e 09       		.uleb128 0x9
 1088 025f 06080000 		.4byte	.LASF46
 1089 0263 05       		.byte	0x5
 1090 0264 5101     		.2byte	0x151
 1091 0266 19       		.byte	0x19
 1092 0267 FB000000 		.4byte	0xfb
 1093 026b 44       		.byte	0x44
 1094 026c 09       		.uleb128 0x9
 1095 026d 79010000 		.4byte	.LASF47
 1096 0271 05       		.byte	0x5
 1097 0272 5801     		.2byte	0x158
 1098 0274 1A       		.byte	0x1a
 1099 0275 82030000 		.4byte	0x382
 1100 0279 48       		.byte	0x48
 1101 027a 09       		.uleb128 0x9
 1102 027b 06070000 		.4byte	.LASF48
 1103 027f 05       		.byte	0x5
 1104 0280 5E01     		.2byte	0x15e
 1105 0282 19       		.byte	0x19
 1106 0283 C4070000 		.4byte	0x7c4
 1107 0287 50       		.byte	0x50
 1108 0288 00       		.byte	0
 1109 0289 04       		.uleb128 0x4
 1110 028a AC080000 		.4byte	.LASF49
 1111 028e 09       		.byte	0x9
 1112 028f 44       		.byte	0x44
 1113 0290 14       		.byte	0x14
 1114 0291 95020000 		.4byte	0x295
 1115 0295 0A       		.uleb128 0xa
 1116 0296 04       		.byte	0x4
 1117 0297 48010000 		.4byte	0x148
 1118 029b 04       		.uleb128 0x4
 1119 029c E4030000 		.4byte	.LASF50
 1120 02a0 09       		.byte	0x9
 1121 02a1 49       		.byte	0x49
 1122 02a2 20       		.byte	0x20
 1123 02a3 A7020000 		.4byte	0x2a7
 1124 02a7 06       		.uleb128 0x6
 1125 02a8 A6070000 		.4byte	.LASF52
 1126 02ac 04       		.byte	0x4
 1127 02ad 05       		.byte	0x5
 1128 02ae B0       		.byte	0xb0
 1129 02af 08       		.byte	0x8
 1130 02b0 C2020000 		.4byte	0x2c2
 1131 02b4 07       		.uleb128 0x7
 1132 02b5 D7060000 		.4byte	.LASF28
 1133 02b9 05       		.byte	0x5
ARM GAS  /tmp/ccyjThYZ.s 			page 21


 1134 02ba B1       		.byte	0xb1
 1135 02bb 1A       		.byte	0x1a
 1136 02bc 95020000 		.4byte	0x295
 1137 02c0 00       		.byte	0
 1138 02c1 00       		.byte	0
 1139 02c2 04       		.uleb128 0x4
 1140 02c3 18070000 		.4byte	.LASF53
 1141 02c7 09       		.byte	0x9
 1142 02c8 50       		.byte	0x50
 1143 02c9 21       		.byte	0x21
 1144 02ca CE020000 		.4byte	0x2ce
 1145 02ce 06       		.uleb128 0x6
 1146 02cf 56000000 		.4byte	.LASF54
 1147 02d3 08       		.byte	0x8
 1148 02d4 05       		.byte	0x5
 1149 02d5 B7       		.byte	0xb7
 1150 02d6 08       		.byte	0x8
 1151 02d7 F6020000 		.4byte	0x2f6
 1152 02db 07       		.uleb128 0x7
 1153 02dc D7060000 		.4byte	.LASF28
 1154 02e0 05       		.byte	0x5
 1155 02e1 B8       		.byte	0xb8
 1156 02e2 1A       		.byte	0x1a
 1157 02e3 95020000 		.4byte	0x295
 1158 02e7 00       		.byte	0
 1159 02e8 07       		.uleb128 0x7
 1160 02e9 6F060000 		.4byte	.LASF29
 1161 02ed 05       		.byte	0x5
 1162 02ee B9       		.byte	0xb9
 1163 02ef 1A       		.byte	0x1a
 1164 02f0 95020000 		.4byte	0x295
 1165 02f4 04       		.byte	0x4
 1166 02f5 00       		.byte	0
 1167 02f6 04       		.uleb128 0x4
 1168 02f7 0D000000 		.4byte	.LASF55
 1169 02fb 09       		.byte	0x9
 1170 02fc 57       		.byte	0x57
 1171 02fd 1E       		.byte	0x1e
 1172 02fe 02030000 		.4byte	0x302
 1173 0302 0B       		.uleb128 0xb
 1174 0303 BF030000 		.4byte	.LASF56
 1175 0307 1C       		.byte	0x1c
 1176 0308 05       		.byte	0x5
 1177 0309 9001     		.2byte	0x190
 1178 030b 08       		.byte	0x8
 1179 030c 65030000 		.4byte	0x365
 1180 0310 09       		.uleb128 0x9
 1181 0311 92070000 		.4byte	.LASF57
 1182 0315 05       		.byte	0x5
 1183 0316 9101     		.2byte	0x191
 1184 0318 19       		.byte	0x19
 1185 0319 C2020000 		.4byte	0x2c2
 1186 031d 00       		.byte	0
 1187 031e 09       		.uleb128 0x9
 1188 031f C9060000 		.4byte	.LASF58
 1189 0323 05       		.byte	0x5
 1190 0324 9201     		.2byte	0x192
ARM GAS  /tmp/ccyjThYZ.s 			page 22


 1191 0326 19       		.byte	0x19
 1192 0327 FB000000 		.4byte	0xfb
 1193 032b 08       		.byte	0x8
 1194 032c 09       		.uleb128 0x9
 1195 032d 9F040000 		.4byte	.LASF59
 1196 0331 05       		.byte	0x5
 1197 0332 9401     		.2byte	0x194
 1198 0334 19       		.byte	0x19
 1199 0335 3E050000 		.4byte	0x53e
 1200 0339 0C       		.byte	0xc
 1201 033a 09       		.uleb128 0x9
 1202 033b 04020000 		.4byte	.LASF60
 1203 033f 05       		.byte	0x5
 1204 0340 9701     		.2byte	0x197
 1205 0342 1A       		.byte	0x1a
 1206 0343 95020000 		.4byte	0x295
 1207 0347 10       		.byte	0x10
 1208 0348 09       		.uleb128 0x9
 1209 0349 1F060000 		.4byte	.LASF61
 1210 034d 05       		.byte	0x5
 1211 034e 9801     		.2byte	0x198
 1212 0350 1A       		.byte	0x1a
 1213 0351 95020000 		.4byte	0x295
 1214 0355 14       		.byte	0x14
 1215 0356 09       		.uleb128 0x9
 1216 0357 15060000 		.4byte	.LASF62
 1217 035b 05       		.byte	0x5
 1218 035c 9B01     		.2byte	0x19b
 1219 035e 1A       		.byte	0x1a
 1220 035f 95020000 		.4byte	0x295
 1221 0363 18       		.byte	0x18
 1222 0364 00       		.byte	0
 1223 0365 04       		.uleb128 0x4
 1224 0366 11080000 		.4byte	.LASF63
 1225 036a 09       		.byte	0x9
 1226 036b 5C       		.byte	0x5c
 1227 036c 10       		.byte	0x10
 1228 036d 71030000 		.4byte	0x371
 1229 0371 0A       		.uleb128 0xa
 1230 0372 04       		.byte	0x4
 1231 0373 77030000 		.4byte	0x377
 1232 0377 0C       		.uleb128 0xc
 1233 0378 82030000 		.4byte	0x382
 1234 037c 0D       		.uleb128 0xd
 1235 037d 82030000 		.4byte	0x382
 1236 0381 00       		.byte	0
 1237 0382 0E       		.uleb128 0xe
 1238 0383 04       		.byte	0x4
 1239 0384 04       		.uleb128 0x4
 1240 0385 5F060000 		.4byte	.LASF64
 1241 0389 09       		.byte	0x9
 1242 038a 61       		.byte	0x61
 1243 038b 21       		.byte	0x21
 1244 038c 90030000 		.4byte	0x390
 1245 0390 0B       		.uleb128 0xb
 1246 0391 28070000 		.4byte	.LASF65
 1247 0395 14       		.byte	0x14
ARM GAS  /tmp/ccyjThYZ.s 			page 23


 1248 0396 05       		.byte	0x5
 1249 0397 6B01     		.2byte	0x16b
 1250 0399 08       		.byte	0x8
 1251 039a E5030000 		.4byte	0x3e5
 1252 039e 09       		.uleb128 0x9
 1253 039f 8F020000 		.4byte	.LASF66
 1254 03a3 05       		.byte	0x5
 1255 03a4 6C01     		.2byte	0x16c
 1256 03a6 1A       		.byte	0x1a
 1257 03a7 18090000 		.4byte	0x918
 1258 03ab 00       		.byte	0
 1259 03ac 09       		.uleb128 0x9
 1260 03ad 15020000 		.4byte	.LASF67
 1261 03b1 05       		.byte	0x5
 1262 03b2 6D01     		.2byte	0x16d
 1263 03b4 1A       		.byte	0x1a
 1264 03b5 18090000 		.4byte	0x918
 1265 03b9 04       		.byte	0x4
 1266 03ba 09       		.uleb128 0x9
 1267 03bb BE020000 		.4byte	.LASF68
 1268 03bf 05       		.byte	0x5
 1269 03c0 6E01     		.2byte	0x16e
 1270 03c2 19       		.byte	0x19
 1271 03c3 37010000 		.4byte	0x137
 1272 03c7 08       		.byte	0x8
 1273 03c8 09       		.uleb128 0x9
 1274 03c9 42090000 		.4byte	.LASF69
 1275 03cd 05       		.byte	0x5
 1276 03ce 6F01     		.2byte	0x16f
 1277 03d0 19       		.byte	0x19
 1278 03d1 65030000 		.4byte	0x365
 1279 03d5 0C       		.byte	0xc
 1280 03d6 09       		.uleb128 0x9
 1281 03d7 47080000 		.4byte	.LASF70
 1282 03db 05       		.byte	0x5
 1283 03dc 7101     		.2byte	0x171
 1284 03de 1A       		.byte	0x1a
 1285 03df 82030000 		.4byte	0x382
 1286 03e3 10       		.byte	0x10
 1287 03e4 00       		.byte	0
 1288 03e5 04       		.uleb128 0x4
 1289 03e6 02010000 		.4byte	.LASF71
 1290 03ea 09       		.byte	0x9
 1291 03eb 66       		.byte	0x66
 1292 03ec 28       		.byte	0x28
 1293 03ed F1030000 		.4byte	0x3f1
 1294 03f1 0B       		.uleb128 0xb
 1295 03f2 46040000 		.4byte	.LASF72
 1296 03f6 10       		.byte	0x10
 1297 03f7 05       		.byte	0x5
 1298 03f8 7B01     		.2byte	0x17b
 1299 03fa 08       		.byte	0x8
 1300 03fb 38040000 		.4byte	0x438
 1301 03ff 09       		.uleb128 0x9
 1302 0400 8F020000 		.4byte	.LASF66
 1303 0404 05       		.byte	0x5
 1304 0405 7C01     		.2byte	0x17c
ARM GAS  /tmp/ccyjThYZ.s 			page 24


 1305 0407 1A       		.byte	0x1a
 1306 0408 18090000 		.4byte	0x918
 1307 040c 00       		.byte	0
 1308 040d 09       		.uleb128 0x9
 1309 040e 15020000 		.4byte	.LASF67
 1310 0412 05       		.byte	0x5
 1311 0413 7E01     		.2byte	0x17e
 1312 0415 1A       		.byte	0x1a
 1313 0416 18090000 		.4byte	0x918
 1314 041a 04       		.byte	0x4
 1315 041b 09       		.uleb128 0x9
 1316 041c BE020000 		.4byte	.LASF68
 1317 0420 05       		.byte	0x5
 1318 0421 8001     		.2byte	0x180
 1319 0423 19       		.byte	0x19
 1320 0424 37010000 		.4byte	0x137
 1321 0428 08       		.byte	0x8
 1322 0429 09       		.uleb128 0x9
 1323 042a DA080000 		.4byte	.LASF73
 1324 042e 05       		.byte	0x5
 1325 042f 8201     		.2byte	0x182
 1326 0431 19       		.byte	0x19
 1327 0432 43010000 		.4byte	0x143
 1328 0436 0C       		.byte	0xc
 1329 0437 00       		.byte	0
 1330 0438 04       		.uleb128 0x4
 1331 0439 67000000 		.4byte	.LASF74
 1332 043d 09       		.byte	0x9
 1333 043e 6B       		.byte	0x6b
 1334 043f 20       		.byte	0x20
 1335 0440 44040000 		.4byte	0x444
 1336 0444 0F       		.uleb128 0xf
 1337 0445 4F060000 		.4byte	.LASF75
 1338 0449 1404     		.2byte	0x414
 1339 044b 05       		.byte	0x5
 1340 044c A201     		.2byte	0x1a2
 1341 044e 08       		.byte	0x8
 1342 044f 8C040000 		.4byte	0x48c
 1343 0453 09       		.uleb128 0x9
 1344 0454 28080000 		.4byte	.LASF76
 1345 0458 05       		.byte	0x5
 1346 0459 AA01     		.2byte	0x1aa
 1347 045b 24       		.byte	0x24
 1348 045c 01090000 		.4byte	0x901
 1349 0460 00       		.byte	0
 1350 0461 09       		.uleb128 0x9
 1351 0462 7B080000 		.4byte	.LASF77
 1352 0466 05       		.byte	0x5
 1353 0467 AF01     		.2byte	0x1af
 1354 0469 19       		.byte	0x19
 1355 046a 1F010000 		.4byte	0x11f
 1356 046e 04       		.byte	0x4
 1357 046f 09       		.uleb128 0x9
 1358 0470 59020000 		.4byte	.LASF78
 1359 0474 05       		.byte	0x5
 1360 0475 B301     		.2byte	0x1b3
 1361 0477 19       		.byte	0x19
ARM GAS  /tmp/ccyjThYZ.s 			page 25


 1362 0478 1F010000 		.4byte	0x11f
 1363 047c 08       		.byte	0x8
 1364 047d 09       		.uleb128 0x9
 1365 047e E5080000 		.4byte	.LASF79
 1366 0482 05       		.byte	0x5
 1367 0483 B901     		.2byte	0x1b9
 1368 0485 19       		.byte	0x19
 1369 0486 4C070000 		.4byte	0x74c
 1370 048a 0C       		.byte	0xc
 1371 048b 00       		.byte	0
 1372 048c 04       		.uleb128 0x4
 1373 048d 8B030000 		.4byte	.LASF80
 1374 0491 09       		.byte	0x9
 1375 0492 70       		.byte	0x70
 1376 0493 1A       		.byte	0x1a
 1377 0494 98040000 		.4byte	0x498
 1378 0498 0F       		.uleb128 0xf
 1379 0499 A6010000 		.4byte	.LASF81
 1380 049d 7006     		.2byte	0x670
 1381 049f 05       		.byte	0x5
 1382 04a0 C201     		.2byte	0x1c2
 1383 04a2 08       		.byte	0x8
 1384 04a3 0D050000 		.4byte	0x50d
 1385 04a7 09       		.uleb128 0x9
 1386 04a8 8C080000 		.4byte	.LASF82
 1387 04ac 05       		.byte	0x5
 1388 04ad C601     		.2byte	0x1c6
 1389 04af 19       		.byte	0x19
 1390 04b0 F6020000 		.4byte	0x2f6
 1391 04b4 00       		.byte	0
 1392 04b5 09       		.uleb128 0x9
 1393 04b6 89010000 		.4byte	.LASF83
 1394 04ba 05       		.byte	0x5
 1395 04bb CA01     		.2byte	0x1ca
 1396 04bd 19       		.byte	0x19
 1397 04be E5030000 		.4byte	0x3e5
 1398 04c2 1C       		.byte	0x1c
 1399 04c3 08       		.uleb128 0x8
 1400 04c4 64626700 		.ascii	"dbg\000"
 1401 04c8 05       		.byte	0x5
 1402 04c9 CE01     		.2byte	0x1ce
 1403 04cb 19       		.byte	0x19
 1404 04cc 38040000 		.4byte	0x438
 1405 04d0 2C       		.byte	0x2c
 1406 04d1 10       		.uleb128 0x10
 1407 04d2 D9000000 		.4byte	.LASF84
 1408 04d6 05       		.byte	0x5
 1409 04d7 D201     		.2byte	0x1d2
 1410 04d9 19       		.byte	0x19
 1411 04da 48010000 		.4byte	0x148
 1412 04de 4004     		.2byte	0x440
 1413 04e0 11       		.uleb128 0x11
 1414 04e1 746D00   		.ascii	"tm\000"
 1415 04e4 05       		.byte	0x5
 1416 04e5 D701     		.2byte	0x1d7
 1417 04e7 19       		.byte	0x19
 1418 04e8 6F070000 		.4byte	0x76f
ARM GAS  /tmp/ccyjThYZ.s 			page 26


 1419 04ec A804     		.2byte	0x4a8
 1420 04ee 10       		.uleb128 0x10
 1421 04ef 3D000000 		.4byte	.LASF85
 1422 04f3 05       		.byte	0x5
 1423 04f4 DD01     		.2byte	0x1dd
 1424 04f6 19       		.byte	0x19
 1425 04f7 0E080000 		.4byte	0x80e
 1426 04fb B004     		.2byte	0x4b0
 1427 04fd 10       		.uleb128 0x10
 1428 04fe 62020000 		.4byte	.LASF86
 1429 0502 05       		.byte	0x5
 1430 0503 E301     		.2byte	0x1e3
 1431 0505 03       		.byte	0x3
 1432 0506 1E090000 		.4byte	0x91e
 1433 050a E804     		.2byte	0x4e8
 1434 050c 00       		.byte	0
 1435 050d 12       		.uleb128 0x12
 1436 050e 18010000 		.4byte	.LASF87
 1437 0512 0A       		.byte	0xa
 1438 0513 A706     		.2byte	0x6a7
 1439 0515 19       		.byte	0x19
 1440 0516 5B000000 		.4byte	0x5b
 1441 051a 13       		.uleb128 0x13
 1442 051b A0020000 		.4byte	.LASF88
 1443 051f 0B       		.byte	0xb
 1444 0520 4C       		.byte	0x4c
 1445 0521 11       		.byte	0x11
 1446 0522 8D000000 		.4byte	0x8d
 1447 0526 04       		.uleb128 0x4
 1448 0527 0C020000 		.4byte	.LASF89
 1449 052b 0C       		.byte	0xc
 1450 052c 65       		.byte	0x65
 1451 052d 0F       		.byte	0xf
 1452 052e 82030000 		.4byte	0x382
 1453 0532 04       		.uleb128 0x4
 1454 0533 D9030000 		.4byte	.LASF90
 1455 0537 0C       		.byte	0xc
 1456 0538 6D       		.byte	0x6d
 1457 0539 12       		.byte	0x12
 1458 053a A0000000 		.4byte	0xa0
 1459 053e 06       		.uleb128 0x6
 1460 053f 39080000 		.4byte	.LASF91
 1461 0543 04       		.byte	0x4
 1462 0544 0C       		.byte	0xc
 1463 0545 89       		.byte	0x89
 1464 0546 08       		.byte	0x8
 1465 0547 59050000 		.4byte	0x559
 1466 054b 14       		.uleb128 0x14
 1467 054c 72313300 		.ascii	"r13\000"
 1468 0550 0C       		.byte	0xc
 1469 0551 8A       		.byte	0x8a
 1470 0552 17       		.byte	0x17
 1471 0553 B4060000 		.4byte	0x6b4
 1472 0557 00       		.byte	0
 1473 0558 00       		.byte	0
 1474 0559 06       		.uleb128 0x6
 1475 055a 4A000000 		.4byte	.LASF92
ARM GAS  /tmp/ccyjThYZ.s 			page 27


 1476 055e 64       		.byte	0x64
 1477 055f 03       		.byte	0x3
 1478 0560 F4       		.byte	0xf4
 1479 0561 08       		.byte	0x8
 1480 0562 B4060000 		.4byte	0x6b4
 1481 0566 14       		.uleb128 0x14
 1482 0567 73313600 		.ascii	"s16\000"
 1483 056b 03       		.byte	0x3
 1484 056c F6       		.byte	0xf6
 1485 056d 11       		.byte	0x11
 1486 056e 26050000 		.4byte	0x526
 1487 0572 00       		.byte	0
 1488 0573 14       		.uleb128 0x14
 1489 0574 73313700 		.ascii	"s17\000"
 1490 0578 03       		.byte	0x3
 1491 0579 F7       		.byte	0xf7
 1492 057a 11       		.byte	0x11
 1493 057b 26050000 		.4byte	0x526
 1494 057f 04       		.byte	0x4
 1495 0580 14       		.uleb128 0x14
 1496 0581 73313800 		.ascii	"s18\000"
 1497 0585 03       		.byte	0x3
 1498 0586 F8       		.byte	0xf8
 1499 0587 11       		.byte	0x11
 1500 0588 26050000 		.4byte	0x526
 1501 058c 08       		.byte	0x8
 1502 058d 14       		.uleb128 0x14
 1503 058e 73313900 		.ascii	"s19\000"
 1504 0592 03       		.byte	0x3
 1505 0593 F9       		.byte	0xf9
 1506 0594 11       		.byte	0x11
 1507 0595 26050000 		.4byte	0x526
 1508 0599 0C       		.byte	0xc
 1509 059a 14       		.uleb128 0x14
 1510 059b 73323000 		.ascii	"s20\000"
 1511 059f 03       		.byte	0x3
 1512 05a0 FA       		.byte	0xfa
 1513 05a1 11       		.byte	0x11
 1514 05a2 26050000 		.4byte	0x526
 1515 05a6 10       		.byte	0x10
 1516 05a7 14       		.uleb128 0x14
 1517 05a8 73323100 		.ascii	"s21\000"
 1518 05ac 03       		.byte	0x3
 1519 05ad FB       		.byte	0xfb
 1520 05ae 11       		.byte	0x11
 1521 05af 26050000 		.4byte	0x526
 1522 05b3 14       		.byte	0x14
 1523 05b4 14       		.uleb128 0x14
 1524 05b5 73323200 		.ascii	"s22\000"
 1525 05b9 03       		.byte	0x3
 1526 05ba FC       		.byte	0xfc
 1527 05bb 11       		.byte	0x11
 1528 05bc 26050000 		.4byte	0x526
 1529 05c0 18       		.byte	0x18
 1530 05c1 14       		.uleb128 0x14
 1531 05c2 73323300 		.ascii	"s23\000"
 1532 05c6 03       		.byte	0x3
ARM GAS  /tmp/ccyjThYZ.s 			page 28


 1533 05c7 FD       		.byte	0xfd
 1534 05c8 11       		.byte	0x11
 1535 05c9 26050000 		.4byte	0x526
 1536 05cd 1C       		.byte	0x1c
 1537 05ce 14       		.uleb128 0x14
 1538 05cf 73323400 		.ascii	"s24\000"
 1539 05d3 03       		.byte	0x3
 1540 05d4 FE       		.byte	0xfe
 1541 05d5 11       		.byte	0x11
 1542 05d6 26050000 		.4byte	0x526
 1543 05da 20       		.byte	0x20
 1544 05db 14       		.uleb128 0x14
 1545 05dc 73323500 		.ascii	"s25\000"
 1546 05e0 03       		.byte	0x3
 1547 05e1 FF       		.byte	0xff
 1548 05e2 11       		.byte	0x11
 1549 05e3 26050000 		.4byte	0x526
 1550 05e7 24       		.byte	0x24
 1551 05e8 08       		.uleb128 0x8
 1552 05e9 73323600 		.ascii	"s26\000"
 1553 05ed 03       		.byte	0x3
 1554 05ee 0001     		.2byte	0x100
 1555 05f0 11       		.byte	0x11
 1556 05f1 26050000 		.4byte	0x526
 1557 05f5 28       		.byte	0x28
 1558 05f6 08       		.uleb128 0x8
 1559 05f7 73323700 		.ascii	"s27\000"
 1560 05fb 03       		.byte	0x3
 1561 05fc 0101     		.2byte	0x101
 1562 05fe 11       		.byte	0x11
 1563 05ff 26050000 		.4byte	0x526
 1564 0603 2C       		.byte	0x2c
 1565 0604 08       		.uleb128 0x8
 1566 0605 73323800 		.ascii	"s28\000"
 1567 0609 03       		.byte	0x3
 1568 060a 0201     		.2byte	0x102
 1569 060c 11       		.byte	0x11
 1570 060d 26050000 		.4byte	0x526
 1571 0611 30       		.byte	0x30
 1572 0612 08       		.uleb128 0x8
 1573 0613 73323900 		.ascii	"s29\000"
 1574 0617 03       		.byte	0x3
 1575 0618 0301     		.2byte	0x103
 1576 061a 11       		.byte	0x11
 1577 061b 26050000 		.4byte	0x526
 1578 061f 34       		.byte	0x34
 1579 0620 08       		.uleb128 0x8
 1580 0621 73333000 		.ascii	"s30\000"
 1581 0625 03       		.byte	0x3
 1582 0626 0401     		.2byte	0x104
 1583 0628 11       		.byte	0x11
 1584 0629 26050000 		.4byte	0x526
 1585 062d 38       		.byte	0x38
 1586 062e 08       		.uleb128 0x8
 1587 062f 73333100 		.ascii	"s31\000"
 1588 0633 03       		.byte	0x3
 1589 0634 0501     		.2byte	0x105
ARM GAS  /tmp/ccyjThYZ.s 			page 29


 1590 0636 11       		.byte	0x11
 1591 0637 26050000 		.4byte	0x526
 1592 063b 3C       		.byte	0x3c
 1593 063c 08       		.uleb128 0x8
 1594 063d 723400   		.ascii	"r4\000"
 1595 0640 03       		.byte	0x3
 1596 0641 0701     		.2byte	0x107
 1597 0643 11       		.byte	0x11
 1598 0644 26050000 		.4byte	0x526
 1599 0648 40       		.byte	0x40
 1600 0649 08       		.uleb128 0x8
 1601 064a 723500   		.ascii	"r5\000"
 1602 064d 03       		.byte	0x3
 1603 064e 0801     		.2byte	0x108
 1604 0650 11       		.byte	0x11
 1605 0651 26050000 		.4byte	0x526
 1606 0655 44       		.byte	0x44
 1607 0656 08       		.uleb128 0x8
 1608 0657 723600   		.ascii	"r6\000"
 1609 065a 03       		.byte	0x3
 1610 065b 0901     		.2byte	0x109
 1611 065d 11       		.byte	0x11
 1612 065e 26050000 		.4byte	0x526
 1613 0662 48       		.byte	0x48
 1614 0663 08       		.uleb128 0x8
 1615 0664 723700   		.ascii	"r7\000"
 1616 0667 03       		.byte	0x3
 1617 0668 0A01     		.2byte	0x10a
 1618 066a 11       		.byte	0x11
 1619 066b 26050000 		.4byte	0x526
 1620 066f 4C       		.byte	0x4c
 1621 0670 08       		.uleb128 0x8
 1622 0671 723800   		.ascii	"r8\000"
 1623 0674 03       		.byte	0x3
 1624 0675 0B01     		.2byte	0x10b
 1625 0677 11       		.byte	0x11
 1626 0678 26050000 		.4byte	0x526
 1627 067c 50       		.byte	0x50
 1628 067d 08       		.uleb128 0x8
 1629 067e 723900   		.ascii	"r9\000"
 1630 0681 03       		.byte	0x3
 1631 0682 0C01     		.2byte	0x10c
 1632 0684 11       		.byte	0x11
 1633 0685 26050000 		.4byte	0x526
 1634 0689 54       		.byte	0x54
 1635 068a 08       		.uleb128 0x8
 1636 068b 72313000 		.ascii	"r10\000"
 1637 068f 03       		.byte	0x3
 1638 0690 0D01     		.2byte	0x10d
 1639 0692 11       		.byte	0x11
 1640 0693 26050000 		.4byte	0x526
 1641 0697 58       		.byte	0x58
 1642 0698 08       		.uleb128 0x8
 1643 0699 72313100 		.ascii	"r11\000"
 1644 069d 03       		.byte	0x3
 1645 069e 0E01     		.2byte	0x10e
 1646 06a0 11       		.byte	0x11
ARM GAS  /tmp/ccyjThYZ.s 			page 30


 1647 06a1 26050000 		.4byte	0x526
 1648 06a5 5C       		.byte	0x5c
 1649 06a6 08       		.uleb128 0x8
 1650 06a7 6C7200   		.ascii	"lr\000"
 1651 06aa 03       		.byte	0x3
 1652 06ab 0F01     		.2byte	0x10f
 1653 06ad 11       		.byte	0x11
 1654 06ae 26050000 		.4byte	0x526
 1655 06b2 60       		.byte	0x60
 1656 06b3 00       		.byte	0
 1657 06b4 0A       		.uleb128 0xa
 1658 06b5 04       		.byte	0x4
 1659 06b6 59050000 		.4byte	0x559
 1660 06ba 15       		.uleb128 0x15
 1661 06bb 10       		.byte	0x10
 1662 06bc 0D       		.byte	0xd
 1663 06bd 51       		.byte	0x51
 1664 06be 09       		.byte	0x9
 1665 06bf F8060000 		.4byte	0x6f8
 1666 06c3 07       		.uleb128 0x7
 1667 06c4 58080000 		.4byte	.LASF93
 1668 06c8 0D       		.byte	0xd
 1669 06c9 55       		.byte	0x55
 1670 06ca 19       		.byte	0x19
 1671 06cb 37010000 		.4byte	0x137
 1672 06cf 00       		.byte	0
 1673 06d0 07       		.uleb128 0x7
 1674 06d1 CC010000 		.4byte	.LASF94
 1675 06d5 0D       		.byte	0xd
 1676 06d6 59       		.byte	0x59
 1677 06d7 1A       		.byte	0x1a
 1678 06d8 95020000 		.4byte	0x295
 1679 06dc 04       		.byte	0x4
 1680 06dd 07       		.uleb128 0x7
 1681 06de 2A090000 		.4byte	.LASF95
 1682 06e2 0D       		.byte	0xd
 1683 06e3 5D       		.byte	0x5d
 1684 06e4 1A       		.byte	0x1a
 1685 06e5 82030000 		.4byte	0x382
 1686 06e9 08       		.byte	0x8
 1687 06ea 07       		.uleb128 0x7
 1688 06eb 83080000 		.4byte	.LASF96
 1689 06ef 0D       		.byte	0xd
 1690 06f0 61       		.byte	0x61
 1691 06f1 19       		.byte	0x19
 1692 06f2 67000000 		.4byte	0x67
 1693 06f6 0C       		.byte	0xc
 1694 06f7 00       		.byte	0
 1695 06f8 04       		.uleb128 0x4
 1696 06f9 7C040000 		.4byte	.LASF97
 1697 06fd 0D       		.byte	0xd
 1698 06fe 62       		.byte	0x62
 1699 06ff 03       		.byte	0x3
 1700 0700 BA060000 		.4byte	0x6ba
 1701 0704 16       		.uleb128 0x16
 1702 0705 0804     		.2byte	0x408
 1703 0707 0D       		.byte	0xd
ARM GAS  /tmp/ccyjThYZ.s 			page 31


 1704 0708 67       		.byte	0x67
 1705 0709 09       		.byte	0x9
 1706 070a 36070000 		.4byte	0x736
 1707 070e 07       		.uleb128 0x7
 1708 070f FC010000 		.4byte	.LASF98
 1709 0713 0D       		.byte	0xd
 1710 0714 6B       		.byte	0x6b
 1711 0715 19       		.byte	0x19
 1712 0716 2C000000 		.4byte	0x2c
 1713 071a 00       		.byte	0
 1714 071b 07       		.uleb128 0x7
 1715 071c 75040000 		.4byte	.LASF99
 1716 0720 0D       		.byte	0xd
 1717 0721 6F       		.byte	0x6f
 1718 0722 1A       		.byte	0x1a
 1719 0723 36070000 		.4byte	0x736
 1720 0727 04       		.byte	0x4
 1721 0728 07       		.uleb128 0x7
 1722 0729 3A060000 		.4byte	.LASF100
 1723 072d 0D       		.byte	0xd
 1724 072e 73       		.byte	0x73
 1725 072f 19       		.byte	0x19
 1726 0730 3C070000 		.4byte	0x73c
 1727 0734 08       		.byte	0x8
 1728 0735 00       		.byte	0
 1729 0736 0A       		.uleb128 0xa
 1730 0737 04       		.byte	0x4
 1731 0738 F8060000 		.4byte	0x6f8
 1732 073c 17       		.uleb128 0x17
 1733 073d F8060000 		.4byte	0x6f8
 1734 0741 4C070000 		.4byte	0x74c
 1735 0745 18       		.uleb128 0x18
 1736 0746 2C000000 		.4byte	0x2c
 1737 074a 3F       		.byte	0x3f
 1738 074b 00       		.byte	0
 1739 074c 04       		.uleb128 0x4
 1740 074d B0000000 		.4byte	.LASF101
 1741 0751 0D       		.byte	0xd
 1742 0752 74       		.byte	0x74
 1743 0753 03       		.byte	0x3
 1744 0754 04070000 		.4byte	0x704
 1745 0758 15       		.uleb128 0x15
 1746 0759 04       		.byte	0x4
 1747 075a 0E       		.byte	0xe
 1748 075b 38       		.byte	0x38
 1749 075c 09       		.byte	0x9
 1750 075d 6F070000 		.4byte	0x76f
 1751 0761 07       		.uleb128 0x7
 1752 0762 32080000 		.4byte	.LASF102
 1753 0766 0E       		.byte	0xe
 1754 0767 3C       		.byte	0x3c
 1755 0768 19       		.byte	0x19
 1756 0769 B3000000 		.4byte	0xb3
 1757 076d 00       		.byte	0
 1758 076e 00       		.byte	0
 1759 076f 04       		.uleb128 0x4
 1760 0770 AB040000 		.4byte	.LASF103
ARM GAS  /tmp/ccyjThYZ.s 			page 32


 1761 0774 0E       		.byte	0xe
 1762 0775 3D       		.byte	0x3d
 1763 0776 03       		.byte	0x3
 1764 0777 58070000 		.4byte	0x758
 1765 077b 15       		.uleb128 0x15
 1766 077c 18       		.byte	0x18
 1767 077d 0E       		.byte	0xe
 1768 077e 48       		.byte	0x48
 1769 077f 09       		.byte	0x9
 1770 0780 C4070000 		.4byte	0x7c4
 1771 0784 07       		.uleb128 0x7
 1772 0785 E5070000 		.4byte	.LASF104
 1773 0789 0E       		.byte	0xe
 1774 078a 49       		.byte	0x49
 1775 078b 19       		.byte	0x19
 1776 078c B3000000 		.4byte	0xb3
 1777 0790 00       		.byte	0
 1778 0791 07       		.uleb128 0x7
 1779 0792 80000000 		.4byte	.LASF105
 1780 0796 0E       		.byte	0xe
 1781 0797 4A       		.byte	0x4a
 1782 0798 19       		.byte	0x19
 1783 0799 B3000000 		.4byte	0xb3
 1784 079d 04       		.byte	0x4
 1785 079e 07       		.uleb128 0x7
 1786 079f 6E030000 		.4byte	.LASF106
 1787 07a3 0E       		.byte	0xe
 1788 07a4 4B       		.byte	0x4b
 1789 07a5 19       		.byte	0x19
 1790 07a6 B3000000 		.4byte	0xb3
 1791 07aa 08       		.byte	0x8
 1792 07ab 14       		.uleb128 0x14
 1793 07ac 6E00     		.ascii	"n\000"
 1794 07ae 0E       		.byte	0xe
 1795 07af 4C       		.byte	0x4c
 1796 07b0 19       		.byte	0x19
 1797 07b1 2B010000 		.4byte	0x12b
 1798 07b5 0C       		.byte	0xc
 1799 07b6 07       		.uleb128 0x7
 1800 07b7 27060000 		.4byte	.LASF107
 1801 07bb 0E       		.byte	0xe
 1802 07bc 4D       		.byte	0x4d
 1803 07bd 19       		.byte	0x19
 1804 07be BF000000 		.4byte	0xbf
 1805 07c2 10       		.byte	0x10
 1806 07c3 00       		.byte	0
 1807 07c4 04       		.uleb128 0x4
 1808 07c5 86000000 		.4byte	.LASF108
 1809 07c9 0E       		.byte	0xe
 1810 07ca 4E       		.byte	0x4e
 1811 07cb 03       		.byte	0x3
 1812 07cc 7B070000 		.4byte	0x77b
 1813 07d0 15       		.uleb128 0x15
 1814 07d1 38       		.byte	0x38
 1815 07d2 0F       		.byte	0xf
 1816 07d3 38       		.byte	0x38
 1817 07d4 09       		.byte	0x9
ARM GAS  /tmp/ccyjThYZ.s 			page 33


 1818 07d5 0E080000 		.4byte	0x80e
 1819 07d9 07       		.uleb128 0x7
 1820 07da DB020000 		.4byte	.LASF109
 1821 07de 0F       		.byte	0xf
 1822 07df 39       		.byte	0x39
 1823 07e0 19       		.byte	0x19
 1824 07e1 2B010000 		.4byte	0x12b
 1825 07e5 00       		.byte	0
 1826 07e6 07       		.uleb128 0x7
 1827 07e7 7E060000 		.4byte	.LASF110
 1828 07eb 0F       		.byte	0xf
 1829 07ec 3A       		.byte	0x3a
 1830 07ed 19       		.byte	0x19
 1831 07ee 2B010000 		.4byte	0x12b
 1832 07f2 04       		.byte	0x4
 1833 07f3 07       		.uleb128 0x7
 1834 07f4 17090000 		.4byte	.LASF111
 1835 07f8 0F       		.byte	0xf
 1836 07f9 3B       		.byte	0x3b
 1837 07fa 19       		.byte	0x19
 1838 07fb C4070000 		.4byte	0x7c4
 1839 07ff 08       		.byte	0x8
 1840 0800 07       		.uleb128 0x7
 1841 0801 B4030000 		.4byte	.LASF112
 1842 0805 0F       		.byte	0xf
 1843 0806 3D       		.byte	0x3d
 1844 0807 19       		.byte	0x19
 1845 0808 C4070000 		.4byte	0x7c4
 1846 080c 20       		.byte	0x20
 1847 080d 00       		.byte	0
 1848 080e 04       		.uleb128 0x4
 1849 080f 42030000 		.4byte	.LASF113
 1850 0813 0F       		.byte	0xf
 1851 0814 3F       		.byte	0x3f
 1852 0815 03       		.byte	0x3
 1853 0816 D0070000 		.4byte	0x7d0
 1854 081a 19       		.uleb128 0x19
 1855 081b 04       		.byte	0x4
 1856 081c 05       		.byte	0x5
 1857 081d FA       		.byte	0xfa
 1858 081e 03       		.byte	0x3
 1859 081f 7F080000 		.4byte	0x87f
 1860 0823 1A       		.uleb128 0x1a
 1861 0824 2D000000 		.4byte	.LASF114
 1862 0828 05       		.byte	0x5
 1863 0829 0101     		.2byte	0x101
 1864 082b 19       		.byte	0x19
 1865 082c 07010000 		.4byte	0x107
 1866 0830 1A       		.uleb128 0x1a
 1867 0831 D0000000 		.4byte	.LASF115
 1868 0835 05       		.byte	0x5
 1869 0836 0801     		.2byte	0x108
 1870 0838 19       		.byte	0x19
 1871 0839 07010000 		.4byte	0x107
 1872 083d 1A       		.uleb128 0x1a
 1873 083e BF080000 		.4byte	.LASF116
 1874 0842 05       		.byte	0x5
ARM GAS  /tmp/ccyjThYZ.s 			page 34


 1875 0843 0F01     		.2byte	0x10f
 1876 0845 1A       		.byte	0x1a
 1877 0846 82030000 		.4byte	0x382
 1878 084a 1A       		.uleb128 0x1a
 1879 084b 27000000 		.4byte	.LASF117
 1880 084f 05       		.byte	0x5
 1881 0850 1601     		.2byte	0x116
 1882 0852 1A       		.byte	0x1a
 1883 0853 7F080000 		.4byte	0x87f
 1884 0857 1A       		.uleb128 0x1a
 1885 0858 B7020000 		.4byte	.LASF118
 1886 085c 05       		.byte	0x5
 1887 085d 1E01     		.2byte	0x11e
 1888 085f 1A       		.byte	0x1a
 1889 0860 AD080000 		.4byte	0x8ad
 1890 0864 1A       		.uleb128 0x1a
 1891 0865 D5070000 		.4byte	.LASF119
 1892 0869 05       		.byte	0x5
 1893 086a 2701     		.2byte	0x127
 1894 086c 1A       		.byte	0x1a
 1895 086d F5080000 		.4byte	0x8f5
 1896 0871 1A       		.uleb128 0x1a
 1897 0872 D0060000 		.4byte	.LASF120
 1898 0876 05       		.byte	0x5
 1899 0877 2F01     		.2byte	0x12f
 1900 0879 19       		.byte	0x19
 1901 087a 13010000 		.4byte	0x113
 1902 087e 00       		.byte	0
 1903 087f 0A       		.uleb128 0xa
 1904 0880 04       		.byte	0x4
 1905 0881 89020000 		.4byte	0x289
 1906 0885 06       		.uleb128 0x6
 1907 0886 57070000 		.4byte	.LASF121
 1908 088a 0C       		.byte	0xc
 1909 088b 10       		.byte	0x10
 1910 088c 34       		.byte	0x34
 1911 088d 10       		.byte	0x10
 1912 088e AD080000 		.4byte	0x8ad
 1913 0892 07       		.uleb128 0x7
 1914 0893 F4010000 		.4byte	.LASF122
 1915 0897 10       		.byte	0x10
 1916 0898 35       		.byte	0x35
 1917 0899 19       		.byte	0x19
 1918 089a C2020000 		.4byte	0x2c2
 1919 089e 00       		.byte	0
 1920 089f 07       		.uleb128 0x7
 1921 08a0 29030000 		.4byte	.LASF123
 1922 08a4 10       		.byte	0x10
 1923 08a5 37       		.byte	0x37
 1924 08a6 19       		.byte	0x19
 1925 08a7 1F010000 		.4byte	0x11f
 1926 08ab 08       		.byte	0x8
 1927 08ac 00       		.byte	0
 1928 08ad 0A       		.uleb128 0xa
 1929 08ae 04       		.byte	0x4
 1930 08af 85080000 		.4byte	0x885
 1931 08b3 06       		.uleb128 0x6
ARM GAS  /tmp/ccyjThYZ.s 			page 35


 1932 08b4 6B080000 		.4byte	.LASF124
 1933 08b8 14       		.byte	0x14
 1934 08b9 11       		.byte	0x11
 1935 08ba 39       		.byte	0x39
 1936 08bb 08       		.byte	0x8
 1937 08bc F5080000 		.4byte	0x8f5
 1938 08c0 07       		.uleb128 0x7
 1939 08c1 81010000 		.4byte	.LASF125
 1940 08c5 11       		.byte	0x11
 1941 08c6 3A       		.byte	0x3a
 1942 08c7 19       		.byte	0x19
 1943 08c8 C2020000 		.4byte	0x2c2
 1944 08cc 00       		.byte	0
 1945 08cd 07       		.uleb128 0x7
 1946 08ce 22090000 		.4byte	.LASF126
 1947 08d2 11       		.byte	0x11
 1948 08d3 3C       		.byte	0x3c
 1949 08d4 1A       		.byte	0x1a
 1950 08d5 95020000 		.4byte	0x295
 1951 08d9 08       		.byte	0x8
 1952 08da 07       		.uleb128 0x7
 1953 08db BC040000 		.4byte	.LASF127
 1954 08df 11       		.byte	0x11
 1955 08e0 3E       		.byte	0x3e
 1956 08e1 1A       		.byte	0x1a
 1957 08e2 670A0000 		.4byte	0xa67
 1958 08e6 0C       		.byte	0xc
 1959 08e7 07       		.uleb128 0x7
 1960 08e8 45020000 		.4byte	.LASF128
 1961 08ec 11       		.byte	0x11
 1962 08ed 41       		.byte	0x41
 1963 08ee 19       		.byte	0x19
 1964 08ef 1F010000 		.4byte	0x11f
 1965 08f3 10       		.byte	0x10
 1966 08f4 00       		.byte	0
 1967 08f5 0A       		.uleb128 0xa
 1968 08f6 04       		.byte	0x4
 1969 08f7 B3080000 		.4byte	0x8b3
 1970 08fb 0A       		.uleb128 0xa
 1971 08fc 04       		.byte	0x4
 1972 08fd 0D090000 		.4byte	0x90d
 1973 0901 05       		.uleb128 0x5
 1974 0902 FB080000 		.4byte	0x8fb
 1975 0906 03       		.uleb128 0x3
 1976 0907 01       		.byte	0x1
 1977 0908 08       		.byte	0x8
 1978 0909 D0070000 		.4byte	.LASF129
 1979 090d 1B       		.uleb128 0x1b
 1980 090e 06090000 		.4byte	0x906
 1981 0912 0A       		.uleb128 0xa
 1982 0913 04       		.byte	0x4
 1983 0914 32050000 		.4byte	0x532
 1984 0918 0A       		.uleb128 0xa
 1985 0919 04       		.byte	0x4
 1986 091a 84030000 		.4byte	0x384
 1987 091e 17       		.uleb128 0x17
 1988 091f 32050000 		.4byte	0x532
ARM GAS  /tmp/ccyjThYZ.s 			page 36


 1989 0923 2E090000 		.4byte	0x92e
 1990 0927 18       		.uleb128 0x18
 1991 0928 2C000000 		.4byte	0x2c
 1992 092c 30       		.byte	0x30
 1993 092d 00       		.byte	0
 1994 092e 1C       		.uleb128 0x1c
 1995 092f 636800   		.ascii	"ch\000"
 1996 0932 05       		.byte	0x5
 1997 0933 0902     		.2byte	0x209
 1998 0935 14       		.byte	0x14
 1999 0936 8C040000 		.4byte	0x48c
 2000 093a 15       		.uleb128 0x15
 2001 093b 16       		.byte	0x16
 2002 093c 12       		.byte	0x12
 2003 093d 34       		.byte	0x34
 2004 093e 09       		.byte	0x9
 2005 093f 2E0A0000 		.4byte	0xa2e
 2006 0943 07       		.uleb128 0x7
 2007 0944 34090000 		.4byte	.LASF130
 2008 0948 12       		.byte	0x12
 2009 0949 35       		.byte	0x35
 2010 094a 0D       		.byte	0xd
 2011 094b 2E0A0000 		.4byte	0xa2e
 2012 094f 00       		.byte	0
 2013 0950 07       		.uleb128 0x7
 2014 0951 F3030000 		.4byte	.LASF131
 2015 0955 12       		.byte	0x12
 2016 0956 36       		.byte	0x36
 2017 0957 0D       		.byte	0xd
 2018 0958 67000000 		.4byte	0x67
 2019 095c 04       		.byte	0x4
 2020 095d 07       		.uleb128 0x7
 2021 095e B6070000 		.4byte	.LASF132
 2022 0962 12       		.byte	0x12
 2023 0963 37       		.byte	0x37
 2024 0964 0D       		.byte	0xd
 2025 0965 67000000 		.4byte	0x67
 2026 0969 05       		.byte	0x5
 2027 096a 07       		.uleb128 0x7
 2028 096b FE080000 		.4byte	.LASF133
 2029 096f 12       		.byte	0x12
 2030 0970 38       		.byte	0x38
 2031 0971 0D       		.byte	0xd
 2032 0972 7A000000 		.4byte	0x7a
 2033 0976 06       		.byte	0x6
 2034 0977 07       		.uleb128 0x7
 2035 0978 44060000 		.4byte	.LASF134
 2036 097c 12       		.byte	0x12
 2037 097d 39       		.byte	0x39
 2038 097e 0D       		.byte	0xd
 2039 097f 67000000 		.4byte	0x67
 2040 0983 08       		.byte	0x8
 2041 0984 07       		.uleb128 0x7
 2042 0985 69040000 		.4byte	.LASF135
 2043 0989 12       		.byte	0x12
 2044 098a 3A       		.byte	0x3a
 2045 098b 0D       		.byte	0xd
ARM GAS  /tmp/ccyjThYZ.s 			page 37


 2046 098c 67000000 		.4byte	0x67
 2047 0990 09       		.byte	0x9
 2048 0991 07       		.uleb128 0x7
 2049 0992 C2000000 		.4byte	.LASF136
 2050 0996 12       		.byte	0x12
 2051 0997 3B       		.byte	0x3b
 2052 0998 0D       		.byte	0xd
 2053 0999 67000000 		.4byte	0x67
 2054 099d 0A       		.byte	0xa
 2055 099e 07       		.uleb128 0x7
 2056 099f 86070000 		.4byte	.LASF137
 2057 09a3 12       		.byte	0x12
 2058 09a4 3C       		.byte	0x3c
 2059 09a5 0D       		.byte	0xd
 2060 09a6 67000000 		.4byte	0x67
 2061 09aa 0B       		.byte	0xb
 2062 09ab 07       		.uleb128 0x7
 2063 09ac 60080000 		.4byte	.LASF138
 2064 09b0 12       		.byte	0x12
 2065 09b1 3D       		.byte	0x3d
 2066 09b2 0D       		.byte	0xd
 2067 09b3 67000000 		.4byte	0x67
 2068 09b7 0C       		.byte	0xc
 2069 09b8 07       		.uleb128 0x7
 2070 09b9 C6080000 		.4byte	.LASF139
 2071 09bd 12       		.byte	0x12
 2072 09be 3E       		.byte	0x3e
 2073 09bf 0D       		.byte	0xd
 2074 09c0 67000000 		.4byte	0x67
 2075 09c4 0D       		.byte	0xd
 2076 09c5 07       		.uleb128 0x7
 2077 09c6 00000000 		.4byte	.LASF140
 2078 09ca 12       		.byte	0x12
 2079 09cb 3F       		.byte	0x3f
 2080 09cc 0D       		.byte	0xd
 2081 09cd 67000000 		.4byte	0x67
 2082 09d1 0E       		.byte	0xe
 2083 09d2 07       		.uleb128 0x7
 2084 09d3 8B040000 		.4byte	.LASF141
 2085 09d7 12       		.byte	0x12
 2086 09d8 40       		.byte	0x40
 2087 09d9 0D       		.byte	0xd
 2088 09da 67000000 		.4byte	0x67
 2089 09de 0F       		.byte	0xf
 2090 09df 07       		.uleb128 0x7
 2091 09e0 5C010000 		.4byte	.LASF142
 2092 09e4 12       		.byte	0x12
 2093 09e5 41       		.byte	0x41
 2094 09e6 0D       		.byte	0xd
 2095 09e7 67000000 		.4byte	0x67
 2096 09eb 10       		.byte	0x10
 2097 09ec 07       		.uleb128 0x7
 2098 09ed 35010000 		.4byte	.LASF143
 2099 09f1 12       		.byte	0x12
 2100 09f2 43       		.byte	0x43
 2101 09f3 0D       		.byte	0xd
 2102 09f4 67000000 		.4byte	0x67
ARM GAS  /tmp/ccyjThYZ.s 			page 38


 2103 09f8 11       		.byte	0x11
 2104 09f9 07       		.uleb128 0x7
 2105 09fa 6C010000 		.4byte	.LASF144
 2106 09fe 12       		.byte	0x12
 2107 09ff 44       		.byte	0x44
 2108 0a00 0D       		.byte	0xd
 2109 0a01 67000000 		.4byte	0x67
 2110 0a05 12       		.byte	0x12
 2111 0a06 07       		.uleb128 0x7
 2112 0a07 FB030000 		.4byte	.LASF145
 2113 0a0b 12       		.byte	0x12
 2114 0a0c 45       		.byte	0x45
 2115 0a0d 0D       		.byte	0xd
 2116 0a0e 67000000 		.4byte	0x67
 2117 0a12 13       		.byte	0x13
 2118 0a13 07       		.uleb128 0x7
 2119 0a14 E6060000 		.4byte	.LASF146
 2120 0a18 12       		.byte	0x12
 2121 0a19 46       		.byte	0x46
 2122 0a1a 0D       		.byte	0xd
 2123 0a1b 67000000 		.4byte	0x67
 2124 0a1f 14       		.byte	0x14
 2125 0a20 07       		.uleb128 0x7
 2126 0a21 97030000 		.4byte	.LASF147
 2127 0a25 12       		.byte	0x12
 2128 0a26 48       		.byte	0x48
 2129 0a27 0D       		.byte	0xd
 2130 0a28 67000000 		.4byte	0x67
 2131 0a2c 15       		.byte	0x15
 2132 0a2d 00       		.byte	0
 2133 0a2e 17       		.uleb128 0x17
 2134 0a2f 06090000 		.4byte	0x906
 2135 0a33 3E0A0000 		.4byte	0xa3e
 2136 0a37 18       		.uleb128 0x18
 2137 0a38 2C000000 		.4byte	0x2c
 2138 0a3c 03       		.byte	0x3
 2139 0a3d 00       		.byte	0
 2140 0a3e 04       		.uleb128 0x4
 2141 0a3f D2010000 		.4byte	.LASF148
 2142 0a43 12       		.byte	0x12
 2143 0a44 49       		.byte	0x49
 2144 0a45 03       		.byte	0x3
 2145 0a46 3A090000 		.4byte	0x93a
 2146 0a4a 1B       		.uleb128 0x1b
 2147 0a4b 3E0A0000 		.4byte	0xa3e
 2148 0a4f 13       		.uleb128 0x13
 2149 0a50 D2020000 		.4byte	.LASF149
 2150 0a54 12       		.byte	0x12
 2151 0a55 6E       		.byte	0x6e
 2152 0a56 1D       		.byte	0x1d
 2153 0a57 4A0A0000 		.4byte	0xa4a
 2154 0a5b 04       		.uleb128 0x4
 2155 0a5c 4B020000 		.4byte	.LASF150
 2156 0a60 11       		.byte	0x11
 2157 0a61 34       		.byte	0x34
 2158 0a62 19       		.byte	0x19
 2159 0a63 B3080000 		.4byte	0x8b3
ARM GAS  /tmp/ccyjThYZ.s 			page 39


 2160 0a67 0A       		.uleb128 0xa
 2161 0a68 04       		.byte	0x4
 2162 0a69 5B0A0000 		.4byte	0xa5b
 2163 0a6d 1D       		.uleb128 0x1d
 2164 0a6e 39070000 		.4byte	.LASF178
 2165 0a72 01       		.byte	0x1
 2166 0a73 90       		.byte	0x90
 2167 0a74 06       		.byte	0x6
 2168 0a75 00000000 		.4byte	.LFB221
 2169 0a79 84000000 		.4byte	.LFE221-.LFB221
 2170 0a7d 01       		.uleb128 0x1
 2171 0a7e 9C       		.byte	0x9c
 2172 0a7f 080C0000 		.4byte	0xc08
 2173 0a83 1E       		.uleb128 0x1e
 2174 0a84 747000   		.ascii	"tp\000"
 2175 0a87 01       		.byte	0x1
 2176 0a88 90       		.byte	0x90
 2177 0a89 1D       		.byte	0x1d
 2178 0a8a 95020000 		.4byte	0x295
 2179 0a8e 04000000 		.4byte	.LLST13
 2180 0a92 00000000 		.4byte	.LVUS13
 2181 0a96 1E       		.uleb128 0x1e
 2182 0a97 6D736700 		.ascii	"msg\000"
 2183 0a9b 01       		.byte	0x1
 2184 0a9c 90       		.byte	0x90
 2185 0a9d 27       		.byte	0x27
 2186 0a9e 07010000 		.4byte	0x107
 2187 0aa2 26000000 		.4byte	.LLST14
 2188 0aa6 22000000 		.4byte	.LVUS14
 2189 0aaa 1F       		.uleb128 0x1f
 2190 0aab FD060000 		.4byte	.LASF153
 2191 0aaf 180C0000 		.4byte	0xc18
 2192 0ab3 05       		.uleb128 0x5
 2193 0ab4 03       		.byte	0x3
 2194 0ab5 00000000 		.4byte	__func__.7968
 2195 0ab9 20       		.uleb128 0x20
 2196 0aba F40F0000 		.4byte	0xff4
 2197 0abe 0E000000 		.4byte	.LBI125
 2198 0ac2 01       		.byte	.LVU133
 2199 0ac3 20010000 		.4byte	.Ldebug_ranges0+0x120
 2200 0ac7 01       		.byte	0x1
 2201 0ac8 92       		.byte	0x92
 2202 0ac9 03       		.byte	0x3
 2203 0aca 180B0000 		.4byte	0xb18
 2204 0ace 21       		.uleb128 0x21
 2205 0acf 62100000 		.4byte	0x1062
 2206 0ad3 0E000000 		.4byte	.LBI127
 2207 0ad7 03       		.byte	.LVU135
 2208 0ad8 40010000 		.4byte	.Ldebug_ranges0+0x140
 2209 0adc 02       		.byte	0x2
 2210 0add 5C01     		.2byte	0x15c
 2211 0adf 03       		.byte	0x3
 2212 0ae0 050B0000 		.4byte	0xb05
 2213 0ae4 22       		.uleb128 0x22
 2214 0ae5 6C100000 		.4byte	0x106c
 2215 0ae9 0E000000 		.4byte	.LBI128
 2216 0aed 05       		.byte	.LVU137
ARM GAS  /tmp/ccyjThYZ.s 			page 40


 2217 0aee 48010000 		.4byte	.Ldebug_ranges0+0x148
 2218 0af2 03       		.byte	0x3
 2219 0af3 BF01     		.2byte	0x1bf
 2220 0af5 03       		.byte	0x3
 2221 0af6 23       		.uleb128 0x23
 2222 0af7 7A100000 		.4byte	0x107a
 2223 0afb 46000000 		.4byte	.LLST15
 2224 0aff 44000000 		.4byte	.LVUS15
 2225 0b03 00       		.byte	0
 2226 0b04 00       		.byte	0
 2227 0b05 24       		.uleb128 0x24
 2228 0b06 1C000000 		.4byte	.LVL48
 2229 0b0a 88100000 		.4byte	0x1088
 2230 0b0e 24       		.uleb128 0x24
 2231 0b0f 20000000 		.4byte	.LVL49
 2232 0b13 94100000 		.4byte	0x1094
 2233 0b17 00       		.byte	0
 2234 0b18 25       		.uleb128 0x25
 2235 0b19 780F0000 		.4byte	0xf78
 2236 0b1d 2E000000 		.4byte	.LBI138
 2237 0b21 02       		.byte	.LVU150
 2238 0b22 2E000000 		.4byte	.LBB138
 2239 0b26 0C000000 		.4byte	.LBE138-.LBB138
 2240 0b2a 01       		.byte	0x1
 2241 0b2b 94       		.byte	0x94
 2242 0b2c 03       		.byte	0x3
 2243 0b2d 6B0B0000 		.4byte	0xb6b
 2244 0b31 23       		.uleb128 0x23
 2245 0b32 900F0000 		.4byte	0xf90
 2246 0b36 5D000000 		.4byte	.LLST16
 2247 0b3a 5B000000 		.4byte	.LVUS16
 2248 0b3e 23       		.uleb128 0x23
 2249 0b3f 850F0000 		.4byte	0xf85
 2250 0b43 72000000 		.4byte	.LLST17
 2251 0b47 70000000 		.4byte	.LVUS17
 2252 0b4b 24       		.uleb128 0x24
 2253 0b4c 32000000 		.4byte	.LVL51
 2254 0b50 A0100000 		.4byte	0x10a0
 2255 0b54 26       		.uleb128 0x26
 2256 0b55 3A000000 		.4byte	.LVL52
 2257 0b59 AC100000 		.4byte	0x10ac
 2258 0b5d 27       		.uleb128 0x27
 2259 0b5e 01       		.uleb128 0x1
 2260 0b5f 50       		.byte	0x50
 2261 0b60 02       		.uleb128 0x2
 2262 0b61 74       		.byte	0x74
 2263 0b62 00       		.sleb128 0
 2264 0b63 27       		.uleb128 0x27
 2265 0b64 01       		.uleb128 0x1
 2266 0b65 51       		.byte	0x51
 2267 0b66 02       		.uleb128 0x2
 2268 0b67 75       		.byte	0x75
 2269 0b68 00       		.sleb128 0
 2270 0b69 00       		.byte	0
 2271 0b6a 00       		.byte	0
 2272 0b6b 20       		.uleb128 0x20
 2273 0b6c C10F0000 		.4byte	0xfc1
ARM GAS  /tmp/ccyjThYZ.s 			page 41


 2274 0b70 3A000000 		.4byte	.LBI140
 2275 0b74 02       		.byte	.LVU155
 2276 0b75 60010000 		.4byte	.Ldebug_ranges0+0x160
 2277 0b79 01       		.byte	0x1
 2278 0b7a 95       		.byte	0x95
 2279 0b7b 03       		.byte	0x3
 2280 0b7c E70B0000 		.4byte	0xbe7
 2281 0b80 28       		.uleb128 0x28
 2282 0b81 60010000 		.4byte	.Ldebug_ranges0+0x160
 2283 0b85 21       		.uleb128 0x21
 2284 0b86 58100000 		.4byte	0x1058
 2285 0b8a 54000000 		.4byte	.LBI142
 2286 0b8e 02       		.byte	.LVU164
 2287 0b8f 80010000 		.4byte	.Ldebug_ranges0+0x180
 2288 0b93 02       		.byte	0x2
 2289 0b94 7301     		.2byte	0x173
 2290 0b96 03       		.byte	0x3
 2291 0b97 C00B0000 		.4byte	0xbc0
 2292 0b9b 29       		.uleb128 0x29
 2293 0b9c 6C100000 		.4byte	0x106c
 2294 0ba0 54000000 		.4byte	.LBI143
 2295 0ba4 04       		.byte	.LVU166
 2296 0ba5 54000000 		.4byte	.LBB143
 2297 0ba9 06000000 		.4byte	.LBE143-.LBB143
 2298 0bad 03       		.byte	0x3
 2299 0bae CD01     		.2byte	0x1cd
 2300 0bb0 03       		.byte	0x3
 2301 0bb1 23       		.uleb128 0x23
 2302 0bb2 7A100000 		.4byte	0x107a
 2303 0bb6 87000000 		.4byte	.LLST18
 2304 0bba 85000000 		.4byte	.LVUS18
 2305 0bbe 00       		.byte	0
 2306 0bbf 00       		.byte	0
 2307 0bc0 24       		.uleb128 0x24
 2308 0bc1 3E000000 		.4byte	.LVL53
 2309 0bc5 B9100000 		.4byte	0x10b9
 2310 0bc9 24       		.uleb128 0x24
 2311 0bca 42000000 		.4byte	.LVL54
 2312 0bce C5100000 		.4byte	0x10c5
 2313 0bd2 26       		.uleb128 0x26
 2314 0bd3 6E000000 		.4byte	.LVL58
 2315 0bd7 D1100000 		.4byte	0x10d1
 2316 0bdb 27       		.uleb128 0x27
 2317 0bdc 01       		.uleb128 0x1
 2318 0bdd 50       		.byte	0x50
 2319 0bde 05       		.uleb128 0x5
 2320 0bdf 03       		.byte	0x3
 2321 0be0 00000000 		.4byte	.LANCHOR1
 2322 0be4 00       		.byte	0
 2323 0be5 00       		.byte	0
 2324 0be6 00       		.byte	0
 2325 0be7 2A       		.uleb128 0x2a
 2326 0be8 2E000000 		.4byte	.LVL50
 2327 0bec D1100000 		.4byte	0x10d1
 2328 0bf0 FE0B0000 		.4byte	0xbfe
 2329 0bf4 27       		.uleb128 0x27
 2330 0bf5 01       		.uleb128 0x1
ARM GAS  /tmp/ccyjThYZ.s 			page 42


 2331 0bf6 50       		.byte	0x50
 2332 0bf7 05       		.uleb128 0x5
 2333 0bf8 03       		.byte	0x3
 2334 0bf9 00000000 		.4byte	.LANCHOR2
 2335 0bfd 00       		.byte	0
 2336 0bfe 24       		.uleb128 0x24
 2337 0bff 74000000 		.4byte	.LVL59
 2338 0c03 DE100000 		.4byte	0x10de
 2339 0c07 00       		.byte	0
 2340 0c08 17       		.uleb128 0x17
 2341 0c09 0D090000 		.4byte	0x90d
 2342 0c0d 180C0000 		.4byte	0xc18
 2343 0c11 18       		.uleb128 0x18
 2344 0c12 2C000000 		.4byte	0x2c
 2345 0c16 0C       		.byte	0xc
 2346 0c17 00       		.byte	0
 2347 0c18 1B       		.uleb128 0x1b
 2348 0c19 080C0000 		.4byte	0xc08
 2349 0c1d 2B       		.uleb128 0x2b
 2350 0c1e 4E080000 		.4byte	.LASF151
 2351 0c22 01       		.byte	0x1
 2352 0c23 78       		.byte	0x78
 2353 0c24 0B       		.byte	0xb
 2354 0c25 95020000 		.4byte	0x295
 2355 0c29 00000000 		.4byte	.LFB220
 2356 0c2d 8C000000 		.4byte	.LFE220-.LFB220
 2357 0c31 01       		.uleb128 0x1
 2358 0c32 9C       		.byte	0x9c
 2359 0c33 A80D0000 		.4byte	0xda8
 2360 0c37 2C       		.uleb128 0x2c
 2361 0c38 747000   		.ascii	"tp\000"
 2362 0c3b 01       		.byte	0x1
 2363 0c3c 79       		.byte	0x79
 2364 0c3d 0D       		.byte	0xd
 2365 0c3e 95020000 		.4byte	0x295
 2366 0c42 9F000000 		.4byte	.LLST7
 2367 0c46 9B000000 		.4byte	.LVUS7
 2368 0c4a 20       		.uleb128 0x20
 2369 0c4b F40F0000 		.4byte	0xff4
 2370 0c4f 0E000000 		.4byte	.LBI85
 2371 0c53 02       		.byte	.LVU74
 2372 0c54 80000000 		.4byte	.Ldebug_ranges0+0x80
 2373 0c58 01       		.byte	0x1
 2374 0c59 7B       		.byte	0x7b
 2375 0c5a 03       		.byte	0x3
 2376 0c5b AD0C0000 		.4byte	0xcad
 2377 0c5f 21       		.uleb128 0x21
 2378 0c60 62100000 		.4byte	0x1062
 2379 0c64 0E000000 		.4byte	.LBI87
 2380 0c68 04       		.byte	.LVU76
 2381 0c69 A0000000 		.4byte	.Ldebug_ranges0+0xa0
 2382 0c6d 02       		.byte	0x2
 2383 0c6e 5C01     		.2byte	0x15c
 2384 0c70 03       		.byte	0x3
 2385 0c71 9A0C0000 		.4byte	0xc9a
 2386 0c75 29       		.uleb128 0x29
 2387 0c76 6C100000 		.4byte	0x106c
ARM GAS  /tmp/ccyjThYZ.s 			page 43


 2388 0c7a 0E000000 		.4byte	.LBI88
 2389 0c7e 06       		.byte	.LVU78
 2390 0c7f 0E000000 		.4byte	.LBB88
 2391 0c83 06000000 		.4byte	.LBE88-.LBB88
 2392 0c87 03       		.byte	0x3
 2393 0c88 BF01     		.2byte	0x1bf
 2394 0c8a 03       		.byte	0x3
 2395 0c8b 23       		.uleb128 0x23
 2396 0c8c 7A100000 		.4byte	0x107a
 2397 0c90 BF000000 		.4byte	.LLST8
 2398 0c94 BD000000 		.4byte	.LVUS8
 2399 0c98 00       		.byte	0
 2400 0c99 00       		.byte	0
 2401 0c9a 24       		.uleb128 0x24
 2402 0c9b 1A000000 		.4byte	.LVL27
 2403 0c9f 88100000 		.4byte	0x1088
 2404 0ca3 24       		.uleb128 0x24
 2405 0ca4 1E000000 		.4byte	.LVL28
 2406 0ca8 94100000 		.4byte	0x1094
 2407 0cac 00       		.byte	0
 2408 0cad 20       		.uleb128 0x20
 2409 0cae 9D0F0000 		.4byte	0xf9d
 2410 0cb2 20000000 		.4byte	.LBI95
 2411 0cb6 00       		.byte	.LVU87
 2412 0cb7 B8000000 		.4byte	.Ldebug_ranges0+0xb8
 2413 0cbb 01       		.byte	0x1
 2414 0cbc 7C       		.byte	0x7c
 2415 0cbd 08       		.byte	0x8
 2416 0cbe D90C0000 		.4byte	0xcd9
 2417 0cc2 23       		.uleb128 0x23
 2418 0cc3 AE0F0000 		.4byte	0xfae
 2419 0cc7 D6000000 		.4byte	.LLST9
 2420 0ccb D4000000 		.4byte	.LVUS9
 2421 0ccf 24       		.uleb128 0x24
 2422 0cd0 24000000 		.4byte	.LVL30
 2423 0cd4 E7100000 		.4byte	0x10e7
 2424 0cd8 00       		.byte	0
 2425 0cd9 20       		.uleb128 0x20
 2426 0cda FE0F0000 		.4byte	0xffe
 2427 0cde 2E000000 		.4byte	.LBI99
 2428 0ce2 00       		.byte	.LVU96
 2429 0ce3 D0000000 		.4byte	.Ldebug_ranges0+0xd0
 2430 0ce7 01       		.byte	0x1
 2431 0ce8 7F       		.byte	0x7f
 2432 0ce9 08       		.byte	0x8
 2433 0cea 0F0D0000 		.4byte	0xd0f
 2434 0cee 23       		.uleb128 0x23
 2435 0cef 10100000 		.4byte	0x1010
 2436 0cf3 ED000000 		.4byte	.LLST10
 2437 0cf7 E9000000 		.4byte	.LVUS10
 2438 0cfb 28       		.uleb128 0x28
 2439 0cfc D0000000 		.4byte	.Ldebug_ranges0+0xd0
 2440 0d00 2D       		.uleb128 0x2d
 2441 0d01 1D100000 		.4byte	0x101d
 2442 0d05 0F010000 		.4byte	.LLST11
 2443 0d09 0D010000 		.4byte	.LVUS11
 2444 0d0d 00       		.byte	0
ARM GAS  /tmp/ccyjThYZ.s 			page 44


 2445 0d0e 00       		.byte	0
 2446 0d0f 20       		.uleb128 0x20
 2447 0d10 C10F0000 		.4byte	0xfc1
 2448 0d14 3E000000 		.4byte	.LBI103
 2449 0d18 01       		.byte	.LVU110
 2450 0d19 E8000000 		.4byte	.Ldebug_ranges0+0xe8
 2451 0d1d 01       		.byte	0x1
 2452 0d1e 81       		.byte	0x81
 2453 0d1f 03       		.byte	0x3
 2454 0d20 8B0D0000 		.4byte	0xd8b
 2455 0d24 28       		.uleb128 0x28
 2456 0d25 E8000000 		.4byte	.Ldebug_ranges0+0xe8
 2457 0d29 21       		.uleb128 0x21
 2458 0d2a 58100000 		.4byte	0x1058
 2459 0d2e 56000000 		.4byte	.LBI105
 2460 0d32 02       		.byte	.LVU118
 2461 0d33 08010000 		.4byte	.Ldebug_ranges0+0x108
 2462 0d37 02       		.byte	0x2
 2463 0d38 7301     		.2byte	0x173
 2464 0d3a 03       		.byte	0x3
 2465 0d3b 640D0000 		.4byte	0xd64
 2466 0d3f 29       		.uleb128 0x29
 2467 0d40 6C100000 		.4byte	0x106c
 2468 0d44 56000000 		.4byte	.LBI106
 2469 0d48 04       		.byte	.LVU120
 2470 0d49 56000000 		.4byte	.LBB106
 2471 0d4d 06000000 		.4byte	.LBE106-.LBB106
 2472 0d51 03       		.byte	0x3
 2473 0d52 CD01     		.2byte	0x1cd
 2474 0d54 03       		.byte	0x3
 2475 0d55 23       		.uleb128 0x23
 2476 0d56 7A100000 		.4byte	0x107a
 2477 0d5a 24010000 		.4byte	.LLST12
 2478 0d5e 22010000 		.4byte	.LVUS12
 2479 0d62 00       		.byte	0
 2480 0d63 00       		.byte	0
 2481 0d64 24       		.uleb128 0x24
 2482 0d65 42000000 		.4byte	.LVL35
 2483 0d69 B9100000 		.4byte	0x10b9
 2484 0d6d 24       		.uleb128 0x24
 2485 0d6e 46000000 		.4byte	.LVL36
 2486 0d72 C5100000 		.4byte	0x10c5
 2487 0d76 26       		.uleb128 0x26
 2488 0d77 72000000 		.4byte	.LVL40
 2489 0d7b D1100000 		.4byte	0x10d1
 2490 0d7f 27       		.uleb128 0x27
 2491 0d80 01       		.uleb128 0x1
 2492 0d81 50       		.byte	0x50
 2493 0d82 05       		.uleb128 0x5
 2494 0d83 03       		.byte	0x3
 2495 0d84 00000000 		.4byte	.LANCHOR1
 2496 0d88 00       		.byte	0
 2497 0d89 00       		.byte	0
 2498 0d8a 00       		.byte	0
 2499 0d8b 2A       		.uleb128 0x2a
 2500 0d8c 7A000000 		.4byte	.LVL42
 2501 0d90 F3100000 		.4byte	0x10f3
ARM GAS  /tmp/ccyjThYZ.s 			page 45


 2502 0d94 9E0D0000 		.4byte	0xd9e
 2503 0d98 27       		.uleb128 0x27
 2504 0d99 01       		.uleb128 0x1
 2505 0d9a 50       		.byte	0x50
 2506 0d9b 01       		.uleb128 0x1
 2507 0d9c 3E       		.byte	0x3e
 2508 0d9d 00       		.byte	0
 2509 0d9e 24       		.uleb128 0x24
 2510 0d9f 80000000 		.4byte	.LVL44
 2511 0da3 DE100000 		.4byte	0x10de
 2512 0da7 00       		.byte	0
 2513 0da8 2B       		.uleb128 0x2b
 2514 0da9 B9010000 		.4byte	.LASF152
 2515 0dad 01       		.byte	0x1
 2516 0dae 57       		.byte	0x57
 2517 0daf 07       		.byte	0x7
 2518 0db0 07010000 		.4byte	0x107
 2519 0db4 00000000 		.4byte	.LFB219
 2520 0db8 A4000000 		.4byte	.LFE219-.LFB219
 2521 0dbc 01       		.uleb128 0x1
 2522 0dbd 9C       		.byte	0x9c
 2523 0dbe 630F0000 		.4byte	0xf63
 2524 0dc2 1E       		.uleb128 0x1e
 2525 0dc3 747000   		.ascii	"tp\000"
 2526 0dc6 01       		.byte	0x1
 2527 0dc7 57       		.byte	0x57
 2528 0dc8 1B       		.byte	0x1b
 2529 0dc9 95020000 		.4byte	0x295
 2530 0dcd 46010000 		.4byte	.LLST0
 2531 0dd1 38010000 		.4byte	.LVUS0
 2532 0dd5 1E       		.uleb128 0x1e
 2533 0dd6 6D736700 		.ascii	"msg\000"
 2534 0dda 01       		.byte	0x1
 2535 0ddb 57       		.byte	0x57
 2536 0ddc 25       		.byte	0x25
 2537 0ddd 07010000 		.4byte	0x107
 2538 0de1 AF010000 		.4byte	.LLST1
 2539 0de5 A1010000 		.4byte	.LVUS1
 2540 0de9 2C       		.uleb128 0x2c
 2541 0dea 63747000 		.ascii	"ctp\000"
 2542 0dee 01       		.byte	0x1
 2543 0def 58       		.byte	0x58
 2544 0df0 0D       		.byte	0xd
 2545 0df1 95020000 		.4byte	0x295
 2546 0df5 06020000 		.4byte	.LLST2
 2547 0df9 04020000 		.4byte	.LVUS2
 2548 0dfd 1F       		.uleb128 0x1f
 2549 0dfe FD060000 		.4byte	.LASF153
 2550 0e02 730F0000 		.4byte	0xf73
 2551 0e06 05       		.uleb128 0x5
 2552 0e07 03       		.byte	0x3
 2553 0e08 00000000 		.4byte	__func__.7959
 2554 0e0c 20       		.uleb128 0x20
 2555 0e0d F40F0000 		.4byte	0xff4
 2556 0e11 1A000000 		.4byte	.LBI49
 2557 0e15 02       		.byte	.LVU14
 2558 0e16 00000000 		.4byte	.Ldebug_ranges0+0
ARM GAS  /tmp/ccyjThYZ.s 			page 46


 2559 0e1a 01       		.byte	0x1
 2560 0e1b 5C       		.byte	0x5c
 2561 0e1c 03       		.byte	0x3
 2562 0e1d 6F0E0000 		.4byte	0xe6f
 2563 0e21 21       		.uleb128 0x21
 2564 0e22 62100000 		.4byte	0x1062
 2565 0e26 1A000000 		.4byte	.LBI51
 2566 0e2a 04       		.byte	.LVU16
 2567 0e2b 18000000 		.4byte	.Ldebug_ranges0+0x18
 2568 0e2f 02       		.byte	0x2
 2569 0e30 5C01     		.2byte	0x15c
 2570 0e32 03       		.byte	0x3
 2571 0e33 5C0E0000 		.4byte	0xe5c
 2572 0e37 29       		.uleb128 0x29
 2573 0e38 6C100000 		.4byte	0x106c
 2574 0e3c 1A000000 		.4byte	.LBI52
 2575 0e40 06       		.byte	.LVU18
 2576 0e41 1A000000 		.4byte	.LBB52
 2577 0e45 06000000 		.4byte	.LBE52-.LBB52
 2578 0e49 03       		.byte	0x3
 2579 0e4a BF01     		.2byte	0x1bf
 2580 0e4c 03       		.byte	0x3
 2581 0e4d 23       		.uleb128 0x23
 2582 0e4e 7A100000 		.4byte	0x107a
 2583 0e52 1B020000 		.4byte	.LLST3
 2584 0e56 19020000 		.4byte	.LVUS3
 2585 0e5a 00       		.byte	0
 2586 0e5b 00       		.byte	0
 2587 0e5c 24       		.uleb128 0x24
 2588 0e5d 24000000 		.4byte	.LVL4
 2589 0e61 88100000 		.4byte	0x1088
 2590 0e65 24       		.uleb128 0x24
 2591 0e66 28000000 		.4byte	.LVL5
 2592 0e6a 94100000 		.4byte	0x1094
 2593 0e6e 00       		.byte	0
 2594 0e6f 20       		.uleb128 0x20
 2595 0e70 30100000 		.4byte	0x1030
 2596 0e74 30000000 		.4byte	.LBI57
 2597 0e78 01       		.byte	.LVU29
 2598 0e79 30000000 		.4byte	.Ldebug_ranges0+0x30
 2599 0e7d 01       		.byte	0x1
 2600 0e7e 5F       		.byte	0x5f
 2601 0e7f 03       		.byte	0x3
 2602 0e80 9F0E0000 		.4byte	0xe9f
 2603 0e84 23       		.uleb128 0x23
 2604 0e85 4A100000 		.4byte	0x104a
 2605 0e89 36020000 		.4byte	.LLST4
 2606 0e8d 30020000 		.4byte	.LVUS4
 2607 0e91 23       		.uleb128 0x23
 2608 0e92 3E100000 		.4byte	0x103e
 2609 0e96 64020000 		.4byte	.LLST5
 2610 0e9a 62020000 		.4byte	.LVUS5
 2611 0e9e 00       		.byte	0
 2612 0e9f 20       		.uleb128 0x20
 2613 0ea0 C10F0000 		.4byte	0xfc1
 2614 0ea4 4A000000 		.4byte	.LBI61
 2615 0ea8 01       		.byte	.LVU47
ARM GAS  /tmp/ccyjThYZ.s 			page 47


 2616 0ea9 48000000 		.4byte	.Ldebug_ranges0+0x48
 2617 0ead 01       		.byte	0x1
 2618 0eae 65       		.byte	0x65
 2619 0eaf 03       		.byte	0x3
 2620 0eb0 1B0F0000 		.4byte	0xf1b
 2621 0eb4 28       		.uleb128 0x28
 2622 0eb5 48000000 		.4byte	.Ldebug_ranges0+0x48
 2623 0eb9 21       		.uleb128 0x21
 2624 0eba 58100000 		.4byte	0x1058
 2625 0ebe 62000000 		.4byte	.LBI63
 2626 0ec2 02       		.byte	.LVU55
 2627 0ec3 68000000 		.4byte	.Ldebug_ranges0+0x68
 2628 0ec7 02       		.byte	0x2
 2629 0ec8 7301     		.2byte	0x173
 2630 0eca 03       		.byte	0x3
 2631 0ecb F40E0000 		.4byte	0xef4
 2632 0ecf 29       		.uleb128 0x29
 2633 0ed0 6C100000 		.4byte	0x106c
 2634 0ed4 62000000 		.4byte	.LBI64
 2635 0ed8 04       		.byte	.LVU57
 2636 0ed9 62000000 		.4byte	.LBB64
 2637 0edd 06000000 		.4byte	.LBE64-.LBB64
 2638 0ee1 03       		.byte	0x3
 2639 0ee2 CD01     		.2byte	0x1cd
 2640 0ee4 03       		.byte	0x3
 2641 0ee5 23       		.uleb128 0x23
 2642 0ee6 7A100000 		.4byte	0x107a
 2643 0eea 79020000 		.4byte	.LLST6
 2644 0eee 77020000 		.4byte	.LVUS6
 2645 0ef2 00       		.byte	0
 2646 0ef3 00       		.byte	0
 2647 0ef4 24       		.uleb128 0x24
 2648 0ef5 4E000000 		.4byte	.LVL12
 2649 0ef9 B9100000 		.4byte	0x10b9
 2650 0efd 24       		.uleb128 0x24
 2651 0efe 52000000 		.4byte	.LVL13
 2652 0f02 C5100000 		.4byte	0x10c5
 2653 0f06 26       		.uleb128 0x26
 2654 0f07 7E000000 		.4byte	.LVL17
 2655 0f0b D1100000 		.4byte	0x10d1
 2656 0f0f 27       		.uleb128 0x27
 2657 0f10 01       		.uleb128 0x1
 2658 0f11 50       		.byte	0x50
 2659 0f12 05       		.uleb128 0x5
 2660 0f13 03       		.byte	0x3
 2661 0f14 00000000 		.4byte	.LANCHOR1
 2662 0f18 00       		.byte	0
 2663 0f19 00       		.byte	0
 2664 0f1a 00       		.byte	0
 2665 0f1b 2A       		.uleb128 0x2a
 2666 0f1c 48000000 		.4byte	.LVL10
 2667 0f20 F3100000 		.4byte	0x10f3
 2668 0f24 2E0F0000 		.4byte	0xf2e
 2669 0f28 27       		.uleb128 0x27
 2670 0f29 01       		.uleb128 0x1
 2671 0f2a 50       		.byte	0x50
 2672 0f2b 01       		.uleb128 0x1
ARM GAS  /tmp/ccyjThYZ.s 			page 48


 2673 0f2c 3C       		.byte	0x3c
 2674 0f2d 00       		.byte	0
 2675 0f2e 2A       		.uleb128 0x2a
 2676 0f2f 86000000 		.4byte	.LVL19
 2677 0f33 00110000 		.4byte	0x1100
 2678 0f37 420F0000 		.4byte	0xf42
 2679 0f3b 27       		.uleb128 0x27
 2680 0f3c 01       		.uleb128 0x1
 2681 0f3d 50       		.byte	0x50
 2682 0f3e 02       		.uleb128 0x2
 2683 0f3f 74       		.byte	0x74
 2684 0f40 00       		.sleb128 0
 2685 0f41 00       		.byte	0
 2686 0f42 2A       		.uleb128 0x2a
 2687 0f43 8E000000 		.4byte	.LVL22
 2688 0f47 D1100000 		.4byte	0x10d1
 2689 0f4b 590F0000 		.4byte	0xf59
 2690 0f4f 27       		.uleb128 0x27
 2691 0f50 01       		.uleb128 0x1
 2692 0f51 50       		.byte	0x50
 2693 0f52 05       		.uleb128 0x5
 2694 0f53 03       		.byte	0x3
 2695 0f54 00000000 		.4byte	.LANCHOR0
 2696 0f58 00       		.byte	0
 2697 0f59 24       		.uleb128 0x24
 2698 0f5a 94000000 		.4byte	.LVL24
 2699 0f5e DE100000 		.4byte	0x10de
 2700 0f62 00       		.byte	0
 2701 0f63 17       		.uleb128 0x17
 2702 0f64 0D090000 		.4byte	0x90d
 2703 0f68 730F0000 		.4byte	0xf73
 2704 0f6c 18       		.uleb128 0x18
 2705 0f6d 2C000000 		.4byte	0x2c
 2706 0f71 09       		.byte	0x9
 2707 0f72 00       		.byte	0
 2708 0f73 1B       		.uleb128 0x1b
 2709 0f74 630F0000 		.4byte	0xf63
 2710 0f78 2E       		.uleb128 0x2e
 2711 0f79 09090000 		.4byte	.LASF155
 2712 0f7d 06       		.byte	0x6
 2713 0f7e 6F       		.byte	0x6f
 2714 0f7f 14       		.byte	0x14
 2715 0f80 03       		.byte	0x3
 2716 0f81 9D0F0000 		.4byte	0xf9d
 2717 0f85 2F       		.uleb128 0x2f
 2718 0f86 747000   		.ascii	"tp\000"
 2719 0f89 06       		.byte	0x6
 2720 0f8a 6F       		.byte	0x6f
 2721 0f8b 2C       		.byte	0x2c
 2722 0f8c 95020000 		.4byte	0x295
 2723 0f90 2F       		.uleb128 0x2f
 2724 0f91 6D736700 		.ascii	"msg\000"
 2725 0f95 06       		.byte	0x6
 2726 0f96 6F       		.byte	0x6f
 2727 0f97 36       		.byte	0x36
 2728 0f98 07010000 		.4byte	0x107
 2729 0f9c 00       		.byte	0
ARM GAS  /tmp/ccyjThYZ.s 			page 49


 2730 0f9d 30       		.uleb128 0x30
 2731 0f9e DC010000 		.4byte	.LASF157
 2732 0fa2 06       		.byte	0x6
 2733 0fa3 4F       		.byte	0x4f
 2734 0fa4 14       		.byte	0x14
 2735 0fa5 BA0F0000 		.4byte	0xfba
 2736 0fa9 03       		.byte	0x3
 2737 0faa BA0F0000 		.4byte	0xfba
 2738 0fae 2F       		.uleb128 0x2f
 2739 0faf 747000   		.ascii	"tp\000"
 2740 0fb2 06       		.byte	0x6
 2741 0fb3 4F       		.byte	0x4f
 2742 0fb4 2E       		.byte	0x2e
 2743 0fb5 95020000 		.4byte	0x295
 2744 0fb9 00       		.byte	0
 2745 0fba 03       		.uleb128 0x3
 2746 0fbb 01       		.byte	0x1
 2747 0fbc 02       		.byte	0x2
 2748 0fbd 87060000 		.4byte	.LASF154
 2749 0fc1 31       		.uleb128 0x31
 2750 0fc2 F2080000 		.4byte	.LASF156
 2751 0fc6 02       		.byte	0x2
 2752 0fc7 6601     		.2byte	0x166
 2753 0fc9 14       		.byte	0x14
 2754 0fca 03       		.byte	0x3
 2755 0fcb DF0F0000 		.4byte	0xfdf
 2756 0fcf 1F       		.uleb128 0x1f
 2757 0fd0 FD060000 		.4byte	.LASF153
 2758 0fd4 EF0F0000 		.4byte	0xfef
 2759 0fd8 05       		.uleb128 0x5
 2760 0fd9 03       		.byte	0x3
 2761 0fda 00000000 		.4byte	__func__.7261
 2762 0fde 00       		.byte	0
 2763 0fdf 17       		.uleb128 0x17
 2764 0fe0 0D090000 		.4byte	0x90d
 2765 0fe4 EF0F0000 		.4byte	0xfef
 2766 0fe8 18       		.uleb128 0x18
 2767 0fe9 2C000000 		.4byte	0x2c
 2768 0fed 0B       		.byte	0xb
 2769 0fee 00       		.byte	0
 2770 0fef 1B       		.uleb128 0x1b
 2771 0ff0 DF0F0000 		.4byte	0xfdf
 2772 0ff4 32       		.uleb128 0x32
 2773 0ff5 0E070000 		.4byte	.LASF160
 2774 0ff9 02       		.byte	0x2
 2775 0ffa 5A01     		.2byte	0x15a
 2776 0ffc 14       		.byte	0x14
 2777 0ffd 03       		.byte	0x3
 2778 0ffe 33       		.uleb128 0x33
 2779 0fff EA070000 		.4byte	.LASF158
 2780 1003 05       		.byte	0x5
 2781 1004 9F02     		.2byte	0x29f
 2782 1006 19       		.byte	0x19
 2783 1007 95020000 		.4byte	0x295
 2784 100b 03       		.byte	0x3
 2785 100c 2A100000 		.4byte	0x102a
 2786 1010 34       		.uleb128 0x34
ARM GAS  /tmp/ccyjThYZ.s 			page 50


 2787 1011 74717000 		.ascii	"tqp\000"
 2788 1015 05       		.byte	0x5
 2789 1016 9F02     		.2byte	0x29f
 2790 1018 3C       		.byte	0x3c
 2791 1019 2A100000 		.4byte	0x102a
 2792 101d 35       		.uleb128 0x35
 2793 101e 747000   		.ascii	"tp\000"
 2794 1021 05       		.byte	0x5
 2795 1022 A002     		.2byte	0x2a0
 2796 1024 0D       		.byte	0xd
 2797 1025 95020000 		.4byte	0x295
 2798 1029 00       		.byte	0
 2799 102a 0A       		.uleb128 0xa
 2800 102b 04       		.byte	0x4
 2801 102c C2020000 		.4byte	0x2c2
 2802 1030 31       		.uleb128 0x31
 2803 1031 1A000000 		.4byte	.LASF159
 2804 1035 05       		.byte	0x5
 2805 1036 9702     		.2byte	0x297
 2806 1038 14       		.byte	0x14
 2807 1039 03       		.byte	0x3
 2808 103a 58100000 		.4byte	0x1058
 2809 103e 34       		.uleb128 0x34
 2810 103f 747000   		.ascii	"tp\000"
 2811 1042 05       		.byte	0x5
 2812 1043 9702     		.2byte	0x297
 2813 1045 2B       		.byte	0x2b
 2814 1046 95020000 		.4byte	0x295
 2815 104a 34       		.uleb128 0x34
 2816 104b 74717000 		.ascii	"tqp\000"
 2817 104f 05       		.byte	0x5
 2818 1050 9702     		.2byte	0x297
 2819 1052 40       		.byte	0x40
 2820 1053 2A100000 		.4byte	0x102a
 2821 1057 00       		.byte	0
 2822 1058 32       		.uleb128 0x32
 2823 1059 90010000 		.4byte	.LASF161
 2824 105d 03       		.byte	0x3
 2825 105e CA01     		.2byte	0x1ca
 2826 1060 14       		.byte	0x14
 2827 1061 03       		.byte	0x3
 2828 1062 32       		.uleb128 0x32
 2829 1063 76000000 		.4byte	.LASF162
 2830 1067 03       		.byte	0x3
 2831 1068 BC01     		.2byte	0x1bc
 2832 106a 14       		.byte	0x14
 2833 106b 03       		.byte	0x3
 2834 106c 31       		.uleb128 0x31
 2835 106d 1A080000 		.4byte	.LASF163
 2836 1071 04       		.byte	0x4
 2837 1072 2002     		.2byte	0x220
 2838 1074 39       		.byte	0x39
 2839 1075 03       		.byte	0x3
 2840 1076 88100000 		.4byte	0x1088
 2841 107a 36       		.uleb128 0x36
 2842 107b 53020000 		.4byte	.LASF164
 2843 107f 04       		.byte	0x4
ARM GAS  /tmp/ccyjThYZ.s 			page 51


 2844 1080 2002     		.2byte	0x220
 2845 1082 50       		.byte	0x50
 2846 1083 8D000000 		.4byte	0x8d
 2847 1087 00       		.byte	0
 2848 1088 37       		.uleb128 0x37
 2849 1089 E4000000 		.4byte	.LASF165
 2850 108d E4000000 		.4byte	.LASF165
 2851 1091 0F       		.byte	0xf
 2852 1092 4F       		.byte	0x4f
 2853 1093 08       		.byte	0x8
 2854 1094 37       		.uleb128 0x37
 2855 1095 36040000 		.4byte	.LASF166
 2856 1099 36040000 		.4byte	.LASF166
 2857 109d 0D       		.byte	0xd
 2858 109e D8       		.byte	0xd8
 2859 109f 08       		.byte	0x8
 2860 10a0 37       		.uleb128 0x37
 2861 10a1 A3030000 		.4byte	.LASF167
 2862 10a5 A3030000 		.4byte	.LASF167
 2863 10a9 0D       		.byte	0xd
 2864 10aa DF       		.byte	0xdf
 2865 10ab 08       		.byte	0x8
 2866 10ac 38       		.uleb128 0x38
 2867 10ad 5B030000 		.4byte	.LASF168
 2868 10b1 5B030000 		.4byte	.LASF168
 2869 10b5 05       		.byte	0x5
 2870 10b6 1602     		.2byte	0x216
 2871 10b8 08       		.byte	0x8
 2872 10b9 37       		.uleb128 0x37
 2873 10ba 9A080000 		.4byte	.LASF169
 2874 10be 9A080000 		.4byte	.LASF169
 2875 10c2 0D       		.byte	0xd
 2876 10c3 D9       		.byte	0xd9
 2877 10c4 08       		.byte	0x8
 2878 10c5 37       		.uleb128 0x37
 2879 10c6 11040000 		.4byte	.LASF170
 2880 10ca 11040000 		.4byte	.LASF170
 2881 10ce 0F       		.byte	0xf
 2882 10cf 50       		.byte	0x50
 2883 10d0 08       		.byte	0x8
 2884 10d1 38       		.uleb128 0x38
 2885 10d2 1D020000 		.4byte	.LASF171
 2886 10d6 1D020000 		.4byte	.LASF171
 2887 10da 02       		.byte	0x2
 2888 10db 1601     		.2byte	0x116
 2889 10dd 08       		.byte	0x8
 2890 10de 39       		.uleb128 0x39
 2891 10df 46070000 		.4byte	.LASF179
 2892 10e3 46070000 		.4byte	.LASF179
 2893 10e7 37       		.uleb128 0x37
 2894 10e8 7A030000 		.4byte	.LASF172
 2895 10ec 7A030000 		.4byte	.LASF172
 2896 10f0 0D       		.byte	0xd
 2897 10f1 DE       		.byte	0xde
 2898 10f2 08       		.byte	0x8
 2899 10f3 38       		.uleb128 0x38
 2900 10f4 64070000 		.4byte	.LASF173
ARM GAS  /tmp/ccyjThYZ.s 			page 52


 2901 10f8 64070000 		.4byte	.LASF173
 2902 10fc 05       		.byte	0x5
 2903 10fd 1402     		.2byte	0x214
 2904 10ff 08       		.byte	0x8
 2905 1100 38       		.uleb128 0x38
 2906 1101 9A070000 		.4byte	.LASF174
 2907 1105 9A070000 		.4byte	.LASF174
 2908 1109 05       		.byte	0x5
 2909 110a 1302     		.2byte	0x213
 2910 110c 0D       		.byte	0xd
 2911 110d 00       		.byte	0
 2912              		.section	.debug_abbrev,"",%progbits
 2913              	.Ldebug_abbrev0:
 2914 0000 01       		.uleb128 0x1
 2915 0001 11       		.uleb128 0x11
 2916 0002 01       		.byte	0x1
 2917 0003 25       		.uleb128 0x25
 2918 0004 0E       		.uleb128 0xe
 2919 0005 13       		.uleb128 0x13
 2920 0006 0B       		.uleb128 0xb
 2921 0007 03       		.uleb128 0x3
 2922 0008 0E       		.uleb128 0xe
 2923 0009 1B       		.uleb128 0x1b
 2924 000a 0E       		.uleb128 0xe
 2925 000b 55       		.uleb128 0x55
 2926 000c 17       		.uleb128 0x17
 2927 000d 11       		.uleb128 0x11
 2928 000e 01       		.uleb128 0x1
 2929 000f 10       		.uleb128 0x10
 2930 0010 17       		.uleb128 0x17
 2931 0011 00       		.byte	0
 2932 0012 00       		.byte	0
 2933 0013 02       		.uleb128 0x2
 2934 0014 24       		.uleb128 0x24
 2935 0015 00       		.byte	0
 2936 0016 0B       		.uleb128 0xb
 2937 0017 0B       		.uleb128 0xb
 2938 0018 3E       		.uleb128 0x3e
 2939 0019 0B       		.uleb128 0xb
 2940 001a 03       		.uleb128 0x3
 2941 001b 08       		.uleb128 0x8
 2942 001c 00       		.byte	0
 2943 001d 00       		.byte	0
 2944 001e 03       		.uleb128 0x3
 2945 001f 24       		.uleb128 0x24
 2946 0020 00       		.byte	0
 2947 0021 0B       		.uleb128 0xb
 2948 0022 0B       		.uleb128 0xb
 2949 0023 3E       		.uleb128 0x3e
 2950 0024 0B       		.uleb128 0xb
 2951 0025 03       		.uleb128 0x3
 2952 0026 0E       		.uleb128 0xe
 2953 0027 00       		.byte	0
 2954 0028 00       		.byte	0
 2955 0029 04       		.uleb128 0x4
 2956 002a 16       		.uleb128 0x16
 2957 002b 00       		.byte	0
ARM GAS  /tmp/ccyjThYZ.s 			page 53


 2958 002c 03       		.uleb128 0x3
 2959 002d 0E       		.uleb128 0xe
 2960 002e 3A       		.uleb128 0x3a
 2961 002f 0B       		.uleb128 0xb
 2962 0030 3B       		.uleb128 0x3b
 2963 0031 0B       		.uleb128 0xb
 2964 0032 39       		.uleb128 0x39
 2965 0033 0B       		.uleb128 0xb
 2966 0034 49       		.uleb128 0x49
 2967 0035 13       		.uleb128 0x13
 2968 0036 00       		.byte	0
 2969 0037 00       		.byte	0
 2970 0038 05       		.uleb128 0x5
 2971 0039 35       		.uleb128 0x35
 2972 003a 00       		.byte	0
 2973 003b 49       		.uleb128 0x49
 2974 003c 13       		.uleb128 0x13
 2975 003d 00       		.byte	0
 2976 003e 00       		.byte	0
 2977 003f 06       		.uleb128 0x6
 2978 0040 13       		.uleb128 0x13
 2979 0041 01       		.byte	0x1
 2980 0042 03       		.uleb128 0x3
 2981 0043 0E       		.uleb128 0xe
 2982 0044 0B       		.uleb128 0xb
 2983 0045 0B       		.uleb128 0xb
 2984 0046 3A       		.uleb128 0x3a
 2985 0047 0B       		.uleb128 0xb
 2986 0048 3B       		.uleb128 0x3b
 2987 0049 0B       		.uleb128 0xb
 2988 004a 39       		.uleb128 0x39
 2989 004b 0B       		.uleb128 0xb
 2990 004c 01       		.uleb128 0x1
 2991 004d 13       		.uleb128 0x13
 2992 004e 00       		.byte	0
 2993 004f 00       		.byte	0
 2994 0050 07       		.uleb128 0x7
 2995 0051 0D       		.uleb128 0xd
 2996 0052 00       		.byte	0
 2997 0053 03       		.uleb128 0x3
 2998 0054 0E       		.uleb128 0xe
 2999 0055 3A       		.uleb128 0x3a
 3000 0056 0B       		.uleb128 0xb
 3001 0057 3B       		.uleb128 0x3b
 3002 0058 0B       		.uleb128 0xb
 3003 0059 39       		.uleb128 0x39
 3004 005a 0B       		.uleb128 0xb
 3005 005b 49       		.uleb128 0x49
 3006 005c 13       		.uleb128 0x13
 3007 005d 38       		.uleb128 0x38
 3008 005e 0B       		.uleb128 0xb
 3009 005f 00       		.byte	0
 3010 0060 00       		.byte	0
 3011 0061 08       		.uleb128 0x8
 3012 0062 0D       		.uleb128 0xd
 3013 0063 00       		.byte	0
 3014 0064 03       		.uleb128 0x3
ARM GAS  /tmp/ccyjThYZ.s 			page 54


 3015 0065 08       		.uleb128 0x8
 3016 0066 3A       		.uleb128 0x3a
 3017 0067 0B       		.uleb128 0xb
 3018 0068 3B       		.uleb128 0x3b
 3019 0069 05       		.uleb128 0x5
 3020 006a 39       		.uleb128 0x39
 3021 006b 0B       		.uleb128 0xb
 3022 006c 49       		.uleb128 0x49
 3023 006d 13       		.uleb128 0x13
 3024 006e 38       		.uleb128 0x38
 3025 006f 0B       		.uleb128 0xb
 3026 0070 00       		.byte	0
 3027 0071 00       		.byte	0
 3028 0072 09       		.uleb128 0x9
 3029 0073 0D       		.uleb128 0xd
 3030 0074 00       		.byte	0
 3031 0075 03       		.uleb128 0x3
 3032 0076 0E       		.uleb128 0xe
 3033 0077 3A       		.uleb128 0x3a
 3034 0078 0B       		.uleb128 0xb
 3035 0079 3B       		.uleb128 0x3b
 3036 007a 05       		.uleb128 0x5
 3037 007b 39       		.uleb128 0x39
 3038 007c 0B       		.uleb128 0xb
 3039 007d 49       		.uleb128 0x49
 3040 007e 13       		.uleb128 0x13
 3041 007f 38       		.uleb128 0x38
 3042 0080 0B       		.uleb128 0xb
 3043 0081 00       		.byte	0
 3044 0082 00       		.byte	0
 3045 0083 0A       		.uleb128 0xa
 3046 0084 0F       		.uleb128 0xf
 3047 0085 00       		.byte	0
 3048 0086 0B       		.uleb128 0xb
 3049 0087 0B       		.uleb128 0xb
 3050 0088 49       		.uleb128 0x49
 3051 0089 13       		.uleb128 0x13
 3052 008a 00       		.byte	0
 3053 008b 00       		.byte	0
 3054 008c 0B       		.uleb128 0xb
 3055 008d 13       		.uleb128 0x13
 3056 008e 01       		.byte	0x1
 3057 008f 03       		.uleb128 0x3
 3058 0090 0E       		.uleb128 0xe
 3059 0091 0B       		.uleb128 0xb
 3060 0092 0B       		.uleb128 0xb
 3061 0093 3A       		.uleb128 0x3a
 3062 0094 0B       		.uleb128 0xb
 3063 0095 3B       		.uleb128 0x3b
 3064 0096 05       		.uleb128 0x5
 3065 0097 39       		.uleb128 0x39
 3066 0098 0B       		.uleb128 0xb
 3067 0099 01       		.uleb128 0x1
 3068 009a 13       		.uleb128 0x13
 3069 009b 00       		.byte	0
 3070 009c 00       		.byte	0
 3071 009d 0C       		.uleb128 0xc
ARM GAS  /tmp/ccyjThYZ.s 			page 55


 3072 009e 15       		.uleb128 0x15
 3073 009f 01       		.byte	0x1
 3074 00a0 27       		.uleb128 0x27
 3075 00a1 19       		.uleb128 0x19
 3076 00a2 01       		.uleb128 0x1
 3077 00a3 13       		.uleb128 0x13
 3078 00a4 00       		.byte	0
 3079 00a5 00       		.byte	0
 3080 00a6 0D       		.uleb128 0xd
 3081 00a7 05       		.uleb128 0x5
 3082 00a8 00       		.byte	0
 3083 00a9 49       		.uleb128 0x49
 3084 00aa 13       		.uleb128 0x13
 3085 00ab 00       		.byte	0
 3086 00ac 00       		.byte	0
 3087 00ad 0E       		.uleb128 0xe
 3088 00ae 0F       		.uleb128 0xf
 3089 00af 00       		.byte	0
 3090 00b0 0B       		.uleb128 0xb
 3091 00b1 0B       		.uleb128 0xb
 3092 00b2 00       		.byte	0
 3093 00b3 00       		.byte	0
 3094 00b4 0F       		.uleb128 0xf
 3095 00b5 13       		.uleb128 0x13
 3096 00b6 01       		.byte	0x1
 3097 00b7 03       		.uleb128 0x3
 3098 00b8 0E       		.uleb128 0xe
 3099 00b9 0B       		.uleb128 0xb
 3100 00ba 05       		.uleb128 0x5
 3101 00bb 3A       		.uleb128 0x3a
 3102 00bc 0B       		.uleb128 0xb
 3103 00bd 3B       		.uleb128 0x3b
 3104 00be 05       		.uleb128 0x5
 3105 00bf 39       		.uleb128 0x39
 3106 00c0 0B       		.uleb128 0xb
 3107 00c1 01       		.uleb128 0x1
 3108 00c2 13       		.uleb128 0x13
 3109 00c3 00       		.byte	0
 3110 00c4 00       		.byte	0
 3111 00c5 10       		.uleb128 0x10
 3112 00c6 0D       		.uleb128 0xd
 3113 00c7 00       		.byte	0
 3114 00c8 03       		.uleb128 0x3
 3115 00c9 0E       		.uleb128 0xe
 3116 00ca 3A       		.uleb128 0x3a
 3117 00cb 0B       		.uleb128 0xb
 3118 00cc 3B       		.uleb128 0x3b
 3119 00cd 05       		.uleb128 0x5
 3120 00ce 39       		.uleb128 0x39
 3121 00cf 0B       		.uleb128 0xb
 3122 00d0 49       		.uleb128 0x49
 3123 00d1 13       		.uleb128 0x13
 3124 00d2 38       		.uleb128 0x38
 3125 00d3 05       		.uleb128 0x5
 3126 00d4 00       		.byte	0
 3127 00d5 00       		.byte	0
 3128 00d6 11       		.uleb128 0x11
ARM GAS  /tmp/ccyjThYZ.s 			page 56


 3129 00d7 0D       		.uleb128 0xd
 3130 00d8 00       		.byte	0
 3131 00d9 03       		.uleb128 0x3
 3132 00da 08       		.uleb128 0x8
 3133 00db 3A       		.uleb128 0x3a
 3134 00dc 0B       		.uleb128 0xb
 3135 00dd 3B       		.uleb128 0x3b
 3136 00de 05       		.uleb128 0x5
 3137 00df 39       		.uleb128 0x39
 3138 00e0 0B       		.uleb128 0xb
 3139 00e1 49       		.uleb128 0x49
 3140 00e2 13       		.uleb128 0x13
 3141 00e3 38       		.uleb128 0x38
 3142 00e4 05       		.uleb128 0x5
 3143 00e5 00       		.byte	0
 3144 00e6 00       		.byte	0
 3145 00e7 12       		.uleb128 0x12
 3146 00e8 34       		.uleb128 0x34
 3147 00e9 00       		.byte	0
 3148 00ea 03       		.uleb128 0x3
 3149 00eb 0E       		.uleb128 0xe
 3150 00ec 3A       		.uleb128 0x3a
 3151 00ed 0B       		.uleb128 0xb
 3152 00ee 3B       		.uleb128 0x3b
 3153 00ef 05       		.uleb128 0x5
 3154 00f0 39       		.uleb128 0x39
 3155 00f1 0B       		.uleb128 0xb
 3156 00f2 49       		.uleb128 0x49
 3157 00f3 13       		.uleb128 0x13
 3158 00f4 3F       		.uleb128 0x3f
 3159 00f5 19       		.uleb128 0x19
 3160 00f6 3C       		.uleb128 0x3c
 3161 00f7 19       		.uleb128 0x19
 3162 00f8 00       		.byte	0
 3163 00f9 00       		.byte	0
 3164 00fa 13       		.uleb128 0x13
 3165 00fb 34       		.uleb128 0x34
 3166 00fc 00       		.byte	0
 3167 00fd 03       		.uleb128 0x3
 3168 00fe 0E       		.uleb128 0xe
 3169 00ff 3A       		.uleb128 0x3a
 3170 0100 0B       		.uleb128 0xb
 3171 0101 3B       		.uleb128 0x3b
 3172 0102 0B       		.uleb128 0xb
 3173 0103 39       		.uleb128 0x39
 3174 0104 0B       		.uleb128 0xb
 3175 0105 49       		.uleb128 0x49
 3176 0106 13       		.uleb128 0x13
 3177 0107 3F       		.uleb128 0x3f
 3178 0108 19       		.uleb128 0x19
 3179 0109 3C       		.uleb128 0x3c
 3180 010a 19       		.uleb128 0x19
 3181 010b 00       		.byte	0
 3182 010c 00       		.byte	0
 3183 010d 14       		.uleb128 0x14
 3184 010e 0D       		.uleb128 0xd
 3185 010f 00       		.byte	0
ARM GAS  /tmp/ccyjThYZ.s 			page 57


 3186 0110 03       		.uleb128 0x3
 3187 0111 08       		.uleb128 0x8
 3188 0112 3A       		.uleb128 0x3a
 3189 0113 0B       		.uleb128 0xb
 3190 0114 3B       		.uleb128 0x3b
 3191 0115 0B       		.uleb128 0xb
 3192 0116 39       		.uleb128 0x39
 3193 0117 0B       		.uleb128 0xb
 3194 0118 49       		.uleb128 0x49
 3195 0119 13       		.uleb128 0x13
 3196 011a 38       		.uleb128 0x38
 3197 011b 0B       		.uleb128 0xb
 3198 011c 00       		.byte	0
 3199 011d 00       		.byte	0
 3200 011e 15       		.uleb128 0x15
 3201 011f 13       		.uleb128 0x13
 3202 0120 01       		.byte	0x1
 3203 0121 0B       		.uleb128 0xb
 3204 0122 0B       		.uleb128 0xb
 3205 0123 3A       		.uleb128 0x3a
 3206 0124 0B       		.uleb128 0xb
 3207 0125 3B       		.uleb128 0x3b
 3208 0126 0B       		.uleb128 0xb
 3209 0127 39       		.uleb128 0x39
 3210 0128 0B       		.uleb128 0xb
 3211 0129 01       		.uleb128 0x1
 3212 012a 13       		.uleb128 0x13
 3213 012b 00       		.byte	0
 3214 012c 00       		.byte	0
 3215 012d 16       		.uleb128 0x16
 3216 012e 13       		.uleb128 0x13
 3217 012f 01       		.byte	0x1
 3218 0130 0B       		.uleb128 0xb
 3219 0131 05       		.uleb128 0x5
 3220 0132 3A       		.uleb128 0x3a
 3221 0133 0B       		.uleb128 0xb
 3222 0134 3B       		.uleb128 0x3b
 3223 0135 0B       		.uleb128 0xb
 3224 0136 39       		.uleb128 0x39
 3225 0137 0B       		.uleb128 0xb
 3226 0138 01       		.uleb128 0x1
 3227 0139 13       		.uleb128 0x13
 3228 013a 00       		.byte	0
 3229 013b 00       		.byte	0
 3230 013c 17       		.uleb128 0x17
 3231 013d 01       		.uleb128 0x1
 3232 013e 01       		.byte	0x1
 3233 013f 49       		.uleb128 0x49
 3234 0140 13       		.uleb128 0x13
 3235 0141 01       		.uleb128 0x1
 3236 0142 13       		.uleb128 0x13
 3237 0143 00       		.byte	0
 3238 0144 00       		.byte	0
 3239 0145 18       		.uleb128 0x18
 3240 0146 21       		.uleb128 0x21
 3241 0147 00       		.byte	0
 3242 0148 49       		.uleb128 0x49
ARM GAS  /tmp/ccyjThYZ.s 			page 58


 3243 0149 13       		.uleb128 0x13
 3244 014a 2F       		.uleb128 0x2f
 3245 014b 0B       		.uleb128 0xb
 3246 014c 00       		.byte	0
 3247 014d 00       		.byte	0
 3248 014e 19       		.uleb128 0x19
 3249 014f 17       		.uleb128 0x17
 3250 0150 01       		.byte	0x1
 3251 0151 0B       		.uleb128 0xb
 3252 0152 0B       		.uleb128 0xb
 3253 0153 3A       		.uleb128 0x3a
 3254 0154 0B       		.uleb128 0xb
 3255 0155 3B       		.uleb128 0x3b
 3256 0156 0B       		.uleb128 0xb
 3257 0157 39       		.uleb128 0x39
 3258 0158 0B       		.uleb128 0xb
 3259 0159 01       		.uleb128 0x1
 3260 015a 13       		.uleb128 0x13
 3261 015b 00       		.byte	0
 3262 015c 00       		.byte	0
 3263 015d 1A       		.uleb128 0x1a
 3264 015e 0D       		.uleb128 0xd
 3265 015f 00       		.byte	0
 3266 0160 03       		.uleb128 0x3
 3267 0161 0E       		.uleb128 0xe
 3268 0162 3A       		.uleb128 0x3a
 3269 0163 0B       		.uleb128 0xb
 3270 0164 3B       		.uleb128 0x3b
 3271 0165 05       		.uleb128 0x5
 3272 0166 39       		.uleb128 0x39
 3273 0167 0B       		.uleb128 0xb
 3274 0168 49       		.uleb128 0x49
 3275 0169 13       		.uleb128 0x13
 3276 016a 00       		.byte	0
 3277 016b 00       		.byte	0
 3278 016c 1B       		.uleb128 0x1b
 3279 016d 26       		.uleb128 0x26
 3280 016e 00       		.byte	0
 3281 016f 49       		.uleb128 0x49
 3282 0170 13       		.uleb128 0x13
 3283 0171 00       		.byte	0
 3284 0172 00       		.byte	0
 3285 0173 1C       		.uleb128 0x1c
 3286 0174 34       		.uleb128 0x34
 3287 0175 00       		.byte	0
 3288 0176 03       		.uleb128 0x3
 3289 0177 08       		.uleb128 0x8
 3290 0178 3A       		.uleb128 0x3a
 3291 0179 0B       		.uleb128 0xb
 3292 017a 3B       		.uleb128 0x3b
 3293 017b 05       		.uleb128 0x5
 3294 017c 39       		.uleb128 0x39
 3295 017d 0B       		.uleb128 0xb
 3296 017e 49       		.uleb128 0x49
 3297 017f 13       		.uleb128 0x13
 3298 0180 3F       		.uleb128 0x3f
 3299 0181 19       		.uleb128 0x19
ARM GAS  /tmp/ccyjThYZ.s 			page 59


 3300 0182 3C       		.uleb128 0x3c
 3301 0183 19       		.uleb128 0x19
 3302 0184 00       		.byte	0
 3303 0185 00       		.byte	0
 3304 0186 1D       		.uleb128 0x1d
 3305 0187 2E       		.uleb128 0x2e
 3306 0188 01       		.byte	0x1
 3307 0189 3F       		.uleb128 0x3f
 3308 018a 19       		.uleb128 0x19
 3309 018b 03       		.uleb128 0x3
 3310 018c 0E       		.uleb128 0xe
 3311 018d 3A       		.uleb128 0x3a
 3312 018e 0B       		.uleb128 0xb
 3313 018f 3B       		.uleb128 0x3b
 3314 0190 0B       		.uleb128 0xb
 3315 0191 39       		.uleb128 0x39
 3316 0192 0B       		.uleb128 0xb
 3317 0193 27       		.uleb128 0x27
 3318 0194 19       		.uleb128 0x19
 3319 0195 11       		.uleb128 0x11
 3320 0196 01       		.uleb128 0x1
 3321 0197 12       		.uleb128 0x12
 3322 0198 06       		.uleb128 0x6
 3323 0199 40       		.uleb128 0x40
 3324 019a 18       		.uleb128 0x18
 3325 019b 9742     		.uleb128 0x2117
 3326 019d 19       		.uleb128 0x19
 3327 019e 01       		.uleb128 0x1
 3328 019f 13       		.uleb128 0x13
 3329 01a0 00       		.byte	0
 3330 01a1 00       		.byte	0
 3331 01a2 1E       		.uleb128 0x1e
 3332 01a3 05       		.uleb128 0x5
 3333 01a4 00       		.byte	0
 3334 01a5 03       		.uleb128 0x3
 3335 01a6 08       		.uleb128 0x8
 3336 01a7 3A       		.uleb128 0x3a
 3337 01a8 0B       		.uleb128 0xb
 3338 01a9 3B       		.uleb128 0x3b
 3339 01aa 0B       		.uleb128 0xb
 3340 01ab 39       		.uleb128 0x39
 3341 01ac 0B       		.uleb128 0xb
 3342 01ad 49       		.uleb128 0x49
 3343 01ae 13       		.uleb128 0x13
 3344 01af 02       		.uleb128 0x2
 3345 01b0 17       		.uleb128 0x17
 3346 01b1 B742     		.uleb128 0x2137
 3347 01b3 17       		.uleb128 0x17
 3348 01b4 00       		.byte	0
 3349 01b5 00       		.byte	0
 3350 01b6 1F       		.uleb128 0x1f
 3351 01b7 34       		.uleb128 0x34
 3352 01b8 00       		.byte	0
 3353 01b9 03       		.uleb128 0x3
 3354 01ba 0E       		.uleb128 0xe
 3355 01bb 49       		.uleb128 0x49
 3356 01bc 13       		.uleb128 0x13
ARM GAS  /tmp/ccyjThYZ.s 			page 60


 3357 01bd 34       		.uleb128 0x34
 3358 01be 19       		.uleb128 0x19
 3359 01bf 02       		.uleb128 0x2
 3360 01c0 18       		.uleb128 0x18
 3361 01c1 00       		.byte	0
 3362 01c2 00       		.byte	0
 3363 01c3 20       		.uleb128 0x20
 3364 01c4 1D       		.uleb128 0x1d
 3365 01c5 01       		.byte	0x1
 3366 01c6 31       		.uleb128 0x31
 3367 01c7 13       		.uleb128 0x13
 3368 01c8 52       		.uleb128 0x52
 3369 01c9 01       		.uleb128 0x1
 3370 01ca B842     		.uleb128 0x2138
 3371 01cc 0B       		.uleb128 0xb
 3372 01cd 55       		.uleb128 0x55
 3373 01ce 17       		.uleb128 0x17
 3374 01cf 58       		.uleb128 0x58
 3375 01d0 0B       		.uleb128 0xb
 3376 01d1 59       		.uleb128 0x59
 3377 01d2 0B       		.uleb128 0xb
 3378 01d3 57       		.uleb128 0x57
 3379 01d4 0B       		.uleb128 0xb
 3380 01d5 01       		.uleb128 0x1
 3381 01d6 13       		.uleb128 0x13
 3382 01d7 00       		.byte	0
 3383 01d8 00       		.byte	0
 3384 01d9 21       		.uleb128 0x21
 3385 01da 1D       		.uleb128 0x1d
 3386 01db 01       		.byte	0x1
 3387 01dc 31       		.uleb128 0x31
 3388 01dd 13       		.uleb128 0x13
 3389 01de 52       		.uleb128 0x52
 3390 01df 01       		.uleb128 0x1
 3391 01e0 B842     		.uleb128 0x2138
 3392 01e2 0B       		.uleb128 0xb
 3393 01e3 55       		.uleb128 0x55
 3394 01e4 17       		.uleb128 0x17
 3395 01e5 58       		.uleb128 0x58
 3396 01e6 0B       		.uleb128 0xb
 3397 01e7 59       		.uleb128 0x59
 3398 01e8 05       		.uleb128 0x5
 3399 01e9 57       		.uleb128 0x57
 3400 01ea 0B       		.uleb128 0xb
 3401 01eb 01       		.uleb128 0x1
 3402 01ec 13       		.uleb128 0x13
 3403 01ed 00       		.byte	0
 3404 01ee 00       		.byte	0
 3405 01ef 22       		.uleb128 0x22
 3406 01f0 1D       		.uleb128 0x1d
 3407 01f1 01       		.byte	0x1
 3408 01f2 31       		.uleb128 0x31
 3409 01f3 13       		.uleb128 0x13
 3410 01f4 52       		.uleb128 0x52
 3411 01f5 01       		.uleb128 0x1
 3412 01f6 B842     		.uleb128 0x2138
 3413 01f8 0B       		.uleb128 0xb
ARM GAS  /tmp/ccyjThYZ.s 			page 61


 3414 01f9 55       		.uleb128 0x55
 3415 01fa 17       		.uleb128 0x17
 3416 01fb 58       		.uleb128 0x58
 3417 01fc 0B       		.uleb128 0xb
 3418 01fd 59       		.uleb128 0x59
 3419 01fe 05       		.uleb128 0x5
 3420 01ff 57       		.uleb128 0x57
 3421 0200 0B       		.uleb128 0xb
 3422 0201 00       		.byte	0
 3423 0202 00       		.byte	0
 3424 0203 23       		.uleb128 0x23
 3425 0204 05       		.uleb128 0x5
 3426 0205 00       		.byte	0
 3427 0206 31       		.uleb128 0x31
 3428 0207 13       		.uleb128 0x13
 3429 0208 02       		.uleb128 0x2
 3430 0209 17       		.uleb128 0x17
 3431 020a B742     		.uleb128 0x2137
 3432 020c 17       		.uleb128 0x17
 3433 020d 00       		.byte	0
 3434 020e 00       		.byte	0
 3435 020f 24       		.uleb128 0x24
 3436 0210 898201   		.uleb128 0x4109
 3437 0213 00       		.byte	0
 3438 0214 11       		.uleb128 0x11
 3439 0215 01       		.uleb128 0x1
 3440 0216 31       		.uleb128 0x31
 3441 0217 13       		.uleb128 0x13
 3442 0218 00       		.byte	0
 3443 0219 00       		.byte	0
 3444 021a 25       		.uleb128 0x25
 3445 021b 1D       		.uleb128 0x1d
 3446 021c 01       		.byte	0x1
 3447 021d 31       		.uleb128 0x31
 3448 021e 13       		.uleb128 0x13
 3449 021f 52       		.uleb128 0x52
 3450 0220 01       		.uleb128 0x1
 3451 0221 B842     		.uleb128 0x2138
 3452 0223 0B       		.uleb128 0xb
 3453 0224 11       		.uleb128 0x11
 3454 0225 01       		.uleb128 0x1
 3455 0226 12       		.uleb128 0x12
 3456 0227 06       		.uleb128 0x6
 3457 0228 58       		.uleb128 0x58
 3458 0229 0B       		.uleb128 0xb
 3459 022a 59       		.uleb128 0x59
 3460 022b 0B       		.uleb128 0xb
 3461 022c 57       		.uleb128 0x57
 3462 022d 0B       		.uleb128 0xb
 3463 022e 01       		.uleb128 0x1
 3464 022f 13       		.uleb128 0x13
 3465 0230 00       		.byte	0
 3466 0231 00       		.byte	0
 3467 0232 26       		.uleb128 0x26
 3468 0233 898201   		.uleb128 0x4109
 3469 0236 01       		.byte	0x1
 3470 0237 11       		.uleb128 0x11
ARM GAS  /tmp/ccyjThYZ.s 			page 62


 3471 0238 01       		.uleb128 0x1
 3472 0239 31       		.uleb128 0x31
 3473 023a 13       		.uleb128 0x13
 3474 023b 00       		.byte	0
 3475 023c 00       		.byte	0
 3476 023d 27       		.uleb128 0x27
 3477 023e 8A8201   		.uleb128 0x410a
 3478 0241 00       		.byte	0
 3479 0242 02       		.uleb128 0x2
 3480 0243 18       		.uleb128 0x18
 3481 0244 9142     		.uleb128 0x2111
 3482 0246 18       		.uleb128 0x18
 3483 0247 00       		.byte	0
 3484 0248 00       		.byte	0
 3485 0249 28       		.uleb128 0x28
 3486 024a 0B       		.uleb128 0xb
 3487 024b 01       		.byte	0x1
 3488 024c 55       		.uleb128 0x55
 3489 024d 17       		.uleb128 0x17
 3490 024e 00       		.byte	0
 3491 024f 00       		.byte	0
 3492 0250 29       		.uleb128 0x29
 3493 0251 1D       		.uleb128 0x1d
 3494 0252 01       		.byte	0x1
 3495 0253 31       		.uleb128 0x31
 3496 0254 13       		.uleb128 0x13
 3497 0255 52       		.uleb128 0x52
 3498 0256 01       		.uleb128 0x1
 3499 0257 B842     		.uleb128 0x2138
 3500 0259 0B       		.uleb128 0xb
 3501 025a 11       		.uleb128 0x11
 3502 025b 01       		.uleb128 0x1
 3503 025c 12       		.uleb128 0x12
 3504 025d 06       		.uleb128 0x6
 3505 025e 58       		.uleb128 0x58
 3506 025f 0B       		.uleb128 0xb
 3507 0260 59       		.uleb128 0x59
 3508 0261 05       		.uleb128 0x5
 3509 0262 57       		.uleb128 0x57
 3510 0263 0B       		.uleb128 0xb
 3511 0264 00       		.byte	0
 3512 0265 00       		.byte	0
 3513 0266 2A       		.uleb128 0x2a
 3514 0267 898201   		.uleb128 0x4109
 3515 026a 01       		.byte	0x1
 3516 026b 11       		.uleb128 0x11
 3517 026c 01       		.uleb128 0x1
 3518 026d 31       		.uleb128 0x31
 3519 026e 13       		.uleb128 0x13
 3520 026f 01       		.uleb128 0x1
 3521 0270 13       		.uleb128 0x13
 3522 0271 00       		.byte	0
 3523 0272 00       		.byte	0
 3524 0273 2B       		.uleb128 0x2b
 3525 0274 2E       		.uleb128 0x2e
 3526 0275 01       		.byte	0x1
 3527 0276 3F       		.uleb128 0x3f
ARM GAS  /tmp/ccyjThYZ.s 			page 63


 3528 0277 19       		.uleb128 0x19
 3529 0278 03       		.uleb128 0x3
 3530 0279 0E       		.uleb128 0xe
 3531 027a 3A       		.uleb128 0x3a
 3532 027b 0B       		.uleb128 0xb
 3533 027c 3B       		.uleb128 0x3b
 3534 027d 0B       		.uleb128 0xb
 3535 027e 39       		.uleb128 0x39
 3536 027f 0B       		.uleb128 0xb
 3537 0280 27       		.uleb128 0x27
 3538 0281 19       		.uleb128 0x19
 3539 0282 49       		.uleb128 0x49
 3540 0283 13       		.uleb128 0x13
 3541 0284 11       		.uleb128 0x11
 3542 0285 01       		.uleb128 0x1
 3543 0286 12       		.uleb128 0x12
 3544 0287 06       		.uleb128 0x6
 3545 0288 40       		.uleb128 0x40
 3546 0289 18       		.uleb128 0x18
 3547 028a 9742     		.uleb128 0x2117
 3548 028c 19       		.uleb128 0x19
 3549 028d 01       		.uleb128 0x1
 3550 028e 13       		.uleb128 0x13
 3551 028f 00       		.byte	0
 3552 0290 00       		.byte	0
 3553 0291 2C       		.uleb128 0x2c
 3554 0292 34       		.uleb128 0x34
 3555 0293 00       		.byte	0
 3556 0294 03       		.uleb128 0x3
 3557 0295 08       		.uleb128 0x8
 3558 0296 3A       		.uleb128 0x3a
 3559 0297 0B       		.uleb128 0xb
 3560 0298 3B       		.uleb128 0x3b
 3561 0299 0B       		.uleb128 0xb
 3562 029a 39       		.uleb128 0x39
 3563 029b 0B       		.uleb128 0xb
 3564 029c 49       		.uleb128 0x49
 3565 029d 13       		.uleb128 0x13
 3566 029e 02       		.uleb128 0x2
 3567 029f 17       		.uleb128 0x17
 3568 02a0 B742     		.uleb128 0x2137
 3569 02a2 17       		.uleb128 0x17
 3570 02a3 00       		.byte	0
 3571 02a4 00       		.byte	0
 3572 02a5 2D       		.uleb128 0x2d
 3573 02a6 34       		.uleb128 0x34
 3574 02a7 00       		.byte	0
 3575 02a8 31       		.uleb128 0x31
 3576 02a9 13       		.uleb128 0x13
 3577 02aa 02       		.uleb128 0x2
 3578 02ab 17       		.uleb128 0x17
 3579 02ac B742     		.uleb128 0x2137
 3580 02ae 17       		.uleb128 0x17
 3581 02af 00       		.byte	0
 3582 02b0 00       		.byte	0
 3583 02b1 2E       		.uleb128 0x2e
 3584 02b2 2E       		.uleb128 0x2e
ARM GAS  /tmp/ccyjThYZ.s 			page 64


 3585 02b3 01       		.byte	0x1
 3586 02b4 03       		.uleb128 0x3
 3587 02b5 0E       		.uleb128 0xe
 3588 02b6 3A       		.uleb128 0x3a
 3589 02b7 0B       		.uleb128 0xb
 3590 02b8 3B       		.uleb128 0x3b
 3591 02b9 0B       		.uleb128 0xb
 3592 02ba 39       		.uleb128 0x39
 3593 02bb 0B       		.uleb128 0xb
 3594 02bc 27       		.uleb128 0x27
 3595 02bd 19       		.uleb128 0x19
 3596 02be 20       		.uleb128 0x20
 3597 02bf 0B       		.uleb128 0xb
 3598 02c0 01       		.uleb128 0x1
 3599 02c1 13       		.uleb128 0x13
 3600 02c2 00       		.byte	0
 3601 02c3 00       		.byte	0
 3602 02c4 2F       		.uleb128 0x2f
 3603 02c5 05       		.uleb128 0x5
 3604 02c6 00       		.byte	0
 3605 02c7 03       		.uleb128 0x3
 3606 02c8 08       		.uleb128 0x8
 3607 02c9 3A       		.uleb128 0x3a
 3608 02ca 0B       		.uleb128 0xb
 3609 02cb 3B       		.uleb128 0x3b
 3610 02cc 0B       		.uleb128 0xb
 3611 02cd 39       		.uleb128 0x39
 3612 02ce 0B       		.uleb128 0xb
 3613 02cf 49       		.uleb128 0x49
 3614 02d0 13       		.uleb128 0x13
 3615 02d1 00       		.byte	0
 3616 02d2 00       		.byte	0
 3617 02d3 30       		.uleb128 0x30
 3618 02d4 2E       		.uleb128 0x2e
 3619 02d5 01       		.byte	0x1
 3620 02d6 03       		.uleb128 0x3
 3621 02d7 0E       		.uleb128 0xe
 3622 02d8 3A       		.uleb128 0x3a
 3623 02d9 0B       		.uleb128 0xb
 3624 02da 3B       		.uleb128 0x3b
 3625 02db 0B       		.uleb128 0xb
 3626 02dc 39       		.uleb128 0x39
 3627 02dd 0B       		.uleb128 0xb
 3628 02de 27       		.uleb128 0x27
 3629 02df 19       		.uleb128 0x19
 3630 02e0 49       		.uleb128 0x49
 3631 02e1 13       		.uleb128 0x13
 3632 02e2 20       		.uleb128 0x20
 3633 02e3 0B       		.uleb128 0xb
 3634 02e4 01       		.uleb128 0x1
 3635 02e5 13       		.uleb128 0x13
 3636 02e6 00       		.byte	0
 3637 02e7 00       		.byte	0
 3638 02e8 31       		.uleb128 0x31
 3639 02e9 2E       		.uleb128 0x2e
 3640 02ea 01       		.byte	0x1
 3641 02eb 03       		.uleb128 0x3
ARM GAS  /tmp/ccyjThYZ.s 			page 65


 3642 02ec 0E       		.uleb128 0xe
 3643 02ed 3A       		.uleb128 0x3a
 3644 02ee 0B       		.uleb128 0xb
 3645 02ef 3B       		.uleb128 0x3b
 3646 02f0 05       		.uleb128 0x5
 3647 02f1 39       		.uleb128 0x39
 3648 02f2 0B       		.uleb128 0xb
 3649 02f3 27       		.uleb128 0x27
 3650 02f4 19       		.uleb128 0x19
 3651 02f5 20       		.uleb128 0x20
 3652 02f6 0B       		.uleb128 0xb
 3653 02f7 01       		.uleb128 0x1
 3654 02f8 13       		.uleb128 0x13
 3655 02f9 00       		.byte	0
 3656 02fa 00       		.byte	0
 3657 02fb 32       		.uleb128 0x32
 3658 02fc 2E       		.uleb128 0x2e
 3659 02fd 00       		.byte	0
 3660 02fe 03       		.uleb128 0x3
 3661 02ff 0E       		.uleb128 0xe
 3662 0300 3A       		.uleb128 0x3a
 3663 0301 0B       		.uleb128 0xb
 3664 0302 3B       		.uleb128 0x3b
 3665 0303 05       		.uleb128 0x5
 3666 0304 39       		.uleb128 0x39
 3667 0305 0B       		.uleb128 0xb
 3668 0306 27       		.uleb128 0x27
 3669 0307 19       		.uleb128 0x19
 3670 0308 20       		.uleb128 0x20
 3671 0309 0B       		.uleb128 0xb
 3672 030a 00       		.byte	0
 3673 030b 00       		.byte	0
 3674 030c 33       		.uleb128 0x33
 3675 030d 2E       		.uleb128 0x2e
 3676 030e 01       		.byte	0x1
 3677 030f 03       		.uleb128 0x3
 3678 0310 0E       		.uleb128 0xe
 3679 0311 3A       		.uleb128 0x3a
 3680 0312 0B       		.uleb128 0xb
 3681 0313 3B       		.uleb128 0x3b
 3682 0314 05       		.uleb128 0x5
 3683 0315 39       		.uleb128 0x39
 3684 0316 0B       		.uleb128 0xb
 3685 0317 27       		.uleb128 0x27
 3686 0318 19       		.uleb128 0x19
 3687 0319 49       		.uleb128 0x49
 3688 031a 13       		.uleb128 0x13
 3689 031b 20       		.uleb128 0x20
 3690 031c 0B       		.uleb128 0xb
 3691 031d 01       		.uleb128 0x1
 3692 031e 13       		.uleb128 0x13
 3693 031f 00       		.byte	0
 3694 0320 00       		.byte	0
 3695 0321 34       		.uleb128 0x34
 3696 0322 05       		.uleb128 0x5
 3697 0323 00       		.byte	0
 3698 0324 03       		.uleb128 0x3
ARM GAS  /tmp/ccyjThYZ.s 			page 66


 3699 0325 08       		.uleb128 0x8
 3700 0326 3A       		.uleb128 0x3a
 3701 0327 0B       		.uleb128 0xb
 3702 0328 3B       		.uleb128 0x3b
 3703 0329 05       		.uleb128 0x5
 3704 032a 39       		.uleb128 0x39
 3705 032b 0B       		.uleb128 0xb
 3706 032c 49       		.uleb128 0x49
 3707 032d 13       		.uleb128 0x13
 3708 032e 00       		.byte	0
 3709 032f 00       		.byte	0
 3710 0330 35       		.uleb128 0x35
 3711 0331 34       		.uleb128 0x34
 3712 0332 00       		.byte	0
 3713 0333 03       		.uleb128 0x3
 3714 0334 08       		.uleb128 0x8
 3715 0335 3A       		.uleb128 0x3a
 3716 0336 0B       		.uleb128 0xb
 3717 0337 3B       		.uleb128 0x3b
 3718 0338 05       		.uleb128 0x5
 3719 0339 39       		.uleb128 0x39
 3720 033a 0B       		.uleb128 0xb
 3721 033b 49       		.uleb128 0x49
 3722 033c 13       		.uleb128 0x13
 3723 033d 00       		.byte	0
 3724 033e 00       		.byte	0
 3725 033f 36       		.uleb128 0x36
 3726 0340 05       		.uleb128 0x5
 3727 0341 00       		.byte	0
 3728 0342 03       		.uleb128 0x3
 3729 0343 0E       		.uleb128 0xe
 3730 0344 3A       		.uleb128 0x3a
 3731 0345 0B       		.uleb128 0xb
 3732 0346 3B       		.uleb128 0x3b
 3733 0347 05       		.uleb128 0x5
 3734 0348 39       		.uleb128 0x39
 3735 0349 0B       		.uleb128 0xb
 3736 034a 49       		.uleb128 0x49
 3737 034b 13       		.uleb128 0x13
 3738 034c 00       		.byte	0
 3739 034d 00       		.byte	0
 3740 034e 37       		.uleb128 0x37
 3741 034f 2E       		.uleb128 0x2e
 3742 0350 00       		.byte	0
 3743 0351 3F       		.uleb128 0x3f
 3744 0352 19       		.uleb128 0x19
 3745 0353 3C       		.uleb128 0x3c
 3746 0354 19       		.uleb128 0x19
 3747 0355 6E       		.uleb128 0x6e
 3748 0356 0E       		.uleb128 0xe
 3749 0357 03       		.uleb128 0x3
 3750 0358 0E       		.uleb128 0xe
 3751 0359 3A       		.uleb128 0x3a
 3752 035a 0B       		.uleb128 0xb
 3753 035b 3B       		.uleb128 0x3b
 3754 035c 0B       		.uleb128 0xb
 3755 035d 39       		.uleb128 0x39
ARM GAS  /tmp/ccyjThYZ.s 			page 67


 3756 035e 0B       		.uleb128 0xb
 3757 035f 00       		.byte	0
 3758 0360 00       		.byte	0
 3759 0361 38       		.uleb128 0x38
 3760 0362 2E       		.uleb128 0x2e
 3761 0363 00       		.byte	0
 3762 0364 3F       		.uleb128 0x3f
 3763 0365 19       		.uleb128 0x19
 3764 0366 3C       		.uleb128 0x3c
 3765 0367 19       		.uleb128 0x19
 3766 0368 6E       		.uleb128 0x6e
 3767 0369 0E       		.uleb128 0xe
 3768 036a 03       		.uleb128 0x3
 3769 036b 0E       		.uleb128 0xe
 3770 036c 3A       		.uleb128 0x3a
 3771 036d 0B       		.uleb128 0xb
 3772 036e 3B       		.uleb128 0x3b
 3773 036f 05       		.uleb128 0x5
 3774 0370 39       		.uleb128 0x39
 3775 0371 0B       		.uleb128 0xb
 3776 0372 00       		.byte	0
 3777 0373 00       		.byte	0
 3778 0374 39       		.uleb128 0x39
 3779 0375 2E       		.uleb128 0x2e
 3780 0376 00       		.byte	0
 3781 0377 3F       		.uleb128 0x3f
 3782 0378 19       		.uleb128 0x19
 3783 0379 3C       		.uleb128 0x3c
 3784 037a 19       		.uleb128 0x19
 3785 037b 6E       		.uleb128 0x6e
 3786 037c 0E       		.uleb128 0xe
 3787 037d 03       		.uleb128 0x3
 3788 037e 0E       		.uleb128 0xe
 3789 037f 00       		.byte	0
 3790 0380 00       		.byte	0
 3791 0381 00       		.byte	0
 3792              		.section	.debug_loc,"",%progbits
 3793              	.Ldebug_loc0:
 3794              	.LVUS13:
 3795 0000 00       		.uleb128 0
 3796 0001 00       		.uleb128 .LVU143
 3797 0002 00       		.uleb128 .LVU143
 3798 0003 00       		.uleb128 0
 3799              	.LLST13:
 3800 0004 00000000 		.4byte	.LVL45
 3801 0008 1B000000 		.4byte	.LVL48-1
 3802 000c 0100     		.2byte	0x1
 3803 000e 50       		.byte	0x50
 3804 000f 1B000000 		.4byte	.LVL48-1
 3805 0013 84000000 		.4byte	.LFE221
 3806 0017 0100     		.2byte	0x1
 3807 0019 54       		.byte	0x54
 3808 001a 00000000 		.4byte	0
 3809 001e 00000000 		.4byte	0
 3810              	.LVUS14:
 3811 0022 00       		.uleb128 0
 3812 0023 00       		.uleb128 .LVU143
ARM GAS  /tmp/ccyjThYZ.s 			page 68


 3813 0024 00       		.uleb128 .LVU143
 3814 0025 00       		.uleb128 0
 3815              	.LLST14:
 3816 0026 00000000 		.4byte	.LVL45
 3817 002a 1B000000 		.4byte	.LVL48-1
 3818 002e 0100     		.2byte	0x1
 3819 0030 51       		.byte	0x51
 3820 0031 1B000000 		.4byte	.LVL48-1
 3821 0035 84000000 		.4byte	.LFE221
 3822 0039 0100     		.2byte	0x1
 3823 003b 55       		.byte	0x55
 3824 003c 00000000 		.4byte	0
 3825 0040 00000000 		.4byte	0
 3826              	.LVUS15:
 3827 0044 05       		.uleb128 .LVU137
 3828 0045 00       		.uleb128 .LVU141
 3829              	.LLST15:
 3830 0046 0E000000 		.4byte	.LVL46
 3831 004a 18000000 		.4byte	.LVL47
 3832 004e 0300     		.2byte	0x3
 3833 0050 08       		.byte	0x8
 3834 0051 20       		.byte	0x20
 3835 0052 9F       		.byte	0x9f
 3836 0053 00000000 		.4byte	0
 3837 0057 00000000 		.4byte	0
 3838              	.LVUS16:
 3839 005b 02       		.uleb128 .LVU150
 3840 005c 00       		.uleb128 .LVU153
 3841              	.LLST16:
 3842 005d 2E000000 		.4byte	.LVL50
 3843 0061 3A000000 		.4byte	.LVL52
 3844 0065 0100     		.2byte	0x1
 3845 0067 55       		.byte	0x55
 3846 0068 00000000 		.4byte	0
 3847 006c 00000000 		.4byte	0
 3848              	.LVUS17:
 3849 0070 02       		.uleb128 .LVU150
 3850 0071 00       		.uleb128 .LVU153
 3851              	.LLST17:
 3852 0072 2E000000 		.4byte	.LVL50
 3853 0076 3A000000 		.4byte	.LVL52
 3854 007a 0100     		.2byte	0x1
 3855 007c 54       		.byte	0x54
 3856 007d 00000000 		.4byte	0
 3857 0081 00000000 		.4byte	0
 3858              	.LVUS18:
 3859 0085 04       		.uleb128 .LVU166
 3860 0086 00       		.uleb128 .LVU168
 3861              	.LLST18:
 3862 0087 54000000 		.4byte	.LVL55
 3863 008b 5A000000 		.4byte	.LVL56
 3864 008f 0200     		.2byte	0x2
 3865 0091 30       		.byte	0x30
 3866 0092 9F       		.byte	0x9f
 3867 0093 00000000 		.4byte	0
 3868 0097 00000000 		.4byte	0
 3869              	.LVUS7:
ARM GAS  /tmp/ccyjThYZ.s 			page 69


 3870 009b 01       		.uleb128 .LVU106
 3871 009c 00       		.uleb128 .LVU126
 3872 009d 00       		.uleb128 .LVU128
 3873 009e 00       		.uleb128 0
 3874              	.LLST7:
 3875 009f 3A000000 		.4byte	.LVL34
 3876 00a3 74000000 		.4byte	.LVL41
 3877 00a7 0100     		.2byte	0x1
 3878 00a9 55       		.byte	0x55
 3879 00aa 7C000000 		.4byte	.LVL43
 3880 00ae 8C000000 		.4byte	.LFE220
 3881 00b2 0100     		.2byte	0x1
 3882 00b4 55       		.byte	0x55
 3883 00b5 00000000 		.4byte	0
 3884 00b9 00000000 		.4byte	0
 3885              	.LVUS8:
 3886 00bd 06       		.uleb128 .LVU78
 3887 00be 00       		.uleb128 .LVU80
 3888              	.LLST8:
 3889 00bf 0E000000 		.4byte	.LVL25
 3890 00c3 14000000 		.4byte	.LVL26
 3891 00c7 0300     		.2byte	0x3
 3892 00c9 08       		.byte	0x8
 3893 00ca 20       		.byte	0x20
 3894 00cb 9F       		.byte	0x9f
 3895 00cc 00000000 		.4byte	0
 3896 00d0 00000000 		.4byte	0
 3897              	.LVUS9:
 3898 00d4 00       		.uleb128 .LVU87
 3899 00d5 01       		.uleb128 .LVU90
 3900              	.LLST9:
 3901 00d6 20000000 		.4byte	.LVL29
 3902 00da 24000000 		.4byte	.LVL30
 3903 00de 0100     		.2byte	0x1
 3904 00e0 55       		.byte	0x55
 3905 00e1 00000000 		.4byte	0
 3906 00e5 00000000 		.4byte	0
 3907              	.LVUS10:
 3908 00e9 00       		.uleb128 .LVU96
 3909 00ea 00       		.uleb128 .LVU102
 3910 00eb 00       		.uleb128 .LVU102
 3911 00ec 01       		.uleb128 .LVU106
 3912              	.LLST10:
 3913 00ed 2E000000 		.4byte	.LVL31
 3914 00f1 36000000 		.4byte	.LVL33
 3915 00f5 0300     		.2byte	0x3
 3916 00f7 73       		.byte	0x73
 3917 00f8 30       		.sleb128 48
 3918 00f9 9F       		.byte	0x9f
 3919 00fa 36000000 		.4byte	.LVL33
 3920 00fe 3A000000 		.4byte	.LVL34
 3921 0102 0100     		.2byte	0x1
 3922 0104 53       		.byte	0x53
 3923 0105 00000000 		.4byte	0
 3924 0109 00000000 		.4byte	0
 3925              	.LVUS11:
 3926 010d 00       		.uleb128 .LVU99
ARM GAS  /tmp/ccyjThYZ.s 			page 70


 3927 010e 01       		.uleb128 .LVU106
 3928              	.LLST11:
 3929 010f 30000000 		.4byte	.LVL32
 3930 0113 3A000000 		.4byte	.LVL34
 3931 0117 0100     		.2byte	0x1
 3932 0119 55       		.byte	0x55
 3933 011a 00000000 		.4byte	0
 3934 011e 00000000 		.4byte	0
 3935              	.LVUS12:
 3936 0122 04       		.uleb128 .LVU120
 3937 0123 00       		.uleb128 .LVU122
 3938              	.LLST12:
 3939 0124 56000000 		.4byte	.LVL37
 3940 0128 5C000000 		.4byte	.LVL38
 3941 012c 0200     		.2byte	0x2
 3942 012e 30       		.byte	0x30
 3943 012f 9F       		.byte	0x9f
 3944 0130 00000000 		.4byte	0
 3945 0134 00000000 		.4byte	0
 3946              	.LVUS0:
 3947 0138 00       		.uleb128 0
 3948 0139 00       		.uleb128 .LVU12
 3949 013a 00       		.uleb128 .LVU12
 3950 013b 00       		.uleb128 .LVU46
 3951 013c 00       		.uleb128 .LVU46
 3952 013d 00       		.uleb128 .LVU63
 3953 013e 00       		.uleb128 .LVU63
 3954 013f 00       		.uleb128 .LVU66
 3955 0140 00       		.uleb128 .LVU66
 3956 0141 00       		.uleb128 .LVU67
 3957 0142 00       		.uleb128 .LVU67
 3958 0143 00       		.uleb128 .LVU69
 3959 0144 00       		.uleb128 .LVU69
 3960 0145 00       		.uleb128 0
 3961              	.LLST0:
 3962 0146 00000000 		.4byte	.LVL0
 3963 014a 1A000000 		.4byte	.LVL2
 3964 014e 0100     		.2byte	0x1
 3965 0150 50       		.byte	0x50
 3966 0151 1A000000 		.4byte	.LVL2
 3967 0155 4A000000 		.4byte	.LVL11
 3968 0159 0100     		.2byte	0x1
 3969 015b 54       		.byte	0x54
 3970 015c 4A000000 		.4byte	.LVL11
 3971 0160 80000000 		.4byte	.LVL18
 3972 0164 0400     		.2byte	0x4
 3973 0166 F3       		.byte	0xf3
 3974 0167 01       		.uleb128 0x1
 3975 0168 50       		.byte	0x50
 3976 0169 9F       		.byte	0x9f
 3977 016a 80000000 		.4byte	.LVL18
 3978 016e 88000000 		.4byte	.LVL20
 3979 0172 0100     		.2byte	0x1
 3980 0174 54       		.byte	0x54
 3981 0175 88000000 		.4byte	.LVL20
 3982 0179 8A000000 		.4byte	.LVL21
 3983 017d 0100     		.2byte	0x1
ARM GAS  /tmp/ccyjThYZ.s 			page 71


 3984 017f 50       		.byte	0x50
 3985 0180 8A000000 		.4byte	.LVL21
 3986 0184 90000000 		.4byte	.LVL23
 3987 0188 0100     		.2byte	0x1
 3988 018a 54       		.byte	0x54
 3989 018b 90000000 		.4byte	.LVL23
 3990 018f A4000000 		.4byte	.LFE219
 3991 0193 0400     		.2byte	0x4
 3992 0195 F3       		.byte	0xf3
 3993 0196 01       		.uleb128 0x1
 3994 0197 50       		.byte	0x50
 3995 0198 9F       		.byte	0x9f
 3996 0199 00000000 		.4byte	0
 3997 019d 00000000 		.4byte	0
 3998              	.LVUS1:
 3999 01a1 00       		.uleb128 0
 4000 01a2 00       		.uleb128 .LVU12
 4001 01a3 00       		.uleb128 .LVU12
 4002 01a4 00       		.uleb128 .LVU46
 4003 01a5 00       		.uleb128 .LVU46
 4004 01a6 00       		.uleb128 .LVU63
 4005 01a7 00       		.uleb128 .LVU63
 4006 01a8 00       		.uleb128 .LVU66
 4007 01a9 00       		.uleb128 .LVU66
 4008 01aa 00       		.uleb128 .LVU68
 4009 01ab 00       		.uleb128 .LVU68
 4010 01ac 00       		.uleb128 .LVU69
 4011 01ad 00       		.uleb128 .LVU69
 4012 01ae 00       		.uleb128 0
 4013              	.LLST1:
 4014 01af 00000000 		.4byte	.LVL0
 4015 01b3 1A000000 		.4byte	.LVL2
 4016 01b7 0100     		.2byte	0x1
 4017 01b9 51       		.byte	0x51
 4018 01ba 1A000000 		.4byte	.LVL2
 4019 01be 4A000000 		.4byte	.LVL11
 4020 01c2 0100     		.2byte	0x1
 4021 01c4 57       		.byte	0x57
 4022 01c5 4A000000 		.4byte	.LVL11
 4023 01c9 80000000 		.4byte	.LVL18
 4024 01cd 0100     		.2byte	0x1
 4025 01cf 54       		.byte	0x54
 4026 01d0 80000000 		.4byte	.LVL18
 4027 01d4 88000000 		.4byte	.LVL20
 4028 01d8 0100     		.2byte	0x1
 4029 01da 57       		.byte	0x57
 4030 01db 88000000 		.4byte	.LVL20
 4031 01df 8D000000 		.4byte	.LVL22-1
 4032 01e3 0100     		.2byte	0x1
 4033 01e5 51       		.byte	0x51
 4034 01e6 8D000000 		.4byte	.LVL22-1
 4035 01ea 90000000 		.4byte	.LVL23
 4036 01ee 0100     		.2byte	0x1
 4037 01f0 57       		.byte	0x57
 4038 01f1 90000000 		.4byte	.LVL23
 4039 01f5 A4000000 		.4byte	.LFE219
 4040 01f9 0100     		.2byte	0x1
ARM GAS  /tmp/ccyjThYZ.s 			page 72


 4041 01fb 54       		.byte	0x54
 4042 01fc 00000000 		.4byte	0
 4043 0200 00000000 		.4byte	0
 4044              	.LVUS2:
 4045 0204 01       		.uleb128 .LVU7
 4046 0205 00       		.uleb128 0
 4047              	.LLST2:
 4048 0206 12000000 		.4byte	.LVL1
 4049 020a A4000000 		.4byte	.LFE219
 4050 020e 0100     		.2byte	0x1
 4051 0210 55       		.byte	0x55
 4052 0211 00000000 		.4byte	0
 4053 0215 00000000 		.4byte	0
 4054              	.LVUS3:
 4055 0219 06       		.uleb128 .LVU18
 4056 021a 00       		.uleb128 .LVU20
 4057              	.LLST3:
 4058 021b 1A000000 		.4byte	.LVL2
 4059 021f 20000000 		.4byte	.LVL3
 4060 0223 0300     		.2byte	0x3
 4061 0225 08       		.byte	0x8
 4062 0226 20       		.byte	0x20
 4063 0227 9F       		.byte	0x9f
 4064 0228 00000000 		.4byte	0
 4065 022c 00000000 		.4byte	0
 4066              	.LVUS4:
 4067 0230 01       		.uleb128 .LVU29
 4068 0231 00       		.uleb128 .LVU34
 4069 0232 00       		.uleb128 .LVU34
 4070 0233 00       		.uleb128 .LVU37
 4071 0234 00       		.uleb128 .LVU37
 4072 0235 00       		.uleb128 .LVU40
 4073              	.LLST4:
 4074 0236 30000000 		.4byte	.LVL6
 4075 023a 34000000 		.4byte	.LVL7
 4076 023e 0100     		.2byte	0x1
 4077 0240 53       		.byte	0x53
 4078 0241 34000000 		.4byte	.LVL7
 4079 0245 38000000 		.4byte	.LVL8
 4080 0249 0200     		.2byte	0x2
 4081 024b 75       		.byte	0x75
 4082 024c 00       		.sleb128 0
 4083 024d 38000000 		.4byte	.LVL8
 4084 0251 3E000000 		.4byte	.LVL9
 4085 0255 0300     		.2byte	0x3
 4086 0257 74       		.byte	0x74
 4087 0258 30       		.sleb128 48
 4088 0259 9F       		.byte	0x9f
 4089 025a 00000000 		.4byte	0
 4090 025e 00000000 		.4byte	0
 4091              	.LVUS5:
 4092 0262 01       		.uleb128 .LVU29
 4093 0263 00       		.uleb128 .LVU40
 4094              	.LLST5:
 4095 0264 30000000 		.4byte	.LVL6
 4096 0268 3E000000 		.4byte	.LVL9
 4097 026c 0100     		.2byte	0x1
ARM GAS  /tmp/ccyjThYZ.s 			page 73


 4098 026e 55       		.byte	0x55
 4099 026f 00000000 		.4byte	0
 4100 0273 00000000 		.4byte	0
 4101              	.LVUS6:
 4102 0277 04       		.uleb128 .LVU57
 4103 0278 00       		.uleb128 .LVU59
 4104              	.LLST6:
 4105 0279 62000000 		.4byte	.LVL14
 4106 027d 68000000 		.4byte	.LVL15
 4107 0281 0200     		.2byte	0x2
 4108 0283 30       		.byte	0x30
 4109 0284 9F       		.byte	0x9f
 4110 0285 00000000 		.4byte	0
 4111 0289 00000000 		.4byte	0
 4112              		.section	.debug_aranges,"",%progbits
 4113 0000 2C000000 		.4byte	0x2c
 4114 0004 0200     		.2byte	0x2
 4115 0006 00000000 		.4byte	.Ldebug_info0
 4116 000a 04       		.byte	0x4
 4117 000b 00       		.byte	0
 4118 000c 0000     		.2byte	0
 4119 000e 0000     		.2byte	0
 4120 0010 00000000 		.4byte	.LFB219
 4121 0014 A4000000 		.4byte	.LFE219-.LFB219
 4122 0018 00000000 		.4byte	.LFB220
 4123 001c 8C000000 		.4byte	.LFE220-.LFB220
 4124 0020 00000000 		.4byte	.LFB221
 4125 0024 84000000 		.4byte	.LFE221-.LFB221
 4126 0028 00000000 		.4byte	0
 4127 002c 00000000 		.4byte	0
 4128              		.section	.debug_ranges,"",%progbits
 4129              	.Ldebug_ranges0:
 4130 0000 1A000000 		.4byte	.LBB49
 4131 0004 1A000000 		.4byte	.LBE49
 4132 0008 1A000000 		.4byte	.LBB56
 4133 000c 28000000 		.4byte	.LBE56
 4134 0010 00000000 		.4byte	0
 4135 0014 00000000 		.4byte	0
 4136 0018 1A000000 		.4byte	.LBB51
 4137 001c 1A000000 		.4byte	.LBE51
 4138 0020 1A000000 		.4byte	.LBB54
 4139 0024 20000000 		.4byte	.LBE54
 4140 0028 00000000 		.4byte	0
 4141 002c 00000000 		.4byte	0
 4142 0030 30000000 		.4byte	.LBB57
 4143 0034 38000000 		.4byte	.LBE57
 4144 0038 3C000000 		.4byte	.LBB60
 4145 003c 3E000000 		.4byte	.LBE60
 4146 0040 00000000 		.4byte	0
 4147 0044 00000000 		.4byte	0
 4148 0048 4A000000 		.4byte	.LBB61
 4149 004c 62000000 		.4byte	.LBE61
 4150 0050 62000000 		.4byte	.LBB69
 4151 0054 68000000 		.4byte	.LBE69
 4152 0058 78000000 		.4byte	.LBB70
 4153 005c 80000000 		.4byte	.LBE70
 4154 0060 00000000 		.4byte	0
ARM GAS  /tmp/ccyjThYZ.s 			page 74


 4155 0064 00000000 		.4byte	0
 4156 0068 62000000 		.4byte	.LBB63
 4157 006c 62000000 		.4byte	.LBE63
 4158 0070 62000000 		.4byte	.LBB66
 4159 0074 68000000 		.4byte	.LBE66
 4160 0078 00000000 		.4byte	0
 4161 007c 00000000 		.4byte	0
 4162 0080 0E000000 		.4byte	.LBB85
 4163 0084 0E000000 		.4byte	.LBE85
 4164 0088 0E000000 		.4byte	.LBB93
 4165 008c 14000000 		.4byte	.LBE93
 4166 0090 16000000 		.4byte	.LBB94
 4167 0094 1E000000 		.4byte	.LBE94
 4168 0098 00000000 		.4byte	0
 4169 009c 00000000 		.4byte	0
 4170 00a0 0E000000 		.4byte	.LBB87
 4171 00a4 0E000000 		.4byte	.LBE87
 4172 00a8 0E000000 		.4byte	.LBB90
 4173 00ac 14000000 		.4byte	.LBE90
 4174 00b0 00000000 		.4byte	0
 4175 00b4 00000000 		.4byte	0
 4176 00b8 20000000 		.4byte	.LBB95
 4177 00bc 24000000 		.4byte	.LBE95
 4178 00c0 26000000 		.4byte	.LBB98
 4179 00c4 28000000 		.4byte	.LBE98
 4180 00c8 00000000 		.4byte	0
 4181 00cc 00000000 		.4byte	0
 4182 00d0 2E000000 		.4byte	.LBB99
 4183 00d4 36000000 		.4byte	.LBE99
 4184 00d8 38000000 		.4byte	.LBB102
 4185 00dc 3A000000 		.4byte	.LBE102
 4186 00e0 00000000 		.4byte	0
 4187 00e4 00000000 		.4byte	0
 4188 00e8 3E000000 		.4byte	.LBB103
 4189 00ec 56000000 		.4byte	.LBE103
 4190 00f0 56000000 		.4byte	.LBB111
 4191 00f4 5C000000 		.4byte	.LBE111
 4192 00f8 6C000000 		.4byte	.LBB112
 4193 00fc 74000000 		.4byte	.LBE112
 4194 0100 00000000 		.4byte	0
 4195 0104 00000000 		.4byte	0
 4196 0108 56000000 		.4byte	.LBB105
 4197 010c 56000000 		.4byte	.LBE105
 4198 0110 56000000 		.4byte	.LBB108
 4199 0114 5C000000 		.4byte	.LBE108
 4200 0118 00000000 		.4byte	0
 4201 011c 00000000 		.4byte	0
 4202 0120 0E000000 		.4byte	.LBB125
 4203 0124 0E000000 		.4byte	.LBE125
 4204 0128 0E000000 		.4byte	.LBB136
 4205 012c 0E000000 		.4byte	.LBE136
 4206 0130 12000000 		.4byte	.LBB137
 4207 0134 20000000 		.4byte	.LBE137
 4208 0138 00000000 		.4byte	0
 4209 013c 00000000 		.4byte	0
 4210 0140 0E000000 		.4byte	.LBB127
 4211 0144 0E000000 		.4byte	.LBE127
ARM GAS  /tmp/ccyjThYZ.s 			page 75


 4212 0148 0E000000 		.4byte	.LBB132
 4213 014c 0E000000 		.4byte	.LBE132
 4214 0150 12000000 		.4byte	.LBB133
 4215 0154 18000000 		.4byte	.LBE133
 4216 0158 00000000 		.4byte	0
 4217 015c 00000000 		.4byte	0
 4218 0160 3A000000 		.4byte	.LBB140
 4219 0164 54000000 		.4byte	.LBE140
 4220 0168 54000000 		.4byte	.LBB148
 4221 016c 5A000000 		.4byte	.LBE148
 4222 0170 68000000 		.4byte	.LBB149
 4223 0174 70000000 		.4byte	.LBE149
 4224 0178 00000000 		.4byte	0
 4225 017c 00000000 		.4byte	0
 4226 0180 54000000 		.4byte	.LBB142
 4227 0184 54000000 		.4byte	.LBE142
 4228 0188 54000000 		.4byte	.LBB145
 4229 018c 5A000000 		.4byte	.LBE145
 4230 0190 00000000 		.4byte	0
 4231 0194 00000000 		.4byte	0
 4232 0198 00000000 		.4byte	.LFB219
 4233 019c A4000000 		.4byte	.LFE219
 4234 01a0 00000000 		.4byte	.LFB220
 4235 01a4 8C000000 		.4byte	.LFE220
 4236 01a8 00000000 		.4byte	.LFB221
 4237 01ac 84000000 		.4byte	.LFE221
 4238 01b0 00000000 		.4byte	0
 4239 01b4 00000000 		.4byte	0
 4240              		.section	.debug_line,"",%progbits
 4241              	.Ldebug_line0:
 4242 0000 A1050000 		.section	.debug_str,"MS",%progbits,1
 4242      0300E601 
 4242      00000201 
 4242      FB0E0D00 
 4242      01010101 
 4243              	.LASF140:
 4244 0000 63665F6F 		.ascii	"cf_off_older\000"
 4244      66665F6F 
 4244      6C646572 
 4244      00
 4245              	.LASF55:
 4246 000d 72656164 		.ascii	"ready_list_t\000"
 4246      795F6C69 
 4246      73745F74 
 4246      00
 4247              	.LASF159:
 4248 001a 71756575 		.ascii	"queue_insert\000"
 4248      655F696E 
 4248      73657274 
 4248      00
 4249              	.LASF117:
 4250 0027 77747472 		.ascii	"wttrp\000"
 4250      7000
 4251              	.LASF114:
 4252 002d 7264796D 		.ascii	"rdymsg\000"
 4252      736700
 4253              	.LASF13:
ARM GAS  /tmp/ccyjThYZ.s 			page 76


 4254 0034 75696E74 		.ascii	"uint64_t\000"
 4254      36345F74 
 4254      00
 4255              	.LASF85:
 4256 003d 6B65726E 		.ascii	"kernel_stats\000"
 4256      656C5F73 
 4256      74617473 
 4256      00
 4257              	.LASF92:
 4258 004a 706F7274 		.ascii	"port_intctx\000"
 4258      5F696E74 
 4258      63747800 
 4259              	.LASF54:
 4260 0056 63685F74 		.ascii	"ch_threads_queue\000"
 4260      68726561 
 4260      64735F71 
 4260      75657565 
 4260      00
 4261              	.LASF74:
 4262 0067 73797374 		.ascii	"system_debug_t\000"
 4262      656D5F64 
 4262      65627567 
 4262      5F7400
 4263              	.LASF162:
 4264 0076 706F7274 		.ascii	"port_lock\000"
 4264      5F6C6F63 
 4264      6B00
 4265              	.LASF105:
 4266 0080 776F7273 		.ascii	"worst\000"
 4266      7400
 4267              	.LASF108:
 4268 0086 74696D65 		.ascii	"time_measurement_t\000"
 4268      5F6D6561 
 4268      73757265 
 4268      6D656E74 
 4268      5F7400
 4269              	.LASF14:
 4270 0099 6C6F6E67 		.ascii	"long long unsigned int\000"
 4270      206C6F6E 
 4270      6720756E 
 4270      7369676E 
 4270      65642069 
 4271              	.LASF101:
 4272 00b0 63685F74 		.ascii	"ch_trace_buffer_t\000"
 4272      72616365 
 4272      5F627566 
 4272      6665725F 
 4272      7400
 4273              	.LASF136:
 4274 00c2 63685F74 		.ascii	"ch_threadsize\000"
 4274      68726561 
 4274      6473697A 
 4274      6500
 4275              	.LASF115:
 4276 00d0 65786974 		.ascii	"exitcode\000"
 4276      636F6465 
 4276      00
ARM GAS  /tmp/ccyjThYZ.s 			page 77


 4277              	.LASF84:
 4278 00d9 6D61696E 		.ascii	"mainthread\000"
 4278      74687265 
 4278      616400
 4279              	.LASF165:
 4280 00e4 5F737461 		.ascii	"_stats_start_measure_crit_thd\000"
 4280      74735F73 
 4280      74617274 
 4280      5F6D6561 
 4280      73757265 
 4281              	.LASF71:
 4282 0102 76697274 		.ascii	"virtual_timers_list_t\000"
 4282      75616C5F 
 4282      74696D65 
 4282      72735F6C 
 4282      6973745F 
 4283              	.LASF87:
 4284 0118 49544D5F 		.ascii	"ITM_RxBuffer\000"
 4284      52784275 
 4284      66666572 
 4284      00
 4285              	.LASF16:
 4286 0125 72747469 		.ascii	"rttime_t\000"
 4286      6D655F74 
 4286      00
 4287              	.LASF30:
 4288 012e 705F7072 		.ascii	"p_prio\000"
 4288      696F00
 4289              	.LASF143:
 4290 0135 63665F6F 		.ascii	"cf_off_state\000"
 4290      66665F73 
 4290      74617465 
 4290      00
 4291              	.LASF1:
 4292 0142 6C6F6E67 		.ascii	"long long int\000"
 4292      206C6F6E 
 4292      6720696E 
 4292      7400
 4293              	.LASF3:
 4294 0150 7369676E 		.ascii	"signed char\000"
 4294      65642063 
 4294      68617200 
 4295              	.LASF142:
 4296 015c 63665F6F 		.ascii	"cf_off_stklimit\000"
 4296      66665F73 
 4296      746B6C69 
 4296      6D697400 
 4297              	.LASF144:
 4298 016c 63665F6F 		.ascii	"cf_off_flags\000"
 4298      66665F66 
 4298      6C616773 
 4298      00
 4299              	.LASF47:
 4300 0179 705F6D70 		.ascii	"p_mpool\000"
 4300      6F6F6C00 
 4301              	.LASF125:
 4302 0181 6D5F7175 		.ascii	"m_queue\000"
ARM GAS  /tmp/ccyjThYZ.s 			page 78


 4302      65756500 
 4303              	.LASF83:
 4304 0189 76746C69 		.ascii	"vtlist\000"
 4304      737400
 4305              	.LASF161:
 4306 0190 706F7274 		.ascii	"port_unlock\000"
 4306      5F756E6C 
 4306      6F636B00 
 4307              	.LASF20:
 4308 019c 74736C69 		.ascii	"tslices_t\000"
 4308      6365735F 
 4308      7400
 4309              	.LASF81:
 4310 01a6 63685F73 		.ascii	"ch_system\000"
 4310      79737465 
 4310      6D00
 4311              	.LASF5:
 4312 01b0 6C6F6E67 		.ascii	"long int\000"
 4312      20696E74 
 4312      00
 4313              	.LASF152:
 4314 01b9 63684D73 		.ascii	"chMsgSend\000"
 4314      6753656E 
 4314      6400
 4315              	.LASF18:
 4316 01c3 74737461 		.ascii	"tstate_t\000"
 4316      74655F74 
 4316      00
 4317              	.LASF94:
 4318 01cc 73655F74 		.ascii	"se_tp\000"
 4318      7000
 4319              	.LASF148:
 4320 01d2 63686465 		.ascii	"chdebug_t\000"
 4320      6275675F 
 4320      7400
 4321              	.LASF157:
 4322 01dc 63684D73 		.ascii	"chMsgIsPendingI\000"
 4322      67497350 
 4322      656E6469 
 4322      6E674900 
 4323              	.LASF32:
 4324 01ec 705F6E65 		.ascii	"p_newer\000"
 4324      77657200 
 4325              	.LASF122:
 4326 01f4 735F7175 		.ascii	"s_queue\000"
 4326      65756500 
 4327              	.LASF98:
 4328 01fc 74625F73 		.ascii	"tb_size\000"
 4328      697A6500 
 4329              	.LASF60:
 4330 0204 725F6E65 		.ascii	"r_newer\000"
 4330      77657200 
 4331              	.LASF89:
 4332 020c 72656761 		.ascii	"regarm_t\000"
 4332      726D5F74 
 4332      00
 4333              	.LASF67:
ARM GAS  /tmp/ccyjThYZ.s 			page 79


 4334 0215 76745F70 		.ascii	"vt_prev\000"
 4334      72657600 
 4335              	.LASF171:
 4336 021d 63685379 		.ascii	"chSysHalt\000"
 4336      7348616C 
 4336      7400
 4337              	.LASF176:
 4338 0227 2E2F2F43 		.ascii	".//ChibiOS//os/rt/src/chmsg.c\000"
 4338      68696269 
 4338      4F532F2F 
 4338      6F732F72 
 4338      742F7372 
 4339              	.LASF128:
 4340 0245 6D5F636E 		.ascii	"m_cnt\000"
 4340      7400
 4341              	.LASF150:
 4342 024b 6D757465 		.ascii	"mutex_t\000"
 4342      785F7400 
 4343              	.LASF164:
 4344 0253 76616C75 		.ascii	"value\000"
 4344      6500
 4345              	.LASF78:
 4346 0259 6C6F636B 		.ascii	"lock_cnt\000"
 4346      5F636E74 
 4346      00
 4347              	.LASF86:
 4348 0262 69646C65 		.ascii	"idle_thread_wa\000"
 4348      5F746872 
 4348      6561645F 
 4348      776100
 4349              	.LASF24:
 4350 0271 636E745F 		.ascii	"cnt_t\000"
 4350      7400
 4351              	.LASF35:
 4352 0277 705F7374 		.ascii	"p_stklimit\000"
 4352      6B6C696D 
 4352      697400
 4353              	.LASF0:
 4354 0282 756E7369 		.ascii	"unsigned int\000"
 4354      676E6564 
 4354      20696E74 
 4354      00
 4355              	.LASF66:
 4356 028f 76745F6E 		.ascii	"vt_next\000"
 4356      65787400 
 4357              	.LASF9:
 4358 0297 75696E74 		.ascii	"uint16_t\000"
 4358      31365F74 
 4358      00
 4359              	.LASF88:
 4360 02a0 53797374 		.ascii	"SystemCoreClock\000"
 4360      656D436F 
 4360      7265436C 
 4360      6F636B00 
 4361              	.LASF40:
 4362 02b0 705F7469 		.ascii	"p_time\000"
 4362      6D6500
ARM GAS  /tmp/ccyjThYZ.s 			page 80


 4363              	.LASF118:
 4364 02b7 77747365 		.ascii	"wtsemp\000"
 4364      6D7000
 4365              	.LASF68:
 4366 02be 76745F64 		.ascii	"vt_delta\000"
 4366      656C7461 
 4366      00
 4367              	.LASF42:
 4368 02c7 705F6D73 		.ascii	"p_msgqueue\000"
 4368      67717565 
 4368      756500
 4369              	.LASF149:
 4370 02d2 63685F64 		.ascii	"ch_debug\000"
 4370      65627567 
 4370      00
 4371              	.LASF109:
 4372 02db 6E5F6972 		.ascii	"n_irq\000"
 4372      7100
 4373              	.LASF177:
 4374 02e1 2F686F6D 		.ascii	"/home/olof/Documents/MICRO-315/micro-315/tp4/lib/e-"
 4374      652F6F6C 
 4374      6F662F44 
 4374      6F63756D 
 4374      656E7473 
 4375 0314 7075636B 		.ascii	"puck2_main-processor\000"
 4375      325F6D61 
 4375      696E2D70 
 4375      726F6365 
 4375      73736F72 
 4376              	.LASF123:
 4377 0329 735F636E 		.ascii	"s_cnt\000"
 4377      7400
 4378              	.LASF10:
 4379 032f 73686F72 		.ascii	"short unsigned int\000"
 4379      7420756E 
 4379      7369676E 
 4379      65642069 
 4379      6E7400
 4380              	.LASF113:
 4381 0342 6B65726E 		.ascii	"kernel_stats_t\000"
 4381      656C5F73 
 4381      74617473 
 4381      5F7400
 4382              	.LASF51:
 4383 0351 63685F74 		.ascii	"ch_thread\000"
 4383      68726561 
 4383      6400
 4384              	.LASF168:
 4385 035b 63685363 		.ascii	"chSchWakeupS\000"
 4385      6857616B 
 4385      65757053 
 4385      00
 4386              	.LASF22:
 4387 0368 6D73675F 		.ascii	"msg_t\000"
 4387      7400
 4388              	.LASF106:
 4389 036e 6C617374 		.ascii	"last\000"
ARM GAS  /tmp/ccyjThYZ.s 			page 81


 4389      00
 4390              	.LASF25:
 4391 0373 75636E74 		.ascii	"ucnt_t\000"
 4391      5F7400
 4392              	.LASF172:
 4393 037a 63684462 		.ascii	"chDbgCheckClassI\000"
 4393      67436865 
 4393      636B436C 
 4393      61737349 
 4393      00
 4394              	.LASF80:
 4395 038b 63685F73 		.ascii	"ch_system_t\000"
 4395      79737465 
 4395      6D5F7400 
 4396              	.LASF147:
 4397 0397 63665F6F 		.ascii	"cf_off_time\000"
 4397      66665F74 
 4397      696D6500 
 4398              	.LASF167:
 4399 03a3 63684462 		.ascii	"chDbgCheckClassS\000"
 4399      67436865 
 4399      636B436C 
 4399      61737353 
 4399      00
 4400              	.LASF112:
 4401 03b4 6D5F6372 		.ascii	"m_crit_isr\000"
 4401      69745F69 
 4401      737200
 4402              	.LASF56:
 4403 03bf 63685F72 		.ascii	"ch_ready_list\000"
 4403      65616479 
 4403      5F6C6973 
 4403      7400
 4404              	.LASF23:
 4405 03cd 6576656E 		.ascii	"eventmask_t\000"
 4405      746D6173 
 4405      6B5F7400 
 4406              	.LASF90:
 4407 03d9 73746B61 		.ascii	"stkalign_t\000"
 4407      6C69676E 
 4407      5F7400
 4408              	.LASF50:
 4409 03e4 74687265 		.ascii	"threads_list_t\000"
 4409      6164735F 
 4409      6C697374 
 4409      5F7400
 4410              	.LASF131:
 4411 03f3 63685F7A 		.ascii	"ch_zero\000"
 4411      65726F00 
 4412              	.LASF145:
 4413 03fb 63665F6F 		.ascii	"cf_off_refs\000"
 4413      66665F72 
 4413      65667300 
 4414              	.LASF41:
 4415 0407 705F7761 		.ascii	"p_waiting\000"
 4415      6974696E 
 4415      6700
ARM GAS  /tmp/ccyjThYZ.s 			page 82


 4416              	.LASF170:
 4417 0411 5F737461 		.ascii	"_stats_stop_measure_crit_thd\000"
 4417      74735F73 
 4417      746F705F 
 4417      6D656173 
 4417      7572655F 
 4418              	.LASF15:
 4419 042e 7274636E 		.ascii	"rtcnt_t\000"
 4419      745F7400 
 4420              	.LASF166:
 4421 0436 5F646267 		.ascii	"_dbg_check_lock\000"
 4421      5F636865 
 4421      636B5F6C 
 4421      6F636B00 
 4422              	.LASF72:
 4423 0446 63685F76 		.ascii	"ch_virtual_timers_list\000"
 4423      69727475 
 4423      616C5F74 
 4423      696D6572 
 4423      735F6C69 
 4424              	.LASF2:
 4425 045d 6C6F6E67 		.ascii	"long double\000"
 4425      20646F75 
 4425      626C6500 
 4426              	.LASF135:
 4427 0469 63685F74 		.ascii	"ch_timesize\000"
 4427      696D6573 
 4427      697A6500 
 4428              	.LASF99:
 4429 0475 74625F70 		.ascii	"tb_ptr\000"
 4429      747200
 4430              	.LASF97:
 4431 047c 63685F73 		.ascii	"ch_swc_event_t\000"
 4431      77635F65 
 4431      76656E74 
 4431      5F7400
 4432              	.LASF141:
 4433 048b 63665F6F 		.ascii	"cf_off_name\000"
 4433      66665F6E 
 4433      616D6500 
 4434              	.LASF33:
 4435 0497 705F6F6C 		.ascii	"p_older\000"
 4435      64657200 
 4436              	.LASF59:
 4437 049f 725F6374 		.ascii	"r_ctx\000"
 4437      7800
 4438              	.LASF31:
 4439 04a5 705F6374 		.ascii	"p_ctx\000"
 4439      7800
 4440              	.LASF103:
 4441 04ab 746D5F63 		.ascii	"tm_calibration_t\000"
 4441      616C6962 
 4441      72617469 
 4441      6F6E5F74 
 4441      00
 4442              	.LASF127:
 4443 04bc 6D5F6E65 		.ascii	"m_next\000"
ARM GAS  /tmp/ccyjThYZ.s 			page 83


 4443      787400
 4444              	.LASF175:
 4445 04c3 474E5520 		.ascii	"GNU C17 9.2.1 20191025 (release) [ARM/arm-9-branch "
 4445      43313720 
 4445      392E322E 
 4445      31203230 
 4445      31393130 
 4446 04f6 72657669 		.ascii	"revision 277599] -mcpu=cortex-m4 -mfloat-abi=hard -"
 4446      73696F6E 
 4446      20323737 
 4446      3539395D 
 4446      202D6D63 
 4447 0529 6D667075 		.ascii	"mfpu=fpv4-sp-d16 -mno-thumb-interwork -mthumb -marc"
 4447      3D667076 
 4447      342D7370 
 4447      2D643136 
 4447      202D6D6E 
 4448 055c 683D6172 		.ascii	"h=armv7e-m+fp -ggdb -O2 -fomit-frame-pointer -falig"
 4448      6D763765 
 4448      2D6D2B66 
 4448      70202D67 
 4448      67646220 
 4449 058f 6E2D6675 		.ascii	"n-functions=16 -fno-strict-aliasing -fstack-protect"
 4449      6E637469 
 4449      6F6E733D 
 4449      3136202D 
 4449      666E6F2D 
 4450 05c2 6F722D61 		.ascii	"or-all -ffunction-sections -fdata-sections -fno-com"
 4450      6C6C202D 
 4450      6666756E 
 4450      6374696F 
 4450      6E2D7365 
 4451 05f5 6D6F6E20 		.ascii	"mon -fsingle-precision-constant\000"
 4451      2D667369 
 4451      6E676C65 
 4451      2D707265 
 4451      63697369 
 4452              	.LASF62:
 4453 0615 725F6375 		.ascii	"r_current\000"
 4453      7272656E 
 4453      7400
 4454              	.LASF61:
 4455 061f 725F6F6C 		.ascii	"r_older\000"
 4455      64657200 
 4456              	.LASF107:
 4457 0627 63756D75 		.ascii	"cumulative\000"
 4457      6C617469 
 4457      766500
 4458              	.LASF19:
 4459 0632 74726566 		.ascii	"trefs_t\000"
 4459      735F7400 
 4460              	.LASF100:
 4461 063a 74625F62 		.ascii	"tb_buffer\000"
 4461      75666665 
 4461      7200
 4462              	.LASF134:
 4463 0644 63685F70 		.ascii	"ch_ptrsize\000"
ARM GAS  /tmp/ccyjThYZ.s 			page 84


 4463      74727369 
 4463      7A6500
 4464              	.LASF75:
 4465 064f 63685F73 		.ascii	"ch_system_debug\000"
 4465      79737465 
 4465      6D5F6465 
 4465      62756700 
 4466              	.LASF64:
 4467 065f 76697274 		.ascii	"virtual_timer_t\000"
 4467      75616C5F 
 4467      74696D65 
 4467      725F7400 
 4468              	.LASF29:
 4469 066f 705F7072 		.ascii	"p_prev\000"
 4469      657600
 4470              	.LASF21:
 4471 0676 74707269 		.ascii	"tprio_t\000"
 4471      6F5F7400 
 4472              	.LASF110:
 4473 067e 6E5F6374 		.ascii	"n_ctxswc\000"
 4473      78737763 
 4473      00
 4474              	.LASF154:
 4475 0687 5F426F6F 		.ascii	"_Bool\000"
 4475      6C00
 4476              	.LASF6:
 4477 068d 696E7433 		.ascii	"int32_t\000"
 4477      325F7400 
 4478              	.LASF8:
 4479 0695 756E7369 		.ascii	"unsigned char\000"
 4479      676E6564 
 4479      20636861 
 4479      7200
 4480              	.LASF45:
 4481 06a3 705F6D74 		.ascii	"p_mtxlist\000"
 4481      786C6973 
 4481      7400
 4482              	.LASF4:
 4483 06ad 73686F72 		.ascii	"short int\000"
 4483      7420696E 
 4483      7400
 4484              	.LASF36:
 4485 06b7 705F7374 		.ascii	"p_state\000"
 4485      61746500 
 4486              	.LASF39:
 4487 06bf 705F7072 		.ascii	"p_preempt\000"
 4487      65656D70 
 4487      7400
 4488              	.LASF58:
 4489 06c9 725F7072 		.ascii	"r_prio\000"
 4489      696F00
 4490              	.LASF120:
 4491 06d0 65776D61 		.ascii	"ewmask\000"
 4491      736B00
 4492              	.LASF28:
 4493 06d7 705F6E65 		.ascii	"p_next\000"
 4493      787400
ARM GAS  /tmp/ccyjThYZ.s 			page 85


 4494              	.LASF17:
 4495 06de 746D6F64 		.ascii	"tmode_t\000"
 4495      655F7400 
 4496              	.LASF146:
 4497 06e6 63665F6F 		.ascii	"cf_off_preempt\000"
 4497      66665F70 
 4497      7265656D 
 4497      707400
 4498              	.LASF37:
 4499 06f5 705F666C 		.ascii	"p_flags\000"
 4499      61677300 
 4500              	.LASF153:
 4501 06fd 5F5F6675 		.ascii	"__func__\000"
 4501      6E635F5F 
 4501      00
 4502              	.LASF48:
 4503 0706 705F7374 		.ascii	"p_stats\000"
 4503      61747300 
 4504              	.LASF160:
 4505 070e 63685379 		.ascii	"chSysLock\000"
 4505      734C6F63 
 4505      6B00
 4506              	.LASF53:
 4507 0718 74687265 		.ascii	"threads_queue_t\000"
 4507      6164735F 
 4507      71756575 
 4507      655F7400 
 4508              	.LASF65:
 4509 0728 63685F76 		.ascii	"ch_virtual_timer\000"
 4509      69727475 
 4509      616C5F74 
 4509      696D6572 
 4509      00
 4510              	.LASF178:
 4511 0739 63684D73 		.ascii	"chMsgRelease\000"
 4511      6752656C 
 4511      65617365 
 4511      00
 4512              	.LASF179:
 4513 0746 5F5F7374 		.ascii	"__stack_chk_fail\000"
 4513      61636B5F 
 4513      63686B5F 
 4513      6661696C 
 4513      00
 4514              	.LASF121:
 4515 0757 63685F73 		.ascii	"ch_semaphore\000"
 4515      656D6170 
 4515      686F7265 
 4515      00
 4516              	.LASF173:
 4517 0764 63685363 		.ascii	"chSchGoSleepS\000"
 4517      68476F53 
 4517      6C656570 
 4517      5300
 4518              	.LASF44:
 4519 0772 705F6570 		.ascii	"p_epending\000"
 4519      656E6469 
ARM GAS  /tmp/ccyjThYZ.s 			page 86


 4519      6E6700
 4520              	.LASF11:
 4521 077d 75696E74 		.ascii	"uint32_t\000"
 4521      33325F74 
 4521      00
 4522              	.LASF137:
 4523 0786 63665F6F 		.ascii	"cf_off_prio\000"
 4523      66665F70 
 4523      72696F00 
 4524              	.LASF57:
 4525 0792 725F7175 		.ascii	"r_queue\000"
 4525      65756500 
 4526              	.LASF174:
 4527 079a 63685363 		.ascii	"chSchReadyI\000"
 4527      68526561 
 4527      64794900 
 4528              	.LASF52:
 4529 07a6 63685F74 		.ascii	"ch_threads_list\000"
 4529      68726561 
 4529      64735F6C 
 4529      69737400 
 4530              	.LASF132:
 4531 07b6 63685F73 		.ascii	"ch_size\000"
 4531      697A6500 
 4532              	.LASF12:
 4533 07be 6C6F6E67 		.ascii	"long unsigned int\000"
 4533      20756E73 
 4533      69676E65 
 4533      6420696E 
 4533      7400
 4534              	.LASF129:
 4535 07d0 63686172 		.ascii	"char\000"
 4535      00
 4536              	.LASF119:
 4537 07d5 77746D74 		.ascii	"wtmtxp\000"
 4537      787000
 4538              	.LASF27:
 4539 07dc 74687265 		.ascii	"thread_t\000"
 4539      61645F74 
 4539      00
 4540              	.LASF104:
 4541 07e5 62657374 		.ascii	"best\000"
 4541      00
 4542              	.LASF158:
 4543 07ea 71756575 		.ascii	"queue_fifo_remove\000"
 4543      655F6669 
 4543      666F5F72 
 4543      656D6F76 
 4543      6500
 4544              	.LASF26:
 4545 07fc 73797374 		.ascii	"systime_t\000"
 4545      696D655F 
 4545      7400
 4546              	.LASF46:
 4547 0806 705F7265 		.ascii	"p_realprio\000"
 4547      616C7072 
 4547      696F00
ARM GAS  /tmp/ccyjThYZ.s 			page 87


 4548              	.LASF63:
 4549 0811 76746675 		.ascii	"vtfunc_t\000"
 4549      6E635F74 
 4549      00
 4550              	.LASF163:
 4551 081a 5F5F7365 		.ascii	"__set_BASEPRI\000"
 4551      745F4241 
 4551      53455052 
 4551      4900
 4552              	.LASF76:
 4553 0828 70616E69 		.ascii	"panic_msg\000"
 4553      635F6D73 
 4553      6700
 4554              	.LASF102:
 4555 0832 6F666673 		.ascii	"offset\000"
 4555      657400
 4556              	.LASF91:
 4557 0839 636F6E74 		.ascii	"context\000"
 4557      65787400 
 4558              	.LASF43:
 4559 0841 705F6D73 		.ascii	"p_msg\000"
 4559      6700
 4560              	.LASF70:
 4561 0847 76745F70 		.ascii	"vt_par\000"
 4561      617200
 4562              	.LASF151:
 4563 084e 63684D73 		.ascii	"chMsgWait\000"
 4563      67576169 
 4563      7400
 4564              	.LASF93:
 4565 0858 73655F74 		.ascii	"se_time\000"
 4565      696D6500 
 4566              	.LASF138:
 4567 0860 63665F6F 		.ascii	"cf_off_ctx\000"
 4567      66665F63 
 4567      747800
 4568              	.LASF124:
 4569 086b 63685F6D 		.ascii	"ch_mutex\000"
 4569      75746578 
 4569      00
 4570              	.LASF38:
 4571 0874 705F7265 		.ascii	"p_refs\000"
 4571      667300
 4572              	.LASF77:
 4573 087b 6973725F 		.ascii	"isr_cnt\000"
 4573      636E7400 
 4574              	.LASF96:
 4575 0883 73655F73 		.ascii	"se_state\000"
 4575      74617465 
 4575      00
 4576              	.LASF82:
 4577 088c 726C6973 		.ascii	"rlist\000"
 4577      7400
 4578              	.LASF7:
 4579 0892 75696E74 		.ascii	"uint8_t\000"
 4579      385F7400 
 4580              	.LASF169:
ARM GAS  /tmp/ccyjThYZ.s 			page 88


 4581 089a 5F646267 		.ascii	"_dbg_check_unlock\000"
 4581      5F636865 
 4581      636B5F75 
 4581      6E6C6F63 
 4581      6B00
 4582              	.LASF49:
 4583 08ac 74687265 		.ascii	"thread_reference_t\000"
 4583      61645F72 
 4583      65666572 
 4583      656E6365 
 4583      5F7400
 4584              	.LASF116:
 4585 08bf 77746F62 		.ascii	"wtobjp\000"
 4585      6A7000
 4586              	.LASF139:
 4587 08c6 63665F6F 		.ascii	"cf_off_newer\000"
 4587      66665F6E 
 4587      65776572 
 4587      00
 4588              	.LASF34:
 4589 08d3 705F6E61 		.ascii	"p_name\000"
 4589      6D6500
 4590              	.LASF73:
 4591 08da 76745F73 		.ascii	"vt_systime\000"
 4591      79737469 
 4591      6D6500
 4592              	.LASF79:
 4593 08e5 74726163 		.ascii	"trace_buffer\000"
 4593      655F6275 
 4593      66666572 
 4593      00
 4594              	.LASF156:
 4595 08f2 63685379 		.ascii	"chSysUnlock\000"
 4595      73556E6C 
 4595      6F636B00 
 4596              	.LASF133:
 4597 08fe 63685F76 		.ascii	"ch_version\000"
 4597      65727369 
 4597      6F6E00
 4598              	.LASF155:
 4599 0909 63684D73 		.ascii	"chMsgReleaseS\000"
 4599      6752656C 
 4599      65617365 
 4599      5300
 4600              	.LASF111:
 4601 0917 6D5F6372 		.ascii	"m_crit_thd\000"
 4601      69745F74 
 4601      686400
 4602              	.LASF126:
 4603 0922 6D5F6F77 		.ascii	"m_owner\000"
 4603      6E657200 
 4604              	.LASF95:
 4605 092a 73655F77 		.ascii	"se_wtobjp\000"
 4605      746F626A 
 4605      7000
 4606              	.LASF130:
 4607 0934 63685F69 		.ascii	"ch_identifier\000"
ARM GAS  /tmp/ccyjThYZ.s 			page 89


 4607      64656E74 
 4607      69666965 
 4607      7200
 4608              	.LASF69:
 4609 0942 76745F66 		.ascii	"vt_func\000"
 4609      756E6300 
 4610              		.ident	"GCC: (15:9-2019-q4-0ubuntu1) 9.2.1 20191025 (release) [ARM/arm-9-branch revision 277599]"
ARM GAS  /tmp/ccyjThYZ.s 			page 90


DEFINED SYMBOLS
                            *ABS*:0000000000000000 chmsg.c
     /tmp/ccyjThYZ.s:18     .rodata.chMsgSend.cst4:0000000000000000 $d
     /tmp/ccyjThYZ.s:22     .text.chMsgSend:0000000000000000 $t
     /tmp/ccyjThYZ.s:31     .text.chMsgSend:0000000000000000 chMsgSend
     /tmp/ccyjThYZ.s:278    .text.chMsgSend:0000000000000094 $d
     /tmp/ccyjThYZ.s:286    .rodata.chMsgWait.cst4:0000000000000000 $d
     /tmp/ccyjThYZ.s:290    .text.chMsgWait:0000000000000000 $t
     /tmp/ccyjThYZ.s:298    .text.chMsgWait:0000000000000000 chMsgWait
     /tmp/ccyjThYZ.s:525    .text.chMsgWait:0000000000000080 $d
     /tmp/ccyjThYZ.s:532    .rodata.chMsgRelease.cst4:0000000000000000 $d
     /tmp/ccyjThYZ.s:536    .text.chMsgRelease:0000000000000000 $t
     /tmp/ccyjThYZ.s:544    .text.chMsgRelease:0000000000000000 chMsgRelease
     /tmp/ccyjThYZ.s:735    .text.chMsgRelease:0000000000000074 $d
     /tmp/ccyjThYZ.s:743    .rodata.__func__.7261:0000000000000000 $d
     /tmp/ccyjThYZ.s:747    .rodata.__func__.7261:0000000000000000 __func__.7261
     /tmp/ccyjThYZ.s:750    .rodata.__func__.7959:0000000000000000 $d
     /tmp/ccyjThYZ.s:754    .rodata.__func__.7959:0000000000000000 __func__.7959
     /tmp/ccyjThYZ.s:757    .rodata.__func__.7968:0000000000000000 $d
     /tmp/ccyjThYZ.s:761    .rodata.__func__.7968:0000000000000000 __func__.7968

UNDEFINED SYMBOLS
__stack_chk_guard
_stats_start_measure_crit_thd
_dbg_check_lock
chSchGoSleepS
_dbg_check_unlock
_stats_stop_measure_crit_thd
chSysHalt
chSchReadyI
__stack_chk_fail
ch
chDbgCheckClassI
chDbgCheckClassS
chSchWakeupS
