ARM GAS  /tmp/ccyjThYZ.s 			page 1


   1              		.cpu cortex-m4
   2              		.eabi_attribute 27, 1
   3              		.eabi_attribute 28, 1
   4              		.eabi_attribute 20, 1
   5              		.eabi_attribute 21, 1
   6              		.eabi_attribute 23, 3
   7              		.eabi_attribute 24, 1
   8              		.eabi_attribute 25, 1
   9              		.eabi_attribute 26, 1
  10              		.eabi_attribute 30, 2
  11              		.eabi_attribute 34, 1
  12              		.eabi_attribute 18, 4
  13              		.file	"chmsg.c"
  14              		.text
  15              	.Ltext0:
  16              		.cfi_sections	.debug_frame
  17              		.section	.rodata.chMsgSend.cst4,"aM",%progbits,4
  18              		.align	2
  19              	.LC0:
  20 0000 00000000 		.word	__stack_chk_guard
  21              		.section	.text.chMsgSend,"ax",%progbits
  22              		.align	1
  23              		.p2align 4,,15
  24              		.global	chMsgSend
  25              		.arch armv7e-m
  26              		.syntax unified
  27              		.thumb
  28              		.thumb_func
  29              		.fpu fpv4-sp-d16
  30              		.type	chMsgSend, %function
  31              	chMsgSend:
  32              	.LVL0:
  33              	.LFB219:
  34              		.file 1 ".//ChibiOS//os/rt/src/chmsg.c"
  35              		.loc 1 87 42 view -0
  36              		.cfi_startproc
  37              		@ args = 0, pretend = 0, frame = 8
  38              		@ frame_needed = 0, uses_anonymous_args = 0
  39              		.loc 1 87 42 is_stmt 0 view .LVU1
  40 0000 F0B5     		push	{r4, r5, r6, r7, lr}
  41              		.cfi_def_cfa_offset 20
  42              		.cfi_offset 4, -20
  43              		.cfi_offset 5, -16
  44              		.cfi_offset 6, -12
  45              		.cfi_offset 7, -8
  46              		.cfi_offset 14, -4
  47 0002 244B     		ldr	r3, .L12
  48              		.loc 1 88 13 view .LVU2
  49 0004 244E     		ldr	r6, .L12+4
  50              		.loc 1 87 42 view .LVU3
  51 0006 83B0     		sub	sp, sp, #12
  52              		.cfi_def_cfa_offset 32
  53              		.loc 1 88 13 view .LVU4
  54 0008 B569     		ldr	r5, [r6, #24]
  55              		.loc 1 87 42 view .LVU5
  56 000a 1B68     		ldr	r3, [r3]
  57 000c 0193     		str	r3, [sp, #4]
ARM GAS  /tmp/ccyjThYZ.s 			page 2


  58 000e 4FF00003 		mov	r3,#0
  59              		.loc 1 88 3 is_stmt 1 view .LVU6
  60              	.LVL1:
  61              		.loc 1 90 3 view .LVU7
  62              		.loc 1 90 3 view .LVU8
  63              		.loc 1 90 3 view .LVU9
  64              		.loc 1 87 42 is_stmt 0 view .LVU10
  65 0012 0F46     		mov	r7, r1
  66              		.loc 1 90 3 view .LVU11
  67 0014 0446     		mov	r4, r0
  68 0016 0028     		cmp	r0, #0
  69 0018 36D0     		beq	.L8
  70              	.LVL2:
  71              	.L2:
  72              		.loc 1 90 3 is_stmt 1 discriminator 5 view .LVU12
  73              		.loc 1 92 3 discriminator 5 view .LVU13
  74              	.LBB49:
  75              	.LBI49:
  76              		.file 2 ".//ChibiOS//os/rt/include/chsys.h"
  77              		.loc 2 346 20 discriminator 5 view .LVU14
  78              	.LBB50:
  79              		.loc 2 348 3 discriminator 5 view .LVU15
  80              	.LBB51:
  81              	.LBI51:
  82              		.file 3 ".//ChibiOS//os/rt/ports/ARMCMx/chcore_v7m.h"
  83              		.loc 3 444 20 discriminator 5 view .LVU16
  84              	.LBE51:
  85              	.LBE50:
  86              	.LBE49:
  87              		.loc 3 447 3 discriminator 5 view .LVU17
  88              	.LBB56:
  89              	.LBB55:
  90              	.LBB54:
  91              	.LBB52:
  92              	.LBI52:
  93              		.file 4 ".//ChibiOS//os/ext/CMSIS/include/core_cmFunc.h"
  94              		.loc 4 544 57 discriminator 5 view .LVU18
  95              	.LBB53:
  96              		.loc 4 546 3 discriminator 5 view .LVU19
  97 001a 2023     		movs	r3, #32
  98              		.syntax unified
  99              	@ 546 ".//ChibiOS//os/ext/CMSIS/include/core_cmFunc.h" 1
 100 001c 83F31188 		MSR basepri, r3
 101              	@ 0 "" 2
 102              	.LVL3:
 103              		.loc 4 546 3 is_stmt 0 discriminator 5 view .LVU20
 104              		.thumb
 105              		.syntax unified
 106              	.LBE53:
 107              	.LBE52:
 108              	.LBE54:
 109              		.loc 2 349 3 is_stmt 1 discriminator 5 view .LVU21
 110 0020 FFF7FEFF 		bl	_stats_start_measure_crit_thd
 111              	.LVL4:
 112              		.loc 2 350 3 discriminator 5 view .LVU22
 113 0024 FFF7FEFF 		bl	_dbg_check_lock
 114              	.LVL5:
ARM GAS  /tmp/ccyjThYZ.s 			page 3


 115              	.LBE55:
 116              	.LBE56:
 117              		.loc 1 93 3 discriminator 5 view .LVU23
 118              		.loc 1 94 21 is_stmt 0 discriminator 5 view .LVU24
 119 0028 04F13003 		add	r3, r4, #48
 120              		.loc 1 93 14 discriminator 5 view .LVU25
 121 002c AF63     		str	r7, [r5, #56]
 122              		.loc 1 94 3 is_stmt 1 discriminator 5 view .LVU26
 123              		.loc 1 94 19 is_stmt 0 discriminator 5 view .LVU27
 124 002e AB62     		str	r3, [r5, #40]
 125              		.loc 1 95 3 is_stmt 1 discriminator 5 view .LVU28
 126              	.LVL6:
 127              	.LBB57:
 128              	.LBI57:
 129              		.file 5 ".//ChibiOS//os/rt/include/chschd.h"
 130              		.loc 5 663 20 discriminator 5 view .LVU29
 131              	.LBB58:
 132              		.loc 5 665 3 discriminator 5 view .LVU30
 133              		.loc 5 665 14 is_stmt 0 discriminator 5 view .LVU31
 134 0030 2B60     		str	r3, [r5]
 135              		.loc 5 666 3 is_stmt 1 discriminator 5 view .LVU32
 136              		.loc 5 666 19 is_stmt 0 discriminator 5 view .LVU33
 137 0032 636B     		ldr	r3, [r4, #52]
 138              	.LVL7:
 139              		.loc 5 666 14 discriminator 5 view .LVU34
 140 0034 6B60     		str	r3, [r5, #4]
 141              		.loc 5 667 3 is_stmt 1 discriminator 5 view .LVU35
 142              		.loc 5 667 22 is_stmt 0 discriminator 5 view .LVU36
 143 0036 1D60     		str	r5, [r3]
 144              	.LVL8:
 145              		.loc 5 668 3 is_stmt 1 discriminator 5 view .LVU37
 146              	.LBE58:
 147              	.LBE57:
 148              		.loc 1 96 6 is_stmt 0 discriminator 5 view .LVU38
 149 0038 94F82030 		ldrb	r3, [r4, #32]	@ zero_extendqisi2
 150              	.LBB60:
 151              	.LBB59:
 152              		.loc 5 668 15 discriminator 5 view .LVU39
 153 003c 6563     		str	r5, [r4, #52]
 154              	.LVL9:
 155              		.loc 5 668 15 discriminator 5 view .LVU40
 156              	.LBE59:
 157              	.LBE60:
 158              		.loc 1 96 3 is_stmt 1 discriminator 5 view .LVU41
 159              		.loc 1 96 6 is_stmt 0 discriminator 5 view .LVU42
 160 003e 0E2B     		cmp	r3, #14
 161 0040 1ED0     		beq	.L9
 162              	.L3:
 163              		.loc 1 99 3 is_stmt 1 view .LVU43
 164 0042 0C20     		movs	r0, #12
 165 0044 FFF7FEFF 		bl	chSchGoSleepS
 166              	.LVL10:
 167              		.loc 1 100 3 view .LVU44
 168              		.loc 1 100 7 is_stmt 0 view .LVU45
 169 0048 AC6A     		ldr	r4, [r5, #40]
 170              	.LVL11:
 171              		.loc 1 101 3 is_stmt 1 view .LVU46
ARM GAS  /tmp/ccyjThYZ.s 			page 4


 172              	.LBB61:
 173              	.LBI61:
 174              		.loc 2 358 20 view .LVU47
 175              	.LBB62:
 176              		.loc 2 360 3 view .LVU48
 177 004a FFF7FEFF 		bl	_dbg_check_unlock
 178              	.LVL12:
 179              		.loc 2 361 3 view .LVU49
 180 004e FFF7FEFF 		bl	_stats_stop_measure_crit_thd
 181              	.LVL13:
 182              		.loc 2 367 3 view .LVU50
 183              		.loc 2 367 3 view .LVU51
 184              		.loc 2 367 3 view .LVU52
 185 0052 3368     		ldr	r3, [r6]
 186 0054 B342     		cmp	r3, r6
 187 0056 04D0     		beq	.L4
 188 0058 B269     		ldr	r2, [r6, #24]
 189 005a 9B68     		ldr	r3, [r3, #8]
 190 005c 9268     		ldr	r2, [r2, #8]
 191 005e 9A42     		cmp	r2, r3
 192 0060 0AD3     		bcc	.L10
 193              	.L4:
 194              		.loc 2 367 3 view .LVU53
 195              		.loc 2 371 3 view .LVU54
 196              	.LBB63:
 197              	.LBI63:
 198              		.loc 3 458 20 view .LVU55
 199              	.LBE63:
 200              	.LBE62:
 201              	.LBE61:
 202              		.loc 3 461 3 view .LVU56
 203              	.LVL14:
 204              	.LBB69:
 205              	.LBB67:
 206              	.LBB66:
 207              	.LBB64:
 208              	.LBI64:
 209              		.loc 4 544 57 view .LVU57
 210              	.LBB65:
 211              		.loc 4 546 3 view .LVU58
 212 0062 0023     		movs	r3, #0
 213              		.syntax unified
 214              	@ 546 ".//ChibiOS//os/ext/CMSIS/include/core_cmFunc.h" 1
 215 0064 83F31188 		MSR basepri, r3
 216              	@ 0 "" 2
 217              	.LVL15:
 218              		.loc 4 546 3 is_stmt 0 view .LVU59
 219              		.thumb
 220              		.syntax unified
 221              	.LBE65:
 222              	.LBE64:
 223              	.LBE66:
 224              	.LBE67:
 225              	.LBE69:
 226              		.loc 1 103 3 is_stmt 1 view .LVU60
 227              		.loc 1 104 1 is_stmt 0 view .LVU61
 228 0068 0A4B     		ldr	r3, .L12
ARM GAS  /tmp/ccyjThYZ.s 			page 5


 229 006a 1A68     		ldr	r2, [r3]
 230 006c 019B     		ldr	r3, [sp, #4]
 231 006e 5A40     		eors	r2, r3, r2
 232 0070 0ED1     		bne	.L11
 233 0072 2046     		mov	r0, r4
 234 0074 03B0     		add	sp, sp, #12
 235              		.cfi_remember_state
 236              		.cfi_def_cfa_offset 20
 237              		@ sp needed
 238 0076 F0BD     		pop	{r4, r5, r6, r7, pc}
 239              	.LVL16:
 240              	.L10:
 241              		.cfi_restore_state
 242              	.LBB70:
 243              	.LBB68:
 244              		.loc 2 367 3 is_stmt 1 view .LVU62
 245 0078 0848     		ldr	r0, .L12+8
 246 007a FFF7FEFF 		bl	chSysHalt
 247              	.LVL17:
 248 007e F0E7     		b	.L4
 249              	.LVL18:
 250              	.L9:
 251              		.loc 2 367 3 is_stmt 0 view .LVU63
 252              	.LBE68:
 253              	.LBE70:
 254              		.loc 1 97 5 is_stmt 1 view .LVU64
 255              		.loc 1 97 12 is_stmt 0 view .LVU65
 256 0080 2046     		mov	r0, r4
 257 0082 FFF7FEFF 		bl	chSchReadyI
 258              	.LVL19:
 259 0086 DCE7     		b	.L3
 260              	.LVL20:
 261              	.L8:
 262              		.loc 1 90 3 is_stmt 1 discriminator 3 view .LVU66
 263 0088 0548     		ldr	r0, .L12+12
 264              	.LVL21:
 265              		.loc 1 90 3 is_stmt 0 discriminator 3 view .LVU67
 266 008a FFF7FEFF 		bl	chSysHalt
 267              	.LVL22:
 268              		.loc 1 90 3 discriminator 3 view .LVU68
 269 008e C4E7     		b	.L2
 270              	.LVL23:
 271              	.L11:
 272              		.loc 1 104 1 view .LVU69
 273 0090 FFF7FEFF 		bl	__stack_chk_fail
 274              	.LVL24:
 275              	.L13:
 276              		.align	2
 277              	.L12:
 278 0094 00000000 		.word	.LC0
 279 0098 00000000 		.word	ch
 280 009c 00000000 		.word	.LANCHOR1
 281 00a0 00000000 		.word	.LANCHOR0
 282              		.cfi_endproc
 283              	.LFE219:
 284              		.size	chMsgSend, .-chMsgSend
 285              		.section	.rodata.chMsgWait.cst4,"aM",%progbits,4
ARM GAS  /tmp/ccyjThYZ.s 			page 6


 286              		.align	2
 287              	.LC1:
 288 0000 00000000 		.word	__stack_chk_guard
 289              		.section	.text.chMsgWait,"ax",%progbits
 290              		.align	1
 291              		.p2align 4,,15
 292              		.global	chMsgWait
 293              		.syntax unified
 294              		.thumb
 295              		.thumb_func
 296              		.fpu fpv4-sp-d16
 297              		.type	chMsgWait, %function
 298              	chMsgWait:
 299              	.LFB220:
 300              		.loc 1 120 27 is_stmt 1 view -0
 301              		.cfi_startproc
 302              		@ args = 0, pretend = 0, frame = 8
 303              		@ frame_needed = 0, uses_anonymous_args = 0
 304 0000 30B5     		push	{r4, r5, lr}
 305              		.cfi_def_cfa_offset 12
 306              		.cfi_offset 4, -12
 307              		.cfi_offset 5, -8
 308              		.cfi_offset 14, -4
 309 0002 1F4B     		ldr	r3, .L22
 310 0004 83B0     		sub	sp, sp, #12
 311              		.cfi_def_cfa_offset 24
 312              		.loc 1 120 27 is_stmt 0 view .LVU71
 313 0006 1B68     		ldr	r3, [r3]
 314 0008 0193     		str	r3, [sp, #4]
 315 000a 4FF00003 		mov	r3,#0
 316              		.loc 1 121 3 is_stmt 1 view .LVU72
 317              		.loc 1 123 3 view .LVU73
 318              	.LBB85:
 319              	.LBI85:
 320              		.loc 2 346 20 view .LVU74
 321              	.LBB86:
 322              		.loc 2 348 3 view .LVU75
 323              	.LBB87:
 324              	.LBI87:
 325              		.loc 3 444 20 view .LVU76
 326              	.LBE87:
 327              	.LBE86:
 328              	.LBE85:
 329              		.loc 3 447 3 view .LVU77
 330              	.LVL25:
 331              	.LBB93:
 332              	.LBB91:
 333              	.LBB90:
 334              	.LBB88:
 335              	.LBI88:
 336              		.loc 4 544 57 view .LVU78
 337              	.LBB89:
 338              		.loc 4 546 3 view .LVU79
 339 000e 2023     		movs	r3, #32
 340              		.syntax unified
 341              	@ 546 ".//ChibiOS//os/ext/CMSIS/include/core_cmFunc.h" 1
 342 0010 83F31188 		MSR basepri, r3
ARM GAS  /tmp/ccyjThYZ.s 			page 7


 343              	@ 0 "" 2
 344              	.LVL26:
 345              		.loc 4 546 3 is_stmt 0 view .LVU80
 346              		.thumb
 347              		.syntax unified
 348              	.LBE89:
 349              	.LBE88:
 350              	.LBE90:
 351              		.loc 2 349 3 is_stmt 1 view .LVU81
 352              	.LBE91:
 353              	.LBE93:
 354              		.loc 1 124 8 is_stmt 0 view .LVU82
 355 0014 1B4C     		ldr	r4, .L22+4
 356              	.LBB94:
 357              	.LBB92:
 358              		.loc 2 349 3 view .LVU83
 359 0016 FFF7FEFF 		bl	_stats_start_measure_crit_thd
 360              	.LVL27:
 361              		.loc 2 350 3 is_stmt 1 view .LVU84
 362 001a FFF7FEFF 		bl	_dbg_check_lock
 363              	.LVL28:
 364              	.LBE92:
 365              	.LBE94:
 366              		.loc 1 124 3 view .LVU85
 367              		.loc 1 124 8 is_stmt 0 view .LVU86
 368 001e A569     		ldr	r5, [r4, #24]
 369              	.LVL29:
 370              	.LBB95:
 371              	.LBI95:
 372              		.file 6 ".//ChibiOS//os/rt/include/chmsg.h"
 373              		.loc 6 79 20 is_stmt 1 view .LVU87
 374              	.LBB96:
 375              		.loc 6 81 3 view .LVU88
 376 0020 FFF7FEFF 		bl	chDbgCheckClassI
 377              	.LVL30:
 378              		.loc 6 83 3 view .LVU89
 379              		.loc 6 83 3 is_stmt 0 view .LVU90
 380              	.LBE96:
 381              	.LBE95:
 382              		.loc 1 124 6 view .LVU91
 383 0024 2B6B     		ldr	r3, [r5, #48]
 384              	.LBB98:
 385              	.LBB97:
 386              		.loc 6 83 54 view .LVU92
 387 0026 3035     		adds	r5, r5, #48
 388              	.LBE97:
 389              	.LBE98:
 390              		.loc 1 124 6 view .LVU93
 391 0028 AB42     		cmp	r3, r5
 392 002a 23D0     		beq	.L19
 393              	.L15:
 394              		.loc 1 127 3 is_stmt 1 view .LVU94
 395              		.loc 1 127 27 is_stmt 0 view .LVU95
 396 002c A369     		ldr	r3, [r4, #24]
 397              	.LVL31:
 398              	.LBB99:
 399              	.LBI99:
ARM GAS  /tmp/ccyjThYZ.s 			page 8


 400              		.loc 5 671 25 is_stmt 1 view .LVU96
 401              	.LBB100:
 402              		.loc 5 672 3 view .LVU97
 403              		.loc 5 672 13 is_stmt 0 view .LVU98
 404 002e 1D6B     		ldr	r5, [r3, #48]
 405              	.LVL32:
 406              		.loc 5 674 3 is_stmt 1 view .LVU99
 407              		.loc 5 674 19 is_stmt 0 view .LVU100
 408 0030 2A68     		ldr	r2, [r5]
 409              		.loc 5 674 15 view .LVU101
 410 0032 43F8302F 		str	r2, [r3, #48]!
 411              	.LVL33:
 412              		.loc 5 675 3 is_stmt 1 view .LVU102
 413              	.LBE100:
 414              	.LBE99:
 415              		.loc 1 128 15 is_stmt 0 view .LVU103
 416 0036 0D21     		movs	r1, #13
 417              	.LBB102:
 418              	.LBB101:
 419              		.loc 5 675 23 view .LVU104
 420 0038 5360     		str	r3, [r2, #4]
 421              		.loc 5 677 3 is_stmt 1 view .LVU105
 422              	.LVL34:
 423              		.loc 5 677 3 is_stmt 0 view .LVU106
 424              	.LBE101:
 425              	.LBE102:
 426              		.loc 1 128 3 is_stmt 1 view .LVU107
 427              		.loc 1 128 15 is_stmt 0 view .LVU108
 428 003a 85F82010 		strb	r1, [r5, #32]
 429              		.loc 1 129 3 is_stmt 1 view .LVU109
 430              	.LBB103:
 431              	.LBI103:
 432              		.loc 2 358 20 view .LVU110
 433              	.LBB104:
 434              		.loc 2 360 3 view .LVU111
 435 003e FFF7FEFF 		bl	_dbg_check_unlock
 436              	.LVL35:
 437              		.loc 2 361 3 view .LVU112
 438 0042 FFF7FEFF 		bl	_stats_stop_measure_crit_thd
 439              	.LVL36:
 440              		.loc 2 367 3 view .LVU113
 441              		.loc 2 367 3 view .LVU114
 442              		.loc 2 367 3 view .LVU115
 443 0046 2368     		ldr	r3, [r4]
 444 0048 A342     		cmp	r3, r4
 445 004a 04D0     		beq	.L16
 446 004c A269     		ldr	r2, [r4, #24]
 447 004e 9B68     		ldr	r3, [r3, #8]
 448 0050 9268     		ldr	r2, [r2, #8]
 449 0052 9A42     		cmp	r2, r3
 450 0054 0AD3     		bcc	.L20
 451              	.L16:
 452              		.loc 2 367 3 view .LVU116
 453              		.loc 2 371 3 view .LVU117
 454              	.LBB105:
 455              	.LBI105:
 456              		.loc 3 458 20 view .LVU118
ARM GAS  /tmp/ccyjThYZ.s 			page 9


 457              	.LBE105:
 458              	.LBE104:
 459              	.LBE103:
 460              		.loc 3 461 3 view .LVU119
 461              	.LVL37:
 462              	.LBB111:
 463              	.LBB109:
 464              	.LBB108:
 465              	.LBB106:
 466              	.LBI106:
 467              		.loc 4 544 57 view .LVU120
 468              	.LBB107:
 469              		.loc 4 546 3 view .LVU121
 470 0056 0023     		movs	r3, #0
 471              		.syntax unified
 472              	@ 546 ".//ChibiOS//os/ext/CMSIS/include/core_cmFunc.h" 1
 473 0058 83F31188 		MSR basepri, r3
 474              	@ 0 "" 2
 475              	.LVL38:
 476              		.loc 4 546 3 is_stmt 0 view .LVU122
 477              		.thumb
 478              		.syntax unified
 479              	.LBE107:
 480              	.LBE106:
 481              	.LBE108:
 482              	.LBE109:
 483              	.LBE111:
 484              		.loc 1 131 3 is_stmt 1 view .LVU123
 485              		.loc 1 132 1 is_stmt 0 view .LVU124
 486 005c 084B     		ldr	r3, .L22
 487 005e 1A68     		ldr	r2, [r3]
 488 0060 019B     		ldr	r3, [sp, #4]
 489 0062 5A40     		eors	r2, r3, r2
 490 0064 0AD1     		bne	.L21
 491 0066 2846     		mov	r0, r5
 492 0068 03B0     		add	sp, sp, #12
 493              		.cfi_remember_state
 494              		.cfi_def_cfa_offset 12
 495              		@ sp needed
 496 006a 30BD     		pop	{r4, r5, pc}
 497              	.LVL39:
 498              	.L20:
 499              		.cfi_restore_state
 500              	.LBB112:
 501              	.LBB110:
 502              		.loc 2 367 3 is_stmt 1 view .LVU125
 503 006c 0648     		ldr	r0, .L22+8
 504 006e FFF7FEFF 		bl	chSysHalt
 505              	.LVL40:
 506 0072 F0E7     		b	.L16
 507              	.LVL41:
 508              	.L19:
 509              		.loc 2 367 3 is_stmt 0 view .LVU126
 510              	.LBE110:
 511              	.LBE112:
 512              		.loc 1 125 5 is_stmt 1 view .LVU127
 513 0074 0E20     		movs	r0, #14
ARM GAS  /tmp/ccyjThYZ.s 			page 10


 514 0076 FFF7FEFF 		bl	chSchGoSleepS
 515              	.LVL42:
 516 007a D7E7     		b	.L15
 517              	.LVL43:
 518              	.L21:
 519              		.loc 1 132 1 is_stmt 0 view .LVU128
 520 007c FFF7FEFF 		bl	__stack_chk_fail
 521              	.LVL44:
 522              	.L23:
 523              		.align	2
 524              	.L22:
 525 0080 00000000 		.word	.LC1
 526 0084 00000000 		.word	ch
 527 0088 00000000 		.word	.LANCHOR1
 528              		.cfi_endproc
 529              	.LFE220:
 530              		.size	chMsgWait, .-chMsgWait
 531              		.section	.rodata.chMsgRelease.cst4,"aM",%progbits,4
 532              		.align	2
 533              	.LC2:
 534 0000 00000000 		.word	__stack_chk_guard
 535              		.section	.text.chMsgRelease,"ax",%progbits
 536              		.align	1
 537              		.p2align 4,,15
 538              		.global	chMsgRelease
 539              		.syntax unified
 540              		.thumb
 541              		.thumb_func
 542              		.fpu fpv4-sp-d16
 543              		.type	chMsgRelease, %function
 544              	chMsgRelease:
 545              	.LVL45:
 546              	.LFB221:
 547              		.loc 1 144 44 is_stmt 1 view -0
 548              		.cfi_startproc
 549              		@ args = 0, pretend = 0, frame = 8
 550              		@ frame_needed = 0, uses_anonymous_args = 0
 551              		.loc 1 144 44 is_stmt 0 view .LVU130
 552 0000 30B5     		push	{r4, r5, lr}
 553              		.cfi_def_cfa_offset 12
 554              		.cfi_offset 4, -12
 555              		.cfi_offset 5, -8
 556              		.cfi_offset 14, -4
 557 0002 1C4B     		ldr	r3, .L34
 558 0004 83B0     		sub	sp, sp, #12
 559              		.cfi_def_cfa_offset 24
 560              		.loc 1 144 44 view .LVU131
 561 0006 1B68     		ldr	r3, [r3]
 562 0008 0193     		str	r3, [sp, #4]
 563 000a 4FF00003 		mov	r3,#0
 564              		.loc 1 146 3 is_stmt 1 view .LVU132
 565              	.LBB125:
 566              	.LBI125:
 567              		.loc 2 346 20 view .LVU133
 568              	.LBB126:
 569              		.loc 2 348 3 view .LVU134
 570              	.LBB127:
ARM GAS  /tmp/ccyjThYZ.s 			page 11


 571              	.LBI127:
 572              		.loc 3 444 20 view .LVU135
 573              	.LBE127:
 574              	.LBE126:
 575              	.LBE125:
 576              		.loc 3 447 3 view .LVU136
 577              	.LVL46:
 578              	.LBB136:
 579              	.LBB134:
 580              	.LBB132:
 581              	.LBB128:
 582              	.LBI128:
 583              		.loc 4 544 57 view .LVU137
 584              	.LBB129:
 585              		.loc 4 546 3 view .LVU138
 586              	.LBE129:
 587              	.LBE128:
 588              	.LBE132:
 589              	.LBE134:
 590              	.LBE136:
 591              		.loc 1 144 44 is_stmt 0 view .LVU139
 592 000e 0446     		mov	r4, r0
 593 0010 0D46     		mov	r5, r1
 594              	.LBB137:
 595              	.LBB135:
 596              	.LBB133:
 597              	.LBB131:
 598              	.LBB130:
 599              		.loc 4 546 3 view .LVU140
 600 0012 2023     		movs	r3, #32
 601              		.syntax unified
 602              	@ 546 ".//ChibiOS//os/ext/CMSIS/include/core_cmFunc.h" 1
 603 0014 83F31188 		MSR basepri, r3
 604              	@ 0 "" 2
 605              	.LVL47:
 606              		.loc 4 546 3 view .LVU141
 607              		.thumb
 608              		.syntax unified
 609              	.LBE130:
 610              	.LBE131:
 611              	.LBE133:
 612              		.loc 2 349 3 is_stmt 1 view .LVU142
 613 0018 FFF7FEFF 		bl	_stats_start_measure_crit_thd
 614              	.LVL48:
 615              		.loc 2 350 3 view .LVU143
 616 001c FFF7FEFF 		bl	_dbg_check_lock
 617              	.LVL49:
 618              	.LBE135:
 619              	.LBE137:
 620              		.loc 1 147 3 view .LVU144
 621              		.loc 1 147 3 view .LVU145
 622              		.loc 1 147 3 view .LVU146
 623 0020 94F82030 		ldrb	r3, [r4, #32]	@ zero_extendqisi2
 624 0024 0D2B     		cmp	r3, #13
 625 0026 02D0     		beq	.L25
 626              		.loc 1 147 3 discriminator 3 view .LVU147
 627 0028 1348     		ldr	r0, .L34+4
ARM GAS  /tmp/ccyjThYZ.s 			page 12


 628 002a FFF7FEFF 		bl	chSysHalt
 629              	.LVL50:
 630              	.L25:
 631              		.loc 1 147 3 discriminator 5 view .LVU148
 632              		.loc 1 148 3 discriminator 5 view .LVU149
 633              	.LBB138:
 634              	.LBI138:
 635              		.loc 6 111 20 discriminator 5 view .LVU150
 636              	.LBB139:
 637              		.loc 6 113 3 discriminator 5 view .LVU151
 638 002e FFF7FEFF 		bl	chDbgCheckClassS
 639              	.LVL51:
 640              		.loc 6 115 3 discriminator 5 view .LVU152
 641 0032 2946     		mov	r1, r5
 642 0034 2046     		mov	r0, r4
 643 0036 FFF7FEFF 		bl	chSchWakeupS
 644              	.LVL52:
 645              		.loc 6 115 3 is_stmt 0 discriminator 5 view .LVU153
 646              	.LBE139:
 647              	.LBE138:
 648              		.loc 1 149 3 is_stmt 1 discriminator 5 view .LVU154
 649              	.LBB140:
 650              	.LBI140:
 651              		.loc 2 358 20 discriminator 5 view .LVU155
 652              	.LBB141:
 653              		.loc 2 360 3 discriminator 5 view .LVU156
 654 003a FFF7FEFF 		bl	_dbg_check_unlock
 655              	.LVL53:
 656              		.loc 2 361 3 discriminator 5 view .LVU157
 657 003e FFF7FEFF 		bl	_stats_stop_measure_crit_thd
 658              	.LVL54:
 659              		.loc 2 367 3 discriminator 5 view .LVU158
 660              		.loc 2 367 3 discriminator 5 view .LVU159
 661              		.loc 2 367 3 discriminator 5 view .LVU160
 662 0042 0E4B     		ldr	r3, .L34+8
 663 0044 1A68     		ldr	r2, [r3]
 664 0046 9A42     		cmp	r2, r3
 665 0048 04D0     		beq	.L26
 666              		.loc 2 367 3 is_stmt 0 view .LVU161
 667 004a 9969     		ldr	r1, [r3, #24]
 668 004c 9368     		ldr	r3, [r2, #8]
 669 004e 8A68     		ldr	r2, [r1, #8]
 670 0050 9A42     		cmp	r2, r3
 671 0052 09D3     		bcc	.L32
 672              	.L26:
 673              		.loc 2 367 3 is_stmt 1 view .LVU162
 674              		.loc 2 371 3 view .LVU163
 675              	.LBB142:
 676              	.LBI142:
 677              		.loc 3 458 20 view .LVU164
 678              	.LBE142:
 679              	.LBE141:
 680              	.LBE140:
 681              		.loc 3 461 3 view .LVU165
 682              	.LVL55:
 683              	.LBB148:
 684              	.LBB146:
ARM GAS  /tmp/ccyjThYZ.s 			page 13


 685              	.LBB145:
 686              	.LBB143:
 687              	.LBI143:
 688              		.loc 4 544 57 view .LVU166
 689              	.LBB144:
 690              		.loc 4 546 3 view .LVU167
 691 0054 0023     		movs	r3, #0
 692              		.syntax unified
 693              	@ 546 ".//ChibiOS//os/ext/CMSIS/include/core_cmFunc.h" 1
 694 0056 83F31188 		MSR basepri, r3
 695              	@ 0 "" 2
 696              	.LVL56:
 697              		.loc 4 546 3 is_stmt 0 view .LVU168
 698              		.thumb
 699              		.syntax unified
 700              	.LBE144:
 701              	.LBE143:
 702              	.LBE145:
 703              	.LBE146:
 704              	.LBE148:
 705              		.loc 1 150 1 view .LVU169
 706 005a 064B     		ldr	r3, .L34
 707 005c 1A68     		ldr	r2, [r3]
 708 005e 019B     		ldr	r3, [sp, #4]
 709 0060 5A40     		eors	r2, r3, r2
 710 0062 05D1     		bne	.L33
 711 0064 03B0     		add	sp, sp, #12
 712              		.cfi_remember_state
 713              		.cfi_def_cfa_offset 12
 714              		@ sp needed
 715 0066 30BD     		pop	{r4, r5, pc}
 716              	.LVL57:
 717              	.L32:
 718              		.cfi_restore_state
 719              	.LBB149:
 720              	.LBB147:
 721              		.loc 2 367 3 is_stmt 1 view .LVU170
 722 0068 0548     		ldr	r0, .L34+12
 723 006a FFF7FEFF 		bl	chSysHalt
 724              	.LVL58:
 725 006e F1E7     		b	.L26
 726              	.L33:
 727              	.LBE147:
 728              	.LBE149:
 729              		.loc 1 150 1 is_stmt 0 view .LVU171
 730 0070 FFF7FEFF 		bl	__stack_chk_fail
 731              	.LVL59:
 732              	.L35:
 733              		.align	2
 734              	.L34:
 735 0074 00000000 		.word	.LC2
 736 0078 00000000 		.word	.LANCHOR2
 737 007c 00000000 		.word	ch
 738 0080 00000000 		.word	.LANCHOR1
 739              		.cfi_endproc
 740              	.LFE221:
 741              		.size	chMsgRelease, .-chMsgRelease
ARM GAS  /tmp/ccyjThYZ.s 			page 14


 742              		.section	.rodata.__func__.7261,"a"
 743              		.align	2
 744              		.set	.LANCHOR1,. + 0
 745              		.type	__func__.7261, %object
 746              		.size	__func__.7261, 12
 747              	__func__.7261:
 748 0000 63685379 		.ascii	"chSysUnlock\000"
 748      73556E6C 
 748      6F636B00 
 749              		.section	.rodata.__func__.7959,"a"
 750              		.align	2
 751              		.set	.LANCHOR0,. + 0
 752              		.type	__func__.7959, %object
 753              		.size	__func__.7959, 10
 754              	__func__.7959:
 755 0000 63684D73 		.ascii	"chMsgSend\000"
 755      6753656E 
 755      6400
 756              		.section	.rodata.__func__.7968,"a"
 757              		.align	2
 758              		.set	.LANCHOR2,. + 0
 759              		.type	__func__.7968, %object
 760              		.size	__func__.7968, 13
 761              	__func__.7968:
 762 0000 63684D73 		.ascii	"chMsgRelease\000"
 762      6752656C 
 762      65617365 
 762      00
 763              		.text
 764              	.Letext0:
 765              		.file 7 "/usr/lib/gcc/arm-none-eabi/9.2.1/include/stdint.h"
 766              		.file 8 ".//ChibiOS//os/rt/ports/ARMCMx/compilers/GCC/chtypes.h"
 767              		.file 9 ".//ChibiOS//os/rt/include/chsystypes.h"
 768              		.file 10 ".//ChibiOS//os/ext/CMSIS/include/core_cm4.h"
 769              		.file 11 ".//ChibiOS//os/ext/CMSIS/ST/system_stm32f4xx.h"
 770              		.file 12 ".//ChibiOS//os/rt/ports/ARMCMx/chcore.h"
 771              		.file 13 ".//ChibiOS//os/rt/include/chdebug.h"
 772              		.file 14 ".//ChibiOS//os/rt/include/chtm.h"
 773              		.file 15 ".//ChibiOS//os/rt/include/chstats.h"
 774              		.file 16 ".//ChibiOS//os/rt/include/chsem.h"
 775              		.file 17 ".//ChibiOS//os/rt/include/chmtx.h"
 776              		.file 18 ".//ChibiOS//os/rt/include/chregistry.h"