ARM GAS  /tmp/ccDUt0w2.s 			page 1


   1              		.cpu cortex-m4
   2              		.eabi_attribute 27, 1
   3              		.eabi_attribute 28, 1
   4              		.eabi_attribute 20, 1
   5              		.eabi_attribute 21, 1
   6              		.eabi_attribute 23, 3
   7              		.eabi_attribute 24, 1
   8              		.eabi_attribute 25, 1
   9              		.eabi_attribute 26, 1
  10              		.eabi_attribute 30, 2
  11              		.eabi_attribute 34, 1
  12              		.eabi_attribute 18, 4
  13              		.file	"chmtx.c"
  14              		.text
  15              	.Ltext0:
  16              		.cfi_sections	.debug_frame
  17              		.section	.rodata.chMtxObjectInit.cst4,"aM",%progbits,4
  18              		.align	2
  19              	.LC0:
  20 0000 00000000 		.word	__stack_chk_guard
  21              		.section	.text.chMtxObjectInit,"ax",%progbits
  22              		.align	1
  23              		.p2align 4,,15
  24              		.global	chMtxObjectInit
  25              		.arch armv7e-m
  26              		.syntax unified
  27              		.thumb
  28              		.thumb_func
  29              		.fpu fpv4-sp-d16
  30              		.type	chMtxObjectInit, %function
  31              	chMtxObjectInit:
  32              	.LVL0:
  33              	.LFB219:
  34              		.file 1 ".//ChibiOS//os/rt/src/chmtx.c"
  35              		.loc 1 103 35 view -0
  36              		.cfi_startproc
  37              		@ args = 0, pretend = 0, frame = 8
  38              		@ frame_needed = 0, uses_anonymous_args = 0
  39              		.loc 1 103 35 is_stmt 0 view .LVU1
  40 0000 10B5     		push	{r4, lr}
  41              		.cfi_def_cfa_offset 8
  42              		.cfi_offset 4, -8
  43              		.cfi_offset 14, -4
  44 0002 0D4B     		ldr	r3, .L8
  45 0004 82B0     		sub	sp, sp, #8
  46              		.cfi_def_cfa_offset 16
  47              		.loc 1 103 35 view .LVU2
  48 0006 1B68     		ldr	r3, [r3]
  49 0008 0193     		str	r3, [sp, #4]
  50 000a 4FF00003 		mov	r3,#0
  51              		.loc 1 105 3 is_stmt 1 view .LVU3
  52              		.loc 1 105 3 view .LVU4
  53              		.loc 1 105 3 view .LVU5
  54 000e 0446     		mov	r4, r0
  55 0010 58B1     		cbz	r0, .L6
  56              	.LVL1:
  57              	.L2:
ARM GAS  /tmp/ccDUt0w2.s 			page 2


  58              		.loc 1 105 3 discriminator 5 view .LVU6
  59              		.loc 1 107 3 discriminator 5 view .LVU7
  60              	.LBB81:
  61              	.LBI81:
  62              		.file 2 ".//ChibiOS//os/rt/include/chschd.h"
  63              		.loc 2 602 20 discriminator 5 view .LVU8
  64              	.LBB82:
  65              		.loc 2 604 3 discriminator 5 view .LVU9
  66              	.LBE82:
  67              	.LBE81:
  68              		.loc 1 108 15 is_stmt 0 discriminator 5 view .LVU10
  69 0012 0023     		movs	r3, #0
  70 0014 C4E90143 		strd	r4, r3, [r4, #4]
  71              		.loc 1 110 13 discriminator 5 view .LVU11
  72 0018 2361     		str	r3, [r4, #16]
  73              		.loc 1 112 1 discriminator 5 view .LVU12
  74 001a 074B     		ldr	r3, .L8
  75              	.LBB84:
  76              	.LBB83:
  77              		.loc 2 604 15 discriminator 5 view .LVU13
  78 001c 2460     		str	r4, [r4]
  79              		.loc 2 605 3 is_stmt 1 discriminator 5 view .LVU14
  80              	.LBE83:
  81              	.LBE84:
  82              		.loc 1 110 3 discriminator 5 view .LVU15
  83              		.loc 1 112 1 is_stmt 0 discriminator 5 view .LVU16
  84 001e 1A68     		ldr	r2, [r3]
  85 0020 019B     		ldr	r3, [sp, #4]
  86 0022 5A40     		eors	r2, r3, r2
  87 0024 05D1     		bne	.L7
  88              		.loc 1 112 1 view .LVU17
  89 0026 02B0     		add	sp, sp, #8
  90              		.cfi_remember_state
  91              		.cfi_def_cfa_offset 8
  92              		@ sp needed
  93 0028 10BD     		pop	{r4, pc}
  94              	.LVL2:
  95              	.L6:
  96              		.cfi_restore_state
  97              		.loc 1 105 3 is_stmt 1 discriminator 3 view .LVU18
  98 002a 0448     		ldr	r0, .L8+4
  99              	.LVL3:
 100              		.loc 1 105 3 is_stmt 0 discriminator 3 view .LVU19
 101 002c FFF7FEFF 		bl	chSysHalt
 102              	.LVL4:
 103 0030 EFE7     		b	.L2
 104              	.LVL5:
 105              	.L7:
 106              		.loc 1 112 1 view .LVU20
 107 0032 FFF7FEFF 		bl	__stack_chk_fail
 108              	.LVL6:
 109              	.L9:
 110 0036 00BF     		.align	2
 111              	.L8:
 112 0038 00000000 		.word	.LC0
 113 003c 00000000 		.word	.LANCHOR0
 114              		.cfi_endproc
ARM GAS  /tmp/ccDUt0w2.s 			page 3


 115              	.LFE219:
 116              		.size	chMtxObjectInit, .-chMtxObjectInit
 117              		.section	.rodata.chMtxLockS.cst4,"aM",%progbits,4
 118              		.align	2
 119              	.LC1:
 120 0000 00000000 		.word	__stack_chk_guard
 121              		.section	.text.chMtxLockS,"ax",%progbits
 122              		.align	1
 123              		.p2align 4,,15
 124              		.global	chMtxLockS
 125              		.syntax unified
 126              		.thumb
 127              		.thumb_func
 128              		.fpu fpv4-sp-d16
 129              		.type	chMtxLockS, %function
 130              	chMtxLockS:
 131              	.LVL7:
 132              	.LFB221:
 133              		.loc 1 139 30 is_stmt 1 view -0
 134              		.cfi_startproc
 135              		@ args = 0, pretend = 0, frame = 8
 136              		@ frame_needed = 0, uses_anonymous_args = 0
 137              		.loc 1 139 30 is_stmt 0 view .LVU22
 138 0000 70B5     		push	{r4, r5, r6, lr}
 139              		.cfi_def_cfa_offset 16
 140              		.cfi_offset 4, -16
 141              		.cfi_offset 5, -12
 142              		.cfi_offset 6, -8
 143              		.cfi_offset 14, -4
 144              		.loc 1 140 13 view .LVU23
 145 0002 564B     		ldr	r3, .L54
 146              		.loc 1 139 30 view .LVU24
 147 0004 564A     		ldr	r2, .L54+4
 148              		.loc 1 140 13 view .LVU25
 149 0006 9D69     		ldr	r5, [r3, #24]
 150              		.loc 1 139 30 view .LVU26
 151 0008 82B0     		sub	sp, sp, #8
 152              		.cfi_def_cfa_offset 24
 153              		.loc 1 139 30 view .LVU27
 154 000a 0446     		mov	r4, r0
 155 000c 1268     		ldr	r2, [r2]
 156 000e 0192     		str	r2, [sp, #4]
 157 0010 4FF00002 		mov	r2,#0
 158              		.loc 1 140 3 is_stmt 1 view .LVU28
 159              	.LVL8:
 160              		.loc 1 142 3 view .LVU29
 161 0014 FFF7FEFF 		bl	chDbgCheckClassS
 162              	.LVL9:
 163              		.loc 1 143 3 view .LVU30
 164              		.loc 1 143 3 view .LVU31
 165              		.loc 1 143 3 view .LVU32
 166 0018 002C     		cmp	r4, #0
 167 001a 63D0     		beq	.L46
 168              	.L11:
 169              		.loc 1 143 3 discriminator 5 view .LVU33
 170              		.loc 1 146 3 discriminator 5 view .LVU34
 171              		.loc 1 146 9 is_stmt 0 discriminator 5 view .LVU35
ARM GAS  /tmp/ccDUt0w2.s 			page 4


 172 001c A068     		ldr	r0, [r4, #8]
 173              		.loc 1 149 5 discriminator 5 view .LVU36
 174 001e 2369     		ldr	r3, [r4, #16]
 175              		.loc 1 146 6 discriminator 5 view .LVU37
 176 0020 0028     		cmp	r0, #0
 177 0022 46D0     		beq	.L12
 178              		.loc 1 149 5 is_stmt 1 discriminator 1 view .LVU38
 179              		.loc 1 149 5 discriminator 1 view .LVU39
 180              		.loc 1 149 5 discriminator 1 view .LVU40
 181 0024 002B     		cmp	r3, #0
 182 0026 58DD     		ble	.L47
 183              	.L13:
 184              		.loc 1 149 5 discriminator 5 view .LVU41
 185              		.loc 1 153 5 discriminator 5 view .LVU42
 186              		.loc 1 153 8 is_stmt 0 discriminator 5 view .LVU43
 187 0028 8542     		cmp	r5, r0
 188 002a 38D0     		beq	.L48
 189              	.LVL10:
 190              	.LBB85:
 191              		.loc 1 165 13 is_stmt 1 view .LVU44
 192              		.loc 1 165 30 is_stmt 0 view .LVU45
 193 002c AA68     		ldr	r2, [r5, #8]
 194              		.loc 1 165 13 view .LVU46
 195 002e 8368     		ldr	r3, [r0, #8]
 196 0030 9A42     		cmp	r2, r3
 197 0032 08D9     		bls	.L19
 198              	.LVL11:
 199              	.L22:
 200              		.loc 1 167 9 is_stmt 1 view .LVU47
 201              		.loc 1 170 19 is_stmt 0 view .LVU48
 202 0034 90F82030 		ldrb	r3, [r0, #32]	@ zero_extendqisi2
 203              		.loc 1 167 20 view .LVU49
 204 0038 8260     		str	r2, [r0, #8]
 205              		.loc 1 170 9 is_stmt 1 view .LVU50
 206 003a 062B     		cmp	r3, #6
 207 003c 6BD0     		beq	.L16
 208 003e 072B     		cmp	r3, #7
 209 0040 54D0     		beq	.L17
 210 0042 002B     		cmp	r3, #0
 211 0044 3ED0     		beq	.L49
 212              	.LVL12:
 213              	.L19:
 214              		.loc 1 212 7 view .LVU51
 215              	.LBB86:
 216              	.LBI86:
 217              		.loc 2 651 20 view .LVU52
 218              	.LBB87:
 219              		.loc 2 653 3 view .LVU53
 220              		.loc 2 653 13 is_stmt 0 view .LVU54
 221 0046 2346     		mov	r3, r4
 222 0048 03E0     		b	.L27
 223              	.LVL13:
 224              	.L50:
 225              		.loc 2 656 36 view .LVU55
 226 004a 9968     		ldr	r1, [r3, #8]
 227 004c AA68     		ldr	r2, [r5, #8]
 228 004e 9142     		cmp	r1, r2
ARM GAS  /tmp/ccDUt0w2.s 			page 5


 229 0050 02D3     		bcc	.L26
 230              	.L27:
 231              		.loc 2 654 3 is_stmt 1 view .LVU56
 232              		.loc 2 655 5 view .LVU57
 233              		.loc 2 655 8 is_stmt 0 view .LVU58
 234 0052 1B68     		ldr	r3, [r3]
 235              	.LVL14:
 236              		.loc 2 656 11 is_stmt 1 view .LVU59
 237              		.loc 2 656 3 is_stmt 0 view .LVU60
 238 0054 9C42     		cmp	r4, r3
 239 0056 F8D1     		bne	.L50
 240              	.L26:
 241              		.loc 2 657 3 is_stmt 1 view .LVU61
 242              		.loc 2 657 14 is_stmt 0 view .LVU62
 243 0058 2B60     		str	r3, [r5]
 244              		.loc 2 658 3 is_stmt 1 view .LVU63
 245              		.loc 2 658 18 is_stmt 0 view .LVU64
 246 005a 5A68     		ldr	r2, [r3, #4]
 247              		.loc 2 658 14 view .LVU65
 248 005c 6A60     		str	r2, [r5, #4]
 249              		.loc 2 659 3 is_stmt 1 view .LVU66
 250              	.LBE87:
 251              	.LBE86:
 252              		.loc 1 214 7 is_stmt 0 view .LVU67
 253 005e 0620     		movs	r0, #6
 254              	.LBB89:
 255              	.LBB88:
 256              		.loc 2 659 22 view .LVU68
 257 0060 1560     		str	r5, [r2]
 258              		.loc 2 660 3 is_stmt 1 view .LVU69
 259              		.loc 2 660 14 is_stmt 0 view .LVU70
 260 0062 5D60     		str	r5, [r3, #4]
 261              	.LVL15:
 262              		.loc 2 660 14 view .LVU71
 263              	.LBE88:
 264              	.LBE89:
 265              		.loc 1 213 7 is_stmt 1 view .LVU72
 266              		.loc 1 213 23 is_stmt 0 view .LVU73
 267 0064 AC62     		str	r4, [r5, #40]
 268              		.loc 1 214 7 is_stmt 1 view .LVU74
 269 0066 FFF7FEFF 		bl	chSchGoSleepS
 270              	.LVL16:
 271              		.loc 1 218 7 view .LVU75
 272              		.loc 1 218 7 view .LVU76
 273              		.loc 1 218 7 view .LVU77
 274 006a A368     		ldr	r3, [r4, #8]
 275 006c AB42     		cmp	r3, r5
 276 006e 02D0     		beq	.L28
 277              		.loc 1 218 7 discriminator 3 view .LVU78
 278 0070 3C48     		ldr	r0, .L54+8
 279 0072 FFF7FEFF 		bl	chSysHalt
 280              	.LVL17:
 281              	.L28:
 282              		.loc 1 218 7 discriminator 1 view .LVU79
 283              		.loc 1 219 7 discriminator 1 view .LVU80
 284              		.loc 1 219 7 discriminator 1 view .LVU81
 285              		.loc 1 219 7 discriminator 1 view .LVU82
ARM GAS  /tmp/ccDUt0w2.s 			page 6


 286 0076 2B6C     		ldr	r3, [r5, #64]
 287 0078 A342     		cmp	r3, r4
 288 007a 02D0     		beq	.L29
 289              		.loc 1 219 7 discriminator 3 view .LVU83
 290 007c 3948     		ldr	r0, .L54+8
 291 007e FFF7FEFF 		bl	chSysHalt
 292              	.LVL18:
 293              	.L29:
 294              		.loc 1 219 7 discriminator 1 view .LVU84
 295              		.loc 1 221 7 discriminator 1 view .LVU85
 296              		.loc 1 221 7 discriminator 1 view .LVU86
 297              		.loc 1 221 7 discriminator 1 view .LVU87
 298 0082 2369     		ldr	r3, [r4, #16]
 299 0084 012B     		cmp	r3, #1
 300 0086 0DD0     		beq	.L10
 301              		.loc 1 221 7 discriminator 3 view .LVU88
 302 0088 354B     		ldr	r3, .L54+4
 303 008a 1A68     		ldr	r2, [r3]
 304 008c 019B     		ldr	r3, [sp, #4]
 305 008e 5A40     		eors	r2, r3, r2
 306 0090 62D1     		bne	.L45
 307 0092 3448     		ldr	r0, .L54+8
 308              	.LBE85:
 309              		.loc 1 236 1 is_stmt 0 discriminator 3 view .LVU89
 310 0094 02B0     		add	sp, sp, #8
 311              		.cfi_remember_state
 312              		.cfi_def_cfa_offset 16
 313              		@ sp needed
 314 0096 BDE87040 		pop	{r4, r5, r6, lr}
 315              		.cfi_restore 14
 316              		.cfi_restore 6
 317              		.cfi_restore 5
 318              		.cfi_restore 4
 319              		.cfi_def_cfa_offset 0
 320              	.LVL19:
 321              	.LBB102:
 322              		.loc 1 221 7 discriminator 3 view .LVU90
 323 009a FFF7FEBF 		b	chSysHalt
 324              	.LVL20:
 325              	.L48:
 326              		.cfi_restore_state
 327              		.loc 1 221 7 discriminator 3 view .LVU91
 328              	.LBE102:
 329              		.loc 1 154 7 is_stmt 1 view .LVU92
 330              		.loc 1 154 16 is_stmt 0 view .LVU93
 331 009e 2369     		ldr	r3, [r4, #16]
 332 00a0 0133     		adds	r3, r3, #1
 333 00a2 2361     		str	r3, [r4, #16]
 334              	.L10:
 335              		.loc 1 236 1 view .LVU94
 336 00a4 2E4B     		ldr	r3, .L54+4
 337 00a6 1A68     		ldr	r2, [r3]
 338 00a8 019B     		ldr	r3, [sp, #4]
 339 00aa 5A40     		eors	r2, r3, r2
 340 00ac 54D1     		bne	.L45
 341 00ae 02B0     		add	sp, sp, #8
 342              		.cfi_remember_state
ARM GAS  /tmp/ccDUt0w2.s 			page 7


 343              		.cfi_def_cfa_offset 16
 344              		@ sp needed
 345 00b0 70BD     		pop	{r4, r5, r6, pc}
 346              	.LVL21:
 347              	.L12:
 348              		.cfi_restore_state
 349              		.loc 1 227 5 is_stmt 1 discriminator 1 view .LVU95
 350              		.loc 1 227 5 discriminator 1 view .LVU96
 351              		.loc 1 227 5 discriminator 1 view .LVU97
 352 00b2 002B     		cmp	r3, #0
 353 00b4 4BD1     		bne	.L51
 354              	.L31:
 355              		.loc 1 227 5 discriminator 5 view .LVU98
 356              		.loc 1 229 5 discriminator 5 view .LVU99
 357              		.loc 1 229 14 is_stmt 0 discriminator 5 view .LVU100
 358 00b6 0133     		adds	r3, r3, #1
 359              		.loc 1 232 17 discriminator 5 view .LVU101
 360 00b8 A560     		str	r5, [r4, #8]
 361              		.loc 1 229 14 discriminator 5 view .LVU102
 362 00ba 2361     		str	r3, [r4, #16]
 363              		.loc 1 232 5 is_stmt 1 discriminator 5 view .LVU103
 364              		.loc 1 233 5 discriminator 5 view .LVU104
 365              		.loc 1 233 21 is_stmt 0 discriminator 5 view .LVU105
 366 00bc 2B6C     		ldr	r3, [r5, #64]
 367              		.loc 1 233 16 discriminator 5 view .LVU106
 368 00be E360     		str	r3, [r4, #12]
 369              		.loc 1 234 5 is_stmt 1 discriminator 5 view .LVU107
 370              		.loc 1 234 20 is_stmt 0 discriminator 5 view .LVU108
 371 00c0 2C64     		str	r4, [r5, #64]
 372              		.loc 1 236 1 discriminator 5 view .LVU109
 373 00c2 EFE7     		b	.L10
 374              	.LVL22:
 375              	.L49:
 376              	.LBB103:
 377              		.loc 1 199 11 is_stmt 1 view .LVU110
 378              	.LBB90:
 379              	.LBB91:
 380              		.loc 2 691 26 is_stmt 0 view .LVU111
 381 00c4 D0E90032 		ldrd	r3, r2, [r0]
 382              	.LBE91:
 383              	.LBE90:
 384              		.loc 1 199 23 view .LVU112
 385 00c8 0121     		movs	r1, #1
 386 00ca 80F82010 		strb	r1, [r0, #32]
 387              		.loc 1 202 11 is_stmt 1 view .LVU113
 388              	.LVL23:
 389              	.LBB93:
 390              	.LBI90:
 391              		.loc 2 689 25 view .LVU114
 392              	.LBB92:
 393              		.loc 2 691 3 view .LVU115
 394              		.loc 2 691 22 is_stmt 0 view .LVU116
 395 00ce 1360     		str	r3, [r2]
 396              		.loc 2 692 3 is_stmt 1 view .LVU117
 397              		.loc 2 692 26 is_stmt 0 view .LVU118
 398 00d0 4268     		ldr	r2, [r0, #4]
 399              		.loc 2 692 22 view .LVU119
ARM GAS  /tmp/ccDUt0w2.s 			page 8


 400 00d2 5A60     		str	r2, [r3, #4]
 401              		.loc 2 694 3 is_stmt 1 view .LVU120
 402              	.LVL24:
 403              		.loc 2 694 3 is_stmt 0 view .LVU121
 404              	.LBE92:
 405              	.LBE93:
 406              		.loc 1 202 18 view .LVU122
 407 00d4 FFF7FEFF 		bl	chSchReadyI
 408              	.LVL25:
 409              		.loc 1 203 11 is_stmt 1 view .LVU123
 410 00d8 B5E7     		b	.L19
 411              	.L47:
 412              		.loc 1 203 11 is_stmt 0 view .LVU124
 413              	.LBE103:
 414              		.loc 1 149 5 is_stmt 1 discriminator 3 view .LVU125
 415 00da 2248     		ldr	r0, .L54+8
 416 00dc FFF7FEFF 		bl	chSysHalt
 417              	.LVL26:
 418 00e0 A068     		ldr	r0, [r4, #8]
 419 00e2 A1E7     		b	.L13
 420              	.L46:
 421              		.loc 1 143 3 discriminator 3 view .LVU126
 422 00e4 1F48     		ldr	r0, .L54+8
 423 00e6 FFF7FEFF 		bl	chSysHalt
 424              	.LVL27:
 425 00ea 97E7     		b	.L11
 426              	.LVL28:
 427              	.L17:
 428              	.LBB104:
 429              		.loc 1 193 11 view .LVU127
 430              	.LBB94:
 431              	.LBI94:
 432              		.loc 2 689 25 view .LVU128
 433              	.LBB95:
 434              		.loc 2 691 3 view .LVU129
 435              		.loc 2 691 26 is_stmt 0 view .LVU130
 436 00ec D0E90032 		ldrd	r3, r2, [r0]
 437              		.loc 2 691 22 view .LVU131
 438 00f0 1360     		str	r3, [r2]
 439              		.loc 2 692 3 is_stmt 1 view .LVU132
 440              		.loc 2 692 26 is_stmt 0 view .LVU133
 441 00f2 4268     		ldr	r2, [r0, #4]
 442              		.loc 2 692 22 view .LVU134
 443 00f4 5A60     		str	r2, [r3, #4]
 444              		.loc 2 694 3 is_stmt 1 view .LVU135
 445              	.LVL29:
 446              		.loc 2 694 3 is_stmt 0 view .LVU136
 447              	.LBE95:
 448              	.LBE94:
 449              		.loc 1 193 11 view .LVU137
 450 00f6 866A     		ldr	r6, [r0, #40]
 451              	.LVL30:
 452              	.LBB96:
 453              	.LBI96:
 454              		.loc 2 651 20 is_stmt 1 view .LVU138
 455              	.LBB97:
 456              		.loc 2 653 13 is_stmt 0 view .LVU139
ARM GAS  /tmp/ccDUt0w2.s 			page 9


 457 00f8 3346     		mov	r3, r6
 458 00fa 03E0     		b	.L24
 459              	.LVL31:
 460              	.L52:
 461              		.loc 2 656 36 view .LVU140
 462 00fc 9968     		ldr	r1, [r3, #8]
 463 00fe 8268     		ldr	r2, [r0, #8]
 464 0100 9142     		cmp	r1, r2
 465 0102 02D3     		bcc	.L23
 466              	.LVL32:
 467              	.L24:
 468              		.loc 2 654 3 is_stmt 1 view .LVU141
 469              		.loc 2 655 5 view .LVU142
 470              		.loc 2 655 8 is_stmt 0 view .LVU143
 471 0104 1B68     		ldr	r3, [r3]
 472              	.LVL33:
 473              		.loc 2 656 11 is_stmt 1 view .LVU144
 474              		.loc 2 656 3 is_stmt 0 view .LVU145
 475 0106 9E42     		cmp	r6, r3
 476 0108 F8D1     		bne	.L52
 477              	.L23:
 478              		.loc 2 657 3 is_stmt 1 view .LVU146
 479              		.loc 2 657 14 is_stmt 0 view .LVU147
 480 010a 0360     		str	r3, [r0]
 481              		.loc 2 658 3 is_stmt 1 view .LVU148
 482              		.loc 2 658 18 is_stmt 0 view .LVU149
 483 010c 5A68     		ldr	r2, [r3, #4]
 484              		.loc 2 658 14 view .LVU150
 485 010e 4260     		str	r2, [r0, #4]
 486              		.loc 2 659 3 is_stmt 1 view .LVU151
 487              		.loc 2 659 22 is_stmt 0 view .LVU152
 488 0110 1060     		str	r0, [r2]
 489              		.loc 2 660 3 is_stmt 1 view .LVU153
 490              		.loc 2 660 14 is_stmt 0 view .LVU154
 491 0112 5860     		str	r0, [r3, #4]
 492              		.loc 2 661 1 view .LVU155
 493 0114 97E7     		b	.L19
 494              	.LVL34:
 495              	.L16:
 496              		.loc 2 661 1 view .LVU156
 497              	.LBE97:
 498              	.LBE96:
 499              		.loc 1 173 11 is_stmt 1 view .LVU157
 500              	.LBB98:
 501              	.LBI98:
 502              		.loc 2 689 25 view .LVU158
 503              	.LBB99:
 504              		.loc 2 691 3 view .LVU159
 505              		.loc 2 691 26 is_stmt 0 view .LVU160
 506 0116 D0E90032 		ldrd	r3, r2, [r0]
 507              		.loc 2 691 22 view .LVU161
 508 011a 1360     		str	r3, [r2]
 509              		.loc 2 692 3 is_stmt 1 view .LVU162
 510              		.loc 2 692 26 is_stmt 0 view .LVU163
 511 011c 4268     		ldr	r2, [r0, #4]
 512              		.loc 2 692 22 view .LVU164
 513 011e 5A60     		str	r2, [r3, #4]
ARM GAS  /tmp/ccDUt0w2.s 			page 10


 514              		.loc 2 694 3 is_stmt 1 view .LVU165
 515              	.LVL35:
 516              		.loc 2 694 3 is_stmt 0 view .LVU166
 517              	.LBE99:
 518              	.LBE98:
 519              		.loc 1 173 11 view .LVU167
 520 0120 866A     		ldr	r6, [r0, #40]
 521              	.LVL36:
 522              	.LBB100:
 523              	.LBI100:
 524              		.loc 2 651 20 is_stmt 1 view .LVU168
 525              	.LBB101:
 526              		.loc 2 653 13 is_stmt 0 view .LVU169
 527 0122 3346     		mov	r3, r6
 528 0124 03E0     		b	.L21
 529              	.LVL37:
 530              	.L53:
 531              		.loc 2 656 36 view .LVU170
 532 0126 9968     		ldr	r1, [r3, #8]
 533 0128 8268     		ldr	r2, [r0, #8]
 534 012a 9142     		cmp	r1, r2
 535 012c 02D3     		bcc	.L20
 536              	.LVL38:
 537              	.L21:
 538              		.loc 2 654 3 is_stmt 1 view .LVU171
 539              		.loc 2 655 5 view .LVU172
 540              		.loc 2 655 8 is_stmt 0 view .LVU173
 541 012e 1B68     		ldr	r3, [r3]
 542              	.LVL39:
 543              		.loc 2 656 11 is_stmt 1 view .LVU174
 544              		.loc 2 656 3 is_stmt 0 view .LVU175
 545 0130 9E42     		cmp	r6, r3
 546 0132 F8D1     		bne	.L53
 547              	.L20:
 548              		.loc 2 657 3 is_stmt 1 view .LVU176
 549              		.loc 2 657 14 is_stmt 0 view .LVU177
 550 0134 0360     		str	r3, [r0]
 551              		.loc 2 658 3 is_stmt 1 view .LVU178
 552              		.loc 2 658 18 is_stmt 0 view .LVU179
 553 0136 5A68     		ldr	r2, [r3, #4]
 554              		.loc 2 658 14 view .LVU180
 555 0138 4260     		str	r2, [r0, #4]
 556              		.loc 2 659 3 is_stmt 1 view .LVU181
 557              		.loc 2 659 22 is_stmt 0 view .LVU182
 558 013a 1060     		str	r0, [r2]
 559              		.loc 2 660 3 is_stmt 1 view .LVU183
 560              		.loc 2 660 14 is_stmt 0 view .LVU184
 561 013c 5860     		str	r0, [r3, #4]
 562              	.LVL40:
 563              		.loc 2 660 14 view .LVU185
 564              	.LBE101:
 565              	.LBE100:
 566              		.loc 1 174 11 is_stmt 1 view .LVU186
 567              		.loc 1 174 23 is_stmt 0 view .LVU187
 568 013e 836A     		ldr	r3, [r0, #40]
 569              		.loc 1 165 30 view .LVU188
 570 0140 AA68     		ldr	r2, [r5, #8]
ARM GAS  /tmp/ccDUt0w2.s 			page 11


 571              		.loc 1 174 14 view .LVU189
 572 0142 9868     		ldr	r0, [r3, #8]
 573              	.LVL41:
 574              		.loc 1 176 11 is_stmt 1 view .LVU190
 575              		.loc 1 165 13 view .LVU191
 576 0144 8368     		ldr	r3, [r0, #8]
 577 0146 9342     		cmp	r3, r2
 578 0148 FFF474AF 		bcc	.L22
 579 014c 7BE7     		b	.L19
 580              	.LVL42:
 581              	.L51:
 582              		.loc 1 165 13 is_stmt 0 view .LVU192
 583              	.LBE104:
 584              		.loc 1 227 5 is_stmt 1 discriminator 3 view .LVU193
 585 014e 0548     		ldr	r0, .L54+8
 586 0150 FFF7FEFF 		bl	chSysHalt
 587              	.LVL43:
 588 0154 2369     		ldr	r3, [r4, #16]
 589 0156 AEE7     		b	.L31
 590              	.L45:
 591              		.loc 1 236 1 is_stmt 0 view .LVU194
 592 0158 FFF7FEFF 		bl	__stack_chk_fail
 593              	.LVL44:
 594              	.L55:
 595              		.align	2
 596              	.L54:
 597 015c 00000000 		.word	ch
 598 0160 00000000 		.word	.LC1
 599 0164 00000000 		.word	.LANCHOR1
 600              		.cfi_endproc
 601              	.LFE221:
 602              		.size	chMtxLockS, .-chMtxLockS
 603              		.section	.rodata.chMtxLock.cst4,"aM",%progbits,4
 604              		.align	2
 605              	.LC2:
 606 0000 00000000 		.word	__stack_chk_guard
 607              		.section	.text.chMtxLock,"ax",%progbits
 608              		.align	1
 609              		.p2align 4,,15
 610              		.global	chMtxLock
 611              		.syntax unified
 612              		.thumb
 613              		.thumb_func
 614              		.fpu fpv4-sp-d16
 615              		.type	chMtxLock, %function
 616              	chMtxLock:
 617              	.LVL45:
 618              	.LFB220:
 619              		.loc 1 123 29 is_stmt 1 view -0
 620              		.cfi_startproc
 621              		@ args = 0, pretend = 0, frame = 16
 622              		@ frame_needed = 0, uses_anonymous_args = 0
 623              		.loc 1 123 29 is_stmt 0 view .LVU196
 624 0000 00B5     		push	{lr}
 625              		.cfi_def_cfa_offset 4
 626              		.cfi_offset 14, -4
 627 0002 85B0     		sub	sp, sp, #20
ARM GAS  /tmp/ccDUt0w2.s 			page 12


 628              		.cfi_def_cfa_offset 24
 629              		.loc 1 123 29 view .LVU197
 630 0004 164B     		ldr	r3, .L62
 631 0006 0190     		str	r0, [sp, #4]
 632 0008 1B68     		ldr	r3, [r3]
 633 000a 0393     		str	r3, [sp, #12]
 634 000c 4FF00003 		mov	r3,#0
 635              		.loc 1 125 3 is_stmt 1 view .LVU198
 636              	.LBB115:
 637              	.LBI115:
 638              		.file 3 ".//ChibiOS//os/rt/include/chsys.h"
 639              		.loc 3 346 20 view .LVU199
 640              	.LBB116:
 641              		.loc 3 348 3 view .LVU200
 642              	.LBB117:
 643              	.LBI117:
 644              		.file 4 ".//ChibiOS//os/rt/ports/ARMCMx/chcore_v7m.h"
 645              		.loc 4 444 20 view .LVU201
 646              	.LBE117:
 647              	.LBE116:
 648              	.LBE115:
 649              		.loc 4 447 3 view .LVU202
 650              	.LVL46:
 651              	.LBB122:
 652              	.LBB121:
 653              	.LBB120:
 654              	.LBB118:
 655              	.LBI118:
 656              		.file 5 ".//ChibiOS//os/ext/CMSIS/include/core_cmFunc.h"
 657              		.loc 5 544 57 view .LVU203
 658              	.LBB119:
 659              		.loc 5 546 3 view .LVU204
 660 0010 2023     		movs	r3, #32
 661              		.syntax unified
 662              	@ 546 ".//ChibiOS//os/ext/CMSIS/include/core_cmFunc.h" 1
 663 0012 83F31188 		MSR basepri, r3
 664              	@ 0 "" 2
 665              	.LVL47:
 666              		.loc 5 546 3 is_stmt 0 view .LVU205
 667              		.thumb
 668              		.syntax unified
 669              	.LBE119:
 670              	.LBE118:
 671              	.LBE120:
 672              		.loc 3 349 3 is_stmt 1 view .LVU206
 673 0016 FFF7FEFF 		bl	_stats_start_measure_crit_thd
 674              	.LVL48:
 675              		.loc 3 350 3 view .LVU207
 676 001a FFF7FEFF 		bl	_dbg_check_lock
 677              	.LVL49:
 678              	.LBE121:
 679              	.LBE122:
 680              		.loc 1 126 3 view .LVU208
 681 001e 0198     		ldr	r0, [sp, #4]
 682 0020 FFF7FEFF 		bl	chMtxLockS
 683              	.LVL50:
 684              		.loc 1 127 3 view .LVU209
ARM GAS  /tmp/ccDUt0w2.s 			page 13


 685              	.LBB123:
 686              	.LBI123:
 687              		.loc 3 358 20 view .LVU210
 688              	.LBB124:
 689              		.loc 3 360 3 view .LVU211
 690 0024 FFF7FEFF 		bl	_dbg_check_unlock
 691              	.LVL51:
 692              		.loc 3 361 3 view .LVU212
 693 0028 FFF7FEFF 		bl	_stats_stop_measure_crit_thd
 694              	.LVL52:
 695              		.loc 3 367 3 view .LVU213
 696              		.loc 3 367 3 view .LVU214
 697              		.loc 3 367 3 view .LVU215
 698 002c 0D4B     		ldr	r3, .L62+4
 699 002e 1A68     		ldr	r2, [r3]
 700 0030 9A42     		cmp	r2, r3
 701 0032 04D0     		beq	.L57
 702 0034 9969     		ldr	r1, [r3, #24]
 703 0036 9368     		ldr	r3, [r2, #8]
 704 0038 8A68     		ldr	r2, [r1, #8]
 705 003a 9A42     		cmp	r2, r3
 706 003c 0AD3     		bcc	.L60
 707              	.L57:
 708              		.loc 3 367 3 view .LVU216
 709              		.loc 3 371 3 view .LVU217
 710              	.LBB125:
 711              	.LBI125:
 712              		.loc 4 458 20 view .LVU218
 713              	.LBE125:
 714              	.LBE124:
 715              	.LBE123:
 716              		.loc 4 461 3 view .LVU219
 717              	.LVL53:
 718              	.LBB131:
 719              	.LBB129:
 720              	.LBB128:
 721              	.LBB126:
 722              	.LBI126:
 723              		.loc 5 544 57 view .LVU220
 724              	.LBB127:
 725              		.loc 5 546 3 view .LVU221
 726 003e 0023     		movs	r3, #0
 727              		.syntax unified
 728              	@ 546 ".//ChibiOS//os/ext/CMSIS/include/core_cmFunc.h" 1
 729 0040 83F31188 		MSR basepri, r3
 730              	@ 0 "" 2
 731              	.LVL54:
 732              		.loc 5 546 3 is_stmt 0 view .LVU222
 733              		.thumb
 734              		.syntax unified
 735              	.LBE127:
 736              	.LBE126:
 737              	.LBE128:
 738              	.LBE129:
 739              	.LBE131:
 740              		.loc 1 128 1 view .LVU223
 741 0044 064B     		ldr	r3, .L62
ARM GAS  /tmp/ccDUt0w2.s 			page 14


 742 0046 1A68     		ldr	r2, [r3]
 743 0048 039B     		ldr	r3, [sp, #12]
 744 004a 5A40     		eors	r2, r3, r2
 745 004c 06D1     		bne	.L61
 746 004e 05B0     		add	sp, sp, #20
 747              		.cfi_remember_state
 748              		.cfi_def_cfa_offset 4
 749              		@ sp needed
 750 0050 5DF804FB 		ldr	pc, [sp], #4
 751              	.LVL55:
 752              	.L60:
 753              		.cfi_restore_state
 754              	.LBB132:
 755              	.LBB130:
 756              		.loc 3 367 3 is_stmt 1 view .LVU224
 757 0054 0448     		ldr	r0, .L62+8
 758 0056 FFF7FEFF 		bl	chSysHalt
 759              	.LVL56:
 760 005a F0E7     		b	.L57
 761              	.L61:
 762              	.LBE130:
 763              	.LBE132:
 764              		.loc 1 128 1 is_stmt 0 view .LVU225
 765 005c FFF7FEFF 		bl	__stack_chk_fail
 766              	.LVL57:
 767              	.L63:
 768              		.align	2
 769              	.L62:
 770 0060 00000000 		.word	.LC2
 771 0064 00000000 		.word	ch
 772 0068 00000000 		.word	.LANCHOR2
 773              		.cfi_endproc
 774              	.LFE220:
 775              		.size	chMtxLock, .-chMtxLock
 776              		.section	.rodata.chMtxTryLockS.cst4,"aM",%progbits,4
 777              		.align	2
 778              	.LC3:
 779 0000 00000000 		.word	__stack_chk_guard
 780              		.section	.text.chMtxTryLockS,"ax",%progbits
 781              		.align	1
 782              		.p2align 4,,15
 783              		.global	chMtxTryLockS
 784              		.syntax unified
 785              		.thumb
 786              		.thumb_func
 787              		.fpu fpv4-sp-d16
 788              		.type	chMtxTryLockS, %function
 789              	chMtxTryLockS:
 790              	.LVL58:
 791              	.LFB223:
 792              		.loc 1 282 33 is_stmt 1 view -0
 793              		.cfi_startproc
 794              		@ args = 0, pretend = 0, frame = 8
 795              		@ frame_needed = 0, uses_anonymous_args = 0
 796              		.loc 1 282 33 is_stmt 0 view .LVU227
 797 0000 10B5     		push	{r4, lr}
 798              		.cfi_def_cfa_offset 8
ARM GAS  /tmp/ccDUt0w2.s 			page 15


 799              		.cfi_offset 4, -8
 800              		.cfi_offset 14, -4
 801 0002 1E4B     		ldr	r3, .L81
 802 0004 82B0     		sub	sp, sp, #8
 803              		.cfi_def_cfa_offset 16
 804              		.loc 1 282 33 view .LVU228
 805 0006 0446     		mov	r4, r0
 806 0008 1B68     		ldr	r3, [r3]
 807 000a 0193     		str	r3, [sp, #4]
 808 000c 4FF00003 		mov	r3,#0
 809              		.loc 1 284 3 is_stmt 1 view .LVU229
 810 0010 FFF7FEFF 		bl	chDbgCheckClassS
 811              	.LVL59:
 812              		.loc 1 285 3 view .LVU230
 813              		.loc 1 285 3 view .LVU231
 814              		.loc 1 285 3 view .LVU232
 815 0014 3CB3     		cbz	r4, .L76
 816              	.L65:
 817              		.loc 1 285 3 discriminator 5 view .LVU233
 818              		.loc 1 287 3 discriminator 5 view .LVU234
 819              		.loc 1 287 9 is_stmt 0 discriminator 5 view .LVU235
 820 0016 A368     		ldr	r3, [r4, #8]
 821              		.loc 1 287 6 discriminator 5 view .LVU236
 822 0018 9BB1     		cbz	r3, .L66
 823              		.loc 1 290 5 is_stmt 1 discriminator 1 view .LVU237
 824              		.loc 1 290 5 discriminator 1 view .LVU238
 825              		.loc 1 290 5 discriminator 1 view .LVU239
 826 001a 2269     		ldr	r2, [r4, #16]
 827 001c 002A     		cmp	r2, #0
 828 001e 1DDD     		ble	.L77
 829              	.L67:
 830              		.loc 1 290 5 discriminator 5 view .LVU240
 831              		.loc 1 292 5 discriminator 5 view .LVU241
 832              		.loc 1 292 24 is_stmt 0 discriminator 5 view .LVU242
 833 0020 174A     		ldr	r2, .L81+4
 834              		.loc 1 292 8 discriminator 5 view .LVU243
 835 0022 9269     		ldr	r2, [r2, #24]
 836 0024 9A42     		cmp	r2, r3
 837 0026 07D0     		beq	.L78
 838              		.loc 1 297 12 view .LVU244
 839 0028 0020     		movs	r0, #0
 840              	.L68:
 841              		.loc 1 309 1 view .LVU245
 842 002a 144B     		ldr	r3, .L81
 843 002c 1A68     		ldr	r2, [r3]
 844 002e 019B     		ldr	r3, [sp, #4]
 845 0030 5A40     		eors	r2, r3, r2
 846 0032 21D1     		bne	.L79
 847 0034 02B0     		add	sp, sp, #8
 848              		.cfi_remember_state
 849              		.cfi_def_cfa_offset 8
 850              		@ sp needed
 851 0036 10BD     		pop	{r4, pc}
 852              	.LVL60:
 853              	.L78:
 854              		.cfi_restore_state
 855              		.loc 1 293 7 is_stmt 1 view .LVU246
ARM GAS  /tmp/ccDUt0w2.s 			page 16


 856              		.loc 1 293 16 is_stmt 0 view .LVU247
 857 0038 2369     		ldr	r3, [r4, #16]
 858 003a 0133     		adds	r3, r3, #1
 859 003c 2361     		str	r3, [r4, #16]
 860              		.loc 1 294 7 is_stmt 1 view .LVU248
 861              		.loc 1 294 14 is_stmt 0 view .LVU249
 862 003e 0120     		movs	r0, #1
 863 0040 F3E7     		b	.L68
 864              	.L66:
 865              	.LVL61:
 866              	.LBB135:
 867              	.LBI135:
 868              		.loc 1 282 6 is_stmt 1 view .LVU250
 869              	.LBB136:
 870              		.loc 1 301 3 view .LVU251
 871              		.loc 1 301 3 view .LVU252
 872              		.loc 1 301 3 view .LVU253
 873 0042 2369     		ldr	r3, [r4, #16]
 874 0044 9BB9     		cbnz	r3, .L80
 875              	.L69:
 876              		.loc 1 301 3 view .LVU254
 877              		.loc 1 303 3 view .LVU255
 878              		.loc 1 305 17 is_stmt 0 view .LVU256
 879 0046 0E4A     		ldr	r2, .L81+4
 880              		.loc 1 303 12 view .LVU257
 881 0048 0133     		adds	r3, r3, #1
 882 004a 2361     		str	r3, [r4, #16]
 883              		.loc 1 305 3 is_stmt 1 view .LVU258
 884              		.loc 1 305 17 is_stmt 0 view .LVU259
 885 004c 9369     		ldr	r3, [r2, #24]
 886              		.loc 1 305 15 view .LVU260
 887 004e A360     		str	r3, [r4, #8]
 888              		.loc 1 306 3 is_stmt 1 view .LVU261
 889              		.loc 1 306 21 is_stmt 0 view .LVU262
 890 0050 1B6C     		ldr	r3, [r3, #64]
 891              		.loc 1 306 14 view .LVU263
 892 0052 E360     		str	r3, [r4, #12]
 893              		.loc 1 307 3 is_stmt 1 view .LVU264
 894              		.loc 1 307 20 is_stmt 0 view .LVU265
 895 0054 9369     		ldr	r3, [r2, #24]
 896 0056 0120     		movs	r0, #1
 897 0058 1C64     		str	r4, [r3, #64]
 898              		.loc 1 308 3 is_stmt 1 view .LVU266
 899              	.LVL62:
 900              		.loc 1 308 3 is_stmt 0 view .LVU267
 901 005a E6E7     		b	.L68
 902              	.L77:
 903              		.loc 1 308 3 view .LVU268
 904              	.LBE136:
 905              	.LBE135:
 906              		.loc 1 290 5 is_stmt 1 discriminator 3 view .LVU269
 907 005c 0948     		ldr	r0, .L81+8
 908 005e FFF7FEFF 		bl	chSysHalt
 909              	.LVL63:
 910 0062 A368     		ldr	r3, [r4, #8]
 911 0064 DCE7     		b	.L67
 912              	.L76:
ARM GAS  /tmp/ccDUt0w2.s 			page 17


 913              		.loc 1 285 3 discriminator 3 view .LVU270
 914 0066 0748     		ldr	r0, .L81+8
 915 0068 FFF7FEFF 		bl	chSysHalt
 916              	.LVL64:
 917 006c D3E7     		b	.L65
 918              	.LVL65:
 919              	.L80:
 920              	.LBB138:
 921              	.LBB137:
 922              		.loc 1 301 3 view .LVU271
 923 006e 0548     		ldr	r0, .L81+8
 924 0070 FFF7FEFF 		bl	chSysHalt
 925              	.LVL66:
 926 0074 2369     		ldr	r3, [r4, #16]
 927 0076 E6E7     		b	.L69
 928              	.LVL67:
 929              	.L79:
 930              		.loc 1 301 3 is_stmt 0 view .LVU272
 931              	.LBE137:
 932              	.LBE138:
 933              		.loc 1 309 1 view .LVU273
 934 0078 FFF7FEFF 		bl	__stack_chk_fail
 935              	.LVL68:
 936              	.L82:
 937              		.align	2
 938              	.L81:
 939 007c 00000000 		.word	.LC3
 940 0080 00000000 		.word	ch
 941 0084 00000000 		.word	.LANCHOR3
 942              		.cfi_endproc
 943              	.LFE223:
 944              		.size	chMtxTryLockS, .-chMtxTryLockS
 945              		.section	.rodata.chMtxTryLock.cst4,"aM",%progbits,4
 946              		.align	2
 947              	.LC4:
 948 0000 00000000 		.word	__stack_chk_guard
 949              		.section	.text.chMtxTryLock,"ax",%progbits
 950              		.align	1
 951              		.p2align 4,,15
 952              		.global	chMtxTryLock
 953              		.syntax unified
 954              		.thumb
 955              		.thumb_func
 956              		.fpu fpv4-sp-d16
 957              		.type	chMtxTryLock, %function
 958              	chMtxTryLock:
 959              	.LVL69:
 960              	.LFB222:
 961              		.loc 1 255 32 is_stmt 1 view -0
 962              		.cfi_startproc
 963              		@ args = 0, pretend = 0, frame = 16
 964              		@ frame_needed = 0, uses_anonymous_args = 0
 965              		.loc 1 255 32 is_stmt 0 view .LVU275
 966 0000 10B5     		push	{r4, lr}
 967              		.cfi_def_cfa_offset 8
 968              		.cfi_offset 4, -8
 969              		.cfi_offset 14, -4
ARM GAS  /tmp/ccDUt0w2.s 			page 18


 970 0002 84B0     		sub	sp, sp, #16
 971              		.cfi_def_cfa_offset 24
 972              		.loc 1 255 32 view .LVU276
 973 0004 174B     		ldr	r3, .L89
 974 0006 0190     		str	r0, [sp, #4]
 975 0008 1B68     		ldr	r3, [r3]
 976 000a 0393     		str	r3, [sp, #12]
 977 000c 4FF00003 		mov	r3,#0
 978              		.loc 1 256 3 is_stmt 1 view .LVU277
 979              		.loc 1 258 3 view .LVU278
 980              	.LBB149:
 981              	.LBI149:
 982              		.loc 3 346 20 view .LVU279
 983              	.LBB150:
 984              		.loc 3 348 3 view .LVU280
 985              	.LBB151:
 986              	.LBI151:
 987              		.loc 4 444 20 view .LVU281
 988              	.LBE151:
 989              	.LBE150:
 990              	.LBE149:
 991              		.loc 4 447 3 view .LVU282
 992              	.LVL70:
 993              	.LBB156:
 994              	.LBB155:
 995              	.LBB154:
 996              	.LBB152:
 997              	.LBI152:
 998              		.loc 5 544 57 view .LVU283
 999              	.LBB153:
 1000              		.loc 5 546 3 view .LVU284
 1001 0010 2023     		movs	r3, #32
 1002              		.syntax unified
 1003              	@ 546 ".//ChibiOS//os/ext/CMSIS/include/core_cmFunc.h" 1
 1004 0012 83F31188 		MSR basepri, r3
 1005              	@ 0 "" 2
 1006              	.LVL71:
 1007              		.loc 5 546 3 is_stmt 0 view .LVU285
 1008              		.thumb
 1009              		.syntax unified
 1010              	.LBE153:
 1011              	.LBE152:
 1012              	.LBE154:
 1013              		.loc 3 349 3 is_stmt 1 view .LVU286
 1014 0016 FFF7FEFF 		bl	_stats_start_measure_crit_thd
 1015              	.LVL72:
 1016              		.loc 3 350 3 view .LVU287
 1017 001a FFF7FEFF 		bl	_dbg_check_lock
 1018              	.LVL73:
 1019              	.LBE155:
 1020              	.LBE156:
 1021              		.loc 1 259 3 view .LVU288
 1022              		.loc 1 259 7 is_stmt 0 view .LVU289
 1023 001e 0198     		ldr	r0, [sp, #4]
 1024 0020 FFF7FEFF 		bl	chMtxTryLockS
 1025              	.LVL74:
 1026 0024 0446     		mov	r4, r0
ARM GAS  /tmp/ccDUt0w2.s 			page 19


 1027              	.LVL75:
 1028              		.loc 1 260 3 is_stmt 1 view .LVU290
 1029              	.LBB157:
 1030              	.LBI157:
 1031              		.loc 3 358 20 view .LVU291
 1032              	.LBB158:
 1033              		.loc 3 360 3 view .LVU292
 1034 0026 FFF7FEFF 		bl	_dbg_check_unlock
 1035              	.LVL76:
 1036              		.loc 3 361 3 view .LVU293
 1037 002a FFF7FEFF 		bl	_stats_stop_measure_crit_thd
 1038              	.LVL77:
 1039              		.loc 3 367 3 view .LVU294
 1040              		.loc 3 367 3 view .LVU295
 1041              		.loc 3 367 3 view .LVU296
 1042 002e 0E4B     		ldr	r3, .L89+4
 1043 0030 1A68     		ldr	r2, [r3]
 1044 0032 9A42     		cmp	r2, r3
 1045 0034 04D0     		beq	.L84
 1046 0036 9969     		ldr	r1, [r3, #24]
 1047 0038 9368     		ldr	r3, [r2, #8]
 1048 003a 8A68     		ldr	r2, [r1, #8]
 1049 003c 9A42     		cmp	r2, r3
 1050 003e 0AD3     		bcc	.L87
 1051              	.L84:
 1052              		.loc 3 367 3 view .LVU297
 1053              		.loc 3 371 3 view .LVU298
 1054              	.LBB159:
 1055              	.LBI159:
 1056              		.loc 4 458 20 view .LVU299
 1057              	.LBE159:
 1058              	.LBE158:
 1059              	.LBE157:
 1060              		.loc 4 461 3 view .LVU300
 1061              	.LVL78:
 1062              	.LBB165:
 1063              	.LBB163:
 1064              	.LBB162:
 1065              	.LBB160:
 1066              	.LBI160:
 1067              		.loc 5 544 57 view .LVU301
 1068              	.LBB161:
 1069              		.loc 5 546 3 view .LVU302
 1070 0040 0023     		movs	r3, #0
 1071              		.syntax unified
 1072              	@ 546 ".//ChibiOS//os/ext/CMSIS/include/core_cmFunc.h" 1
 1073 0042 83F31188 		MSR basepri, r3
 1074              	@ 0 "" 2
 1075              	.LVL79:
 1076              		.loc 5 546 3 is_stmt 0 view .LVU303
 1077              		.thumb
 1078              		.syntax unified
 1079              	.LBE161:
 1080              	.LBE160:
 1081              	.LBE162:
 1082              	.LBE163:
 1083              	.LBE165:
ARM GAS  /tmp/ccDUt0w2.s 			page 20


 1084              		.loc 1 262 3 is_stmt 1 view .LVU304
 1085              		.loc 1 263 1 is_stmt 0 view .LVU305
 1086 0046 074B     		ldr	r3, .L89
 1087 0048 1A68     		ldr	r2, [r3]
 1088 004a 039B     		ldr	r3, [sp, #12]
 1089 004c 5A40     		eors	r2, r3, r2
 1090 004e 06D1     		bne	.L88
 1091 0050 2046     		mov	r0, r4
 1092 0052 04B0     		add	sp, sp, #16
 1093              		.cfi_remember_state
 1094              		.cfi_def_cfa_offset 8
 1095              		@ sp needed
 1096 0054 10BD     		pop	{r4, pc}
 1097              	.LVL80:
 1098              	.L87:
 1099              		.cfi_restore_state
 1100              	.LBB166:
 1101              	.LBB164:
 1102              		.loc 3 367 3 is_stmt 1 view .LVU306
 1103 0056 0548     		ldr	r0, .L89+8
 1104 0058 FFF7FEFF 		bl	chSysHalt
 1105              	.LVL81:
 1106 005c F0E7     		b	.L84
 1107              	.L88:
 1108              	.LBE164:
 1109              	.LBE166:
 1110              		.loc 1 263 1 is_stmt 0 view .LVU307
 1111 005e FFF7FEFF 		bl	__stack_chk_fail
 1112              	.LVL82:
 1113              	.L90:
 1114 0062 00BF     		.align	2
 1115              	.L89:
 1116 0064 00000000 		.word	.LC4
 1117 0068 00000000 		.word	ch
 1118 006c 00000000 		.word	.LANCHOR2
 1119              		.cfi_endproc
 1120              	.LFE222:
 1121              		.size	chMtxTryLock, .-chMtxTryLock
 1122              		.section	.rodata.chMtxUnlock.cst4,"aM",%progbits,4
 1123              		.align	2
 1124              	.LC5:
 1125 0000 00000000 		.word	__stack_chk_guard
 1126              		.section	.text.chMtxUnlock,"ax",%progbits
 1127              		.align	1
 1128              		.p2align 4,,15
 1129              		.global	chMtxUnlock
 1130              		.syntax unified
 1131              		.thumb
 1132              		.thumb_func
 1133              		.fpu fpv4-sp-d16
 1134              		.type	chMtxUnlock, %function
 1135              	chMtxUnlock:
 1136              	.LVL83:
 1137              	.LFB224:
 1138              		.loc 1 323 31 is_stmt 1 view -0
 1139              		.cfi_startproc
 1140              		@ args = 0, pretend = 0, frame = 8
ARM GAS  /tmp/ccDUt0w2.s 			page 21


 1141              		@ frame_needed = 0, uses_anonymous_args = 0
 1142              		.loc 1 323 31 is_stmt 0 view .LVU309
 1143 0000 2DE9F041 		push	{r4, r5, r6, r7, r8, lr}
 1144              		.cfi_def_cfa_offset 24
 1145              		.cfi_offset 4, -24
 1146              		.cfi_offset 5, -20
 1147              		.cfi_offset 6, -16
 1148              		.cfi_offset 7, -12
 1149              		.cfi_offset 8, -8
 1150              		.cfi_offset 14, -4
 1151 0004 3C4B     		ldr	r3, .L114
 1152              		.loc 1 324 13 view .LVU310
 1153 0006 3D4F     		ldr	r7, .L114+4
 1154              		.loc 1 323 31 view .LVU311
 1155 0008 82B0     		sub	sp, sp, #8
 1156              		.cfi_def_cfa_offset 32
 1157              		.loc 1 324 13 view .LVU312
 1158 000a BE69     		ldr	r6, [r7, #24]
 1159              		.loc 1 323 31 view .LVU313
 1160 000c 1B68     		ldr	r3, [r3]
 1161 000e 0193     		str	r3, [sp, #4]
 1162 0010 4FF00003 		mov	r3,#0
 1163              		.loc 1 324 3 is_stmt 1 view .LVU314
 1164              	.LVL84:
 1165              		.loc 1 325 3 view .LVU315
 1166              		.loc 1 327 3 view .LVU316
 1167              		.loc 1 327 3 view .LVU317
 1168              		.loc 1 327 3 view .LVU318
 1169 0014 0546     		mov	r5, r0
 1170 0016 0028     		cmp	r0, #0
 1171 0018 65D0     		beq	.L109
 1172              	.LVL85:
 1173              	.L92:
 1174              		.loc 1 327 3 discriminator 5 view .LVU319
 1175              		.loc 1 329 3 discriminator 5 view .LVU320
 1176              	.LBB188:
 1177              	.LBI188:
 1178              		.loc 3 346 20 discriminator 5 view .LVU321
 1179              	.LBB189:
 1180              		.loc 3 348 3 discriminator 5 view .LVU322
 1181              	.LBB190:
 1182              	.LBI190:
 1183              		.loc 4 444 20 discriminator 5 view .LVU323
 1184              	.LBE190:
 1185              	.LBE189:
 1186              	.LBE188:
 1187              		.loc 4 447 3 discriminator 5 view .LVU324
 1188              	.LBB195:
 1189              	.LBB194:
 1190              	.LBB193:
 1191              	.LBB191:
 1192              	.LBI191:
 1193              		.loc 5 544 57 discriminator 5 view .LVU325
 1194              	.LBB192:
 1195              		.loc 5 546 3 discriminator 5 view .LVU326
 1196 001a 2023     		movs	r3, #32
 1197              		.syntax unified
ARM GAS  /tmp/ccDUt0w2.s 			page 22


 1198              	@ 546 ".//ChibiOS//os/ext/CMSIS/include/core_cmFunc.h" 1
 1199 001c 83F31188 		MSR basepri, r3
 1200              	@ 0 "" 2
 1201              	.LVL86:
 1202              		.loc 5 546 3 is_stmt 0 discriminator 5 view .LVU327
 1203              		.thumb
 1204              		.syntax unified
 1205              	.LBE192:
 1206              	.LBE191:
 1207              	.LBE193:
 1208              		.loc 3 349 3 is_stmt 1 discriminator 5 view .LVU328
 1209 0020 FFF7FEFF 		bl	_stats_start_measure_crit_thd
 1210              	.LVL87:
 1211              		.loc 3 350 3 discriminator 5 view .LVU329
 1212 0024 FFF7FEFF 		bl	_dbg_check_lock
 1213              	.LVL88:
 1214              	.LBE194:
 1215              	.LBE195:
 1216              		.loc 1 331 3 discriminator 5 view .LVU330
 1217              		.loc 1 331 3 discriminator 5 view .LVU331
 1218              		.loc 1 331 3 discriminator 5 view .LVU332
 1219 0028 336C     		ldr	r3, [r6, #64]
 1220 002a 002B     		cmp	r3, #0
 1221 002c 56D0     		beq	.L110
 1222              	.L93:
 1223              		.loc 1 331 3 discriminator 1 view .LVU333
 1224              		.loc 1 332 3 discriminator 1 view .LVU334
 1225              		.loc 1 332 3 discriminator 1 view .LVU335
 1226              		.loc 1 332 3 discriminator 1 view .LVU336
 1227 002e 9B68     		ldr	r3, [r3, #8]
 1228 0030 B342     		cmp	r3, r6
 1229 0032 02D0     		beq	.L94
 1230              		.loc 1 332 3 discriminator 3 view .LVU337
 1231 0034 3248     		ldr	r0, .L114+8
 1232 0036 FFF7FEFF 		bl	chSysHalt
 1233              	.LVL89:
 1234              	.L94:
 1235              		.loc 1 332 3 discriminator 1 view .LVU338
 1236              		.loc 1 334 3 discriminator 1 view .LVU339
 1237              		.loc 1 334 3 discriminator 1 view .LVU340
 1238              		.loc 1 334 3 discriminator 1 view .LVU341
 1239 003a 2B69     		ldr	r3, [r5, #16]
 1240 003c 002B     		cmp	r3, #0
 1241 003e 48DD     		ble	.L111
 1242              	.L95:
 1243              		.loc 1 334 3 discriminator 5 view .LVU342
 1244              		.loc 1 336 3 discriminator 5 view .LVU343
 1245              		.loc 1 336 7 is_stmt 0 discriminator 5 view .LVU344
 1246 0040 013B     		subs	r3, r3, #1
 1247              		.loc 1 336 6 discriminator 5 view .LVU345
 1248 0042 2B61     		str	r3, [r5, #16]
 1249 0044 53BB     		cbnz	r3, .L96
 1250              		.loc 1 339 5 is_stmt 1 discriminator 1 view .LVU346
 1251              		.loc 1 339 5 discriminator 1 view .LVU347
 1252              		.loc 1 339 5 discriminator 1 view .LVU348
 1253 0046 336C     		ldr	r3, [r6, #64]
 1254 0048 AB42     		cmp	r3, r5
ARM GAS  /tmp/ccDUt0w2.s 			page 23


 1255 004a 02D0     		beq	.L97
 1256              		.loc 1 339 5 discriminator 3 view .LVU349
 1257 004c 2C48     		ldr	r0, .L114+8
 1258 004e FFF7FEFF 		bl	chSysHalt
 1259              	.LVL90:
 1260              	.L97:
 1261              		.loc 1 339 5 discriminator 5 view .LVU350
 1262              		.loc 1 344 5 discriminator 5 view .LVU351
 1263              		.loc 1 344 24 is_stmt 0 discriminator 5 view .LVU352
 1264 0052 EB68     		ldr	r3, [r5, #12]
 1265              		.loc 1 344 20 discriminator 5 view .LVU353
 1266 0054 3364     		str	r3, [r6, #64]
 1267              		.loc 1 347 5 is_stmt 1 discriminator 5 view .LVU354
 1268              	.LVL91:
 1269              	.LBB196:
 1270              	.LBI196:
 1271              		.file 6 ".//ChibiOS//os/rt/include/chmtx.h"
 1272              		.loc 6 129 20 discriminator 5 view .LVU355
 1273              	.LBB197:
 1274              		.loc 6 131 3 discriminator 5 view .LVU356
 1275 0056 FFF7FEFF 		bl	chDbgCheckClassS
 1276              	.LVL92:
 1277              		.loc 6 133 3 discriminator 5 view .LVU357
 1278              	.LBB198:
 1279              	.LBI198:
 1280              		.loc 2 629 20 discriminator 5 view .LVU358
 1281              	.LBB199:
 1282              		.loc 2 631 3 discriminator 5 view .LVU359
 1283              		.loc 2 631 3 is_stmt 0 discriminator 5 view .LVU360
 1284              	.LBE199:
 1285              	.LBE198:
 1286              	.LBE197:
 1287              	.LBE196:
 1288              		.loc 1 347 8 discriminator 5 view .LVU361
 1289 005a 2B68     		ldr	r3, [r5]
 1290 005c 9D42     		cmp	r5, r3
 1291 005e 46D0     		beq	.L98
 1292              	.LBB200:
 1293              		.loc 1 348 7 is_stmt 1 view .LVU362
 1294              		.loc 1 352 7 view .LVU363
 1295              		.loc 1 352 15 is_stmt 0 view .LVU364
 1296 0060 D6E91048 		ldrd	r4, r8, [r6, #64]
 1297              	.LVL93:
 1298              		.loc 1 353 7 is_stmt 1 view .LVU365
 1299              		.loc 1 354 7 view .LVU366
 1300              		.loc 1 354 13 view .LVU367
 1301 0064 5CB1     		cbz	r4, .L99
 1302              	.L101:
 1303              		.loc 1 358 9 view .LVU368
 1304              	.LVL94:
 1305              	.LBB201:
 1306              	.LBI201:
 1307              		.loc 6 129 20 view .LVU369
 1308              	.LBB202:
 1309              		.loc 6 131 3 view .LVU370
 1310 0066 FFF7FEFF 		bl	chDbgCheckClassS
 1311              	.LVL95:
ARM GAS  /tmp/ccDUt0w2.s 			page 24


 1312              		.loc 6 133 3 view .LVU371
 1313              	.LBB203:
 1314              	.LBI203:
 1315              		.loc 2 629 20 view .LVU372
 1316              	.LBB204:
 1317              		.loc 2 631 3 view .LVU373
 1318              		.loc 2 631 20 is_stmt 0 view .LVU374
 1319 006a 2368     		ldr	r3, [r4]
 1320              	.LVL96:
 1321              		.loc 2 631 20 view .LVU375
 1322              	.LBE204:
 1323              	.LBE203:
 1324              	.LBE202:
 1325              	.LBE201:
 1326              		.loc 1 358 12 view .LVU376
 1327 006c 9C42     		cmp	r4, r3
 1328 006e 03D0     		beq	.L100
 1329              		.loc 1 358 12 view .LVU377
 1330 0070 9B68     		ldr	r3, [r3, #8]
 1331 0072 9845     		cmp	r8, r3
 1332 0074 38BF     		it	cc
 1333 0076 9846     		movcc	r8, r3
 1334              	.LVL97:
 1335              	.L100:
 1336              		.loc 1 362 9 is_stmt 1 view .LVU378
 1337              		.loc 1 362 13 is_stmt 0 view .LVU379
 1338 0078 E468     		ldr	r4, [r4, #12]
 1339              	.LVL98:
 1340              		.loc 1 354 13 is_stmt 1 view .LVU380
 1341 007a 002C     		cmp	r4, #0
 1342 007c F3D1     		bne	.L101
 1343              	.L99:
 1344              		.loc 1 367 7 view .LVU381
 1345              		.loc 1 367 19 is_stmt 0 view .LVU382
 1346 007e C6F80880 		str	r8, [r6, #8]
 1347              		.loc 1 372 7 is_stmt 1 view .LVU383
 1348              	.LBB205:
 1349              	.LBB206:
 1350              		.loc 2 672 13 is_stmt 0 view .LVU384
 1351 0082 2868     		ldr	r0, [r5]
 1352              	.LBE206:
 1353              	.LBE205:
 1354              		.loc 1 372 17 view .LVU385
 1355 0084 0123     		movs	r3, #1
 1356 0086 2B61     		str	r3, [r5, #16]
 1357              		.loc 1 374 7 is_stmt 1 view .LVU386
 1358              	.LVL99:
 1359              	.LBB208:
 1360              	.LBI205:
 1361              		.loc 2 671 25 view .LVU387
 1362              	.LBB207:
 1363              		.loc 2 672 3 view .LVU388
 1364              		.loc 2 674 3 view .LVU389
 1365              		.loc 2 674 19 is_stmt 0 view .LVU390
 1366 0088 0368     		ldr	r3, [r0]
 1367              		.loc 2 674 15 view .LVU391
 1368 008a 2B60     		str	r3, [r5]
ARM GAS  /tmp/ccDUt0w2.s 			page 25


 1369              		.loc 2 675 3 is_stmt 1 view .LVU392
 1370              		.loc 2 675 23 is_stmt 0 view .LVU393
 1371 008c 5D60     		str	r5, [r3, #4]
 1372              		.loc 2 677 3 is_stmt 1 view .LVU394
 1373              	.LVL100:
 1374              		.loc 2 677 3 is_stmt 0 view .LVU395
 1375              	.LBE207:
 1376              	.LBE208:
 1377              		.loc 1 375 7 is_stmt 1 view .LVU396
 1378              		.loc 1 375 19 is_stmt 0 view .LVU397
 1379 008e A860     		str	r0, [r5, #8]
 1380              		.loc 1 376 7 is_stmt 1 view .LVU398
 1381              		.loc 1 376 22 is_stmt 0 view .LVU399
 1382 0090 036C     		ldr	r3, [r0, #64]
 1383              		.loc 1 376 18 view .LVU400
 1384 0092 EB60     		str	r3, [r5, #12]
 1385              		.loc 1 377 7 is_stmt 1 view .LVU401
 1386              		.loc 1 378 7 is_stmt 0 view .LVU402
 1387 0094 0021     		movs	r1, #0
 1388              		.loc 1 377 21 view .LVU403
 1389 0096 0564     		str	r5, [r0, #64]
 1390              		.loc 1 378 7 is_stmt 1 view .LVU404
 1391 0098 FFF7FEFF 		bl	chSchWakeupS
 1392              	.LVL101:
 1393              	.L96:
 1394              		.loc 1 378 7 is_stmt 0 view .LVU405
 1395              	.LBE200:
 1396              		.loc 1 387 3 is_stmt 1 view .LVU406
 1397              	.LBB209:
 1398              	.LBI209:
 1399              		.loc 3 358 20 view .LVU407
 1400              	.LBB210:
 1401              		.loc 3 360 3 view .LVU408
 1402 009c FFF7FEFF 		bl	_dbg_check_unlock
 1403              	.LVL102:
 1404              		.loc 3 361 3 view .LVU409
 1405 00a0 FFF7FEFF 		bl	_stats_stop_measure_crit_thd
 1406              	.LVL103:
 1407              		.loc 3 367 3 view .LVU410
 1408              		.loc 3 367 3 view .LVU411
 1409              		.loc 3 367 3 view .LVU412
 1410 00a4 3B68     		ldr	r3, [r7]
 1411 00a6 BB42     		cmp	r3, r7
 1412 00a8 04D0     		beq	.L102
 1413 00aa BA69     		ldr	r2, [r7, #24]
 1414 00ac 9B68     		ldr	r3, [r3, #8]
 1415 00ae 9268     		ldr	r2, [r2, #8]
 1416 00b0 9A42     		cmp	r2, r3
 1417 00b2 0AD3     		bcc	.L112
 1418              	.L102:
 1419              		.loc 3 367 3 view .LVU413
 1420              		.loc 3 371 3 view .LVU414
 1421              	.LBB211:
 1422              	.LBI211:
 1423              		.loc 4 458 20 view .LVU415
 1424              	.LBE211:
 1425              	.LBE210:
ARM GAS  /tmp/ccDUt0w2.s 			page 26


 1426              	.LBE209:
 1427              		.loc 4 461 3 view .LVU416
 1428              	.LVL104:
 1429              	.LBB217:
 1430              	.LBB215:
 1431              	.LBB214:
 1432              	.LBB212:
 1433              	.LBI212:
 1434              		.loc 5 544 57 view .LVU417
 1435              	.LBB213:
 1436              		.loc 5 546 3 view .LVU418
 1437 00b4 0023     		movs	r3, #0
 1438              		.syntax unified
 1439              	@ 546 ".//ChibiOS//os/ext/CMSIS/include/core_cmFunc.h" 1
 1440 00b6 83F31188 		MSR basepri, r3
 1441              	@ 0 "" 2
 1442              	.LVL105:
 1443              		.loc 5 546 3 is_stmt 0 view .LVU419
 1444              		.thumb
 1445              		.syntax unified
 1446              	.LBE213:
 1447              	.LBE212:
 1448              	.LBE214:
 1449              	.LBE215:
 1450              	.LBE217:
 1451              		.loc 1 388 1 view .LVU420
 1452 00ba 0F4B     		ldr	r3, .L114
 1453 00bc 1A68     		ldr	r2, [r3]
 1454 00be 019B     		ldr	r3, [sp, #4]
 1455 00c0 5A40     		eors	r2, r3, r2
 1456 00c2 17D1     		bne	.L113
 1457 00c4 02B0     		add	sp, sp, #8
 1458              		.cfi_remember_state
 1459              		.cfi_def_cfa_offset 24
 1460              		@ sp needed
 1461 00c6 BDE8F081 		pop	{r4, r5, r6, r7, r8, pc}
 1462              	.LVL106:
 1463              	.L112:
 1464              		.cfi_restore_state
 1465              	.LBB218:
 1466              	.LBB216:
 1467              		.loc 3 367 3 is_stmt 1 view .LVU421
 1468 00ca 0E48     		ldr	r0, .L114+12
 1469 00cc FFF7FEFF 		bl	chSysHalt
 1470              	.LVL107:
 1471 00d0 F0E7     		b	.L102
 1472              	.L111:
 1473              		.loc 3 367 3 is_stmt 0 view .LVU422
 1474              	.LBE216:
 1475              	.LBE218:
 1476              		.loc 1 334 3 is_stmt 1 discriminator 3 view .LVU423
 1477 00d2 0B48     		ldr	r0, .L114+8
 1478 00d4 FFF7FEFF 		bl	chSysHalt
 1479              	.LVL108:
 1480 00d8 2B69     		ldr	r3, [r5, #16]
 1481 00da B1E7     		b	.L95
 1482              	.L110:
ARM GAS  /tmp/ccDUt0w2.s 			page 27


 1483              		.loc 1 331 3 discriminator 3 view .LVU424
 1484 00dc 0848     		ldr	r0, .L114+8
 1485 00de FFF7FEFF 		bl	chSysHalt
 1486              	.LVL109:
 1487 00e2 336C     		ldr	r3, [r6, #64]
 1488 00e4 A3E7     		b	.L93
 1489              	.LVL110:
 1490              	.L109:
 1491              		.loc 1 327 3 discriminator 3 view .LVU425
 1492 00e6 0648     		ldr	r0, .L114+8
 1493              	.LVL111:
 1494              		.loc 1 327 3 is_stmt 0 discriminator 3 view .LVU426
 1495 00e8 FFF7FEFF 		bl	chSysHalt
 1496              	.LVL112:
 1497 00ec 95E7     		b	.L92
 1498              	.L98:
 1499              		.loc 1 381 7 is_stmt 1 view .LVU427
 1500              		.loc 1 381 19 is_stmt 0 view .LVU428
 1501 00ee 0023     		movs	r3, #0
 1502 00f0 AB60     		str	r3, [r5, #8]
 1503 00f2 D3E7     		b	.L96
 1504              	.L113:
 1505              		.loc 1 388 1 view .LVU429
 1506 00f4 FFF7FEFF 		bl	__stack_chk_fail
 1507              	.LVL113:
 1508              	.L115:
 1509              		.align	2
 1510              	.L114:
 1511 00f8 00000000 		.word	.LC5
 1512 00fc 00000000 		.word	ch
 1513 0100 00000000 		.word	.LANCHOR4
 1514 0104 00000000 		.word	.LANCHOR2
 1515              		.cfi_endproc
 1516              	.LFE224:
 1517              		.size	chMtxUnlock, .-chMtxUnlock
 1518              		.section	.rodata.chMtxUnlockS.cst4,"aM",%progbits,4
 1519              		.align	2
 1520              	.LC6:
 1521 0000 00000000 		.word	__stack_chk_guard
 1522              		.section	.text.chMtxUnlockS,"ax",%progbits
 1523              		.align	1
 1524              		.p2align 4,,15
 1525              		.global	chMtxUnlockS
 1526              		.syntax unified
 1527              		.thumb
 1528              		.thumb_func
 1529              		.fpu fpv4-sp-d16
 1530              		.type	chMtxUnlockS, %function
 1531              	chMtxUnlockS:
 1532              	.LVL114:
 1533              	.LFB225:
 1534              		.loc 1 404 32 is_stmt 1 view -0
 1535              		.cfi_startproc
 1536              		@ args = 0, pretend = 0, frame = 8
 1537              		@ frame_needed = 0, uses_anonymous_args = 0
 1538              		.loc 1 404 32 is_stmt 0 view .LVU431
 1539 0000 F0B5     		push	{r4, r5, r6, r7, lr}
ARM GAS  /tmp/ccDUt0w2.s 			page 28


 1540              		.cfi_def_cfa_offset 20
 1541              		.cfi_offset 4, -20
 1542              		.cfi_offset 5, -16
 1543              		.cfi_offset 6, -12
 1544              		.cfi_offset 7, -8
 1545              		.cfi_offset 14, -4
 1546              		.loc 1 405 13 view .LVU432
 1547 0002 334B     		ldr	r3, .L138
 1548              		.loc 1 404 32 view .LVU433
 1549 0004 334A     		ldr	r2, .L138+4
 1550              		.loc 1 405 13 view .LVU434
 1551 0006 9E69     		ldr	r6, [r3, #24]
 1552              		.loc 1 404 32 view .LVU435
 1553 0008 83B0     		sub	sp, sp, #12
 1554              		.cfi_def_cfa_offset 32
 1555              		.loc 1 404 32 view .LVU436
 1556 000a 0546     		mov	r5, r0
 1557 000c 1268     		ldr	r2, [r2]
 1558 000e 0192     		str	r2, [sp, #4]
 1559 0010 4FF00002 		mov	r2,#0
 1560              		.loc 1 405 3 is_stmt 1 view .LVU437
 1561              	.LVL115:
 1562              		.loc 1 406 3 view .LVU438
 1563              		.loc 1 408 3 view .LVU439
 1564 0014 FFF7FEFF 		bl	chDbgCheckClassS
 1565              	.LVL116:
 1566              		.loc 1 409 3 view .LVU440
 1567              		.loc 1 409 3 view .LVU441
 1568              		.loc 1 409 3 view .LVU442
 1569 0018 002D     		cmp	r5, #0
 1570 001a 53D0     		beq	.L135
 1571              	.L117:
 1572              		.loc 1 409 3 discriminator 1 view .LVU443
 1573              		.loc 1 411 3 discriminator 1 view .LVU444
 1574              		.loc 1 411 3 discriminator 1 view .LVU445
 1575              		.loc 1 411 3 discriminator 1 view .LVU446
 1576 001c 336C     		ldr	r3, [r6, #64]
 1577 001e 002B     		cmp	r3, #0
 1578 0020 4BD0     		beq	.L136
 1579              	.L118:
 1580              		.loc 1 411 3 discriminator 1 view .LVU447
 1581              		.loc 1 412 3 discriminator 1 view .LVU448
 1582              		.loc 1 412 3 discriminator 1 view .LVU449
 1583              		.loc 1 412 3 discriminator 1 view .LVU450
 1584 0022 9B68     		ldr	r3, [r3, #8]
 1585 0024 B342     		cmp	r3, r6
 1586 0026 02D0     		beq	.L119
 1587              		.loc 1 412 3 discriminator 3 view .LVU451
 1588 0028 2B48     		ldr	r0, .L138+8
 1589 002a FFF7FEFF 		bl	chSysHalt
 1590              	.LVL117:
 1591              	.L119:
 1592              		.loc 1 412 3 discriminator 1 view .LVU452
 1593              		.loc 1 414 3 discriminator 1 view .LVU453
 1594              		.loc 1 414 3 discriminator 1 view .LVU454
 1595              		.loc 1 414 3 discriminator 1 view .LVU455
 1596 002e 2B69     		ldr	r3, [r5, #16]
ARM GAS  /tmp/ccDUt0w2.s 			page 29


 1597 0030 002B     		cmp	r3, #0
 1598 0032 3DDD     		ble	.L137
 1599              	.L120:
 1600              		.loc 1 414 3 discriminator 5 view .LVU456
 1601              		.loc 1 416 3 discriminator 5 view .LVU457
 1602              		.loc 1 416 7 is_stmt 0 discriminator 5 view .LVU458
 1603 0034 013B     		subs	r3, r3, #1
 1604              		.loc 1 416 6 discriminator 5 view .LVU459
 1605 0036 2B61     		str	r3, [r5, #16]
 1606 0038 002B     		cmp	r3, #0
 1607 003a 32D1     		bne	.L116
 1608              		.loc 1 419 5 is_stmt 1 discriminator 1 view .LVU460
 1609              		.loc 1 419 5 discriminator 1 view .LVU461
 1610              		.loc 1 419 5 discriminator 1 view .LVU462
 1611 003c 336C     		ldr	r3, [r6, #64]
 1612 003e AB42     		cmp	r3, r5
 1613 0040 02D0     		beq	.L122
 1614              		.loc 1 419 5 discriminator 3 view .LVU463
 1615 0042 2548     		ldr	r0, .L138+8
 1616 0044 FFF7FEFF 		bl	chSysHalt
 1617              	.LVL118:
 1618              	.L122:
 1619              		.loc 1 419 5 discriminator 5 view .LVU464
 1620              		.loc 1 424 5 discriminator 5 view .LVU465
 1621              		.loc 1 424 24 is_stmt 0 discriminator 5 view .LVU466
 1622 0048 EB68     		ldr	r3, [r5, #12]
 1623              		.loc 1 424 20 discriminator 5 view .LVU467
 1624 004a 3364     		str	r3, [r6, #64]
 1625              		.loc 1 427 5 is_stmt 1 discriminator 5 view .LVU468
 1626              	.LVL119:
 1627              	.LBB219:
 1628              	.LBI219:
 1629              		.loc 6 129 20 discriminator 5 view .LVU469
 1630              	.LBB220:
 1631              		.loc 6 131 3 discriminator 5 view .LVU470
 1632 004c FFF7FEFF 		bl	chDbgCheckClassS
 1633              	.LVL120:
 1634              		.loc 6 133 3 discriminator 5 view .LVU471
 1635              	.LBB221:
 1636              	.LBI221:
 1637              		.loc 2 629 20 discriminator 5 view .LVU472
 1638              	.LBB222:
 1639              		.loc 2 631 3 discriminator 5 view .LVU473
 1640              		.loc 2 631 3 is_stmt 0 discriminator 5 view .LVU474
 1641              	.LBE222:
 1642              	.LBE221:
 1643              	.LBE220:
 1644              	.LBE219:
 1645              		.loc 1 427 8 discriminator 5 view .LVU475
 1646 0050 2B68     		ldr	r3, [r5]
 1647 0052 9D42     		cmp	r5, r3
 1648 0054 23D0     		beq	.L123
 1649              	.LBB223:
 1650              		.loc 1 428 7 is_stmt 1 view .LVU476
 1651              		.loc 1 432 7 view .LVU477
 1652              		.loc 1 432 15 is_stmt 0 view .LVU478
 1653 0056 D6E91047 		ldrd	r4, r7, [r6, #64]
ARM GAS  /tmp/ccDUt0w2.s 			page 30


 1654              	.LVL121:
 1655              		.loc 1 433 7 is_stmt 1 view .LVU479
 1656              		.loc 1 434 7 view .LVU480
 1657              		.loc 1 434 13 view .LVU481
 1658 005a 5CB1     		cbz	r4, .L124
 1659              	.L126:
 1660              		.loc 1 438 9 view .LVU482
 1661              	.LVL122:
 1662              	.LBB224:
 1663              	.LBI224:
 1664              		.loc 6 129 20 view .LVU483
 1665              	.LBB225:
 1666              		.loc 6 131 3 view .LVU484
 1667 005c FFF7FEFF 		bl	chDbgCheckClassS
 1668              	.LVL123:
 1669              		.loc 6 133 3 view .LVU485
 1670              	.LBB226:
 1671              	.LBI226:
 1672              		.loc 2 629 20 view .LVU486
 1673              	.LBB227:
 1674              		.loc 2 631 3 view .LVU487
 1675              		.loc 2 631 20 is_stmt 0 view .LVU488
 1676 0060 2368     		ldr	r3, [r4]
 1677              	.LVL124:
 1678              		.loc 2 631 20 view .LVU489
 1679              	.LBE227:
 1680              	.LBE226:
 1681              	.LBE225:
 1682              	.LBE224:
 1683              		.loc 1 438 12 view .LVU490
 1684 0062 9C42     		cmp	r4, r3
 1685 0064 03D0     		beq	.L125
 1686              		.loc 1 438 12 view .LVU491
 1687 0066 9B68     		ldr	r3, [r3, #8]
 1688 0068 9F42     		cmp	r7, r3
 1689 006a 38BF     		it	cc
 1690 006c 1F46     		movcc	r7, r3
 1691              	.LVL125:
 1692              	.L125:
 1693              		.loc 1 442 9 is_stmt 1 view .LVU492
 1694              		.loc 1 442 13 is_stmt 0 view .LVU493
 1695 006e E468     		ldr	r4, [r4, #12]
 1696              	.LVL126:
 1697              		.loc 1 434 13 is_stmt 1 view .LVU494
 1698 0070 002C     		cmp	r4, #0
 1699 0072 F3D1     		bne	.L126
 1700              	.L124:
 1701              		.loc 1 447 7 view .LVU495
 1702              		.loc 1 447 19 is_stmt 0 view .LVU496
 1703 0074 B760     		str	r7, [r6, #8]
 1704              		.loc 1 452 7 is_stmt 1 view .LVU497
 1705              	.LBB228:
 1706              	.LBB229:
 1707              		.loc 2 672 13 is_stmt 0 view .LVU498
 1708 0076 2868     		ldr	r0, [r5]
 1709              	.LBE229:
 1710              	.LBE228:
ARM GAS  /tmp/ccDUt0w2.s 			page 31


 1711              		.loc 1 452 17 view .LVU499
 1712 0078 0123     		movs	r3, #1
 1713 007a 2B61     		str	r3, [r5, #16]
 1714              		.loc 1 454 7 is_stmt 1 view .LVU500
 1715              	.LVL127:
 1716              	.LBB231:
 1717              	.LBI228:
 1718              		.loc 2 671 25 view .LVU501
 1719              	.LBB230:
 1720              		.loc 2 672 3 view .LVU502
 1721              		.loc 2 674 3 view .LVU503
 1722              		.loc 2 674 19 is_stmt 0 view .LVU504
 1723 007c 0368     		ldr	r3, [r0]
 1724              		.loc 2 674 15 view .LVU505
 1725 007e 2B60     		str	r3, [r5]
 1726              		.loc 2 675 3 is_stmt 1 view .LVU506
 1727              		.loc 2 675 23 is_stmt 0 view .LVU507
 1728 0080 5D60     		str	r5, [r3, #4]
 1729              		.loc 2 677 3 is_stmt 1 view .LVU508
 1730              	.LVL128:
 1731              		.loc 2 677 3 is_stmt 0 view .LVU509
 1732              	.LBE230:
 1733              	.LBE231:
 1734              		.loc 1 455 7 is_stmt 1 view .LVU510
 1735              		.loc 1 455 19 is_stmt 0 view .LVU511
 1736 0082 A860     		str	r0, [r5, #8]
 1737              		.loc 1 456 7 is_stmt 1 view .LVU512
 1738              		.loc 1 456 22 is_stmt 0 view .LVU513
 1739 0084 036C     		ldr	r3, [r0, #64]
 1740              		.loc 1 456 18 view .LVU514
 1741 0086 EB60     		str	r3, [r5, #12]
 1742              		.loc 1 457 7 is_stmt 1 view .LVU515
 1743              		.loc 1 458 14 is_stmt 0 view .LVU516
 1744 0088 124B     		ldr	r3, .L138+4
 1745              		.loc 1 457 21 view .LVU517
 1746 008a 0564     		str	r5, [r0, #64]
 1747              		.loc 1 458 7 is_stmt 1 view .LVU518
 1748              		.loc 1 458 14 is_stmt 0 view .LVU519
 1749 008c 1A68     		ldr	r2, [r3]
 1750 008e 019B     		ldr	r3, [sp, #4]
 1751 0090 5A40     		eors	r2, r3, r2
 1752 0092 1BD1     		bne	.L134
 1753              		.loc 1 458 14 view .LVU520
 1754              	.LBE223:
 1755              		.loc 1 466 1 view .LVU521
 1756 0094 03B0     		add	sp, sp, #12
 1757              		.cfi_remember_state
 1758              		.cfi_def_cfa_offset 20
 1759              		@ sp needed
 1760 0096 BDE8F040 		pop	{r4, r5, r6, r7, lr}
 1761              		.cfi_restore 14
 1762              		.cfi_restore 7
 1763              		.cfi_restore 6
 1764              		.cfi_restore 5
 1765              		.cfi_restore 4
 1766              		.cfi_def_cfa_offset 0
 1767              	.LVL129:
ARM GAS  /tmp/ccDUt0w2.s 			page 32


 1768              	.LBB232:
 1769              		.loc 1 458 14 view .LVU522
 1770 009a FFF7FEBF 		b	chSchReadyI
 1771              	.LVL130:
 1772              	.L123:
 1773              		.cfi_restore_state
 1774              		.loc 1 458 14 view .LVU523
 1775              	.LBE232:
 1776              		.loc 1 461 7 is_stmt 1 view .LVU524
 1777              		.loc 1 461 19 is_stmt 0 view .LVU525
 1778 009e 0023     		movs	r3, #0
 1779 00a0 AB60     		str	r3, [r5, #8]
 1780              	.L116:
 1781              		.loc 1 466 1 view .LVU526
 1782 00a2 0C4B     		ldr	r3, .L138+4
 1783 00a4 1A68     		ldr	r2, [r3]
 1784 00a6 019B     		ldr	r3, [sp, #4]
 1785 00a8 5A40     		eors	r2, r3, r2
 1786 00aa 0FD1     		bne	.L134
 1787 00ac 03B0     		add	sp, sp, #12
 1788              		.cfi_remember_state
 1789              		.cfi_def_cfa_offset 20
 1790              		@ sp needed
 1791 00ae F0BD     		pop	{r4, r5, r6, r7, pc}
 1792              	.LVL131:
 1793              	.L137:
 1794              		.cfi_restore_state
 1795              		.loc 1 414 3 is_stmt 1 discriminator 3 view .LVU527
 1796 00b0 0948     		ldr	r0, .L138+8
 1797 00b2 FFF7FEFF 		bl	chSysHalt
 1798              	.LVL132:
 1799 00b6 2B69     		ldr	r3, [r5, #16]
 1800 00b8 BCE7     		b	.L120
 1801              	.L136:
 1802              		.loc 1 411 3 discriminator 3 view .LVU528
 1803 00ba 0748     		ldr	r0, .L138+8
 1804 00bc FFF7FEFF 		bl	chSysHalt
 1805              	.LVL133:
 1806 00c0 336C     		ldr	r3, [r6, #64]
 1807 00c2 AEE7     		b	.L118
 1808              	.L135:
 1809              		.loc 1 409 3 discriminator 3 view .LVU529
 1810 00c4 0448     		ldr	r0, .L138+8
 1811 00c6 FFF7FEFF 		bl	chSysHalt
 1812              	.LVL134:
 1813 00ca A7E7     		b	.L117
 1814              	.L134:
 1815              		.loc 1 466 1 is_stmt 0 view .LVU530
 1816 00cc FFF7FEFF 		bl	__stack_chk_fail
 1817              	.LVL135:
 1818              	.L139:
 1819              		.align	2
 1820              	.L138:
 1821 00d0 00000000 		.word	ch
 1822 00d4 00000000 		.word	.LC6
 1823 00d8 00000000 		.word	.LANCHOR5
 1824              		.cfi_endproc
ARM GAS  /tmp/ccDUt0w2.s 			page 33


 1825              	.LFE225:
 1826              		.size	chMtxUnlockS, .-chMtxUnlockS
 1827              		.section	.rodata.chMtxUnlockAll.cst4,"aM",%progbits,4
 1828              		.align	2
 1829              	.LC7:
 1830 0000 00000000 		.word	__stack_chk_guard
 1831              		.section	.text.chMtxUnlockAll,"ax",%progbits
 1832              		.align	1
 1833              		.p2align 4,,15
 1834              		.global	chMtxUnlockAll
 1835              		.syntax unified
 1836              		.thumb
 1837              		.thumb_func
 1838              		.fpu fpv4-sp-d16
 1839              		.type	chMtxUnlockAll, %function
 1840              	chMtxUnlockAll:
 1841              	.LFB226:
 1842              		.loc 1 479 27 is_stmt 1 view -0
 1843              		.cfi_startproc
 1844              		@ args = 0, pretend = 0, frame = 8
 1845              		@ frame_needed = 0, uses_anonymous_args = 0
 1846 0000 2DE9F041 		push	{r4, r5, r6, r7, r8, lr}
 1847              		.cfi_def_cfa_offset 24
 1848              		.cfi_offset 4, -24
 1849              		.cfi_offset 5, -20
 1850              		.cfi_offset 6, -16
 1851              		.cfi_offset 7, -12
 1852              		.cfi_offset 8, -8
 1853              		.cfi_offset 14, -4
 1854 0004 274B     		ldr	r3, .L156
 1855              		.loc 1 480 13 is_stmt 0 view .LVU532
 1856 0006 284F     		ldr	r7, .L156+4
 1857              		.loc 1 479 27 view .LVU533
 1858 0008 82B0     		sub	sp, sp, #8
 1859              		.cfi_def_cfa_offset 32
 1860              		.loc 1 479 27 view .LVU534
 1861 000a 1B68     		ldr	r3, [r3]
 1862 000c 0193     		str	r3, [sp, #4]
 1863 000e 4FF00003 		mov	r3,#0
 1864              		.loc 1 480 3 is_stmt 1 view .LVU535
 1865              		.loc 1 480 13 is_stmt 0 view .LVU536
 1866 0012 BD69     		ldr	r5, [r7, #24]
 1867              	.LVL136:
 1868              		.loc 1 482 3 is_stmt 1 view .LVU537
 1869              	.LBB251:
 1870              	.LBI251:
 1871              		.loc 3 346 20 view .LVU538
 1872              	.LBB252:
 1873              		.loc 3 348 3 view .LVU539
 1874              	.LBB253:
 1875              	.LBI253:
 1876              		.loc 4 444 20 view .LVU540
 1877              	.LBE253:
 1878              	.LBE252:
 1879              	.LBE251:
 1880              		.loc 4 447 3 view .LVU541
 1881              	.LBB258:
ARM GAS  /tmp/ccDUt0w2.s 			page 34


 1882              	.LBB257:
 1883              	.LBB256:
 1884              	.LBB254:
 1885              	.LBI254:
 1886              		.loc 5 544 57 view .LVU542
 1887              	.LBB255:
 1888              		.loc 5 546 3 view .LVU543
 1889 0014 2023     		movs	r3, #32
 1890              		.syntax unified
 1891              	@ 546 ".//ChibiOS//os/ext/CMSIS/include/core_cmFunc.h" 1
 1892 0016 83F31188 		MSR basepri, r3
 1893              	@ 0 "" 2
 1894              	.LVL137:
 1895              		.loc 5 546 3 is_stmt 0 view .LVU544
 1896              		.thumb
 1897              		.syntax unified
 1898              	.LBE255:
 1899              	.LBE254:
 1900              	.LBE256:
 1901              		.loc 3 349 3 is_stmt 1 view .LVU545
 1902 001a FFF7FEFF 		bl	_stats_start_measure_crit_thd
 1903              	.LVL138:
 1904              		.loc 3 350 3 view .LVU546
 1905 001e FFF7FEFF 		bl	_dbg_check_lock
 1906              	.LVL139:
 1907              	.LBE257:
 1908              	.LBE258:
 1909              		.loc 1 483 3 view .LVU547
 1910              		.loc 1 483 10 is_stmt 0 view .LVU548
 1911 0022 2C6C     		ldr	r4, [r5, #64]
 1912              		.loc 1 483 6 view .LVU549
 1913 0024 04B3     		cbz	r4, .L141
 1914              	.LBB259:
 1915              		.loc 1 499 19 view .LVU550
 1916 0026 0026     		movs	r6, #0
 1917              	.LBB260:
 1918              		.loc 1 489 19 view .LVU551
 1919 0028 4FF00108 		mov	r8, #1
 1920 002c 0CE0     		b	.L144
 1921              	.LVL140:
 1922              	.L153:
 1923              		.loc 1 489 9 is_stmt 1 view .LVU552
 1924              		.loc 1 489 19 is_stmt 0 view .LVU553
 1925 002e C4F81080 		str	r8, [r4, #16]
 1926              		.loc 1 491 9 is_stmt 1 view .LVU554
 1927              	.LVL141:
 1928              	.LBB261:
 1929              	.LBI261:
 1930              		.loc 2 671 25 view .LVU555
 1931              	.LBB262:
 1932              		.loc 2 672 3 view .LVU556
 1933              		.loc 2 674 3 view .LVU557
 1934              		.loc 2 674 19 is_stmt 0 view .LVU558
 1935 0032 0368     		ldr	r3, [r0]
 1936              		.loc 2 674 15 view .LVU559
 1937 0034 2360     		str	r3, [r4]
 1938              		.loc 2 675 3 is_stmt 1 view .LVU560
ARM GAS  /tmp/ccDUt0w2.s 			page 35


 1939              		.loc 2 675 23 is_stmt 0 view .LVU561
 1940 0036 5C60     		str	r4, [r3, #4]
 1941              		.loc 2 677 3 is_stmt 1 view .LVU562
 1942              	.LVL142:
 1943              		.loc 2 677 3 is_stmt 0 view .LVU563
 1944              	.LBE262:
 1945              	.LBE261:
 1946              		.loc 1 492 9 is_stmt 1 view .LVU564
 1947              		.loc 1 492 21 is_stmt 0 view .LVU565
 1948 0038 A060     		str	r0, [r4, #8]
 1949              		.loc 1 493 9 is_stmt 1 view .LVU566
 1950              		.loc 1 493 24 is_stmt 0 view .LVU567
 1951 003a 036C     		ldr	r3, [r0, #64]
 1952              		.loc 1 493 20 view .LVU568
 1953 003c E360     		str	r3, [r4, #12]
 1954              		.loc 1 494 9 is_stmt 1 view .LVU569
 1955              		.loc 1 494 23 is_stmt 0 view .LVU570
 1956 003e 0464     		str	r4, [r0, #64]
 1957              		.loc 1 495 9 is_stmt 1 view .LVU571
 1958              		.loc 1 495 16 is_stmt 0 view .LVU572
 1959 0040 FFF7FEFF 		bl	chSchReadyI
 1960              	.LVL143:
 1961              		.loc 1 495 16 view .LVU573
 1962              	.LBE260:
 1963              	.LBE259:
 1964              		.loc 1 503 13 is_stmt 1 view .LVU574
 1965              		.loc 1 503 17 is_stmt 0 view .LVU575
 1966 0044 2C6C     		ldr	r4, [r5, #64]
 1967              		.loc 1 503 5 view .LVU576
 1968 0046 5CB1     		cbz	r4, .L152
 1969              	.L144:
 1970              		.loc 1 484 5 is_stmt 1 view .LVU577
 1971              	.LBB267:
 1972              		.loc 1 485 7 view .LVU578
 1973              	.LVL144:
 1974              		.loc 1 486 7 view .LVU579
 1975              		.loc 1 486 26 is_stmt 0 view .LVU580
 1976 0048 E368     		ldr	r3, [r4, #12]
 1977              		.loc 1 486 22 view .LVU581
 1978 004a 2B64     		str	r3, [r5, #64]
 1979              	.LVL145:
 1980              		.loc 1 487 7 is_stmt 1 view .LVU582
 1981              	.LBB263:
 1982              	.LBI263:
 1983              		.loc 6 129 20 view .LVU583
 1984              	.LBB264:
 1985              		.loc 6 131 3 view .LVU584
 1986 004c FFF7FEFF 		bl	chDbgCheckClassS
 1987              	.LVL146:
 1988              		.loc 6 133 3 view .LVU585
 1989              	.LBB265:
 1990              	.LBI265:
 1991              		.loc 2 629 20 view .LVU586
 1992              	.LBB266:
 1993              		.loc 2 631 3 view .LVU587
 1994              		.loc 2 631 20 is_stmt 0 view .LVU588
 1995 0050 2068     		ldr	r0, [r4]
ARM GAS  /tmp/ccDUt0w2.s 			page 36


 1996              	.LVL147:
 1997              		.loc 2 631 20 view .LVU589
 1998              	.LBE266:
 1999              	.LBE265:
 2000              	.LBE264:
 2001              	.LBE263:
 2002              		.loc 1 487 10 view .LVU590
 2003 0052 8442     		cmp	r4, r0
 2004 0054 EBD1     		bne	.L153
 2005              		.loc 1 499 9 is_stmt 1 view .LVU591
 2006              		.loc 1 499 19 is_stmt 0 view .LVU592
 2007 0056 2661     		str	r6, [r4, #16]
 2008              		.loc 1 501 9 is_stmt 1 view .LVU593
 2009              		.loc 1 501 21 is_stmt 0 view .LVU594
 2010 0058 A660     		str	r6, [r4, #8]
 2011              	.LBE267:
 2012              		.loc 1 503 13 is_stmt 1 view .LVU595
 2013              		.loc 1 503 17 is_stmt 0 view .LVU596
 2014 005a 2C6C     		ldr	r4, [r5, #64]
 2015              		.loc 1 503 5 view .LVU597
 2016 005c 002C     		cmp	r4, #0
 2017 005e F3D1     		bne	.L144
 2018              	.L152:
 2019              		.loc 1 504 5 is_stmt 1 view .LVU598
 2020              		.loc 1 504 17 is_stmt 0 view .LVU599
 2021 0060 6B6C     		ldr	r3, [r5, #68]
 2022 0062 AB60     		str	r3, [r5, #8]
 2023              		.loc 1 505 5 is_stmt 1 view .LVU600
 2024 0064 FFF7FEFF 		bl	chSchRescheduleS
 2025              	.LVL148:
 2026              	.L141:
 2027              		.loc 1 507 3 view .LVU601
 2028              	.LBB268:
 2029              	.LBI268:
 2030              		.loc 3 358 20 view .LVU602
 2031              	.LBB269:
 2032              		.loc 3 360 3 view .LVU603
 2033 0068 FFF7FEFF 		bl	_dbg_check_unlock
 2034              	.LVL149:
 2035              		.loc 3 361 3 view .LVU604
 2036 006c FFF7FEFF 		bl	_stats_stop_measure_crit_thd
 2037              	.LVL150:
 2038              		.loc 3 367 3 view .LVU605
 2039              		.loc 3 367 3 view .LVU606
 2040              		.loc 3 367 3 view .LVU607
 2041 0070 3B68     		ldr	r3, [r7]
 2042 0072 BB42     		cmp	r3, r7
 2043 0074 04D0     		beq	.L145
 2044 0076 BA69     		ldr	r2, [r7, #24]
 2045 0078 9B68     		ldr	r3, [r3, #8]
 2046 007a 9268     		ldr	r2, [r2, #8]
 2047 007c 9A42     		cmp	r2, r3
 2048 007e 0AD3     		bcc	.L154
 2049              	.L145:
 2050              		.loc 3 367 3 view .LVU608
 2051              		.loc 3 371 3 view .LVU609
 2052              	.LBB270:
ARM GAS  /tmp/ccDUt0w2.s 			page 37


 2053              	.LBI270:
 2054              		.loc 4 458 20 view .LVU610
 2055              	.LBE270:
 2056              	.LBE269:
 2057              	.LBE268:
 2058              		.loc 4 461 3 view .LVU611
 2059              	.LVL151:
 2060              	.LBB276:
 2061              	.LBB274:
 2062              	.LBB273:
 2063              	.LBB271:
 2064              	.LBI271:
 2065              		.loc 5 544 57 view .LVU612
 2066              	.LBB272:
 2067              		.loc 5 546 3 view .LVU613
 2068 0080 0023     		movs	r3, #0
 2069              		.syntax unified
 2070              	@ 546 ".//ChibiOS//os/ext/CMSIS/include/core_cmFunc.h" 1
 2071 0082 83F31188 		MSR basepri, r3
 2072              	@ 0 "" 2
 2073              	.LVL152:
 2074              		.loc 5 546 3 is_stmt 0 view .LVU614
 2075              		.thumb
 2076              		.syntax unified
 2077              	.LBE272:
 2078              	.LBE271:
 2079              	.LBE273:
 2080              	.LBE274:
 2081              	.LBE276:
 2082              		.loc 1 508 1 view .LVU615
 2083 0086 074B     		ldr	r3, .L156
 2084 0088 1A68     		ldr	r2, [r3]
 2085 008a 019B     		ldr	r3, [sp, #4]
 2086 008c 5A40     		eors	r2, r3, r2
 2087 008e 06D1     		bne	.L155
 2088 0090 02B0     		add	sp, sp, #8
 2089              		.cfi_remember_state
 2090              		.cfi_def_cfa_offset 24
 2091              		@ sp needed
 2092 0092 BDE8F081 		pop	{r4, r5, r6, r7, r8, pc}
 2093              	.LVL153:
 2094              	.L154:
 2095              		.cfi_restore_state
 2096              	.LBB277:
 2097              	.LBB275:
 2098              		.loc 3 367 3 is_stmt 1 view .LVU616
 2099 0096 0548     		ldr	r0, .L156+8
 2100 0098 FFF7FEFF 		bl	chSysHalt
 2101              	.LVL154:
 2102 009c F0E7     		b	.L145
 2103              	.L155:
 2104              	.LBE275:
 2105              	.LBE277:
 2106              		.loc 1 508 1 is_stmt 0 view .LVU617
 2107 009e FFF7FEFF 		bl	__stack_chk_fail
 2108              	.LVL155:
 2109              	.L157:
ARM GAS  /tmp/ccDUt0w2.s 			page 38


 2110 00a2 00BF     		.align	2
 2111              	.L156:
 2112 00a4 00000000 		.word	.LC7
 2113 00a8 00000000 		.word	ch
 2114 00ac 00000000 		.word	.LANCHOR2
 2115              		.cfi_endproc
 2116              	.LFE226:
 2117              		.size	chMtxUnlockAll, .-chMtxUnlockAll
 2118              		.section	.rodata.__func__.7261,"a"
 2119              		.align	2
 2120              		.set	.LANCHOR2,. + 0
 2121              		.type	__func__.7261, %object
 2122              		.size	__func__.7261, 12
 2123              	__func__.7261:
 2124 0000 63685379 		.ascii	"chSysUnlock\000"
 2124      73556E6C 
 2124      6F636B00 
 2125              		.section	.rodata.__func__.7957,"a"
 2126              		.align	2
 2127              		.set	.LANCHOR0,. + 0
 2128              		.type	__func__.7957, %object
 2129              		.size	__func__.7957, 16
 2130              	__func__.7957:
 2131 0000 63684D74 		.ascii	"chMtxObjectInit\000"
 2131      784F626A 
 2131      65637449 
 2131      6E697400 
 2132              		.section	.rodata.__func__.7965,"a"
 2133              		.align	2
 2134              		.set	.LANCHOR1,. + 0
 2135              		.type	__func__.7965, %object
 2136              		.size	__func__.7965, 11
 2137              	__func__.7965:
 2138 0000 63684D74 		.ascii	"chMtxLockS\000"
 2138      784C6F63 
 2138      6B5300
 2139              		.section	.rodata.__func__.7982,"a"
 2140              		.align	2
 2141              		.set	.LANCHOR3,. + 0
 2142              		.type	__func__.7982, %object
 2143              		.size	__func__.7982, 14
 2144              	__func__.7982:
 2145 0000 63684D74 		.ascii	"chMtxTryLockS\000"
 2145      78547279 
 2145      4C6F636B 
 2145      5300
 2146              		.section	.rodata.__func__.7988,"a"
 2147              		.align	2
 2148              		.set	.LANCHOR4,. + 0
 2149              		.type	__func__.7988, %object
 2150              		.size	__func__.7988, 12
 2151              	__func__.7988:
 2152 0000 63684D74 		.ascii	"chMtxUnlock\000"
 2152      78556E6C 
 2152      6F636B00 
 2153              		.section	.rodata.__func__.7999,"a"
 2154              		.align	2
ARM GAS  /tmp/ccDUt0w2.s 			page 39


 2155              		.set	.LANCHOR5,. + 0
 2156              		.type	__func__.7999, %object
 2157              		.size	__func__.7999, 13
 2158              	__func__.7999:
 2159 0000 63684D74 		.ascii	"chMtxUnlockS\000"
 2159      78556E6C 
 2159      6F636B53 
 2159      00
 2160              		.text
 2161              	.Letext0:
 2162              		.file 7 "/usr/lib/gcc/arm-none-eabi/9.2.1/include/stdint.h"
 2163              		.file 8 ".//ChibiOS//os/rt/ports/ARMCMx/compilers/GCC/chtypes.h"
 2164              		.file 9 ".//ChibiOS//os/rt/include/chsystypes.h"
 2165              		.file 10 ".//ChibiOS//os/ext/CMSIS/include/core_cm4.h"
 2166              		.file 11 ".//ChibiOS//os/ext/CMSIS/ST/system_stm32f4xx.h"
 2167              		.file 12 ".//ChibiOS//os/rt/ports/ARMCMx/chcore.h"
 2168              		.file 13 ".//ChibiOS//os/rt/include/chdebug.h"
 2169              		.file 14 ".//ChibiOS//os/rt/include/chtm.h"
 2170              		.file 15 ".//ChibiOS//os/rt/include/chstats.h"
 2171              		.file 16 ".//ChibiOS//os/rt/include/chsem.h"
 2172              		.file 17 ".//ChibiOS//os/rt/include/chregistry.h"