ARM GAS  /tmp/ccVCTuyd.s 			page 1


   1              		.cpu cortex-m4
   2              		.eabi_attribute 27, 1
   3              		.eabi_attribute 28, 1
   4              		.eabi_attribute 20, 1
   5              		.eabi_attribute 21, 1
   6              		.eabi_attribute 23, 3
   7              		.eabi_attribute 24, 1
   8              		.eabi_attribute 25, 1
   9              		.eabi_attribute 26, 1
  10              		.eabi_attribute 30, 2
  11              		.eabi_attribute 34, 1
  12              		.eabi_attribute 18, 4
  13              		.file	"chprintf.c"
  14              		.text
  15              	.Ltext0:
  16              		.cfi_sections	.debug_frame
  17              		.section	.rodata.chvprintf.str1.4,"aMS",%progbits,1
  18              		.align	2
  19              	.LC0:
  20 0000 286E756C 		.ascii	"(null)\000"
  20      6C2900
  21              		.global	__aeabi_d2f
  22              		.global	__aeabi_f2d
  23              		.global	__aeabi_ui2d
  24              		.global	__aeabi_i2d
  25              		.global	__aeabi_dsub
  26              		.global	__aeabi_dmul
  27              		.global	__aeabi_d2iz
  28              		.section	.rodata.chvprintf.cst4,"aM",%progbits,4
  29              		.align	2
  30              	.LC1:
  31 0000 00000000 		.word	__stack_chk_guard
  32              		.section	.text.chvprintf,"ax",%progbits
  33              		.align	1
  34              		.p2align 4,,15
  35              		.global	chvprintf
  36              		.arch armv7e-m
  37              		.syntax unified
  38              		.thumb
  39              		.thumb_func
  40              		.fpu fpv4-sp-d16
  41              		.type	chvprintf, %function
  42              	chvprintf:
  43              	.LVL0:
  44              	.LFB260:
  45              		.file 1 ".//ChibiOS//os/hal/lib/streams/chprintf.c"
  46              		.loc 1 121 71 view -0
  47              		.cfi_startproc
  48              		@ args = 0, pretend = 0, frame = 48
  49              		@ frame_needed = 0, uses_anonymous_args = 0
  50              		.loc 1 121 71 is_stmt 0 view .LVU1
  51 0000 2DE9F04F 		push	{r4, r5, r6, r7, r8, r9, r10, fp, lr}
  52              		.cfi_def_cfa_offset 36
  53              		.cfi_offset 4, -36
  54              		.cfi_offset 5, -32
  55              		.cfi_offset 6, -28
  56              		.cfi_offset 7, -24
ARM GAS  /tmp/ccVCTuyd.s 			page 2


  57              		.cfi_offset 8, -20
  58              		.cfi_offset 9, -16
  59              		.cfi_offset 10, -12
  60              		.cfi_offset 11, -8
  61              		.cfi_offset 14, -4
  62 0004 2DED068B 		vpush.64	{d8, d9, d10}
  63              		.cfi_def_cfa_offset 60
  64              		.cfi_offset 80, -60
  65              		.cfi_offset 81, -56
  66              		.cfi_offset 82, -52
  67              		.cfi_offset 83, -48
  68              		.cfi_offset 84, -44
  69              		.cfi_offset 85, -40
  70              		.loc 1 135 13 view .LVU2
  71 0008 0B46     		mov	r3, r1
  72              		.loc 1 121 71 view .LVU3
  73 000a 9E4C     		ldr	r4, .L129
  74 000c 8946     		mov	r9, r1
  75              		.loc 1 135 7 view .LVU4
  76 000e 13F8011B 		ldrb	r1, [r3], #1	@ zero_extendqisi2
  77              	.LVL1:
  78              		.loc 1 121 71 view .LVU5
  79 0012 8DB0     		sub	sp, sp, #52
  80              		.cfi_def_cfa_offset 112
  81              		.loc 1 121 71 view .LVU6
  82 0014 2468     		ldr	r4, [r4]
  83 0016 0B94     		str	r4, [sp, #44]
  84 0018 4FF00004 		mov	r4,#0
  85              	.LVL2:
  86              		.loc 1 122 3 is_stmt 1 view .LVU7
  87              		.loc 1 123 3 view .LVU8
  88              		.loc 1 124 3 view .LVU9
  89              		.loc 1 125 3 view .LVU10
  90              		.loc 1 126 3 view .LVU11
  91              		.loc 1 128 3 view .LVU12
  92              		.loc 1 129 3 view .LVU13
  93              		.loc 1 134 3 view .LVU14
  94              		.loc 1 135 5 view .LVU15
  95              		.loc 1 136 5 view .LVU16
  96              		.loc 1 136 8 is_stmt 0 view .LVU17
  97 001c 0029     		cmp	r1, #0
  98 001e 00F09582 		beq	.L76
  99 0022 9346     		mov	fp, r2
 100              	.LVL3:
 101              		.loc 1 124 7 view .LVU18
 102 0024 0022     		movs	r2, #0
 103              	.LVL4:
 104              		.loc 1 124 7 view .LVU19
 105 0026 8246     		mov	r10, r0
 106 0028 0092     		str	r2, [sp]
 107 002a 0EE0     		b	.L3
 108              	.LVL5:
 109              	.L117:
 110              		.loc 1 139 7 is_stmt 1 view .LVU20
 111              		.loc 1 140 8 is_stmt 0 view .LVU21
 112 002c 009C     		ldr	r4, [sp]
 113              		.loc 1 139 7 view .LVU22
ARM GAS  /tmp/ccVCTuyd.s 			page 3


 114 002e DAF80020 		ldr	r2, [r10]
 115              		.loc 1 140 8 view .LVU23
 116 0032 0134     		adds	r4, r4, #1
 117              		.loc 1 139 7 view .LVU24
 118 0034 9268     		ldr	r2, [r2, #8]
 119              		.loc 1 140 8 view .LVU25
 120 0036 0094     		str	r4, [sp]
 121              	.LVL6:
 122              		.loc 1 139 7 view .LVU26
 123 0038 5046     		mov	r0, r10
 124              		.loc 1 141 7 view .LVU27
 125 003a 9946     		mov	r9, r3
 126              		.loc 1 139 7 view .LVU28
 127 003c 9047     		blx	r2
 128              	.LVL7:
 129              		.loc 1 140 7 is_stmt 1 view .LVU29
 130              		.loc 1 141 7 view .LVU30
 131              	.L5:
 132              		.loc 1 125 3 view .LVU31
 133              		.loc 1 126 3 view .LVU32
 134              		.loc 1 128 3 view .LVU33
 135              		.loc 1 129 3 view .LVU34
 136              		.loc 1 134 3 view .LVU35
 137              		.loc 1 135 5 view .LVU36
 138              		.loc 1 135 13 is_stmt 0 view .LVU37
 139 003e 4B46     		mov	r3, r9
 140              	.LVL8:
 141              		.loc 1 135 7 view .LVU38
 142 0040 13F8011B 		ldrb	r1, [r3], #1	@ zero_extendqisi2
 143              	.LVL9:
 144              		.loc 1 136 5 is_stmt 1 view .LVU39
 145              		.loc 1 136 8 is_stmt 0 view .LVU40
 146 0044 0029     		cmp	r1, #0
 147 0046 00F0F380 		beq	.L1
 148              	.LVL10:
 149              	.L3:
 150              		.loc 1 138 5 is_stmt 1 view .LVU41
 151              		.loc 1 138 8 is_stmt 0 view .LVU42
 152 004a 2529     		cmp	r1, #37
 153 004c EED1     		bne	.L117
 154              		.loc 1 143 5 is_stmt 1 view .LVU43
 155              	.LVL11:
 156              		.loc 1 144 5 view .LVU44
 157              		.loc 1 145 5 view .LVU45
 158              		.loc 1 146 5 view .LVU46
 159              		.loc 1 146 8 is_stmt 0 view .LVU47
 160 004e 99F80120 		ldrb	r2, [r9, #1]	@ zero_extendqisi2
 161 0052 2D2A     		cmp	r2, #45
 162              		.loc 1 147 7 is_stmt 1 view .LVU48
 163              		.loc 1 147 10 is_stmt 0 view .LVU49
 164 0054 04BF     		itt	eq
 165 0056 09F10203 		addeq	r3, r9, #2
 166              	.LVL12:
 167              		.loc 1 148 7 is_stmt 1 view .LVU50
 168              		.loc 1 148 18 is_stmt 0 view .LVU51
 169 005a 0122     		moveq	r2, #1
 170              		.loc 1 151 9 view .LVU52
ARM GAS  /tmp/ccVCTuyd.s 			page 4


 171 005c 1978     		ldrb	r1, [r3]	@ zero_extendqisi2
 172              	.LVL13:
 173              		.loc 1 145 16 view .LVU53
 174 005e 18BF     		it	ne
 175 0060 0022     		movne	r2, #0
 176              		.loc 1 151 8 view .LVU54
 177 0062 3029     		cmp	r1, #48
 178              		.loc 1 153 14 view .LVU55
 179 0064 04BF     		itt	eq
 180 0066 0F46     		moveq	r7, r1
 181              		.loc 1 152 10 view .LVU56
 182 0068 5978     		ldrbeq	r1, [r3, #1]	@ zero_extendqisi2
 183              		.loc 1 145 16 view .LVU57
 184 006a 0192     		str	r2, [sp, #4]
 185              	.LVL14:
 186              		.loc 1 150 5 is_stmt 1 view .LVU58
 187              		.loc 1 151 5 view .LVU59
 188              		.loc 1 152 7 view .LVU60
 189              		.loc 1 153 7 view .LVU61
 190              		.loc 1 152 10 is_stmt 0 view .LVU62
 191 006c 0CBF     		ite	eq
 192 006e 0133     		addeq	r3, r3, #1
 193              	.LVL15:
 194              		.loc 1 150 12 view .LVU63
 195 0070 2027     		movne	r7, #32
 196              	.LVL16:
 197              		.loc 1 155 5 is_stmt 1 view .LVU64
 198              		.loc 1 155 5 is_stmt 0 view .LVU65
 199 0072 5A1C     		adds	r2, r3, #1
 200              		.loc 1 155 11 view .LVU66
 201 0074 0024     		movs	r4, #0
 202 0076 08E0     		b	.L10
 203              	.LVL17:
 204              	.L118:
 205              		.loc 1 161 9 is_stmt 1 view .LVU67
 206              		.loc 1 161 11 is_stmt 0 view .LVU68
 207 0078 5BF8043B 		ldr	r3, [fp], #4
 208              	.LVL18:
 209              		.loc 1 161 11 view .LVU69
 210 007c DBB2     		uxtb	r3, r3
 211              	.LVL19:
 212              	.L8:
 213              		.loc 1 164 7 is_stmt 1 view .LVU70
 214              		.loc 1 164 21 is_stmt 0 view .LVU71
 215 007e 04EB8404 		add	r4, r4, r4, lsl #2
 216              	.LVL20:
 217              		.loc 1 164 21 view .LVU72
 218 0082 12F8011B 		ldrb	r1, [r2], #1	@ zero_extendqisi2
 219              	.LVL21:
 220              		.loc 1 164 13 view .LVU73
 221 0086 03EB4404 		add	r4, r3, r4, lsl #1
 222              	.LVL22:
 223              		.loc 1 156 11 is_stmt 1 view .LVU74
 224              	.L10:
 225              		.loc 1 156 5 view .LVU75
 226              		.loc 1 157 7 view .LVU76
 227              		.loc 1 158 20 is_stmt 0 view .LVU77
ARM GAS  /tmp/ccVCTuyd.s 			page 5


 228 008a A1F13003 		sub	r3, r1, #48
 229 008e DBB2     		uxtb	r3, r3
 230              		.loc 1 158 10 view .LVU78
 231 0090 092B     		cmp	r3, #9
 232              		.loc 1 157 15 view .LVU79
 233 0092 9146     		mov	r9, r2
 234              	.LVL23:
 235              		.loc 1 158 7 is_stmt 1 view .LVU80
 236              		.loc 1 158 10 is_stmt 0 view .LVU81
 237 0094 F3D9     		bls	.L8
 238              		.loc 1 160 12 is_stmt 1 view .LVU82
 239              		.loc 1 160 15 is_stmt 0 view .LVU83
 240 0096 2A29     		cmp	r1, #42
 241 0098 EED0     		beq	.L118
 242              		.loc 1 166 5 is_stmt 1 view .LVU84
 243              	.LVL24:
 244              		.loc 1 167 5 view .LVU85
 245              		.loc 1 167 8 is_stmt 0 view .LVU86
 246 009a 2E29     		cmp	r1, #46
 247              		.loc 1 166 15 view .LVU87
 248 009c 4FF00006 		mov	r6, #0
 249              		.loc 1 167 8 view .LVU88
 250 00a0 46D0     		beq	.L13
 251              	.LVL25:
 252              		.loc 1 181 5 is_stmt 1 view .LVU89
 253              		.loc 1 181 18 is_stmt 0 view .LVU90
 254 00a2 01F0DF03 		and	r3, r1, #223
 255 00a6 4C2B     		cmp	r3, #76
 256 00a8 4FD0     		beq	.L119
 257              	.LVL26:
 258              	.L105:
 259              		.loc 1 187 7 is_stmt 1 view .LVU91
 260 00aa A1F14402 		sub	r2, r1, #68
 261              	.LVL27:
 262              		.loc 1 190 5 view .LVU92
 263 00ae 342A     		cmp	r2, #52
 264 00b0 00F28D80 		bhi	.L16
 265 00b4 DFE812F0 		tbh	[pc, r2, lsl #1]
 266              	.L26:
 267 00b8 E800     		.2byte	(.L37-.L26)/2
 268 00ba 8B00     		.2byte	(.L16-.L26)/2
 269 00bc 8B00     		.2byte	(.L16-.L26)/2
 270 00be 8B00     		.2byte	(.L16-.L26)/2
 271 00c0 8B00     		.2byte	(.L16-.L26)/2
 272 00c2 E800     		.2byte	(.L37-.L26)/2
 273 00c4 8B00     		.2byte	(.L16-.L26)/2
 274 00c6 8B00     		.2byte	(.L16-.L26)/2
 275 00c8 8B00     		.2byte	(.L16-.L26)/2
 276 00ca 8B00     		.2byte	(.L16-.L26)/2
 277 00cc 8B00     		.2byte	(.L16-.L26)/2
 278 00ce 1201     		.2byte	(.L21-.L26)/2
 279 00d0 8B00     		.2byte	(.L16-.L26)/2
 280 00d2 8B00     		.2byte	(.L16-.L26)/2
 281 00d4 8B00     		.2byte	(.L16-.L26)/2
 282 00d6 8B00     		.2byte	(.L16-.L26)/2
 283 00d8 8B00     		.2byte	(.L16-.L26)/2
 284 00da 3C02     		.2byte	(.L82-.L26)/2
ARM GAS  /tmp/ccVCTuyd.s 			page 6


 285 00dc 8B00     		.2byte	(.L16-.L26)/2
 286 00de 8B00     		.2byte	(.L16-.L26)/2
 287 00e0 3E02     		.2byte	(.L81-.L26)/2
 288 00e2 8B00     		.2byte	(.L16-.L26)/2
 289 00e4 8B00     		.2byte	(.L16-.L26)/2
 290 00e6 8B00     		.2byte	(.L16-.L26)/2
 291 00e8 8B00     		.2byte	(.L16-.L26)/2
 292 00ea 8B00     		.2byte	(.L16-.L26)/2
 293 00ec 8B00     		.2byte	(.L16-.L26)/2
 294 00ee 8B00     		.2byte	(.L16-.L26)/2
 295 00f0 8B00     		.2byte	(.L16-.L26)/2
 296 00f2 8B00     		.2byte	(.L16-.L26)/2
 297 00f4 8B00     		.2byte	(.L16-.L26)/2
 298 00f6 0102     		.2byte	(.L24-.L26)/2
 299 00f8 E800     		.2byte	(.L37-.L26)/2
 300 00fa 8B00     		.2byte	(.L16-.L26)/2
 301 00fc 6701     		.2byte	(.L23-.L26)/2
 302 00fe 8B00     		.2byte	(.L16-.L26)/2
 303 0100 8B00     		.2byte	(.L16-.L26)/2
 304 0102 E800     		.2byte	(.L37-.L26)/2
 305 0104 8B00     		.2byte	(.L16-.L26)/2
 306 0106 8B00     		.2byte	(.L16-.L26)/2
 307 0108 8B00     		.2byte	(.L16-.L26)/2
 308 010a 8B00     		.2byte	(.L16-.L26)/2
 309 010c 8B00     		.2byte	(.L16-.L26)/2
 310 010e 1201     		.2byte	(.L21-.L26)/2
 311 0110 8B00     		.2byte	(.L16-.L26)/2
 312 0112 8B00     		.2byte	(.L16-.L26)/2
 313 0114 8B00     		.2byte	(.L16-.L26)/2
 314 0116 4701     		.2byte	(.L20-.L26)/2
 315 0118 8B00     		.2byte	(.L16-.L26)/2
 316 011a 3C02     		.2byte	(.L82-.L26)/2
 317 011c 8B00     		.2byte	(.L16-.L26)/2
 318 011e 8B00     		.2byte	(.L16-.L26)/2
 319 0120 3E02     		.2byte	(.L81-.L26)/2
 320              	.LVL28:
 321              		.p2align 1
 322              	.L120:
 323              		.loc 1 173 11 view .LVU93
 324              		.loc 1 173 13 is_stmt 0 view .LVU94
 325 0122 5BF8043B 		ldr	r3, [fp], #4
 326              	.LVL29:
 327              		.loc 1 173 13 view .LVU95
 328 0126 DBB2     		uxtb	r3, r3
 329              	.LVL30:
 330              	.L12:
 331              		.loc 1 176 9 is_stmt 1 view .LVU96
 332              		.loc 1 176 19 is_stmt 0 view .LVU97
 333 0128 06EB8606 		add	r6, r6, r6, lsl #2
 334              	.LVL31:
 335              		.loc 1 177 9 is_stmt 1 view .LVU98
 336              		.loc 1 177 19 is_stmt 0 view .LVU99
 337 012c 03EB4606 		add	r6, r3, r6, lsl #1
 338              	.LVL32:
 339              		.loc 1 168 13 is_stmt 1 view .LVU100
 340              	.L13:
 341              		.loc 1 168 7 view .LVU101
ARM GAS  /tmp/ccVCTuyd.s 			page 7


 342              		.loc 1 169 9 view .LVU102
 343              		.loc 1 169 11 is_stmt 0 view .LVU103
 344 0130 19F8011B 		ldrb	r1, [r9], #1	@ zero_extendqisi2
 345              	.LVL33:
 346              		.loc 1 170 9 is_stmt 1 view .LVU104
 347              		.loc 1 170 22 is_stmt 0 view .LVU105
 348 0134 A1F13003 		sub	r3, r1, #48
 349 0138 DBB2     		uxtb	r3, r3
 350              		.loc 1 170 12 view .LVU106
 351 013a 092B     		cmp	r3, #9
 352 013c F4D9     		bls	.L12
 353              		.loc 1 172 14 is_stmt 1 view .LVU107
 354              		.loc 1 172 17 is_stmt 0 view .LVU108
 355 013e 2A29     		cmp	r1, #42
 356 0140 EFD0     		beq	.L120
 357              		.loc 1 181 5 is_stmt 1 view .LVU109
 358              		.loc 1 181 18 is_stmt 0 view .LVU110
 359 0142 01F0DF03 		and	r3, r1, #223
 360 0146 4C2B     		cmp	r3, #76
 361 0148 AFD1     		bne	.L105
 362              	.L119:
 363              		.loc 1 182 7 is_stmt 1 view .LVU111
 364              	.LVL34:
 365              		.loc 1 183 7 view .LVU112
 366              		.loc 1 183 11 is_stmt 0 view .LVU113
 367 014a 99F80020 		ldrb	r2, [r9]	@ zero_extendqisi2
 368              		.loc 1 183 10 view .LVU114
 369 014e 002A     		cmp	r2, #0
 370 0150 3DD0     		beq	.L16
 371              		.loc 1 184 9 is_stmt 1 view .LVU115
 372 0152 A2F14403 		sub	r3, r2, #68
 373              		.loc 1 184 17 is_stmt 0 view .LVU116
 374 0156 09F10109 		add	r9, r9, #1
 375              	.LVL35:
 376              		.loc 1 190 5 is_stmt 1 view .LVU117
 377 015a 342B     		cmp	r3, #52
 378 015c 36D8     		bhi	.L80
 379 015e DFE813F0 		tbh	[pc, r3, lsl #1]
 380              	.L18:
 381 0162 9300     		.2byte	(.L37-.L18)/2
 382 0164 3500     		.2byte	(.L80-.L18)/2
 383 0166 3500     		.2byte	(.L80-.L18)/2
 384 0168 3500     		.2byte	(.L80-.L18)/2
 385 016a 3500     		.2byte	(.L80-.L18)/2
 386 016c 9300     		.2byte	(.L37-.L18)/2
 387 016e 3500     		.2byte	(.L80-.L18)/2
 388 0170 3500     		.2byte	(.L80-.L18)/2
 389 0172 3500     		.2byte	(.L80-.L18)/2
 390 0174 3500     		.2byte	(.L80-.L18)/2
 391 0176 3500     		.2byte	(.L80-.L18)/2
 392 0178 BD00     		.2byte	(.L21-.L18)/2
 393 017a 3500     		.2byte	(.L80-.L18)/2
 394 017c 3500     		.2byte	(.L80-.L18)/2
 395 017e 3500     		.2byte	(.L80-.L18)/2
 396 0180 3500     		.2byte	(.L80-.L18)/2
 397 0182 3500     		.2byte	(.L80-.L18)/2
 398 0184 E701     		.2byte	(.L82-.L18)/2
ARM GAS  /tmp/ccVCTuyd.s 			page 8


 399 0186 3500     		.2byte	(.L80-.L18)/2
 400 0188 3500     		.2byte	(.L80-.L18)/2
 401 018a E901     		.2byte	(.L81-.L18)/2
 402 018c 3500     		.2byte	(.L80-.L18)/2
 403 018e 3500     		.2byte	(.L80-.L18)/2
 404 0190 3500     		.2byte	(.L80-.L18)/2
 405 0192 3500     		.2byte	(.L80-.L18)/2
 406 0194 3500     		.2byte	(.L80-.L18)/2
 407 0196 3500     		.2byte	(.L80-.L18)/2
 408 0198 3500     		.2byte	(.L80-.L18)/2
 409 019a 3500     		.2byte	(.L80-.L18)/2
 410 019c 3500     		.2byte	(.L80-.L18)/2
 411 019e 3500     		.2byte	(.L80-.L18)/2
 412 01a0 AC01     		.2byte	(.L24-.L18)/2
 413 01a2 9300     		.2byte	(.L37-.L18)/2
 414 01a4 3500     		.2byte	(.L80-.L18)/2
 415 01a6 1201     		.2byte	(.L23-.L18)/2
 416 01a8 3500     		.2byte	(.L80-.L18)/2
 417 01aa 3500     		.2byte	(.L80-.L18)/2
 418 01ac 9300     		.2byte	(.L37-.L18)/2
 419 01ae 3500     		.2byte	(.L80-.L18)/2
 420 01b0 3500     		.2byte	(.L80-.L18)/2
 421 01b2 3500     		.2byte	(.L80-.L18)/2
 422 01b4 3500     		.2byte	(.L80-.L18)/2
 423 01b6 3500     		.2byte	(.L80-.L18)/2
 424 01b8 BD00     		.2byte	(.L21-.L18)/2
 425 01ba 3500     		.2byte	(.L80-.L18)/2
 426 01bc 3500     		.2byte	(.L80-.L18)/2
 427 01be 3500     		.2byte	(.L80-.L18)/2
 428 01c0 F200     		.2byte	(.L20-.L18)/2
 429 01c2 3500     		.2byte	(.L80-.L18)/2
 430 01c4 E701     		.2byte	(.L82-.L18)/2
 431 01c6 3500     		.2byte	(.L80-.L18)/2
 432 01c8 3500     		.2byte	(.L80-.L18)/2
 433 01ca E901     		.2byte	(.L81-.L18)/2
 434              		.p2align 1
 435              	.L80:
 436              		.loc 1 184 17 is_stmt 0 view .LVU118
 437 01cc 1146     		mov	r1, r2
 438              	.LVL36:
 439              	.L16:
 440              		.loc 1 247 7 is_stmt 1 view .LVU119
 441              		.loc 1 253 8 is_stmt 0 view .LVU120
 442 01ce 019A     		ldr	r2, [sp, #4]
 443              		.loc 1 247 12 view .LVU121
 444 01d0 8DF81410 		strb	r1, [sp, #20]
 445              		.loc 1 248 7 is_stmt 1 view .LVU122
 446              	.LVL37:
 447              		.loc 1 250 5 view .LVU123
 448              		.loc 1 251 5 view .LVU124
 449              		.loc 1 251 5 is_stmt 0 view .LVU125
 450 01d4 631E     		subs	r3, r4, #1
 451              		.loc 1 251 5 view .LVU126
 452 01d6 23EAE374 		bic	r4, r3, r3, asr #31
 453              	.LVL38:
 454              		.loc 1 253 5 is_stmt 1 view .LVU127
 455              		.loc 1 253 8 is_stmt 0 view .LVU128
ARM GAS  /tmp/ccVCTuyd.s 			page 9


 456 01da 002A     		cmp	r2, #0
 457 01dc 34D0     		beq	.L121
 458              	.L88:
 459              		.loc 1 253 8 view .LVU129
 460 01de 0026     		movs	r6, #0
 461              	.LVL39:
 462              		.loc 1 253 8 view .LVU130
 463 01e0 0DF11408 		add	r8, sp, #20
 464              	.LVL40:
 465              	.L65:
 466              		.loc 1 253 8 view .LVU131
 467 01e4 751C     		adds	r5, r6, #1
 468 01e6 4544     		add	r5, r5, r8
 469              	.L63:
 470              	.LVL41:
 471              		.loc 1 267 7 is_stmt 1 view .LVU132
 472              		.loc 1 267 7 is_stmt 0 view .LVU133
 473 01e8 DAF80030 		ldr	r3, [r10]
 474 01ec 18F8011B 		ldrb	r1, [r8], #1	@ zero_extendqisi2
 475              	.LVL42:
 476              		.loc 1 267 7 view .LVU134
 477 01f0 9B68     		ldr	r3, [r3, #8]
 478 01f2 5046     		mov	r0, r10
 479 01f4 9847     		blx	r3
 480              	.LVL43:
 481              		.loc 1 268 7 is_stmt 1 view .LVU135
 482              		.loc 1 266 11 view .LVU136
 483              		.loc 1 266 11 is_stmt 0 view .LVU137
 484 01f6 A845     		cmp	r8, r5
 485 01f8 F6D1     		bne	.L63
 486 01fa 009B     		ldr	r3, [sp]
 487 01fc 03F10108 		add	r8, r3, #1
 488              	.LVL44:
 489              		.loc 1 266 11 view .LVU138
 490 0200 06EB0803 		add	r3, r6, r8
 491 0204 0093     		str	r3, [sp]
 492              	.LVL45:
 493              	.L64:
 494              		.loc 1 271 11 is_stmt 1 view .LVU139
 495 0206 002C     		cmp	r4, #0
 496 0208 3FF419AF 		beq	.L5
 497 020c 2546     		mov	r5, r4
 498              	.LVL46:
 499              	.L66:
 500              		.loc 1 272 7 view .LVU140
 501 020e DAF80030 		ldr	r3, [r10]
 502 0212 3946     		mov	r1, r7
 503 0214 9B68     		ldr	r3, [r3, #8]
 504 0216 5046     		mov	r0, r10
 505 0218 9847     		blx	r3
 506              	.LVL47:
 507              		.loc 1 273 7 view .LVU141
 508              		.loc 1 274 7 view .LVU142
 509              		.loc 1 271 11 view .LVU143
 510 021a 013D     		subs	r5, r5, #1
 511              	.LVL48:
 512              		.loc 1 271 11 is_stmt 0 view .LVU144
ARM GAS  /tmp/ccVCTuyd.s 			page 10


 513 021c F7D1     		bne	.L66
 514 021e 009B     		ldr	r3, [sp]
 515 0220 2344     		add	r3, r3, r4
 516 0222 0093     		str	r3, [sp]
 517              	.LVL49:
 518              		.loc 1 125 3 is_stmt 1 view .LVU145
 519              		.loc 1 126 3 view .LVU146
 520              		.loc 1 128 3 view .LVU147
 521              		.loc 1 129 3 view .LVU148
 522              		.loc 1 134 3 view .LVU149
 523              		.loc 1 135 5 view .LVU150
 524              		.loc 1 135 13 is_stmt 0 view .LVU151
 525 0224 4B46     		mov	r3, r9
 526              	.LVL50:
 527              		.loc 1 135 7 view .LVU152
 528 0226 13F8011B 		ldrb	r1, [r3], #1	@ zero_extendqisi2
 529              	.LVL51:
 530              		.loc 1 136 5 is_stmt 1 view .LVU153
 531              		.loc 1 136 8 is_stmt 0 view .LVU154
 532 022a 0029     		cmp	r1, #0
 533 022c 7FF40DAF 		bne	.L3
 534              	.LVL52:
 535              	.L1:
 536              		.loc 1 277 1 view .LVU155
 537 0230 144B     		ldr	r3, .L129
 538 0232 1A68     		ldr	r2, [r3]
 539 0234 0B9B     		ldr	r3, [sp, #44]
 540 0236 5A40     		eors	r2, r3, r2
 541              	.LVL53:
 542              		.loc 1 277 1 view .LVU156
 543 0238 40F09C81 		bne	.L122
 544 023c 0098     		ldr	r0, [sp]
 545 023e 0DB0     		add	sp, sp, #52
 546              		.cfi_remember_state
 547              		.cfi_def_cfa_offset 60
 548              		@ sp needed
 549 0240 BDEC068B 		vldm	sp!, {d8-d10}
 550              		.cfi_restore 84
 551              		.cfi_restore 85
 552              		.cfi_restore 82
 553              		.cfi_restore 83
 554              		.cfi_restore 80
 555              		.cfi_restore 81
 556              		.cfi_def_cfa_offset 36
 557 0244 BDE8F08F 		pop	{r4, r5, r6, r7, r8, r9, r10, fp, pc}
 558              	.LVL54:
 559              	.L121:
 560              		.cfi_restore_state
 561              		.loc 1 254 7 is_stmt 1 view .LVU157
 562              		.loc 1 255 8 is_stmt 0 view .LVU158
 563 0248 002B     		cmp	r3, #0
 564              		.loc 1 254 13 view .LVU159
 565 024a C4F10004 		rsb	r4, r4, #0
 566              	.LVL55:
 567              		.loc 1 255 5 is_stmt 1 view .LVU160
 568              		.loc 1 255 8 is_stmt 0 view .LVU161
 569 024e C6DD     		ble	.L88
ARM GAS  /tmp/ccVCTuyd.s 			page 11


 570              		.loc 1 256 10 view .LVU162
 571 0250 9DF81410 		ldrb	r1, [sp, #20]	@ zero_extendqisi2
 572              		.loc 1 255 8 view .LVU163
 573 0254 019E     		ldr	r6, [sp, #4]
 574              	.LVL56:
 575              		.loc 1 256 10 view .LVU164
 576 0256 2D29     		cmp	r1, #45
 577              		.loc 1 255 8 view .LVU165
 578 0258 0DF11408 		add	r8, sp, #20
 579              	.LVL57:
 580              		.loc 1 256 7 is_stmt 1 view .LVU166
 581              		.loc 1 254 13 is_stmt 0 view .LVU167
 582 025c 2546     		mov	r5, r4
 583              		.loc 1 256 10 view .LVU168
 584 025e 00F03F81 		beq	.L123
 585              	.LVL58:
 586              	.L60:
 587              		.loc 1 255 8 discriminator 1 view .LVU169
 588 0262 2C46     		mov	r4, r5
 589              	.LVL59:
 590              	.L61:
 591              		.loc 1 261 7 is_stmt 1 discriminator 1 view .LVU170
 592              		.loc 1 262 9 discriminator 1 view .LVU171
 593 0264 DAF80030 		ldr	r3, [r10]
 594 0268 3946     		mov	r1, r7
 595 026a 9B68     		ldr	r3, [r3, #8]
 596 026c 5046     		mov	r0, r10
 597 026e 9847     		blx	r3
 598              	.LVL60:
 599              		.loc 1 263 9 discriminator 1 view .LVU172
 600              		.loc 1 264 15 discriminator 1 view .LVU173
 601              		.loc 1 264 7 is_stmt 0 discriminator 1 view .LVU174
 602 0270 0134     		adds	r4, r4, #1
 603              	.LVL61:
 604              		.loc 1 264 7 discriminator 1 view .LVU175
 605 0272 F7D1     		bne	.L61
 606 0274 009B     		ldr	r3, [sp]
 607              		.loc 1 266 11 view .LVU176
 608 0276 002E     		cmp	r6, #0
 609 0278 A3EB0503 		sub	r3, r3, r5
 610 027c 0093     		str	r3, [sp]
 611              	.LVL62:
 612              		.loc 1 266 11 is_stmt 1 view .LVU177
 613 027e B1DA     		bge	.L65
 614              		.loc 1 266 11 is_stmt 0 view .LVU178
 615 0280 DDE6     		b	.L5
 616              	.L130:
 617 0282 00BF     		.align	2
 618              	.L129:
 619 0284 00000000 		.word	.LC1
 620              	.LVL63:
 621              	.L37:
 622              		.loc 1 211 9 is_stmt 1 view .LVU179
 623              		.loc 1 211 11 is_stmt 0 view .LVU180
 624 0288 5BF8041B 		ldr	r1, [fp], #4
 625              	.LVL64:
 626              		.loc 1 212 7 is_stmt 1 view .LVU181
ARM GAS  /tmp/ccVCTuyd.s 			page 12


 627              		.loc 1 212 10 is_stmt 0 view .LVU182
 628 028c 0029     		cmp	r1, #0
 629 028e C0F24081 		blt	.L124
 630              		.loc 1 143 7 view .LVU183
 631 0292 0DF11408 		add	r8, sp, #20
 632              	.LVL65:
 633              		.loc 1 143 7 view .LVU184
 634 0296 4646     		mov	r6, r8
 635              	.LVL66:
 636              	.L39:
 637              		.loc 1 216 7 is_stmt 1 view .LVU185
 638              	.LBB26:
 639              	.LBI26:
 640              		.loc 1 70 14 view .LVU186
 641              	.LBE26:
 642              		.loc 1 72 3 view .LVU187
 643              	.LBB29:
 644              	.LBB27:
 645              	.LBI27:
 646              		.loc 1 37 14 view .LVU188
 647              	.LBB28:
 648              		.loc 1 41 3 view .LVU189
 649              		.loc 1 42 3 view .LVU190
 650              		.loc 1 43 3 view .LVU191
 651              		.loc 1 45 3 view .LVU192
 652              		.loc 1 46 3 view .LVU193
 653              		.loc 1 52 3 view .LVU194
 654              		.loc 1 52 5 is_stmt 0 view .LVU195
 655 0298 06F10B03 		add	r3, r6, #11
 656              	.LVL67:
 657              		.loc 1 52 5 view .LVU196
 658 029c 1846     		mov	r0, r3
 659              	.LVL68:
 660              	.L40:
 661              		.loc 1 53 3 is_stmt 1 view .LVU197
 662              		.loc 1 54 5 view .LVU198
 663              		.loc 1 54 17 is_stmt 0 view .LVU199
 664 029e B84A     		ldr	r2, .L131+8
 665 02a0 A2FB0152 		umull	r5, r2, r2, r1
 666 02a4 D208     		lsrs	r2, r2, #3
 667 02a6 02EB8205 		add	r5, r2, r2, lsl #2
 668 02aa 9446     		mov	ip, r2
 669 02ac A1EB4502 		sub	r2, r1, r5, lsl #1
 670              	.LVL69:
 671              		.loc 1 55 5 is_stmt 1 view .LVU200
 672              		.loc 1 56 5 view .LVU201
 673              		.loc 1 58 5 view .LVU202
 674              		.loc 1 55 7 is_stmt 0 view .LVU203
 675 02b0 3032     		adds	r2, r2, #48
 676              	.LVL70:
 677              		.loc 1 54 17 view .LVU204
 678 02b2 0D46     		mov	r5, r1
 679              		.loc 1 58 10 view .LVU205
 680 02b4 D2B2     		uxtb	r2, r2
 681              	.LVL71:
 682              		.loc 1 60 3 view .LVU206
 683 02b6 092D     		cmp	r5, #9
ARM GAS  /tmp/ccVCTuyd.s 			page 13


 684              		.loc 1 58 10 view .LVU207
 685 02b8 00F8012D 		strb	r2, [r0, #-1]!
 686              	.LVL72:
 687              		.loc 1 59 5 is_stmt 1 view .LVU208
 688              		.loc 1 59 7 is_stmt 0 view .LVU209
 689 02bc 6146     		mov	r1, ip
 690              	.LVL73:
 691              		.loc 1 60 11 is_stmt 1 view .LVU210
 692              		.loc 1 60 3 is_stmt 0 view .LVU211
 693 02be EEDC     		bgt	.L40
 694              		.loc 1 62 3 is_stmt 1 view .LVU212
 695              	.LVL74:
 696              		.loc 1 62 5 is_stmt 0 view .LVU213
 697 02c0 1B1A     		subs	r3, r3, r0
 698              	.LVL75:
 699              		.loc 1 62 5 view .LVU214
 700 02c2 3344     		add	r3, r3, r6
 701 02c4 01E0     		b	.L42
 702              	.LVL76:
 703              	.L41:
 704              		.loc 1 62 5 view .LVU215
 705 02c6 10F8012F 		ldrb	r2, [r0, #1]!	@ zero_extendqisi2
 706              	.L42:
 707              		.loc 1 63 3 is_stmt 1 view .LVU216
 708              		.loc 1 64 5 view .LVU217
 709              	.LVL77:
 710              		.loc 1 64 10 is_stmt 0 view .LVU218
 711 02ca 06F8012B 		strb	r2, [r6], #1
 712              	.LVL78:
 713              		.loc 1 65 9 is_stmt 1 view .LVU219
 714              		.loc 1 65 3 is_stmt 0 view .LVU220
 715 02ce B342     		cmp	r3, r6
 716 02d0 F9D1     		bne	.L41
 717 02d2 A3EB0803 		sub	r3, r3, r8
 718 02d6 E21A     		subs	r2, r4, r3
 719 02d8 5E1E     		subs	r6, r3, #1
 720              	.LVL79:
 721              		.loc 1 65 3 view .LVU221
 722 02da 27E0     		b	.L35
 723              	.LVL80:
 724              	.L21:
 725              		.loc 1 65 3 view .LVU222
 726              	.LBE28:
 727              	.LBE27:
 728              	.LBE29:
 729              		.loc 1 240 7 is_stmt 1 view .LVU223
 730              		.loc 1 184 17 is_stmt 0 view .LVU224
 731 02dc 0825     		movs	r5, #8
 732              	.LVL81:
 733              	.L53:
 734              		.loc 1 243 9 is_stmt 1 view .LVU225
 735              	.LBB30:
 736              	.LBB31:
 737              	.LBB32:
 738              		.loc 1 52 5 is_stmt 0 view .LVU226
 739 02de 0DF11F0C 		add	ip, sp, #31
 740              	.LBE32:
ARM GAS  /tmp/ccVCTuyd.s 			page 14


 741              	.LBE31:
 742              	.LBE30:
 743              		.loc 1 243 11 view .LVU227
 744 02e2 5BF8041B 		ldr	r1, [fp], #4
 745              	.LVL82:
 746              		.loc 1 244 7 is_stmt 1 view .LVU228
 747              	.LBB35:
 748              	.LBI30:
 749              		.loc 1 70 14 view .LVU229
 750              	.LBE35:
 751              		.loc 1 72 3 view .LVU230
 752              	.LBB36:
 753              	.LBB34:
 754              	.LBI31:
 755              		.loc 1 37 14 view .LVU231
 756              	.LBB33:
 757              		.loc 1 41 3 view .LVU232
 758              		.loc 1 42 3 view .LVU233
 759              		.loc 1 43 3 view .LVU234
 760              		.loc 1 45 3 view .LVU235
 761              		.loc 1 46 3 view .LVU236
 762              		.loc 1 52 3 view .LVU237
 763              		.loc 1 52 5 is_stmt 0 view .LVU238
 764 02e6 6246     		mov	r2, ip
 765 02e8 00E0     		b	.L56
 766              	.LVL83:
 767              	.L86:
 768              		.loc 1 52 5 view .LVU239
 769 02ea 3246     		mov	r2, r6
 770              	.LVL84:
 771              	.L56:
 772              		.loc 1 53 3 is_stmt 1 view .LVU240
 773              		.loc 1 54 5 view .LVU241
 774              		.loc 1 54 17 is_stmt 0 view .LVU242
 775 02ec 0846     		mov	r0, r1
 776 02ee B1FBF5F1 		udiv	r1, r1, r5
 777              	.LVL85:
 778              		.loc 1 54 17 view .LVU243
 779 02f2 05FB1106 		mls	r6, r5, r1, r0
 780              	.LVL86:
 781              		.loc 1 55 5 is_stmt 1 view .LVU244
 782              		.loc 1 55 7 is_stmt 0 view .LVU245
 783 02f6 06F13003 		add	r3, r6, #48
 784              	.LVL87:
 785              		.loc 1 56 5 is_stmt 1 view .LVU246
 786              		.loc 1 56 8 is_stmt 0 view .LVU247
 787 02fa 392B     		cmp	r3, #57
 788              		.loc 1 57 7 is_stmt 1 view .LVU248
 789              		.loc 1 57 9 is_stmt 0 view .LVU249
 790 02fc C8BF     		it	gt
 791 02fe 06F13703 		addgt	r3, r6, #55
 792              	.LVL88:
 793              		.loc 1 58 5 is_stmt 1 view .LVU250
 794              		.loc 1 58 10 is_stmt 0 view .LVU251
 795 0302 DBB2     		uxtb	r3, r3
 796              	.LVL89:
 797              		.loc 1 60 3 view .LVU252
ARM GAS  /tmp/ccVCTuyd.s 			page 15


 798 0304 A842     		cmp	r0, r5
 799              	.LVL90:
 800              		.loc 1 58 10 view .LVU253
 801 0306 02F8013C 		strb	r3, [r2, #-1]
 802 030a 02F1FF36 		add	r6, r2, #-1
 803              	.LVL91:
 804              		.loc 1 59 5 is_stmt 1 view .LVU254
 805              		.loc 1 60 11 view .LVU255
 806              		.loc 1 60 3 is_stmt 0 view .LVU256
 807 030e ECD2     		bcs	.L86
 808              		.loc 1 62 3 is_stmt 1 view .LVU257
 809              		.loc 1 62 5 is_stmt 0 view .LVU258
 810 0310 0DF11408 		add	r8, sp, #20
 811              	.LVL92:
 812              		.loc 1 62 5 view .LVU259
 813 0314 ACEB0606 		sub	r6, ip, r6
 814              	.LVL93:
 815              		.loc 1 62 5 view .LVU260
 816 0318 4146     		mov	r1, r8
 817              	.LVL94:
 818              		.loc 1 62 5 view .LVU261
 819 031a 01E0     		b	.L58
 820              	.LVL95:
 821              	.L57:
 822              		.loc 1 62 5 view .LVU262
 823 031c 12F8013B 		ldrb	r3, [r2], #1	@ zero_extendqisi2
 824              	.L58:
 825              		.loc 1 63 3 is_stmt 1 view .LVU263
 826              		.loc 1 64 5 view .LVU264
 827              	.LVL96:
 828              		.loc 1 64 10 is_stmt 0 view .LVU265
 829 0320 01F8013B 		strb	r3, [r1], #1
 830              	.LVL97:
 831              		.loc 1 65 9 is_stmt 1 view .LVU266
 832              		.loc 1 65 3 is_stmt 0 view .LVU267
 833 0324 6245     		cmp	r2, ip
 834 0326 F9D1     		bne	.L57
 835 0328 A21B     		subs	r2, r4, r6
 836 032a 013E     		subs	r6, r6, #1
 837              	.LVL98:
 838              	.L35:
 839              		.loc 1 65 3 view .LVU268
 840              	.LBE33:
 841              	.LBE34:
 842              	.LBE36:
 843              		.loc 1 250 5 is_stmt 1 view .LVU269
 844              		.loc 1 251 5 view .LVU270
 845              		.loc 1 253 8 is_stmt 0 view .LVU271
 846 032c 019B     		ldr	r3, [sp, #4]
 847 032e 22EAE274 		bic	r4, r2, r2, asr #31
 848              	.LVL99:
 849              		.loc 1 253 5 is_stmt 1 view .LVU272
 850              		.loc 1 253 8 is_stmt 0 view .LVU273
 851 0332 23B9     		cbnz	r3, .L59
 852              		.loc 1 254 7 is_stmt 1 view .LVU274
 853              	.LVL100:
 854              		.loc 1 255 8 is_stmt 0 view .LVU275
ARM GAS  /tmp/ccVCTuyd.s 			page 16


 855 0334 002A     		cmp	r2, #0
 856              		.loc 1 254 13 view .LVU276
 857 0336 C4F10004 		rsb	r4, r4, #0
 858              	.LVL101:
 859              		.loc 1 255 5 is_stmt 1 view .LVU277
 860              		.loc 1 255 8 is_stmt 0 view .LVU278
 861 033a 00F3CB80 		bgt	.L125
 862              	.L59:
 863              		.loc 1 266 11 is_stmt 1 view .LVU279
 864 033e 002E     		cmp	r6, #0
 865 0340 BFF650AF 		bge	.L65
 866 0344 5FE7     		b	.L64
 867              	.LVL102:
 868              	.L20:
 869              		.loc 1 196 7 view .LVU280
 870              		.loc 1 197 7 view .LVU281
 871              		.loc 1 197 14 is_stmt 0 view .LVU282
 872 0346 5BF8048B 		ldr	r8, [fp], #4
 873              	.LVL103:
 874              		.loc 1 197 10 view .LVU283
 875 034a B8F1000F 		cmp	r8, #0
 876 034e 00F0E980 		beq	.L31
 877 0352 98F80020 		ldrb	r2, [r8]	@ zero_extendqisi2
 878              	.LVL104:
 879              		.loc 1 199 7 is_stmt 1 view .LVU284
 880              		.loc 1 200 19 is_stmt 0 view .LVU285
 881 0356 47F6FF71 		movw	r1, #32767
 882 035a 002E     		cmp	r6, #0
 883 035c 08BF     		it	eq
 884 035e 0E46     		moveq	r6, r1
 885              	.LVL105:
 886              		.loc 1 201 19 is_stmt 1 view .LVU286
 887              		.loc 1 201 7 is_stmt 0 view .LVU287
 888 0360 002A     		cmp	r2, #0
 889 0362 00F0F880 		beq	.L126
 890              	.LVL106:
 891              	.L68:
 892              		.loc 1 166 15 view .LVU288
 893 0366 4146     		mov	r1, r8
 894 0368 03E0     		b	.L36
 895              	.LVL107:
 896              	.L34:
 897              		.loc 1 166 15 view .LVU289
 898 036a CB43     		mvns	r3, r1
 899 036c 4344     		add	r3, r3, r8
 900              		.loc 1 201 22 discriminator 3 view .LVU290
 901 036e F342     		cmn	r3, r6
 902 0370 03D4     		bmi	.L114
 903              	.LVL108:
 904              	.L36:
 905              		.loc 1 202 9 is_stmt 1 discriminator 4 view .LVU291
 906              		.loc 1 201 45 discriminator 4 view .LVU292
 907              		.loc 1 201 19 discriminator 4 view .LVU293
 908              		.loc 1 201 7 is_stmt 0 discriminator 4 view .LVU294
 909 0372 11F8013F 		ldrb	r3, [r1, #1]!	@ zero_extendqisi2
 910              	.LVL109:
 911              		.loc 1 201 7 discriminator 4 view .LVU295
ARM GAS  /tmp/ccVCTuyd.s 			page 17


 912 0376 002B     		cmp	r3, #0
 913 0378 F7D1     		bne	.L34
 914              	.L114:
 915              		.loc 1 201 7 discriminator 4 view .LVU296
 916 037a A1EB0801 		sub	r1, r1, r8
 917              	.LVL110:
 918              		.loc 1 201 7 discriminator 4 view .LVU297
 919 037e 621A     		subs	r2, r4, r1
 920 0380 4E1E     		subs	r6, r1, #1
 921              		.loc 1 196 14 view .LVU298
 922 0382 2027     		movs	r7, #32
 923 0384 D2E7     		b	.L35
 924              	.LVL111:
 925              	.L23:
 926              		.loc 1 220 7 is_stmt 1 view .LVU299
 927              		.loc 1 220 19 is_stmt 0 view .LVU300
 928 0386 0BF1070B 		add	fp, fp, #7
 929              	.LVL112:
 930              		.loc 1 220 19 view .LVU301
 931 038a 2BF0070B 		bic	fp, fp, #7
 932              	.LVL113:
 933              		.loc 1 220 9 view .LVU302
 934 038e FBE80201 		ldrd	r0, [fp], #8
 935              	.LVL114:
 936              		.loc 1 220 9 view .LVU303
 937 0392 FFF7FEFF 		bl	__aeabi_d2f
 938              	.LVL115:
 939 0396 08EE100A 		vmov	s16, r0
 940              	.LVL116:
 941              		.loc 1 221 7 is_stmt 1 view .LVU304
 942              		.loc 1 221 10 is_stmt 0 view .LVU305
 943 039a B5EEC08A 		vcmpe.f32	s16, #0
 944 039e F1EE10FA 		vmrs	APSR_nzcv, FPSCR
 945 03a2 00F1AC80 		bmi	.L127
 946              		.loc 1 143 7 view .LVU306
 947 03a6 0DF11408 		add	r8, sp, #20
 948              	.LVL117:
 949              		.loc 1 143 7 view .LVU307
 950 03aa 4546     		mov	r5, r8
 951              	.LVL118:
 952              	.L43:
 953              		.loc 1 225 7 is_stmt 1 view .LVU308
 954              		.loc 1 225 11 is_stmt 0 view .LVU309
 955 03ac 18EE100A 		vmov	r0, s16
 956 03b0 FFF7FEFF 		bl	__aeabi_f2d
 957              	.LVL119:
 958              	.LBB37:
 959              	.LBB38:
 960              		.loc 1 83 24 view .LVU310
 961 03b4 013E     		subs	r6, r6, #1
 962              	.LVL120:
 963              		.loc 1 83 6 view .LVU311
 964 03b6 082E     		cmp	r6, #8
 965              	.LBE38:
 966              	.LBE37:
 967              		.loc 1 225 11 view .LVU312
 968 03b8 41EC190B 		vmov	d9, r0, r1
ARM GAS  /tmp/ccVCTuyd.s 			page 18


 969              	.LVL121:
 970              	.LBB53:
 971              	.LBI37:
 972              		.loc 1 80 14 is_stmt 1 view .LVU313
 973              	.LBB51:
 974              		.loc 1 81 3 view .LVU314
 975              		.loc 1 83 3 view .LVU315
 976              		.loc 1 83 6 is_stmt 0 view .LVU316
 977 03bc 00F2BC80 		bhi	.L85
 978              		.loc 1 83 6 view .LVU317
 979 03c0 704B     		ldr	r3, .L131+12
 980 03c2 53F82630 		ldr	r3, [r3, r6, lsl #2]
 981 03c6 0393     		str	r3, [sp, #12]
 982 03c8 1846     		mov	r0, r3
 983              	.LVL122:
 984              		.loc 1 83 6 view .LVU318
 985 03ca 1E46     		mov	r6, r3
 986              	.LVL123:
 987              		.loc 1 83 6 view .LVU319
 988 03cc FFF7FEFF 		bl	__aeabi_ui2d
 989              	.LVL124:
 990 03d0 6B4A     		ldr	r2, .L131+8
 991 03d2 3346     		mov	r3, r6
 992 03d4 A2FB0336 		umull	r3, r6, r2, r3
 993 03d8 41EC1A0B 		vmov	d10, r0, r1
 994 03dc F608     		lsrs	r6, r6, #3
 995              	.L45:
 996              		.loc 1 85 3 is_stmt 1 view .LVU320
 997              		.loc 1 87 3 view .LVU321
 998              		.loc 1 87 5 is_stmt 0 view .LVU322
 999 03de FDEEC87A 		vcvt.s32.f32	s15, s16
 1000              	.LBB39:
 1001              	.LBB40:
 1002              		.loc 1 52 5 view .LVU323
 1003 03e2 05F10B0C 		add	ip, r5, #11
 1004              		.loc 1 45 5 view .LVU324
 1005 03e6 17EE901A 		vmov	r1, s15	@ int
 1006              	.LBE40:
 1007              	.LBE39:
 1008              		.loc 1 87 5 view .LVU325
 1009 03ea CDED027A 		vstr.32	s15, [sp, #8]	@ int
 1010              	.LVL125:
 1011              		.loc 1 88 3 is_stmt 1 view .LVU326
 1012              	.LBB43:
 1013              	.LBI39:
 1014              		.loc 1 37 14 view .LVU327
 1015              	.LBB41:
 1016              		.loc 1 41 3 view .LVU328
 1017              		.loc 1 42 3 view .LVU329
 1018              		.loc 1 43 3 view .LVU330
 1019              		.loc 1 45 3 view .LVU331
 1020              		.loc 1 46 3 view .LVU332
 1021              		.loc 1 52 3 view .LVU333
 1022              		.loc 1 52 5 is_stmt 0 view .LVU334
 1023 03ee 6246     		mov	r2, ip
 1024              	.LVL126:
 1025              	.L46:
ARM GAS  /tmp/ccVCTuyd.s 			page 19


 1026              		.loc 1 53 3 is_stmt 1 view .LVU335
 1027              		.loc 1 54 5 view .LVU336
 1028              		.loc 1 54 17 is_stmt 0 view .LVU337
 1029 03f0 634B     		ldr	r3, .L131+8
 1030 03f2 A3FB0103 		umull	r0, r3, r3, r1
 1031 03f6 DB08     		lsrs	r3, r3, #3
 1032 03f8 03EB830E 		add	lr, r3, r3, lsl #2
 1033 03fc 1846     		mov	r0, r3
 1034 03fe A1EB4E03 		sub	r3, r1, lr, lsl #1
 1035              	.LVL127:
 1036              		.loc 1 55 5 is_stmt 1 view .LVU338
 1037              		.loc 1 56 5 view .LVU339
 1038              		.loc 1 58 5 view .LVU340
 1039              		.loc 1 55 7 is_stmt 0 view .LVU341
 1040 0402 3033     		adds	r3, r3, #48
 1041              	.LVL128:
 1042              		.loc 1 54 17 view .LVU342
 1043 0404 8E46     		mov	lr, r1
 1044              		.loc 1 58 10 view .LVU343
 1045 0406 DBB2     		uxtb	r3, r3
 1046              	.LVL129:
 1047              		.loc 1 60 3 view .LVU344
 1048 0408 BEF1090F 		cmp	lr, #9
 1049              		.loc 1 58 10 view .LVU345
 1050 040c 02F8013D 		strb	r3, [r2, #-1]!
 1051              	.LVL130:
 1052              		.loc 1 59 5 is_stmt 1 view .LVU346
 1053              		.loc 1 59 7 is_stmt 0 view .LVU347
 1054 0410 0146     		mov	r1, r0
 1055              	.LVL131:
 1056              		.loc 1 60 11 is_stmt 1 view .LVU348
 1057              		.loc 1 60 3 is_stmt 0 view .LVU349
 1058 0412 EDD8     		bhi	.L46
 1059              		.loc 1 62 3 is_stmt 1 view .LVU350
 1060              		.loc 1 62 5 is_stmt 0 view .LVU351
 1061 0414 ACEB020C 		sub	ip, ip, r2
 1062              	.LVL132:
 1063              		.loc 1 62 5 view .LVU352
 1064 0418 05EB0C00 		add	r0, r5, ip
 1065              	.LVL133:
 1066              		.loc 1 62 5 view .LVU353
 1067 041c 2946     		mov	r1, r5
 1068              	.LVL134:
 1069              		.loc 1 62 5 view .LVU354
 1070 041e 01E0     		b	.L48
 1071              	.LVL135:
 1072              	.L128:
 1073              		.loc 1 62 5 view .LVU355
 1074 0420 12F8013F 		ldrb	r3, [r2, #1]!	@ zero_extendqisi2
 1075              	.L48:
 1076              		.loc 1 63 3 is_stmt 1 view .LVU356
 1077              		.loc 1 64 5 view .LVU357
 1078              	.LVL136:
 1079              		.loc 1 64 10 is_stmt 0 view .LVU358
 1080 0424 01F8013B 		strb	r3, [r1], #1
 1081              	.LVL137:
 1082              		.loc 1 65 9 is_stmt 1 view .LVU359
ARM GAS  /tmp/ccVCTuyd.s 			page 20


 1083              		.loc 1 65 3 is_stmt 0 view .LVU360
 1084 0428 8142     		cmp	r1, r0
 1085 042a F9D1     		bne	.L128
 1086              	.LBE41:
 1087              	.LBE43:
 1088              		.loc 1 89 8 view .LVU361
 1089 042c 2E23     		movs	r3, #46
 1090 042e 0CF1FF3C 		add	ip, ip, #-1
 1091              		.loc 1 90 19 view .LVU362
 1092 0432 0298     		ldr	r0, [sp, #8]
 1093              		.loc 1 89 8 view .LVU363
 1094 0434 0B70     		strb	r3, [r1]
 1095 0436 6544     		add	r5, r5, ip
 1096              	.LVL138:
 1097              	.LBB44:
 1098              	.LBB42:
 1099              		.loc 1 67 3 is_stmt 1 view .LVU364
 1100              		.loc 1 67 3 is_stmt 0 view .LVU365
 1101              	.LBE42:
 1102              	.LBE44:
 1103              		.loc 1 89 3 is_stmt 1 view .LVU366
 1104              		.loc 1 90 19 is_stmt 0 view .LVU367
 1105 0438 FFF7FEFF 		bl	__aeabi_i2d
 1106              	.LVL139:
 1107              		.loc 1 90 19 view .LVU368
 1108 043c 0246     		mov	r2, r0
 1109 043e 0B46     		mov	r3, r1
 1110 0440 51EC190B 		vmov	r0, r1, d9
 1111 0444 FFF7FEFF 		bl	__aeabi_dsub
 1112              	.LVL140:
 1113              		.loc 1 90 24 view .LVU369
 1114 0448 53EC1A2B 		vmov	r2, r3, d10
 1115 044c FFF7FEFF 		bl	__aeabi_dmul
 1116              	.LVL141:
 1117              		.loc 1 90 5 view .LVU370
 1118 0450 FFF7FEFF 		bl	__aeabi_d2iz
 1119              	.LVL142:
 1120              	.LBB45:
 1121              	.LBB46:
 1122              		.loc 1 47 8 view .LVU371
 1123 0454 039B     		ldr	r3, [sp, #12]
 1124              		.loc 1 52 5 view .LVU372
 1125 0456 05F10D0E 		add	lr, r5, #13
 1126              		.loc 1 47 8 view .LVU373
 1127 045a 092B     		cmp	r3, #9
 1128 045c 98BF     		it	ls
 1129 045e 0646     		movls	r6, r0
 1130              	.LBE46:
 1131              	.LBE45:
 1132              		.loc 1 89 5 view .LVU374
 1133 0460 AB1C     		adds	r3, r5, #2
 1134              	.LBB49:
 1135              	.LBB47:
 1136              		.loc 1 52 5 view .LVU375
 1137 0462 7246     		mov	r2, lr
 1138              	.LBE47:
 1139              	.LBE49:
ARM GAS  /tmp/ccVCTuyd.s 			page 21


 1140              		.loc 1 89 5 view .LVU376
 1141 0464 0293     		str	r3, [sp, #8]
 1142              	.LVL143:
 1143              		.loc 1 90 3 is_stmt 1 view .LVU377
 1144              		.loc 1 91 3 view .LVU378
 1145              	.LBB50:
 1146              	.LBI45:
 1147              		.loc 1 37 14 view .LVU379
 1148              	.LBB48:
 1149              		.loc 1 41 3 view .LVU380
 1150              		.loc 1 42 3 view .LVU381
 1151              		.loc 1 43 3 view .LVU382
 1152              		.loc 1 45 3 view .LVU383
 1153              		.loc 1 46 3 view .LVU384
 1154              		.loc 1 52 3 view .LVU385
 1155              	.L50:
 1156              		.loc 1 53 3 view .LVU386
 1157              		.loc 1 54 5 view .LVU387
 1158              		.loc 1 54 17 is_stmt 0 view .LVU388
 1159 0466 464B     		ldr	r3, .L131+8
 1160 0468 A3FB0013 		umull	r1, r3, r3, r0
 1161 046c DB08     		lsrs	r3, r3, #3
 1162 046e 03EB830C 		add	ip, r3, r3, lsl #2
 1163 0472 1946     		mov	r1, r3
 1164 0474 A0EB4C03 		sub	r3, r0, ip, lsl #1
 1165              	.LVL144:
 1166              		.loc 1 55 5 is_stmt 1 view .LVU389
 1167              		.loc 1 56 5 view .LVU390
 1168              		.loc 1 58 5 view .LVU391
 1169              		.loc 1 60 16 is_stmt 0 view .LVU392
 1170 0478 4148     		ldr	r0, .L131+8
 1171 047a B446     		mov	ip, r6
 1172              		.loc 1 55 7 view .LVU393
 1173 047c 3033     		adds	r3, r3, #48
 1174              	.LVL145:
 1175              		.loc 1 60 16 view .LVU394
 1176 047e A0FB0606 		umull	r0, r6, r0, r6
 1177              	.LVL146:
 1178              		.loc 1 58 10 view .LVU395
 1179 0482 DBB2     		uxtb	r3, r3
 1180              	.LVL147:
 1181              		.loc 1 60 3 view .LVU396
 1182 0484 BCF1090F 		cmp	ip, #9
 1183              		.loc 1 58 10 view .LVU397
 1184 0488 02F8013D 		strb	r3, [r2, #-1]!
 1185              	.LVL148:
 1186              		.loc 1 59 5 is_stmt 1 view .LVU398
 1187              		.loc 1 59 7 is_stmt 0 view .LVU399
 1188 048c 0846     		mov	r0, r1
 1189              		.loc 1 60 11 is_stmt 1 view .LVU400
 1190              		.loc 1 60 16 is_stmt 0 view .LVU401
 1191 048e 4FEAD606 		lsr	r6, r6, #3
 1192              	.LVL149:
 1193              		.loc 1 60 3 view .LVU402
 1194 0492 E8D8     		bhi	.L50
 1195              		.loc 1 62 3 is_stmt 1 view .LVU403
 1196              	.LVL150:
ARM GAS  /tmp/ccVCTuyd.s 			page 22


 1197              		.loc 1 62 5 is_stmt 0 view .LVU404
 1198 0494 AEEB0206 		sub	r6, lr, r2
 1199              	.LVL151:
 1200              		.loc 1 62 5 view .LVU405
 1201 0498 B01C     		adds	r0, r6, #2
 1202 049a 0299     		ldr	r1, [sp, #8]
 1203 049c 2844     		add	r0, r0, r5
 1204 049e 01E0     		b	.L52
 1205              	.LVL152:
 1206              	.L51:
 1207              		.loc 1 62 5 view .LVU406
 1208 04a0 12F8013F 		ldrb	r3, [r2, #1]!	@ zero_extendqisi2
 1209              	.LVL153:
 1210              	.L52:
 1211              		.loc 1 63 3 is_stmt 1 view .LVU407
 1212              		.loc 1 64 5 view .LVU408
 1213              		.loc 1 64 10 is_stmt 0 view .LVU409
 1214 04a4 01F8013B 		strb	r3, [r1], #1
 1215              	.LVL154:
 1216              		.loc 1 65 9 is_stmt 1 view .LVU410
 1217              		.loc 1 65 3 is_stmt 0 view .LVU411
 1218 04a8 8142     		cmp	r1, r0
 1219 04aa F9D1     		bne	.L51
 1220 04ac 029B     		ldr	r3, [sp, #8]
 1221 04ae 3344     		add	r3, r3, r6
 1222 04b0 A3EB0806 		sub	r6, r3, r8
 1223 04b4 A21B     		subs	r2, r4, r6
 1224 04b6 013E     		subs	r6, r6, #1
 1225 04b8 38E7     		b	.L35
 1226              	.LVL155:
 1227              	.L24:
 1228              		.loc 1 65 3 view .LVU412
 1229              	.LBE48:
 1230              	.LBE50:
 1231              	.LBE51:
 1232              	.LBE53:
 1233              		.loc 1 192 7 is_stmt 1 view .LVU413
 1234              		.loc 1 193 7 view .LVU414
 1235              		.loc 1 193 12 is_stmt 0 view .LVU415
 1236 04ba 5BF8042B 		ldr	r2, [fp], #4
 1237              	.LVL156:
 1238              		.loc 1 193 12 view .LVU416
 1239 04be 8DF81420 		strb	r2, [sp, #20]
 1240              		.loc 1 194 7 is_stmt 1 view .LVU417
 1241              		.loc 1 253 8 is_stmt 0 view .LVU418
 1242 04c2 019A     		ldr	r2, [sp, #4]
 1243 04c4 631E     		subs	r3, r4, #1
 1244              		.loc 1 192 14 view .LVU419
 1245 04c6 2027     		movs	r7, #32
 1246              	.LVL157:
 1247              		.loc 1 250 5 is_stmt 1 view .LVU420
 1248              		.loc 1 251 5 view .LVU421
 1249              		.loc 1 251 5 is_stmt 0 view .LVU422
 1250 04c8 23EAE374 		bic	r4, r3, r3, asr #31
 1251              	.LVL158:
 1252              		.loc 1 253 5 is_stmt 1 view .LVU423
 1253              		.loc 1 253 8 is_stmt 0 view .LVU424
ARM GAS  /tmp/ccVCTuyd.s 			page 23


 1254 04cc 002A     		cmp	r2, #0
 1255 04ce 7FF486AE 		bne	.L88
 1256 04d2 B9E6     		b	.L121
 1257              	.LVL159:
 1258              	.L125:
 1259              		.loc 1 254 13 view .LVU425
 1260 04d4 2546     		mov	r5, r4
 1261              	.LVL160:
 1262              	.L73:
 1263              		.loc 1 256 7 is_stmt 1 view .LVU426
 1264              		.loc 1 256 10 is_stmt 0 view .LVU427
 1265 04d6 98F80010 		ldrb	r1, [r8]	@ zero_extendqisi2
 1266 04da 2D29     		cmp	r1, #45
 1267 04dc 7FF4C1AE 		bne	.L60
 1268              	.LVL161:
 1269              	.L123:
 1270              		.loc 1 256 21 discriminator 1 view .LVU428
 1271 04e0 302F     		cmp	r7, #48
 1272 04e2 7FF4BEAE 		bne	.L60
 1273              		.loc 1 257 9 is_stmt 1 view .LVU429
 1274 04e6 DAF80020 		ldr	r2, [r10]
 1275 04ea 5046     		mov	r0, r10
 1276 04ec 9268     		ldr	r2, [r2, #8]
 1277 04ee 9047     		blx	r2
 1278              	.LVL162:
 1279              		.loc 1 258 10 is_stmt 0 view .LVU430
 1280 04f0 009B     		ldr	r3, [sp]
 1281 04f2 0133     		adds	r3, r3, #1
 1282              		.loc 1 257 9 view .LVU431
 1283 04f4 08F10108 		add	r8, r8, #1
 1284              	.LVL163:
 1285              		.loc 1 258 9 is_stmt 1 view .LVU432
 1286              		.loc 1 258 10 is_stmt 0 view .LVU433
 1287 04f8 0093     		str	r3, [sp]
 1288              	.LVL164:
 1289              		.loc 1 259 9 is_stmt 1 view .LVU434
 1290              		.loc 1 259 9 is_stmt 0 view .LVU435
 1291 04fa 013E     		subs	r6, r6, #1
 1292 04fc B1E6     		b	.L60
 1293              	.LVL165:
 1294              	.L127:
 1295              		.loc 1 222 9 is_stmt 1 view .LVU436
 1296              		.loc 1 222 14 is_stmt 0 view .LVU437
 1297 04fe 2D23     		movs	r3, #45
 1298              		.loc 1 223 11 view .LVU438
 1299 0500 B1EE488A 		vneg.f32	s16, s16
 1300              		.loc 1 222 14 view .LVU439
 1301 0504 8DF81430 		strb	r3, [sp, #20]
 1302              		.loc 1 223 9 is_stmt 1 view .LVU440
 1303              	.LVL166:
 1304              		.loc 1 222 11 is_stmt 0 view .LVU441
 1305 0508 0DF11505 		add	r5, sp, #21
 1306              	.LVL167:
 1307              		.loc 1 222 11 view .LVU442
 1308 050c 0DF11408 		add	r8, sp, #20
 1309              	.LVL168:
 1310              		.loc 1 222 11 view .LVU443
ARM GAS  /tmp/ccVCTuyd.s 			page 24


 1311 0510 4CE7     		b	.L43
 1312              	.LVL169:
 1313              	.L124:
 1314              		.loc 1 213 9 is_stmt 1 view .LVU444
 1315              		.loc 1 213 14 is_stmt 0 view .LVU445
 1316 0512 2D23     		movs	r3, #45
 1317              		.loc 1 214 11 view .LVU446
 1318 0514 4942     		rsbs	r1, r1, #0
 1319              	.LVL170:
 1320              		.loc 1 213 14 view .LVU447
 1321 0516 8DF81430 		strb	r3, [sp, #20]
 1322              	.LVL171:
 1323              		.loc 1 214 9 is_stmt 1 view .LVU448
 1324              		.loc 1 213 11 is_stmt 0 view .LVU449
 1325 051a 0DF11506 		add	r6, sp, #21
 1326              	.LVL172:
 1327              		.loc 1 213 11 view .LVU450
 1328 051e 0DF11408 		add	r8, sp, #20
 1329              	.LVL173:
 1330              		.loc 1 213 11 view .LVU451
 1331 0522 B9E6     		b	.L39
 1332              	.LVL174:
 1333              	.L31:
 1334              		.loc 1 199 7 is_stmt 1 view .LVU452
 1335              		.loc 1 199 10 is_stmt 0 view .LVU453
 1336 0524 A6B9     		cbnz	r6, .L89
 1337              		.loc 1 198 11 view .LVU454
 1338 0526 DFF86880 		ldr	r8, .L131+24
 1339              		.loc 1 200 19 view .LVU455
 1340 052a 47F6FF76 		movw	r6, #32767
 1341              	.LVL175:
 1342              		.loc 1 200 19 view .LVU456
 1343 052e 1AE7     		b	.L68
 1344              	.LVL176:
 1345              	.L82:
 1346              	.L27:
 1347              		.loc 1 240 7 is_stmt 1 view .LVU457
 1348              		.loc 1 187 28 is_stmt 0 view .LVU458
 1349 0530 0A25     		movs	r5, #10
 1350 0532 D4E6     		b	.L53
 1351              	.L81:
 1352              		.loc 1 184 17 view .LVU459
 1353 0534 1025     		movs	r5, #16
 1354              		.loc 1 241 9 is_stmt 1 view .LVU460
 1355              	.LVL177:
 1356              		.loc 1 241 9 is_stmt 0 view .LVU461
 1357 0536 D2E6     		b	.L53
 1358              	.LVL178:
 1359              	.L85:
 1360              	.LBB54:
 1361              	.LBB52:
 1362              		.loc 1 241 9 view .LVU462
 1363 0538 9FED0F7B 		vldr.64	d7, .L131
 1364 053c 124B     		ldr	r3, .L131+16
 1365 053e 134E     		ldr	r6, .L131+20
 1366              	.LVL179:
 1367              		.loc 1 241 9 view .LVU463
ARM GAS  /tmp/ccVCTuyd.s 			page 25


 1368 0540 0393     		str	r3, [sp, #12]
 1369 0542 B0EE47AA 		vmov.f32	s20, s14
 1370 0546 F0EE67AA 		vmov.f32	s21, s15
 1371 054a 48E7     		b	.L45
 1372              	.LVL180:
 1373              	.L76:
 1374              		.loc 1 241 9 view .LVU464
 1375              	.LBE52:
 1376              	.LBE54:
 1377              		.loc 1 124 7 view .LVU465
 1378 054c 0091     		str	r1, [sp]
 1379              		.loc 1 137 7 is_stmt 1 view .LVU466
 1380              		.loc 1 137 14 is_stmt 0 view .LVU467
 1381 054e 6FE6     		b	.L1
 1382              	.LVL181:
 1383              	.L89:
 1384              		.loc 1 198 11 view .LVU468
 1385 0550 DFF83C80 		ldr	r8, .L131+24
 1386 0554 07E7     		b	.L68
 1387              	.LVL182:
 1388              	.L126:
 1389              		.loc 1 250 5 is_stmt 1 view .LVU469
 1390              		.loc 1 251 5 view .LVU470
 1391              		.loc 1 253 5 view .LVU471
 1392              		.loc 1 253 8 is_stmt 0 view .LVU472
 1393 0556 019B     		ldr	r3, [sp, #4]
 1394 0558 33B9     		cbnz	r3, .L87
 1395              		.loc 1 254 7 is_stmt 1 view .LVU473
 1396              		.loc 1 255 8 is_stmt 0 view .LVU474
 1397 055a 002C     		cmp	r4, #0
 1398              		.loc 1 254 13 view .LVU475
 1399 055c C4F10005 		rsb	r5, r4, #0
 1400              	.LVL183:
 1401              		.loc 1 255 5 is_stmt 1 view .LVU476
 1402              		.loc 1 255 8 is_stmt 0 view .LVU477
 1403 0560 04DC     		bgt	.L91
 1404              		.loc 1 254 13 view .LVU478
 1405 0562 2C46     		mov	r4, r5
 1406              		.loc 1 196 14 view .LVU479
 1407 0564 2027     		movs	r7, #32
 1408 0566 4EE6     		b	.L64
 1409              	.LVL184:
 1410              	.L87:
 1411              		.loc 1 196 14 view .LVU480
 1412 0568 2027     		movs	r7, #32
 1413 056a 4CE6     		b	.L64
 1414              	.LVL185:
 1415              	.L91:
 1416              		.loc 1 196 14 view .LVU481
 1417 056c 2027     		movs	r7, #32
 1418              		.loc 1 255 8 view .LVU482
 1419 056e 4FF0FF36 		mov	r6, #-1
 1420              	.LVL186:
 1421              		.loc 1 255 8 view .LVU483
 1422 0572 B0E7     		b	.L73
 1423              	.LVL187:
 1424              	.L122:
ARM GAS  /tmp/ccVCTuyd.s 			page 26


 1425              		.loc 1 277 1 view .LVU484
 1426 0574 FFF7FEFF 		bl	__stack_chk_fail
 1427              	.LVL188:
 1428              	.L132:
 1429              		.loc 1 277 1 view .LVU485
 1430              		.align	3
 1431              	.L131:
 1432 0578 00000000 		.word	0
 1433 057c 65CDCD41 		.word	1104006501
 1434 0580 CDCCCCCC 		.word	-858993459
 1435 0584 00000000 		.word	.LANCHOR0
 1436 0588 00CA9A3B 		.word	1000000000
 1437 058c 00E1F505 		.word	100000000
 1438 0590 00000000 		.word	.LC0
 1439              		.cfi_endproc
 1440              	.LFE260:
 1441              		.size	chvprintf, .-chvprintf
 1442              		.section	.rodata.chsnprintf.cst4,"aM",%progbits,4
 1443              		.align	2
 1444              	.LC2:
 1445 0000 00000000 		.word	__stack_chk_guard
 1446              		.section	.text.chsnprintf,"ax",%progbits
 1447              		.align	1
 1448              		.p2align 4,,15
 1449              		.global	chsnprintf
 1450              		.syntax unified
 1451              		.thumb
 1452              		.thumb_func
 1453              		.fpu fpv4-sp-d16
 1454              		.type	chsnprintf, %function
 1455              	chsnprintf:
 1456              	.LVL189:
 1457              	.LFB261:
 1458              		.loc 1 307 62 is_stmt 1 view -0
 1459              		.cfi_startproc
 1460              		@ args = 4, pretend = 8, frame = 32
 1461              		@ frame_needed = 0, uses_anonymous_args = 1
 1462              		.loc 1 307 62 is_stmt 0 view .LVU487
 1463 0000 0CB4     		push	{r2, r3}
 1464              		.cfi_def_cfa_offset 8
 1465              		.cfi_offset 2, -8
 1466              		.cfi_offset 3, -4
 1467 0002 70B5     		push	{r4, r5, r6, lr}
 1468              		.cfi_def_cfa_offset 24
 1469              		.cfi_offset 4, -24
 1470              		.cfi_offset 5, -20
 1471              		.cfi_offset 6, -16
 1472              		.cfi_offset 14, -12
 1473 0004 194B     		ldr	r3, .L139
 1474 0006 88B0     		sub	sp, sp, #32
 1475              		.cfi_def_cfa_offset 56
 1476              		.loc 1 307 62 view .LVU488
 1477 0008 0546     		mov	r5, r0
 1478 000a 0C9E     		ldr	r6, [sp, #48]
 1479 000c 1B68     		ldr	r3, [r3]
 1480 000e 0793     		str	r3, [sp, #28]
 1481 0010 4FF00003 		mov	r3,#0
ARM GAS  /tmp/ccVCTuyd.s 			page 27


 1482              		.loc 1 308 3 is_stmt 1 view .LVU489
 1483              		.loc 1 309 3 view .LVU490
 1484              		.loc 1 310 3 view .LVU491
 1485              		.loc 1 311 3 view .LVU492
 1486              		.loc 1 312 3 view .LVU493
 1487              		.loc 1 314 3 view .LVU494
 1488              		.loc 1 314 6 is_stmt 0 view .LVU495
 1489 0014 0C46     		mov	r4, r1
 1490 0016 D1B1     		cbz	r1, .L134
 1491              		.loc 1 315 5 is_stmt 1 view .LVU496
 1492              	.LVL190:
 1493              		.loc 1 321 3 view .LVU497
 1494 0018 0023     		movs	r3, #0
 1495 001a 4A1E     		subs	r2, r1, #1
 1496              	.LVL191:
 1497              		.loc 1 321 3 is_stmt 0 view .LVU498
 1498 001c 02A8     		add	r0, sp, #8
 1499              	.LVL192:
 1500              		.loc 1 321 3 view .LVU499
 1501 001e 2946     		mov	r1, r5
 1502              	.LVL193:
 1503              		.loc 1 321 3 view .LVU500
 1504 0020 FFF7FEFF 		bl	msObjectInit
 1505              	.LVL194:
 1506              		.loc 1 324 3 is_stmt 1 view .LVU501
 1507              		.loc 1 325 3 view .LVU502
 1508 0024 0DAA     		add	r2, sp, #52
 1509              		.loc 1 326 12 is_stmt 0 view .LVU503
 1510 0026 02A8     		add	r0, sp, #8
 1511              	.LVL195:
 1512              		.loc 1 326 12 view .LVU504
 1513 0028 3146     		mov	r1, r6
 1514              		.loc 1 325 3 view .LVU505
 1515 002a 0192     		str	r2, [sp, #4]
 1516              		.loc 1 326 3 is_stmt 1 view .LVU506
 1517              		.loc 1 326 12 is_stmt 0 view .LVU507
 1518 002c FFF7FEFF 		bl	chvprintf
 1519              	.LVL196:
 1520              		.loc 1 330 9 view .LVU508
 1521 0030 059B     		ldr	r3, [sp, #20]
 1522              	.LVL197:
 1523              		.loc 1 327 3 is_stmt 1 view .LVU509
 1524              		.loc 1 330 3 view .LVU510
 1525              		.loc 1 330 6 is_stmt 0 view .LVU511
 1526 0032 A342     		cmp	r3, r4
 1527 0034 01D2     		bcs	.L133
 1528              		.loc 1 331 7 is_stmt 1 view .LVU512
 1529              		.loc 1 331 19 is_stmt 0 view .LVU513
 1530 0036 0022     		movs	r2, #0
 1531 0038 EA54     		strb	r2, [r5, r3]
 1532              		.loc 1 334 3 is_stmt 1 view .LVU514
 1533              	.LVL198:
 1534              	.L133:
 1535              		.loc 1 335 1 is_stmt 0 view .LVU515
 1536 003a 0C4B     		ldr	r3, .L139
 1537 003c 1A68     		ldr	r2, [r3]
 1538 003e 079B     		ldr	r3, [sp, #28]
ARM GAS  /tmp/ccVCTuyd.s 			page 28


 1539 0040 5A40     		eors	r2, r3, r2
 1540 0042 11D1     		bne	.L138
 1541 0044 08B0     		add	sp, sp, #32
 1542              		.cfi_remember_state
 1543              		.cfi_def_cfa_offset 24
 1544              		@ sp needed
 1545 0046 BDE87040 		pop	{r4, r5, r6, lr}
 1546              		.cfi_restore 14
 1547              		.cfi_restore 6
 1548              		.cfi_restore 5
 1549              		.cfi_restore 4
 1550              		.cfi_def_cfa_offset 8
 1551              	.LVL199:
 1552              		.loc 1 335 1 view .LVU516
 1553 004a 02B0     		add	sp, sp, #8
 1554              		.cfi_restore 3
 1555              		.cfi_restore 2
 1556              		.cfi_def_cfa_offset 0
 1557 004c 7047     		bx	lr
 1558              	.LVL200:
 1559              	.L134:
 1560              		.cfi_restore_state
 1561              		.loc 1 321 3 is_stmt 1 view .LVU517
 1562 004e 0146     		mov	r1, r0
 1563              	.LVL201:
 1564              		.loc 1 321 3 is_stmt 0 view .LVU518
 1565 0050 2246     		mov	r2, r4
 1566 0052 02A8     		add	r0, sp, #8
 1567              	.LVL202:
 1568              		.loc 1 321 3 view .LVU519
 1569 0054 2346     		mov	r3, r4
 1570 0056 FFF7FEFF 		bl	msObjectInit
 1571              	.LVL203:
 1572              		.loc 1 324 3 is_stmt 1 view .LVU520
 1573              		.loc 1 325 3 view .LVU521
 1574 005a 0DAA     		add	r2, sp, #52
 1575              		.loc 1 326 12 is_stmt 0 view .LVU522
 1576 005c 02A8     		add	r0, sp, #8
 1577              	.LVL204:
 1578              		.loc 1 326 12 view .LVU523
 1579 005e 3146     		mov	r1, r6
 1580              		.loc 1 325 3 view .LVU524
 1581 0060 0192     		str	r2, [sp, #4]
 1582              		.loc 1 326 3 is_stmt 1 view .LVU525
 1583              		.loc 1 326 12 is_stmt 0 view .LVU526
 1584 0062 FFF7FEFF 		bl	chvprintf
 1585              	.LVL205:
 1586              		.loc 1 327 3 is_stmt 1 view .LVU527
 1587              		.loc 1 330 3 view .LVU528
 1588 0066 E8E7     		b	.L133
 1589              	.LVL206:
 1590              	.L138:
 1591              		.loc 1 335 1 is_stmt 0 view .LVU529
 1592 0068 FFF7FEFF 		bl	__stack_chk_fail
 1593              	.LVL207:
 1594              	.L140:
 1595              		.loc 1 335 1 view .LVU530
ARM GAS  /tmp/ccVCTuyd.s 			page 29


 1596              		.align	2
 1597              	.L139:
 1598 006c 00000000 		.word	.LC2
 1599              		.cfi_endproc
 1600              	.LFE261:
 1601              		.size	chsnprintf, .-chsnprintf
 1602              		.section	.rodata.pow10,"a"
 1603              		.align	2
 1604              		.set	.LANCHOR0,. + 0
 1605              		.type	pow10, %object
 1606              		.size	pow10, 36
 1607              	pow10:
 1608 0000 0A000000 		.word	10
 1609 0004 64000000 		.word	100
 1610 0008 E8030000 		.word	1000
 1611 000c 10270000 		.word	10000
 1612 0010 A0860100 		.word	100000
 1613 0014 40420F00 		.word	1000000
 1614 0018 80969800 		.word	10000000
 1615 001c 00E1F505 		.word	100000000
 1616 0020 00CA9A3B 		.word	1000000000
 1617              		.text
 1618              	.Letext0:
 1619              		.file 2 "/usr/lib/gcc/arm-none-eabi/9.2.1/include/stddef.h"
 1620              		.file 3 "/usr/lib/gcc/arm-none-eabi/9.2.1/include/stdint.h"
 1621              		.file 4 ".//ChibiOS//os/rt/ports/ARMCMx/compilers/GCC/chtypes.h"
 1622              		.file 5 ".//ChibiOS//os/rt/include/chsystypes.h"
 1623              		.file 6 ".//ChibiOS//os/rt/include/chschd.h"
 1624              		.file 7 ".//ChibiOS//os/ext/CMSIS/include/core_cm4.h"
 1625              		.file 8 ".//ChibiOS//os/ext/CMSIS/ST/system_stm32f4xx.h"
 1626              		.file 9 ".//ChibiOS//os/ext/CMSIS/ST/stm32f407xx.h"
 1627              		.file 10 ".//ChibiOS//os/rt/ports/ARMCMx/chcore.h"
 1628              		.file 11 ".//ChibiOS//os/rt/ports/ARMCMx/chcore_v7m.h"
 1629              		.file 12 ".//ChibiOS//os/rt/include/chdebug.h"
 1630              		.file 13 ".//ChibiOS//os/rt/include/chtm.h"
 1631              		.file 14 ".//ChibiOS//os/rt/include/chstats.h"
 1632              		.file 15 ".//ChibiOS//os/rt/include/chsem.h"
 1633              		.file 16 ".//ChibiOS//os/rt/include/chmtx.h"
 1634              		.file 17 ".//ChibiOS//os/rt/include/chregistry.h"
 1635              		.file 18 ".//ChibiOS//os/rt/include/chevents.h"
 1636              		.file 19 ".//ChibiOS//os/rt/include/chqueues.h"
 1637              		.file 20 ".//ChibiOS//os/rt/include/chstreams.h"
 1638              		.file 21 ".//ChibiOS//os/hal/ports/STM32/STM32F4xx/stm32_dma.h"
 1639              		.file 22 ".//ChibiOS//os/hal/include/hal_ioblock.h"
 1640              		.file 23 ".//ChibiOS//os/hal/ports/STM32/LLD/GPIOv2/pal_lld.h"
 1641              		.file 24 ".//ChibiOS//os/hal/include/adc.h"
 1642              		.file 25 ".//ChibiOS//os/hal/ports/STM32/STM32F4xx/adc_lld.h"
 1643              		.file 26 ".//ChibiOS//os/hal/include/can.h"
 1644              		.file 27 ".//ChibiOS//os/hal/ports/STM32/LLD/can_lld.h"
 1645              		.file 28 ".//ChibiOS//os/hal/include/dac.h"
 1646              		.file 29 ".//ChibiOS//os/hal/ports/STM32/LLD/DACv1/dac_lld.h"
 1647              		.file 30 ".//ChibiOS//os/hal/include/ext.h"
 1648              		.file 31 ".//ChibiOS//os/hal/ports/STM32/LLD/ext_lld.h"
 1649              		.file 32 ".//ChibiOS//os/hal/include/gpt.h"
 1650              		.file 33 ".//ChibiOS//os/hal/ports/STM32/LLD/TIMv1/gpt_lld.h"
 1651              		.file 34 ".//ChibiOS//os/hal/ports/STM32/LLD/TIMv1/stm32_tim.h"
 1652              		.file 35 ".//ChibiOS//os/hal/include/i2c.h"
ARM GAS  /tmp/ccVCTuyd.s 			page 30


 1653              		.file 36 ".//ChibiOS//os/hal/ports/STM32/LLD/I2Cv1/i2c_lld.h"
 1654              		.file 37 ".//ChibiOS//os/hal/include/i2s.h"
 1655              		.file 38 ".//ChibiOS//os/hal/ports/STM32/LLD/SPIv1/i2s_lld.h"
 1656              		.file 39 ".//ChibiOS//os/hal/include/pwm.h"
 1657              		.file 40 ".//ChibiOS//os/hal/ports/STM32/LLD/TIMv1/pwm_lld.h"
 1658              		.file 41 ".//ChibiOS//os/hal/include/serial.h"
 1659              		.file 42 ".//ChibiOS//os/hal/ports/STM32/LLD/USARTv1/serial_lld.h"
 1660              		.file 43 ".//ChibiOS//os/hal/include/sdc.h"
 1661              		.file 44 ".//ChibiOS//os/hal/ports/STM32/LLD/sdc_lld.h"
 1662              		.file 45 ".//ChibiOS//os/hal/include/spi.h"
 1663              		.file 46 ".//ChibiOS//os/hal/ports/STM32/LLD/SPIv1/spi_lld.h"
 1664              		.file 47 ".//ChibiOS//os/hal/include/usb.h"
 1665              		.file 48 ".//ChibiOS//os/hal/ports/STM32/LLD/OTGv1/usb_lld.h"
 1666              		.file 49 ".//ChibiOS//os/hal/ports/STM32/LLD/OTGv1/stm32_otg.h"
 1667              		.file 50 "/usr/lib/gcc/arm-none-eabi/9.2.1/include/stdarg.h"
 1668              		.file 51 ".//ChibiOS//os/hal/lib/streams/memstreams.h"
 1669              		.file 52 "<built-in>"