ARM GAS  /tmp/ccFnHNgB.s 			page 1


   1              		.cpu cortex-m4
   2              		.eabi_attribute 27, 1
   3              		.eabi_attribute 28, 1
   4              		.eabi_attribute 20, 1
   5              		.eabi_attribute 21, 1
   6              		.eabi_attribute 23, 3
   7              		.eabi_attribute 24, 1
   8              		.eabi_attribute 25, 1
   9              		.eabi_attribute 26, 1
  10              		.eabi_attribute 30, 2
  11              		.eabi_attribute 34, 1
  12              		.eabi_attribute 18, 4
  13              		.file	"chqueues.c"
  14              		.text
  15              	.Ltext0:
  16              		.cfi_sections	.debug_frame
  17              		.section	.rodata.chIQObjectInit.cst4,"aM",%progbits,4
  18              		.align	2
  19              	.LC0:
  20 0000 00000000 		.word	__stack_chk_guard
  21              		.section	.text.chIQObjectInit,"ax",%progbits
  22              		.align	1
  23              		.p2align 4,,15
  24              		.global	chIQObjectInit
  25              		.arch armv7e-m
  26              		.syntax unified
  27              		.thumb
  28              		.thumb_func
  29              		.fpu fpv4-sp-d16
  30              		.type	chIQObjectInit, %function
  31              	chIQObjectInit:
  32              	.LVL0:
  33              	.LFB219:
  34              		.file 1 ".//ChibiOS//os/rt/src/chqueues.c"
  35              		.loc 1 88 49 view -0
  36              		.cfi_startproc
  37              		@ args = 4, pretend = 0, frame = 8
  38              		@ frame_needed = 0, uses_anonymous_args = 0
  39              		.loc 1 88 49 is_stmt 0 view .LVU1
  40 0000 30B5     		push	{r4, r5, lr}
  41              		.cfi_def_cfa_offset 12
  42              		.cfi_offset 4, -12
  43              		.cfi_offset 5, -8
  44              		.cfi_offset 14, -4
  45 0002 0D4C     		ldr	r4, .L6
  46 0004 83B0     		sub	sp, sp, #12
  47              		.cfi_def_cfa_offset 24
  48              		.loc 1 88 49 view .LVU2
  49 0006 2468     		ldr	r4, [r4]
  50 0008 0194     		str	r4, [sp, #4]
  51 000a 4FF00004 		mov	r4,#0
  52              		.loc 1 90 3 is_stmt 1 view .LVU3
  53              	.LVL1:
  54              	.LBB68:
  55              	.LBI68:
  56              		.file 2 ".//ChibiOS//os/rt/include/chthreads.h"
  57              		.loc 2 278 20 view .LVU4
ARM GAS  /tmp/ccFnHNgB.s 			page 2


  58              	.LBE68:
  59              		.loc 2 280 3 view .LVU5
  60              	.LBB75:
  61              	.LBB69:
  62              	.LBI69:
  63              		.file 3 ".//ChibiOS//os/rt/include/chschd.h"
  64              		.loc 3 602 20 view .LVU6
  65              	.LBB70:
  66              		.loc 3 604 3 view .LVU7
  67              	.LBE70:
  68              	.LBE69:
  69              	.LBE75:
  70              		.loc 1 94 18 is_stmt 0 view .LVU8
  71 000e C0E90511 		strd	r1, r1, [r0, #20]
  72              		.loc 1 95 23 view .LVU9
  73 0012 0A44     		add	r2, r2, r1
  74              	.LVL2:
  75              		.loc 1 96 18 view .LVU10
  76 0014 C361     		str	r3, [r0, #28]
  77              		.loc 1 88 49 view .LVU11
  78 0016 069C     		ldr	r4, [sp, #24]
  79              		.loc 1 98 1 view .LVU12
  80 0018 074B     		ldr	r3, .L6
  81              	.LVL3:
  82              	.LBB76:
  83              	.LBB73:
  84              	.LBB71:
  85              		.loc 3 604 15 view .LVU13
  86 001a 0060     		str	r0, [r0]
  87              		.loc 3 605 3 is_stmt 1 view .LVU14
  88              	.LBE71:
  89              	.LBE73:
  90              	.LBE76:
  91              		.loc 1 91 18 is_stmt 0 view .LVU15
  92 001c 0025     		movs	r5, #0
  93              	.LBB77:
  94              	.LBB74:
  95              	.LBB72:
  96              		.loc 3 605 15 view .LVU16
  97 001e 4060     		str	r0, [r0, #4]
  98              	.LVL4:
  99              		.loc 3 605 15 view .LVU17
 100              	.LBE72:
 101              	.LBE74:
 102              	.LBE77:
 103              		.loc 1 91 3 is_stmt 1 view .LVU18
 104              		.loc 1 92 18 is_stmt 0 view .LVU19
 105 0020 C160     		str	r1, [r0, #12]
 106              		.loc 1 95 18 view .LVU20
 107 0022 0261     		str	r2, [r0, #16]
 108              		.loc 1 91 18 view .LVU21
 109 0024 8560     		str	r5, [r0, #8]
 110              		.loc 1 92 3 is_stmt 1 view .LVU22
 111              		.loc 1 93 3 view .LVU23
 112              		.loc 1 94 3 view .LVU24
 113              		.loc 1 95 3 view .LVU25
 114              		.loc 1 96 3 view .LVU26
ARM GAS  /tmp/ccFnHNgB.s 			page 3


 115              		.loc 1 97 3 view .LVU27
 116              		.loc 1 97 18 is_stmt 0 view .LVU28
 117 0026 0462     		str	r4, [r0, #32]
 118              		.loc 1 98 1 view .LVU29
 119 0028 1A68     		ldr	r2, [r3]
 120 002a 019B     		ldr	r3, [sp, #4]
 121 002c 5A40     		eors	r2, r3, r2
 122 002e 01D1     		bne	.L5
 123 0030 03B0     		add	sp, sp, #12
 124              		.cfi_remember_state
 125              		.cfi_def_cfa_offset 12
 126              		@ sp needed
 127 0032 30BD     		pop	{r4, r5, pc}
 128              	.LVL5:
 129              	.L5:
 130              		.cfi_restore_state
 131              		.loc 1 98 1 view .LVU30
 132 0034 FFF7FEFF 		bl	__stack_chk_fail
 133              	.LVL6:
 134              	.L7:
 135              		.loc 1 98 1 view .LVU31
 136              		.align	2
 137              	.L6:
 138 0038 00000000 		.word	.LC0
 139              		.cfi_endproc
 140              	.LFE219:
 141              		.size	chIQObjectInit, .-chIQObjectInit
 142              		.section	.rodata.chIQResetI.cst4,"aM",%progbits,4
 143              		.align	2
 144              	.LC1:
 145 0000 00000000 		.word	__stack_chk_guard
 146              		.section	.text.chIQResetI,"ax",%progbits
 147              		.align	1
 148              		.p2align 4,,15
 149              		.global	chIQResetI
 150              		.syntax unified
 151              		.thumb
 152              		.thumb_func
 153              		.fpu fpv4-sp-d16
 154              		.type	chIQResetI, %function
 155              	chIQResetI:
 156              	.LVL7:
 157              	.LFB220:
 158              		.loc 1 111 37 is_stmt 1 view -0
 159              		.cfi_startproc
 160              		@ args = 0, pretend = 0, frame = 8
 161              		@ frame_needed = 0, uses_anonymous_args = 0
 162              		.loc 1 111 37 is_stmt 0 view .LVU33
 163 0000 10B5     		push	{r4, lr}
 164              		.cfi_def_cfa_offset 8
 165              		.cfi_offset 4, -8
 166              		.cfi_offset 14, -4
 167 0002 0E4B     		ldr	r3, .L13
 168 0004 0446     		mov	r4, r0
 169 0006 82B0     		sub	sp, sp, #8
 170              		.cfi_def_cfa_offset 16
 171              		.loc 1 111 37 view .LVU34
ARM GAS  /tmp/ccFnHNgB.s 			page 4


 172 0008 1B68     		ldr	r3, [r3]
 173 000a 0193     		str	r3, [sp, #4]
 174 000c 4FF00003 		mov	r3,#0
 175              		.loc 1 113 3 is_stmt 1 view .LVU35
 176 0010 FFF7FEFF 		bl	chDbgCheckClassI
 177              	.LVL8:
 178              		.loc 1 115 3 view .LVU36
 179              		.loc 1 115 21 is_stmt 0 view .LVU37
 180 0014 E368     		ldr	r3, [r4, #12]
 181              		.loc 1 116 16 view .LVU38
 182 0016 C4E90533 		strd	r3, r3, [r4, #20]
 183              		.loc 1 117 3 is_stmt 1 view .LVU39
 184              		.loc 1 118 3 view .LVU40
 185              		.loc 1 117 18 is_stmt 0 view .LVU41
 186 001a 0022     		movs	r2, #0
 187              		.loc 1 118 3 view .LVU42
 188 001c 074B     		ldr	r3, .L13
 189              		.loc 1 117 18 view .LVU43
 190 001e A260     		str	r2, [r4, #8]
 191              		.loc 1 118 3 view .LVU44
 192 0020 1A68     		ldr	r2, [r3]
 193 0022 019B     		ldr	r3, [sp, #4]
 194 0024 5A40     		eors	r2, r3, r2
 195 0026 07D1     		bne	.L12
 196 0028 2046     		mov	r0, r4
 197 002a 6FF00101 		mvn	r1, #1
 198              		.loc 1 119 1 view .LVU45
 199 002e 02B0     		add	sp, sp, #8
 200              		.cfi_remember_state
 201              		.cfi_def_cfa_offset 8
 202              		@ sp needed
 203 0030 BDE81040 		pop	{r4, lr}
 204              		.cfi_restore 14
 205              		.cfi_restore 4
 206              		.cfi_def_cfa_offset 0
 207              	.LVL9:
 208              		.loc 1 118 3 view .LVU46
 209 0034 FFF7FEBF 		b	chThdDequeueAllI
 210              	.LVL10:
 211              	.L12:
 212              		.cfi_restore_state
 213              		.loc 1 118 3 view .LVU47
 214 0038 FFF7FEFF 		bl	__stack_chk_fail
 215              	.LVL11:
 216              	.L14:
 217              		.align	2
 218              	.L13:
 219 003c 00000000 		.word	.LC1
 220              		.cfi_endproc
 221              	.LFE220:
 222              		.size	chIQResetI, .-chIQResetI
 223              		.section	.rodata.chIQPutI.cst4,"aM",%progbits,4
 224              		.align	2
 225              	.LC2:
 226 0000 00000000 		.word	__stack_chk_guard
 227              		.section	.text.chIQPutI,"ax",%progbits
 228              		.align	1
ARM GAS  /tmp/ccFnHNgB.s 			page 5


 229              		.p2align 4,,15
 230              		.global	chIQPutI
 231              		.syntax unified
 232              		.thumb
 233              		.thumb_func
 234              		.fpu fpv4-sp-d16
 235              		.type	chIQPutI, %function
 236              	chIQPutI:
 237              	.LVL12:
 238              	.LFB221:
 239              		.loc 1 134 47 is_stmt 1 view -0
 240              		.cfi_startproc
 241              		@ args = 0, pretend = 0, frame = 8
 242              		@ frame_needed = 0, uses_anonymous_args = 0
 243              		.loc 1 134 47 is_stmt 0 view .LVU49
 244 0000 30B5     		push	{r4, r5, lr}
 245              		.cfi_def_cfa_offset 12
 246              		.cfi_offset 4, -12
 247              		.cfi_offset 5, -8
 248              		.cfi_offset 14, -4
 249 0002 184B     		ldr	r3, .L26
 250 0004 0446     		mov	r4, r0
 251 0006 83B0     		sub	sp, sp, #12
 252              		.cfi_def_cfa_offset 24
 253              		.loc 1 134 47 view .LVU50
 254 0008 1B68     		ldr	r3, [r3]
 255 000a 0193     		str	r3, [sp, #4]
 256 000c 4FF00003 		mov	r3,#0
 257              		.loc 1 136 3 is_stmt 1 view .LVU51
 258              		.loc 1 134 47 is_stmt 0 view .LVU52
 259 0010 0D46     		mov	r5, r1
 260              		.loc 1 136 3 view .LVU53
 261 0012 FFF7FEFF 		bl	chDbgCheckClassI
 262              	.LVL13:
 263              		.loc 1 138 3 is_stmt 1 view .LVU54
 264              	.LBB78:
 265              	.LBI78:
 266              		.file 4 ".//ChibiOS//os/rt/include/chqueues.h"
 267              		.loc 4 320 20 view .LVU55
 268              	.LBB79:
 269              		.loc 4 322 3 view .LVU56
 270 0016 FFF7FEFF 		bl	chDbgCheckClassI
 271              	.LVL14:
 272              		.loc 4 324 3 view .LVU57
 273              		.loc 4 324 48 is_stmt 0 view .LVU58
 274 001a D4E90523 		ldrd	r2, r3, [r4, #20]
 275 001e 9A42     		cmp	r2, r3
 276              		.loc 4 324 55 view .LVU59
 277 0020 A368     		ldr	r3, [r4, #8]
 278              		.loc 4 324 48 view .LVU60
 279 0022 17D0     		beq	.L24
 280              	.L18:
 281              	.LVL15:
 282              		.loc 4 324 48 view .LVU61
 283              	.LBE79:
 284              	.LBE78:
 285              		.loc 1 142 3 is_stmt 1 view .LVU62
ARM GAS  /tmp/ccFnHNgB.s 			page 6


 286              		.loc 1 142 17 is_stmt 0 view .LVU63
 287 0024 0133     		adds	r3, r3, #1
 288              		.loc 1 143 16 view .LVU64
 289 0026 511C     		adds	r1, r2, #1
 290              		.loc 1 142 17 view .LVU65
 291 0028 A360     		str	r3, [r4, #8]
 292              		.loc 1 143 3 is_stmt 1 view .LVU66
 293              		.loc 1 143 16 is_stmt 0 view .LVU67
 294 002a 6161     		str	r1, [r4, #20]
 295              		.loc 1 143 19 view .LVU68
 296 002c 1570     		strb	r5, [r2]
 297              		.loc 1 144 3 is_stmt 1 view .LVU69
 298              		.loc 1 144 6 is_stmt 0 view .LVU70
 299 002e D4E90432 		ldrd	r3, r2, [r4, #16]
 300 0032 9A42     		cmp	r2, r3
 301 0034 0BD2     		bcs	.L19
 302              	.L20:
 303              		.loc 1 148 3 is_stmt 1 view .LVU71
 304 0036 2046     		mov	r0, r4
 305 0038 0021     		movs	r1, #0
 306 003a FFF7FEFF 		bl	chThdDequeueNextI
 307              	.LVL16:
 308              		.loc 1 150 3 view .LVU72
 309              		.loc 1 150 10 is_stmt 0 view .LVU73
 310 003e 0020     		movs	r0, #0
 311              	.L15:
 312              		.loc 1 151 1 view .LVU74
 313 0040 084B     		ldr	r3, .L26
 314 0042 1A68     		ldr	r2, [r3]
 315 0044 019B     		ldr	r3, [sp, #4]
 316 0046 5A40     		eors	r2, r3, r2
 317 0048 09D1     		bne	.L25
 318 004a 03B0     		add	sp, sp, #12
 319              		.cfi_remember_state
 320              		.cfi_def_cfa_offset 12
 321              		@ sp needed
 322 004c 30BD     		pop	{r4, r5, pc}
 323              	.LVL17:
 324              	.L19:
 325              		.cfi_restore_state
 326              		.loc 1 145 5 is_stmt 1 view .LVU75
 327              		.loc 1 145 18 is_stmt 0 view .LVU76
 328 004e E368     		ldr	r3, [r4, #12]
 329 0050 6361     		str	r3, [r4, #20]
 330 0052 F0E7     		b	.L20
 331              	.LVL18:
 332              	.L24:
 333              	.LBB81:
 334              	.LBB80:
 335              		.loc 4 324 48 view .LVU77
 336 0054 002B     		cmp	r3, #0
 337 0056 E5D0     		beq	.L18
 338              	.LBE80:
 339              	.LBE81:
 340              		.loc 1 139 12 view .LVU78
 341 0058 6FF00300 		mvn	r0, #3
 342              	.LVL19:
ARM GAS  /tmp/ccFnHNgB.s 			page 7


 343              		.loc 1 139 12 view .LVU79
 344 005c F0E7     		b	.L15
 345              	.L25:
 346              		.loc 1 151 1 view .LVU80
 347 005e FFF7FEFF 		bl	__stack_chk_fail
 348              	.LVL20:
 349              	.L27:
 350 0062 00BF     		.align	2
 351              	.L26:
 352 0064 00000000 		.word	.LC2
 353              		.cfi_endproc
 354              	.LFE221:
 355              		.size	chIQPutI, .-chIQPutI
 356              		.section	.rodata.chIQGetTimeout.cst4,"aM",%progbits,4
 357              		.align	2
 358              	.LC3:
 359 0000 00000000 		.word	__stack_chk_guard
 360              		.section	.text.chIQGetTimeout,"ax",%progbits
 361              		.align	1
 362              		.p2align 4,,15
 363              		.global	chIQGetTimeout
 364              		.syntax unified
 365              		.thumb
 366              		.thumb_func
 367              		.fpu fpv4-sp-d16
 368              		.type	chIQGetTimeout, %function
 369              	chIQGetTimeout:
 370              	.LVL21:
 371              	.LFB222:
 372              		.loc 1 173 61 is_stmt 1 view -0
 373              		.cfi_startproc
 374              		@ args = 0, pretend = 0, frame = 8
 375              		@ frame_needed = 0, uses_anonymous_args = 0
 376              		.loc 1 173 61 is_stmt 0 view .LVU82
 377 0000 70B5     		push	{r4, r5, r6, lr}
 378              		.cfi_def_cfa_offset 16
 379              		.cfi_offset 4, -16
 380              		.cfi_offset 5, -12
 381              		.cfi_offset 6, -8
 382              		.cfi_offset 14, -4
 383 0002 244B     		ldr	r3, .L48
 384 0004 82B0     		sub	sp, sp, #8
 385              		.cfi_def_cfa_offset 24
 386              		.loc 1 173 61 view .LVU83
 387 0006 1B68     		ldr	r3, [r3]
 388 0008 0193     		str	r3, [sp, #4]
 389 000a 4FF00003 		mov	r3,#0
 390              		.loc 1 174 3 is_stmt 1 view .LVU84
 391              		.loc 1 176 3 view .LVU85
 392              	.LBB100:
 393              	.LBI100:
 394              		.file 5 ".//ChibiOS//os/rt/include/chsys.h"
 395              		.loc 5 346 20 view .LVU86
 396              	.LBB101:
 397              		.loc 5 348 3 view .LVU87
 398              	.LBB102:
 399              	.LBI102:
ARM GAS  /tmp/ccFnHNgB.s 			page 8


 400              		.file 6 ".//ChibiOS//os/rt/ports/ARMCMx/chcore_v7m.h"
 401              		.loc 6 444 20 view .LVU88
 402              	.LBE102:
 403              	.LBE101:
 404              	.LBE100:
 405              		.loc 6 447 3 view .LVU89
 406              	.LVL22:
 407              	.LBB111:
 408              	.LBB109:
 409              	.LBB107:
 410              	.LBB103:
 411              	.LBI103:
 412              		.file 7 ".//ChibiOS//os/ext/CMSIS/include/core_cmFunc.h"
 413              		.loc 7 544 57 view .LVU90
 414              	.LBB104:
 415              		.loc 7 546 3 view .LVU91
 416              	.LBE104:
 417              	.LBE103:
 418              	.LBE107:
 419              	.LBE109:
 420              	.LBE111:
 421              		.loc 1 173 61 is_stmt 0 view .LVU92
 422 000e 0546     		mov	r5, r0
 423 0010 0E46     		mov	r6, r1
 424              	.LBB112:
 425              	.LBB110:
 426              	.LBB108:
 427              	.LBB106:
 428              	.LBB105:
 429              		.loc 7 546 3 view .LVU93
 430 0012 2023     		movs	r3, #32
 431              		.syntax unified
 432              	@ 546 ".//ChibiOS//os/ext/CMSIS/include/core_cmFunc.h" 1
 433 0014 83F31188 		MSR basepri, r3
 434              	@ 0 "" 2
 435              	.LVL23:
 436              		.loc 7 546 3 view .LVU94
 437              		.thumb
 438              		.syntax unified
 439              	.LBE105:
 440              	.LBE106:
 441              	.LBE108:
 442              		.loc 5 349 3 is_stmt 1 view .LVU95
 443 0018 FFF7FEFF 		bl	_stats_start_measure_crit_thd
 444              	.LVL24:
 445              		.loc 5 350 3 view .LVU96
 446 001c FFF7FEFF 		bl	_dbg_check_lock
 447              	.LVL25:
 448              	.LBE110:
 449              	.LBE112:
 450              		.loc 1 177 3 view .LVU97
 451              		.loc 1 177 10 is_stmt 0 view .LVU98
 452 0020 EB69     		ldr	r3, [r5, #28]
 453              		.loc 1 177 6 view .LVU99
 454 0022 43B1     		cbz	r3, .L30
 455              		.loc 1 178 5 is_stmt 1 view .LVU100
 456 0024 2846     		mov	r0, r5
ARM GAS  /tmp/ccFnHNgB.s 			page 9


 457 0026 9847     		blx	r3
 458              	.LVL26:
 459 0028 05E0     		b	.L30
 460              	.LVL27:
 461              	.L33:
 462              	.LBB113:
 463              		.loc 1 182 5 view .LVU101
 464              		.loc 1 182 17 is_stmt 0 view .LVU102
 465 002a 3146     		mov	r1, r6
 466 002c 2846     		mov	r0, r5
 467 002e FFF7FEFF 		bl	chThdEnqueueTimeoutS
 468              	.LVL28:
 469              		.loc 1 183 5 is_stmt 1 view .LVU103
 470              		.loc 1 183 8 is_stmt 0 view .LVU104
 471 0032 041E     		subs	r4, r0, #0
 472 0034 10DB     		blt	.L34
 473              	.LVL29:
 474              	.L30:
 475              		.loc 1 183 8 view .LVU105
 476              	.LBE113:
 477              		.loc 1 181 9 is_stmt 1 view .LVU106
 478              	.LBB114:
 479              	.LBI114:
 480              		.loc 4 303 20 view .LVU107
 481              	.LBB115:
 482              		.loc 4 305 3 view .LVU108
 483 0036 FFF7FEFF 		bl	chDbgCheckClassI
 484              	.LVL30:
 485              		.loc 4 307 3 view .LVU109
 486              		.loc 4 307 17 is_stmt 0 view .LVU110
 487 003a AB68     		ldr	r3, [r5, #8]
 488              	.LBE115:
 489              	.LBE114:
 490              		.loc 1 181 9 view .LVU111
 491 003c 002B     		cmp	r3, #0
 492 003e F4D0     		beq	.L33
 493              		.loc 1 189 3 is_stmt 1 view .LVU112
 494              		.loc 1 190 11 is_stmt 0 view .LVU113
 495 0040 A969     		ldr	r1, [r5, #24]
 496              		.loc 1 191 6 view .LVU114
 497 0042 2869     		ldr	r0, [r5, #16]
 498              		.loc 1 190 20 view .LVU115
 499 0044 4A1C     		adds	r2, r1, #1
 500              		.loc 1 189 17 view .LVU116
 501 0046 013B     		subs	r3, r3, #1
 502              		.loc 1 191 6 view .LVU117
 503 0048 8242     		cmp	r2, r0
 504              		.loc 1 189 17 view .LVU118
 505 004a AB60     		str	r3, [r5, #8]
 506              		.loc 1 190 3 is_stmt 1 view .LVU119
 507              		.loc 1 190 20 is_stmt 0 view .LVU120
 508 004c AA61     		str	r2, [r5, #24]
 509              		.loc 1 192 18 view .LVU121
 510 004e 28BF     		it	cs
 511 0050 EB68     		ldrcs	r3, [r5, #12]
 512              		.loc 1 190 5 view .LVU122
 513 0052 0C78     		ldrb	r4, [r1]	@ zero_extendqisi2
ARM GAS  /tmp/ccFnHNgB.s 			page 10


 514              	.LVL31:
 515              		.loc 1 191 3 is_stmt 1 view .LVU123
 516              		.loc 1 192 5 view .LVU124
 517              		.loc 1 192 18 is_stmt 0 view .LVU125
 518 0054 28BF     		it	cs
 519 0056 AB61     		strcs	r3, [r5, #24]
 520              	.LVL32:
 521              	.L34:
 522              		.loc 1 194 3 is_stmt 1 view .LVU126
 523              	.LBB116:
 524              	.LBI116:
 525              		.loc 5 358 20 view .LVU127
 526              	.LBB117:
 527              		.loc 5 360 3 view .LVU128
 528 0058 FFF7FEFF 		bl	_dbg_check_unlock
 529              	.LVL33:
 530              		.loc 5 361 3 view .LVU129
 531 005c FFF7FEFF 		bl	_stats_stop_measure_crit_thd
 532              	.LVL34:
 533              		.loc 5 367 3 view .LVU130
 534              		.loc 5 367 3 view .LVU131
 535              		.loc 5 367 3 view .LVU132
 536 0060 0D4B     		ldr	r3, .L48+4
 537 0062 1A68     		ldr	r2, [r3]
 538 0064 9A42     		cmp	r2, r3
 539 0066 04D0     		beq	.L35
 540 0068 9969     		ldr	r1, [r3, #24]
 541 006a 9368     		ldr	r3, [r2, #8]
 542 006c 8A68     		ldr	r2, [r1, #8]
 543 006e 9A42     		cmp	r2, r3
 544 0070 0AD3     		bcc	.L46
 545              	.L35:
 546              		.loc 5 367 3 view .LVU133
 547              		.loc 5 371 3 view .LVU134
 548              	.LBB118:
 549              	.LBI118:
 550              		.loc 6 458 20 view .LVU135
 551              	.LBE118:
 552              	.LBE117:
 553              	.LBE116:
 554              		.loc 6 461 3 view .LVU136
 555              	.LVL35:
 556              	.LBB124:
 557              	.LBB122:
 558              	.LBB121:
 559              	.LBB119:
 560              	.LBI119:
 561              		.loc 7 544 57 view .LVU137
 562              	.LBB120:
 563              		.loc 7 546 3 view .LVU138
 564 0072 0023     		movs	r3, #0
 565              		.syntax unified
 566              	@ 546 ".//ChibiOS//os/ext/CMSIS/include/core_cmFunc.h" 1
 567 0074 83F31188 		MSR basepri, r3
 568              	@ 0 "" 2
 569              	.LVL36:
 570              		.loc 7 546 3 is_stmt 0 view .LVU139
ARM GAS  /tmp/ccFnHNgB.s 			page 11


 571              		.thumb
 572              		.syntax unified
 573              	.LBE120:
 574              	.LBE119:
 575              	.LBE121:
 576              	.LBE122:
 577              	.LBE124:
 578              		.loc 1 196 3 is_stmt 1 view .LVU140
 579              		.loc 1 197 1 is_stmt 0 view .LVU141
 580 0078 064B     		ldr	r3, .L48
 581 007a 1A68     		ldr	r2, [r3]
 582 007c 019B     		ldr	r3, [sp, #4]
 583 007e 5A40     		eors	r2, r3, r2
 584 0080 06D1     		bne	.L47
 585 0082 2046     		mov	r0, r4
 586 0084 02B0     		add	sp, sp, #8
 587              		.cfi_remember_state
 588              		.cfi_def_cfa_offset 16
 589              		@ sp needed
 590 0086 70BD     		pop	{r4, r5, r6, pc}
 591              	.LVL37:
 592              	.L46:
 593              		.cfi_restore_state
 594              	.LBB125:
 595              	.LBB123:
 596              		.loc 5 367 3 is_stmt 1 view .LVU142
 597 0088 0448     		ldr	r0, .L48+8
 598 008a FFF7FEFF 		bl	chSysHalt
 599              	.LVL38:
 600 008e F0E7     		b	.L35
 601              	.L47:
 602              	.LBE123:
 603              	.LBE125:
 604              		.loc 1 197 1 is_stmt 0 view .LVU143
 605 0090 FFF7FEFF 		bl	__stack_chk_fail
 606              	.LVL39:
 607              	.L49:
 608              		.align	2
 609              	.L48:
 610 0094 00000000 		.word	.LC3
 611 0098 00000000 		.word	ch
 612 009c 00000000 		.word	.LANCHOR0
 613              		.cfi_endproc
 614              	.LFE222:
 615              		.size	chIQGetTimeout, .-chIQGetTimeout
 616              		.section	.rodata.chIQReadTimeout.cst4,"aM",%progbits,4
 617              		.align	2
 618              	.LC4:
 619 0000 00000000 		.word	__stack_chk_guard
 620              		.section	.text.chIQReadTimeout,"ax",%progbits
 621              		.align	1
 622              		.p2align 4,,15
 623              		.global	chIQReadTimeout
 624              		.syntax unified
 625              		.thumb
 626              		.thumb_func
 627              		.fpu fpv4-sp-d16
ARM GAS  /tmp/ccFnHNgB.s 			page 12


 628              		.type	chIQReadTimeout, %function
 629              	chIQReadTimeout:
 630              	.LVL40:
 631              	.LFB223:
 632              		.loc 1 224 53 is_stmt 1 view -0
 633              		.cfi_startproc
 634              		@ args = 0, pretend = 0, frame = 8
 635              		@ frame_needed = 0, uses_anonymous_args = 0
 636              		.loc 1 224 53 is_stmt 0 view .LVU145
 637 0000 2DE9F04F 		push	{r4, r5, r6, r7, r8, r9, r10, fp, lr}
 638              		.cfi_def_cfa_offset 36
 639              		.cfi_offset 4, -36
 640              		.cfi_offset 5, -32
 641              		.cfi_offset 6, -28
 642              		.cfi_offset 7, -24
 643              		.cfi_offset 8, -20
 644              		.cfi_offset 9, -16
 645              		.cfi_offset 10, -12
 646              		.cfi_offset 11, -8
 647              		.cfi_offset 14, -4
 648 0004 1D46     		mov	r5, r3
 649 0006 394B     		ldr	r3, .L71
 650              	.LVL41:
 651              		.loc 1 225 13 view .LVU146
 652 0008 D0F81CA0 		ldr	r10, [r0, #28]
 653              		.loc 1 224 53 view .LVU147
 654 000c 83B0     		sub	sp, sp, #12
 655              		.cfi_def_cfa_offset 48
 656              		.loc 1 224 53 view .LVU148
 657 000e 0446     		mov	r4, r0
 658 0010 8846     		mov	r8, r1
 659 0012 1B68     		ldr	r3, [r3]
 660 0014 0193     		str	r3, [sp, #4]
 661 0016 4FF00003 		mov	r3,#0
 662              		.loc 1 225 3 is_stmt 1 view .LVU149
 663              	.LVL42:
 664              		.loc 1 226 3 view .LVU150
 665              		.loc 1 228 3 view .LVU151
 666              		.loc 1 228 3 view .LVU152
 667              		.loc 1 228 3 view .LVU153
 668 001a 9146     		mov	r9, r2
 669 001c 002A     		cmp	r2, #0
 670 001e 5FD0     		beq	.L67
 671              	.LVL43:
 672              	.L51:
 673              		.loc 1 228 3 discriminator 5 view .LVU154
 674              		.loc 1 230 3 discriminator 5 view .LVU155
 675              	.LBB148:
 676              	.LBI148:
 677              		.loc 5 346 20 discriminator 5 view .LVU156
 678              	.LBB149:
 679              		.loc 5 348 3 discriminator 5 view .LVU157
 680              	.LBB150:
 681              	.LBI150:
 682              		.loc 6 444 20 discriminator 5 view .LVU158
 683              	.LBE150:
 684              	.LBE149:
ARM GAS  /tmp/ccFnHNgB.s 			page 13


 685              	.LBE148:
 686              		.loc 6 447 3 discriminator 5 view .LVU159
 687              	.LBB155:
 688              	.LBB154:
 689              	.LBB153:
 690              	.LBB151:
 691              	.LBI151:
 692              		.loc 7 544 57 discriminator 5 view .LVU160
 693              	.LBB152:
 694              		.loc 7 546 3 discriminator 5 view .LVU161
 695 0020 4FF0200B 		mov	fp, #32
 696              		.syntax unified
 697              	@ 546 ".//ChibiOS//os/ext/CMSIS/include/core_cmFunc.h" 1
 698 0024 8BF31188 		MSR basepri, fp
 699              	@ 0 "" 2
 700              	.LVL44:
 701              		.loc 7 546 3 is_stmt 0 discriminator 5 view .LVU162
 702              		.thumb
 703              		.syntax unified
 704              	.LBE152:
 705              	.LBE151:
 706              	.LBE153:
 707              		.loc 5 349 3 is_stmt 1 discriminator 5 view .LVU163
 708 0028 FFF7FEFF 		bl	_stats_start_measure_crit_thd
 709              	.LVL45:
 710              		.loc 5 350 3 discriminator 5 view .LVU164
 711 002c FFF7FEFF 		bl	_dbg_check_lock
 712              	.LVL46:
 713 0030 2F4E     		ldr	r6, .L71+4
 714              	.LBE154:
 715              	.LBE155:
 716              		.loc 1 226 10 is_stmt 0 discriminator 5 view .LVU165
 717 0032 0027     		movs	r7, #0
 718              	.LVL47:
 719              	.L59:
 720              		.loc 1 231 3 is_stmt 1 view .LVU166
 721              		.loc 1 232 5 view .LVU167
 722              		.loc 1 232 8 is_stmt 0 view .LVU168
 723 0034 BAF1000F 		cmp	r10, #0
 724 0038 07D0     		beq	.L53
 725              		.loc 1 233 7 is_stmt 1 view .LVU169
 726 003a 2046     		mov	r0, r4
 727 003c D047     		blx	r10
 728              	.LVL48:
 729 003e 04E0     		b	.L53
 730              	.LVL49:
 731              	.L56:
 732              		.loc 1 237 7 view .LVU170
 733              		.loc 1 237 11 is_stmt 0 view .LVU171
 734 0040 2946     		mov	r1, r5
 735 0042 2046     		mov	r0, r4
 736 0044 FFF7FEFF 		bl	chThdEnqueueTimeoutS
 737              	.LVL50:
 738              		.loc 1 237 10 view .LVU172
 739 0048 58BB     		cbnz	r0, .L68
 740              	.LVL51:
 741              	.L53:
ARM GAS  /tmp/ccFnHNgB.s 			page 14


 742              		.loc 1 236 11 is_stmt 1 view .LVU173
 743              	.LBB156:
 744              	.LBI156:
 745              		.loc 4 303 20 view .LVU174
 746              	.LBB157:
 747              		.loc 4 305 3 view .LVU175
 748 004a FFF7FEFF 		bl	chDbgCheckClassI
 749              	.LVL52:
 750              		.loc 4 307 3 view .LVU176
 751              		.loc 4 307 17 is_stmt 0 view .LVU177
 752 004e A368     		ldr	r3, [r4, #8]
 753              	.LBE157:
 754              	.LBE156:
 755              		.loc 1 236 11 view .LVU178
 756 0050 002B     		cmp	r3, #0
 757 0052 F5D0     		beq	.L56
 758              		.loc 1 243 5 is_stmt 1 view .LVU179
 759              		.loc 1 244 17 is_stmt 0 view .LVU180
 760 0054 A269     		ldr	r2, [r4, #24]
 761              		.loc 1 243 19 view .LVU181
 762 0056 013B     		subs	r3, r3, #1
 763              		.loc 1 244 26 view .LVU182
 764 0058 511C     		adds	r1, r2, #1
 765 005a A161     		str	r1, [r4, #24]
 766              		.loc 1 243 19 view .LVU183
 767 005c A360     		str	r3, [r4, #8]
 768              		.loc 1 244 5 is_stmt 1 view .LVU184
 769              	.LVL53:
 770              		.loc 1 244 13 is_stmt 0 view .LVU185
 771 005e 1378     		ldrb	r3, [r2]	@ zero_extendqisi2
 772              		.loc 1 244 11 view .LVU186
 773 0060 08F8013B 		strb	r3, [r8], #1
 774              	.LVL54:
 775              		.loc 1 245 5 is_stmt 1 view .LVU187
 776              		.loc 1 245 8 is_stmt 0 view .LVU188
 777 0064 2369     		ldr	r3, [r4, #16]
 778 0066 A269     		ldr	r2, [r4, #24]
 779 0068 9A42     		cmp	r2, r3
 780              		.loc 1 246 7 is_stmt 1 view .LVU189
 781              		.loc 1 246 20 is_stmt 0 view .LVU190
 782 006a 24BF     		itt	cs
 783 006c E368     		ldrcs	r3, [r4, #12]
 784 006e A361     		strcs	r3, [r4, #24]
 785              		.loc 1 248 5 is_stmt 1 view .LVU191
 786              	.LBB158:
 787              	.LBI158:
 788              		.loc 5 358 20 view .LVU192
 789              	.LBB159:
 790              		.loc 5 360 3 view .LVU193
 791 0070 FFF7FEFF 		bl	_dbg_check_unlock
 792              	.LVL55:
 793              		.loc 5 361 3 view .LVU194
 794 0074 FFF7FEFF 		bl	_stats_stop_measure_crit_thd
 795              	.LVL56:
 796              		.loc 5 367 3 view .LVU195
 797              		.loc 5 367 3 view .LVU196
 798              		.loc 5 367 3 view .LVU197
ARM GAS  /tmp/ccFnHNgB.s 			page 15


 799 0078 3368     		ldr	r3, [r6]
 800 007a B342     		cmp	r3, r6
 801 007c 04D0     		beq	.L58
 802 007e B269     		ldr	r2, [r6, #24]
 803 0080 9B68     		ldr	r3, [r3, #8]
 804 0082 9268     		ldr	r2, [r2, #8]
 805 0084 9A42     		cmp	r2, r3
 806 0086 27D3     		bcc	.L69
 807              	.L58:
 808              		.loc 5 367 3 view .LVU198
 809              		.loc 5 371 3 view .LVU199
 810              	.LBB160:
 811              	.LBI160:
 812              		.loc 6 458 20 view .LVU200
 813              	.LBE160:
 814              	.LBE159:
 815              	.LBE158:
 816              		.loc 6 461 3 view .LVU201
 817              	.LVL57:
 818              	.LBB166:
 819              	.LBB164:
 820              	.LBB163:
 821              	.LBB161:
 822              	.LBI161:
 823              		.loc 7 544 57 view .LVU202
 824              	.LBB162:
 825              		.loc 7 546 3 view .LVU203
 826 0088 0023     		movs	r3, #0
 827              		.syntax unified
 828              	@ 546 ".//ChibiOS//os/ext/CMSIS/include/core_cmFunc.h" 1
 829 008a 83F31188 		MSR basepri, r3
 830              	@ 0 "" 2
 831              	.LVL58:
 832              		.loc 7 546 3 is_stmt 0 view .LVU204
 833              		.thumb
 834              		.syntax unified
 835              	.LBE162:
 836              	.LBE161:
 837              	.LBE163:
 838              	.LBE164:
 839              	.LBE166:
 840              		.loc 1 250 5 is_stmt 1 view .LVU205
 841              		.loc 1 250 6 is_stmt 0 view .LVU206
 842 008e 0137     		adds	r7, r7, #1
 843              	.LVL59:
 844              		.loc 1 251 5 is_stmt 1 view .LVU207
 845              		.loc 1 251 8 is_stmt 0 view .LVU208
 846 0090 B945     		cmp	r9, r7
 847 0092 18D0     		beq	.L50
 848              		.loc 1 255 5 is_stmt 1 view .LVU209
 849              	.LBB167:
 850              	.LBI167:
 851              		.loc 5 346 20 view .LVU210
 852              	.LBB168:
 853              		.loc 5 348 3 view .LVU211
 854              	.LBB169:
 855              	.LBI169:
ARM GAS  /tmp/ccFnHNgB.s 			page 16


 856              		.loc 6 444 20 view .LVU212
 857              	.LBE169:
 858              	.LBE168:
 859              	.LBE167:
 860              		.loc 6 447 3 view .LVU213
 861              	.LVL60:
 862              	.LBB174:
 863              	.LBB173:
 864              	.LBB172:
 865              	.LBB170:
 866              	.LBI170:
 867              		.loc 7 544 57 view .LVU214
 868              	.LBB171:
 869              		.loc 7 546 3 view .LVU215
 870              		.syntax unified
 871              	@ 546 ".//ChibiOS//os/ext/CMSIS/include/core_cmFunc.h" 1
 872 0094 8BF31188 		MSR basepri, fp
 873              	@ 0 "" 2
 874              	.LVL61:
 875              		.loc 7 546 3 is_stmt 0 view .LVU216
 876              		.thumb
 877              		.syntax unified
 878              	.LBE171:
 879              	.LBE170:
 880              	.LBE172:
 881              		.loc 5 349 3 is_stmt 1 view .LVU217
 882 0098 FFF7FEFF 		bl	_stats_start_measure_crit_thd
 883              	.LVL62:
 884              		.loc 5 350 3 view .LVU218
 885 009c FFF7FEFF 		bl	_dbg_check_lock
 886              	.LVL63:
 887              		.loc 5 351 1 is_stmt 0 view .LVU219
 888 00a0 C8E7     		b	.L59
 889              	.LVL64:
 890              	.L68:
 891              		.loc 5 351 1 view .LVU220
 892              	.LBE173:
 893              	.LBE174:
 894              		.loc 1 238 9 is_stmt 1 view .LVU221
 895              	.LBB175:
 896              	.LBI175:
 897              		.loc 5 358 20 view .LVU222
 898              	.LBB176:
 899              		.loc 5 360 3 view .LVU223
 900 00a2 FFF7FEFF 		bl	_dbg_check_unlock
 901              	.LVL65:
 902              		.loc 5 361 3 view .LVU224
 903 00a6 FFF7FEFF 		bl	_stats_stop_measure_crit_thd
 904              	.LVL66:
 905              		.loc 5 367 3 view .LVU225
 906              		.loc 5 367 3 view .LVU226
 907              		.loc 5 367 3 view .LVU227
 908 00aa 3368     		ldr	r3, [r6]
 909 00ac B342     		cmp	r3, r6
 910 00ae 07D0     		beq	.L54
 911 00b0 B269     		ldr	r2, [r6, #24]
 912 00b2 9B68     		ldr	r3, [r3, #8]
ARM GAS  /tmp/ccFnHNgB.s 			page 17


 913 00b4 9268     		ldr	r2, [r2, #8]
 914 00b6 9A42     		cmp	r2, r3
 915 00b8 02D2     		bcs	.L54
 916              		.loc 5 367 3 view .LVU228
 917 00ba 0E48     		ldr	r0, .L71+8
 918 00bc FFF7FEFF 		bl	chSysHalt
 919              	.LVL67:
 920              	.L54:
 921              		.loc 5 367 3 view .LVU229
 922              		.loc 5 371 3 view .LVU230
 923              	.LBB177:
 924              	.LBI177:
 925              		.loc 6 458 20 view .LVU231
 926              	.LBE177:
 927              	.LBE176:
 928              	.LBE175:
 929              		.loc 6 461 3 view .LVU232
 930              	.LBB182:
 931              	.LBB181:
 932              	.LBB180:
 933              	.LBB178:
 934              	.LBI178:
 935              		.loc 7 544 57 view .LVU233
 936              	.LBB179:
 937              		.loc 7 546 3 view .LVU234
 938 00c0 0023     		movs	r3, #0
 939              		.syntax unified
 940              	@ 546 ".//ChibiOS//os/ext/CMSIS/include/core_cmFunc.h" 1
 941 00c2 83F31188 		MSR basepri, r3
 942              	@ 0 "" 2
 943              	.LVL68:
 944              		.thumb
 945              		.syntax unified
 946              	.L50:
 947              		.loc 7 546 3 is_stmt 0 view .LVU235
 948              	.LBE179:
 949              	.LBE178:
 950              	.LBE180:
 951              	.LBE181:
 952              	.LBE182:
 953              		.loc 1 257 1 view .LVU236
 954 00c6 094B     		ldr	r3, .L71
 955 00c8 1A68     		ldr	r2, [r3]
 956 00ca 019B     		ldr	r3, [sp, #4]
 957 00cc 5A40     		eors	r2, r3, r2
 958 00ce 0BD1     		bne	.L70
 959 00d0 3846     		mov	r0, r7
 960 00d2 03B0     		add	sp, sp, #12
 961              		.cfi_remember_state
 962              		.cfi_def_cfa_offset 36
 963              		@ sp needed
 964 00d4 BDE8F08F 		pop	{r4, r5, r6, r7, r8, r9, r10, fp, pc}
 965              	.LVL69:
 966              	.L69:
 967              		.cfi_restore_state
 968              	.LBB183:
 969              	.LBB165:
ARM GAS  /tmp/ccFnHNgB.s 			page 18


 970              		.loc 5 367 3 is_stmt 1 view .LVU237
 971 00d8 0648     		ldr	r0, .L71+8
 972 00da FFF7FEFF 		bl	chSysHalt
 973              	.LVL70:
 974 00de D3E7     		b	.L58
 975              	.LVL71:
 976              	.L67:
 977              		.loc 5 367 3 is_stmt 0 view .LVU238
 978              	.LBE165:
 979              	.LBE183:
 980              		.loc 1 228 3 is_stmt 1 discriminator 3 view .LVU239
 981 00e0 0548     		ldr	r0, .L71+12
 982              	.LVL72:
 983              		.loc 1 228 3 is_stmt 0 discriminator 3 view .LVU240
 984 00e2 FFF7FEFF 		bl	chSysHalt
 985              	.LVL73:
 986              		.loc 1 228 3 discriminator 3 view .LVU241
 987 00e6 9BE7     		b	.L51
 988              	.LVL74:
 989              	.L70:
 990              		.loc 1 257 1 view .LVU242
 991 00e8 FFF7FEFF 		bl	__stack_chk_fail
 992              	.LVL75:
 993              	.L72:
 994              		.align	2
 995              	.L71:
 996 00ec 00000000 		.word	.LC4
 997 00f0 00000000 		.word	ch
 998 00f4 00000000 		.word	.LANCHOR0
 999 00f8 00000000 		.word	.LANCHOR1
 1000              		.cfi_endproc
 1001              	.LFE223:
 1002              		.size	chIQReadTimeout, .-chIQReadTimeout
 1003              		.section	.rodata.chOQObjectInit.cst4,"aM",%progbits,4
 1004              		.align	2
 1005              	.LC5:
 1006 0000 00000000 		.word	__stack_chk_guard
 1007              		.section	.text.chOQObjectInit,"ax",%progbits
 1008              		.align	1
 1009              		.p2align 4,,15
 1010              		.global	chOQObjectInit
 1011              		.syntax unified
 1012              		.thumb
 1013              		.thumb_func
 1014              		.fpu fpv4-sp-d16
 1015              		.type	chOQObjectInit, %function
 1016              	chOQObjectInit:
 1017              	.LVL76:
 1018              	.LFB224:
 1019              		.loc 1 276 49 is_stmt 1 view -0
 1020              		.cfi_startproc
 1021              		@ args = 4, pretend = 0, frame = 8
 1022              		@ frame_needed = 0, uses_anonymous_args = 0
 1023              		.loc 1 276 49 is_stmt 0 view .LVU244
 1024 0000 30B5     		push	{r4, r5, lr}
 1025              		.cfi_def_cfa_offset 12
 1026              		.cfi_offset 4, -12
ARM GAS  /tmp/ccFnHNgB.s 			page 19


 1027              		.cfi_offset 5, -8
 1028              		.cfi_offset 14, -4
 1029 0002 0D4C     		ldr	r4, .L77
 1030 0004 83B0     		sub	sp, sp, #12
 1031              		.cfi_def_cfa_offset 24
 1032              		.loc 1 276 49 view .LVU245
 1033 0006 2468     		ldr	r4, [r4]
 1034 0008 0194     		str	r4, [sp, #4]
 1035 000a 4FF00004 		mov	r4,#0
 1036              		.loc 1 278 3 is_stmt 1 view .LVU246
 1037              	.LVL77:
 1038              	.LBB184:
 1039              	.LBI184:
 1040              		.loc 2 278 20 view .LVU247
 1041              	.LBE184:
 1042              		.loc 2 280 3 view .LVU248
 1043              	.LBB189:
 1044              	.LBB185:
 1045              	.LBI185:
 1046              		.loc 3 602 20 view .LVU249
 1047              	.LBB186:
 1048              		.loc 3 604 3 view .LVU250
 1049              	.LBE186:
 1050              	.LBE185:
 1051              	.LBE189:
 1052              		.loc 1 276 49 is_stmt 0 view .LVU251
 1053 000e 069C     		ldr	r4, [sp, #24]
 1054              	.LBB190:
 1055              	.LBB188:
 1056              	.LBB187:
 1057              		.loc 3 604 15 view .LVU252
 1058 0010 0060     		str	r0, [r0]
 1059              		.loc 3 605 3 is_stmt 1 view .LVU253
 1060              	.LBE187:
 1061              	.LBE188:
 1062              	.LBE190:
 1063              		.loc 1 283 23 is_stmt 0 view .LVU254
 1064 0012 8D18     		adds	r5, r1, r2
 1065              		.loc 1 285 18 view .LVU255
 1066 0014 C0E90734 		strd	r3, r4, [r0, #28]
 1067              		.loc 1 279 18 view .LVU256
 1068 0018 C0E90102 		strd	r0, r2, [r0, #4]
 1069              		.loc 1 280 3 is_stmt 1 view .LVU257
 1070              		.loc 1 280 18 is_stmt 0 view .LVU258
 1071 001c C0E90315 		strd	r1, r5, [r0, #12]
 1072              		.loc 1 281 3 is_stmt 1 view .LVU259
 1073              		.loc 1 282 18 is_stmt 0 view .LVU260
 1074 0020 C0E90511 		strd	r1, r1, [r0, #20]
 1075              		.loc 1 283 3 is_stmt 1 view .LVU261
 1076              		.loc 1 284 3 view .LVU262
 1077              		.loc 1 286 1 is_stmt 0 view .LVU263
 1078 0024 044B     		ldr	r3, .L77
 1079              	.LVL78:
 1080              		.loc 1 286 1 view .LVU264
 1081 0026 1A68     		ldr	r2, [r3]
 1082 0028 019B     		ldr	r3, [sp, #4]
 1083 002a 5A40     		eors	r2, r3, r2
ARM GAS  /tmp/ccFnHNgB.s 			page 20


 1084              	.LVL79:
 1085              		.loc 1 286 1 view .LVU265
 1086 002c 01D1     		bne	.L76
 1087 002e 03B0     		add	sp, sp, #12
 1088              		.cfi_remember_state
 1089              		.cfi_def_cfa_offset 12
 1090              		@ sp needed
 1091 0030 30BD     		pop	{r4, r5, pc}
 1092              	.LVL80:
 1093              	.L76:
 1094              		.cfi_restore_state
 1095              		.loc 1 286 1 view .LVU266
 1096 0032 FFF7FEFF 		bl	__stack_chk_fail
 1097              	.LVL81:
 1098              	.L78:
 1099              		.loc 1 286 1 view .LVU267
 1100 0036 00BF     		.align	2
 1101              	.L77:
 1102 0038 00000000 		.word	.LC5
 1103              		.cfi_endproc
 1104              	.LFE224:
 1105              		.size	chOQObjectInit, .-chOQObjectInit
 1106              		.section	.rodata.chOQResetI.cst4,"aM",%progbits,4
 1107              		.align	2
 1108              	.LC6:
 1109 0000 00000000 		.word	__stack_chk_guard
 1110              		.section	.text.chOQResetI,"ax",%progbits
 1111              		.align	1
 1112              		.p2align 4,,15
 1113              		.global	chOQResetI
 1114              		.syntax unified
 1115              		.thumb
 1116              		.thumb_func
 1117              		.fpu fpv4-sp-d16
 1118              		.type	chOQResetI, %function
 1119              	chOQResetI:
 1120              	.LVL82:
 1121              	.LFB225:
 1122              		.loc 1 299 38 is_stmt 1 view -0
 1123              		.cfi_startproc
 1124              		@ args = 0, pretend = 0, frame = 8
 1125              		@ frame_needed = 0, uses_anonymous_args = 0
 1126              		.loc 1 299 38 is_stmt 0 view .LVU269
 1127 0000 10B5     		push	{r4, lr}
 1128              		.cfi_def_cfa_offset 8
 1129              		.cfi_offset 4, -8
 1130              		.cfi_offset 14, -4
 1131 0002 0F4B     		ldr	r3, .L84
 1132 0004 0446     		mov	r4, r0
 1133 0006 82B0     		sub	sp, sp, #8
 1134              		.cfi_def_cfa_offset 16
 1135              		.loc 1 299 38 view .LVU270
 1136 0008 1B68     		ldr	r3, [r3]
 1137 000a 0193     		str	r3, [sp, #4]
 1138 000c 4FF00003 		mov	r3,#0
 1139              		.loc 1 301 3 is_stmt 1 view .LVU271
 1140 0010 FFF7FEFF 		bl	chDbgCheckClassI
ARM GAS  /tmp/ccFnHNgB.s 			page 21


 1141              	.LVL83:
 1142              		.loc 1 303 3 view .LVU272
 1143              		.loc 1 305 20 is_stmt 0 view .LVU273
 1144 0014 D4E90323 		ldrd	r2, r3, [r4, #12]
 1145 0018 9B1A     		subs	r3, r3, r2
 1146              		.loc 1 305 18 view .LVU274
 1147 001a A360     		str	r3, [r4, #8]
 1148              		.loc 1 306 3 view .LVU275
 1149 001c 084B     		ldr	r3, .L84
 1150              		.loc 1 303 16 view .LVU276
 1151 001e A261     		str	r2, [r4, #24]
 1152              		.loc 1 304 3 is_stmt 1 view .LVU277
 1153              		.loc 1 304 16 is_stmt 0 view .LVU278
 1154 0020 6261     		str	r2, [r4, #20]
 1155              		.loc 1 305 3 is_stmt 1 view .LVU279
 1156              		.loc 1 306 3 view .LVU280
 1157 0022 1A68     		ldr	r2, [r3]
 1158 0024 019B     		ldr	r3, [sp, #4]
 1159 0026 5A40     		eors	r2, r3, r2
 1160 0028 07D1     		bne	.L83
 1161 002a 2046     		mov	r0, r4
 1162 002c 6FF00101 		mvn	r1, #1
 1163              		.loc 1 307 1 is_stmt 0 view .LVU281
 1164 0030 02B0     		add	sp, sp, #8
 1165              		.cfi_remember_state
 1166              		.cfi_def_cfa_offset 8
 1167              		@ sp needed
 1168 0032 BDE81040 		pop	{r4, lr}
 1169              		.cfi_restore 14
 1170              		.cfi_restore 4
 1171              		.cfi_def_cfa_offset 0
 1172              	.LVL84:
 1173              		.loc 1 306 3 view .LVU282
 1174 0036 FFF7FEBF 		b	chThdDequeueAllI
 1175              	.LVL85:
 1176              	.L83:
 1177              		.cfi_restore_state
 1178              		.loc 1 306 3 view .LVU283
 1179 003a FFF7FEFF 		bl	__stack_chk_fail
 1180              	.LVL86:
 1181              	.L85:
 1182 003e 00BF     		.align	2
 1183              	.L84:
 1184 0040 00000000 		.word	.LC6
 1185              		.cfi_endproc
 1186              	.LFE225:
 1187              		.size	chOQResetI, .-chOQResetI
 1188              		.section	.rodata.chOQPutTimeout.cst4,"aM",%progbits,4
 1189              		.align	2
 1190              	.LC7:
 1191 0000 00000000 		.word	__stack_chk_guard
 1192              		.section	.text.chOQPutTimeout,"ax",%progbits
 1193              		.align	1
 1194              		.p2align 4,,15
 1195              		.global	chOQPutTimeout
 1196              		.syntax unified
 1197              		.thumb
ARM GAS  /tmp/ccFnHNgB.s 			page 22


 1198              		.thumb_func
 1199              		.fpu fpv4-sp-d16
 1200              		.type	chOQPutTimeout, %function
 1201              	chOQPutTimeout:
 1202              	.LVL87:
 1203              	.LFB226:
 1204              		.loc 1 331 73 is_stmt 1 view -0
 1205              		.cfi_startproc
 1206              		@ args = 0, pretend = 0, frame = 8
 1207              		@ frame_needed = 0, uses_anonymous_args = 0
 1208              		.loc 1 331 73 is_stmt 0 view .LVU285
 1209 0000 F0B5     		push	{r4, r5, r6, r7, lr}
 1210              		.cfi_def_cfa_offset 20
 1211              		.cfi_offset 4, -20
 1212              		.cfi_offset 5, -16
 1213              		.cfi_offset 6, -12
 1214              		.cfi_offset 7, -8
 1215              		.cfi_offset 14, -4
 1216 0002 304B     		ldr	r3, .L104
 1217 0004 83B0     		sub	sp, sp, #12
 1218              		.cfi_def_cfa_offset 32
 1219              		.loc 1 331 73 view .LVU286
 1220 0006 1B68     		ldr	r3, [r3]
 1221 0008 0193     		str	r3, [sp, #4]
 1222 000a 4FF00003 		mov	r3,#0
 1223              		.loc 1 333 3 is_stmt 1 view .LVU287
 1224              	.LBB209:
 1225              	.LBI209:
 1226              		.loc 5 346 20 view .LVU288
 1227              	.LBB210:
 1228              		.loc 5 348 3 view .LVU289
 1229              	.LBB211:
 1230              	.LBI211:
 1231              		.loc 6 444 20 view .LVU290
 1232              	.LBE211:
 1233              	.LBE210:
 1234              	.LBE209:
 1235              		.loc 6 447 3 view .LVU291
 1236              	.LVL88:
 1237              	.LBB220:
 1238              	.LBB218:
 1239              	.LBB216:
 1240              	.LBB212:
 1241              	.LBI212:
 1242              		.loc 7 544 57 view .LVU292
 1243              	.LBB213:
 1244              		.loc 7 546 3 view .LVU293
 1245              	.LBE213:
 1246              	.LBE212:
 1247              	.LBE216:
 1248              	.LBE218:
 1249              	.LBE220:
 1250              		.loc 1 331 73 is_stmt 0 view .LVU294
 1251 000e 0546     		mov	r5, r0
 1252 0010 0F46     		mov	r7, r1
 1253 0012 1646     		mov	r6, r2
 1254              	.LBB221:
ARM GAS  /tmp/ccFnHNgB.s 			page 23


 1255              	.LBB219:
 1256              	.LBB217:
 1257              	.LBB215:
 1258              	.LBB214:
 1259              		.loc 7 546 3 view .LVU295
 1260 0014 2023     		movs	r3, #32
 1261              		.syntax unified
 1262              	@ 546 ".//ChibiOS//os/ext/CMSIS/include/core_cmFunc.h" 1
 1263 0016 83F31188 		MSR basepri, r3
 1264              	@ 0 "" 2
 1265              	.LVL89:
 1266              		.loc 7 546 3 view .LVU296
 1267              		.thumb
 1268              		.syntax unified
 1269              	.LBE214:
 1270              	.LBE215:
 1271              	.LBE217:
 1272              		.loc 5 349 3 is_stmt 1 view .LVU297
 1273 001a FFF7FEFF 		bl	_stats_start_measure_crit_thd
 1274              	.LVL90:
 1275              		.loc 5 350 3 view .LVU298
 1276 001e FFF7FEFF 		bl	_dbg_check_lock
 1277              	.LVL91:
 1278              		.loc 5 351 1 is_stmt 0 view .LVU299
 1279 0022 05E0     		b	.L87
 1280              	.LVL92:
 1281              	.L90:
 1282              		.loc 5 351 1 view .LVU300
 1283              	.LBE219:
 1284              	.LBE221:
 1285              	.LBB222:
 1286              		.loc 1 335 5 is_stmt 1 view .LVU301
 1287              		.loc 1 335 17 is_stmt 0 view .LVU302
 1288 0024 3146     		mov	r1, r6
 1289 0026 2846     		mov	r0, r5
 1290 0028 FFF7FEFF 		bl	chThdEnqueueTimeoutS
 1291              	.LVL93:
 1292              		.loc 1 336 5 is_stmt 1 view .LVU303
 1293              		.loc 1 336 8 is_stmt 0 view .LVU304
 1294 002c 041E     		subs	r4, r0, #0
 1295 002e 2DDB     		blt	.L100
 1296              	.LVL94:
 1297              	.L87:
 1298              		.loc 1 336 8 view .LVU305
 1299              	.LBE222:
 1300              		.loc 1 334 9 is_stmt 1 view .LVU306
 1301              	.LBB233:
 1302              	.LBI233:
 1303              		.loc 4 403 20 view .LVU307
 1304              	.LBB234:
 1305              		.loc 4 405 3 view .LVU308
 1306 0030 FFF7FEFF 		bl	chDbgCheckClassI
 1307              	.LVL95:
 1308              		.loc 4 407 3 view .LVU309
 1309              		.loc 4 407 17 is_stmt 0 view .LVU310
 1310 0034 AB68     		ldr	r3, [r5, #8]
 1311              	.LBE234:
ARM GAS  /tmp/ccFnHNgB.s 			page 24


 1312              	.LBE233:
 1313              		.loc 1 334 9 view .LVU311
 1314 0036 002B     		cmp	r3, #0
 1315 0038 F4D0     		beq	.L90
 1316              		.loc 1 342 3 is_stmt 1 view .LVU312
 1317              		.loc 1 343 7 is_stmt 0 view .LVU313
 1318 003a 6A69     		ldr	r2, [r5, #20]
 1319              		.loc 1 342 17 view .LVU314
 1320 003c 013B     		subs	r3, r3, #1
 1321              		.loc 1 343 16 view .LVU315
 1322 003e 511C     		adds	r1, r2, #1
 1323 0040 6961     		str	r1, [r5, #20]
 1324              		.loc 1 342 17 view .LVU316
 1325 0042 AB60     		str	r3, [r5, #8]
 1326              		.loc 1 343 3 is_stmt 1 view .LVU317
 1327              		.loc 1 343 19 is_stmt 0 view .LVU318
 1328 0044 1770     		strb	r7, [r2]
 1329              		.loc 1 344 3 is_stmt 1 view .LVU319
 1330              		.loc 1 344 6 is_stmt 0 view .LVU320
 1331 0046 D5E90432 		ldrd	r3, r2, [r5, #16]
 1332 004a 9A42     		cmp	r2, r3
 1333              		.loc 1 345 5 is_stmt 1 view .LVU321
 1334              		.loc 1 348 3 view .LVU322
 1335              		.loc 1 345 18 is_stmt 0 view .LVU323
 1336 004c 24BF     		itt	cs
 1337 004e EB68     		ldrcs	r3, [r5, #12]
 1338 0050 6B61     		strcs	r3, [r5, #20]
 1339              		.loc 1 348 10 view .LVU324
 1340 0052 EB69     		ldr	r3, [r5, #28]
 1341              		.loc 1 348 6 view .LVU325
 1342 0054 0BB1     		cbz	r3, .L92
 1343              		.loc 1 349 5 is_stmt 1 view .LVU326
 1344 0056 2846     		mov	r0, r5
 1345 0058 9847     		blx	r3
 1346              	.LVL96:
 1347              	.L92:
 1348              		.loc 1 351 3 view .LVU327
 1349              	.LBB235:
 1350              	.LBI235:
 1351              		.loc 5 358 20 view .LVU328
 1352              	.LBB236:
 1353              		.loc 5 360 3 view .LVU329
 1354 005a FFF7FEFF 		bl	_dbg_check_unlock
 1355              	.LVL97:
 1356              		.loc 5 361 3 view .LVU330
 1357 005e FFF7FEFF 		bl	_stats_stop_measure_crit_thd
 1358              	.LVL98:
 1359              		.loc 5 367 3 view .LVU331
 1360              		.loc 5 367 3 view .LVU332
 1361              		.loc 5 367 3 view .LVU333
 1362 0062 194B     		ldr	r3, .L104+4
 1363 0064 1A68     		ldr	r2, [r3]
 1364 0066 9A42     		cmp	r2, r3
 1365 0068 04D0     		beq	.L93
 1366 006a 9969     		ldr	r1, [r3, #24]
 1367 006c 9368     		ldr	r3, [r2, #8]
 1368 006e 8A68     		ldr	r2, [r1, #8]
ARM GAS  /tmp/ccFnHNgB.s 			page 25


 1369 0070 9A42     		cmp	r2, r3
 1370 0072 1CD3     		bcc	.L101
 1371              	.L93:
 1372              		.loc 5 367 3 view .LVU334
 1373              		.loc 5 371 3 view .LVU335
 1374              	.LBB237:
 1375              	.LBI237:
 1376              		.loc 6 458 20 view .LVU336
 1377              	.LBE237:
 1378              	.LBE236:
 1379              	.LBE235:
 1380              		.loc 6 461 3 view .LVU337
 1381              	.LVL99:
 1382              	.LBB243:
 1383              	.LBB241:
 1384              	.LBB240:
 1385              	.LBB238:
 1386              	.LBI238:
 1387              		.loc 7 544 57 view .LVU338
 1388              	.LBB239:
 1389              		.loc 7 546 3 view .LVU339
 1390 0074 0020     		movs	r0, #0
 1391              		.syntax unified
 1392              	@ 546 ".//ChibiOS//os/ext/CMSIS/include/core_cmFunc.h" 1
 1393 0076 80F31188 		MSR basepri, r0
 1394              	@ 0 "" 2
 1395              	.LVL100:
 1396              		.loc 7 546 3 is_stmt 0 view .LVU340
 1397              		.thumb
 1398              		.syntax unified
 1399              	.LBE239:
 1400              	.LBE238:
 1401              	.LBE240:
 1402              	.LBE241:
 1403              	.LBE243:
 1404              		.loc 1 353 10 view .LVU341
 1405 007a 0446     		mov	r4, r0
 1406              	.L86:
 1407              		.loc 1 354 1 view .LVU342
 1408 007c 114B     		ldr	r3, .L104
 1409 007e 1A68     		ldr	r2, [r3]
 1410 0080 019B     		ldr	r3, [sp, #4]
 1411 0082 5A40     		eors	r2, r3, r2
 1412 0084 1BD1     		bne	.L102
 1413 0086 2046     		mov	r0, r4
 1414 0088 03B0     		add	sp, sp, #12
 1415              		.cfi_remember_state
 1416              		.cfi_def_cfa_offset 20
 1417              		@ sp needed
 1418 008a F0BD     		pop	{r4, r5, r6, r7, pc}
 1419              	.LVL101:
 1420              	.L100:
 1421              		.cfi_restore_state
 1422              	.LBB244:
 1423              		.loc 1 337 7 is_stmt 1 view .LVU343
 1424              	.LBB223:
 1425              	.LBI223:
ARM GAS  /tmp/ccFnHNgB.s 			page 26


 1426              		.loc 5 358 20 view .LVU344
 1427              	.LBB224:
 1428              		.loc 5 360 3 view .LVU345
 1429 008c FFF7FEFF 		bl	_dbg_check_unlock
 1430              	.LVL102:
 1431              		.loc 5 361 3 view .LVU346
 1432 0090 FFF7FEFF 		bl	_stats_stop_measure_crit_thd
 1433              	.LVL103:
 1434              		.loc 5 367 3 view .LVU347
 1435              		.loc 5 367 3 view .LVU348
 1436              		.loc 5 367 3 view .LVU349
 1437 0094 0C4B     		ldr	r3, .L104+4
 1438 0096 1A68     		ldr	r2, [r3]
 1439 0098 9A42     		cmp	r2, r3
 1440 009a 04D0     		beq	.L88
 1441 009c 9969     		ldr	r1, [r3, #24]
 1442 009e 9368     		ldr	r3, [r2, #8]
 1443 00a0 8A68     		ldr	r2, [r1, #8]
 1444 00a2 9A42     		cmp	r2, r3
 1445 00a4 07D3     		bcc	.L103
 1446              	.L88:
 1447              		.loc 5 367 3 view .LVU350
 1448              		.loc 5 371 3 view .LVU351
 1449              	.LBB225:
 1450              	.LBI225:
 1451              		.loc 6 458 20 view .LVU352
 1452              	.LBE225:
 1453              	.LBE224:
 1454              	.LBE223:
 1455              	.LBE244:
 1456              		.loc 6 461 3 view .LVU353
 1457              	.LVL104:
 1458              	.LBB245:
 1459              	.LBB231:
 1460              	.LBB229:
 1461              	.LBB228:
 1462              	.LBB226:
 1463              	.LBI226:
 1464              		.loc 7 544 57 view .LVU354
 1465              	.LBB227:
 1466              		.loc 7 546 3 view .LVU355
 1467 00a6 0023     		movs	r3, #0
 1468              		.syntax unified
 1469              	@ 546 ".//ChibiOS//os/ext/CMSIS/include/core_cmFunc.h" 1
 1470 00a8 83F31188 		MSR basepri, r3
 1471              	@ 0 "" 2
 1472              	.LVL105:
 1473              		.loc 7 546 3 is_stmt 0 view .LVU356
 1474              		.thumb
 1475              		.syntax unified
 1476              	.LBE227:
 1477              	.LBE226:
 1478              	.LBE228:
 1479              		.loc 5 372 1 view .LVU357
 1480 00ac E6E7     		b	.L86
 1481              	.LVL106:
 1482              	.L101:
ARM GAS  /tmp/ccFnHNgB.s 			page 27


 1483              		.loc 5 372 1 view .LVU358
 1484              	.LBE229:
 1485              	.LBE231:
 1486              	.LBE245:
 1487              	.LBB246:
 1488              	.LBB242:
 1489              		.loc 5 367 3 is_stmt 1 view .LVU359
 1490 00ae 0748     		ldr	r0, .L104+8
 1491 00b0 FFF7FEFF 		bl	chSysHalt
 1492              	.LVL107:
 1493 00b4 DEE7     		b	.L93
 1494              	.LVL108:
 1495              	.L103:
 1496              		.loc 5 367 3 is_stmt 0 view .LVU360
 1497              	.LBE242:
 1498              	.LBE246:
 1499              	.LBB247:
 1500              	.LBB232:
 1501              	.LBB230:
 1502              		.loc 5 367 3 is_stmt 1 view .LVU361
 1503 00b6 0548     		ldr	r0, .L104+8
 1504 00b8 FFF7FEFF 		bl	chSysHalt
 1505              	.LVL109:
 1506 00bc F3E7     		b	.L88
 1507              	.LVL110:
 1508              	.L102:
 1509              		.loc 5 367 3 is_stmt 0 view .LVU362
 1510              	.LBE230:
 1511              	.LBE232:
 1512              	.LBE247:
 1513              		.loc 1 354 1 view .LVU363
 1514 00be FFF7FEFF 		bl	__stack_chk_fail
 1515              	.LVL111:
 1516              	.L105:
 1517 00c2 00BF     		.align	2
 1518              	.L104:
 1519 00c4 00000000 		.word	.LC7
 1520 00c8 00000000 		.word	ch
 1521 00cc 00000000 		.word	.LANCHOR0
 1522              		.cfi_endproc
 1523              	.LFE226:
 1524              		.size	chOQPutTimeout, .-chOQPutTimeout
 1525              		.section	.rodata.chOQGetI.cst4,"aM",%progbits,4
 1526              		.align	2
 1527              	.LC8:
 1528 0000 00000000 		.word	__stack_chk_guard
 1529              		.section	.text.chOQGetI,"ax",%progbits
 1530              		.align	1
 1531              		.p2align 4,,15
 1532              		.global	chOQGetI
 1533              		.syntax unified
 1534              		.thumb
 1535              		.thumb_func
 1536              		.fpu fpv4-sp-d16
 1537              		.type	chOQGetI, %function
 1538              	chOQGetI:
 1539              	.LVL112:
ARM GAS  /tmp/ccFnHNgB.s 			page 28


 1540              	.LFB227:
 1541              		.loc 1 366 37 is_stmt 1 view -0
 1542              		.cfi_startproc
 1543              		@ args = 0, pretend = 0, frame = 8
 1544              		@ frame_needed = 0, uses_anonymous_args = 0
 1545              		.loc 1 366 37 is_stmt 0 view .LVU365
 1546 0000 30B5     		push	{r4, r5, lr}
 1547              		.cfi_def_cfa_offset 12
 1548              		.cfi_offset 4, -12
 1549              		.cfi_offset 5, -8
 1550              		.cfi_offset 14, -4
 1551 0002 174B     		ldr	r3, .L117
 1552 0004 0446     		mov	r4, r0
 1553 0006 83B0     		sub	sp, sp, #12
 1554              		.cfi_def_cfa_offset 24
 1555              		.loc 1 366 37 view .LVU366
 1556 0008 1B68     		ldr	r3, [r3]
 1557 000a 0193     		str	r3, [sp, #4]
 1558 000c 4FF00003 		mov	r3,#0
 1559              		.loc 1 367 3 is_stmt 1 view .LVU367
 1560              		.loc 1 369 3 view .LVU368
 1561 0010 FFF7FEFF 		bl	chDbgCheckClassI
 1562              	.LVL113:
 1563              		.loc 1 371 3 view .LVU369
 1564              	.LBB248:
 1565              	.LBI248:
 1566              		.loc 4 386 20 view .LVU370
 1567              	.LBB249:
 1568              		.loc 4 388 3 view .LVU371
 1569 0014 FFF7FEFF 		bl	chDbgCheckClassI
 1570              	.LVL114:
 1571              		.loc 4 390 3 view .LVU372
 1572              		.loc 4 390 48 is_stmt 0 view .LVU373
 1573 0018 D4E90532 		ldrd	r3, r2, [r4, #20]
 1574 001c 9342     		cmp	r3, r2
 1575              		.loc 4 390 55 view .LVU374
 1576 001e A368     		ldr	r3, [r4, #8]
 1577              		.loc 4 390 48 view .LVU375
 1578 0020 16D0     		beq	.L115
 1579              	.L109:
 1580              	.LVL115:
 1581              		.loc 4 390 48 view .LVU376
 1582              	.LBE249:
 1583              	.LBE248:
 1584              		.loc 1 375 3 is_stmt 1 view .LVU377
 1585              		.loc 1 377 6 is_stmt 0 view .LVU378
 1586 0022 2069     		ldr	r0, [r4, #16]
 1587              		.loc 1 376 20 view .LVU379
 1588 0024 511C     		adds	r1, r2, #1
 1589              		.loc 1 375 17 view .LVU380
 1590 0026 0133     		adds	r3, r3, #1
 1591 0028 A360     		str	r3, [r4, #8]
 1592              		.loc 1 376 3 is_stmt 1 view .LVU381
 1593              		.loc 1 376 20 is_stmt 0 view .LVU382
 1594 002a A161     		str	r1, [r4, #24]
 1595              		.loc 1 377 6 view .LVU383
 1596 002c 8142     		cmp	r1, r0
ARM GAS  /tmp/ccFnHNgB.s 			page 29


 1597              		.loc 1 376 5 view .LVU384
 1598 002e 1578     		ldrb	r5, [r2]	@ zero_extendqisi2
 1599              	.LVL116:
 1600              		.loc 1 377 3 is_stmt 1 view .LVU385
 1601              		.loc 1 377 6 is_stmt 0 view .LVU386
 1602 0030 0BD2     		bcs	.L110
 1603              	.L111:
 1604              		.loc 1 381 3 is_stmt 1 view .LVU387
 1605 0032 2046     		mov	r0, r4
 1606 0034 0021     		movs	r1, #0
 1607 0036 FFF7FEFF 		bl	chThdDequeueNextI
 1608              	.LVL117:
 1609              		.loc 1 383 3 view .LVU388
 1610              		.loc 1 383 10 is_stmt 0 view .LVU389
 1611 003a 2846     		mov	r0, r5
 1612              	.LVL118:
 1613              	.L106:
 1614              		.loc 1 384 1 view .LVU390
 1615 003c 084B     		ldr	r3, .L117
 1616 003e 1A68     		ldr	r2, [r3]
 1617 0040 019B     		ldr	r3, [sp, #4]
 1618 0042 5A40     		eors	r2, r3, r2
 1619 0044 09D1     		bne	.L116
 1620 0046 03B0     		add	sp, sp, #12
 1621              		.cfi_remember_state
 1622              		.cfi_def_cfa_offset 12
 1623              		@ sp needed
 1624 0048 30BD     		pop	{r4, r5, pc}
 1625              	.LVL119:
 1626              	.L110:
 1627              		.cfi_restore_state
 1628              		.loc 1 378 5 is_stmt 1 view .LVU391
 1629              		.loc 1 378 18 is_stmt 0 view .LVU392
 1630 004a E368     		ldr	r3, [r4, #12]
 1631 004c A361     		str	r3, [r4, #24]
 1632 004e F0E7     		b	.L111
 1633              	.LVL120:
 1634              	.L115:
 1635              	.LBB251:
 1636              	.LBB250:
 1637              		.loc 4 390 48 view .LVU393
 1638 0050 002B     		cmp	r3, #0
 1639 0052 E6D0     		beq	.L109
 1640              	.LBE250:
 1641              	.LBE251:
 1642              		.loc 1 372 12 view .LVU394
 1643 0054 6FF00200 		mvn	r0, #2
 1644              	.LVL121:
 1645              		.loc 1 372 12 view .LVU395
 1646 0058 F0E7     		b	.L106
 1647              	.L116:
 1648              		.loc 1 384 1 view .LVU396
 1649 005a FFF7FEFF 		bl	__stack_chk_fail
 1650              	.LVL122:
 1651              	.L118:
 1652 005e 00BF     		.align	2
 1653              	.L117:
ARM GAS  /tmp/ccFnHNgB.s 			page 30


 1654 0060 00000000 		.word	.LC8
 1655              		.cfi_endproc
 1656              	.LFE227:
 1657              		.size	chOQGetI, .-chOQGetI
 1658              		.section	.rodata.chOQWriteTimeout.cst4,"aM",%progbits,4
 1659              		.align	2
 1660              	.LC9:
 1661 0000 00000000 		.word	__stack_chk_guard
 1662              		.section	.text.chOQWriteTimeout,"ax",%progbits
 1663              		.align	1
 1664              		.p2align 4,,15
 1665              		.global	chOQWriteTimeout
 1666              		.syntax unified
 1667              		.thumb
 1668              		.thumb_func
 1669              		.fpu fpv4-sp-d16
 1670              		.type	chOQWriteTimeout, %function
 1671              	chOQWriteTimeout:
 1672              	.LVL123:
 1673              	.LFB228:
 1674              		.loc 1 411 54 is_stmt 1 view -0
 1675              		.cfi_startproc
 1676              		@ args = 0, pretend = 0, frame = 8
 1677              		@ frame_needed = 0, uses_anonymous_args = 0
 1678              		.loc 1 411 54 is_stmt 0 view .LVU398
 1679 0000 2DE9F04F 		push	{r4, r5, r6, r7, r8, r9, r10, fp, lr}
 1680              		.cfi_def_cfa_offset 36
 1681              		.cfi_offset 4, -36
 1682              		.cfi_offset 5, -32
 1683              		.cfi_offset 6, -28
 1684              		.cfi_offset 7, -24
 1685              		.cfi_offset 8, -20
 1686              		.cfi_offset 9, -16
 1687              		.cfi_offset 10, -12
 1688              		.cfi_offset 11, -8
 1689              		.cfi_offset 14, -4
 1690 0004 2DED028B 		vpush.64	{d8}
 1691              		.cfi_def_cfa_offset 44
 1692              		.cfi_offset 80, -44
 1693              		.cfi_offset 81, -40
 1694 0008 08EE103A 		vmov	s16, r3	@ int
 1695 000c 3D4B     		ldr	r3, .L145
 1696              	.LVL124:
 1697              		.loc 1 412 13 view .LVU399
 1698 000e D0F81C90 		ldr	r9, [r0, #28]
 1699              		.loc 1 411 54 view .LVU400
 1700 0012 83B0     		sub	sp, sp, #12
 1701              		.cfi_def_cfa_offset 56
 1702              		.loc 1 411 54 view .LVU401
 1703 0014 0446     		mov	r4, r0
 1704 0016 0D46     		mov	r5, r1
 1705 0018 1B68     		ldr	r3, [r3]
 1706 001a 0193     		str	r3, [sp, #4]
 1707 001c 4FF00003 		mov	r3,#0
 1708              		.loc 1 412 3 is_stmt 1 view .LVU402
 1709              	.LVL125:
 1710              		.loc 1 413 3 view .LVU403
ARM GAS  /tmp/ccFnHNgB.s 			page 31


 1711              		.loc 1 415 3 view .LVU404
 1712              		.loc 1 415 3 view .LVU405
 1713              		.loc 1 415 3 view .LVU406
 1714 0020 1646     		mov	r6, r2
 1715 0022 002A     		cmp	r2, #0
 1716 0024 64D0     		beq	.L140
 1717              	.LVL126:
 1718              	.L120:
 1719              		.loc 1 415 3 discriminator 5 view .LVU407
 1720              		.loc 1 417 3 discriminator 5 view .LVU408
 1721              	.LBB274:
 1722              	.LBI274:
 1723              		.loc 5 346 20 discriminator 5 view .LVU409
 1724              	.LBB275:
 1725              		.loc 5 348 3 discriminator 5 view .LVU410
 1726              	.LBB276:
 1727              	.LBI276:
 1728              		.loc 6 444 20 discriminator 5 view .LVU411
 1729              	.LBE276:
 1730              	.LBE275:
 1731              	.LBE274:
 1732              		.loc 6 447 3 discriminator 5 view .LVU412
 1733              	.LBB281:
 1734              	.LBB280:
 1735              	.LBB279:
 1736              	.LBB277:
 1737              	.LBI277:
 1738              		.loc 7 544 57 discriminator 5 view .LVU413
 1739              	.LBB278:
 1740              		.loc 7 546 3 discriminator 5 view .LVU414
 1741 0026 4FF0200A 		mov	r10, #32
 1742              		.syntax unified
 1743              	@ 546 ".//ChibiOS//os/ext/CMSIS/include/core_cmFunc.h" 1
 1744 002a 8AF31188 		MSR basepri, r10
 1745              	@ 0 "" 2
 1746              	.LVL127:
 1747              		.loc 7 546 3 is_stmt 0 discriminator 5 view .LVU415
 1748              		.thumb
 1749              		.syntax unified
 1750              	.LBE278:
 1751              	.LBE277:
 1752              	.LBE279:
 1753              		.loc 5 349 3 is_stmt 1 discriminator 5 view .LVU416
 1754 002e FFF7FEFF 		bl	_stats_start_measure_crit_thd
 1755              	.LVL128:
 1756              		.loc 5 350 3 discriminator 5 view .LVU417
 1757 0032 FFF7FEFF 		bl	_dbg_check_lock
 1758              	.LVL129:
 1759              	.LBE280:
 1760              	.LBE281:
 1761              		.loc 1 413 10 is_stmt 0 discriminator 5 view .LVU418
 1762 0036 4FF00008 		mov	r8, #0
 1763 003a 334F     		ldr	r7, .L145+4
 1764              	.LBB282:
 1765              	.LBB283:
 1766              	.LBB284:
 1767              	.LBB285:
ARM GAS  /tmp/ccFnHNgB.s 			page 32


 1768              	.LBB286:
 1769              		.loc 7 546 3 discriminator 5 view .LVU419
 1770 003c C346     		mov	fp, r8
 1771              	.LVL130:
 1772              	.L121:
 1773              		.loc 7 546 3 discriminator 5 view .LVU420
 1774              	.LBE286:
 1775              	.LBE285:
 1776              	.LBE284:
 1777              	.LBE283:
 1778              	.LBE282:
 1779              		.loc 1 419 11 is_stmt 1 view .LVU421
 1780              	.LBB294:
 1781              	.LBI294:
 1782              		.loc 4 403 20 view .LVU422
 1783              	.LBB295:
 1784              		.loc 4 405 3 view .LVU423
 1785 003e FFF7FEFF 		bl	chDbgCheckClassI
 1786              	.LVL131:
 1787              		.loc 4 407 3 view .LVU424
 1788              		.loc 4 407 17 is_stmt 0 view .LVU425
 1789 0042 A368     		ldr	r3, [r4, #8]
 1790              	.LBE295:
 1791              	.LBE294:
 1792              		.loc 1 419 11 view .LVU426
 1793 0044 7BB3     		cbz	r3, .L125
 1794              	.L142:
 1795              		.loc 1 426 5 is_stmt 1 view .LVU427
 1796              		.loc 1 427 9 is_stmt 0 view .LVU428
 1797 0046 6269     		ldr	r2, [r4, #20]
 1798              		.loc 1 426 19 view .LVU429
 1799 0048 013B     		subs	r3, r3, #1
 1800              		.loc 1 427 18 view .LVU430
 1801 004a 511C     		adds	r1, r2, #1
 1802 004c 6161     		str	r1, [r4, #20]
 1803              		.loc 1 426 19 view .LVU431
 1804 004e A360     		str	r3, [r4, #8]
 1805              		.loc 1 427 5 is_stmt 1 view .LVU432
 1806              	.LVL132:
 1807              		.loc 1 427 23 is_stmt 0 view .LVU433
 1808 0050 15F8013B 		ldrb	r3, [r5], #1	@ zero_extendqisi2
 1809              	.LVL133:
 1810              		.loc 1 427 21 view .LVU434
 1811 0054 1370     		strb	r3, [r2]
 1812              		.loc 1 428 5 is_stmt 1 view .LVU435
 1813              		.loc 1 428 8 is_stmt 0 view .LVU436
 1814 0056 D4E90432 		ldrd	r3, r2, [r4, #16]
 1815 005a 9A42     		cmp	r2, r3
 1816              		.loc 1 429 7 is_stmt 1 view .LVU437
 1817              		.loc 1 432 5 view .LVU438
 1818              		.loc 1 429 20 is_stmt 0 view .LVU439
 1819 005c 24BF     		itt	cs
 1820 005e E368     		ldrcs	r3, [r4, #12]
 1821 0060 6361     		strcs	r3, [r4, #20]
 1822              		.loc 1 432 8 view .LVU440
 1823 0062 B9F1000F 		cmp	r9, #0
 1824 0066 01D0     		beq	.L127
ARM GAS  /tmp/ccFnHNgB.s 			page 33


 1825              		.loc 1 433 7 is_stmt 1 view .LVU441
 1826 0068 2046     		mov	r0, r4
 1827 006a C847     		blx	r9
 1828              	.LVL134:
 1829              	.L127:
 1830              		.loc 1 435 5 view .LVU442
 1831              	.LBB297:
 1832              	.LBI282:
 1833              		.loc 5 358 20 view .LVU443
 1834              	.LBB291:
 1835              		.loc 5 360 3 view .LVU444
 1836 006c FFF7FEFF 		bl	_dbg_check_unlock
 1837              	.LVL135:
 1838              		.loc 5 361 3 view .LVU445
 1839 0070 FFF7FEFF 		bl	_stats_stop_measure_crit_thd
 1840              	.LVL136:
 1841              		.loc 5 367 3 view .LVU446
 1842              		.loc 5 367 3 view .LVU447
 1843              		.loc 5 367 3 view .LVU448
 1844 0074 3B68     		ldr	r3, [r7]
 1845 0076 BB42     		cmp	r3, r7
 1846 0078 04D0     		beq	.L128
 1847 007a BA69     		ldr	r2, [r7, #24]
 1848 007c 9B68     		ldr	r3, [r3, #8]
 1849 007e 9268     		ldr	r2, [r2, #8]
 1850 0080 9A42     		cmp	r2, r3
 1851 0082 31D3     		bcc	.L141
 1852              	.L128:
 1853              		.loc 5 367 3 view .LVU449
 1854              		.loc 5 371 3 view .LVU450
 1855              	.LBB289:
 1856              	.LBI284:
 1857              		.loc 6 458 20 view .LVU451
 1858              	.LBE289:
 1859              	.LBE291:
 1860              	.LBE297:
 1861              		.loc 6 461 3 view .LVU452
 1862              	.LVL137:
 1863              	.LBB298:
 1864              	.LBB292:
 1865              	.LBB290:
 1866              	.LBB288:
 1867              	.LBI285:
 1868              		.loc 7 544 57 view .LVU453
 1869              	.LBB287:
 1870              		.loc 7 546 3 view .LVU454
 1871              		.syntax unified
 1872              	@ 546 ".//ChibiOS//os/ext/CMSIS/include/core_cmFunc.h" 1
 1873 0084 8BF31188 		MSR basepri, fp
 1874              	@ 0 "" 2
 1875              	.LVL138:
 1876              		.loc 7 546 3 is_stmt 0 view .LVU455
 1877              		.thumb
 1878              		.syntax unified
 1879              	.LBE287:
 1880              	.LBE288:
 1881              	.LBE290:
ARM GAS  /tmp/ccFnHNgB.s 			page 34


 1882              	.LBE292:
 1883              	.LBE298:
 1884              		.loc 1 437 5 is_stmt 1 view .LVU456
 1885              		.loc 1 438 8 is_stmt 0 view .LVU457
 1886 0088 013E     		subs	r6, r6, #1
 1887              	.LVL139:
 1888              		.loc 1 437 6 view .LVU458
 1889 008a 08F10108 		add	r8, r8, #1
 1890              	.LVL140:
 1891              		.loc 1 438 5 is_stmt 1 view .LVU459
 1892              		.loc 1 438 8 is_stmt 0 view .LVU460
 1893 008e 20D0     		beq	.L119
 1894              		.loc 1 441 5 is_stmt 1 view .LVU461
 1895              	.LBB299:
 1896              	.LBI299:
 1897              		.loc 5 346 20 view .LVU462
 1898              	.LBB300:
 1899              		.loc 5 348 3 view .LVU463
 1900              	.LBB301:
 1901              	.LBI301:
 1902              		.loc 6 444 20 view .LVU464
 1903              	.LBE301:
 1904              	.LBE300:
 1905              	.LBE299:
 1906              		.loc 6 447 3 view .LVU465
 1907              	.LVL141:
 1908              	.LBB306:
 1909              	.LBB305:
 1910              	.LBB304:
 1911              	.LBB302:
 1912              	.LBI302:
 1913              		.loc 7 544 57 view .LVU466
 1914              	.LBB303:
 1915              		.loc 7 546 3 view .LVU467
 1916              		.syntax unified
 1917              	@ 546 ".//ChibiOS//os/ext/CMSIS/include/core_cmFunc.h" 1
 1918 0090 8AF31188 		MSR basepri, r10
 1919              	@ 0 "" 2
 1920              	.LVL142:
 1921              		.loc 7 546 3 is_stmt 0 view .LVU468
 1922              		.thumb
 1923              		.syntax unified
 1924              	.LBE303:
 1925              	.LBE302:
 1926              	.LBE304:
 1927              		.loc 5 349 3 is_stmt 1 view .LVU469
 1928 0094 FFF7FEFF 		bl	_stats_start_measure_crit_thd
 1929              	.LVL143:
 1930              		.loc 5 350 3 view .LVU470
 1931 0098 FFF7FEFF 		bl	_dbg_check_lock
 1932              	.LVL144:
 1933              		.loc 5 350 3 is_stmt 0 view .LVU471
 1934              	.LBE305:
 1935              	.LBE306:
 1936              		.loc 1 419 11 is_stmt 1 view .LVU472
 1937              	.LBB307:
 1938              		.loc 4 403 20 view .LVU473
ARM GAS  /tmp/ccFnHNgB.s 			page 35


 1939              	.LBB296:
 1940              		.loc 4 405 3 view .LVU474
 1941 009c FFF7FEFF 		bl	chDbgCheckClassI
 1942              	.LVL145:
 1943              		.loc 4 407 3 view .LVU475
 1944              		.loc 4 407 17 is_stmt 0 view .LVU476
 1945 00a0 A368     		ldr	r3, [r4, #8]
 1946              	.LBE296:
 1947              	.LBE307:
 1948              		.loc 1 419 11 view .LVU477
 1949 00a2 002B     		cmp	r3, #0
 1950 00a4 CFD1     		bne	.L142
 1951              	.L125:
 1952              		.loc 1 420 7 is_stmt 1 view .LVU478
 1953              		.loc 1 420 11 is_stmt 0 view .LVU479
 1954 00a6 18EE101A 		vmov	r1, s16	@ int
 1955 00aa 2046     		mov	r0, r4
 1956 00ac FFF7FEFF 		bl	chThdEnqueueTimeoutS
 1957              	.LVL146:
 1958              		.loc 1 420 10 view .LVU480
 1959 00b0 0028     		cmp	r0, #0
 1960 00b2 C4D0     		beq	.L121
 1961              		.loc 1 421 9 is_stmt 1 view .LVU481
 1962              	.LBB308:
 1963              	.LBI308:
 1964              		.loc 5 358 20 view .LVU482
 1965              	.LBB309:
 1966              		.loc 5 360 3 view .LVU483
 1967 00b4 FFF7FEFF 		bl	_dbg_check_unlock
 1968              	.LVL147:
 1969              		.loc 5 361 3 view .LVU484
 1970 00b8 FFF7FEFF 		bl	_stats_stop_measure_crit_thd
 1971              	.LVL148:
 1972              		.loc 5 367 3 view .LVU485
 1973              		.loc 5 367 3 view .LVU486
 1974              		.loc 5 367 3 view .LVU487
 1975 00bc 3B68     		ldr	r3, [r7]
 1976 00be BB42     		cmp	r3, r7
 1977 00c0 04D0     		beq	.L123
 1978 00c2 BA69     		ldr	r2, [r7, #24]
 1979 00c4 9B68     		ldr	r3, [r3, #8]
 1980 00c6 9268     		ldr	r2, [r2, #8]
 1981 00c8 9A42     		cmp	r2, r3
 1982 00ca 15D3     		bcc	.L143
 1983              	.L123:
 1984              		.loc 5 367 3 view .LVU488
 1985              		.loc 5 371 3 view .LVU489
 1986              	.LBB310:
 1987              	.LBI310:
 1988              		.loc 6 458 20 view .LVU490
 1989              	.LBE310:
 1990              	.LBE309:
 1991              	.LBE308:
 1992              		.loc 6 461 3 view .LVU491
 1993              	.LVL149:
 1994              	.LBB316:
 1995              	.LBB314:
ARM GAS  /tmp/ccFnHNgB.s 			page 36


 1996              	.LBB313:
 1997              	.LBB311:
 1998              	.LBI311:
 1999              		.loc 7 544 57 view .LVU492
 2000              	.LBB312:
 2001              		.loc 7 546 3 view .LVU493
 2002 00cc 0023     		movs	r3, #0
 2003              		.syntax unified
 2004              	@ 546 ".//ChibiOS//os/ext/CMSIS/include/core_cmFunc.h" 1
 2005 00ce 83F31188 		MSR basepri, r3
 2006              	@ 0 "" 2
 2007              	.LVL150:
 2008              		.thumb
 2009              		.syntax unified
 2010              	.L119:
 2011              		.loc 7 546 3 is_stmt 0 view .LVU494
 2012              	.LBE312:
 2013              	.LBE311:
 2014              	.LBE313:
 2015              	.LBE314:
 2016              	.LBE316:
 2017              		.loc 1 443 1 view .LVU495
 2018 00d2 0C4B     		ldr	r3, .L145
 2019 00d4 1A68     		ldr	r2, [r3]
 2020 00d6 019B     		ldr	r3, [sp, #4]
 2021 00d8 5A40     		eors	r2, r3, r2
 2022 00da 11D1     		bne	.L144
 2023 00dc 4046     		mov	r0, r8
 2024 00de 03B0     		add	sp, sp, #12
 2025              		.cfi_remember_state
 2026              		.cfi_def_cfa_offset 44
 2027              		@ sp needed
 2028 00e0 BDEC028B 		vldm	sp!, {d8}
 2029              		.cfi_restore 80
 2030              		.cfi_restore 81
 2031              		.cfi_def_cfa_offset 36
 2032              	.LVL151:
 2033              		.loc 1 443 1 view .LVU496
 2034 00e4 BDE8F08F 		pop	{r4, r5, r6, r7, r8, r9, r10, fp, pc}
 2035              	.LVL152:
 2036              	.L141:
 2037              		.cfi_restore_state
 2038              	.LBB317:
 2039              	.LBB293:
 2040              		.loc 5 367 3 is_stmt 1 view .LVU497
 2041 00e8 0848     		ldr	r0, .L145+8
 2042 00ea FFF7FEFF 		bl	chSysHalt
 2043              	.LVL153:
 2044 00ee C9E7     		b	.L128
 2045              	.LVL154:
 2046              	.L140:
 2047              		.loc 5 367 3 is_stmt 0 view .LVU498
 2048              	.LBE293:
 2049              	.LBE317:
 2050              		.loc 1 415 3 is_stmt 1 discriminator 3 view .LVU499
 2051 00f0 0748     		ldr	r0, .L145+12
 2052              	.LVL155:
ARM GAS  /tmp/ccFnHNgB.s 			page 37


 2053              		.loc 1 415 3 is_stmt 0 discriminator 3 view .LVU500
 2054 00f2 FFF7FEFF 		bl	chSysHalt
 2055              	.LVL156:
 2056              		.loc 1 415 3 discriminator 3 view .LVU501
 2057 00f6 96E7     		b	.L120
 2058              	.LVL157:
 2059              	.L143:
 2060              	.LBB318:
 2061              	.LBB315:
 2062              		.loc 5 367 3 is_stmt 1 view .LVU502
 2063 00f8 0448     		ldr	r0, .L145+8
 2064 00fa FFF7FEFF 		bl	chSysHalt
 2065              	.LVL158:
 2066 00fe E5E7     		b	.L123
 2067              	.LVL159:
 2068              	.L144:
 2069              		.loc 5 367 3 is_stmt 0 view .LVU503
 2070              	.LBE315:
 2071              	.LBE318:
 2072              		.loc 1 443 1 view .LVU504
 2073 0100 FFF7FEFF 		bl	__stack_chk_fail
 2074              	.LVL160:
 2075              	.L146:
 2076              		.align	2
 2077              	.L145:
 2078 0104 00000000 		.word	.LC9
 2079 0108 00000000 		.word	ch
 2080 010c 00000000 		.word	.LANCHOR0
 2081 0110 00000000 		.word	.LANCHOR2
 2082              		.cfi_endproc
 2083              	.LFE228:
 2084              		.size	chOQWriteTimeout, .-chOQWriteTimeout
 2085              		.section	.rodata.__func__.7261,"a"
 2086              		.align	2
 2087              		.set	.LANCHOR0,. + 0
 2088              		.type	__func__.7261, %object
 2089              		.size	__func__.7261, 12
 2090              	__func__.7261:
 2091 0000 63685379 		.ascii	"chSysUnlock\000"
 2091      73556E6C 
 2091      6F636B00 
 2092              		.section	.rodata.__func__.7985,"a"
 2093              		.align	2
 2094              		.set	.LANCHOR1,. + 0
 2095              		.type	__func__.7985, %object
 2096              		.size	__func__.7985, 16
 2097              	__func__.7985:
 2098 0000 63684951 		.ascii	"chIQReadTimeout\000"
 2098      52656164 
 2098      54696D65 
 2098      6F757400 
 2099              		.section	.rodata.__func__.8021,"a"
 2100              		.align	2
 2101              		.set	.LANCHOR2,. + 0
 2102              		.type	__func__.8021, %object
 2103              		.size	__func__.8021, 17
 2104              	__func__.8021:
ARM GAS  /tmp/ccFnHNgB.s 			page 38


 2105 0000 63684F51 		.ascii	"chOQWriteTimeout\000"
 2105      57726974 
 2105      6554696D 
 2105      656F7574 
 2105      00
 2106              		.text
 2107              	.Letext0:
 2108              		.file 8 "/usr/lib/gcc/arm-none-eabi/9.2.1/include/stddef.h"
 2109              		.file 9 "/usr/lib/gcc/arm-none-eabi/9.2.1/include/stdint.h"
 2110              		.file 10 ".//ChibiOS//os/rt/ports/ARMCMx/compilers/GCC/chtypes.h"
 2111              		.file 11 ".//ChibiOS//os/rt/include/chsystypes.h"
 2112              		.file 12 ".//ChibiOS//os/ext/CMSIS/include/core_cm4.h"
 2113              		.file 13 ".//ChibiOS//os/ext/CMSIS/ST/system_stm32f4xx.h"
 2114              		.file 14 ".//ChibiOS//os/rt/ports/ARMCMx/chcore.h"
 2115              		.file 15 ".//ChibiOS//os/rt/include/chdebug.h"
 2116              		.file 16 ".//ChibiOS//os/rt/include/chtm.h"
 2117              		.file 17 ".//ChibiOS//os/rt/include/chstats.h"
 2118              		.file 18 ".//ChibiOS//os/rt/include/chsem.h"
 2119              		.file 19 ".//ChibiOS//os/rt/include/chmtx.h"
 2120              		.file 20 ".//ChibiOS//os/rt/include/chregistry.h"