ARM GAS  /tmp/cc8LVlpv.s 			page 1


   1              		.cpu cortex-m4
   2              		.eabi_attribute 27, 1
   3              		.eabi_attribute 28, 1
   4              		.eabi_attribute 20, 1
   5              		.eabi_attribute 21, 1
   6              		.eabi_attribute 23, 3
   7              		.eabi_attribute 24, 1
   8              		.eabi_attribute 25, 1
   9              		.eabi_attribute 26, 1
  10              		.eabi_attribute 30, 2
  11              		.eabi_attribute 34, 1
  12              		.eabi_attribute 18, 4
  13              		.file	"chregistry.c"
  14              		.text
  15              	.Ltext0:
  16              		.cfi_sections	.debug_frame
  17              		.section	.rodata.chRegFirstThread.cst4,"aM",%progbits,4
  18              		.align	2
  19              	.LC0:
  20 0000 00000000 		.word	__stack_chk_guard
  21              		.section	.text.chRegFirstThread,"ax",%progbits
  22              		.align	1
  23              		.p2align 4,,15
  24              		.global	chRegFirstThread
  25              		.arch armv7e-m
  26              		.syntax unified
  27              		.thumb
  28              		.thumb_func
  29              		.fpu fpv4-sp-d16
  30              		.type	chRegFirstThread, %function
  31              	chRegFirstThread:
  32              	.LFB219:
  33              		.file 1 ".//ChibiOS//os/rt/src/chregistry.c"
  34              		.loc 1 131 34 view -0
  35              		.cfi_startproc
  36              		@ args = 0, pretend = 0, frame = 8
  37              		@ frame_needed = 0, uses_anonymous_args = 0
  38 0000 30B5     		push	{r4, r5, lr}
  39              		.cfi_def_cfa_offset 12
  40              		.cfi_offset 4, -12
  41              		.cfi_offset 5, -8
  42              		.cfi_offset 14, -4
  43 0002 184B     		ldr	r3, .L8
  44 0004 83B0     		sub	sp, sp, #12
  45              		.cfi_def_cfa_offset 24
  46              		.loc 1 131 34 is_stmt 0 view .LVU1
  47 0006 1B68     		ldr	r3, [r3]
  48 0008 0193     		str	r3, [sp, #4]
  49 000a 4FF00003 		mov	r3,#0
  50              		.loc 1 132 3 is_stmt 1 view .LVU2
  51              		.loc 1 134 3 view .LVU3
  52              	.LBB34:
  53              	.LBI34:
  54              		.file 2 ".//ChibiOS//os/rt/include/chsys.h"
  55              		.loc 2 346 20 view .LVU4
  56              	.LBB35:
  57              		.loc 2 348 3 view .LVU5
ARM GAS  /tmp/cc8LVlpv.s 			page 2


  58              	.LBB36:
  59              	.LBI36:
  60              		.file 3 ".//ChibiOS//os/rt/ports/ARMCMx/chcore_v7m.h"
  61              		.loc 3 444 20 view .LVU6
  62              	.LBE36:
  63              	.LBE35:
  64              	.LBE34:
  65              		.loc 3 447 3 view .LVU7
  66              	.LVL0:
  67              	.LBB42:
  68              	.LBB40:
  69              	.LBB39:
  70              	.LBB37:
  71              	.LBI37:
  72              		.file 4 ".//ChibiOS//os/ext/CMSIS/include/core_cmFunc.h"
  73              		.loc 4 544 57 view .LVU8
  74              	.LBB38:
  75              		.loc 4 546 3 view .LVU9
  76 000e 2023     		movs	r3, #32
  77              		.syntax unified
  78              	@ 546 ".//ChibiOS//os/ext/CMSIS/include/core_cmFunc.h" 1
  79 0010 83F31188 		MSR basepri, r3
  80              	@ 0 "" 2
  81              	.LVL1:
  82              		.loc 4 546 3 is_stmt 0 view .LVU10
  83              		.thumb
  84              		.syntax unified
  85              	.LBE38:
  86              	.LBE37:
  87              	.LBE39:
  88              		.loc 2 349 3 is_stmt 1 view .LVU11
  89              	.LBE40:
  90              	.LBE42:
  91              		.loc 1 135 6 is_stmt 0 view .LVU12
  92 0014 144C     		ldr	r4, .L8+4
  93              	.LBB43:
  94              	.LBB41:
  95              		.loc 2 349 3 view .LVU13
  96 0016 FFF7FEFF 		bl	_stats_start_measure_crit_thd
  97              	.LVL2:
  98              		.loc 2 350 3 is_stmt 1 view .LVU14
  99 001a FFF7FEFF 		bl	_dbg_check_lock
 100              	.LVL3:
 101              	.LBE41:
 102              	.LBE43:
 103              		.loc 1 135 3 view .LVU15
 104              		.loc 1 135 6 is_stmt 0 view .LVU16
 105 001e 2569     		ldr	r5, [r4, #16]
 106              	.LVL4:
 107              		.loc 1 137 3 is_stmt 1 view .LVU17
 108              		.loc 1 137 13 is_stmt 0 view .LVU18
 109 0020 95F82230 		ldrb	r3, [r5, #34]	@ zero_extendqisi2
 110 0024 0133     		adds	r3, r3, #1
 111 0026 85F82230 		strb	r3, [r5, #34]
 112              		.loc 1 139 3 is_stmt 1 view .LVU19
 113              	.LBB44:
 114              	.LBI44:
ARM GAS  /tmp/cc8LVlpv.s 			page 3


 115              		.loc 2 358 20 view .LVU20
 116              	.LBB45:
 117              		.loc 2 360 3 view .LVU21
 118 002a FFF7FEFF 		bl	_dbg_check_unlock
 119              	.LVL5:
 120              		.loc 2 361 3 view .LVU22
 121 002e FFF7FEFF 		bl	_stats_stop_measure_crit_thd
 122              	.LVL6:
 123              		.loc 2 367 3 view .LVU23
 124              		.loc 2 367 3 view .LVU24
 125              		.loc 2 367 3 view .LVU25
 126 0032 2368     		ldr	r3, [r4]
 127 0034 A342     		cmp	r3, r4
 128 0036 04D0     		beq	.L2
 129 0038 A269     		ldr	r2, [r4, #24]
 130 003a 9B68     		ldr	r3, [r3, #8]
 131 003c 9268     		ldr	r2, [r2, #8]
 132 003e 9A42     		cmp	r2, r3
 133 0040 0AD3     		bcc	.L6
 134              	.L2:
 135              		.loc 2 367 3 view .LVU26
 136              		.loc 2 371 3 view .LVU27
 137              	.LBB46:
 138              	.LBI46:
 139              		.loc 3 458 20 view .LVU28
 140              	.LBE46:
 141              	.LBE45:
 142              	.LBE44:
 143              		.loc 3 461 3 view .LVU29
 144              	.LVL7:
 145              	.LBB52:
 146              	.LBB50:
 147              	.LBB49:
 148              	.LBB47:
 149              	.LBI47:
 150              		.loc 4 544 57 view .LVU30
 151              	.LBB48:
 152              		.loc 4 546 3 view .LVU31
 153 0042 0023     		movs	r3, #0
 154              		.syntax unified
 155              	@ 546 ".//ChibiOS//os/ext/CMSIS/include/core_cmFunc.h" 1
 156 0044 83F31188 		MSR basepri, r3
 157              	@ 0 "" 2
 158              	.LVL8:
 159              		.loc 4 546 3 is_stmt 0 view .LVU32
 160              		.thumb
 161              		.syntax unified
 162              	.LBE48:
 163              	.LBE47:
 164              	.LBE49:
 165              	.LBE50:
 166              	.LBE52:
 167              		.loc 1 141 3 is_stmt 1 view .LVU33
 168              		.loc 1 142 1 is_stmt 0 view .LVU34
 169 0048 064B     		ldr	r3, .L8
 170 004a 1A68     		ldr	r2, [r3]
 171 004c 019B     		ldr	r3, [sp, #4]
ARM GAS  /tmp/cc8LVlpv.s 			page 4


 172 004e 5A40     		eors	r2, r3, r2
 173 0050 06D1     		bne	.L7
 174 0052 2846     		mov	r0, r5
 175 0054 03B0     		add	sp, sp, #12
 176              		.cfi_remember_state
 177              		.cfi_def_cfa_offset 12
 178              		@ sp needed
 179 0056 30BD     		pop	{r4, r5, pc}
 180              	.LVL9:
 181              	.L6:
 182              		.cfi_restore_state
 183              	.LBB53:
 184              	.LBB51:
 185              		.loc 2 367 3 is_stmt 1 view .LVU35
 186 0058 0448     		ldr	r0, .L8+8
 187 005a FFF7FEFF 		bl	chSysHalt
 188              	.LVL10:
 189 005e F0E7     		b	.L2
 190              	.L7:
 191              	.LBE51:
 192              	.LBE53:
 193              		.loc 1 142 1 is_stmt 0 view .LVU36
 194 0060 FFF7FEFF 		bl	__stack_chk_fail
 195              	.LVL11:
 196              	.L9:
 197              		.align	2
 198              	.L8:
 199 0064 00000000 		.word	.LC0
 200 0068 00000000 		.word	ch
 201 006c 00000000 		.word	.LANCHOR0
 202              		.cfi_endproc
 203              	.LFE219:
 204              		.size	chRegFirstThread, .-chRegFirstThread
 205              		.section	.rodata.chRegNextThread.cst4,"aM",%progbits,4
 206              		.align	2
 207              	.LC1:
 208 0000 00000000 		.word	__stack_chk_guard
 209              		.section	.text.chRegNextThread,"ax",%progbits
 210              		.align	1
 211              		.p2align 4,,15
 212              		.global	chRegNextThread
 213              		.syntax unified
 214              		.thumb
 215              		.thumb_func
 216              		.fpu fpv4-sp-d16
 217              		.type	chRegNextThread, %function
 218              	chRegNextThread:
 219              	.LVL12:
 220              	.LFB220:
 221              		.loc 1 155 41 is_stmt 1 view -0
 222              		.cfi_startproc
 223              		@ args = 0, pretend = 0, frame = 8
 224              		@ frame_needed = 0, uses_anonymous_args = 0
 225              		.loc 1 155 41 is_stmt 0 view .LVU38
 226 0000 70B5     		push	{r4, r5, r6, lr}
 227              		.cfi_def_cfa_offset 16
 228              		.cfi_offset 4, -16
ARM GAS  /tmp/cc8LVlpv.s 			page 5


 229              		.cfi_offset 5, -12
 230              		.cfi_offset 6, -8
 231              		.cfi_offset 14, -4
 232 0002 204B     		ldr	r3, .L20
 233 0004 82B0     		sub	sp, sp, #8
 234              		.cfi_def_cfa_offset 24
 235              		.loc 1 155 41 view .LVU39
 236 0006 1B68     		ldr	r3, [r3]
 237 0008 0193     		str	r3, [sp, #4]
 238 000a 4FF00003 		mov	r3,#0
 239              		.loc 1 156 3 is_stmt 1 view .LVU40
 240              		.loc 1 158 3 view .LVU41
 241              	.LBB64:
 242              	.LBI64:
 243              		.loc 2 346 20 view .LVU42
 244              	.LBB65:
 245              		.loc 2 348 3 view .LVU43
 246              	.LBB66:
 247              	.LBI66:
 248              		.loc 3 444 20 view .LVU44
 249              	.LBE66:
 250              	.LBE65:
 251              	.LBE64:
 252              		.loc 3 447 3 view .LVU45
 253              	.LVL13:
 254              	.LBB76:
 255              	.LBB73:
 256              	.LBB71:
 257              	.LBB67:
 258              	.LBI67:
 259              		.loc 4 544 57 view .LVU46
 260              	.LBB68:
 261              		.loc 4 546 3 view .LVU47
 262              	.LBE68:
 263              	.LBE67:
 264              	.LBE71:
 265              	.LBE73:
 266              	.LBE76:
 267              		.loc 1 155 41 is_stmt 0 view .LVU48
 268 000e 0546     		mov	r5, r0
 269              	.LBB77:
 270              	.LBB74:
 271              	.LBB72:
 272              	.LBB70:
 273              	.LBB69:
 274              		.loc 4 546 3 view .LVU49
 275 0010 2023     		movs	r3, #32
 276              		.syntax unified
 277              	@ 546 ".//ChibiOS//os/ext/CMSIS/include/core_cmFunc.h" 1
 278 0012 83F31188 		MSR basepri, r3
 279              	@ 0 "" 2
 280              	.LVL14:
 281              		.loc 4 546 3 view .LVU50
 282              		.thumb
 283              		.syntax unified
 284              	.LBE69:
 285              	.LBE70:
ARM GAS  /tmp/cc8LVlpv.s 			page 6


 286              	.LBE72:
 287              		.loc 2 349 3 is_stmt 1 view .LVU51
 288 0016 FFF7FEFF 		bl	_stats_start_measure_crit_thd
 289              	.LVL15:
 290              		.loc 2 350 3 view .LVU52
 291              	.LBE74:
 292              	.LBE77:
 293              		.loc 1 161 6 is_stmt 0 view .LVU53
 294 001a 1B4E     		ldr	r6, .L20+4
 295              	.LBB78:
 296              	.LBB75:
 297              		.loc 2 350 3 view .LVU54
 298 001c FFF7FEFF 		bl	_dbg_check_lock
 299              	.LVL16:
 300              	.LBE75:
 301              	.LBE78:
 302              		.loc 1 159 3 is_stmt 1 view .LVU55
 303              		.loc 1 159 7 is_stmt 0 view .LVU56
 304 0020 2C69     		ldr	r4, [r5, #16]
 305              	.LVL17:
 306              		.loc 1 161 3 is_stmt 1 view .LVU57
 307              		.loc 1 161 6 is_stmt 0 view .LVU58
 308 0022 B442     		cmp	r4, r6
 309 0024 2AD0     		beq	.L15
 310              		.loc 1 167 5 is_stmt 1 discriminator 1 view .LVU59
 311              		.loc 1 167 5 discriminator 1 view .LVU60
 312              		.loc 1 167 5 discriminator 1 view .LVU61
 313 0026 94F82230 		ldrb	r3, [r4, #34]	@ zero_extendqisi2
 314 002a FF2B     		cmp	r3, #255
 315 002c 20D0     		beq	.L17
 316              	.L12:
 317              		.loc 1 167 5 discriminator 5 view .LVU62
 318              		.loc 1 168 5 discriminator 5 view .LVU63
 319              		.loc 1 168 16 is_stmt 0 discriminator 5 view .LVU64
 320 002e 0133     		adds	r3, r3, #1
 321 0030 84F82230 		strb	r3, [r4, #34]
 322              	.LVL18:
 323              	.L11:
 324              		.loc 1 171 3 is_stmt 1 view .LVU65
 325              	.LBB79:
 326              	.LBI79:
 327              		.loc 2 358 20 view .LVU66
 328              	.LBB80:
 329              		.loc 2 360 3 view .LVU67
 330 0034 FFF7FEFF 		bl	_dbg_check_unlock
 331              	.LVL19:
 332              		.loc 2 361 3 view .LVU68
 333 0038 FFF7FEFF 		bl	_stats_stop_measure_crit_thd
 334              	.LVL20:
 335              		.loc 2 367 3 view .LVU69
 336              		.loc 2 367 3 view .LVU70
 337              		.loc 2 367 3 view .LVU71
 338 003c 3368     		ldr	r3, [r6]
 339 003e B342     		cmp	r3, r6
 340 0040 04D0     		beq	.L13
 341 0042 B269     		ldr	r2, [r6, #24]
 342 0044 9B68     		ldr	r3, [r3, #8]
ARM GAS  /tmp/cc8LVlpv.s 			page 7


 343 0046 9268     		ldr	r2, [r2, #8]
 344 0048 9A42     		cmp	r2, r3
 345 004a 0DD3     		bcc	.L18
 346              	.L13:
 347              		.loc 2 367 3 view .LVU72
 348              		.loc 2 371 3 view .LVU73
 349              	.LBB81:
 350              	.LBI81:
 351              		.loc 3 458 20 view .LVU74
 352              	.LBE81:
 353              	.LBE80:
 354              	.LBE79:
 355              		.loc 3 461 3 view .LVU75
 356              	.LVL21:
 357              	.LBB87:
 358              	.LBB85:
 359              	.LBB84:
 360              	.LBB82:
 361              	.LBI82:
 362              		.loc 4 544 57 view .LVU76
 363              	.LBB83:
 364              		.loc 4 546 3 view .LVU77
 365 004c 0023     		movs	r3, #0
 366              		.syntax unified
 367              	@ 546 ".//ChibiOS//os/ext/CMSIS/include/core_cmFunc.h" 1
 368 004e 83F31188 		MSR basepri, r3
 369              	@ 0 "" 2
 370              	.LVL22:
 371              		.loc 4 546 3 is_stmt 0 view .LVU78
 372              		.thumb
 373              		.syntax unified
 374              	.LBE83:
 375              	.LBE82:
 376              	.LBE84:
 377              	.LBE85:
 378              	.LBE87:
 379              		.loc 1 173 3 is_stmt 1 view .LVU79
 380 0052 2846     		mov	r0, r5
 381 0054 FFF7FEFF 		bl	chThdRelease
 382              	.LVL23:
 383              		.loc 1 176 3 view .LVU80
 384              		.loc 1 177 1 is_stmt 0 view .LVU81
 385 0058 0A4B     		ldr	r3, .L20
 386 005a 1A68     		ldr	r2, [r3]
 387 005c 019B     		ldr	r3, [sp, #4]
 388 005e 5A40     		eors	r2, r3, r2
 389 0060 0ED1     		bne	.L19
 390 0062 2046     		mov	r0, r4
 391 0064 02B0     		add	sp, sp, #8
 392              		.cfi_remember_state
 393              		.cfi_def_cfa_offset 16
 394              		@ sp needed
 395 0066 70BD     		pop	{r4, r5, r6, pc}
 396              	.LVL24:
 397              	.L18:
 398              		.cfi_restore_state
 399              	.LBB88:
ARM GAS  /tmp/cc8LVlpv.s 			page 8


 400              	.LBB86:
 401              		.loc 2 367 3 is_stmt 1 view .LVU82
 402 0068 0848     		ldr	r0, .L20+8
 403 006a FFF7FEFF 		bl	chSysHalt
 404              	.LVL25:
 405 006e EDE7     		b	.L13
 406              	.L17:
 407              		.loc 2 367 3 is_stmt 0 view .LVU83
 408              	.LBE86:
 409              	.LBE88:
 410              		.loc 1 167 5 is_stmt 1 discriminator 3 view .LVU84
 411 0070 0748     		ldr	r0, .L20+12
 412 0072 FFF7FEFF 		bl	chSysHalt
 413              	.LVL26:
 414 0076 94F82230 		ldrb	r3, [r4, #34]	@ zero_extendqisi2
 415 007a D8E7     		b	.L12
 416              	.L15:
 417              		.loc 1 163 9 is_stmt 0 view .LVU85
 418 007c 0024     		movs	r4, #0
 419              	.LVL27:
 420              		.loc 1 163 9 view .LVU86
 421 007e D9E7     		b	.L11
 422              	.LVL28:
 423              	.L19:
 424              		.loc 1 177 1 view .LVU87
 425 0080 FFF7FEFF 		bl	__stack_chk_fail
 426              	.LVL29:
 427              	.L21:
 428              		.align	2
 429              	.L20:
 430 0084 00000000 		.word	.LC1
 431 0088 00000000 		.word	ch
 432 008c 00000000 		.word	.LANCHOR0
 433 0090 00000000 		.word	.LANCHOR1
 434              		.cfi_endproc
 435              	.LFE220:
 436              		.size	chRegNextThread, .-chRegNextThread
 437              		.global	ch_debug
 438              		.section	.rodata.__func__.7261,"a"
 439              		.align	2
 440              		.set	.LANCHOR0,. + 0
 441              		.type	__func__.7261, %object
 442              		.size	__func__.7261, 12
 443              	__func__.7261:
 444 0000 63685379 		.ascii	"chSysUnlock\000"
 444      73556E6C 
 444      6F636B00 
 445              		.section	.rodata.__func__.7963,"a"
 446              		.align	2
 447              		.set	.LANCHOR1,. + 0
 448              		.type	__func__.7963, %object
 449              		.size	__func__.7963, 16
 450              	__func__.7963:
 451 0000 63685265 		.ascii	"chRegNextThread\000"
 451      674E6578 
 451      74546872 
 451      65616400 
ARM GAS  /tmp/cc8LVlpv.s 			page 9


 452              		.section	.rodata.ch_debug,"a"
 453              		.align	2
 454              		.type	ch_debug, %object
 455              		.size	ch_debug, 22
 456              	ch_debug:
 457 0000 6D61696E 		.ascii	"main"
 458 0004 00       		.byte	0
 459 0005 16       		.byte	22
 460 0006 0118     		.short	6145
 461 0008 04       		.byte	4
 462 0009 04       		.byte	4
 463 000a 68       		.byte	104
 464 000b 08       		.byte	8
 465 000c 0C       		.byte	12
 466 000d 10       		.byte	16
 467 000e 14       		.byte	20
 468 000f 18       		.byte	24
 469 0010 1C       		.byte	28
 470 0011 20       		.byte	32
 471 0012 21       		.byte	33
 472 0013 22       		.byte	34
 473 0014 23       		.byte	35
 474 0015 24       		.byte	36
 475              		.text
 476              	.Letext0:
 477              		.file 5 "/usr/lib/gcc/arm-none-eabi/9.2.1/include/stddef.h"
 478              		.file 6 "/usr/lib/gcc/arm-none-eabi/9.2.1/include/stdint.h"
 479              		.file 7 ".//ChibiOS//os/rt/ports/ARMCMx/compilers/GCC/chtypes.h"
 480              		.file 8 ".//ChibiOS//os/rt/include/chsystypes.h"
 481              		.file 9 ".//ChibiOS//os/rt/include/chschd.h"
 482              		.file 10 ".//ChibiOS//os/ext/CMSIS/include/core_cm4.h"
 483              		.file 11 ".//ChibiOS//os/ext/CMSIS/ST/system_stm32f4xx.h"
 484              		.file 12 ".//ChibiOS//os/rt/ports/ARMCMx/chcore.h"
 485              		.file 13 ".//ChibiOS//os/rt/include/chdebug.h"
 486              		.file 14 ".//ChibiOS//os/rt/include/chtm.h"
 487              		.file 15 ".//ChibiOS//os/rt/include/chstats.h"
 488              		.file 16 ".//ChibiOS//os/rt/include/chsem.h"
 489              		.file 17 ".//ChibiOS//os/rt/include/chmtx.h"
 490              		.file 18 ".//ChibiOS//os/rt/include/chregistry.h"
 491              		.file 19 ".//ChibiOS//os/rt/include/chdynamic.h"
 492              		.section	.debug_info,"",%progbits
 493              	.Ldebug_info0:
 494 0000 CE0D0000 		.4byte	0xdce
 495 0004 0400     		.2byte	0x4
 496 0006 00000000 		.4byte	.Ldebug_abbrev0
 497 000a 04       		.byte	0x4
 498 000b 01       		.uleb128 0x1
 499 000c 9B040000 		.4byte	.LASF166
 500 0010 0C       		.byte	0xc
 501 0011 46000000 		.4byte	.LASF167
 502 0015 D9020000 		.4byte	.LASF168
 503 0019 F0000000 		.4byte	.Ldebug_ranges0+0xf0
 504 001d 00000000 		.4byte	0
 505 0021 00000000 		.4byte	.Ldebug_line0
 506 0025 02       		.uleb128 0x2
 507 0026 04       		.byte	0x4
 508 0027 05       		.byte	0x5
ARM GAS  /tmp/cc8LVlpv.s 			page 10


 509 0028 696E7400 		.ascii	"int\000"
 510 002c 03       		.uleb128 0x3
 511 002d 22000000 		.4byte	.LASF5
 512 0031 05       		.byte	0x5
 513 0032 D1       		.byte	0xd1
 514 0033 17       		.byte	0x17
 515 0034 38000000 		.4byte	0x38
 516 0038 04       		.uleb128 0x4
 517 0039 04       		.byte	0x4
 518 003a 07       		.byte	0x7
 519 003b 7A020000 		.4byte	.LASF0
 520 003f 04       		.uleb128 0x4
 521 0040 08       		.byte	0x8
 522 0041 05       		.byte	0x5
 523 0042 5C010000 		.4byte	.LASF1
 524 0046 04       		.uleb128 0x4
 525 0047 08       		.byte	0x8
 526 0048 04       		.byte	0x4
 527 0049 3C040000 		.4byte	.LASF2
 528 004d 04       		.uleb128 0x4
 529 004e 01       		.byte	0x1
 530 004f 06       		.byte	0x6
 531 0050 6A010000 		.4byte	.LASF3
 532 0054 04       		.uleb128 0x4
 533 0055 02       		.byte	0x2
 534 0056 05       		.byte	0x5
 535 0057 6F060000 		.4byte	.LASF4
 536 005b 03       		.uleb128 0x3
 537 005c 4F060000 		.4byte	.LASF6
 538 0060 06       		.byte	0x6
 539 0061 28       		.byte	0x28
 540 0062 18       		.byte	0x18
 541 0063 6C000000 		.4byte	0x6c
 542 0067 05       		.uleb128 0x5
 543 0068 5B000000 		.4byte	0x5b
 544 006c 04       		.uleb128 0x4
 545 006d 04       		.byte	0x4
 546 006e 05       		.byte	0x5
 547 006f D0010000 		.4byte	.LASF7
 548 0073 03       		.uleb128 0x3
 549 0074 3A080000 		.4byte	.LASF8
 550 0078 06       		.byte	0x6
 551 0079 2E       		.byte	0x2e
 552 007a 18       		.byte	0x18
 553 007b 7F000000 		.4byte	0x7f
 554 007f 04       		.uleb128 0x4
 555 0080 01       		.byte	0x1
 556 0081 08       		.byte	0x8
 557 0082 57060000 		.4byte	.LASF9
 558 0086 03       		.uleb128 0x3
 559 0087 8F020000 		.4byte	.LASF10
 560 008b 06       		.byte	0x6
 561 008c 31       		.byte	0x31
 562 008d 19       		.byte	0x19
 563 008e 92000000 		.4byte	0x92
 564 0092 04       		.uleb128 0x4
 565 0093 02       		.byte	0x2
ARM GAS  /tmp/cc8LVlpv.s 			page 11


 566 0094 07       		.byte	0x7
 567 0095 27030000 		.4byte	.LASF11
 568 0099 03       		.uleb128 0x3
 569 009a 3E070000 		.4byte	.LASF12
 570 009e 06       		.byte	0x6
 571 009f 34       		.byte	0x34
 572 00a0 19       		.byte	0x19
 573 00a1 A5000000 		.4byte	0xa5
 574 00a5 04       		.uleb128 0x4
 575 00a6 04       		.byte	0x4
 576 00a7 07       		.byte	0x7
 577 00a8 73070000 		.4byte	.LASF13
 578 00ac 03       		.uleb128 0x3
 579 00ad 30000000 		.4byte	.LASF14
 580 00b1 06       		.byte	0x6
 581 00b2 37       		.byte	0x37
 582 00b3 19       		.byte	0x19
 583 00b4 B8000000 		.4byte	0xb8
 584 00b8 04       		.uleb128 0x4
 585 00b9 08       		.byte	0x8
 586 00ba 07       		.byte	0x7
 587 00bb B8000000 		.4byte	.LASF15
 588 00bf 03       		.uleb128 0x3
 589 00c0 0D040000 		.4byte	.LASF16
 590 00c4 07       		.byte	0x7
 591 00c5 45       		.byte	0x45
 592 00c6 1D       		.byte	0x1d
 593 00c7 99000000 		.4byte	0x99
 594 00cb 03       		.uleb128 0x3
 595 00cc 3F010000 		.4byte	.LASF17
 596 00d0 07       		.byte	0x7
 597 00d1 46       		.byte	0x46
 598 00d2 1D       		.byte	0x1d
 599 00d3 AC000000 		.4byte	0xac
 600 00d7 03       		.uleb128 0x3
 601 00d8 A0060000 		.4byte	.LASF18
 602 00dc 07       		.byte	0x7
 603 00dd 48       		.byte	0x48
 604 00de 1D       		.byte	0x1d
 605 00df 73000000 		.4byte	0x73
 606 00e3 03       		.uleb128 0x3
 607 00e4 D9010000 		.4byte	.LASF19
 608 00e8 07       		.byte	0x7
 609 00e9 49       		.byte	0x49
 610 00ea 1D       		.byte	0x1d
 611 00eb 73000000 		.4byte	0x73
 612 00ef 03       		.uleb128 0x3
 613 00f0 0A060000 		.4byte	.LASF20
 614 00f4 07       		.byte	0x7
 615 00f5 4A       		.byte	0x4a
 616 00f6 1D       		.byte	0x1d
 617 00f7 73000000 		.4byte	0x73
 618 00fb 03       		.uleb128 0x3
 619 00fc B6010000 		.4byte	.LASF21
 620 0100 07       		.byte	0x7
 621 0101 4B       		.byte	0x4b
 622 0102 1D       		.byte	0x1d
ARM GAS  /tmp/cc8LVlpv.s 			page 12


 623 0103 73000000 		.4byte	0x73
 624 0107 03       		.uleb128 0x3
 625 0108 3E060000 		.4byte	.LASF22
 626 010c 07       		.byte	0x7
 627 010d 4C       		.byte	0x4c
 628 010e 1D       		.byte	0x1d
 629 010f 99000000 		.4byte	0x99
 630 0113 03       		.uleb128 0x3
 631 0114 53030000 		.4byte	.LASF23
 632 0118 07       		.byte	0x7
 633 0119 4D       		.byte	0x4d
 634 011a 1D       		.byte	0x1d
 635 011b 5B000000 		.4byte	0x5b
 636 011f 03       		.uleb128 0x3
 637 0120 96030000 		.4byte	.LASF24
 638 0124 07       		.byte	0x7
 639 0125 4F       		.byte	0x4f
 640 0126 1D       		.byte	0x1d
 641 0127 99000000 		.4byte	0x99
 642 012b 03       		.uleb128 0x3
 643 012c 69020000 		.4byte	.LASF25
 644 0130 07       		.byte	0x7
 645 0131 51       		.byte	0x51
 646 0132 1D       		.byte	0x1d
 647 0133 5B000000 		.4byte	0x5b
 648 0137 03       		.uleb128 0x3
 649 0138 5E030000 		.4byte	.LASF26
 650 013c 07       		.byte	0x7
 651 013d 52       		.byte	0x52
 652 013e 1D       		.byte	0x1d
 653 013f 99000000 		.4byte	0x99
 654 0143 03       		.uleb128 0x3
 655 0144 B6070000 		.4byte	.LASF27
 656 0148 08       		.byte	0x8
 657 0149 33       		.byte	0x33
 658 014a 12       		.byte	0x12
 659 014b 99000000 		.4byte	0x99
 660 014f 05       		.uleb128 0x5
 661 0150 43010000 		.4byte	0x143
 662 0154 03       		.uleb128 0x3
 663 0155 A1070000 		.4byte	.LASF28
 664 0159 08       		.byte	0x8
 665 015a 3F       		.byte	0x3f
 666 015b 1A       		.byte	0x1a
 667 015c 60010000 		.4byte	0x160
 668 0160 06       		.uleb128 0x6
 669 0161 49030000 		.4byte	.LASF52
 670 0165 68       		.byte	0x68
 671 0166 09       		.byte	0x9
 672 0167 C2       		.byte	0xc2
 673 0168 08       		.byte	0x8
 674 0169 95020000 		.4byte	0x295
 675 016d 07       		.uleb128 0x7
 676 016e 99060000 		.4byte	.LASF29
 677 0172 09       		.byte	0x9
 678 0173 C3       		.byte	0xc3
 679 0174 1A       		.byte	0x1a
ARM GAS  /tmp/cc8LVlpv.s 			page 13


 680 0175 A1020000 		.4byte	0x2a1
 681 0179 00       		.byte	0
 682 017a 07       		.uleb128 0x7
 683 017b 37060000 		.4byte	.LASF30
 684 017f 09       		.byte	0x9
 685 0180 C5       		.byte	0xc5
 686 0181 1A       		.byte	0x1a
 687 0182 A1020000 		.4byte	0x2a1
 688 0186 04       		.byte	0x4
 689 0187 07       		.uleb128 0x7
 690 0188 48010000 		.4byte	.LASF31
 691 018c 09       		.byte	0x9
 692 018d C7       		.byte	0xc7
 693 018e 19       		.byte	0x19
 694 018f 07010000 		.4byte	0x107
 695 0193 08       		.byte	0x8
 696 0194 07       		.uleb128 0x7
 697 0195 84040000 		.4byte	.LASF32
 698 0199 09       		.byte	0x9
 699 019a C8       		.byte	0xc8
 700 019b 19       		.byte	0x19
 701 019c 4A050000 		.4byte	0x54a
 702 01a0 0C       		.byte	0xc
 703 01a1 07       		.uleb128 0x7
 704 01a2 F2010000 		.4byte	.LASF33
 705 01a6 09       		.byte	0x9
 706 01a7 CA       		.byte	0xca
 707 01a8 1A       		.byte	0x1a
 708 01a9 A1020000 		.4byte	0x2a1
 709 01ad 10       		.byte	0x10
 710 01ae 07       		.uleb128 0x7
 711 01af 76040000 		.4byte	.LASF34
 712 01b3 09       		.byte	0x9
 713 01b4 CB       		.byte	0xcb
 714 01b5 1A       		.byte	0x1a
 715 01b6 A1020000 		.4byte	0x2a1
 716 01ba 14       		.byte	0x14
 717 01bb 07       		.uleb128 0x7
 718 01bc 6E080000 		.4byte	.LASF35
 719 01c0 09       		.byte	0x9
 720 01c1 D2       		.byte	0xd2
 721 01c2 1A       		.byte	0x1a
 722 01c3 07090000 		.4byte	0x907
 723 01c7 18       		.byte	0x18
 724 01c8 07       		.uleb128 0x7
 725 01c9 6F020000 		.4byte	.LASF36
 726 01cd 09       		.byte	0x9
 727 01ce D8       		.byte	0xd8
 728 01cf 1A       		.byte	0x1a
 729 01d0 1E090000 		.4byte	0x91e
 730 01d4 1C       		.byte	0x1c
 731 01d5 07       		.uleb128 0x7
 732 01d6 79060000 		.4byte	.LASF37
 733 01da 09       		.byte	0x9
 734 01db DD       		.byte	0xdd
 735 01dc 19       		.byte	0x19
 736 01dd E3000000 		.4byte	0xe3
ARM GAS  /tmp/cc8LVlpv.s 			page 14


 737 01e1 20       		.byte	0x20
 738 01e2 07       		.uleb128 0x7
 739 01e3 B7060000 		.4byte	.LASF38
 740 01e7 09       		.byte	0x9
 741 01e8 E1       		.byte	0xe1
 742 01e9 19       		.byte	0x19
 743 01ea D7000000 		.4byte	0xd7
 744 01ee 21       		.byte	0x21
 745 01ef 07       		.uleb128 0x7
 746 01f0 1C080000 		.4byte	.LASF39
 747 01f4 09       		.byte	0x9
 748 01f5 E6       		.byte	0xe6
 749 01f6 19       		.byte	0x19
 750 01f7 EF000000 		.4byte	0xef
 751 01fb 22       		.byte	0x22
 752 01fc 07       		.uleb128 0x7
 753 01fd 81060000 		.4byte	.LASF40
 754 0201 09       		.byte	0x9
 755 0202 EC       		.byte	0xec
 756 0203 19       		.byte	0x19
 757 0204 FB000000 		.4byte	0xfb
 758 0208 23       		.byte	0x23
 759 0209 07       		.uleb128 0x7
 760 020a A8020000 		.4byte	.LASF41
 761 020e 09       		.byte	0x9
 762 020f F3       		.byte	0xf3
 763 0210 19       		.byte	0x19
 764 0211 4F010000 		.4byte	0x14f
 765 0215 24       		.byte	0x24
 766 0216 08       		.uleb128 0x8
 767 0217 705F7500 		.ascii	"p_u\000"
 768 021b 09       		.byte	0x9
 769 021c 3101     		.2byte	0x131
 770 021e 19       		.byte	0x19
 771 021f 26080000 		.4byte	0x826
 772 0223 28       		.byte	0x28
 773 0224 09       		.uleb128 0x9
 774 0225 E6030000 		.4byte	.LASF42
 775 0229 09       		.byte	0x9
 776 022a 3601     		.2byte	0x136
 777 022c 19       		.byte	0x19
 778 022d A7020000 		.4byte	0x2a7
 779 0231 2C       		.byte	0x2c
 780 0232 09       		.uleb128 0x9
 781 0233 BF020000 		.4byte	.LASF43
 782 0237 09       		.byte	0x9
 783 0238 3C01     		.2byte	0x13c
 784 023a 19       		.byte	0x19
 785 023b CE020000 		.4byte	0x2ce
 786 023f 30       		.byte	0x30
 787 0240 09       		.uleb128 0x9
 788 0241 FB070000 		.4byte	.LASF44
 789 0245 09       		.byte	0x9
 790 0246 4001     		.2byte	0x140
 791 0248 19       		.byte	0x19
 792 0249 13010000 		.4byte	0x113
 793 024d 38       		.byte	0x38
ARM GAS  /tmp/cc8LVlpv.s 			page 15


 794 024e 09       		.uleb128 0x9
 795 024f 33070000 		.4byte	.LASF45
 796 0253 09       		.byte	0x9
 797 0254 4601     		.2byte	0x146
 798 0256 19       		.byte	0x19
 799 0257 1F010000 		.4byte	0x11f
 800 025b 3C       		.byte	0x3c
 801 025c 09       		.uleb128 0x9
 802 025d 65060000 		.4byte	.LASF46
 803 0261 09       		.byte	0x9
 804 0262 4D01     		.2byte	0x14d
 805 0264 1A       		.byte	0x1a
 806 0265 01090000 		.4byte	0x901
 807 0269 40       		.byte	0x40
 808 026a 09       		.uleb128 0x9
 809 026b C0070000 		.4byte	.LASF47
 810 026f 09       		.byte	0x9
 811 0270 5101     		.2byte	0x151
 812 0272 19       		.byte	0x19
 813 0273 07010000 		.4byte	0x107
 814 0277 44       		.byte	0x44
 815 0278 09       		.uleb128 0x9
 816 0279 93010000 		.4byte	.LASF48
 817 027d 09       		.byte	0x9
 818 027e 5801     		.2byte	0x158
 819 0280 1A       		.byte	0x1a
 820 0281 8E030000 		.4byte	0x38e
 821 0285 48       		.byte	0x48
 822 0286 09       		.uleb128 0x9
 823 0287 C8060000 		.4byte	.LASF49
 824 028b 09       		.byte	0x9
 825 028c 5E01     		.2byte	0x15e
 826 028e 19       		.byte	0x19
 827 028f D0070000 		.4byte	0x7d0
 828 0293 50       		.byte	0x50
 829 0294 00       		.byte	0
 830 0295 03       		.uleb128 0x3
 831 0296 54080000 		.4byte	.LASF50
 832 029a 08       		.byte	0x8
 833 029b 44       		.byte	0x44
 834 029c 14       		.byte	0x14
 835 029d A1020000 		.4byte	0x2a1
 836 02a1 0A       		.uleb128 0xa
 837 02a2 04       		.byte	0x4
 838 02a3 54010000 		.4byte	0x154
 839 02a7 03       		.uleb128 0x3
 840 02a8 C3030000 		.4byte	.LASF51
 841 02ac 08       		.byte	0x8
 842 02ad 49       		.byte	0x49
 843 02ae 20       		.byte	0x20
 844 02af B3020000 		.4byte	0x2b3
 845 02b3 06       		.uleb128 0x6
 846 02b4 5B070000 		.4byte	.LASF53
 847 02b8 04       		.byte	0x4
 848 02b9 09       		.byte	0x9
 849 02ba B0       		.byte	0xb0
 850 02bb 08       		.byte	0x8
ARM GAS  /tmp/cc8LVlpv.s 			page 16


 851 02bc CE020000 		.4byte	0x2ce
 852 02c0 07       		.uleb128 0x7
 853 02c1 99060000 		.4byte	.LASF29
 854 02c5 09       		.byte	0x9
 855 02c6 B1       		.byte	0xb1
 856 02c7 1A       		.byte	0x1a
 857 02c8 A1020000 		.4byte	0x2a1
 858 02cc 00       		.byte	0
 859 02cd 00       		.byte	0
 860 02ce 03       		.uleb128 0x3
 861 02cf E7060000 		.4byte	.LASF54
 862 02d3 08       		.byte	0x8
 863 02d4 50       		.byte	0x50
 864 02d5 21       		.byte	0x21
 865 02d6 DA020000 		.4byte	0x2da
 866 02da 06       		.uleb128 0x6
 867 02db 75000000 		.4byte	.LASF55
 868 02df 08       		.byte	0x8
 869 02e0 09       		.byte	0x9
 870 02e1 B7       		.byte	0xb7
 871 02e2 08       		.byte	0x8
 872 02e3 02030000 		.4byte	0x302
 873 02e7 07       		.uleb128 0x7
 874 02e8 99060000 		.4byte	.LASF29
 875 02ec 09       		.byte	0x9
 876 02ed B8       		.byte	0xb8
 877 02ee 1A       		.byte	0x1a
 878 02ef A1020000 		.4byte	0x2a1
 879 02f3 00       		.byte	0
 880 02f4 07       		.uleb128 0x7
 881 02f5 37060000 		.4byte	.LASF30
 882 02f9 09       		.byte	0x9
 883 02fa B9       		.byte	0xb9
 884 02fb 1A       		.byte	0x1a
 885 02fc A1020000 		.4byte	0x2a1
 886 0300 04       		.byte	0x4
 887 0301 00       		.byte	0
 888 0302 03       		.uleb128 0x3
 889 0303 0D000000 		.4byte	.LASF56
 890 0307 08       		.byte	0x8
 891 0308 57       		.byte	0x57
 892 0309 1E       		.byte	0x1e
 893 030a 0E030000 		.4byte	0x30e
 894 030e 0B       		.uleb128 0xb
 895 030f 88030000 		.4byte	.LASF57
 896 0313 1C       		.byte	0x1c
 897 0314 09       		.byte	0x9
 898 0315 9001     		.2byte	0x190
 899 0317 08       		.byte	0x8
 900 0318 71030000 		.4byte	0x371
 901 031c 09       		.uleb128 0x9
 902 031d 53070000 		.4byte	.LASF58
 903 0321 09       		.byte	0x9
 904 0322 9101     		.2byte	0x191
 905 0324 19       		.byte	0x19
 906 0325 CE020000 		.4byte	0x2ce
 907 0329 00       		.byte	0
ARM GAS  /tmp/cc8LVlpv.s 			page 17


 908 032a 09       		.uleb128 0x9
 909 032b 8B060000 		.4byte	.LASF59
 910 032f 09       		.byte	0x9
 911 0330 9201     		.2byte	0x192
 912 0332 19       		.byte	0x19
 913 0333 07010000 		.4byte	0x107
 914 0337 08       		.byte	0x8
 915 0338 09       		.uleb128 0x9
 916 0339 7E040000 		.4byte	.LASF60
 917 033d 09       		.byte	0x9
 918 033e 9401     		.2byte	0x194
 919 0340 19       		.byte	0x19
 920 0341 4A050000 		.4byte	0x54a
 921 0345 0C       		.byte	0xc
 922 0346 09       		.uleb128 0x9
 923 0347 0A020000 		.4byte	.LASF61
 924 034b 09       		.byte	0x9
 925 034c 9701     		.2byte	0x197
 926 034e 1A       		.byte	0x1a
 927 034f A1020000 		.4byte	0x2a1
 928 0353 10       		.byte	0x10
 929 0354 09       		.uleb128 0x9
 930 0355 F7050000 		.4byte	.LASF62
 931 0359 09       		.byte	0x9
 932 035a 9801     		.2byte	0x198
 933 035c 1A       		.byte	0x1a
 934 035d A1020000 		.4byte	0x2a1
 935 0361 14       		.byte	0x14
 936 0362 09       		.uleb128 0x9
 937 0363 ED050000 		.4byte	.LASF63
 938 0367 09       		.byte	0x9
 939 0368 9B01     		.2byte	0x19b
 940 036a 1A       		.byte	0x1a
 941 036b A1020000 		.4byte	0x2a1
 942 036f 18       		.byte	0x18
 943 0370 00       		.byte	0
 944 0371 03       		.uleb128 0x3
 945 0372 CB070000 		.4byte	.LASF64
 946 0376 08       		.byte	0x8
 947 0377 5C       		.byte	0x5c
 948 0378 10       		.byte	0x10
 949 0379 7D030000 		.4byte	0x37d
 950 037d 0A       		.uleb128 0xa
 951 037e 04       		.byte	0x4
 952 037f 83030000 		.4byte	0x383
 953 0383 0C       		.uleb128 0xc
 954 0384 8E030000 		.4byte	0x38e
 955 0388 0D       		.uleb128 0xd
 956 0389 8E030000 		.4byte	0x38e
 957 038d 00       		.byte	0
 958 038e 0E       		.uleb128 0xe
 959 038f 04       		.byte	0x4
 960 0390 03       		.uleb128 0x3
 961 0391 27060000 		.4byte	.LASF65
 962 0395 08       		.byte	0x8
 963 0396 61       		.byte	0x61
 964 0397 21       		.byte	0x21
ARM GAS  /tmp/cc8LVlpv.s 			page 18


 965 0398 9C030000 		.4byte	0x39c
 966 039c 0B       		.uleb128 0xb
 967 039d F7060000 		.4byte	.LASF66
 968 03a1 14       		.byte	0x14
 969 03a2 09       		.byte	0x9
 970 03a3 6B01     		.2byte	0x16b
 971 03a5 08       		.byte	0x8
 972 03a6 F1030000 		.4byte	0x3f1
 973 03aa 09       		.uleb128 0x9
 974 03ab 87020000 		.4byte	.LASF67
 975 03af 09       		.byte	0x9
 976 03b0 6C01     		.2byte	0x16c
 977 03b2 1A       		.byte	0x1a
 978 03b3 24090000 		.4byte	0x924
 979 03b7 00       		.byte	0
 980 03b8 09       		.uleb128 0x9
 981 03b9 1B020000 		.4byte	.LASF68
 982 03bd 09       		.byte	0x9
 983 03be 6D01     		.2byte	0x16d
 984 03c0 1A       		.byte	0x1a
 985 03c1 24090000 		.4byte	0x924
 986 03c5 04       		.byte	0x4
 987 03c6 09       		.uleb128 0x9
 988 03c7 B6020000 		.4byte	.LASF69
 989 03cb 09       		.byte	0x9
 990 03cc 6E01     		.2byte	0x16e
 991 03ce 19       		.byte	0x19
 992 03cf 43010000 		.4byte	0x143
 993 03d3 08       		.byte	0x8
 994 03d4 09       		.uleb128 0x9
 995 03d5 CF080000 		.4byte	.LASF70
 996 03d9 09       		.byte	0x9
 997 03da 6F01     		.2byte	0x16f
 998 03dc 19       		.byte	0x19
 999 03dd 71030000 		.4byte	0x371
 1000 03e1 0C       		.byte	0xc
 1001 03e2 09       		.uleb128 0x9
 1002 03e3 01080000 		.4byte	.LASF71
 1003 03e7 09       		.byte	0x9
 1004 03e8 7101     		.2byte	0x171
 1005 03ea 1A       		.byte	0x1a
 1006 03eb 8E030000 		.4byte	0x38e
 1007 03ef 10       		.byte	0x10
 1008 03f0 00       		.byte	0
 1009 03f1 03       		.uleb128 0x3
 1010 03f2 A2030000 		.4byte	.LASF72
 1011 03f6 08       		.byte	0x8
 1012 03f7 66       		.byte	0x66
 1013 03f8 28       		.byte	0x28
 1014 03f9 FD030000 		.4byte	0x3fd
 1015 03fd 0B       		.uleb128 0xb
 1016 03fe 25040000 		.4byte	.LASF73
 1017 0402 10       		.byte	0x10
 1018 0403 09       		.byte	0x9
 1019 0404 7B01     		.2byte	0x17b
 1020 0406 08       		.byte	0x8
 1021 0407 44040000 		.4byte	0x444
ARM GAS  /tmp/cc8LVlpv.s 			page 19


 1022 040b 09       		.uleb128 0x9
 1023 040c 87020000 		.4byte	.LASF67
 1024 0410 09       		.byte	0x9
 1025 0411 7C01     		.2byte	0x17c
 1026 0413 1A       		.byte	0x1a
 1027 0414 24090000 		.4byte	0x924
 1028 0418 00       		.byte	0
 1029 0419 09       		.uleb128 0x9
 1030 041a 1B020000 		.4byte	.LASF68
 1031 041e 09       		.byte	0x9
 1032 041f 7E01     		.2byte	0x17e
 1033 0421 1A       		.byte	0x1a
 1034 0422 24090000 		.4byte	0x924
 1035 0426 04       		.byte	0x4
 1036 0427 09       		.uleb128 0x9
 1037 0428 B6020000 		.4byte	.LASF69
 1038 042c 09       		.byte	0x9
 1039 042d 8001     		.2byte	0x180
 1040 042f 19       		.byte	0x19
 1041 0430 43010000 		.4byte	0x143
 1042 0434 08       		.byte	0x8
 1043 0435 09       		.uleb128 0x9
 1044 0436 75080000 		.4byte	.LASF74
 1045 043a 09       		.byte	0x9
 1046 043b 8201     		.2byte	0x182
 1047 043d 19       		.byte	0x19
 1048 043e 4F010000 		.4byte	0x14f
 1049 0442 0C       		.byte	0xc
 1050 0443 00       		.byte	0
 1051 0444 03       		.uleb128 0x3
 1052 0445 86000000 		.4byte	.LASF75
 1053 0449 08       		.byte	0x8
 1054 044a 6B       		.byte	0x6b
 1055 044b 20       		.byte	0x20
 1056 044c 50040000 		.4byte	0x450
 1057 0450 0F       		.uleb128 0xf
 1058 0451 2D020000 		.4byte	.LASF76
 1059 0455 1404     		.2byte	0x414
 1060 0457 09       		.byte	0x9
 1061 0458 A201     		.2byte	0x1a2
 1062 045a 08       		.byte	0x8
 1063 045b 98040000 		.4byte	0x498
 1064 045f 09       		.uleb128 0x9
 1065 0460 E2070000 		.4byte	.LASF77
 1066 0464 09       		.byte	0x9
 1067 0465 AA01     		.2byte	0x1aa
 1068 0467 24       		.byte	0x24
 1069 0468 0D090000 		.4byte	0x90d
 1070 046c 00       		.byte	0
 1071 046d 09       		.uleb128 0x9
 1072 046e 23080000 		.4byte	.LASF78
 1073 0472 09       		.byte	0x9
 1074 0473 AF01     		.2byte	0x1af
 1075 0475 19       		.byte	0x19
 1076 0476 2B010000 		.4byte	0x12b
 1077 047a 04       		.byte	0x4
 1078 047b 09       		.uleb128 0x9
ARM GAS  /tmp/cc8LVlpv.s 			page 20


 1079 047c 51020000 		.4byte	.LASF79
 1080 0480 09       		.byte	0x9
 1081 0481 B301     		.2byte	0x1b3
 1082 0483 19       		.byte	0x19
 1083 0484 2B010000 		.4byte	0x12b
 1084 0488 08       		.byte	0x8
 1085 0489 09       		.uleb128 0x9
 1086 048a 80080000 		.4byte	.LASF80
 1087 048e 09       		.byte	0x9
 1088 048f B901     		.2byte	0x1b9
 1089 0491 19       		.byte	0x19
 1090 0492 58070000 		.4byte	0x758
 1091 0496 0C       		.byte	0xc
 1092 0497 00       		.byte	0
 1093 0498 03       		.uleb128 0x3
 1094 0499 65030000 		.4byte	.LASF81
 1095 049d 08       		.byte	0x8
 1096 049e 70       		.byte	0x70
 1097 049f 1A       		.byte	0x1a
 1098 04a0 A4040000 		.4byte	0x4a4
 1099 04a4 0F       		.uleb128 0xf
 1100 04a5 C6010000 		.4byte	.LASF82
 1101 04a9 7006     		.2byte	0x670
 1102 04ab 09       		.byte	0x9
 1103 04ac C201     		.2byte	0x1c2
 1104 04ae 08       		.byte	0x8
 1105 04af 19050000 		.4byte	0x519
 1106 04b3 09       		.uleb128 0x9
 1107 04b4 34080000 		.4byte	.LASF83
 1108 04b8 09       		.byte	0x9
 1109 04b9 C601     		.2byte	0x1c6
 1110 04bb 19       		.byte	0x19
 1111 04bc 02030000 		.4byte	0x302
 1112 04c0 00       		.byte	0
 1113 04c1 09       		.uleb128 0x9
 1114 04c2 A3010000 		.4byte	.LASF84
 1115 04c6 09       		.byte	0x9
 1116 04c7 CA01     		.2byte	0x1ca
 1117 04c9 19       		.byte	0x19
 1118 04ca F1030000 		.4byte	0x3f1
 1119 04ce 1C       		.byte	0x1c
 1120 04cf 08       		.uleb128 0x8
 1121 04d0 64626700 		.ascii	"dbg\000"
 1122 04d4 09       		.byte	0x9
 1123 04d5 CE01     		.2byte	0x1ce
 1124 04d7 19       		.byte	0x19
 1125 04d8 44040000 		.4byte	0x444
 1126 04dc 2C       		.byte	0x2c
 1127 04dd 10       		.uleb128 0x10
 1128 04de F8000000 		.4byte	.LASF85
 1129 04e2 09       		.byte	0x9
 1130 04e3 D201     		.2byte	0x1d2
 1131 04e5 19       		.byte	0x19
 1132 04e6 54010000 		.4byte	0x154
 1133 04ea 4004     		.2byte	0x440
 1134 04ec 11       		.uleb128 0x11
 1135 04ed 746D00   		.ascii	"tm\000"
ARM GAS  /tmp/cc8LVlpv.s 			page 21


 1136 04f0 09       		.byte	0x9
 1137 04f1 D701     		.2byte	0x1d7
 1138 04f3 19       		.byte	0x19
 1139 04f4 7B070000 		.4byte	0x77b
 1140 04f8 A804     		.2byte	0x4a8
 1141 04fa 10       		.uleb128 0x10
 1142 04fb 39000000 		.4byte	.LASF86
 1143 04ff 09       		.byte	0x9
 1144 0500 DD01     		.2byte	0x1dd
 1145 0502 19       		.byte	0x19
 1146 0503 1A080000 		.4byte	0x81a
 1147 0507 B004     		.2byte	0x4b0
 1148 0509 10       		.uleb128 0x10
 1149 050a 5A020000 		.4byte	.LASF87
 1150 050e 09       		.byte	0x9
 1151 050f E301     		.2byte	0x1e3
 1152 0511 03       		.byte	0x3
 1153 0512 2A090000 		.4byte	0x92a
 1154 0516 E804     		.2byte	0x4e8
 1155 0518 00       		.byte	0
 1156 0519 12       		.uleb128 0x12
 1157 051a 32010000 		.4byte	.LASF88
 1158 051e 0A       		.byte	0xa
 1159 051f A706     		.2byte	0x6a7
 1160 0521 19       		.byte	0x19
 1161 0522 67000000 		.4byte	0x67
 1162 0526 13       		.uleb128 0x13
 1163 0527 98020000 		.4byte	.LASF89
 1164 052b 0B       		.byte	0xb
 1165 052c 4C       		.byte	0x4c
 1166 052d 11       		.byte	0x11
 1167 052e 99000000 		.4byte	0x99
 1168 0532 03       		.uleb128 0x3
 1169 0533 12020000 		.4byte	.LASF90
 1170 0537 0C       		.byte	0xc
 1171 0538 65       		.byte	0x65
 1172 0539 0F       		.byte	0xf
 1173 053a 8E030000 		.4byte	0x38e
 1174 053e 03       		.uleb128 0x3
 1175 053f B8030000 		.4byte	.LASF91
 1176 0543 0C       		.byte	0xc
 1177 0544 6D       		.byte	0x6d
 1178 0545 12       		.byte	0x12
 1179 0546 AC000000 		.4byte	0xac
 1180 054a 06       		.uleb128 0x6
 1181 054b F3070000 		.4byte	.LASF92
 1182 054f 04       		.byte	0x4
 1183 0550 0C       		.byte	0xc
 1184 0551 89       		.byte	0x89
 1185 0552 08       		.byte	0x8
 1186 0553 65050000 		.4byte	0x565
 1187 0557 14       		.uleb128 0x14
 1188 0558 72313300 		.ascii	"r13\000"
 1189 055c 0C       		.byte	0xc
 1190 055d 8A       		.byte	0x8a
 1191 055e 17       		.byte	0x17
 1192 055f C0060000 		.4byte	0x6c0
ARM GAS  /tmp/cc8LVlpv.s 			page 22


 1193 0563 00       		.byte	0
 1194 0564 00       		.byte	0
 1195 0565 06       		.uleb128 0x6
 1196 0566 69000000 		.4byte	.LASF93
 1197 056a 64       		.byte	0x64
 1198 056b 03       		.byte	0x3
 1199 056c F4       		.byte	0xf4
 1200 056d 08       		.byte	0x8
 1201 056e C0060000 		.4byte	0x6c0
 1202 0572 14       		.uleb128 0x14
 1203 0573 73313600 		.ascii	"s16\000"
 1204 0577 03       		.byte	0x3
 1205 0578 F6       		.byte	0xf6
 1206 0579 11       		.byte	0x11
 1207 057a 32050000 		.4byte	0x532
 1208 057e 00       		.byte	0
 1209 057f 14       		.uleb128 0x14
 1210 0580 73313700 		.ascii	"s17\000"
 1211 0584 03       		.byte	0x3
 1212 0585 F7       		.byte	0xf7
 1213 0586 11       		.byte	0x11
 1214 0587 32050000 		.4byte	0x532
 1215 058b 04       		.byte	0x4
 1216 058c 14       		.uleb128 0x14
 1217 058d 73313800 		.ascii	"s18\000"
 1218 0591 03       		.byte	0x3
 1219 0592 F8       		.byte	0xf8
 1220 0593 11       		.byte	0x11
 1221 0594 32050000 		.4byte	0x532
 1222 0598 08       		.byte	0x8
 1223 0599 14       		.uleb128 0x14
 1224 059a 73313900 		.ascii	"s19\000"
 1225 059e 03       		.byte	0x3
 1226 059f F9       		.byte	0xf9
 1227 05a0 11       		.byte	0x11
 1228 05a1 32050000 		.4byte	0x532
 1229 05a5 0C       		.byte	0xc
 1230 05a6 14       		.uleb128 0x14
 1231 05a7 73323000 		.ascii	"s20\000"
 1232 05ab 03       		.byte	0x3
 1233 05ac FA       		.byte	0xfa
 1234 05ad 11       		.byte	0x11
 1235 05ae 32050000 		.4byte	0x532
 1236 05b2 10       		.byte	0x10
 1237 05b3 14       		.uleb128 0x14
 1238 05b4 73323100 		.ascii	"s21\000"
 1239 05b8 03       		.byte	0x3
 1240 05b9 FB       		.byte	0xfb
 1241 05ba 11       		.byte	0x11
 1242 05bb 32050000 		.4byte	0x532
 1243 05bf 14       		.byte	0x14
 1244 05c0 14       		.uleb128 0x14
 1245 05c1 73323200 		.ascii	"s22\000"
 1246 05c5 03       		.byte	0x3
 1247 05c6 FC       		.byte	0xfc
 1248 05c7 11       		.byte	0x11
 1249 05c8 32050000 		.4byte	0x532
ARM GAS  /tmp/cc8LVlpv.s 			page 23


 1250 05cc 18       		.byte	0x18
 1251 05cd 14       		.uleb128 0x14
 1252 05ce 73323300 		.ascii	"s23\000"
 1253 05d2 03       		.byte	0x3
 1254 05d3 FD       		.byte	0xfd
 1255 05d4 11       		.byte	0x11
 1256 05d5 32050000 		.4byte	0x532
 1257 05d9 1C       		.byte	0x1c
 1258 05da 14       		.uleb128 0x14
 1259 05db 73323400 		.ascii	"s24\000"
 1260 05df 03       		.byte	0x3
 1261 05e0 FE       		.byte	0xfe
 1262 05e1 11       		.byte	0x11
 1263 05e2 32050000 		.4byte	0x532
 1264 05e6 20       		.byte	0x20
 1265 05e7 14       		.uleb128 0x14
 1266 05e8 73323500 		.ascii	"s25\000"
 1267 05ec 03       		.byte	0x3
 1268 05ed FF       		.byte	0xff
 1269 05ee 11       		.byte	0x11
 1270 05ef 32050000 		.4byte	0x532
 1271 05f3 24       		.byte	0x24
 1272 05f4 08       		.uleb128 0x8
 1273 05f5 73323600 		.ascii	"s26\000"
 1274 05f9 03       		.byte	0x3
 1275 05fa 0001     		.2byte	0x100
 1276 05fc 11       		.byte	0x11
 1277 05fd 32050000 		.4byte	0x532
 1278 0601 28       		.byte	0x28
 1279 0602 08       		.uleb128 0x8
 1280 0603 73323700 		.ascii	"s27\000"
 1281 0607 03       		.byte	0x3
 1282 0608 0101     		.2byte	0x101
 1283 060a 11       		.byte	0x11
 1284 060b 32050000 		.4byte	0x532
 1285 060f 2C       		.byte	0x2c
 1286 0610 08       		.uleb128 0x8
 1287 0611 73323800 		.ascii	"s28\000"
 1288 0615 03       		.byte	0x3
 1289 0616 0201     		.2byte	0x102
 1290 0618 11       		.byte	0x11
 1291 0619 32050000 		.4byte	0x532
 1292 061d 30       		.byte	0x30
 1293 061e 08       		.uleb128 0x8
 1294 061f 73323900 		.ascii	"s29\000"
 1295 0623 03       		.byte	0x3
 1296 0624 0301     		.2byte	0x103
 1297 0626 11       		.byte	0x11
 1298 0627 32050000 		.4byte	0x532
 1299 062b 34       		.byte	0x34
 1300 062c 08       		.uleb128 0x8
 1301 062d 73333000 		.ascii	"s30\000"
 1302 0631 03       		.byte	0x3
 1303 0632 0401     		.2byte	0x104
 1304 0634 11       		.byte	0x11
 1305 0635 32050000 		.4byte	0x532
 1306 0639 38       		.byte	0x38
ARM GAS  /tmp/cc8LVlpv.s 			page 24


 1307 063a 08       		.uleb128 0x8
 1308 063b 73333100 		.ascii	"s31\000"
 1309 063f 03       		.byte	0x3
 1310 0640 0501     		.2byte	0x105
 1311 0642 11       		.byte	0x11
 1312 0643 32050000 		.4byte	0x532
 1313 0647 3C       		.byte	0x3c
 1314 0648 08       		.uleb128 0x8
 1315 0649 723400   		.ascii	"r4\000"
 1316 064c 03       		.byte	0x3
 1317 064d 0701     		.2byte	0x107
 1318 064f 11       		.byte	0x11
 1319 0650 32050000 		.4byte	0x532
 1320 0654 40       		.byte	0x40
 1321 0655 08       		.uleb128 0x8
 1322 0656 723500   		.ascii	"r5\000"
 1323 0659 03       		.byte	0x3
 1324 065a 0801     		.2byte	0x108
 1325 065c 11       		.byte	0x11
 1326 065d 32050000 		.4byte	0x532
 1327 0661 44       		.byte	0x44
 1328 0662 08       		.uleb128 0x8
 1329 0663 723600   		.ascii	"r6\000"
 1330 0666 03       		.byte	0x3
 1331 0667 0901     		.2byte	0x109
 1332 0669 11       		.byte	0x11
 1333 066a 32050000 		.4byte	0x532
 1334 066e 48       		.byte	0x48
 1335 066f 08       		.uleb128 0x8
 1336 0670 723700   		.ascii	"r7\000"
 1337 0673 03       		.byte	0x3
 1338 0674 0A01     		.2byte	0x10a
 1339 0676 11       		.byte	0x11
 1340 0677 32050000 		.4byte	0x532
 1341 067b 4C       		.byte	0x4c
 1342 067c 08       		.uleb128 0x8
 1343 067d 723800   		.ascii	"r8\000"
 1344 0680 03       		.byte	0x3
 1345 0681 0B01     		.2byte	0x10b
 1346 0683 11       		.byte	0x11
 1347 0684 32050000 		.4byte	0x532
 1348 0688 50       		.byte	0x50
 1349 0689 08       		.uleb128 0x8
 1350 068a 723900   		.ascii	"r9\000"
 1351 068d 03       		.byte	0x3
 1352 068e 0C01     		.2byte	0x10c
 1353 0690 11       		.byte	0x11
 1354 0691 32050000 		.4byte	0x532
 1355 0695 54       		.byte	0x54
 1356 0696 08       		.uleb128 0x8
 1357 0697 72313000 		.ascii	"r10\000"
 1358 069b 03       		.byte	0x3
 1359 069c 0D01     		.2byte	0x10d
 1360 069e 11       		.byte	0x11
 1361 069f 32050000 		.4byte	0x532
 1362 06a3 58       		.byte	0x58
 1363 06a4 08       		.uleb128 0x8
ARM GAS  /tmp/cc8LVlpv.s 			page 25


 1364 06a5 72313100 		.ascii	"r11\000"
 1365 06a9 03       		.byte	0x3
 1366 06aa 0E01     		.2byte	0x10e
 1367 06ac 11       		.byte	0x11
 1368 06ad 32050000 		.4byte	0x532
 1369 06b1 5C       		.byte	0x5c
 1370 06b2 08       		.uleb128 0x8
 1371 06b3 6C7200   		.ascii	"lr\000"
 1372 06b6 03       		.byte	0x3
 1373 06b7 0F01     		.2byte	0x10f
 1374 06b9 11       		.byte	0x11
 1375 06ba 32050000 		.4byte	0x532
 1376 06be 60       		.byte	0x60
 1377 06bf 00       		.byte	0
 1378 06c0 0A       		.uleb128 0xa
 1379 06c1 04       		.byte	0x4
 1380 06c2 65050000 		.4byte	0x565
 1381 06c6 15       		.uleb128 0x15
 1382 06c7 10       		.byte	0x10
 1383 06c8 0D       		.byte	0xd
 1384 06c9 51       		.byte	0x51
 1385 06ca 09       		.byte	0x9
 1386 06cb 04070000 		.4byte	0x704
 1387 06cf 07       		.uleb128 0x7
 1388 06d0 1A000000 		.4byte	.LASF94
 1389 06d4 0D       		.byte	0xd
 1390 06d5 55       		.byte	0x55
 1391 06d6 19       		.byte	0x19
 1392 06d7 43010000 		.4byte	0x143
 1393 06db 00       		.byte	0
 1394 06dc 07       		.uleb128 0x7
 1395 06dd E2010000 		.4byte	.LASF95
 1396 06e1 0D       		.byte	0xd
 1397 06e2 59       		.byte	0x59
 1398 06e3 1A       		.byte	0x1a
 1399 06e4 A1020000 		.4byte	0x2a1
 1400 06e8 04       		.byte	0x4
 1401 06e9 07       		.uleb128 0x7
 1402 06ea B7080000 		.4byte	.LASF96
 1403 06ee 0D       		.byte	0xd
 1404 06ef 5D       		.byte	0x5d
 1405 06f0 1A       		.byte	0x1a
 1406 06f1 8E030000 		.4byte	0x38e
 1407 06f5 08       		.byte	0x8
 1408 06f6 07       		.uleb128 0x7
 1409 06f7 2B080000 		.4byte	.LASF97
 1410 06fb 0D       		.byte	0xd
 1411 06fc 61       		.byte	0x61
 1412 06fd 19       		.byte	0x19
 1413 06fe 73000000 		.4byte	0x73
 1414 0702 0C       		.byte	0xc
 1415 0703 00       		.byte	0
 1416 0704 03       		.uleb128 0x3
 1417 0705 5B040000 		.4byte	.LASF98
 1418 0709 0D       		.byte	0xd
 1419 070a 62       		.byte	0x62
 1420 070b 03       		.byte	0x3
ARM GAS  /tmp/cc8LVlpv.s 			page 26


 1421 070c C6060000 		.4byte	0x6c6
 1422 0710 16       		.uleb128 0x16
 1423 0711 0804     		.2byte	0x408
 1424 0713 0D       		.byte	0xd
 1425 0714 67       		.byte	0x67
 1426 0715 09       		.byte	0x9
 1427 0716 42070000 		.4byte	0x742
 1428 071a 07       		.uleb128 0x7
 1429 071b 02020000 		.4byte	.LASF99
 1430 071f 0D       		.byte	0xd
 1431 0720 6B       		.byte	0x6b
 1432 0721 19       		.byte	0x19
 1433 0722 38000000 		.4byte	0x38
 1434 0726 00       		.byte	0
 1435 0727 07       		.uleb128 0x7
 1436 0728 54040000 		.4byte	.LASF100
 1437 072c 0D       		.byte	0xd
 1438 072d 6F       		.byte	0x6f
 1439 072e 1A       		.byte	0x1a
 1440 072f 42070000 		.4byte	0x742
 1441 0733 04       		.byte	0x4
 1442 0734 07       		.uleb128 0x7
 1443 0735 12060000 		.4byte	.LASF101
 1444 0739 0D       		.byte	0xd
 1445 073a 73       		.byte	0x73
 1446 073b 19       		.byte	0x19
 1447 073c 48070000 		.4byte	0x748
 1448 0740 08       		.byte	0x8
 1449 0741 00       		.byte	0
 1450 0742 0A       		.uleb128 0xa
 1451 0743 04       		.byte	0x4
 1452 0744 04070000 		.4byte	0x704
 1453 0748 17       		.uleb128 0x17
 1454 0749 04070000 		.4byte	0x704
 1455 074d 58070000 		.4byte	0x758
 1456 0751 18       		.uleb128 0x18
 1457 0752 38000000 		.4byte	0x38
 1458 0756 3F       		.byte	0x3f
 1459 0757 00       		.byte	0
 1460 0758 03       		.uleb128 0x3
 1461 0759 CF000000 		.4byte	.LASF102
 1462 075d 0D       		.byte	0xd
 1463 075e 74       		.byte	0x74
 1464 075f 03       		.byte	0x3
 1465 0760 10070000 		.4byte	0x710
 1466 0764 15       		.uleb128 0x15
 1467 0765 04       		.byte	0x4
 1468 0766 0E       		.byte	0xe
 1469 0767 38       		.byte	0x38
 1470 0768 09       		.byte	0x9
 1471 0769 7B070000 		.4byte	0x77b
 1472 076d 07       		.uleb128 0x7
 1473 076e EC070000 		.4byte	.LASF103
 1474 0772 0E       		.byte	0xe
 1475 0773 3C       		.byte	0x3c
 1476 0774 19       		.byte	0x19
 1477 0775 BF000000 		.4byte	0xbf
ARM GAS  /tmp/cc8LVlpv.s 			page 27


 1478 0779 00       		.byte	0
 1479 077a 00       		.byte	0
 1480 077b 03       		.uleb128 0x3
 1481 077c 8A040000 		.4byte	.LASF104
 1482 0780 0E       		.byte	0xe
 1483 0781 3D       		.byte	0x3d
 1484 0782 03       		.byte	0x3
 1485 0783 64070000 		.4byte	0x764
 1486 0787 15       		.uleb128 0x15
 1487 0788 18       		.byte	0x18
 1488 0789 0E       		.byte	0xe
 1489 078a 48       		.byte	0x48
 1490 078b 09       		.byte	0x9
 1491 078c D0070000 		.4byte	0x7d0
 1492 0790 07       		.uleb128 0x7
 1493 0791 AA070000 		.4byte	.LASF105
 1494 0795 0E       		.byte	0xe
 1495 0796 49       		.byte	0x49
 1496 0797 19       		.byte	0x19
 1497 0798 BF000000 		.4byte	0xbf
 1498 079c 00       		.byte	0
 1499 079d 07       		.uleb128 0x7
 1500 079e 9F000000 		.4byte	.LASF106
 1501 07a2 0E       		.byte	0xe
 1502 07a3 4A       		.byte	0x4a
 1503 07a4 19       		.byte	0x19
 1504 07a5 BF000000 		.4byte	0xbf
 1505 07a9 04       		.byte	0x4
 1506 07aa 07       		.uleb128 0x7
 1507 07ab 59030000 		.4byte	.LASF107
 1508 07af 0E       		.byte	0xe
 1509 07b0 4B       		.byte	0x4b
 1510 07b1 19       		.byte	0x19
 1511 07b2 BF000000 		.4byte	0xbf
 1512 07b6 08       		.byte	0x8
 1513 07b7 14       		.uleb128 0x14
 1514 07b8 6E00     		.ascii	"n\000"
 1515 07ba 0E       		.byte	0xe
 1516 07bb 4C       		.byte	0x4c
 1517 07bc 19       		.byte	0x19
 1518 07bd 37010000 		.4byte	0x137
 1519 07c1 0C       		.byte	0xc
 1520 07c2 07       		.uleb128 0x7
 1521 07c3 FF050000 		.4byte	.LASF108
 1522 07c7 0E       		.byte	0xe
 1523 07c8 4D       		.byte	0x4d
 1524 07c9 19       		.byte	0x19
 1525 07ca CB000000 		.4byte	0xcb
 1526 07ce 10       		.byte	0x10
 1527 07cf 00       		.byte	0
 1528 07d0 03       		.uleb128 0x3
 1529 07d1 A5000000 		.4byte	.LASF109
 1530 07d5 0E       		.byte	0xe
 1531 07d6 4E       		.byte	0x4e
 1532 07d7 03       		.byte	0x3
 1533 07d8 87070000 		.4byte	0x787
 1534 07dc 15       		.uleb128 0x15
ARM GAS  /tmp/cc8LVlpv.s 			page 28


 1535 07dd 38       		.byte	0x38
 1536 07de 0F       		.byte	0xf
 1537 07df 38       		.byte	0x38
 1538 07e0 09       		.byte	0x9
 1539 07e1 1A080000 		.4byte	0x81a
 1540 07e5 07       		.uleb128 0x7
 1541 07e6 D3020000 		.4byte	.LASF110
 1542 07ea 0F       		.byte	0xf
 1543 07eb 39       		.byte	0x39
 1544 07ec 19       		.byte	0x19
 1545 07ed 37010000 		.4byte	0x137
 1546 07f1 00       		.byte	0
 1547 07f2 07       		.uleb128 0x7
 1548 07f3 46060000 		.4byte	.LASF111
 1549 07f7 0F       		.byte	0xf
 1550 07f8 3A       		.byte	0x3a
 1551 07f9 19       		.byte	0x19
 1552 07fa 37010000 		.4byte	0x137
 1553 07fe 04       		.byte	0x4
 1554 07ff 07       		.uleb128 0x7
 1555 0800 A4080000 		.4byte	.LASF112
 1556 0804 0F       		.byte	0xf
 1557 0805 3B       		.byte	0x3b
 1558 0806 19       		.byte	0x19
 1559 0807 D0070000 		.4byte	0x7d0
 1560 080b 08       		.byte	0x8
 1561 080c 07       		.uleb128 0x7
 1562 080d 7D030000 		.4byte	.LASF113
 1563 0811 0F       		.byte	0xf
 1564 0812 3D       		.byte	0x3d
 1565 0813 19       		.byte	0x19
 1566 0814 D0070000 		.4byte	0x7d0
 1567 0818 20       		.byte	0x20
 1568 0819 00       		.byte	0
 1569 081a 03       		.uleb128 0x3
 1570 081b 3A030000 		.4byte	.LASF114
 1571 081f 0F       		.byte	0xf
 1572 0820 3F       		.byte	0x3f
 1573 0821 03       		.byte	0x3
 1574 0822 DC070000 		.4byte	0x7dc
 1575 0826 19       		.uleb128 0x19
 1576 0827 04       		.byte	0x4
 1577 0828 09       		.byte	0x9
 1578 0829 FA       		.byte	0xfa
 1579 082a 03       		.byte	0x3
 1580 082b 8B080000 		.4byte	0x88b
 1581 082f 1A       		.uleb128 0x1a
 1582 0830 29000000 		.4byte	.LASF115
 1583 0834 09       		.byte	0x9
 1584 0835 0101     		.2byte	0x101
 1585 0837 19       		.byte	0x19
 1586 0838 13010000 		.4byte	0x113
 1587 083c 1A       		.uleb128 0x1a
 1588 083d EF000000 		.4byte	.LASF116
 1589 0841 09       		.byte	0x9
 1590 0842 0801     		.2byte	0x108
 1591 0844 19       		.byte	0x19
ARM GAS  /tmp/cc8LVlpv.s 			page 29


 1592 0845 13010000 		.4byte	0x113
 1593 0849 1A       		.uleb128 0x1a
 1594 084a 67080000 		.4byte	.LASF117
 1595 084e 09       		.byte	0x9
 1596 084f 0F01     		.2byte	0x10f
 1597 0851 1A       		.byte	0x1a
 1598 0852 8E030000 		.4byte	0x38e
 1599 0856 1A       		.uleb128 0x1a
 1600 0857 C0010000 		.4byte	.LASF118
 1601 085b 09       		.byte	0x9
 1602 085c 1601     		.2byte	0x116
 1603 085e 1A       		.byte	0x1a
 1604 085f 8B080000 		.4byte	0x88b
 1605 0863 1A       		.uleb128 0x1a
 1606 0864 AF020000 		.4byte	.LASF119
 1607 0868 09       		.byte	0x9
 1608 0869 1E01     		.2byte	0x11e
 1609 086b 1A       		.byte	0x1a
 1610 086c B9080000 		.4byte	0x8b9
 1611 0870 1A       		.uleb128 0x1a
 1612 0871 9A070000 		.4byte	.LASF120
 1613 0875 09       		.byte	0x9
 1614 0876 2701     		.2byte	0x127
 1615 0878 1A       		.byte	0x1a
 1616 0879 01090000 		.4byte	0x901
 1617 087d 1A       		.uleb128 0x1a
 1618 087e 92060000 		.4byte	.LASF121
 1619 0882 09       		.byte	0x9
 1620 0883 2F01     		.2byte	0x12f
 1621 0885 19       		.byte	0x19
 1622 0886 1F010000 		.4byte	0x11f
 1623 088a 00       		.byte	0
 1624 088b 0A       		.uleb128 0xa
 1625 088c 04       		.byte	0x4
 1626 088d 95020000 		.4byte	0x295
 1627 0891 06       		.uleb128 0x6
 1628 0892 26070000 		.4byte	.LASF122
 1629 0896 0C       		.byte	0xc
 1630 0897 10       		.byte	0x10
 1631 0898 34       		.byte	0x34
 1632 0899 10       		.byte	0x10
 1633 089a B9080000 		.4byte	0x8b9
 1634 089e 07       		.uleb128 0x7
 1635 089f FA010000 		.4byte	.LASF123
 1636 08a3 10       		.byte	0x10
 1637 08a4 35       		.byte	0x35
 1638 08a5 19       		.byte	0x19
 1639 08a6 CE020000 		.4byte	0x2ce
 1640 08aa 00       		.byte	0
 1641 08ab 07       		.uleb128 0x7
 1642 08ac 21030000 		.4byte	.LASF124
 1643 08b0 10       		.byte	0x10
 1644 08b1 37       		.byte	0x37
 1645 08b2 19       		.byte	0x19
 1646 08b3 2B010000 		.4byte	0x12b
 1647 08b7 08       		.byte	0x8
 1648 08b8 00       		.byte	0
ARM GAS  /tmp/cc8LVlpv.s 			page 30


 1649 08b9 0A       		.uleb128 0xa
 1650 08ba 04       		.byte	0x4
 1651 08bb 91080000 		.4byte	0x891
 1652 08bf 06       		.uleb128 0x6
 1653 08c0 13080000 		.4byte	.LASF125
 1654 08c4 14       		.byte	0x14
 1655 08c5 11       		.byte	0x11
 1656 08c6 39       		.byte	0x39
 1657 08c7 08       		.byte	0x8
 1658 08c8 01090000 		.4byte	0x901
 1659 08cc 07       		.uleb128 0x7
 1660 08cd 9B010000 		.4byte	.LASF126
 1661 08d1 11       		.byte	0x11
 1662 08d2 3A       		.byte	0x3a
 1663 08d3 19       		.byte	0x19
 1664 08d4 CE020000 		.4byte	0x2ce
 1665 08d8 00       		.byte	0
 1666 08d9 07       		.uleb128 0x7
 1667 08da AF080000 		.4byte	.LASF127
 1668 08de 11       		.byte	0x11
 1669 08df 3C       		.byte	0x3c
 1670 08e0 1A       		.byte	0x1a
 1671 08e1 A1020000 		.4byte	0x2a1
 1672 08e5 08       		.byte	0x8
 1673 08e6 07       		.uleb128 0x7
 1674 08e7 AF070000 		.4byte	.LASF128
 1675 08eb 11       		.byte	0x11
 1676 08ec 3E       		.byte	0x3e
 1677 08ed 1A       		.byte	0x1a
 1678 08ee 730A0000 		.4byte	0xa73
 1679 08f2 0C       		.byte	0xc
 1680 08f3 07       		.uleb128 0x7
 1681 08f4 3D020000 		.4byte	.LASF129
 1682 08f8 11       		.byte	0x11
 1683 08f9 41       		.byte	0x41
 1684 08fa 19       		.byte	0x19
 1685 08fb 2B010000 		.4byte	0x12b
 1686 08ff 10       		.byte	0x10
 1687 0900 00       		.byte	0
 1688 0901 0A       		.uleb128 0xa
 1689 0902 04       		.byte	0x4
 1690 0903 BF080000 		.4byte	0x8bf
 1691 0907 0A       		.uleb128 0xa
 1692 0908 04       		.byte	0x4
 1693 0909 19090000 		.4byte	0x919
 1694 090d 05       		.uleb128 0x5
 1695 090e 07090000 		.4byte	0x907
 1696 0912 04       		.uleb128 0x4
 1697 0913 01       		.byte	0x1
 1698 0914 08       		.byte	0x8
 1699 0915 85070000 		.4byte	.LASF130
 1700 0919 1B       		.uleb128 0x1b
 1701 091a 12090000 		.4byte	0x912
 1702 091e 0A       		.uleb128 0xa
 1703 091f 04       		.byte	0x4
 1704 0920 3E050000 		.4byte	0x53e
 1705 0924 0A       		.uleb128 0xa
ARM GAS  /tmp/cc8LVlpv.s 			page 31


 1706 0925 04       		.byte	0x4
 1707 0926 90030000 		.4byte	0x390
 1708 092a 17       		.uleb128 0x17
 1709 092b 3E050000 		.4byte	0x53e
 1710 092f 3A090000 		.4byte	0x93a
 1711 0933 18       		.uleb128 0x18
 1712 0934 38000000 		.4byte	0x38
 1713 0938 30       		.byte	0x30
 1714 0939 00       		.byte	0
 1715 093a 1C       		.uleb128 0x1c
 1716 093b 636800   		.ascii	"ch\000"
 1717 093e 09       		.byte	0x9
 1718 093f 0902     		.2byte	0x209
 1719 0941 14       		.byte	0x14
 1720 0942 98040000 		.4byte	0x498
 1721 0946 15       		.uleb128 0x15
 1722 0947 16       		.byte	0x16
 1723 0948 12       		.byte	0x12
 1724 0949 34       		.byte	0x34
 1725 094a 09       		.byte	0x9
 1726 094b 3A0A0000 		.4byte	0xa3a
 1727 094f 07       		.uleb128 0x7
 1728 0950 C1080000 		.4byte	.LASF131
 1729 0954 12       		.byte	0x12
 1730 0955 35       		.byte	0x35
 1731 0956 0D       		.byte	0xd
 1732 0957 3A0A0000 		.4byte	0xa3a
 1733 095b 00       		.byte	0
 1734 095c 07       		.uleb128 0x7
 1735 095d D2030000 		.4byte	.LASF132
 1736 0961 12       		.byte	0x12
 1737 0962 36       		.byte	0x36
 1738 0963 0D       		.byte	0xd
 1739 0964 73000000 		.4byte	0x73
 1740 0968 04       		.byte	0x4
 1741 0969 07       		.uleb128 0x7
 1742 096a 6B070000 		.4byte	.LASF133
 1743 096e 12       		.byte	0x12
 1744 096f 37       		.byte	0x37
 1745 0970 0D       		.byte	0xd
 1746 0971 73000000 		.4byte	0x73
 1747 0975 05       		.byte	0x5
 1748 0976 07       		.uleb128 0x7
 1749 0977 99080000 		.4byte	.LASF134
 1750 097b 12       		.byte	0x12
 1751 097c 38       		.byte	0x38
 1752 097d 0D       		.byte	0xd
 1753 097e 86000000 		.4byte	0x86
 1754 0982 06       		.byte	0x6
 1755 0983 07       		.uleb128 0x7
 1756 0984 1C060000 		.4byte	.LASF135
 1757 0988 12       		.byte	0x12
 1758 0989 39       		.byte	0x39
 1759 098a 0D       		.byte	0xd
 1760 098b 73000000 		.4byte	0x73
 1761 098f 08       		.byte	0x8
 1762 0990 07       		.uleb128 0x7
ARM GAS  /tmp/cc8LVlpv.s 			page 32


 1763 0991 48040000 		.4byte	.LASF136
 1764 0995 12       		.byte	0x12
 1765 0996 3A       		.byte	0x3a
 1766 0997 0D       		.byte	0xd
 1767 0998 73000000 		.4byte	0x73
 1768 099c 09       		.byte	0x9
 1769 099d 07       		.uleb128 0x7
 1770 099e E1000000 		.4byte	.LASF137
 1771 09a2 12       		.byte	0x12
 1772 09a3 3B       		.byte	0x3b
 1773 09a4 0D       		.byte	0xd
 1774 09a5 73000000 		.4byte	0x73
 1775 09a9 0A       		.byte	0xa
 1776 09aa 07       		.uleb128 0x7
 1777 09ab 47070000 		.4byte	.LASF138
 1778 09af 12       		.byte	0x12
 1779 09b0 3C       		.byte	0x3c
 1780 09b1 0D       		.byte	0xd
 1781 09b2 73000000 		.4byte	0x73
 1782 09b6 0B       		.byte	0xb
 1783 09b7 07       		.uleb128 0x7
 1784 09b8 08080000 		.4byte	.LASF139
 1785 09bc 12       		.byte	0x12
 1786 09bd 3D       		.byte	0x3d
 1787 09be 0D       		.byte	0xd
 1788 09bf 73000000 		.4byte	0x73
 1789 09c3 0C       		.byte	0xc
 1790 09c4 07       		.uleb128 0x7
 1791 09c5 08070000 		.4byte	.LASF140
 1792 09c9 12       		.byte	0x12
 1793 09ca 3E       		.byte	0x3e
 1794 09cb 0D       		.byte	0xd
 1795 09cc 73000000 		.4byte	0x73
 1796 09d0 0D       		.byte	0xd
 1797 09d1 07       		.uleb128 0x7
 1798 09d2 00000000 		.4byte	.LASF141
 1799 09d6 12       		.byte	0x12
 1800 09d7 3F       		.byte	0x3f
 1801 09d8 0D       		.byte	0xd
 1802 09d9 73000000 		.4byte	0x73
 1803 09dd 0E       		.byte	0xe
 1804 09de 07       		.uleb128 0x7
 1805 09df 6A040000 		.4byte	.LASF142
 1806 09e3 12       		.byte	0x12
 1807 09e4 40       		.byte	0x40
 1808 09e5 0D       		.byte	0xd
 1809 09e6 73000000 		.4byte	0x73
 1810 09ea 0F       		.byte	0xf
 1811 09eb 07       		.uleb128 0x7
 1812 09ec 76010000 		.4byte	.LASF143
 1813 09f0 12       		.byte	0x12
 1814 09f1 41       		.byte	0x41
 1815 09f2 0D       		.byte	0xd
 1816 09f3 73000000 		.4byte	0x73
 1817 09f7 10       		.byte	0x10
 1818 09f8 07       		.uleb128 0x7
 1819 09f9 4F010000 		.4byte	.LASF144
ARM GAS  /tmp/cc8LVlpv.s 			page 33


 1820 09fd 12       		.byte	0x12
 1821 09fe 43       		.byte	0x43
 1822 09ff 0D       		.byte	0xd
 1823 0a00 73000000 		.4byte	0x73
 1824 0a04 11       		.byte	0x11
 1825 0a05 07       		.uleb128 0x7
 1826 0a06 86010000 		.4byte	.LASF145
 1827 0a0a 12       		.byte	0x12
 1828 0a0b 44       		.byte	0x44
 1829 0a0c 0D       		.byte	0xd
 1830 0a0d 73000000 		.4byte	0x73
 1831 0a11 12       		.byte	0x12
 1832 0a12 07       		.uleb128 0x7
 1833 0a13 DA030000 		.4byte	.LASF146
 1834 0a17 12       		.byte	0x12
 1835 0a18 45       		.byte	0x45
 1836 0a19 0D       		.byte	0xd
 1837 0a1a 73000000 		.4byte	0x73
 1838 0a1e 13       		.byte	0x13
 1839 0a1f 07       		.uleb128 0x7
 1840 0a20 A8060000 		.4byte	.LASF147
 1841 0a24 12       		.byte	0x12
 1842 0a25 46       		.byte	0x46
 1843 0a26 0D       		.byte	0xd
 1844 0a27 73000000 		.4byte	0x73
 1845 0a2b 14       		.byte	0x14
 1846 0a2c 07       		.uleb128 0x7
 1847 0a2d 71030000 		.4byte	.LASF148
 1848 0a31 12       		.byte	0x12
 1849 0a32 48       		.byte	0x48
 1850 0a33 0D       		.byte	0xd
 1851 0a34 73000000 		.4byte	0x73
 1852 0a38 15       		.byte	0x15
 1853 0a39 00       		.byte	0
 1854 0a3a 17       		.uleb128 0x17
 1855 0a3b 12090000 		.4byte	0x912
 1856 0a3f 4A0A0000 		.4byte	0xa4a
 1857 0a43 18       		.uleb128 0x18
 1858 0a44 38000000 		.4byte	0x38
 1859 0a48 03       		.byte	0x3
 1860 0a49 00       		.byte	0
 1861 0a4a 03       		.uleb128 0x3
 1862 0a4b E8010000 		.4byte	.LASF149
 1863 0a4f 12       		.byte	0x12
 1864 0a50 49       		.byte	0x49
 1865 0a51 03       		.byte	0x3
 1866 0a52 46090000 		.4byte	0x946
 1867 0a56 1B       		.uleb128 0x1b
 1868 0a57 4A0A0000 		.4byte	0xa4a
 1869 0a5b 13       		.uleb128 0x13
 1870 0a5c CA020000 		.4byte	.LASF150
 1871 0a60 12       		.byte	0x12
 1872 0a61 6E       		.byte	0x6e
 1873 0a62 1D       		.byte	0x1d
 1874 0a63 560A0000 		.4byte	0xa56
 1875 0a67 03       		.uleb128 0x3
 1876 0a68 43020000 		.4byte	.LASF151
ARM GAS  /tmp/cc8LVlpv.s 			page 34


 1877 0a6c 11       		.byte	0x11
 1878 0a6d 34       		.byte	0x34
 1879 0a6e 19       		.byte	0x19
 1880 0a6f BF080000 		.4byte	0x8bf
 1881 0a73 0A       		.uleb128 0xa
 1882 0a74 04       		.byte	0x4
 1883 0a75 670A0000 		.4byte	0xa67
 1884 0a79 1D       		.uleb128 0x1d
 1885 0a7a 5B0A0000 		.4byte	0xa5b
 1886 0a7e 01       		.byte	0x1
 1887 0a7f 50       		.byte	0x50
 1888 0a80 14       		.byte	0x14
 1889 0a81 05       		.uleb128 0x5
 1890 0a82 03       		.byte	0x3
 1891 0a83 00000000 		.4byte	ch_debug
 1892 0a87 1E       		.uleb128 0x1e
 1893 0a88 8A070000 		.4byte	.LASF152
 1894 0a8c 01       		.byte	0x1
 1895 0a8d 9B       		.byte	0x9b
 1896 0a8e 0B       		.byte	0xb
 1897 0a8f A1020000 		.4byte	0x2a1
 1898 0a93 00000000 		.4byte	.LFB220
 1899 0a97 94000000 		.4byte	.LFE220-.LFB220
 1900 0a9b 01       		.uleb128 0x1
 1901 0a9c 9C       		.byte	0x9c
 1902 0a9d E70B0000 		.4byte	0xbe7
 1903 0aa1 1F       		.uleb128 0x1f
 1904 0aa2 747000   		.ascii	"tp\000"
 1905 0aa5 01       		.byte	0x1
 1906 0aa6 9B       		.byte	0x9b
 1907 0aa7 25       		.byte	0x25
 1908 0aa8 A1020000 		.4byte	0x2a1
 1909 0aac 04000000 		.4byte	.LLST3
 1910 0ab0 00000000 		.4byte	.LVUS3
 1911 0ab4 20       		.uleb128 0x20
 1912 0ab5 6E747000 		.ascii	"ntp\000"
 1913 0ab9 01       		.byte	0x1
 1914 0aba 9C       		.byte	0x9c
 1915 0abb 0D       		.byte	0xd
 1916 0abc A1020000 		.4byte	0x2a1
 1917 0ac0 28000000 		.4byte	.LLST4
 1918 0ac4 22000000 		.4byte	.LVUS4
 1919 0ac8 21       		.uleb128 0x21
 1920 0ac9 BF060000 		.4byte	.LASF154
 1921 0acd F70B0000 		.4byte	0xbf7
 1922 0ad1 05       		.uleb128 0x5
 1923 0ad2 03       		.byte	0x3
 1924 0ad3 00000000 		.4byte	__func__.7963
 1925 0ad7 22       		.uleb128 0x22
 1926 0ad8 450D0000 		.4byte	0xd45
 1927 0adc 0E000000 		.4byte	.LBI64
 1928 0ae0 02       		.byte	.LVU42
 1929 0ae1 70000000 		.4byte	.Ldebug_ranges0+0x70
 1930 0ae5 01       		.byte	0x1
 1931 0ae6 9E       		.byte	0x9e
 1932 0ae7 03       		.byte	0x3
 1933 0ae8 360B0000 		.4byte	0xb36
ARM GAS  /tmp/cc8LVlpv.s 			page 35


 1934 0aec 23       		.uleb128 0x23
 1935 0aed 590D0000 		.4byte	0xd59
 1936 0af1 0E000000 		.4byte	.LBI66
 1937 0af5 04       		.byte	.LVU44
 1938 0af6 98000000 		.4byte	.Ldebug_ranges0+0x98
 1939 0afa 02       		.byte	0x2
 1940 0afb 5C01     		.2byte	0x15c
 1941 0afd 03       		.byte	0x3
 1942 0afe 230B0000 		.4byte	0xb23
 1943 0b02 24       		.uleb128 0x24
 1944 0b03 630D0000 		.4byte	0xd63
 1945 0b07 0E000000 		.4byte	.LBI67
 1946 0b0b 06       		.byte	.LVU46
 1947 0b0c A0000000 		.4byte	.Ldebug_ranges0+0xa0
 1948 0b10 03       		.byte	0x3
 1949 0b11 BF01     		.2byte	0x1bf
 1950 0b13 03       		.byte	0x3
 1951 0b14 25       		.uleb128 0x25
 1952 0b15 710D0000 		.4byte	0xd71
 1953 0b19 54000000 		.4byte	.LLST5
 1954 0b1d 52000000 		.4byte	.LVUS5
 1955 0b21 00       		.byte	0
 1956 0b22 00       		.byte	0
 1957 0b23 26       		.uleb128 0x26
 1958 0b24 1A000000 		.4byte	.LVL15
 1959 0b28 7F0D0000 		.4byte	0xd7f
 1960 0b2c 26       		.uleb128 0x26
 1961 0b2d 20000000 		.4byte	.LVL16
 1962 0b31 8B0D0000 		.4byte	0xd8b
 1963 0b35 00       		.byte	0
 1964 0b36 22       		.uleb128 0x22
 1965 0b37 120D0000 		.4byte	0xd12
 1966 0b3b 34000000 		.4byte	.LBI79
 1967 0b3f 01       		.byte	.LVU66
 1968 0b40 B8000000 		.4byte	.Ldebug_ranges0+0xb8
 1969 0b44 01       		.byte	0x1
 1970 0b45 AB       		.byte	0xab
 1971 0b46 03       		.byte	0x3
 1972 0b47 B20B0000 		.4byte	0xbb2
 1973 0b4b 27       		.uleb128 0x27
 1974 0b4c B8000000 		.4byte	.Ldebug_ranges0+0xb8
 1975 0b50 23       		.uleb128 0x23
 1976 0b51 4F0D0000 		.4byte	0xd4f
 1977 0b55 4C000000 		.4byte	.LBI81
 1978 0b59 02       		.byte	.LVU74
 1979 0b5a D8000000 		.4byte	.Ldebug_ranges0+0xd8
 1980 0b5e 02       		.byte	0x2
 1981 0b5f 7301     		.2byte	0x173
 1982 0b61 03       		.byte	0x3
 1983 0b62 8B0B0000 		.4byte	0xb8b
 1984 0b66 28       		.uleb128 0x28
 1985 0b67 630D0000 		.4byte	0xd63
 1986 0b6b 4C000000 		.4byte	.LBI82
 1987 0b6f 04       		.byte	.LVU76
 1988 0b70 4C000000 		.4byte	.LBB82
 1989 0b74 06000000 		.4byte	.LBE82-.LBB82
 1990 0b78 03       		.byte	0x3
ARM GAS  /tmp/cc8LVlpv.s 			page 36


 1991 0b79 CD01     		.2byte	0x1cd
 1992 0b7b 03       		.byte	0x3
 1993 0b7c 25       		.uleb128 0x25
 1994 0b7d 710D0000 		.4byte	0xd71
 1995 0b81 6B000000 		.4byte	.LLST6
 1996 0b85 69000000 		.4byte	.LVUS6
 1997 0b89 00       		.byte	0
 1998 0b8a 00       		.byte	0
 1999 0b8b 26       		.uleb128 0x26
 2000 0b8c 38000000 		.4byte	.LVL19
 2001 0b90 970D0000 		.4byte	0xd97
 2002 0b94 26       		.uleb128 0x26
 2003 0b95 3C000000 		.4byte	.LVL20
 2004 0b99 A30D0000 		.4byte	0xda3
 2005 0b9d 29       		.uleb128 0x29
 2006 0b9e 6E000000 		.4byte	.LVL25
 2007 0ba2 AF0D0000 		.4byte	0xdaf
 2008 0ba6 2A       		.uleb128 0x2a
 2009 0ba7 01       		.uleb128 0x1
 2010 0ba8 50       		.byte	0x50
 2011 0ba9 05       		.uleb128 0x5
 2012 0baa 03       		.byte	0x3
 2013 0bab 00000000 		.4byte	.LANCHOR0
 2014 0baf 00       		.byte	0
 2015 0bb0 00       		.byte	0
 2016 0bb1 00       		.byte	0
 2017 0bb2 2B       		.uleb128 0x2b
 2018 0bb3 58000000 		.4byte	.LVL23
 2019 0bb7 BC0D0000 		.4byte	0xdbc
 2020 0bbb C60B0000 		.4byte	0xbc6
 2021 0bbf 2A       		.uleb128 0x2a
 2022 0bc0 01       		.uleb128 0x1
 2023 0bc1 50       		.byte	0x50
 2024 0bc2 02       		.uleb128 0x2
 2025 0bc3 75       		.byte	0x75
 2026 0bc4 00       		.sleb128 0
 2027 0bc5 00       		.byte	0
 2028 0bc6 2B       		.uleb128 0x2b
 2029 0bc7 76000000 		.4byte	.LVL26
 2030 0bcb AF0D0000 		.4byte	0xdaf
 2031 0bcf DD0B0000 		.4byte	0xbdd
 2032 0bd3 2A       		.uleb128 0x2a
 2033 0bd4 01       		.uleb128 0x1
 2034 0bd5 50       		.byte	0x50
 2035 0bd6 05       		.uleb128 0x5
 2036 0bd7 03       		.byte	0x3
 2037 0bd8 00000000 		.4byte	.LANCHOR1
 2038 0bdc 00       		.byte	0
 2039 0bdd 26       		.uleb128 0x26
 2040 0bde 84000000 		.4byte	.LVL29
 2041 0be2 C80D0000 		.4byte	0xdc8
 2042 0be6 00       		.byte	0
 2043 0be7 17       		.uleb128 0x17
 2044 0be8 19090000 		.4byte	0x919
 2045 0bec F70B0000 		.4byte	0xbf7
 2046 0bf0 18       		.uleb128 0x18
 2047 0bf1 38000000 		.4byte	0x38
ARM GAS  /tmp/cc8LVlpv.s 			page 37


 2048 0bf5 0F       		.byte	0xf
 2049 0bf6 00       		.byte	0
 2050 0bf7 1B       		.uleb128 0x1b
 2051 0bf8 E70B0000 		.4byte	0xbe7
 2052 0bfc 1E       		.uleb128 0x1e
 2053 0bfd 21010000 		.4byte	.LASF153
 2054 0c01 01       		.byte	0x1
 2055 0c02 83       		.byte	0x83
 2056 0c03 0B       		.byte	0xb
 2057 0c04 A1020000 		.4byte	0x2a1
 2058 0c08 00000000 		.4byte	.LFB219
 2059 0c0c 70000000 		.4byte	.LFE219-.LFB219
 2060 0c10 01       		.uleb128 0x1
 2061 0c11 9C       		.byte	0x9c
 2062 0c12 120D0000 		.4byte	0xd12
 2063 0c16 20       		.uleb128 0x20
 2064 0c17 747000   		.ascii	"tp\000"
 2065 0c1a 01       		.byte	0x1
 2066 0c1b 84       		.byte	0x84
 2067 0c1c 0D       		.byte	0xd
 2068 0c1d A1020000 		.4byte	0x2a1
 2069 0c21 81000000 		.4byte	.LLST0
 2070 0c25 7F000000 		.4byte	.LVUS0
 2071 0c29 22       		.uleb128 0x22
 2072 0c2a 450D0000 		.4byte	0xd45
 2073 0c2e 0E000000 		.4byte	.LBI34
 2074 0c32 02       		.byte	.LVU4
 2075 0c33 00000000 		.4byte	.Ldebug_ranges0+0
 2076 0c37 01       		.byte	0x1
 2077 0c38 86       		.byte	0x86
 2078 0c39 03       		.byte	0x3
 2079 0c3a 8C0C0000 		.4byte	0xc8c
 2080 0c3e 23       		.uleb128 0x23
 2081 0c3f 590D0000 		.4byte	0xd59
 2082 0c43 0E000000 		.4byte	.LBI36
 2083 0c47 04       		.byte	.LVU6
 2084 0c48 20000000 		.4byte	.Ldebug_ranges0+0x20
 2085 0c4c 02       		.byte	0x2
 2086 0c4d 5C01     		.2byte	0x15c
 2087 0c4f 03       		.byte	0x3
 2088 0c50 790C0000 		.4byte	0xc79
 2089 0c54 28       		.uleb128 0x28
 2090 0c55 630D0000 		.4byte	0xd63
 2091 0c59 0E000000 		.4byte	.LBI37
 2092 0c5d 06       		.byte	.LVU8
 2093 0c5e 0E000000 		.4byte	.LBB37
 2094 0c62 06000000 		.4byte	.LBE37-.LBB37
 2095 0c66 03       		.byte	0x3
 2096 0c67 BF01     		.2byte	0x1bf
 2097 0c69 03       		.byte	0x3
 2098 0c6a 25       		.uleb128 0x25
 2099 0c6b 710D0000 		.4byte	0xd71
 2100 0c6f 96000000 		.4byte	.LLST1
 2101 0c73 94000000 		.4byte	.LVUS1
 2102 0c77 00       		.byte	0
 2103 0c78 00       		.byte	0
 2104 0c79 26       		.uleb128 0x26
ARM GAS  /tmp/cc8LVlpv.s 			page 38


 2105 0c7a 1A000000 		.4byte	.LVL2
 2106 0c7e 7F0D0000 		.4byte	0xd7f
 2107 0c82 26       		.uleb128 0x26
 2108 0c83 1E000000 		.4byte	.LVL3
 2109 0c87 8B0D0000 		.4byte	0xd8b
 2110 0c8b 00       		.byte	0
 2111 0c8c 22       		.uleb128 0x22
 2112 0c8d 120D0000 		.4byte	0xd12
 2113 0c91 2A000000 		.4byte	.LBI44
 2114 0c95 01       		.byte	.LVU20
 2115 0c96 38000000 		.4byte	.Ldebug_ranges0+0x38
 2116 0c9a 01       		.byte	0x1
 2117 0c9b 8B       		.byte	0x8b
 2118 0c9c 03       		.byte	0x3
 2119 0c9d 080D0000 		.4byte	0xd08
 2120 0ca1 27       		.uleb128 0x27
 2121 0ca2 38000000 		.4byte	.Ldebug_ranges0+0x38
 2122 0ca6 23       		.uleb128 0x23
 2123 0ca7 4F0D0000 		.4byte	0xd4f
 2124 0cab 42000000 		.4byte	.LBI46
 2125 0caf 02       		.byte	.LVU28
 2126 0cb0 58000000 		.4byte	.Ldebug_ranges0+0x58
 2127 0cb4 02       		.byte	0x2
 2128 0cb5 7301     		.2byte	0x173
 2129 0cb7 03       		.byte	0x3
 2130 0cb8 E10C0000 		.4byte	0xce1
 2131 0cbc 28       		.uleb128 0x28
 2132 0cbd 630D0000 		.4byte	0xd63
 2133 0cc1 42000000 		.4byte	.LBI47
 2134 0cc5 04       		.byte	.LVU30
 2135 0cc6 42000000 		.4byte	.LBB47
 2136 0cca 06000000 		.4byte	.LBE47-.LBB47
 2137 0cce 03       		.byte	0x3
 2138 0ccf CD01     		.2byte	0x1cd
 2139 0cd1 03       		.byte	0x3
 2140 0cd2 25       		.uleb128 0x25
 2141 0cd3 710D0000 		.4byte	0xd71
 2142 0cd7 AD000000 		.4byte	.LLST2
 2143 0cdb AB000000 		.4byte	.LVUS2
 2144 0cdf 00       		.byte	0
 2145 0ce0 00       		.byte	0
 2146 0ce1 26       		.uleb128 0x26
 2147 0ce2 2E000000 		.4byte	.LVL5
 2148 0ce6 970D0000 		.4byte	0xd97
 2149 0cea 26       		.uleb128 0x26
 2150 0ceb 32000000 		.4byte	.LVL6
 2151 0cef A30D0000 		.4byte	0xda3
 2152 0cf3 29       		.uleb128 0x29
 2153 0cf4 5E000000 		.4byte	.LVL10
 2154 0cf8 AF0D0000 		.4byte	0xdaf
 2155 0cfc 2A       		.uleb128 0x2a
 2156 0cfd 01       		.uleb128 0x1
 2157 0cfe 50       		.byte	0x50
 2158 0cff 05       		.uleb128 0x5
 2159 0d00 03       		.byte	0x3
 2160 0d01 00000000 		.4byte	.LANCHOR0
 2161 0d05 00       		.byte	0
ARM GAS  /tmp/cc8LVlpv.s 			page 39


 2162 0d06 00       		.byte	0
 2163 0d07 00       		.byte	0
 2164 0d08 26       		.uleb128 0x26
 2165 0d09 64000000 		.4byte	.LVL11
 2166 0d0d C80D0000 		.4byte	0xdc8
 2167 0d11 00       		.byte	0
 2168 0d12 2C       		.uleb128 0x2c
 2169 0d13 8D080000 		.4byte	.LASF158
 2170 0d17 02       		.byte	0x2
 2171 0d18 6601     		.2byte	0x166
 2172 0d1a 14       		.byte	0x14
 2173 0d1b 03       		.byte	0x3
 2174 0d1c 300D0000 		.4byte	0xd30
 2175 0d20 21       		.uleb128 0x21
 2176 0d21 BF060000 		.4byte	.LASF154
 2177 0d25 400D0000 		.4byte	0xd40
 2178 0d29 05       		.uleb128 0x5
 2179 0d2a 03       		.byte	0x3
 2180 0d2b 00000000 		.4byte	__func__.7261
 2181 0d2f 00       		.byte	0
 2182 0d30 17       		.uleb128 0x17
 2183 0d31 19090000 		.4byte	0x919
 2184 0d35 400D0000 		.4byte	0xd40
 2185 0d39 18       		.uleb128 0x18
 2186 0d3a 38000000 		.4byte	0x38
 2187 0d3e 0B       		.byte	0xb
 2188 0d3f 00       		.byte	0
 2189 0d40 1B       		.uleb128 0x1b
 2190 0d41 300D0000 		.4byte	0xd30
 2191 0d45 2D       		.uleb128 0x2d
 2192 0d46 D0060000 		.4byte	.LASF155
 2193 0d4a 02       		.byte	0x2
 2194 0d4b 5A01     		.2byte	0x15a
 2195 0d4d 14       		.byte	0x14
 2196 0d4e 03       		.byte	0x3
 2197 0d4f 2D       		.uleb128 0x2d
 2198 0d50 AA010000 		.4byte	.LASF156
 2199 0d54 03       		.byte	0x3
 2200 0d55 CA01     		.2byte	0x1ca
 2201 0d57 14       		.byte	0x14
 2202 0d58 03       		.byte	0x3
 2203 0d59 2D       		.uleb128 0x2d
 2204 0d5a 95000000 		.4byte	.LASF157
 2205 0d5e 03       		.byte	0x3
 2206 0d5f BC01     		.2byte	0x1bc
 2207 0d61 14       		.byte	0x14
 2208 0d62 03       		.byte	0x3
 2209 0d63 2C       		.uleb128 0x2c
 2210 0d64 D4070000 		.4byte	.LASF159
 2211 0d68 04       		.byte	0x4
 2212 0d69 2002     		.2byte	0x220
 2213 0d6b 39       		.byte	0x39
 2214 0d6c 03       		.byte	0x3
 2215 0d6d 7F0D0000 		.4byte	0xd7f
 2216 0d71 2E       		.uleb128 0x2e
 2217 0d72 4B020000 		.4byte	.LASF169
 2218 0d76 04       		.byte	0x4
ARM GAS  /tmp/cc8LVlpv.s 			page 40


 2219 0d77 2002     		.2byte	0x220
 2220 0d79 50       		.byte	0x50
 2221 0d7a 99000000 		.4byte	0x99
 2222 0d7e 00       		.byte	0
 2223 0d7f 2F       		.uleb128 0x2f
 2224 0d80 03010000 		.4byte	.LASF160
 2225 0d84 03010000 		.4byte	.LASF160
 2226 0d88 0F       		.byte	0xf
 2227 0d89 4F       		.byte	0x4f
 2228 0d8a 08       		.byte	0x8
 2229 0d8b 2F       		.uleb128 0x2f
 2230 0d8c 15040000 		.4byte	.LASF161
 2231 0d90 15040000 		.4byte	.LASF161
 2232 0d94 0D       		.byte	0xd
 2233 0d95 D8       		.byte	0xd8
 2234 0d96 08       		.byte	0x8
 2235 0d97 2F       		.uleb128 0x2f
 2236 0d98 42080000 		.4byte	.LASF162
 2237 0d9c 42080000 		.4byte	.LASF162
 2238 0da0 0D       		.byte	0xd
 2239 0da1 D9       		.byte	0xd9
 2240 0da2 08       		.byte	0x8
 2241 0da3 2F       		.uleb128 0x2f
 2242 0da4 F0030000 		.4byte	.LASF163
 2243 0da8 F0030000 		.4byte	.LASF163
 2244 0dac 0F       		.byte	0xf
 2245 0dad 50       		.byte	0x50
 2246 0dae 08       		.byte	0x8
 2247 0daf 30       		.uleb128 0x30
 2248 0db0 23020000 		.4byte	.LASF164
 2249 0db4 23020000 		.4byte	.LASF164
 2250 0db8 02       		.byte	0x2
 2251 0db9 1601     		.2byte	0x116
 2252 0dbb 08       		.byte	0x8
 2253 0dbc 2F       		.uleb128 0x2f
 2254 0dbd DA060000 		.4byte	.LASF165
 2255 0dc1 DA060000 		.4byte	.LASF165
 2256 0dc5 13       		.byte	0x13
 2257 0dc6 4B       		.byte	0x4b
 2258 0dc7 08       		.byte	0x8
 2259 0dc8 31       		.uleb128 0x31
 2260 0dc9 15070000 		.4byte	.LASF170
 2261 0dcd 15070000 		.4byte	.LASF170
 2262 0dd1 00       		.byte	0
 2263              		.section	.debug_abbrev,"",%progbits
 2264              	.Ldebug_abbrev0:
 2265 0000 01       		.uleb128 0x1
 2266 0001 11       		.uleb128 0x11
 2267 0002 01       		.byte	0x1
 2268 0003 25       		.uleb128 0x25
 2269 0004 0E       		.uleb128 0xe
 2270 0005 13       		.uleb128 0x13
 2271 0006 0B       		.uleb128 0xb
 2272 0007 03       		.uleb128 0x3
 2273 0008 0E       		.uleb128 0xe
 2274 0009 1B       		.uleb128 0x1b
 2275 000a 0E       		.uleb128 0xe
ARM GAS  /tmp/cc8LVlpv.s 			page 41


 2276 000b 55       		.uleb128 0x55
 2277 000c 17       		.uleb128 0x17
 2278 000d 11       		.uleb128 0x11
 2279 000e 01       		.uleb128 0x1
 2280 000f 10       		.uleb128 0x10
 2281 0010 17       		.uleb128 0x17
 2282 0011 00       		.byte	0
 2283 0012 00       		.byte	0
 2284 0013 02       		.uleb128 0x2
 2285 0014 24       		.uleb128 0x24
 2286 0015 00       		.byte	0
 2287 0016 0B       		.uleb128 0xb
 2288 0017 0B       		.uleb128 0xb
 2289 0018 3E       		.uleb128 0x3e
 2290 0019 0B       		.uleb128 0xb
 2291 001a 03       		.uleb128 0x3
 2292 001b 08       		.uleb128 0x8
 2293 001c 00       		.byte	0
 2294 001d 00       		.byte	0
 2295 001e 03       		.uleb128 0x3
 2296 001f 16       		.uleb128 0x16
 2297 0020 00       		.byte	0
 2298 0021 03       		.uleb128 0x3
 2299 0022 0E       		.uleb128 0xe
 2300 0023 3A       		.uleb128 0x3a
 2301 0024 0B       		.uleb128 0xb
 2302 0025 3B       		.uleb128 0x3b
 2303 0026 0B       		.uleb128 0xb
 2304 0027 39       		.uleb128 0x39
 2305 0028 0B       		.uleb128 0xb
 2306 0029 49       		.uleb128 0x49
 2307 002a 13       		.uleb128 0x13
 2308 002b 00       		.byte	0
 2309 002c 00       		.byte	0
 2310 002d 04       		.uleb128 0x4
 2311 002e 24       		.uleb128 0x24
 2312 002f 00       		.byte	0
 2313 0030 0B       		.uleb128 0xb
 2314 0031 0B       		.uleb128 0xb
 2315 0032 3E       		.uleb128 0x3e
 2316 0033 0B       		.uleb128 0xb
 2317 0034 03       		.uleb128 0x3
 2318 0035 0E       		.uleb128 0xe
 2319 0036 00       		.byte	0
 2320 0037 00       		.byte	0
 2321 0038 05       		.uleb128 0x5
 2322 0039 35       		.uleb128 0x35
 2323 003a 00       		.byte	0
 2324 003b 49       		.uleb128 0x49
 2325 003c 13       		.uleb128 0x13
 2326 003d 00       		.byte	0
 2327 003e 00       		.byte	0
 2328 003f 06       		.uleb128 0x6
 2329 0040 13       		.uleb128 0x13
 2330 0041 01       		.byte	0x1
 2331 0042 03       		.uleb128 0x3
 2332 0043 0E       		.uleb128 0xe
ARM GAS  /tmp/cc8LVlpv.s 			page 42


 2333 0044 0B       		.uleb128 0xb
 2334 0045 0B       		.uleb128 0xb
 2335 0046 3A       		.uleb128 0x3a
 2336 0047 0B       		.uleb128 0xb
 2337 0048 3B       		.uleb128 0x3b
 2338 0049 0B       		.uleb128 0xb
 2339 004a 39       		.uleb128 0x39
 2340 004b 0B       		.uleb128 0xb
 2341 004c 01       		.uleb128 0x1
 2342 004d 13       		.uleb128 0x13
 2343 004e 00       		.byte	0
 2344 004f 00       		.byte	0
 2345 0050 07       		.uleb128 0x7
 2346 0051 0D       		.uleb128 0xd
 2347 0052 00       		.byte	0
 2348 0053 03       		.uleb128 0x3
 2349 0054 0E       		.uleb128 0xe
 2350 0055 3A       		.uleb128 0x3a
 2351 0056 0B       		.uleb128 0xb
 2352 0057 3B       		.uleb128 0x3b
 2353 0058 0B       		.uleb128 0xb
 2354 0059 39       		.uleb128 0x39
 2355 005a 0B       		.uleb128 0xb
 2356 005b 49       		.uleb128 0x49
 2357 005c 13       		.uleb128 0x13
 2358 005d 38       		.uleb128 0x38
 2359 005e 0B       		.uleb128 0xb
 2360 005f 00       		.byte	0
 2361 0060 00       		.byte	0
 2362 0061 08       		.uleb128 0x8
 2363 0062 0D       		.uleb128 0xd
 2364 0063 00       		.byte	0
 2365 0064 03       		.uleb128 0x3
 2366 0065 08       		.uleb128 0x8
 2367 0066 3A       		.uleb128 0x3a
 2368 0067 0B       		.uleb128 0xb
 2369 0068 3B       		.uleb128 0x3b
 2370 0069 05       		.uleb128 0x5
 2371 006a 39       		.uleb128 0x39
 2372 006b 0B       		.uleb128 0xb
 2373 006c 49       		.uleb128 0x49
 2374 006d 13       		.uleb128 0x13
 2375 006e 38       		.uleb128 0x38
 2376 006f 0B       		.uleb128 0xb
 2377 0070 00       		.byte	0
 2378 0071 00       		.byte	0
 2379 0072 09       		.uleb128 0x9
 2380 0073 0D       		.uleb128 0xd
 2381 0074 00       		.byte	0
 2382 0075 03       		.uleb128 0x3
 2383 0076 0E       		.uleb128 0xe
 2384 0077 3A       		.uleb128 0x3a
 2385 0078 0B       		.uleb128 0xb
 2386 0079 3B       		.uleb128 0x3b
 2387 007a 05       		.uleb128 0x5
 2388 007b 39       		.uleb128 0x39
 2389 007c 0B       		.uleb128 0xb
ARM GAS  /tmp/cc8LVlpv.s 			page 43


 2390 007d 49       		.uleb128 0x49
 2391 007e 13       		.uleb128 0x13
 2392 007f 38       		.uleb128 0x38
 2393 0080 0B       		.uleb128 0xb
 2394 0081 00       		.byte	0
 2395 0082 00       		.byte	0
 2396 0083 0A       		.uleb128 0xa
 2397 0084 0F       		.uleb128 0xf
 2398 0085 00       		.byte	0
 2399 0086 0B       		.uleb128 0xb
 2400 0087 0B       		.uleb128 0xb
 2401 0088 49       		.uleb128 0x49
 2402 0089 13       		.uleb128 0x13
 2403 008a 00       		.byte	0
 2404 008b 00       		.byte	0
 2405 008c 0B       		.uleb128 0xb
 2406 008d 13       		.uleb128 0x13
 2407 008e 01       		.byte	0x1
 2408 008f 03       		.uleb128 0x3
 2409 0090 0E       		.uleb128 0xe
 2410 0091 0B       		.uleb128 0xb
 2411 0092 0B       		.uleb128 0xb
 2412 0093 3A       		.uleb128 0x3a
 2413 0094 0B       		.uleb128 0xb
 2414 0095 3B       		.uleb128 0x3b
 2415 0096 05       		.uleb128 0x5
 2416 0097 39       		.uleb128 0x39
 2417 0098 0B       		.uleb128 0xb
 2418 0099 01       		.uleb128 0x1
 2419 009a 13       		.uleb128 0x13
 2420 009b 00       		.byte	0
 2421 009c 00       		.byte	0
 2422 009d 0C       		.uleb128 0xc
 2423 009e 15       		.uleb128 0x15
 2424 009f 01       		.byte	0x1
 2425 00a0 27       		.uleb128 0x27
 2426 00a1 19       		.uleb128 0x19
 2427 00a2 01       		.uleb128 0x1
 2428 00a3 13       		.uleb128 0x13
 2429 00a4 00       		.byte	0
 2430 00a5 00       		.byte	0
 2431 00a6 0D       		.uleb128 0xd
 2432 00a7 05       		.uleb128 0x5
 2433 00a8 00       		.byte	0
 2434 00a9 49       		.uleb128 0x49
 2435 00aa 13       		.uleb128 0x13
 2436 00ab 00       		.byte	0
 2437 00ac 00       		.byte	0
 2438 00ad 0E       		.uleb128 0xe
 2439 00ae 0F       		.uleb128 0xf
 2440 00af 00       		.byte	0
 2441 00b0 0B       		.uleb128 0xb
 2442 00b1 0B       		.uleb128 0xb
 2443 00b2 00       		.byte	0
 2444 00b3 00       		.byte	0
 2445 00b4 0F       		.uleb128 0xf
 2446 00b5 13       		.uleb128 0x13
ARM GAS  /tmp/cc8LVlpv.s 			page 44


 2447 00b6 01       		.byte	0x1
 2448 00b7 03       		.uleb128 0x3
 2449 00b8 0E       		.uleb128 0xe
 2450 00b9 0B       		.uleb128 0xb
 2451 00ba 05       		.uleb128 0x5
 2452 00bb 3A       		.uleb128 0x3a
 2453 00bc 0B       		.uleb128 0xb
 2454 00bd 3B       		.uleb128 0x3b
 2455 00be 05       		.uleb128 0x5
 2456 00bf 39       		.uleb128 0x39
 2457 00c0 0B       		.uleb128 0xb
 2458 00c1 01       		.uleb128 0x1
 2459 00c2 13       		.uleb128 0x13
 2460 00c3 00       		.byte	0
 2461 00c4 00       		.byte	0
 2462 00c5 10       		.uleb128 0x10
 2463 00c6 0D       		.uleb128 0xd
 2464 00c7 00       		.byte	0
 2465 00c8 03       		.uleb128 0x3
 2466 00c9 0E       		.uleb128 0xe
 2467 00ca 3A       		.uleb128 0x3a
 2468 00cb 0B       		.uleb128 0xb
 2469 00cc 3B       		.uleb128 0x3b
 2470 00cd 05       		.uleb128 0x5
 2471 00ce 39       		.uleb128 0x39
 2472 00cf 0B       		.uleb128 0xb
 2473 00d0 49       		.uleb128 0x49
 2474 00d1 13       		.uleb128 0x13
 2475 00d2 38       		.uleb128 0x38
 2476 00d3 05       		.uleb128 0x5
 2477 00d4 00       		.byte	0
 2478 00d5 00       		.byte	0
 2479 00d6 11       		.uleb128 0x11
 2480 00d7 0D       		.uleb128 0xd
 2481 00d8 00       		.byte	0
 2482 00d9 03       		.uleb128 0x3
 2483 00da 08       		.uleb128 0x8
 2484 00db 3A       		.uleb128 0x3a
 2485 00dc 0B       		.uleb128 0xb
 2486 00dd 3B       		.uleb128 0x3b
 2487 00de 05       		.uleb128 0x5
 2488 00df 39       		.uleb128 0x39
 2489 00e0 0B       		.uleb128 0xb
 2490 00e1 49       		.uleb128 0x49
 2491 00e2 13       		.uleb128 0x13
 2492 00e3 38       		.uleb128 0x38
 2493 00e4 05       		.uleb128 0x5
 2494 00e5 00       		.byte	0
 2495 00e6 00       		.byte	0
 2496 00e7 12       		.uleb128 0x12
 2497 00e8 34       		.uleb128 0x34
 2498 00e9 00       		.byte	0
 2499 00ea 03       		.uleb128 0x3
 2500 00eb 0E       		.uleb128 0xe
 2501 00ec 3A       		.uleb128 0x3a
 2502 00ed 0B       		.uleb128 0xb
 2503 00ee 3B       		.uleb128 0x3b
ARM GAS  /tmp/cc8LVlpv.s 			page 45


 2504 00ef 05       		.uleb128 0x5
 2505 00f0 39       		.uleb128 0x39
 2506 00f1 0B       		.uleb128 0xb
 2507 00f2 49       		.uleb128 0x49
 2508 00f3 13       		.uleb128 0x13
 2509 00f4 3F       		.uleb128 0x3f
 2510 00f5 19       		.uleb128 0x19
 2511 00f6 3C       		.uleb128 0x3c
 2512 00f7 19       		.uleb128 0x19
 2513 00f8 00       		.byte	0
 2514 00f9 00       		.byte	0
 2515 00fa 13       		.uleb128 0x13
 2516 00fb 34       		.uleb128 0x34
 2517 00fc 00       		.byte	0
 2518 00fd 03       		.uleb128 0x3
 2519 00fe 0E       		.uleb128 0xe
 2520 00ff 3A       		.uleb128 0x3a
 2521 0100 0B       		.uleb128 0xb
 2522 0101 3B       		.uleb128 0x3b
 2523 0102 0B       		.uleb128 0xb
 2524 0103 39       		.uleb128 0x39
 2525 0104 0B       		.uleb128 0xb
 2526 0105 49       		.uleb128 0x49
 2527 0106 13       		.uleb128 0x13
 2528 0107 3F       		.uleb128 0x3f
 2529 0108 19       		.uleb128 0x19
 2530 0109 3C       		.uleb128 0x3c
 2531 010a 19       		.uleb128 0x19
 2532 010b 00       		.byte	0
 2533 010c 00       		.byte	0
 2534 010d 14       		.uleb128 0x14
 2535 010e 0D       		.uleb128 0xd
 2536 010f 00       		.byte	0
 2537 0110 03       		.uleb128 0x3
 2538 0111 08       		.uleb128 0x8
 2539 0112 3A       		.uleb128 0x3a
 2540 0113 0B       		.uleb128 0xb
 2541 0114 3B       		.uleb128 0x3b
 2542 0115 0B       		.uleb128 0xb
 2543 0116 39       		.uleb128 0x39
 2544 0117 0B       		.uleb128 0xb
 2545 0118 49       		.uleb128 0x49
 2546 0119 13       		.uleb128 0x13
 2547 011a 38       		.uleb128 0x38
 2548 011b 0B       		.uleb128 0xb
 2549 011c 00       		.byte	0
 2550 011d 00       		.byte	0
 2551 011e 15       		.uleb128 0x15
 2552 011f 13       		.uleb128 0x13
 2553 0120 01       		.byte	0x1
 2554 0121 0B       		.uleb128 0xb
 2555 0122 0B       		.uleb128 0xb
 2556 0123 3A       		.uleb128 0x3a
 2557 0124 0B       		.uleb128 0xb
 2558 0125 3B       		.uleb128 0x3b
 2559 0126 0B       		.uleb128 0xb
 2560 0127 39       		.uleb128 0x39
ARM GAS  /tmp/cc8LVlpv.s 			page 46


 2561 0128 0B       		.uleb128 0xb
 2562 0129 01       		.uleb128 0x1
 2563 012a 13       		.uleb128 0x13
 2564 012b 00       		.byte	0
 2565 012c 00       		.byte	0
 2566 012d 16       		.uleb128 0x16
 2567 012e 13       		.uleb128 0x13
 2568 012f 01       		.byte	0x1
 2569 0130 0B       		.uleb128 0xb
 2570 0131 05       		.uleb128 0x5
 2571 0132 3A       		.uleb128 0x3a
 2572 0133 0B       		.uleb128 0xb
 2573 0134 3B       		.uleb128 0x3b
 2574 0135 0B       		.uleb128 0xb
 2575 0136 39       		.uleb128 0x39
 2576 0137 0B       		.uleb128 0xb
 2577 0138 01       		.uleb128 0x1
 2578 0139 13       		.uleb128 0x13
 2579 013a 00       		.byte	0
 2580 013b 00       		.byte	0
 2581 013c 17       		.uleb128 0x17
 2582 013d 01       		.uleb128 0x1
 2583 013e 01       		.byte	0x1
 2584 013f 49       		.uleb128 0x49
 2585 0140 13       		.uleb128 0x13
 2586 0141 01       		.uleb128 0x1
 2587 0142 13       		.uleb128 0x13
 2588 0143 00       		.byte	0
 2589 0144 00       		.byte	0
 2590 0145 18       		.uleb128 0x18
 2591 0146 21       		.uleb128 0x21
 2592 0147 00       		.byte	0
 2593 0148 49       		.uleb128 0x49
 2594 0149 13       		.uleb128 0x13
 2595 014a 2F       		.uleb128 0x2f
 2596 014b 0B       		.uleb128 0xb
 2597 014c 00       		.byte	0
 2598 014d 00       		.byte	0
 2599 014e 19       		.uleb128 0x19
 2600 014f 17       		.uleb128 0x17
 2601 0150 01       		.byte	0x1
 2602 0151 0B       		.uleb128 0xb
 2603 0152 0B       		.uleb128 0xb
 2604 0153 3A       		.uleb128 0x3a
 2605 0154 0B       		.uleb128 0xb
 2606 0155 3B       		.uleb128 0x3b
 2607 0156 0B       		.uleb128 0xb
 2608 0157 39       		.uleb128 0x39
 2609 0158 0B       		.uleb128 0xb
 2610 0159 01       		.uleb128 0x1
 2611 015a 13       		.uleb128 0x13
 2612 015b 00       		.byte	0
 2613 015c 00       		.byte	0
 2614 015d 1A       		.uleb128 0x1a
 2615 015e 0D       		.uleb128 0xd
 2616 015f 00       		.byte	0
 2617 0160 03       		.uleb128 0x3
ARM GAS  /tmp/cc8LVlpv.s 			page 47


 2618 0161 0E       		.uleb128 0xe
 2619 0162 3A       		.uleb128 0x3a
 2620 0163 0B       		.uleb128 0xb
 2621 0164 3B       		.uleb128 0x3b
 2622 0165 05       		.uleb128 0x5
 2623 0166 39       		.uleb128 0x39
 2624 0167 0B       		.uleb128 0xb
 2625 0168 49       		.uleb128 0x49
 2626 0169 13       		.uleb128 0x13
 2627 016a 00       		.byte	0
 2628 016b 00       		.byte	0
 2629 016c 1B       		.uleb128 0x1b
 2630 016d 26       		.uleb128 0x26
 2631 016e 00       		.byte	0
 2632 016f 49       		.uleb128 0x49
 2633 0170 13       		.uleb128 0x13
 2634 0171 00       		.byte	0
 2635 0172 00       		.byte	0
 2636 0173 1C       		.uleb128 0x1c
 2637 0174 34       		.uleb128 0x34
 2638 0175 00       		.byte	0
 2639 0176 03       		.uleb128 0x3
 2640 0177 08       		.uleb128 0x8
 2641 0178 3A       		.uleb128 0x3a
 2642 0179 0B       		.uleb128 0xb
 2643 017a 3B       		.uleb128 0x3b
 2644 017b 05       		.uleb128 0x5
 2645 017c 39       		.uleb128 0x39
 2646 017d 0B       		.uleb128 0xb
 2647 017e 49       		.uleb128 0x49
 2648 017f 13       		.uleb128 0x13
 2649 0180 3F       		.uleb128 0x3f
 2650 0181 19       		.uleb128 0x19
 2651 0182 3C       		.uleb128 0x3c
 2652 0183 19       		.uleb128 0x19
 2653 0184 00       		.byte	0
 2654 0185 00       		.byte	0
 2655 0186 1D       		.uleb128 0x1d
 2656 0187 34       		.uleb128 0x34
 2657 0188 00       		.byte	0
 2658 0189 47       		.uleb128 0x47
 2659 018a 13       		.uleb128 0x13
 2660 018b 3A       		.uleb128 0x3a
 2661 018c 0B       		.uleb128 0xb
 2662 018d 3B       		.uleb128 0x3b
 2663 018e 0B       		.uleb128 0xb
 2664 018f 39       		.uleb128 0x39
 2665 0190 0B       		.uleb128 0xb
 2666 0191 02       		.uleb128 0x2
 2667 0192 18       		.uleb128 0x18
 2668 0193 00       		.byte	0
 2669 0194 00       		.byte	0
 2670 0195 1E       		.uleb128 0x1e
 2671 0196 2E       		.uleb128 0x2e
 2672 0197 01       		.byte	0x1
 2673 0198 3F       		.uleb128 0x3f
 2674 0199 19       		.uleb128 0x19
ARM GAS  /tmp/cc8LVlpv.s 			page 48


 2675 019a 03       		.uleb128 0x3
 2676 019b 0E       		.uleb128 0xe
 2677 019c 3A       		.uleb128 0x3a
 2678 019d 0B       		.uleb128 0xb
 2679 019e 3B       		.uleb128 0x3b
 2680 019f 0B       		.uleb128 0xb
 2681 01a0 39       		.uleb128 0x39
 2682 01a1 0B       		.uleb128 0xb
 2683 01a2 27       		.uleb128 0x27
 2684 01a3 19       		.uleb128 0x19
 2685 01a4 49       		.uleb128 0x49
 2686 01a5 13       		.uleb128 0x13
 2687 01a6 11       		.uleb128 0x11
 2688 01a7 01       		.uleb128 0x1
 2689 01a8 12       		.uleb128 0x12
 2690 01a9 06       		.uleb128 0x6
 2691 01aa 40       		.uleb128 0x40
 2692 01ab 18       		.uleb128 0x18
 2693 01ac 9742     		.uleb128 0x2117
 2694 01ae 19       		.uleb128 0x19
 2695 01af 01       		.uleb128 0x1
 2696 01b0 13       		.uleb128 0x13
 2697 01b1 00       		.byte	0
 2698 01b2 00       		.byte	0
 2699 01b3 1F       		.uleb128 0x1f
 2700 01b4 05       		.uleb128 0x5
 2701 01b5 00       		.byte	0
 2702 01b6 03       		.uleb128 0x3
 2703 01b7 08       		.uleb128 0x8
 2704 01b8 3A       		.uleb128 0x3a
 2705 01b9 0B       		.uleb128 0xb
 2706 01ba 3B       		.uleb128 0x3b
 2707 01bb 0B       		.uleb128 0xb
 2708 01bc 39       		.uleb128 0x39
 2709 01bd 0B       		.uleb128 0xb
 2710 01be 49       		.uleb128 0x49
 2711 01bf 13       		.uleb128 0x13
 2712 01c0 02       		.uleb128 0x2
 2713 01c1 17       		.uleb128 0x17
 2714 01c2 B742     		.uleb128 0x2137
 2715 01c4 17       		.uleb128 0x17
 2716 01c5 00       		.byte	0
 2717 01c6 00       		.byte	0
 2718 01c7 20       		.uleb128 0x20
 2719 01c8 34       		.uleb128 0x34
 2720 01c9 00       		.byte	0
 2721 01ca 03       		.uleb128 0x3
 2722 01cb 08       		.uleb128 0x8
 2723 01cc 3A       		.uleb128 0x3a
 2724 01cd 0B       		.uleb128 0xb
 2725 01ce 3B       		.uleb128 0x3b
 2726 01cf 0B       		.uleb128 0xb
 2727 01d0 39       		.uleb128 0x39
 2728 01d1 0B       		.uleb128 0xb
 2729 01d2 49       		.uleb128 0x49
 2730 01d3 13       		.uleb128 0x13
 2731 01d4 02       		.uleb128 0x2
ARM GAS  /tmp/cc8LVlpv.s 			page 49


 2732 01d5 17       		.uleb128 0x17
 2733 01d6 B742     		.uleb128 0x2137
 2734 01d8 17       		.uleb128 0x17
 2735 01d9 00       		.byte	0
 2736 01da 00       		.byte	0
 2737 01db 21       		.uleb128 0x21
 2738 01dc 34       		.uleb128 0x34
 2739 01dd 00       		.byte	0
 2740 01de 03       		.uleb128 0x3
 2741 01df 0E       		.uleb128 0xe
 2742 01e0 49       		.uleb128 0x49
 2743 01e1 13       		.uleb128 0x13
 2744 01e2 34       		.uleb128 0x34
 2745 01e3 19       		.uleb128 0x19
 2746 01e4 02       		.uleb128 0x2
 2747 01e5 18       		.uleb128 0x18
 2748 01e6 00       		.byte	0
 2749 01e7 00       		.byte	0
 2750 01e8 22       		.uleb128 0x22
 2751 01e9 1D       		.uleb128 0x1d
 2752 01ea 01       		.byte	0x1
 2753 01eb 31       		.uleb128 0x31
 2754 01ec 13       		.uleb128 0x13
 2755 01ed 52       		.uleb128 0x52
 2756 01ee 01       		.uleb128 0x1
 2757 01ef B842     		.uleb128 0x2138
 2758 01f1 0B       		.uleb128 0xb
 2759 01f2 55       		.uleb128 0x55
 2760 01f3 17       		.uleb128 0x17
 2761 01f4 58       		.uleb128 0x58
 2762 01f5 0B       		.uleb128 0xb
 2763 01f6 59       		.uleb128 0x59
 2764 01f7 0B       		.uleb128 0xb
 2765 01f8 57       		.uleb128 0x57
 2766 01f9 0B       		.uleb128 0xb
 2767 01fa 01       		.uleb128 0x1
 2768 01fb 13       		.uleb128 0x13
 2769 01fc 00       		.byte	0
 2770 01fd 00       		.byte	0
 2771 01fe 23       		.uleb128 0x23
 2772 01ff 1D       		.uleb128 0x1d
 2773 0200 01       		.byte	0x1
 2774 0201 31       		.uleb128 0x31
 2775 0202 13       		.uleb128 0x13
 2776 0203 52       		.uleb128 0x52
 2777 0204 01       		.uleb128 0x1
 2778 0205 B842     		.uleb128 0x2138
 2779 0207 0B       		.uleb128 0xb
 2780 0208 55       		.uleb128 0x55
 2781 0209 17       		.uleb128 0x17
 2782 020a 58       		.uleb128 0x58
 2783 020b 0B       		.uleb128 0xb
 2784 020c 59       		.uleb128 0x59
 2785 020d 05       		.uleb128 0x5
 2786 020e 57       		.uleb128 0x57
 2787 020f 0B       		.uleb128 0xb
 2788 0210 01       		.uleb128 0x1
ARM GAS  /tmp/cc8LVlpv.s 			page 50


 2789 0211 13       		.uleb128 0x13
 2790 0212 00       		.byte	0
 2791 0213 00       		.byte	0
 2792 0214 24       		.uleb128 0x24
 2793 0215 1D       		.uleb128 0x1d
 2794 0216 01       		.byte	0x1
 2795 0217 31       		.uleb128 0x31
 2796 0218 13       		.uleb128 0x13
 2797 0219 52       		.uleb128 0x52
 2798 021a 01       		.uleb128 0x1
 2799 021b B842     		.uleb128 0x2138
 2800 021d 0B       		.uleb128 0xb
 2801 021e 55       		.uleb128 0x55
 2802 021f 17       		.uleb128 0x17
 2803 0220 58       		.uleb128 0x58
 2804 0221 0B       		.uleb128 0xb
 2805 0222 59       		.uleb128 0x59
 2806 0223 05       		.uleb128 0x5
 2807 0224 57       		.uleb128 0x57
 2808 0225 0B       		.uleb128 0xb
 2809 0226 00       		.byte	0
 2810 0227 00       		.byte	0
 2811 0228 25       		.uleb128 0x25
 2812 0229 05       		.uleb128 0x5
 2813 022a 00       		.byte	0
 2814 022b 31       		.uleb128 0x31
 2815 022c 13       		.uleb128 0x13
 2816 022d 02       		.uleb128 0x2
 2817 022e 17       		.uleb128 0x17
 2818 022f B742     		.uleb128 0x2137
 2819 0231 17       		.uleb128 0x17
 2820 0232 00       		.byte	0
 2821 0233 00       		.byte	0
 2822 0234 26       		.uleb128 0x26
 2823 0235 898201   		.uleb128 0x4109
 2824 0238 00       		.byte	0
 2825 0239 11       		.uleb128 0x11
 2826 023a 01       		.uleb128 0x1
 2827 023b 31       		.uleb128 0x31
 2828 023c 13       		.uleb128 0x13
 2829 023d 00       		.byte	0
 2830 023e 00       		.byte	0
 2831 023f 27       		.uleb128 0x27
 2832 0240 0B       		.uleb128 0xb
 2833 0241 01       		.byte	0x1
 2834 0242 55       		.uleb128 0x55
 2835 0243 17       		.uleb128 0x17
 2836 0244 00       		.byte	0
 2837 0245 00       		.byte	0
 2838 0246 28       		.uleb128 0x28
 2839 0247 1D       		.uleb128 0x1d
 2840 0248 01       		.byte	0x1
 2841 0249 31       		.uleb128 0x31
 2842 024a 13       		.uleb128 0x13
 2843 024b 52       		.uleb128 0x52
 2844 024c 01       		.uleb128 0x1
 2845 024d B842     		.uleb128 0x2138
ARM GAS  /tmp/cc8LVlpv.s 			page 51


 2846 024f 0B       		.uleb128 0xb
 2847 0250 11       		.uleb128 0x11
 2848 0251 01       		.uleb128 0x1
 2849 0252 12       		.uleb128 0x12
 2850 0253 06       		.uleb128 0x6
 2851 0254 58       		.uleb128 0x58
 2852 0255 0B       		.uleb128 0xb
 2853 0256 59       		.uleb128 0x59
 2854 0257 05       		.uleb128 0x5
 2855 0258 57       		.uleb128 0x57
 2856 0259 0B       		.uleb128 0xb
 2857 025a 00       		.byte	0
 2858 025b 00       		.byte	0
 2859 025c 29       		.uleb128 0x29
 2860 025d 898201   		.uleb128 0x4109
 2861 0260 01       		.byte	0x1
 2862 0261 11       		.uleb128 0x11
 2863 0262 01       		.uleb128 0x1
 2864 0263 31       		.uleb128 0x31
 2865 0264 13       		.uleb128 0x13
 2866 0265 00       		.byte	0
 2867 0266 00       		.byte	0
 2868 0267 2A       		.uleb128 0x2a
 2869 0268 8A8201   		.uleb128 0x410a
 2870 026b 00       		.byte	0
 2871 026c 02       		.uleb128 0x2
 2872 026d 18       		.uleb128 0x18
 2873 026e 9142     		.uleb128 0x2111
 2874 0270 18       		.uleb128 0x18
 2875 0271 00       		.byte	0
 2876 0272 00       		.byte	0
 2877 0273 2B       		.uleb128 0x2b
 2878 0274 898201   		.uleb128 0x4109
 2879 0277 01       		.byte	0x1
 2880 0278 11       		.uleb128 0x11
 2881 0279 01       		.uleb128 0x1
 2882 027a 31       		.uleb128 0x31
 2883 027b 13       		.uleb128 0x13
 2884 027c 01       		.uleb128 0x1
 2885 027d 13       		.uleb128 0x13
 2886 027e 00       		.byte	0
 2887 027f 00       		.byte	0
 2888 0280 2C       		.uleb128 0x2c
 2889 0281 2E       		.uleb128 0x2e
 2890 0282 01       		.byte	0x1
 2891 0283 03       		.uleb128 0x3
 2892 0284 0E       		.uleb128 0xe
 2893 0285 3A       		.uleb128 0x3a
 2894 0286 0B       		.uleb128 0xb
 2895 0287 3B       		.uleb128 0x3b
 2896 0288 05       		.uleb128 0x5
 2897 0289 39       		.uleb128 0x39
 2898 028a 0B       		.uleb128 0xb
 2899 028b 27       		.uleb128 0x27
 2900 028c 19       		.uleb128 0x19
 2901 028d 20       		.uleb128 0x20
 2902 028e 0B       		.uleb128 0xb
ARM GAS  /tmp/cc8LVlpv.s 			page 52


 2903 028f 01       		.uleb128 0x1
 2904 0290 13       		.uleb128 0x13
 2905 0291 00       		.byte	0
 2906 0292 00       		.byte	0
 2907 0293 2D       		.uleb128 0x2d
 2908 0294 2E       		.uleb128 0x2e
 2909 0295 00       		.byte	0
 2910 0296 03       		.uleb128 0x3
 2911 0297 0E       		.uleb128 0xe
 2912 0298 3A       		.uleb128 0x3a
 2913 0299 0B       		.uleb128 0xb
 2914 029a 3B       		.uleb128 0x3b
 2915 029b 05       		.uleb128 0x5
 2916 029c 39       		.uleb128 0x39
 2917 029d 0B       		.uleb128 0xb
 2918 029e 27       		.uleb128 0x27
 2919 029f 19       		.uleb128 0x19
 2920 02a0 20       		.uleb128 0x20
 2921 02a1 0B       		.uleb128 0xb
 2922 02a2 00       		.byte	0
 2923 02a3 00       		.byte	0
 2924 02a4 2E       		.uleb128 0x2e
 2925 02a5 05       		.uleb128 0x5
 2926 02a6 00       		.byte	0
 2927 02a7 03       		.uleb128 0x3
 2928 02a8 0E       		.uleb128 0xe
 2929 02a9 3A       		.uleb128 0x3a
 2930 02aa 0B       		.uleb128 0xb
 2931 02ab 3B       		.uleb128 0x3b
 2932 02ac 05       		.uleb128 0x5
 2933 02ad 39       		.uleb128 0x39
 2934 02ae 0B       		.uleb128 0xb
 2935 02af 49       		.uleb128 0x49
 2936 02b0 13       		.uleb128 0x13
 2937 02b1 00       		.byte	0
 2938 02b2 00       		.byte	0
 2939 02b3 2F       		.uleb128 0x2f
 2940 02b4 2E       		.uleb128 0x2e
 2941 02b5 00       		.byte	0
 2942 02b6 3F       		.uleb128 0x3f
 2943 02b7 19       		.uleb128 0x19
 2944 02b8 3C       		.uleb128 0x3c
 2945 02b9 19       		.uleb128 0x19
 2946 02ba 6E       		.uleb128 0x6e
 2947 02bb 0E       		.uleb128 0xe
 2948 02bc 03       		.uleb128 0x3
 2949 02bd 0E       		.uleb128 0xe
 2950 02be 3A       		.uleb128 0x3a
 2951 02bf 0B       		.uleb128 0xb
 2952 02c0 3B       		.uleb128 0x3b
 2953 02c1 0B       		.uleb128 0xb
 2954 02c2 39       		.uleb128 0x39
 2955 02c3 0B       		.uleb128 0xb
 2956 02c4 00       		.byte	0
 2957 02c5 00       		.byte	0
 2958 02c6 30       		.uleb128 0x30
 2959 02c7 2E       		.uleb128 0x2e
ARM GAS  /tmp/cc8LVlpv.s 			page 53


 2960 02c8 00       		.byte	0
 2961 02c9 3F       		.uleb128 0x3f
 2962 02ca 19       		.uleb128 0x19
 2963 02cb 3C       		.uleb128 0x3c
 2964 02cc 19       		.uleb128 0x19
 2965 02cd 6E       		.uleb128 0x6e
 2966 02ce 0E       		.uleb128 0xe
 2967 02cf 03       		.uleb128 0x3
 2968 02d0 0E       		.uleb128 0xe
 2969 02d1 3A       		.uleb128 0x3a
 2970 02d2 0B       		.uleb128 0xb
 2971 02d3 3B       		.uleb128 0x3b
 2972 02d4 05       		.uleb128 0x5
 2973 02d5 39       		.uleb128 0x39
 2974 02d6 0B       		.uleb128 0xb
 2975 02d7 00       		.byte	0
 2976 02d8 00       		.byte	0
 2977 02d9 31       		.uleb128 0x31
 2978 02da 2E       		.uleb128 0x2e
 2979 02db 00       		.byte	0
 2980 02dc 3F       		.uleb128 0x3f
 2981 02dd 19       		.uleb128 0x19
 2982 02de 3C       		.uleb128 0x3c
 2983 02df 19       		.uleb128 0x19
 2984 02e0 6E       		.uleb128 0x6e
 2985 02e1 0E       		.uleb128 0xe
 2986 02e2 03       		.uleb128 0x3
 2987 02e3 0E       		.uleb128 0xe
 2988 02e4 00       		.byte	0
 2989 02e5 00       		.byte	0
 2990 02e6 00       		.byte	0
 2991              		.section	.debug_loc,"",%progbits
 2992              	.Ldebug_loc0:
 2993              	.LVUS3:
 2994 0000 00       		.uleb128 0
 2995 0001 00       		.uleb128 .LVU52
 2996 0002 00       		.uleb128 .LVU52
 2997 0003 00       		.uleb128 0
 2998              	.LLST3:
 2999 0004 00000000 		.4byte	.LVL12
 3000 0008 19000000 		.4byte	.LVL15-1
 3001 000c 0100     		.2byte	0x1
 3002 000e 50       		.byte	0x50
 3003 000f 19000000 		.4byte	.LVL15-1
 3004 0013 94000000 		.4byte	.LFE220
 3005 0017 0100     		.2byte	0x1
 3006 0019 55       		.byte	0x55
 3007 001a 00000000 		.4byte	0
 3008 001e 00000000 		.4byte	0
 3009              	.LVUS4:
 3010 0022 00       		.uleb128 .LVU57
 3011 0023 00       		.uleb128 .LVU86
 3012 0024 00       		.uleb128 .LVU86
 3013 0025 00       		.uleb128 .LVU87
 3014 0026 00       		.uleb128 .LVU87
 3015 0027 00       		.uleb128 0
 3016              	.LLST4:
ARM GAS  /tmp/cc8LVlpv.s 			page 54


 3017 0028 22000000 		.4byte	.LVL17
 3018 002c 7E000000 		.4byte	.LVL27
 3019 0030 0100     		.2byte	0x1
 3020 0032 54       		.byte	0x54
 3021 0033 7E000000 		.4byte	.LVL27
 3022 0037 80000000 		.4byte	.LVL28
 3023 003b 0200     		.2byte	0x2
 3024 003d 75       		.byte	0x75
 3025 003e 10       		.sleb128 16
 3026 003f 80000000 		.4byte	.LVL28
 3027 0043 94000000 		.4byte	.LFE220
 3028 0047 0100     		.2byte	0x1
 3029 0049 54       		.byte	0x54
 3030 004a 00000000 		.4byte	0
 3031 004e 00000000 		.4byte	0
 3032              	.LVUS5:
 3033 0052 06       		.uleb128 .LVU46
 3034 0053 00       		.uleb128 .LVU50
 3035              	.LLST5:
 3036 0054 0E000000 		.4byte	.LVL13
 3037 0058 16000000 		.4byte	.LVL14
 3038 005c 0300     		.2byte	0x3
 3039 005e 08       		.byte	0x8
 3040 005f 20       		.byte	0x20
 3041 0060 9F       		.byte	0x9f
 3042 0061 00000000 		.4byte	0
 3043 0065 00000000 		.4byte	0
 3044              	.LVUS6:
 3045 0069 04       		.uleb128 .LVU76
 3046 006a 00       		.uleb128 .LVU78
 3047              	.LLST6:
 3048 006b 4C000000 		.4byte	.LVL21
 3049 006f 52000000 		.4byte	.LVL22
 3050 0073 0200     		.2byte	0x2
 3051 0075 30       		.byte	0x30
 3052 0076 9F       		.byte	0x9f
 3053 0077 00000000 		.4byte	0
 3054 007b 00000000 		.4byte	0
 3055              	.LVUS0:
 3056 007f 00       		.uleb128 .LVU17
 3057 0080 00       		.uleb128 0
 3058              	.LLST0:
 3059 0081 20000000 		.4byte	.LVL4
 3060 0085 70000000 		.4byte	.LFE219
 3061 0089 0100     		.2byte	0x1
 3062 008b 55       		.byte	0x55
 3063 008c 00000000 		.4byte	0
 3064 0090 00000000 		.4byte	0
 3065              	.LVUS1:
 3066 0094 06       		.uleb128 .LVU8
 3067 0095 00       		.uleb128 .LVU10
 3068              	.LLST1:
 3069 0096 0E000000 		.4byte	.LVL0
 3070 009a 14000000 		.4byte	.LVL1
 3071 009e 0300     		.2byte	0x3
 3072 00a0 08       		.byte	0x8
 3073 00a1 20       		.byte	0x20
ARM GAS  /tmp/cc8LVlpv.s 			page 55


 3074 00a2 9F       		.byte	0x9f
 3075 00a3 00000000 		.4byte	0
 3076 00a7 00000000 		.4byte	0
 3077              	.LVUS2:
 3078 00ab 04       		.uleb128 .LVU30
 3079 00ac 00       		.uleb128 .LVU32
 3080              	.LLST2:
 3081 00ad 42000000 		.4byte	.LVL7
 3082 00b1 48000000 		.4byte	.LVL8
 3083 00b5 0200     		.2byte	0x2
 3084 00b7 30       		.byte	0x30
 3085 00b8 9F       		.byte	0x9f
 3086 00b9 00000000 		.4byte	0
 3087 00bd 00000000 		.4byte	0
 3088              		.section	.debug_aranges,"",%progbits
 3089 0000 24000000 		.4byte	0x24
 3090 0004 0200     		.2byte	0x2
 3091 0006 00000000 		.4byte	.Ldebug_info0
 3092 000a 04       		.byte	0x4
 3093 000b 00       		.byte	0
 3094 000c 0000     		.2byte	0
 3095 000e 0000     		.2byte	0
 3096 0010 00000000 		.4byte	.LFB219
 3097 0014 70000000 		.4byte	.LFE219-.LFB219
 3098 0018 00000000 		.4byte	.LFB220
 3099 001c 94000000 		.4byte	.LFE220-.LFB220
 3100 0020 00000000 		.4byte	0
 3101 0024 00000000 		.4byte	0
 3102              		.section	.debug_ranges,"",%progbits
 3103              	.Ldebug_ranges0:
 3104 0000 0E000000 		.4byte	.LBB34
 3105 0004 0E000000 		.4byte	.LBE34
 3106 0008 0E000000 		.4byte	.LBB42
 3107 000c 14000000 		.4byte	.LBE42
 3108 0010 16000000 		.4byte	.LBB43
 3109 0014 1E000000 		.4byte	.LBE43
 3110 0018 00000000 		.4byte	0
 3111 001c 00000000 		.4byte	0
 3112 0020 0E000000 		.4byte	.LBB36
 3113 0024 0E000000 		.4byte	.LBE36
 3114 0028 0E000000 		.4byte	.LBB39
 3115 002c 14000000 		.4byte	.LBE39
 3116 0030 00000000 		.4byte	0
 3117 0034 00000000 		.4byte	0
 3118 0038 2A000000 		.4byte	.LBB44
 3119 003c 42000000 		.4byte	.LBE44
 3120 0040 42000000 		.4byte	.LBB52
 3121 0044 48000000 		.4byte	.LBE52
 3122 0048 58000000 		.4byte	.LBB53
 3123 004c 60000000 		.4byte	.LBE53
 3124 0050 00000000 		.4byte	0
 3125 0054 00000000 		.4byte	0
 3126 0058 42000000 		.4byte	.LBB46
 3127 005c 42000000 		.4byte	.LBE46
 3128 0060 42000000 		.4byte	.LBB49
 3129 0064 48000000 		.4byte	.LBE49
 3130 0068 00000000 		.4byte	0
ARM GAS  /tmp/cc8LVlpv.s 			page 56


 3131 006c 00000000 		.4byte	0
 3132 0070 0E000000 		.4byte	.LBB64
 3133 0074 0E000000 		.4byte	.LBE64
 3134 0078 0E000000 		.4byte	.LBB76
 3135 007c 0E000000 		.4byte	.LBE76
 3136 0080 10000000 		.4byte	.LBB77
 3137 0084 1A000000 		.4byte	.LBE77
 3138 0088 1C000000 		.4byte	.LBB78
 3139 008c 20000000 		.4byte	.LBE78
 3140 0090 00000000 		.4byte	0
 3141 0094 00000000 		.4byte	0
 3142 0098 0E000000 		.4byte	.LBB66
 3143 009c 0E000000 		.4byte	.LBE66
 3144 00a0 0E000000 		.4byte	.LBB71
 3145 00a4 0E000000 		.4byte	.LBE71
 3146 00a8 10000000 		.4byte	.LBB72
 3147 00ac 16000000 		.4byte	.LBE72
 3148 00b0 00000000 		.4byte	0
 3149 00b4 00000000 		.4byte	0
 3150 00b8 34000000 		.4byte	.LBB79
 3151 00bc 4C000000 		.4byte	.LBE79
 3152 00c0 4C000000 		.4byte	.LBB87
 3153 00c4 52000000 		.4byte	.LBE87
 3154 00c8 68000000 		.4byte	.LBB88
 3155 00cc 70000000 		.4byte	.LBE88
 3156 00d0 00000000 		.4byte	0
 3157 00d4 00000000 		.4byte	0
 3158 00d8 4C000000 		.4byte	.LBB81
 3159 00dc 4C000000 		.4byte	.LBE81
 3160 00e0 4C000000 		.4byte	.LBB84
 3161 00e4 52000000 		.4byte	.LBE84
 3162 00e8 00000000 		.4byte	0
 3163 00ec 00000000 		.4byte	0
 3164 00f0 00000000 		.4byte	.LFB219
 3165 00f4 70000000 		.4byte	.LFE219
 3166 00f8 00000000 		.4byte	.LFB220
 3167 00fc 94000000 		.4byte	.LFE220
 3168 0100 00000000 		.4byte	0
 3169 0104 00000000 		.4byte	0
 3170              		.section	.debug_line,"",%progbits
 3171              	.Ldebug_line0:
 3172 0000 AB030000 		.section	.debug_str,"MS",%progbits,1
 3172      0300FB01 
 3172      00000201 
 3172      FB0E0D00 
 3172      01010101 
 3173              	.LASF141:
 3174 0000 63665F6F 		.ascii	"cf_off_older\000"
 3174      66665F6F 
 3174      6C646572 
 3174      00
 3175              	.LASF56:
 3176 000d 72656164 		.ascii	"ready_list_t\000"
 3176      795F6C69 
 3176      73745F74 
 3176      00
 3177              	.LASF94:
ARM GAS  /tmp/cc8LVlpv.s 			page 57


 3178 001a 73655F74 		.ascii	"se_time\000"
 3178      696D6500 
 3179              	.LASF5:
 3180 0022 73697A65 		.ascii	"size_t\000"
 3180      5F7400
 3181              	.LASF115:
 3182 0029 7264796D 		.ascii	"rdymsg\000"
 3182      736700
 3183              	.LASF14:
 3184 0030 75696E74 		.ascii	"uint64_t\000"
 3184      36345F74 
 3184      00
 3185              	.LASF86:
 3186 0039 6B65726E 		.ascii	"kernel_stats\000"
 3186      656C5F73 
 3186      74617473 
 3186      00
 3187              	.LASF167:
 3188 0046 2E2F2F43 		.ascii	".//ChibiOS//os/rt/src/chregistry.c\000"
 3188      68696269 
 3188      4F532F2F 
 3188      6F732F72 
 3188      742F7372 
 3189              	.LASF93:
 3190 0069 706F7274 		.ascii	"port_intctx\000"
 3190      5F696E74 
 3190      63747800 
 3191              	.LASF55:
 3192 0075 63685F74 		.ascii	"ch_threads_queue\000"
 3192      68726561 
 3192      64735F71 
 3192      75657565 
 3192      00
 3193              	.LASF75:
 3194 0086 73797374 		.ascii	"system_debug_t\000"
 3194      656D5F64 
 3194      65627567 
 3194      5F7400
 3195              	.LASF157:
 3196 0095 706F7274 		.ascii	"port_lock\000"
 3196      5F6C6F63 
 3196      6B00
 3197              	.LASF106:
 3198 009f 776F7273 		.ascii	"worst\000"
 3198      7400
 3199              	.LASF109:
 3200 00a5 74696D65 		.ascii	"time_measurement_t\000"
 3200      5F6D6561 
 3200      73757265 
 3200      6D656E74 
 3200      5F7400
 3201              	.LASF15:
 3202 00b8 6C6F6E67 		.ascii	"long long unsigned int\000"
 3202      206C6F6E 
 3202      6720756E 
 3202      7369676E 
 3202      65642069 
ARM GAS  /tmp/cc8LVlpv.s 			page 58


 3203              	.LASF102:
 3204 00cf 63685F74 		.ascii	"ch_trace_buffer_t\000"
 3204      72616365 
 3204      5F627566 
 3204      6665725F 
 3204      7400
 3205              	.LASF137:
 3206 00e1 63685F74 		.ascii	"ch_threadsize\000"
 3206      68726561 
 3206      6473697A 
 3206      6500
 3207              	.LASF116:
 3208 00ef 65786974 		.ascii	"exitcode\000"
 3208      636F6465 
 3208      00
 3209              	.LASF85:
 3210 00f8 6D61696E 		.ascii	"mainthread\000"
 3210      74687265 
 3210      616400
 3211              	.LASF160:
 3212 0103 5F737461 		.ascii	"_stats_start_measure_crit_thd\000"
 3212      74735F73 
 3212      74617274 
 3212      5F6D6561 
 3212      73757265 
 3213              	.LASF153:
 3214 0121 63685265 		.ascii	"chRegFirstThread\000"
 3214      67466972 
 3214      73745468 
 3214      72656164 
 3214      00
 3215              	.LASF88:
 3216 0132 49544D5F 		.ascii	"ITM_RxBuffer\000"
 3216      52784275 
 3216      66666572 
 3216      00
 3217              	.LASF17:
 3218 013f 72747469 		.ascii	"rttime_t\000"
 3218      6D655F74 
 3218      00
 3219              	.LASF31:
 3220 0148 705F7072 		.ascii	"p_prio\000"
 3220      696F00
 3221              	.LASF144:
 3222 014f 63665F6F 		.ascii	"cf_off_state\000"
 3222      66665F73 
 3222      74617465 
 3222      00
 3223              	.LASF1:
 3224 015c 6C6F6E67 		.ascii	"long long int\000"
 3224      206C6F6E 
 3224      6720696E 
 3224      7400
 3225              	.LASF3:
 3226 016a 7369676E 		.ascii	"signed char\000"
 3226      65642063 
 3226      68617200 
ARM GAS  /tmp/cc8LVlpv.s 			page 59


 3227              	.LASF143:
 3228 0176 63665F6F 		.ascii	"cf_off_stklimit\000"
 3228      66665F73 
 3228      746B6C69 
 3228      6D697400 
 3229              	.LASF145:
 3230 0186 63665F6F 		.ascii	"cf_off_flags\000"
 3230      66665F66 
 3230      6C616773 
 3230      00
 3231              	.LASF48:
 3232 0193 705F6D70 		.ascii	"p_mpool\000"
 3232      6F6F6C00 
 3233              	.LASF126:
 3234 019b 6D5F7175 		.ascii	"m_queue\000"
 3234      65756500 
 3235              	.LASF84:
 3236 01a3 76746C69 		.ascii	"vtlist\000"
 3236      737400
 3237              	.LASF156:
 3238 01aa 706F7274 		.ascii	"port_unlock\000"
 3238      5F756E6C 
 3238      6F636B00 
 3239              	.LASF21:
 3240 01b6 74736C69 		.ascii	"tslices_t\000"
 3240      6365735F 
 3240      7400
 3241              	.LASF118:
 3242 01c0 77747472 		.ascii	"wttrp\000"
 3242      7000
 3243              	.LASF82:
 3244 01c6 63685F73 		.ascii	"ch_system\000"
 3244      79737465 
 3244      6D00
 3245              	.LASF7:
 3246 01d0 6C6F6E67 		.ascii	"long int\000"
 3246      20696E74 
 3246      00
 3247              	.LASF19:
 3248 01d9 74737461 		.ascii	"tstate_t\000"
 3248      74655F74 
 3248      00
 3249              	.LASF95:
 3250 01e2 73655F74 		.ascii	"se_tp\000"
 3250      7000
 3251              	.LASF149:
 3252 01e8 63686465 		.ascii	"chdebug_t\000"
 3252      6275675F 
 3252      7400
 3253              	.LASF33:
 3254 01f2 705F6E65 		.ascii	"p_newer\000"
 3254      77657200 
 3255              	.LASF123:
 3256 01fa 735F7175 		.ascii	"s_queue\000"
 3256      65756500 
 3257              	.LASF99:
 3258 0202 74625F73 		.ascii	"tb_size\000"
ARM GAS  /tmp/cc8LVlpv.s 			page 60


 3258      697A6500 
 3259              	.LASF61:
 3260 020a 725F6E65 		.ascii	"r_newer\000"
 3260      77657200 
 3261              	.LASF90:
 3262 0212 72656761 		.ascii	"regarm_t\000"
 3262      726D5F74 
 3262      00
 3263              	.LASF68:
 3264 021b 76745F70 		.ascii	"vt_prev\000"
 3264      72657600 
 3265              	.LASF164:
 3266 0223 63685379 		.ascii	"chSysHalt\000"
 3266      7348616C 
 3266      7400
 3267              	.LASF76:
 3268 022d 63685F73 		.ascii	"ch_system_debug\000"
 3268      79737465 
 3268      6D5F6465 
 3268      62756700 
 3269              	.LASF129:
 3270 023d 6D5F636E 		.ascii	"m_cnt\000"
 3270      7400
 3271              	.LASF151:
 3272 0243 6D757465 		.ascii	"mutex_t\000"
 3272      785F7400 
 3273              	.LASF169:
 3274 024b 76616C75 		.ascii	"value\000"
 3274      6500
 3275              	.LASF79:
 3276 0251 6C6F636B 		.ascii	"lock_cnt\000"
 3276      5F636E74 
 3276      00
 3277              	.LASF87:
 3278 025a 69646C65 		.ascii	"idle_thread_wa\000"
 3278      5F746872 
 3278      6561645F 
 3278      776100
 3279              	.LASF25:
 3280 0269 636E745F 		.ascii	"cnt_t\000"
 3280      7400
 3281              	.LASF36:
 3282 026f 705F7374 		.ascii	"p_stklimit\000"
 3282      6B6C696D 
 3282      697400
 3283              	.LASF0:
 3284 027a 756E7369 		.ascii	"unsigned int\000"
 3284      676E6564 
 3284      20696E74 
 3284      00
 3285              	.LASF67:
 3286 0287 76745F6E 		.ascii	"vt_next\000"
 3286      65787400 
 3287              	.LASF10:
 3288 028f 75696E74 		.ascii	"uint16_t\000"
 3288      31365F74 
 3288      00
ARM GAS  /tmp/cc8LVlpv.s 			page 61


 3289              	.LASF89:
 3290 0298 53797374 		.ascii	"SystemCoreClock\000"
 3290      656D436F 
 3290      7265436C 
 3290      6F636B00 
 3291              	.LASF41:
 3292 02a8 705F7469 		.ascii	"p_time\000"
 3292      6D6500
 3293              	.LASF119:
 3294 02af 77747365 		.ascii	"wtsemp\000"
 3294      6D7000
 3295              	.LASF69:
 3296 02b6 76745F64 		.ascii	"vt_delta\000"
 3296      656C7461 
 3296      00
 3297              	.LASF43:
 3298 02bf 705F6D73 		.ascii	"p_msgqueue\000"
 3298      67717565 
 3298      756500
 3299              	.LASF150:
 3300 02ca 63685F64 		.ascii	"ch_debug\000"
 3300      65627567 
 3300      00
 3301              	.LASF110:
 3302 02d3 6E5F6972 		.ascii	"n_irq\000"
 3302      7100
 3303              	.LASF168:
 3304 02d9 2F686F6D 		.ascii	"/home/olof/Documents/MICRO-315/micro-315/tp4/lib/e-"
 3304      652F6F6C 
 3304      6F662F44 
 3304      6F63756D 
 3304      656E7473 
 3305 030c 7075636B 		.ascii	"puck2_main-processor\000"
 3305      325F6D61 
 3305      696E2D70 
 3305      726F6365 
 3305      73736F72 
 3306              	.LASF124:
 3307 0321 735F636E 		.ascii	"s_cnt\000"
 3307      7400
 3308              	.LASF11:
 3309 0327 73686F72 		.ascii	"short unsigned int\000"
 3309      7420756E 
 3309      7369676E 
 3309      65642069 
 3309      6E7400
 3310              	.LASF114:
 3311 033a 6B65726E 		.ascii	"kernel_stats_t\000"
 3311      656C5F73 
 3311      74617473 
 3311      5F7400
 3312              	.LASF52:
 3313 0349 63685F74 		.ascii	"ch_thread\000"
 3313      68726561 
 3313      6400
 3314              	.LASF23:
 3315 0353 6D73675F 		.ascii	"msg_t\000"
ARM GAS  /tmp/cc8LVlpv.s 			page 62


 3315      7400
 3316              	.LASF107:
 3317 0359 6C617374 		.ascii	"last\000"
 3317      00
 3318              	.LASF26:
 3319 035e 75636E74 		.ascii	"ucnt_t\000"
 3319      5F7400
 3320              	.LASF81:
 3321 0365 63685F73 		.ascii	"ch_system_t\000"
 3321      79737465 
 3321      6D5F7400 
 3322              	.LASF148:
 3323 0371 63665F6F 		.ascii	"cf_off_time\000"
 3323      66665F74 
 3323      696D6500 
 3324              	.LASF113:
 3325 037d 6D5F6372 		.ascii	"m_crit_isr\000"
 3325      69745F69 
 3325      737200
 3326              	.LASF57:
 3327 0388 63685F72 		.ascii	"ch_ready_list\000"
 3327      65616479 
 3327      5F6C6973 
 3327      7400
 3328              	.LASF24:
 3329 0396 6576656E 		.ascii	"eventmask_t\000"
 3329      746D6173 
 3329      6B5F7400 
 3330              	.LASF72:
 3331 03a2 76697274 		.ascii	"virtual_timers_list_t\000"
 3331      75616C5F 
 3331      74696D65 
 3331      72735F6C 
 3331      6973745F 
 3332              	.LASF91:
 3333 03b8 73746B61 		.ascii	"stkalign_t\000"
 3333      6C69676E 
 3333      5F7400
 3334              	.LASF51:
 3335 03c3 74687265 		.ascii	"threads_list_t\000"
 3335      6164735F 
 3335      6C697374 
 3335      5F7400
 3336              	.LASF132:
 3337 03d2 63685F7A 		.ascii	"ch_zero\000"
 3337      65726F00 
 3338              	.LASF146:
 3339 03da 63665F6F 		.ascii	"cf_off_refs\000"
 3339      66665F72 
 3339      65667300 
 3340              	.LASF42:
 3341 03e6 705F7761 		.ascii	"p_waiting\000"
 3341      6974696E 
 3341      6700
 3342              	.LASF163:
 3343 03f0 5F737461 		.ascii	"_stats_stop_measure_crit_thd\000"
 3343      74735F73 
ARM GAS  /tmp/cc8LVlpv.s 			page 63


 3343      746F705F 
 3343      6D656173 
 3343      7572655F 
 3344              	.LASF16:
 3345 040d 7274636E 		.ascii	"rtcnt_t\000"
 3345      745F7400 
 3346              	.LASF161:
 3347 0415 5F646267 		.ascii	"_dbg_check_lock\000"
 3347      5F636865 
 3347      636B5F6C 
 3347      6F636B00 
 3348              	.LASF73:
 3349 0425 63685F76 		.ascii	"ch_virtual_timers_list\000"
 3349      69727475 
 3349      616C5F74 
 3349      696D6572 
 3349      735F6C69 
 3350              	.LASF2:
 3351 043c 6C6F6E67 		.ascii	"long double\000"
 3351      20646F75 
 3351      626C6500 
 3352              	.LASF136:
 3353 0448 63685F74 		.ascii	"ch_timesize\000"
 3353      696D6573 
 3353      697A6500 
 3354              	.LASF100:
 3355 0454 74625F70 		.ascii	"tb_ptr\000"
 3355      747200
 3356              	.LASF98:
 3357 045b 63685F73 		.ascii	"ch_swc_event_t\000"
 3357      77635F65 
 3357      76656E74 
 3357      5F7400
 3358              	.LASF142:
 3359 046a 63665F6F 		.ascii	"cf_off_name\000"
 3359      66665F6E 
 3359      616D6500 
 3360              	.LASF34:
 3361 0476 705F6F6C 		.ascii	"p_older\000"
 3361      64657200 
 3362              	.LASF60:
 3363 047e 725F6374 		.ascii	"r_ctx\000"
 3363      7800
 3364              	.LASF32:
 3365 0484 705F6374 		.ascii	"p_ctx\000"
 3365      7800
 3366              	.LASF104:
 3367 048a 746D5F63 		.ascii	"tm_calibration_t\000"
 3367      616C6962 
 3367      72617469 
 3367      6F6E5F74 
 3367      00
 3368              	.LASF166:
 3369 049b 474E5520 		.ascii	"GNU C17 9.2.1 20191025 (release) [ARM/arm-9-branch "
 3369      43313720 
 3369      392E322E 
 3369      31203230 
ARM GAS  /tmp/cc8LVlpv.s 			page 64


 3369      31393130 
 3370 04ce 72657669 		.ascii	"revision 277599] -mcpu=cortex-m4 -mfloat-abi=hard -"
 3370      73696F6E 
 3370      20323737 
 3370      3539395D 
 3370      202D6D63 
 3371 0501 6D667075 		.ascii	"mfpu=fpv4-sp-d16 -mno-thumb-interwork -mthumb -marc"
 3371      3D667076 
 3371      342D7370 
 3371      2D643136 
 3371      202D6D6E 
 3372 0534 683D6172 		.ascii	"h=armv7e-m+fp -ggdb -O2 -fomit-frame-pointer -falig"
 3372      6D763765 
 3372      2D6D2B66 
 3372      70202D67 
 3372      67646220 
 3373 0567 6E2D6675 		.ascii	"n-functions=16 -fno-strict-aliasing -fstack-protect"
 3373      6E637469 
 3373      6F6E733D 
 3373      3136202D 
 3373      666E6F2D 
 3374 059a 6F722D61 		.ascii	"or-all -ffunction-sections -fdata-sections -fno-com"
 3374      6C6C202D 
 3374      6666756E 
 3374      6374696F 
 3374      6E2D7365 
 3375 05cd 6D6F6E20 		.ascii	"mon -fsingle-precision-constant\000"
 3375      2D667369 
 3375      6E676C65 
 3375      2D707265 
 3375      63697369 
 3376              	.LASF63:
 3377 05ed 725F6375 		.ascii	"r_current\000"
 3377      7272656E 
 3377      7400
 3378              	.LASF62:
 3379 05f7 725F6F6C 		.ascii	"r_older\000"
 3379      64657200 
 3380              	.LASF108:
 3381 05ff 63756D75 		.ascii	"cumulative\000"
 3381      6C617469 
 3381      766500
 3382              	.LASF20:
 3383 060a 74726566 		.ascii	"trefs_t\000"
 3383      735F7400 
 3384              	.LASF101:
 3385 0612 74625F62 		.ascii	"tb_buffer\000"
 3385      75666665 
 3385      7200
 3386              	.LASF135:
 3387 061c 63685F70 		.ascii	"ch_ptrsize\000"
 3387      74727369 
 3387      7A6500
 3388              	.LASF65:
 3389 0627 76697274 		.ascii	"virtual_timer_t\000"
 3389      75616C5F 
 3389      74696D65 
ARM GAS  /tmp/cc8LVlpv.s 			page 65


 3389      725F7400 
 3390              	.LASF30:
 3391 0637 705F7072 		.ascii	"p_prev\000"
 3391      657600
 3392              	.LASF22:
 3393 063e 74707269 		.ascii	"tprio_t\000"
 3393      6F5F7400 
 3394              	.LASF111:
 3395 0646 6E5F6374 		.ascii	"n_ctxswc\000"
 3395      78737763 
 3395      00
 3396              	.LASF6:
 3397 064f 696E7433 		.ascii	"int32_t\000"
 3397      325F7400 
 3398              	.LASF9:
 3399 0657 756E7369 		.ascii	"unsigned char\000"
 3399      676E6564 
 3399      20636861 
 3399      7200
 3400              	.LASF46:
 3401 0665 705F6D74 		.ascii	"p_mtxlist\000"
 3401      786C6973 
 3401      7400
 3402              	.LASF4:
 3403 066f 73686F72 		.ascii	"short int\000"
 3403      7420696E 
 3403      7400
 3404              	.LASF37:
 3405 0679 705F7374 		.ascii	"p_state\000"
 3405      61746500 
 3406              	.LASF40:
 3407 0681 705F7072 		.ascii	"p_preempt\000"
 3407      65656D70 
 3407      7400
 3408              	.LASF59:
 3409 068b 725F7072 		.ascii	"r_prio\000"
 3409      696F00
 3410              	.LASF121:
 3411 0692 65776D61 		.ascii	"ewmask\000"
 3411      736B00
 3412              	.LASF29:
 3413 0699 705F6E65 		.ascii	"p_next\000"
 3413      787400
 3414              	.LASF18:
 3415 06a0 746D6F64 		.ascii	"tmode_t\000"
 3415      655F7400 
 3416              	.LASF147:
 3417 06a8 63665F6F 		.ascii	"cf_off_preempt\000"
 3417      66665F70 
 3417      7265656D 
 3417      707400
 3418              	.LASF38:
 3419 06b7 705F666C 		.ascii	"p_flags\000"
 3419      61677300 
 3420              	.LASF154:
 3421 06bf 5F5F6675 		.ascii	"__func__\000"
 3421      6E635F5F 
ARM GAS  /tmp/cc8LVlpv.s 			page 66


 3421      00
 3422              	.LASF49:
 3423 06c8 705F7374 		.ascii	"p_stats\000"
 3423      61747300 
 3424              	.LASF155:
 3425 06d0 63685379 		.ascii	"chSysLock\000"
 3425      734C6F63 
 3425      6B00
 3426              	.LASF165:
 3427 06da 63685468 		.ascii	"chThdRelease\000"
 3427      6452656C 
 3427      65617365 
 3427      00
 3428              	.LASF54:
 3429 06e7 74687265 		.ascii	"threads_queue_t\000"
 3429      6164735F 
 3429      71756575 
 3429      655F7400 
 3430              	.LASF66:
 3431 06f7 63685F76 		.ascii	"ch_virtual_timer\000"
 3431      69727475 
 3431      616C5F74 
 3431      696D6572 
 3431      00
 3432              	.LASF140:
 3433 0708 63665F6F 		.ascii	"cf_off_newer\000"
 3433      66665F6E 
 3433      65776572 
 3433      00
 3434              	.LASF170:
 3435 0715 5F5F7374 		.ascii	"__stack_chk_fail\000"
 3435      61636B5F 
 3435      63686B5F 
 3435      6661696C 
 3435      00
 3436              	.LASF122:
 3437 0726 63685F73 		.ascii	"ch_semaphore\000"
 3437      656D6170 
 3437      686F7265 
 3437      00
 3438              	.LASF45:
 3439 0733 705F6570 		.ascii	"p_epending\000"
 3439      656E6469 
 3439      6E6700
 3440              	.LASF12:
 3441 073e 75696E74 		.ascii	"uint32_t\000"
 3441      33325F74 
 3441      00
 3442              	.LASF138:
 3443 0747 63665F6F 		.ascii	"cf_off_prio\000"
 3443      66665F70 
 3443      72696F00 
 3444              	.LASF58:
 3445 0753 725F7175 		.ascii	"r_queue\000"
 3445      65756500 
 3446              	.LASF53:
 3447 075b 63685F74 		.ascii	"ch_threads_list\000"
ARM GAS  /tmp/cc8LVlpv.s 			page 67


 3447      68726561 
 3447      64735F6C 
 3447      69737400 
 3448              	.LASF133:
 3449 076b 63685F73 		.ascii	"ch_size\000"
 3449      697A6500 
 3450              	.LASF13:
 3451 0773 6C6F6E67 		.ascii	"long unsigned int\000"
 3451      20756E73 
 3451      69676E65 
 3451      6420696E 
 3451      7400
 3452              	.LASF130:
 3453 0785 63686172 		.ascii	"char\000"
 3453      00
 3454              	.LASF152:
 3455 078a 63685265 		.ascii	"chRegNextThread\000"
 3455      674E6578 
 3455      74546872 
 3455      65616400 
 3456              	.LASF120:
 3457 079a 77746D74 		.ascii	"wtmtxp\000"
 3457      787000
 3458              	.LASF28:
 3459 07a1 74687265 		.ascii	"thread_t\000"
 3459      61645F74 
 3459      00
 3460              	.LASF105:
 3461 07aa 62657374 		.ascii	"best\000"
 3461      00
 3462              	.LASF128:
 3463 07af 6D5F6E65 		.ascii	"m_next\000"
 3463      787400
 3464              	.LASF27:
 3465 07b6 73797374 		.ascii	"systime_t\000"
 3465      696D655F 
 3465      7400
 3466              	.LASF47:
 3467 07c0 705F7265 		.ascii	"p_realprio\000"
 3467      616C7072 
 3467      696F00
 3468              	.LASF64:
 3469 07cb 76746675 		.ascii	"vtfunc_t\000"
 3469      6E635F74 
 3469      00
 3470              	.LASF159:
 3471 07d4 5F5F7365 		.ascii	"__set_BASEPRI\000"
 3471      745F4241 
 3471      53455052 
 3471      4900
 3472              	.LASF77:
 3473 07e2 70616E69 		.ascii	"panic_msg\000"
 3473      635F6D73 
 3473      6700
 3474              	.LASF103:
 3475 07ec 6F666673 		.ascii	"offset\000"
 3475      657400
ARM GAS  /tmp/cc8LVlpv.s 			page 68


 3476              	.LASF92:
 3477 07f3 636F6E74 		.ascii	"context\000"
 3477      65787400 
 3478              	.LASF44:
 3479 07fb 705F6D73 		.ascii	"p_msg\000"
 3479      6700
 3480              	.LASF71:
 3481 0801 76745F70 		.ascii	"vt_par\000"
 3481      617200
 3482              	.LASF139:
 3483 0808 63665F6F 		.ascii	"cf_off_ctx\000"
 3483      66665F63 
 3483      747800
 3484              	.LASF125:
 3485 0813 63685F6D 		.ascii	"ch_mutex\000"
 3485      75746578 
 3485      00
 3486              	.LASF39:
 3487 081c 705F7265 		.ascii	"p_refs\000"
 3487      667300
 3488              	.LASF78:
 3489 0823 6973725F 		.ascii	"isr_cnt\000"
 3489      636E7400 
 3490              	.LASF97:
 3491 082b 73655F73 		.ascii	"se_state\000"
 3491      74617465 
 3491      00
 3492              	.LASF83:
 3493 0834 726C6973 		.ascii	"rlist\000"
 3493      7400
 3494              	.LASF8:
 3495 083a 75696E74 		.ascii	"uint8_t\000"
 3495      385F7400 
 3496              	.LASF162:
 3497 0842 5F646267 		.ascii	"_dbg_check_unlock\000"
 3497      5F636865 
 3497      636B5F75 
 3497      6E6C6F63 
 3497      6B00
 3498              	.LASF50:
 3499 0854 74687265 		.ascii	"thread_reference_t\000"
 3499      61645F72 
 3499      65666572 
 3499      656E6365 
 3499      5F7400
 3500              	.LASF117:
 3501 0867 77746F62 		.ascii	"wtobjp\000"
 3501      6A7000
 3502              	.LASF35:
 3503 086e 705F6E61 		.ascii	"p_name\000"
 3503      6D6500
 3504              	.LASF74:
 3505 0875 76745F73 		.ascii	"vt_systime\000"
 3505      79737469 
 3505      6D6500
 3506              	.LASF80:
 3507 0880 74726163 		.ascii	"trace_buffer\000"
ARM GAS  /tmp/cc8LVlpv.s 			page 69


 3507      655F6275 
 3507      66666572 
 3507      00
 3508              	.LASF158:
 3509 088d 63685379 		.ascii	"chSysUnlock\000"
 3509      73556E6C 
 3509      6F636B00 
 3510              	.LASF134:
 3511 0899 63685F76 		.ascii	"ch_version\000"
 3511      65727369 
 3511      6F6E00
 3512              	.LASF112:
 3513 08a4 6D5F6372 		.ascii	"m_crit_thd\000"
 3513      69745F74 
 3513      686400
 3514              	.LASF127:
 3515 08af 6D5F6F77 		.ascii	"m_owner\000"
 3515      6E657200 
 3516              	.LASF96:
 3517 08b7 73655F77 		.ascii	"se_wtobjp\000"
 3517      746F626A 
 3517      7000
 3518              	.LASF131:
 3519 08c1 63685F69 		.ascii	"ch_identifier\000"
 3519      64656E74 
 3519      69666965 
 3519      7200
 3520              	.LASF70:
 3521 08cf 76745F66 		.ascii	"vt_func\000"
 3521      756E6300 
 3522              		.ident	"GCC: (15:9-2019-q4-0ubuntu1) 9.2.1 20191025 (release) [ARM/arm-9-branch revision 277599]"
ARM GAS  /tmp/cc8LVlpv.s 			page 70


DEFINED SYMBOLS
                            *ABS*:0000000000000000 chregistry.c
     /tmp/cc8LVlpv.s:18     .rodata.chRegFirstThread.cst4:0000000000000000 $d
     /tmp/cc8LVlpv.s:22     .text.chRegFirstThread:0000000000000000 $t
     /tmp/cc8LVlpv.s:31     .text.chRegFirstThread:0000000000000000 chRegFirstThread
     /tmp/cc8LVlpv.s:199    .text.chRegFirstThread:0000000000000064 $d
     /tmp/cc8LVlpv.s:206    .rodata.chRegNextThread.cst4:0000000000000000 $d
     /tmp/cc8LVlpv.s:210    .text.chRegNextThread:0000000000000000 $t
     /tmp/cc8LVlpv.s:218    .text.chRegNextThread:0000000000000000 chRegNextThread
     /tmp/cc8LVlpv.s:430    .text.chRegNextThread:0000000000000084 $d
     /tmp/cc8LVlpv.s:456    .rodata.ch_debug:0000000000000000 ch_debug
     /tmp/cc8LVlpv.s:439    .rodata.__func__.7261:0000000000000000 $d
     /tmp/cc8LVlpv.s:443    .rodata.__func__.7261:0000000000000000 __func__.7261
     /tmp/cc8LVlpv.s:446    .rodata.__func__.7963:0000000000000000 $d
     /tmp/cc8LVlpv.s:450    .rodata.__func__.7963:0000000000000000 __func__.7963
     /tmp/cc8LVlpv.s:453    .rodata.ch_debug:0000000000000000 $d

UNDEFINED SYMBOLS
__stack_chk_guard
_stats_start_measure_crit_thd
_dbg_check_lock
_dbg_check_unlock
_stats_stop_measure_crit_thd
chSysHalt
__stack_chk_fail
ch
chThdRelease
