ARM GAS  /tmp/cc8LVlpv.s 			page 1


   1              		.cpu cortex-m4
   2              		.eabi_attribute 27, 1
   3              		.eabi_attribute 28, 1
   4              		.eabi_attribute 20, 1
   5              		.eabi_attribute 21, 1
   6              		.eabi_attribute 23, 3
   7              		.eabi_attribute 24, 1
   8              		.eabi_attribute 25, 1
   9              		.eabi_attribute 26, 1
  10              		.eabi_attribute 30, 2
  11              		.eabi_attribute 34, 1
  12              		.eabi_attribute 18, 4
  13              		.file	"chregistry.c"
  14              		.text
  15              	.Ltext0:
  16              		.cfi_sections	.debug_frame
  17              		.section	.rodata.chRegFirstThread.cst4,"aM",%progbits,4
  18              		.align	2
  19              	.LC0:
  20 0000 00000000 		.word	__stack_chk_guard
  21              		.section	.text.chRegFirstThread,"ax",%progbits
  22              		.align	1
  23              		.p2align 4,,15
  24              		.global	chRegFirstThread
  25              		.arch armv7e-m
  26              		.syntax unified
  27              		.thumb
  28              		.thumb_func
  29              		.fpu fpv4-sp-d16
  30              		.type	chRegFirstThread, %function
  31              	chRegFirstThread:
  32              	.LFB219:
  33              		.file 1 ".//ChibiOS//os/rt/src/chregistry.c"
  34              		.loc 1 131 34 view -0
  35              		.cfi_startproc
  36              		@ args = 0, pretend = 0, frame = 8
  37              		@ frame_needed = 0, uses_anonymous_args = 0
  38 0000 30B5     		push	{r4, r5, lr}
  39              		.cfi_def_cfa_offset 12
  40              		.cfi_offset 4, -12
  41              		.cfi_offset 5, -8
  42              		.cfi_offset 14, -4
  43 0002 184B     		ldr	r3, .L8
  44 0004 83B0     		sub	sp, sp, #12
  45              		.cfi_def_cfa_offset 24
  46              		.loc 1 131 34 is_stmt 0 view .LVU1
  47 0006 1B68     		ldr	r3, [r3]
  48 0008 0193     		str	r3, [sp, #4]
  49 000a 4FF00003 		mov	r3,#0
  50              		.loc 1 132 3 is_stmt 1 view .LVU2
  51              		.loc 1 134 3 view .LVU3
  52              	.LBB34:
  53              	.LBI34:
  54              		.file 2 ".//ChibiOS//os/rt/include/chsys.h"
  55              		.loc 2 346 20 view .LVU4
  56              	.LBB35:
  57              		.loc 2 348 3 view .LVU5
ARM GAS  /tmp/cc8LVlpv.s 			page 2


  58              	.LBB36:
  59              	.LBI36:
  60              		.file 3 ".//ChibiOS//os/rt/ports/ARMCMx/chcore_v7m.h"
  61              		.loc 3 444 20 view .LVU6
  62              	.LBE36:
  63              	.LBE35:
  64              	.LBE34:
  65              		.loc 3 447 3 view .LVU7
  66              	.LVL0:
  67              	.LBB42:
  68              	.LBB40:
  69              	.LBB39:
  70              	.LBB37:
  71              	.LBI37:
  72              		.file 4 ".//ChibiOS//os/ext/CMSIS/include/core_cmFunc.h"
  73              		.loc 4 544 57 view .LVU8
  74              	.LBB38:
  75              		.loc 4 546 3 view .LVU9
  76 000e 2023     		movs	r3, #32
  77              		.syntax unified
  78              	@ 546 ".//ChibiOS//os/ext/CMSIS/include/core_cmFunc.h" 1
  79 0010 83F31188 		MSR basepri, r3
  80              	@ 0 "" 2
  81              	.LVL1:
  82              		.loc 4 546 3 is_stmt 0 view .LVU10
  83              		.thumb
  84              		.syntax unified
  85              	.LBE38:
  86              	.LBE37:
  87              	.LBE39:
  88              		.loc 2 349 3 is_stmt 1 view .LVU11
  89              	.LBE40:
  90              	.LBE42:
  91              		.loc 1 135 6 is_stmt 0 view .LVU12
  92 0014 144C     		ldr	r4, .L8+4
  93              	.LBB43:
  94              	.LBB41:
  95              		.loc 2 349 3 view .LVU13
  96 0016 FFF7FEFF 		bl	_stats_start_measure_crit_thd
  97              	.LVL2:
  98              		.loc 2 350 3 is_stmt 1 view .LVU14
  99 001a FFF7FEFF 		bl	_dbg_check_lock
 100              	.LVL3:
 101              	.LBE41:
 102              	.LBE43:
 103              		.loc 1 135 3 view .LVU15
 104              		.loc 1 135 6 is_stmt 0 view .LVU16
 105 001e 2569     		ldr	r5, [r4, #16]
 106              	.LVL4:
 107              		.loc 1 137 3 is_stmt 1 view .LVU17
 108              		.loc 1 137 13 is_stmt 0 view .LVU18
 109 0020 95F82230 		ldrb	r3, [r5, #34]	@ zero_extendqisi2
 110 0024 0133     		adds	r3, r3, #1
 111 0026 85F82230 		strb	r3, [r5, #34]
 112              		.loc 1 139 3 is_stmt 1 view .LVU19
 113              	.LBB44:
 114              	.LBI44:
ARM GAS  /tmp/cc8LVlpv.s 			page 3


 115              		.loc 2 358 20 view .LVU20
 116              	.LBB45:
 117              		.loc 2 360 3 view .LVU21
 118 002a FFF7FEFF 		bl	_dbg_check_unlock
 119              	.LVL5:
 120              		.loc 2 361 3 view .LVU22
 121 002e FFF7FEFF 		bl	_stats_stop_measure_crit_thd
 122              	.LVL6:
 123              		.loc 2 367 3 view .LVU23
 124              		.loc 2 367 3 view .LVU24
 125              		.loc 2 367 3 view .LVU25
 126 0032 2368     		ldr	r3, [r4]
 127 0034 A342     		cmp	r3, r4
 128 0036 04D0     		beq	.L2
 129 0038 A269     		ldr	r2, [r4, #24]
 130 003a 9B68     		ldr	r3, [r3, #8]
 131 003c 9268     		ldr	r2, [r2, #8]
 132 003e 9A42     		cmp	r2, r3
 133 0040 0AD3     		bcc	.L6
 134              	.L2:
 135              		.loc 2 367 3 view .LVU26
 136              		.loc 2 371 3 view .LVU27
 137              	.LBB46:
 138              	.LBI46:
 139              		.loc 3 458 20 view .LVU28
 140              	.LBE46:
 141              	.LBE45:
 142              	.LBE44:
 143              		.loc 3 461 3 view .LVU29
 144              	.LVL7:
 145              	.LBB52:
 146              	.LBB50:
 147              	.LBB49:
 148              	.LBB47:
 149              	.LBI47:
 150              		.loc 4 544 57 view .LVU30
 151              	.LBB48:
 152              		.loc 4 546 3 view .LVU31
 153 0042 0023     		movs	r3, #0
 154              		.syntax unified
 155              	@ 546 ".//ChibiOS//os/ext/CMSIS/include/core_cmFunc.h" 1
 156 0044 83F31188 		MSR basepri, r3
 157              	@ 0 "" 2
 158              	.LVL8:
 159              		.loc 4 546 3 is_stmt 0 view .LVU32
 160              		.thumb
 161              		.syntax unified
 162              	.LBE48:
 163              	.LBE47:
 164              	.LBE49:
 165              	.LBE50:
 166              	.LBE52:
 167              		.loc 1 141 3 is_stmt 1 view .LVU33
 168              		.loc 1 142 1 is_stmt 0 view .LVU34
 169 0048 064B     		ldr	r3, .L8
 170 004a 1A68     		ldr	r2, [r3]
 171 004c 019B     		ldr	r3, [sp, #4]
ARM GAS  /tmp/cc8LVlpv.s 			page 4


 172 004e 5A40     		eors	r2, r3, r2
 173 0050 06D1     		bne	.L7
 174 0052 2846     		mov	r0, r5
 175 0054 03B0     		add	sp, sp, #12
 176              		.cfi_remember_state
 177              		.cfi_def_cfa_offset 12
 178              		@ sp needed
 179 0056 30BD     		pop	{r4, r5, pc}
 180              	.LVL9:
 181              	.L6:
 182              		.cfi_restore_state
 183              	.LBB53:
 184              	.LBB51:
 185              		.loc 2 367 3 is_stmt 1 view .LVU35
 186 0058 0448     		ldr	r0, .L8+8
 187 005a FFF7FEFF 		bl	chSysHalt
 188              	.LVL10:
 189 005e F0E7     		b	.L2
 190              	.L7:
 191              	.LBE51:
 192              	.LBE53:
 193              		.loc 1 142 1 is_stmt 0 view .LVU36
 194 0060 FFF7FEFF 		bl	__stack_chk_fail
 195              	.LVL11:
 196              	.L9:
 197              		.align	2
 198              	.L8:
 199 0064 00000000 		.word	.LC0
 200 0068 00000000 		.word	ch
 201 006c 00000000 		.word	.LANCHOR0
 202              		.cfi_endproc
 203              	.LFE219:
 204              		.size	chRegFirstThread, .-chRegFirstThread
 205              		.section	.rodata.chRegNextThread.cst4,"aM",%progbits,4
 206              		.align	2
 207              	.LC1:
 208 0000 00000000 		.word	__stack_chk_guard
 209              		.section	.text.chRegNextThread,"ax",%progbits
 210              		.align	1
 211              		.p2align 4,,15
 212              		.global	chRegNextThread
 213              		.syntax unified
 214              		.thumb
 215              		.thumb_func
 216              		.fpu fpv4-sp-d16
 217              		.type	chRegNextThread, %function
 218              	chRegNextThread:
 219              	.LVL12:
 220              	.LFB220:
 221              		.loc 1 155 41 is_stmt 1 view -0
 222              		.cfi_startproc
 223              		@ args = 0, pretend = 0, frame = 8
 224              		@ frame_needed = 0, uses_anonymous_args = 0
 225              		.loc 1 155 41 is_stmt 0 view .LVU38
 226 0000 70B5     		push	{r4, r5, r6, lr}
 227              		.cfi_def_cfa_offset 16
 228              		.cfi_offset 4, -16
ARM GAS  /tmp/cc8LVlpv.s 			page 5


 229              		.cfi_offset 5, -12
 230              		.cfi_offset 6, -8
 231              		.cfi_offset 14, -4
 232 0002 204B     		ldr	r3, .L20
 233 0004 82B0     		sub	sp, sp, #8
 234              		.cfi_def_cfa_offset 24
 235              		.loc 1 155 41 view .LVU39
 236 0006 1B68     		ldr	r3, [r3]
 237 0008 0193     		str	r3, [sp, #4]
 238 000a 4FF00003 		mov	r3,#0
 239              		.loc 1 156 3 is_stmt 1 view .LVU40
 240              		.loc 1 158 3 view .LVU41
 241              	.LBB64:
 242              	.LBI64:
 243              		.loc 2 346 20 view .LVU42
 244              	.LBB65:
 245              		.loc 2 348 3 view .LVU43
 246              	.LBB66:
 247              	.LBI66:
 248              		.loc 3 444 20 view .LVU44
 249              	.LBE66:
 250              	.LBE65:
 251              	.LBE64:
 252              		.loc 3 447 3 view .LVU45
 253              	.LVL13:
 254              	.LBB76:
 255              	.LBB73:
 256              	.LBB71:
 257              	.LBB67:
 258              	.LBI67:
 259              		.loc 4 544 57 view .LVU46
 260              	.LBB68:
 261              		.loc 4 546 3 view .LVU47
 262              	.LBE68:
 263              	.LBE67:
 264              	.LBE71:
 265              	.LBE73:
 266              	.LBE76:
 267              		.loc 1 155 41 is_stmt 0 view .LVU48
 268 000e 0546     		mov	r5, r0
 269              	.LBB77:
 270              	.LBB74:
 271              	.LBB72:
 272              	.LBB70:
 273              	.LBB69:
 274              		.loc 4 546 3 view .LVU49
 275 0010 2023     		movs	r3, #32
 276              		.syntax unified
 277              	@ 546 ".//ChibiOS//os/ext/CMSIS/include/core_cmFunc.h" 1
 278 0012 83F31188 		MSR basepri, r3
 279              	@ 0 "" 2
 280              	.LVL14:
 281              		.loc 4 546 3 view .LVU50
 282              		.thumb
 283              		.syntax unified
 284              	.LBE69:
 285              	.LBE70:
ARM GAS  /tmp/cc8LVlpv.s 			page 6


 286              	.LBE72:
 287              		.loc 2 349 3 is_stmt 1 view .LVU51
 288 0016 FFF7FEFF 		bl	_stats_start_measure_crit_thd
 289              	.LVL15:
 290              		.loc 2 350 3 view .LVU52
 291              	.LBE74:
 292              	.LBE77:
 293              		.loc 1 161 6 is_stmt 0 view .LVU53
 294 001a 1B4E     		ldr	r6, .L20+4
 295              	.LBB78:
 296              	.LBB75:
 297              		.loc 2 350 3 view .LVU54
 298 001c FFF7FEFF 		bl	_dbg_check_lock
 299              	.LVL16:
 300              	.LBE75:
 301              	.LBE78:
 302              		.loc 1 159 3 is_stmt 1 view .LVU55
 303              		.loc 1 159 7 is_stmt 0 view .LVU56
 304 0020 2C69     		ldr	r4, [r5, #16]
 305              	.LVL17:
 306              		.loc 1 161 3 is_stmt 1 view .LVU57
 307              		.loc 1 161 6 is_stmt 0 view .LVU58
 308 0022 B442     		cmp	r4, r6
 309 0024 2AD0     		beq	.L15
 310              		.loc 1 167 5 is_stmt 1 discriminator 1 view .LVU59
 311              		.loc 1 167 5 discriminator 1 view .LVU60
 312              		.loc 1 167 5 discriminator 1 view .LVU61
 313 0026 94F82230 		ldrb	r3, [r4, #34]	@ zero_extendqisi2
 314 002a FF2B     		cmp	r3, #255
 315 002c 20D0     		beq	.L17
 316              	.L12:
 317              		.loc 1 167 5 discriminator 5 view .LVU62
 318              		.loc 1 168 5 discriminator 5 view .LVU63
 319              		.loc 1 168 16 is_stmt 0 discriminator 5 view .LVU64
 320 002e 0133     		adds	r3, r3, #1
 321 0030 84F82230 		strb	r3, [r4, #34]
 322              	.LVL18:
 323              	.L11:
 324              		.loc 1 171 3 is_stmt 1 view .LVU65
 325              	.LBB79:
 326              	.LBI79:
 327              		.loc 2 358 20 view .LVU66
 328              	.LBB80:
 329              		.loc 2 360 3 view .LVU67
 330 0034 FFF7FEFF 		bl	_dbg_check_unlock
 331              	.LVL19:
 332              		.loc 2 361 3 view .LVU68
 333 0038 FFF7FEFF 		bl	_stats_stop_measure_crit_thd
 334              	.LVL20:
 335              		.loc 2 367 3 view .LVU69
 336              		.loc 2 367 3 view .LVU70
 337              		.loc 2 367 3 view .LVU71
 338 003c 3368     		ldr	r3, [r6]
 339 003e B342     		cmp	r3, r6
 340 0040 04D0     		beq	.L13
 341 0042 B269     		ldr	r2, [r6, #24]
 342 0044 9B68     		ldr	r3, [r3, #8]
ARM GAS  /tmp/cc8LVlpv.s 			page 7


 343 0046 9268     		ldr	r2, [r2, #8]
 344 0048 9A42     		cmp	r2, r3
 345 004a 0DD3     		bcc	.L18
 346              	.L13:
 347              		.loc 2 367 3 view .LVU72
 348              		.loc 2 371 3 view .LVU73
 349              	.LBB81:
 350              	.LBI81:
 351              		.loc 3 458 20 view .LVU74
 352              	.LBE81:
 353              	.LBE80:
 354              	.LBE79:
 355              		.loc 3 461 3 view .LVU75
 356              	.LVL21:
 357              	.LBB87:
 358              	.LBB85:
 359              	.LBB84:
 360              	.LBB82:
 361              	.LBI82:
 362              		.loc 4 544 57 view .LVU76
 363              	.LBB83:
 364              		.loc 4 546 3 view .LVU77
 365 004c 0023     		movs	r3, #0
 366              		.syntax unified
 367              	@ 546 ".//ChibiOS//os/ext/CMSIS/include/core_cmFunc.h" 1
 368 004e 83F31188 		MSR basepri, r3
 369              	@ 0 "" 2
 370              	.LVL22:
 371              		.loc 4 546 3 is_stmt 0 view .LVU78
 372              		.thumb
 373              		.syntax unified
 374              	.LBE83:
 375              	.LBE82:
 376              	.LBE84:
 377              	.LBE85:
 378              	.LBE87:
 379              		.loc 1 173 3 is_stmt 1 view .LVU79
 380 0052 2846     		mov	r0, r5
 381 0054 FFF7FEFF 		bl	chThdRelease
 382              	.LVL23:
 383              		.loc 1 176 3 view .LVU80
 384              		.loc 1 177 1 is_stmt 0 view .LVU81
 385 0058 0A4B     		ldr	r3, .L20
 386 005a 1A68     		ldr	r2, [r3]
 387 005c 019B     		ldr	r3, [sp, #4]
 388 005e 5A40     		eors	r2, r3, r2
 389 0060 0ED1     		bne	.L19
 390 0062 2046     		mov	r0, r4
 391 0064 02B0     		add	sp, sp, #8
 392              		.cfi_remember_state
 393              		.cfi_def_cfa_offset 16
 394              		@ sp needed
 395 0066 70BD     		pop	{r4, r5, r6, pc}
 396              	.LVL24:
 397              	.L18:
 398              		.cfi_restore_state
 399              	.LBB88:
ARM GAS  /tmp/cc8LVlpv.s 			page 8


 400              	.LBB86:
 401              		.loc 2 367 3 is_stmt 1 view .LVU82
 402 0068 0848     		ldr	r0, .L20+8
 403 006a FFF7FEFF 		bl	chSysHalt
 404              	.LVL25:
 405 006e EDE7     		b	.L13
 406              	.L17:
 407              		.loc 2 367 3 is_stmt 0 view .LVU83
 408              	.LBE86:
 409              	.LBE88:
 410              		.loc 1 167 5 is_stmt 1 discriminator 3 view .LVU84
 411 0070 0748     		ldr	r0, .L20+12
 412 0072 FFF7FEFF 		bl	chSysHalt
 413              	.LVL26:
 414 0076 94F82230 		ldrb	r3, [r4, #34]	@ zero_extendqisi2
 415 007a D8E7     		b	.L12
 416              	.L15:
 417              		.loc 1 163 9 is_stmt 0 view .LVU85
 418 007c 0024     		movs	r4, #0
 419              	.LVL27:
 420              		.loc 1 163 9 view .LVU86
 421 007e D9E7     		b	.L11
 422              	.LVL28:
 423              	.L19:
 424              		.loc 1 177 1 view .LVU87
 425 0080 FFF7FEFF 		bl	__stack_chk_fail
 426              	.LVL29:
 427              	.L21:
 428              		.align	2
 429              	.L20:
 430 0084 00000000 		.word	.LC1
 431 0088 00000000 		.word	ch
 432 008c 00000000 		.word	.LANCHOR0
 433 0090 00000000 		.word	.LANCHOR1
 434              		.cfi_endproc
 435              	.LFE220:
 436              		.size	chRegNextThread, .-chRegNextThread
 437              		.global	ch_debug
 438              		.section	.rodata.__func__.7261,"a"
 439              		.align	2
 440              		.set	.LANCHOR0,. + 0
 441              		.type	__func__.7261, %object
 442              		.size	__func__.7261, 12
 443              	__func__.7261:
 444 0000 63685379 		.ascii	"chSysUnlock\000"
 444      73556E6C 
 444      6F636B00 
 445              		.section	.rodata.__func__.7963,"a"
 446              		.align	2
 447              		.set	.LANCHOR1,. + 0
 448              		.type	__func__.7963, %object
 449              		.size	__func__.7963, 16
 450              	__func__.7963:
 451 0000 63685265 		.ascii	"chRegNextThread\000"
 451      674E6578 
 451      74546872 
 451      65616400 
ARM GAS  /tmp/cc8LVlpv.s 			page 9


 452              		.section	.rodata.ch_debug,"a"
 453              		.align	2
 454              		.type	ch_debug, %object
 455              		.size	ch_debug, 22
 456              	ch_debug:
 457 0000 6D61696E 		.ascii	"main"
 458 0004 00       		.byte	0
 459 0005 16       		.byte	22
 460 0006 0118     		.short	6145
 461 0008 04       		.byte	4
 462 0009 04       		.byte	4
 463 000a 68       		.byte	104
 464 000b 08       		.byte	8
 465 000c 0C       		.byte	12
 466 000d 10       		.byte	16
 467 000e 14       		.byte	20
 468 000f 18       		.byte	24
 469 0010 1C       		.byte	28
 470 0011 20       		.byte	32
 471 0012 21       		.byte	33
 472 0013 22       		.byte	34
 473 0014 23       		.byte	35
 474 0015 24       		.byte	36
 475              		.text
 476              	.Letext0:
 477              		.file 5 "/usr/lib/gcc/arm-none-eabi/9.2.1/include/stddef.h"
 478              		.file 6 "/usr/lib/gcc/arm-none-eabi/9.2.1/include/stdint.h"
 479              		.file 7 ".//ChibiOS//os/rt/ports/ARMCMx/compilers/GCC/chtypes.h"
 480              		.file 8 ".//ChibiOS//os/rt/include/chsystypes.h"
 481              		.file 9 ".//ChibiOS//os/rt/include/chschd.h"
 482              		.file 10 ".//ChibiOS//os/ext/CMSIS/include/core_cm4.h"
 483              		.file 11 ".//ChibiOS//os/ext/CMSIS/ST/system_stm32f4xx.h"
 484              		.file 12 ".//ChibiOS//os/rt/ports/ARMCMx/chcore.h"
 485              		.file 13 ".//ChibiOS//os/rt/include/chdebug.h"
 486              		.file 14 ".//ChibiOS//os/rt/include/chtm.h"
 487              		.file 15 ".//ChibiOS//os/rt/include/chstats.h"
 488              		.file 16 ".//ChibiOS//os/rt/include/chsem.h"
 489              		.file 17 ".//ChibiOS//os/rt/include/chmtx.h"
 490              		.file 18 ".//ChibiOS//os/rt/include/chregistry.h"
 491              		.file 19 ".//ChibiOS//os/rt/include/chdynamic.h"