ARM GAS  /tmp/ccMJcLrf.s 			page 1


   1              		.cpu cortex-m4
   2              		.eabi_attribute 27, 1
   3              		.eabi_attribute 28, 1
   4              		.eabi_attribute 20, 1
   5              		.eabi_attribute 21, 1
   6              		.eabi_attribute 23, 3
   7              		.eabi_attribute 24, 1
   8              		.eabi_attribute 25, 1
   9              		.eabi_attribute 26, 1
  10              		.eabi_attribute 30, 2
  11              		.eabi_attribute 34, 1
  12              		.eabi_attribute 18, 4
  13              		.file	"chschd.c"
  14              		.text
  15              	.Ltext0:
  16              		.cfi_sections	.debug_frame
  17              		.section	.rodata._scheduler_init.cst4,"aM",%progbits,4
  18              		.align	2
  19              	.LC0:
  20 0000 00000000 		.word	__stack_chk_guard
  21              		.section	.text._scheduler_init,"ax",%progbits
  22              		.align	1
  23              		.p2align 4,,15
  24              		.global	_scheduler_init
  25              		.arch armv7e-m
  26              		.syntax unified
  27              		.thumb
  28              		.thumb_func
  29              		.fpu fpv4-sp-d16
  30              		.type	_scheduler_init, %function
  31              	_scheduler_init:
  32              	.LFB219:
  33              		.file 1 ".//ChibiOS//os/rt/src/chschd.c"
  34              		.loc 1 65 28 view -0
  35              		.cfi_startproc
  36              		@ args = 0, pretend = 0, frame = 8
  37              		@ frame_needed = 0, uses_anonymous_args = 0
  38 0000 00B5     		push	{lr}
  39              		.cfi_def_cfa_offset 4
  40              		.cfi_offset 14, -4
  41              	.LBB103:
  42              	.LBB104:
  43              		.file 2 ".//ChibiOS//os/rt/include/chschd.h"
  44              		.loc 2 604 15 is_stmt 0 view .LVU1
  45 0002 0B4B     		ldr	r3, .L6
  46              	.LBE104:
  47              	.LBE103:
  48              		.loc 1 65 28 view .LVU2
  49 0004 0B4A     		ldr	r2, .L6+4
  50 0006 83B0     		sub	sp, sp, #12
  51              		.cfi_def_cfa_offset 16
  52              		.loc 1 65 28 view .LVU3
  53 0008 1268     		ldr	r2, [r2]
  54 000a 0192     		str	r2, [sp, #4]
  55 000c 4FF00002 		mov	r2,#0
  56              		.loc 1 67 3 is_stmt 1 view .LVU4
  57              	.LVL0:
ARM GAS  /tmp/ccMJcLrf.s 			page 2


  58              	.LBB106:
  59              	.LBI103:
  60              		.loc 2 602 20 view .LVU5
  61              	.LBB105:
  62              		.loc 2 604 3 view .LVU6
  63              		.loc 2 605 15 is_stmt 0 view .LVU7
  64 0010 C3E90033 		strd	r3, r3, [r3]
  65              	.LVL1:
  66              		.loc 2 605 15 view .LVU8
  67              	.LBE105:
  68              	.LBE106:
  69              		.loc 1 68 3 is_stmt 1 view .LVU9
  70              		.loc 1 68 19 is_stmt 0 view .LVU10
  71 0014 0022     		movs	r2, #0
  72 0016 9A60     		str	r2, [r3, #8]
  73              		.loc 1 70 3 is_stmt 1 view .LVU11
  74              		.loc 1 71 3 view .LVU12
  75              		.loc 1 71 20 is_stmt 0 view .LVU13
  76 0018 C3E90433 		strd	r3, r3, [r3, #16]
  77              		.loc 1 73 1 view .LVU14
  78 001c 054B     		ldr	r3, .L6+4
  79 001e 1A68     		ldr	r2, [r3]
  80 0020 019B     		ldr	r3, [sp, #4]
  81 0022 5A40     		eors	r2, r3, r2
  82 0024 02D1     		bne	.L5
  83 0026 03B0     		add	sp, sp, #12
  84              		.cfi_remember_state
  85              		.cfi_def_cfa_offset 4
  86              		@ sp needed
  87 0028 5DF804FB 		ldr	pc, [sp], #4
  88              	.L5:
  89              		.cfi_restore_state
  90 002c FFF7FEFF 		bl	__stack_chk_fail
  91              	.LVL2:
  92              	.L7:
  93              		.align	2
  94              	.L6:
  95 0030 00000000 		.word	.LANCHOR0
  96 0034 00000000 		.word	.LC0
  97              		.cfi_endproc
  98              	.LFE219:
  99              		.size	_scheduler_init, .-_scheduler_init
 100              		.section	.rodata.chSchReadyI.cst4,"aM",%progbits,4
 101              		.align	2
 102              	.LC1:
 103 0000 00000000 		.word	__stack_chk_guard
 104              		.section	.text.chSchReadyI,"ax",%progbits
 105              		.align	1
 106              		.p2align 4,,15
 107              		.global	chSchReadyI
 108              		.syntax unified
 109              		.thumb
 110              		.thumb_func
 111              		.fpu fpv4-sp-d16
 112              		.type	chSchReadyI, %function
 113              	chSchReadyI:
 114              	.LVL3:
ARM GAS  /tmp/ccMJcLrf.s 			page 3


 115              	.LFB220:
 116              		.loc 1 218 37 is_stmt 1 view -0
 117              		.cfi_startproc
 118              		@ args = 0, pretend = 0, frame = 8
 119              		@ frame_needed = 0, uses_anonymous_args = 0
 120              		.loc 1 218 37 is_stmt 0 view .LVU16
 121 0000 10B5     		push	{r4, lr}
 122              		.cfi_def_cfa_offset 8
 123              		.cfi_offset 4, -8
 124              		.cfi_offset 14, -4
 125 0002 174B     		ldr	r3, .L21
 126 0004 82B0     		sub	sp, sp, #8
 127              		.cfi_def_cfa_offset 16
 128              		.loc 1 218 37 view .LVU17
 129 0006 0446     		mov	r4, r0
 130 0008 1B68     		ldr	r3, [r3]
 131 000a 0193     		str	r3, [sp, #4]
 132 000c 4FF00003 		mov	r3,#0
 133              		.loc 1 219 3 is_stmt 1 view .LVU18
 134              		.loc 1 221 3 view .LVU19
 135 0010 FFF7FEFF 		bl	chDbgCheckClassI
 136              	.LVL4:
 137              		.loc 1 222 3 view .LVU20
 138              		.loc 1 222 3 view .LVU21
 139              		.loc 1 222 3 view .LVU22
 140 0014 F4B1     		cbz	r4, .L19
 141              	.L9:
 142              		.loc 1 222 3 discriminator 1 view .LVU23
 143              		.loc 1 223 3 discriminator 1 view .LVU24
 144              		.loc 1 223 3 discriminator 1 view .LVU25
 145              		.loc 1 223 3 discriminator 1 view .LVU26
 146 0016 94F82030 		ldrb	r3, [r4, #32]	@ zero_extendqisi2
 147 001a BBB1     		cbz	r3, .L10
 148              		.loc 1 223 3 is_stmt 0 discriminator 4 view .LVU27
 149 001c 0F2B     		cmp	r3, #15
 150 001e 15D0     		beq	.L10
 151              	.L11:
 152              		.loc 1 223 3 is_stmt 1 discriminator 7 view .LVU28
 153              		.loc 1 227 3 discriminator 7 view .LVU29
 154              		.loc 1 227 15 is_stmt 0 discriminator 7 view .LVU30
 155 0020 0022     		movs	r2, #0
 156              		.loc 1 231 28 discriminator 7 view .LVU31
 157 0022 A168     		ldr	r1, [r4, #8]
 158              		.loc 1 228 6 discriminator 7 view .LVU32
 159 0024 0F4B     		ldr	r3, .L21+4
 160              		.loc 1 227 15 discriminator 7 view .LVU33
 161 0026 84F82020 		strb	r2, [r4, #32]
 162              		.loc 1 228 3 is_stmt 1 discriminator 7 view .LVU34
 163              	.LVL5:
 164              	.L12:
 165              		.loc 1 229 3 discriminator 1 view .LVU35
 166              		.loc 1 230 5 discriminator 1 view .LVU36
 167              		.loc 1 230 8 is_stmt 0 discriminator 1 view .LVU37
 168 002a 1B68     		ldr	r3, [r3]
 169              	.LVL6:
 170              		.loc 1 231 11 is_stmt 1 discriminator 1 view .LVU38
 171              		.loc 1 231 3 is_stmt 0 discriminator 1 view .LVU39
ARM GAS  /tmp/ccMJcLrf.s 			page 4


 172 002c 9A68     		ldr	r2, [r3, #8]
 173 002e 8A42     		cmp	r2, r1
 174 0030 FBD2     		bcs	.L12
 175              		.loc 1 233 3 is_stmt 1 view .LVU40
 176              		.loc 1 233 14 is_stmt 0 view .LVU41
 177 0032 2360     		str	r3, [r4]
 178              		.loc 1 234 3 is_stmt 1 view .LVU42
 179              		.loc 1 234 18 is_stmt 0 view .LVU43
 180 0034 5A68     		ldr	r2, [r3, #4]
 181              		.loc 1 234 14 view .LVU44
 182 0036 6260     		str	r2, [r4, #4]
 183              		.loc 1 235 3 is_stmt 1 view .LVU45
 184              		.loc 1 235 22 is_stmt 0 view .LVU46
 185 0038 1460     		str	r4, [r2]
 186              		.loc 1 236 3 is_stmt 1 view .LVU47
 187              		.loc 1 236 14 is_stmt 0 view .LVU48
 188 003a 5C60     		str	r4, [r3, #4]
 189              		.loc 1 238 3 is_stmt 1 view .LVU49
 190              		.loc 1 239 1 is_stmt 0 view .LVU50
 191 003c 084B     		ldr	r3, .L21
 192              	.LVL7:
 193              		.loc 1 239 1 view .LVU51
 194 003e 1A68     		ldr	r2, [r3]
 195 0040 019B     		ldr	r3, [sp, #4]
 196 0042 5A40     		eors	r2, r3, r2
 197 0044 0AD1     		bne	.L20
 198              		.loc 1 239 1 view .LVU52
 199 0046 2046     		mov	r0, r4
 200 0048 02B0     		add	sp, sp, #8
 201              		.cfi_remember_state
 202              		.cfi_def_cfa_offset 8
 203              		@ sp needed
 204 004a 10BD     		pop	{r4, pc}
 205              	.LVL8:
 206              	.L10:
 207              		.cfi_restore_state
 208              		.loc 1 223 3 is_stmt 1 discriminator 5 view .LVU53
 209 004c 0648     		ldr	r0, .L21+8
 210 004e FFF7FEFF 		bl	chSysHalt
 211              	.LVL9:
 212 0052 E5E7     		b	.L11
 213              	.L19:
 214              		.loc 1 222 3 discriminator 3 view .LVU54
 215 0054 0448     		ldr	r0, .L21+8
 216 0056 FFF7FEFF 		bl	chSysHalt
 217              	.LVL10:
 218 005a DCE7     		b	.L9
 219              	.L20:
 220              		.loc 1 239 1 is_stmt 0 view .LVU55
 221 005c FFF7FEFF 		bl	__stack_chk_fail
 222              	.LVL11:
 223              	.L22:
 224              		.align	2
 225              	.L21:
 226 0060 00000000 		.word	.LC1
 227 0064 00000000 		.word	.LANCHOR0
 228 0068 00000000 		.word	.LANCHOR1
ARM GAS  /tmp/ccMJcLrf.s 			page 5


 229              		.cfi_endproc
 230              	.LFE220:
 231              		.size	chSchReadyI, .-chSchReadyI
 232              		.section	.rodata.wakeup.cst4,"aM",%progbits,4
 233              		.align	2
 234              	.LC2:
 235 0000 00000000 		.word	__stack_chk_guard
 236              		.section	.text.wakeup,"ax",%progbits
 237              		.align	1
 238              		.p2align 4,,15
 239              		.syntax unified
 240              		.thumb
 241              		.thumb_func
 242              		.fpu fpv4-sp-d16
 243              		.type	wakeup, %function
 244              	wakeup:
 245              	.LVL12:
 246              	.LFB222:
 247              		.loc 1 275 29 is_stmt 1 view -0
 248              		.cfi_startproc
 249              		@ args = 0, pretend = 0, frame = 8
 250              		@ frame_needed = 0, uses_anonymous_args = 0
 251              		.loc 1 275 29 is_stmt 0 view .LVU57
 252 0000 30B5     		push	{r4, r5, lr}
 253              		.cfi_def_cfa_offset 12
 254              		.cfi_offset 4, -12
 255              		.cfi_offset 5, -8
 256              		.cfi_offset 14, -4
 257 0002 1E4B     		ldr	r3, .L35
 258 0004 83B0     		sub	sp, sp, #12
 259              		.cfi_def_cfa_offset 24
 260              		.loc 1 275 29 view .LVU58
 261 0006 1B68     		ldr	r3, [r3]
 262 0008 0193     		str	r3, [sp, #4]
 263 000a 4FF00003 		mov	r3,#0
 264              		.loc 1 276 3 is_stmt 1 view .LVU59
 265              	.LVL13:
 266              		.loc 1 278 3 view .LVU60
 267              	.LBB147:
 268              	.LBI147:
 269              		.file 3 ".//ChibiOS//os/rt/include/chsys.h"
 270              		.loc 3 386 20 view .LVU61
 271              	.LBB148:
 272              		.loc 3 388 3 view .LVU62
 273              	.LBB149:
 274              	.LBI149:
 275              		.file 4 ".//ChibiOS//os/rt/ports/ARMCMx/chcore_v7m.h"
 276              		.loc 4 473 20 view .LVU63
 277              	.LBE149:
 278              	.LBE148:
 279              	.LBE147:
 280              		.loc 4 475 3 view .LVU64
 281              	.LBB163:
 282              	.LBB160:
 283              	.LBB157:
 284              	.LBB150:
 285              	.LBI150:
ARM GAS  /tmp/ccMJcLrf.s 			page 6


 286              		.loc 4 444 20 view .LVU65
 287              	.LBE150:
 288              	.LBE157:
 289              	.LBE160:
 290              	.LBE163:
 291              		.loc 4 447 3 view .LVU66
 292              	.LBB164:
 293              	.LBB161:
 294              	.LBB158:
 295              	.LBB155:
 296              	.LBB151:
 297              	.LBI151:
 298              		.file 5 ".//ChibiOS//os/ext/CMSIS/include/core_cmFunc.h"
 299              		.loc 5 544 57 view .LVU67
 300              	.LBB152:
 301              		.loc 5 546 3 view .LVU68
 302              	.LBE152:
 303              	.LBE151:
 304              	.LBE155:
 305              	.LBE158:
 306              	.LBE161:
 307              	.LBE164:
 308              		.loc 1 275 29 is_stmt 0 view .LVU69
 309 000e 0446     		mov	r4, r0
 310              	.LBB165:
 311              	.LBB162:
 312              	.LBB159:
 313              	.LBB156:
 314              	.LBB154:
 315              	.LBB153:
 316              		.loc 5 546 3 view .LVU70
 317 0010 2023     		movs	r3, #32
 318              		.syntax unified
 319              	@ 546 ".//ChibiOS//os/ext/CMSIS/include/core_cmFunc.h" 1
 320 0012 83F31188 		MSR basepri, r3
 321              	@ 0 "" 2
 322              	.LVL14:
 323              		.loc 5 546 3 view .LVU71
 324              		.thumb
 325              		.syntax unified
 326              	.LBE153:
 327              	.LBE154:
 328              	.LBE156:
 329              	.LBE159:
 330              		.loc 3 389 3 is_stmt 1 view .LVU72
 331 0016 FFF7FEFF 		bl	_stats_start_measure_crit_isr
 332              	.LVL15:
 333              		.loc 3 390 3 view .LVU73
 334 001a FFF7FEFF 		bl	_dbg_check_lock_from_isr
 335              	.LVL16:
 336              	.LBE162:
 337              	.LBE165:
 338              		.loc 1 279 3 view .LVU74
 339 001e 94F82030 		ldrb	r3, [r4, #32]	@ zero_extendqisi2
 340 0022 072B     		cmp	r3, #7
 341 0024 10D8     		bhi	.L24
 342 0026 DFE803F0 		tbb	[pc, r3]
ARM GAS  /tmp/ccMJcLrf.s 			page 7


 343              	.L26:
 344 002a 15       		.byte	(.L33-.L26)/2
 345 002b 0F       		.byte	(.L24-.L26)/2
 346 002c 0F       		.byte	(.L24-.L26)/2
 347 002d 23       		.byte	(.L28-.L26)/2
 348 002e 0A       		.byte	(.L25-.L26)/2
 349 002f 04       		.byte	(.L27-.L26)/2
 350 0030 0F       		.byte	(.L24-.L26)/2
 351 0031 0A       		.byte	(.L25-.L26)/2
 352              		.p2align 1
 353              	.L27:
 354              		.loc 1 290 5 view .LVU75
 355              		.loc 1 290 29 is_stmt 0 view .LVU76
 356 0032 A56A     		ldr	r5, [r4, #40]
 357              	.LBB166:
 358              	.LBI166:
 359              		.file 6 ".//ChibiOS//os/rt/include/chsem.h"
 360              		.loc 6 134 20 is_stmt 1 view .LVU77
 361              	.LVL17:
 362              	.LBB167:
 363              		.loc 6 136 3 view .LVU78
 364 0034 FFF7FEFF 		bl	chDbgCheckClassI
 365              	.LVL18:
 366              		.loc 6 138 3 view .LVU79
 367              		.loc 6 138 12 is_stmt 0 view .LVU80
 368 0038 AB68     		ldr	r3, [r5, #8]
 369 003a 0133     		adds	r3, r3, #1
 370 003c AB60     		str	r3, [r5, #8]
 371              	.LVL19:
 372              	.L25:
 373              		.loc 6 138 12 view .LVU81
 374              	.LBE167:
 375              	.LBE166:
 376              		.loc 1 298 5 is_stmt 1 view .LVU82
 377              	.LBB168:
 378              	.LBI168:
 379              		.loc 2 689 25 view .LVU83
 380              	.LBB169:
 381              		.loc 2 691 3 view .LVU84
 382              		.loc 2 691 26 is_stmt 0 view .LVU85
 383 003e D4E90032 		ldrd	r3, r2, [r4]
 384              		.loc 2 691 22 view .LVU86
 385 0042 1360     		str	r3, [r2]
 386              		.loc 2 692 3 is_stmt 1 view .LVU87
 387              		.loc 2 692 26 is_stmt 0 view .LVU88
 388 0044 6268     		ldr	r2, [r4, #4]
 389              		.loc 2 692 22 view .LVU89
 390 0046 5A60     		str	r2, [r3, #4]
 391              		.loc 2 694 3 is_stmt 1 view .LVU90
 392              	.LVL20:
 393              	.L24:
 394              		.loc 2 694 3 is_stmt 0 view .LVU91
 395              	.LBE169:
 396              	.LBE168:
 397              		.loc 1 304 3 is_stmt 1 view .LVU92
 398              		.loc 1 304 18 is_stmt 0 view .LVU93
 399 0048 4FF0FF33 		mov	r3, #-1
ARM GAS  /tmp/ccMJcLrf.s 			page 8


 400 004c A362     		str	r3, [r4, #40]
 401              		.loc 1 305 3 is_stmt 1 view .LVU94
 402              		.loc 1 305 10 is_stmt 0 view .LVU95
 403 004e 2046     		mov	r0, r4
 404 0050 FFF7FEFF 		bl	chSchReadyI
 405              	.LVL21:
 406              	.L33:
 407              		.loc 1 306 3 is_stmt 1 view .LVU96
 408              	.LBB170:
 409              	.LBI170:
 410              		.loc 3 406 20 view .LVU97
 411              	.LBB171:
 412              		.loc 3 408 3 view .LVU98
 413 0054 FFF7FEFF 		bl	_dbg_check_unlock_from_isr
 414              	.LVL22:
 415              		.loc 3 409 3 view .LVU99
 416 0058 FFF7FEFF 		bl	_stats_stop_measure_crit_isr
 417              	.LVL23:
 418              		.loc 3 410 3 view .LVU100
 419              	.LBB172:
 420              	.LBI172:
 421              		.loc 4 484 20 view .LVU101
 422              	.LBE172:
 423              	.LBE171:
 424              	.LBE170:
 425              		.loc 4 486 3 view .LVU102
 426              	.LBB181:
 427              	.LBB179:
 428              	.LBB177:
 429              	.LBB173:
 430              	.LBI173:
 431              		.loc 4 458 20 view .LVU103
 432              	.LBE173:
 433              	.LBE177:
 434              	.LBE179:
 435              	.LBE181:
 436              		.loc 4 461 3 view .LVU104
 437              	.LBB182:
 438              	.LBB180:
 439              	.LBB178:
 440              	.LBB176:
 441              	.LBB174:
 442              	.LBI174:
 443              		.loc 5 544 57 view .LVU105
 444              	.LBB175:
 445              		.loc 5 546 3 view .LVU106
 446 005c 0023     		movs	r3, #0
 447              		.syntax unified
 448              	@ 546 ".//ChibiOS//os/ext/CMSIS/include/core_cmFunc.h" 1
 449 005e 83F31188 		MSR basepri, r3
 450              	@ 0 "" 2
 451              	.LVL24:
 452              		.loc 5 546 3 is_stmt 0 view .LVU107
 453              		.thumb
 454              		.syntax unified
 455              	.LBE175:
 456              	.LBE174:
ARM GAS  /tmp/ccMJcLrf.s 			page 9


 457              	.LBE176:
 458              	.LBE178:
 459              	.LBE180:
 460              	.LBE182:
 461              		.loc 1 307 1 view .LVU108
 462 0062 064B     		ldr	r3, .L35
 463 0064 1A68     		ldr	r2, [r3]
 464 0066 019B     		ldr	r3, [sp, #4]
 465 0068 5A40     		eors	r2, r3, r2
 466 006a 05D1     		bne	.L34
 467 006c 03B0     		add	sp, sp, #12
 468              		.cfi_remember_state
 469              		.cfi_def_cfa_offset 12
 470              		@ sp needed
 471 006e 30BD     		pop	{r4, r5, pc}
 472              	.LVL25:
 473              	.L28:
 474              		.cfi_restore_state
 475              		.loc 1 286 5 is_stmt 1 view .LVU109
 476              		.loc 1 286 13 is_stmt 0 view .LVU110
 477 0070 A36A     		ldr	r3, [r4, #40]
 478              		.loc 1 286 20 view .LVU111
 479 0072 0022     		movs	r2, #0
 480 0074 1A60     		str	r2, [r3]
 481              		.loc 1 287 5 is_stmt 1 view .LVU112
 482 0076 E7E7     		b	.L24
 483              	.L34:
 484              		.loc 1 307 1 is_stmt 0 view .LVU113
 485 0078 FFF7FEFF 		bl	__stack_chk_fail
 486              	.LVL26:
 487              	.L36:
 488              		.align	2
 489              	.L35:
 490 007c 00000000 		.word	.LC2
 491              		.cfi_endproc
 492              	.LFE222:
 493              		.size	wakeup, .-wakeup
 494              		.section	.rodata.chSchGoSleepS.str1.4,"aMS",%progbits,1
 495              		.align	2
 496              	.LC3:
 497 0000 73746163 		.ascii	"stack overflow\000"
 497      6B206F76 
 497      6572666C 
 497      6F7700
 498              		.section	.rodata.chSchGoSleepS.cst4,"aM",%progbits,4
 499              		.align	2
 500              	.LC4:
 501 0000 00000000 		.word	__stack_chk_guard
 502              		.section	.text.chSchGoSleepS,"ax",%progbits
 503              		.align	1
 504              		.p2align 4,,15
 505              		.global	chSchGoSleepS
 506              		.syntax unified
 507              		.thumb
 508              		.thumb_func
 509              		.fpu fpv4-sp-d16
 510              		.type	chSchGoSleepS, %function
ARM GAS  /tmp/ccMJcLrf.s 			page 10


 511              	chSchGoSleepS:
 512              	.LVL27:
 513              	.LFB221:
 514              		.loc 1 250 39 is_stmt 1 view -0
 515              		.cfi_startproc
 516              		@ args = 0, pretend = 0, frame = 8
 517              		@ frame_needed = 0, uses_anonymous_args = 0
 518              		.loc 1 250 39 is_stmt 0 view .LVU115
 519 0000 70B5     		push	{r4, r5, r6, lr}
 520              		.cfi_def_cfa_offset 16
 521              		.cfi_offset 4, -16
 522              		.cfi_offset 5, -12
 523              		.cfi_offset 6, -8
 524              		.cfi_offset 14, -4
 525 0002 1B4B     		ldr	r3, .L44
 526              		.loc 1 255 7 view .LVU116
 527 0004 1B4C     		ldr	r4, .L44+4
 528              		.loc 1 250 39 view .LVU117
 529 0006 82B0     		sub	sp, sp, #8
 530              		.cfi_def_cfa_offset 24
 531              		.loc 1 250 39 view .LVU118
 532 0008 0646     		mov	r6, r0
 533 000a 1B68     		ldr	r3, [r3]
 534 000c 0193     		str	r3, [sp, #4]
 535 000e 4FF00003 		mov	r3,#0
 536              		.loc 1 251 3 is_stmt 1 view .LVU119
 537              		.loc 1 253 3 view .LVU120
 538 0012 FFF7FEFF 		bl	chDbgCheckClassS
 539              	.LVL28:
 540              		.loc 1 255 3 view .LVU121
 541              		.loc 1 255 7 is_stmt 0 view .LVU122
 542 0016 A569     		ldr	r5, [r4, #24]
 543              	.LVL29:
 544              		.loc 1 256 3 is_stmt 1 view .LVU123
 545              	.LBB183:
 546              	.LBB184:
 547              		.loc 2 672 13 is_stmt 0 view .LVU124
 548 0018 2368     		ldr	r3, [r4]
 549              	.LBE184:
 550              	.LBE183:
 551              		.loc 1 256 16 view .LVU125
 552 001a 85F82060 		strb	r6, [r5, #32]
 553              		.loc 1 260 3 is_stmt 1 view .LVU126
 554              		.loc 1 260 18 is_stmt 0 view .LVU127
 555 001e 1422     		movs	r2, #20
 556 0020 85F82320 		strb	r2, [r5, #35]
 557              		.loc 1 262 3 is_stmt 1 view .LVU128
 558              	.LVL30:
 559              	.LBB187:
 560              	.LBI183:
 561              		.loc 2 671 25 view .LVU129
 562              	.LBB185:
 563              		.loc 2 672 3 view .LVU130
 564              		.loc 2 674 3 view .LVU131
 565              		.loc 2 674 19 is_stmt 0 view .LVU132
 566 0024 1A68     		ldr	r2, [r3]
 567              		.loc 2 674 15 view .LVU133
ARM GAS  /tmp/ccMJcLrf.s 			page 11


 568 0026 2260     		str	r2, [r4]
 569              		.loc 2 675 3 is_stmt 1 view .LVU134
 570              	.LBE185:
 571              	.LBE187:
 572              		.loc 1 268 18 is_stmt 0 view .LVU135
 573 0028 0121     		movs	r1, #1
 574              	.LBB188:
 575              	.LBB186:
 576              		.loc 2 675 23 view .LVU136
 577 002a 5460     		str	r4, [r2, #4]
 578              		.loc 2 677 3 is_stmt 1 view .LVU137
 579              	.LVL31:
 580              		.loc 2 677 3 is_stmt 0 view .LVU138
 581              	.LBE186:
 582              	.LBE188:
 583              		.loc 1 269 3 view .LVU139
 584 002c 2846     		mov	r0, r5
 585              		.loc 1 268 18 view .LVU140
 586 002e 83F82010 		strb	r1, [r3, #32]
 587              		.loc 1 262 3 view .LVU141
 588 0032 A361     		str	r3, [r4, #24]
 589              		.loc 1 264 3 is_stmt 1 view .LVU142
 590              		.loc 1 265 5 view .LVU143
 591              		.loc 1 265 29 view .LVU144
 592              		.loc 1 268 3 view .LVU145
 593              		.loc 1 269 3 view .LVU146
 594 0034 FFF7FEFF 		bl	_dbg_trace
 595              	.LVL32:
 596              		.loc 1 269 3 view .LVU147
 597 0038 A069     		ldr	r0, [r4, #24]
 598 003a 2946     		mov	r1, r5
 599 003c FFF7FEFF 		bl	_stats_ctxswc
 600              	.LVL33:
 601              		.loc 1 269 3 view .LVU148
 602              		.loc 1 269 3 view .LVU149
 603              	.LBB189:
 604              		.loc 1 269 3 view .LVU150
 605              	.LBB190:
 606              	.LBI190:
 607              		.loc 5 424 61 view .LVU151
 608              	.LBB191:
 609              		.loc 5 426 3 view .LVU152
 610              		.loc 5 428 3 view .LVU153
 611              		.syntax unified
 612              	@ 428 ".//ChibiOS//os/ext/CMSIS/include/core_cmFunc.h" 1
 613 0040 EFF30983 		MRS r3, psp
 614              	
 615              	@ 0 "" 2
 616              	.LVL34:
 617              		.loc 5 429 3 view .LVU154
 618              		.loc 5 429 3 is_stmt 0 view .LVU155
 619              		.thumb
 620              		.syntax unified
 621              	.LBE191:
 622              	.LBE190:
 623              		.loc 1 269 3 is_stmt 1 view .LVU156
 624 0044 EA69     		ldr	r2, [r5, #28]
ARM GAS  /tmp/ccMJcLrf.s 			page 12


 625 0046 643B     		subs	r3, r3, #100
 626              	.LVL35:
 627              		.loc 1 269 3 is_stmt 0 view .LVU157
 628 0048 9A42     		cmp	r2, r3
 629 004a 0BD8     		bhi	.L42
 630              	.LVL36:
 631              	.L38:
 632              		.loc 1 269 3 is_stmt 1 discriminator 3 view .LVU158
 633 004c 084B     		ldr	r3, .L44
 634 004e 1A68     		ldr	r2, [r3]
 635 0050 019B     		ldr	r3, [sp, #4]
 636 0052 5A40     		eors	r2, r3, r2
 637 0054 0AD1     		bne	.L43
 638 0056 A069     		ldr	r0, [r4, #24]
 639 0058 2946     		mov	r1, r5
 640              	.LBE189:
 641              		.loc 1 270 1 is_stmt 0 discriminator 3 view .LVU159
 642 005a 02B0     		add	sp, sp, #8
 643              		.cfi_remember_state
 644              		.cfi_def_cfa_offset 16
 645              		@ sp needed
 646 005c BDE87040 		pop	{r4, r5, r6, lr}
 647              		.cfi_restore 14
 648              		.cfi_restore 6
 649              		.cfi_restore 5
 650              		.cfi_restore 4
 651              		.cfi_def_cfa_offset 0
 652              	.LVL37:
 653              	.LBB192:
 654              		.loc 1 269 3 discriminator 3 view .LVU160
 655 0060 FFF7FEBF 		b	_port_switch
 656              	.LVL38:
 657              	.L42:
 658              		.cfi_restore_state
 659              		.loc 1 269 3 is_stmt 1 discriminator 1 view .LVU161
 660 0064 0448     		ldr	r0, .L44+8
 661 0066 FFF7FEFF 		bl	chSysHalt
 662              	.LVL39:
 663              		.loc 1 269 3 is_stmt 0 discriminator 1 view .LVU162
 664 006a EFE7     		b	.L38
 665              	.L43:
 666              		.loc 1 269 3 discriminator 3 view .LVU163
 667 006c FFF7FEFF 		bl	__stack_chk_fail
 668              	.LVL40:
 669              	.L45:
 670              		.align	2
 671              	.L44:
 672 0070 00000000 		.word	.LC4
 673 0074 00000000 		.word	.LANCHOR0
 674 0078 00000000 		.word	.LC3
 675              	.LBE192:
 676              		.cfi_endproc
 677              	.LFE221:
 678              		.size	chSchGoSleepS, .-chSchGoSleepS
 679              		.section	.rodata.chSchGoSleepTimeoutS.cst4,"aM",%progbits,4
 680              		.align	2
 681              	.LC5:
ARM GAS  /tmp/ccMJcLrf.s 			page 13


 682 0000 00000000 		.word	__stack_chk_guard
 683              		.section	.text.chSchGoSleepTimeoutS,"ax",%progbits
 684              		.align	1
 685              		.p2align 4,,15
 686              		.global	chSchGoSleepTimeoutS
 687              		.syntax unified
 688              		.thumb
 689              		.thumb_func
 690              		.fpu fpv4-sp-d16
 691              		.type	chSchGoSleepTimeoutS, %function
 692              	chSchGoSleepTimeoutS:
 693              	.LVL41:
 694              	.LFB223:
 695              		.loc 1 330 63 is_stmt 1 view -0
 696              		.cfi_startproc
 697              		@ args = 0, pretend = 0, frame = 24
 698              		@ frame_needed = 0, uses_anonymous_args = 0
 699              		.loc 1 330 63 is_stmt 0 view .LVU165
 700 0000 70B5     		push	{r4, r5, r6, lr}
 701              		.cfi_def_cfa_offset 16
 702              		.cfi_offset 4, -16
 703              		.cfi_offset 5, -12
 704              		.cfi_offset 6, -8
 705              		.cfi_offset 14, -4
 706 0002 164B     		ldr	r3, .L56
 707 0004 86B0     		sub	sp, sp, #24
 708              		.cfi_def_cfa_offset 40
 709              		.loc 1 330 63 view .LVU166
 710 0006 0C46     		mov	r4, r1
 711 0008 1B68     		ldr	r3, [r3]
 712 000a 0593     		str	r3, [sp, #20]
 713 000c 4FF00003 		mov	r3,#0
 714              		.loc 1 332 3 is_stmt 1 view .LVU167
 715              		.loc 1 330 63 is_stmt 0 view .LVU168
 716 0010 0546     		mov	r5, r0
 717              		.loc 1 332 3 view .LVU169
 718 0012 FFF7FEFF 		bl	chDbgCheckClassS
 719              	.LVL42:
 720              		.loc 1 334 3 is_stmt 1 view .LVU170
 721              		.loc 1 334 6 is_stmt 0 view .LVU171
 722 0016 631C     		adds	r3, r4, #1
 723 0018 19D0     		beq	.L47
 724              	.LBB193:
 725              		.loc 1 335 5 is_stmt 1 view .LVU172
 726              		.loc 1 337 5 view .LVU173
 727              		.loc 1 337 35 is_stmt 0 view .LVU174
 728 001a 114E     		ldr	r6, .L56+4
 729              		.loc 1 337 5 view .LVU175
 730 001c 114A     		ldr	r2, .L56+8
 731 001e B369     		ldr	r3, [r6, #24]
 732 0020 2146     		mov	r1, r4
 733 0022 6846     		mov	r0, sp
 734 0024 FFF7FEFF 		bl	chVTDoSetI
 735              	.LVL43:
 736              		.loc 1 338 5 is_stmt 1 view .LVU176
 737 0028 2846     		mov	r0, r5
 738 002a FFF7FEFF 		bl	chSchGoSleepS
ARM GAS  /tmp/ccMJcLrf.s 			page 14


 739              	.LVL44:
 740              		.loc 1 339 5 view .LVU177
 741              	.LBB194:
 742              	.LBI194:
 743              		.file 7 ".//ChibiOS//os/rt/include/chvt.h"
 744              		.loc 7 337 20 view .LVU178
 745              	.LBB195:
 746              		.loc 7 339 3 view .LVU179
 747 002e FFF7FEFF 		bl	chDbgCheckClassI
 748              	.LVL45:
 749              		.loc 7 341 3 view .LVU180
 750              	.LBE195:
 751              	.LBE194:
 752              		.loc 1 339 8 is_stmt 0 view .LVU181
 753 0032 039B     		ldr	r3, [sp, #12]
 754 0034 13B1     		cbz	r3, .L49
 755              		.loc 1 340 7 is_stmt 1 view .LVU182
 756 0036 6846     		mov	r0, sp
 757 0038 FFF7FEFF 		bl	chVTDoResetI
 758              	.LVL46:
 759              	.L49:
 760              		.loc 1 340 7 is_stmt 0 view .LVU183
 761              	.LBE193:
 762              		.loc 1 347 3 is_stmt 1 view .LVU184
 763              		.loc 1 347 20 is_stmt 0 view .LVU185
 764 003c B369     		ldr	r3, [r6, #24]
 765 003e 986A     		ldr	r0, [r3, #40]
 766              		.loc 1 348 1 view .LVU186
 767 0040 064B     		ldr	r3, .L56
 768 0042 1A68     		ldr	r2, [r3]
 769 0044 059B     		ldr	r3, [sp, #20]
 770 0046 5A40     		eors	r2, r3, r2
 771 0048 06D1     		bne	.L55
 772 004a 06B0     		add	sp, sp, #24
 773              		.cfi_remember_state
 774              		.cfi_def_cfa_offset 16
 775              		@ sp needed
 776 004c 70BD     		pop	{r4, r5, r6, pc}
 777              	.LVL47:
 778              	.L47:
 779              		.cfi_restore_state
 780              		.loc 1 344 5 is_stmt 1 view .LVU187
 781 004e 2846     		mov	r0, r5
 782 0050 FFF7FEFF 		bl	chSchGoSleepS
 783              	.LVL48:
 784 0054 024E     		ldr	r6, .L56+4
 785 0056 F1E7     		b	.L49
 786              	.L55:
 787              		.loc 1 348 1 is_stmt 0 view .LVU188
 788 0058 FFF7FEFF 		bl	__stack_chk_fail
 789              	.LVL49:
 790              	.L57:
 791              		.align	2
 792              	.L56:
 793 005c 00000000 		.word	.LC5
 794 0060 00000000 		.word	.LANCHOR0
 795 0064 00000000 		.word	wakeup
ARM GAS  /tmp/ccMJcLrf.s 			page 15


 796              		.cfi_endproc
 797              	.LFE223:
 798              		.size	chSchGoSleepTimeoutS, .-chSchGoSleepTimeoutS
 799              		.section	.rodata.chSchWakeupS.cst4,"aM",%progbits,4
 800              		.align	2
 801              	.LC6:
 802 0000 00000000 		.word	__stack_chk_guard
 803              		.section	.text.chSchWakeupS,"ax",%progbits
 804              		.align	1
 805              		.p2align 4,,15
 806              		.global	chSchWakeupS
 807              		.syntax unified
 808              		.thumb
 809              		.thumb_func
 810              		.fpu fpv4-sp-d16
 811              		.type	chSchWakeupS, %function
 812              	chSchWakeupS:
 813              	.LVL50:
 814              	.LFB224:
 815              		.loc 1 367 45 is_stmt 1 view -0
 816              		.cfi_startproc
 817              		@ args = 0, pretend = 0, frame = 8
 818              		@ frame_needed = 0, uses_anonymous_args = 0
 819              		.loc 1 367 45 is_stmt 0 view .LVU190
 820 0000 70B5     		push	{r4, r5, r6, lr}
 821              		.cfi_def_cfa_offset 16
 822              		.cfi_offset 4, -16
 823              		.cfi_offset 5, -12
 824              		.cfi_offset 6, -8
 825              		.cfi_offset 14, -4
 826 0002 224B     		ldr	r3, .L67
 827              		.loc 1 379 22 view .LVU191
 828 0004 224E     		ldr	r6, .L67+4
 829              		.loc 1 367 45 view .LVU192
 830 0006 0446     		mov	r4, r0
 831 0008 82B0     		sub	sp, sp, #8
 832              		.cfi_def_cfa_offset 24
 833              		.loc 1 367 45 view .LVU193
 834 000a 1B68     		ldr	r3, [r3]
 835 000c 0193     		str	r3, [sp, #4]
 836 000e 4FF00003 		mov	r3,#0
 837              		.loc 1 369 3 is_stmt 1 view .LVU194
 838              		.loc 1 367 45 is_stmt 0 view .LVU195
 839 0012 0D46     		mov	r5, r1
 840              		.loc 1 369 3 view .LVU196
 841 0014 FFF7FEFF 		bl	chDbgCheckClassS
 842              	.LVL51:
 843              		.loc 1 373 3 is_stmt 1 view .LVU197
 844              		.loc 1 379 22 is_stmt 0 view .LVU198
 845 0018 B069     		ldr	r0, [r6, #24]
 846              		.loc 1 373 19 view .LVU199
 847 001a A562     		str	r5, [r4, #40]
 848              		.loc 1 379 3 is_stmt 1 view .LVU200
 849              		.loc 1 379 6 is_stmt 0 view .LVU201
 850 001c 8368     		ldr	r3, [r0, #8]
 851 001e A268     		ldr	r2, [r4, #8]
 852 0020 9A42     		cmp	r2, r3
ARM GAS  /tmp/ccMJcLrf.s 			page 16


 853 0022 0AD8     		bhi	.L59
 854              		.loc 1 380 5 is_stmt 1 view .LVU202
 855              		.loc 1 380 12 is_stmt 0 view .LVU203
 856 0024 194B     		ldr	r3, .L67
 857 0026 1A68     		ldr	r2, [r3]
 858 0028 019B     		ldr	r3, [sp, #4]
 859 002a 5A40     		eors	r2, r3, r2
 860 002c 2CD1     		bne	.L65
 861 002e 2046     		mov	r0, r4
 862              		.loc 1 393 1 view .LVU204
 863 0030 02B0     		add	sp, sp, #8
 864              		.cfi_remember_state
 865              		.cfi_def_cfa_offset 16
 866              		@ sp needed
 867 0032 BDE87040 		pop	{r4, r5, r6, lr}
 868              		.cfi_restore 14
 869              		.cfi_restore 6
 870              		.cfi_restore 5
 871              		.cfi_restore 4
 872              		.cfi_def_cfa_offset 0
 873              	.LVL52:
 874              		.loc 1 380 12 view .LVU205
 875 0036 FFF7FEBF 		b	chSchReadyI
 876              	.LVL53:
 877              	.L59:
 878              		.cfi_restore_state
 879              	.LBB196:
 880              		.loc 1 383 5 is_stmt 1 view .LVU206
 881              		.loc 1 383 21 is_stmt 0 view .LVU207
 882 003a FFF7FEFF 		bl	chSchReadyI
 883              	.LVL54:
 884              		.loc 1 390 18 view .LVU208
 885 003e 0123     		movs	r3, #1
 886              		.loc 1 383 21 view .LVU209
 887 0040 0546     		mov	r5, r0
 888              	.LVL55:
 889              		.loc 1 384 5 is_stmt 1 view .LVU210
 890              		.loc 1 390 18 is_stmt 0 view .LVU211
 891 0042 84F82030 		strb	r3, [r4, #32]
 892              		.loc 1 384 5 view .LVU212
 893 0046 B461     		str	r4, [r6, #24]
 894              		.loc 1 386 5 is_stmt 1 view .LVU213
 895              		.loc 1 387 7 view .LVU214
 896              		.loc 1 387 31 view .LVU215
 897              		.loc 1 390 5 view .LVU216
 898              		.loc 1 391 5 view .LVU217
 899 0048 FFF7FEFF 		bl	_dbg_trace
 900              	.LVL56:
 901              		.loc 1 391 5 view .LVU218
 902 004c 2946     		mov	r1, r5
 903 004e 2046     		mov	r0, r4
 904 0050 FFF7FEFF 		bl	_stats_ctxswc
 905              	.LVL57:
 906              		.loc 1 391 5 view .LVU219
 907              		.loc 1 391 5 view .LVU220
 908              	.LBB197:
 909              		.loc 1 391 5 view .LVU221
ARM GAS  /tmp/ccMJcLrf.s 			page 17


 910              	.LBB198:
 911              	.LBI198:
 912              		.loc 5 424 61 view .LVU222
 913              	.LBB199:
 914              		.loc 5 426 3 view .LVU223
 915              		.loc 5 428 3 view .LVU224
 916              		.syntax unified
 917              	@ 428 ".//ChibiOS//os/ext/CMSIS/include/core_cmFunc.h" 1
 918 0054 EFF30983 		MRS r3, psp
 919              	
 920              	@ 0 "" 2
 921              	.LVL58:
 922              		.loc 5 429 3 view .LVU225
 923              		.loc 5 429 3 is_stmt 0 view .LVU226
 924              		.thumb
 925              		.syntax unified
 926              	.LBE199:
 927              	.LBE198:
 928              		.loc 1 391 5 is_stmt 1 view .LVU227
 929 0058 EA69     		ldr	r2, [r5, #28]
 930 005a 643B     		subs	r3, r3, #100
 931              	.LVL59:
 932              		.loc 1 391 5 is_stmt 0 view .LVU228
 933 005c 9A42     		cmp	r2, r3
 934 005e 0BD8     		bhi	.L66
 935              		.loc 1 391 5 is_stmt 1 discriminator 3 view .LVU229
 936 0060 0A4B     		ldr	r3, .L67
 937              	.LVL60:
 938              		.loc 1 391 5 is_stmt 0 discriminator 3 view .LVU230
 939 0062 1A68     		ldr	r2, [r3]
 940 0064 019B     		ldr	r3, [sp, #4]
 941 0066 5A40     		eors	r2, r3, r2
 942 0068 0ED1     		bne	.L65
 943              	.L62:
 944 006a 2946     		mov	r1, r5
 945 006c 2046     		mov	r0, r4
 946              	.LBE197:
 947              	.LBE196:
 948              		.loc 1 393 1 discriminator 3 view .LVU231
 949 006e 02B0     		add	sp, sp, #8
 950              		.cfi_remember_state
 951              		.cfi_def_cfa_offset 16
 952              		@ sp needed
 953 0070 BDE87040 		pop	{r4, r5, r6, lr}
 954              		.cfi_restore 14
 955              		.cfi_restore 6
 956              		.cfi_restore 5
 957              		.cfi_restore 4
 958              		.cfi_def_cfa_offset 0
 959              	.LVL61:
 960              	.LBB201:
 961              	.LBB200:
 962              		.loc 1 391 5 discriminator 3 view .LVU232
 963 0074 FFF7FEBF 		b	_port_switch
 964              	.LVL62:
 965              	.L66:
 966              		.cfi_restore_state
ARM GAS  /tmp/ccMJcLrf.s 			page 18


 967              		.loc 1 391 5 is_stmt 1 discriminator 1 view .LVU233
 968 0078 0648     		ldr	r0, .L67+8
 969 007a FFF7FEFF 		bl	chSysHalt
 970              	.LVL63:
 971              		.loc 1 391 5 discriminator 1 view .LVU234
 972 007e 034B     		ldr	r3, .L67
 973 0080 1A68     		ldr	r2, [r3]
 974 0082 019B     		ldr	r3, [sp, #4]
 975 0084 5A40     		eors	r2, r3, r2
 976 0086 F0D0     		beq	.L62
 977              	.LVL64:
 978              	.L65:
 979              		.loc 1 391 5 is_stmt 0 discriminator 3 view .LVU235
 980 0088 FFF7FEFF 		bl	__stack_chk_fail
 981              	.LVL65:
 982              	.L68:
 983              		.align	2
 984              	.L67:
 985 008c 00000000 		.word	.LC6
 986 0090 00000000 		.word	.LANCHOR0
 987 0094 00000000 		.word	.LC3
 988              	.LBE200:
 989              	.LBE201:
 990              		.cfi_endproc
 991              	.LFE224:
 992              		.size	chSchWakeupS, .-chSchWakeupS
 993              		.section	.rodata.chSchIsPreemptionRequired.cst4,"aM",%progbits,4
 994              		.align	2
 995              	.LC7:
 996 0000 00000000 		.word	__stack_chk_guard
 997              		.section	.text.chSchIsPreemptionRequired,"ax",%progbits
 998              		.align	1
 999              		.p2align 4,,15
 1000              		.global	chSchIsPreemptionRequired
 1001              		.syntax unified
 1002              		.thumb
 1003              		.thumb_func
 1004              		.fpu fpv4-sp-d16
 1005              		.type	chSchIsPreemptionRequired, %function
 1006              	chSchIsPreemptionRequired:
 1007              	.LFB226:
 1008              		.loc 1 424 38 is_stmt 1 view -0
 1009              		.cfi_startproc
 1010              		@ args = 0, pretend = 0, frame = 8
 1011              		@ frame_needed = 0, uses_anonymous_args = 0
 1012 0000 00B5     		push	{lr}
 1013              		.cfi_def_cfa_offset 4
 1014              		.cfi_offset 14, -4
 1015              		.loc 1 425 16 is_stmt 0 view .LVU237
 1016 0002 104A     		ldr	r2, .L75
 1017              		.loc 1 424 38 view .LVU238
 1018 0004 104B     		ldr	r3, .L75+4
 1019              		.loc 1 425 11 view .LVU239
 1020 0006 1168     		ldr	r1, [r2]
 1021              		.loc 1 424 38 view .LVU240
 1022 0008 83B0     		sub	sp, sp, #12
 1023              		.cfi_def_cfa_offset 16
ARM GAS  /tmp/ccMJcLrf.s 			page 19


 1024              		.loc 1 424 38 view .LVU241
 1025 000a 1B68     		ldr	r3, [r3]
 1026 000c 0193     		str	r3, [sp, #4]
 1027 000e 4FF00003 		mov	r3,#0
 1028              		.loc 1 425 3 is_stmt 1 view .LVU242
 1029              		.loc 1 426 16 is_stmt 0 view .LVU243
 1030 0012 9369     		ldr	r3, [r2, #24]
 1031              		.loc 1 425 11 view .LVU244
 1032 0014 8868     		ldr	r0, [r1, #8]
 1033              	.LVL66:
 1034              		.loc 1 426 3 is_stmt 1 view .LVU245
 1035              		.loc 1 433 56 is_stmt 0 view .LVU246
 1036 0016 93F82320 		ldrb	r2, [r3, #35]	@ zero_extendqisi2
 1037              		.loc 1 426 11 view .LVU247
 1038 001a 9B68     		ldr	r3, [r3, #8]
 1039              	.LVL67:
 1040              		.loc 1 433 3 is_stmt 1 view .LVU248
 1041              		.loc 1 433 56 is_stmt 0 view .LVU249
 1042 001c 5AB1     		cbz	r2, .L70
 1043              		.loc 1 433 56 discriminator 1 view .LVU250
 1044 001e 9842     		cmp	r0, r3
 1045 0020 94BF     		ite	ls
 1046 0022 0020     		movls	r0, #0
 1047              	.LVL68:
 1048              		.loc 1 433 56 discriminator 1 view .LVU251
 1049 0024 0120     		movhi	r0, #1
 1050              	.L71:
 1051              		.loc 1 439 1 discriminator 4 view .LVU252
 1052 0026 084B     		ldr	r3, .L75+4
 1053              	.LVL69:
 1054              		.loc 1 439 1 discriminator 4 view .LVU253
 1055 0028 1A68     		ldr	r2, [r3]
 1056 002a 019B     		ldr	r3, [sp, #4]
 1057 002c 5A40     		eors	r2, r3, r2
 1058 002e 07D1     		bne	.L74
 1059              		.loc 1 439 1 view .LVU254
 1060 0030 03B0     		add	sp, sp, #12
 1061              		.cfi_remember_state
 1062              		.cfi_def_cfa_offset 4
 1063              		@ sp needed
 1064 0032 5DF804FB 		ldr	pc, [sp], #4
 1065              	.LVL70:
 1066              	.L70:
 1067              		.cfi_restore_state
 1068              		.loc 1 433 56 discriminator 2 view .LVU255
 1069 0036 9842     		cmp	r0, r3
 1070 0038 34BF     		ite	cc
 1071 003a 0020     		movcc	r0, #0
 1072              	.LVL71:
 1073              		.loc 1 433 56 discriminator 2 view .LVU256
 1074 003c 0120     		movcs	r0, #1
 1075 003e F2E7     		b	.L71
 1076              	.LVL72:
 1077              	.L74:
 1078              		.loc 1 439 1 view .LVU257
 1079 0040 FFF7FEFF 		bl	__stack_chk_fail
 1080              	.LVL73:
ARM GAS  /tmp/ccMJcLrf.s 			page 20


 1081              	.L76:
 1082              		.loc 1 439 1 view .LVU258
 1083              		.align	2
 1084              	.L75:
 1085 0044 00000000 		.word	.LANCHOR0
 1086 0048 00000000 		.word	.LC7
 1087              		.cfi_endproc
 1088              	.LFE226:
 1089              		.size	chSchIsPreemptionRequired, .-chSchIsPreemptionRequired
 1090              		.section	.rodata.chSchDoRescheduleBehind.cst4,"aM",%progbits,4
 1091              		.align	2
 1092              	.LC8:
 1093 0000 00000000 		.word	__stack_chk_guard
 1094              		.section	.text.chSchDoRescheduleBehind,"ax",%progbits
 1095              		.align	1
 1096              		.p2align 4,,15
 1097              		.global	chSchDoRescheduleBehind
 1098              		.syntax unified
 1099              		.thumb
 1100              		.thumb_func
 1101              		.fpu fpv4-sp-d16
 1102              		.type	chSchDoRescheduleBehind, %function
 1103              	chSchDoRescheduleBehind:
 1104              	.LFB227:
 1105              		.loc 1 451 36 is_stmt 1 view -0
 1106              		.cfi_startproc
 1107              		@ args = 0, pretend = 0, frame = 8
 1108              		@ frame_needed = 0, uses_anonymous_args = 0
 1109 0000 30B5     		push	{r4, r5, lr}
 1110              		.cfi_def_cfa_offset 12
 1111              		.cfi_offset 4, -12
 1112              		.cfi_offset 5, -8
 1113              		.cfi_offset 14, -4
 1114 0002 1A4B     		ldr	r3, .L84
 1115              		.loc 1 454 7 is_stmt 0 view .LVU260
 1116 0004 1A4C     		ldr	r4, .L84+4
 1117              		.loc 1 451 36 view .LVU261
 1118 0006 83B0     		sub	sp, sp, #12
 1119              		.cfi_def_cfa_offset 24
 1120              		.loc 1 451 36 view .LVU262
 1121 0008 1B68     		ldr	r3, [r3]
 1122 000a 0193     		str	r3, [sp, #4]
 1123 000c 4FF00003 		mov	r3,#0
 1124              		.loc 1 452 3 is_stmt 1 view .LVU263
 1125              		.loc 1 454 3 view .LVU264
 1126              	.LBB202:
 1127              	.LBB203:
 1128              		.loc 2 672 13 is_stmt 0 view .LVU265
 1129 0010 2368     		ldr	r3, [r4]
 1130              	.LBE203:
 1131              	.LBE202:
 1132              		.loc 1 454 7 view .LVU266
 1133 0012 A569     		ldr	r5, [r4, #24]
 1134              	.LVL74:
 1135              		.loc 1 456 3 is_stmt 1 view .LVU267
 1136              	.LBB206:
 1137              	.LBI202:
ARM GAS  /tmp/ccMJcLrf.s 			page 21


 1138              		.loc 2 671 25 view .LVU268
 1139              	.LBB204:
 1140              		.loc 2 672 3 view .LVU269
 1141              		.loc 2 674 3 view .LVU270
 1142              		.loc 2 674 19 is_stmt 0 view .LVU271
 1143 0014 1A68     		ldr	r2, [r3]
 1144              		.loc 2 674 15 view .LVU272
 1145 0016 2260     		str	r2, [r4]
 1146              		.loc 2 675 3 is_stmt 1 view .LVU273
 1147              	.LBE204:
 1148              	.LBE206:
 1149              		.loc 1 464 18 is_stmt 0 view .LVU274
 1150 0018 1421     		movs	r1, #20
 1151              		.loc 1 462 18 view .LVU275
 1152 001a 0120     		movs	r0, #1
 1153              	.LBB207:
 1154              	.LBB205:
 1155              		.loc 2 675 23 view .LVU276
 1156 001c 5460     		str	r4, [r2, #4]
 1157              		.loc 2 677 3 is_stmt 1 view .LVU277
 1158              	.LVL75:
 1159              		.loc 2 677 3 is_stmt 0 view .LVU278
 1160              	.LBE205:
 1161              	.LBE207:
 1162              		.loc 1 462 18 view .LVU279
 1163 001e 83F82000 		strb	r0, [r3, #32]
 1164              		.loc 1 464 18 view .LVU280
 1165 0022 85F82310 		strb	r1, [r5, #35]
 1166              		.loc 1 466 10 view .LVU281
 1167 0026 2846     		mov	r0, r5
 1168              		.loc 1 456 3 view .LVU282
 1169 0028 A361     		str	r3, [r4, #24]
 1170              		.loc 1 458 3 is_stmt 1 view .LVU283
 1171              		.loc 1 459 5 view .LVU284
 1172              		.loc 1 459 29 view .LVU285
 1173              		.loc 1 462 3 view .LVU286
 1174              		.loc 1 464 3 view .LVU287
 1175              		.loc 1 466 3 view .LVU288
 1176              		.loc 1 466 10 is_stmt 0 view .LVU289
 1177 002a FFF7FEFF 		bl	chSchReadyI
 1178              	.LVL76:
 1179              		.loc 1 467 3 is_stmt 1 view .LVU290
 1180 002e 2846     		mov	r0, r5
 1181 0030 FFF7FEFF 		bl	_dbg_trace
 1182              	.LVL77:
 1183              		.loc 1 467 3 view .LVU291
 1184 0034 A069     		ldr	r0, [r4, #24]
 1185 0036 2946     		mov	r1, r5
 1186 0038 FFF7FEFF 		bl	_stats_ctxswc
 1187              	.LVL78:
 1188              		.loc 1 467 3 view .LVU292
 1189              		.loc 1 467 3 view .LVU293
 1190              	.LBB208:
 1191              		.loc 1 467 3 view .LVU294
 1192              	.LBB209:
 1193              	.LBI209:
 1194              		.loc 5 424 61 view .LVU295
ARM GAS  /tmp/ccMJcLrf.s 			page 22


 1195              	.LBB210:
 1196              		.loc 5 426 3 view .LVU296
 1197              		.loc 5 428 3 view .LVU297
 1198              		.syntax unified
 1199              	@ 428 ".//ChibiOS//os/ext/CMSIS/include/core_cmFunc.h" 1
 1200 003c EFF30983 		MRS r3, psp
 1201              	
 1202              	@ 0 "" 2
 1203              	.LVL79:
 1204              		.loc 5 429 3 view .LVU298
 1205              		.loc 5 429 3 is_stmt 0 view .LVU299
 1206              		.thumb
 1207              		.syntax unified
 1208              	.LBE210:
 1209              	.LBE209:
 1210              		.loc 1 467 3 is_stmt 1 view .LVU300
 1211 0040 EA69     		ldr	r2, [r5, #28]
 1212 0042 643B     		subs	r3, r3, #100
 1213              	.LVL80:
 1214              		.loc 1 467 3 is_stmt 0 view .LVU301
 1215 0044 9A42     		cmp	r2, r3
 1216 0046 0BD8     		bhi	.L82
 1217              	.LVL81:
 1218              	.L78:
 1219              		.loc 1 467 3 is_stmt 1 discriminator 3 view .LVU302
 1220 0048 084B     		ldr	r3, .L84
 1221 004a 1A68     		ldr	r2, [r3]
 1222 004c 019B     		ldr	r3, [sp, #4]
 1223 004e 5A40     		eors	r2, r3, r2
 1224 0050 0AD1     		bne	.L83
 1225 0052 A069     		ldr	r0, [r4, #24]
 1226 0054 2946     		mov	r1, r5
 1227              	.LBE208:
 1228              		.loc 1 468 1 is_stmt 0 discriminator 3 view .LVU303
 1229 0056 03B0     		add	sp, sp, #12
 1230              		.cfi_remember_state
 1231              		.cfi_def_cfa_offset 12
 1232              		@ sp needed
 1233 0058 BDE83040 		pop	{r4, r5, lr}
 1234              		.cfi_restore 14
 1235              		.cfi_restore 5
 1236              		.cfi_restore 4
 1237              		.cfi_def_cfa_offset 0
 1238              	.LVL82:
 1239              	.LBB211:
 1240              		.loc 1 467 3 discriminator 3 view .LVU304
 1241 005c FFF7FEBF 		b	_port_switch
 1242              	.LVL83:
 1243              	.L82:
 1244              		.cfi_restore_state
 1245              		.loc 1 467 3 is_stmt 1 discriminator 1 view .LVU305
 1246 0060 0448     		ldr	r0, .L84+8
 1247 0062 FFF7FEFF 		bl	chSysHalt
 1248              	.LVL84:
 1249              		.loc 1 467 3 is_stmt 0 discriminator 1 view .LVU306
 1250 0066 EFE7     		b	.L78
 1251              	.L83:
ARM GAS  /tmp/ccMJcLrf.s 			page 23


 1252              		.loc 1 467 3 discriminator 3 view .LVU307
 1253 0068 FFF7FEFF 		bl	__stack_chk_fail
 1254              	.LVL85:
 1255              	.L85:
 1256              		.align	2
 1257              	.L84:
 1258 006c 00000000 		.word	.LC8
 1259 0070 00000000 		.word	.LANCHOR0
 1260 0074 00000000 		.word	.LC3
 1261              	.LBE211:
 1262              		.cfi_endproc
 1263              	.LFE227:
 1264              		.size	chSchDoRescheduleBehind, .-chSchDoRescheduleBehind
 1265              		.section	.rodata.chSchDoRescheduleAhead.cst4,"aM",%progbits,4
 1266              		.align	2
 1267              	.LC9:
 1268 0000 00000000 		.word	__stack_chk_guard
 1269              		.section	.text.chSchDoRescheduleAhead,"ax",%progbits
 1270              		.align	1
 1271              		.p2align 4,,15
 1272              		.global	chSchDoRescheduleAhead
 1273              		.syntax unified
 1274              		.thumb
 1275              		.thumb_func
 1276              		.fpu fpv4-sp-d16
 1277              		.type	chSchDoRescheduleAhead, %function
 1278              	chSchDoRescheduleAhead:
 1279              	.LFB228:
 1280              		.loc 1 479 35 is_stmt 1 view -0
 1281              		.cfi_startproc
 1282              		@ args = 0, pretend = 0, frame = 8
 1283              		@ frame_needed = 0, uses_anonymous_args = 0
 1284 0000 30B5     		push	{r4, r5, lr}
 1285              		.cfi_def_cfa_offset 12
 1286              		.cfi_offset 4, -12
 1287              		.cfi_offset 5, -8
 1288              		.cfi_offset 14, -4
 1289              		.loc 1 482 7 is_stmt 0 view .LVU309
 1290 0002 1E4D     		ldr	r5, .L96
 1291              		.loc 1 479 35 view .LVU310
 1292 0004 1E4B     		ldr	r3, .L96+4
 1293              	.LBB212:
 1294              	.LBB213:
 1295              		.loc 2 672 13 view .LVU311
 1296 0006 2A68     		ldr	r2, [r5]
 1297              	.LBE213:
 1298              	.LBE212:
 1299              		.loc 1 482 7 view .LVU312
 1300 0008 AC69     		ldr	r4, [r5, #24]
 1301              		.loc 1 479 35 view .LVU313
 1302 000a 83B0     		sub	sp, sp, #12
 1303              		.cfi_def_cfa_offset 24
 1304              		.loc 1 479 35 view .LVU314
 1305 000c 1B68     		ldr	r3, [r3]
 1306 000e 0193     		str	r3, [sp, #4]
 1307 0010 4FF00003 		mov	r3,#0
 1308              		.loc 1 480 3 is_stmt 1 view .LVU315
ARM GAS  /tmp/ccMJcLrf.s 			page 24


 1309              		.loc 1 482 3 view .LVU316
 1310              	.LVL86:
 1311              		.loc 1 484 3 view .LVU317
 1312              	.LBB216:
 1313              	.LBI212:
 1314              		.loc 2 671 25 view .LVU318
 1315              	.LBB214:
 1316              		.loc 2 672 3 view .LVU319
 1317              		.loc 2 674 3 view .LVU320
 1318              		.loc 2 674 19 is_stmt 0 view .LVU321
 1319 0014 1368     		ldr	r3, [r2]
 1320              		.loc 2 674 15 view .LVU322
 1321 0016 2B60     		str	r3, [r5]
 1322              		.loc 2 675 3 is_stmt 1 view .LVU323
 1323              	.LBE214:
 1324              	.LBE216:
 1325              		.loc 1 490 18 is_stmt 0 view .LVU324
 1326 0018 0121     		movs	r1, #1
 1327              	.LBB217:
 1328              	.LBB215:
 1329              		.loc 2 675 23 view .LVU325
 1330 001a 5D60     		str	r5, [r3, #4]
 1331              		.loc 2 677 3 is_stmt 1 view .LVU326
 1332              	.LVL87:
 1333              		.loc 2 677 3 is_stmt 0 view .LVU327
 1334              	.LBE215:
 1335              	.LBE217:
 1336              		.loc 1 490 18 view .LVU328
 1337 001c 82F82010 		strb	r1, [r2, #32]
 1338              		.loc 1 484 3 view .LVU329
 1339 0020 AA61     		str	r2, [r5, #24]
 1340              		.loc 1 486 3 is_stmt 1 view .LVU330
 1341              		.loc 1 487 5 view .LVU331
 1342              		.loc 1 487 29 view .LVU332
 1343              		.loc 1 490 3 view .LVU333
 1344              		.loc 1 492 3 view .LVU334
 1345              		.loc 1 492 16 is_stmt 0 view .LVU335
 1346 0022 0022     		movs	r2, #0
 1347              		.loc 1 496 28 view .LVU336
 1348 0024 A168     		ldr	r1, [r4, #8]
 1349              		.loc 1 492 16 view .LVU337
 1350 0026 84F82020 		strb	r2, [r4, #32]
 1351              		.loc 1 493 3 is_stmt 1 view .LVU338
 1352              	.LVL88:
 1353              		.loc 1 493 3 is_stmt 0 view .LVU339
 1354 002a 00E0     		b	.L88
 1355              	.LVL89:
 1356              	.L93:
 1357              		.loc 1 493 3 view .LVU340
 1358 002c 1B68     		ldr	r3, [r3]
 1359              	.L88:
 1360              		.loc 1 494 3 is_stmt 1 discriminator 1 view .LVU341
 1361              		.loc 1 495 5 discriminator 1 view .LVU342
 1362              		.loc 1 496 11 discriminator 1 view .LVU343
 1363              		.loc 1 496 3 is_stmt 0 discriminator 1 view .LVU344
 1364 002e 9A68     		ldr	r2, [r3, #8]
 1365 0030 8A42     		cmp	r2, r1
ARM GAS  /tmp/ccMJcLrf.s 			page 25


 1366 0032 FBD8     		bhi	.L93
 1367              		.loc 1 498 3 is_stmt 1 view .LVU345
 1368              		.loc 1 498 15 is_stmt 0 view .LVU346
 1369 0034 2360     		str	r3, [r4]
 1370              		.loc 1 499 3 is_stmt 1 view .LVU347
 1371              		.loc 1 499 19 is_stmt 0 view .LVU348
 1372 0036 5A68     		ldr	r2, [r3, #4]
 1373              		.loc 1 499 15 view .LVU349
 1374 0038 6260     		str	r2, [r4, #4]
 1375              		.loc 1 500 3 is_stmt 1 view .LVU350
 1376              		.loc 1 503 3 is_stmt 0 view .LVU351
 1377 003a 2046     		mov	r0, r4
 1378              		.loc 1 500 23 view .LVU352
 1379 003c 1460     		str	r4, [r2]
 1380              		.loc 1 501 3 is_stmt 1 view .LVU353
 1381              		.loc 1 501 14 is_stmt 0 view .LVU354
 1382 003e 5C60     		str	r4, [r3, #4]
 1383              		.loc 1 503 3 is_stmt 1 view .LVU355
 1384 0040 FFF7FEFF 		bl	_dbg_trace
 1385              	.LVL90:
 1386              		.loc 1 503 3 view .LVU356
 1387 0044 A869     		ldr	r0, [r5, #24]
 1388 0046 2146     		mov	r1, r4
 1389 0048 FFF7FEFF 		bl	_stats_ctxswc
 1390              	.LVL91:
 1391              		.loc 1 503 3 view .LVU357
 1392              		.loc 1 503 3 view .LVU358
 1393              	.LBB218:
 1394              		.loc 1 503 3 view .LVU359
 1395              	.LBB219:
 1396              	.LBI219:
 1397              		.loc 5 424 61 view .LVU360
 1398              	.LBB220:
 1399              		.loc 5 426 3 view .LVU361
 1400              		.loc 5 428 3 view .LVU362
 1401              		.syntax unified
 1402              	@ 428 ".//ChibiOS//os/ext/CMSIS/include/core_cmFunc.h" 1
 1403 004c EFF30983 		MRS r3, psp
 1404              	
 1405              	@ 0 "" 2
 1406              	.LVL92:
 1407              		.loc 5 429 3 view .LVU363
 1408              		.loc 5 429 3 is_stmt 0 view .LVU364
 1409              		.thumb
 1410              		.syntax unified
 1411              	.LBE220:
 1412              	.LBE219:
 1413              		.loc 1 503 3 is_stmt 1 view .LVU365
 1414 0050 E269     		ldr	r2, [r4, #28]
 1415 0052 643B     		subs	r3, r3, #100
 1416              	.LVL93:
 1417              		.loc 1 503 3 is_stmt 0 view .LVU366
 1418 0054 9A42     		cmp	r2, r3
 1419 0056 0BD8     		bhi	.L94
 1420              	.LVL94:
 1421              	.L89:
 1422              		.loc 1 503 3 is_stmt 1 discriminator 3 view .LVU367
ARM GAS  /tmp/ccMJcLrf.s 			page 26


 1423 0058 094B     		ldr	r3, .L96+4
 1424 005a 1A68     		ldr	r2, [r3]
 1425 005c 019B     		ldr	r3, [sp, #4]
 1426 005e 5A40     		eors	r2, r3, r2
 1427 0060 0AD1     		bne	.L95
 1428 0062 A869     		ldr	r0, [r5, #24]
 1429 0064 2146     		mov	r1, r4
 1430              	.LBE218:
 1431              		.loc 1 504 1 is_stmt 0 discriminator 3 view .LVU368
 1432 0066 03B0     		add	sp, sp, #12
 1433              		.cfi_remember_state
 1434              		.cfi_def_cfa_offset 12
 1435              		@ sp needed
 1436 0068 BDE83040 		pop	{r4, r5, lr}
 1437              		.cfi_restore 14
 1438              		.cfi_restore 5
 1439              		.cfi_restore 4
 1440              		.cfi_def_cfa_offset 0
 1441              	.LVL95:
 1442              	.LBB221:
 1443              		.loc 1 503 3 discriminator 3 view .LVU369
 1444 006c FFF7FEBF 		b	_port_switch
 1445              	.LVL96:
 1446              	.L94:
 1447              		.cfi_restore_state
 1448              		.loc 1 503 3 is_stmt 1 discriminator 1 view .LVU370
 1449 0070 0448     		ldr	r0, .L96+8
 1450 0072 FFF7FEFF 		bl	chSysHalt
 1451              	.LVL97:
 1452              		.loc 1 503 3 is_stmt 0 discriminator 1 view .LVU371
 1453 0076 EFE7     		b	.L89
 1454              	.L95:
 1455              		.loc 1 503 3 discriminator 3 view .LVU372
 1456 0078 FFF7FEFF 		bl	__stack_chk_fail
 1457              	.LVL98:
 1458              	.L97:
 1459              		.align	2
 1460              	.L96:
 1461 007c 00000000 		.word	.LANCHOR0
 1462 0080 00000000 		.word	.LC9
 1463 0084 00000000 		.word	.LC3
 1464              	.LBE221:
 1465              		.cfi_endproc
 1466              	.LFE228:
 1467              		.size	chSchDoRescheduleAhead, .-chSchDoRescheduleAhead
 1468              		.section	.rodata.chSchRescheduleS.cst4,"aM",%progbits,4
 1469              		.align	2
 1470              	.LC10:
 1471 0000 00000000 		.word	__stack_chk_guard
 1472              		.section	.text.chSchRescheduleS,"ax",%progbits
 1473              		.align	1
 1474              		.p2align 4,,15
 1475              		.global	chSchRescheduleS
 1476              		.syntax unified
 1477              		.thumb
 1478              		.thumb_func
 1479              		.fpu fpv4-sp-d16
ARM GAS  /tmp/ccMJcLrf.s 			page 27


 1480              		.type	chSchRescheduleS, %function
 1481              	chSchRescheduleS:
 1482              	.LFB225:
 1483              		.loc 1 402 29 is_stmt 1 view -0
 1484              		.cfi_startproc
 1485              		@ args = 0, pretend = 0, frame = 8
 1486              		@ frame_needed = 0, uses_anonymous_args = 0
 1487 0000 00B5     		push	{lr}
 1488              		.cfi_def_cfa_offset 4
 1489              		.cfi_offset 14, -4
 1490 0002 124B     		ldr	r3, .L105
 1491 0004 83B0     		sub	sp, sp, #12
 1492              		.cfi_def_cfa_offset 16
 1493              		.loc 1 402 29 is_stmt 0 view .LVU374
 1494 0006 1B68     		ldr	r3, [r3]
 1495 0008 0193     		str	r3, [sp, #4]
 1496 000a 4FF00003 		mov	r3,#0
 1497              		.loc 1 404 3 is_stmt 1 view .LVU375
 1498 000e FFF7FEFF 		bl	chDbgCheckClassS
 1499              	.LVL99:
 1500              		.loc 1 406 3 view .LVU376
 1501              	.LBB222:
 1502              	.LBI222:
 1503              		.loc 2 709 20 view .LVU377
 1504              	.LBB223:
 1505              		.loc 2 711 3 view .LVU378
 1506 0012 FFF7FEFF 		bl	chDbgCheckClassI
 1507              	.LVL100:
 1508              		.loc 2 713 3 view .LVU379
 1509              		.loc 2 713 10 is_stmt 0 view .LVU380
 1510 0016 0E4B     		ldr	r3, .L105+4
 1511 0018 1A68     		ldr	r2, [r3]
 1512              		.loc 2 713 46 view .LVU381
 1513 001a 9B69     		ldr	r3, [r3, #24]
 1514              	.LBE223:
 1515              	.LBE222:
 1516              		.loc 1 406 6 view .LVU382
 1517 001c 9268     		ldr	r2, [r2, #8]
 1518 001e 9B68     		ldr	r3, [r3, #8]
 1519 0020 9A42     		cmp	r2, r3
 1520              		.loc 1 407 5 view .LVU383
 1521 0022 0A4B     		ldr	r3, .L105
 1522              		.loc 1 406 6 view .LVU384
 1523 0024 06D8     		bhi	.L104
 1524              		.loc 1 409 1 view .LVU385
 1525 0026 1A68     		ldr	r2, [r3]
 1526 0028 019B     		ldr	r3, [sp, #4]
 1527 002a 5A40     		eors	r2, r3, r2
 1528 002c 0BD1     		bne	.L103
 1529 002e 03B0     		add	sp, sp, #12
 1530              		.cfi_remember_state
 1531              		.cfi_def_cfa_offset 4
 1532              		@ sp needed
 1533 0030 5DF804FB 		ldr	pc, [sp], #4
 1534              	.L104:
 1535              		.cfi_restore_state
 1536              		.loc 1 407 5 is_stmt 1 view .LVU386
ARM GAS  /tmp/ccMJcLrf.s 			page 28


 1537 0034 1A68     		ldr	r2, [r3]
 1538 0036 019B     		ldr	r3, [sp, #4]
 1539 0038 5A40     		eors	r2, r3, r2
 1540 003a 04D1     		bne	.L103
 1541              		.loc 1 409 1 is_stmt 0 view .LVU387
 1542 003c 03B0     		add	sp, sp, #12
 1543              		.cfi_remember_state
 1544              		.cfi_def_cfa_offset 4
 1545              		@ sp needed
 1546 003e 5DF804EB 		ldr	lr, [sp], #4
 1547              		.cfi_restore 14
 1548              		.cfi_def_cfa_offset 0
 1549              		.loc 1 407 5 view .LVU388
 1550 0042 FFF7FEBF 		b	chSchDoRescheduleAhead
 1551              	.LVL101:
 1552              	.L103:
 1553              		.cfi_restore_state
 1554              		.loc 1 409 1 view .LVU389
 1555 0046 FFF7FEFF 		bl	__stack_chk_fail
 1556              	.LVL102:
 1557              	.L106:
 1558 004a 00BF     		.align	2
 1559              	.L105:
 1560 004c 00000000 		.word	.LC10
 1561 0050 00000000 		.word	.LANCHOR0
 1562              		.cfi_endproc
 1563              	.LFE225:
 1564              		.size	chSchRescheduleS, .-chSchRescheduleS
 1565              		.section	.rodata.chSchDoReschedule.cst4,"aM",%progbits,4
 1566              		.align	2
 1567              	.LC11:
 1568 0000 00000000 		.word	__stack_chk_guard
 1569              		.section	.text.chSchDoReschedule,"ax",%progbits
 1570              		.align	1
 1571              		.p2align 4,,15
 1572              		.global	chSchDoReschedule
 1573              		.syntax unified
 1574              		.thumb
 1575              		.thumb_func
 1576              		.fpu fpv4-sp-d16
 1577              		.type	chSchDoReschedule, %function
 1578              	chSchDoReschedule:
 1579              	.LFB229:
 1580              		.loc 1 516 30 is_stmt 1 view -0
 1581              		.cfi_startproc
 1582              		@ args = 0, pretend = 0, frame = 8
 1583              		@ frame_needed = 0, uses_anonymous_args = 0
 1584 0000 00B5     		push	{lr}
 1585              		.cfi_def_cfa_offset 4
 1586              		.cfi_offset 14, -4
 1587              		.loc 1 521 7 is_stmt 0 view .LVU391
 1588 0002 104B     		ldr	r3, .L114
 1589              		.loc 1 516 30 view .LVU392
 1590 0004 104A     		ldr	r2, .L114+4
 1591              		.loc 1 521 12 view .LVU393
 1592 0006 9B69     		ldr	r3, [r3, #24]
 1593              		.loc 1 521 6 view .LVU394
ARM GAS  /tmp/ccMJcLrf.s 			page 29


 1594 0008 93F82330 		ldrb	r3, [r3, #35]	@ zero_extendqisi2
 1595              		.loc 1 516 30 view .LVU395
 1596 000c 83B0     		sub	sp, sp, #12
 1597              		.cfi_def_cfa_offset 16
 1598              		.loc 1 516 30 view .LVU396
 1599 000e 1268     		ldr	r2, [r2]
 1600 0010 0192     		str	r2, [sp, #4]
 1601 0012 4FF00002 		mov	r2,#0
 1602              		.loc 1 521 3 is_stmt 1 view .LVU397
 1603              		.loc 1 521 6 is_stmt 0 view .LVU398
 1604 0016 4BB9     		cbnz	r3, .L108
 1605              		.loc 1 524 5 is_stmt 1 view .LVU399
 1606 0018 0B4B     		ldr	r3, .L114+4
 1607 001a 1A68     		ldr	r2, [r3]
 1608 001c 019B     		ldr	r3, [sp, #4]
 1609 001e 5A40     		eors	r2, r3, r2
 1610 0020 0ED1     		bne	.L113
 1611              		.loc 1 536 1 is_stmt 0 view .LVU400
 1612 0022 03B0     		add	sp, sp, #12
 1613              		.cfi_remember_state
 1614              		.cfi_def_cfa_offset 4
 1615              		@ sp needed
 1616 0024 5DF804EB 		ldr	lr, [sp], #4
 1617              		.cfi_restore 14
 1618              		.cfi_def_cfa_offset 0
 1619              		.loc 1 524 5 view .LVU401
 1620 0028 FFF7FEBF 		b	chSchDoRescheduleBehind
 1621              	.LVL103:
 1622              	.L108:
 1623              		.cfi_restore_state
 1624              		.loc 1 529 5 is_stmt 1 view .LVU402
 1625 002c 064B     		ldr	r3, .L114+4
 1626 002e 1A68     		ldr	r2, [r3]
 1627 0030 019B     		ldr	r3, [sp, #4]
 1628 0032 5A40     		eors	r2, r3, r2
 1629 0034 04D1     		bne	.L113
 1630              		.loc 1 536 1 is_stmt 0 view .LVU403
 1631 0036 03B0     		add	sp, sp, #12
 1632              		.cfi_remember_state
 1633              		.cfi_def_cfa_offset 4
 1634              		@ sp needed
 1635 0038 5DF804EB 		ldr	lr, [sp], #4
 1636              		.cfi_restore 14
 1637              		.cfi_def_cfa_offset 0
 1638              		.loc 1 529 5 view .LVU404
 1639 003c FFF7FEBF 		b	chSchDoRescheduleAhead
 1640              	.LVL104:
 1641              	.L113:
 1642              		.cfi_restore_state
 1643 0040 FFF7FEFF 		bl	__stack_chk_fail
 1644              	.LVL105:
 1645              	.L115:
 1646              		.align	2
 1647              	.L114:
 1648 0044 00000000 		.word	.LANCHOR0
 1649 0048 00000000 		.word	.LC11
 1650              		.cfi_endproc
ARM GAS  /tmp/ccMJcLrf.s 			page 30


 1651              	.LFE229:
 1652              		.size	chSchDoReschedule, .-chSchDoReschedule
 1653              		.global	ch
 1654              		.section	.bss.ch,"aw",%nobits
 1655              		.align	3
 1656              		.set	.LANCHOR0,. + 0
 1657              		.type	ch, %object
 1658              		.size	ch, 1648
 1659              	ch:
 1660 0000 00000000 		.space	1648
 1660      00000000 
 1660      00000000 
 1660      00000000 
 1660      00000000 
 1661              		.section	.rodata.__func__.7962,"a"
 1662              		.align	2
 1663              		.set	.LANCHOR1,. + 0
 1664              		.type	__func__.7962, %object
 1665              		.size	__func__.7962, 12
 1666              	__func__.7962:
 1667 0000 63685363 		.ascii	"chSchReadyI\000"
 1667      68526561 
 1667      64794900 
 1668              		.text
 1669              	.Letext0:
 1670              		.file 8 "/usr/lib/gcc/arm-none-eabi/9.2.1/include/stddef.h"
 1671              		.file 9 "/usr/lib/gcc/arm-none-eabi/9.2.1/include/stdint.h"
 1672              		.file 10 ".//ChibiOS//os/rt/ports/ARMCMx/compilers/GCC/chtypes.h"
 1673              		.file 11 ".//ChibiOS//os/rt/include/chsystypes.h"
 1674              		.file 12 ".//ChibiOS//os/ext/CMSIS/include/core_cm4.h"
 1675              		.file 13 ".//ChibiOS//os/ext/CMSIS/ST/system_stm32f4xx.h"
 1676              		.file 14 ".//ChibiOS//os/rt/ports/ARMCMx/chcore.h"
 1677              		.file 15 ".//ChibiOS//os/rt/include/chdebug.h"
 1678              		.file 16 ".//ChibiOS//os/rt/include/chtm.h"
 1679              		.file 17 ".//ChibiOS//os/rt/include/chstats.h"
 1680              		.file 18 ".//ChibiOS//os/rt/include/chmtx.h"
 1681              		.file 19 ".//ChibiOS//os/rt/include/chregistry.h"