ARM GAS  /tmp/ccy3friM.s 			page 1


   1              		.cpu cortex-m4
   2              		.eabi_attribute 27, 1
   3              		.eabi_attribute 28, 1
   4              		.eabi_attribute 20, 1
   5              		.eabi_attribute 21, 1
   6              		.eabi_attribute 23, 3
   7              		.eabi_attribute 24, 1
   8              		.eabi_attribute 25, 1
   9              		.eabi_attribute 26, 1
  10              		.eabi_attribute 30, 2
  11              		.eabi_attribute 34, 1
  12              		.eabi_attribute 18, 4
  13              		.file	"chsem.c"
  14              		.text
  15              	.Ltext0:
  16              		.cfi_sections	.debug_frame
  17              		.section	.rodata.chSemObjectInit.cst4,"aM",%progbits,4
  18              		.align	2
  19              	.LC0:
  20 0000 00000000 		.word	__stack_chk_guard
  21              		.section	.text.chSemObjectInit,"ax",%progbits
  22              		.align	1
  23              		.p2align 4,,15
  24              		.global	chSemObjectInit
  25              		.arch armv7e-m
  26              		.syntax unified
  27              		.thumb
  28              		.thumb_func
  29              		.fpu fpv4-sp-d16
  30              		.type	chSemObjectInit, %function
  31              	chSemObjectInit:
  32              	.LVL0:
  33              	.LFB219:
  34              		.file 1 ".//ChibiOS//os/rt/src/chsem.c"
  35              		.loc 1 97 48 view -0
  36              		.cfi_startproc
  37              		@ args = 0, pretend = 0, frame = 8
  38              		@ frame_needed = 0, uses_anonymous_args = 0
  39              		.loc 1 97 48 is_stmt 0 view .LVU1
  40 0000 30B5     		push	{r4, r5, lr}
  41              		.cfi_def_cfa_offset 12
  42              		.cfi_offset 4, -12
  43              		.cfi_offset 5, -8
  44              		.cfi_offset 14, -4
  45 0002 0D4B     		ldr	r3, .L11
  46 0004 83B0     		sub	sp, sp, #12
  47              		.cfi_def_cfa_offset 24
  48              		.loc 1 97 48 view .LVU2
  49 0006 0D46     		mov	r5, r1
  50 0008 1B68     		ldr	r3, [r3]
  51 000a 0193     		str	r3, [sp, #4]
  52 000c 4FF00003 		mov	r3,#0
  53              		.loc 1 99 3 is_stmt 1 view .LVU3
  54              		.loc 1 99 3 view .LVU4
  55              		.loc 1 99 3 view .LVU5
  56 0010 0446     		mov	r4, r0
  57 0012 58B1     		cbz	r0, .L2
ARM GAS  /tmp/ccy3friM.s 			page 2


  58              		.loc 1 99 3 is_stmt 0 discriminator 4 view .LVU6
  59 0014 0029     		cmp	r1, #0
  60 0016 09DB     		blt	.L2
  61              	.LVL1:
  62              	.L3:
  63              		.loc 1 99 3 is_stmt 1 discriminator 7 view .LVU7
  64              		.loc 1 101 3 discriminator 7 view .LVU8
  65              	.LBB103:
  66              	.LBI103:
  67              		.file 2 ".//ChibiOS//os/rt/include/chschd.h"
  68              		.loc 2 602 20 discriminator 7 view .LVU9
  69              	.LBB104:
  70              		.loc 2 604 3 discriminator 7 view .LVU10
  71              		.loc 2 605 15 is_stmt 0 discriminator 7 view .LVU11
  72 0018 C4E90044 		strd	r4, r4, [r4]
  73              	.LVL2:
  74              		.loc 2 605 15 discriminator 7 view .LVU12
  75              	.LBE104:
  76              	.LBE103:
  77              		.loc 1 102 3 is_stmt 1 discriminator 7 view .LVU13
  78              		.loc 1 103 1 is_stmt 0 discriminator 7 view .LVU14
  79 001c 064B     		ldr	r3, .L11
  80              		.loc 1 102 13 discriminator 7 view .LVU15
  81 001e A560     		str	r5, [r4, #8]
  82              		.loc 1 103 1 discriminator 7 view .LVU16
  83 0020 1A68     		ldr	r2, [r3]
  84 0022 019B     		ldr	r3, [sp, #4]
  85 0024 5A40     		eors	r2, r3, r2
  86 0026 05D1     		bne	.L10
  87              		.loc 1 103 1 view .LVU17
  88 0028 03B0     		add	sp, sp, #12
  89              		.cfi_remember_state
  90              		.cfi_def_cfa_offset 12
  91              		@ sp needed
  92 002a 30BD     		pop	{r4, r5, pc}
  93              	.LVL3:
  94              	.L2:
  95              		.cfi_restore_state
  96              		.loc 1 99 3 is_stmt 1 discriminator 5 view .LVU18
  97 002c 0348     		ldr	r0, .L11+4
  98              	.LVL4:
  99              		.loc 1 99 3 is_stmt 0 discriminator 5 view .LVU19
 100 002e FFF7FEFF 		bl	chSysHalt
 101              	.LVL5:
 102              		.loc 1 99 3 discriminator 5 view .LVU20
 103 0032 F1E7     		b	.L3
 104              	.L10:
 105              		.loc 1 103 1 view .LVU21
 106 0034 FFF7FEFF 		bl	__stack_chk_fail
 107              	.LVL6:
 108              	.L12:
 109              		.align	2
 110              	.L11:
 111 0038 00000000 		.word	.LC0
 112 003c 00000000 		.word	.LANCHOR0
 113              		.cfi_endproc
 114              	.LFE219:
ARM GAS  /tmp/ccy3friM.s 			page 3


 115              		.size	chSemObjectInit, .-chSemObjectInit
 116              		.section	.rodata.chSemResetI.cst4,"aM",%progbits,4
 117              		.align	2
 118              	.LC1:
 119 0000 00000000 		.word	__stack_chk_guard
 120              		.section	.text.chSemResetI,"ax",%progbits
 121              		.align	1
 122              		.p2align 4,,15
 123              		.global	chSemResetI
 124              		.syntax unified
 125              		.thumb
 126              		.thumb_func
 127              		.fpu fpv4-sp-d16
 128              		.type	chSemResetI, %function
 129              	chSemResetI:
 130              	.LVL7:
 131              	.LFB221:
 132              		.loc 1 147 44 is_stmt 1 view -0
 133              		.cfi_startproc
 134              		@ args = 0, pretend = 0, frame = 8
 135              		@ frame_needed = 0, uses_anonymous_args = 0
 136              		.loc 1 147 44 is_stmt 0 view .LVU23
 137 0000 70B5     		push	{r4, r5, r6, lr}
 138              		.cfi_def_cfa_offset 16
 139              		.cfi_offset 4, -16
 140              		.cfi_offset 5, -12
 141              		.cfi_offset 6, -8
 142              		.cfi_offset 14, -4
 143 0002 1F4B     		ldr	r3, .L33
 144 0004 82B0     		sub	sp, sp, #8
 145              		.cfi_def_cfa_offset 24
 146              		.loc 1 147 44 view .LVU24
 147 0006 0446     		mov	r4, r0
 148 0008 0E46     		mov	r6, r1
 149 000a 1B68     		ldr	r3, [r3]
 150 000c 0193     		str	r3, [sp, #4]
 151 000e 4FF00003 		mov	r3,#0
 152              		.loc 1 148 3 is_stmt 1 view .LVU25
 153              		.loc 1 150 3 view .LVU26
 154 0012 FFF7FEFF 		bl	chDbgCheckClassI
 155              	.LVL8:
 156              		.loc 1 151 3 view .LVU27
 157              		.loc 1 151 3 view .LVU28
 158              		.loc 1 151 3 view .LVU29
 159 0016 14B3     		cbz	r4, .L14
 160              		.loc 1 151 3 is_stmt 0 discriminator 4 view .LVU30
 161 0018 002E     		cmp	r6, #0
 162 001a 20DB     		blt	.L14
 163              		.loc 1 151 3 is_stmt 1 discriminator 1 view .LVU31
 164              		.loc 1 152 3 discriminator 1 view .LVU32
 165              		.loc 1 152 3 discriminator 1 view .LVU33
 166              		.loc 1 152 3 discriminator 1 view .LVU34
 167 001c A568     		ldr	r5, [r4, #8]
 168 001e 2368     		ldr	r3, [r4]
 169 0020 002D     		cmp	r5, #0
 170 0022 23DB     		blt	.L16
 171              	.L32:
ARM GAS  /tmp/ccy3friM.s 			page 4


 172              	.LVL9:
 173              	.LBB105:
 174              	.LBI105:
 175              		.loc 2 616 20 discriminator 4 view .LVU35
 176              	.LBB106:
 177              		.loc 2 618 3 discriminator 4 view .LVU36
 178              		.loc 2 618 3 is_stmt 0 discriminator 4 view .LVU37
 179              	.LBE106:
 180              	.LBE105:
 181              		.loc 1 152 3 discriminator 4 view .LVU38
 182 0024 9C42     		cmp	r4, r3
 183 0026 26D0     		beq	.L30
 184              	.L17:
 185              		.loc 1 152 3 is_stmt 1 discriminator 9 view .LVU39
 186 0028 1648     		ldr	r0, .L33+4
 187 002a FFF7FEFF 		bl	chSysHalt
 188              	.LVL10:
 189 002e A568     		ldr	r5, [r4, #8]
 190              		.loc 1 152 3 discriminator 9 view .LVU40
 191              		.loc 1 156 3 discriminator 9 view .LVU41
 192              	.LVL11:
 193              		.loc 1 157 3 discriminator 9 view .LVU42
 194              		.loc 1 157 13 is_stmt 0 discriminator 9 view .LVU43
 195 0030 A660     		str	r6, [r4, #8]
 196              		.loc 1 158 3 is_stmt 1 discriminator 9 view .LVU44
 197              		.loc 1 158 9 discriminator 9 view .LVU45
 198 0032 0135     		adds	r5, r5, #1
 199              	.LVL12:
 200              		.loc 1 158 9 is_stmt 0 discriminator 9 view .LVU46
 201 0034 002D     		cmp	r5, #0
 202 0036 0BDC     		bgt	.L13
 203              	.L20:
 204              		.loc 1 159 62 view .LVU47
 205 0038 6FF00106 		mvn	r6, #1
 206              	.LVL13:
 207              	.L21:
 208              		.loc 1 159 5 is_stmt 1 view .LVU48
 209              	.LBB107:
 210              	.LBI107:
 211              		.loc 2 680 25 view .LVU49
 212              	.LBB108:
 213              		.loc 2 681 3 view .LVU50
 214              		.loc 2 681 13 is_stmt 0 view .LVU51
 215 003c 6068     		ldr	r0, [r4, #4]
 216              	.LVL14:
 217              		.loc 2 683 3 is_stmt 1 view .LVU52
 218              		.loc 2 683 19 is_stmt 0 view .LVU53
 219 003e 4368     		ldr	r3, [r0, #4]
 220              		.loc 2 683 15 view .LVU54
 221 0040 6360     		str	r3, [r4, #4]
 222              		.loc 2 684 3 is_stmt 1 view .LVU55
 223              		.loc 2 684 23 is_stmt 0 view .LVU56
 224 0042 1C60     		str	r4, [r3]
 225              		.loc 2 686 3 is_stmt 1 view .LVU57
 226              	.LVL15:
 227              		.loc 2 686 3 is_stmt 0 view .LVU58
 228              	.LBE108:
ARM GAS  /tmp/ccy3friM.s 			page 5


 229              	.LBE107:
 230              		.loc 1 159 5 view .LVU59
 231 0044 FFF7FEFF 		bl	chSchReadyI
 232              	.LVL16:
 233              		.loc 1 158 9 view .LVU60
 234 0048 0135     		adds	r5, r5, #1
 235              	.LVL17:
 236              		.loc 1 158 9 view .LVU61
 237 004a 012D     		cmp	r5, #1
 238              		.loc 1 159 62 view .LVU62
 239 004c 8662     		str	r6, [r0, #40]
 240              	.LVL18:
 241              		.loc 1 158 9 is_stmt 1 view .LVU63
 242              		.loc 1 158 9 is_stmt 0 view .LVU64
 243 004e F5D1     		bne	.L21
 244              	.LVL19:
 245              	.L13:
 246              		.loc 1 161 1 view .LVU65
 247 0050 0B4B     		ldr	r3, .L33
 248 0052 1A68     		ldr	r2, [r3]
 249 0054 019B     		ldr	r3, [sp, #4]
 250 0056 5A40     		eors	r2, r3, r2
 251 0058 0FD1     		bne	.L31
 252 005a 02B0     		add	sp, sp, #8
 253              		.cfi_remember_state
 254              		.cfi_def_cfa_offset 16
 255              		@ sp needed
 256 005c 70BD     		pop	{r4, r5, r6, pc}
 257              	.LVL20:
 258              	.L14:
 259              		.cfi_restore_state
 260              		.loc 1 151 3 is_stmt 1 discriminator 5 view .LVU66
 261 005e 0948     		ldr	r0, .L33+4
 262 0060 FFF7FEFF 		bl	chSysHalt
 263              	.LVL21:
 264              		.loc 1 151 3 discriminator 5 view .LVU67
 265              		.loc 1 152 3 discriminator 5 view .LVU68
 266              		.loc 1 152 3 discriminator 5 view .LVU69
 267              		.loc 1 152 3 discriminator 5 view .LVU70
 268 0064 A568     		ldr	r5, [r4, #8]
 269 0066 2368     		ldr	r3, [r4]
 270 0068 002D     		cmp	r5, #0
 271 006a DBDA     		bge	.L32
 272              	.L16:
 273              	.LVL22:
 274              	.LBB109:
 275              	.LBI109:
 276              		.loc 2 629 20 discriminator 8 view .LVU71
 277              	.LBB110:
 278              		.loc 2 631 3 discriminator 8 view .LVU72
 279              		.loc 2 631 3 is_stmt 0 discriminator 8 view .LVU73
 280              	.LBE110:
 281              	.LBE109:
 282              		.loc 1 152 3 discriminator 8 view .LVU74
 283 006c 9C42     		cmp	r4, r3
 284 006e DBD0     		beq	.L17
 285              		.loc 1 152 3 is_stmt 1 view .LVU75
ARM GAS  /tmp/ccy3friM.s 			page 6


 286              		.loc 1 156 3 view .LVU76
 287              	.LVL23:
 288              		.loc 1 157 3 view .LVU77
 289              		.loc 1 157 13 is_stmt 0 view .LVU78
 290 0070 A660     		str	r6, [r4, #8]
 291              	.LVL24:
 292              		.loc 1 158 3 is_stmt 1 view .LVU79
 293              		.loc 1 158 9 view .LVU80
 294 0072 0135     		adds	r5, r5, #1
 295              	.LVL25:
 296              		.loc 1 158 9 is_stmt 0 view .LVU81
 297 0074 E0E7     		b	.L20
 298              	.LVL26:
 299              	.L30:
 300              		.loc 1 152 3 is_stmt 1 view .LVU82
 301              		.loc 1 156 3 view .LVU83
 302              		.loc 1 157 3 view .LVU84
 303              		.loc 1 157 13 is_stmt 0 view .LVU85
 304 0076 A660     		str	r6, [r4, #8]
 305              	.LVL27:
 306              		.loc 1 158 3 is_stmt 1 view .LVU86
 307              		.loc 1 158 9 view .LVU87
 308              		.loc 1 158 9 is_stmt 0 view .LVU88
 309 0078 EAE7     		b	.L13
 310              	.LVL28:
 311              	.L31:
 312              		.loc 1 161 1 view .LVU89
 313 007a FFF7FEFF 		bl	__stack_chk_fail
 314              	.LVL29:
 315              	.L34:
 316 007e 00BF     		.align	2
 317              	.L33:
 318 0080 00000000 		.word	.LC1
 319 0084 00000000 		.word	.LANCHOR1
 320              		.cfi_endproc
 321              	.LFE221:
 322              		.size	chSemResetI, .-chSemResetI
 323              		.section	.rodata.chSemReset.cst4,"aM",%progbits,4
 324              		.align	2
 325              	.LC2:
 326 0000 00000000 		.word	__stack_chk_guard
 327              		.section	.text.chSemReset,"ax",%progbits
 328              		.align	1
 329              		.p2align 4,,15
 330              		.global	chSemReset
 331              		.syntax unified
 332              		.thumb
 333              		.thumb_func
 334              		.fpu fpv4-sp-d16
 335              		.type	chSemReset, %function
 336              	chSemReset:
 337              	.LVL30:
 338              	.LFB220:
 339              		.loc 1 120 43 is_stmt 1 view -0
 340              		.cfi_startproc
 341              		@ args = 0, pretend = 0, frame = 16
 342              		@ frame_needed = 0, uses_anonymous_args = 0
ARM GAS  /tmp/ccy3friM.s 			page 7


 343              		.loc 1 120 43 is_stmt 0 view .LVU91
 344 0000 00B5     		push	{lr}
 345              		.cfi_def_cfa_offset 4
 346              		.cfi_offset 14, -4
 347 0002 85B0     		sub	sp, sp, #20
 348              		.cfi_def_cfa_offset 24
 349              		.loc 1 120 43 view .LVU92
 350 0004 CDE90010 		strd	r1, r0, [sp]
 351 0008 174B     		ldr	r3, .L41
 352 000a 1B68     		ldr	r3, [r3]
 353 000c 0393     		str	r3, [sp, #12]
 354 000e 4FF00003 		mov	r3,#0
 355              		.loc 1 122 3 is_stmt 1 view .LVU93
 356              	.LBB121:
 357              	.LBI121:
 358              		.file 3 ".//ChibiOS//os/rt/include/chsys.h"
 359              		.loc 3 346 20 view .LVU94
 360              	.LBB122:
 361              		.loc 3 348 3 view .LVU95
 362              	.LBB123:
 363              	.LBI123:
 364              		.file 4 ".//ChibiOS//os/rt/ports/ARMCMx/chcore_v7m.h"
 365              		.loc 4 444 20 view .LVU96
 366              	.LBE123:
 367              	.LBE122:
 368              	.LBE121:
 369              		.loc 4 447 3 view .LVU97
 370              	.LVL31:
 371              	.LBB128:
 372              	.LBB127:
 373              	.LBB126:
 374              	.LBB124:
 375              	.LBI124:
 376              		.file 5 ".//ChibiOS//os/ext/CMSIS/include/core_cmFunc.h"
 377              		.loc 5 544 57 view .LVU98
 378              	.LBB125:
 379              		.loc 5 546 3 view .LVU99
 380 0012 2023     		movs	r3, #32
 381              		.syntax unified
 382              	@ 546 ".//ChibiOS//os/ext/CMSIS/include/core_cmFunc.h" 1
 383 0014 83F31188 		MSR basepri, r3
 384              	@ 0 "" 2
 385              	.LVL32:
 386              		.loc 5 546 3 is_stmt 0 view .LVU100
 387              		.thumb
 388              		.syntax unified
 389              	.LBE125:
 390              	.LBE124:
 391              	.LBE126:
 392              		.loc 3 349 3 is_stmt 1 view .LVU101
 393 0018 FFF7FEFF 		bl	_stats_start_measure_crit_thd
 394              	.LVL33:
 395              		.loc 3 350 3 view .LVU102
 396 001c FFF7FEFF 		bl	_dbg_check_lock
 397              	.LVL34:
 398              	.LBE127:
 399              	.LBE128:
ARM GAS  /tmp/ccy3friM.s 			page 8


 400              		.loc 1 123 3 view .LVU103
 401 0020 DDE90010 		ldrd	r1, r0, [sp]
 402 0024 FFF7FEFF 		bl	chSemResetI
 403              	.LVL35:
 404              		.loc 1 124 3 view .LVU104
 405 0028 FFF7FEFF 		bl	chSchRescheduleS
 406              	.LVL36:
 407              		.loc 1 125 3 view .LVU105
 408              	.LBB129:
 409              	.LBI129:
 410              		.loc 3 358 20 view .LVU106
 411              	.LBB130:
 412              		.loc 3 360 3 view .LVU107
 413 002c FFF7FEFF 		bl	_dbg_check_unlock
 414              	.LVL37:
 415              		.loc 3 361 3 view .LVU108
 416 0030 FFF7FEFF 		bl	_stats_stop_measure_crit_thd
 417              	.LVL38:
 418              		.loc 3 367 3 view .LVU109
 419              		.loc 3 367 3 view .LVU110
 420              		.loc 3 367 3 view .LVU111
 421 0034 0D4B     		ldr	r3, .L41+4
 422 0036 1A68     		ldr	r2, [r3]
 423 0038 9A42     		cmp	r2, r3
 424 003a 04D0     		beq	.L36
 425 003c 9969     		ldr	r1, [r3, #24]
 426 003e 9368     		ldr	r3, [r2, #8]
 427 0040 8A68     		ldr	r2, [r1, #8]
 428 0042 9A42     		cmp	r2, r3
 429 0044 0AD3     		bcc	.L39
 430              	.L36:
 431              		.loc 3 367 3 view .LVU112
 432              		.loc 3 371 3 view .LVU113
 433              	.LBB131:
 434              	.LBI131:
 435              		.loc 4 458 20 view .LVU114
 436              	.LBE131:
 437              	.LBE130:
 438              	.LBE129:
 439              		.loc 4 461 3 view .LVU115
 440              	.LVL39:
 441              	.LBB137:
 442              	.LBB135:
 443              	.LBB134:
 444              	.LBB132:
 445              	.LBI132:
 446              		.loc 5 544 57 view .LVU116
 447              	.LBB133:
 448              		.loc 5 546 3 view .LVU117
 449 0046 0023     		movs	r3, #0
 450              		.syntax unified
 451              	@ 546 ".//ChibiOS//os/ext/CMSIS/include/core_cmFunc.h" 1
 452 0048 83F31188 		MSR basepri, r3
 453              	@ 0 "" 2
 454              	.LVL40:
 455              		.loc 5 546 3 is_stmt 0 view .LVU118
 456              		.thumb
ARM GAS  /tmp/ccy3friM.s 			page 9


 457              		.syntax unified
 458              	.LBE133:
 459              	.LBE132:
 460              	.LBE134:
 461              	.LBE135:
 462              	.LBE137:
 463              		.loc 1 126 1 view .LVU119
 464 004c 064B     		ldr	r3, .L41
 465 004e 1A68     		ldr	r2, [r3]
 466 0050 039B     		ldr	r3, [sp, #12]
 467 0052 5A40     		eors	r2, r3, r2
 468 0054 06D1     		bne	.L40
 469 0056 05B0     		add	sp, sp, #20
 470              		.cfi_remember_state
 471              		.cfi_def_cfa_offset 4
 472              	.LVL41:
 473              		.loc 1 126 1 view .LVU120
 474              		@ sp needed
 475 0058 5DF804FB 		ldr	pc, [sp], #4
 476              	.LVL42:
 477              	.L39:
 478              		.cfi_restore_state
 479              	.LBB138:
 480              	.LBB136:
 481              		.loc 3 367 3 is_stmt 1 view .LVU121
 482 005c 0448     		ldr	r0, .L41+8
 483 005e FFF7FEFF 		bl	chSysHalt
 484              	.LVL43:
 485 0062 F0E7     		b	.L36
 486              	.L40:
 487              	.LBE136:
 488              	.LBE138:
 489              		.loc 1 126 1 is_stmt 0 view .LVU122
 490 0064 FFF7FEFF 		bl	__stack_chk_fail
 491              	.LVL44:
 492              	.L42:
 493              		.align	2
 494              	.L41:
 495 0068 00000000 		.word	.LC2
 496 006c 00000000 		.word	ch
 497 0070 00000000 		.word	.LANCHOR2
 498              		.cfi_endproc
 499              	.LFE220:
 500              		.size	chSemReset, .-chSemReset
 501              		.section	.rodata.chSemWaitS.cst4,"aM",%progbits,4
 502              		.align	2
 503              	.LC3:
 504 0000 00000000 		.word	__stack_chk_guard
 505              		.section	.text.chSemWaitS,"ax",%progbits
 506              		.align	1
 507              		.p2align 4,,15
 508              		.global	chSemWaitS
 509              		.syntax unified
 510              		.thumb
 511              		.thumb_func
 512              		.fpu fpv4-sp-d16
 513              		.type	chSemWaitS, %function
ARM GAS  /tmp/ccy3friM.s 			page 10


 514              	chSemWaitS:
 515              	.LVL45:
 516              	.LFB223:
 517              		.loc 1 197 35 is_stmt 1 view -0
 518              		.cfi_startproc
 519              		@ args = 0, pretend = 0, frame = 8
 520              		@ frame_needed = 0, uses_anonymous_args = 0
 521              		.loc 1 197 35 is_stmt 0 view .LVU124
 522 0000 30B5     		push	{r4, r5, lr}
 523              		.cfi_def_cfa_offset 12
 524              		.cfi_offset 4, -12
 525              		.cfi_offset 5, -8
 526              		.cfi_offset 14, -4
 527 0002 1C4B     		ldr	r3, .L56
 528 0004 83B0     		sub	sp, sp, #12
 529              		.cfi_def_cfa_offset 24
 530              		.loc 1 197 35 view .LVU125
 531 0006 0446     		mov	r4, r0
 532 0008 1B68     		ldr	r3, [r3]
 533 000a 0193     		str	r3, [sp, #4]
 534 000c 4FF00003 		mov	r3,#0
 535              		.loc 1 199 3 is_stmt 1 view .LVU126
 536 0010 FFF7FEFF 		bl	chDbgCheckClassS
 537              	.LVL46:
 538              		.loc 1 200 3 view .LVU127
 539              		.loc 1 200 3 view .LVU128
 540              		.loc 1 200 3 view .LVU129
 541 0014 44B3     		cbz	r4, .L54
 542              	.L44:
 543              		.loc 1 200 3 discriminator 1 view .LVU130
 544              		.loc 1 201 3 discriminator 1 view .LVU131
 545              		.loc 1 201 3 discriminator 1 view .LVU132
 546              		.loc 1 201 3 discriminator 1 view .LVU133
 547 0016 A368     		ldr	r3, [r4, #8]
 548 0018 2268     		ldr	r2, [r4]
 549 001a 002B     		cmp	r3, #0
 550 001c 12DB     		blt	.L45
 551              	.LVL47:
 552              	.LBB151:
 553              	.LBI151:
 554              		.loc 2 616 20 discriminator 4 view .LVU134
 555              	.LBB152:
 556              		.loc 2 618 3 discriminator 4 view .LVU135
 557              		.loc 2 618 3 is_stmt 0 discriminator 4 view .LVU136
 558              	.LBE152:
 559              	.LBE151:
 560              		.loc 1 201 3 discriminator 4 view .LVU137
 561 001e 9442     		cmp	r4, r2
 562 0020 03D0     		beq	.L47
 563              	.L46:
 564              		.loc 1 201 3 is_stmt 1 discriminator 9 view .LVU138
 565 0022 1548     		ldr	r0, .L56+4
 566 0024 FFF7FEFF 		bl	chSysHalt
 567              	.LVL48:
 568 0028 A368     		ldr	r3, [r4, #8]
 569              	.L47:
 570              		.loc 1 201 3 discriminator 11 view .LVU139
ARM GAS  /tmp/ccy3friM.s 			page 11


 571              		.loc 1 205 3 discriminator 11 view .LVU140
 572              		.loc 1 205 7 is_stmt 0 discriminator 11 view .LVU141
 573 002a 013B     		subs	r3, r3, #1
 574              		.loc 1 205 6 discriminator 11 view .LVU142
 575 002c 002B     		cmp	r3, #0
 576 002e A360     		str	r3, [r4, #8]
 577              		.loc 1 213 10 discriminator 11 view .LVU143
 578 0030 A8BF     		it	ge
 579 0032 0020     		movge	r0, #0
 580              		.loc 1 205 6 discriminator 11 view .LVU144
 581 0034 0ADB     		blt	.L50
 582              	.L43:
 583              		.loc 1 214 1 view .LVU145
 584 0036 0F4B     		ldr	r3, .L56
 585 0038 1A68     		ldr	r2, [r3]
 586 003a 019B     		ldr	r3, [sp, #4]
 587 003c 5A40     		eors	r2, r3, r2
 588 003e 17D1     		bne	.L55
 589 0040 03B0     		add	sp, sp, #12
 590              		.cfi_remember_state
 591              		.cfi_def_cfa_offset 12
 592              		@ sp needed
 593 0042 30BD     		pop	{r4, r5, pc}
 594              	.LVL49:
 595              	.L45:
 596              		.cfi_restore_state
 597              	.LBB153:
 598              	.LBI153:
 599              		.loc 2 629 20 is_stmt 1 discriminator 8 view .LVU146
 600              	.LBB154:
 601              		.loc 2 631 3 discriminator 8 view .LVU147
 602              		.loc 2 631 3 is_stmt 0 discriminator 8 view .LVU148
 603              	.LBE154:
 604              	.LBE153:
 605              		.loc 1 201 3 discriminator 8 view .LVU149
 606 0044 9442     		cmp	r4, r2
 607 0046 ECD0     		beq	.L46
 608              		.loc 1 201 3 is_stmt 1 view .LVU150
 609              		.loc 1 205 3 view .LVU151
 610              		.loc 1 205 7 is_stmt 0 view .LVU152
 611 0048 013B     		subs	r3, r3, #1
 612              		.loc 1 205 6 view .LVU153
 613 004a A360     		str	r3, [r4, #8]
 614              	.L50:
 615              	.LVL50:
 616              	.LBB155:
 617              	.LBI155:
 618              		.loc 1 197 7 is_stmt 1 view .LVU154
 619              	.LBB156:
 620              		.loc 1 206 5 view .LVU155
 621 004c 0B4D     		ldr	r5, .L56+8
 622 004e AB69     		ldr	r3, [r5, #24]
 623              		.loc 1 206 23 is_stmt 0 view .LVU156
 624 0050 9C62     		str	r4, [r3, #40]
 625              		.loc 1 207 5 is_stmt 1 view .LVU157
 626              	.LVL51:
 627              	.LBB157:
ARM GAS  /tmp/ccy3friM.s 			page 12


 628              	.LBI157:
 629              		.loc 2 663 20 view .LVU158
 630              	.LBB158:
 631              		.loc 2 665 3 view .LVU159
 632              		.loc 2 665 14 is_stmt 0 view .LVU160
 633 0052 1C60     		str	r4, [r3]
 634              		.loc 2 666 3 is_stmt 1 view .LVU161
 635              		.loc 2 666 19 is_stmt 0 view .LVU162
 636 0054 6268     		ldr	r2, [r4, #4]
 637              		.loc 2 666 14 view .LVU163
 638 0056 5A60     		str	r2, [r3, #4]
 639              		.loc 2 667 3 is_stmt 1 view .LVU164
 640              	.LBE158:
 641              	.LBE157:
 642              		.loc 1 208 5 is_stmt 0 view .LVU165
 643 0058 0520     		movs	r0, #5
 644              	.LBB160:
 645              	.LBB159:
 646              		.loc 2 667 22 view .LVU166
 647 005a 1360     		str	r3, [r2]
 648              		.loc 2 668 3 is_stmt 1 view .LVU167
 649              		.loc 2 668 15 is_stmt 0 view .LVU168
 650 005c 6360     		str	r3, [r4, #4]
 651              	.LVL52:
 652              		.loc 2 668 15 view .LVU169
 653              	.LBE159:
 654              	.LBE160:
 655              		.loc 1 208 5 is_stmt 1 view .LVU170
 656 005e FFF7FEFF 		bl	chSchGoSleepS
 657              	.LVL53:
 658              		.loc 1 210 5 view .LVU171
 659              		.loc 1 210 22 is_stmt 0 view .LVU172
 660 0062 AB69     		ldr	r3, [r5, #24]
 661 0064 986A     		ldr	r0, [r3, #40]
 662              	.LVL54:
 663              		.loc 1 210 22 view .LVU173
 664 0066 E6E7     		b	.L43
 665              	.L54:
 666              		.loc 1 210 22 view .LVU174
 667              	.LBE156:
 668              	.LBE155:
 669              		.loc 1 200 3 is_stmt 1 discriminator 3 view .LVU175
 670 0068 0348     		ldr	r0, .L56+4
 671 006a FFF7FEFF 		bl	chSysHalt
 672              	.LVL55:
 673 006e D2E7     		b	.L44
 674              	.L55:
 675              		.loc 1 214 1 is_stmt 0 view .LVU176
 676 0070 FFF7FEFF 		bl	__stack_chk_fail
 677              	.LVL56:
 678              	.L57:
 679              		.align	2
 680              	.L56:
 681 0074 00000000 		.word	.LC3
 682 0078 00000000 		.word	.LANCHOR3
 683 007c 00000000 		.word	ch
 684              		.cfi_endproc
ARM GAS  /tmp/ccy3friM.s 			page 13


 685              	.LFE223:
 686              		.size	chSemWaitS, .-chSemWaitS
 687              		.section	.rodata.chSemWait.cst4,"aM",%progbits,4
 688              		.align	2
 689              	.LC4:
 690 0000 00000000 		.word	__stack_chk_guard
 691              		.section	.text.chSemWait,"ax",%progbits
 692              		.align	1
 693              		.p2align 4,,15
 694              		.global	chSemWait
 695              		.syntax unified
 696              		.thumb
 697              		.thumb_func
 698              		.fpu fpv4-sp-d16
 699              		.type	chSemWait, %function
 700              	chSemWait:
 701              	.LVL57:
 702              	.LFB222:
 703              		.loc 1 175 34 is_stmt 1 view -0
 704              		.cfi_startproc
 705              		@ args = 0, pretend = 0, frame = 16
 706              		@ frame_needed = 0, uses_anonymous_args = 0
 707              		.loc 1 175 34 is_stmt 0 view .LVU178
 708 0000 10B5     		push	{r4, lr}
 709              		.cfi_def_cfa_offset 8
 710              		.cfi_offset 4, -8
 711              		.cfi_offset 14, -4
 712 0002 84B0     		sub	sp, sp, #16
 713              		.cfi_def_cfa_offset 24
 714              		.loc 1 175 34 view .LVU179
 715 0004 174B     		ldr	r3, .L64
 716 0006 0190     		str	r0, [sp, #4]
 717 0008 1B68     		ldr	r3, [r3]
 718 000a 0393     		str	r3, [sp, #12]
 719 000c 4FF00003 		mov	r3,#0
 720              		.loc 1 176 3 is_stmt 1 view .LVU180
 721              		.loc 1 178 3 view .LVU181
 722              	.LBB171:
 723              	.LBI171:
 724              		.loc 3 346 20 view .LVU182
 725              	.LBB172:
 726              		.loc 3 348 3 view .LVU183
 727              	.LBB173:
 728              	.LBI173:
 729              		.loc 4 444 20 view .LVU184
 730              	.LBE173:
 731              	.LBE172:
 732              	.LBE171:
 733              		.loc 4 447 3 view .LVU185
 734              	.LVL58:
 735              	.LBB178:
 736              	.LBB177:
 737              	.LBB176:
 738              	.LBB174:
 739              	.LBI174:
 740              		.loc 5 544 57 view .LVU186
 741              	.LBB175:
ARM GAS  /tmp/ccy3friM.s 			page 14


 742              		.loc 5 546 3 view .LVU187
 743 0010 2023     		movs	r3, #32
 744              		.syntax unified
 745              	@ 546 ".//ChibiOS//os/ext/CMSIS/include/core_cmFunc.h" 1
 746 0012 83F31188 		MSR basepri, r3
 747              	@ 0 "" 2
 748              	.LVL59:
 749              		.loc 5 546 3 is_stmt 0 view .LVU188
 750              		.thumb
 751              		.syntax unified
 752              	.LBE175:
 753              	.LBE174:
 754              	.LBE176:
 755              		.loc 3 349 3 is_stmt 1 view .LVU189
 756 0016 FFF7FEFF 		bl	_stats_start_measure_crit_thd
 757              	.LVL60:
 758              		.loc 3 350 3 view .LVU190
 759 001a FFF7FEFF 		bl	_dbg_check_lock
 760              	.LVL61:
 761              	.LBE177:
 762              	.LBE178:
 763              		.loc 1 179 3 view .LVU191
 764              		.loc 1 179 9 is_stmt 0 view .LVU192
 765 001e 0198     		ldr	r0, [sp, #4]
 766 0020 FFF7FEFF 		bl	chSemWaitS
 767              	.LVL62:
 768 0024 0446     		mov	r4, r0
 769              	.LVL63:
 770              		.loc 1 180 3 is_stmt 1 view .LVU193
 771              	.LBB179:
 772              	.LBI179:
 773              		.loc 3 358 20 view .LVU194
 774              	.LBB180:
 775              		.loc 3 360 3 view .LVU195
 776 0026 FFF7FEFF 		bl	_dbg_check_unlock
 777              	.LVL64:
 778              		.loc 3 361 3 view .LVU196
 779 002a FFF7FEFF 		bl	_stats_stop_measure_crit_thd
 780              	.LVL65:
 781              		.loc 3 367 3 view .LVU197
 782              		.loc 3 367 3 view .LVU198
 783              		.loc 3 367 3 view .LVU199
 784 002e 0E4B     		ldr	r3, .L64+4
 785 0030 1A68     		ldr	r2, [r3]
 786 0032 9A42     		cmp	r2, r3
 787 0034 04D0     		beq	.L59
 788 0036 9969     		ldr	r1, [r3, #24]
 789 0038 9368     		ldr	r3, [r2, #8]
 790 003a 8A68     		ldr	r2, [r1, #8]
 791 003c 9A42     		cmp	r2, r3
 792 003e 0AD3     		bcc	.L62
 793              	.L59:
 794              		.loc 3 367 3 view .LVU200
 795              		.loc 3 371 3 view .LVU201
 796              	.LBB181:
 797              	.LBI181:
 798              		.loc 4 458 20 view .LVU202
ARM GAS  /tmp/ccy3friM.s 			page 15


 799              	.LBE181:
 800              	.LBE180:
 801              	.LBE179:
 802              		.loc 4 461 3 view .LVU203
 803              	.LVL66:
 804              	.LBB187:
 805              	.LBB185:
 806              	.LBB184:
 807              	.LBB182:
 808              	.LBI182:
 809              		.loc 5 544 57 view .LVU204
 810              	.LBB183:
 811              		.loc 5 546 3 view .LVU205
 812 0040 0023     		movs	r3, #0
 813              		.syntax unified
 814              	@ 546 ".//ChibiOS//os/ext/CMSIS/include/core_cmFunc.h" 1
 815 0042 83F31188 		MSR basepri, r3
 816              	@ 0 "" 2
 817              	.LVL67:
 818              		.loc 5 546 3 is_stmt 0 view .LVU206
 819              		.thumb
 820              		.syntax unified
 821              	.LBE183:
 822              	.LBE182:
 823              	.LBE184:
 824              	.LBE185:
 825              	.LBE187:
 826              		.loc 1 182 3 is_stmt 1 view .LVU207
 827              		.loc 1 183 1 is_stmt 0 view .LVU208
 828 0046 074B     		ldr	r3, .L64
 829 0048 1A68     		ldr	r2, [r3]
 830 004a 039B     		ldr	r3, [sp, #12]
 831 004c 5A40     		eors	r2, r3, r2
 832 004e 06D1     		bne	.L63
 833 0050 2046     		mov	r0, r4
 834 0052 04B0     		add	sp, sp, #16
 835              		.cfi_remember_state
 836              		.cfi_def_cfa_offset 8
 837              		@ sp needed
 838 0054 10BD     		pop	{r4, pc}
 839              	.LVL68:
 840              	.L62:
 841              		.cfi_restore_state
 842              	.LBB188:
 843              	.LBB186:
 844              		.loc 3 367 3 is_stmt 1 view .LVU209
 845 0056 0548     		ldr	r0, .L64+8
 846 0058 FFF7FEFF 		bl	chSysHalt
 847              	.LVL69:
 848 005c F0E7     		b	.L59
 849              	.L63:
 850              	.LBE186:
 851              	.LBE188:
 852              		.loc 1 183 1 is_stmt 0 view .LVU210
 853 005e FFF7FEFF 		bl	__stack_chk_fail
 854              	.LVL70:
 855              	.L65:
ARM GAS  /tmp/ccy3friM.s 			page 16


 856 0062 00BF     		.align	2
 857              	.L64:
 858 0064 00000000 		.word	.LC4
 859 0068 00000000 		.word	ch
 860 006c 00000000 		.word	.LANCHOR2
 861              		.cfi_endproc
 862              	.LFE222:
 863              		.size	chSemWait, .-chSemWait
 864              		.section	.rodata.chSemWaitTimeoutS.cst4,"aM",%progbits,4
 865              		.align	2
 866              	.LC5:
 867 0000 00000000 		.word	__stack_chk_guard
 868              		.section	.text.chSemWaitTimeoutS,"ax",%progbits
 869              		.align	1
 870              		.p2align 4,,15
 871              		.global	chSemWaitTimeoutS
 872              		.syntax unified
 873              		.thumb
 874              		.thumb_func
 875              		.fpu fpv4-sp-d16
 876              		.type	chSemWaitTimeoutS, %function
 877              	chSemWaitTimeoutS:
 878              	.LVL71:
 879              	.LFB225:
 880              		.loc 1 264 58 is_stmt 1 view -0
 881              		.cfi_startproc
 882              		@ args = 0, pretend = 0, frame = 8
 883              		@ frame_needed = 0, uses_anonymous_args = 0
 884              		.loc 1 264 58 is_stmt 0 view .LVU212
 885 0000 30B5     		push	{r4, r5, lr}
 886              		.cfi_def_cfa_offset 12
 887              		.cfi_offset 4, -12
 888              		.cfi_offset 5, -8
 889              		.cfi_offset 14, -4
 890 0002 234B     		ldr	r3, .L82
 891 0004 83B0     		sub	sp, sp, #12
 892              		.cfi_def_cfa_offset 24
 893              		.loc 1 264 58 view .LVU213
 894 0006 0446     		mov	r4, r0
 895 0008 0D46     		mov	r5, r1
 896 000a 1B68     		ldr	r3, [r3]
 897 000c 0193     		str	r3, [sp, #4]
 898 000e 4FF00003 		mov	r3,#0
 899              		.loc 1 266 3 is_stmt 1 view .LVU214
 900 0012 FFF7FEFF 		bl	chDbgCheckClassS
 901              	.LVL72:
 902              		.loc 1 267 3 view .LVU215
 903              		.loc 1 267 3 view .LVU216
 904              		.loc 1 267 3 view .LVU217
 905 0016 002C     		cmp	r4, #0
 906 0018 2FD0     		beq	.L80
 907              	.L67:
 908              		.loc 1 267 3 discriminator 1 view .LVU218
 909              		.loc 1 268 3 discriminator 1 view .LVU219
 910              		.loc 1 268 3 discriminator 1 view .LVU220
 911              		.loc 1 268 3 discriminator 1 view .LVU221
 912 001a A368     		ldr	r3, [r4, #8]
ARM GAS  /tmp/ccy3friM.s 			page 17


 913 001c 2268     		ldr	r2, [r4]
 914 001e 002B     		cmp	r3, #0
 915 0020 12DB     		blt	.L68
 916              	.LVL73:
 917              	.LBB201:
 918              	.LBI201:
 919              		.loc 2 616 20 discriminator 4 view .LVU222
 920              	.LBB202:
 921              		.loc 2 618 3 discriminator 4 view .LVU223
 922              		.loc 2 618 3 is_stmt 0 discriminator 4 view .LVU224
 923              	.LBE202:
 924              	.LBE201:
 925              		.loc 1 268 3 discriminator 4 view .LVU225
 926 0022 9442     		cmp	r4, r2
 927 0024 03D0     		beq	.L70
 928              	.L69:
 929              		.loc 1 268 3 is_stmt 1 discriminator 9 view .LVU226
 930 0026 1B48     		ldr	r0, .L82+4
 931 0028 FFF7FEFF 		bl	chSysHalt
 932              	.LVL74:
 933 002c A368     		ldr	r3, [r4, #8]
 934              	.L70:
 935              		.loc 1 268 3 discriminator 11 view .LVU227
 936              		.loc 1 272 3 discriminator 11 view .LVU228
 937              		.loc 1 272 7 is_stmt 0 discriminator 11 view .LVU229
 938 002e 5A1E     		subs	r2, r3, #1
 939              		.loc 1 272 6 discriminator 11 view .LVU230
 940 0030 002A     		cmp	r2, #0
 941 0032 A260     		str	r2, [r4, #8]
 942              		.loc 1 284 10 discriminator 11 view .LVU231
 943 0034 A8BF     		it	ge
 944 0036 0020     		movge	r0, #0
 945              		.loc 1 272 6 discriminator 11 view .LVU232
 946 0038 0ADB     		blt	.L75
 947              	.L66:
 948              		.loc 1 285 1 view .LVU233
 949 003a 154B     		ldr	r3, .L82
 950 003c 1A68     		ldr	r2, [r3]
 951 003e 019B     		ldr	r3, [sp, #4]
 952 0040 5A40     		eors	r2, r3, r2
 953 0042 22D1     		bne	.L79
 954 0044 03B0     		add	sp, sp, #12
 955              		.cfi_remember_state
 956              		.cfi_def_cfa_offset 12
 957              		@ sp needed
 958 0046 30BD     		pop	{r4, r5, pc}
 959              	.LVL75:
 960              	.L68:
 961              		.cfi_restore_state
 962              	.LBB203:
 963              	.LBI203:
 964              		.loc 2 629 20 is_stmt 1 discriminator 8 view .LVU234
 965              	.LBB204:
 966              		.loc 2 631 3 discriminator 8 view .LVU235
 967              		.loc 2 631 3 is_stmt 0 discriminator 8 view .LVU236
 968              	.LBE204:
 969              	.LBE203:
ARM GAS  /tmp/ccy3friM.s 			page 18


 970              		.loc 1 268 3 discriminator 8 view .LVU237
 971 0048 9442     		cmp	r4, r2
 972 004a ECD0     		beq	.L69
 973              		.loc 1 268 3 is_stmt 1 view .LVU238
 974              		.loc 1 272 3 view .LVU239
 975              		.loc 1 272 7 is_stmt 0 view .LVU240
 976 004c 5A1E     		subs	r2, r3, #1
 977              		.loc 1 272 6 view .LVU241
 978 004e A260     		str	r2, [r4, #8]
 979              	.L75:
 980              		.loc 1 273 5 is_stmt 1 view .LVU242
 981              		.loc 1 273 8 is_stmt 0 view .LVU243
 982 0050 BDB1     		cbz	r5, .L81
 983              	.LVL76:
 984              	.LBB205:
 985              	.LBI205:
 986              		.loc 1 264 7 is_stmt 1 view .LVU244
 987              	.LBB206:
 988              		.loc 1 278 5 view .LVU245
 989 0052 114B     		ldr	r3, .L82+8
 990 0054 9B69     		ldr	r3, [r3, #24]
 991              	.LBB207:
 992              	.LBB208:
 993              		.loc 2 665 14 is_stmt 0 view .LVU246
 994 0056 1C60     		str	r4, [r3]
 995              	.LBE208:
 996              	.LBE207:
 997              		.loc 1 278 23 view .LVU247
 998 0058 9C62     		str	r4, [r3, #40]
 999              		.loc 1 279 5 is_stmt 1 view .LVU248
 1000              	.LVL77:
 1001              	.LBB210:
 1002              	.LBI207:
 1003              		.loc 2 663 20 view .LVU249
 1004              	.LBB209:
 1005              		.loc 2 665 3 view .LVU250
 1006              		.loc 2 666 3 view .LVU251
 1007              		.loc 2 666 19 is_stmt 0 view .LVU252
 1008 005a 6268     		ldr	r2, [r4, #4]
 1009              		.loc 2 666 14 view .LVU253
 1010 005c 5A60     		str	r2, [r3, #4]
 1011              		.loc 2 667 3 is_stmt 1 view .LVU254
 1012              		.loc 2 667 22 is_stmt 0 view .LVU255
 1013 005e 1360     		str	r3, [r2]
 1014              		.loc 2 668 3 is_stmt 1 view .LVU256
 1015              		.loc 2 668 15 is_stmt 0 view .LVU257
 1016 0060 6360     		str	r3, [r4, #4]
 1017              	.LVL78:
 1018              		.loc 2 668 15 view .LVU258
 1019              	.LBE209:
 1020              	.LBE210:
 1021              		.loc 1 281 5 is_stmt 1 view .LVU259
 1022              		.loc 1 281 12 is_stmt 0 view .LVU260
 1023 0062 0B4B     		ldr	r3, .L82
 1024 0064 1A68     		ldr	r2, [r3]
 1025 0066 019B     		ldr	r3, [sp, #4]
 1026 0068 5A40     		eors	r2, r3, r2
ARM GAS  /tmp/ccy3friM.s 			page 19


 1027 006a 0ED1     		bne	.L79
 1028 006c 2946     		mov	r1, r5
 1029 006e 0520     		movs	r0, #5
 1030              	.LBE206:
 1031              	.LBE205:
 1032              		.loc 1 285 1 view .LVU261
 1033 0070 03B0     		add	sp, sp, #12
 1034              		.cfi_remember_state
 1035              		.cfi_def_cfa_offset 12
 1036              		@ sp needed
 1037 0072 BDE83040 		pop	{r4, r5, lr}
 1038              		.cfi_restore 14
 1039              		.cfi_restore 5
 1040              		.cfi_restore 4
 1041              		.cfi_def_cfa_offset 0
 1042              	.LVL79:
 1043              	.LBB212:
 1044              	.LBB211:
 1045              		.loc 1 281 12 view .LVU262
 1046 0076 FFF7FEBF 		b	chSchGoSleepTimeoutS
 1047              	.LVL80:
 1048              	.L80:
 1049              		.cfi_restore_state
 1050              		.loc 1 281 12 view .LVU263
 1051              	.LBE211:
 1052              	.LBE212:
 1053              		.loc 1 267 3 is_stmt 1 discriminator 3 view .LVU264
 1054 007a 0648     		ldr	r0, .L82+4
 1055 007c FFF7FEFF 		bl	chSysHalt
 1056              	.LVL81:
 1057 0080 CBE7     		b	.L67
 1058              	.L81:
 1059              		.loc 1 274 7 view .LVU265
 1060              		.loc 1 274 16 is_stmt 0 view .LVU266
 1061 0082 A360     		str	r3, [r4, #8]
 1062              		.loc 1 276 7 is_stmt 1 view .LVU267
 1063              		.loc 1 276 14 is_stmt 0 view .LVU268
 1064 0084 4FF0FF30 		mov	r0, #-1
 1065 0088 D7E7     		b	.L66
 1066              	.L79:
 1067              		.loc 1 285 1 view .LVU269
 1068 008a FFF7FEFF 		bl	__stack_chk_fail
 1069              	.LVL82:
 1070              	.L83:
 1071 008e 00BF     		.align	2
 1072              	.L82:
 1073 0090 00000000 		.word	.LC5
 1074 0094 00000000 		.word	.LANCHOR4
 1075 0098 00000000 		.word	ch
 1076              		.cfi_endproc
 1077              	.LFE225:
 1078              		.size	chSemWaitTimeoutS, .-chSemWaitTimeoutS
 1079              		.section	.rodata.chSemWaitTimeout.cst4,"aM",%progbits,4
 1080              		.align	2
 1081              	.LC6:
 1082 0000 00000000 		.word	__stack_chk_guard
 1083              		.section	.text.chSemWaitTimeout,"ax",%progbits
ARM GAS  /tmp/ccy3friM.s 			page 20


 1084              		.align	1
 1085              		.p2align 4,,15
 1086              		.global	chSemWaitTimeout
 1087              		.syntax unified
 1088              		.thumb
 1089              		.thumb_func
 1090              		.fpu fpv4-sp-d16
 1091              		.type	chSemWaitTimeout, %function
 1092              	chSemWaitTimeout:
 1093              	.LVL83:
 1094              	.LFB224:
 1095              		.loc 1 235 57 is_stmt 1 view -0
 1096              		.cfi_startproc
 1097              		@ args = 0, pretend = 0, frame = 16
 1098              		@ frame_needed = 0, uses_anonymous_args = 0
 1099              		.loc 1 235 57 is_stmt 0 view .LVU271
 1100 0000 10B5     		push	{r4, lr}
 1101              		.cfi_def_cfa_offset 8
 1102              		.cfi_offset 4, -8
 1103              		.cfi_offset 14, -4
 1104 0002 84B0     		sub	sp, sp, #16
 1105              		.cfi_def_cfa_offset 24
 1106              		.loc 1 235 57 view .LVU272
 1107 0004 CDE90010 		strd	r1, r0, [sp]
 1108 0008 174B     		ldr	r3, .L90
 1109 000a 1B68     		ldr	r3, [r3]
 1110 000c 0393     		str	r3, [sp, #12]
 1111 000e 4FF00003 		mov	r3,#0
 1112              		.loc 1 236 3 is_stmt 1 view .LVU273
 1113              		.loc 1 238 3 view .LVU274
 1114              	.LBB223:
 1115              	.LBI223:
 1116              		.loc 3 346 20 view .LVU275
 1117              	.LBB224:
 1118              		.loc 3 348 3 view .LVU276
 1119              	.LBB225:
 1120              	.LBI225:
 1121              		.loc 4 444 20 view .LVU277
 1122              	.LBE225:
 1123              	.LBE224:
 1124              	.LBE223:
 1125              		.loc 4 447 3 view .LVU278
 1126              	.LVL84:
 1127              	.LBB230:
 1128              	.LBB229:
 1129              	.LBB228:
 1130              	.LBB226:
 1131              	.LBI226:
 1132              		.loc 5 544 57 view .LVU279
 1133              	.LBB227:
 1134              		.loc 5 546 3 view .LVU280
 1135 0012 2023     		movs	r3, #32
 1136              		.syntax unified
 1137              	@ 546 ".//ChibiOS//os/ext/CMSIS/include/core_cmFunc.h" 1
 1138 0014 83F31188 		MSR basepri, r3
 1139              	@ 0 "" 2
 1140              	.LVL85:
ARM GAS  /tmp/ccy3friM.s 			page 21


 1141              		.loc 5 546 3 is_stmt 0 view .LVU281
 1142              		.thumb
 1143              		.syntax unified
 1144              	.LBE227:
 1145              	.LBE226:
 1146              	.LBE228:
 1147              		.loc 3 349 3 is_stmt 1 view .LVU282
 1148 0018 FFF7FEFF 		bl	_stats_start_measure_crit_thd
 1149              	.LVL86:
 1150              		.loc 3 350 3 view .LVU283
 1151 001c FFF7FEFF 		bl	_dbg_check_lock
 1152              	.LVL87:
 1153              	.LBE229:
 1154              	.LBE230:
 1155              		.loc 1 239 3 view .LVU284
 1156              		.loc 1 239 9 is_stmt 0 view .LVU285
 1157 0020 DDE90010 		ldrd	r1, r0, [sp]
 1158 0024 FFF7FEFF 		bl	chSemWaitTimeoutS
 1159              	.LVL88:
 1160 0028 0446     		mov	r4, r0
 1161              	.LVL89:
 1162              		.loc 1 240 3 is_stmt 1 view .LVU286
 1163              	.LBB231:
 1164              	.LBI231:
 1165              		.loc 3 358 20 view .LVU287
 1166              	.LBB232:
 1167              		.loc 3 360 3 view .LVU288
 1168 002a FFF7FEFF 		bl	_dbg_check_unlock
 1169              	.LVL90:
 1170              		.loc 3 361 3 view .LVU289
 1171 002e FFF7FEFF 		bl	_stats_stop_measure_crit_thd
 1172              	.LVL91:
 1173              		.loc 3 367 3 view .LVU290
 1174              		.loc 3 367 3 view .LVU291
 1175              		.loc 3 367 3 view .LVU292
 1176 0032 0E4B     		ldr	r3, .L90+4
 1177 0034 1A68     		ldr	r2, [r3]
 1178 0036 9A42     		cmp	r2, r3
 1179 0038 04D0     		beq	.L85
 1180 003a 9969     		ldr	r1, [r3, #24]
 1181 003c 9368     		ldr	r3, [r2, #8]
 1182 003e 8A68     		ldr	r2, [r1, #8]
 1183 0040 9A42     		cmp	r2, r3
 1184 0042 0AD3     		bcc	.L88
 1185              	.L85:
 1186              		.loc 3 367 3 view .LVU293
 1187              		.loc 3 371 3 view .LVU294
 1188              	.LBB233:
 1189              	.LBI233:
 1190              		.loc 4 458 20 view .LVU295
 1191              	.LBE233:
 1192              	.LBE232:
 1193              	.LBE231:
 1194              		.loc 4 461 3 view .LVU296
 1195              	.LVL92:
 1196              	.LBB239:
 1197              	.LBB237:
ARM GAS  /tmp/ccy3friM.s 			page 22


 1198              	.LBB236:
 1199              	.LBB234:
 1200              	.LBI234:
 1201              		.loc 5 544 57 view .LVU297
 1202              	.LBB235:
 1203              		.loc 5 546 3 view .LVU298
 1204 0044 0023     		movs	r3, #0
 1205              		.syntax unified
 1206              	@ 546 ".//ChibiOS//os/ext/CMSIS/include/core_cmFunc.h" 1
 1207 0046 83F31188 		MSR basepri, r3
 1208              	@ 0 "" 2
 1209              	.LVL93:
 1210              		.loc 5 546 3 is_stmt 0 view .LVU299
 1211              		.thumb
 1212              		.syntax unified
 1213              	.LBE235:
 1214              	.LBE234:
 1215              	.LBE236:
 1216              	.LBE237:
 1217              	.LBE239:
 1218              		.loc 1 242 3 is_stmt 1 view .LVU300
 1219              		.loc 1 243 1 is_stmt 0 view .LVU301
 1220 004a 074B     		ldr	r3, .L90
 1221 004c 1A68     		ldr	r2, [r3]
 1222 004e 039B     		ldr	r3, [sp, #12]
 1223 0050 5A40     		eors	r2, r3, r2
 1224 0052 06D1     		bne	.L89
 1225 0054 2046     		mov	r0, r4
 1226 0056 04B0     		add	sp, sp, #16
 1227              		.cfi_remember_state
 1228              		.cfi_def_cfa_offset 8
 1229              	.LVL94:
 1230              		.loc 1 243 1 view .LVU302
 1231              		@ sp needed
 1232 0058 10BD     		pop	{r4, pc}
 1233              	.LVL95:
 1234              	.L88:
 1235              		.cfi_restore_state
 1236              	.LBB240:
 1237              	.LBB238:
 1238              		.loc 3 367 3 is_stmt 1 view .LVU303
 1239 005a 0548     		ldr	r0, .L90+8
 1240 005c FFF7FEFF 		bl	chSysHalt
 1241              	.LVL96:
 1242 0060 F0E7     		b	.L85
 1243              	.L89:
 1244              	.LBE238:
 1245              	.LBE240:
 1246              		.loc 1 243 1 is_stmt 0 view .LVU304
 1247 0062 FFF7FEFF 		bl	__stack_chk_fail
 1248              	.LVL97:
 1249              	.L91:
 1250 0066 00BF     		.align	2
 1251              	.L90:
 1252 0068 00000000 		.word	.LC6
 1253 006c 00000000 		.word	ch
 1254 0070 00000000 		.word	.LANCHOR2
ARM GAS  /tmp/ccy3friM.s 			page 23


 1255              		.cfi_endproc
 1256              	.LFE224:
 1257              		.size	chSemWaitTimeout, .-chSemWaitTimeout
 1258              		.section	.rodata.chSemSignal.cst4,"aM",%progbits,4
 1259              		.align	2
 1260              	.LC7:
 1261 0000 00000000 		.word	__stack_chk_guard
 1262              		.section	.text.chSemSignal,"ax",%progbits
 1263              		.align	1
 1264              		.p2align 4,,15
 1265              		.global	chSemSignal
 1266              		.syntax unified
 1267              		.thumb
 1268              		.thumb_func
 1269              		.fpu fpv4-sp-d16
 1270              		.type	chSemSignal, %function
 1271              	chSemSignal:
 1272              	.LVL98:
 1273              	.LFB226:
 1274              		.loc 1 294 35 is_stmt 1 view -0
 1275              		.cfi_startproc
 1276              		@ args = 0, pretend = 0, frame = 8
 1277              		@ frame_needed = 0, uses_anonymous_args = 0
 1278              		.loc 1 294 35 is_stmt 0 view .LVU306
 1279 0000 10B5     		push	{r4, lr}
 1280              		.cfi_def_cfa_offset 8
 1281              		.cfi_offset 4, -8
 1282              		.cfi_offset 14, -4
 1283 0002 254B     		ldr	r3, .L105
 1284 0004 82B0     		sub	sp, sp, #8
 1285              		.cfi_def_cfa_offset 16
 1286              		.loc 1 294 35 view .LVU307
 1287 0006 1B68     		ldr	r3, [r3]
 1288 0008 0193     		str	r3, [sp, #4]
 1289 000a 4FF00003 		mov	r3,#0
 1290              		.loc 1 296 3 is_stmt 1 view .LVU308
 1291              		.loc 1 296 3 view .LVU309
 1292              		.loc 1 296 3 view .LVU310
 1293 000e 0446     		mov	r4, r0
 1294 0010 0028     		cmp	r0, #0
 1295 0012 3AD0     		beq	.L101
 1296              	.LVL99:
 1297              	.L93:
 1298              		.loc 1 296 3 discriminator 1 view .LVU311
 1299              		.loc 1 297 3 discriminator 1 view .LVU312
 1300              		.loc 1 297 3 discriminator 1 view .LVU313
 1301              		.loc 1 297 3 discriminator 1 view .LVU314
 1302 0014 A368     		ldr	r3, [r4, #8]
 1303 0016 002B     		cmp	r3, #0
 1304 0018 2368     		ldr	r3, [r4]
 1305 001a 2BDB     		blt	.L94
 1306              	.LVL100:
 1307              	.LBB257:
 1308              	.LBI257:
 1309              		.loc 2 616 20 discriminator 4 view .LVU315
 1310              	.LBB258:
 1311              		.loc 2 618 3 discriminator 4 view .LVU316
ARM GAS  /tmp/ccy3friM.s 			page 24


 1312              		.loc 2 618 3 is_stmt 0 discriminator 4 view .LVU317
 1313              	.LBE258:
 1314              	.LBE257:
 1315              		.loc 1 297 3 discriminator 4 view .LVU318
 1316 001c 9C42     		cmp	r4, r3
 1317 001e 02D0     		beq	.L96
 1318              	.L95:
 1319              		.loc 1 297 3 is_stmt 1 discriminator 9 view .LVU319
 1320 0020 1E48     		ldr	r0, .L105+4
 1321 0022 FFF7FEFF 		bl	chSysHalt
 1322              	.LVL101:
 1323              	.L96:
 1324              		.loc 1 297 3 discriminator 11 view .LVU320
 1325              		.loc 1 301 3 discriminator 11 view .LVU321
 1326              	.LBB259:
 1327              	.LBI259:
 1328              		.loc 3 346 20 discriminator 11 view .LVU322
 1329              	.LBB260:
 1330              		.loc 3 348 3 discriminator 11 view .LVU323
 1331              	.LBB261:
 1332              	.LBI261:
 1333              		.loc 4 444 20 discriminator 11 view .LVU324
 1334              	.LBE261:
 1335              	.LBE260:
 1336              	.LBE259:
 1337              		.loc 4 447 3 discriminator 11 view .LVU325
 1338              	.LBB266:
 1339              	.LBB265:
 1340              	.LBB264:
 1341              	.LBB262:
 1342              	.LBI262:
 1343              		.loc 5 544 57 discriminator 11 view .LVU326
 1344              	.LBB263:
 1345              		.loc 5 546 3 discriminator 11 view .LVU327
 1346 0026 2023     		movs	r3, #32
 1347              		.syntax unified
 1348              	@ 546 ".//ChibiOS//os/ext/CMSIS/include/core_cmFunc.h" 1
 1349 0028 83F31188 		MSR basepri, r3
 1350              	@ 0 "" 2
 1351              	.LVL102:
 1352              		.loc 5 546 3 is_stmt 0 discriminator 11 view .LVU328
 1353              		.thumb
 1354              		.syntax unified
 1355              	.LBE263:
 1356              	.LBE262:
 1357              	.LBE264:
 1358              		.loc 3 349 3 is_stmt 1 discriminator 11 view .LVU329
 1359 002c FFF7FEFF 		bl	_stats_start_measure_crit_thd
 1360              	.LVL103:
 1361              		.loc 3 350 3 discriminator 11 view .LVU330
 1362 0030 FFF7FEFF 		bl	_dbg_check_lock
 1363              	.LVL104:
 1364              	.LBE265:
 1365              	.LBE266:
 1366              		.loc 1 302 3 discriminator 11 view .LVU331
 1367              		.loc 1 302 7 is_stmt 0 discriminator 11 view .LVU332
 1368 0034 A368     		ldr	r3, [r4, #8]
ARM GAS  /tmp/ccy3friM.s 			page 25


 1369 0036 0133     		adds	r3, r3, #1
 1370              		.loc 1 302 6 discriminator 11 view .LVU333
 1371 0038 002B     		cmp	r3, #0
 1372 003a A360     		str	r3, [r4, #8]
 1373 003c 1DDD     		ble	.L102
 1374              	.L97:
 1375              		.loc 1 305 3 is_stmt 1 view .LVU334
 1376              	.LBB267:
 1377              	.LBI267:
 1378              		.loc 3 358 20 view .LVU335
 1379              	.LBB268:
 1380              		.loc 3 360 3 view .LVU336
 1381 003e FFF7FEFF 		bl	_dbg_check_unlock
 1382              	.LVL105:
 1383              		.loc 3 361 3 view .LVU337
 1384 0042 FFF7FEFF 		bl	_stats_stop_measure_crit_thd
 1385              	.LVL106:
 1386              		.loc 3 367 3 view .LVU338
 1387              		.loc 3 367 3 view .LVU339
 1388              		.loc 3 367 3 view .LVU340
 1389 0046 164B     		ldr	r3, .L105+8
 1390 0048 1A68     		ldr	r2, [r3]
 1391 004a 9A42     		cmp	r2, r3
 1392 004c 04D0     		beq	.L98
 1393 004e 9969     		ldr	r1, [r3, #24]
 1394 0050 9368     		ldr	r3, [r2, #8]
 1395 0052 8A68     		ldr	r2, [r1, #8]
 1396 0054 9A42     		cmp	r2, r3
 1397 0056 09D3     		bcc	.L103
 1398              	.L98:
 1399              		.loc 3 367 3 view .LVU341
 1400              		.loc 3 371 3 view .LVU342
 1401              	.LBB269:
 1402              	.LBI269:
 1403              		.loc 4 458 20 view .LVU343
 1404              	.LBE269:
 1405              	.LBE268:
 1406              	.LBE267:
 1407              		.loc 4 461 3 view .LVU344
 1408              	.LVL107:
 1409              	.LBB275:
 1410              	.LBB273:
 1411              	.LBB272:
 1412              	.LBB270:
 1413              	.LBI270:
 1414              		.loc 5 544 57 view .LVU345
 1415              	.LBB271:
 1416              		.loc 5 546 3 view .LVU346
 1417 0058 0023     		movs	r3, #0
 1418              		.syntax unified
 1419              	@ 546 ".//ChibiOS//os/ext/CMSIS/include/core_cmFunc.h" 1
 1420 005a 83F31188 		MSR basepri, r3
 1421              	@ 0 "" 2
 1422              	.LVL108:
 1423              		.loc 5 546 3 is_stmt 0 view .LVU347
 1424              		.thumb
 1425              		.syntax unified
ARM GAS  /tmp/ccy3friM.s 			page 26


 1426              	.LBE271:
 1427              	.LBE270:
 1428              	.LBE272:
 1429              	.LBE273:
 1430              	.LBE275:
 1431              		.loc 1 306 1 view .LVU348
 1432 005e 0E4B     		ldr	r3, .L105
 1433 0060 1A68     		ldr	r2, [r3]
 1434 0062 019B     		ldr	r3, [sp, #4]
 1435 0064 5A40     		eors	r2, r3, r2
 1436 0066 14D1     		bne	.L104
 1437 0068 02B0     		add	sp, sp, #8
 1438              		.cfi_remember_state
 1439              		.cfi_def_cfa_offset 8
 1440              		@ sp needed
 1441 006a 10BD     		pop	{r4, pc}
 1442              	.LVL109:
 1443              	.L103:
 1444              		.cfi_restore_state
 1445              	.LBB276:
 1446              	.LBB274:
 1447              		.loc 3 367 3 is_stmt 1 view .LVU349
 1448 006c 0D48     		ldr	r0, .L105+12
 1449 006e FFF7FEFF 		bl	chSysHalt
 1450              	.LVL110:
 1451 0072 F1E7     		b	.L98
 1452              	.L94:
 1453              	.LVL111:
 1454              		.loc 3 367 3 is_stmt 0 view .LVU350
 1455              	.LBE274:
 1456              	.LBE276:
 1457              	.LBB277:
 1458              	.LBI277:
 1459              		.loc 2 629 20 is_stmt 1 discriminator 8 view .LVU351
 1460              	.LBB278:
 1461              		.loc 2 631 3 discriminator 8 view .LVU352
 1462              		.loc 2 631 3 is_stmt 0 discriminator 8 view .LVU353
 1463              	.LBE278:
 1464              	.LBE277:
 1465              		.loc 1 297 3 discriminator 8 view .LVU354
 1466 0074 9C42     		cmp	r4, r3
 1467 0076 D6D1     		bne	.L96
 1468 0078 D2E7     		b	.L95
 1469              	.L102:
 1470              		.loc 1 303 5 is_stmt 1 view .LVU355
 1471              	.LVL112:
 1472              	.LBB279:
 1473              	.LBI279:
 1474              		.loc 2 671 25 view .LVU356
 1475              	.LBB280:
 1476              		.loc 2 672 3 view .LVU357
 1477              		.loc 2 672 13 is_stmt 0 view .LVU358
 1478 007a 2068     		ldr	r0, [r4]
 1479              	.LVL113:
 1480              		.loc 2 674 3 is_stmt 1 view .LVU359
 1481              		.loc 2 674 19 is_stmt 0 view .LVU360
 1482 007c 0368     		ldr	r3, [r0]
ARM GAS  /tmp/ccy3friM.s 			page 27


 1483              		.loc 2 674 15 view .LVU361
 1484 007e 2360     		str	r3, [r4]
 1485              		.loc 2 675 3 is_stmt 1 view .LVU362
 1486              	.LBE280:
 1487              	.LBE279:
 1488              		.loc 1 303 5 is_stmt 0 view .LVU363
 1489 0080 0021     		movs	r1, #0
 1490              	.LBB282:
 1491              	.LBB281:
 1492              		.loc 2 675 23 view .LVU364
 1493 0082 5C60     		str	r4, [r3, #4]
 1494              		.loc 2 677 3 is_stmt 1 view .LVU365
 1495              	.LVL114:
 1496              		.loc 2 677 3 is_stmt 0 view .LVU366
 1497              	.LBE281:
 1498              	.LBE282:
 1499              		.loc 1 303 5 view .LVU367
 1500 0084 FFF7FEFF 		bl	chSchWakeupS
 1501              	.LVL115:
 1502 0088 D9E7     		b	.L97
 1503              	.LVL116:
 1504              	.L101:
 1505              		.loc 1 296 3 is_stmt 1 discriminator 3 view .LVU368
 1506 008a 0448     		ldr	r0, .L105+4
 1507              	.LVL117:
 1508              		.loc 1 296 3 is_stmt 0 discriminator 3 view .LVU369
 1509 008c FFF7FEFF 		bl	chSysHalt
 1510              	.LVL118:
 1511 0090 C0E7     		b	.L93
 1512              	.L104:
 1513              		.loc 1 306 1 view .LVU370
 1514 0092 FFF7FEFF 		bl	__stack_chk_fail
 1515              	.LVL119:
 1516              	.L106:
 1517 0096 00BF     		.align	2
 1518              	.L105:
 1519 0098 00000000 		.word	.LC7
 1520 009c 00000000 		.word	.LANCHOR5
 1521 00a0 00000000 		.word	ch
 1522 00a4 00000000 		.word	.LANCHOR2
 1523              		.cfi_endproc
 1524              	.LFE226:
 1525              		.size	chSemSignal, .-chSemSignal
 1526              		.section	.rodata.chSemSignalI.cst4,"aM",%progbits,4
 1527              		.align	2
 1528              	.LC8:
 1529 0000 00000000 		.word	__stack_chk_guard
 1530              		.section	.text.chSemSignalI,"ax",%progbits
 1531              		.align	1
 1532              		.p2align 4,,15
 1533              		.global	chSemSignalI
 1534              		.syntax unified
 1535              		.thumb
 1536              		.thumb_func
 1537              		.fpu fpv4-sp-d16
 1538              		.type	chSemSignalI, %function
 1539              	chSemSignalI:
ARM GAS  /tmp/ccy3friM.s 			page 28


 1540              	.LVL120:
 1541              	.LFB227:
 1542              		.loc 1 319 36 is_stmt 1 view -0
 1543              		.cfi_startproc
 1544              		@ args = 0, pretend = 0, frame = 8
 1545              		@ frame_needed = 0, uses_anonymous_args = 0
 1546              		.loc 1 319 36 is_stmt 0 view .LVU372
 1547 0000 10B5     		push	{r4, lr}
 1548              		.cfi_def_cfa_offset 8
 1549              		.cfi_offset 4, -8
 1550              		.cfi_offset 14, -4
 1551 0002 1F4B     		ldr	r3, .L123
 1552 0004 82B0     		sub	sp, sp, #8
 1553              		.cfi_def_cfa_offset 16
 1554              		.loc 1 319 36 view .LVU373
 1555 0006 0446     		mov	r4, r0
 1556 0008 1B68     		ldr	r3, [r3]
 1557 000a 0193     		str	r3, [sp, #4]
 1558 000c 4FF00003 		mov	r3,#0
 1559              		.loc 1 321 3 is_stmt 1 view .LVU374
 1560 0010 FFF7FEFF 		bl	chDbgCheckClassI
 1561              	.LVL121:
 1562              		.loc 1 322 3 view .LVU375
 1563              		.loc 1 322 3 view .LVU376
 1564              		.loc 1 322 3 view .LVU377
 1565 0014 5CB3     		cbz	r4, .L120
 1566              	.L108:
 1567              		.loc 1 322 3 discriminator 1 view .LVU378
 1568              		.loc 1 323 3 discriminator 1 view .LVU379
 1569              		.loc 1 323 3 discriminator 1 view .LVU380
 1570              		.loc 1 323 3 discriminator 1 view .LVU381
 1571 0016 A368     		ldr	r3, [r4, #8]
 1572 0018 002B     		cmp	r3, #0
 1573 001a 11DB     		blt	.L109
 1574              	.LVL122:
 1575              	.LBB283:
 1576              	.LBI283:
 1577              		.loc 2 616 20 discriminator 4 view .LVU382
 1578              	.LBB284:
 1579              		.loc 2 618 3 discriminator 4 view .LVU383
 1580              		.loc 2 618 3 is_stmt 0 discriminator 4 view .LVU384
 1581              	.LBE284:
 1582              	.LBE283:
 1583              		.loc 1 323 3 discriminator 4 view .LVU385
 1584 001c 2268     		ldr	r2, [r4]
 1585 001e 9442     		cmp	r4, r2
 1586 0020 22D0     		beq	.L121
 1587              	.L110:
 1588              		.loc 1 323 3 is_stmt 1 discriminator 9 view .LVU386
 1589 0022 1848     		ldr	r0, .L123+4
 1590 0024 FFF7FEFF 		bl	chSysHalt
 1591              	.LVL123:
 1592              		.loc 1 323 3 discriminator 9 view .LVU387
 1593              		.loc 1 327 3 discriminator 9 view .LVU388
 1594              		.loc 1 327 7 is_stmt 0 discriminator 9 view .LVU389
 1595 0028 A368     		ldr	r3, [r4, #8]
 1596 002a 0133     		adds	r3, r3, #1
ARM GAS  /tmp/ccy3friM.s 			page 29


 1597              		.loc 1 327 6 discriminator 9 view .LVU390
 1598 002c 002B     		cmp	r3, #0
 1599 002e A360     		str	r3, [r4, #8]
 1600 0030 23DD     		ble	.L122
 1601              	.L107:
 1602              		.loc 1 334 1 view .LVU391
 1603 0032 134B     		ldr	r3, .L123
 1604 0034 1A68     		ldr	r2, [r3]
 1605 0036 019B     		ldr	r3, [sp, #4]
 1606 0038 5A40     		eors	r2, r3, r2
 1607 003a 1CD1     		bne	.L119
 1608 003c 02B0     		add	sp, sp, #8
 1609              		.cfi_remember_state
 1610              		.cfi_def_cfa_offset 8
 1611              		@ sp needed
 1612 003e 10BD     		pop	{r4, pc}
 1613              	.LVL124:
 1614              	.L109:
 1615              		.cfi_restore_state
 1616              	.LBB285:
 1617              	.LBI285:
 1618              		.loc 2 629 20 is_stmt 1 discriminator 8 view .LVU392
 1619              	.LBB286:
 1620              		.loc 2 631 3 discriminator 8 view .LVU393
 1621              		.loc 2 631 3 is_stmt 0 discriminator 8 view .LVU394
 1622              	.LBE286:
 1623              	.LBE285:
 1624              		.loc 1 323 3 discriminator 8 view .LVU395
 1625 0040 2068     		ldr	r0, [r4]
 1626 0042 8442     		cmp	r4, r0
 1627 0044 EDD0     		beq	.L110
 1628              		.loc 1 323 3 is_stmt 1 view .LVU396
 1629              		.loc 1 327 3 view .LVU397
 1630              		.loc 1 327 7 is_stmt 0 view .LVU398
 1631 0046 0133     		adds	r3, r3, #1
 1632              		.loc 1 327 6 view .LVU399
 1633 0048 A360     		str	r3, [r4, #8]
 1634              	.L115:
 1635              	.LBB287:
 1636              		.loc 1 330 5 is_stmt 1 view .LVU400
 1637              	.LVL125:
 1638              	.LBB288:
 1639              	.LBI288:
 1640              		.loc 2 671 25 view .LVU401
 1641              	.LBB289:
 1642              		.loc 2 672 3 view .LVU402
 1643              		.loc 2 674 3 view .LVU403
 1644              		.loc 2 674 19 is_stmt 0 view .LVU404
 1645 004a 0368     		ldr	r3, [r0]
 1646              		.loc 2 674 15 view .LVU405
 1647 004c 2360     		str	r3, [r4]
 1648              		.loc 2 675 3 is_stmt 1 view .LVU406
 1649              	.LBE289:
 1650              	.LBE288:
 1651              		.loc 1 331 20 is_stmt 0 view .LVU407
 1652 004e 0022     		movs	r2, #0
 1653              	.LBB291:
ARM GAS  /tmp/ccy3friM.s 			page 30


 1654              	.LBB290:
 1655              		.loc 2 675 23 view .LVU408
 1656 0050 5C60     		str	r4, [r3, #4]
 1657              		.loc 2 677 3 is_stmt 1 view .LVU409
 1658              	.LVL126:
 1659              		.loc 2 677 3 is_stmt 0 view .LVU410
 1660              	.LBE290:
 1661              	.LBE291:
 1662              		.loc 1 331 5 is_stmt 1 view .LVU411
 1663              		.loc 1 332 12 is_stmt 0 view .LVU412
 1664 0052 0B4B     		ldr	r3, .L123
 1665              		.loc 1 331 20 view .LVU413
 1666 0054 8262     		str	r2, [r0, #40]
 1667              		.loc 1 332 5 is_stmt 1 view .LVU414
 1668              		.loc 1 332 12 is_stmt 0 view .LVU415
 1669 0056 1A68     		ldr	r2, [r3]
 1670 0058 019B     		ldr	r3, [sp, #4]
 1671 005a 5A40     		eors	r2, r3, r2
 1672 005c 0BD1     		bne	.L119
 1673              	.LBE287:
 1674              		.loc 1 334 1 view .LVU416
 1675 005e 02B0     		add	sp, sp, #8
 1676              		.cfi_remember_state
 1677              		.cfi_def_cfa_offset 8
 1678              		@ sp needed
 1679 0060 BDE81040 		pop	{r4, lr}
 1680              		.cfi_restore 14
 1681              		.cfi_restore 4
 1682              		.cfi_def_cfa_offset 0
 1683              	.LVL127:
 1684              	.LBB292:
 1685              		.loc 1 332 12 view .LVU417
 1686 0064 FFF7FEBF 		b	chSchReadyI
 1687              	.LVL128:
 1688              	.L121:
 1689              		.cfi_restore_state
 1690              		.loc 1 332 12 view .LVU418
 1691              	.LBE292:
 1692              		.loc 1 323 3 is_stmt 1 view .LVU419
 1693              		.loc 1 327 3 view .LVU420
 1694              		.loc 1 327 7 is_stmt 0 view .LVU421
 1695 0068 0133     		adds	r3, r3, #1
 1696              		.loc 1 327 6 view .LVU422
 1697 006a A360     		str	r3, [r4, #8]
 1698 006c E1E7     		b	.L107
 1699              	.L120:
 1700              		.loc 1 322 3 is_stmt 1 discriminator 3 view .LVU423
 1701 006e 0548     		ldr	r0, .L123+4
 1702 0070 FFF7FEFF 		bl	chSysHalt
 1703              	.LVL129:
 1704 0074 CFE7     		b	.L108
 1705              	.L119:
 1706              		.loc 1 334 1 is_stmt 0 view .LVU424
 1707 0076 FFF7FEFF 		bl	__stack_chk_fail
 1708              	.LVL130:
 1709              	.L122:
 1710              		.loc 1 334 1 view .LVU425
ARM GAS  /tmp/ccy3friM.s 			page 31


 1711 007a 2068     		ldr	r0, [r4]
 1712 007c E5E7     		b	.L115
 1713              	.L124:
 1714 007e 00BF     		.align	2
 1715              	.L123:
 1716 0080 00000000 		.word	.LC8
 1717 0084 00000000 		.word	.LANCHOR6
 1718              		.cfi_endproc
 1719              	.LFE227:
 1720              		.size	chSemSignalI, .-chSemSignalI
 1721              		.section	.rodata.chSemAddCounterI.cst4,"aM",%progbits,4
 1722              		.align	2
 1723              	.LC9:
 1724 0000 00000000 		.word	__stack_chk_guard
 1725              		.section	.text.chSemAddCounterI,"ax",%progbits
 1726              		.align	1
 1727              		.p2align 4,,15
 1728              		.global	chSemAddCounterI
 1729              		.syntax unified
 1730              		.thumb
 1731              		.thumb_func
 1732              		.fpu fpv4-sp-d16
 1733              		.type	chSemAddCounterI, %function
 1734              	chSemAddCounterI:
 1735              	.LVL131:
 1736              	.LFB228:
 1737              		.loc 1 349 49 is_stmt 1 view -0
 1738              		.cfi_startproc
 1739              		@ args = 0, pretend = 0, frame = 8
 1740              		@ frame_needed = 0, uses_anonymous_args = 0
 1741              		.loc 1 349 49 is_stmt 0 view .LVU427
 1742 0000 70B5     		push	{r4, r5, r6, lr}
 1743              		.cfi_def_cfa_offset 16
 1744              		.cfi_offset 4, -16
 1745              		.cfi_offset 5, -12
 1746              		.cfi_offset 6, -8
 1747              		.cfi_offset 14, -4
 1748 0002 204B     		ldr	r3, .L142
 1749 0004 82B0     		sub	sp, sp, #8
 1750              		.cfi_def_cfa_offset 24
 1751              		.loc 1 349 49 view .LVU428
 1752 0006 0446     		mov	r4, r0
 1753 0008 0D46     		mov	r5, r1
 1754 000a 1B68     		ldr	r3, [r3]
 1755 000c 0193     		str	r3, [sp, #4]
 1756 000e 4FF00003 		mov	r3,#0
 1757              		.loc 1 351 3 is_stmt 1 view .LVU429
 1758 0012 FFF7FEFF 		bl	chDbgCheckClassI
 1759              	.LVL132:
 1760              		.loc 1 352 3 view .LVU430
 1761              		.loc 1 352 3 view .LVU431
 1762              		.loc 1 352 3 view .LVU432
 1763 0016 2CB3     		cbz	r4, .L126
 1764              		.loc 1 352 3 is_stmt 0 discriminator 4 view .LVU433
 1765 0018 002D     		cmp	r5, #0
 1766 001a 23DD     		ble	.L126
 1767              		.loc 1 352 3 is_stmt 1 discriminator 1 view .LVU434
ARM GAS  /tmp/ccy3friM.s 			page 32


 1768              		.loc 1 353 3 discriminator 1 view .LVU435
 1769              		.loc 1 353 3 discriminator 1 view .LVU436
 1770              		.loc 1 353 3 discriminator 1 view .LVU437
 1771 001c A368     		ldr	r3, [r4, #8]
 1772 001e 002B     		cmp	r3, #0
 1773 0020 2368     		ldr	r3, [r4]
 1774 0022 26DB     		blt	.L128
 1775              	.L141:
 1776              	.LVL133:
 1777              	.LBB293:
 1778              	.LBI293:
 1779              		.loc 2 616 20 discriminator 4 view .LVU438
 1780              	.LBB294:
 1781              		.loc 2 618 3 discriminator 4 view .LVU439
 1782              		.loc 2 618 3 is_stmt 0 discriminator 4 view .LVU440
 1783              	.LBE294:
 1784              	.LBE293:
 1785              		.loc 1 353 3 discriminator 4 view .LVU441
 1786 0024 9C42     		cmp	r4, r3
 1787 0026 02D0     		beq	.L130
 1788              		.loc 1 353 3 is_stmt 1 discriminator 9 view .LVU442
 1789 0028 1748     		ldr	r0, .L142+4
 1790 002a FFF7FEFF 		bl	chSysHalt
 1791              	.LVL134:
 1792              	.L130:
 1793              		.loc 1 357 9 view .LVU443
 1794 002e 002D     		cmp	r5, #0
 1795 0030 11DD     		ble	.L125
 1796              		.loc 1 359 64 is_stmt 0 view .LVU444
 1797 0032 0026     		movs	r6, #0
 1798 0034 01E0     		b	.L133
 1799              	.L132:
 1800              		.loc 1 361 5 is_stmt 1 view .LVU445
 1801              	.LVL135:
 1802              		.loc 1 357 9 view .LVU446
 1803 0036 013D     		subs	r5, r5, #1
 1804              	.LVL136:
 1805              		.loc 1 357 9 is_stmt 0 view .LVU447
 1806 0038 0DD0     		beq	.L125
 1807              	.LVL137:
 1808              	.L133:
 1809              		.loc 1 358 5 is_stmt 1 view .LVU448
 1810              		.loc 1 358 9 is_stmt 0 view .LVU449
 1811 003a A368     		ldr	r3, [r4, #8]
 1812 003c 0133     		adds	r3, r3, #1
 1813              		.loc 1 358 8 view .LVU450
 1814 003e 002B     		cmp	r3, #0
 1815 0040 A360     		str	r3, [r4, #8]
 1816 0042 F8DC     		bgt	.L132
 1817              		.loc 1 359 7 is_stmt 1 view .LVU451
 1818              	.LVL138:
 1819              	.LBB295:
 1820              	.LBI295:
 1821              		.loc 2 671 25 view .LVU452
 1822              	.LBB296:
 1823              		.loc 2 672 3 view .LVU453
 1824              		.loc 2 672 13 is_stmt 0 view .LVU454
ARM GAS  /tmp/ccy3friM.s 			page 33


 1825 0044 2068     		ldr	r0, [r4]
 1826              	.LVL139:
 1827              		.loc 2 674 3 is_stmt 1 view .LVU455
 1828              		.loc 2 674 19 is_stmt 0 view .LVU456
 1829 0046 0368     		ldr	r3, [r0]
 1830              		.loc 2 674 15 view .LVU457
 1831 0048 2360     		str	r3, [r4]
 1832              		.loc 2 675 3 is_stmt 1 view .LVU458
 1833              		.loc 2 675 23 is_stmt 0 view .LVU459
 1834 004a 5C60     		str	r4, [r3, #4]
 1835              		.loc 2 677 3 is_stmt 1 view .LVU460
 1836              	.LVL140:
 1837              		.loc 2 677 3 is_stmt 0 view .LVU461
 1838              	.LBE296:
 1839              	.LBE295:
 1840              		.loc 1 359 7 view .LVU462
 1841 004c FFF7FEFF 		bl	chSchReadyI
 1842              	.LVL141:
 1843              		.loc 1 357 9 view .LVU463
 1844 0050 013D     		subs	r5, r5, #1
 1845              	.LVL142:
 1846              		.loc 1 359 64 view .LVU464
 1847 0052 8662     		str	r6, [r0, #40]
 1848              		.loc 1 361 5 is_stmt 1 view .LVU465
 1849              	.LVL143:
 1850              		.loc 1 357 9 view .LVU466
 1851 0054 F1D1     		bne	.L133
 1852              	.L125:
 1853              		.loc 1 363 1 is_stmt 0 view .LVU467
 1854 0056 0B4B     		ldr	r3, .L142
 1855 0058 1A68     		ldr	r2, [r3]
 1856 005a 019B     		ldr	r3, [sp, #4]
 1857 005c 5A40     		eors	r2, r3, r2
 1858 005e 0ED1     		bne	.L140
 1859 0060 02B0     		add	sp, sp, #8
 1860              		.cfi_remember_state
 1861              		.cfi_def_cfa_offset 16
 1862              		@ sp needed
 1863 0062 70BD     		pop	{r4, r5, r6, pc}
 1864              	.LVL144:
 1865              	.L126:
 1866              		.cfi_restore_state
 1867              		.loc 1 352 3 is_stmt 1 discriminator 5 view .LVU468
 1868 0064 0848     		ldr	r0, .L142+4
 1869 0066 FFF7FEFF 		bl	chSysHalt
 1870              	.LVL145:
 1871              		.loc 1 352 3 discriminator 5 view .LVU469
 1872              		.loc 1 353 3 discriminator 5 view .LVU470
 1873              		.loc 1 353 3 discriminator 5 view .LVU471
 1874              		.loc 1 353 3 discriminator 5 view .LVU472
 1875 006a A368     		ldr	r3, [r4, #8]
 1876 006c 002B     		cmp	r3, #0
 1877 006e 2368     		ldr	r3, [r4]
 1878 0070 D8DA     		bge	.L141
 1879              	.L128:
 1880              	.LVL146:
 1881              	.LBB297:
ARM GAS  /tmp/ccy3friM.s 			page 34


 1882              	.LBI297:
 1883              		.loc 2 629 20 discriminator 8 view .LVU473
 1884              	.LBB298:
 1885              		.loc 2 631 3 discriminator 8 view .LVU474
 1886              		.loc 2 631 3 is_stmt 0 discriminator 8 view .LVU475
 1887              	.LBE298:
 1888              	.LBE297:
 1889              		.loc 1 353 3 discriminator 8 view .LVU476
 1890 0072 9C42     		cmp	r4, r3
 1891 0074 DBD1     		bne	.L130
 1892              		.loc 1 353 3 is_stmt 1 view .LVU477
 1893 0076 0448     		ldr	r0, .L142+4
 1894 0078 FFF7FEFF 		bl	chSysHalt
 1895              	.LVL147:
 1896 007c D7E7     		b	.L130
 1897              	.LVL148:
 1898              	.L140:
 1899              		.loc 1 363 1 is_stmt 0 view .LVU478
 1900 007e FFF7FEFF 		bl	__stack_chk_fail
 1901              	.LVL149:
 1902              	.L143:
 1903 0082 00BF     		.align	2
 1904              	.L142:
 1905 0084 00000000 		.word	.LC9
 1906 0088 00000000 		.word	.LANCHOR7
 1907              		.cfi_endproc
 1908              	.LFE228:
 1909              		.size	chSemAddCounterI, .-chSemAddCounterI
 1910              		.section	.rodata.chSemSignalWait.cst4,"aM",%progbits,4
 1911              		.align	2
 1912              	.LC10:
 1913 0000 00000000 		.word	__stack_chk_guard
 1914              		.section	.text.chSemSignalWait,"ax",%progbits
 1915              		.align	1
 1916              		.p2align 4,,15
 1917              		.global	chSemSignalWait
 1918              		.syntax unified
 1919              		.thumb
 1920              		.thumb_func
 1921              		.fpu fpv4-sp-d16
 1922              		.type	chSemSignalWait, %function
 1923              	chSemSignalWait:
 1924              	.LVL150:
 1925              	.LFB229:
 1926              		.loc 1 378 59 is_stmt 1 view -0
 1927              		.cfi_startproc
 1928              		@ args = 0, pretend = 0, frame = 8
 1929              		@ frame_needed = 0, uses_anonymous_args = 0
 1930              		.loc 1 378 59 is_stmt 0 view .LVU480
 1931 0000 70B5     		push	{r4, r5, r6, lr}
 1932              		.cfi_def_cfa_offset 16
 1933              		.cfi_offset 4, -16
 1934              		.cfi_offset 5, -12
 1935              		.cfi_offset 6, -8
 1936              		.cfi_offset 14, -4
 1937 0002 394B     		ldr	r3, .L168
 1938 0004 82B0     		sub	sp, sp, #8
ARM GAS  /tmp/ccy3friM.s 			page 35


 1939              		.cfi_def_cfa_offset 24
 1940              		.loc 1 378 59 view .LVU481
 1941 0006 0C46     		mov	r4, r1
 1942 0008 1B68     		ldr	r3, [r3]
 1943 000a 0193     		str	r3, [sp, #4]
 1944 000c 4FF00003 		mov	r3,#0
 1945              		.loc 1 379 3 is_stmt 1 view .LVU482
 1946              		.loc 1 381 3 view .LVU483
 1947              		.loc 1 381 3 view .LVU484
 1948              		.loc 1 381 3 view .LVU485
 1949 0010 0546     		mov	r5, r0
 1950 0012 0028     		cmp	r0, #0
 1951 0014 4CD0     		beq	.L145
 1952              		.loc 1 381 3 is_stmt 0 discriminator 4 view .LVU486
 1953 0016 0029     		cmp	r1, #0
 1954 0018 4AD0     		beq	.L145
 1955              	.LVL151:
 1956              	.L146:
 1957              		.loc 1 381 3 is_stmt 1 discriminator 1 view .LVU487
 1958              		.loc 1 382 3 discriminator 1 view .LVU488
 1959              		.loc 1 382 3 discriminator 1 view .LVU489
 1960              		.loc 1 382 3 discriminator 1 view .LVU490
 1961 001a AB68     		ldr	r3, [r5, #8]
 1962 001c 002B     		cmp	r3, #0
 1963 001e 2B68     		ldr	r3, [r5]
 1964 0020 3DDB     		blt	.L147
 1965              	.LVL152:
 1966              	.LBB322:
 1967              	.LBI322:
 1968              		.loc 2 616 20 discriminator 4 view .LVU491
 1969              	.LBB323:
 1970              		.loc 2 618 3 discriminator 4 view .LVU492
 1971              		.loc 2 618 3 is_stmt 0 discriminator 4 view .LVU493
 1972              	.LBE323:
 1973              	.LBE322:
 1974              		.loc 1 382 3 discriminator 4 view .LVU494
 1975 0022 9D42     		cmp	r5, r3
 1976 0024 02D0     		beq	.L149
 1977              	.L148:
 1978              		.loc 1 382 3 is_stmt 1 discriminator 9 view .LVU495
 1979 0026 3148     		ldr	r0, .L168+4
 1980 0028 FFF7FEFF 		bl	chSysHalt
 1981              	.LVL153:
 1982              	.L149:
 1983              		.loc 1 382 3 discriminator 1 view .LVU496
 1984              		.loc 1 385 3 discriminator 1 view .LVU497
 1985              		.loc 1 385 3 discriminator 1 view .LVU498
 1986              		.loc 1 385 3 discriminator 1 view .LVU499
 1987 002c A368     		ldr	r3, [r4, #8]
 1988 002e 002B     		cmp	r3, #0
 1989 0030 2368     		ldr	r3, [r4]
 1990 0032 3ADB     		blt	.L150
 1991              	.L167:
 1992              	.LVL154:
 1993              	.LBB324:
 1994              	.LBI324:
 1995              		.loc 2 616 20 discriminator 4 view .LVU500
ARM GAS  /tmp/ccy3friM.s 			page 36


 1996              	.LBB325:
 1997              		.loc 2 618 3 discriminator 4 view .LVU501
 1998              		.loc 2 618 3 is_stmt 0 discriminator 4 view .LVU502
 1999              	.LBE325:
 2000              	.LBE324:
 2001              		.loc 1 385 3 discriminator 4 view .LVU503
 2002 0034 9C42     		cmp	r4, r3
 2003 0036 02D0     		beq	.L152
 2004              	.L151:
 2005              		.loc 1 385 3 is_stmt 1 discriminator 9 view .LVU504
 2006 0038 2C48     		ldr	r0, .L168+4
 2007 003a FFF7FEFF 		bl	chSysHalt
 2008              	.LVL155:
 2009              	.L152:
 2010              		.loc 1 385 3 discriminator 11 view .LVU505
 2011              		.loc 1 389 3 discriminator 11 view .LVU506
 2012              	.LBB326:
 2013              	.LBI326:
 2014              		.loc 3 346 20 discriminator 11 view .LVU507
 2015              	.LBB327:
 2016              		.loc 3 348 3 discriminator 11 view .LVU508
 2017              	.LBB328:
 2018              	.LBI328:
 2019              		.loc 4 444 20 discriminator 11 view .LVU509
 2020              	.LBE328:
 2021              	.LBE327:
 2022              	.LBE326:
 2023              		.loc 4 447 3 discriminator 11 view .LVU510
 2024              	.LBB333:
 2025              	.LBB332:
 2026              	.LBB331:
 2027              	.LBB329:
 2028              	.LBI329:
 2029              		.loc 5 544 57 discriminator 11 view .LVU511
 2030              	.LBB330:
 2031              		.loc 5 546 3 discriminator 11 view .LVU512
 2032 003e 2023     		movs	r3, #32
 2033              		.syntax unified
 2034              	@ 546 ".//ChibiOS//os/ext/CMSIS/include/core_cmFunc.h" 1
 2035 0040 83F31188 		MSR basepri, r3
 2036              	@ 0 "" 2
 2037              	.LVL156:
 2038              		.loc 5 546 3 is_stmt 0 discriminator 11 view .LVU513
 2039              		.thumb
 2040              		.syntax unified
 2041              	.LBE330:
 2042              	.LBE329:
 2043              	.LBE331:
 2044              		.loc 3 349 3 is_stmt 1 discriminator 11 view .LVU514
 2045 0044 FFF7FEFF 		bl	_stats_start_measure_crit_thd
 2046              	.LVL157:
 2047              		.loc 3 350 3 discriminator 11 view .LVU515
 2048 0048 FFF7FEFF 		bl	_dbg_check_lock
 2049              	.LVL158:
 2050              	.LBE332:
 2051              	.LBE333:
 2052              		.loc 1 390 3 discriminator 11 view .LVU516
ARM GAS  /tmp/ccy3friM.s 			page 37


 2053              		.loc 1 390 7 is_stmt 0 discriminator 11 view .LVU517
 2054 004c AB68     		ldr	r3, [r5, #8]
 2055 004e 0133     		adds	r3, r3, #1
 2056              		.loc 1 390 6 discriminator 11 view .LVU518
 2057 0050 002B     		cmp	r3, #0
 2058 0052 AB60     		str	r3, [r5, #8]
 2059 0054 3DDD     		ble	.L163
 2060              	.L153:
 2061              		.loc 1 393 3 is_stmt 1 view .LVU519
 2062              		.loc 1 393 7 is_stmt 0 view .LVU520
 2063 0056 A368     		ldr	r3, [r4, #8]
 2064 0058 013B     		subs	r3, r3, #1
 2065              		.loc 1 393 6 view .LVU521
 2066 005a 002B     		cmp	r3, #0
 2067 005c A360     		str	r3, [r4, #8]
 2068 005e 2BDB     		blt	.L164
 2069              		.loc 1 401 5 is_stmt 1 view .LVU522
 2070 0060 FFF7FEFF 		bl	chSchRescheduleS
 2071              	.LVL159:
 2072              		.loc 1 402 5 view .LVU523
 2073              		.loc 1 402 5 is_stmt 0 view .LVU524
 2074 0064 224D     		ldr	r5, .L168+8
 2075              	.LVL160:
 2076              		.loc 1 402 9 view .LVU525
 2077 0066 0024     		movs	r4, #0
 2078              	.LVL161:
 2079              	.L155:
 2080              		.loc 1 404 3 is_stmt 1 view .LVU526
 2081              	.LBB334:
 2082              	.LBI334:
 2083              		.loc 3 358 20 view .LVU527
 2084              	.LBB335:
 2085              		.loc 3 360 3 view .LVU528
 2086 0068 FFF7FEFF 		bl	_dbg_check_unlock
 2087              	.LVL162:
 2088              		.loc 3 361 3 view .LVU529
 2089 006c FFF7FEFF 		bl	_stats_stop_measure_crit_thd
 2090              	.LVL163:
 2091              		.loc 3 367 3 view .LVU530
 2092              		.loc 3 367 3 view .LVU531
 2093              		.loc 3 367 3 view .LVU532
 2094 0070 2B68     		ldr	r3, [r5]
 2095 0072 AB42     		cmp	r3, r5
 2096 0074 04D0     		beq	.L156
 2097 0076 AA69     		ldr	r2, [r5, #24]
 2098 0078 9B68     		ldr	r3, [r3, #8]
 2099 007a 9268     		ldr	r2, [r2, #8]
 2100 007c 9A42     		cmp	r2, r3
 2101 007e 0AD3     		bcc	.L165
 2102              	.L156:
 2103              		.loc 3 367 3 view .LVU533
 2104              		.loc 3 371 3 view .LVU534
 2105              	.LBB336:
 2106              	.LBI336:
 2107              		.loc 4 458 20 view .LVU535
 2108              	.LBE336:
 2109              	.LBE335:
ARM GAS  /tmp/ccy3friM.s 			page 38


 2110              	.LBE334:
 2111              		.loc 4 461 3 view .LVU536
 2112              	.LVL164:
 2113              	.LBB342:
 2114              	.LBB340:
 2115              	.LBB339:
 2116              	.LBB337:
 2117              	.LBI337:
 2118              		.loc 5 544 57 view .LVU537
 2119              	.LBB338:
 2120              		.loc 5 546 3 view .LVU538
 2121 0080 0023     		movs	r3, #0
 2122              		.syntax unified
 2123              	@ 546 ".//ChibiOS//os/ext/CMSIS/include/core_cmFunc.h" 1
 2124 0082 83F31188 		MSR basepri, r3
 2125              	@ 0 "" 2
 2126              	.LVL165:
 2127              		.loc 5 546 3 is_stmt 0 view .LVU539
 2128              		.thumb
 2129              		.syntax unified
 2130              	.LBE338:
 2131              	.LBE337:
 2132              	.LBE339:
 2133              	.LBE340:
 2134              	.LBE342:
 2135              		.loc 1 406 3 is_stmt 1 view .LVU540
 2136              		.loc 1 407 1 is_stmt 0 view .LVU541
 2137 0086 184B     		ldr	r3, .L168
 2138 0088 1A68     		ldr	r2, [r3]
 2139 008a 019B     		ldr	r3, [sp, #4]
 2140 008c 5A40     		eors	r2, r3, r2
 2141 008e 29D1     		bne	.L166
 2142 0090 2046     		mov	r0, r4
 2143 0092 02B0     		add	sp, sp, #8
 2144              		.cfi_remember_state
 2145              		.cfi_def_cfa_offset 16
 2146              		@ sp needed
 2147 0094 70BD     		pop	{r4, r5, r6, pc}
 2148              	.LVL166:
 2149              	.L165:
 2150              		.cfi_restore_state
 2151              	.LBB343:
 2152              	.LBB341:
 2153              		.loc 3 367 3 is_stmt 1 view .LVU542
 2154 0096 1748     		ldr	r0, .L168+12
 2155 0098 FFF7FEFF 		bl	chSysHalt
 2156              	.LVL167:
 2157 009c F0E7     		b	.L156
 2158              	.LVL168:
 2159              	.L147:
 2160              		.loc 3 367 3 is_stmt 0 view .LVU543
 2161              	.LBE341:
 2162              	.LBE343:
 2163              	.LBB344:
 2164              	.LBI344:
 2165              		.loc 2 629 20 is_stmt 1 discriminator 8 view .LVU544
 2166              	.LBB345:
ARM GAS  /tmp/ccy3friM.s 			page 39


 2167              		.loc 2 631 3 discriminator 8 view .LVU545
 2168              		.loc 2 631 3 is_stmt 0 discriminator 8 view .LVU546
 2169              	.LBE345:
 2170              	.LBE344:
 2171              		.loc 1 382 3 discriminator 8 view .LVU547
 2172 009e 9D42     		cmp	r5, r3
 2173 00a0 C1D0     		beq	.L148
 2174              		.loc 1 382 3 is_stmt 1 view .LVU548
 2175              		.loc 1 385 3 view .LVU549
 2176              		.loc 1 385 3 view .LVU550
 2177              		.loc 1 385 3 view .LVU551
 2178 00a2 A368     		ldr	r3, [r4, #8]
 2179 00a4 002B     		cmp	r3, #0
 2180 00a6 2368     		ldr	r3, [r4]
 2181 00a8 C4DA     		bge	.L167
 2182              	.L150:
 2183              	.LVL169:
 2184              	.LBB346:
 2185              	.LBI346:
 2186              		.loc 2 629 20 discriminator 8 view .LVU552
 2187              	.LBB347:
 2188              		.loc 2 631 3 discriminator 8 view .LVU553
 2189              		.loc 2 631 3 is_stmt 0 discriminator 8 view .LVU554
 2190              	.LBE347:
 2191              	.LBE346:
 2192              		.loc 1 385 3 discriminator 8 view .LVU555
 2193 00aa 9C42     		cmp	r4, r3
 2194 00ac C7D1     		bne	.L152
 2195 00ae C3E7     		b	.L151
 2196              	.LVL170:
 2197              	.L145:
 2198              		.loc 1 381 3 is_stmt 1 discriminator 5 view .LVU556
 2199 00b0 0E48     		ldr	r0, .L168+4
 2200              	.LVL171:
 2201              		.loc 1 381 3 is_stmt 0 discriminator 5 view .LVU557
 2202 00b2 FFF7FEFF 		bl	chSysHalt
 2203              	.LVL172:
 2204              		.loc 1 381 3 discriminator 5 view .LVU558
 2205 00b6 B0E7     		b	.L146
 2206              	.L164:
 2207              	.LBB348:
 2208              		.loc 1 394 5 is_stmt 1 view .LVU559
 2209              		.loc 1 394 15 is_stmt 0 view .LVU560
 2210 00b8 0D4D     		ldr	r5, .L168+8
 2211              	.LVL173:
 2212              		.loc 1 394 15 view .LVU561
 2213 00ba AE69     		ldr	r6, [r5, #24]
 2214              	.LVL174:
 2215              		.loc 1 395 5 is_stmt 1 view .LVU562
 2216              	.LBB349:
 2217              	.LBI349:
 2218              		.loc 2 663 20 view .LVU563
 2219              	.LBB350:
 2220              		.loc 2 665 3 view .LVU564
 2221              		.loc 2 665 14 is_stmt 0 view .LVU565
 2222 00bc 3460     		str	r4, [r6]
 2223              		.loc 2 666 3 is_stmt 1 view .LVU566
ARM GAS  /tmp/ccy3friM.s 			page 40


 2224              		.loc 2 666 19 is_stmt 0 view .LVU567
 2225 00be 6368     		ldr	r3, [r4, #4]
 2226              		.loc 2 666 14 view .LVU568
 2227 00c0 7360     		str	r3, [r6, #4]
 2228              		.loc 2 667 3 is_stmt 1 view .LVU569
 2229              	.LBE350:
 2230              	.LBE349:
 2231              		.loc 1 397 5 is_stmt 0 view .LVU570
 2232 00c2 0520     		movs	r0, #5
 2233              	.LBB352:
 2234              	.LBB351:
 2235              		.loc 2 667 22 view .LVU571
 2236 00c4 1E60     		str	r6, [r3]
 2237              		.loc 2 668 3 is_stmt 1 view .LVU572
 2238              		.loc 2 668 15 is_stmt 0 view .LVU573
 2239 00c6 6660     		str	r6, [r4, #4]
 2240              	.LVL175:
 2241              		.loc 2 668 15 view .LVU574
 2242              	.LBE351:
 2243              	.LBE352:
 2244              		.loc 1 396 5 is_stmt 1 view .LVU575
 2245              		.loc 1 396 21 is_stmt 0 view .LVU576
 2246 00c8 B462     		str	r4, [r6, #40]
 2247              		.loc 1 397 5 is_stmt 1 view .LVU577
 2248 00ca FFF7FEFF 		bl	chSchGoSleepS
 2249              	.LVL176:
 2250              		.loc 1 398 5 view .LVU578
 2251              		.loc 1 398 9 is_stmt 0 view .LVU579
 2252 00ce B46A     		ldr	r4, [r6, #40]
 2253              	.LVL177:
 2254              		.loc 1 398 9 view .LVU580
 2255              	.LBE348:
 2256 00d0 CAE7     		b	.L155
 2257              	.LVL178:
 2258              	.L163:
 2259              		.loc 1 391 5 is_stmt 1 view .LVU581
 2260              	.LBB353:
 2261              	.LBI353:
 2262              		.loc 2 671 25 view .LVU582
 2263              	.LBB354:
 2264              		.loc 2 672 3 view .LVU583
 2265              		.loc 2 672 13 is_stmt 0 view .LVU584
 2266 00d2 2868     		ldr	r0, [r5]
 2267              	.LVL179:
 2268              		.loc 2 674 3 is_stmt 1 view .LVU585
 2269              		.loc 2 674 19 is_stmt 0 view .LVU586
 2270 00d4 0368     		ldr	r3, [r0]
 2271              		.loc 2 674 15 view .LVU587
 2272 00d6 2B60     		str	r3, [r5]
 2273              		.loc 2 675 3 is_stmt 1 view .LVU588
 2274              		.loc 2 675 23 is_stmt 0 view .LVU589
 2275 00d8 5D60     		str	r5, [r3, #4]
 2276              		.loc 2 677 3 is_stmt 1 view .LVU590
 2277              	.LVL180:
 2278              		.loc 2 677 3 is_stmt 0 view .LVU591
 2279              	.LBE354:
 2280              	.LBE353:
ARM GAS  /tmp/ccy3friM.s 			page 41


 2281              		.loc 1 391 5 view .LVU592
 2282 00da FFF7FEFF 		bl	chSchReadyI
 2283              	.LVL181:
 2284              		.loc 1 391 63 view .LVU593
 2285 00de 0023     		movs	r3, #0
 2286 00e0 8362     		str	r3, [r0, #40]
 2287 00e2 B8E7     		b	.L153
 2288              	.LVL182:
 2289              	.L166:
 2290              		.loc 1 407 1 view .LVU594
 2291 00e4 FFF7FEFF 		bl	__stack_chk_fail
 2292              	.LVL183:
 2293              	.L169:
 2294              		.align	2
 2295              	.L168:
 2296 00e8 00000000 		.word	.LC10
 2297 00ec 00000000 		.word	.LANCHOR8
 2298 00f0 00000000 		.word	ch
 2299 00f4 00000000 		.word	.LANCHOR2
 2300              		.cfi_endproc
 2301              	.LFE229:
 2302              		.size	chSemSignalWait, .-chSemSignalWait
 2303              		.section	.rodata.__func__.7261,"a"
 2304              		.align	2
 2305              		.set	.LANCHOR2,. + 0
 2306              		.type	__func__.7261, %object
 2307              		.size	__func__.7261, 12
 2308              	__func__.7261:
 2309 0000 63685379 		.ascii	"chSysUnlock\000"
 2309      73556E6C 
 2309      6F636B00 
 2310              		.section	.rodata.__func__.7958,"a"
 2311              		.align	2
 2312              		.set	.LANCHOR0,. + 0
 2313              		.type	__func__.7958, %object
 2314              		.size	__func__.7958, 16
 2315              	__func__.7958:
 2316 0000 63685365 		.ascii	"chSemObjectInit\000"
 2316      6D4F626A 
 2316      65637449 
 2316      6E697400 
 2317              		.section	.rodata.__func__.7968,"a"
 2318              		.align	2
 2319              		.set	.LANCHOR1,. + 0
 2320              		.type	__func__.7968, %object
 2321              		.size	__func__.7968, 12
 2322              	__func__.7968:
 2323 0000 63685365 		.ascii	"chSemResetI\000"
 2323      6D526573 
 2323      65744900 
 2324              		.section	.rodata.__func__.7979,"a"
 2325              		.align	2
 2326              		.set	.LANCHOR3,. + 0
 2327              		.type	__func__.7979, %object
 2328              		.size	__func__.7979, 11
 2329              	__func__.7979:
 2330 0000 63685365 		.ascii	"chSemWaitS\000"
ARM GAS  /tmp/ccy3friM.s 			page 42


 2330      6D576169 
 2330      745300
 2331              		.section	.rodata.__func__.7989,"a"
 2332              		.align	2
 2333              		.set	.LANCHOR4,. + 0
 2334              		.type	__func__.7989, %object
 2335              		.size	__func__.7989, 18
 2336              	__func__.7989:
 2337 0000 63685365 		.ascii	"chSemWaitTimeoutS\000"
 2337      6D576169 
 2337      7454696D 
 2337      656F7574 
 2337      5300
 2338              		.section	.rodata.__func__.7993,"a"
 2339              		.align	2
 2340              		.set	.LANCHOR5,. + 0
 2341              		.type	__func__.7993, %object
 2342              		.size	__func__.7993, 12
 2343              	__func__.7993:
 2344 0000 63685365 		.ascii	"chSemSignal\000"
 2344      6D536967 
 2344      6E616C00 
 2345              		.section	.rodata.__func__.7997,"a"
 2346              		.align	2
 2347              		.set	.LANCHOR6,. + 0
 2348              		.type	__func__.7997, %object
 2349              		.size	__func__.7997, 13
 2350              	__func__.7997:
 2351 0000 63685365 		.ascii	"chSemSignalI\000"
 2351      6D536967 
 2351      6E616C49 
 2351      00
 2352              		.section	.rodata.__func__.8003,"a"
 2353              		.align	2
 2354              		.set	.LANCHOR7,. + 0
 2355              		.type	__func__.8003, %object
 2356              		.size	__func__.8003, 17
 2357              	__func__.8003:
 2358 0000 63685365 		.ascii	"chSemAddCounterI\000"
 2358      6D416464 
 2358      436F756E 
 2358      74657249 
 2358      00
 2359              		.section	.rodata.__func__.8012,"a"
 2360              		.align	2
 2361              		.set	.LANCHOR8,. + 0
 2362              		.type	__func__.8012, %object
 2363              		.size	__func__.8012, 16
 2364              	__func__.8012:
 2365 0000 63685365 		.ascii	"chSemSignalWait\000"
 2365      6D536967 
 2365      6E616C57 
 2365      61697400 
 2366              		.text
 2367              	.Letext0:
 2368              		.file 6 "/usr/lib/gcc/arm-none-eabi/9.2.1/include/stdint.h"
 2369              		.file 7 ".//ChibiOS//os/rt/ports/ARMCMx/compilers/GCC/chtypes.h"
ARM GAS  /tmp/ccy3friM.s 			page 43


 2370              		.file 8 ".//ChibiOS//os/rt/include/chsystypes.h"
 2371              		.file 9 ".//ChibiOS//os/ext/CMSIS/include/core_cm4.h"
 2372              		.file 10 ".//ChibiOS//os/ext/CMSIS/ST/system_stm32f4xx.h"
 2373              		.file 11 ".//ChibiOS//os/rt/ports/ARMCMx/chcore.h"
 2374              		.file 12 ".//ChibiOS//os/rt/include/chdebug.h"
 2375              		.file 13 ".//ChibiOS//os/rt/include/chtm.h"
 2376              		.file 14 ".//ChibiOS//os/rt/include/chstats.h"
 2377              		.file 15 ".//ChibiOS//os/rt/include/chsem.h"
 2378              		.file 16 ".//ChibiOS//os/rt/include/chmtx.h"
 2379              		.file 17 ".//ChibiOS//os/rt/include/chregistry.h"