ARM GAS  /tmp/ccAFQxgi.s 			page 1


   1              		.cpu cortex-m4
   2              		.eabi_attribute 27, 1
   3              		.eabi_attribute 28, 1
   4              		.eabi_attribute 20, 1
   5              		.eabi_attribute 21, 1
   6              		.eabi_attribute 23, 3
   7              		.eabi_attribute 24, 1
   8              		.eabi_attribute 25, 1
   9              		.eabi_attribute 26, 1
  10              		.eabi_attribute 30, 2
  11              		.eabi_attribute 34, 1
  12              		.eabi_attribute 18, 4
  13              		.file	"chsys.c"
  14              		.text
  15              	.Ltext0:
  16              		.cfi_sections	.debug_frame
  17              		.section	.rodata._idle_thread.cst4,"aM",%progbits,4
  18              		.align	2
  19              	.LC0:
  20 0000 00000000 		.word	__stack_chk_guard
  21              		.section	.text._idle_thread,"ax",%progbits
  22              		.align	1
  23              		.p2align 4,,15
  24              		.arch armv7e-m
  25              		.syntax unified
  26              		.thumb
  27              		.thumb_func
  28              		.fpu fpv4-sp-d16
  29              		.type	_idle_thread, %function
  30              	_idle_thread:
  31              	.LVL0:
  32              	.LFB219:
  33              		.file 1 ".//ChibiOS//os/rt/src/chsys.c"
  34              		.loc 1 65 35 view -0
  35              		.cfi_startproc
  36              		@ Volatile: function does not return.
  37              		@ args = 0, pretend = 0, frame = 8
  38              		@ frame_needed = 0, uses_anonymous_args = 0
  39              		@ link register save eliminated.
  40              		.loc 1 65 35 is_stmt 0 view .LVU1
  41 0000 034B     		ldr	r3, .L6
  42 0002 82B0     		sub	sp, sp, #8
  43              		.cfi_def_cfa_offset 8
  44              		.loc 1 65 35 view .LVU2
  45 0004 1B68     		ldr	r3, [r3]
  46 0006 0193     		str	r3, [sp, #4]
  47 0008 4FF00003 		mov	r3,#0
  48              	.L2:
  49              		.loc 1 67 3 is_stmt 1 discriminator 1 view .LVU3
  50              		.loc 1 69 3 discriminator 1 view .LVU4
  51              		.loc 1 72 5 discriminator 1 view .LVU5
  52              		.file 2 ".//ChibiOS//os/rt/ports/ARMCMx/chcore_v7m.h"
  53              		.loc 2 539 1 discriminator 1 view .LVU6
  54              		.loc 1 67 3 discriminator 1 view .LVU7
  55              		.loc 1 69 3 discriminator 1 view .LVU8
  56              		.loc 1 72 5 discriminator 1 view .LVU9
  57              		.loc 2 539 1 discriminator 1 view .LVU10
ARM GAS  /tmp/ccAFQxgi.s 			page 2


  58 000c FEE7     		b	.L2
  59              	.L7:
  60 000e 00BF     		.align	2
  61              	.L6:
  62 0010 00000000 		.word	.LC0
  63              		.cfi_endproc
  64              	.LFE219:
  65              		.size	_idle_thread, .-_idle_thread
  66              		.section	.rodata.chSysInit.str1.4,"aMS",%progbits,1
  67              		.align	2
  68              	.LC1:
  69 0000 69646C65 		.ascii	"idle\000"
  69      00
  70              		.section	.rodata.chSysInit.cst4,"aM",%progbits,4
  71              		.align	2
  72              	.LC2:
  73 0000 00000000 		.word	__stack_chk_guard
  74              		.section	.text.chSysInit,"ax",%progbits
  75              		.align	1
  76              		.p2align 4,,15
  77              		.global	chSysInit
  78              		.syntax unified
  79              		.thumb
  80              		.thumb_func
  81              		.fpu fpv4-sp-d16
  82              		.type	chSysInit, %function
  83              	chSysInit:
  84              	.LFB220:
  85              		.loc 1 93 22 view -0
  86              		.cfi_startproc
  87              		@ args = 0, pretend = 0, frame = 8
  88              		@ frame_needed = 0, uses_anonymous_args = 0
  89 0000 70B5     		push	{r4, r5, r6, lr}
  90              		.cfi_def_cfa_offset 16
  91              		.cfi_offset 4, -16
  92              		.cfi_offset 5, -12
  93              		.cfi_offset 6, -8
  94              		.cfi_offset 14, -4
  95 0002 2A4A     		ldr	r2, .L12
  96              	.LBB132:
  97              	.LBB133:
  98              		.loc 2 377 13 is_stmt 0 view .LVU12
  99 0004 2A4B     		ldr	r3, .L12+4
 100              		.loc 2 383 20 view .LVU13
 101 0006 2B48     		ldr	r0, .L12+8
 102              	.LBE133:
 103              	.LBE132:
 104              		.loc 1 93 22 view .LVU14
 105 0008 84B0     		sub	sp, sp, #16
 106              		.cfi_def_cfa_offset 32
 107              		.loc 1 93 22 view .LVU15
 108 000a 1268     		ldr	r2, [r2]
 109 000c 0392     		str	r2, [sp, #12]
 110 000e 4FF00002 		mov	r2,#0
 111              		.loc 1 95 3 is_stmt 1 view .LVU16
 112              		.loc 1 98 3 view .LVU17
 113              	.LBB146:
ARM GAS  /tmp/ccAFQxgi.s 			page 3


 114              	.LBI132:
 115              		.loc 2 374 20 view .LVU18
 116              	.LBB144:
 117              		.loc 2 377 3 view .LVU19
 118              		.loc 2 377 13 is_stmt 0 view .LVU20
 119 0012 0024     		movs	r4, #0
 120 0014 9C60     		str	r4, [r3, #8]
 121              		.loc 2 380 3 is_stmt 1 view .LVU21
 122              	.LVL1:
 123              	.LBB134:
 124              	.LBI134:
 125              		.file 3 ".//ChibiOS//os/ext/CMSIS/include/core_cm4.h"
 126              		.loc 3 1435 22 view .LVU22
 127              	.LBB135:
 128              		.loc 3 1437 3 view .LVU23
 129              		.loc 3 1438 3 view .LVU24
 130              		.loc 3 1440 3 view .LVU25
 131              		.loc 3 1440 14 is_stmt 0 view .LVU26
 132 0016 D968     		ldr	r1, [r3, #12]
 133              	.LVL2:
 134              		.loc 3 1441 3 is_stmt 1 view .LVU27
 135              		.loc 3 1442 14 is_stmt 0 view .LVU28
 136 0018 274A     		ldr	r2, .L12+12
 137              		.loc 3 1441 13 view .LVU29
 138 001a 4FF6FF05 		movw	r5, #63743
 139 001e 2940     		ands	r1, r1, r5
 140              	.LVL3:
 141              		.loc 3 1442 3 is_stmt 1 view .LVU30
 142              		.loc 3 1442 14 is_stmt 0 view .LVU31
 143 0020 0A43     		orrs	r2, r2, r1
 144              	.LVL4:
 145              		.loc 3 1445 3 is_stmt 1 view .LVU32
 146              		.loc 3 1445 14 is_stmt 0 view .LVU33
 147 0022 DA60     		str	r2, [r3, #12]
 148              	.LVL5:
 149              		.loc 3 1445 14 view .LVU34
 150              	.LBE135:
 151              	.LBE134:
 152              		.loc 2 383 3 is_stmt 1 view .LVU35
 153              		.loc 2 383 20 is_stmt 0 view .LVU36
 154 0024 C268     		ldr	r2, [r0, #12]
 155              		.loc 2 384 13 view .LVU37
 156 0026 2549     		ldr	r1, .L12+16
 157              	.LBE144:
 158              	.LBE146:
 159              		.loc 1 119 3 view .LVU38
 160 0028 254D     		ldr	r5, .L12+20
 161              	.LBB147:
 162              	.LBB145:
 163              		.loc 2 383 20 view .LVU39
 164 002a 42F08072 		orr	r2, r2, #16777216
 165 002e C260     		str	r2, [r0, #12]
 166              		.loc 2 384 3 is_stmt 1 view .LVU40
 167              		.loc 2 384 13 is_stmt 0 view .LVU41
 168 0030 0A68     		ldr	r2, [r1]
 169 0032 42F00102 		orr	r2, r2, #1
 170 0036 0A60     		str	r2, [r1]
ARM GAS  /tmp/ccAFQxgi.s 			page 4


 171              		.loc 2 388 3 is_stmt 1 view .LVU42
 172              	.LVL6:
 173              	.LBB136:
 174              	.LBI136:
 175              		.loc 3 1550 22 view .LVU43
 176              	.LBB137:
 177              		.loc 3 1552 3 view .LVU44
 178              		.loc 3 1553 5 view .LVU45
 179              		.loc 3 1553 42 is_stmt 0 view .LVU46
 180 0038 1020     		movs	r0, #16
 181              	.LBE137:
 182              	.LBE136:
 183              	.LBB139:
 184              	.LBB140:
 185 003a 2022     		movs	r2, #32
 186              	.LBE140:
 187              	.LBE139:
 188              	.LBB142:
 189              	.LBB138:
 190 003c D877     		strb	r0, [r3, #31]
 191              	.LVL7:
 192              		.loc 3 1553 42 view .LVU47
 193              	.LBE138:
 194              	.LBE142:
 195              		.loc 2 390 3 is_stmt 1 view .LVU48
 196              	.LBB143:
 197              	.LBI139:
 198              		.loc 3 1550 22 view .LVU49
 199              	.LBB141:
 200              		.loc 3 1552 3 view .LVU50
 201              		.loc 3 1553 5 view .LVU51
 202              		.loc 3 1553 42 is_stmt 0 view .LVU52
 203 003e 83F82220 		strb	r2, [r3, #34]
 204              	.LVL8:
 205              		.loc 3 1553 42 view .LVU53
 206              	.LBE141:
 207              	.LBE143:
 208              	.LBE145:
 209              	.LBE147:
 210              		.loc 1 99 3 is_stmt 1 view .LVU54
 211 0042 FFF7FEFF 		bl	_scheduler_init
 212              	.LVL9:
 213              		.loc 1 100 3 view .LVU55
 214 0046 FFF7FEFF 		bl	_vt_init
 215              	.LVL10:
 216              		.loc 1 102 3 view .LVU56
 217 004a FFF7FEFF 		bl	_tm_init
 218              	.LVL11:
 219              		.loc 1 105 3 view .LVU57
 220 004e FFF7FEFF 		bl	_core_init
 221              	.LVL12:
 222              		.loc 1 108 3 view .LVU58
 223 0052 FFF7FEFF 		bl	_heap_init
 224              	.LVL13:
 225              		.loc 1 111 3 view .LVU59
 226 0056 FFF7FEFF 		bl	_stats_init
 227              	.LVL14:
ARM GAS  /tmp/ccAFQxgi.s 			page 5


 228              		.loc 1 114 3 view .LVU60
 229 005a FFF7FEFF 		bl	_dbg_trace_init
 230              	.LVL15:
 231              		.loc 1 119 3 view .LVU61
 232 005e 4021     		movs	r1, #64
 233 0060 05F58860 		add	r0, r5, #1088
 234 0064 FFF7FEFF 		bl	_thread_init
 235              	.LVL16:
 236              		.loc 1 125 18 is_stmt 0 view .LVU62
 237 0068 0126     		movs	r6, #1
 238              		.loc 1 129 21 view .LVU63
 239 006a 164B     		ldr	r3, .L12+24
 240 006c C361     		str	r3, [r0, #28]
 241              		.loc 1 125 18 view .LVU64
 242 006e 80F82060 		strb	r6, [r0, #32]
 243              		.loc 1 119 3 view .LVU65
 244 0072 A861     		str	r0, [r5, #24]
 245              		.loc 1 125 3 is_stmt 1 view .LVU66
 246              		.loc 1 129 3 view .LVU67
 247              		.loc 1 131 3 view .LVU68
 248              	.LBB148:
 249              	.LBI148:
 250              		.file 4 ".//ChibiOS//os/rt/include/chsys.h"
 251              		.loc 4 335 20 view .LVU69
 252              	.LBB149:
 253              		.loc 4 337 3 view .LVU70
 254 0074 FFF7FEFF 		bl	_dbg_check_enable
 255              	.LVL17:
 256              		.loc 4 338 3 view .LVU71
 257              	.LBB150:
 258              	.LBI150:
 259              		.loc 2 518 20 view .LVU72
 260              	.LBE150:
 261              	.LBE149:
 262              	.LBE148:
 263              		.loc 2 521 3 view .LVU73
 264              	.LBB159:
 265              	.LBB157:
 266              	.LBB155:
 267              	.LBB151:
 268              	.LBI151:
 269              		.file 5 ".//ChibiOS//os/ext/CMSIS/include/core_cmFunc.h"
 270              		.loc 5 544 57 view .LVU74
 271              	.LBB152:
 272              		.loc 5 546 3 view .LVU75
 273              		.syntax unified
 274              	@ 546 ".//ChibiOS//os/ext/CMSIS/include/core_cmFunc.h" 1
 275 0078 84F31188 		MSR basepri, r4
 276              	@ 0 "" 2
 277              	.LVL18:
 278              		.loc 5 546 3 is_stmt 0 view .LVU76
 279              		.thumb
 280              		.syntax unified
 281              	.LBE152:
 282              	.LBE151:
 283              	.LBE155:
 284              	.LBE157:
ARM GAS  /tmp/ccAFQxgi.s 			page 6


 285              	.LBE159:
 286              		.loc 2 523 3 is_stmt 1 view .LVU77
 287              	.LBB160:
 288              	.LBB158:
 289              	.LBB156:
 290              	.LBB153:
 291              	.LBI153:
 292              		.loc 5 329 57 view .LVU78
 293              	.LBB154:
 294              		.loc 5 331 3 view .LVU79
 295              		.syntax unified
 296              	@ 331 ".//ChibiOS//os/ext/CMSIS/include/core_cmFunc.h" 1
 297 007c 62B6     		cpsie i
 298              	@ 0 "" 2
 299              		.thumb
 300              		.syntax unified
 301              	.LBE154:
 302              	.LBE153:
 303              	.LBE156:
 304              	.LBE158:
 305              	.LBE160:
 306              		.loc 1 136 3 view .LVU80
 307              	.LVL19:
 308              	.LBB161:
 309              	.LBI161:
 310              		.file 6 ".//ChibiOS//os/rt/include/chregistry.h"
 311              		.loc 6 132 20 view .LVU81
 312              	.LBB162:
 313              		.loc 6 135 3 view .LVU82
 314              		.loc 6 135 11 is_stmt 0 view .LVU83
 315 007e AB69     		ldr	r3, [r5, #24]
 316              		.loc 6 135 30 view .LVU84
 317 0080 114A     		ldr	r2, .L12+28
 318 0082 9A61     		str	r2, [r3, #24]
 319              	.LVL20:
 320              		.loc 6 135 30 view .LVU85
 321              	.LBE162:
 322              	.LBE161:
 323              	.LBB163:
 324              		.loc 1 144 5 is_stmt 1 view .LVU86
 325              		.loc 1 144 21 is_stmt 0 view .LVU87
 326 0084 05F59D60 		add	r0, r5, #1256
 327 0088 104B     		ldr	r3, .L12+32
 328 008a 0094     		str	r4, [sp]
 329 008c 3246     		mov	r2, r6
 330 008e 4FF4C471 		mov	r1, #392
 331 0092 FFF7FEFF 		bl	chThdCreateStatic
 332              	.LVL21:
 333              		.loc 1 149 5 is_stmt 1 view .LVU88
 334              	.LBB164:
 335              	.LBI164:
 336              		.loc 6 172 20 view .LVU89
 337              	.LBB165:
 338              		.loc 6 175 3 view .LVU90
 339              		.loc 6 175 14 is_stmt 0 view .LVU91
 340 0096 0E4B     		ldr	r3, .L12+36
 341 0098 8361     		str	r3, [r0, #24]
ARM GAS  /tmp/ccAFQxgi.s 			page 7


 342              	.LVL22:
 343              		.loc 6 175 14 view .LVU92
 344              	.LBE165:
 345              	.LBE164:
 346              	.LBE163:
 347              		.loc 1 152 1 view .LVU93
 348 009a 044B     		ldr	r3, .L12
 349 009c 1A68     		ldr	r2, [r3]
 350 009e 039B     		ldr	r3, [sp, #12]
 351 00a0 5A40     		eors	r2, r3, r2
 352 00a2 01D1     		bne	.L11
 353 00a4 04B0     		add	sp, sp, #16
 354              		.cfi_remember_state
 355              		.cfi_def_cfa_offset 16
 356              		@ sp needed
 357 00a6 70BD     		pop	{r4, r5, r6, pc}
 358              	.L11:
 359              		.cfi_restore_state
 360 00a8 FFF7FEFF 		bl	__stack_chk_fail
 361              	.LVL23:
 362              	.L13:
 363              		.loc 1 152 1 view .LVU94
 364              		.align	2
 365              	.L12:
 366 00ac 00000000 		.word	.LC2
 367 00b0 00ED00E0 		.word	-536810240
 368 00b4 F0ED00E0 		.word	-536810000
 369 00b8 0003FA05 		.word	100270848
 370 00bc 001000E0 		.word	-536866816
 371 00c0 00000000 		.word	ch
 372 00c4 00000000 		.word	__main_thread_stack_base__
 373 00c8 00000000 		.word	ch_debug
 374 00cc 00000000 		.word	_idle_thread
 375 00d0 00000000 		.word	.LC1
 376              		.cfi_endproc
 377              	.LFE220:
 378              		.size	chSysInit, .-chSysInit
 379              		.section	.rodata.chSysHalt.cst4,"aM",%progbits,4
 380              		.align	2
 381              	.LC3:
 382 0000 00000000 		.word	__stack_chk_guard
 383              		.section	.text.chSysHalt,"ax",%progbits
 384              		.align	1
 385              		.p2align 4,,15
 386              		.global	chSysHalt
 387              		.syntax unified
 388              		.thumb
 389              		.thumb_func
 390              		.fpu fpv4-sp-d16
 391              		.type	chSysHalt, %function
 392              	chSysHalt:
 393              	.LVL24:
 394              	.LFB221:
 395              		.loc 1 166 36 is_stmt 1 view -0
 396              		.cfi_startproc
 397              		@ Volatile: function does not return.
 398              		@ args = 0, pretend = 0, frame = 8
ARM GAS  /tmp/ccAFQxgi.s 			page 8


 399              		@ frame_needed = 0, uses_anonymous_args = 0
 400              		.loc 1 166 36 is_stmt 0 view .LVU96
 401 0000 00B5     		push	{lr}
 402              		.cfi_def_cfa_offset 4
 403              		.cfi_offset 14, -4
 404 0002 064B     		ldr	r3, .L18
 405 0004 83B0     		sub	sp, sp, #12
 406              		.cfi_def_cfa_offset 16
 407              		.loc 1 166 36 view .LVU97
 408 0006 1B68     		ldr	r3, [r3]
 409 0008 0193     		str	r3, [sp, #4]
 410 000a 4FF00003 		mov	r3,#0
 411              		.loc 1 168 3 is_stmt 1 view .LVU98
 412              	.LBB166:
 413              	.LBI166:
 414              		.loc 2 494 20 view .LVU99
 415              	.LBE166:
 416              		.loc 2 496 3 view .LVU100
 417              	.LBB171:
 418              	.LBB167:
 419              	.LBI167:
 420              		.loc 5 340 57 view .LVU101
 421              	.LBB168:
 422              		.loc 5 342 3 view .LVU102
 423              	.LBE168:
 424              	.LBE167:
 425              	.LBE171:
 426              		.loc 1 166 36 is_stmt 0 view .LVU103
 427 000e 0446     		mov	r4, r0
 428              	.LBB172:
 429              	.LBB170:
 430              	.LBB169:
 431              		.loc 5 342 3 view .LVU104
 432              		.syntax unified
 433              	@ 342 ".//ChibiOS//os/ext/CMSIS/include/core_cmFunc.h" 1
 434 0010 72B6     		cpsid i
 435              	@ 0 "" 2
 436              		.thumb
 437              		.syntax unified
 438              	.LBE169:
 439              	.LBE170:
 440              	.LBE172:
 441              		.loc 1 171 3 is_stmt 1 view .LVU105
 442 0012 FFF7FEFF 		bl	panic_handler
 443              	.LVL25:
 444              		.loc 1 171 34 view .LVU106
 445              		.loc 1 175 3 view .LVU107
 446              		.loc 1 175 20 is_stmt 0 view .LVU108
 447 0016 024B     		ldr	r3, .L18+4
 448 0018 DC62     		str	r4, [r3, #44]
 449              	.L15:
 450              		.loc 1 178 3 is_stmt 1 discriminator 1 view .LVU109
 451              		.loc 1 179 3 discriminator 1 view .LVU110
 452              		.loc 1 178 9 discriminator 1 view .LVU111
 453              		.loc 1 178 3 discriminator 1 view .LVU112
 454              		.loc 1 179 3 discriminator 1 view .LVU113
 455              		.loc 1 178 9 discriminator 1 view .LVU114
ARM GAS  /tmp/ccAFQxgi.s 			page 9


 456 001a FEE7     		b	.L15
 457              	.L19:
 458              		.align	2
 459              	.L18:
 460 001c 00000000 		.word	.LC3
 461 0020 00000000 		.word	ch
 462              		.cfi_endproc
 463              	.LFE221:
 464              		.size	chSysHalt, .-chSysHalt
 465              		.section	.rodata.chSysIntegrityCheckI.cst4,"aM",%progbits,4
 466              		.align	2
 467              	.LC4:
 468 0000 00000000 		.word	__stack_chk_guard
 469              		.section	.text.chSysIntegrityCheckI,"ax",%progbits
 470              		.align	1
 471              		.p2align 4,,15
 472              		.global	chSysIntegrityCheckI
 473              		.syntax unified
 474              		.thumb
 475              		.thumb_func
 476              		.fpu fpv4-sp-d16
 477              		.type	chSysIntegrityCheckI, %function
 478              	chSysIntegrityCheckI:
 479              	.LVL26:
 480              	.LFB222:
 481              		.loc 1 206 46 view -0
 482              		.cfi_startproc
 483              		@ args = 0, pretend = 0, frame = 8
 484              		@ frame_needed = 0, uses_anonymous_args = 0
 485              		.loc 1 206 46 is_stmt 0 view .LVU116
 486 0000 10B5     		push	{r4, lr}
 487              		.cfi_def_cfa_offset 8
 488              		.cfi_offset 4, -8
 489              		.cfi_offset 14, -4
 490 0002 334B     		ldr	r3, .L63
 491 0004 82B0     		sub	sp, sp, #8
 492              		.cfi_def_cfa_offset 16
 493              		.loc 1 206 46 view .LVU117
 494 0006 0446     		mov	r4, r0
 495 0008 1B68     		ldr	r3, [r3]
 496 000a 0193     		str	r3, [sp, #4]
 497 000c 4FF00003 		mov	r3,#0
 498              		.loc 1 207 3 is_stmt 1 view .LVU118
 499              		.loc 1 209 3 view .LVU119
 500 0010 FFF7FEFF 		bl	chDbgCheckClassI
 501              	.LVL27:
 502              		.loc 1 212 3 view .LVU120
 503              		.loc 1 212 6 is_stmt 0 view .LVU121
 504 0014 E207     		lsls	r2, r4, #31
 505 0016 13D5     		bpl	.L21
 506              	.LBB173:
 507              		.loc 1 213 5 is_stmt 1 view .LVU122
 508              		.loc 1 216 5 view .LVU123
 509              	.LVL28:
 510              		.loc 1 217 5 view .LVU124
 511              		.loc 1 217 8 is_stmt 0 view .LVU125
 512 0018 2E4B     		ldr	r3, .L63+4
ARM GAS  /tmp/ccAFQxgi.s 			page 10


 513 001a 1968     		ldr	r1, [r3]
 514              	.LVL29:
 515              		.loc 1 218 5 is_stmt 1 view .LVU126
 516              		.loc 1 218 11 view .LVU127
 517 001c 9942     		cmp	r1, r3
 518 001e 48D0     		beq	.L22
 519              		.loc 1 216 7 is_stmt 0 view .LVU128
 520 0020 0022     		movs	r2, #0
 521              	.LVL30:
 522              	.L23:
 523              		.loc 1 219 7 is_stmt 1 view .LVU129
 524              		.loc 1 220 10 is_stmt 0 view .LVU130
 525 0022 0968     		ldr	r1, [r1]
 526              	.LVL31:
 527              		.loc 1 218 11 view .LVU131
 528 0024 9942     		cmp	r1, r3
 529              		.loc 1 219 8 view .LVU132
 530 0026 02F10102 		add	r2, r2, #1
 531              	.LVL32:
 532              		.loc 1 220 7 is_stmt 1 view .LVU133
 533              		.loc 1 218 11 view .LVU134
 534 002a FAD1     		bne	.L23
 535              		.loc 1 224 5 view .LVU135
 536              		.loc 1 224 8 is_stmt 0 view .LVU136
 537 002c 4868     		ldr	r0, [r1, #4]
 538              	.LVL33:
 539              		.loc 1 225 5 is_stmt 1 view .LVU137
 540              		.loc 1 225 11 view .LVU138
 541 002e 8842     		cmp	r0, r1
 542 0030 3DD0     		beq	.L44
 543              	.LVL34:
 544              	.L27:
 545              		.loc 1 226 7 view .LVU139
 546              		.loc 1 227 10 is_stmt 0 view .LVU140
 547 0032 4068     		ldr	r0, [r0, #4]
 548              	.LVL35:
 549              		.loc 1 225 11 view .LVU141
 550 0034 9842     		cmp	r0, r3
 551              		.loc 1 226 8 view .LVU142
 552 0036 02F1FF32 		add	r2, r2, #-1
 553              	.LVL36:
 554              		.loc 1 227 7 is_stmt 1 view .LVU143
 555              		.loc 1 225 11 view .LVU144
 556 003a FAD1     		bne	.L27
 557              		.loc 1 231 5 view .LVU145
 558              		.loc 1 231 8 is_stmt 0 view .LVU146
 559 003c 002A     		cmp	r2, #0
 560 003e 36D1     		bne	.L44
 561              	.LVL37:
 562              	.L21:
 563              		.loc 1 231 8 view .LVU147
 564              	.LBE173:
 565              		.loc 1 237 3 is_stmt 1 view .LVU148
 566              		.loc 1 237 6 is_stmt 0 view .LVU149
 567 0040 A307     		lsls	r3, r4, #30
 568 0042 14D5     		bpl	.L28
 569              	.LBB174:
ARM GAS  /tmp/ccAFQxgi.s 			page 11


 570              		.loc 1 238 5 is_stmt 1 view .LVU150
 571              		.loc 1 241 5 view .LVU151
 572              	.LVL38:
 573              		.loc 1 242 5 view .LVU152
 574              		.loc 1 242 9 is_stmt 0 view .LVU153
 575 0044 234B     		ldr	r3, .L63+4
 576 0046 1846     		mov	r0, r3
 577 0048 50F81C1F 		ldr	r1, [r0, #28]!
 578              	.LVL39:
 579              		.loc 1 243 5 is_stmt 1 view .LVU154
 580              		.loc 1 243 11 view .LVU155
 581 004c 8142     		cmp	r1, r0
 582 004e 36D0     		beq	.L29
 583              		.loc 1 241 7 is_stmt 0 view .LVU156
 584 0050 0022     		movs	r2, #0
 585              	.LVL40:
 586              	.L30:
 587              		.loc 1 244 7 is_stmt 1 view .LVU157
 588              		.loc 1 245 11 is_stmt 0 view .LVU158
 589 0052 0968     		ldr	r1, [r1]
 590              	.LVL41:
 591              		.loc 1 243 11 view .LVU159
 592 0054 8142     		cmp	r1, r0
 593              		.loc 1 244 8 view .LVU160
 594 0056 02F10102 		add	r2, r2, #1
 595              	.LVL42:
 596              		.loc 1 245 7 is_stmt 1 view .LVU161
 597              		.loc 1 243 11 view .LVU162
 598 005a FAD1     		bne	.L30
 599              		.loc 1 249 5 view .LVU163
 600              		.loc 1 249 9 is_stmt 0 view .LVU164
 601 005c 1B6A     		ldr	r3, [r3, #32]
 602              	.LVL43:
 603              		.loc 1 250 5 is_stmt 1 view .LVU165
 604              		.loc 1 250 11 view .LVU166
 605 005e 8B42     		cmp	r3, r1
 606 0060 25D0     		beq	.L44
 607              	.LVL44:
 608              	.L33:
 609              		.loc 1 251 7 view .LVU167
 610              		.loc 1 252 11 is_stmt 0 view .LVU168
 611 0062 5B68     		ldr	r3, [r3, #4]
 612              	.LVL45:
 613              		.loc 1 250 11 view .LVU169
 614 0064 8342     		cmp	r3, r0
 615              		.loc 1 251 8 view .LVU170
 616 0066 02F1FF32 		add	r2, r2, #-1
 617              	.LVL46:
 618              		.loc 1 252 7 is_stmt 1 view .LVU171
 619              		.loc 1 250 11 view .LVU172
 620 006a FAD1     		bne	.L33
 621              		.loc 1 256 5 view .LVU173
 622              		.loc 1 256 8 is_stmt 0 view .LVU174
 623 006c FAB9     		cbnz	r2, .L44
 624              	.LVL47:
 625              	.L28:
 626              		.loc 1 256 8 view .LVU175
ARM GAS  /tmp/ccAFQxgi.s 			page 12


 627              	.LBE174:
 628              		.loc 1 262 3 is_stmt 1 view .LVU176
 629              		.loc 1 262 6 is_stmt 0 view .LVU177
 630 006e 14F00400 		ands	r0, r4, #4
 631 0072 15D0     		beq	.L26
 632              	.LBB175:
 633              		.loc 1 263 5 is_stmt 1 view .LVU178
 634              		.loc 1 266 5 view .LVU179
 635              	.LVL48:
 636              		.loc 1 267 5 view .LVU180
 637              		.loc 1 267 8 is_stmt 0 view .LVU181
 638 0074 174B     		ldr	r3, .L63+4
 639 0076 1A69     		ldr	r2, [r3, #16]
 640              	.LVL49:
 641              		.loc 1 268 5 is_stmt 1 view .LVU182
 642              		.loc 1 268 11 view .LVU183
 643 0078 9A42     		cmp	r2, r3
 644              		.loc 1 266 7 is_stmt 0 view .LVU184
 645 007a 4FF00000 		mov	r0, #0
 646              		.loc 1 268 11 view .LVU185
 647 007e 04D0     		beq	.L34
 648              	.LVL50:
 649              	.L35:
 650              		.loc 1 269 7 is_stmt 1 view .LVU186
 651              		.loc 1 270 10 is_stmt 0 view .LVU187
 652 0080 1269     		ldr	r2, [r2, #16]
 653              	.LVL51:
 654              		.loc 1 268 11 view .LVU188
 655 0082 9A42     		cmp	r2, r3
 656              		.loc 1 269 8 view .LVU189
 657 0084 00F10100 		add	r0, r0, #1
 658              	.LVL52:
 659              		.loc 1 270 7 is_stmt 1 view .LVU190
 660              		.loc 1 268 11 view .LVU191
 661 0088 FAD1     		bne	.L35
 662              	.LVL53:
 663              	.L34:
 664              		.loc 1 274 5 view .LVU192
 665              		.loc 1 274 8 is_stmt 0 view .LVU193
 666 008a 5A69     		ldr	r2, [r3, #20]
 667              	.LVL54:
 668              		.loc 1 275 5 is_stmt 1 view .LVU194
 669              		.loc 1 275 11 view .LVU195
 670 008c 9A42     		cmp	r2, r3
 671 008e 04D0     		beq	.L36
 672              	.L37:
 673              		.loc 1 276 7 view .LVU196
 674              		.loc 1 277 10 is_stmt 0 view .LVU197
 675 0090 5269     		ldr	r2, [r2, #20]
 676              	.LVL55:
 677              		.loc 1 275 11 view .LVU198
 678 0092 9A42     		cmp	r2, r3
 679              		.loc 1 276 8 view .LVU199
 680 0094 00F1FF30 		add	r0, r0, #-1
 681              	.LVL56:
 682              		.loc 1 277 7 is_stmt 1 view .LVU200
 683              		.loc 1 275 11 view .LVU201
ARM GAS  /tmp/ccAFQxgi.s 			page 13


 684 0098 FAD1     		bne	.L37
 685              	.L36:
 686              		.loc 1 281 5 view .LVU202
 687              		.loc 1 281 8 is_stmt 0 view .LVU203
 688 009a 0038     		subs	r0, r0, #0
 689              		.loc 1 281 8 view .LVU204
 690 009c 18BF     		it	ne
 691 009e 0120     		movne	r0, #1
 692              	.LVL57:
 693              	.L26:
 694              		.loc 1 281 8 view .LVU205
 695              	.LBE175:
 696              		.loc 1 294 1 view .LVU206
 697 00a0 0B4B     		ldr	r3, .L63
 698 00a2 1A68     		ldr	r2, [r3]
 699 00a4 019B     		ldr	r3, [sp, #4]
 700 00a6 5A40     		eors	r2, r3, r2
 701 00a8 0FD1     		bne	.L62
 702 00aa 02B0     		add	sp, sp, #8
 703              		.cfi_remember_state
 704              		.cfi_def_cfa_offset 8
 705              		@ sp needed
 706 00ac 10BD     		pop	{r4, pc}
 707              	.LVL58:
 708              	.L44:
 709              		.cfi_restore_state
 710              	.LBB176:
 711              		.loc 1 232 14 view .LVU207
 712 00ae 0120     		movs	r0, #1
 713 00b0 F6E7     		b	.L26
 714              	.LVL59:
 715              	.L22:
 716              		.loc 1 224 5 is_stmt 1 view .LVU208
 717              		.loc 1 224 8 is_stmt 0 view .LVU209
 718 00b2 5868     		ldr	r0, [r3, #4]
 719              	.LVL60:
 720              		.loc 1 225 5 is_stmt 1 view .LVU210
 721              		.loc 1 225 11 view .LVU211
 722 00b4 9842     		cmp	r0, r3
 723              		.loc 1 216 7 is_stmt 0 view .LVU212
 724 00b6 18BF     		it	ne
 725 00b8 0022     		movne	r2, #0
 726              		.loc 1 225 11 view .LVU213
 727 00ba BAD1     		bne	.L27
 728 00bc C0E7     		b	.L21
 729              	.LVL61:
 730              	.L29:
 731              		.loc 1 225 11 view .LVU214
 732              	.LBE176:
 733              	.LBB177:
 734              		.loc 1 249 5 is_stmt 1 view .LVU215
 735              		.loc 1 249 9 is_stmt 0 view .LVU216
 736 00be 1B6A     		ldr	r3, [r3, #32]
 737              	.LVL62:
 738              		.loc 1 250 5 is_stmt 1 view .LVU217
 739              		.loc 1 250 11 view .LVU218
 740 00c0 8342     		cmp	r3, r0
ARM GAS  /tmp/ccAFQxgi.s 			page 14


 741              		.loc 1 241 7 is_stmt 0 view .LVU219
 742 00c2 18BF     		it	ne
 743 00c4 0022     		movne	r2, #0
 744              		.loc 1 250 11 view .LVU220
 745 00c6 CCD1     		bne	.L33
 746 00c8 D1E7     		b	.L28
 747              	.LVL63:
 748              	.L62:
 749              		.loc 1 250 11 view .LVU221
 750              	.LBE177:
 751              		.loc 1 294 1 view .LVU222
 752 00ca FFF7FEFF 		bl	__stack_chk_fail
 753              	.LVL64:
 754              	.L64:
 755 00ce 00BF     		.align	2
 756              	.L63:
 757 00d0 00000000 		.word	.LC4
 758 00d4 00000000 		.word	ch
 759              		.cfi_endproc
 760              	.LFE222:
 761              		.size	chSysIntegrityCheckI, .-chSysIntegrityCheckI
 762              		.section	.rodata.chSysTimerHandlerI.cst4,"aM",%progbits,4
 763              		.align	2
 764              	.LC5:
 765 0000 00000000 		.word	__stack_chk_guard
 766              		.section	.text.chSysTimerHandlerI,"ax",%progbits
 767              		.align	1
 768              		.p2align 4,,15
 769              		.global	chSysTimerHandlerI
 770              		.syntax unified
 771              		.thumb
 772              		.thumb_func
 773              		.fpu fpv4-sp-d16
 774              		.type	chSysTimerHandlerI, %function
 775              	chSysTimerHandlerI:
 776              	.LFB223:
 777              		.loc 1 307 31 is_stmt 1 view -0
 778              		.cfi_startproc
 779              		@ args = 0, pretend = 0, frame = 8
 780              		@ frame_needed = 0, uses_anonymous_args = 0
 781 0000 2DE9F043 		push	{r4, r5, r6, r7, r8, r9, lr}
 782              		.cfi_def_cfa_offset 28
 783              		.cfi_offset 4, -28
 784              		.cfi_offset 5, -24
 785              		.cfi_offset 6, -20
 786              		.cfi_offset 7, -16
 787              		.cfi_offset 8, -12
 788              		.cfi_offset 9, -8
 789              		.cfi_offset 14, -4
 790 0004 234B     		ldr	r3, .L77
 791              		.loc 1 313 7 is_stmt 0 view .LVU224
 792 0006 244D     		ldr	r5, .L77+4
 793              		.loc 1 307 31 view .LVU225
 794 0008 83B0     		sub	sp, sp, #12
 795              		.cfi_def_cfa_offset 40
 796              		.loc 1 307 31 view .LVU226
 797 000a 1B68     		ldr	r3, [r3]
ARM GAS  /tmp/ccAFQxgi.s 			page 15


 798 000c 0193     		str	r3, [sp, #4]
 799 000e 4FF00003 		mov	r3,#0
 800              		.loc 1 309 3 is_stmt 1 view .LVU227
 801 0012 FFF7FEFF 		bl	chDbgCheckClassI
 802              	.LVL65:
 803              		.loc 1 313 3 view .LVU228
 804              		.loc 1 313 7 is_stmt 0 view .LVU229
 805 0016 AB69     		ldr	r3, [r5, #24]
 806              		.loc 1 313 12 view .LVU230
 807 0018 93F82320 		ldrb	r2, [r3, #35]	@ zero_extendqisi2
 808              		.loc 1 313 6 view .LVU231
 809 001c 12B1     		cbz	r2, .L66
 810              		.loc 1 315 5 is_stmt 1 view .LVU232
 811              		.loc 1 315 21 is_stmt 0 view .LVU233
 812 001e 013A     		subs	r2, r2, #1
 813 0020 83F82320 		strb	r2, [r3, #35]
 814              	.L66:
 815              		.loc 1 319 3 is_stmt 1 view .LVU234
 816              		.loc 1 319 8 is_stmt 0 view .LVU235
 817 0024 5A6A     		ldr	r2, [r3, #36]
 818              	.LBB193:
 819              	.LBB194:
 820              		.file 7 ".//ChibiOS//os/rt/include/chvt.h"
 821              		.loc 7 472 6 view .LVU236
 822 0026 1D4F     		ldr	r7, .L77+8
 823              	.LBE194:
 824              	.LBE193:
 825              		.loc 1 319 16 view .LVU237
 826 0028 0132     		adds	r2, r2, #1
 827 002a 5A62     		str	r2, [r3, #36]
 828              		.loc 1 321 3 is_stmt 1 view .LVU238
 829              	.LBB237:
 830              	.LBI193:
 831              		.loc 7 466 20 view .LVU239
 832              	.LBB232:
 833              		.loc 7 468 3 view .LVU240
 834 002c FFF7FEFF 		bl	chDbgCheckClassI
 835              	.LVL66:
 836              		.loc 7 471 3 view .LVU241
 837              		.loc 7 471 12 is_stmt 0 view .LVU242
 838 0030 AB6A     		ldr	r3, [r5, #40]
 839              		.loc 7 472 55 view .LVU243
 840 0032 EA69     		ldr	r2, [r5, #28]
 841              		.loc 7 471 23 view .LVU244
 842 0034 0133     		adds	r3, r3, #1
 843              		.loc 7 472 6 view .LVU245
 844 0036 BA42     		cmp	r2, r7
 845              		.loc 7 471 23 view .LVU246
 846 0038 AB62     		str	r3, [r5, #40]
 847              		.loc 7 472 3 is_stmt 1 view .LVU247
 848              		.loc 7 472 6 is_stmt 0 view .LVU248
 849 003a 20D0     		beq	.L65
 850              		.loc 7 474 5 is_stmt 1 view .LVU249
 851 003c 9368     		ldr	r3, [r2, #8]
 852 003e 013B     		subs	r3, r3, #1
 853 0040 9360     		str	r3, [r2, #8]
 854              		.loc 7 475 5 view .LVU250
ARM GAS  /tmp/ccAFQxgi.s 			page 16


 855              		.loc 7 475 11 view .LVU251
 856              		.loc 7 475 21 is_stmt 0 view .LVU252
 857 0042 EC69     		ldr	r4, [r5, #28]
 858              		.loc 7 475 11 view .LVU253
 859 0044 A668     		ldr	r6, [r4, #8]
 860 0046 D6B9     		cbnz	r6, .L65
 861              	.LBB195:
 862              	.LBB196:
 863              	.LBB197:
 864              	.LBB198:
 865              	.LBB199:
 866              	.LBB200:
 867              	.LBB201:
 868              		.loc 5 546 3 view .LVU254
 869 0048 4FF02009 		mov	r9, #32
 870              	.L68:
 871              	.LBE201:
 872              	.LBE200:
 873              	.LBE199:
 874              	.LBE198:
 875              	.LBE197:
 876              	.LBE196:
 877              		.loc 7 476 7 is_stmt 1 view .LVU255
 878              		.loc 7 477 7 view .LVU256
 879              		.loc 7 479 7 view .LVU257
 880              	.LVL67:
 881              		.loc 7 480 7 view .LVU258
 882              		.loc 7 482 10 is_stmt 0 view .LVU259
 883 004c 2368     		ldr	r3, [r4]
 884              		.loc 7 480 10 view .LVU260
 885 004e D4F80C80 		ldr	r8, [r4, #12]
 886              	.LVL68:
 887              		.loc 7 481 7 is_stmt 1 view .LVU261
 888              		.loc 7 481 20 is_stmt 0 view .LVU262
 889 0052 E660     		str	r6, [r4, #12]
 890              		.loc 7 482 7 is_stmt 1 view .LVU263
 891              		.loc 7 482 29 is_stmt 0 view .LVU264
 892 0054 5F60     		str	r7, [r3, #4]
 893              		.loc 7 483 7 is_stmt 1 view .LVU265
 894              		.loc 7 483 30 is_stmt 0 view .LVU266
 895 0056 2368     		ldr	r3, [r4]
 896              		.loc 7 483 25 view .LVU267
 897 0058 EB61     		str	r3, [r5, #28]
 898              		.loc 7 484 7 is_stmt 1 view .LVU268
 899              	.LBB212:
 900              	.LBI212:
 901              		.loc 4 406 20 view .LVU269
 902              	.LBB213:
 903              		.loc 4 408 3 view .LVU270
 904 005a FFF7FEFF 		bl	_dbg_check_unlock_from_isr
 905              	.LVL69:
 906              		.loc 4 409 3 view .LVU271
 907 005e FFF7FEFF 		bl	_stats_stop_measure_crit_isr
 908              	.LVL70:
 909              		.loc 4 410 3 view .LVU272
 910              	.LBB214:
 911              	.LBI214:
ARM GAS  /tmp/ccAFQxgi.s 			page 17


 912              		.loc 2 484 20 view .LVU273
 913              	.LBE214:
 914              	.LBE213:
 915              	.LBE212:
 916              	.LBE195:
 917              	.LBE232:
 918              	.LBE237:
 919              		.loc 2 486 3 view .LVU274
 920              	.LBB238:
 921              	.LBB233:
 922              	.LBB228:
 923              	.LBB223:
 924              	.LBB221:
 925              	.LBB219:
 926              	.LBB215:
 927              	.LBI215:
 928              		.loc 2 458 20 view .LVU275
 929              	.LBE215:
 930              	.LBE219:
 931              	.LBE221:
 932              	.LBE223:
 933              	.LBE228:
 934              	.LBE233:
 935              	.LBE238:
 936              		.loc 2 461 3 view .LVU276
 937              	.LBB239:
 938              	.LBB234:
 939              	.LBB229:
 940              	.LBB224:
 941              	.LBB222:
 942              	.LBB220:
 943              	.LBB218:
 944              	.LBB216:
 945              	.LBI216:
 946              		.loc 5 544 57 view .LVU277
 947              	.LBB217:
 948              		.loc 5 546 3 view .LVU278
 949              		.syntax unified
 950              	@ 546 ".//ChibiOS//os/ext/CMSIS/include/core_cmFunc.h" 1
 951 0062 86F31188 		MSR basepri, r6
 952              	@ 0 "" 2
 953              	.LVL71:
 954              		.loc 5 546 3 is_stmt 0 view .LVU279
 955              		.thumb
 956              		.syntax unified
 957              	.LBE217:
 958              	.LBE216:
 959              	.LBE218:
 960              	.LBE220:
 961              	.LBE222:
 962              	.LBE224:
 963              		.loc 7 485 7 is_stmt 1 view .LVU280
 964 0066 2069     		ldr	r0, [r4, #16]
 965 0068 C047     		blx	r8
 966              	.LVL72:
 967              		.loc 7 486 7 view .LVU281
 968              	.LBB225:
ARM GAS  /tmp/ccAFQxgi.s 			page 18


 969              	.LBI196:
 970              		.loc 4 386 20 view .LVU282
 971              	.LBB209:
 972              		.loc 4 388 3 view .LVU283
 973              	.LBB206:
 974              	.LBI198:
 975              		.loc 2 473 20 view .LVU284
 976              	.LBE206:
 977              	.LBE209:
 978              	.LBE225:
 979              	.LBE229:
 980              	.LBE234:
 981              	.LBE239:
 982              		.loc 2 475 3 view .LVU285
 983              	.LBB240:
 984              	.LBB235:
 985              	.LBB230:
 986              	.LBB226:
 987              	.LBB210:
 988              	.LBB207:
 989              	.LBB204:
 990              	.LBI199:
 991              		.loc 2 444 20 view .LVU286
 992              	.LBE204:
 993              	.LBE207:
 994              	.LBE210:
 995              	.LBE226:
 996              	.LBE230:
 997              	.LBE235:
 998              	.LBE240:
 999              		.loc 2 447 3 view .LVU287
 1000              	.LBB241:
 1001              	.LBB236:
 1002              	.LBB231:
 1003              	.LBB227:
 1004              	.LBB211:
 1005              	.LBB208:
 1006              	.LBB205:
 1007              	.LBB203:
 1008              	.LBI200:
 1009              		.loc 5 544 57 view .LVU288
 1010              	.LBB202:
 1011              		.loc 5 546 3 view .LVU289
 1012              		.syntax unified
 1013              	@ 546 ".//ChibiOS//os/ext/CMSIS/include/core_cmFunc.h" 1
 1014 006a 89F31188 		MSR basepri, r9
 1015              	@ 0 "" 2
 1016              	.LVL73:
 1017              		.loc 5 546 3 is_stmt 0 view .LVU290
 1018              		.thumb
 1019              		.syntax unified
 1020              	.LBE202:
 1021              	.LBE203:
 1022              	.LBE205:
 1023              	.LBE208:
 1024              		.loc 4 389 3 is_stmt 1 view .LVU291
 1025 006e FFF7FEFF 		bl	_stats_start_measure_crit_isr
ARM GAS  /tmp/ccAFQxgi.s 			page 19


 1026              	.LVL74:
 1027              		.loc 4 390 3 view .LVU292
 1028 0072 FFF7FEFF 		bl	_dbg_check_lock_from_isr
 1029              	.LVL75:
 1030              	.LBE211:
 1031              	.LBE227:
 1032              	.LBE231:
 1033              		.loc 7 475 11 view .LVU293
 1034              		.loc 7 475 21 is_stmt 0 view .LVU294
 1035 0076 EC69     		ldr	r4, [r5, #28]
 1036              	.LVL76:
 1037              		.loc 7 475 11 view .LVU295
 1038 0078 A368     		ldr	r3, [r4, #8]
 1039 007a 002B     		cmp	r3, #0
 1040 007c E6D0     		beq	.L68
 1041              	.LVL77:
 1042              	.L65:
 1043              		.loc 7 475 11 view .LVU296
 1044              	.LBE236:
 1045              	.LBE241:
 1046              		.loc 1 325 1 view .LVU297
 1047 007e 054B     		ldr	r3, .L77
 1048 0080 1A68     		ldr	r2, [r3]
 1049 0082 019B     		ldr	r3, [sp, #4]
 1050 0084 5A40     		eors	r2, r3, r2
 1051 0086 02D1     		bne	.L76
 1052 0088 03B0     		add	sp, sp, #12
 1053              		.cfi_remember_state
 1054              		.cfi_def_cfa_offset 28
 1055              		@ sp needed
 1056 008a BDE8F083 		pop	{r4, r5, r6, r7, r8, r9, pc}
 1057              	.L76:
 1058              		.cfi_restore_state
 1059 008e FFF7FEFF 		bl	__stack_chk_fail
 1060              	.LVL78:
 1061              	.L78:
 1062 0092 00BF     		.align	2
 1063              	.L77:
 1064 0094 00000000 		.word	.LC5
 1065 0098 00000000 		.word	ch
 1066 009c 1C000000 		.word	ch+28
 1067              		.cfi_endproc
 1068              	.LFE223:
 1069              		.size	chSysTimerHandlerI, .-chSysTimerHandlerI
 1070              		.section	.rodata.chSysGetStatusAndLockX.cst4,"aM",%progbits,4
 1071              		.align	2
 1072              	.LC6:
 1073 0000 00000000 		.word	__stack_chk_guard
 1074              		.section	.text.chSysGetStatusAndLockX,"ax",%progbits
 1075              		.align	1
 1076              		.p2align 4,,15
 1077              		.global	chSysGetStatusAndLockX
 1078              		.syntax unified
 1079              		.thumb
 1080              		.thumb_func
 1081              		.fpu fpv4-sp-d16
 1082              		.type	chSysGetStatusAndLockX, %function
ARM GAS  /tmp/ccAFQxgi.s 			page 20


 1083              	chSysGetStatusAndLockX:
 1084              	.LFB224:
 1085              		.loc 1 340 39 is_stmt 1 view -0
 1086              		.cfi_startproc
 1087              		@ args = 0, pretend = 0, frame = 8
 1088              		@ frame_needed = 0, uses_anonymous_args = 0
 1089 0000 10B5     		push	{r4, lr}
 1090              		.cfi_def_cfa_offset 8
 1091              		.cfi_offset 4, -8
 1092              		.cfi_offset 14, -4
 1093 0002 134B     		ldr	r3, .L85
 1094 0004 82B0     		sub	sp, sp, #8
 1095              		.cfi_def_cfa_offset 16
 1096              		.loc 1 340 39 is_stmt 0 view .LVU299
 1097 0006 1B68     		ldr	r3, [r3]
 1098 0008 0193     		str	r3, [sp, #4]
 1099 000a 4FF00003 		mov	r3,#0
 1100              		.loc 1 342 3 is_stmt 1 view .LVU300
 1101              	.LBB242:
 1102              	.LBI242:
 1103              		.loc 2 398 24 view .LVU301
 1104              	.LBB243:
 1105              		.loc 2 399 3 view .LVU302
 1106              		.loc 2 402 3 view .LVU303
 1107              	.LBB244:
 1108              	.LBI244:
 1109              		.loc 5 529 61 view .LVU304
 1110              	.LBB245:
 1111              		.loc 5 531 3 view .LVU305
 1112              		.loc 5 533 3 view .LVU306
 1113              		.syntax unified
 1114              	@ 533 ".//ChibiOS//os/ext/CMSIS/include/core_cmFunc.h" 1
 1115 000e EFF31284 		MRS r4, basepri_max
 1116              	@ 0 "" 2
 1117              	.LVL79:
 1118              		.loc 5 534 3 view .LVU307
 1119              		.loc 5 534 3 is_stmt 0 view .LVU308
 1120              		.thumb
 1121              		.syntax unified
 1122              	.LBE245:
 1123              	.LBE244:
 1124              		.loc 2 406 3 is_stmt 1 view .LVU309
 1125              		.loc 2 406 3 is_stmt 0 view .LVU310
 1126              	.LBE243:
 1127              	.LBE242:
 1128              		.loc 1 343 3 is_stmt 1 view .LVU311
 1129              		.loc 2 421 3 view .LVU312
 1130              		.loc 1 343 6 is_stmt 0 view .LVU313
 1131 0012 5CB9     		cbnz	r4, .L79
 1132              		.loc 1 344 5 is_stmt 1 view .LVU314
 1133              	.LBB246:
 1134              	.LBI246:
 1135              		.loc 2 434 20 view .LVU315
 1136              	.LBB247:
 1137              		.loc 2 436 3 view .LVU316
 1138              	.LBB248:
 1139              	.LBI248:
ARM GAS  /tmp/ccAFQxgi.s 			page 21


 1140              		.loc 5 379 61 view .LVU317
 1141              	.LBB249:
 1142              		.loc 5 381 3 view .LVU318
 1143              		.loc 5 383 3 view .LVU319
 1144              		.syntax unified
 1145              	@ 383 ".//ChibiOS//os/ext/CMSIS/include/core_cmFunc.h" 1
 1146 0014 EFF30583 		MRS r3, ipsr
 1147              	@ 0 "" 2
 1148              	.LVL80:
 1149              		.loc 5 384 3 view .LVU320
 1150              		.loc 5 384 3 is_stmt 0 view .LVU321
 1151              		.thumb
 1152              		.syntax unified
 1153              	.LBE249:
 1154              	.LBE248:
 1155              		.loc 2 436 31 view .LVU322
 1156 0018 C3F30803 		ubfx	r3, r3, #0, #9
 1157              	.LBE247:
 1158              	.LBE246:
 1159              		.loc 1 344 8 view .LVU323
 1160 001c 73B1     		cbz	r3, .L81
 1161              		.loc 1 345 7 is_stmt 1 view .LVU324
 1162              	.LBB250:
 1163              	.LBI250:
 1164              		.loc 4 386 20 view .LVU325
 1165              	.LBB251:
 1166              		.loc 4 388 3 view .LVU326
 1167              	.LBB252:
 1168              	.LBI252:
 1169              		.loc 2 473 20 view .LVU327
 1170              	.LBE252:
 1171              	.LBE251:
 1172              	.LBE250:
 1173              		.loc 2 475 3 view .LVU328
 1174              	.LBB261:
 1175              	.LBB259:
 1176              	.LBB257:
 1177              	.LBB253:
 1178              	.LBI253:
 1179              		.loc 2 444 20 view .LVU329
 1180              	.LBE253:
 1181              	.LBE257:
 1182              	.LBE259:
 1183              	.LBE261:
 1184              		.loc 2 447 3 view .LVU330
 1185              	.LVL81:
 1186              	.LBB262:
 1187              	.LBB260:
 1188              	.LBB258:
 1189              	.LBB256:
 1190              	.LBB254:
 1191              	.LBI254:
 1192              		.loc 5 544 57 view .LVU331
 1193              	.LBB255:
 1194              		.loc 5 546 3 view .LVU332
 1195 001e 2023     		movs	r3, #32
 1196              		.syntax unified
ARM GAS  /tmp/ccAFQxgi.s 			page 22


 1197              	@ 546 ".//ChibiOS//os/ext/CMSIS/include/core_cmFunc.h" 1
 1198 0020 83F31188 		MSR basepri, r3
 1199              	@ 0 "" 2
 1200              	.LVL82:
 1201              		.loc 5 546 3 is_stmt 0 view .LVU333
 1202              		.thumb
 1203              		.syntax unified
 1204              	.LBE255:
 1205              	.LBE254:
 1206              	.LBE256:
 1207              	.LBE258:
 1208              		.loc 4 389 3 is_stmt 1 view .LVU334
 1209 0024 FFF7FEFF 		bl	_stats_start_measure_crit_isr
 1210              	.LVL83:
 1211              		.loc 4 390 3 view .LVU335
 1212 0028 FFF7FEFF 		bl	_dbg_check_lock_from_isr
 1213              	.LVL84:
 1214              	.L79:
 1215              	.LBE260:
 1216              	.LBE262:
 1217              		.loc 1 352 1 is_stmt 0 view .LVU336
 1218 002c 084B     		ldr	r3, .L85
 1219 002e 1A68     		ldr	r2, [r3]
 1220 0030 019B     		ldr	r3, [sp, #4]
 1221 0032 5A40     		eors	r2, r3, r2
 1222 0034 0AD1     		bne	.L84
 1223 0036 2046     		mov	r0, r4
 1224 0038 02B0     		add	sp, sp, #8
 1225              		.cfi_remember_state
 1226              		.cfi_def_cfa_offset 8
 1227              		@ sp needed
 1228 003a 10BD     		pop	{r4, pc}
 1229              	.LVL85:
 1230              	.L81:
 1231              		.cfi_restore_state
 1232              		.loc 1 348 7 is_stmt 1 view .LVU337
 1233              	.LBB263:
 1234              	.LBI263:
 1235              		.loc 4 346 20 view .LVU338
 1236              	.LBB264:
 1237              		.loc 4 348 3 view .LVU339
 1238              	.LBB265:
 1239              	.LBI265:
 1240              		.loc 2 444 20 view .LVU340
 1241              	.LBE265:
 1242              	.LBE264:
 1243              	.LBE263:
 1244              		.loc 2 447 3 view .LVU341
 1245              	.LBB270:
 1246              	.LBB269:
 1247              	.LBB268:
 1248              	.LBB266:
 1249              	.LBI266:
 1250              		.loc 5 544 57 view .LVU342
 1251              	.LBB267:
 1252              		.loc 5 546 3 view .LVU343
 1253 003c 2023     		movs	r3, #32
ARM GAS  /tmp/ccAFQxgi.s 			page 23


 1254              		.syntax unified
 1255              	@ 546 ".//ChibiOS//os/ext/CMSIS/include/core_cmFunc.h" 1
 1256 003e 83F31188 		MSR basepri, r3
 1257              	@ 0 "" 2
 1258              	.LVL86:
 1259              		.loc 5 546 3 is_stmt 0 view .LVU344
 1260              		.thumb
 1261              		.syntax unified
 1262              	.LBE267:
 1263              	.LBE266:
 1264              	.LBE268:
 1265              		.loc 4 349 3 is_stmt 1 view .LVU345
 1266 0042 FFF7FEFF 		bl	_stats_start_measure_crit_thd
 1267              	.LVL87:
 1268              		.loc 4 350 3 view .LVU346
 1269 0046 FFF7FEFF 		bl	_dbg_check_lock
 1270              	.LVL88:
 1271              	.LBE269:
 1272              	.LBE270:
 1273              		.loc 1 351 3 view .LVU347
 1274              		.loc 1 351 10 is_stmt 0 view .LVU348
 1275 004a EFE7     		b	.L79
 1276              	.L84:
 1277              		.loc 1 352 1 view .LVU349
 1278 004c FFF7FEFF 		bl	__stack_chk_fail
 1279              	.LVL89:
 1280              	.L86:
 1281              		.align	2
 1282              	.L85:
 1283 0050 00000000 		.word	.LC6
 1284              		.cfi_endproc
 1285              	.LFE224:
 1286              		.size	chSysGetStatusAndLockX, .-chSysGetStatusAndLockX
 1287              		.section	.rodata.chSysRestoreStatusX.cst4,"aM",%progbits,4
 1288              		.align	2
 1289              	.LC7:
 1290 0000 00000000 		.word	__stack_chk_guard
 1291              		.section	.text.chSysRestoreStatusX,"ax",%progbits
 1292              		.align	1
 1293              		.p2align 4,,15
 1294              		.global	chSysRestoreStatusX
 1295              		.syntax unified
 1296              		.thumb
 1297              		.thumb_func
 1298              		.fpu fpv4-sp-d16
 1299              		.type	chSysRestoreStatusX, %function
 1300              	chSysRestoreStatusX:
 1301              	.LVL90:
 1302              	.LFB225:
 1303              		.loc 1 363 40 is_stmt 1 view -0
 1304              		.cfi_startproc
 1305              		@ args = 0, pretend = 0, frame = 8
 1306              		@ frame_needed = 0, uses_anonymous_args = 0
 1307              		.loc 1 363 40 is_stmt 0 view .LVU351
 1308 0000 10B5     		push	{r4, lr}
 1309              		.cfi_def_cfa_offset 8
 1310              		.cfi_offset 4, -8
ARM GAS  /tmp/ccAFQxgi.s 			page 24


 1311              		.cfi_offset 14, -4
 1312 0002 194B     		ldr	r3, .L95
 1313 0004 82B0     		sub	sp, sp, #8
 1314              		.cfi_def_cfa_offset 16
 1315              		.loc 1 363 40 view .LVU352
 1316 0006 1B68     		ldr	r3, [r3]
 1317 0008 0193     		str	r3, [sp, #4]
 1318 000a 4FF00003 		mov	r3,#0
 1319              		.loc 1 365 3 is_stmt 1 view .LVU353
 1320              	.LVL91:
 1321              		.loc 2 421 3 view .LVU354
 1322              		.loc 1 365 6 is_stmt 0 view .LVU355
 1323 000e 58B9     		cbnz	r0, .L87
 1324              		.loc 1 366 5 is_stmt 1 view .LVU356
 1325              	.LBB286:
 1326              	.LBI286:
 1327              		.loc 2 434 20 view .LVU357
 1328              	.LBB287:
 1329              		.loc 2 436 3 view .LVU358
 1330              	.LBB288:
 1331              	.LBI288:
 1332              		.loc 5 379 61 view .LVU359
 1333              	.LBB289:
 1334              		.loc 5 381 3 view .LVU360
 1335              		.loc 5 383 3 view .LVU361
 1336              		.syntax unified
 1337              	@ 383 ".//ChibiOS//os/ext/CMSIS/include/core_cmFunc.h" 1
 1338 0010 EFF30583 		MRS r3, ipsr
 1339              	@ 0 "" 2
 1340              	.LVL92:
 1341              		.loc 5 384 3 view .LVU362
 1342              		.loc 5 384 3 is_stmt 0 view .LVU363
 1343              		.thumb
 1344              		.syntax unified
 1345              	.LBE289:
 1346              	.LBE288:
 1347              		.loc 2 436 31 view .LVU364
 1348 0014 C3F30803 		ubfx	r3, r3, #0, #9
 1349              	.LBE287:
 1350              	.LBE286:
 1351              		.loc 1 366 8 view .LVU365
 1352 0018 6BB1     		cbz	r3, .L89
 1353 001a 0446     		mov	r4, r0
 1354              		.loc 1 367 7 is_stmt 1 view .LVU366
 1355              	.LBB290:
 1356              	.LBI290:
 1357              		.loc 4 406 20 view .LVU367
 1358              	.LBB291:
 1359              		.loc 4 408 3 view .LVU368
 1360 001c FFF7FEFF 		bl	_dbg_check_unlock_from_isr
 1361              	.LVL93:
 1362              		.loc 4 409 3 view .LVU369
 1363 0020 FFF7FEFF 		bl	_stats_stop_measure_crit_isr
 1364              	.LVL94:
 1365              		.loc 4 410 3 view .LVU370
 1366              	.LBB292:
 1367              	.LBI292:
ARM GAS  /tmp/ccAFQxgi.s 			page 25


 1368              		.loc 2 484 20 view .LVU371
 1369              	.LBE292:
 1370              	.LBE291:
 1371              	.LBE290:
 1372              		.loc 2 486 3 view .LVU372
 1373              	.LBB301:
 1374              	.LBB299:
 1375              	.LBB297:
 1376              	.LBB293:
 1377              	.LBI293:
 1378              		.loc 2 458 20 view .LVU373
 1379              	.LBE293:
 1380              	.LBE297:
 1381              	.LBE299:
 1382              	.LBE301:
 1383              		.loc 2 461 3 view .LVU374
 1384              	.LBB302:
 1385              	.LBB300:
 1386              	.LBB298:
 1387              	.LBB296:
 1388              	.LBB294:
 1389              	.LBI294:
 1390              		.loc 5 544 57 view .LVU375
 1391              	.LBB295:
 1392              		.loc 5 546 3 view .LVU376
 1393              		.syntax unified
 1394              	@ 546 ".//ChibiOS//os/ext/CMSIS/include/core_cmFunc.h" 1
 1395 0024 84F31188 		MSR basepri, r4
 1396              	@ 0 "" 2
 1397              	.LVL95:
 1398              		.thumb
 1399              		.syntax unified
 1400              	.L87:
 1401              		.loc 5 546 3 is_stmt 0 view .LVU377
 1402              	.LBE295:
 1403              	.LBE294:
 1404              	.LBE296:
 1405              	.LBE298:
 1406              	.LBE300:
 1407              	.LBE302:
 1408              		.loc 1 374 1 view .LVU378
 1409 0028 0F4B     		ldr	r3, .L95
 1410 002a 1A68     		ldr	r2, [r3]
 1411 002c 019B     		ldr	r3, [sp, #4]
 1412 002e 5A40     		eors	r2, r3, r2
 1413 0030 17D1     		bne	.L93
 1414 0032 02B0     		add	sp, sp, #8
 1415              		.cfi_remember_state
 1416              		.cfi_def_cfa_offset 8
 1417              		@ sp needed
 1418 0034 10BD     		pop	{r4, pc}
 1419              	.LVL96:
 1420              	.L89:
 1421              		.cfi_restore_state
 1422              		.loc 1 370 7 is_stmt 1 view .LVU379
 1423 0036 FFF7FEFF 		bl	chSchRescheduleS
 1424              	.LVL97:
ARM GAS  /tmp/ccAFQxgi.s 			page 26


 1425              		.loc 1 371 7 view .LVU380
 1426              	.LBB303:
 1427              	.LBI303:
 1428              		.loc 4 358 20 view .LVU381
 1429              	.LBB304:
 1430              		.loc 4 360 3 view .LVU382
 1431 003a FFF7FEFF 		bl	_dbg_check_unlock
 1432              	.LVL98:
 1433              		.loc 4 361 3 view .LVU383
 1434 003e FFF7FEFF 		bl	_stats_stop_measure_crit_thd
 1435              	.LVL99:
 1436              		.loc 4 367 3 view .LVU384
 1437              		.loc 4 367 3 view .LVU385
 1438              		.loc 4 367 3 view .LVU386
 1439 0042 0A4B     		ldr	r3, .L95+4
 1440 0044 1A68     		ldr	r2, [r3]
 1441 0046 9A42     		cmp	r2, r3
 1442 0048 04D0     		beq	.L90
 1443 004a 9969     		ldr	r1, [r3, #24]
 1444 004c 9368     		ldr	r3, [r2, #8]
 1445 004e 8A68     		ldr	r2, [r1, #8]
 1446 0050 9A42     		cmp	r2, r3
 1447 0052 03D3     		bcc	.L94
 1448              	.L90:
 1449              		.loc 4 367 3 view .LVU387
 1450              		.loc 4 371 3 view .LVU388
 1451              	.LBB305:
 1452              	.LBI305:
 1453              		.loc 2 458 20 view .LVU389
 1454              	.LBE305:
 1455              	.LBE304:
 1456              	.LBE303:
 1457              		.loc 2 461 3 view .LVU390
 1458              	.LVL100:
 1459              	.LBB311:
 1460              	.LBB309:
 1461              	.LBB308:
 1462              	.LBB306:
 1463              	.LBI306:
 1464              		.loc 5 544 57 view .LVU391
 1465              	.LBB307:
 1466              		.loc 5 546 3 view .LVU392
 1467 0054 0023     		movs	r3, #0
 1468              		.syntax unified
 1469              	@ 546 ".//ChibiOS//os/ext/CMSIS/include/core_cmFunc.h" 1
 1470 0056 83F31188 		MSR basepri, r3
 1471              	@ 0 "" 2
 1472              	.LVL101:
 1473              		.loc 5 546 3 is_stmt 0 view .LVU393
 1474              		.thumb
 1475              		.syntax unified
 1476              	.LBE307:
 1477              	.LBE306:
 1478              	.LBE308:
 1479              	.LBE309:
 1480              	.LBE311:
 1481              		.loc 1 374 1 view .LVU394
ARM GAS  /tmp/ccAFQxgi.s 			page 27


 1482 005a E5E7     		b	.L87
 1483              	.L94:
 1484              	.LBB312:
 1485              	.LBB310:
 1486              		.loc 4 367 3 is_stmt 1 view .LVU395
 1487 005c 0448     		ldr	r0, .L95+8
 1488 005e FFF7FEFF 		bl	chSysHalt
 1489              	.LVL102:
 1490              	.L93:
 1491              	.LBE310:
 1492              	.LBE312:
 1493              		.loc 1 374 1 is_stmt 0 view .LVU396
 1494 0062 FFF7FEFF 		bl	__stack_chk_fail
 1495              	.LVL103:
 1496              	.L96:
 1497 0066 00BF     		.align	2
 1498              	.L95:
 1499 0068 00000000 		.word	.LC7
 1500 006c 00000000 		.word	ch
 1501 0070 00000000 		.word	.LANCHOR0
 1502              		.cfi_endproc
 1503              	.LFE225:
 1504              		.size	chSysRestoreStatusX, .-chSysRestoreStatusX
 1505              		.section	.rodata.chSysIsCounterWithinX.cst4,"aM",%progbits,4
 1506              		.align	2
 1507              	.LC8:
 1508 0000 00000000 		.word	__stack_chk_guard
 1509              		.section	.text.chSysIsCounterWithinX,"ax",%progbits
 1510              		.align	1
 1511              		.p2align 4,,15
 1512              		.global	chSysIsCounterWithinX
 1513              		.syntax unified
 1514              		.thumb
 1515              		.thumb_func
 1516              		.fpu fpv4-sp-d16
 1517              		.type	chSysIsCounterWithinX, %function
 1518              	chSysIsCounterWithinX:
 1519              	.LVL104:
 1520              	.LFB226:
 1521              		.loc 1 395 69 is_stmt 1 view -0
 1522              		.cfi_startproc
 1523              		@ args = 0, pretend = 0, frame = 8
 1524              		@ frame_needed = 0, uses_anonymous_args = 0
 1525              		.loc 1 395 69 is_stmt 0 view .LVU398
 1526 0000 00B5     		push	{lr}
 1527              		.cfi_def_cfa_offset 4
 1528              		.cfi_offset 14, -4
 1529 0002 0B4B     		ldr	r3, .L101
 1530 0004 83B0     		sub	sp, sp, #12
 1531              		.cfi_def_cfa_offset 16
 1532              		.loc 1 397 22 view .LVU399
 1533 0006 401A     		subs	r0, r0, r1
 1534              	.LVL105:
 1535              		.loc 1 395 69 view .LVU400
 1536 0008 1B68     		ldr	r3, [r3]
 1537 000a 0193     		str	r3, [sp, #4]
 1538 000c 4FF00003 		mov	r3,#0
ARM GAS  /tmp/ccAFQxgi.s 			page 28


 1539              		.loc 1 397 3 is_stmt 1 view .LVU401
 1540              		.loc 1 397 38 is_stmt 0 view .LVU402
 1541 0010 511A     		subs	r1, r2, r1
 1542              	.LVL106:
 1543              		.loc 1 398 1 view .LVU403
 1544 0012 074B     		ldr	r3, .L101
 1545              		.loc 1 397 10 view .LVU404
 1546 0014 8842     		cmp	r0, r1
 1547 0016 2CBF     		ite	cs
 1548 0018 0020     		movcs	r0, #0
 1549 001a 0120     		movcc	r0, #1
 1550              		.loc 1 398 1 view .LVU405
 1551 001c 1A68     		ldr	r2, [r3]
 1552 001e 019B     		ldr	r3, [sp, #4]
 1553 0020 5A40     		eors	r2, r3, r2
 1554              	.LVL107:
 1555              		.loc 1 398 1 view .LVU406
 1556 0022 02D1     		bne	.L100
 1557 0024 03B0     		add	sp, sp, #12
 1558              		.cfi_remember_state
 1559              		.cfi_def_cfa_offset 4
 1560              		@ sp needed
 1561 0026 5DF804FB 		ldr	pc, [sp], #4
 1562              	.L100:
 1563              		.cfi_restore_state
 1564 002a FFF7FEFF 		bl	__stack_chk_fail
 1565              	.LVL108:
 1566              	.L102:
 1567 002e 00BF     		.align	2
 1568              	.L101:
 1569 0030 00000000 		.word	.LC8
 1570              		.cfi_endproc
 1571              	.LFE226:
 1572              		.size	chSysIsCounterWithinX, .-chSysIsCounterWithinX
 1573              		.section	.rodata.chSysPolledDelayX.cst4,"aM",%progbits,4
 1574              		.align	2
 1575              	.LC9:
 1576 0000 00000000 		.word	__stack_chk_guard
 1577              		.section	.text.chSysPolledDelayX,"ax",%progbits
 1578              		.align	1
 1579              		.p2align 4,,15
 1580              		.global	chSysPolledDelayX
 1581              		.syntax unified
 1582              		.thumb
 1583              		.thumb_func
 1584              		.fpu fpv4-sp-d16
 1585              		.type	chSysPolledDelayX, %function
 1586              	chSysPolledDelayX:
 1587              	.LVL109:
 1588              	.LFB227:
 1589              		.loc 1 411 40 is_stmt 1 view -0
 1590              		.cfi_startproc
 1591              		@ args = 0, pretend = 0, frame = 8
 1592              		@ frame_needed = 0, uses_anonymous_args = 0
 1593              		.loc 1 411 40 is_stmt 0 view .LVU408
 1594 0000 00B5     		push	{lr}
 1595              		.cfi_def_cfa_offset 4
ARM GAS  /tmp/ccAFQxgi.s 			page 29


 1596              		.cfi_offset 14, -4
 1597 0002 0B4B     		ldr	r3, .L109
 1598              	.LBB313:
 1599              	.LBB314:
 1600              		.loc 2 548 13 view .LVU409
 1601 0004 0B4A     		ldr	r2, .L109+4
 1602              	.LBE314:
 1603              	.LBE313:
 1604              		.loc 1 411 40 view .LVU410
 1605 0006 83B0     		sub	sp, sp, #12
 1606              		.cfi_def_cfa_offset 16
 1607              		.loc 1 411 40 view .LVU411
 1608 0008 1B68     		ldr	r3, [r3]
 1609 000a 0193     		str	r3, [sp, #4]
 1610 000c 4FF00003 		mov	r3,#0
 1611              		.loc 1 412 3 is_stmt 1 view .LVU412
 1612              	.LBB316:
 1613              	.LBI313:
 1614              		.loc 2 546 23 view .LVU413
 1615              	.LBB315:
 1616              		.loc 2 548 3 view .LVU414
 1617              		.loc 2 548 13 is_stmt 0 view .LVU415
 1618 0010 5168     		ldr	r1, [r2, #4]
 1619              	.LVL110:
 1620              		.loc 2 548 13 view .LVU416
 1621              	.LBE315:
 1622              	.LBE316:
 1623              		.loc 1 413 3 is_stmt 1 view .LVU417
 1624              		.loc 1 415 3 view .LVU418
 1625              	.L104:
 1626              		.loc 1 416 3 discriminator 1 view .LVU419
 1627              		.loc 1 415 9 discriminator 1 view .LVU420
 1628              	.LBB317:
 1629              	.LBI317:
 1630              		.loc 2 546 23 discriminator 1 view .LVU421
 1631              	.LBB318:
 1632              		.loc 2 548 3 discriminator 1 view .LVU422
 1633              		.loc 2 548 13 is_stmt 0 discriminator 1 view .LVU423
 1634 0012 5368     		ldr	r3, [r2, #4]
 1635              	.LVL111:
 1636              		.loc 2 548 13 discriminator 1 view .LVU424
 1637              	.LBE318:
 1638              	.LBE317:
 1639              	.LBB319:
 1640              	.LBI319:
 1641              		.loc 1 395 6 is_stmt 1 discriminator 1 view .LVU425
 1642              	.LBB320:
 1643              		.loc 1 397 3 discriminator 1 view .LVU426
 1644              		.loc 1 397 22 is_stmt 0 discriminator 1 view .LVU427
 1645 0014 5B1A     		subs	r3, r3, r1
 1646              	.LBE320:
 1647              	.LBE319:
 1648              		.loc 1 415 9 discriminator 1 view .LVU428
 1649 0016 9842     		cmp	r0, r3
 1650 0018 FBD8     		bhi	.L104
 1651              		.loc 1 417 1 view .LVU429
 1652 001a 054B     		ldr	r3, .L109
ARM GAS  /tmp/ccAFQxgi.s 			page 30


 1653 001c 1A68     		ldr	r2, [r3]
 1654 001e 019B     		ldr	r3, [sp, #4]
 1655 0020 5A40     		eors	r2, r3, r2
 1656 0022 02D1     		bne	.L108
 1657 0024 03B0     		add	sp, sp, #12
 1658              		.cfi_remember_state
 1659              		.cfi_def_cfa_offset 4
 1660              		@ sp needed
 1661 0026 5DF804FB 		ldr	pc, [sp], #4
 1662              	.L108:
 1663              		.cfi_restore_state
 1664 002a FFF7FEFF 		bl	__stack_chk_fail
 1665              	.LVL112:
 1666              	.L110:
 1667              		.loc 1 417 1 view .LVU430
 1668 002e 00BF     		.align	2
 1669              	.L109:
 1670 0030 00000000 		.word	.LC9
 1671 0034 001000E0 		.word	-536866816
 1672              		.cfi_endproc
 1673              	.LFE227:
 1674              		.size	chSysPolledDelayX, .-chSysPolledDelayX
 1675              		.section	.rodata.__func__.7261,"a"
 1676              		.align	2
 1677              		.set	.LANCHOR0,. + 0
 1678              		.type	__func__.7261, %object
 1679              		.size	__func__.7261, 12
 1680              	__func__.7261:
 1681 0000 63685379 		.ascii	"chSysUnlock\000"
 1681      73556E6C 
 1681      6F636B00 
 1682              		.text
 1683              	.Letext0:
 1684              		.file 8 "/usr/lib/gcc/arm-none-eabi/9.2.1/include/stdint.h"
 1685              		.file 9 ".//ChibiOS//os/rt/ports/ARMCMx/compilers/GCC/chtypes.h"
 1686              		.file 10 ".//ChibiOS//os/rt/include/chsystypes.h"
 1687              		.file 11 ".//ChibiOS//os/rt/include/chschd.h"
 1688              		.file 12 ".//ChibiOS//os/ext/CMSIS/ST/stm32f407xx.h"
 1689              		.file 13 ".//ChibiOS//os/ext/CMSIS/ST/system_stm32f4xx.h"
 1690              		.file 14 ".//ChibiOS//os/rt/ports/ARMCMx/chcore.h"
 1691              		.file 15 ".//ChibiOS//os/rt/include/chdebug.h"
 1692              		.file 16 ".//ChibiOS//os/rt/include/chtm.h"
 1693              		.file 17 ".//ChibiOS//os/rt/include/chstats.h"
 1694              		.file 18 ".//ChibiOS//os/rt/include/chsem.h"
 1695              		.file 19 ".//ChibiOS//os/rt/include/chmtx.h"
 1696              		.file 20 ".//ChibiOS//os/rt/include/chthreads.h"
 1697              		.file 21 ".//src/chconf.h"
 1698              		.file 22 ".//ChibiOS//os/rt/include/chmemcore.h"
 1699              		.file 23 ".//ChibiOS//os/rt/include/chheap.h"