ARM GAS  /tmp/ccJ6FnJD.s 			page 1


   1              		.cpu cortex-m4
   2              		.eabi_attribute 27, 1
   3              		.eabi_attribute 28, 1
   4              		.eabi_attribute 20, 1
   5              		.eabi_attribute 21, 1
   6              		.eabi_attribute 23, 3
   7              		.eabi_attribute 24, 1
   8              		.eabi_attribute 25, 1
   9              		.eabi_attribute 26, 1
  10              		.eabi_attribute 30, 2
  11              		.eabi_attribute 34, 1
  12              		.eabi_attribute 18, 4
  13              		.file	"chthreads.c"
  14              		.text
  15              	.Ltext0:
  16              		.cfi_sections	.debug_frame
  17              		.section	.rodata._thread_init.cst4,"aM",%progbits,4
  18              		.align	2
  19              	.LC0:
  20 0000 00000000 		.word	__stack_chk_guard
  21              		.section	.text._thread_init,"ax",%progbits
  22              		.align	1
  23              		.p2align 4,,15
  24              		.global	_thread_init
  25              		.arch armv7e-m
  26              		.syntax unified
  27              		.thumb
  28              		.thumb_func
  29              		.fpu fpv4-sp-d16
  30              		.type	_thread_init, %function
  31              	_thread_init:
  32              	.LVL0:
  33              	.LFB219:
  34              		.file 1 ".//ChibiOS//os/rt/src/chthreads.c"
  35              		.loc 1 91 52 view -0
  36              		.cfi_startproc
  37              		@ args = 0, pretend = 0, frame = 16
  38              		@ frame_needed = 0, uses_anonymous_args = 0
  39              		.loc 1 91 52 is_stmt 0 view .LVU1
  40 0000 70B5     		push	{r4, r5, r6, lr}
  41              		.cfi_def_cfa_offset 16
  42              		.cfi_offset 4, -16
  43              		.cfi_offset 5, -12
  44              		.cfi_offset 6, -8
  45              		.cfi_offset 14, -4
  46              		.loc 1 114 3 view .LVU2
  47 0002 1C4A     		ldr	r2, .L6
  48              		.loc 1 91 52 view .LVU3
  49 0004 1C4E     		ldr	r6, .L6+4
  50              		.loc 1 114 3 view .LVU4
  51 0006 0261     		str	r2, [r0, #16]
  52              		.loc 1 91 52 view .LVU5
  53 0008 0446     		mov	r4, r0
  54              		.loc 1 93 14 view .LVU6
  55 000a 8160     		str	r1, [r0, #8]
  56              		.loc 1 100 18 view .LVU7
  57 000c 4164     		str	r1, [r0, #68]
ARM GAS  /tmp/ccJ6FnJD.s 			page 2


  58              		.loc 1 91 52 view .LVU8
  59 000e 84B0     		sub	sp, sp, #16
  60              		.cfi_def_cfa_offset 32
  61              		.loc 1 97 17 view .LVU9
  62 0010 1423     		movs	r3, #20
  63              		.loc 1 91 52 view .LVU10
  64 0012 3668     		ldr	r6, [r6]
  65 0014 0396     		str	r6, [sp, #12]
  66 0016 4FF00006 		mov	r6,#0
  67              		.loc 1 93 3 is_stmt 1 view .LVU11
  68              		.loc 1 94 3 view .LVU12
  69              		.loc 1 95 3 view .LVU13
  70              		.loc 1 114 3 is_stmt 0 view .LVU14
  71 001a 5569     		ldr	r5, [r2, #20]
  72              		.loc 1 97 17 view .LVU15
  73 001c 84F82330 		strb	r3, [r4, #35]
  74              		.loc 1 110 14 view .LVU16
  75 0020 0121     		movs	r1, #1
  76              	.LVL1:
  77              		.loc 1 101 17 view .LVU17
  78 0022 0023     		movs	r3, #0
  79              		.loc 1 104 18 view .LVU18
  80 0024 C4E90F33 		strd	r3, r3, [r4, #60]
  81              		.loc 1 110 14 view .LVU19
  82 0028 84F82210 		strb	r1, [r4, #34]
  83              		.loc 1 107 14 view .LVU20
  84 002c 6362     		str	r3, [r4, #36]
  85              		.loc 1 123 38 view .LVU21
  86 002e 04F16801 		add	r1, r4, #104
  87              		.loc 1 113 14 view .LVU22
  88 0032 A361     		str	r3, [r4, #24]
  89              		.loc 1 94 15 view .LVU23
  90 0034 0220     		movs	r0, #2
  91              	.LVL2:
  92              		.loc 1 120 3 view .LVU24
  93 0036 04F13003 		add	r3, r4, #48
  94              		.loc 1 117 3 view .LVU25
  95 003a 04F12C06 		add	r6, r4, #44
  96              		.loc 1 94 15 view .LVU26
  97 003e 2084     		strh	r0, [r4, #32]	@ movhi
  98              		.loc 1 97 3 is_stmt 1 view .LVU27
  99              		.loc 1 100 3 view .LVU28
 100              		.loc 1 101 3 view .LVU29
 101              		.loc 1 107 3 view .LVU30
 102              		.loc 1 110 3 view .LVU31
 103              		.loc 1 113 3 view .LVU32
 104              		.loc 1 114 3 view .LVU33
 105              		.loc 1 114 3 view .LVU34
 106              		.loc 1 114 3 view .LVU35
 107 0040 6561     		str	r5, [r4, #20]
 108              		.loc 1 126 3 is_stmt 0 view .LVU36
 109 0042 04F15000 		add	r0, r4, #80
 110              		.loc 1 114 3 view .LVU37
 111 0046 2C61     		str	r4, [r5, #16]
 112              	.LVL3:
 113              		.loc 1 114 3 is_stmt 1 view .LVU38
 114              	.LBB107:
ARM GAS  /tmp/ccJ6FnJD.s 			page 3


 115              	.LBB108:
 116              		.file 2 ".//ChibiOS//os/rt/include/chschd.h"
 117              		.loc 2 605 15 is_stmt 0 view .LVU39
 118 0048 C4E90C33 		strd	r3, r3, [r4, #48]
 119              	.LBE108:
 120              	.LBE107:
 121              		.loc 1 123 18 view .LVU40
 122 004c E161     		str	r1, [r4, #28]
 123              	.LBB110:
 124              	.LBB111:
 125              		.loc 2 566 15 view .LVU41
 126 004e E662     		str	r6, [r4, #44]
 127              	.LBE111:
 128              	.LBE110:
 129              		.loc 1 114 3 view .LVU42
 130 0050 5461     		str	r4, [r2, #20]
 131              		.loc 1 114 17 is_stmt 1 view .LVU43
 132              		.loc 1 117 3 view .LVU44
 133              	.LVL4:
 134              	.LBB113:
 135              	.LBI110:
 136              		.loc 2 564 20 view .LVU45
 137              	.LBB112:
 138              		.loc 2 566 3 view .LVU46
 139              		.loc 2 566 3 is_stmt 0 view .LVU47
 140              	.LBE112:
 141              	.LBE113:
 142              		.loc 1 120 3 is_stmt 1 view .LVU48
 143              	.LBB114:
 144              	.LBI107:
 145              		.loc 2 602 20 view .LVU49
 146              	.LBB109:
 147              		.loc 2 604 3 view .LVU50
 148              		.loc 2 605 3 view .LVU51
 149              		.loc 2 605 3 is_stmt 0 view .LVU52
 150              	.LBE109:
 151              	.LBE114:
 152              		.loc 1 123 3 is_stmt 1 view .LVU53
 153              		.loc 1 126 3 view .LVU54
 154 0052 0190     		str	r0, [sp, #4]
 155 0054 FFF7FEFF 		bl	chTMObjectInit
 156              	.LVL5:
 157              		.loc 1 127 3 view .LVU55
 158 0058 0198     		ldr	r0, [sp, #4]
 159 005a FFF7FEFF 		bl	chTMStartMeasurementX
 160              	.LVL6:
 161              		.loc 1 130 3 view .LVU56
 162              		.loc 1 130 30 view .LVU57
 163              		.loc 1 132 3 view .LVU58
 164              		.loc 1 133 1 is_stmt 0 view .LVU59
 165 005e 064B     		ldr	r3, .L6+4
 166 0060 1A68     		ldr	r2, [r3]
 167 0062 039B     		ldr	r3, [sp, #12]
 168 0064 5A40     		eors	r2, r3, r2
 169 0066 02D1     		bne	.L5
 170 0068 2046     		mov	r0, r4
 171 006a 04B0     		add	sp, sp, #16
ARM GAS  /tmp/ccJ6FnJD.s 			page 4


 172              		.cfi_remember_state
 173              		.cfi_def_cfa_offset 16
 174              		@ sp needed
 175 006c 70BD     		pop	{r4, r5, r6, pc}
 176              	.LVL7:
 177              	.L5:
 178              		.cfi_restore_state
 179              		.loc 1 133 1 view .LVU60
 180 006e FFF7FEFF 		bl	__stack_chk_fail
 181              	.LVL8:
 182              	.L7:
 183 0072 00BF     		.align	2
 184              	.L6:
 185 0074 00000000 		.word	ch
 186 0078 00000000 		.word	.LC0
 187              		.cfi_endproc
 188              	.LFE219:
 189              		.size	_thread_init, .-_thread_init
 190              		.section	.rodata._thread_memfill.cst4,"aM",%progbits,4
 191              		.align	2
 192              	.LC1:
 193 0000 00000000 		.word	__stack_chk_guard
 194              		.section	.text._thread_memfill,"ax",%progbits
 195              		.align	1
 196              		.p2align 4,,15
 197              		.global	_thread_memfill
 198              		.syntax unified
 199              		.thumb
 200              		.thumb_func
 201              		.fpu fpv4-sp-d16
 202              		.type	_thread_memfill, %function
 203              	_thread_memfill:
 204              	.LVL9:
 205              	.LFB220:
 206              		.loc 1 145 65 is_stmt 1 view -0
 207              		.cfi_startproc
 208              		@ args = 0, pretend = 0, frame = 8
 209              		@ frame_needed = 0, uses_anonymous_args = 0
 210              		.loc 1 145 65 is_stmt 0 view .LVU62
 211 0000 00B5     		push	{lr}
 212              		.cfi_def_cfa_offset 4
 213              		.cfi_offset 14, -4
 214 0002 0B4B     		ldr	r3, .L15
 215 0004 83B0     		sub	sp, sp, #12
 216              		.cfi_def_cfa_offset 16
 217              		.loc 1 147 9 view .LVU63
 218 0006 8842     		cmp	r0, r1
 219              		.loc 1 145 65 view .LVU64
 220 0008 1B68     		ldr	r3, [r3]
 221 000a 0193     		str	r3, [sp, #4]
 222 000c 4FF00003 		mov	r3,#0
 223              		.loc 1 147 3 is_stmt 1 view .LVU65
 224              		.loc 1 147 9 view .LVU66
 225 0010 03D2     		bcs	.L8
 226              	.L10:
 227              		.loc 1 148 5 view .LVU67
 228              	.LVL10:
ARM GAS  /tmp/ccJ6FnJD.s 			page 5


 229              		.loc 1 148 15 is_stmt 0 view .LVU68
 230 0012 00F8012B 		strb	r2, [r0], #1
 231              	.LVL11:
 232              		.loc 1 147 9 is_stmt 1 view .LVU69
 233 0016 8142     		cmp	r1, r0
 234 0018 FBD1     		bne	.L10
 235              	.L8:
 236              		.loc 1 150 1 is_stmt 0 view .LVU70
 237 001a 054B     		ldr	r3, .L15
 238 001c 1A68     		ldr	r2, [r3]
 239 001e 019B     		ldr	r3, [sp, #4]
 240 0020 5A40     		eors	r2, r3, r2
 241              	.LVL12:
 242              		.loc 1 150 1 view .LVU71
 243 0022 02D1     		bne	.L14
 244 0024 03B0     		add	sp, sp, #12
 245              		.cfi_remember_state
 246              		.cfi_def_cfa_offset 4
 247              		@ sp needed
 248 0026 5DF804FB 		ldr	pc, [sp], #4
 249              	.L14:
 250              		.cfi_restore_state
 251 002a FFF7FEFF 		bl	__stack_chk_fail
 252              	.LVL13:
 253              	.L16:
 254              		.loc 1 150 1 view .LVU72
 255 002e 00BF     		.align	2
 256              	.L15:
 257 0030 00000000 		.word	.LC1
 258              		.cfi_endproc
 259              	.LFE220:
 260              		.size	_thread_memfill, .-_thread_memfill
 261              		.section	.rodata.chThdCreateI.cst4,"aM",%progbits,4
 262              		.align	2
 263              	.LC2:
 264 0000 00000000 		.word	__stack_chk_guard
 265              		.section	.text.chThdCreateI,"ax",%progbits
 266              		.align	1
 267              		.p2align 4,,15
 268              		.global	chThdCreateI
 269              		.syntax unified
 270              		.thumb
 271              		.thumb_func
 272              		.fpu fpv4-sp-d16
 273              		.type	chThdCreateI, %function
 274              	chThdCreateI:
 275              	.LVL14:
 276              	.LFB221:
 277              		.loc 1 178 61 is_stmt 1 view -0
 278              		.cfi_startproc
 279              		@ args = 4, pretend = 0, frame = 8
 280              		@ frame_needed = 0, uses_anonymous_args = 0
 281              		.loc 1 178 61 is_stmt 0 view .LVU74
 282 0000 2DE9F041 		push	{r4, r5, r6, r7, r8, lr}
 283              		.cfi_def_cfa_offset 24
 284              		.cfi_offset 4, -24
 285              		.cfi_offset 5, -20
ARM GAS  /tmp/ccJ6FnJD.s 			page 6


 286              		.cfi_offset 6, -16
 287              		.cfi_offset 7, -12
 288              		.cfi_offset 8, -8
 289              		.cfi_offset 14, -4
 290 0004 1F46     		mov	r7, r3
 291 0006 82B0     		sub	sp, sp, #8
 292              		.cfi_def_cfa_offset 32
 293              		.loc 1 178 61 view .LVU75
 294 0008 184B     		ldr	r3, .L28
 295              	.LVL15:
 296              		.loc 1 178 61 view .LVU76
 297 000a DDF82080 		ldr	r8, [sp, #32]
 298 000e 0546     		mov	r5, r0
 299 0010 0C46     		mov	r4, r1
 300 0012 1646     		mov	r6, r2
 301 0014 1B68     		ldr	r3, [r3]
 302 0016 0193     		str	r3, [sp, #4]
 303 0018 4FF00003 		mov	r3,#0
 304              		.loc 1 181 3 is_stmt 1 view .LVU77
 305              	.LVL16:
 306              		.loc 1 183 3 view .LVU78
 307 001c FFF7FEFF 		bl	chDbgCheckClassI
 308              	.LVL17:
 309              		.loc 1 184 3 view .LVU79
 310              		.loc 1 184 3 view .LVU80
 311              		.loc 1 184 3 view .LVU81
 312 0020 15B1     		cbz	r5, .L18
 313              		.loc 1 184 3 is_stmt 0 discriminator 4 view .LVU82
 314 0022 B4F5BC7F 		cmp	r4, #376
 315 0026 19D2     		bcs	.L26
 316              	.L18:
 317              		.loc 1 184 3 is_stmt 1 discriminator 9 view .LVU83
 318 0028 1148     		ldr	r0, .L28+4
 319 002a FFF7FEFF 		bl	chSysHalt
 320              	.LVL18:
 321              	.L19:
 322              		.loc 1 184 3 discriminator 11 view .LVU84
 323              		.loc 1 187 3 discriminator 11 view .LVU85
 324 002e A4F16401 		sub	r1, r4, #100
 325 0032 2944     		add	r1, r1, r5
 326 0034 E960     		str	r1, [r5, #12]
 327              		.loc 1 187 3 discriminator 11 view .LVU86
 328 0036 0F64     		str	r7, [r1, #64]
 329              		.loc 1 187 3 discriminator 11 view .LVU87
 330 0038 EB68     		ldr	r3, [r5, #12]
 331 003a 0E4A     		ldr	r2, .L28+8
 332 003c C3F84480 		str	r8, [r3, #68]
 333              		.loc 1 187 3 discriminator 11 view .LVU88
 334 0040 EB68     		ldr	r3, [r5, #12]
 335 0042 1A66     		str	r2, [r3, #96]
 336              		.loc 1 187 45 discriminator 11 view .LVU89
 337              		.loc 1 189 3 discriminator 11 view .LVU90
 338              		.loc 1 189 10 is_stmt 0 discriminator 11 view .LVU91
 339 0044 094B     		ldr	r3, .L28
 340 0046 1A68     		ldr	r2, [r3]
 341 0048 019B     		ldr	r3, [sp, #4]
 342 004a 5A40     		eors	r2, r3, r2
ARM GAS  /tmp/ccJ6FnJD.s 			page 7


 343 004c 0BD1     		bne	.L27
 344 004e 3146     		mov	r1, r6
 345 0050 2846     		mov	r0, r5
 346              		.loc 1 190 1 discriminator 11 view .LVU92
 347 0052 02B0     		add	sp, sp, #8
 348              		.cfi_remember_state
 349              		.cfi_def_cfa_offset 24
 350              		@ sp needed
 351 0054 BDE8F041 		pop	{r4, r5, r6, r7, r8, lr}
 352              		.cfi_restore 14
 353              		.cfi_restore 8
 354              		.cfi_restore 7
 355              		.cfi_restore 6
 356              		.cfi_restore 5
 357              		.cfi_restore 4
 358              		.cfi_def_cfa_offset 0
 359              	.LVL19:
 360              		.loc 1 189 10 discriminator 11 view .LVU93
 361 0058 FFF7FEBF 		b	_thread_init
 362              	.LVL20:
 363              	.L26:
 364              		.cfi_restore_state
 365              		.loc 1 184 3 discriminator 6 view .LVU94
 366 005c 7F2E     		cmp	r6, #127
 367 005e E3D8     		bhi	.L18
 368              		.loc 1 184 3 discriminator 8 view .LVU95
 369 0060 002F     		cmp	r7, #0
 370 0062 E4D1     		bne	.L19
 371 0064 E0E7     		b	.L18
 372              	.L27:
 373              		.loc 1 189 10 discriminator 11 view .LVU96
 374 0066 FFF7FEFF 		bl	__stack_chk_fail
 375              	.LVL21:
 376              	.L29:
 377 006a 00BF     		.align	2
 378              	.L28:
 379 006c 00000000 		.word	.LC2
 380 0070 00000000 		.word	.LANCHOR0
 381 0074 00000000 		.word	_port_thread_start
 382              		.cfi_endproc
 383              	.LFE221:
 384              		.size	chThdCreateI, .-chThdCreateI
 385              		.section	.rodata.chThdCreateStatic.cst4,"aM",%progbits,4
 386              		.align	2
 387              	.LC3:
 388 0000 00000000 		.word	__stack_chk_guard
 389              		.section	.text.chThdCreateStatic,"ax",%progbits
 390              		.align	1
 391              		.p2align 4,,15
 392              		.global	chThdCreateStatic
 393              		.syntax unified
 394              		.thumb
 395              		.thumb_func
 396              		.fpu fpv4-sp-d16
 397              		.type	chThdCreateStatic, %function
 398              	chThdCreateStatic:
 399              	.LVL22:
ARM GAS  /tmp/ccJ6FnJD.s 			page 8


 400              	.LFB222:
 401              		.loc 1 209 66 is_stmt 1 view -0
 402              		.cfi_startproc
 403              		@ args = 4, pretend = 0, frame = 16
 404              		@ frame_needed = 0, uses_anonymous_args = 0
 405              		.loc 1 209 66 is_stmt 0 view .LVU98
 406 0000 2DE9F043 		push	{r4, r5, r6, r7, r8, r9, lr}
 407              		.cfi_def_cfa_offset 28
 408              		.cfi_offset 4, -28
 409              		.cfi_offset 5, -24
 410              		.cfi_offset 6, -20
 411              		.cfi_offset 7, -16
 412              		.cfi_offset 8, -12
 413              		.cfi_offset 9, -8
 414              		.cfi_offset 14, -4
 415 0004 87B0     		sub	sp, sp, #28
 416              		.cfi_def_cfa_offset 56
 417              		.loc 1 209 66 view .LVU99
 418 0006 0746     		mov	r7, r0
 419 0008 2648     		ldr	r0, .L41
 420              	.LVL23:
 421              		.loc 1 209 66 view .LVU100
 422 000a DDF83890 		ldr	r9, [sp, #56]
 423 000e 0068     		ldr	r0, [r0]
 424 0010 0590     		str	r0, [sp, #20]
 425 0012 4FF00000 		mov	r0,#0
 426              		.loc 1 210 3 is_stmt 1 view .LVU101
 427              		.loc 1 213 3 view .LVU102
 428              		.loc 1 209 66 is_stmt 0 view .LVU103
 429 0016 8846     		mov	r8, r1
 430              		.loc 1 213 3 view .LVU104
 431 0018 07F16804 		add	r4, r7, #104
 432              	.LVL24:
 433              	.LBB129:
 434              	.LBI129:
 435              		.loc 1 145 6 is_stmt 1 view .LVU105
 436              	.LBB130:
 437              		.loc 1 147 3 view .LVU106
 438              		.loc 1 147 9 view .LVU107
 439              	.LBE130:
 440              	.LBE129:
 441              		.loc 1 213 3 is_stmt 0 view .LVU108
 442 001c 3D46     		mov	r5, r7
 443              	.LBB132:
 444              	.LBB131:
 445              		.loc 1 148 15 view .LVU109
 446 001e FF26     		movs	r6, #255
 447              	.LVL25:
 448              	.L31:
 449              		.loc 1 148 5 is_stmt 1 view .LVU110
 450              		.loc 1 148 15 is_stmt 0 view .LVU111
 451 0020 05F8016B 		strb	r6, [r5], #1
 452              	.LVL26:
 453              		.loc 1 147 9 is_stmt 1 view .LVU112
 454 0024 AC42     		cmp	r4, r5
 455 0026 FBD1     		bne	.L31
 456              	.LVL27:
ARM GAS  /tmp/ccJ6FnJD.s 			page 9


 457              		.loc 1 147 9 is_stmt 0 view .LVU113
 458              	.LBE131:
 459              	.LBE132:
 460              		.loc 1 216 3 is_stmt 1 view .LVU114
 461 0028 07EB0805 		add	r5, r7, r8
 462              	.LVL28:
 463              	.LBB133:
 464              	.LBI133:
 465              		.loc 1 145 6 view .LVU115
 466              	.LBB134:
 467              		.loc 1 147 9 view .LVU116
 468 002c AC42     		cmp	r4, r5
 469 002e 04D2     		bcs	.L32
 470              		.loc 1 148 15 is_stmt 0 view .LVU117
 471 0030 5526     		movs	r6, #85
 472              	.L33:
 473              		.loc 1 148 5 is_stmt 1 view .LVU118
 474              	.LVL29:
 475              		.loc 1 148 15 is_stmt 0 view .LVU119
 476 0032 04F8016B 		strb	r6, [r4], #1
 477              	.LVL30:
 478              		.loc 1 147 9 is_stmt 1 view .LVU120
 479 0036 A542     		cmp	r5, r4
 480 0038 FBD1     		bne	.L33
 481              	.L32:
 482              		.loc 1 147 9 is_stmt 0 view .LVU121
 483 003a CDE90223 		strd	r2, r3, [sp, #8]
 484              	.LVL31:
 485              		.loc 1 147 9 view .LVU122
 486              	.LBE134:
 487              	.LBE133:
 488              		.loc 1 221 3 is_stmt 1 view .LVU123
 489              	.LBB135:
 490              	.LBI135:
 491              		.file 3 ".//ChibiOS//os/rt/include/chsys.h"
 492              		.loc 3 346 20 view .LVU124
 493              	.LBB136:
 494              		.loc 3 348 3 view .LVU125
 495              	.LBB137:
 496              	.LBI137:
 497              		.file 4 ".//ChibiOS//os/rt/ports/ARMCMx/chcore_v7m.h"
 498              		.loc 4 444 20 view .LVU126
 499              	.LBE137:
 500              	.LBE136:
 501              	.LBE135:
 502              		.loc 4 447 3 view .LVU127
 503              	.LBB142:
 504              	.LBB141:
 505              	.LBB140:
 506              	.LBB138:
 507              	.LBI138:
 508              		.file 5 ".//ChibiOS//os/ext/CMSIS/include/core_cmFunc.h"
 509              		.loc 5 544 57 view .LVU128
 510              	.LBB139:
 511              		.loc 5 546 3 view .LVU129
 512 003e 2021     		movs	r1, #32
 513              	.LVL32:
ARM GAS  /tmp/ccJ6FnJD.s 			page 10


 514              		.loc 5 546 3 is_stmt 0 view .LVU130
 515              		.syntax unified
 516              	@ 546 ".//ChibiOS//os/ext/CMSIS/include/core_cmFunc.h" 1
 517 0040 81F31188 		MSR basepri, r1
 518              	@ 0 "" 2
 519              	.LVL33:
 520              		.loc 5 546 3 view .LVU131
 521              		.thumb
 522              		.syntax unified
 523              	.LBE139:
 524              	.LBE138:
 525              	.LBE140:
 526              		.loc 3 349 3 is_stmt 1 view .LVU132
 527 0044 FFF7FEFF 		bl	_stats_start_measure_crit_thd
 528              	.LVL34:
 529              		.loc 3 350 3 view .LVU133
 530 0048 FFF7FEFF 		bl	_dbg_check_lock
 531              	.LVL35:
 532              	.LBE141:
 533              	.LBE142:
 534              		.loc 1 222 3 view .LVU134
 535              		.loc 1 222 8 is_stmt 0 view .LVU135
 536 004c DDE90223 		ldrd	r2, r3, [sp, #8]
 537 0050 4146     		mov	r1, r8
 538 0052 CDF80090 		str	r9, [sp]
 539 0056 3846     		mov	r0, r7
 540 0058 FFF7FEFF 		bl	chThdCreateI
 541              	.LVL36:
 542              		.loc 1 223 3 view .LVU136
 543 005c 0021     		movs	r1, #0
 544              		.loc 1 222 8 view .LVU137
 545 005e 0446     		mov	r4, r0
 546              	.LVL37:
 547              		.loc 1 223 3 is_stmt 1 view .LVU138
 548 0060 FFF7FEFF 		bl	chSchWakeupS
 549              	.LVL38:
 550              		.loc 1 224 3 view .LVU139
 551              	.LBB143:
 552              	.LBI143:
 553              		.loc 3 358 20 view .LVU140
 554              	.LBB144:
 555              		.loc 3 360 3 view .LVU141
 556 0064 FFF7FEFF 		bl	_dbg_check_unlock
 557              	.LVL39:
 558              		.loc 3 361 3 view .LVU142
 559 0068 FFF7FEFF 		bl	_stats_stop_measure_crit_thd
 560              	.LVL40:
 561              		.loc 3 367 3 view .LVU143
 562              		.loc 3 367 3 view .LVU144
 563              		.loc 3 367 3 view .LVU145
 564 006c 0E4B     		ldr	r3, .L41+4
 565 006e 1A68     		ldr	r2, [r3]
 566 0070 9A42     		cmp	r2, r3
 567 0072 04D0     		beq	.L34
 568              		.loc 3 367 3 is_stmt 0 view .LVU146
 569 0074 9969     		ldr	r1, [r3, #24]
 570 0076 9368     		ldr	r3, [r2, #8]
ARM GAS  /tmp/ccJ6FnJD.s 			page 11


 571 0078 8A68     		ldr	r2, [r1, #8]
 572 007a 9A42     		cmp	r2, r3
 573 007c 0BD3     		bcc	.L39
 574              	.L34:
 575              		.loc 3 367 3 is_stmt 1 view .LVU147
 576              		.loc 3 371 3 view .LVU148
 577              	.LBB145:
 578              	.LBI145:
 579              		.loc 4 458 20 view .LVU149
 580              	.LBE145:
 581              	.LBE144:
 582              	.LBE143:
 583              		.loc 4 461 3 view .LVU150
 584              	.LVL41:
 585              	.LBB151:
 586              	.LBB149:
 587              	.LBB148:
 588              	.LBB146:
 589              	.LBI146:
 590              		.loc 5 544 57 view .LVU151
 591              	.LBB147:
 592              		.loc 5 546 3 view .LVU152
 593 007e 0023     		movs	r3, #0
 594              		.syntax unified
 595              	@ 546 ".//ChibiOS//os/ext/CMSIS/include/core_cmFunc.h" 1
 596 0080 83F31188 		MSR basepri, r3
 597              	@ 0 "" 2
 598              	.LVL42:
 599              		.loc 5 546 3 is_stmt 0 view .LVU153
 600              		.thumb
 601              		.syntax unified
 602              	.LBE147:
 603              	.LBE146:
 604              	.LBE148:
 605              	.LBE149:
 606              	.LBE151:
 607              		.loc 1 226 3 is_stmt 1 view .LVU154
 608              		.loc 1 227 1 is_stmt 0 view .LVU155
 609 0084 074B     		ldr	r3, .L41
 610 0086 1A68     		ldr	r2, [r3]
 611 0088 059B     		ldr	r3, [sp, #20]
 612 008a 5A40     		eors	r2, r3, r2
 613 008c 07D1     		bne	.L40
 614 008e 2046     		mov	r0, r4
 615 0090 07B0     		add	sp, sp, #28
 616              		.cfi_remember_state
 617              		.cfi_def_cfa_offset 28
 618              		@ sp needed
 619 0092 BDE8F083 		pop	{r4, r5, r6, r7, r8, r9, pc}
 620              	.LVL43:
 621              	.L39:
 622              		.cfi_restore_state
 623              	.LBB152:
 624              	.LBB150:
 625              		.loc 3 367 3 is_stmt 1 view .LVU156
 626 0096 0548     		ldr	r0, .L41+8
 627 0098 FFF7FEFF 		bl	chSysHalt
ARM GAS  /tmp/ccJ6FnJD.s 			page 12


 628              	.LVL44:
 629 009c EFE7     		b	.L34
 630              	.L40:
 631              	.LBE150:
 632              	.LBE152:
 633              		.loc 1 227 1 is_stmt 0 view .LVU157
 634 009e FFF7FEFF 		bl	__stack_chk_fail
 635              	.LVL45:
 636              	.L42:
 637 00a2 00BF     		.align	2
 638              	.L41:
 639 00a4 00000000 		.word	.LC3
 640 00a8 00000000 		.word	ch
 641 00ac 00000000 		.word	.LANCHOR1
 642              		.cfi_endproc
 643              	.LFE222:
 644              		.size	chThdCreateStatic, .-chThdCreateStatic
 645              		.section	.rodata.chThdStart.cst4,"aM",%progbits,4
 646              		.align	2
 647              	.LC4:
 648 0000 00000000 		.word	__stack_chk_guard
 649              		.section	.text.chThdStart,"ax",%progbits
 650              		.align	1
 651              		.p2align 4,,15
 652              		.global	chThdStart
 653              		.syntax unified
 654              		.thumb
 655              		.thumb_func
 656              		.fpu fpv4-sp-d16
 657              		.type	chThdStart, %function
 658              	chThdStart:
 659              	.LVL46:
 660              	.LFB223:
 661              		.loc 1 238 36 is_stmt 1 view -0
 662              		.cfi_startproc
 663              		@ args = 0, pretend = 0, frame = 8
 664              		@ frame_needed = 0, uses_anonymous_args = 0
 665              		.loc 1 238 36 is_stmt 0 view .LVU159
 666 0000 10B5     		push	{r4, lr}
 667              		.cfi_def_cfa_offset 8
 668              		.cfi_offset 4, -8
 669              		.cfi_offset 14, -4
 670 0002 1B4B     		ldr	r3, .L53
 671 0004 82B0     		sub	sp, sp, #8
 672              		.cfi_def_cfa_offset 16
 673              		.loc 1 238 36 view .LVU160
 674 0006 1B68     		ldr	r3, [r3]
 675 0008 0193     		str	r3, [sp, #4]
 676 000a 4FF00003 		mov	r3,#0
 677              		.loc 1 240 3 is_stmt 1 view .LVU161
 678              	.LBB165:
 679              	.LBI165:
 680              		.loc 3 346 20 view .LVU162
 681              	.LBB166:
 682              		.loc 3 348 3 view .LVU163
 683              	.LBB167:
 684              	.LBI167:
ARM GAS  /tmp/ccJ6FnJD.s 			page 13


 685              		.loc 4 444 20 view .LVU164
 686              	.LBE167:
 687              	.LBE166:
 688              	.LBE165:
 689              		.loc 4 447 3 view .LVU165
 690              	.LVL47:
 691              	.LBB176:
 692              	.LBB174:
 693              	.LBB172:
 694              	.LBB168:
 695              	.LBI168:
 696              		.loc 5 544 57 view .LVU166
 697              	.LBB169:
 698              		.loc 5 546 3 view .LVU167
 699              	.LBE169:
 700              	.LBE168:
 701              	.LBE172:
 702              	.LBE174:
 703              	.LBE176:
 704              		.loc 1 238 36 is_stmt 0 view .LVU168
 705 000e 0446     		mov	r4, r0
 706              	.LBB177:
 707              	.LBB175:
 708              	.LBB173:
 709              	.LBB171:
 710              	.LBB170:
 711              		.loc 5 546 3 view .LVU169
 712 0010 2023     		movs	r3, #32
 713              		.syntax unified
 714              	@ 546 ".//ChibiOS//os/ext/CMSIS/include/core_cmFunc.h" 1
 715 0012 83F31188 		MSR basepri, r3
 716              	@ 0 "" 2
 717              	.LVL48:
 718              		.loc 5 546 3 view .LVU170
 719              		.thumb
 720              		.syntax unified
 721              	.LBE170:
 722              	.LBE171:
 723              	.LBE173:
 724              		.loc 3 349 3 is_stmt 1 view .LVU171
 725 0016 FFF7FEFF 		bl	_stats_start_measure_crit_thd
 726              	.LVL49:
 727              		.loc 3 350 3 view .LVU172
 728 001a FFF7FEFF 		bl	_dbg_check_lock
 729              	.LVL50:
 730              	.LBE175:
 731              	.LBE177:
 732              		.loc 1 241 3 view .LVU173
 733              	.LBB178:
 734              	.LBI178:
 735              		.file 6 ".//ChibiOS//os/rt/include/chthreads.h"
 736              		.loc 6 245 25 view .LVU174
 737              	.LBB179:
 738              		.loc 6 247 3 view .LVU175
 739              		.loc 6 247 3 view .LVU176
 740              		.loc 6 247 3 view .LVU177
 741 001e 94F82030 		ldrb	r3, [r4, #32]	@ zero_extendqisi2
ARM GAS  /tmp/ccJ6FnJD.s 			page 14


 742 0022 022B     		cmp	r3, #2
 743 0024 02D0     		beq	.L44
 744              		.loc 6 247 3 view .LVU178
 745 0026 1348     		ldr	r0, .L53+4
 746 0028 FFF7FEFF 		bl	chSysHalt
 747              	.LVL51:
 748              	.L44:
 749              		.loc 6 247 3 view .LVU179
 750              		.loc 6 249 3 view .LVU180
 751              		.loc 6 249 10 is_stmt 0 view .LVU181
 752 002c 2046     		mov	r0, r4
 753 002e FFF7FEFF 		bl	chSchReadyI
 754              	.LVL52:
 755 0032 0446     		mov	r4, r0
 756              	.LVL53:
 757              		.loc 6 249 10 view .LVU182
 758              	.LBE179:
 759              	.LBE178:
 760              		.loc 1 242 3 is_stmt 1 view .LVU183
 761              	.LBB180:
 762              	.LBI180:
 763              		.loc 3 358 20 view .LVU184
 764              	.LBB181:
 765              		.loc 3 360 3 view .LVU185
 766 0034 FFF7FEFF 		bl	_dbg_check_unlock
 767              	.LVL54:
 768              		.loc 3 361 3 view .LVU186
 769 0038 FFF7FEFF 		bl	_stats_stop_measure_crit_thd
 770              	.LVL55:
 771              		.loc 3 367 3 view .LVU187
 772              		.loc 3 367 3 view .LVU188
 773              		.loc 3 367 3 view .LVU189
 774 003c 0E4B     		ldr	r3, .L53+8
 775 003e 1A68     		ldr	r2, [r3]
 776 0040 9A42     		cmp	r2, r3
 777 0042 04D0     		beq	.L45
 778 0044 9969     		ldr	r1, [r3, #24]
 779 0046 9368     		ldr	r3, [r2, #8]
 780 0048 8A68     		ldr	r2, [r1, #8]
 781 004a 9A42     		cmp	r2, r3
 782 004c 0AD3     		bcc	.L51
 783              	.L45:
 784              		.loc 3 367 3 view .LVU190
 785              		.loc 3 371 3 view .LVU191
 786              	.LBB182:
 787              	.LBI182:
 788              		.loc 4 458 20 view .LVU192
 789              	.LBE182:
 790              	.LBE181:
 791              	.LBE180:
 792              		.loc 4 461 3 view .LVU193
 793              	.LVL56:
 794              	.LBB188:
 795              	.LBB186:
 796              	.LBB185:
 797              	.LBB183:
 798              	.LBI183:
ARM GAS  /tmp/ccJ6FnJD.s 			page 15


 799              		.loc 5 544 57 view .LVU194
 800              	.LBB184:
 801              		.loc 5 546 3 view .LVU195
 802 004e 0023     		movs	r3, #0
 803              		.syntax unified
 804              	@ 546 ".//ChibiOS//os/ext/CMSIS/include/core_cmFunc.h" 1
 805 0050 83F31188 		MSR basepri, r3
 806              	@ 0 "" 2
 807              	.LVL57:
 808              		.loc 5 546 3 is_stmt 0 view .LVU196
 809              		.thumb
 810              		.syntax unified
 811              	.LBE184:
 812              	.LBE183:
 813              	.LBE185:
 814              	.LBE186:
 815              	.LBE188:
 816              		.loc 1 244 3 is_stmt 1 view .LVU197
 817              		.loc 1 245 1 is_stmt 0 view .LVU198
 818 0054 064B     		ldr	r3, .L53
 819 0056 1A68     		ldr	r2, [r3]
 820 0058 019B     		ldr	r3, [sp, #4]
 821 005a 5A40     		eors	r2, r3, r2
 822 005c 06D1     		bne	.L52
 823 005e 2046     		mov	r0, r4
 824 0060 02B0     		add	sp, sp, #8
 825              		.cfi_remember_state
 826              		.cfi_def_cfa_offset 8
 827              		@ sp needed
 828 0062 10BD     		pop	{r4, pc}
 829              	.LVL58:
 830              	.L51:
 831              		.cfi_restore_state
 832              	.LBB189:
 833              	.LBB187:
 834              		.loc 3 367 3 is_stmt 1 view .LVU199
 835 0064 0548     		ldr	r0, .L53+12
 836 0066 FFF7FEFF 		bl	chSysHalt
 837              	.LVL59:
 838 006a F0E7     		b	.L45
 839              	.L52:
 840              	.LBE187:
 841              	.LBE189:
 842              		.loc 1 245 1 is_stmt 0 view .LVU200
 843 006c FFF7FEFF 		bl	__stack_chk_fail
 844              	.LVL60:
 845              	.L54:
 846              		.align	2
 847              	.L53:
 848 0070 00000000 		.word	.LC4
 849 0074 00000000 		.word	.LANCHOR2
 850 0078 00000000 		.word	ch
 851 007c 00000000 		.word	.LANCHOR1
 852              		.cfi_endproc
 853              	.LFE223:
 854              		.size	chThdStart, .-chThdStart
 855              		.section	.rodata.chThdSetPriority.cst4,"aM",%progbits,4
ARM GAS  /tmp/ccJ6FnJD.s 			page 16


 856              		.align	2
 857              	.LC5:
 858 0000 00000000 		.word	__stack_chk_guard
 859              		.section	.text.chThdSetPriority,"ax",%progbits
 860              		.align	1
 861              		.p2align 4,,15
 862              		.global	chThdSetPriority
 863              		.syntax unified
 864              		.thumb
 865              		.thumb_func
 866              		.fpu fpv4-sp-d16
 867              		.type	chThdSetPriority, %function
 868              	chThdSetPriority:
 869              	.LVL61:
 870              	.LFB224:
 871              		.loc 1 259 43 is_stmt 1 view -0
 872              		.cfi_startproc
 873              		@ args = 0, pretend = 0, frame = 8
 874              		@ frame_needed = 0, uses_anonymous_args = 0
 875              		.loc 1 259 43 is_stmt 0 view .LVU202
 876 0000 70B5     		push	{r4, r5, r6, lr}
 877              		.cfi_def_cfa_offset 16
 878              		.cfi_offset 4, -16
 879              		.cfi_offset 5, -12
 880              		.cfi_offset 6, -8
 881              		.cfi_offset 14, -4
 882 0002 1F4B     		ldr	r3, .L65
 883 0004 82B0     		sub	sp, sp, #8
 884              		.cfi_def_cfa_offset 24
 885              		.loc 1 262 3 view .LVU203
 886 0006 7F28     		cmp	r0, #127
 887              		.loc 1 259 43 view .LVU204
 888 0008 0446     		mov	r4, r0
 889 000a 1B68     		ldr	r3, [r3]
 890 000c 0193     		str	r3, [sp, #4]
 891 000e 4FF00003 		mov	r3,#0
 892              		.loc 1 260 3 is_stmt 1 view .LVU205
 893              		.loc 1 262 3 view .LVU206
 894              		.loc 1 262 3 view .LVU207
 895              		.loc 1 262 3 view .LVU208
 896 0012 2FD8     		bhi	.L62
 897              	.LVL62:
 898              	.L56:
 899              		.loc 1 262 3 discriminator 5 view .LVU209
 900              		.loc 1 264 3 discriminator 5 view .LVU210
 901              	.LBB200:
 902              	.LBI200:
 903              		.loc 3 346 20 discriminator 5 view .LVU211
 904              	.LBB201:
 905              		.loc 3 348 3 discriminator 5 view .LVU212
 906              	.LBB202:
 907              	.LBI202:
 908              		.loc 4 444 20 discriminator 5 view .LVU213
 909              	.LBE202:
 910              	.LBE201:
 911              	.LBE200:
 912              		.loc 4 447 3 discriminator 5 view .LVU214
ARM GAS  /tmp/ccJ6FnJD.s 			page 17


 913              	.LBB208:
 914              	.LBB206:
 915              	.LBB205:
 916              	.LBB203:
 917              	.LBI203:
 918              		.loc 5 544 57 discriminator 5 view .LVU215
 919              	.LBB204:
 920              		.loc 5 546 3 discriminator 5 view .LVU216
 921 0014 2023     		movs	r3, #32
 922              		.syntax unified
 923              	@ 546 ".//ChibiOS//os/ext/CMSIS/include/core_cmFunc.h" 1
 924 0016 83F31188 		MSR basepri, r3
 925              	@ 0 "" 2
 926              	.LVL63:
 927              		.loc 5 546 3 is_stmt 0 discriminator 5 view .LVU217
 928              		.thumb
 929              		.syntax unified
 930              	.LBE204:
 931              	.LBE203:
 932              	.LBE205:
 933              		.loc 3 349 3 is_stmt 1 discriminator 5 view .LVU218
 934              	.LBE206:
 935              	.LBE208:
 936              		.loc 1 266 13 is_stmt 0 discriminator 5 view .LVU219
 937 001a 1A4D     		ldr	r5, .L65+4
 938              	.LBB209:
 939              	.LBB207:
 940              		.loc 3 349 3 discriminator 5 view .LVU220
 941 001c FFF7FEFF 		bl	_stats_start_measure_crit_thd
 942              	.LVL64:
 943              		.loc 3 350 3 is_stmt 1 discriminator 5 view .LVU221
 944 0020 FFF7FEFF 		bl	_dbg_check_lock
 945              	.LVL65:
 946              	.LBE207:
 947              	.LBE209:
 948              		.loc 1 266 3 discriminator 5 view .LVU222
 949              		.loc 1 266 13 is_stmt 0 discriminator 5 view .LVU223
 950 0024 AB69     		ldr	r3, [r5, #24]
 951              		.loc 1 266 11 discriminator 5 view .LVU224
 952 0026 5E6C     		ldr	r6, [r3, #68]
 953              	.LVL66:
 954              		.loc 1 267 3 is_stmt 1 discriminator 5 view .LVU225
 955              		.loc 1 267 13 is_stmt 0 discriminator 5 view .LVU226
 956 0028 9A68     		ldr	r2, [r3, #8]
 957              		.loc 1 267 6 discriminator 5 view .LVU227
 958 002a B242     		cmp	r2, r6
 959 002c 1BD0     		beq	.L57
 960              		.loc 1 267 44 discriminator 1 view .LVU228
 961 002e A242     		cmp	r2, r4
 962 0030 19D3     		bcc	.L57
 963              	.L58:
 964              		.loc 1 270 3 is_stmt 1 view .LVU229
 965              		.loc 1 270 21 is_stmt 0 view .LVU230
 966 0032 5C64     		str	r4, [r3, #68]
 967              		.loc 1 275 3 is_stmt 1 view .LVU231
 968 0034 FFF7FEFF 		bl	chSchRescheduleS
 969              	.LVL67:
ARM GAS  /tmp/ccJ6FnJD.s 			page 18


 970              		.loc 1 276 3 view .LVU232
 971              	.LBB210:
 972              	.LBI210:
 973              		.loc 3 358 20 view .LVU233
 974              	.LBB211:
 975              		.loc 3 360 3 view .LVU234
 976 0038 FFF7FEFF 		bl	_dbg_check_unlock
 977              	.LVL68:
 978              		.loc 3 361 3 view .LVU235
 979 003c FFF7FEFF 		bl	_stats_stop_measure_crit_thd
 980              	.LVL69:
 981              		.loc 3 367 3 view .LVU236
 982              		.loc 3 367 3 view .LVU237
 983              		.loc 3 367 3 view .LVU238
 984 0040 2B68     		ldr	r3, [r5]
 985 0042 AB42     		cmp	r3, r5
 986 0044 04D0     		beq	.L59
 987 0046 AA69     		ldr	r2, [r5, #24]
 988 0048 9B68     		ldr	r3, [r3, #8]
 989 004a 9268     		ldr	r2, [r2, #8]
 990 004c 9A42     		cmp	r2, r3
 991 004e 0DD3     		bcc	.L63
 992              	.L59:
 993              		.loc 3 367 3 view .LVU239
 994              		.loc 3 371 3 view .LVU240
 995              	.LBB212:
 996              	.LBI212:
 997              		.loc 4 458 20 view .LVU241
 998              	.LBE212:
 999              	.LBE211:
 1000              	.LBE210:
 1001              		.loc 4 461 3 view .LVU242
 1002              	.LVL70:
 1003              	.LBB218:
 1004              	.LBB216:
 1005              	.LBB215:
 1006              	.LBB213:
 1007              	.LBI213:
 1008              		.loc 5 544 57 view .LVU243
 1009              	.LBB214:
 1010              		.loc 5 546 3 view .LVU244
 1011 0050 0023     		movs	r3, #0
 1012              		.syntax unified
 1013              	@ 546 ".//ChibiOS//os/ext/CMSIS/include/core_cmFunc.h" 1
 1014 0052 83F31188 		MSR basepri, r3
 1015              	@ 0 "" 2
 1016              	.LVL71:
 1017              		.loc 5 546 3 is_stmt 0 view .LVU245
 1018              		.thumb
 1019              		.syntax unified
 1020              	.LBE214:
 1021              	.LBE213:
 1022              	.LBE215:
 1023              	.LBE216:
 1024              	.LBE218:
 1025              		.loc 1 278 3 is_stmt 1 view .LVU246
 1026              		.loc 1 279 1 is_stmt 0 view .LVU247
ARM GAS  /tmp/ccJ6FnJD.s 			page 19


 1027 0056 0A4B     		ldr	r3, .L65
 1028 0058 1A68     		ldr	r2, [r3]
 1029 005a 019B     		ldr	r3, [sp, #4]
 1030 005c 5A40     		eors	r2, r3, r2
 1031 005e 0DD1     		bne	.L64
 1032 0060 3046     		mov	r0, r6
 1033 0062 02B0     		add	sp, sp, #8
 1034              		.cfi_remember_state
 1035              		.cfi_def_cfa_offset 16
 1036              		@ sp needed
 1037 0064 70BD     		pop	{r4, r5, r6, pc}
 1038              	.LVL72:
 1039              	.L57:
 1040              		.cfi_restore_state
 1041              		.loc 1 268 5 is_stmt 1 view .LVU248
 1042              		.loc 1 268 19 is_stmt 0 view .LVU249
 1043 0066 9C60     		str	r4, [r3, #8]
 1044 0068 AB69     		ldr	r3, [r5, #24]
 1045 006a E2E7     		b	.L58
 1046              	.L63:
 1047              	.LBB219:
 1048              	.LBB217:
 1049              		.loc 3 367 3 is_stmt 1 view .LVU250
 1050 006c 0648     		ldr	r0, .L65+8
 1051 006e FFF7FEFF 		bl	chSysHalt
 1052              	.LVL73:
 1053 0072 EDE7     		b	.L59
 1054              	.LVL74:
 1055              	.L62:
 1056              		.loc 3 367 3 is_stmt 0 view .LVU251
 1057              	.LBE217:
 1058              	.LBE219:
 1059              		.loc 1 262 3 is_stmt 1 discriminator 3 view .LVU252
 1060 0074 0548     		ldr	r0, .L65+12
 1061              	.LVL75:
 1062              		.loc 1 262 3 is_stmt 0 discriminator 3 view .LVU253
 1063 0076 FFF7FEFF 		bl	chSysHalt
 1064              	.LVL76:
 1065 007a CBE7     		b	.L56
 1066              	.LVL77:
 1067              	.L64:
 1068              		.loc 1 279 1 view .LVU254
 1069 007c FFF7FEFF 		bl	__stack_chk_fail
 1070              	.LVL78:
 1071              	.L66:
 1072              		.align	2
 1073              	.L65:
 1074 0080 00000000 		.word	.LC5
 1075 0084 00000000 		.word	ch
 1076 0088 00000000 		.word	.LANCHOR1
 1077 008c 00000000 		.word	.LANCHOR3
 1078              		.cfi_endproc
 1079              	.LFE224:
 1080              		.size	chThdSetPriority, .-chThdSetPriority
 1081              		.section	.rodata.chThdTerminate.cst4,"aM",%progbits,4
 1082              		.align	2
 1083              	.LC6:
ARM GAS  /tmp/ccJ6FnJD.s 			page 20


 1084 0000 00000000 		.word	__stack_chk_guard
 1085              		.section	.text.chThdTerminate,"ax",%progbits
 1086              		.align	1
 1087              		.p2align 4,,15
 1088              		.global	chThdTerminate
 1089              		.syntax unified
 1090              		.thumb
 1091              		.thumb_func
 1092              		.fpu fpv4-sp-d16
 1093              		.type	chThdTerminate, %function
 1094              	chThdTerminate:
 1095              	.LVL79:
 1096              	.LFB225:
 1097              		.loc 1 293 35 is_stmt 1 view -0
 1098              		.cfi_startproc
 1099              		@ args = 0, pretend = 0, frame = 8
 1100              		@ frame_needed = 0, uses_anonymous_args = 0
 1101              		.loc 1 293 35 is_stmt 0 view .LVU256
 1102 0000 10B5     		push	{r4, lr}
 1103              		.cfi_def_cfa_offset 8
 1104              		.cfi_offset 4, -8
 1105              		.cfi_offset 14, -4
 1106 0002 184B     		ldr	r3, .L73
 1107 0004 82B0     		sub	sp, sp, #8
 1108              		.cfi_def_cfa_offset 16
 1109              		.loc 1 293 35 view .LVU257
 1110 0006 1B68     		ldr	r3, [r3]
 1111 0008 0193     		str	r3, [sp, #4]
 1112 000a 4FF00003 		mov	r3,#0
 1113              		.loc 1 295 3 is_stmt 1 view .LVU258
 1114              	.LBB230:
 1115              	.LBI230:
 1116              		.loc 3 346 20 view .LVU259
 1117              	.LBB231:
 1118              		.loc 3 348 3 view .LVU260
 1119              	.LBB232:
 1120              	.LBI232:
 1121              		.loc 4 444 20 view .LVU261
 1122              	.LBE232:
 1123              	.LBE231:
 1124              	.LBE230:
 1125              		.loc 4 447 3 view .LVU262
 1126              	.LVL80:
 1127              	.LBB241:
 1128              	.LBB239:
 1129              	.LBB237:
 1130              	.LBB233:
 1131              	.LBI233:
 1132              		.loc 5 544 57 view .LVU263
 1133              	.LBB234:
 1134              		.loc 5 546 3 view .LVU264
 1135              	.LBE234:
 1136              	.LBE233:
 1137              	.LBE237:
 1138              	.LBE239:
 1139              	.LBE241:
 1140              		.loc 1 293 35 is_stmt 0 view .LVU265
ARM GAS  /tmp/ccJ6FnJD.s 			page 21


 1141 000e 0446     		mov	r4, r0
 1142              	.LBB242:
 1143              	.LBB240:
 1144              	.LBB238:
 1145              	.LBB236:
 1146              	.LBB235:
 1147              		.loc 5 546 3 view .LVU266
 1148 0010 2023     		movs	r3, #32
 1149              		.syntax unified
 1150              	@ 546 ".//ChibiOS//os/ext/CMSIS/include/core_cmFunc.h" 1
 1151 0012 83F31188 		MSR basepri, r3
 1152              	@ 0 "" 2
 1153              	.LVL81:
 1154              		.loc 5 546 3 view .LVU267
 1155              		.thumb
 1156              		.syntax unified
 1157              	.LBE235:
 1158              	.LBE236:
 1159              	.LBE238:
 1160              		.loc 3 349 3 is_stmt 1 view .LVU268
 1161 0016 FFF7FEFF 		bl	_stats_start_measure_crit_thd
 1162              	.LVL82:
 1163              		.loc 3 350 3 view .LVU269
 1164 001a FFF7FEFF 		bl	_dbg_check_lock
 1165              	.LVL83:
 1166              	.LBE240:
 1167              	.LBE242:
 1168              		.loc 1 296 3 view .LVU270
 1169              		.loc 1 296 15 is_stmt 0 view .LVU271
 1170 001e 94F82130 		ldrb	r3, [r4, #33]	@ zero_extendqisi2
 1171 0022 43F00403 		orr	r3, r3, #4
 1172 0026 84F82130 		strb	r3, [r4, #33]
 1173              		.loc 1 297 3 is_stmt 1 view .LVU272
 1174              	.LBB243:
 1175              	.LBI243:
 1176              		.loc 3 358 20 view .LVU273
 1177              	.LBB244:
 1178              		.loc 3 360 3 view .LVU274
 1179 002a FFF7FEFF 		bl	_dbg_check_unlock
 1180              	.LVL84:
 1181              		.loc 3 361 3 view .LVU275
 1182 002e FFF7FEFF 		bl	_stats_stop_measure_crit_thd
 1183              	.LVL85:
 1184              		.loc 3 367 3 view .LVU276
 1185              		.loc 3 367 3 view .LVU277
 1186              		.loc 3 367 3 view .LVU278
 1187 0032 0D4B     		ldr	r3, .L73+4
 1188 0034 1A68     		ldr	r2, [r3]
 1189 0036 9A42     		cmp	r2, r3
 1190 0038 04D0     		beq	.L68
 1191 003a 9969     		ldr	r1, [r3, #24]
 1192 003c 9368     		ldr	r3, [r2, #8]
 1193 003e 8A68     		ldr	r2, [r1, #8]
 1194 0040 9A42     		cmp	r2, r3
 1195 0042 09D3     		bcc	.L71
 1196              	.L68:
 1197              		.loc 3 367 3 view .LVU279
ARM GAS  /tmp/ccJ6FnJD.s 			page 22


 1198              		.loc 3 371 3 view .LVU280
 1199              	.LBB245:
 1200              	.LBI245:
 1201              		.loc 4 458 20 view .LVU281
 1202              	.LBE245:
 1203              	.LBE244:
 1204              	.LBE243:
 1205              		.loc 4 461 3 view .LVU282
 1206              	.LVL86:
 1207              	.LBB251:
 1208              	.LBB249:
 1209              	.LBB248:
 1210              	.LBB246:
 1211              	.LBI246:
 1212              		.loc 5 544 57 view .LVU283
 1213              	.LBB247:
 1214              		.loc 5 546 3 view .LVU284
 1215 0044 0023     		movs	r3, #0
 1216              		.syntax unified
 1217              	@ 546 ".//ChibiOS//os/ext/CMSIS/include/core_cmFunc.h" 1
 1218 0046 83F31188 		MSR basepri, r3
 1219              	@ 0 "" 2
 1220              	.LVL87:
 1221              		.loc 5 546 3 is_stmt 0 view .LVU285
 1222              		.thumb
 1223              		.syntax unified
 1224              	.LBE247:
 1225              	.LBE246:
 1226              	.LBE248:
 1227              	.LBE249:
 1228              	.LBE251:
 1229              		.loc 1 298 1 view .LVU286
 1230 004a 064B     		ldr	r3, .L73
 1231 004c 1A68     		ldr	r2, [r3]
 1232 004e 019B     		ldr	r3, [sp, #4]
 1233 0050 5A40     		eors	r2, r3, r2
 1234 0052 05D1     		bne	.L72
 1235 0054 02B0     		add	sp, sp, #8
 1236              		.cfi_remember_state
 1237              		.cfi_def_cfa_offset 8
 1238              		@ sp needed
 1239 0056 10BD     		pop	{r4, pc}
 1240              	.LVL88:
 1241              	.L71:
 1242              		.cfi_restore_state
 1243              	.LBB252:
 1244              	.LBB250:
 1245              		.loc 3 367 3 is_stmt 1 view .LVU287
 1246 0058 0448     		ldr	r0, .L73+8
 1247 005a FFF7FEFF 		bl	chSysHalt
 1248              	.LVL89:
 1249 005e F1E7     		b	.L68
 1250              	.L72:
 1251              	.LBE250:
 1252              	.LBE252:
 1253              		.loc 1 298 1 is_stmt 0 view .LVU288
 1254 0060 FFF7FEFF 		bl	__stack_chk_fail
ARM GAS  /tmp/ccJ6FnJD.s 			page 23


 1255              	.LVL90:
 1256              	.L74:
 1257              		.align	2
 1258              	.L73:
 1259 0064 00000000 		.word	.LC6
 1260 0068 00000000 		.word	ch
 1261 006c 00000000 		.word	.LANCHOR1
 1262              		.cfi_endproc
 1263              	.LFE225:
 1264              		.size	chThdTerminate, .-chThdTerminate
 1265              		.section	.rodata.chThdSleep.cst4,"aM",%progbits,4
 1266              		.align	2
 1267              	.LC7:
 1268 0000 00000000 		.word	__stack_chk_guard
 1269              		.section	.text.chThdSleep,"ax",%progbits
 1270              		.align	1
 1271              		.p2align 4,,15
 1272              		.global	chThdSleep
 1273              		.syntax unified
 1274              		.thumb
 1275              		.thumb_func
 1276              		.fpu fpv4-sp-d16
 1277              		.type	chThdSleep, %function
 1278              	chThdSleep:
 1279              	.LVL91:
 1280              	.LFB226:
 1281              		.loc 1 312 33 is_stmt 1 view -0
 1282              		.cfi_startproc
 1283              		@ args = 0, pretend = 0, frame = 8
 1284              		@ frame_needed = 0, uses_anonymous_args = 0
 1285              		.loc 1 312 33 is_stmt 0 view .LVU290
 1286 0000 10B5     		push	{r4, lr}
 1287              		.cfi_def_cfa_offset 8
 1288              		.cfi_offset 4, -8
 1289              		.cfi_offset 14, -4
 1290 0002 1A4B     		ldr	r3, .L83
 1291 0004 82B0     		sub	sp, sp, #8
 1292              		.cfi_def_cfa_offset 16
 1293              		.loc 1 312 33 view .LVU291
 1294 0006 1B68     		ldr	r3, [r3]
 1295 0008 0193     		str	r3, [sp, #4]
 1296 000a 4FF00003 		mov	r3,#0
 1297              		.loc 1 314 3 is_stmt 1 view .LVU292
 1298              	.LBB265:
 1299              	.LBI265:
 1300              		.loc 3 346 20 view .LVU293
 1301              	.LBB266:
 1302              		.loc 3 348 3 view .LVU294
 1303              	.LBB267:
 1304              	.LBI267:
 1305              		.loc 4 444 20 view .LVU295
 1306              	.LBE267:
 1307              	.LBE266:
 1308              	.LBE265:
 1309              		.loc 4 447 3 view .LVU296
 1310              	.LVL92:
 1311              	.LBB276:
ARM GAS  /tmp/ccJ6FnJD.s 			page 24


 1312              	.LBB274:
 1313              	.LBB272:
 1314              	.LBB268:
 1315              	.LBI268:
 1316              		.loc 5 544 57 view .LVU297
 1317              	.LBB269:
 1318              		.loc 5 546 3 view .LVU298
 1319              	.LBE269:
 1320              	.LBE268:
 1321              	.LBE272:
 1322              	.LBE274:
 1323              	.LBE276:
 1324              		.loc 1 312 33 is_stmt 0 view .LVU299
 1325 000e 0446     		mov	r4, r0
 1326              	.LBB277:
 1327              	.LBB275:
 1328              	.LBB273:
 1329              	.LBB271:
 1330              	.LBB270:
 1331              		.loc 5 546 3 view .LVU300
 1332 0010 2023     		movs	r3, #32
 1333              		.syntax unified
 1334              	@ 546 ".//ChibiOS//os/ext/CMSIS/include/core_cmFunc.h" 1
 1335 0012 83F31188 		MSR basepri, r3
 1336              	@ 0 "" 2
 1337              	.LVL93:
 1338              		.loc 5 546 3 view .LVU301
 1339              		.thumb
 1340              		.syntax unified
 1341              	.LBE270:
 1342              	.LBE271:
 1343              	.LBE273:
 1344              		.loc 3 349 3 is_stmt 1 view .LVU302
 1345 0016 FFF7FEFF 		bl	_stats_start_measure_crit_thd
 1346              	.LVL94:
 1347              		.loc 3 350 3 view .LVU303
 1348 001a FFF7FEFF 		bl	_dbg_check_lock
 1349              	.LVL95:
 1350              	.LBE275:
 1351              	.LBE277:
 1352              		.loc 1 315 3 view .LVU304
 1353              	.LBB278:
 1354              	.LBI278:
 1355              		.loc 6 264 20 view .LVU305
 1356              	.LBB279:
 1357              		.loc 6 266 3 view .LVU306
 1358              		.loc 6 266 3 view .LVU307
 1359              		.loc 6 266 3 view .LVU308
 1360 001e F4B1     		cbz	r4, .L80
 1361              	.L76:
 1362              		.loc 6 266 3 view .LVU309
 1363              		.loc 6 268 3 view .LVU310
 1364              		.loc 6 268 10 is_stmt 0 view .LVU311
 1365 0020 2146     		mov	r1, r4
 1366 0022 0820     		movs	r0, #8
 1367 0024 FFF7FEFF 		bl	chSchGoSleepTimeoutS
 1368              	.LVL96:
ARM GAS  /tmp/ccJ6FnJD.s 			page 25


 1369              		.loc 6 268 10 view .LVU312
 1370              	.LBE279:
 1371              	.LBE278:
 1372              		.loc 1 316 3 is_stmt 1 view .LVU313
 1373              	.LBB281:
 1374              	.LBI281:
 1375              		.loc 3 358 20 view .LVU314
 1376              	.LBB282:
 1377              		.loc 3 360 3 view .LVU315
 1378 0028 FFF7FEFF 		bl	_dbg_check_unlock
 1379              	.LVL97:
 1380              		.loc 3 361 3 view .LVU316
 1381 002c FFF7FEFF 		bl	_stats_stop_measure_crit_thd
 1382              	.LVL98:
 1383              		.loc 3 367 3 view .LVU317
 1384              		.loc 3 367 3 view .LVU318
 1385              		.loc 3 367 3 view .LVU319
 1386 0030 0F4B     		ldr	r3, .L83+4
 1387 0032 1A68     		ldr	r2, [r3]
 1388 0034 9A42     		cmp	r2, r3
 1389 0036 04D0     		beq	.L77
 1390 0038 9969     		ldr	r1, [r3, #24]
 1391 003a 9368     		ldr	r3, [r2, #8]
 1392 003c 8A68     		ldr	r2, [r1, #8]
 1393 003e 9A42     		cmp	r2, r3
 1394 0040 09D3     		bcc	.L81
 1395              	.L77:
 1396              		.loc 3 367 3 view .LVU320
 1397              		.loc 3 371 3 view .LVU321
 1398              	.LBB283:
 1399              	.LBI283:
 1400              		.loc 4 458 20 view .LVU322
 1401              	.LBE283:
 1402              	.LBE282:
 1403              	.LBE281:
 1404              		.loc 4 461 3 view .LVU323
 1405              	.LVL99:
 1406              	.LBB289:
 1407              	.LBB287:
 1408              	.LBB286:
 1409              	.LBB284:
 1410              	.LBI284:
 1411              		.loc 5 544 57 view .LVU324
 1412              	.LBB285:
 1413              		.loc 5 546 3 view .LVU325
 1414 0042 0023     		movs	r3, #0
 1415              		.syntax unified
 1416              	@ 546 ".//ChibiOS//os/ext/CMSIS/include/core_cmFunc.h" 1
 1417 0044 83F31188 		MSR basepri, r3
 1418              	@ 0 "" 2
 1419              	.LVL100:
 1420              		.loc 5 546 3 is_stmt 0 view .LVU326
 1421              		.thumb
 1422              		.syntax unified
 1423              	.LBE285:
 1424              	.LBE284:
 1425              	.LBE286:
ARM GAS  /tmp/ccJ6FnJD.s 			page 26


 1426              	.LBE287:
 1427              	.LBE289:
 1428              		.loc 1 317 1 view .LVU327
 1429 0048 084B     		ldr	r3, .L83
 1430 004a 1A68     		ldr	r2, [r3]
 1431 004c 019B     		ldr	r3, [sp, #4]
 1432 004e 5A40     		eors	r2, r3, r2
 1433 0050 09D1     		bne	.L82
 1434 0052 02B0     		add	sp, sp, #8
 1435              		.cfi_remember_state
 1436              		.cfi_def_cfa_offset 8
 1437              		@ sp needed
 1438 0054 10BD     		pop	{r4, pc}
 1439              	.LVL101:
 1440              	.L81:
 1441              		.cfi_restore_state
 1442              	.LBB290:
 1443              	.LBB288:
 1444              		.loc 3 367 3 is_stmt 1 view .LVU328
 1445 0056 0748     		ldr	r0, .L83+8
 1446 0058 FFF7FEFF 		bl	chSysHalt
 1447              	.LVL102:
 1448 005c F1E7     		b	.L77
 1449              	.LVL103:
 1450              	.L80:
 1451              		.loc 3 367 3 is_stmt 0 view .LVU329
 1452              	.LBE288:
 1453              	.LBE290:
 1454              	.LBB291:
 1455              	.LBB280:
 1456              		.loc 6 266 3 is_stmt 1 view .LVU330
 1457 005e 0648     		ldr	r0, .L83+12
 1458 0060 FFF7FEFF 		bl	chSysHalt
 1459              	.LVL104:
 1460 0064 DCE7     		b	.L76
 1461              	.LVL105:
 1462              	.L82:
 1463              		.loc 6 266 3 is_stmt 0 view .LVU331
 1464              	.LBE280:
 1465              	.LBE291:
 1466              		.loc 1 317 1 view .LVU332
 1467 0066 FFF7FEFF 		bl	__stack_chk_fail
 1468              	.LVL106:
 1469              	.L84:
 1470 006a 00BF     		.align	2
 1471              	.L83:
 1472 006c 00000000 		.word	.LC7
 1473 0070 00000000 		.word	ch
 1474 0074 00000000 		.word	.LANCHOR1
 1475 0078 00000000 		.word	.LANCHOR4
 1476              		.cfi_endproc
 1477              	.LFE226:
 1478              		.size	chThdSleep, .-chThdSleep
 1479              		.section	.rodata.chThdSleepUntil.cst4,"aM",%progbits,4
 1480              		.align	2
 1481              	.LC8:
 1482 0000 00000000 		.word	__stack_chk_guard
ARM GAS  /tmp/ccJ6FnJD.s 			page 27


 1483              		.section	.text.chThdSleepUntil,"ax",%progbits
 1484              		.align	1
 1485              		.p2align 4,,15
 1486              		.global	chThdSleepUntil
 1487              		.syntax unified
 1488              		.thumb
 1489              		.thumb_func
 1490              		.fpu fpv4-sp-d16
 1491              		.type	chThdSleepUntil, %function
 1492              	chThdSleepUntil:
 1493              	.LVL107:
 1494              	.LFB227:
 1495              		.loc 1 332 38 is_stmt 1 view -0
 1496              		.cfi_startproc
 1497              		@ args = 0, pretend = 0, frame = 8
 1498              		@ frame_needed = 0, uses_anonymous_args = 0
 1499              		.loc 1 332 38 is_stmt 0 view .LVU334
 1500 0000 30B5     		push	{r4, r5, lr}
 1501              		.cfi_def_cfa_offset 12
 1502              		.cfi_offset 4, -12
 1503              		.cfi_offset 5, -8
 1504              		.cfi_offset 14, -4
 1505 0002 194B     		ldr	r3, .L96
 1506 0004 83B0     		sub	sp, sp, #12
 1507              		.cfi_def_cfa_offset 24
 1508              		.loc 1 332 38 view .LVU335
 1509 0006 1B68     		ldr	r3, [r3]
 1510 0008 0193     		str	r3, [sp, #4]
 1511 000a 4FF00003 		mov	r3,#0
 1512              		.loc 1 334 3 is_stmt 1 view .LVU336
 1513              	.LBB306:
 1514              	.LBI306:
 1515              		.loc 3 346 20 view .LVU337
 1516              	.LBB307:
 1517              		.loc 3 348 3 view .LVU338
 1518              	.LBB308:
 1519              	.LBI308:
 1520              		.loc 4 444 20 view .LVU339
 1521              	.LBE308:
 1522              	.LBE307:
 1523              	.LBE306:
 1524              		.loc 4 447 3 view .LVU340
 1525              	.LVL108:
 1526              	.LBB318:
 1527              	.LBB315:
 1528              	.LBB313:
 1529              	.LBB309:
 1530              	.LBI309:
 1531              		.loc 5 544 57 view .LVU341
 1532              	.LBB310:
 1533              		.loc 5 546 3 view .LVU342
 1534              	.LBE310:
 1535              	.LBE309:
 1536              	.LBE313:
 1537              	.LBE315:
 1538              	.LBE318:
 1539              		.loc 1 332 38 is_stmt 0 view .LVU343
ARM GAS  /tmp/ccJ6FnJD.s 			page 28


 1540 000e 0446     		mov	r4, r0
 1541              	.LBB319:
 1542              	.LBB316:
 1543              	.LBB314:
 1544              	.LBB312:
 1545              	.LBB311:
 1546              		.loc 5 546 3 view .LVU344
 1547 0010 2023     		movs	r3, #32
 1548              		.syntax unified
 1549              	@ 546 ".//ChibiOS//os/ext/CMSIS/include/core_cmFunc.h" 1
 1550 0012 83F31188 		MSR basepri, r3
 1551              	@ 0 "" 2
 1552              	.LVL109:
 1553              		.loc 5 546 3 view .LVU345
 1554              		.thumb
 1555              		.syntax unified
 1556              	.LBE311:
 1557              	.LBE312:
 1558              	.LBE314:
 1559              		.loc 3 349 3 is_stmt 1 view .LVU346
 1560              	.LBE316:
 1561              	.LBE319:
 1562              	.LBB320:
 1563              	.LBB321:
 1564              		.file 7 ".//ChibiOS//os/rt/include/chvt.h"
 1565              		.loc 7 231 19 is_stmt 0 view .LVU347
 1566 0016 154D     		ldr	r5, .L96+4
 1567              	.LBE321:
 1568              	.LBE320:
 1569              	.LBB323:
 1570              	.LBB317:
 1571              		.loc 3 349 3 view .LVU348
 1572 0018 FFF7FEFF 		bl	_stats_start_measure_crit_thd
 1573              	.LVL110:
 1574              		.loc 3 350 3 is_stmt 1 view .LVU349
 1575 001c FFF7FEFF 		bl	_dbg_check_lock
 1576              	.LVL111:
 1577              	.LBE317:
 1578              	.LBE323:
 1579              		.loc 1 335 3 view .LVU350
 1580              	.LBB324:
 1581              	.LBI320:
 1582              		.loc 7 228 25 view .LVU351
 1583              	.LBB322:
 1584              		.loc 7 231 3 view .LVU352
 1585              		.loc 7 231 19 is_stmt 0 view .LVU353
 1586 0020 A96A     		ldr	r1, [r5, #40]
 1587              	.LVL112:
 1588              		.loc 7 231 19 view .LVU354
 1589              	.LBE322:
 1590              	.LBE324:
 1591              		.loc 1 336 3 is_stmt 1 view .LVU355
 1592              		.loc 1 336 6 is_stmt 0 view .LVU356
 1593 0022 611A     		subs	r1, r4, r1
 1594              	.LVL113:
 1595              		.loc 1 336 6 view .LVU357
 1596 0024 19D1     		bne	.L93
ARM GAS  /tmp/ccJ6FnJD.s 			page 29


 1597              	.LVL114:
 1598              	.L86:
 1599              		.loc 1 339 3 is_stmt 1 view .LVU358
 1600              	.LBB325:
 1601              	.LBI325:
 1602              		.loc 3 358 20 view .LVU359
 1603              	.LBB326:
 1604              		.loc 3 360 3 view .LVU360
 1605 0026 FFF7FEFF 		bl	_dbg_check_unlock
 1606              	.LVL115:
 1607              		.loc 3 361 3 view .LVU361
 1608 002a FFF7FEFF 		bl	_stats_stop_measure_crit_thd
 1609              	.LVL116:
 1610              		.loc 3 367 3 view .LVU362
 1611              		.loc 3 367 3 view .LVU363
 1612              		.loc 3 367 3 view .LVU364
 1613 002e 2B68     		ldr	r3, [r5]
 1614 0030 AB42     		cmp	r3, r5
 1615 0032 04D0     		beq	.L87
 1616 0034 AA69     		ldr	r2, [r5, #24]
 1617 0036 9B68     		ldr	r3, [r3, #8]
 1618 0038 9268     		ldr	r2, [r2, #8]
 1619 003a 9A42     		cmp	r2, r3
 1620 003c 09D3     		bcc	.L94
 1621              	.L87:
 1622              		.loc 3 367 3 view .LVU365
 1623              		.loc 3 371 3 view .LVU366
 1624              	.LBB327:
 1625              	.LBI327:
 1626              		.loc 4 458 20 view .LVU367
 1627              	.LBE327:
 1628              	.LBE326:
 1629              	.LBE325:
 1630              		.loc 4 461 3 view .LVU368
 1631              	.LVL117:
 1632              	.LBB333:
 1633              	.LBB331:
 1634              	.LBB330:
 1635              	.LBB328:
 1636              	.LBI328:
 1637              		.loc 5 544 57 view .LVU369
 1638              	.LBB329:
 1639              		.loc 5 546 3 view .LVU370
 1640 003e 0023     		movs	r3, #0
 1641              		.syntax unified
 1642              	@ 546 ".//ChibiOS//os/ext/CMSIS/include/core_cmFunc.h" 1
 1643 0040 83F31188 		MSR basepri, r3
 1644              	@ 0 "" 2
 1645              	.LVL118:
 1646              		.loc 5 546 3 is_stmt 0 view .LVU371
 1647              		.thumb
 1648              		.syntax unified
 1649              	.LBE329:
 1650              	.LBE328:
 1651              	.LBE330:
 1652              	.LBE331:
 1653              	.LBE333:
ARM GAS  /tmp/ccJ6FnJD.s 			page 30


 1654              		.loc 1 340 1 view .LVU372
 1655 0044 084B     		ldr	r3, .L96
 1656 0046 1A68     		ldr	r2, [r3]
 1657 0048 019B     		ldr	r3, [sp, #4]
 1658 004a 5A40     		eors	r2, r3, r2
 1659 004c 09D1     		bne	.L95
 1660 004e 03B0     		add	sp, sp, #12
 1661              		.cfi_remember_state
 1662              		.cfi_def_cfa_offset 12
 1663              		@ sp needed
 1664 0050 30BD     		pop	{r4, r5, pc}
 1665              	.L94:
 1666              		.cfi_restore_state
 1667              	.LBB334:
 1668              	.LBB332:
 1669              		.loc 3 367 3 is_stmt 1 view .LVU373
 1670 0052 0748     		ldr	r0, .L96+8
 1671 0054 FFF7FEFF 		bl	chSysHalt
 1672              	.LVL119:
 1673 0058 F1E7     		b	.L87
 1674              	.LVL120:
 1675              	.L93:
 1676              		.loc 3 367 3 is_stmt 0 view .LVU374
 1677              	.LBE332:
 1678              	.LBE334:
 1679              		.loc 1 337 5 is_stmt 1 view .LVU375
 1680              	.LBB335:
 1681              	.LBI335:
 1682              		.loc 6 264 20 view .LVU376
 1683              	.LBB336:
 1684              		.loc 6 266 3 view .LVU377
 1685              		.loc 6 266 3 view .LVU378
 1686              		.loc 6 266 3 view .LVU379
 1687              		.loc 6 266 3 view .LVU380
 1688              		.loc 6 268 3 view .LVU381
 1689              		.loc 6 268 10 is_stmt 0 view .LVU382
 1690 005a 0820     		movs	r0, #8
 1691 005c FFF7FEFF 		bl	chSchGoSleepTimeoutS
 1692              	.LVL121:
 1693              		.loc 6 269 1 view .LVU383
 1694 0060 E1E7     		b	.L86
 1695              	.L95:
 1696              		.loc 6 269 1 view .LVU384
 1697              	.LBE336:
 1698              	.LBE335:
 1699              		.loc 1 340 1 view .LVU385
 1700 0062 FFF7FEFF 		bl	__stack_chk_fail
 1701              	.LVL122:
 1702              	.L97:
 1703 0066 00BF     		.align	2
 1704              	.L96:
 1705 0068 00000000 		.word	.LC8
 1706 006c 00000000 		.word	ch
 1707 0070 00000000 		.word	.LANCHOR1
 1708              		.cfi_endproc
 1709              	.LFE227:
 1710              		.size	chThdSleepUntil, .-chThdSleepUntil
ARM GAS  /tmp/ccJ6FnJD.s 			page 31


 1711              		.section	.rodata.chThdSleepUntilWindowed.cst4,"aM",%progbits,4
 1712              		.align	2
 1713              	.LC9:
 1714 0000 00000000 		.word	__stack_chk_guard
 1715              		.section	.text.chThdSleepUntilWindowed,"ax",%progbits
 1716              		.align	1
 1717              		.p2align 4,,15
 1718              		.global	chThdSleepUntilWindowed
 1719              		.syntax unified
 1720              		.thumb
 1721              		.thumb_func
 1722              		.fpu fpv4-sp-d16
 1723              		.type	chThdSleepUntilWindowed, %function
 1724              	chThdSleepUntilWindowed:
 1725              	.LVL123:
 1726              	.LFB228:
 1727              		.loc 1 356 67 is_stmt 1 view -0
 1728              		.cfi_startproc
 1729              		@ args = 0, pretend = 0, frame = 16
 1730              		@ frame_needed = 0, uses_anonymous_args = 0
 1731              		.loc 1 356 67 is_stmt 0 view .LVU387
 1732 0000 70B5     		push	{r4, r5, r6, lr}
 1733              		.cfi_def_cfa_offset 16
 1734              		.cfi_offset 4, -16
 1735              		.cfi_offset 5, -12
 1736              		.cfi_offset 6, -8
 1737              		.cfi_offset 14, -4
 1738 0002 1F4B     		ldr	r3, .L108
 1739 0004 84B0     		sub	sp, sp, #16
 1740              		.cfi_def_cfa_offset 32
 1741              		.loc 1 356 67 view .LVU388
 1742 0006 1B68     		ldr	r3, [r3]
 1743 0008 0393     		str	r3, [sp, #12]
 1744 000a 4FF00003 		mov	r3,#0
 1745              		.loc 1 357 3 is_stmt 1 view .LVU389
 1746              		.loc 1 359 3 view .LVU390
 1747              	.LBB353:
 1748              	.LBI353:
 1749              		.loc 3 346 20 view .LVU391
 1750              	.LBB354:
 1751              		.loc 3 348 3 view .LVU392
 1752              	.LBB355:
 1753              	.LBI355:
 1754              		.loc 4 444 20 view .LVU393
 1755              	.LBE355:
 1756              	.LBE354:
 1757              	.LBE353:
 1758              		.loc 4 447 3 view .LVU394
 1759              	.LVL124:
 1760              	.LBB365:
 1761              	.LBB362:
 1762              	.LBB360:
 1763              	.LBB356:
 1764              	.LBI356:
 1765              		.loc 5 544 57 view .LVU395
 1766              	.LBB357:
 1767              		.loc 5 546 3 view .LVU396
ARM GAS  /tmp/ccJ6FnJD.s 			page 32


 1768              	.LBE357:
 1769              	.LBE356:
 1770              	.LBE360:
 1771              	.LBE362:
 1772              	.LBE365:
 1773              		.loc 1 356 67 is_stmt 0 view .LVU397
 1774 000e 0446     		mov	r4, r0
 1775 0010 0D46     		mov	r5, r1
 1776              	.LBB366:
 1777              	.LBB363:
 1778              	.LBB361:
 1779              	.LBB359:
 1780              	.LBB358:
 1781              		.loc 5 546 3 view .LVU398
 1782 0012 2023     		movs	r3, #32
 1783              		.syntax unified
 1784              	@ 546 ".//ChibiOS//os/ext/CMSIS/include/core_cmFunc.h" 1
 1785 0014 83F31188 		MSR basepri, r3
 1786              	@ 0 "" 2
 1787              	.LVL125:
 1788              		.loc 5 546 3 view .LVU399
 1789              		.thumb
 1790              		.syntax unified
 1791              	.LBE358:
 1792              	.LBE359:
 1793              	.LBE361:
 1794              		.loc 3 349 3 is_stmt 1 view .LVU400
 1795              	.LBE363:
 1796              	.LBE366:
 1797              	.LBB367:
 1798              	.LBB368:
 1799              		.loc 7 231 19 is_stmt 0 view .LVU401
 1800 0018 1A4E     		ldr	r6, .L108+4
 1801              	.LBE368:
 1802              	.LBE367:
 1803              	.LBB370:
 1804              	.LBB364:
 1805              		.loc 3 349 3 view .LVU402
 1806 001a FFF7FEFF 		bl	_stats_start_measure_crit_thd
 1807              	.LVL126:
 1808              		.loc 3 350 3 is_stmt 1 view .LVU403
 1809 001e FFF7FEFF 		bl	_dbg_check_lock
 1810              	.LVL127:
 1811              	.LBE364:
 1812              	.LBE370:
 1813              		.loc 1 360 3 view .LVU404
 1814              	.LBB371:
 1815              	.LBI367:
 1816              		.loc 7 228 25 view .LVU405
 1817              	.LBB369:
 1818              		.loc 7 231 3 view .LVU406
 1819              		.loc 7 231 19 is_stmt 0 view .LVU407
 1820 0022 B16A     		ldr	r1, [r6, #40]
 1821              	.LVL128:
 1822              		.loc 7 231 19 view .LVU408
 1823              	.LBE369:
 1824              	.LBE371:
ARM GAS  /tmp/ccJ6FnJD.s 			page 33


 1825              		.loc 1 361 3 is_stmt 1 view .LVU409
 1826              	.LBB372:
 1827              	.LBI372:
 1828              		.loc 7 284 20 view .LVU410
 1829              	.LBB373:
 1830              		.loc 7 288 3 view .LVU411
 1831              		.loc 7 288 39 is_stmt 0 view .LVU412
 1832 0024 2B1B     		subs	r3, r5, r4
 1833              		.loc 7 288 23 view .LVU413
 1834 0026 0C1B     		subs	r4, r1, r4
 1835              	.LVL129:
 1836              		.loc 7 288 23 view .LVU414
 1837              	.LBE373:
 1838              	.LBE372:
 1839              		.loc 1 361 6 view .LVU415
 1840 0028 9C42     		cmp	r4, r3
 1841 002a 1AD3     		bcc	.L104
 1842              	.LVL130:
 1843              	.L99:
 1844              		.loc 1 364 3 is_stmt 1 view .LVU416
 1845              	.LBB374:
 1846              	.LBI374:
 1847              		.loc 3 358 20 view .LVU417
 1848              	.LBB375:
 1849              		.loc 3 360 3 view .LVU418
 1850 002c FFF7FEFF 		bl	_dbg_check_unlock
 1851              	.LVL131:
 1852              		.loc 3 361 3 view .LVU419
 1853 0030 FFF7FEFF 		bl	_stats_stop_measure_crit_thd
 1854              	.LVL132:
 1855              		.loc 3 367 3 view .LVU420
 1856              		.loc 3 367 3 view .LVU421
 1857              		.loc 3 367 3 view .LVU422
 1858 0034 3368     		ldr	r3, [r6]
 1859 0036 B342     		cmp	r3, r6
 1860 0038 04D0     		beq	.L101
 1861 003a B269     		ldr	r2, [r6, #24]
 1862 003c 9B68     		ldr	r3, [r3, #8]
 1863 003e 9268     		ldr	r2, [r2, #8]
 1864 0040 9A42     		cmp	r2, r3
 1865 0042 0AD3     		bcc	.L105
 1866              	.L101:
 1867              		.loc 3 367 3 view .LVU423
 1868              		.loc 3 371 3 view .LVU424
 1869              	.LBB376:
 1870              	.LBI376:
 1871              		.loc 4 458 20 view .LVU425
 1872              	.LBE376:
 1873              	.LBE375:
 1874              	.LBE374:
 1875              		.loc 4 461 3 view .LVU426
 1876              	.LVL133:
 1877              	.LBB382:
 1878              	.LBB380:
 1879              	.LBB379:
 1880              	.LBB377:
 1881              	.LBI377:
ARM GAS  /tmp/ccJ6FnJD.s 			page 34


 1882              		.loc 5 544 57 view .LVU427
 1883              	.LBB378:
 1884              		.loc 5 546 3 view .LVU428
 1885 0044 0023     		movs	r3, #0
 1886              		.syntax unified
 1887              	@ 546 ".//ChibiOS//os/ext/CMSIS/include/core_cmFunc.h" 1
 1888 0046 83F31188 		MSR basepri, r3
 1889              	@ 0 "" 2
 1890              	.LVL134:
 1891              		.loc 5 546 3 is_stmt 0 view .LVU429
 1892              		.thumb
 1893              		.syntax unified
 1894              	.LBE378:
 1895              	.LBE377:
 1896              	.LBE379:
 1897              	.LBE380:
 1898              	.LBE382:
 1899              		.loc 1 366 3 is_stmt 1 view .LVU430
 1900              		.loc 1 367 1 is_stmt 0 view .LVU431
 1901 004a 0D4B     		ldr	r3, .L108
 1902 004c 1A68     		ldr	r2, [r3]
 1903 004e 039B     		ldr	r3, [sp, #12]
 1904 0050 5A40     		eors	r2, r3, r2
 1905 0052 12D1     		bne	.L106
 1906 0054 2846     		mov	r0, r5
 1907 0056 04B0     		add	sp, sp, #16
 1908              		.cfi_remember_state
 1909              		.cfi_def_cfa_offset 16
 1910              		@ sp needed
 1911 0058 70BD     		pop	{r4, r5, r6, pc}
 1912              	.LVL135:
 1913              	.L105:
 1914              		.cfi_restore_state
 1915              	.LBB383:
 1916              	.LBB381:
 1917              		.loc 3 367 3 is_stmt 1 view .LVU432
 1918 005a 0B48     		ldr	r0, .L108+8
 1919 005c FFF7FEFF 		bl	chSysHalt
 1920              	.LVL136:
 1921 0060 F0E7     		b	.L101
 1922              	.LVL137:
 1923              	.L104:
 1924              		.loc 3 367 3 is_stmt 0 view .LVU433
 1925              	.LBE381:
 1926              	.LBE383:
 1927              		.loc 1 362 2 is_stmt 1 view .LVU434
 1928              	.LBB384:
 1929              	.LBI384:
 1930              		.loc 6 264 20 view .LVU435
 1931              	.LBB385:
 1932              		.loc 6 266 3 view .LVU436
 1933              		.loc 6 266 3 view .LVU437
 1934              		.loc 6 266 3 view .LVU438
 1935 0062 691A     		subs	r1, r5, r1
 1936              	.LVL138:
 1937              		.loc 6 266 3 is_stmt 0 view .LVU439
 1938 0064 03D0     		beq	.L107
ARM GAS  /tmp/ccJ6FnJD.s 			page 35


 1939              	.LVL139:
 1940              	.L100:
 1941              		.loc 6 266 3 is_stmt 1 view .LVU440
 1942              		.loc 6 268 3 view .LVU441
 1943              		.loc 6 268 10 is_stmt 0 view .LVU442
 1944 0066 0820     		movs	r0, #8
 1945 0068 FFF7FEFF 		bl	chSchGoSleepTimeoutS
 1946              	.LVL140:
 1947              		.loc 6 269 1 view .LVU443
 1948 006c DEE7     		b	.L99
 1949              	.LVL141:
 1950              	.L107:
 1951              		.loc 6 266 3 view .LVU444
 1952 006e 0748     		ldr	r0, .L108+12
 1953 0070 0191     		str	r1, [sp, #4]
 1954              		.loc 6 266 3 is_stmt 1 view .LVU445
 1955 0072 FFF7FEFF 		bl	chSysHalt
 1956              	.LVL142:
 1957              		.loc 6 266 3 is_stmt 0 view .LVU446
 1958 0076 0199     		ldr	r1, [sp, #4]
 1959 0078 F5E7     		b	.L100
 1960              	.LVL143:
 1961              	.L106:
 1962              		.loc 6 266 3 view .LVU447
 1963              	.LBE385:
 1964              	.LBE384:
 1965              		.loc 1 367 1 view .LVU448
 1966 007a FFF7FEFF 		bl	__stack_chk_fail
 1967              	.LVL144:
 1968              	.L109:
 1969 007e 00BF     		.align	2
 1970              	.L108:
 1971 0080 00000000 		.word	.LC9
 1972 0084 00000000 		.word	ch
 1973 0088 00000000 		.word	.LANCHOR1
 1974 008c 00000000 		.word	.LANCHOR4
 1975              		.cfi_endproc
 1976              	.LFE228:
 1977              		.size	chThdSleepUntilWindowed, .-chThdSleepUntilWindowed
 1978              		.section	.rodata.chThdYield.cst4,"aM",%progbits,4
 1979              		.align	2
 1980              	.LC10:
 1981 0000 00000000 		.word	__stack_chk_guard
 1982              		.section	.text.chThdYield,"ax",%progbits
 1983              		.align	1
 1984              		.p2align 4,,15
 1985              		.global	chThdYield
 1986              		.syntax unified
 1987              		.thumb
 1988              		.thumb_func
 1989              		.fpu fpv4-sp-d16
 1990              		.type	chThdYield, %function
 1991              	chThdYield:
 1992              	.LFB229:
 1993              		.loc 1 376 23 is_stmt 1 view -0
 1994              		.cfi_startproc
 1995              		@ args = 0, pretend = 0, frame = 8
ARM GAS  /tmp/ccJ6FnJD.s 			page 36


 1996              		@ frame_needed = 0, uses_anonymous_args = 0
 1997 0000 10B5     		push	{r4, lr}
 1998              		.cfi_def_cfa_offset 8
 1999              		.cfi_offset 4, -8
 2000              		.cfi_offset 14, -4
 2001 0002 1B4B     		ldr	r3, .L118
 2002 0004 82B0     		sub	sp, sp, #8
 2003              		.cfi_def_cfa_offset 16
 2004              		.loc 1 376 23 is_stmt 0 view .LVU450
 2005 0006 1B68     		ldr	r3, [r3]
 2006 0008 0193     		str	r3, [sp, #4]
 2007 000a 4FF00003 		mov	r3,#0
 2008              		.loc 1 378 3 is_stmt 1 view .LVU451
 2009              	.LBB400:
 2010              	.LBI400:
 2011              		.loc 3 346 20 view .LVU452
 2012              	.LBB401:
 2013              		.loc 3 348 3 view .LVU453
 2014              	.LBB402:
 2015              	.LBI402:
 2016              		.loc 4 444 20 view .LVU454
 2017              	.LBE402:
 2018              	.LBE401:
 2019              	.LBE400:
 2020              		.loc 4 447 3 view .LVU455
 2021              	.LVL145:
 2022              	.LBB408:
 2023              	.LBB406:
 2024              	.LBB405:
 2025              	.LBB403:
 2026              	.LBI403:
 2027              		.loc 5 544 57 view .LVU456
 2028              	.LBB404:
 2029              		.loc 5 546 3 view .LVU457
 2030 000e 2023     		movs	r3, #32
 2031              		.syntax unified
 2032              	@ 546 ".//ChibiOS//os/ext/CMSIS/include/core_cmFunc.h" 1
 2033 0010 83F31188 		MSR basepri, r3
 2034              	@ 0 "" 2
 2035              	.LVL146:
 2036              		.loc 5 546 3 is_stmt 0 view .LVU458
 2037              		.thumb
 2038              		.syntax unified
 2039              	.LBE404:
 2040              	.LBE403:
 2041              	.LBE405:
 2042              		.loc 3 349 3 is_stmt 1 view .LVU459
 2043              	.LBE406:
 2044              	.LBE408:
 2045              	.LBB409:
 2046              	.LBB410:
 2047              	.LBB411:
 2048              	.LBB412:
 2049              		.loc 2 731 10 is_stmt 0 view .LVU460
 2050 0014 174C     		ldr	r4, .L118+4
 2051              	.LBE412:
 2052              	.LBE411:
ARM GAS  /tmp/ccJ6FnJD.s 			page 37


 2053              	.LBE410:
 2054              	.LBE409:
 2055              	.LBB417:
 2056              	.LBB407:
 2057              		.loc 3 349 3 view .LVU461
 2058 0016 FFF7FEFF 		bl	_stats_start_measure_crit_thd
 2059              	.LVL147:
 2060              		.loc 3 350 3 is_stmt 1 view .LVU462
 2061 001a FFF7FEFF 		bl	_dbg_check_lock
 2062              	.LVL148:
 2063              	.LBE407:
 2064              	.LBE417:
 2065              		.loc 1 379 3 view .LVU463
 2066              	.LBB418:
 2067              	.LBI409:
 2068              		.loc 2 741 20 view .LVU464
 2069              	.LBB415:
 2070              		.loc 2 743 3 view .LVU465
 2071 001e FFF7FEFF 		bl	chDbgCheckClassS
 2072              	.LVL149:
 2073              		.loc 2 745 3 view .LVU466
 2074              	.LBB414:
 2075              	.LBI411:
 2076              		.loc 2 727 20 view .LVU467
 2077              	.LBB413:
 2078              		.loc 2 729 3 view .LVU468
 2079 0022 FFF7FEFF 		bl	chDbgCheckClassS
 2080              	.LVL150:
 2081              		.loc 2 731 3 view .LVU469
 2082              		.loc 2 731 10 is_stmt 0 view .LVU470
 2083 0026 2268     		ldr	r2, [r4]
 2084              		.loc 2 731 47 view .LVU471
 2085 0028 A369     		ldr	r3, [r4, #24]
 2086              	.LBE413:
 2087              	.LBE414:
 2088              		.loc 2 745 6 view .LVU472
 2089 002a 9268     		ldr	r2, [r2, #8]
 2090 002c 9B68     		ldr	r3, [r3, #8]
 2091 002e 9A42     		cmp	r2, r3
 2092 0030 19D2     		bcs	.L115
 2093              	.L111:
 2094              	.LBE415:
 2095              	.LBE418:
 2096              		.loc 1 380 3 is_stmt 1 view .LVU473
 2097              	.LBB419:
 2098              	.LBI419:
 2099              		.loc 3 358 20 view .LVU474
 2100              	.LBB420:
 2101              		.loc 3 360 3 view .LVU475
 2102 0032 FFF7FEFF 		bl	_dbg_check_unlock
 2103              	.LVL151:
 2104              		.loc 3 361 3 view .LVU476
 2105 0036 FFF7FEFF 		bl	_stats_stop_measure_crit_thd
 2106              	.LVL152:
 2107              		.loc 3 367 3 view .LVU477
 2108              		.loc 3 367 3 view .LVU478
 2109              		.loc 3 367 3 view .LVU479
ARM GAS  /tmp/ccJ6FnJD.s 			page 38


 2110 003a 2368     		ldr	r3, [r4]
 2111 003c A342     		cmp	r3, r4
 2112 003e 04D0     		beq	.L112
 2113 0040 A269     		ldr	r2, [r4, #24]
 2114 0042 9B68     		ldr	r3, [r3, #8]
 2115 0044 9268     		ldr	r2, [r2, #8]
 2116 0046 9A42     		cmp	r2, r3
 2117 0048 09D3     		bcc	.L116
 2118              	.L112:
 2119              		.loc 3 367 3 view .LVU480
 2120              		.loc 3 371 3 view .LVU481
 2121              	.LBB421:
 2122              	.LBI421:
 2123              		.loc 4 458 20 view .LVU482
 2124              	.LBE421:
 2125              	.LBE420:
 2126              	.LBE419:
 2127              		.loc 4 461 3 view .LVU483
 2128              	.LVL153:
 2129              	.LBB427:
 2130              	.LBB425:
 2131              	.LBB424:
 2132              	.LBB422:
 2133              	.LBI422:
 2134              		.loc 5 544 57 view .LVU484
 2135              	.LBB423:
 2136              		.loc 5 546 3 view .LVU485
 2137 004a 0023     		movs	r3, #0
 2138              		.syntax unified
 2139              	@ 546 ".//ChibiOS//os/ext/CMSIS/include/core_cmFunc.h" 1
 2140 004c 83F31188 		MSR basepri, r3
 2141              	@ 0 "" 2
 2142              	.LVL154:
 2143              		.loc 5 546 3 is_stmt 0 view .LVU486
 2144              		.thumb
 2145              		.syntax unified
 2146              	.LBE423:
 2147              	.LBE422:
 2148              	.LBE424:
 2149              	.LBE425:
 2150              	.LBE427:
 2151              		.loc 1 381 1 view .LVU487
 2152 0050 074B     		ldr	r3, .L118
 2153 0052 1A68     		ldr	r2, [r3]
 2154 0054 019B     		ldr	r3, [sp, #4]
 2155 0056 5A40     		eors	r2, r3, r2
 2156 0058 08D1     		bne	.L117
 2157 005a 02B0     		add	sp, sp, #8
 2158              		.cfi_remember_state
 2159              		.cfi_def_cfa_offset 8
 2160              		@ sp needed
 2161 005c 10BD     		pop	{r4, pc}
 2162              	.L116:
 2163              		.cfi_restore_state
 2164              	.LBB428:
 2165              	.LBB426:
 2166              		.loc 3 367 3 is_stmt 1 view .LVU488
ARM GAS  /tmp/ccJ6FnJD.s 			page 39


 2167 005e 0648     		ldr	r0, .L118+8
 2168 0060 FFF7FEFF 		bl	chSysHalt
 2169              	.LVL155:
 2170 0064 F1E7     		b	.L112
 2171              	.L115:
 2172              	.LBE426:
 2173              	.LBE428:
 2174              	.LBB429:
 2175              	.LBB416:
 2176              		.loc 2 746 5 view .LVU489
 2177 0066 FFF7FEFF 		bl	chSchDoRescheduleBehind
 2178              	.LVL156:
 2179 006a E2E7     		b	.L111
 2180              	.L117:
 2181              	.LBE416:
 2182              	.LBE429:
 2183              		.loc 1 381 1 is_stmt 0 view .LVU490
 2184 006c FFF7FEFF 		bl	__stack_chk_fail
 2185              	.LVL157:
 2186              	.L119:
 2187              		.align	2
 2188              	.L118:
 2189 0070 00000000 		.word	.LC10
 2190 0074 00000000 		.word	ch
 2191 0078 00000000 		.word	.LANCHOR1
 2192              		.cfi_endproc
 2193              	.LFE229:
 2194              		.size	chThdYield, .-chThdYield
 2195              		.section	.rodata.chThdExitS.cst4,"aM",%progbits,4
 2196              		.align	2
 2197              	.LC11:
 2198 0000 00000000 		.word	__stack_chk_guard
 2199              		.section	.text.chThdExitS,"ax",%progbits
 2200              		.align	1
 2201              		.p2align 4,,15
 2202              		.global	chThdExitS
 2203              		.syntax unified
 2204              		.thumb
 2205              		.thumb_func
 2206              		.fpu fpv4-sp-d16
 2207              		.type	chThdExitS, %function
 2208              	chThdExitS:
 2209              	.LVL158:
 2210              	.LFB231:
 2211              		.loc 1 418 28 is_stmt 1 view -0
 2212              		.cfi_startproc
 2213              		@ args = 0, pretend = 0, frame = 8
 2214              		@ frame_needed = 0, uses_anonymous_args = 0
 2215              		.loc 1 418 28 is_stmt 0 view .LVU492
 2216 0000 30B5     		push	{r4, r5, lr}
 2217              		.cfi_def_cfa_offset 12
 2218              		.cfi_offset 4, -12
 2219              		.cfi_offset 5, -8
 2220              		.cfi_offset 14, -4
 2221              		.loc 1 419 13 view .LVU493
 2222 0002 174B     		ldr	r3, .L129
 2223              		.loc 1 418 28 view .LVU494
ARM GAS  /tmp/ccJ6FnJD.s 			page 40


 2224 0004 174A     		ldr	r2, .L129+4
 2225              		.loc 1 419 13 view .LVU495
 2226 0006 9C69     		ldr	r4, [r3, #24]
 2227              	.LBB430:
 2228              	.LBB431:
 2229              		.loc 2 592 20 view .LVU496
 2230 0008 E36A     		ldr	r3, [r4, #44]
 2231              	.LBE431:
 2232              	.LBE430:
 2233              		.loc 1 426 10 view .LVU497
 2234 000a 04F12C05 		add	r5, r4, #44
 2235              		.loc 1 418 28 view .LVU498
 2236 000e 83B0     		sub	sp, sp, #12
 2237              		.cfi_def_cfa_offset 24
 2238              		.loc 1 426 9 view .LVU499
 2239 0010 AB42     		cmp	r3, r5
 2240              		.loc 1 418 28 view .LVU500
 2241 0012 1268     		ldr	r2, [r2]
 2242 0014 0192     		str	r2, [sp, #4]
 2243 0016 4FF00002 		mov	r2,#0
 2244              		.loc 1 419 3 is_stmt 1 view .LVU501
 2245              	.LVL159:
 2246              		.loc 1 421 3 view .LVU502
 2247              		.loc 1 421 20 is_stmt 0 view .LVU503
 2248 001a A062     		str	r0, [r4, #40]
 2249              		.loc 1 423 3 is_stmt 1 view .LVU504
 2250              		.loc 1 423 30 view .LVU505
 2251              		.loc 1 426 3 view .LVU506
 2252              		.loc 1 426 9 view .LVU507
 2253              	.LVL160:
 2254              	.LBB434:
 2255              	.LBI430:
 2256              		.loc 2 590 20 view .LVU508
 2257              	.LBB432:
 2258              		.loc 2 592 3 view .LVU509
 2259              		.loc 2 592 3 is_stmt 0 view .LVU510
 2260              	.LBE432:
 2261              	.LBE434:
 2262              		.loc 1 426 9 view .LVU511
 2263 001c 07D0     		beq	.L121
 2264              	.LVL161:
 2265              	.L122:
 2266              		.loc 1 427 5 is_stmt 1 view .LVU512
 2267              	.LBB435:
 2268              	.LBI435:
 2269              		.loc 2 643 25 view .LVU513
 2270              	.LBB436:
 2271              		.loc 2 645 3 view .LVU514
 2272              		.loc 2 646 3 view .LVU515
 2273              		.loc 2 646 19 is_stmt 0 view .LVU516
 2274 001e 1A68     		ldr	r2, [r3]
 2275              		.loc 2 646 15 view .LVU517
 2276 0020 E262     		str	r2, [r4, #44]
 2277              		.loc 2 648 3 is_stmt 1 view .LVU518
 2278              	.LVL162:
 2279              		.loc 2 648 3 is_stmt 0 view .LVU519
 2280              	.LBE436:
ARM GAS  /tmp/ccJ6FnJD.s 			page 41


 2281              	.LBE435:
 2282              		.loc 1 427 12 view .LVU520
 2283 0022 1846     		mov	r0, r3
 2284 0024 FFF7FEFF 		bl	chSchReadyI
 2285              	.LVL163:
 2286              		.loc 1 426 9 is_stmt 1 view .LVU521
 2287              	.LBB437:
 2288              		.loc 2 590 20 view .LVU522
 2289              	.LBB433:
 2290              		.loc 2 592 3 view .LVU523
 2291              		.loc 2 592 20 is_stmt 0 view .LVU524
 2292 0028 E36A     		ldr	r3, [r4, #44]
 2293              	.LVL164:
 2294              		.loc 2 592 20 view .LVU525
 2295              	.LBE433:
 2296              	.LBE437:
 2297              		.loc 1 426 9 view .LVU526
 2298 002a AB42     		cmp	r3, r5
 2299 002c F7D1     		bne	.L122
 2300              	.LVL165:
 2301              	.L121:
 2302              		.loc 1 433 3 is_stmt 1 view .LVU527
 2303              		.loc 1 433 6 is_stmt 0 view .LVU528
 2304 002e 94F82130 		ldrb	r3, [r4, #33]	@ zero_extendqisi2
 2305 0032 9B07     		lsls	r3, r3, #30
 2306 0034 04D1     		bne	.L123
 2307              		.loc 1 434 5 is_stmt 1 view .LVU529
 2308 0036 D4E90432 		ldrd	r3, r2, [r4, #16]
 2309 003a 1361     		str	r3, [r2, #16]
 2310              		.loc 1 434 5 view .LVU530
 2311 003c 6269     		ldr	r2, [r4, #20]
 2312 003e 5A61     		str	r2, [r3, #20]
 2313              	.L123:
 2314              		.loc 1 434 19 discriminator 1 view .LVU531
 2315              		.loc 1 437 3 discriminator 1 view .LVU532
 2316 0040 0F20     		movs	r0, #15
 2317 0042 FFF7FEFF 		bl	chSchGoSleepS
 2318              	.LVL166:
 2319              		.loc 1 440 3 discriminator 1 view .LVU533
 2320              		.loc 1 440 3 discriminator 1 view .LVU534
 2321              		.loc 1 440 3 discriminator 1 view .LVU535
 2322              		.loc 1 440 3 discriminator 1 view .LVU536
 2323 0046 074B     		ldr	r3, .L129+4
 2324 0048 1A68     		ldr	r2, [r3]
 2325 004a 019B     		ldr	r3, [sp, #4]
 2326 004c 5A40     		eors	r2, r3, r2
 2327 004e 05D1     		bne	.L128
 2328 0050 0548     		ldr	r0, .L129+8
 2329              		.loc 1 441 1 is_stmt 0 discriminator 1 view .LVU537
 2330 0052 03B0     		add	sp, sp, #12
 2331              		.cfi_remember_state
 2332              		.cfi_def_cfa_offset 12
 2333              		@ sp needed
 2334 0054 BDE83040 		pop	{r4, r5, lr}
 2335              		.cfi_restore 14
 2336              		.cfi_restore 5
 2337              		.cfi_restore 4
ARM GAS  /tmp/ccJ6FnJD.s 			page 42


 2338              		.cfi_def_cfa_offset 0
 2339              	.LVL167:
 2340              		.loc 1 440 3 discriminator 1 view .LVU538
 2341 0058 FFF7FEBF 		b	chSysHalt
 2342              	.LVL168:
 2343              	.L128:
 2344              		.cfi_restore_state
 2345              		.loc 1 440 3 discriminator 1 view .LVU539
 2346 005c FFF7FEFF 		bl	__stack_chk_fail
 2347              	.LVL169:
 2348              	.L130:
 2349              		.align	2
 2350              	.L129:
 2351 0060 00000000 		.word	ch
 2352 0064 00000000 		.word	.LC11
 2353 0068 00000000 		.word	.LANCHOR5
 2354              		.cfi_endproc
 2355              	.LFE231:
 2356              		.size	chThdExitS, .-chThdExitS
 2357              		.section	.rodata.chThdExit.cst4,"aM",%progbits,4
 2358              		.align	2
 2359              	.LC12:
 2360 0000 00000000 		.word	__stack_chk_guard
 2361              		.section	.text.chThdExit,"ax",%progbits
 2362              		.align	1
 2363              		.p2align 4,,15
 2364              		.global	chThdExit
 2365              		.syntax unified
 2366              		.thumb
 2367              		.thumb_func
 2368              		.fpu fpv4-sp-d16
 2369              		.type	chThdExit, %function
 2370              	chThdExit:
 2371              	.LVL170:
 2372              	.LFB230:
 2373              		.loc 1 397 27 is_stmt 1 view -0
 2374              		.cfi_startproc
 2375              		@ args = 0, pretend = 0, frame = 8
 2376              		@ frame_needed = 0, uses_anonymous_args = 0
 2377              		.loc 1 397 27 is_stmt 0 view .LVU541
 2378 0000 10B5     		push	{r4, lr}
 2379              		.cfi_def_cfa_offset 8
 2380              		.cfi_offset 4, -8
 2381              		.cfi_offset 14, -4
 2382 0002 0D4B     		ldr	r3, .L136
 2383 0004 82B0     		sub	sp, sp, #8
 2384              		.cfi_def_cfa_offset 16
 2385              		.loc 1 397 27 view .LVU542
 2386 0006 1B68     		ldr	r3, [r3]
 2387 0008 0193     		str	r3, [sp, #4]
 2388 000a 4FF00003 		mov	r3,#0
 2389              		.loc 1 399 3 is_stmt 1 view .LVU543
 2390              	.LBB438:
 2391              	.LBI438:
 2392              		.loc 3 346 20 view .LVU544
 2393              	.LBB439:
 2394              		.loc 3 348 3 view .LVU545
ARM GAS  /tmp/ccJ6FnJD.s 			page 43


 2395              	.LBB440:
 2396              	.LBI440:
 2397              		.loc 4 444 20 view .LVU546
 2398              	.LBE440:
 2399              	.LBE439:
 2400              	.LBE438:
 2401              		.loc 4 447 3 view .LVU547
 2402              	.LVL171:
 2403              	.LBB449:
 2404              	.LBB447:
 2405              	.LBB445:
 2406              	.LBB441:
 2407              	.LBI441:
 2408              		.loc 5 544 57 view .LVU548
 2409              	.LBB442:
 2410              		.loc 5 546 3 view .LVU549
 2411              	.LBE442:
 2412              	.LBE441:
 2413              	.LBE445:
 2414              	.LBE447:
 2415              	.LBE449:
 2416              		.loc 1 397 27 is_stmt 0 view .LVU550
 2417 000e 0446     		mov	r4, r0
 2418              	.LBB450:
 2419              	.LBB448:
 2420              	.LBB446:
 2421              	.LBB444:
 2422              	.LBB443:
 2423              		.loc 5 546 3 view .LVU551
 2424 0010 2023     		movs	r3, #32
 2425              		.syntax unified
 2426              	@ 546 ".//ChibiOS//os/ext/CMSIS/include/core_cmFunc.h" 1
 2427 0012 83F31188 		MSR basepri, r3
 2428              	@ 0 "" 2
 2429              	.LVL172:
 2430              		.loc 5 546 3 view .LVU552
 2431              		.thumb
 2432              		.syntax unified
 2433              	.LBE443:
 2434              	.LBE444:
 2435              	.LBE446:
 2436              		.loc 3 349 3 is_stmt 1 view .LVU553
 2437 0016 FFF7FEFF 		bl	_stats_start_measure_crit_thd
 2438              	.LVL173:
 2439              		.loc 3 350 3 view .LVU554
 2440 001a FFF7FEFF 		bl	_dbg_check_lock
 2441              	.LVL174:
 2442              	.LBE448:
 2443              	.LBE450:
 2444              		.loc 1 400 3 view .LVU555
 2445 001e 064B     		ldr	r3, .L136
 2446 0020 1A68     		ldr	r2, [r3]
 2447 0022 019B     		ldr	r3, [sp, #4]
 2448 0024 5A40     		eors	r2, r3, r2
 2449 0026 05D1     		bne	.L135
 2450 0028 2046     		mov	r0, r4
 2451              		.loc 1 402 1 is_stmt 0 view .LVU556
ARM GAS  /tmp/ccJ6FnJD.s 			page 44


 2452 002a 02B0     		add	sp, sp, #8
 2453              		.cfi_remember_state
 2454              		.cfi_def_cfa_offset 8
 2455              		@ sp needed
 2456 002c BDE81040 		pop	{r4, lr}
 2457              		.cfi_restore 14
 2458              		.cfi_restore 4
 2459              		.cfi_def_cfa_offset 0
 2460              	.LVL175:
 2461              		.loc 1 400 3 view .LVU557
 2462 0030 FFF7FEBF 		b	chThdExitS
 2463              	.LVL176:
 2464              	.L135:
 2465              		.cfi_restore_state
 2466              		.loc 1 400 3 view .LVU558
 2467 0034 FFF7FEFF 		bl	__stack_chk_fail
 2468              	.LVL177:
 2469              	.L137:
 2470              		.align	2
 2471              	.L136:
 2472 0038 00000000 		.word	.LC12
 2473              		.cfi_endproc
 2474              	.LFE230:
 2475              		.size	chThdExit, .-chThdExit
 2476              		.section	.rodata.chThdWait.cst4,"aM",%progbits,4
 2477              		.align	2
 2478              	.LC13:
 2479 0000 00000000 		.word	__stack_chk_guard
 2480              		.section	.text.chThdWait,"ax",%progbits
 2481              		.align	1
 2482              		.p2align 4,,15
 2483              		.global	chThdWait
 2484              		.syntax unified
 2485              		.thumb
 2486              		.thumb_func
 2487              		.fpu fpv4-sp-d16
 2488              		.type	chThdWait, %function
 2489              	chThdWait:
 2490              	.LVL178:
 2491              	.LFB232:
 2492              		.loc 1 475 31 is_stmt 1 view -0
 2493              		.cfi_startproc
 2494              		@ args = 0, pretend = 0, frame = 8
 2495              		@ frame_needed = 0, uses_anonymous_args = 0
 2496              		.loc 1 475 31 is_stmt 0 view .LVU560
 2497 0000 70B5     		push	{r4, r5, r6, lr}
 2498              		.cfi_def_cfa_offset 16
 2499              		.cfi_offset 4, -16
 2500              		.cfi_offset 5, -12
 2501              		.cfi_offset 6, -8
 2502              		.cfi_offset 14, -4
 2503 0002 274B     		ldr	r3, .L154
 2504 0004 82B0     		sub	sp, sp, #8
 2505              		.cfi_def_cfa_offset 24
 2506              		.loc 1 475 31 view .LVU561
 2507 0006 1B68     		ldr	r3, [r3]
 2508 0008 0193     		str	r3, [sp, #4]
ARM GAS  /tmp/ccJ6FnJD.s 			page 45


 2509 000a 4FF00003 		mov	r3,#0
 2510              		.loc 1 476 3 is_stmt 1 view .LVU562
 2511              		.loc 1 478 3 view .LVU563
 2512              		.loc 1 478 3 view .LVU564
 2513              		.loc 1 478 3 view .LVU565
 2514 000e 0446     		mov	r4, r0
 2515 0010 0028     		cmp	r0, #0
 2516 0012 3FD0     		beq	.L149
 2517              	.LVL179:
 2518              	.L139:
 2519              		.loc 1 478 3 discriminator 5 view .LVU566
 2520              		.loc 1 480 3 discriminator 5 view .LVU567
 2521              	.LBB463:
 2522              	.LBI463:
 2523              		.loc 3 346 20 discriminator 5 view .LVU568
 2524              	.LBB464:
 2525              		.loc 3 348 3 discriminator 5 view .LVU569
 2526              	.LBB465:
 2527              	.LBI465:
 2528              		.loc 4 444 20 discriminator 5 view .LVU570
 2529              	.LBE465:
 2530              	.LBE464:
 2531              	.LBE463:
 2532              		.loc 4 447 3 discriminator 5 view .LVU571
 2533              	.LBB471:
 2534              	.LBB469:
 2535              	.LBB468:
 2536              	.LBB466:
 2537              	.LBI466:
 2538              		.loc 5 544 57 discriminator 5 view .LVU572
 2539              	.LBB467:
 2540              		.loc 5 546 3 discriminator 5 view .LVU573
 2541 0014 2023     		movs	r3, #32
 2542              		.syntax unified
 2543              	@ 546 ".//ChibiOS//os/ext/CMSIS/include/core_cmFunc.h" 1
 2544 0016 83F31188 		MSR basepri, r3
 2545              	@ 0 "" 2
 2546              	.LVL180:
 2547              		.loc 5 546 3 is_stmt 0 discriminator 5 view .LVU574
 2548              		.thumb
 2549              		.syntax unified
 2550              	.LBE467:
 2551              	.LBE466:
 2552              	.LBE468:
 2553              		.loc 3 349 3 is_stmt 1 discriminator 5 view .LVU575
 2554              	.LBE469:
 2555              	.LBE471:
 2556              		.loc 1 481 3 is_stmt 0 discriminator 5 view .LVU576
 2557 001a 224D     		ldr	r5, .L154+4
 2558              	.LBB472:
 2559              	.LBB470:
 2560              		.loc 3 349 3 discriminator 5 view .LVU577
 2561 001c FFF7FEFF 		bl	_stats_start_measure_crit_thd
 2562              	.LVL181:
 2563              		.loc 3 350 3 is_stmt 1 discriminator 5 view .LVU578
 2564 0020 FFF7FEFF 		bl	_dbg_check_lock
 2565              	.LVL182:
ARM GAS  /tmp/ccJ6FnJD.s 			page 46


 2566              	.LBE470:
 2567              	.LBE472:
 2568              		.loc 1 481 3 discriminator 5 view .LVU579
 2569              		.loc 1 481 3 discriminator 5 view .LVU580
 2570              		.loc 1 481 3 discriminator 5 view .LVU581
 2571 0024 AB69     		ldr	r3, [r5, #24]
 2572 0026 A342     		cmp	r3, r4
 2573 0028 30D0     		beq	.L150
 2574              	.L140:
 2575              		.loc 1 481 3 discriminator 1 view .LVU582
 2576              		.loc 1 483 3 discriminator 1 view .LVU583
 2577              		.loc 1 483 3 discriminator 1 view .LVU584
 2578              		.loc 1 483 3 discriminator 1 view .LVU585
 2579 002a 94F82230 		ldrb	r3, [r4, #34]	@ zero_extendqisi2
 2580 002e 4BB3     		cbz	r3, .L151
 2581              	.L141:
 2582              		.loc 1 483 3 discriminator 5 view .LVU586
 2583              		.loc 1 485 3 discriminator 5 view .LVU587
 2584              		.loc 1 485 6 is_stmt 0 discriminator 5 view .LVU588
 2585 0030 94F82030 		ldrb	r3, [r4, #32]	@ zero_extendqisi2
 2586 0034 0F2B     		cmp	r3, #15
 2587 0036 06D0     		beq	.L142
 2588              		.loc 1 486 5 is_stmt 1 view .LVU589
 2589 0038 AB69     		ldr	r3, [r5, #24]
 2590              	.LVL183:
 2591              	.LBB473:
 2592              	.LBI473:
 2593              		.loc 2 637 20 view .LVU590
 2594              	.LBB474:
 2595              		.loc 2 639 3 view .LVU591
 2596              		.loc 2 639 19 is_stmt 0 view .LVU592
 2597 003a E26A     		ldr	r2, [r4, #44]
 2598              		.loc 2 639 14 view .LVU593
 2599 003c 1A60     		str	r2, [r3]
 2600              		.loc 2 640 3 is_stmt 1 view .LVU594
 2601              	.LBE474:
 2602              	.LBE473:
 2603              		.loc 1 487 5 is_stmt 0 view .LVU595
 2604 003e 0920     		movs	r0, #9
 2605              	.LBB476:
 2606              	.LBB475:
 2607              		.loc 2 640 15 view .LVU596
 2608 0040 E362     		str	r3, [r4, #44]
 2609              	.LVL184:
 2610              		.loc 2 640 15 view .LVU597
 2611              	.LBE475:
 2612              	.LBE476:
 2613              		.loc 1 487 5 is_stmt 1 view .LVU598
 2614 0042 FFF7FEFF 		bl	chSchGoSleepS
 2615              	.LVL185:
 2616              	.L142:
 2617              		.loc 1 489 3 view .LVU599
 2618              		.loc 1 489 7 is_stmt 0 view .LVU600
 2619 0046 A66A     		ldr	r6, [r4, #40]
 2620              	.LVL186:
 2621              		.loc 1 490 3 is_stmt 1 view .LVU601
 2622              	.LBB477:
ARM GAS  /tmp/ccJ6FnJD.s 			page 47


 2623              	.LBI477:
 2624              		.loc 3 358 20 view .LVU602
 2625              	.LBB478:
 2626              		.loc 3 360 3 view .LVU603
 2627 0048 FFF7FEFF 		bl	_dbg_check_unlock
 2628              	.LVL187:
 2629              		.loc 3 361 3 view .LVU604
 2630 004c FFF7FEFF 		bl	_stats_stop_measure_crit_thd
 2631              	.LVL188:
 2632              		.loc 3 367 3 view .LVU605
 2633              		.loc 3 367 3 view .LVU606
 2634              		.loc 3 367 3 view .LVU607
 2635 0050 2B68     		ldr	r3, [r5]
 2636 0052 AB42     		cmp	r3, r5
 2637 0054 04D0     		beq	.L143
 2638 0056 AA69     		ldr	r2, [r5, #24]
 2639 0058 9B68     		ldr	r3, [r3, #8]
 2640 005a 9268     		ldr	r2, [r2, #8]
 2641 005c 9A42     		cmp	r2, r3
 2642 005e 0DD3     		bcc	.L152
 2643              	.L143:
 2644              		.loc 3 367 3 view .LVU608
 2645              		.loc 3 371 3 view .LVU609
 2646              	.LBB479:
 2647              	.LBI479:
 2648              		.loc 4 458 20 view .LVU610
 2649              	.LBE479:
 2650              	.LBE478:
 2651              	.LBE477:
 2652              		.loc 4 461 3 view .LVU611
 2653              	.LVL189:
 2654              	.LBB485:
 2655              	.LBB483:
 2656              	.LBB482:
 2657              	.LBB480:
 2658              	.LBI480:
 2659              		.loc 5 544 57 view .LVU612
 2660              	.LBB481:
 2661              		.loc 5 546 3 view .LVU613
 2662 0060 0023     		movs	r3, #0
 2663              		.syntax unified
 2664              	@ 546 ".//ChibiOS//os/ext/CMSIS/include/core_cmFunc.h" 1
 2665 0062 83F31188 		MSR basepri, r3
 2666              	@ 0 "" 2
 2667              	.LVL190:
 2668              		.loc 5 546 3 is_stmt 0 view .LVU614
 2669              		.thumb
 2670              		.syntax unified
 2671              	.LBE481:
 2672              	.LBE480:
 2673              	.LBE482:
 2674              	.LBE483:
 2675              	.LBE485:
 2676              		.loc 1 494 3 is_stmt 1 view .LVU615
 2677 0066 2046     		mov	r0, r4
 2678 0068 FFF7FEFF 		bl	chThdRelease
 2679              	.LVL191:
ARM GAS  /tmp/ccJ6FnJD.s 			page 48


 2680              		.loc 1 497 3 view .LVU616
 2681              		.loc 1 498 1 is_stmt 0 view .LVU617
 2682 006c 0C4B     		ldr	r3, .L154
 2683 006e 1A68     		ldr	r2, [r3]
 2684 0070 019B     		ldr	r3, [sp, #4]
 2685 0072 5A40     		eors	r2, r3, r2
 2686 0074 12D1     		bne	.L153
 2687 0076 3046     		mov	r0, r6
 2688 0078 02B0     		add	sp, sp, #8
 2689              		.cfi_remember_state
 2690              		.cfi_def_cfa_offset 16
 2691              		@ sp needed
 2692 007a 70BD     		pop	{r4, r5, r6, pc}
 2693              	.LVL192:
 2694              	.L152:
 2695              		.cfi_restore_state
 2696              	.LBB486:
 2697              	.LBB484:
 2698              		.loc 3 367 3 is_stmt 1 view .LVU618
 2699 007c 0A48     		ldr	r0, .L154+8
 2700 007e FFF7FEFF 		bl	chSysHalt
 2701              	.LVL193:
 2702 0082 EDE7     		b	.L143
 2703              	.LVL194:
 2704              	.L151:
 2705              		.loc 3 367 3 is_stmt 0 view .LVU619
 2706              	.LBE484:
 2707              	.LBE486:
 2708              		.loc 1 483 3 is_stmt 1 discriminator 3 view .LVU620
 2709 0084 0948     		ldr	r0, .L154+12
 2710 0086 FFF7FEFF 		bl	chSysHalt
 2711              	.LVL195:
 2712 008a D1E7     		b	.L141
 2713              	.L150:
 2714              		.loc 1 481 3 discriminator 3 view .LVU621
 2715 008c 0748     		ldr	r0, .L154+12
 2716 008e FFF7FEFF 		bl	chSysHalt
 2717              	.LVL196:
 2718 0092 CAE7     		b	.L140
 2719              	.LVL197:
 2720              	.L149:
 2721              		.loc 1 478 3 discriminator 3 view .LVU622
 2722 0094 0548     		ldr	r0, .L154+12
 2723              	.LVL198:
 2724              		.loc 1 478 3 is_stmt 0 discriminator 3 view .LVU623
 2725 0096 FFF7FEFF 		bl	chSysHalt
 2726              	.LVL199:
 2727 009a BBE7     		b	.L139
 2728              	.LVL200:
 2729              	.L153:
 2730              		.loc 1 498 1 view .LVU624
 2731 009c FFF7FEFF 		bl	__stack_chk_fail
 2732              	.LVL201:
 2733              	.L155:
 2734              		.align	2
 2735              	.L154:
 2736 00a0 00000000 		.word	.LC13
ARM GAS  /tmp/ccJ6FnJD.s 			page 49


 2737 00a4 00000000 		.word	ch
 2738 00a8 00000000 		.word	.LANCHOR1
 2739 00ac 00000000 		.word	.LANCHOR6
 2740              		.cfi_endproc
 2741              	.LFE232:
 2742              		.size	chThdWait, .-chThdWait
 2743              		.section	.rodata.chThdSuspendS.cst4,"aM",%progbits,4
 2744              		.align	2
 2745              	.LC14:
 2746 0000 00000000 		.word	__stack_chk_guard
 2747              		.section	.text.chThdSuspendS,"ax",%progbits
 2748              		.align	1
 2749              		.p2align 4,,15
 2750              		.global	chThdSuspendS
 2751              		.syntax unified
 2752              		.thumb
 2753              		.thumb_func
 2754              		.fpu fpv4-sp-d16
 2755              		.type	chThdSuspendS, %function
 2756              	chThdSuspendS:
 2757              	.LVL202:
 2758              	.LFB233:
 2759              		.loc 1 511 46 is_stmt 1 view -0
 2760              		.cfi_startproc
 2761              		@ args = 0, pretend = 0, frame = 8
 2762              		@ frame_needed = 0, uses_anonymous_args = 0
 2763              		.loc 1 511 46 is_stmt 0 view .LVU626
 2764 0000 70B5     		push	{r4, r5, r6, lr}
 2765              		.cfi_def_cfa_offset 16
 2766              		.cfi_offset 4, -16
 2767              		.cfi_offset 5, -12
 2768              		.cfi_offset 6, -8
 2769              		.cfi_offset 14, -4
 2770 0002 0F4A     		ldr	r2, .L164
 2771              	.LBB487:
 2772              	.LBB488:
 2773              		.loc 6 176 18 view .LVU627
 2774 0004 0F4D     		ldr	r5, .L164+4
 2775              	.LBE488:
 2776              	.LBE487:
 2777              		.loc 1 514 3 view .LVU628
 2778 0006 0368     		ldr	r3, [r0]
 2779              	.LBB491:
 2780              	.LBB489:
 2781              		.loc 6 176 18 view .LVU629
 2782 0008 AE69     		ldr	r6, [r5, #24]
 2783              	.LBE489:
 2784              	.LBE491:
 2785              		.loc 1 511 46 view .LVU630
 2786 000a 82B0     		sub	sp, sp, #8
 2787              		.cfi_def_cfa_offset 24
 2788              		.loc 1 511 46 view .LVU631
 2789 000c 0446     		mov	r4, r0
 2790 000e 1268     		ldr	r2, [r2]
 2791 0010 0192     		str	r2, [sp, #4]
 2792 0012 4FF00002 		mov	r2,#0
 2793              		.loc 1 512 3 is_stmt 1 view .LVU632
ARM GAS  /tmp/ccJ6FnJD.s 			page 50


 2794              	.LBB492:
 2795              	.LBI487:
 2796              		.loc 6 174 25 view .LVU633
 2797              	.LBB490:
 2798              		.loc 6 176 3 view .LVU634
 2799              	.LVL203:
 2800              		.loc 6 176 3 is_stmt 0 view .LVU635
 2801              	.LBE490:
 2802              	.LBE492:
 2803              		.loc 1 514 3 is_stmt 1 view .LVU636
 2804              		.loc 1 514 3 view .LVU637
 2805              		.loc 1 514 3 view .LVU638
 2806 0016 13B1     		cbz	r3, .L157
 2807              		.loc 1 514 3 discriminator 3 view .LVU639
 2808 0018 0B48     		ldr	r0, .L164+8
 2809              	.LVL204:
 2810              		.loc 1 514 3 is_stmt 0 discriminator 3 view .LVU640
 2811 001a FFF7FEFF 		bl	chSysHalt
 2812              	.LVL205:
 2813              	.L157:
 2814              		.loc 1 514 3 is_stmt 1 discriminator 5 view .LVU641
 2815              		.loc 1 516 3 discriminator 5 view .LVU642
 2816              		.loc 1 516 8 is_stmt 0 discriminator 5 view .LVU643
 2817 001e 2660     		str	r6, [r4]
 2818              		.loc 1 517 3 is_stmt 1 discriminator 5 view .LVU644
 2819              		.loc 1 518 3 is_stmt 0 discriminator 5 view .LVU645
 2820 0020 0320     		movs	r0, #3
 2821              		.loc 1 517 17 discriminator 5 view .LVU646
 2822 0022 B462     		str	r4, [r6, #40]
 2823              		.loc 1 518 3 is_stmt 1 discriminator 5 view .LVU647
 2824 0024 FFF7FEFF 		bl	chSchGoSleepS
 2825              	.LVL206:
 2826              		.loc 1 520 3 discriminator 5 view .LVU648
 2827              	.LBB493:
 2828              	.LBI493:
 2829              		.loc 6 174 25 discriminator 5 view .LVU649
 2830              	.LBB494:
 2831              		.loc 6 176 3 discriminator 5 view .LVU650
 2832              	.LBE494:
 2833              	.LBE493:
 2834              		.loc 1 520 30 is_stmt 0 discriminator 5 view .LVU651
 2835 0028 AB69     		ldr	r3, [r5, #24]
 2836 002a 986A     		ldr	r0, [r3, #40]
 2837              		.loc 1 521 1 discriminator 5 view .LVU652
 2838 002c 044B     		ldr	r3, .L164
 2839 002e 1A68     		ldr	r2, [r3]
 2840 0030 019B     		ldr	r3, [sp, #4]
 2841 0032 5A40     		eors	r2, r3, r2
 2842 0034 01D1     		bne	.L163
 2843              		.loc 1 521 1 view .LVU653
 2844 0036 02B0     		add	sp, sp, #8
 2845              		.cfi_remember_state
 2846              		.cfi_def_cfa_offset 16
 2847              		@ sp needed
 2848 0038 70BD     		pop	{r4, r5, r6, pc}
 2849              	.LVL207:
 2850              	.L163:
ARM GAS  /tmp/ccJ6FnJD.s 			page 51


 2851              		.cfi_restore_state
 2852              		.loc 1 521 1 view .LVU654
 2853 003a FFF7FEFF 		bl	__stack_chk_fail
 2854              	.LVL208:
 2855              	.L165:
 2856 003e 00BF     		.align	2
 2857              	.L164:
 2858 0040 00000000 		.word	.LC14
 2859 0044 00000000 		.word	ch
 2860 0048 00000000 		.word	.LANCHOR7
 2861              		.cfi_endproc
 2862              	.LFE233:
 2863              		.size	chThdSuspendS, .-chThdSuspendS
 2864              		.section	.rodata.chThdSuspendTimeoutS.cst4,"aM",%progbits,4
 2865              		.align	2
 2866              	.LC15:
 2867 0000 00000000 		.word	__stack_chk_guard
 2868              		.section	.text.chThdSuspendTimeoutS,"ax",%progbits
 2869              		.align	1
 2870              		.p2align 4,,15
 2871              		.global	chThdSuspendTimeoutS
 2872              		.syntax unified
 2873              		.thumb
 2874              		.thumb_func
 2875              		.fpu fpv4-sp-d16
 2876              		.type	chThdSuspendTimeoutS, %function
 2877              	chThdSuspendTimeoutS:
 2878              	.LVL209:
 2879              	.LFB234:
 2880              		.loc 1 542 72 is_stmt 1 view -0
 2881              		.cfi_startproc
 2882              		@ args = 0, pretend = 0, frame = 8
 2883              		@ frame_needed = 0, uses_anonymous_args = 0
 2884              		.loc 1 542 72 is_stmt 0 view .LVU656
 2885 0000 70B5     		push	{r4, r5, r6, lr}
 2886              		.cfi_def_cfa_offset 16
 2887              		.cfi_offset 4, -16
 2888              		.cfi_offset 5, -12
 2889              		.cfi_offset 6, -8
 2890              		.cfi_offset 14, -4
 2891              	.LBB495:
 2892              	.LBB496:
 2893              		.loc 6 176 18 view .LVU657
 2894 0002 144A     		ldr	r2, .L176
 2895              	.LBE496:
 2896              	.LBE495:
 2897              		.loc 1 545 3 view .LVU658
 2898 0004 0368     		ldr	r3, [r0]
 2899              	.LBB499:
 2900              	.LBB497:
 2901              		.loc 6 176 18 view .LVU659
 2902 0006 9669     		ldr	r6, [r2, #24]
 2903              	.LBE497:
 2904              	.LBE499:
 2905              		.loc 1 542 72 view .LVU660
 2906 0008 0446     		mov	r4, r0
 2907 000a 1348     		ldr	r0, .L176+4
ARM GAS  /tmp/ccJ6FnJD.s 			page 52


 2908              	.LVL210:
 2909              		.loc 1 542 72 view .LVU661
 2910 000c 82B0     		sub	sp, sp, #8
 2911              		.cfi_def_cfa_offset 24
 2912              		.loc 1 542 72 view .LVU662
 2913 000e 0068     		ldr	r0, [r0]
 2914 0010 0190     		str	r0, [sp, #4]
 2915 0012 4FF00000 		mov	r0,#0
 2916              		.loc 1 543 3 is_stmt 1 view .LVU663
 2917              	.LBB500:
 2918              	.LBI495:
 2919              		.loc 6 174 25 view .LVU664
 2920              	.LBB498:
 2921              		.loc 6 176 3 view .LVU665
 2922              	.LVL211:
 2923              		.loc 6 176 3 is_stmt 0 view .LVU666
 2924              	.LBE498:
 2925              	.LBE500:
 2926              		.loc 1 545 3 is_stmt 1 view .LVU667
 2927              		.loc 1 545 3 view .LVU668
 2928              		.loc 1 545 3 view .LVU669
 2929              		.loc 1 542 72 is_stmt 0 view .LVU670
 2930 0016 0D46     		mov	r5, r1
 2931              		.loc 1 545 3 view .LVU671
 2932 0018 13B1     		cbz	r3, .L167
 2933              		.loc 1 545 3 is_stmt 1 discriminator 3 view .LVU672
 2934 001a 1048     		ldr	r0, .L176+8
 2935 001c FFF7FEFF 		bl	chSysHalt
 2936              	.LVL212:
 2937              	.L167:
 2938              		.loc 1 545 3 discriminator 5 view .LVU673
 2939              		.loc 1 547 3 discriminator 5 view .LVU674
 2940              		.loc 1 547 6 is_stmt 0 discriminator 5 view .LVU675
 2941 0020 6DB1     		cbz	r5, .L168
 2942              		.loc 1 551 3 is_stmt 1 view .LVU676
 2943              		.loc 1 554 10 is_stmt 0 view .LVU677
 2944 0022 0D4B     		ldr	r3, .L176+4
 2945              		.loc 1 551 8 view .LVU678
 2946 0024 2660     		str	r6, [r4]
 2947              		.loc 1 552 3 is_stmt 1 view .LVU679
 2948              		.loc 1 552 17 is_stmt 0 view .LVU680
 2949 0026 B462     		str	r4, [r6, #40]
 2950              		.loc 1 554 3 is_stmt 1 view .LVU681
 2951              		.loc 1 554 10 is_stmt 0 view .LVU682
 2952 0028 1A68     		ldr	r2, [r3]
 2953 002a 019B     		ldr	r3, [sp, #4]
 2954 002c 5A40     		eors	r2, r3, r2
 2955 002e 0FD1     		bne	.L175
 2956              		.loc 1 554 10 view .LVU683
 2957 0030 2946     		mov	r1, r5
 2958 0032 0320     		movs	r0, #3
 2959              		.loc 1 555 1 view .LVU684
 2960 0034 02B0     		add	sp, sp, #8
 2961              		.cfi_remember_state
 2962              		.cfi_def_cfa_offset 16
 2963              		@ sp needed
 2964 0036 BDE87040 		pop	{r4, r5, r6, lr}
ARM GAS  /tmp/ccJ6FnJD.s 			page 53


 2965              		.cfi_restore 14
 2966              		.cfi_restore 6
 2967              		.cfi_restore 5
 2968              		.cfi_restore 4
 2969              		.cfi_def_cfa_offset 0
 2970              	.LVL213:
 2971              		.loc 1 554 10 view .LVU685
 2972 003a FFF7FEBF 		b	chSchGoSleepTimeoutS
 2973              	.LVL214:
 2974              	.L168:
 2975              		.cfi_restore_state
 2976              		.loc 1 555 1 view .LVU686
 2977 003e 064B     		ldr	r3, .L176+4
 2978 0040 1A68     		ldr	r2, [r3]
 2979 0042 019B     		ldr	r3, [sp, #4]
 2980 0044 5A40     		eors	r2, r3, r2
 2981 0046 03D1     		bne	.L175
 2982 0048 4FF0FF30 		mov	r0, #-1
 2983 004c 02B0     		add	sp, sp, #8
 2984              		.cfi_remember_state
 2985              		.cfi_def_cfa_offset 16
 2986              		@ sp needed
 2987 004e 70BD     		pop	{r4, r5, r6, pc}
 2988              	.LVL215:
 2989              	.L175:
 2990              		.cfi_restore_state
 2991              		.loc 1 555 1 view .LVU687
 2992 0050 FFF7FEFF 		bl	__stack_chk_fail
 2993              	.LVL216:
 2994              	.L177:
 2995              		.align	2
 2996              	.L176:
 2997 0054 00000000 		.word	ch
 2998 0058 00000000 		.word	.LC15
 2999 005c 00000000 		.word	.LANCHOR8
 3000              		.cfi_endproc
 3001              	.LFE234:
 3002              		.size	chThdSuspendTimeoutS, .-chThdSuspendTimeoutS
 3003              		.section	.rodata.chThdResumeI.cst4,"aM",%progbits,4
 3004              		.align	2
 3005              	.LC16:
 3006 0000 00000000 		.word	__stack_chk_guard
 3007              		.section	.text.chThdResumeI,"ax",%progbits
 3008              		.align	1
 3009              		.p2align 4,,15
 3010              		.global	chThdResumeI
 3011              		.syntax unified
 3012              		.thumb
 3013              		.thumb_func
 3014              		.fpu fpv4-sp-d16
 3015              		.type	chThdResumeI, %function
 3016              	chThdResumeI:
 3017              	.LVL217:
 3018              	.LFB235:
 3019              		.loc 1 567 55 is_stmt 1 view -0
 3020              		.cfi_startproc
 3021              		@ args = 0, pretend = 0, frame = 8
ARM GAS  /tmp/ccJ6FnJD.s 			page 54


 3022              		@ frame_needed = 0, uses_anonymous_args = 0
 3023              		.loc 1 567 55 is_stmt 0 view .LVU689
 3024 0000 70B5     		push	{r4, r5, r6, lr}
 3025              		.cfi_def_cfa_offset 16
 3026              		.cfi_offset 4, -16
 3027              		.cfi_offset 5, -12
 3028              		.cfi_offset 6, -8
 3029              		.cfi_offset 14, -4
 3030 0002 144B     		ldr	r3, .L189
 3031              		.loc 1 569 7 view .LVU690
 3032 0004 0568     		ldr	r5, [r0]
 3033              		.loc 1 567 55 view .LVU691
 3034 0006 82B0     		sub	sp, sp, #8
 3035              		.cfi_def_cfa_offset 24
 3036              		.loc 1 567 55 view .LVU692
 3037 0008 1B68     		ldr	r3, [r3]
 3038 000a 0193     		str	r3, [sp, #4]
 3039 000c 4FF00003 		mov	r3,#0
 3040              		.loc 1 569 3 is_stmt 1 view .LVU693
 3041              		.loc 1 569 6 is_stmt 0 view .LVU694
 3042 0010 BDB1     		cbz	r5, .L178
 3043              	.LBB501:
 3044              		.loc 1 572 5 view .LVU695
 3045 0012 95F82030 		ldrb	r3, [r5, #32]	@ zero_extendqisi2
 3046 0016 032B     		cmp	r3, #3
 3047 0018 0446     		mov	r4, r0
 3048 001a 0E46     		mov	r6, r1
 3049              		.loc 1 570 5 is_stmt 1 view .LVU696
 3050              	.LVL218:
 3051              		.loc 1 572 5 view .LVU697
 3052              		.loc 1 572 5 view .LVU698
 3053              		.loc 1 572 5 view .LVU699
 3054 001c 0DD1     		bne	.L188
 3055              	.LVL219:
 3056              	.L180:
 3057              		.loc 1 572 5 discriminator 5 view .LVU700
 3058              		.loc 1 575 5 discriminator 5 view .LVU701
 3059              		.loc 1 575 10 is_stmt 0 discriminator 5 view .LVU702
 3060 001e 0023     		movs	r3, #0
 3061 0020 2360     		str	r3, [r4]
 3062              		.loc 1 576 5 is_stmt 1 discriminator 5 view .LVU703
 3063              		.loc 1 577 12 is_stmt 0 discriminator 5 view .LVU704
 3064 0022 0C4B     		ldr	r3, .L189
 3065              		.loc 1 576 20 discriminator 5 view .LVU705
 3066 0024 AE62     		str	r6, [r5, #40]
 3067              		.loc 1 577 5 is_stmt 1 discriminator 5 view .LVU706
 3068              		.loc 1 577 12 is_stmt 0 discriminator 5 view .LVU707
 3069 0026 1A68     		ldr	r2, [r3]
 3070 0028 019B     		ldr	r3, [sp, #4]
 3071 002a 5A40     		eors	r2, r3, r2
 3072 002c 10D1     		bne	.L187
 3073              		.loc 1 577 12 discriminator 5 view .LVU708
 3074 002e 2846     		mov	r0, r5
 3075              	.LBE501:
 3076              		.loc 1 579 1 discriminator 5 view .LVU709
 3077 0030 02B0     		add	sp, sp, #8
 3078              		.cfi_remember_state
ARM GAS  /tmp/ccJ6FnJD.s 			page 55


 3079              		.cfi_def_cfa_offset 16
 3080              		@ sp needed
 3081 0032 BDE87040 		pop	{r4, r5, r6, lr}
 3082              		.cfi_restore 14
 3083              		.cfi_restore 6
 3084              		.cfi_restore 5
 3085              		.cfi_restore 4
 3086              		.cfi_def_cfa_offset 0
 3087              	.LVL220:
 3088              	.LBB502:
 3089              		.loc 1 577 12 discriminator 5 view .LVU710
 3090 0036 FFF7FEBF 		b	chSchReadyI
 3091              	.LVL221:
 3092              	.L188:
 3093              		.cfi_restore_state
 3094              		.loc 1 572 5 is_stmt 1 discriminator 3 view .LVU711
 3095 003a 0748     		ldr	r0, .L189+4
 3096              	.LVL222:
 3097              		.loc 1 572 5 is_stmt 0 discriminator 3 view .LVU712
 3098 003c FFF7FEFF 		bl	chSysHalt
 3099              	.LVL223:
 3100              		.loc 1 572 5 discriminator 3 view .LVU713
 3101 0040 EDE7     		b	.L180
 3102              	.LVL224:
 3103              	.L178:
 3104              		.loc 1 572 5 discriminator 3 view .LVU714
 3105              	.LBE502:
 3106              		.loc 1 579 1 view .LVU715
 3107 0042 044B     		ldr	r3, .L189
 3108 0044 1A68     		ldr	r2, [r3]
 3109 0046 019B     		ldr	r3, [sp, #4]
 3110 0048 5A40     		eors	r2, r3, r2
 3111 004a 01D1     		bne	.L187
 3112 004c 02B0     		add	sp, sp, #8
 3113              		.cfi_remember_state
 3114              		.cfi_def_cfa_offset 16
 3115              		@ sp needed
 3116 004e 70BD     		pop	{r4, r5, r6, pc}
 3117              	.LVL225:
 3118              	.L187:
 3119              		.cfi_restore_state
 3120              		.loc 1 579 1 view .LVU716
 3121 0050 FFF7FEFF 		bl	__stack_chk_fail
 3122              	.LVL226:
 3123              	.L190:
 3124              		.align	2
 3125              	.L189:
 3126 0054 00000000 		.word	.LC16
 3127 0058 00000000 		.word	.LANCHOR9
 3128              		.cfi_endproc
 3129              	.LFE235:
 3130              		.size	chThdResumeI, .-chThdResumeI
 3131              		.section	.rodata.chThdResumeS.cst4,"aM",%progbits,4
 3132              		.align	2
 3133              	.LC17:
 3134 0000 00000000 		.word	__stack_chk_guard
 3135              		.section	.text.chThdResumeS,"ax",%progbits
ARM GAS  /tmp/ccJ6FnJD.s 			page 56


 3136              		.align	1
 3137              		.p2align 4,,15
 3138              		.global	chThdResumeS
 3139              		.syntax unified
 3140              		.thumb
 3141              		.thumb_func
 3142              		.fpu fpv4-sp-d16
 3143              		.type	chThdResumeS, %function
 3144              	chThdResumeS:
 3145              	.LVL227:
 3146              	.LFB236:
 3147              		.loc 1 591 55 is_stmt 1 view -0
 3148              		.cfi_startproc
 3149              		@ args = 0, pretend = 0, frame = 8
 3150              		@ frame_needed = 0, uses_anonymous_args = 0
 3151              		.loc 1 591 55 is_stmt 0 view .LVU718
 3152 0000 70B5     		push	{r4, r5, r6, lr}
 3153              		.cfi_def_cfa_offset 16
 3154              		.cfi_offset 4, -16
 3155              		.cfi_offset 5, -12
 3156              		.cfi_offset 6, -8
 3157              		.cfi_offset 14, -4
 3158 0002 144B     		ldr	r3, .L202
 3159              		.loc 1 593 7 view .LVU719
 3160 0004 0668     		ldr	r6, [r0]
 3161              		.loc 1 591 55 view .LVU720
 3162 0006 82B0     		sub	sp, sp, #8
 3163              		.cfi_def_cfa_offset 24
 3164              		.loc 1 591 55 view .LVU721
 3165 0008 1B68     		ldr	r3, [r3]
 3166 000a 0193     		str	r3, [sp, #4]
 3167 000c 4FF00003 		mov	r3,#0
 3168              		.loc 1 593 3 is_stmt 1 view .LVU722
 3169              		.loc 1 593 6 is_stmt 0 view .LVU723
 3170 0010 BEB1     		cbz	r6, .L191
 3171              	.LBB503:
 3172              		.loc 1 596 5 view .LVU724
 3173 0012 96F82030 		ldrb	r3, [r6, #32]	@ zero_extendqisi2
 3174 0016 032B     		cmp	r3, #3
 3175 0018 0446     		mov	r4, r0
 3176 001a 0D46     		mov	r5, r1
 3177              		.loc 1 594 5 is_stmt 1 view .LVU725
 3178              	.LVL228:
 3179              		.loc 1 596 5 view .LVU726
 3180              		.loc 1 596 5 view .LVU727
 3181              		.loc 1 596 5 view .LVU728
 3182 001c 0DD1     		bne	.L201
 3183              	.LVL229:
 3184              	.L193:
 3185              		.loc 1 596 5 discriminator 5 view .LVU729
 3186              		.loc 1 599 5 discriminator 5 view .LVU730
 3187              		.loc 1 599 10 is_stmt 0 discriminator 5 view .LVU731
 3188 001e 0023     		movs	r3, #0
 3189 0020 2360     		str	r3, [r4]
 3190              		.loc 1 600 5 is_stmt 1 discriminator 5 view .LVU732
 3191 0022 0C4B     		ldr	r3, .L202
 3192 0024 1A68     		ldr	r2, [r3]
ARM GAS  /tmp/ccJ6FnJD.s 			page 57


 3193 0026 019B     		ldr	r3, [sp, #4]
 3194 0028 5A40     		eors	r2, r3, r2
 3195 002a 11D1     		bne	.L200
 3196 002c 2946     		mov	r1, r5
 3197 002e 3046     		mov	r0, r6
 3198              	.LBE503:
 3199              		.loc 1 602 1 is_stmt 0 discriminator 5 view .LVU733
 3200 0030 02B0     		add	sp, sp, #8
 3201              		.cfi_remember_state
 3202              		.cfi_def_cfa_offset 16
 3203              		@ sp needed
 3204 0032 BDE87040 		pop	{r4, r5, r6, lr}
 3205              		.cfi_restore 14
 3206              		.cfi_restore 6
 3207              		.cfi_restore 5
 3208              		.cfi_restore 4
 3209              		.cfi_def_cfa_offset 0
 3210              	.LVL230:
 3211              	.LBB504:
 3212              		.loc 1 600 5 discriminator 5 view .LVU734
 3213 0036 FFF7FEBF 		b	chSchWakeupS
 3214              	.LVL231:
 3215              	.L201:
 3216              		.cfi_restore_state
 3217              		.loc 1 596 5 is_stmt 1 discriminator 3 view .LVU735
 3218 003a 0748     		ldr	r0, .L202+4
 3219              	.LVL232:
 3220              		.loc 1 596 5 is_stmt 0 discriminator 3 view .LVU736
 3221 003c FFF7FEFF 		bl	chSysHalt
 3222              	.LVL233:
 3223              		.loc 1 596 5 discriminator 3 view .LVU737
 3224 0040 EDE7     		b	.L193
 3225              	.LVL234:
 3226              	.L191:
 3227              		.loc 1 596 5 discriminator 3 view .LVU738
 3228              	.LBE504:
 3229              		.loc 1 602 1 view .LVU739
 3230 0042 044B     		ldr	r3, .L202
 3231 0044 1A68     		ldr	r2, [r3]
 3232 0046 019B     		ldr	r3, [sp, #4]
 3233 0048 5A40     		eors	r2, r3, r2
 3234 004a 01D1     		bne	.L200
 3235 004c 02B0     		add	sp, sp, #8
 3236              		.cfi_remember_state
 3237              		.cfi_def_cfa_offset 16
 3238              		@ sp needed
 3239 004e 70BD     		pop	{r4, r5, r6, pc}
 3240              	.LVL235:
 3241              	.L200:
 3242              		.cfi_restore_state
 3243              		.loc 1 602 1 view .LVU740
 3244 0050 FFF7FEFF 		bl	__stack_chk_fail
 3245              	.LVL236:
 3246              	.L203:
 3247              		.align	2
 3248              	.L202:
 3249 0054 00000000 		.word	.LC17
ARM GAS  /tmp/ccJ6FnJD.s 			page 58


 3250 0058 00000000 		.word	.LANCHOR10
 3251              		.cfi_endproc
 3252              	.LFE236:
 3253              		.size	chThdResumeS, .-chThdResumeS
 3254              		.section	.rodata.chThdResume.cst4,"aM",%progbits,4
 3255              		.align	2
 3256              	.LC18:
 3257 0000 00000000 		.word	__stack_chk_guard
 3258              		.section	.text.chThdResume,"ax",%progbits
 3259              		.align	1
 3260              		.p2align 4,,15
 3261              		.global	chThdResume
 3262              		.syntax unified
 3263              		.thumb
 3264              		.thumb_func
 3265              		.fpu fpv4-sp-d16
 3266              		.type	chThdResume, %function
 3267              	chThdResume:
 3268              	.LVL237:
 3269              	.LFB237:
 3270              		.loc 1 614 54 is_stmt 1 view -0
 3271              		.cfi_startproc
 3272              		@ args = 0, pretend = 0, frame = 16
 3273              		@ frame_needed = 0, uses_anonymous_args = 0
 3274              		.loc 1 614 54 is_stmt 0 view .LVU742
 3275 0000 00B5     		push	{lr}
 3276              		.cfi_def_cfa_offset 4
 3277              		.cfi_offset 14, -4
 3278 0002 85B0     		sub	sp, sp, #20
 3279              		.cfi_def_cfa_offset 24
 3280              		.loc 1 614 54 view .LVU743
 3281 0004 CDE90010 		strd	r1, r0, [sp]
 3282 0008 164B     		ldr	r3, .L210
 3283 000a 1B68     		ldr	r3, [r3]
 3284 000c 0393     		str	r3, [sp, #12]
 3285 000e 4FF00003 		mov	r3,#0
 3286              		.loc 1 616 3 is_stmt 1 view .LVU744
 3287              	.LBB515:
 3288              	.LBI515:
 3289              		.loc 3 346 20 view .LVU745
 3290              	.LBB516:
 3291              		.loc 3 348 3 view .LVU746
 3292              	.LBB517:
 3293              	.LBI517:
 3294              		.loc 4 444 20 view .LVU747
 3295              	.LBE517:
 3296              	.LBE516:
 3297              	.LBE515:
 3298              		.loc 4 447 3 view .LVU748
 3299              	.LVL238:
 3300              	.LBB522:
 3301              	.LBB521:
 3302              	.LBB520:
 3303              	.LBB518:
 3304              	.LBI518:
 3305              		.loc 5 544 57 view .LVU749
 3306              	.LBB519:
ARM GAS  /tmp/ccJ6FnJD.s 			page 59


 3307              		.loc 5 546 3 view .LVU750
 3308 0012 2023     		movs	r3, #32
 3309              		.syntax unified
 3310              	@ 546 ".//ChibiOS//os/ext/CMSIS/include/core_cmFunc.h" 1
 3311 0014 83F31188 		MSR basepri, r3
 3312              	@ 0 "" 2
 3313              	.LVL239:
 3314              		.loc 5 546 3 is_stmt 0 view .LVU751
 3315              		.thumb
 3316              		.syntax unified
 3317              	.LBE519:
 3318              	.LBE518:
 3319              	.LBE520:
 3320              		.loc 3 349 3 is_stmt 1 view .LVU752
 3321 0018 FFF7FEFF 		bl	_stats_start_measure_crit_thd
 3322              	.LVL240:
 3323              		.loc 3 350 3 view .LVU753
 3324 001c FFF7FEFF 		bl	_dbg_check_lock
 3325              	.LVL241:
 3326              	.LBE521:
 3327              	.LBE522:
 3328              		.loc 1 617 3 view .LVU754
 3329 0020 DDE90010 		ldrd	r1, r0, [sp]
 3330 0024 FFF7FEFF 		bl	chThdResumeS
 3331              	.LVL242:
 3332              		.loc 1 618 3 view .LVU755
 3333              	.LBB523:
 3334              	.LBI523:
 3335              		.loc 3 358 20 view .LVU756
 3336              	.LBB524:
 3337              		.loc 3 360 3 view .LVU757
 3338 0028 FFF7FEFF 		bl	_dbg_check_unlock
 3339              	.LVL243:
 3340              		.loc 3 361 3 view .LVU758
 3341 002c FFF7FEFF 		bl	_stats_stop_measure_crit_thd
 3342              	.LVL244:
 3343              		.loc 3 367 3 view .LVU759
 3344              		.loc 3 367 3 view .LVU760
 3345              		.loc 3 367 3 view .LVU761
 3346 0030 0D4B     		ldr	r3, .L210+4
 3347 0032 1A68     		ldr	r2, [r3]
 3348 0034 9A42     		cmp	r2, r3
 3349 0036 04D0     		beq	.L205
 3350 0038 9969     		ldr	r1, [r3, #24]
 3351 003a 9368     		ldr	r3, [r2, #8]
 3352 003c 8A68     		ldr	r2, [r1, #8]
 3353 003e 9A42     		cmp	r2, r3
 3354 0040 0AD3     		bcc	.L208
 3355              	.L205:
 3356              		.loc 3 367 3 view .LVU762
 3357              		.loc 3 371 3 view .LVU763
 3358              	.LBB525:
 3359              	.LBI525:
 3360              		.loc 4 458 20 view .LVU764
 3361              	.LBE525:
 3362              	.LBE524:
 3363              	.LBE523:
ARM GAS  /tmp/ccJ6FnJD.s 			page 60


 3364              		.loc 4 461 3 view .LVU765
 3365              	.LVL245:
 3366              	.LBB531:
 3367              	.LBB529:
 3368              	.LBB528:
 3369              	.LBB526:
 3370              	.LBI526:
 3371              		.loc 5 544 57 view .LVU766
 3372              	.LBB527:
 3373              		.loc 5 546 3 view .LVU767
 3374 0042 0023     		movs	r3, #0
 3375              		.syntax unified
 3376              	@ 546 ".//ChibiOS//os/ext/CMSIS/include/core_cmFunc.h" 1
 3377 0044 83F31188 		MSR basepri, r3
 3378              	@ 0 "" 2
 3379              	.LVL246:
 3380              		.loc 5 546 3 is_stmt 0 view .LVU768
 3381              		.thumb
 3382              		.syntax unified
 3383              	.LBE527:
 3384              	.LBE526:
 3385              	.LBE528:
 3386              	.LBE529:
 3387              	.LBE531:
 3388              		.loc 1 619 1 view .LVU769
 3389 0048 064B     		ldr	r3, .L210
 3390 004a 1A68     		ldr	r2, [r3]
 3391 004c 039B     		ldr	r3, [sp, #12]
 3392 004e 5A40     		eors	r2, r3, r2
 3393 0050 06D1     		bne	.L209
 3394 0052 05B0     		add	sp, sp, #20
 3395              		.cfi_remember_state
 3396              		.cfi_def_cfa_offset 4
 3397              	.LVL247:
 3398              		.loc 1 619 1 view .LVU770
 3399              		@ sp needed
 3400 0054 5DF804FB 		ldr	pc, [sp], #4
 3401              	.LVL248:
 3402              	.L208:
 3403              		.cfi_restore_state
 3404              	.LBB532:
 3405              	.LBB530:
 3406              		.loc 3 367 3 is_stmt 1 view .LVU771
 3407 0058 0448     		ldr	r0, .L210+8
 3408 005a FFF7FEFF 		bl	chSysHalt
 3409              	.LVL249:
 3410 005e F0E7     		b	.L205
 3411              	.L209:
 3412              	.LBE530:
 3413              	.LBE532:
 3414              		.loc 1 619 1 is_stmt 0 view .LVU772
 3415 0060 FFF7FEFF 		bl	__stack_chk_fail
 3416              	.LVL250:
 3417              	.L211:
 3418              		.align	2
 3419              	.L210:
 3420 0064 00000000 		.word	.LC18
ARM GAS  /tmp/ccJ6FnJD.s 			page 61


 3421 0068 00000000 		.word	ch
 3422 006c 00000000 		.word	.LANCHOR1
 3423              		.cfi_endproc
 3424              	.LFE237:
 3425              		.size	chThdResume, .-chThdResume
 3426              		.section	.rodata.chThdEnqueueTimeoutS.cst4,"aM",%progbits,4
 3427              		.align	2
 3428              	.LC19:
 3429 0000 00000000 		.word	__stack_chk_guard
 3430              		.section	.text.chThdEnqueueTimeoutS,"ax",%progbits
 3431              		.align	1
 3432              		.p2align 4,,15
 3433              		.global	chThdEnqueueTimeoutS
 3434              		.syntax unified
 3435              		.thumb
 3436              		.thumb_func
 3437              		.fpu fpv4-sp-d16
 3438              		.type	chThdEnqueueTimeoutS, %function
 3439              	chThdEnqueueTimeoutS:
 3440              	.LVL251:
 3441              	.LFB238:
 3442              		.loc 1 644 69 is_stmt 1 view -0
 3443              		.cfi_startproc
 3444              		@ args = 0, pretend = 0, frame = 8
 3445              		@ frame_needed = 0, uses_anonymous_args = 0
 3446              		.loc 1 644 69 is_stmt 0 view .LVU774
 3447 0000 00B5     		push	{lr}
 3448              		.cfi_def_cfa_offset 4
 3449              		.cfi_offset 14, -4
 3450 0002 124B     		ldr	r3, .L218
 3451 0004 83B0     		sub	sp, sp, #12
 3452              		.cfi_def_cfa_offset 16
 3453              		.loc 1 644 69 view .LVU775
 3454 0006 1B68     		ldr	r3, [r3]
 3455 0008 0193     		str	r3, [sp, #4]
 3456 000a 4FF00003 		mov	r3,#0
 3457              		.loc 1 646 3 is_stmt 1 view .LVU776
 3458              		.loc 1 646 6 is_stmt 0 view .LVU777
 3459 000e 89B1     		cbz	r1, .L213
 3460              		.loc 1 650 3 is_stmt 1 view .LVU778
 3461 0010 0F4B     		ldr	r3, .L218+4
 3462 0012 9B69     		ldr	r3, [r3, #24]
 3463              	.LVL252:
 3464              	.LBB533:
 3465              	.LBI533:
 3466              		.loc 2 663 20 view .LVU779
 3467              	.LBB534:
 3468              		.loc 2 665 3 view .LVU780
 3469              		.loc 2 665 14 is_stmt 0 view .LVU781
 3470 0014 1860     		str	r0, [r3]
 3471              		.loc 2 666 3 is_stmt 1 view .LVU782
 3472              		.loc 2 666 19 is_stmt 0 view .LVU783
 3473 0016 4268     		ldr	r2, [r0, #4]
 3474              		.loc 2 666 14 view .LVU784
 3475 0018 5A60     		str	r2, [r3, #4]
 3476              		.loc 2 667 3 is_stmt 1 view .LVU785
 3477              		.loc 2 667 22 is_stmt 0 view .LVU786
ARM GAS  /tmp/ccJ6FnJD.s 			page 62


 3478 001a 1360     		str	r3, [r2]
 3479              		.loc 2 668 3 is_stmt 1 view .LVU787
 3480              		.loc 2 668 15 is_stmt 0 view .LVU788
 3481 001c 4360     		str	r3, [r0, #4]
 3482              	.LVL253:
 3483              		.loc 2 668 15 view .LVU789
 3484              	.LBE534:
 3485              	.LBE533:
 3486              		.loc 1 652 3 is_stmt 1 view .LVU790
 3487              		.loc 1 652 10 is_stmt 0 view .LVU791
 3488 001e 0B4B     		ldr	r3, .L218
 3489 0020 1A68     		ldr	r2, [r3]
 3490 0022 019B     		ldr	r3, [sp, #4]
 3491 0024 5A40     		eors	r2, r3, r2
 3492 0026 0FD1     		bne	.L217
 3493 0028 0420     		movs	r0, #4
 3494              	.LVL254:
 3495              		.loc 1 653 1 view .LVU792
 3496 002a 03B0     		add	sp, sp, #12
 3497              		.cfi_remember_state
 3498              		.cfi_def_cfa_offset 4
 3499              		@ sp needed
 3500 002c 5DF804EB 		ldr	lr, [sp], #4
 3501              		.cfi_restore 14
 3502              		.cfi_def_cfa_offset 0
 3503              		.loc 1 652 10 view .LVU793
 3504 0030 FFF7FEBF 		b	chSchGoSleepTimeoutS
 3505              	.LVL255:
 3506              	.L213:
 3507              		.cfi_restore_state
 3508              		.loc 1 653 1 view .LVU794
 3509 0034 054B     		ldr	r3, .L218
 3510 0036 1A68     		ldr	r2, [r3]
 3511 0038 019B     		ldr	r3, [sp, #4]
 3512 003a 5A40     		eors	r2, r3, r2
 3513 003c 04D1     		bne	.L217
 3514 003e 4FF0FF30 		mov	r0, #-1
 3515              	.LVL256:
 3516              		.loc 1 653 1 view .LVU795
 3517 0042 03B0     		add	sp, sp, #12
 3518              		.cfi_remember_state
 3519              		.cfi_def_cfa_offset 4
 3520              		@ sp needed
 3521 0044 5DF804FB 		ldr	pc, [sp], #4
 3522              	.LVL257:
 3523              	.L217:
 3524              		.cfi_restore_state
 3525              		.loc 1 653 1 view .LVU796
 3526 0048 FFF7FEFF 		bl	__stack_chk_fail
 3527              	.LVL258:
 3528              	.L219:
 3529              		.loc 1 653 1 view .LVU797
 3530              		.align	2
 3531              	.L218:
 3532 004c 00000000 		.word	.LC19
 3533 0050 00000000 		.word	ch
 3534              		.cfi_endproc
ARM GAS  /tmp/ccJ6FnJD.s 			page 63


 3535              	.LFE238:
 3536              		.size	chThdEnqueueTimeoutS, .-chThdEnqueueTimeoutS
 3537              		.section	.rodata.chThdDequeueNextI.cst4,"aM",%progbits,4
 3538              		.align	2
 3539              	.LC20:
 3540 0000 00000000 		.word	__stack_chk_guard
 3541              		.section	.text.chThdDequeueNextI,"ax",%progbits
 3542              		.align	1
 3543              		.p2align 4,,15
 3544              		.global	chThdDequeueNextI
 3545              		.syntax unified
 3546              		.thumb
 3547              		.thumb_func
 3548              		.fpu fpv4-sp-d16
 3549              		.type	chThdDequeueNextI, %function
 3550              	chThdDequeueNextI:
 3551              	.LVL259:
 3552              	.LFB239:
 3553              		.loc 1 664 57 is_stmt 1 view -0
 3554              		.cfi_startproc
 3555              		@ args = 0, pretend = 0, frame = 8
 3556              		@ frame_needed = 0, uses_anonymous_args = 0
 3557              		.loc 1 664 57 is_stmt 0 view .LVU799
 3558 0000 30B5     		push	{r4, r5, lr}
 3559              		.cfi_def_cfa_offset 12
 3560              		.cfi_offset 4, -12
 3561              		.cfi_offset 5, -8
 3562              		.cfi_offset 14, -4
 3563              	.LBB543:
 3564              	.LBB544:
 3565              		.loc 2 631 20 view .LVU800
 3566 0002 0468     		ldr	r4, [r0]
 3567              	.LBE544:
 3568              	.LBE543:
 3569              		.loc 1 664 57 view .LVU801
 3570 0004 144B     		ldr	r3, .L231
 3571 0006 83B0     		sub	sp, sp, #12
 3572              		.cfi_def_cfa_offset 24
 3573              		.loc 1 666 6 view .LVU802
 3574 0008 A042     		cmp	r0, r4
 3575              		.loc 1 664 57 view .LVU803
 3576 000a 1B68     		ldr	r3, [r3]
 3577 000c 0193     		str	r3, [sp, #4]
 3578 000e 4FF00003 		mov	r3,#0
 3579              		.loc 1 666 3 is_stmt 1 view .LVU804
 3580              	.LVL260:
 3581              	.LBB546:
 3582              	.LBI543:
 3583              		.loc 2 629 20 view .LVU805
 3584              	.LBB545:
 3585              		.loc 2 631 3 view .LVU806
 3586              		.loc 2 631 3 is_stmt 0 view .LVU807
 3587              	.LBE545:
 3588              	.LBE546:
 3589              		.loc 1 666 6 view .LVU808
 3590 0012 17D0     		beq	.L220
 3591              	.LBB547:
ARM GAS  /tmp/ccJ6FnJD.s 			page 64


 3592              	.LBB548:
 3593              	.LBB549:
 3594              	.LBB550:
 3595              		.loc 2 674 19 view .LVU809
 3596 0014 2368     		ldr	r3, [r4]
 3597              		.loc 2 674 15 view .LVU810
 3598 0016 0360     		str	r3, [r0]
 3599              		.loc 2 675 23 view .LVU811
 3600 0018 5860     		str	r0, [r3, #4]
 3601              	.LBE550:
 3602              	.LBE549:
 3603              		.loc 6 319 3 view .LVU812
 3604 001a 94F82030 		ldrb	r3, [r4, #32]	@ zero_extendqisi2
 3605 001e 042B     		cmp	r3, #4
 3606 0020 0D46     		mov	r5, r1
 3607              	.LBE548:
 3608              	.LBE547:
 3609              		.loc 1 667 5 is_stmt 1 view .LVU813
 3610              	.LVL261:
 3611              	.LBB556:
 3612              	.LBI547:
 3613              		.loc 6 312 20 view .LVU814
 3614              	.LBB553:
 3615              		.loc 6 313 3 view .LVU815
 3616              		.loc 6 315 3 view .LVU816
 3617              		.loc 6 315 3 view .LVU817
 3618              		.loc 6 315 3 view .LVU818
 3619              		.loc 6 315 3 is_stmt 0 view .LVU819
 3620              	.LBE553:
 3621              	.LBE556:
 3622              		.loc 2 631 3 is_stmt 1 view .LVU820
 3623              	.LBB557:
 3624              	.LBB554:
 3625              		.loc 6 315 3 view .LVU821
 3626              		.loc 6 317 3 view .LVU822
 3627              	.LBB552:
 3628              	.LBI549:
 3629              		.loc 2 671 25 view .LVU823
 3630              	.LBB551:
 3631              		.loc 2 672 3 view .LVU824
 3632              		.loc 2 674 3 view .LVU825
 3633              		.loc 2 675 3 view .LVU826
 3634              		.loc 2 677 3 view .LVU827
 3635              		.loc 2 677 3 is_stmt 0 view .LVU828
 3636              	.LBE551:
 3637              	.LBE552:
 3638              		.loc 6 319 3 is_stmt 1 view .LVU829
 3639              		.loc 6 319 3 view .LVU830
 3640              		.loc 6 319 3 view .LVU831
 3641 0022 0BD1     		bne	.L230
 3642              	.LVL262:
 3643              	.L222:
 3644              		.loc 6 319 3 view .LVU832
 3645              		.loc 6 321 3 view .LVU833
 3646              		.loc 6 322 10 is_stmt 0 view .LVU834
 3647 0024 0C4B     		ldr	r3, .L231
 3648              		.loc 6 321 18 view .LVU835
ARM GAS  /tmp/ccJ6FnJD.s 			page 65


 3649 0026 A562     		str	r5, [r4, #40]
 3650              		.loc 6 322 3 is_stmt 1 view .LVU836
 3651              		.loc 6 322 10 is_stmt 0 view .LVU837
 3652 0028 1A68     		ldr	r2, [r3]
 3653 002a 019B     		ldr	r3, [sp, #4]
 3654 002c 5A40     		eors	r2, r3, r2
 3655 002e 10D1     		bne	.L229
 3656              		.loc 6 322 10 view .LVU838
 3657 0030 2046     		mov	r0, r4
 3658              	.LBE554:
 3659              	.LBE557:
 3660              		.loc 1 669 1 view .LVU839
 3661 0032 03B0     		add	sp, sp, #12
 3662              		.cfi_remember_state
 3663              		.cfi_def_cfa_offset 12
 3664              		@ sp needed
 3665 0034 BDE83040 		pop	{r4, r5, lr}
 3666              		.cfi_restore 14
 3667              		.cfi_restore 5
 3668              		.cfi_restore 4
 3669              		.cfi_def_cfa_offset 0
 3670              	.LVL263:
 3671              	.LBB558:
 3672              	.LBB555:
 3673              		.loc 6 322 10 view .LVU840
 3674 0038 FFF7FEBF 		b	chSchReadyI
 3675              	.LVL264:
 3676              	.L230:
 3677              		.cfi_restore_state
 3678              		.loc 6 319 3 is_stmt 1 view .LVU841
 3679 003c 0748     		ldr	r0, .L231+4
 3680              	.LVL265:
 3681              		.loc 6 319 3 is_stmt 0 view .LVU842
 3682 003e FFF7FEFF 		bl	chSysHalt
 3683              	.LVL266:
 3684              		.loc 6 319 3 view .LVU843
 3685 0042 EFE7     		b	.L222
 3686              	.LVL267:
 3687              	.L220:
 3688              		.loc 6 319 3 view .LVU844
 3689              	.LBE555:
 3690              	.LBE558:
 3691              		.loc 1 669 1 view .LVU845
 3692 0044 044B     		ldr	r3, .L231
 3693 0046 1A68     		ldr	r2, [r3]
 3694 0048 019B     		ldr	r3, [sp, #4]
 3695 004a 5A40     		eors	r2, r3, r2
 3696 004c 01D1     		bne	.L229
 3697 004e 03B0     		add	sp, sp, #12
 3698              		.cfi_remember_state
 3699              		.cfi_def_cfa_offset 12
 3700              		@ sp needed
 3701 0050 30BD     		pop	{r4, r5, pc}
 3702              	.LVL268:
 3703              	.L229:
 3704              		.cfi_restore_state
 3705              		.loc 1 669 1 view .LVU846
ARM GAS  /tmp/ccJ6FnJD.s 			page 66


 3706 0052 FFF7FEFF 		bl	__stack_chk_fail
 3707              	.LVL269:
 3708              	.L232:
 3709 0056 00BF     		.align	2
 3710              	.L231:
 3711 0058 00000000 		.word	.LC20
 3712 005c 00000000 		.word	.LANCHOR11
 3713              		.cfi_endproc
 3714              	.LFE239:
 3715              		.size	chThdDequeueNextI, .-chThdDequeueNextI
 3716              		.section	.rodata.chThdDequeueAllI.cst4,"aM",%progbits,4
 3717              		.align	2
 3718              	.LC21:
 3719 0000 00000000 		.word	__stack_chk_guard
 3720              		.section	.text.chThdDequeueAllI,"ax",%progbits
 3721              		.align	1
 3722              		.p2align 4,,15
 3723              		.global	chThdDequeueAllI
 3724              		.syntax unified
 3725              		.thumb
 3726              		.thumb_func
 3727              		.fpu fpv4-sp-d16
 3728              		.type	chThdDequeueAllI, %function
 3729              	chThdDequeueAllI:
 3730              	.LVL270:
 3731              	.LFB240:
 3732              		.loc 1 679 56 is_stmt 1 view -0
 3733              		.cfi_startproc
 3734              		@ args = 0, pretend = 0, frame = 8
 3735              		@ frame_needed = 0, uses_anonymous_args = 0
 3736              		.loc 1 679 56 is_stmt 0 view .LVU848
 3737 0000 F0B5     		push	{r4, r5, r6, r7, lr}
 3738              		.cfi_def_cfa_offset 20
 3739              		.cfi_offset 4, -20
 3740              		.cfi_offset 5, -16
 3741              		.cfi_offset 6, -12
 3742              		.cfi_offset 7, -8
 3743              		.cfi_offset 14, -4
 3744              	.LBB567:
 3745              	.LBB568:
 3746              		.loc 2 631 20 view .LVU849
 3747 0002 0468     		ldr	r4, [r0]
 3748              	.LBE568:
 3749              	.LBE567:
 3750              		.loc 1 679 56 view .LVU850
 3751 0004 124B     		ldr	r3, .L244
 3752 0006 83B0     		sub	sp, sp, #12
 3753              		.cfi_def_cfa_offset 32
 3754              		.loc 1 681 9 view .LVU851
 3755 0008 A042     		cmp	r0, r4
 3756              		.loc 1 679 56 view .LVU852
 3757 000a 1B68     		ldr	r3, [r3]
 3758 000c 0193     		str	r3, [sp, #4]
 3759 000e 4FF00003 		mov	r3,#0
 3760              		.loc 1 681 3 is_stmt 1 view .LVU853
 3761              		.loc 1 681 9 view .LVU854
 3762              	.LVL271:
ARM GAS  /tmp/ccJ6FnJD.s 			page 67


 3763              	.LBB571:
 3764              	.LBI567:
 3765              		.loc 2 629 20 view .LVU855
 3766              	.LBB569:
 3767              		.loc 2 631 3 view .LVU856
 3768              		.loc 2 631 3 is_stmt 0 view .LVU857
 3769              	.LBE569:
 3770              	.LBE571:
 3771              		.loc 1 681 9 view .LVU858
 3772 0012 13D0     		beq	.L233
 3773              	.LBB572:
 3774              	.LBB573:
 3775              		.loc 6 319 3 view .LVU859
 3776 0014 0F4F     		ldr	r7, .L244+4
 3777 0016 0546     		mov	r5, r0
 3778 0018 0E46     		mov	r6, r1
 3779              	.LVL272:
 3780              	.L236:
 3781              		.loc 6 319 3 view .LVU860
 3782              	.LBE573:
 3783              	.LBE572:
 3784              		.loc 1 682 5 is_stmt 1 view .LVU861
 3785              	.LBB578:
 3786              	.LBI572:
 3787              		.loc 6 312 20 view .LVU862
 3788              	.LBB576:
 3789              		.loc 6 313 3 view .LVU863
 3790              		.loc 6 315 3 view .LVU864
 3791              		.loc 6 315 3 view .LVU865
 3792              		.loc 6 315 3 view .LVU866
 3793              		.loc 6 315 3 is_stmt 0 view .LVU867
 3794              	.LBE576:
 3795              	.LBE578:
 3796              		.loc 2 631 3 is_stmt 1 view .LVU868
 3797              	.LBB579:
 3798              	.LBB577:
 3799              		.loc 6 315 3 view .LVU869
 3800              		.loc 6 317 3 view .LVU870
 3801              	.LBB574:
 3802              	.LBI574:
 3803              		.loc 2 671 25 view .LVU871
 3804              	.LBB575:
 3805              		.loc 2 672 3 view .LVU872
 3806              		.loc 2 674 3 view .LVU873
 3807              		.loc 2 674 19 is_stmt 0 view .LVU874
 3808 001a 2368     		ldr	r3, [r4]
 3809              		.loc 2 674 15 view .LVU875
 3810 001c 2B60     		str	r3, [r5]
 3811              		.loc 2 675 3 is_stmt 1 view .LVU876
 3812              		.loc 2 675 23 is_stmt 0 view .LVU877
 3813 001e 5D60     		str	r5, [r3, #4]
 3814              		.loc 2 677 3 is_stmt 1 view .LVU878
 3815              	.LVL273:
 3816              		.loc 2 677 3 is_stmt 0 view .LVU879
 3817              	.LBE575:
 3818              	.LBE574:
 3819              		.loc 6 319 3 is_stmt 1 view .LVU880
ARM GAS  /tmp/ccJ6FnJD.s 			page 68


 3820              		.loc 6 319 3 view .LVU881
 3821              		.loc 6 319 3 view .LVU882
 3822 0020 94F82030 		ldrb	r3, [r4, #32]	@ zero_extendqisi2
 3823 0024 042B     		cmp	r3, #4
 3824 0026 02D0     		beq	.L235
 3825              		.loc 6 319 3 view .LVU883
 3826 0028 3846     		mov	r0, r7
 3827 002a FFF7FEFF 		bl	chSysHalt
 3828              	.LVL274:
 3829              	.L235:
 3830              		.loc 6 319 3 view .LVU884
 3831              		.loc 6 321 3 view .LVU885
 3832              		.loc 6 321 18 is_stmt 0 view .LVU886
 3833 002e A662     		str	r6, [r4, #40]
 3834              		.loc 6 322 3 is_stmt 1 view .LVU887
 3835              		.loc 6 322 10 is_stmt 0 view .LVU888
 3836 0030 2046     		mov	r0, r4
 3837 0032 FFF7FEFF 		bl	chSchReadyI
 3838              	.LVL275:
 3839              		.loc 6 322 10 view .LVU889
 3840              	.LBE577:
 3841              	.LBE579:
 3842              		.loc 1 681 9 is_stmt 1 view .LVU890
 3843              	.LBB580:
 3844              		.loc 2 629 20 view .LVU891
 3845              	.LBB570:
 3846              		.loc 2 631 3 view .LVU892
 3847              		.loc 2 631 20 is_stmt 0 view .LVU893
 3848 0036 2C68     		ldr	r4, [r5]
 3849              	.LVL276:
 3850              		.loc 2 631 20 view .LVU894
 3851              	.LBE570:
 3852              	.LBE580:
 3853              		.loc 1 681 9 view .LVU895
 3854 0038 A542     		cmp	r5, r4
 3855 003a EED1     		bne	.L236
 3856              	.LVL277:
 3857              	.L233:
 3858              		.loc 1 684 1 view .LVU896
 3859 003c 044B     		ldr	r3, .L244
 3860 003e 1A68     		ldr	r2, [r3]
 3861 0040 019B     		ldr	r3, [sp, #4]
 3862 0042 5A40     		eors	r2, r3, r2
 3863 0044 01D1     		bne	.L243
 3864 0046 03B0     		add	sp, sp, #12
 3865              		.cfi_remember_state
 3866              		.cfi_def_cfa_offset 20
 3867              		@ sp needed
 3868 0048 F0BD     		pop	{r4, r5, r6, r7, pc}
 3869              	.L243:
 3870              		.cfi_restore_state
 3871 004a FFF7FEFF 		bl	__stack_chk_fail
 3872              	.LVL278:
 3873              	.L245:
 3874 004e 00BF     		.align	2
 3875              	.L244:
 3876 0050 00000000 		.word	.LC21
ARM GAS  /tmp/ccJ6FnJD.s 			page 69


 3877 0054 00000000 		.word	.LANCHOR11
 3878              		.cfi_endproc
 3879              	.LFE240:
 3880              		.size	chThdDequeueAllI, .-chThdDequeueAllI
 3881              		.section	.rodata.__func__.7261,"a"
 3882              		.align	2
 3883              		.set	.LANCHOR1,. + 0
 3884              		.type	__func__.7261, %object
 3885              		.size	__func__.7261, 12
 3886              	__func__.7261:
 3887 0000 63685379 		.ascii	"chSysUnlock\000"
 3887      73556E6C 
 3887      6F636B00 
 3888              		.section	.rodata.__func__.7428,"a"
 3889              		.align	2
 3890              		.set	.LANCHOR2,. + 0
 3891              		.type	__func__.7428, %object
 3892              		.size	__func__.7428, 12
 3893              	__func__.7428:
 3894 0000 63685468 		.ascii	"chThdStartI\000"
 3894      64537461 
 3894      72744900 
 3895              		.section	.rodata.__func__.7432,"a"
 3896              		.align	2
 3897              		.set	.LANCHOR4,. + 0
 3898              		.type	__func__.7432, %object
 3899              		.size	__func__.7432, 12
 3900              	__func__.7432:
 3901 0000 63685468 		.ascii	"chThdSleepS\000"
 3901      64536C65 
 3901      65705300 
 3902              		.section	.rodata.__func__.7444,"a"
 3903              		.align	2
 3904              		.set	.LANCHOR11,. + 0
 3905              		.type	__func__.7444, %object
 3906              		.size	__func__.7444, 20
 3907              	__func__.7444:
 3908 0000 63685468 		.ascii	"chThdDoDequeueNextI\000"
 3908      64446F44 
 3908      65717565 
 3908      75654E65 
 3908      78744900 
 3909              		.section	.rodata.__func__.7974,"a"
 3910              		.align	2
 3911              		.set	.LANCHOR0,. + 0
 3912              		.type	__func__.7974, %object
 3913              		.size	__func__.7974, 13
 3914              	__func__.7974:
 3915 0000 63685468 		.ascii	"chThdCreateI\000"
 3915      64437265 
 3915      61746549 
 3915      00
 3916              		.section	.rodata.__func__.7990,"a"
 3917              		.align	2
 3918              		.set	.LANCHOR3,. + 0
 3919              		.type	__func__.7990, %object
 3920              		.size	__func__.7990, 17
ARM GAS  /tmp/ccJ6FnJD.s 			page 70


 3921              	__func__.7990:
 3922 0000 63685468 		.ascii	"chThdSetPriority\000"
 3922      64536574 
 3922      5072696F 
 3922      72697479 
 3922      00
 3923              		.section	.rodata.__func__.8018,"a"
 3924              		.align	2
 3925              		.set	.LANCHOR5,. + 0
 3926              		.type	__func__.8018, %object
 3927              		.size	__func__.8018, 11
 3928              	__func__.8018:
 3929 0000 63685468 		.ascii	"chThdExitS\000"
 3929      64457869 
 3929      745300
 3930              		.section	.rodata.__func__.8023,"a"
 3931              		.align	2
 3932              		.set	.LANCHOR6,. + 0
 3933              		.type	__func__.8023, %object
 3934              		.size	__func__.8023, 10
 3935              	__func__.8023:
 3936 0000 63685468 		.ascii	"chThdWait\000"
 3936      64576169 
 3936      7400
 3937              		.section	.rodata.__func__.8028,"a"
 3938              		.align	2
 3939              		.set	.LANCHOR7,. + 0
 3940              		.type	__func__.8028, %object
 3941              		.size	__func__.8028, 14
 3942              	__func__.8028:
 3943 0000 63685468 		.ascii	"chThdSuspendS\000"
 3943      64537573 
 3943      70656E64 
 3943      5300
 3944              		.section	.rodata.__func__.8034,"a"
 3945              		.align	2
 3946              		.set	.LANCHOR8,. + 0
 3947              		.type	__func__.8034, %object
 3948              		.size	__func__.8034, 21
 3949              	__func__.8034:
 3950 0000 63685468 		.ascii	"chThdSuspendTimeoutS\000"
 3950      64537573 
 3950      70656E64 
 3950      54696D65 
 3950      6F757453 
 3951              		.section	.rodata.__func__.8040,"a"
 3952              		.align	2
 3953              		.set	.LANCHOR9,. + 0
 3954              		.type	__func__.8040, %object
 3955              		.size	__func__.8040, 13
 3956              	__func__.8040:
 3957 0000 63685468 		.ascii	"chThdResumeI\000"
 3957      64526573 
 3957      756D6549 
 3957      00
 3958              		.section	.rodata.__func__.8046,"a"
 3959              		.align	2
ARM GAS  /tmp/ccJ6FnJD.s 			page 71


 3960              		.set	.LANCHOR10,. + 0
 3961              		.type	__func__.8046, %object
 3962              		.size	__func__.8046, 13
 3963              	__func__.8046:
 3964 0000 63685468 		.ascii	"chThdResumeS\000"
 3964      64526573 
 3964      756D6553 
 3964      00
 3965              		.text
 3966              	.Letext0:
 3967              		.file 8 "/usr/lib/gcc/arm-none-eabi/9.2.1/include/stddef.h"
 3968              		.file 9 "/usr/lib/gcc/arm-none-eabi/9.2.1/include/stdint.h"
 3969              		.file 10 ".//ChibiOS//os/rt/ports/ARMCMx/compilers/GCC/chtypes.h"
 3970              		.file 11 ".//ChibiOS//os/rt/include/chsystypes.h"
 3971              		.file 12 ".//ChibiOS//os/ext/CMSIS/include/core_cm4.h"
 3972              		.file 13 ".//ChibiOS//os/ext/CMSIS/ST/system_stm32f4xx.h"
 3973              		.file 14 ".//ChibiOS//os/rt/ports/ARMCMx/chcore.h"
 3974              		.file 15 ".//ChibiOS//os/rt/include/chdebug.h"
 3975              		.file 16 ".//ChibiOS//os/rt/include/chtm.h"
 3976              		.file 17 ".//ChibiOS//os/rt/include/chstats.h"
 3977              		.file 18 ".//ChibiOS//os/rt/include/chsem.h"
 3978              		.file 19 ".//ChibiOS//os/rt/include/chmtx.h"
 3979              		.file 20 ".//ChibiOS//os/rt/include/chregistry.h"
 3980              		.file 21 ".//ChibiOS//os/rt/include/chdynamic.h"
 3981              		.section	.debug_info,"",%progbits
 3982              	.Ldebug_info0:
 3983 0000 9F260000 		.4byte	0x269f
 3984 0004 0400     		.2byte	0x4
 3985 0006 00000000 		.4byte	.Ldebug_abbrev0
 3986 000a 04       		.byte	0x4
 3987 000b 01       		.uleb128 0x1
 3988 000c 70090000 		.4byte	.LASF225
 3989 0010 0C       		.byte	0xc
 3990 0011 2F0B0000 		.4byte	.LASF226
 3991 0015 C20A0000 		.4byte	.LASF227
 3992 0019 D0060000 		.4byte	.Ldebug_ranges0+0x6d0
 3993 001d 00000000 		.4byte	0
 3994 0021 00000000 		.4byte	.Ldebug_line0
 3995 0025 02       		.uleb128 0x2
 3996 0026 04       		.byte	0x4
 3997 0027 05       		.byte	0x5
 3998 0028 696E7400 		.ascii	"int\000"
 3999 002c 03       		.uleb128 0x3
 4000 002d 08000000 		.4byte	.LASF5
 4001 0031 08       		.byte	0x8
 4002 0032 D1       		.byte	0xd1
 4003 0033 17       		.byte	0x17
 4004 0034 38000000 		.4byte	0x38
 4005 0038 04       		.uleb128 0x4
 4006 0039 04       		.byte	0x4
 4007 003a 07       		.byte	0x7
 4008 003b EC050000 		.4byte	.LASF0
 4009 003f 04       		.uleb128 0x4
 4010 0040 08       		.byte	0x8
 4011 0041 05       		.byte	0x5
 4012 0042 28050000 		.4byte	.LASF1
 4013 0046 04       		.uleb128 0x4
ARM GAS  /tmp/ccJ6FnJD.s 			page 72


 4014 0047 08       		.byte	0x8
 4015 0048 04       		.byte	0x4
 4016 0049 AE060000 		.4byte	.LASF2
 4017 004d 04       		.uleb128 0x4
 4018 004e 01       		.byte	0x1
 4019 004f 06       		.byte	0x6
 4020 0050 79020000 		.4byte	.LASF3
 4021 0054 04       		.uleb128 0x4
 4022 0055 02       		.byte	0x2
 4023 0056 05       		.byte	0x5
 4024 0057 A2080000 		.4byte	.LASF4
 4025 005b 03       		.uleb128 0x3
 4026 005c 73000000 		.4byte	.LASF6
 4027 0060 09       		.byte	0x9
 4028 0061 28       		.byte	0x28
 4029 0062 18       		.byte	0x18
 4030 0063 6C000000 		.4byte	0x6c
 4031 0067 05       		.uleb128 0x5
 4032 0068 5B000000 		.4byte	0x5b
 4033 006c 04       		.uleb128 0x4
 4034 006d 04       		.byte	0x4
 4035 006e 05       		.byte	0x5
 4036 006f A7010000 		.4byte	.LASF7
 4037 0073 03       		.uleb128 0x3
 4038 0074 8F020000 		.4byte	.LASF8
 4039 0078 09       		.byte	0x9
 4040 0079 2E       		.byte	0x2e
 4041 007a 18       		.byte	0x18
 4042 007b 7F000000 		.4byte	0x7f
 4043 007f 04       		.uleb128 0x4
 4044 0080 01       		.byte	0x1
 4045 0081 08       		.byte	0x8
 4046 0082 B1020000 		.4byte	.LASF9
 4047 0086 03       		.uleb128 0x3
 4048 0087 5C070000 		.4byte	.LASF10
 4049 008b 09       		.byte	0x9
 4050 008c 31       		.byte	0x31
 4051 008d 19       		.byte	0x19
 4052 008e 92000000 		.4byte	0x92
 4053 0092 04       		.uleb128 0x4
 4054 0093 02       		.byte	0x2
 4055 0094 07       		.byte	0x7
 4056 0095 510B0000 		.4byte	.LASF11
 4057 0099 03       		.uleb128 0x3
 4058 009a 1F0B0000 		.4byte	.LASF12
 4059 009e 09       		.byte	0x9
 4060 009f 34       		.byte	0x34
 4061 00a0 19       		.byte	0x19
 4062 00a1 A5000000 		.4byte	0xa5
 4063 00a5 04       		.uleb128 0x4
 4064 00a6 04       		.byte	0x4
 4065 00a7 07       		.byte	0x7
 4066 00a8 21040000 		.4byte	.LASF13
 4067 00ac 03       		.uleb128 0x3
 4068 00ad AC080000 		.4byte	.LASF14
 4069 00b1 09       		.byte	0x9
 4070 00b2 37       		.byte	0x37
ARM GAS  /tmp/ccJ6FnJD.s 			page 73


 4071 00b3 19       		.byte	0x19
 4072 00b4 B8000000 		.4byte	0xb8
 4073 00b8 04       		.uleb128 0x4
 4074 00b9 08       		.byte	0x8
 4075 00ba 07       		.byte	0x7
 4076 00bb 3D070000 		.4byte	.LASF15
 4077 00bf 03       		.uleb128 0x3
 4078 00c0 11060000 		.4byte	.LASF16
 4079 00c4 0A       		.byte	0xa
 4080 00c5 45       		.byte	0x45
 4081 00c6 1D       		.byte	0x1d
 4082 00c7 99000000 		.4byte	0x99
 4083 00cb 03       		.uleb128 0x3
 4084 00cc F5010000 		.4byte	.LASF17
 4085 00d0 0A       		.byte	0xa
 4086 00d1 46       		.byte	0x46
 4087 00d2 1D       		.byte	0x1d
 4088 00d3 AC000000 		.4byte	0xac
 4089 00d7 03       		.uleb128 0x3
 4090 00d8 57080000 		.4byte	.LASF18
 4091 00dc 0A       		.byte	0xa
 4092 00dd 48       		.byte	0x48
 4093 00de 1D       		.byte	0x1d
 4094 00df 73000000 		.4byte	0x73
 4095 00e3 03       		.uleb128 0x3
 4096 00e4 EC010000 		.4byte	.LASF19
 4097 00e8 0A       		.byte	0xa
 4098 00e9 49       		.byte	0x49
 4099 00ea 1D       		.byte	0x1d
 4100 00eb 73000000 		.4byte	0x73
 4101 00ef 03       		.uleb128 0x3
 4102 00f0 34090000 		.4byte	.LASF20
 4103 00f4 0A       		.byte	0xa
 4104 00f5 4A       		.byte	0x4a
 4105 00f6 1D       		.byte	0x1d
 4106 00f7 73000000 		.4byte	0x73
 4107 00fb 03       		.uleb128 0x3
 4108 00fc 89070000 		.4byte	.LASF21
 4109 0100 0A       		.byte	0xa
 4110 0101 4B       		.byte	0x4b
 4111 0102 1D       		.byte	0x1d
 4112 0103 73000000 		.4byte	0x73
 4113 0107 03       		.uleb128 0x3
 4114 0108 40000000 		.4byte	.LASF22
 4115 010c 0A       		.byte	0xa
 4116 010d 4C       		.byte	0x4c
 4117 010e 1D       		.byte	0x1d
 4118 010f 99000000 		.4byte	0x99
 4119 0113 03       		.uleb128 0x3
 4120 0114 65070000 		.4byte	.LASF23
 4121 0118 0A       		.byte	0xa
 4122 0119 4D       		.byte	0x4d
 4123 011a 1D       		.byte	0x1d
 4124 011b 5B000000 		.4byte	0x5b
 4125 011f 03       		.uleb128 0x3
 4126 0120 97020000 		.4byte	.LASF24
 4127 0124 0A       		.byte	0xa
ARM GAS  /tmp/ccJ6FnJD.s 			page 74


 4128 0125 4F       		.byte	0x4f
 4129 0126 1D       		.byte	0x1d
 4130 0127 99000000 		.4byte	0x99
 4131 012b 03       		.uleb128 0x3
 4132 012c 97030000 		.4byte	.LASF25
 4133 0130 0A       		.byte	0xa
 4134 0131 51       		.byte	0x51
 4135 0132 1D       		.byte	0x1d
 4136 0133 5B000000 		.4byte	0x5b
 4137 0137 03       		.uleb128 0x3
 4138 0138 9F040000 		.4byte	.LASF26
 4139 013c 0A       		.byte	0xa
 4140 013d 52       		.byte	0x52
 4141 013e 1D       		.byte	0x1d
 4142 013f 99000000 		.4byte	0x99
 4143 0143 03       		.uleb128 0x3
 4144 0144 22000000 		.4byte	.LASF27
 4145 0148 0B       		.byte	0xb
 4146 0149 33       		.byte	0x33
 4147 014a 12       		.byte	0x12
 4148 014b 99000000 		.4byte	0x99
 4149 014f 05       		.uleb128 0x5
 4150 0150 43010000 		.4byte	0x143
 4151 0154 03       		.uleb128 0x3
 4152 0155 A5060000 		.4byte	.LASF28
 4153 0159 0B       		.byte	0xb
 4154 015a 3F       		.byte	0x3f
 4155 015b 1A       		.byte	0x1a
 4156 015c 60010000 		.4byte	0x160
 4157 0160 06       		.uleb128 0x6
 4158 0161 62040000 		.4byte	.LASF52
 4159 0165 68       		.byte	0x68
 4160 0166 02       		.byte	0x2
 4161 0167 C2       		.byte	0xc2
 4162 0168 08       		.byte	0x8
 4163 0169 95020000 		.4byte	0x295
 4164 016d 07       		.uleb128 0x7
 4165 016e B0010000 		.4byte	.LASF29
 4166 0172 02       		.byte	0x2
 4167 0173 C3       		.byte	0xc3
 4168 0174 1A       		.byte	0x1a
 4169 0175 A1020000 		.4byte	0x2a1
 4170 0179 00       		.byte	0
 4171 017a 07       		.uleb128 0x7
 4172 017b E5010000 		.4byte	.LASF30
 4173 017f 02       		.byte	0x2
 4174 0180 C5       		.byte	0xc5
 4175 0181 1A       		.byte	0x1a
 4176 0182 A1020000 		.4byte	0x2a1
 4177 0186 04       		.byte	0x4
 4178 0187 07       		.uleb128 0x7
 4179 0188 2B030000 		.4byte	.LASF31
 4180 018c 02       		.byte	0x2
 4181 018d C7       		.byte	0xc7
 4182 018e 19       		.byte	0x19
 4183 018f 07010000 		.4byte	0x107
 4184 0193 08       		.byte	0x8
ARM GAS  /tmp/ccJ6FnJD.s 			page 75


 4185 0194 07       		.uleb128 0x7
 4186 0195 3A000000 		.4byte	.LASF32
 4187 0199 02       		.byte	0x2
 4188 019a C8       		.byte	0xc8
 4189 019b 19       		.byte	0x19
 4190 019c 4F050000 		.4byte	0x54f
 4191 01a0 0C       		.byte	0xc
 4192 01a1 07       		.uleb128 0x7
 4193 01a2 9F010000 		.4byte	.LASF33
 4194 01a6 02       		.byte	0x2
 4195 01a7 CA       		.byte	0xca
 4196 01a8 1A       		.byte	0x1a
 4197 01a9 A1020000 		.4byte	0x2a1
 4198 01ad 10       		.byte	0x10
 4199 01ae 07       		.uleb128 0x7
 4200 01af 54070000 		.4byte	.LASF34
 4201 01b3 02       		.byte	0x2
 4202 01b4 CB       		.byte	0xcb
 4203 01b5 1A       		.byte	0x1a
 4204 01b6 A1020000 		.4byte	0x2a1
 4205 01ba 14       		.byte	0x14
 4206 01bb 07       		.uleb128 0x7
 4207 01bc A30B0000 		.4byte	.LASF35
 4208 01c0 02       		.byte	0x2
 4209 01c1 D2       		.byte	0xd2
 4210 01c2 1A       		.byte	0x1a
 4211 01c3 0C090000 		.4byte	0x90c
 4212 01c7 18       		.byte	0x18
 4213 01c8 07       		.uleb128 0x7
 4214 01c9 900B0000 		.4byte	.LASF36
 4215 01cd 02       		.byte	0x2
 4216 01ce D8       		.byte	0xd8
 4217 01cf 1A       		.byte	0x1a
 4218 01d0 23090000 		.4byte	0x923
 4219 01d4 1C       		.byte	0x1c
 4220 01d5 07       		.uleb128 0x7
 4221 01d6 D40B0000 		.4byte	.LASF37
 4222 01da 02       		.byte	0x2
 4223 01db DD       		.byte	0xdd
 4224 01dc 19       		.byte	0x19
 4225 01dd E3000000 		.4byte	0xe3
 4226 01e1 20       		.byte	0x20
 4227 01e2 07       		.uleb128 0x7
 4228 01e3 D5050000 		.4byte	.LASF38
 4229 01e7 02       		.byte	0x2
 4230 01e8 E1       		.byte	0xe1
 4231 01e9 19       		.byte	0x19
 4232 01ea D7000000 		.4byte	0xd7
 4233 01ee 21       		.byte	0x21
 4234 01ef 07       		.uleb128 0x7
 4235 01f0 21060000 		.4byte	.LASF39
 4236 01f4 02       		.byte	0x2
 4237 01f5 E6       		.byte	0xe6
 4238 01f6 19       		.byte	0x19
 4239 01f7 EF000000 		.4byte	0xef
 4240 01fb 22       		.byte	0x22
 4241 01fc 07       		.uleb128 0x7
ARM GAS  /tmp/ccJ6FnJD.s 			page 76


 4242 01fd 85020000 		.4byte	.LASF40
 4243 0201 02       		.byte	0x2
 4244 0202 EC       		.byte	0xec
 4245 0203 19       		.byte	0x19
 4246 0204 FB000000 		.4byte	0xfb
 4247 0208 23       		.byte	0x23
 4248 0209 07       		.uleb128 0x7
 4249 020a 69060000 		.4byte	.LASF41
 4250 020e 02       		.byte	0x2
 4251 020f F3       		.byte	0xf3
 4252 0210 19       		.byte	0x19
 4253 0211 4F010000 		.4byte	0x14f
 4254 0215 24       		.byte	0x24
 4255 0216 08       		.uleb128 0x8
 4256 0217 705F7500 		.ascii	"p_u\000"
 4257 021b 02       		.byte	0x2
 4258 021c 3101     		.2byte	0x131
 4259 021e 19       		.byte	0x19
 4260 021f 2B080000 		.4byte	0x82b
 4261 0223 28       		.byte	0x28
 4262 0224 09       		.uleb128 0x9
 4263 0225 C1050000 		.4byte	.LASF42
 4264 0229 02       		.byte	0x2
 4265 022a 3601     		.2byte	0x136
 4266 022c 19       		.byte	0x19
 4267 022d A7020000 		.4byte	0x2a7
 4268 0231 2C       		.byte	0x2c
 4269 0232 09       		.uleb128 0x9
 4270 0233 62000000 		.4byte	.LASF43
 4271 0237 02       		.byte	0x2
 4272 0238 3C01     		.2byte	0x13c
 4273 023a 19       		.byte	0x19
 4274 023b CE020000 		.4byte	0x2ce
 4275 023f 30       		.byte	0x30
 4276 0240 09       		.uleb128 0x9
 4277 0241 CE0B0000 		.4byte	.LASF44
 4278 0245 02       		.byte	0x2
 4279 0246 4001     		.2byte	0x140
 4280 0248 19       		.byte	0x19
 4281 0249 13010000 		.4byte	0x113
 4282 024d 38       		.byte	0x38
 4283 024e 09       		.uleb128 0x9
 4284 024f C2030000 		.4byte	.LASF45
 4285 0253 02       		.byte	0x2
 4286 0254 4601     		.2byte	0x146
 4287 0256 19       		.byte	0x19
 4288 0257 1F010000 		.4byte	0x11f
 4289 025b 3C       		.byte	0x3c
 4290 025c 09       		.uleb128 0x9
 4291 025d 0E020000 		.4byte	.LASF46
 4292 0261 02       		.byte	0x2
 4293 0262 4D01     		.2byte	0x14d
 4294 0264 1A       		.byte	0x1a
 4295 0265 06090000 		.4byte	0x906
 4296 0269 40       		.byte	0x40
 4297 026a 09       		.uleb128 0x9
 4298 026b E0060000 		.4byte	.LASF47
ARM GAS  /tmp/ccJ6FnJD.s 			page 77


 4299 026f 02       		.byte	0x2
 4300 0270 5101     		.2byte	0x151
 4301 0272 19       		.byte	0x19
 4302 0273 07010000 		.4byte	0x107
 4303 0277 44       		.byte	0x44
 4304 0278 09       		.uleb128 0x9
 4305 0279 19060000 		.4byte	.LASF48
 4306 027d 02       		.byte	0x2
 4307 027e 5801     		.2byte	0x158
 4308 0280 1A       		.byte	0x1a
 4309 0281 93030000 		.4byte	0x393
 4310 0285 48       		.byte	0x48
 4311 0286 09       		.uleb128 0x9
 4312 0287 00000000 		.4byte	.LASF49
 4313 028b 02       		.byte	0x2
 4314 028c 5E01     		.2byte	0x15e
 4315 028e 19       		.byte	0x19
 4316 028f D5070000 		.4byte	0x7d5
 4317 0293 50       		.byte	0x50
 4318 0294 00       		.byte	0
 4319 0295 03       		.uleb128 0x3
 4320 0296 BA060000 		.4byte	.LASF50
 4321 029a 0B       		.byte	0xb
 4322 029b 44       		.byte	0x44
 4323 029c 14       		.byte	0x14
 4324 029d A1020000 		.4byte	0x2a1
 4325 02a1 0A       		.uleb128 0xa
 4326 02a2 04       		.byte	0x4
 4327 02a3 54010000 		.4byte	0x154
 4328 02a7 03       		.uleb128 0x3
 4329 02a8 61090000 		.4byte	.LASF51
 4330 02ac 0B       		.byte	0xb
 4331 02ad 49       		.byte	0x49
 4332 02ae 20       		.byte	0x20
 4333 02af B3020000 		.4byte	0x2b3
 4334 02b3 06       		.uleb128 0x6
 4335 02b4 B8040000 		.4byte	.LASF53
 4336 02b8 04       		.byte	0x4
 4337 02b9 02       		.byte	0x2
 4338 02ba B0       		.byte	0xb0
 4339 02bb 08       		.byte	0x8
 4340 02bc CE020000 		.4byte	0x2ce
 4341 02c0 07       		.uleb128 0x7
 4342 02c1 B0010000 		.4byte	.LASF29
 4343 02c5 02       		.byte	0x2
 4344 02c6 B1       		.byte	0xb1
 4345 02c7 1A       		.byte	0x1a
 4346 02c8 A1020000 		.4byte	0x2a1
 4347 02cc 00       		.byte	0
 4348 02cd 00       		.byte	0
 4349 02ce 03       		.uleb128 0x3
 4350 02cf FE010000 		.4byte	.LASF54
 4351 02d3 0B       		.byte	0xb
 4352 02d4 50       		.byte	0x50
 4353 02d5 21       		.byte	0x21
 4354 02d6 DF020000 		.4byte	0x2df
 4355 02da 0B       		.uleb128 0xb
ARM GAS  /tmp/ccJ6FnJD.s 			page 78


 4356 02db CE020000 		.4byte	0x2ce
 4357 02df 06       		.uleb128 0x6
 4358 02e0 6B070000 		.4byte	.LASF55
 4359 02e4 08       		.byte	0x8
 4360 02e5 02       		.byte	0x2
 4361 02e6 B7       		.byte	0xb7
 4362 02e7 08       		.byte	0x8
 4363 02e8 07030000 		.4byte	0x307
 4364 02ec 07       		.uleb128 0x7
 4365 02ed B0010000 		.4byte	.LASF29
 4366 02f1 02       		.byte	0x2
 4367 02f2 B8       		.byte	0xb8
 4368 02f3 1A       		.byte	0x1a
 4369 02f4 A1020000 		.4byte	0x2a1
 4370 02f8 00       		.byte	0
 4371 02f9 07       		.uleb128 0x7
 4372 02fa E5010000 		.4byte	.LASF30
 4373 02fe 02       		.byte	0x2
 4374 02ff B9       		.byte	0xb9
 4375 0300 1A       		.byte	0x1a
 4376 0301 A1020000 		.4byte	0x2a1
 4377 0305 04       		.byte	0x4
 4378 0306 00       		.byte	0
 4379 0307 03       		.uleb128 0x3
 4380 0308 92040000 		.4byte	.LASF56
 4381 030c 0B       		.byte	0xb
 4382 030d 57       		.byte	0x57
 4383 030e 1E       		.byte	0x1e
 4384 030f 13030000 		.4byte	0x313
 4385 0313 0C       		.uleb128 0xc
 4386 0314 D4030000 		.4byte	.LASF57
 4387 0318 1C       		.byte	0x1c
 4388 0319 02       		.byte	0x2
 4389 031a 9001     		.2byte	0x190
 4390 031c 08       		.byte	0x8
 4391 031d 76030000 		.4byte	0x376
 4392 0321 09       		.uleb128 0x9
 4393 0322 22080000 		.4byte	.LASF58
 4394 0326 02       		.byte	0x2
 4395 0327 9101     		.2byte	0x191
 4396 0329 19       		.byte	0x19
 4397 032a CE020000 		.4byte	0x2ce
 4398 032e 00       		.byte	0
 4399 032f 09       		.uleb128 0x9
 4400 0330 D2080000 		.4byte	.LASF59
 4401 0334 02       		.byte	0x2
 4402 0335 9201     		.2byte	0x192
 4403 0337 19       		.byte	0x19
 4404 0338 07010000 		.4byte	0x107
 4405 033c 08       		.byte	0x8
 4406 033d 09       		.uleb128 0x9
 4407 033e 6D000000 		.4byte	.LASF60
 4408 0342 02       		.byte	0x2
 4409 0343 9401     		.2byte	0x194
 4410 0345 19       		.byte	0x19
 4411 0346 4F050000 		.4byte	0x54f
 4412 034a 0C       		.byte	0xc
ARM GAS  /tmp/ccJ6FnJD.s 			page 79


 4413 034b 09       		.uleb128 0x9
 4414 034c E5020000 		.4byte	.LASF61
 4415 0350 02       		.byte	0x2
 4416 0351 9701     		.2byte	0x197
 4417 0353 1A       		.byte	0x1a
 4418 0354 A1020000 		.4byte	0x2a1
 4419 0358 10       		.byte	0x10
 4420 0359 09       		.uleb128 0x9
 4421 035a 6A080000 		.4byte	.LASF62
 4422 035e 02       		.byte	0x2
 4423 035f 9801     		.2byte	0x198
 4424 0361 1A       		.byte	0x1a
 4425 0362 A1020000 		.4byte	0x2a1
 4426 0366 14       		.byte	0x14
 4427 0367 09       		.uleb128 0x9
 4428 0368 93070000 		.4byte	.LASF63
 4429 036c 02       		.byte	0x2
 4430 036d 9B01     		.2byte	0x19b
 4431 036f 1A       		.byte	0x1a
 4432 0370 A1020000 		.4byte	0x2a1
 4433 0374 18       		.byte	0x18
 4434 0375 00       		.byte	0
 4435 0376 03       		.uleb128 0x3
 4436 0377 B0000000 		.4byte	.LASF64
 4437 037b 0B       		.byte	0xb
 4438 037c 5C       		.byte	0x5c
 4439 037d 10       		.byte	0x10
 4440 037e 82030000 		.4byte	0x382
 4441 0382 0A       		.uleb128 0xa
 4442 0383 04       		.byte	0x4
 4443 0384 88030000 		.4byte	0x388
 4444 0388 0D       		.uleb128 0xd
 4445 0389 93030000 		.4byte	0x393
 4446 038d 0E       		.uleb128 0xe
 4447 038e 93030000 		.4byte	0x393
 4448 0392 00       		.byte	0
 4449 0393 0F       		.uleb128 0xf
 4450 0394 04       		.byte	0x4
 4451 0395 03       		.uleb128 0x3
 4452 0396 82040000 		.4byte	.LASF65
 4453 039a 0B       		.byte	0xb
 4454 039b 61       		.byte	0x61
 4455 039c 21       		.byte	0x21
 4456 039d A1030000 		.4byte	0x3a1
 4457 03a1 0C       		.uleb128 0xc
 4458 03a2 14070000 		.4byte	.LASF66
 4459 03a6 14       		.byte	0x14
 4460 03a7 02       		.byte	0x2
 4461 03a8 6B01     		.2byte	0x16b
 4462 03aa 08       		.byte	0x8
 4463 03ab F6030000 		.4byte	0x3f6
 4464 03af 09       		.uleb128 0x9
 4465 03b0 49050000 		.4byte	.LASF67
 4466 03b4 02       		.byte	0x2
 4467 03b5 6C01     		.2byte	0x16c
 4468 03b7 1A       		.byte	0x1a
 4469 03b8 29090000 		.4byte	0x929
ARM GAS  /tmp/ccJ6FnJD.s 			page 80


 4470 03bc 00       		.byte	0
 4471 03bd 09       		.uleb128 0x9
 4472 03be 5C050000 		.4byte	.LASF68
 4473 03c2 02       		.byte	0x2
 4474 03c3 6D01     		.2byte	0x16d
 4475 03c5 1A       		.byte	0x1a
 4476 03c6 29090000 		.4byte	0x929
 4477 03ca 04       		.byte	0x4
 4478 03cb 09       		.uleb128 0x9
 4479 03cc 03070000 		.4byte	.LASF69
 4480 03d0 02       		.byte	0x2
 4481 03d1 6E01     		.2byte	0x16e
 4482 03d3 19       		.byte	0x19
 4483 03d4 43010000 		.4byte	0x143
 4484 03d8 08       		.byte	0x8
 4485 03d9 09       		.uleb128 0x9
 4486 03da A8030000 		.4byte	.LASF70
 4487 03de 02       		.byte	0x2
 4488 03df 6F01     		.2byte	0x16f
 4489 03e1 19       		.byte	0x19
 4490 03e2 76030000 		.4byte	0x376
 4491 03e6 0C       		.byte	0xc
 4492 03e7 09       		.uleb128 0x9
 4493 03e8 6C010000 		.4byte	.LASF71
 4494 03ec 02       		.byte	0x2
 4495 03ed 7101     		.2byte	0x171
 4496 03ef 1A       		.byte	0x1a
 4497 03f0 93030000 		.4byte	0x393
 4498 03f4 10       		.byte	0x10
 4499 03f5 00       		.byte	0
 4500 03f6 03       		.uleb128 0x3
 4501 03f7 6C040000 		.4byte	.LASF72
 4502 03fb 0B       		.byte	0xb
 4503 03fc 66       		.byte	0x66
 4504 03fd 28       		.byte	0x28
 4505 03fe 02040000 		.4byte	0x402
 4506 0402 0C       		.uleb128 0xc
 4507 0403 C6000000 		.4byte	.LASF73
 4508 0407 10       		.byte	0x10
 4509 0408 02       		.byte	0x2
 4510 0409 7B01     		.2byte	0x17b
 4511 040b 08       		.byte	0x8
 4512 040c 49040000 		.4byte	0x449
 4513 0410 09       		.uleb128 0x9
 4514 0411 49050000 		.4byte	.LASF67
 4515 0415 02       		.byte	0x2
 4516 0416 7C01     		.2byte	0x17c
 4517 0418 1A       		.byte	0x1a
 4518 0419 29090000 		.4byte	0x929
 4519 041d 00       		.byte	0
 4520 041e 09       		.uleb128 0x9
 4521 041f 5C050000 		.4byte	.LASF68
 4522 0423 02       		.byte	0x2
 4523 0424 7E01     		.2byte	0x17e
 4524 0426 1A       		.byte	0x1a
 4525 0427 29090000 		.4byte	0x929
 4526 042b 04       		.byte	0x4
ARM GAS  /tmp/ccJ6FnJD.s 			page 81


 4527 042c 09       		.uleb128 0x9
 4528 042d 03070000 		.4byte	.LASF69
 4529 0431 02       		.byte	0x2
 4530 0432 8001     		.2byte	0x180
 4531 0434 19       		.byte	0x19
 4532 0435 43010000 		.4byte	0x143
 4533 0439 08       		.byte	0x8
 4534 043a 09       		.uleb128 0x9
 4535 043b 5F080000 		.4byte	.LASF74
 4536 043f 02       		.byte	0x2
 4537 0440 8201     		.2byte	0x182
 4538 0442 19       		.byte	0x19
 4539 0443 4F010000 		.4byte	0x14f
 4540 0447 0C       		.byte	0xc
 4541 0448 00       		.byte	0
 4542 0449 03       		.uleb128 0x3
 4543 044a ED020000 		.4byte	.LASF75
 4544 044e 0B       		.byte	0xb
 4545 044f 6B       		.byte	0x6b
 4546 0450 20       		.byte	0x20
 4547 0451 55040000 		.4byte	0x455
 4548 0455 10       		.uleb128 0x10
 4549 0456 D9080000 		.4byte	.LASF76
 4550 045a 1404     		.2byte	0x414
 4551 045c 02       		.byte	0x2
 4552 045d A201     		.2byte	0x1a2
 4553 045f 08       		.byte	0x8
 4554 0460 9D040000 		.4byte	0x49d
 4555 0464 09       		.uleb128 0x9
 4556 0465 CE020000 		.4byte	.LASF77
 4557 0469 02       		.byte	0x2
 4558 046a AA01     		.2byte	0x1aa
 4559 046c 24       		.byte	0x24
 4560 046d 12090000 		.4byte	0x912
 4561 0471 00       		.byte	0
 4562 0472 09       		.uleb128 0x9
 4563 0473 E2030000 		.4byte	.LASF78
 4564 0477 02       		.byte	0x2
 4565 0478 AF01     		.2byte	0x1af
 4566 047a 19       		.byte	0x19
 4567 047b 2B010000 		.4byte	0x12b
 4568 047f 04       		.byte	0x4
 4569 0480 09       		.uleb128 0x9
 4570 0481 04010000 		.4byte	.LASF79
 4571 0485 02       		.byte	0x2
 4572 0486 B301     		.2byte	0x1b3
 4573 0488 19       		.byte	0x19
 4574 0489 2B010000 		.4byte	0x12b
 4575 048d 08       		.byte	0x8
 4576 048e 09       		.uleb128 0x9
 4577 048f D8020000 		.4byte	.LASF80
 4578 0493 02       		.byte	0x2
 4579 0494 B901     		.2byte	0x1b9
 4580 0496 19       		.byte	0x19
 4581 0497 5D070000 		.4byte	0x75d
 4582 049b 0C       		.byte	0xc
 4583 049c 00       		.byte	0
ARM GAS  /tmp/ccJ6FnJD.s 			page 82


 4584 049d 03       		.uleb128 0x3
 4585 049e 640B0000 		.4byte	.LASF81
 4586 04a2 0B       		.byte	0xb
 4587 04a3 70       		.byte	0x70
 4588 04a4 1A       		.byte	0x1a
 4589 04a5 A9040000 		.4byte	0x4a9
 4590 04a9 10       		.uleb128 0x10
 4591 04aa 0A0B0000 		.4byte	.LASF82
 4592 04ae 7006     		.2byte	0x670
 4593 04b0 02       		.byte	0x2
 4594 04b1 C201     		.2byte	0x1c2
 4595 04b3 08       		.byte	0x8
 4596 04b4 1E050000 		.4byte	0x51e
 4597 04b8 09       		.uleb128 0x9
 4598 04b9 51080000 		.4byte	.LASF83
 4599 04bd 02       		.byte	0x2
 4600 04be C601     		.2byte	0x1c6
 4601 04c0 19       		.byte	0x19
 4602 04c1 07030000 		.4byte	0x307
 4603 04c5 00       		.byte	0
 4604 04c6 09       		.uleb128 0x9
 4605 04c7 01090000 		.4byte	.LASF84
 4606 04cb 02       		.byte	0x2
 4607 04cc CA01     		.2byte	0x1ca
 4608 04ce 19       		.byte	0x19
 4609 04cf F6030000 		.4byte	0x3f6
 4610 04d3 1C       		.byte	0x1c
 4611 04d4 08       		.uleb128 0x8
 4612 04d5 64626700 		.ascii	"dbg\000"
 4613 04d9 02       		.byte	0x2
 4614 04da CE01     		.2byte	0x1ce
 4615 04dc 19       		.byte	0x19
 4616 04dd 49040000 		.4byte	0x449
 4617 04e1 2C       		.byte	0x2c
 4618 04e2 11       		.uleb128 0x11
 4619 04e3 E3070000 		.4byte	.LASF85
 4620 04e7 02       		.byte	0x2
 4621 04e8 D201     		.2byte	0x1d2
 4622 04ea 19       		.byte	0x19
 4623 04eb 54010000 		.4byte	0x154
 4624 04ef 4004     		.2byte	0x440
 4625 04f1 12       		.uleb128 0x12
 4626 04f2 746D00   		.ascii	"tm\000"
 4627 04f5 02       		.byte	0x2
 4628 04f6 D701     		.2byte	0x1d7
 4629 04f8 19       		.byte	0x19
 4630 04f9 80070000 		.4byte	0x780
 4631 04fd A804     		.2byte	0x4a8
 4632 04ff 11       		.uleb128 0x11
 4633 0500 2B070000 		.4byte	.LASF86
 4634 0504 02       		.byte	0x2
 4635 0505 DD01     		.2byte	0x1dd
 4636 0507 19       		.byte	0x19
 4637 0508 1F080000 		.4byte	0x81f
 4638 050c B004     		.2byte	0x4b0
 4639 050e 11       		.uleb128 0x11
 4640 050f DD050000 		.4byte	.LASF87
ARM GAS  /tmp/ccJ6FnJD.s 			page 83


 4641 0513 02       		.byte	0x2
 4642 0514 E301     		.2byte	0x1e3
 4643 0516 03       		.byte	0x3
 4644 0517 2F090000 		.4byte	0x92f
 4645 051b E804     		.2byte	0x4e8
 4646 051d 00       		.byte	0
 4647 051e 13       		.uleb128 0x13
 4648 051f 86050000 		.4byte	.LASF88
 4649 0523 0C       		.byte	0xc
 4650 0524 A706     		.2byte	0x6a7
 4651 0526 19       		.byte	0x19
 4652 0527 67000000 		.4byte	0x67
 4653 052b 14       		.uleb128 0x14
 4654 052c 45040000 		.4byte	.LASF89
 4655 0530 0D       		.byte	0xd
 4656 0531 4C       		.byte	0x4c
 4657 0532 11       		.byte	0x11
 4658 0533 99000000 		.4byte	0x99
 4659 0537 03       		.uleb128 0x3
 4660 0538 18020000 		.4byte	.LASF90
 4661 053c 0E       		.byte	0xe
 4662 053d 65       		.byte	0x65
 4663 053e 0F       		.byte	0xf
 4664 053f 93030000 		.4byte	0x393
 4665 0543 03       		.uleb128 0x3
 4666 0544 55030000 		.4byte	.LASF91
 4667 0548 0E       		.byte	0xe
 4668 0549 6D       		.byte	0x6d
 4669 054a 12       		.byte	0x12
 4670 054b AC000000 		.4byte	0xac
 4671 054f 06       		.uleb128 0x6
 4672 0550 A3020000 		.4byte	.LASF92
 4673 0554 04       		.byte	0x4
 4674 0555 0E       		.byte	0xe
 4675 0556 89       		.byte	0x89
 4676 0557 08       		.byte	0x8
 4677 0558 6A050000 		.4byte	0x56a
 4678 055c 15       		.uleb128 0x15
 4679 055d 72313300 		.ascii	"r13\000"
 4680 0561 0E       		.byte	0xe
 4681 0562 8A       		.byte	0x8a
 4682 0563 17       		.byte	0x17
 4683 0564 C5060000 		.4byte	0x6c5
 4684 0568 00       		.byte	0
 4685 0569 00       		.byte	0
 4686 056a 06       		.uleb128 0x6
 4687 056b EB060000 		.4byte	.LASF93
 4688 056f 64       		.byte	0x64
 4689 0570 04       		.byte	0x4
 4690 0571 F4       		.byte	0xf4
 4691 0572 08       		.byte	0x8
 4692 0573 C5060000 		.4byte	0x6c5
 4693 0577 15       		.uleb128 0x15
 4694 0578 73313600 		.ascii	"s16\000"
 4695 057c 04       		.byte	0x4
 4696 057d F6       		.byte	0xf6
 4697 057e 11       		.byte	0x11
ARM GAS  /tmp/ccJ6FnJD.s 			page 84


 4698 057f 37050000 		.4byte	0x537
 4699 0583 00       		.byte	0
 4700 0584 15       		.uleb128 0x15
 4701 0585 73313700 		.ascii	"s17\000"
 4702 0589 04       		.byte	0x4
 4703 058a F7       		.byte	0xf7
 4704 058b 11       		.byte	0x11
 4705 058c 37050000 		.4byte	0x537
 4706 0590 04       		.byte	0x4
 4707 0591 15       		.uleb128 0x15
 4708 0592 73313800 		.ascii	"s18\000"
 4709 0596 04       		.byte	0x4
 4710 0597 F8       		.byte	0xf8
 4711 0598 11       		.byte	0x11
 4712 0599 37050000 		.4byte	0x537
 4713 059d 08       		.byte	0x8
 4714 059e 15       		.uleb128 0x15
 4715 059f 73313900 		.ascii	"s19\000"
 4716 05a3 04       		.byte	0x4
 4717 05a4 F9       		.byte	0xf9
 4718 05a5 11       		.byte	0x11
 4719 05a6 37050000 		.4byte	0x537
 4720 05aa 0C       		.byte	0xc
 4721 05ab 15       		.uleb128 0x15
 4722 05ac 73323000 		.ascii	"s20\000"
 4723 05b0 04       		.byte	0x4
 4724 05b1 FA       		.byte	0xfa
 4725 05b2 11       		.byte	0x11
 4726 05b3 37050000 		.4byte	0x537
 4727 05b7 10       		.byte	0x10
 4728 05b8 15       		.uleb128 0x15
 4729 05b9 73323100 		.ascii	"s21\000"
 4730 05bd 04       		.byte	0x4
 4731 05be FB       		.byte	0xfb
 4732 05bf 11       		.byte	0x11
 4733 05c0 37050000 		.4byte	0x537
 4734 05c4 14       		.byte	0x14
 4735 05c5 15       		.uleb128 0x15
 4736 05c6 73323200 		.ascii	"s22\000"
 4737 05ca 04       		.byte	0x4
 4738 05cb FC       		.byte	0xfc
 4739 05cc 11       		.byte	0x11
 4740 05cd 37050000 		.4byte	0x537
 4741 05d1 18       		.byte	0x18
 4742 05d2 15       		.uleb128 0x15
 4743 05d3 73323300 		.ascii	"s23\000"
 4744 05d7 04       		.byte	0x4
 4745 05d8 FD       		.byte	0xfd
 4746 05d9 11       		.byte	0x11
 4747 05da 37050000 		.4byte	0x537
 4748 05de 1C       		.byte	0x1c
 4749 05df 15       		.uleb128 0x15
 4750 05e0 73323400 		.ascii	"s24\000"
 4751 05e4 04       		.byte	0x4
 4752 05e5 FE       		.byte	0xfe
 4753 05e6 11       		.byte	0x11
 4754 05e7 37050000 		.4byte	0x537
ARM GAS  /tmp/ccJ6FnJD.s 			page 85


 4755 05eb 20       		.byte	0x20
 4756 05ec 15       		.uleb128 0x15
 4757 05ed 73323500 		.ascii	"s25\000"
 4758 05f1 04       		.byte	0x4
 4759 05f2 FF       		.byte	0xff
 4760 05f3 11       		.byte	0x11
 4761 05f4 37050000 		.4byte	0x537
 4762 05f8 24       		.byte	0x24
 4763 05f9 08       		.uleb128 0x8
 4764 05fa 73323600 		.ascii	"s26\000"
 4765 05fe 04       		.byte	0x4
 4766 05ff 0001     		.2byte	0x100
 4767 0601 11       		.byte	0x11
 4768 0602 37050000 		.4byte	0x537
 4769 0606 28       		.byte	0x28
 4770 0607 08       		.uleb128 0x8
 4771 0608 73323700 		.ascii	"s27\000"
 4772 060c 04       		.byte	0x4
 4773 060d 0101     		.2byte	0x101
 4774 060f 11       		.byte	0x11
 4775 0610 37050000 		.4byte	0x537
 4776 0614 2C       		.byte	0x2c
 4777 0615 08       		.uleb128 0x8
 4778 0616 73323800 		.ascii	"s28\000"
 4779 061a 04       		.byte	0x4
 4780 061b 0201     		.2byte	0x102
 4781 061d 11       		.byte	0x11
 4782 061e 37050000 		.4byte	0x537
 4783 0622 30       		.byte	0x30
 4784 0623 08       		.uleb128 0x8
 4785 0624 73323900 		.ascii	"s29\000"
 4786 0628 04       		.byte	0x4
 4787 0629 0301     		.2byte	0x103
 4788 062b 11       		.byte	0x11
 4789 062c 37050000 		.4byte	0x537
 4790 0630 34       		.byte	0x34
 4791 0631 08       		.uleb128 0x8
 4792 0632 73333000 		.ascii	"s30\000"
 4793 0636 04       		.byte	0x4
 4794 0637 0401     		.2byte	0x104
 4795 0639 11       		.byte	0x11
 4796 063a 37050000 		.4byte	0x537
 4797 063e 38       		.byte	0x38
 4798 063f 08       		.uleb128 0x8
 4799 0640 73333100 		.ascii	"s31\000"
 4800 0644 04       		.byte	0x4
 4801 0645 0501     		.2byte	0x105
 4802 0647 11       		.byte	0x11
 4803 0648 37050000 		.4byte	0x537
 4804 064c 3C       		.byte	0x3c
 4805 064d 08       		.uleb128 0x8
 4806 064e 723400   		.ascii	"r4\000"
 4807 0651 04       		.byte	0x4
 4808 0652 0701     		.2byte	0x107
 4809 0654 11       		.byte	0x11
 4810 0655 37050000 		.4byte	0x537
 4811 0659 40       		.byte	0x40
ARM GAS  /tmp/ccJ6FnJD.s 			page 86


 4812 065a 08       		.uleb128 0x8
 4813 065b 723500   		.ascii	"r5\000"
 4814 065e 04       		.byte	0x4
 4815 065f 0801     		.2byte	0x108
 4816 0661 11       		.byte	0x11
 4817 0662 37050000 		.4byte	0x537
 4818 0666 44       		.byte	0x44
 4819 0667 08       		.uleb128 0x8
 4820 0668 723600   		.ascii	"r6\000"
 4821 066b 04       		.byte	0x4
 4822 066c 0901     		.2byte	0x109
 4823 066e 11       		.byte	0x11
 4824 066f 37050000 		.4byte	0x537
 4825 0673 48       		.byte	0x48
 4826 0674 08       		.uleb128 0x8
 4827 0675 723700   		.ascii	"r7\000"
 4828 0678 04       		.byte	0x4
 4829 0679 0A01     		.2byte	0x10a
 4830 067b 11       		.byte	0x11
 4831 067c 37050000 		.4byte	0x537
 4832 0680 4C       		.byte	0x4c
 4833 0681 08       		.uleb128 0x8
 4834 0682 723800   		.ascii	"r8\000"
 4835 0685 04       		.byte	0x4
 4836 0686 0B01     		.2byte	0x10b
 4837 0688 11       		.byte	0x11
 4838 0689 37050000 		.4byte	0x537
 4839 068d 50       		.byte	0x50
 4840 068e 08       		.uleb128 0x8
 4841 068f 723900   		.ascii	"r9\000"
 4842 0692 04       		.byte	0x4
 4843 0693 0C01     		.2byte	0x10c
 4844 0695 11       		.byte	0x11
 4845 0696 37050000 		.4byte	0x537
 4846 069a 54       		.byte	0x54
 4847 069b 08       		.uleb128 0x8
 4848 069c 72313000 		.ascii	"r10\000"
 4849 06a0 04       		.byte	0x4
 4850 06a1 0D01     		.2byte	0x10d
 4851 06a3 11       		.byte	0x11
 4852 06a4 37050000 		.4byte	0x537
 4853 06a8 58       		.byte	0x58
 4854 06a9 08       		.uleb128 0x8
 4855 06aa 72313100 		.ascii	"r11\000"
 4856 06ae 04       		.byte	0x4
 4857 06af 0E01     		.2byte	0x10e
 4858 06b1 11       		.byte	0x11
 4859 06b2 37050000 		.4byte	0x537
 4860 06b6 5C       		.byte	0x5c
 4861 06b7 08       		.uleb128 0x8
 4862 06b8 6C7200   		.ascii	"lr\000"
 4863 06bb 04       		.byte	0x4
 4864 06bc 0F01     		.2byte	0x10f
 4865 06be 11       		.byte	0x11
 4866 06bf 37050000 		.4byte	0x537
 4867 06c3 60       		.byte	0x60
 4868 06c4 00       		.byte	0
ARM GAS  /tmp/ccJ6FnJD.s 			page 87


 4869 06c5 0A       		.uleb128 0xa
 4870 06c6 04       		.byte	0x4
 4871 06c7 6A050000 		.4byte	0x56a
 4872 06cb 16       		.uleb128 0x16
 4873 06cc 10       		.byte	0x10
 4874 06cd 0F       		.byte	0xf
 4875 06ce 51       		.byte	0x51
 4876 06cf 09       		.byte	0x9
 4877 06d0 09070000 		.4byte	0x709
 4878 06d4 07       		.uleb128 0x7
 4879 06d5 9B0B0000 		.4byte	.LASF94
 4880 06d9 0F       		.byte	0xf
 4881 06da 55       		.byte	0x55
 4882 06db 19       		.byte	0x19
 4883 06dc 43010000 		.4byte	0x143
 4884 06e0 00       		.byte	0
 4885 06e1 07       		.uleb128 0x7
 4886 06e2 25010000 		.4byte	.LASF95
 4887 06e6 0F       		.byte	0xf
 4888 06e7 59       		.byte	0x59
 4889 06e8 1A       		.byte	0x1a
 4890 06e9 A1020000 		.4byte	0x2a1
 4891 06ed 04       		.byte	0x4
 4892 06ee 07       		.uleb128 0x7
 4893 06ef CB050000 		.4byte	.LASF96
 4894 06f3 0F       		.byte	0xf
 4895 06f4 5D       		.byte	0x5d
 4896 06f5 1A       		.byte	0x1a
 4897 06f6 93030000 		.4byte	0x393
 4898 06fa 08       		.byte	0x8
 4899 06fb 07       		.uleb128 0x7
 4900 06fc 01040000 		.4byte	.LASF97
 4901 0700 0F       		.byte	0xf
 4902 0701 61       		.byte	0x61
 4903 0702 19       		.byte	0x19
 4904 0703 73000000 		.4byte	0x73
 4905 0707 0C       		.byte	0xc
 4906 0708 00       		.byte	0
 4907 0709 03       		.uleb128 0x3
 4908 070a C8040000 		.4byte	.LASF98
 4909 070e 0F       		.byte	0xf
 4910 070f 62       		.byte	0x62
 4911 0710 03       		.byte	0x3
 4912 0711 CB060000 		.4byte	0x6cb
 4913 0715 17       		.uleb128 0x17
 4914 0716 0804     		.2byte	0x408
 4915 0718 0F       		.byte	0xf
 4916 0719 67       		.byte	0x67
 4917 071a 09       		.byte	0x9
 4918 071b 47070000 		.4byte	0x747
 4919 071f 07       		.uleb128 0x7
 4920 0720 64050000 		.4byte	.LASF99
 4921 0724 0F       		.byte	0xf
 4922 0725 6B       		.byte	0x6b
 4923 0726 19       		.byte	0x19
 4924 0727 38000000 		.4byte	0x38
 4925 072b 00       		.byte	0
ARM GAS  /tmp/ccJ6FnJD.s 			page 88


 4926 072c 07       		.uleb128 0x7
 4927 072d B60B0000 		.4byte	.LASF100
 4928 0731 0F       		.byte	0xf
 4929 0732 6F       		.byte	0x6f
 4930 0733 1A       		.byte	0x1a
 4931 0734 47070000 		.4byte	0x747
 4932 0738 04       		.byte	0x4
 4933 0739 07       		.uleb128 0x7
 4934 073a 5F060000 		.4byte	.LASF101
 4935 073e 0F       		.byte	0xf
 4936 073f 73       		.byte	0x73
 4937 0740 19       		.byte	0x19
 4938 0741 4D070000 		.4byte	0x74d
 4939 0745 08       		.byte	0x8
 4940 0746 00       		.byte	0
 4941 0747 0A       		.uleb128 0xa
 4942 0748 04       		.byte	0x4
 4943 0749 09070000 		.4byte	0x709
 4944 074d 18       		.uleb128 0x18
 4945 074e 09070000 		.4byte	0x709
 4946 0752 5D070000 		.4byte	0x75d
 4947 0756 19       		.uleb128 0x19
 4948 0757 38000000 		.4byte	0x38
 4949 075b 3F       		.byte	0x3f
 4950 075c 00       		.byte	0
 4951 075d 03       		.uleb128 0x3
 4952 075e B0030000 		.4byte	.LASF102
 4953 0762 0F       		.byte	0xf
 4954 0763 74       		.byte	0x74
 4955 0764 03       		.byte	0x3
 4956 0765 15070000 		.4byte	0x715
 4957 0769 16       		.uleb128 0x16
 4958 076a 04       		.byte	0x4
 4959 076b 10       		.byte	0x10
 4960 076c 38       		.byte	0x38
 4961 076d 09       		.byte	0x9
 4962 076e 80070000 		.4byte	0x780
 4963 0772 07       		.uleb128 0x7
 4964 0773 58060000 		.4byte	.LASF103
 4965 0777 10       		.byte	0x10
 4966 0778 3C       		.byte	0x3c
 4967 0779 19       		.byte	0x19
 4968 077a BF000000 		.4byte	0xbf
 4969 077e 00       		.byte	0
 4970 077f 00       		.byte	0
 4971 0780 03       		.uleb128 0x3
 4972 0781 72080000 		.4byte	.LASF104
 4973 0785 10       		.byte	0x10
 4974 0786 3D       		.byte	0x3d
 4975 0787 03       		.byte	0x3
 4976 0788 69070000 		.4byte	0x769
 4977 078c 16       		.uleb128 0x16
 4978 078d 18       		.byte	0x18
 4979 078e 10       		.byte	0x10
 4980 078f 48       		.byte	0x48
 4981 0790 09       		.byte	0x9
 4982 0791 D5070000 		.4byte	0x7d5
ARM GAS  /tmp/ccJ6FnJD.s 			page 89


 4983 0795 07       		.uleb128 0x7
 4984 0796 09080000 		.4byte	.LASF105
 4985 079a 10       		.byte	0x10
 4986 079b 49       		.byte	0x49
 4987 079c 19       		.byte	0x19
 4988 079d BF000000 		.4byte	0xbf
 4989 07a1 00       		.byte	0
 4990 07a2 07       		.uleb128 0x7
 4991 07a3 7B030000 		.4byte	.LASF106
 4992 07a7 10       		.byte	0x10
 4993 07a8 4A       		.byte	0x4a
 4994 07a9 19       		.byte	0x19
 4995 07aa BF000000 		.4byte	0xbf
 4996 07ae 04       		.byte	0x4
 4997 07af 07       		.uleb128 0x7
 4998 07b0 C90B0000 		.4byte	.LASF107
 4999 07b4 10       		.byte	0x10
 5000 07b5 4B       		.byte	0x4b
 5001 07b6 19       		.byte	0x19
 5002 07b7 BF000000 		.4byte	0xbf
 5003 07bb 08       		.byte	0x8
 5004 07bc 15       		.uleb128 0x15
 5005 07bd 6E00     		.ascii	"n\000"
 5006 07bf 10       		.byte	0x10
 5007 07c0 4C       		.byte	0x4c
 5008 07c1 19       		.byte	0x19
 5009 07c2 37010000 		.4byte	0x137
 5010 07c6 0C       		.byte	0xc
 5011 07c7 07       		.uleb128 0x7
 5012 07c8 6E020000 		.4byte	.LASF108
 5013 07cc 10       		.byte	0x10
 5014 07cd 4D       		.byte	0x4d
 5015 07ce 19       		.byte	0x19
 5016 07cf CB000000 		.4byte	0xcb
 5017 07d3 10       		.byte	0x10
 5018 07d4 00       		.byte	0
 5019 07d5 03       		.uleb128 0x3
 5020 07d6 2B010000 		.4byte	.LASF109
 5021 07da 10       		.byte	0x10
 5022 07db 4E       		.byte	0x4e
 5023 07dc 03       		.byte	0x3
 5024 07dd 8C070000 		.4byte	0x78c
 5025 07e1 16       		.uleb128 0x16
 5026 07e2 38       		.byte	0x38
 5027 07e3 11       		.byte	0x11
 5028 07e4 38       		.byte	0x38
 5029 07e5 09       		.byte	0x9
 5030 07e6 1F080000 		.4byte	0x81f
 5031 07ea 07       		.uleb128 0x7
 5032 07eb E5040000 		.4byte	.LASF110
 5033 07ef 11       		.byte	0x11
 5034 07f0 39       		.byte	0x39
 5035 07f1 19       		.byte	0x19
 5036 07f2 37010000 		.4byte	0x137
 5037 07f6 00       		.byte	0
 5038 07f7 07       		.uleb128 0x7
 5039 07f8 3F030000 		.4byte	.LASF111
ARM GAS  /tmp/ccJ6FnJD.s 			page 90


 5040 07fc 11       		.byte	0x11
 5041 07fd 3A       		.byte	0x3a
 5042 07fe 19       		.byte	0x19
 5043 07ff 37010000 		.4byte	0x137
 5044 0803 04       		.byte	0x4
 5045 0804 07       		.uleb128 0x7
 5046 0805 0A040000 		.4byte	.LASF112
 5047 0809 11       		.byte	0x11
 5048 080a 3B       		.byte	0x3b
 5049 080b 19       		.byte	0x19
 5050 080c D5070000 		.4byte	0x7d5
 5051 0810 08       		.byte	0x8
 5052 0811 07       		.uleb128 0x7
 5053 0812 F6030000 		.4byte	.LASF113
 5054 0816 11       		.byte	0x11
 5055 0817 3D       		.byte	0x3d
 5056 0818 19       		.byte	0x19
 5057 0819 D5070000 		.4byte	0x7d5
 5058 081d 20       		.byte	0x20
 5059 081e 00       		.byte	0
 5060 081f 03       		.uleb128 0x3
 5061 0820 39060000 		.4byte	.LASF114
 5062 0824 11       		.byte	0x11
 5063 0825 3F       		.byte	0x3f
 5064 0826 03       		.byte	0x3
 5065 0827 E1070000 		.4byte	0x7e1
 5066 082b 1A       		.uleb128 0x1a
 5067 082c 04       		.byte	0x4
 5068 082d 02       		.byte	0x2
 5069 082e FA       		.byte	0xfa
 5070 082f 03       		.byte	0x3
 5071 0830 90080000 		.4byte	0x890
 5072 0834 1B       		.uleb128 0x1b
 5073 0835 280B0000 		.4byte	.LASF115
 5074 0839 02       		.byte	0x2
 5075 083a 0101     		.2byte	0x101
 5076 083c 19       		.byte	0x19
 5077 083d 13010000 		.4byte	0x113
 5078 0841 1B       		.uleb128 0x1b
 5079 0842 73010000 		.4byte	.LASF116
 5080 0846 02       		.byte	0x2
 5081 0847 0801     		.2byte	0x108
 5082 0849 19       		.byte	0x19
 5083 084a 13010000 		.4byte	0x113
 5084 084e 1B       		.uleb128 0x1b
 5085 084f 38030000 		.4byte	.LASF117
 5086 0853 02       		.byte	0x2
 5087 0854 0F01     		.2byte	0x10f
 5088 0856 1A       		.byte	0x1a
 5089 0857 93030000 		.4byte	0x393
 5090 085b 1B       		.uleb128 0x1b
 5091 085c AB020000 		.4byte	.LASF118
 5092 0860 02       		.byte	0x2
 5093 0861 1601     		.2byte	0x116
 5094 0863 1A       		.byte	0x1a
 5095 0864 90080000 		.4byte	0x890
 5096 0868 1B       		.uleb128 0x1b
ARM GAS  /tmp/ccJ6FnJD.s 			page 91


 5097 0869 0F000000 		.4byte	.LASF119
 5098 086d 02       		.byte	0x2
 5099 086e 1E01     		.2byte	0x11e
 5100 0870 1A       		.byte	0x1a
 5101 0871 BE080000 		.4byte	0x8be
 5102 0875 1B       		.uleb128 0x1b
 5103 0876 CD030000 		.4byte	.LASF120
 5104 087a 02       		.byte	0x2
 5105 087b 2701     		.2byte	0x127
 5106 087d 1A       		.byte	0x1a
 5107 087e 06090000 		.4byte	0x906
 5108 0882 1B       		.uleb128 0x1b
 5109 0883 7C010000 		.4byte	.LASF121
 5110 0887 02       		.byte	0x2
 5111 0888 2F01     		.2byte	0x12f
 5112 088a 19       		.byte	0x19
 5113 088b 1F010000 		.4byte	0x11f
 5114 088f 00       		.byte	0
 5115 0890 0A       		.uleb128 0xa
 5116 0891 04       		.byte	0x4
 5117 0892 95020000 		.4byte	0x295
 5118 0896 06       		.uleb128 0x6
 5119 0897 55040000 		.4byte	.LASF122
 5120 089b 0C       		.byte	0xc
 5121 089c 12       		.byte	0x12
 5122 089d 34       		.byte	0x34
 5123 089e 10       		.byte	0x10
 5124 089f BE080000 		.4byte	0x8be
 5125 08a3 07       		.uleb128 0x7
 5126 08a4 8D080000 		.4byte	.LASF123
 5127 08a8 12       		.byte	0x12
 5128 08a9 35       		.byte	0x35
 5129 08aa 19       		.byte	0x19
 5130 08ab CE020000 		.4byte	0x2ce
 5131 08af 00       		.byte	0
 5132 08b0 07       		.uleb128 0x7
 5133 08b1 25070000 		.4byte	.LASF124
 5134 08b5 12       		.byte	0x12
 5135 08b6 37       		.byte	0x37
 5136 08b7 19       		.byte	0x19
 5137 08b8 2B010000 		.4byte	0x12b
 5138 08bc 08       		.byte	0x8
 5139 08bd 00       		.byte	0
 5140 08be 0A       		.uleb128 0xa
 5141 08bf 04       		.byte	0x4
 5142 08c0 96080000 		.4byte	0x896
 5143 08c4 06       		.uleb128 0x6
 5144 08c5 B5080000 		.4byte	.LASF125
 5145 08c9 14       		.byte	0x14
 5146 08ca 13       		.byte	0x13
 5147 08cb 39       		.byte	0x39
 5148 08cc 08       		.byte	0x8
 5149 08cd 06090000 		.4byte	0x906
 5150 08d1 07       		.uleb128 0x7
 5151 08d2 41050000 		.4byte	.LASF126
 5152 08d6 13       		.byte	0x13
 5153 08d7 3A       		.byte	0x3a
ARM GAS  /tmp/ccJ6FnJD.s 			page 92


 5154 08d8 19       		.byte	0x19
 5155 08d9 CE020000 		.4byte	0x2ce
 5156 08dd 00       		.byte	0
 5157 08de 07       		.uleb128 0x7
 5158 08df 64010000 		.4byte	.LASF127
 5159 08e3 13       		.byte	0x13
 5160 08e4 3C       		.byte	0x3c
 5161 08e5 1A       		.byte	0x1a
 5162 08e6 A1020000 		.4byte	0x2a1
 5163 08ea 08       		.byte	0x8
 5164 08eb 07       		.uleb128 0x7
 5165 08ec AF0B0000 		.4byte	.LASF128
 5166 08f0 13       		.byte	0x13
 5167 08f1 3E       		.byte	0x3e
 5168 08f2 1A       		.byte	0x1a
 5169 08f3 840A0000 		.4byte	0xa84
 5170 08f7 0C       		.byte	0xc
 5171 08f8 07       		.uleb128 0x7
 5172 08f9 32030000 		.4byte	.LASF129
 5173 08fd 13       		.byte	0x13
 5174 08fe 41       		.byte	0x41
 5175 08ff 19       		.byte	0x19
 5176 0900 2B010000 		.4byte	0x12b
 5177 0904 10       		.byte	0x10
 5178 0905 00       		.byte	0
 5179 0906 0A       		.uleb128 0xa
 5180 0907 04       		.byte	0x4
 5181 0908 C4080000 		.4byte	0x8c4
 5182 090c 0A       		.uleb128 0xa
 5183 090d 04       		.byte	0x4
 5184 090e 1E090000 		.4byte	0x91e
 5185 0912 05       		.uleb128 0x5
 5186 0913 0C090000 		.4byte	0x90c
 5187 0917 04       		.uleb128 0x4
 5188 0918 01       		.byte	0x1
 5189 0919 08       		.byte	0x8
 5190 091a 26030000 		.4byte	.LASF130
 5191 091e 0B       		.uleb128 0xb
 5192 091f 17090000 		.4byte	0x917
 5193 0923 0A       		.uleb128 0xa
 5194 0924 04       		.byte	0x4
 5195 0925 43050000 		.4byte	0x543
 5196 0929 0A       		.uleb128 0xa
 5197 092a 04       		.byte	0x4
 5198 092b 95030000 		.4byte	0x395
 5199 092f 18       		.uleb128 0x18
 5200 0930 43050000 		.4byte	0x543
 5201 0934 3F090000 		.4byte	0x93f
 5202 0938 19       		.uleb128 0x19
 5203 0939 38000000 		.4byte	0x38
 5204 093d 30       		.byte	0x30
 5205 093e 00       		.byte	0
 5206 093f 1C       		.uleb128 0x1c
 5207 0940 636800   		.ascii	"ch\000"
 5208 0943 02       		.byte	0x2
 5209 0944 0902     		.2byte	0x209
 5210 0946 14       		.byte	0x14
ARM GAS  /tmp/ccJ6FnJD.s 			page 93


 5211 0947 9D040000 		.4byte	0x49d
 5212 094b 03       		.uleb128 0x3
 5213 094c 93050000 		.4byte	.LASF131
 5214 0950 06       		.byte	0x6
 5215 0951 34       		.byte	0x34
 5216 0952 10       		.byte	0x10
 5217 0953 82030000 		.4byte	0x382
 5218 0957 16       		.uleb128 0x16
 5219 0958 16       		.byte	0x16
 5220 0959 14       		.byte	0x14
 5221 095a 34       		.byte	0x34
 5222 095b 09       		.byte	0x9
 5223 095c 4B0A0000 		.4byte	0xa4b
 5224 0960 07       		.uleb128 0x7
 5225 0961 2C000000 		.4byte	.LASF132
 5226 0965 14       		.byte	0x14
 5227 0966 35       		.byte	0x35
 5228 0967 0D       		.byte	0xd
 5229 0968 4B0A0000 		.4byte	0xa4b
 5230 096c 00       		.byte	0
 5231 096d 07       		.uleb128 0x7
 5232 096e 33040000 		.4byte	.LASF133
 5233 0972 14       		.byte	0x14
 5234 0973 36       		.byte	0x36
 5235 0974 0D       		.byte	0xd
 5236 0975 73000000 		.4byte	0x73
 5237 0979 04       		.byte	0x4
 5238 097a 07       		.uleb128 0x7
 5239 097b 880B0000 		.4byte	.LASF134
 5240 097f 14       		.byte	0x14
 5241 0980 37       		.byte	0x37
 5242 0981 0D       		.byte	0xd
 5243 0982 73000000 		.4byte	0x73
 5244 0986 05       		.byte	0x5
 5245 0987 07       		.uleb128 0x7
 5246 0988 36050000 		.4byte	.LASF135
 5247 098c 14       		.byte	0x14
 5248 098d 38       		.byte	0x38
 5249 098e 0D       		.byte	0xd
 5250 098f 86000000 		.4byte	0x86
 5251 0993 06       		.byte	0x6
 5252 0994 07       		.uleb128 0x7
 5253 0995 0D010000 		.4byte	.LASF136
 5254 0999 14       		.byte	0x14
 5255 099a 39       		.byte	0x39
 5256 099b 0D       		.byte	0xd
 5257 099c 73000000 		.4byte	0x73
 5258 09a0 08       		.byte	0x8
 5259 09a1 07       		.uleb128 0x7
 5260 09a2 28060000 		.4byte	.LASF137
 5261 09a6 14       		.byte	0x14
 5262 09a7 3A       		.byte	0x3a
 5263 09a8 0D       		.byte	0xd
 5264 09a9 73000000 		.4byte	0x73
 5265 09ad 09       		.byte	0x9
 5266 09ae 07       		.uleb128 0x7
 5267 09af 83010000 		.4byte	.LASF138
ARM GAS  /tmp/ccJ6FnJD.s 			page 94


 5268 09b3 14       		.byte	0x14
 5269 09b4 3B       		.byte	0x3b
 5270 09b5 0D       		.byte	0xd
 5271 09b6 73000000 		.4byte	0x73
 5272 09ba 0A       		.byte	0xa
 5273 09bb 07       		.uleb128 0x7
 5274 09bc 6F030000 		.4byte	.LASF139
 5275 09c0 14       		.byte	0x14
 5276 09c1 3C       		.byte	0x3c
 5277 09c2 0D       		.byte	0xd
 5278 09c3 73000000 		.4byte	0x73
 5279 09c7 0B       		.byte	0xb
 5280 09c8 07       		.uleb128 0x7
 5281 09c9 A5000000 		.4byte	.LASF140
 5282 09cd 14       		.byte	0x14
 5283 09ce 3D       		.byte	0x3d
 5284 09cf 0D       		.byte	0xd
 5285 09d0 73000000 		.4byte	0x73
 5286 09d4 0C       		.byte	0xc
 5287 09d5 07       		.uleb128 0x7
 5288 09d6 48030000 		.4byte	.LASF141
 5289 09da 14       		.byte	0x14
 5290 09db 3E       		.byte	0x3e
 5291 09dc 0D       		.byte	0xd
 5292 09dd 73000000 		.4byte	0x73
 5293 09e1 0D       		.byte	0xd
 5294 09e2 07       		.uleb128 0x7
 5295 09e3 E9080000 		.4byte	.LASF142
 5296 09e7 14       		.byte	0x14
 5297 09e8 3F       		.byte	0x3f
 5298 09e9 0D       		.byte	0xd
 5299 09ea 73000000 		.4byte	0x73
 5300 09ee 0E       		.byte	0xe
 5301 09ef 07       		.uleb128 0x7
 5302 09f0 16000000 		.4byte	.LASF143
 5303 09f4 14       		.byte	0x14
 5304 09f5 40       		.byte	0x40
 5305 09f6 0D       		.byte	0xd
 5306 09f7 73000000 		.4byte	0x73
 5307 09fb 0F       		.byte	0xf
 5308 09fc 07       		.uleb128 0x7
 5309 09fd 51090000 		.4byte	.LASF144
 5310 0a01 14       		.byte	0x14
 5311 0a02 41       		.byte	0x41
 5312 0a03 0D       		.byte	0xd
 5313 0a04 73000000 		.4byte	0x73
 5314 0a08 10       		.byte	0x10
 5315 0a09 07       		.uleb128 0x7
 5316 0a0a C3010000 		.4byte	.LASF145
 5317 0a0e 14       		.byte	0x14
 5318 0a0f 43       		.byte	0x43
 5319 0a10 0D       		.byte	0xd
 5320 0a11 73000000 		.4byte	0x73
 5321 0a15 11       		.byte	0x11
 5322 0a16 07       		.uleb128 0x7
 5323 0a17 7C070000 		.4byte	.LASF146
 5324 0a1b 14       		.byte	0x14
ARM GAS  /tmp/ccJ6FnJD.s 			page 95


 5325 0a1c 44       		.byte	0x44
 5326 0a1d 0D       		.byte	0xd
 5327 0a1e 73000000 		.4byte	0x73
 5328 0a22 12       		.byte	0x12
 5329 0a23 07       		.uleb128 0x7
 5330 0a24 70060000 		.4byte	.LASF147
 5331 0a28 14       		.byte	0x14
 5332 0a29 45       		.byte	0x45
 5333 0a2a 0D       		.byte	0xd
 5334 0a2b 73000000 		.4byte	0x73
 5335 0a2f 13       		.byte	0x13
 5336 0a30 07       		.uleb128 0x7
 5337 0a31 F7040000 		.4byte	.LASF148
 5338 0a35 14       		.byte	0x14
 5339 0a36 46       		.byte	0x46
 5340 0a37 0D       		.byte	0xd
 5341 0a38 73000000 		.4byte	0x73
 5342 0a3c 14       		.byte	0x14
 5343 0a3d 07       		.uleb128 0x7
 5344 0a3e F7060000 		.4byte	.LASF149
 5345 0a42 14       		.byte	0x14
 5346 0a43 48       		.byte	0x48
 5347 0a44 0D       		.byte	0xd
 5348 0a45 73000000 		.4byte	0x73
 5349 0a49 15       		.byte	0x15
 5350 0a4a 00       		.byte	0
 5351 0a4b 18       		.uleb128 0x18
 5352 0a4c 17090000 		.4byte	0x917
 5353 0a50 5B0A0000 		.4byte	0xa5b
 5354 0a54 19       		.uleb128 0x19
 5355 0a55 38000000 		.4byte	0x38
 5356 0a59 03       		.byte	0x3
 5357 0a5a 00       		.byte	0
 5358 0a5b 03       		.uleb128 0x3
 5359 0a5c 700B0000 		.4byte	.LASF150
 5360 0a60 14       		.byte	0x14
 5361 0a61 49       		.byte	0x49
 5362 0a62 03       		.byte	0x3
 5363 0a63 57090000 		.4byte	0x957
 5364 0a67 0B       		.uleb128 0xb
 5365 0a68 5B0A0000 		.4byte	0xa5b
 5366 0a6c 14       		.uleb128 0x14
 5367 0a6d 59000000 		.4byte	.LASF151
 5368 0a71 14       		.byte	0x14
 5369 0a72 6E       		.byte	0x6e
 5370 0a73 1D       		.byte	0x1d
 5371 0a74 670A0000 		.4byte	0xa67
 5372 0a78 03       		.uleb128 0x3
 5373 0a79 21090000 		.4byte	.LASF152
 5374 0a7d 13       		.byte	0x13
 5375 0a7e 34       		.byte	0x34
 5376 0a7f 19       		.byte	0x19
 5377 0a80 C4080000 		.4byte	0x8c4
 5378 0a84 0A       		.uleb128 0xa
 5379 0a85 04       		.byte	0x4
 5380 0a86 780A0000 		.4byte	0xa78
 5381 0a8a 0A       		.uleb128 0xa
ARM GAS  /tmp/ccJ6FnJD.s 			page 96


 5382 0a8b 04       		.byte	0x4
 5383 0a8c 73000000 		.4byte	0x73
 5384 0a90 1D       		.uleb128 0x1d
 5385 0a91 7B000000 		.4byte	.LASF153
 5386 0a95 01       		.byte	0x1
 5387 0a96 A702     		.2byte	0x2a7
 5388 0a98 06       		.byte	0x6
 5389 0a99 00000000 		.4byte	.LFB240
 5390 0a9d 58000000 		.4byte	.LFE240-.LFB240
 5391 0aa1 01       		.uleb128 0x1
 5392 0aa2 9C       		.byte	0x9c
 5393 0aa3 940B0000 		.4byte	0xb94
 5394 0aa7 1E       		.uleb128 0x1e
 5395 0aa8 74717000 		.ascii	"tqp\000"
 5396 0aac 01       		.byte	0x1
 5397 0aad A702     		.2byte	0x2a7
 5398 0aaf 28       		.byte	0x28
 5399 0ab0 940B0000 		.4byte	0xb94
 5400 0ab4 06000000 		.4byte	.LLST96
 5401 0ab8 00000000 		.4byte	.LVUS96
 5402 0abc 1E       		.uleb128 0x1e
 5403 0abd 6D736700 		.ascii	"msg\000"
 5404 0ac1 01       		.byte	0x1
 5405 0ac2 A702     		.2byte	0x2a7
 5406 0ac4 33       		.byte	0x33
 5407 0ac5 13010000 		.4byte	0x113
 5408 0ac9 38000000 		.4byte	.LLST97
 5409 0acd 32000000 		.4byte	.LVUS97
 5410 0ad1 1F       		.uleb128 0x1f
 5411 0ad2 E0240000 		.4byte	0x24e0
 5412 0ad6 12000000 		.4byte	.LBI567
 5413 0ada 02       		.byte	.LVU855
 5414 0adb 90060000 		.4byte	.Ldebug_ranges0+0x690
 5415 0adf 01       		.byte	0x1
 5416 0ae0 A902     		.2byte	0x2a9
 5417 0ae2 0A       		.byte	0xa
 5418 0ae3 F50A0000 		.4byte	0xaf5
 5419 0ae7 20       		.uleb128 0x20
 5420 0ae8 F2240000 		.4byte	0x24f2
 5421 0aec 68000000 		.4byte	.LLST98
 5422 0af0 64000000 		.4byte	.LVUS98
 5423 0af4 00       		.byte	0
 5424 0af5 1F       		.uleb128 0x1f
 5425 0af6 D2220000 		.4byte	0x22d2
 5426 0afa 1A000000 		.4byte	.LBI572
 5427 0afe 02       		.byte	.LVU862
 5428 0aff B0060000 		.4byte	.Ldebug_ranges0+0x6b0
 5429 0b03 01       		.byte	0x1
 5430 0b04 AA02     		.2byte	0x2aa
 5431 0b06 05       		.byte	0x5
 5432 0b07 8A0B0000 		.4byte	0xb8a
 5433 0b0b 21       		.uleb128 0x21
 5434 0b0c ED220000 		.4byte	0x22ed
 5435 0b10 20       		.uleb128 0x20
 5436 0b11 E0220000 		.4byte	0x22e0
 5437 0b15 88000000 		.4byte	.LLST99
 5438 0b19 86000000 		.4byte	.LVUS99
ARM GAS  /tmp/ccJ6FnJD.s 			page 97


 5439 0b1d 22       		.uleb128 0x22
 5440 0b1e B0060000 		.4byte	.Ldebug_ranges0+0x6b0
 5441 0b22 23       		.uleb128 0x23
 5442 0b23 FA220000 		.4byte	0x22fa
 5443 0b27 9D000000 		.4byte	.LLST100
 5444 0b2b 9B000000 		.4byte	.LVUS100
 5445 0b2f 24       		.uleb128 0x24
 5446 0b30 32240000 		.4byte	0x2432
 5447 0b34 1A000000 		.4byte	.LBI574
 5448 0b38 0B       		.byte	.LVU871
 5449 0b39 1A000000 		.4byte	.LBB574
 5450 0b3d 06000000 		.4byte	.LBE574-.LBB574
 5451 0b41 06       		.byte	0x6
 5452 0b42 3D01     		.2byte	0x13d
 5453 0b44 08       		.byte	0x8
 5454 0b45 640B0000 		.4byte	0xb64
 5455 0b49 20       		.uleb128 0x20
 5456 0b4a 44240000 		.4byte	0x2444
 5457 0b4e B2000000 		.4byte	.LLST101
 5458 0b52 B0000000 		.4byte	.LVUS101
 5459 0b56 23       		.uleb128 0x23
 5460 0b57 51240000 		.4byte	0x2451
 5461 0b5b C7000000 		.4byte	.LLST102
 5462 0b5f C5000000 		.4byte	.LVUS102
 5463 0b63 00       		.byte	0
 5464 0b64 25       		.uleb128 0x25
 5465 0b65 2E000000 		.4byte	.LVL274
 5466 0b69 D2250000 		.4byte	0x25d2
 5467 0b6d 780B0000 		.4byte	0xb78
 5468 0b71 26       		.uleb128 0x26
 5469 0b72 01       		.uleb128 0x1
 5470 0b73 50       		.byte	0x50
 5471 0b74 02       		.uleb128 0x2
 5472 0b75 77       		.byte	0x77
 5473 0b76 00       		.sleb128 0
 5474 0b77 00       		.byte	0
 5475 0b78 27       		.uleb128 0x27
 5476 0b79 36000000 		.4byte	.LVL275
 5477 0b7d DF250000 		.4byte	0x25df
 5478 0b81 26       		.uleb128 0x26
 5479 0b82 01       		.uleb128 0x1
 5480 0b83 50       		.byte	0x50
 5481 0b84 02       		.uleb128 0x2
 5482 0b85 74       		.byte	0x74
 5483 0b86 00       		.sleb128 0
 5484 0b87 00       		.byte	0
 5485 0b88 00       		.byte	0
 5486 0b89 00       		.byte	0
 5487 0b8a 28       		.uleb128 0x28
 5488 0b8b 4E000000 		.4byte	.LVL278
 5489 0b8f EC250000 		.4byte	0x25ec
 5490 0b93 00       		.byte	0
 5491 0b94 0A       		.uleb128 0xa
 5492 0b95 04       		.byte	0x4
 5493 0b96 CE020000 		.4byte	0x2ce
 5494 0b9a 1D       		.uleb128 0x1d
 5495 0b9b A3050000 		.4byte	.LASF154
ARM GAS  /tmp/ccJ6FnJD.s 			page 98


 5496 0b9f 01       		.byte	0x1
 5497 0ba0 9802     		.2byte	0x298
 5498 0ba2 06       		.byte	0x6
 5499 0ba3 00000000 		.4byte	.LFB239
 5500 0ba7 60000000 		.4byte	.LFE239-.LFB239
 5501 0bab 01       		.uleb128 0x1
 5502 0bac 9C       		.byte	0x9c
 5503 0bad A00C0000 		.4byte	0xca0
 5504 0bb1 1E       		.uleb128 0x1e
 5505 0bb2 74717000 		.ascii	"tqp\000"
 5506 0bb6 01       		.byte	0x1
 5507 0bb7 9802     		.2byte	0x298
 5508 0bb9 29       		.byte	0x29
 5509 0bba 940B0000 		.4byte	0xb94
 5510 0bbe E6000000 		.4byte	.LLST88
 5511 0bc2 DA000000 		.4byte	.LVUS88
 5512 0bc6 1E       		.uleb128 0x1e
 5513 0bc7 6D736700 		.ascii	"msg\000"
 5514 0bcb 01       		.byte	0x1
 5515 0bcc 9802     		.2byte	0x298
 5516 0bce 34       		.byte	0x34
 5517 0bcf 13010000 		.4byte	0x113
 5518 0bd3 49010000 		.4byte	.LLST89
 5519 0bd7 39010000 		.4byte	.LVUS89
 5520 0bdb 1F       		.uleb128 0x1f
 5521 0bdc E0240000 		.4byte	0x24e0
 5522 0be0 12000000 		.4byte	.LBI543
 5523 0be4 01       		.byte	.LVU805
 5524 0be5 38060000 		.4byte	.Ldebug_ranges0+0x638
 5525 0be9 01       		.byte	0x1
 5526 0bea 9A02     		.2byte	0x29a
 5527 0bec 07       		.byte	0x7
 5528 0bed FF0B0000 		.4byte	0xbff
 5529 0bf1 20       		.uleb128 0x20
 5530 0bf2 F2240000 		.4byte	0x24f2
 5531 0bf6 B2010000 		.4byte	.LLST90
 5532 0bfa B0010000 		.4byte	.LVUS90
 5533 0bfe 00       		.byte	0
 5534 0bff 1F       		.uleb128 0x1f
 5535 0c00 D2220000 		.4byte	0x22d2
 5536 0c04 22000000 		.4byte	.LBI547
 5537 0c08 01       		.byte	.LVU814
 5538 0c09 50060000 		.4byte	.Ldebug_ranges0+0x650
 5539 0c0d 01       		.byte	0x1
 5540 0c0e 9B02     		.2byte	0x29b
 5541 0c10 05       		.byte	0x5
 5542 0c11 960C0000 		.4byte	0xc96
 5543 0c15 20       		.uleb128 0x20
 5544 0c16 ED220000 		.4byte	0x22ed
 5545 0c1a D1010000 		.4byte	.LLST91
 5546 0c1e C5010000 		.4byte	.LVUS91
 5547 0c22 20       		.uleb128 0x20
 5548 0c23 E0220000 		.4byte	0x22e0
 5549 0c27 27020000 		.4byte	.LLST92
 5550 0c2b 1F020000 		.4byte	.LVUS92
 5551 0c2f 22       		.uleb128 0x22
 5552 0c30 50060000 		.4byte	.Ldebug_ranges0+0x650
ARM GAS  /tmp/ccJ6FnJD.s 			page 99


 5553 0c34 23       		.uleb128 0x23
 5554 0c35 FA220000 		.4byte	0x22fa
 5555 0c39 67020000 		.4byte	.LLST93
 5556 0c3d 61020000 		.4byte	.LVUS93
 5557 0c41 1F       		.uleb128 0x1f
 5558 0c42 32240000 		.4byte	0x2432
 5559 0c46 22000000 		.4byte	.LBI549
 5560 0c4a 0A       		.byte	.LVU823
 5561 0c4b 78060000 		.4byte	.Ldebug_ranges0+0x678
 5562 0c4f 06       		.byte	0x6
 5563 0c50 3D01     		.2byte	0x13d
 5564 0c52 08       		.byte	0x8
 5565 0c53 780C0000 		.4byte	0xc78
 5566 0c57 20       		.uleb128 0x20
 5567 0c58 44240000 		.4byte	0x2444
 5568 0c5c 92020000 		.4byte	.LLST94
 5569 0c60 90020000 		.4byte	.LVUS94
 5570 0c64 22       		.uleb128 0x22
 5571 0c65 78060000 		.4byte	.Ldebug_ranges0+0x678
 5572 0c69 23       		.uleb128 0x23
 5573 0c6a 51240000 		.4byte	0x2451
 5574 0c6e A7020000 		.4byte	.LLST95
 5575 0c72 A5020000 		.4byte	.LVUS95
 5576 0c76 00       		.byte	0
 5577 0c77 00       		.byte	0
 5578 0c78 29       		.uleb128 0x29
 5579 0c79 3C000000 		.4byte	.LVL264
 5580 0c7d DF250000 		.4byte	0x25df
 5581 0c81 27       		.uleb128 0x27
 5582 0c82 42000000 		.4byte	.LVL266
 5583 0c86 D2250000 		.4byte	0x25d2
 5584 0c8a 26       		.uleb128 0x26
 5585 0c8b 01       		.uleb128 0x1
 5586 0c8c 50       		.byte	0x50
 5587 0c8d 05       		.uleb128 0x5
 5588 0c8e 03       		.byte	0x3
 5589 0c8f 00000000 		.4byte	.LANCHOR11
 5590 0c93 00       		.byte	0
 5591 0c94 00       		.byte	0
 5592 0c95 00       		.byte	0
 5593 0c96 28       		.uleb128 0x28
 5594 0c97 56000000 		.4byte	.LVL269
 5595 0c9b EC250000 		.4byte	0x25ec
 5596 0c9f 00       		.byte	0
 5597 0ca0 2A       		.uleb128 0x2a
 5598 0ca1 D0010000 		.4byte	.LASF160
 5599 0ca5 01       		.byte	0x1
 5600 0ca6 8402     		.2byte	0x284
 5601 0ca8 07       		.byte	0x7
 5602 0ca9 13010000 		.4byte	0x113
 5603 0cad 00000000 		.4byte	.LFB238
 5604 0cb1 54000000 		.4byte	.LFE238-.LFB238
 5605 0cb5 01       		.uleb128 0x1
 5606 0cb6 9C       		.byte	0x9c
 5607 0cb7 3E0D0000 		.4byte	0xd3e
 5608 0cbb 1E       		.uleb128 0x1e
 5609 0cbc 74717000 		.ascii	"tqp\000"
ARM GAS  /tmp/ccJ6FnJD.s 			page 100


 5610 0cc0 01       		.byte	0x1
 5611 0cc1 8402     		.2byte	0x284
 5612 0cc3 2D       		.byte	0x2d
 5613 0cc4 940B0000 		.4byte	0xb94
 5614 0cc8 C6020000 		.4byte	.LLST84
 5615 0ccc BA020000 		.4byte	.LVUS84
 5616 0cd0 2B       		.uleb128 0x2b
 5617 0cd1 9B050000 		.4byte	.LASF155
 5618 0cd5 01       		.byte	0x1
 5619 0cd6 8402     		.2byte	0x284
 5620 0cd8 3C       		.byte	0x3c
 5621 0cd9 43010000 		.4byte	0x143
 5622 0cdd 21030000 		.4byte	.LLST85
 5623 0ce1 19030000 		.4byte	.LVUS85
 5624 0ce5 24       		.uleb128 0x24
 5625 0ce6 5E240000 		.4byte	0x245e
 5626 0cea 14000000 		.4byte	.LBI533
 5627 0cee 00       		.byte	.LVU779
 5628 0cef 14000000 		.4byte	.LBB533
 5629 0cf3 0A000000 		.4byte	.LBE533-.LBB533
 5630 0cf7 01       		.byte	0x1
 5631 0cf8 8A02     		.2byte	0x28a
 5632 0cfa 03       		.byte	0x3
 5633 0cfb 1A0D0000 		.4byte	0xd1a
 5634 0cff 20       		.uleb128 0x20
 5635 0d00 78240000 		.4byte	0x2478
 5636 0d04 5D030000 		.4byte	.LLST86
 5637 0d08 5B030000 		.4byte	.LVUS86
 5638 0d0c 20       		.uleb128 0x20
 5639 0d0d 6C240000 		.4byte	0x246c
 5640 0d11 72030000 		.4byte	.LLST87
 5641 0d15 70030000 		.4byte	.LVUS87
 5642 0d19 00       		.byte	0
 5643 0d1a 2C       		.uleb128 0x2c
 5644 0d1b 34000000 		.4byte	.LVL255
 5645 0d1f F5250000 		.4byte	0x25f5
 5646 0d23 340D0000 		.4byte	0xd34
 5647 0d27 26       		.uleb128 0x26
 5648 0d28 01       		.uleb128 0x1
 5649 0d29 50       		.byte	0x50
 5650 0d2a 01       		.uleb128 0x1
 5651 0d2b 34       		.byte	0x34
 5652 0d2c 26       		.uleb128 0x26
 5653 0d2d 01       		.uleb128 0x1
 5654 0d2e 51       		.byte	0x51
 5655 0d2f 03       		.uleb128 0x3
 5656 0d30 F3       		.byte	0xf3
 5657 0d31 01       		.uleb128 0x1
 5658 0d32 51       		.byte	0x51
 5659 0d33 00       		.byte	0
 5660 0d34 28       		.uleb128 0x28
 5661 0d35 4C000000 		.4byte	.LVL258
 5662 0d39 EC250000 		.4byte	0x25ec
 5663 0d3d 00       		.byte	0
 5664 0d3e 1D       		.uleb128 0x1d
 5665 0d3f EA030000 		.4byte	.LASF156
 5666 0d43 01       		.byte	0x1
ARM GAS  /tmp/ccJ6FnJD.s 			page 101


 5667 0d44 6602     		.2byte	0x266
 5668 0d46 06       		.byte	0x6
 5669 0d47 00000000 		.4byte	.LFB237
 5670 0d4b 70000000 		.4byte	.LFE237-.LFB237
 5671 0d4f 01       		.uleb128 0x1
 5672 0d50 9C       		.byte	0x9c
 5673 0d51 860E0000 		.4byte	0xe86
 5674 0d55 1E       		.uleb128 0x1e
 5675 0d56 74727000 		.ascii	"trp\000"
 5676 0d5a 01       		.byte	0x1
 5677 0d5b 6602     		.2byte	0x266
 5678 0d5d 26       		.byte	0x26
 5679 0d5e 90080000 		.4byte	0x890
 5680 0d62 89030000 		.4byte	.LLST80
 5681 0d66 85030000 		.4byte	.LVUS80
 5682 0d6a 1E       		.uleb128 0x1e
 5683 0d6b 6D736700 		.ascii	"msg\000"
 5684 0d6f 01       		.byte	0x1
 5685 0d70 6602     		.2byte	0x266
 5686 0d72 31       		.byte	0x31
 5687 0d73 13010000 		.4byte	0x113
 5688 0d77 B0030000 		.4byte	.LLST81
 5689 0d7b A8030000 		.4byte	.LVUS81
 5690 0d7f 1F       		.uleb128 0x1f
 5691 0d80 10240000 		.4byte	0x2410
 5692 0d84 12000000 		.4byte	.LBI515
 5693 0d88 01       		.byte	.LVU745
 5694 0d89 D0050000 		.4byte	.Ldebug_ranges0+0x5d0
 5695 0d8d 01       		.byte	0x1
 5696 0d8e 6802     		.2byte	0x268
 5697 0d90 03       		.byte	0x3
 5698 0d91 E30D0000 		.4byte	0xde3
 5699 0d95 1F       		.uleb128 0x1f
 5700 0d96 68250000 		.4byte	0x2568
 5701 0d9a 12000000 		.4byte	.LBI517
 5702 0d9e 03       		.byte	.LVU747
 5703 0d9f E8050000 		.4byte	.Ldebug_ranges0+0x5e8
 5704 0da3 03       		.byte	0x3
 5705 0da4 5C01     		.2byte	0x15c
 5706 0da6 03       		.byte	0x3
 5707 0da7 D00D0000 		.4byte	0xdd0
 5708 0dab 2D       		.uleb128 0x2d
 5709 0dac 72250000 		.4byte	0x2572
 5710 0db0 12000000 		.4byte	.LBI518
 5711 0db4 05       		.byte	.LVU749
 5712 0db5 12000000 		.4byte	.LBB518
 5713 0db9 06000000 		.4byte	.LBE518-.LBB518
 5714 0dbd 04       		.byte	0x4
 5715 0dbe BF01     		.2byte	0x1bf
 5716 0dc0 03       		.byte	0x3
 5717 0dc1 20       		.uleb128 0x20
 5718 0dc2 80250000 		.4byte	0x2580
 5719 0dc6 E9030000 		.4byte	.LLST82
 5720 0dca E7030000 		.4byte	.LVUS82
 5721 0dce 00       		.byte	0
 5722 0dcf 00       		.byte	0
 5723 0dd0 28       		.uleb128 0x28
ARM GAS  /tmp/ccJ6FnJD.s 			page 102


 5724 0dd1 1C000000 		.4byte	.LVL240
 5725 0dd5 02260000 		.4byte	0x2602
 5726 0dd9 28       		.uleb128 0x28
 5727 0dda 20000000 		.4byte	.LVL241
 5728 0dde 0E260000 		.4byte	0x260e
 5729 0de2 00       		.byte	0
 5730 0de3 1F       		.uleb128 0x1f
 5731 0de4 F2230000 		.4byte	0x23f2
 5732 0de8 28000000 		.4byte	.LBI523
 5733 0dec 01       		.byte	.LVU756
 5734 0ded 00060000 		.4byte	.Ldebug_ranges0+0x600
 5735 0df1 01       		.byte	0x1
 5736 0df2 6A02     		.2byte	0x26a
 5737 0df4 03       		.byte	0x3
 5738 0df5 600E0000 		.4byte	0xe60
 5739 0df9 22       		.uleb128 0x22
 5740 0dfa 00060000 		.4byte	.Ldebug_ranges0+0x600
 5741 0dfe 1F       		.uleb128 0x1f
 5742 0dff 5E250000 		.4byte	0x255e
 5743 0e03 42000000 		.4byte	.LBI525
 5744 0e07 02       		.byte	.LVU764
 5745 0e08 20060000 		.4byte	.Ldebug_ranges0+0x620
 5746 0e0c 03       		.byte	0x3
 5747 0e0d 7301     		.2byte	0x173
 5748 0e0f 03       		.byte	0x3
 5749 0e10 390E0000 		.4byte	0xe39
 5750 0e14 2D       		.uleb128 0x2d
 5751 0e15 72250000 		.4byte	0x2572
 5752 0e19 42000000 		.4byte	.LBI526
 5753 0e1d 04       		.byte	.LVU766
 5754 0e1e 42000000 		.4byte	.LBB526
 5755 0e22 06000000 		.4byte	.LBE526-.LBB526
 5756 0e26 04       		.byte	0x4
 5757 0e27 CD01     		.2byte	0x1cd
 5758 0e29 03       		.byte	0x3
 5759 0e2a 20       		.uleb128 0x20
 5760 0e2b 80250000 		.4byte	0x2580
 5761 0e2f 00040000 		.4byte	.LLST83
 5762 0e33 FE030000 		.4byte	.LVUS83
 5763 0e37 00       		.byte	0
 5764 0e38 00       		.byte	0
 5765 0e39 28       		.uleb128 0x28
 5766 0e3a 2C000000 		.4byte	.LVL243
 5767 0e3e 1A260000 		.4byte	0x261a
 5768 0e42 28       		.uleb128 0x28
 5769 0e43 30000000 		.4byte	.LVL244
 5770 0e47 26260000 		.4byte	0x2626
 5771 0e4b 27       		.uleb128 0x27
 5772 0e4c 5E000000 		.4byte	.LVL249
 5773 0e50 D2250000 		.4byte	0x25d2
 5774 0e54 26       		.uleb128 0x26
 5775 0e55 01       		.uleb128 0x1
 5776 0e56 50       		.byte	0x50
 5777 0e57 05       		.uleb128 0x5
 5778 0e58 03       		.byte	0x3
 5779 0e59 00000000 		.4byte	.LANCHOR1
 5780 0e5d 00       		.byte	0
ARM GAS  /tmp/ccJ6FnJD.s 			page 103


 5781 0e5e 00       		.byte	0
 5782 0e5f 00       		.byte	0
 5783 0e60 25       		.uleb128 0x25
 5784 0e61 28000000 		.4byte	.LVL242
 5785 0e65 860E0000 		.4byte	0xe86
 5786 0e69 7C0E0000 		.4byte	0xe7c
 5787 0e6d 26       		.uleb128 0x26
 5788 0e6e 01       		.uleb128 0x1
 5789 0e6f 50       		.byte	0x50
 5790 0e70 03       		.uleb128 0x3
 5791 0e71 91       		.byte	0x91
 5792 0e72 6C       		.sleb128 -20
 5793 0e73 06       		.byte	0x6
 5794 0e74 26       		.uleb128 0x26
 5795 0e75 01       		.uleb128 0x1
 5796 0e76 51       		.byte	0x51
 5797 0e77 03       		.uleb128 0x3
 5798 0e78 7D       		.byte	0x7d
 5799 0e79 00       		.sleb128 0
 5800 0e7a 06       		.byte	0x6
 5801 0e7b 00       		.byte	0
 5802 0e7c 28       		.uleb128 0x28
 5803 0e7d 64000000 		.4byte	.LVL250
 5804 0e81 EC250000 		.4byte	0x25ec
 5805 0e85 00       		.byte	0
 5806 0e86 1D       		.uleb128 0x1d
 5807 0e87 B9000000 		.4byte	.LASF157
 5808 0e8b 01       		.byte	0x1
 5809 0e8c 4F02     		.2byte	0x24f
 5810 0e8e 06       		.byte	0x6
 5811 0e8f 00000000 		.4byte	.LFB236
 5812 0e93 5C000000 		.4byte	.LFE236-.LFB236
 5813 0e97 01       		.uleb128 0x1
 5814 0e98 9C       		.byte	0x9c
 5815 0e99 260F0000 		.4byte	0xf26
 5816 0e9d 1E       		.uleb128 0x1e
 5817 0e9e 74727000 		.ascii	"trp\000"
 5818 0ea2 01       		.byte	0x1
 5819 0ea3 4F02     		.2byte	0x24f
 5820 0ea5 27       		.byte	0x27
 5821 0ea6 90080000 		.4byte	0x890
 5822 0eaa 22040000 		.4byte	.LLST77
 5823 0eae 14040000 		.4byte	.LVUS77
 5824 0eb2 1E       		.uleb128 0x1e
 5825 0eb3 6D736700 		.ascii	"msg\000"
 5826 0eb7 01       		.byte	0x1
 5827 0eb8 4F02     		.2byte	0x24f
 5828 0eba 32       		.byte	0x32
 5829 0ebb 13010000 		.4byte	0x113
 5830 0ebf 8D040000 		.4byte	.LLST78
 5831 0ec3 7D040000 		.4byte	.LVUS78
 5832 0ec7 2E       		.uleb128 0x2e
 5833 0ec8 E9000000 		.4byte	.LASF159
 5834 0ecc 360F0000 		.4byte	0xf36
 5835 0ed0 05       		.uleb128 0x5
 5836 0ed1 03       		.byte	0x3
 5837 0ed2 00000000 		.4byte	__func__.8046
ARM GAS  /tmp/ccJ6FnJD.s 			page 104


 5838 0ed6 2F       		.uleb128 0x2f
 5839 0ed7 B8050000 		.4byte	.Ldebug_ranges0+0x5b8
 5840 0edb 1C0F0000 		.4byte	0xf1c
 5841 0edf 30       		.uleb128 0x30
 5842 0ee0 747000   		.ascii	"tp\000"
 5843 0ee3 01       		.byte	0x1
 5844 0ee4 5202     		.2byte	0x252
 5845 0ee6 0F       		.byte	0xf
 5846 0ee7 A1020000 		.4byte	0x2a1
 5847 0eeb F9040000 		.4byte	.LLST79
 5848 0eef F3040000 		.4byte	.LVUS79
 5849 0ef3 2C       		.uleb128 0x2c
 5850 0ef4 3A000000 		.4byte	.LVL231
 5851 0ef8 32260000 		.4byte	0x2632
 5852 0efc 080F0000 		.4byte	0xf08
 5853 0f00 26       		.uleb128 0x26
 5854 0f01 01       		.uleb128 0x1
 5855 0f02 51       		.byte	0x51
 5856 0f03 03       		.uleb128 0x3
 5857 0f04 F3       		.byte	0xf3
 5858 0f05 01       		.uleb128 0x1
 5859 0f06 51       		.byte	0x51
 5860 0f07 00       		.byte	0
 5861 0f08 27       		.uleb128 0x27
 5862 0f09 40000000 		.4byte	.LVL233
 5863 0f0d D2250000 		.4byte	0x25d2
 5864 0f11 26       		.uleb128 0x26
 5865 0f12 01       		.uleb128 0x1
 5866 0f13 50       		.byte	0x50
 5867 0f14 05       		.uleb128 0x5
 5868 0f15 03       		.byte	0x3
 5869 0f16 00000000 		.4byte	.LANCHOR10
 5870 0f1a 00       		.byte	0
 5871 0f1b 00       		.byte	0
 5872 0f1c 28       		.uleb128 0x28
 5873 0f1d 54000000 		.4byte	.LVL236
 5874 0f21 EC250000 		.4byte	0x25ec
 5875 0f25 00       		.byte	0
 5876 0f26 18       		.uleb128 0x18
 5877 0f27 1E090000 		.4byte	0x91e
 5878 0f2b 360F0000 		.4byte	0xf36
 5879 0f2f 19       		.uleb128 0x19
 5880 0f30 38000000 		.4byte	0x38
 5881 0f34 0C       		.byte	0xc
 5882 0f35 00       		.byte	0
 5883 0f36 0B       		.uleb128 0xb
 5884 0f37 260F0000 		.4byte	0xf26
 5885 0f3b 1D       		.uleb128 0x1d
 5886 0f3c 8C000000 		.4byte	.LASF158
 5887 0f40 01       		.byte	0x1
 5888 0f41 3702     		.2byte	0x237
 5889 0f43 06       		.byte	0x6
 5890 0f44 00000000 		.4byte	.LFB235
 5891 0f48 5C000000 		.4byte	.LFE235-.LFB235
 5892 0f4c 01       		.uleb128 0x1
 5893 0f4d 9C       		.byte	0x9c
 5894 0f4e CF0F0000 		.4byte	0xfcf
ARM GAS  /tmp/ccJ6FnJD.s 			page 105


 5895 0f52 1E       		.uleb128 0x1e
 5896 0f53 74727000 		.ascii	"trp\000"
 5897 0f57 01       		.byte	0x1
 5898 0f58 3702     		.2byte	0x237
 5899 0f5a 27       		.byte	0x27
 5900 0f5b 90080000 		.4byte	0x890
 5901 0f5f 30050000 		.4byte	.LLST74
 5902 0f63 22050000 		.4byte	.LVUS74
 5903 0f67 1E       		.uleb128 0x1e
 5904 0f68 6D736700 		.ascii	"msg\000"
 5905 0f6c 01       		.byte	0x1
 5906 0f6d 3702     		.2byte	0x237
 5907 0f6f 32       		.byte	0x32
 5908 0f70 13010000 		.4byte	0x113
 5909 0f74 9B050000 		.4byte	.LLST75
 5910 0f78 8B050000 		.4byte	.LVUS75
 5911 0f7c 2E       		.uleb128 0x2e
 5912 0f7d E9000000 		.4byte	.LASF159
 5913 0f81 360F0000 		.4byte	0xf36
 5914 0f85 05       		.uleb128 0x5
 5915 0f86 03       		.byte	0x3
 5916 0f87 00000000 		.4byte	__func__.8040
 5917 0f8b 2F       		.uleb128 0x2f
 5918 0f8c A0050000 		.4byte	.Ldebug_ranges0+0x5a0
 5919 0f90 C50F0000 		.4byte	0xfc5
 5920 0f94 30       		.uleb128 0x30
 5921 0f95 747000   		.ascii	"tp\000"
 5922 0f98 01       		.byte	0x1
 5923 0f99 3A02     		.2byte	0x23a
 5924 0f9b 0F       		.byte	0xf
 5925 0f9c A1020000 		.4byte	0x2a1
 5926 0fa0 08060000 		.4byte	.LLST76
 5927 0fa4 02060000 		.4byte	.LVUS76
 5928 0fa8 29       		.uleb128 0x29
 5929 0fa9 3A000000 		.4byte	.LVL221
 5930 0fad DF250000 		.4byte	0x25df
 5931 0fb1 27       		.uleb128 0x27
 5932 0fb2 40000000 		.4byte	.LVL223
 5933 0fb6 D2250000 		.4byte	0x25d2
 5934 0fba 26       		.uleb128 0x26
 5935 0fbb 01       		.uleb128 0x1
 5936 0fbc 50       		.byte	0x50
 5937 0fbd 05       		.uleb128 0x5
 5938 0fbe 03       		.byte	0x3
 5939 0fbf 00000000 		.4byte	.LANCHOR9
 5940 0fc3 00       		.byte	0
 5941 0fc4 00       		.byte	0
 5942 0fc5 28       		.uleb128 0x28
 5943 0fc6 54000000 		.4byte	.LVL226
 5944 0fca EC250000 		.4byte	0x25ec
 5945 0fce 00       		.byte	0
 5946 0fcf 2A       		.uleb128 0x2a
 5947 0fd0 3C020000 		.4byte	.LASF161
 5948 0fd4 01       		.byte	0x1
 5949 0fd5 1E02     		.2byte	0x21e
 5950 0fd7 07       		.byte	0x7
 5951 0fd8 13010000 		.4byte	0x113
ARM GAS  /tmp/ccJ6FnJD.s 			page 106


 5952 0fdc 00000000 		.4byte	.LFB234
 5953 0fe0 60000000 		.4byte	.LFE234-.LFB234
 5954 0fe4 01       		.uleb128 0x1
 5955 0fe5 9C       		.byte	0x9c
 5956 0fe6 84100000 		.4byte	0x1084
 5957 0fea 1E       		.uleb128 0x1e
 5958 0feb 74727000 		.ascii	"trp\000"
 5959 0fef 01       		.byte	0x1
 5960 0ff0 1E02     		.2byte	0x21e
 5961 0ff2 30       		.byte	0x30
 5962 0ff3 90080000 		.4byte	0x890
 5963 0ff7 39060000 		.4byte	.LLST71
 5964 0ffb 31060000 		.4byte	.LVUS71
 5965 0fff 2B       		.uleb128 0x2b
 5966 1000 9B050000 		.4byte	.LASF155
 5967 1004 01       		.byte	0x1
 5968 1005 1E02     		.2byte	0x21e
 5969 1007 3F       		.byte	0x3f
 5970 1008 43010000 		.4byte	0x143
 5971 100c 7A060000 		.4byte	.LLST72
 5972 1010 70060000 		.4byte	.LVUS72
 5973 1014 30       		.uleb128 0x30
 5974 1015 747000   		.ascii	"tp\000"
 5975 1018 01       		.byte	0x1
 5976 1019 1F02     		.2byte	0x21f
 5977 101b 0D       		.byte	0xd
 5978 101c A1020000 		.4byte	0x2a1
 5979 1020 C0060000 		.4byte	.LLST73
 5980 1024 BC060000 		.4byte	.LVUS73
 5981 1028 2E       		.uleb128 0x2e
 5982 1029 E9000000 		.4byte	.LASF159
 5983 102d 94100000 		.4byte	0x1094
 5984 1031 05       		.uleb128 0x5
 5985 1032 03       		.byte	0x3
 5986 1033 00000000 		.4byte	__func__.8034
 5987 1037 31       		.uleb128 0x31
 5988 1038 97230000 		.4byte	0x2397
 5989 103c 16000000 		.4byte	.LBI495
 5990 1040 01       		.byte	.LVU664
 5991 1041 80050000 		.4byte	.Ldebug_ranges0+0x580
 5992 1045 01       		.byte	0x1
 5993 1046 1F02     		.2byte	0x21f
 5994 1048 12       		.byte	0x12
 5995 1049 25       		.uleb128 0x25
 5996 104a 20000000 		.4byte	.LVL212
 5997 104e D2250000 		.4byte	0x25d2
 5998 1052 60100000 		.4byte	0x1060
 5999 1056 26       		.uleb128 0x26
 6000 1057 01       		.uleb128 0x1
 6001 1058 50       		.byte	0x50
 6002 1059 05       		.uleb128 0x5
 6003 105a 03       		.byte	0x3
 6004 105b 00000000 		.4byte	.LANCHOR8
 6005 105f 00       		.byte	0
 6006 1060 2C       		.uleb128 0x2c
 6007 1061 3E000000 		.4byte	.LVL214
 6008 1065 F5250000 		.4byte	0x25f5
ARM GAS  /tmp/ccJ6FnJD.s 			page 107


 6009 1069 7A100000 		.4byte	0x107a
 6010 106d 26       		.uleb128 0x26
 6011 106e 01       		.uleb128 0x1
 6012 106f 50       		.byte	0x50
 6013 1070 01       		.uleb128 0x1
 6014 1071 33       		.byte	0x33
 6015 1072 26       		.uleb128 0x26
 6016 1073 01       		.uleb128 0x1
 6017 1074 51       		.byte	0x51
 6018 1075 03       		.uleb128 0x3
 6019 1076 F3       		.byte	0xf3
 6020 1077 01       		.uleb128 0x1
 6021 1078 51       		.byte	0x51
 6022 1079 00       		.byte	0
 6023 107a 28       		.uleb128 0x28
 6024 107b 54000000 		.4byte	.LVL216
 6025 107f EC250000 		.4byte	0x25ec
 6026 1083 00       		.byte	0
 6027 1084 18       		.uleb128 0x18
 6028 1085 1E090000 		.4byte	0x91e
 6029 1089 94100000 		.4byte	0x1094
 6030 108d 19       		.uleb128 0x19
 6031 108e 38000000 		.4byte	0x38
 6032 1092 14       		.byte	0x14
 6033 1093 00       		.byte	0
 6034 1094 0B       		.uleb128 0xb
 6035 1095 84100000 		.4byte	0x1084
 6036 1099 2A       		.uleb128 0x2a
 6037 109a 91010000 		.4byte	.LASF162
 6038 109e 01       		.byte	0x1
 6039 109f FF01     		.2byte	0x1ff
 6040 10a1 07       		.byte	0x7
 6041 10a2 13010000 		.4byte	0x113
 6042 10a6 00000000 		.4byte	.LFB233
 6043 10aa 4C000000 		.4byte	.LFE233-.LFB233
 6044 10ae 01       		.uleb128 0x1
 6045 10af 9C       		.byte	0x9c
 6046 10b0 48110000 		.4byte	0x1148
 6047 10b4 1E       		.uleb128 0x1e
 6048 10b5 74727000 		.ascii	"trp\000"
 6049 10b9 01       		.byte	0x1
 6050 10ba FF01     		.2byte	0x1ff
 6051 10bc 29       		.byte	0x29
 6052 10bd 90080000 		.4byte	0x890
 6053 10c1 E2060000 		.4byte	.LLST69
 6054 10c5 DE060000 		.4byte	.LVUS69
 6055 10c9 30       		.uleb128 0x30
 6056 10ca 747000   		.ascii	"tp\000"
 6057 10cd 01       		.byte	0x1
 6058 10ce 0002     		.2byte	0x200
 6059 10d0 0D       		.byte	0xd
 6060 10d1 A1020000 		.4byte	0x2a1
 6061 10d5 02070000 		.4byte	.LLST70
 6062 10d9 00070000 		.4byte	.LVUS70
 6063 10dd 2E       		.uleb128 0x2e
 6064 10de E9000000 		.4byte	.LASF159
 6065 10e2 58110000 		.4byte	0x1158
ARM GAS  /tmp/ccJ6FnJD.s 			page 108


 6066 10e6 05       		.uleb128 0x5
 6067 10e7 03       		.byte	0x3
 6068 10e8 00000000 		.4byte	__func__.8028
 6069 10ec 31       		.uleb128 0x31
 6070 10ed 97230000 		.4byte	0x2397
 6071 10f1 16000000 		.4byte	.LBI487
 6072 10f5 01       		.byte	.LVU633
 6073 10f6 60050000 		.4byte	.Ldebug_ranges0+0x560
 6074 10fa 01       		.byte	0x1
 6075 10fb 0002     		.2byte	0x200
 6076 10fd 12       		.byte	0x12
 6077 10fe 32       		.uleb128 0x32
 6078 10ff 97230000 		.4byte	0x2397
 6079 1103 28000000 		.4byte	.LBI493
 6080 1107 01       		.byte	.LVU649
 6081 1108 28000000 		.4byte	.LBB493
 6082 110c 00000000 		.4byte	.LBE493-.LBB493
 6083 1110 01       		.byte	0x1
 6084 1111 0802     		.2byte	0x208
 6085 1113 0A       		.byte	0xa
 6086 1114 25       		.uleb128 0x25
 6087 1115 1E000000 		.4byte	.LVL205
 6088 1119 D2250000 		.4byte	0x25d2
 6089 111d 2B110000 		.4byte	0x112b
 6090 1121 26       		.uleb128 0x26
 6091 1122 01       		.uleb128 0x1
 6092 1123 50       		.byte	0x50
 6093 1124 05       		.uleb128 0x5
 6094 1125 03       		.byte	0x3
 6095 1126 00000000 		.4byte	.LANCHOR7
 6096 112a 00       		.byte	0
 6097 112b 25       		.uleb128 0x25
 6098 112c 28000000 		.4byte	.LVL206
 6099 1130 3F260000 		.4byte	0x263f
 6100 1134 3E110000 		.4byte	0x113e
 6101 1138 26       		.uleb128 0x26
 6102 1139 01       		.uleb128 0x1
 6103 113a 50       		.byte	0x50
 6104 113b 01       		.uleb128 0x1
 6105 113c 33       		.byte	0x33
 6106 113d 00       		.byte	0
 6107 113e 28       		.uleb128 0x28
 6108 113f 3E000000 		.4byte	.LVL208
 6109 1143 EC250000 		.4byte	0x25ec
 6110 1147 00       		.byte	0
 6111 1148 18       		.uleb128 0x18
 6112 1149 1E090000 		.4byte	0x91e
 6113 114d 58110000 		.4byte	0x1158
 6114 1151 19       		.uleb128 0x19
 6115 1152 38000000 		.4byte	0x38
 6116 1156 0D       		.byte	0xd
 6117 1157 00       		.byte	0
 6118 1158 0B       		.uleb128 0xb
 6119 1159 48110000 		.4byte	0x1148
 6120 115d 2A       		.uleb128 0x2a
 6121 115e 9B060000 		.4byte	.LASF163
 6122 1162 01       		.byte	0x1
ARM GAS  /tmp/ccJ6FnJD.s 			page 109


 6123 1163 DB01     		.2byte	0x1db
 6124 1165 07       		.byte	0x7
 6125 1166 13010000 		.4byte	0x113
 6126 116a 00000000 		.4byte	.LFB232
 6127 116e B0000000 		.4byte	.LFE232-.LFB232
 6128 1172 01       		.uleb128 0x1
 6129 1173 9C       		.byte	0x9c
 6130 1174 38130000 		.4byte	0x1338
 6131 1178 1E       		.uleb128 0x1e
 6132 1179 747000   		.ascii	"tp\000"
 6133 117c 01       		.byte	0x1
 6134 117d DB01     		.2byte	0x1db
 6135 117f 1B       		.byte	0x1b
 6136 1180 A1020000 		.4byte	0x2a1
 6137 1184 1D070000 		.4byte	.LLST63
 6138 1188 15070000 		.4byte	.LVUS63
 6139 118c 30       		.uleb128 0x30
 6140 118d 6D736700 		.ascii	"msg\000"
 6141 1191 01       		.byte	0x1
 6142 1192 DC01     		.2byte	0x1dc
 6143 1194 09       		.byte	0x9
 6144 1195 13010000 		.4byte	0x113
 6145 1199 55070000 		.4byte	.LLST64
 6146 119d 51070000 		.4byte	.LVUS64
 6147 11a1 2E       		.uleb128 0x2e
 6148 11a2 E9000000 		.4byte	.LASF159
 6149 11a6 48130000 		.4byte	0x1348
 6150 11aa 05       		.uleb128 0x5
 6151 11ab 03       		.byte	0x3
 6152 11ac 00000000 		.4byte	__func__.8023
 6153 11b0 1F       		.uleb128 0x1f
 6154 11b1 10240000 		.4byte	0x2410
 6155 11b5 14000000 		.4byte	.LBI463
 6156 11b9 02       		.byte	.LVU568
 6157 11ba D8040000 		.4byte	.Ldebug_ranges0+0x4d8
 6158 11be 01       		.byte	0x1
 6159 11bf E001     		.2byte	0x1e0
 6160 11c1 03       		.byte	0x3
 6161 11c2 14120000 		.4byte	0x1214
 6162 11c6 1F       		.uleb128 0x1f
 6163 11c7 68250000 		.4byte	0x2568
 6164 11cb 14000000 		.4byte	.LBI465
 6165 11cf 04       		.byte	.LVU570
 6166 11d0 F8040000 		.4byte	.Ldebug_ranges0+0x4f8
 6167 11d4 03       		.byte	0x3
 6168 11d5 5C01     		.2byte	0x15c
 6169 11d7 03       		.byte	0x3
 6170 11d8 01120000 		.4byte	0x1201
 6171 11dc 2D       		.uleb128 0x2d
 6172 11dd 72250000 		.4byte	0x2572
 6173 11e1 14000000 		.4byte	.LBI466
 6174 11e5 06       		.byte	.LVU572
 6175 11e6 14000000 		.4byte	.LBB466
 6176 11ea 06000000 		.4byte	.LBE466-.LBB466
 6177 11ee 04       		.byte	0x4
 6178 11ef BF01     		.2byte	0x1bf
 6179 11f1 03       		.byte	0x3
ARM GAS  /tmp/ccJ6FnJD.s 			page 110


 6180 11f2 20       		.uleb128 0x20
 6181 11f3 80250000 		.4byte	0x2580
 6182 11f7 75070000 		.4byte	.LLST65
 6183 11fb 73070000 		.4byte	.LVUS65
 6184 11ff 00       		.byte	0
 6185 1200 00       		.byte	0
 6186 1201 28       		.uleb128 0x28
 6187 1202 20000000 		.4byte	.LVL181
 6188 1206 02260000 		.4byte	0x2602
 6189 120a 28       		.uleb128 0x28
 6190 120b 24000000 		.4byte	.LVL182
 6191 120f 0E260000 		.4byte	0x260e
 6192 1213 00       		.byte	0
 6193 1214 1F       		.uleb128 0x1f
 6194 1215 B8240000 		.4byte	0x24b8
 6195 1219 3A000000 		.4byte	.LBI473
 6196 121d 00       		.byte	.LVU590
 6197 121e 10050000 		.4byte	.Ldebug_ranges0+0x510
 6198 1222 01       		.byte	0x1
 6199 1223 E601     		.2byte	0x1e6
 6200 1225 05       		.byte	0x5
 6201 1226 45120000 		.4byte	0x1245
 6202 122a 20       		.uleb128 0x20
 6203 122b D2240000 		.4byte	0x24d2
 6204 122f 8C070000 		.4byte	.LLST66
 6205 1233 8A070000 		.4byte	.LVUS66
 6206 1237 20       		.uleb128 0x20
 6207 1238 C6240000 		.4byte	0x24c6
 6208 123c A3070000 		.4byte	.LLST67
 6209 1240 A1070000 		.4byte	.LVUS67
 6210 1244 00       		.byte	0
 6211 1245 1F       		.uleb128 0x1f
 6212 1246 F2230000 		.4byte	0x23f2
 6213 124a 48000000 		.4byte	.LBI477
 6214 124e 01       		.byte	.LVU602
 6215 124f 28050000 		.4byte	.Ldebug_ranges0+0x528
 6216 1253 01       		.byte	0x1
 6217 1254 EA01     		.2byte	0x1ea
 6218 1256 03       		.byte	0x3
 6219 1257 C2120000 		.4byte	0x12c2
 6220 125b 22       		.uleb128 0x22
 6221 125c 28050000 		.4byte	.Ldebug_ranges0+0x528
 6222 1260 1F       		.uleb128 0x1f
 6223 1261 5E250000 		.4byte	0x255e
 6224 1265 60000000 		.4byte	.LBI479
 6225 1269 02       		.byte	.LVU610
 6226 126a 48050000 		.4byte	.Ldebug_ranges0+0x548
 6227 126e 03       		.byte	0x3
 6228 126f 7301     		.2byte	0x173
 6229 1271 03       		.byte	0x3
 6230 1272 9B120000 		.4byte	0x129b
 6231 1276 2D       		.uleb128 0x2d
 6232 1277 72250000 		.4byte	0x2572
 6233 127b 60000000 		.4byte	.LBI480
 6234 127f 04       		.byte	.LVU612
 6235 1280 60000000 		.4byte	.LBB480
 6236 1284 06000000 		.4byte	.LBE480-.LBB480
ARM GAS  /tmp/ccJ6FnJD.s 			page 111


 6237 1288 04       		.byte	0x4
 6238 1289 CD01     		.2byte	0x1cd
 6239 128b 03       		.byte	0x3
 6240 128c 20       		.uleb128 0x20
 6241 128d 80250000 		.4byte	0x2580
 6242 1291 B8070000 		.4byte	.LLST68
 6243 1295 B6070000 		.4byte	.LVUS68
 6244 1299 00       		.byte	0
 6245 129a 00       		.byte	0
 6246 129b 28       		.uleb128 0x28
 6247 129c 4C000000 		.4byte	.LVL187
 6248 12a0 1A260000 		.4byte	0x261a
 6249 12a4 28       		.uleb128 0x28
 6250 12a5 50000000 		.4byte	.LVL188
 6251 12a9 26260000 		.4byte	0x2626
 6252 12ad 27       		.uleb128 0x27
 6253 12ae 82000000 		.4byte	.LVL193
 6254 12b2 D2250000 		.4byte	0x25d2
 6255 12b6 26       		.uleb128 0x26
 6256 12b7 01       		.uleb128 0x1
 6257 12b8 50       		.byte	0x50
 6258 12b9 05       		.uleb128 0x5
 6259 12ba 03       		.byte	0x3
 6260 12bb 00000000 		.4byte	.LANCHOR1
 6261 12bf 00       		.byte	0
 6262 12c0 00       		.byte	0
 6263 12c1 00       		.byte	0
 6264 12c2 25       		.uleb128 0x25
 6265 12c3 46000000 		.4byte	.LVL185
 6266 12c7 3F260000 		.4byte	0x263f
 6267 12cb D5120000 		.4byte	0x12d5
 6268 12cf 26       		.uleb128 0x26
 6269 12d0 01       		.uleb128 0x1
 6270 12d1 50       		.byte	0x50
 6271 12d2 01       		.uleb128 0x1
 6272 12d3 39       		.byte	0x39
 6273 12d4 00       		.byte	0
 6274 12d5 25       		.uleb128 0x25
 6275 12d6 6C000000 		.4byte	.LVL191
 6276 12da 4C260000 		.4byte	0x264c
 6277 12de E9120000 		.4byte	0x12e9
 6278 12e2 26       		.uleb128 0x26
 6279 12e3 01       		.uleb128 0x1
 6280 12e4 50       		.byte	0x50
 6281 12e5 02       		.uleb128 0x2
 6282 12e6 74       		.byte	0x74
 6283 12e7 00       		.sleb128 0
 6284 12e8 00       		.byte	0
 6285 12e9 25       		.uleb128 0x25
 6286 12ea 8A000000 		.4byte	.LVL195
 6287 12ee D2250000 		.4byte	0x25d2
 6288 12f2 00130000 		.4byte	0x1300
 6289 12f6 26       		.uleb128 0x26
 6290 12f7 01       		.uleb128 0x1
 6291 12f8 50       		.byte	0x50
 6292 12f9 05       		.uleb128 0x5
 6293 12fa 03       		.byte	0x3
ARM GAS  /tmp/ccJ6FnJD.s 			page 112


 6294 12fb 00000000 		.4byte	.LANCHOR6
 6295 12ff 00       		.byte	0
 6296 1300 25       		.uleb128 0x25
 6297 1301 92000000 		.4byte	.LVL196
 6298 1305 D2250000 		.4byte	0x25d2
 6299 1309 17130000 		.4byte	0x1317
 6300 130d 26       		.uleb128 0x26
 6301 130e 01       		.uleb128 0x1
 6302 130f 50       		.byte	0x50
 6303 1310 05       		.uleb128 0x5
 6304 1311 03       		.byte	0x3
 6305 1312 00000000 		.4byte	.LANCHOR6
 6306 1316 00       		.byte	0
 6307 1317 25       		.uleb128 0x25
 6308 1318 9A000000 		.4byte	.LVL199
 6309 131c D2250000 		.4byte	0x25d2
 6310 1320 2E130000 		.4byte	0x132e
 6311 1324 26       		.uleb128 0x26
 6312 1325 01       		.uleb128 0x1
 6313 1326 50       		.byte	0x50
 6314 1327 05       		.uleb128 0x5
 6315 1328 03       		.byte	0x3
 6316 1329 00000000 		.4byte	.LANCHOR6
 6317 132d 00       		.byte	0
 6318 132e 28       		.uleb128 0x28
 6319 132f A0000000 		.4byte	.LVL201
 6320 1333 EC250000 		.4byte	0x25ec
 6321 1337 00       		.byte	0
 6322 1338 18       		.uleb128 0x18
 6323 1339 1E090000 		.4byte	0x91e
 6324 133d 48130000 		.4byte	0x1348
 6325 1341 19       		.uleb128 0x19
 6326 1342 38000000 		.4byte	0x38
 6327 1346 09       		.byte	0x9
 6328 1347 00       		.byte	0
 6329 1348 0B       		.uleb128 0xb
 6330 1349 38130000 		.4byte	0x1338
 6331 134d 1D       		.uleb128 0x1d
 6332 134e F6080000 		.4byte	.LASF164
 6333 1352 01       		.byte	0x1
 6334 1353 A201     		.2byte	0x1a2
 6335 1355 06       		.byte	0x6
 6336 1356 00000000 		.4byte	.LFB231
 6337 135a 6C000000 		.4byte	.LFE231-.LFB231
 6338 135e 01       		.uleb128 0x1
 6339 135f 9C       		.byte	0x9c
 6340 1360 32140000 		.4byte	0x1432
 6341 1364 1E       		.uleb128 0x1e
 6342 1365 6D736700 		.ascii	"msg\000"
 6343 1369 01       		.byte	0x1
 6344 136a A201     		.2byte	0x1a2
 6345 136c 17       		.byte	0x17
 6346 136d 13010000 		.4byte	0x113
 6347 1371 D0070000 		.4byte	.LLST56
 6348 1375 CC070000 		.4byte	.LVUS56
 6349 1379 30       		.uleb128 0x30
 6350 137a 747000   		.ascii	"tp\000"
ARM GAS  /tmp/ccJ6FnJD.s 			page 113


 6351 137d 01       		.byte	0x1
 6352 137e A301     		.2byte	0x1a3
 6353 1380 0D       		.byte	0xd
 6354 1381 A1020000 		.4byte	0x2a1
 6355 1385 F5070000 		.4byte	.LLST57
 6356 1389 F1070000 		.4byte	.LVUS57
 6357 138d 2E       		.uleb128 0x2e
 6358 138e E9000000 		.4byte	.LASF159
 6359 1392 42140000 		.4byte	0x1442
 6360 1396 05       		.uleb128 0x5
 6361 1397 03       		.byte	0x3
 6362 1398 00000000 		.4byte	__func__.8018
 6363 139c 1F       		.uleb128 0x1f
 6364 139d 22250000 		.4byte	0x2522
 6365 13a1 1C000000 		.4byte	.LBI430
 6366 13a5 04       		.byte	.LVU508
 6367 13a6 78040000 		.4byte	.Ldebug_ranges0+0x478
 6368 13aa 01       		.byte	0x1
 6369 13ab AA01     		.2byte	0x1aa
 6370 13ad 0A       		.byte	0xa
 6371 13ae C0130000 		.4byte	0x13c0
 6372 13b2 20       		.uleb128 0x20
 6373 13b3 34250000 		.4byte	0x2534
 6374 13b7 17080000 		.4byte	.LLST58
 6375 13bb 13080000 		.4byte	.LVUS58
 6376 13bf 00       		.byte	0
 6377 13c0 24       		.uleb128 0x24
 6378 13c1 86240000 		.4byte	0x2486
 6379 13c5 1E000000 		.4byte	.LBI435
 6380 13c9 01       		.byte	.LVU513
 6381 13ca 1E000000 		.4byte	.LBB435
 6382 13ce 04000000 		.4byte	.LBE435-.LBB435
 6383 13d2 01       		.byte	0x1
 6384 13d3 AB01     		.2byte	0x1ab
 6385 13d5 0C       		.byte	0xc
 6386 13d6 F5130000 		.4byte	0x13f5
 6387 13da 20       		.uleb128 0x20
 6388 13db 98240000 		.4byte	0x2498
 6389 13df 37080000 		.4byte	.LLST59
 6390 13e3 35080000 		.4byte	.LVUS59
 6391 13e7 23       		.uleb128 0x23
 6392 13e8 A5240000 		.4byte	0x24a5
 6393 13ec 4C080000 		.4byte	.LLST60
 6394 13f0 4A080000 		.4byte	.LVUS60
 6395 13f4 00       		.byte	0
 6396 13f5 28       		.uleb128 0x28
 6397 13f6 28000000 		.4byte	.LVL163
 6398 13fa DF250000 		.4byte	0x25df
 6399 13fe 25       		.uleb128 0x25
 6400 13ff 46000000 		.4byte	.LVL166
 6401 1403 3F260000 		.4byte	0x263f
 6402 1407 11140000 		.4byte	0x1411
 6403 140b 26       		.uleb128 0x26
 6404 140c 01       		.uleb128 0x1
 6405 140d 50       		.byte	0x50
 6406 140e 01       		.uleb128 0x1
 6407 140f 3F       		.byte	0x3f
ARM GAS  /tmp/ccJ6FnJD.s 			page 114


 6408 1410 00       		.byte	0
 6409 1411 2C       		.uleb128 0x2c
 6410 1412 5C000000 		.4byte	.LVL168
 6411 1416 D2250000 		.4byte	0x25d2
 6412 141a 28140000 		.4byte	0x1428
 6413 141e 26       		.uleb128 0x26
 6414 141f 01       		.uleb128 0x1
 6415 1420 50       		.byte	0x50
 6416 1421 05       		.uleb128 0x5
 6417 1422 03       		.byte	0x3
 6418 1423 00000000 		.4byte	.LANCHOR5
 6419 1427 00       		.byte	0
 6420 1428 28       		.uleb128 0x28
 6421 1429 60000000 		.4byte	.LVL169
 6422 142d EC250000 		.4byte	0x25ec
 6423 1431 00       		.byte	0
 6424 1432 18       		.uleb128 0x18
 6425 1433 1E090000 		.4byte	0x91e
 6426 1437 42140000 		.4byte	0x1442
 6427 143b 19       		.uleb128 0x19
 6428 143c 38000000 		.4byte	0x38
 6429 1440 0A       		.byte	0xa
 6430 1441 00       		.byte	0
 6431 1442 0B       		.uleb128 0xb
 6432 1443 32140000 		.4byte	0x1432
 6433 1447 1D       		.uleb128 0x1d
 6434 1448 32020000 		.4byte	.LASF165
 6435 144c 01       		.byte	0x1
 6436 144d 8D01     		.2byte	0x18d
 6437 144f 06       		.byte	0x6
 6438 1450 00000000 		.4byte	.LFB230
 6439 1454 3C000000 		.4byte	.LFE230-.LFB230
 6440 1458 01       		.uleb128 0x1
 6441 1459 9C       		.byte	0x9c
 6442 145a F2140000 		.4byte	0x14f2
 6443 145e 1E       		.uleb128 0x1e
 6444 145f 6D736700 		.ascii	"msg\000"
 6445 1463 01       		.byte	0x1
 6446 1464 8D01     		.2byte	0x18d
 6447 1466 16       		.byte	0x16
 6448 1467 13010000 		.4byte	0x113
 6449 146b 69080000 		.4byte	.LLST61
 6450 146f 5F080000 		.4byte	.LVUS61
 6451 1473 1F       		.uleb128 0x1f
 6452 1474 10240000 		.4byte	0x2410
 6453 1478 0E000000 		.4byte	.LBI438
 6454 147c 01       		.byte	.LVU544
 6455 147d 98040000 		.4byte	.Ldebug_ranges0+0x498
 6456 1481 01       		.byte	0x1
 6457 1482 8F01     		.2byte	0x18f
 6458 1484 03       		.byte	0x3
 6459 1485 D3140000 		.4byte	0x14d3
 6460 1489 1F       		.uleb128 0x1f
 6461 148a 68250000 		.4byte	0x2568
 6462 148e 0E000000 		.4byte	.LBI440
 6463 1492 03       		.byte	.LVU546
 6464 1493 B8040000 		.4byte	.Ldebug_ranges0+0x4b8
ARM GAS  /tmp/ccJ6FnJD.s 			page 115


 6465 1497 03       		.byte	0x3
 6466 1498 5C01     		.2byte	0x15c
 6467 149a 03       		.byte	0x3
 6468 149b C0140000 		.4byte	0x14c0
 6469 149f 33       		.uleb128 0x33
 6470 14a0 72250000 		.4byte	0x2572
 6471 14a4 0E000000 		.4byte	.LBI441
 6472 14a8 05       		.byte	.LVU548
 6473 14a9 C0040000 		.4byte	.Ldebug_ranges0+0x4c0
 6474 14ad 04       		.byte	0x4
 6475 14ae BF01     		.2byte	0x1bf
 6476 14b0 03       		.byte	0x3
 6477 14b1 20       		.uleb128 0x20
 6478 14b2 80250000 		.4byte	0x2580
 6479 14b6 AD080000 		.4byte	.LLST62
 6480 14ba AB080000 		.4byte	.LVUS62
 6481 14be 00       		.byte	0
 6482 14bf 00       		.byte	0
 6483 14c0 28       		.uleb128 0x28
 6484 14c1 1A000000 		.4byte	.LVL173
 6485 14c5 02260000 		.4byte	0x2602
 6486 14c9 28       		.uleb128 0x28
 6487 14ca 1E000000 		.4byte	.LVL174
 6488 14ce 0E260000 		.4byte	0x260e
 6489 14d2 00       		.byte	0
 6490 14d3 2C       		.uleb128 0x2c
 6491 14d4 34000000 		.4byte	.LVL176
 6492 14d8 4D130000 		.4byte	0x134d
 6493 14dc E8140000 		.4byte	0x14e8
 6494 14e0 26       		.uleb128 0x26
 6495 14e1 01       		.uleb128 0x1
 6496 14e2 50       		.byte	0x50
 6497 14e3 03       		.uleb128 0x3
 6498 14e4 F3       		.byte	0xf3
 6499 14e5 01       		.uleb128 0x1
 6500 14e6 50       		.byte	0x50
 6501 14e7 00       		.byte	0
 6502 14e8 28       		.uleb128 0x28
 6503 14e9 38000000 		.4byte	.LVL177
 6504 14ed EC250000 		.4byte	0x25ec
 6505 14f1 00       		.byte	0
 6506 14f2 1D       		.uleb128 0x1d
 6507 14f3 51050000 		.4byte	.LASF166
 6508 14f7 01       		.byte	0x1
 6509 14f8 7801     		.2byte	0x178
 6510 14fa 06       		.byte	0x6
 6511 14fb 00000000 		.4byte	.LFB229
 6512 14ff 7C000000 		.4byte	.LFE229-.LFB229
 6513 1503 01       		.uleb128 0x1
 6514 1504 9C       		.byte	0x9c
 6515 1505 3D160000 		.4byte	0x163d
 6516 1509 1F       		.uleb128 0x1f
 6517 150a 10240000 		.4byte	0x2410
 6518 150e 0E000000 		.4byte	.LBI400
 6519 1512 01       		.byte	.LVU452
 6520 1513 D0030000 		.4byte	.Ldebug_ranges0+0x3d0
 6521 1517 01       		.byte	0x1
ARM GAS  /tmp/ccJ6FnJD.s 			page 116


 6522 1518 7A01     		.2byte	0x17a
 6523 151a 03       		.byte	0x3
 6524 151b 6D150000 		.4byte	0x156d
 6525 151f 1F       		.uleb128 0x1f
 6526 1520 68250000 		.4byte	0x2568
 6527 1524 0E000000 		.4byte	.LBI402
 6528 1528 03       		.byte	.LVU454
 6529 1529 F0030000 		.4byte	.Ldebug_ranges0+0x3f0
 6530 152d 03       		.byte	0x3
 6531 152e 5C01     		.2byte	0x15c
 6532 1530 03       		.byte	0x3
 6533 1531 5A150000 		.4byte	0x155a
 6534 1535 2D       		.uleb128 0x2d
 6535 1536 72250000 		.4byte	0x2572
 6536 153a 0E000000 		.4byte	.LBI403
 6537 153e 05       		.byte	.LVU456
 6538 153f 0E000000 		.4byte	.LBB403
 6539 1543 06000000 		.4byte	.LBE403-.LBB403
 6540 1547 04       		.byte	0x4
 6541 1548 BF01     		.2byte	0x1bf
 6542 154a 03       		.byte	0x3
 6543 154b 20       		.uleb128 0x20
 6544 154c 80250000 		.4byte	0x2580
 6545 1550 C4080000 		.4byte	.LLST54
 6546 1554 C2080000 		.4byte	.LVUS54
 6547 1558 00       		.byte	0
 6548 1559 00       		.byte	0
 6549 155a 28       		.uleb128 0x28
 6550 155b 1A000000 		.4byte	.LVL147
 6551 155f 02260000 		.4byte	0x2602
 6552 1563 28       		.uleb128 0x28
 6553 1564 1E000000 		.4byte	.LVL148
 6554 1568 0E260000 		.4byte	0x260e
 6555 156c 00       		.byte	0
 6556 156d 1F       		.uleb128 0x1f
 6557 156e 1A240000 		.4byte	0x241a
 6558 1572 1E000000 		.4byte	.LBI409
 6559 1576 01       		.byte	.LVU464
 6560 1577 08040000 		.4byte	.Ldebug_ranges0+0x408
 6561 157b 01       		.byte	0x1
 6562 157c 7B01     		.2byte	0x17b
 6563 157e 03       		.byte	0x3
 6564 157f B6150000 		.4byte	0x15b6
 6565 1583 1F       		.uleb128 0x1f
 6566 1584 24240000 		.4byte	0x2424
 6567 1588 22000000 		.4byte	.LBI411
 6568 158c 01       		.byte	.LVU467
 6569 158d 28040000 		.4byte	.Ldebug_ranges0+0x428
 6570 1591 02       		.byte	0x2
 6571 1592 E902     		.2byte	0x2e9
 6572 1594 07       		.byte	0x7
 6573 1595 A3150000 		.4byte	0x15a3
 6574 1599 28       		.uleb128 0x28
 6575 159a 26000000 		.4byte	.LVL150
 6576 159e 58260000 		.4byte	0x2658
 6577 15a2 00       		.byte	0
 6578 15a3 28       		.uleb128 0x28
ARM GAS  /tmp/ccJ6FnJD.s 			page 117


 6579 15a4 22000000 		.4byte	.LVL149
 6580 15a8 58260000 		.4byte	0x2658
 6581 15ac 28       		.uleb128 0x28
 6582 15ad 6A000000 		.4byte	.LVL156
 6583 15b1 64260000 		.4byte	0x2664
 6584 15b5 00       		.byte	0
 6585 15b6 1F       		.uleb128 0x1f
 6586 15b7 F2230000 		.4byte	0x23f2
 6587 15bb 32000000 		.4byte	.LBI419
 6588 15bf 01       		.byte	.LVU474
 6589 15c0 40040000 		.4byte	.Ldebug_ranges0+0x440
 6590 15c4 01       		.byte	0x1
 6591 15c5 7C01     		.2byte	0x17c
 6592 15c7 03       		.byte	0x3
 6593 15c8 33160000 		.4byte	0x1633
 6594 15cc 22       		.uleb128 0x22
 6595 15cd 40040000 		.4byte	.Ldebug_ranges0+0x440
 6596 15d1 1F       		.uleb128 0x1f
 6597 15d2 5E250000 		.4byte	0x255e
 6598 15d6 4A000000 		.4byte	.LBI421
 6599 15da 02       		.byte	.LVU482
 6600 15db 60040000 		.4byte	.Ldebug_ranges0+0x460
 6601 15df 03       		.byte	0x3
 6602 15e0 7301     		.2byte	0x173
 6603 15e2 03       		.byte	0x3
 6604 15e3 0C160000 		.4byte	0x160c
 6605 15e7 2D       		.uleb128 0x2d
 6606 15e8 72250000 		.4byte	0x2572
 6607 15ec 4A000000 		.4byte	.LBI422
 6608 15f0 04       		.byte	.LVU484
 6609 15f1 4A000000 		.4byte	.LBB422
 6610 15f5 06000000 		.4byte	.LBE422-.LBB422
 6611 15f9 04       		.byte	0x4
 6612 15fa CD01     		.2byte	0x1cd
 6613 15fc 03       		.byte	0x3
 6614 15fd 20       		.uleb128 0x20
 6615 15fe 80250000 		.4byte	0x2580
 6616 1602 DB080000 		.4byte	.LLST55
 6617 1606 D9080000 		.4byte	.LVUS55
 6618 160a 00       		.byte	0
 6619 160b 00       		.byte	0
 6620 160c 28       		.uleb128 0x28
 6621 160d 36000000 		.4byte	.LVL151
 6622 1611 1A260000 		.4byte	0x261a
 6623 1615 28       		.uleb128 0x28
 6624 1616 3A000000 		.4byte	.LVL152
 6625 161a 26260000 		.4byte	0x2626
 6626 161e 27       		.uleb128 0x27
 6627 161f 64000000 		.4byte	.LVL155
 6628 1623 D2250000 		.4byte	0x25d2
 6629 1627 26       		.uleb128 0x26
 6630 1628 01       		.uleb128 0x1
 6631 1629 50       		.byte	0x50
 6632 162a 05       		.uleb128 0x5
 6633 162b 03       		.byte	0x3
 6634 162c 00000000 		.4byte	.LANCHOR1
 6635 1630 00       		.byte	0
ARM GAS  /tmp/ccJ6FnJD.s 			page 118


 6636 1631 00       		.byte	0
 6637 1632 00       		.byte	0
 6638 1633 28       		.uleb128 0x28
 6639 1634 70000000 		.4byte	.LVL157
 6640 1638 EC250000 		.4byte	0x25ec
 6641 163c 00       		.byte	0
 6642 163d 2A       		.uleb128 0x2a
 6643 163e F9050000 		.4byte	.LASF167
 6644 1642 01       		.byte	0x1
 6645 1643 6401     		.2byte	0x164
 6646 1645 0B       		.byte	0xb
 6647 1646 43010000 		.4byte	0x143
 6648 164a 00000000 		.4byte	.LFB228
 6649 164e 90000000 		.4byte	.LFE228-.LFB228
 6650 1652 01       		.uleb128 0x1
 6651 1653 9C       		.byte	0x9c
 6652 1654 20180000 		.4byte	0x1820
 6653 1658 2B       		.uleb128 0x2b
 6654 1659 BD0B0000 		.4byte	.LASF168
 6655 165d 01       		.byte	0x1
 6656 165e 6401     		.2byte	0x164
 6657 1660 2D       		.byte	0x2d
 6658 1661 43010000 		.4byte	0x143
 6659 1665 F5080000 		.4byte	.LLST45
 6660 1669 EF080000 		.4byte	.LVUS45
 6661 166d 2B       		.uleb128 0x2b
 6662 166e AA0B0000 		.4byte	.LASF169
 6663 1672 01       		.byte	0x1
 6664 1673 6401     		.2byte	0x164
 6665 1675 3D       		.byte	0x3d
 6666 1676 43010000 		.4byte	0x143
 6667 167a 25090000 		.4byte	.LLST46
 6668 167e 21090000 		.4byte	.LVUS46
 6669 1682 34       		.uleb128 0x34
 6670 1683 3C080000 		.4byte	.LASF170
 6671 1687 01       		.byte	0x1
 6672 1688 6501     		.2byte	0x165
 6673 168a 0D       		.byte	0xd
 6674 168b 43010000 		.4byte	0x143
 6675 168f 47090000 		.4byte	.LLST47
 6676 1693 43090000 		.4byte	.LVUS47
 6677 1697 1F       		.uleb128 0x1f
 6678 1698 10240000 		.4byte	0x2410
 6679 169c 0E000000 		.4byte	.LBI353
 6680 16a0 02       		.byte	.LVU391
 6681 16a1 38030000 		.4byte	.Ldebug_ranges0+0x338
 6682 16a5 01       		.byte	0x1
 6683 16a6 6701     		.2byte	0x167
 6684 16a8 03       		.byte	0x3
 6685 16a9 F7160000 		.4byte	0x16f7
 6686 16ad 1F       		.uleb128 0x1f
 6687 16ae 68250000 		.4byte	0x2568
 6688 16b2 0E000000 		.4byte	.LBI355
 6689 16b6 04       		.byte	.LVU393
 6690 16b7 60030000 		.4byte	.Ldebug_ranges0+0x360
 6691 16bb 03       		.byte	0x3
 6692 16bc 5C01     		.2byte	0x15c
ARM GAS  /tmp/ccJ6FnJD.s 			page 119


 6693 16be 03       		.byte	0x3
 6694 16bf E4160000 		.4byte	0x16e4
 6695 16c3 33       		.uleb128 0x33
 6696 16c4 72250000 		.4byte	0x2572
 6697 16c8 0E000000 		.4byte	.LBI356
 6698 16cc 06       		.byte	.LVU395
 6699 16cd 68030000 		.4byte	.Ldebug_ranges0+0x368
 6700 16d1 04       		.byte	0x4
 6701 16d2 BF01     		.2byte	0x1bf
 6702 16d4 03       		.byte	0x3
 6703 16d5 20       		.uleb128 0x20
 6704 16d6 80250000 		.4byte	0x2580
 6705 16da 67090000 		.4byte	.LLST48
 6706 16de 65090000 		.4byte	.LVUS48
 6707 16e2 00       		.byte	0
 6708 16e3 00       		.byte	0
 6709 16e4 28       		.uleb128 0x28
 6710 16e5 1E000000 		.4byte	.LVL126
 6711 16e9 02260000 		.4byte	0x2602
 6712 16ed 28       		.uleb128 0x28
 6713 16ee 22000000 		.4byte	.LVL127
 6714 16f2 0E260000 		.4byte	0x260e
 6715 16f6 00       		.byte	0
 6716 16f7 31       		.uleb128 0x31
 6717 16f8 E5230000 		.4byte	0x23e5
 6718 16fc 22000000 		.4byte	.LBI367
 6719 1700 01       		.byte	.LVU405
 6720 1701 80030000 		.4byte	.Ldebug_ranges0+0x380
 6721 1705 01       		.byte	0x1
 6722 1706 6801     		.2byte	0x168
 6723 1708 0A       		.byte	0xa
 6724 1709 24       		.uleb128 0x24
 6725 170a A4230000 		.4byte	0x23a4
 6726 170e 24000000 		.4byte	.LBI372
 6727 1712 02       		.byte	.LVU410
 6728 1713 24000000 		.4byte	.LBB372
 6729 1717 04000000 		.4byte	.LBE372-.LBB372
 6730 171b 01       		.byte	0x1
 6731 171c 6901     		.2byte	0x169
 6732 171e 07       		.byte	0x7
 6733 171f 4B170000 		.4byte	0x174b
 6734 1723 20       		.uleb128 0x20
 6735 1724 D0230000 		.4byte	0x23d0
 6736 1728 7E090000 		.4byte	.LLST49
 6737 172c 7C090000 		.4byte	.LVUS49
 6738 1730 20       		.uleb128 0x20
 6739 1731 C3230000 		.4byte	0x23c3
 6740 1735 93090000 		.4byte	.LLST50
 6741 1739 91090000 		.4byte	.LVUS50
 6742 173d 20       		.uleb128 0x20
 6743 173e B6230000 		.4byte	0x23b6
 6744 1742 A8090000 		.4byte	.LLST51
 6745 1746 A6090000 		.4byte	.LVUS51
 6746 174a 00       		.byte	0
 6747 174b 1F       		.uleb128 0x1f
 6748 174c F2230000 		.4byte	0x23f2
 6749 1750 2C000000 		.4byte	.LBI374
ARM GAS  /tmp/ccJ6FnJD.s 			page 120


 6750 1754 01       		.byte	.LVU417
 6751 1755 98030000 		.4byte	.Ldebug_ranges0+0x398
 6752 1759 01       		.byte	0x1
 6753 175a 6C01     		.2byte	0x16c
 6754 175c 03       		.byte	0x3
 6755 175d C8170000 		.4byte	0x17c8
 6756 1761 22       		.uleb128 0x22
 6757 1762 98030000 		.4byte	.Ldebug_ranges0+0x398
 6758 1766 1F       		.uleb128 0x1f
 6759 1767 5E250000 		.4byte	0x255e
 6760 176b 44000000 		.4byte	.LBI376
 6761 176f 02       		.byte	.LVU425
 6762 1770 B8030000 		.4byte	.Ldebug_ranges0+0x3b8
 6763 1774 03       		.byte	0x3
 6764 1775 7301     		.2byte	0x173
 6765 1777 03       		.byte	0x3
 6766 1778 A1170000 		.4byte	0x17a1
 6767 177c 2D       		.uleb128 0x2d
 6768 177d 72250000 		.4byte	0x2572
 6769 1781 44000000 		.4byte	.LBI377
 6770 1785 04       		.byte	.LVU427
 6771 1786 44000000 		.4byte	.LBB377
 6772 178a 06000000 		.4byte	.LBE377-.LBB377
 6773 178e 04       		.byte	0x4
 6774 178f CD01     		.2byte	0x1cd
 6775 1791 03       		.byte	0x3
 6776 1792 20       		.uleb128 0x20
 6777 1793 80250000 		.4byte	0x2580
 6778 1797 BD090000 		.4byte	.LLST52
 6779 179b BB090000 		.4byte	.LVUS52
 6780 179f 00       		.byte	0
 6781 17a0 00       		.byte	0
 6782 17a1 28       		.uleb128 0x28
 6783 17a2 30000000 		.4byte	.LVL131
 6784 17a6 1A260000 		.4byte	0x261a
 6785 17aa 28       		.uleb128 0x28
 6786 17ab 34000000 		.4byte	.LVL132
 6787 17af 26260000 		.4byte	0x2626
 6788 17b3 27       		.uleb128 0x27
 6789 17b4 60000000 		.4byte	.LVL136
 6790 17b8 D2250000 		.4byte	0x25d2
 6791 17bc 26       		.uleb128 0x26
 6792 17bd 01       		.uleb128 0x1
 6793 17be 50       		.byte	0x50
 6794 17bf 05       		.uleb128 0x5
 6795 17c0 03       		.byte	0x3
 6796 17c1 00000000 		.4byte	.LANCHOR1
 6797 17c5 00       		.byte	0
 6798 17c6 00       		.byte	0
 6799 17c7 00       		.byte	0
 6800 17c8 24       		.uleb128 0x24
 6801 17c9 2B230000 		.4byte	0x232b
 6802 17cd 62000000 		.4byte	.LBI384
 6803 17d1 02       		.byte	.LVU435
 6804 17d2 62000000 		.4byte	.LBB384
 6805 17d6 18000000 		.4byte	.LBE384-.LBB384
 6806 17da 01       		.byte	0x1
ARM GAS  /tmp/ccJ6FnJD.s 			page 121


 6807 17db 6A01     		.2byte	0x16a
 6808 17dd 02       		.byte	0x2
 6809 17de 16180000 		.4byte	0x1816
 6810 17e2 20       		.uleb128 0x20
 6811 17e3 39230000 		.4byte	0x2339
 6812 17e7 D9090000 		.4byte	.LLST53
 6813 17eb D1090000 		.4byte	.LVUS53
 6814 17ef 25       		.uleb128 0x25
 6815 17f0 6C000000 		.4byte	.LVL140
 6816 17f4 F5250000 		.4byte	0x25f5
 6817 17f8 02180000 		.4byte	0x1802
 6818 17fc 26       		.uleb128 0x26
 6819 17fd 01       		.uleb128 0x1
 6820 17fe 50       		.byte	0x50
 6821 17ff 01       		.uleb128 0x1
 6822 1800 38       		.byte	0x38
 6823 1801 00       		.byte	0
 6824 1802 27       		.uleb128 0x27
 6825 1803 76000000 		.4byte	.LVL142
 6826 1807 D2250000 		.4byte	0x25d2
 6827 180b 26       		.uleb128 0x26
 6828 180c 01       		.uleb128 0x1
 6829 180d 50       		.byte	0x50
 6830 180e 05       		.uleb128 0x5
 6831 180f 03       		.byte	0x3
 6832 1810 00000000 		.4byte	.LANCHOR4
 6833 1814 00       		.byte	0
 6834 1815 00       		.byte	0
 6835 1816 28       		.uleb128 0x28
 6836 1817 7E000000 		.4byte	.LVL144
 6837 181b EC250000 		.4byte	0x25ec
 6838 181f 00       		.byte	0
 6839 1820 1D       		.uleb128 0x1d
 6840 1821 41080000 		.4byte	.LASF171
 6841 1825 01       		.byte	0x1
 6842 1826 4C01     		.2byte	0x14c
 6843 1828 06       		.byte	0x6
 6844 1829 00000000 		.4byte	.LFB227
 6845 182d 74000000 		.4byte	.LFE227-.LFB227
 6846 1831 01       		.uleb128 0x1
 6847 1832 9C       		.byte	0x9c
 6848 1833 7C190000 		.4byte	0x197c
 6849 1837 2B       		.uleb128 0x2b
 6850 1838 3C080000 		.4byte	.LASF170
 6851 183c 01       		.byte	0x1
 6852 183d 4C01     		.2byte	0x14c
 6853 183f 20       		.byte	0x20
 6854 1840 43010000 		.4byte	0x143
 6855 1844 1D0A0000 		.4byte	.LLST41
 6856 1848 130A0000 		.4byte	.LVUS41
 6857 184c 1F       		.uleb128 0x1f
 6858 184d 10240000 		.4byte	0x2410
 6859 1851 0E000000 		.4byte	.LBI306
 6860 1855 01       		.byte	.LVU337
 6861 1856 A0020000 		.4byte	.Ldebug_ranges0+0x2a0
 6862 185a 01       		.byte	0x1
 6863 185b 4E01     		.2byte	0x14e
ARM GAS  /tmp/ccJ6FnJD.s 			page 122


 6864 185d 03       		.byte	0x3
 6865 185e AC180000 		.4byte	0x18ac
 6866 1862 1F       		.uleb128 0x1f
 6867 1863 68250000 		.4byte	0x2568
 6868 1867 0E000000 		.4byte	.LBI308
 6869 186b 03       		.byte	.LVU339
 6870 186c C8020000 		.4byte	.Ldebug_ranges0+0x2c8
 6871 1870 03       		.byte	0x3
 6872 1871 5C01     		.2byte	0x15c
 6873 1873 03       		.byte	0x3
 6874 1874 99180000 		.4byte	0x1899
 6875 1878 33       		.uleb128 0x33
 6876 1879 72250000 		.4byte	0x2572
 6877 187d 0E000000 		.4byte	.LBI309
 6878 1881 05       		.byte	.LVU341
 6879 1882 D0020000 		.4byte	.Ldebug_ranges0+0x2d0
 6880 1886 04       		.byte	0x4
 6881 1887 BF01     		.2byte	0x1bf
 6882 1889 03       		.byte	0x3
 6883 188a 20       		.uleb128 0x20
 6884 188b 80250000 		.4byte	0x2580
 6885 188f 630A0000 		.4byte	.LLST42
 6886 1893 610A0000 		.4byte	.LVUS42
 6887 1897 00       		.byte	0
 6888 1898 00       		.byte	0
 6889 1899 28       		.uleb128 0x28
 6890 189a 1C000000 		.4byte	.LVL110
 6891 189e 02260000 		.4byte	0x2602
 6892 18a2 28       		.uleb128 0x28
 6893 18a3 20000000 		.4byte	.LVL111
 6894 18a7 0E260000 		.4byte	0x260e
 6895 18ab 00       		.byte	0
 6896 18ac 31       		.uleb128 0x31
 6897 18ad E5230000 		.4byte	0x23e5
 6898 18b1 20000000 		.4byte	.LBI320
 6899 18b5 01       		.byte	.LVU351
 6900 18b6 E8020000 		.4byte	.Ldebug_ranges0+0x2e8
 6901 18ba 01       		.byte	0x1
 6902 18bb 4F01     		.2byte	0x14f
 6903 18bd 0B       		.byte	0xb
 6904 18be 1F       		.uleb128 0x1f
 6905 18bf F2230000 		.4byte	0x23f2
 6906 18c3 26000000 		.4byte	.LBI325
 6907 18c7 01       		.byte	.LVU359
 6908 18c8 00030000 		.4byte	.Ldebug_ranges0+0x300
 6909 18cc 01       		.byte	0x1
 6910 18cd 5301     		.2byte	0x153
 6911 18cf 03       		.byte	0x3
 6912 18d0 3B190000 		.4byte	0x193b
 6913 18d4 22       		.uleb128 0x22
 6914 18d5 00030000 		.4byte	.Ldebug_ranges0+0x300
 6915 18d9 1F       		.uleb128 0x1f
 6916 18da 5E250000 		.4byte	0x255e
 6917 18de 3E000000 		.4byte	.LBI327
 6918 18e2 02       		.byte	.LVU367
 6919 18e3 20030000 		.4byte	.Ldebug_ranges0+0x320
 6920 18e7 03       		.byte	0x3
ARM GAS  /tmp/ccJ6FnJD.s 			page 123


 6921 18e8 7301     		.2byte	0x173
 6922 18ea 03       		.byte	0x3
 6923 18eb 14190000 		.4byte	0x1914
 6924 18ef 2D       		.uleb128 0x2d
 6925 18f0 72250000 		.4byte	0x2572
 6926 18f4 3E000000 		.4byte	.LBI328
 6927 18f8 04       		.byte	.LVU369
 6928 18f9 3E000000 		.4byte	.LBB328
 6929 18fd 06000000 		.4byte	.LBE328-.LBB328
 6930 1901 04       		.byte	0x4
 6931 1902 CD01     		.2byte	0x1cd
 6932 1904 03       		.byte	0x3
 6933 1905 20       		.uleb128 0x20
 6934 1906 80250000 		.4byte	0x2580
 6935 190a 7A0A0000 		.4byte	.LLST43
 6936 190e 780A0000 		.4byte	.LVUS43
 6937 1912 00       		.byte	0
 6938 1913 00       		.byte	0
 6939 1914 28       		.uleb128 0x28
 6940 1915 2A000000 		.4byte	.LVL115
 6941 1919 1A260000 		.4byte	0x261a
 6942 191d 28       		.uleb128 0x28
 6943 191e 2E000000 		.4byte	.LVL116
 6944 1922 26260000 		.4byte	0x2626
 6945 1926 27       		.uleb128 0x27
 6946 1927 58000000 		.4byte	.LVL119
 6947 192b D2250000 		.4byte	0x25d2
 6948 192f 26       		.uleb128 0x26
 6949 1930 01       		.uleb128 0x1
 6950 1931 50       		.byte	0x50
 6951 1932 05       		.uleb128 0x5
 6952 1933 03       		.byte	0x3
 6953 1934 00000000 		.4byte	.LANCHOR1
 6954 1938 00       		.byte	0
 6955 1939 00       		.byte	0
 6956 193a 00       		.byte	0
 6957 193b 24       		.uleb128 0x24
 6958 193c 2B230000 		.4byte	0x232b
 6959 1940 5A000000 		.4byte	.LBI335
 6960 1944 02       		.byte	.LVU376
 6961 1945 5A000000 		.4byte	.LBB335
 6962 1949 08000000 		.4byte	.LBE335-.LBB335
 6963 194d 01       		.byte	0x1
 6964 194e 5101     		.2byte	0x151
 6965 1950 05       		.byte	0x5
 6966 1951 72190000 		.4byte	0x1972
 6967 1955 20       		.uleb128 0x20
 6968 1956 39230000 		.4byte	0x2339
 6969 195a 900A0000 		.4byte	.LLST44
 6970 195e 8E0A0000 		.4byte	.LVUS44
 6971 1962 27       		.uleb128 0x27
 6972 1963 60000000 		.4byte	.LVL121
 6973 1967 F5250000 		.4byte	0x25f5
 6974 196b 26       		.uleb128 0x26
 6975 196c 01       		.uleb128 0x1
 6976 196d 50       		.byte	0x50
 6977 196e 01       		.uleb128 0x1
ARM GAS  /tmp/ccJ6FnJD.s 			page 124


 6978 196f 38       		.byte	0x38
 6979 1970 00       		.byte	0
 6980 1971 00       		.byte	0
 6981 1972 28       		.uleb128 0x28
 6982 1973 66000000 		.4byte	.LVL122
 6983 1977 EC250000 		.4byte	0x25ec
 6984 197b 00       		.byte	0
 6985 197c 1D       		.uleb128 0x1d
 6986 197d 9D030000 		.4byte	.LASF172
 6987 1981 01       		.byte	0x1
 6988 1982 3801     		.2byte	0x138
 6989 1984 06       		.byte	0x6
 6990 1985 00000000 		.4byte	.LFB226
 6991 1989 7C000000 		.4byte	.LFE226-.LFB226
 6992 198d 01       		.uleb128 0x1
 6993 198e 9C       		.byte	0x9c
 6994 198f E51A0000 		.4byte	0x1ae5
 6995 1993 2B       		.uleb128 0x2b
 6996 1994 3C080000 		.4byte	.LASF170
 6997 1998 01       		.byte	0x1
 6998 1999 3801     		.2byte	0x138
 6999 199b 1B       		.byte	0x1b
 7000 199c 43010000 		.4byte	0x143
 7001 19a0 A70A0000 		.4byte	.LLST37
 7002 19a4 A30A0000 		.4byte	.LVUS37
 7003 19a8 1F       		.uleb128 0x1f
 7004 19a9 10240000 		.4byte	0x2410
 7005 19ad 0E000000 		.4byte	.LBI265
 7006 19b1 01       		.byte	.LVU293
 7007 19b2 10020000 		.4byte	.Ldebug_ranges0+0x210
 7008 19b6 01       		.byte	0x1
 7009 19b7 3A01     		.2byte	0x13a
 7010 19b9 03       		.byte	0x3
 7011 19ba 081A0000 		.4byte	0x1a08
 7012 19be 1F       		.uleb128 0x1f
 7013 19bf 68250000 		.4byte	0x2568
 7014 19c3 0E000000 		.4byte	.LBI267
 7015 19c7 03       		.byte	.LVU295
 7016 19c8 30020000 		.4byte	.Ldebug_ranges0+0x230
 7017 19cc 03       		.byte	0x3
 7018 19cd 5C01     		.2byte	0x15c
 7019 19cf 03       		.byte	0x3
 7020 19d0 F5190000 		.4byte	0x19f5
 7021 19d4 33       		.uleb128 0x33
 7022 19d5 72250000 		.4byte	0x2572
 7023 19d9 0E000000 		.4byte	.LBI268
 7024 19dd 05       		.byte	.LVU297
 7025 19de 38020000 		.4byte	.Ldebug_ranges0+0x238
 7026 19e2 04       		.byte	0x4
 7027 19e3 BF01     		.2byte	0x1bf
 7028 19e5 03       		.byte	0x3
 7029 19e6 20       		.uleb128 0x20
 7030 19e7 80250000 		.4byte	0x2580
 7031 19eb C70A0000 		.4byte	.LLST38
 7032 19ef C50A0000 		.4byte	.LVUS38
 7033 19f3 00       		.byte	0
 7034 19f4 00       		.byte	0
ARM GAS  /tmp/ccJ6FnJD.s 			page 125


 7035 19f5 28       		.uleb128 0x28
 7036 19f6 1A000000 		.4byte	.LVL94
 7037 19fa 02260000 		.4byte	0x2602
 7038 19fe 28       		.uleb128 0x28
 7039 19ff 1E000000 		.4byte	.LVL95
 7040 1a03 0E260000 		.4byte	0x260e
 7041 1a07 00       		.byte	0
 7042 1a08 1F       		.uleb128 0x1f
 7043 1a09 2B230000 		.4byte	0x232b
 7044 1a0d 1E000000 		.4byte	.LBI278
 7045 1a11 01       		.byte	.LVU305
 7046 1a12 50020000 		.4byte	.Ldebug_ranges0+0x250
 7047 1a16 01       		.byte	0x1
 7048 1a17 3B01     		.2byte	0x13b
 7049 1a19 03       		.byte	0x3
 7050 1a1a 5E1A0000 		.4byte	0x1a5e
 7051 1a1e 20       		.uleb128 0x20
 7052 1a1f 39230000 		.4byte	0x2339
 7053 1a23 E00A0000 		.4byte	.LLST39
 7054 1a27 DC0A0000 		.4byte	.LVUS39
 7055 1a2b 22       		.uleb128 0x22
 7056 1a2c 50020000 		.4byte	.Ldebug_ranges0+0x250
 7057 1a30 25       		.uleb128 0x25
 7058 1a31 28000000 		.4byte	.LVL96
 7059 1a35 F5250000 		.4byte	0x25f5
 7060 1a39 491A0000 		.4byte	0x1a49
 7061 1a3d 26       		.uleb128 0x26
 7062 1a3e 01       		.uleb128 0x1
 7063 1a3f 50       		.byte	0x50
 7064 1a40 01       		.uleb128 0x1
 7065 1a41 38       		.byte	0x38
 7066 1a42 26       		.uleb128 0x26
 7067 1a43 01       		.uleb128 0x1
 7068 1a44 51       		.byte	0x51
 7069 1a45 02       		.uleb128 0x2
 7070 1a46 74       		.byte	0x74
 7071 1a47 00       		.sleb128 0
 7072 1a48 00       		.byte	0
 7073 1a49 27       		.uleb128 0x27
 7074 1a4a 64000000 		.4byte	.LVL104
 7075 1a4e D2250000 		.4byte	0x25d2
 7076 1a52 26       		.uleb128 0x26
 7077 1a53 01       		.uleb128 0x1
 7078 1a54 50       		.byte	0x50
 7079 1a55 05       		.uleb128 0x5
 7080 1a56 03       		.byte	0x3
 7081 1a57 00000000 		.4byte	.LANCHOR4
 7082 1a5b 00       		.byte	0
 7083 1a5c 00       		.byte	0
 7084 1a5d 00       		.byte	0
 7085 1a5e 1F       		.uleb128 0x1f
 7086 1a5f F2230000 		.4byte	0x23f2
 7087 1a63 28000000 		.4byte	.LBI281
 7088 1a67 02       		.byte	.LVU314
 7089 1a68 68020000 		.4byte	.Ldebug_ranges0+0x268
 7090 1a6c 01       		.byte	0x1
 7091 1a6d 3C01     		.2byte	0x13c
ARM GAS  /tmp/ccJ6FnJD.s 			page 126


 7092 1a6f 03       		.byte	0x3
 7093 1a70 DB1A0000 		.4byte	0x1adb
 7094 1a74 22       		.uleb128 0x22
 7095 1a75 68020000 		.4byte	.Ldebug_ranges0+0x268
 7096 1a79 1F       		.uleb128 0x1f
 7097 1a7a 5E250000 		.4byte	0x255e
 7098 1a7e 42000000 		.4byte	.LBI283
 7099 1a82 02       		.byte	.LVU322
 7100 1a83 88020000 		.4byte	.Ldebug_ranges0+0x288
 7101 1a87 03       		.byte	0x3
 7102 1a88 7301     		.2byte	0x173
 7103 1a8a 03       		.byte	0x3
 7104 1a8b B41A0000 		.4byte	0x1ab4
 7105 1a8f 2D       		.uleb128 0x2d
 7106 1a90 72250000 		.4byte	0x2572
 7107 1a94 42000000 		.4byte	.LBI284
 7108 1a98 04       		.byte	.LVU324
 7109 1a99 42000000 		.4byte	.LBB284
 7110 1a9d 06000000 		.4byte	.LBE284-.LBB284
 7111 1aa1 04       		.byte	0x4
 7112 1aa2 CD01     		.2byte	0x1cd
 7113 1aa4 03       		.byte	0x3
 7114 1aa5 20       		.uleb128 0x20
 7115 1aa6 80250000 		.4byte	0x2580
 7116 1aaa 000B0000 		.4byte	.LLST40
 7117 1aae FE0A0000 		.4byte	.LVUS40
 7118 1ab2 00       		.byte	0
 7119 1ab3 00       		.byte	0
 7120 1ab4 28       		.uleb128 0x28
 7121 1ab5 2C000000 		.4byte	.LVL97
 7122 1ab9 1A260000 		.4byte	0x261a
 7123 1abd 28       		.uleb128 0x28
 7124 1abe 30000000 		.4byte	.LVL98
 7125 1ac2 26260000 		.4byte	0x2626
 7126 1ac6 27       		.uleb128 0x27
 7127 1ac7 5C000000 		.4byte	.LVL102
 7128 1acb D2250000 		.4byte	0x25d2
 7129 1acf 26       		.uleb128 0x26
 7130 1ad0 01       		.uleb128 0x1
 7131 1ad1 50       		.byte	0x50
 7132 1ad2 05       		.uleb128 0x5
 7133 1ad3 03       		.byte	0x3
 7134 1ad4 00000000 		.4byte	.LANCHOR1
 7135 1ad8 00       		.byte	0
 7136 1ad9 00       		.byte	0
 7137 1ada 00       		.byte	0
 7138 1adb 28       		.uleb128 0x28
 7139 1adc 6A000000 		.4byte	.LVL106
 7140 1ae0 EC250000 		.4byte	0x25ec
 7141 1ae4 00       		.byte	0
 7142 1ae5 1D       		.uleb128 0x1d
 7143 1ae6 12090000 		.4byte	.LASF173
 7144 1aea 01       		.byte	0x1
 7145 1aeb 2501     		.2byte	0x125
 7146 1aed 06       		.byte	0x6
 7147 1aee 00000000 		.4byte	.LFB225
 7148 1af2 70000000 		.4byte	.LFE225-.LFB225
ARM GAS  /tmp/ccJ6FnJD.s 			page 127


 7149 1af6 01       		.uleb128 0x1
 7150 1af7 9C       		.byte	0x9c
 7151 1af8 F71B0000 		.4byte	0x1bf7
 7152 1afc 1E       		.uleb128 0x1e
 7153 1afd 747000   		.ascii	"tp\000"
 7154 1b00 01       		.byte	0x1
 7155 1b01 2501     		.2byte	0x125
 7156 1b03 1F       		.byte	0x1f
 7157 1b04 A1020000 		.4byte	0x2a1
 7158 1b08 180B0000 		.4byte	.LLST34
 7159 1b0c 140B0000 		.4byte	.LVUS34
 7160 1b10 1F       		.uleb128 0x1f
 7161 1b11 10240000 		.4byte	0x2410
 7162 1b15 0E000000 		.4byte	.LBI230
 7163 1b19 01       		.byte	.LVU259
 7164 1b1a 98010000 		.4byte	.Ldebug_ranges0+0x198
 7165 1b1e 01       		.byte	0x1
 7166 1b1f 2701     		.2byte	0x127
 7167 1b21 03       		.byte	0x3
 7168 1b22 701B0000 		.4byte	0x1b70
 7169 1b26 1F       		.uleb128 0x1f
 7170 1b27 68250000 		.4byte	0x2568
 7171 1b2b 0E000000 		.4byte	.LBI232
 7172 1b2f 03       		.byte	.LVU261
 7173 1b30 B8010000 		.4byte	.Ldebug_ranges0+0x1b8
 7174 1b34 03       		.byte	0x3
 7175 1b35 5C01     		.2byte	0x15c
 7176 1b37 03       		.byte	0x3
 7177 1b38 5D1B0000 		.4byte	0x1b5d
 7178 1b3c 33       		.uleb128 0x33
 7179 1b3d 72250000 		.4byte	0x2572
 7180 1b41 0E000000 		.4byte	.LBI233
 7181 1b45 05       		.byte	.LVU263
 7182 1b46 C0010000 		.4byte	.Ldebug_ranges0+0x1c0
 7183 1b4a 04       		.byte	0x4
 7184 1b4b BF01     		.2byte	0x1bf
 7185 1b4d 03       		.byte	0x3
 7186 1b4e 20       		.uleb128 0x20
 7187 1b4f 80250000 		.4byte	0x2580
 7188 1b53 380B0000 		.4byte	.LLST35
 7189 1b57 360B0000 		.4byte	.LVUS35
 7190 1b5b 00       		.byte	0
 7191 1b5c 00       		.byte	0
 7192 1b5d 28       		.uleb128 0x28
 7193 1b5e 1A000000 		.4byte	.LVL82
 7194 1b62 02260000 		.4byte	0x2602
 7195 1b66 28       		.uleb128 0x28
 7196 1b67 1E000000 		.4byte	.LVL83
 7197 1b6b 0E260000 		.4byte	0x260e
 7198 1b6f 00       		.byte	0
 7199 1b70 1F       		.uleb128 0x1f
 7200 1b71 F2230000 		.4byte	0x23f2
 7201 1b75 2A000000 		.4byte	.LBI243
 7202 1b79 01       		.byte	.LVU273
 7203 1b7a D8010000 		.4byte	.Ldebug_ranges0+0x1d8
 7204 1b7e 01       		.byte	0x1
 7205 1b7f 2901     		.2byte	0x129
ARM GAS  /tmp/ccJ6FnJD.s 			page 128


 7206 1b81 03       		.byte	0x3
 7207 1b82 ED1B0000 		.4byte	0x1bed
 7208 1b86 22       		.uleb128 0x22
 7209 1b87 D8010000 		.4byte	.Ldebug_ranges0+0x1d8
 7210 1b8b 1F       		.uleb128 0x1f
 7211 1b8c 5E250000 		.4byte	0x255e
 7212 1b90 44000000 		.4byte	.LBI245
 7213 1b94 02       		.byte	.LVU281
 7214 1b95 F8010000 		.4byte	.Ldebug_ranges0+0x1f8
 7215 1b99 03       		.byte	0x3
 7216 1b9a 7301     		.2byte	0x173
 7217 1b9c 03       		.byte	0x3
 7218 1b9d C61B0000 		.4byte	0x1bc6
 7219 1ba1 2D       		.uleb128 0x2d
 7220 1ba2 72250000 		.4byte	0x2572
 7221 1ba6 44000000 		.4byte	.LBI246
 7222 1baa 04       		.byte	.LVU283
 7223 1bab 44000000 		.4byte	.LBB246
 7224 1baf 06000000 		.4byte	.LBE246-.LBB246
 7225 1bb3 04       		.byte	0x4
 7226 1bb4 CD01     		.2byte	0x1cd
 7227 1bb6 03       		.byte	0x3
 7228 1bb7 20       		.uleb128 0x20
 7229 1bb8 80250000 		.4byte	0x2580
 7230 1bbc 4F0B0000 		.4byte	.LLST36
 7231 1bc0 4D0B0000 		.4byte	.LVUS36
 7232 1bc4 00       		.byte	0
 7233 1bc5 00       		.byte	0
 7234 1bc6 28       		.uleb128 0x28
 7235 1bc7 2E000000 		.4byte	.LVL84
 7236 1bcb 1A260000 		.4byte	0x261a
 7237 1bcf 28       		.uleb128 0x28
 7238 1bd0 32000000 		.4byte	.LVL85
 7239 1bd4 26260000 		.4byte	0x2626
 7240 1bd8 27       		.uleb128 0x27
 7241 1bd9 5E000000 		.4byte	.LVL89
 7242 1bdd D2250000 		.4byte	0x25d2
 7243 1be1 26       		.uleb128 0x26
 7244 1be2 01       		.uleb128 0x1
 7245 1be3 50       		.byte	0x50
 7246 1be4 05       		.uleb128 0x5
 7247 1be5 03       		.byte	0x3
 7248 1be6 00000000 		.4byte	.LANCHOR1
 7249 1bea 00       		.byte	0
 7250 1beb 00       		.byte	0
 7251 1bec 00       		.byte	0
 7252 1bed 28       		.uleb128 0x28
 7253 1bee 64000000 		.4byte	.LVL90
 7254 1bf2 EC250000 		.4byte	0x25ec
 7255 1bf6 00       		.byte	0
 7256 1bf7 2A       		.uleb128 0x2a
 7257 1bf8 48000000 		.4byte	.LASF174
 7258 1bfc 01       		.byte	0x1
 7259 1bfd 0301     		.2byte	0x103
 7260 1bff 09       		.byte	0x9
 7261 1c00 07010000 		.4byte	0x107
 7262 1c04 00000000 		.4byte	.LFB224
ARM GAS  /tmp/ccJ6FnJD.s 			page 129


 7263 1c08 90000000 		.4byte	.LFE224-.LFB224
 7264 1c0c 01       		.uleb128 0x1
 7265 1c0d 9C       		.byte	0x9c
 7266 1c0e 561D0000 		.4byte	0x1d56
 7267 1c12 2B       		.uleb128 0x2b
 7268 1c13 0C070000 		.4byte	.LASF175
 7269 1c17 01       		.byte	0x1
 7270 1c18 0301     		.2byte	0x103
 7271 1c1a 22       		.byte	0x22
 7272 1c1b 07010000 		.4byte	0x107
 7273 1c1f 6B0B0000 		.4byte	.LLST30
 7274 1c23 630B0000 		.4byte	.LVUS30
 7275 1c27 34       		.uleb128 0x34
 7276 1c28 7C060000 		.4byte	.LASF176
 7277 1c2c 01       		.byte	0x1
 7278 1c2d 0401     		.2byte	0x104
 7279 1c2f 0B       		.byte	0xb
 7280 1c30 07010000 		.4byte	0x107
 7281 1c34 A30B0000 		.4byte	.LLST31
 7282 1c38 9F0B0000 		.4byte	.LVUS31
 7283 1c3c 2E       		.uleb128 0x2e
 7284 1c3d E9000000 		.4byte	.LASF159
 7285 1c41 661D0000 		.4byte	0x1d66
 7286 1c45 05       		.uleb128 0x5
 7287 1c46 03       		.byte	0x3
 7288 1c47 00000000 		.4byte	__func__.7990
 7289 1c4b 1F       		.uleb128 0x1f
 7290 1c4c 10240000 		.4byte	0x2410
 7291 1c50 14000000 		.4byte	.LBI200
 7292 1c54 02       		.byte	.LVU211
 7293 1c55 28010000 		.4byte	.Ldebug_ranges0+0x128
 7294 1c59 01       		.byte	0x1
 7295 1c5a 0801     		.2byte	0x108
 7296 1c5c 03       		.byte	0x3
 7297 1c5d AF1C0000 		.4byte	0x1caf
 7298 1c61 1F       		.uleb128 0x1f
 7299 1c62 68250000 		.4byte	0x2568
 7300 1c66 14000000 		.4byte	.LBI202
 7301 1c6a 04       		.byte	.LVU213
 7302 1c6b 48010000 		.4byte	.Ldebug_ranges0+0x148
 7303 1c6f 03       		.byte	0x3
 7304 1c70 5C01     		.2byte	0x15c
 7305 1c72 03       		.byte	0x3
 7306 1c73 9C1C0000 		.4byte	0x1c9c
 7307 1c77 2D       		.uleb128 0x2d
 7308 1c78 72250000 		.4byte	0x2572
 7309 1c7c 14000000 		.4byte	.LBI203
 7310 1c80 06       		.byte	.LVU215
 7311 1c81 14000000 		.4byte	.LBB203
 7312 1c85 06000000 		.4byte	.LBE203-.LBB203
 7313 1c89 04       		.byte	0x4
 7314 1c8a BF01     		.2byte	0x1bf
 7315 1c8c 03       		.byte	0x3
 7316 1c8d 20       		.uleb128 0x20
 7317 1c8e 80250000 		.4byte	0x2580
 7318 1c92 C30B0000 		.4byte	.LLST32
 7319 1c96 C10B0000 		.4byte	.LVUS32
ARM GAS  /tmp/ccJ6FnJD.s 			page 130


 7320 1c9a 00       		.byte	0
 7321 1c9b 00       		.byte	0
 7322 1c9c 28       		.uleb128 0x28
 7323 1c9d 20000000 		.4byte	.LVL64
 7324 1ca1 02260000 		.4byte	0x2602
 7325 1ca5 28       		.uleb128 0x28
 7326 1ca6 24000000 		.4byte	.LVL65
 7327 1caa 0E260000 		.4byte	0x260e
 7328 1cae 00       		.byte	0
 7329 1caf 1F       		.uleb128 0x1f
 7330 1cb0 F2230000 		.4byte	0x23f2
 7331 1cb4 38000000 		.4byte	.LBI210
 7332 1cb8 01       		.byte	.LVU233
 7333 1cb9 60010000 		.4byte	.Ldebug_ranges0+0x160
 7334 1cbd 01       		.byte	0x1
 7335 1cbe 1401     		.2byte	0x114
 7336 1cc0 03       		.byte	0x3
 7337 1cc1 2C1D0000 		.4byte	0x1d2c
 7338 1cc5 22       		.uleb128 0x22
 7339 1cc6 60010000 		.4byte	.Ldebug_ranges0+0x160
 7340 1cca 1F       		.uleb128 0x1f
 7341 1ccb 5E250000 		.4byte	0x255e
 7342 1ccf 50000000 		.4byte	.LBI212
 7343 1cd3 02       		.byte	.LVU241
 7344 1cd4 80010000 		.4byte	.Ldebug_ranges0+0x180
 7345 1cd8 03       		.byte	0x3
 7346 1cd9 7301     		.2byte	0x173
 7347 1cdb 03       		.byte	0x3
 7348 1cdc 051D0000 		.4byte	0x1d05
 7349 1ce0 2D       		.uleb128 0x2d
 7350 1ce1 72250000 		.4byte	0x2572
 7351 1ce5 50000000 		.4byte	.LBI213
 7352 1ce9 04       		.byte	.LVU243
 7353 1cea 50000000 		.4byte	.LBB213
 7354 1cee 06000000 		.4byte	.LBE213-.LBB213
 7355 1cf2 04       		.byte	0x4
 7356 1cf3 CD01     		.2byte	0x1cd
 7357 1cf5 03       		.byte	0x3
 7358 1cf6 20       		.uleb128 0x20
 7359 1cf7 80250000 		.4byte	0x2580
 7360 1cfb DA0B0000 		.4byte	.LLST33
 7361 1cff D80B0000 		.4byte	.LVUS33
 7362 1d03 00       		.byte	0
 7363 1d04 00       		.byte	0
 7364 1d05 28       		.uleb128 0x28
 7365 1d06 3C000000 		.4byte	.LVL68
 7366 1d0a 1A260000 		.4byte	0x261a
 7367 1d0e 28       		.uleb128 0x28
 7368 1d0f 40000000 		.4byte	.LVL69
 7369 1d13 26260000 		.4byte	0x2626
 7370 1d17 27       		.uleb128 0x27
 7371 1d18 72000000 		.4byte	.LVL73
 7372 1d1c D2250000 		.4byte	0x25d2
 7373 1d20 26       		.uleb128 0x26
 7374 1d21 01       		.uleb128 0x1
 7375 1d22 50       		.byte	0x50
 7376 1d23 05       		.uleb128 0x5
ARM GAS  /tmp/ccJ6FnJD.s 			page 131


 7377 1d24 03       		.byte	0x3
 7378 1d25 00000000 		.4byte	.LANCHOR1
 7379 1d29 00       		.byte	0
 7380 1d2a 00       		.byte	0
 7381 1d2b 00       		.byte	0
 7382 1d2c 28       		.uleb128 0x28
 7383 1d2d 38000000 		.4byte	.LVL67
 7384 1d31 71260000 		.4byte	0x2671
 7385 1d35 25       		.uleb128 0x25
 7386 1d36 7A000000 		.4byte	.LVL76
 7387 1d3a D2250000 		.4byte	0x25d2
 7388 1d3e 4C1D0000 		.4byte	0x1d4c
 7389 1d42 26       		.uleb128 0x26
 7390 1d43 01       		.uleb128 0x1
 7391 1d44 50       		.byte	0x50
 7392 1d45 05       		.uleb128 0x5
 7393 1d46 03       		.byte	0x3
 7394 1d47 00000000 		.4byte	.LANCHOR3
 7395 1d4b 00       		.byte	0
 7396 1d4c 28       		.uleb128 0x28
 7397 1d4d 80000000 		.4byte	.LVL78
 7398 1d51 EC250000 		.4byte	0x25ec
 7399 1d55 00       		.byte	0
 7400 1d56 18       		.uleb128 0x18
 7401 1d57 1E090000 		.4byte	0x91e
 7402 1d5b 661D0000 		.4byte	0x1d66
 7403 1d5f 19       		.uleb128 0x19
 7404 1d60 38000000 		.4byte	0x38
 7405 1d64 10       		.byte	0x10
 7406 1d65 00       		.byte	0
 7407 1d66 0B       		.uleb128 0xb
 7408 1d67 561D0000 		.4byte	0x1d56
 7409 1d6b 35       		.uleb128 0x35
 7410 1d6c 140B0000 		.4byte	.LASF177
 7411 1d70 01       		.byte	0x1
 7412 1d71 EE       		.byte	0xee
 7413 1d72 0B       		.byte	0xb
 7414 1d73 A1020000 		.4byte	0x2a1
 7415 1d77 00000000 		.4byte	.LFB223
 7416 1d7b 80000000 		.4byte	.LFE223-.LFB223
 7417 1d7f 01       		.uleb128 0x1
 7418 1d80 9C       		.byte	0x9c
 7419 1d81 CB1E0000 		.4byte	0x1ecb
 7420 1d85 36       		.uleb128 0x36
 7421 1d86 747000   		.ascii	"tp\000"
 7422 1d89 01       		.byte	0x1
 7423 1d8a EE       		.byte	0xee
 7424 1d8b 20       		.byte	0x20
 7425 1d8c A1020000 		.4byte	0x2a1
 7426 1d90 F60B0000 		.4byte	.LLST26
 7427 1d94 EE0B0000 		.4byte	.LVUS26
 7428 1d98 37       		.uleb128 0x37
 7429 1d99 10240000 		.4byte	0x2410
 7430 1d9d 0E000000 		.4byte	.LBI165
 7431 1da1 01       		.byte	.LVU162
 7432 1da2 B0000000 		.4byte	.Ldebug_ranges0+0xb0
 7433 1da6 01       		.byte	0x1
ARM GAS  /tmp/ccJ6FnJD.s 			page 132


 7434 1da7 F0       		.byte	0xf0
 7435 1da8 03       		.byte	0x3
 7436 1da9 F71D0000 		.4byte	0x1df7
 7437 1dad 1F       		.uleb128 0x1f
 7438 1dae 68250000 		.4byte	0x2568
 7439 1db2 0E000000 		.4byte	.LBI167
 7440 1db6 03       		.byte	.LVU164
 7441 1db7 D0000000 		.4byte	.Ldebug_ranges0+0xd0
 7442 1dbb 03       		.byte	0x3
 7443 1dbc 5C01     		.2byte	0x15c
 7444 1dbe 03       		.byte	0x3
 7445 1dbf E41D0000 		.4byte	0x1de4
 7446 1dc3 33       		.uleb128 0x33
 7447 1dc4 72250000 		.4byte	0x2572
 7448 1dc8 0E000000 		.4byte	.LBI168
 7449 1dcc 05       		.byte	.LVU166
 7450 1dcd D8000000 		.4byte	.Ldebug_ranges0+0xd8
 7451 1dd1 04       		.byte	0x4
 7452 1dd2 BF01     		.2byte	0x1bf
 7453 1dd4 03       		.byte	0x3
 7454 1dd5 20       		.uleb128 0x20
 7455 1dd6 80250000 		.4byte	0x2580
 7456 1dda 2C0C0000 		.4byte	.LLST27
 7457 1dde 2A0C0000 		.4byte	.LVUS27
 7458 1de2 00       		.byte	0
 7459 1de3 00       		.byte	0
 7460 1de4 28       		.uleb128 0x28
 7461 1de5 1A000000 		.4byte	.LVL49
 7462 1de9 02260000 		.4byte	0x2602
 7463 1ded 28       		.uleb128 0x28
 7464 1dee 1E000000 		.4byte	.LVL50
 7465 1df2 0E260000 		.4byte	0x260e
 7466 1df6 00       		.byte	0
 7467 1df7 38       		.uleb128 0x38
 7468 1df8 6B230000 		.4byte	0x236b
 7469 1dfc 1E000000 		.4byte	.LBI178
 7470 1e00 01       		.byte	.LVU174
 7471 1e01 1E000000 		.4byte	.LBB178
 7472 1e05 16000000 		.4byte	.LBE178-.LBB178
 7473 1e09 01       		.byte	0x1
 7474 1e0a F1       		.byte	0xf1
 7475 1e0b 08       		.byte	0x8
 7476 1e0c 451E0000 		.4byte	0x1e45
 7477 1e10 20       		.uleb128 0x20
 7478 1e11 7C230000 		.4byte	0x237c
 7479 1e15 430C0000 		.4byte	.LLST28
 7480 1e19 410C0000 		.4byte	.LVUS28
 7481 1e1d 25       		.uleb128 0x25
 7482 1e1e 2C000000 		.4byte	.LVL51
 7483 1e22 D2250000 		.4byte	0x25d2
 7484 1e26 341E0000 		.4byte	0x1e34
 7485 1e2a 26       		.uleb128 0x26
 7486 1e2b 01       		.uleb128 0x1
 7487 1e2c 50       		.byte	0x50
 7488 1e2d 05       		.uleb128 0x5
 7489 1e2e 03       		.byte	0x3
 7490 1e2f 00000000 		.4byte	.LANCHOR2
ARM GAS  /tmp/ccJ6FnJD.s 			page 133


 7491 1e33 00       		.byte	0
 7492 1e34 27       		.uleb128 0x27
 7493 1e35 32000000 		.4byte	.LVL52
 7494 1e39 DF250000 		.4byte	0x25df
 7495 1e3d 26       		.uleb128 0x26
 7496 1e3e 01       		.uleb128 0x1
 7497 1e3f 50       		.byte	0x50
 7498 1e40 02       		.uleb128 0x2
 7499 1e41 74       		.byte	0x74
 7500 1e42 00       		.sleb128 0
 7501 1e43 00       		.byte	0
 7502 1e44 00       		.byte	0
 7503 1e45 37       		.uleb128 0x37
 7504 1e46 F2230000 		.4byte	0x23f2
 7505 1e4a 34000000 		.4byte	.LBI180
 7506 1e4e 02       		.byte	.LVU184
 7507 1e4f F0000000 		.4byte	.Ldebug_ranges0+0xf0
 7508 1e53 01       		.byte	0x1
 7509 1e54 F2       		.byte	0xf2
 7510 1e55 03       		.byte	0x3
 7511 1e56 C11E0000 		.4byte	0x1ec1
 7512 1e5a 22       		.uleb128 0x22
 7513 1e5b F0000000 		.4byte	.Ldebug_ranges0+0xf0
 7514 1e5f 1F       		.uleb128 0x1f
 7515 1e60 5E250000 		.4byte	0x255e
 7516 1e64 4E000000 		.4byte	.LBI182
 7517 1e68 02       		.byte	.LVU192
 7518 1e69 10010000 		.4byte	.Ldebug_ranges0+0x110
 7519 1e6d 03       		.byte	0x3
 7520 1e6e 7301     		.2byte	0x173
 7521 1e70 03       		.byte	0x3
 7522 1e71 9A1E0000 		.4byte	0x1e9a
 7523 1e75 2D       		.uleb128 0x2d
 7524 1e76 72250000 		.4byte	0x2572
 7525 1e7a 4E000000 		.4byte	.LBI183
 7526 1e7e 04       		.byte	.LVU194
 7527 1e7f 4E000000 		.4byte	.LBB183
 7528 1e83 06000000 		.4byte	.LBE183-.LBB183
 7529 1e87 04       		.byte	0x4
 7530 1e88 CD01     		.2byte	0x1cd
 7531 1e8a 03       		.byte	0x3
 7532 1e8b 20       		.uleb128 0x20
 7533 1e8c 80250000 		.4byte	0x2580
 7534 1e90 580C0000 		.4byte	.LLST29
 7535 1e94 560C0000 		.4byte	.LVUS29
 7536 1e98 00       		.byte	0
 7537 1e99 00       		.byte	0
 7538 1e9a 28       		.uleb128 0x28
 7539 1e9b 38000000 		.4byte	.LVL54
 7540 1e9f 1A260000 		.4byte	0x261a
 7541 1ea3 28       		.uleb128 0x28
 7542 1ea4 3C000000 		.4byte	.LVL55
 7543 1ea8 26260000 		.4byte	0x2626
 7544 1eac 27       		.uleb128 0x27
 7545 1ead 6A000000 		.4byte	.LVL59
 7546 1eb1 D2250000 		.4byte	0x25d2
 7547 1eb5 26       		.uleb128 0x26
ARM GAS  /tmp/ccJ6FnJD.s 			page 134


 7548 1eb6 01       		.uleb128 0x1
 7549 1eb7 50       		.byte	0x50
 7550 1eb8 05       		.uleb128 0x5
 7551 1eb9 03       		.byte	0x3
 7552 1eba 00000000 		.4byte	.LANCHOR1
 7553 1ebe 00       		.byte	0
 7554 1ebf 00       		.byte	0
 7555 1ec0 00       		.byte	0
 7556 1ec1 28       		.uleb128 0x28
 7557 1ec2 70000000 		.4byte	.LVL60
 7558 1ec6 EC250000 		.4byte	0x25ec
 7559 1eca 00       		.byte	0
 7560 1ecb 35       		.uleb128 0x35
 7561 1ecc A6040000 		.4byte	.LASF178
 7562 1ed0 01       		.byte	0x1
 7563 1ed1 D0       		.byte	0xd0
 7564 1ed2 0B       		.byte	0xb
 7565 1ed3 A1020000 		.4byte	0x2a1
 7566 1ed7 00000000 		.4byte	.LFB222
 7567 1edb B0000000 		.4byte	.LFE222-.LFB222
 7568 1edf 01       		.uleb128 0x1
 7569 1ee0 9C       		.byte	0x9c
 7570 1ee1 0A210000 		.4byte	0x210a
 7571 1ee5 36       		.uleb128 0x36
 7572 1ee6 77737000 		.ascii	"wsp\000"
 7573 1eea 01       		.byte	0x1
 7574 1eeb D0       		.byte	0xd0
 7575 1eec 23       		.byte	0x23
 7576 1eed 93030000 		.4byte	0x393
 7577 1ef1 700C0000 		.4byte	.LLST12
 7578 1ef5 6C0C0000 		.4byte	.LVUS12
 7579 1ef9 39       		.uleb128 0x39
 7580 1efa 38070000 		.4byte	.LASF179
 7581 1efe 01       		.byte	0x1
 7582 1eff D0       		.byte	0xd0
 7583 1f00 2F       		.byte	0x2f
 7584 1f01 2C000000 		.4byte	0x2c
 7585 1f05 920C0000 		.4byte	.LLST13
 7586 1f09 8E0C0000 		.4byte	.LVUS13
 7587 1f0d 39       		.uleb128 0x39
 7588 1f0e 4D010000 		.4byte	.LASF180
 7589 1f12 01       		.byte	0x1
 7590 1f13 D1       		.byte	0xd1
 7591 1f14 25       		.byte	0x25
 7592 1f15 07010000 		.4byte	0x107
 7593 1f19 B40C0000 		.4byte	.LLST14
 7594 1f1d B00C0000 		.4byte	.LVUS14
 7595 1f21 36       		.uleb128 0x36
 7596 1f22 706600   		.ascii	"pf\000"
 7597 1f25 01       		.byte	0x1
 7598 1f26 D1       		.byte	0xd1
 7599 1f27 33       		.byte	0x33
 7600 1f28 4B090000 		.4byte	0x94b
 7601 1f2c D70C0000 		.4byte	.LLST15
 7602 1f30 D30C0000 		.4byte	.LVUS15
 7603 1f34 36       		.uleb128 0x36
 7604 1f35 61726700 		.ascii	"arg\000"
ARM GAS  /tmp/ccJ6FnJD.s 			page 135


 7605 1f39 01       		.byte	0x1
 7606 1f3a D1       		.byte	0xd1
 7607 1f3b 3D       		.byte	0x3d
 7608 1f3c 93030000 		.4byte	0x393
 7609 1f40 FA0C0000 		.4byte	.LLST16
 7610 1f44 F60C0000 		.4byte	.LVUS16
 7611 1f48 3A       		.uleb128 0x3a
 7612 1f49 747000   		.ascii	"tp\000"
 7613 1f4c 01       		.byte	0x1
 7614 1f4d D2       		.byte	0xd2
 7615 1f4e 0D       		.byte	0xd
 7616 1f4f A1020000 		.4byte	0x2a1
 7617 1f53 1E0D0000 		.4byte	.LLST17
 7618 1f57 1A0D0000 		.4byte	.LVUS17
 7619 1f5b 37       		.uleb128 0x37
 7620 1f5c EF210000 		.4byte	0x21ef
 7621 1f60 1C000000 		.4byte	.LBI129
 7622 1f64 00       		.byte	.LVU105
 7623 1f65 30000000 		.4byte	.Ldebug_ranges0+0x30
 7624 1f69 01       		.byte	0x1
 7625 1f6a D5       		.byte	0xd5
 7626 1f6b 03       		.byte	0x3
 7627 1f6c 981F0000 		.4byte	0x1f98
 7628 1f70 20       		.uleb128 0x20
 7629 1f71 14220000 		.4byte	0x2214
 7630 1f75 3E0D0000 		.4byte	.LLST18
 7631 1f79 3C0D0000 		.4byte	.LVUS18
 7632 1f7d 20       		.uleb128 0x20
 7633 1f7e 08220000 		.4byte	0x2208
 7634 1f82 550D0000 		.4byte	.LLST19
 7635 1f86 530D0000 		.4byte	.LVUS19
 7636 1f8a 20       		.uleb128 0x20
 7637 1f8b FC210000 		.4byte	0x21fc
 7638 1f8f 700D0000 		.4byte	.LLST20
 7639 1f93 680D0000 		.4byte	.LVUS20
 7640 1f97 00       		.byte	0
 7641 1f98 38       		.uleb128 0x38
 7642 1f99 EF210000 		.4byte	0x21ef
 7643 1f9d 2C000000 		.4byte	.LBI133
 7644 1fa1 00       		.byte	.LVU115
 7645 1fa2 2C000000 		.4byte	.LBB133
 7646 1fa6 12000000 		.4byte	.LBE133-.LBB133
 7647 1faa 01       		.byte	0x1
 7648 1fab D8       		.byte	0xd8
 7649 1fac 03       		.byte	0x3
 7650 1fad D91F0000 		.4byte	0x1fd9
 7651 1fb1 20       		.uleb128 0x20
 7652 1fb2 14220000 		.4byte	0x2214
 7653 1fb6 A80D0000 		.4byte	.LLST21
 7654 1fba A60D0000 		.4byte	.LVUS21
 7655 1fbe 20       		.uleb128 0x20
 7656 1fbf 08220000 		.4byte	0x2208
 7657 1fc3 BF0D0000 		.4byte	.LLST22
 7658 1fc7 BD0D0000 		.4byte	.LVUS22
 7659 1fcb 20       		.uleb128 0x20
 7660 1fcc FC210000 		.4byte	0x21fc
 7661 1fd0 D80D0000 		.4byte	.LLST23
ARM GAS  /tmp/ccJ6FnJD.s 			page 136


 7662 1fd4 D20D0000 		.4byte	.LVUS23
 7663 1fd8 00       		.byte	0
 7664 1fd9 37       		.uleb128 0x37
 7665 1fda 10240000 		.4byte	0x2410
 7666 1fde 3E000000 		.4byte	.LBI135
 7667 1fe2 02       		.byte	.LVU124
 7668 1fe3 48000000 		.4byte	.Ldebug_ranges0+0x48
 7669 1fe7 01       		.byte	0x1
 7670 1fe8 DD       		.byte	0xdd
 7671 1fe9 03       		.byte	0x3
 7672 1fea 3C200000 		.4byte	0x203c
 7673 1fee 1F       		.uleb128 0x1f
 7674 1fef 68250000 		.4byte	0x2568
 7675 1ff3 3E000000 		.4byte	.LBI137
 7676 1ff7 04       		.byte	.LVU126
 7677 1ff8 60000000 		.4byte	.Ldebug_ranges0+0x60
 7678 1ffc 03       		.byte	0x3
 7679 1ffd 5C01     		.2byte	0x15c
 7680 1fff 03       		.byte	0x3
 7681 2000 29200000 		.4byte	0x2029
 7682 2004 2D       		.uleb128 0x2d
 7683 2005 72250000 		.4byte	0x2572
 7684 2009 3E000000 		.4byte	.LBI138
 7685 200d 06       		.byte	.LVU128
 7686 200e 3E000000 		.4byte	.LBB138
 7687 2012 06000000 		.4byte	.LBE138-.LBB138
 7688 2016 04       		.byte	0x4
 7689 2017 BF01     		.2byte	0x1bf
 7690 2019 03       		.byte	0x3
 7691 201a 20       		.uleb128 0x20
 7692 201b 80250000 		.4byte	0x2580
 7693 201f 050E0000 		.4byte	.LLST24
 7694 2023 030E0000 		.4byte	.LVUS24
 7695 2027 00       		.byte	0
 7696 2028 00       		.byte	0
 7697 2029 28       		.uleb128 0x28
 7698 202a 48000000 		.4byte	.LVL34
 7699 202e 02260000 		.4byte	0x2602
 7700 2032 28       		.uleb128 0x28
 7701 2033 4C000000 		.4byte	.LVL35
 7702 2037 0E260000 		.4byte	0x260e
 7703 203b 00       		.byte	0
 7704 203c 37       		.uleb128 0x37
 7705 203d F2230000 		.4byte	0x23f2
 7706 2041 64000000 		.4byte	.LBI143
 7707 2045 01       		.byte	.LVU140
 7708 2046 78000000 		.4byte	.Ldebug_ranges0+0x78
 7709 204a 01       		.byte	0x1
 7710 204b E0       		.byte	0xe0
 7711 204c 03       		.byte	0x3
 7712 204d B8200000 		.4byte	0x20b8
 7713 2051 22       		.uleb128 0x22
 7714 2052 78000000 		.4byte	.Ldebug_ranges0+0x78
 7715 2056 1F       		.uleb128 0x1f
 7716 2057 5E250000 		.4byte	0x255e
 7717 205b 7E000000 		.4byte	.LBI145
 7718 205f 02       		.byte	.LVU149
ARM GAS  /tmp/ccJ6FnJD.s 			page 137


 7719 2060 98000000 		.4byte	.Ldebug_ranges0+0x98
 7720 2064 03       		.byte	0x3
 7721 2065 7301     		.2byte	0x173
 7722 2067 03       		.byte	0x3
 7723 2068 91200000 		.4byte	0x2091
 7724 206c 2D       		.uleb128 0x2d
 7725 206d 72250000 		.4byte	0x2572
 7726 2071 7E000000 		.4byte	.LBI146
 7727 2075 04       		.byte	.LVU151
 7728 2076 7E000000 		.4byte	.LBB146
 7729 207a 06000000 		.4byte	.LBE146-.LBB146
 7730 207e 04       		.byte	0x4
 7731 207f CD01     		.2byte	0x1cd
 7732 2081 03       		.byte	0x3
 7733 2082 20       		.uleb128 0x20
 7734 2083 80250000 		.4byte	0x2580
 7735 2087 1C0E0000 		.4byte	.LLST25
 7736 208b 1A0E0000 		.4byte	.LVUS25
 7737 208f 00       		.byte	0
 7738 2090 00       		.byte	0
 7739 2091 28       		.uleb128 0x28
 7740 2092 68000000 		.4byte	.LVL39
 7741 2096 1A260000 		.4byte	0x261a
 7742 209a 28       		.uleb128 0x28
 7743 209b 6C000000 		.4byte	.LVL40
 7744 209f 26260000 		.4byte	0x2626
 7745 20a3 27       		.uleb128 0x27
 7746 20a4 9C000000 		.4byte	.LVL44
 7747 20a8 D2250000 		.4byte	0x25d2
 7748 20ac 26       		.uleb128 0x26
 7749 20ad 01       		.uleb128 0x1
 7750 20ae 50       		.byte	0x50
 7751 20af 05       		.uleb128 0x5
 7752 20b0 03       		.byte	0x3
 7753 20b1 00000000 		.4byte	.LANCHOR1
 7754 20b5 00       		.byte	0
 7755 20b6 00       		.byte	0
 7756 20b7 00       		.byte	0
 7757 20b8 25       		.uleb128 0x25
 7758 20b9 5C000000 		.4byte	.LVL36
 7759 20bd 0A210000 		.4byte	0x210a
 7760 20c1 E7200000 		.4byte	0x20e7
 7761 20c5 26       		.uleb128 0x26
 7762 20c6 01       		.uleb128 0x1
 7763 20c7 50       		.byte	0x50
 7764 20c8 02       		.uleb128 0x2
 7765 20c9 77       		.byte	0x77
 7766 20ca 00       		.sleb128 0
 7767 20cb 26       		.uleb128 0x26
 7768 20cc 01       		.uleb128 0x1
 7769 20cd 51       		.byte	0x51
 7770 20ce 02       		.uleb128 0x2
 7771 20cf 78       		.byte	0x78
 7772 20d0 00       		.sleb128 0
 7773 20d1 26       		.uleb128 0x26
 7774 20d2 01       		.uleb128 0x1
 7775 20d3 52       		.byte	0x52
ARM GAS  /tmp/ccJ6FnJD.s 			page 138


 7776 20d4 03       		.uleb128 0x3
 7777 20d5 91       		.byte	0x91
 7778 20d6 50       		.sleb128 -48
 7779 20d7 06       		.byte	0x6
 7780 20d8 26       		.uleb128 0x26
 7781 20d9 01       		.uleb128 0x1
 7782 20da 53       		.byte	0x53
 7783 20db 03       		.uleb128 0x3
 7784 20dc 91       		.byte	0x91
 7785 20dd 54       		.sleb128 -44
 7786 20de 06       		.byte	0x6
 7787 20df 26       		.uleb128 0x26
 7788 20e0 02       		.uleb128 0x2
 7789 20e1 7D       		.byte	0x7d
 7790 20e2 00       		.sleb128 0
 7791 20e3 02       		.uleb128 0x2
 7792 20e4 79       		.byte	0x79
 7793 20e5 00       		.sleb128 0
 7794 20e6 00       		.byte	0
 7795 20e7 25       		.uleb128 0x25
 7796 20e8 64000000 		.4byte	.LVL38
 7797 20ec 32260000 		.4byte	0x2632
 7798 20f0 00210000 		.4byte	0x2100
 7799 20f4 26       		.uleb128 0x26
 7800 20f5 01       		.uleb128 0x1
 7801 20f6 50       		.byte	0x50
 7802 20f7 02       		.uleb128 0x2
 7803 20f8 74       		.byte	0x74
 7804 20f9 00       		.sleb128 0
 7805 20fa 26       		.uleb128 0x26
 7806 20fb 01       		.uleb128 0x1
 7807 20fc 51       		.byte	0x51
 7808 20fd 01       		.uleb128 0x1
 7809 20fe 30       		.byte	0x30
 7810 20ff 00       		.byte	0
 7811 2100 28       		.uleb128 0x28
 7812 2101 A2000000 		.4byte	.LVL45
 7813 2105 EC250000 		.4byte	0x25ec
 7814 2109 00       		.byte	0
 7815 210a 35       		.uleb128 0x35
 7816 210b EE070000 		.4byte	.LASF181
 7817 210f 01       		.byte	0x1
 7818 2110 B1       		.byte	0xb1
 7819 2111 0B       		.byte	0xb
 7820 2112 A1020000 		.4byte	0x2a1
 7821 2116 00000000 		.4byte	.LFB221
 7822 211a 78000000 		.4byte	.LFE221-.LFB221
 7823 211e 01       		.uleb128 0x1
 7824 211f 9C       		.byte	0x9c
 7825 2120 EF210000 		.4byte	0x21ef
 7826 2124 36       		.uleb128 0x36
 7827 2125 77737000 		.ascii	"wsp\000"
 7828 2129 01       		.byte	0x1
 7829 212a B1       		.byte	0xb1
 7830 212b 1E       		.byte	0x1e
 7831 212c 93030000 		.4byte	0x393
 7832 2130 3A0E0000 		.4byte	.LLST6
ARM GAS  /tmp/ccJ6FnJD.s 			page 139


 7833 2134 300E0000 		.4byte	.LVUS6
 7834 2138 39       		.uleb128 0x39
 7835 2139 38070000 		.4byte	.LASF179
 7836 213d 01       		.byte	0x1
 7837 213e B1       		.byte	0xb1
 7838 213f 2A       		.byte	0x2a
 7839 2140 2C000000 		.4byte	0x2c
 7840 2144 840E0000 		.4byte	.LLST7
 7841 2148 7C0E0000 		.4byte	.LVUS7
 7842 214c 39       		.uleb128 0x39
 7843 214d 4D010000 		.4byte	.LASF180
 7844 2151 01       		.byte	0x1
 7845 2152 B2       		.byte	0xb2
 7846 2153 20       		.byte	0x20
 7847 2154 07010000 		.4byte	0x107
 7848 2158 C50E0000 		.4byte	.LLST8
 7849 215c BB0E0000 		.4byte	.LVUS8
 7850 2160 36       		.uleb128 0x36
 7851 2161 706600   		.ascii	"pf\000"
 7852 2164 01       		.byte	0x1
 7853 2165 B2       		.byte	0xb2
 7854 2166 2E       		.byte	0x2e
 7855 2167 4B090000 		.4byte	0x94b
 7856 216b 0F0F0000 		.4byte	.LLST9
 7857 216f 070F0000 		.4byte	.LVUS9
 7858 2173 36       		.uleb128 0x36
 7859 2174 61726700 		.ascii	"arg\000"
 7860 2178 01       		.byte	0x1
 7861 2179 B2       		.byte	0xb2
 7862 217a 38       		.byte	0x38
 7863 217b 93030000 		.4byte	0x393
 7864 217f 4C0F0000 		.4byte	.LLST10
 7865 2183 460F0000 		.4byte	.LVUS10
 7866 2187 3A       		.uleb128 0x3a
 7867 2188 747000   		.ascii	"tp\000"
 7868 218b 01       		.byte	0x1
 7869 218c B5       		.byte	0xb5
 7870 218d 0D       		.byte	0xd
 7871 218e A1020000 		.4byte	0x2a1
 7872 2192 820F0000 		.4byte	.LLST11
 7873 2196 780F0000 		.4byte	.LVUS11
 7874 219a 2E       		.uleb128 0x2e
 7875 219b E9000000 		.4byte	.LASF159
 7876 219f 360F0000 		.4byte	0xf36
 7877 21a3 05       		.uleb128 0x5
 7878 21a4 03       		.byte	0x3
 7879 21a5 00000000 		.4byte	__func__.7974
 7880 21a9 28       		.uleb128 0x28
 7881 21aa 20000000 		.4byte	.LVL17
 7882 21ae 7E260000 		.4byte	0x267e
 7883 21b2 25       		.uleb128 0x25
 7884 21b3 2E000000 		.4byte	.LVL18
 7885 21b7 D2250000 		.4byte	0x25d2
 7886 21bb C9210000 		.4byte	0x21c9
 7887 21bf 26       		.uleb128 0x26
 7888 21c0 01       		.uleb128 0x1
 7889 21c1 50       		.byte	0x50
ARM GAS  /tmp/ccJ6FnJD.s 			page 140


 7890 21c2 05       		.uleb128 0x5
 7891 21c3 03       		.byte	0x3
 7892 21c4 00000000 		.4byte	.LANCHOR0
 7893 21c8 00       		.byte	0
 7894 21c9 2C       		.uleb128 0x2c
 7895 21ca 5C000000 		.4byte	.LVL20
 7896 21ce 1F220000 		.4byte	0x221f
 7897 21d2 E5210000 		.4byte	0x21e5
 7898 21d6 26       		.uleb128 0x26
 7899 21d7 01       		.uleb128 0x1
 7900 21d8 50       		.byte	0x50
 7901 21d9 03       		.uleb128 0x3
 7902 21da F3       		.byte	0xf3
 7903 21db 01       		.uleb128 0x1
 7904 21dc 50       		.byte	0x50
 7905 21dd 26       		.uleb128 0x26
 7906 21de 01       		.uleb128 0x1
 7907 21df 51       		.byte	0x51
 7908 21e0 03       		.uleb128 0x3
 7909 21e1 F3       		.byte	0xf3
 7910 21e2 01       		.uleb128 0x1
 7911 21e3 52       		.byte	0x52
 7912 21e4 00       		.byte	0
 7913 21e5 28       		.uleb128 0x28
 7914 21e6 6A000000 		.4byte	.LVL21
 7915 21ea EC250000 		.4byte	0x25ec
 7916 21ee 00       		.byte	0
 7917 21ef 3B       		.uleb128 0x3b
 7918 21f0 48060000 		.4byte	.LASF228
 7919 21f4 01       		.byte	0x1
 7920 21f5 91       		.byte	0x91
 7921 21f6 06       		.byte	0x6
 7922 21f7 01       		.byte	0x1
 7923 21f8 1F220000 		.4byte	0x221f
 7924 21fc 3C       		.uleb128 0x3c
 7925 21fd C20B0000 		.4byte	.LASF182
 7926 2201 01       		.byte	0x1
 7927 2202 91       		.byte	0x91
 7928 2203 1F       		.byte	0x1f
 7929 2204 8A0A0000 		.4byte	0xa8a
 7930 2208 3C       		.uleb128 0x3c
 7931 2209 34060000 		.4byte	.LASF183
 7932 220d 01       		.byte	0x1
 7933 220e 91       		.byte	0x91
 7934 220f 30       		.byte	0x30
 7935 2210 8A0A0000 		.4byte	0xa8a
 7936 2214 3D       		.uleb128 0x3d
 7937 2215 7600     		.ascii	"v\000"
 7938 2217 01       		.byte	0x1
 7939 2218 91       		.byte	0x91
 7940 2219 3E       		.byte	0x3e
 7941 221a 73000000 		.4byte	0x73
 7942 221e 00       		.byte	0
 7943 221f 35       		.uleb128 0x35
 7944 2220 95080000 		.4byte	.LASF184
 7945 2224 01       		.byte	0x1
 7946 2225 5B       		.byte	0x5b
ARM GAS  /tmp/ccJ6FnJD.s 			page 141


 7947 2226 0B       		.byte	0xb
 7948 2227 A1020000 		.4byte	0x2a1
 7949 222b 00000000 		.4byte	.LFB219
 7950 222f 7C000000 		.4byte	.LFE219-.LFB219
 7951 2233 01       		.uleb128 0x1
 7952 2234 9C       		.byte	0x9c
 7953 2235 D2220000 		.4byte	0x22d2
 7954 2239 36       		.uleb128 0x36
 7955 223a 747000   		.ascii	"tp\000"
 7956 223d 01       		.byte	0x1
 7957 223e 5B       		.byte	0x5b
 7958 223f 22       		.byte	0x22
 7959 2240 A1020000 		.4byte	0x2a1
 7960 2244 C80F0000 		.4byte	.LLST0
 7961 2248 C40F0000 		.4byte	.LVUS0
 7962 224c 39       		.uleb128 0x39
 7963 224d 4D010000 		.4byte	.LASF180
 7964 2251 01       		.byte	0x1
 7965 2252 5B       		.byte	0x5b
 7966 2253 2E       		.byte	0x2e
 7967 2254 07010000 		.4byte	0x107
 7968 2258 EE0F0000 		.4byte	.LLST1
 7969 225c E60F0000 		.4byte	.LVUS1
 7970 2260 37       		.uleb128 0x37
 7971 2261 06250000 		.4byte	0x2506
 7972 2265 52000000 		.4byte	.LBI107
 7973 2269 06       		.byte	.LVU49
 7974 226a 00000000 		.4byte	.Ldebug_ranges0+0
 7975 226e 01       		.byte	0x1
 7976 226f 78       		.byte	0x78
 7977 2270 03       		.byte	0x3
 7978 2271 7B220000 		.4byte	0x227b
 7979 2275 21       		.uleb128 0x21
 7980 2276 14250000 		.4byte	0x2514
 7981 227a 00       		.byte	0
 7982 227b 37       		.uleb128 0x37
 7983 227c 42250000 		.4byte	0x2542
 7984 2280 52000000 		.4byte	.LBI110
 7985 2284 02       		.byte	.LVU45
 7986 2285 18000000 		.4byte	.Ldebug_ranges0+0x18
 7987 2289 01       		.byte	0x1
 7988 228a 75       		.byte	0x75
 7989 228b 03       		.byte	0x3
 7990 228c 9E220000 		.4byte	0x229e
 7991 2290 20       		.uleb128 0x20
 7992 2291 50250000 		.4byte	0x2550
 7993 2295 29100000 		.4byte	.LLST2
 7994 2299 27100000 		.4byte	.LVUS2
 7995 229d 00       		.byte	0
 7996 229e 25       		.uleb128 0x25
 7997 229f 58000000 		.4byte	.LVL5
 7998 22a3 8A260000 		.4byte	0x268a
 7999 22a7 B3220000 		.4byte	0x22b3
 8000 22ab 26       		.uleb128 0x26
 8001 22ac 01       		.uleb128 0x1
 8002 22ad 50       		.byte	0x50
 8003 22ae 03       		.uleb128 0x3
ARM GAS  /tmp/ccJ6FnJD.s 			page 142


 8004 22af 91       		.byte	0x91
 8005 22b0 64       		.sleb128 -28
 8006 22b1 06       		.byte	0x6
 8007 22b2 00       		.byte	0
 8008 22b3 25       		.uleb128 0x25
 8009 22b4 5E000000 		.4byte	.LVL6
 8010 22b8 96260000 		.4byte	0x2696
 8011 22bc C8220000 		.4byte	0x22c8
 8012 22c0 26       		.uleb128 0x26
 8013 22c1 01       		.uleb128 0x1
 8014 22c2 50       		.byte	0x50
 8015 22c3 03       		.uleb128 0x3
 8016 22c4 91       		.byte	0x91
 8017 22c5 64       		.sleb128 -28
 8018 22c6 06       		.byte	0x6
 8019 22c7 00       		.byte	0
 8020 22c8 28       		.uleb128 0x28
 8021 22c9 72000000 		.4byte	.LVL8
 8022 22cd EC250000 		.4byte	0x25ec
 8023 22d1 00       		.byte	0
 8024 22d2 3E       		.uleb128 0x3e
 8025 22d3 0E080000 		.4byte	.LASF185
 8026 22d7 06       		.byte	0x6
 8027 22d8 3801     		.2byte	0x138
 8028 22da 14       		.byte	0x14
 8029 22db 03       		.byte	0x3
 8030 22dc 16230000 		.4byte	0x2316
 8031 22e0 3F       		.uleb128 0x3f
 8032 22e1 74717000 		.ascii	"tqp\000"
 8033 22e5 06       		.byte	0x6
 8034 22e6 3801     		.2byte	0x138
 8035 22e8 39       		.byte	0x39
 8036 22e9 940B0000 		.4byte	0xb94
 8037 22ed 3F       		.uleb128 0x3f
 8038 22ee 6D736700 		.ascii	"msg\000"
 8039 22f2 06       		.byte	0x6
 8040 22f3 3801     		.2byte	0x138
 8041 22f5 44       		.byte	0x44
 8042 22f6 13010000 		.4byte	0x113
 8043 22fa 40       		.uleb128 0x40
 8044 22fb 747000   		.ascii	"tp\000"
 8045 22fe 06       		.byte	0x6
 8046 22ff 3901     		.2byte	0x139
 8047 2301 0D       		.byte	0xd
 8048 2302 A1020000 		.4byte	0x2a1
 8049 2306 2E       		.uleb128 0x2e
 8050 2307 E9000000 		.4byte	.LASF159
 8051 230b 26230000 		.4byte	0x2326
 8052 230f 05       		.uleb128 0x5
 8053 2310 03       		.byte	0x3
 8054 2311 00000000 		.4byte	__func__.7444
 8055 2315 00       		.byte	0
 8056 2316 18       		.uleb128 0x18
 8057 2317 1E090000 		.4byte	0x91e
 8058 231b 26230000 		.4byte	0x2326
 8059 231f 19       		.uleb128 0x19
 8060 2320 38000000 		.4byte	0x38
ARM GAS  /tmp/ccJ6FnJD.s 			page 143


 8061 2324 13       		.byte	0x13
 8062 2325 00       		.byte	0
 8063 2326 0B       		.uleb128 0xb
 8064 2327 16230000 		.4byte	0x2316
 8065 232b 3E       		.uleb128 0x3e
 8066 232c 99000000 		.4byte	.LASF186
 8067 2330 06       		.byte	0x6
 8068 2331 0801     		.2byte	0x108
 8069 2333 14       		.byte	0x14
 8070 2334 03       		.byte	0x3
 8071 2335 56230000 		.4byte	0x2356
 8072 2339 41       		.uleb128 0x41
 8073 233a 3C080000 		.4byte	.LASF170
 8074 233e 06       		.byte	0x6
 8075 233f 0801     		.2byte	0x108
 8076 2341 2A       		.byte	0x2a
 8077 2342 43010000 		.4byte	0x143
 8078 2346 2E       		.uleb128 0x2e
 8079 2347 E9000000 		.4byte	.LASF159
 8080 234b 66230000 		.4byte	0x2366
 8081 234f 05       		.uleb128 0x5
 8082 2350 03       		.byte	0x3
 8083 2351 00000000 		.4byte	__func__.7432
 8084 2355 00       		.byte	0
 8085 2356 18       		.uleb128 0x18
 8086 2357 1E090000 		.4byte	0x91e
 8087 235b 66230000 		.4byte	0x2366
 8088 235f 19       		.uleb128 0x19
 8089 2360 38000000 		.4byte	0x38
 8090 2364 0B       		.byte	0xb
 8091 2365 00       		.byte	0
 8092 2366 0B       		.uleb128 0xb
 8093 2367 56230000 		.4byte	0x2356
 8094 236b 42       		.uleb128 0x42
 8095 236c 6C050000 		.4byte	.LASF187
 8096 2370 06       		.byte	0x6
 8097 2371 F5       		.byte	0xf5
 8098 2372 19       		.byte	0x19
 8099 2373 A1020000 		.4byte	0x2a1
 8100 2377 03       		.byte	0x3
 8101 2378 97230000 		.4byte	0x2397
 8102 237c 3D       		.uleb128 0x3d
 8103 237d 747000   		.ascii	"tp\000"
 8104 2380 06       		.byte	0x6
 8105 2381 F5       		.byte	0xf5
 8106 2382 2F       		.byte	0x2f
 8107 2383 A1020000 		.4byte	0x2a1
 8108 2387 2E       		.uleb128 0x2e
 8109 2388 E9000000 		.4byte	.LASF159
 8110 238c 66230000 		.4byte	0x2366
 8111 2390 05       		.uleb128 0x5
 8112 2391 03       		.byte	0x3
 8113 2392 00000000 		.4byte	__func__.7428
 8114 2396 00       		.byte	0
 8115 2397 43       		.uleb128 0x43
 8116 2398 BE080000 		.4byte	.LASF191
 8117 239c 06       		.byte	0x6
ARM GAS  /tmp/ccJ6FnJD.s 			page 144


 8118 239d AE       		.byte	0xae
 8119 239e 19       		.byte	0x19
 8120 239f A1020000 		.4byte	0x2a1
 8121 23a3 03       		.byte	0x3
 8122 23a4 44       		.uleb128 0x44
 8123 23a5 2A080000 		.4byte	.LASF188
 8124 23a9 07       		.byte	0x7
 8125 23aa 1C01     		.2byte	0x11c
 8126 23ac 14       		.byte	0x14
 8127 23ad DE230000 		.4byte	0x23de
 8128 23b1 03       		.byte	0x3
 8129 23b2 DE230000 		.4byte	0x23de
 8130 23b6 41       		.uleb128 0x41
 8131 23b7 3C080000 		.4byte	.LASF170
 8132 23bb 07       		.byte	0x7
 8133 23bc 1C01     		.2byte	0x11c
 8134 23be 30       		.byte	0x30
 8135 23bf 43010000 		.4byte	0x143
 8136 23c3 41       		.uleb128 0x41
 8137 23c4 CC080000 		.4byte	.LASF189
 8138 23c8 07       		.byte	0x7
 8139 23c9 1D01     		.2byte	0x11d
 8140 23cb 30       		.byte	0x30
 8141 23cc 43010000 		.4byte	0x143
 8142 23d0 3F       		.uleb128 0x3f
 8143 23d1 656E6400 		.ascii	"end\000"
 8144 23d5 07       		.byte	0x7
 8145 23d6 1E01     		.2byte	0x11e
 8146 23d8 30       		.byte	0x30
 8147 23d9 43010000 		.4byte	0x143
 8148 23dd 00       		.byte	0
 8149 23de 04       		.uleb128 0x4
 8150 23df 01       		.byte	0x1
 8151 23e0 02       		.byte	0x2
 8152 23e1 FC020000 		.4byte	.LASF190
 8153 23e5 43       		.uleb128 0x43
 8154 23e6 CD060000 		.4byte	.LASF192
 8155 23ea 07       		.byte	0x7
 8156 23eb E4       		.byte	0xe4
 8157 23ec 19       		.byte	0x19
 8158 23ed 43010000 		.4byte	0x143
 8159 23f1 03       		.byte	0x3
 8160 23f2 3E       		.uleb128 0x3e
 8161 23f3 15040000 		.4byte	.LASF193
 8162 23f7 03       		.byte	0x3
 8163 23f8 6601     		.2byte	0x166
 8164 23fa 14       		.byte	0x14
 8165 23fb 03       		.byte	0x3
 8166 23fc 10240000 		.4byte	0x2410
 8167 2400 2E       		.uleb128 0x2e
 8168 2401 E9000000 		.4byte	.LASF159
 8169 2405 66230000 		.4byte	0x2366
 8170 2409 05       		.uleb128 0x5
 8171 240a 03       		.byte	0x3
 8172 240b 00000000 		.4byte	__func__.7261
 8173 240f 00       		.byte	0
 8174 2410 45       		.uleb128 0x45
ARM GAS  /tmp/ccJ6FnJD.s 			page 145


 8175 2411 3B040000 		.4byte	.LASF194
 8176 2415 03       		.byte	0x3
 8177 2416 5A01     		.2byte	0x15a
 8178 2418 14       		.byte	0x14
 8179 2419 03       		.byte	0x3
 8180 241a 45       		.uleb128 0x45
 8181 241b 78050000 		.4byte	.LASF195
 8182 241f 02       		.byte	0x2
 8183 2420 E502     		.2byte	0x2e5
 8184 2422 14       		.byte	0x14
 8185 2423 03       		.byte	0x3
 8186 2424 46       		.uleb128 0x46
 8187 2425 BF020000 		.4byte	.LASF196
 8188 2429 02       		.byte	0x2
 8189 242a D702     		.2byte	0x2d7
 8190 242c 14       		.byte	0x14
 8191 242d DE230000 		.4byte	0x23de
 8192 2431 03       		.byte	0x3
 8193 2432 44       		.uleb128 0x44
 8194 2433 F2000000 		.4byte	.LASF197
 8195 2437 02       		.byte	0x2
 8196 2438 9F02     		.2byte	0x29f
 8197 243a 19       		.byte	0x19
 8198 243b A1020000 		.4byte	0x2a1
 8199 243f 03       		.byte	0x3
 8200 2440 5E240000 		.4byte	0x245e
 8201 2444 3F       		.uleb128 0x3f
 8202 2445 74717000 		.ascii	"tqp\000"
 8203 2449 02       		.byte	0x2
 8204 244a 9F02     		.2byte	0x29f
 8205 244c 3C       		.byte	0x3c
 8206 244d 940B0000 		.4byte	0xb94
 8207 2451 40       		.uleb128 0x40
 8208 2452 747000   		.ascii	"tp\000"
 8209 2455 02       		.byte	0x2
 8210 2456 A002     		.2byte	0x2a0
 8211 2458 0D       		.byte	0xd
 8212 2459 A1020000 		.4byte	0x2a1
 8213 245d 00       		.byte	0
 8214 245e 3E       		.uleb128 0x3e
 8215 245f 84060000 		.4byte	.LASF198
 8216 2463 02       		.byte	0x2
 8217 2464 9702     		.2byte	0x297
 8218 2466 14       		.byte	0x14
 8219 2467 03       		.byte	0x3
 8220 2468 86240000 		.4byte	0x2486
 8221 246c 3F       		.uleb128 0x3f
 8222 246d 747000   		.ascii	"tp\000"
 8223 2470 02       		.byte	0x2
 8224 2471 9702     		.2byte	0x297
 8225 2473 2B       		.byte	0x2b
 8226 2474 A1020000 		.4byte	0x2a1
 8227 2478 3F       		.uleb128 0x3f
 8228 2479 74717000 		.ascii	"tqp\000"
 8229 247d 02       		.byte	0x2
 8230 247e 9702     		.2byte	0x297
 8231 2480 40       		.byte	0x40
ARM GAS  /tmp/ccJ6FnJD.s 			page 146


 8232 2481 940B0000 		.4byte	0xb94
 8233 2485 00       		.byte	0
 8234 2486 44       		.uleb128 0x44
 8235 2487 EB040000 		.4byte	.LASF199
 8236 248b 02       		.byte	0x2
 8237 248c 8302     		.2byte	0x283
 8238 248e 19       		.byte	0x19
 8239 248f A1020000 		.4byte	0x2a1
 8240 2493 03       		.byte	0x3
 8241 2494 B2240000 		.4byte	0x24b2
 8242 2498 3F       		.uleb128 0x3f
 8243 2499 746C7000 		.ascii	"tlp\000"
 8244 249d 02       		.byte	0x2
 8245 249e 8302     		.2byte	0x283
 8246 24a0 35       		.byte	0x35
 8247 24a1 B2240000 		.4byte	0x24b2
 8248 24a5 40       		.uleb128 0x40
 8249 24a6 747000   		.ascii	"tp\000"
 8250 24a9 02       		.byte	0x2
 8251 24aa 8502     		.2byte	0x285
 8252 24ac 0D       		.byte	0xd
 8253 24ad A1020000 		.4byte	0x2a1
 8254 24b1 00       		.byte	0
 8255 24b2 0A       		.uleb128 0xa
 8256 24b3 04       		.byte	0x4
 8257 24b4 A7020000 		.4byte	0x2a7
 8258 24b8 3E       		.uleb128 0x3e
 8259 24b9 B5050000 		.4byte	.LASF200
 8260 24bd 02       		.byte	0x2
 8261 24be 7D02     		.2byte	0x27d
 8262 24c0 14       		.byte	0x14
 8263 24c1 03       		.byte	0x3
 8264 24c2 E0240000 		.4byte	0x24e0
 8265 24c6 3F       		.uleb128 0x3f
 8266 24c7 747000   		.ascii	"tp\000"
 8267 24ca 02       		.byte	0x2
 8268 24cb 7D02     		.2byte	0x27d
 8269 24cd 2A       		.byte	0x2a
 8270 24ce A1020000 		.4byte	0x2a1
 8271 24d2 3F       		.uleb128 0x3f
 8272 24d3 746C7000 		.ascii	"tlp\000"
 8273 24d7 02       		.byte	0x2
 8274 24d8 7D02     		.2byte	0x27d
 8275 24da 3E       		.byte	0x3e
 8276 24db B2240000 		.4byte	0x24b2
 8277 24df 00       		.byte	0
 8278 24e0 44       		.uleb128 0x44
 8279 24e1 3E010000 		.4byte	.LASF201
 8280 24e5 02       		.byte	0x2
 8281 24e6 7502     		.2byte	0x275
 8282 24e8 14       		.byte	0x14
 8283 24e9 DE230000 		.4byte	0x23de
 8284 24ed 03       		.byte	0x3
 8285 24ee 00250000 		.4byte	0x2500
 8286 24f2 3F       		.uleb128 0x3f
 8287 24f3 74717000 		.ascii	"tqp\000"
 8288 24f7 02       		.byte	0x2
ARM GAS  /tmp/ccJ6FnJD.s 			page 147


 8289 24f8 7502     		.2byte	0x275
 8290 24fa 3A       		.byte	0x3a
 8291 24fb 00250000 		.4byte	0x2500
 8292 24ff 00       		.byte	0
 8293 2500 0A       		.uleb128 0xa
 8294 2501 04       		.byte	0x4
 8295 2502 DA020000 		.4byte	0x2da
 8296 2506 3E       		.uleb128 0x3e
 8297 2507 29090000 		.4byte	.LASF202
 8298 250b 02       		.byte	0x2
 8299 250c 5A02     		.2byte	0x25a
 8300 250e 14       		.byte	0x14
 8301 250f 03       		.byte	0x3
 8302 2510 22250000 		.4byte	0x2522
 8303 2514 3F       		.uleb128 0x3f
 8304 2515 74717000 		.ascii	"tqp\000"
 8305 2519 02       		.byte	0x2
 8306 251a 5A02     		.2byte	0x25a
 8307 251c 30       		.byte	0x30
 8308 251d 940B0000 		.4byte	0xb94
 8309 2521 00       		.byte	0
 8310 2522 44       		.uleb128 0x44
 8311 2523 D7040000 		.4byte	.LASF203
 8312 2527 02       		.byte	0x2
 8313 2528 4E02     		.2byte	0x24e
 8314 252a 14       		.byte	0x14
 8315 252b DE230000 		.4byte	0x23de
 8316 252f 03       		.byte	0x3
 8317 2530 42250000 		.4byte	0x2542
 8318 2534 3F       		.uleb128 0x3f
 8319 2535 746C7000 		.ascii	"tlp\000"
 8320 2539 02       		.byte	0x2
 8321 253a 4E02     		.2byte	0x24e
 8322 253c 32       		.byte	0x32
 8323 253d B2240000 		.4byte	0x24b2
 8324 2541 00       		.byte	0
 8325 2542 3E       		.uleb128 0x3e
 8326 2543 91060000 		.4byte	.LASF204
 8327 2547 02       		.byte	0x2
 8328 2548 3402     		.2byte	0x234
 8329 254a 14       		.byte	0x14
 8330 254b 03       		.byte	0x3
 8331 254c 5E250000 		.4byte	0x255e
 8332 2550 3F       		.uleb128 0x3f
 8333 2551 746C7000 		.ascii	"tlp\000"
 8334 2555 02       		.byte	0x2
 8335 2556 3402     		.2byte	0x234
 8336 2558 2E       		.byte	0x2e
 8337 2559 B2240000 		.4byte	0x24b2
 8338 255d 00       		.byte	0
 8339 255e 45       		.uleb128 0x45
 8340 255f B7010000 		.4byte	.LASF205
 8341 2563 04       		.byte	0x4
 8342 2564 CA01     		.2byte	0x1ca
 8343 2566 14       		.byte	0x14
 8344 2567 03       		.byte	0x3
 8345 2568 45       		.uleb128 0x45
ARM GAS  /tmp/ccJ6FnJD.s 			page 148


 8346 2569 83080000 		.4byte	.LASF206
 8347 256d 04       		.byte	0x4
 8348 256e BC01     		.2byte	0x1bc
 8349 2570 14       		.byte	0x14
 8350 2571 03       		.byte	0x3
 8351 2572 3E       		.uleb128 0x3e
 8352 2573 FB070000 		.4byte	.LASF207
 8353 2577 05       		.byte	0x5
 8354 2578 2002     		.2byte	0x220
 8355 257a 39       		.byte	0x39
 8356 257b 03       		.byte	0x3
 8357 257c 8E250000 		.4byte	0x258e
 8358 2580 41       		.uleb128 0x41
 8359 2581 20030000 		.4byte	.LASF208
 8360 2585 05       		.byte	0x5
 8361 2586 2002     		.2byte	0x220
 8362 2588 50       		.byte	0x50
 8363 2589 99000000 		.4byte	0x99
 8364 258d 00       		.byte	0
 8365 258e 47       		.uleb128 0x47
 8366 258f EF210000 		.4byte	0x21ef
 8367 2593 00000000 		.4byte	.LFB220
 8368 2597 34000000 		.4byte	.LFE220-.LFB220
 8369 259b 01       		.uleb128 0x1
 8370 259c 9C       		.byte	0x9c
 8371 259d D2250000 		.4byte	0x25d2
 8372 25a1 20       		.uleb128 0x20
 8373 25a2 FC210000 		.4byte	0x21fc
 8374 25a6 42100000 		.4byte	.LLST3
 8375 25aa 3C100000 		.4byte	.LVUS3
 8376 25ae 20       		.uleb128 0x20
 8377 25af 08220000 		.4byte	0x2208
 8378 25b3 71100000 		.4byte	.LLST4
 8379 25b7 6D100000 		.4byte	.LVUS4
 8380 25bb 20       		.uleb128 0x20
 8381 25bc 14220000 		.4byte	0x2214
 8382 25c0 96100000 		.4byte	.LLST5
 8383 25c4 92100000 		.4byte	.LVUS5
 8384 25c8 28       		.uleb128 0x28
 8385 25c9 2E000000 		.4byte	.LVL13
 8386 25cd EC250000 		.4byte	0x25ec
 8387 25d1 00       		.byte	0
 8388 25d2 48       		.uleb128 0x48
 8389 25d3 08090000 		.4byte	.LASF209
 8390 25d7 08090000 		.4byte	.LASF209
 8391 25db 03       		.byte	0x3
 8392 25dc 1601     		.2byte	0x116
 8393 25de 08       		.byte	0x8
 8394 25df 48       		.uleb128 0x48
 8395 25e0 DD000000 		.4byte	.LASF210
 8396 25e4 DD000000 		.4byte	.LASF210
 8397 25e8 02       		.byte	0x2
 8398 25e9 1302     		.2byte	0x213
 8399 25eb 0D       		.byte	0xd
 8400 25ec 49       		.uleb128 0x49
 8401 25ed 17050000 		.4byte	.LASF229
 8402 25f1 17050000 		.4byte	.LASF229
ARM GAS  /tmp/ccJ6FnJD.s 			page 149


 8403 25f5 48       		.uleb128 0x48
 8404 25f6 3C090000 		.4byte	.LASF211
 8405 25fa 3C090000 		.4byte	.LASF211
 8406 25fe 02       		.byte	0x2
 8407 25ff 1502     		.2byte	0x215
 8408 2601 09       		.byte	0x9
 8409 2602 4A       		.uleb128 0x4a
 8410 2603 B5070000 		.4byte	.LASF212
 8411 2607 B5070000 		.4byte	.LASF212
 8412 260b 11       		.byte	0x11
 8413 260c 4F       		.byte	0x4f
 8414 260d 08       		.byte	0x8
 8415 260e 4A       		.uleb128 0x4a
 8416 260f D3070000 		.4byte	.LASF213
 8417 2613 D3070000 		.4byte	.LASF213
 8418 2617 0F       		.byte	0xf
 8419 2618 D8       		.byte	0xd8
 8420 2619 08       		.byte	0x8
 8421 261a 4A       		.uleb128 0x4a
 8422 261b 52010000 		.4byte	.LASF214
 8423 261f 52010000 		.4byte	.LASF214
 8424 2623 0F       		.byte	0xf
 8425 2624 D9       		.byte	0xd9
 8426 2625 08       		.byte	0x8
 8427 2626 4A       		.uleb128 0x4a
 8428 2627 51020000 		.4byte	.LASF215
 8429 262b 51020000 		.4byte	.LASF215
 8430 262f 11       		.byte	0x11
 8431 2630 50       		.byte	0x50
 8432 2631 08       		.byte	0x8
 8433 2632 48       		.uleb128 0x48
 8434 2633 13030000 		.4byte	.LASF216
 8435 2637 13030000 		.4byte	.LASF216
 8436 263b 02       		.byte	0x2
 8437 263c 1602     		.2byte	0x216
 8438 263e 08       		.byte	0x8
 8439 263f 48       		.uleb128 0x48
 8440 2640 7A0B0000 		.4byte	.LASF217
 8441 2644 7A0B0000 		.4byte	.LASF217
 8442 2648 02       		.byte	0x2
 8443 2649 1402     		.2byte	0x214
 8444 264b 08       		.byte	0x8
 8445 264c 4A       		.uleb128 0x4a
 8446 264d 18010000 		.4byte	.LASF218
 8447 2651 18010000 		.4byte	.LASF218
 8448 2655 15       		.byte	0x15
 8449 2656 4B       		.byte	0x4b
 8450 2657 08       		.byte	0x8
 8451 2658 4A       		.uleb128 0x4a
 8452 2659 21020000 		.4byte	.LASF219
 8453 265d 21020000 		.4byte	.LASF219
 8454 2661 0F       		.byte	0xf
 8455 2662 DF       		.byte	0xdf
 8456 2663 08       		.byte	0x8
 8457 2664 48       		.uleb128 0x48
 8458 2665 9D070000 		.4byte	.LASF220
 8459 2669 9D070000 		.4byte	.LASF220
ARM GAS  /tmp/ccJ6FnJD.s 			page 150


 8460 266d 02       		.byte	0x2
 8461 266e 1902     		.2byte	0x219
 8462 2670 08       		.byte	0x8
 8463 2671 48       		.uleb128 0x48
 8464 2672 06050000 		.4byte	.LASF221
 8465 2676 06050000 		.4byte	.LASF221
 8466 267a 02       		.byte	0x2
 8467 267b 1702     		.2byte	0x217
 8468 267d 08       		.byte	0x8
 8469 267e 4A       		.uleb128 0x4a
 8470 267f 02030000 		.4byte	.LASF222
 8471 2683 02030000 		.4byte	.LASF222
 8472 2687 0F       		.byte	0xf
 8473 2688 DE       		.byte	0xde
 8474 2689 08       		.byte	0x8
 8475 268a 4A       		.uleb128 0x4a
 8476 268b 60030000 		.4byte	.LASF223
 8477 268f 60030000 		.4byte	.LASF223
 8478 2693 10       		.byte	0x10
 8479 2694 5C       		.byte	0x5c
 8480 2695 08       		.byte	0x8
 8481 2696 4A       		.uleb128 0x4a
 8482 2697 81030000 		.4byte	.LASF224
 8483 269b 81030000 		.4byte	.LASF224
 8484 269f 10       		.byte	0x10
 8485 26a0 5D       		.byte	0x5d
 8486 26a1 11       		.byte	0x11
 8487 26a2 00       		.byte	0
 8488              		.section	.debug_abbrev,"",%progbits
 8489              	.Ldebug_abbrev0:
 8490 0000 01       		.uleb128 0x1
 8491 0001 11       		.uleb128 0x11
 8492 0002 01       		.byte	0x1
 8493 0003 25       		.uleb128 0x25
 8494 0004 0E       		.uleb128 0xe
 8495 0005 13       		.uleb128 0x13
 8496 0006 0B       		.uleb128 0xb
 8497 0007 03       		.uleb128 0x3
 8498 0008 0E       		.uleb128 0xe
 8499 0009 1B       		.uleb128 0x1b
 8500 000a 0E       		.uleb128 0xe
 8501 000b 55       		.uleb128 0x55
 8502 000c 17       		.uleb128 0x17
 8503 000d 11       		.uleb128 0x11
 8504 000e 01       		.uleb128 0x1
 8505 000f 10       		.uleb128 0x10
 8506 0010 17       		.uleb128 0x17
 8507 0011 00       		.byte	0
 8508 0012 00       		.byte	0
 8509 0013 02       		.uleb128 0x2
 8510 0014 24       		.uleb128 0x24
 8511 0015 00       		.byte	0
 8512 0016 0B       		.uleb128 0xb
 8513 0017 0B       		.uleb128 0xb
 8514 0018 3E       		.uleb128 0x3e
 8515 0019 0B       		.uleb128 0xb
 8516 001a 03       		.uleb128 0x3
ARM GAS  /tmp/ccJ6FnJD.s 			page 151


 8517 001b 08       		.uleb128 0x8
 8518 001c 00       		.byte	0
 8519 001d 00       		.byte	0
 8520 001e 03       		.uleb128 0x3
 8521 001f 16       		.uleb128 0x16
 8522 0020 00       		.byte	0
 8523 0021 03       		.uleb128 0x3
 8524 0022 0E       		.uleb128 0xe
 8525 0023 3A       		.uleb128 0x3a
 8526 0024 0B       		.uleb128 0xb
 8527 0025 3B       		.uleb128 0x3b
 8528 0026 0B       		.uleb128 0xb
 8529 0027 39       		.uleb128 0x39
 8530 0028 0B       		.uleb128 0xb
 8531 0029 49       		.uleb128 0x49
 8532 002a 13       		.uleb128 0x13
 8533 002b 00       		.byte	0
 8534 002c 00       		.byte	0
 8535 002d 04       		.uleb128 0x4
 8536 002e 24       		.uleb128 0x24
 8537 002f 00       		.byte	0
 8538 0030 0B       		.uleb128 0xb
 8539 0031 0B       		.uleb128 0xb
 8540 0032 3E       		.uleb128 0x3e
 8541 0033 0B       		.uleb128 0xb
 8542 0034 03       		.uleb128 0x3
 8543 0035 0E       		.uleb128 0xe
 8544 0036 00       		.byte	0
 8545 0037 00       		.byte	0
 8546 0038 05       		.uleb128 0x5
 8547 0039 35       		.uleb128 0x35
 8548 003a 00       		.byte	0
 8549 003b 49       		.uleb128 0x49
 8550 003c 13       		.uleb128 0x13
 8551 003d 00       		.byte	0
 8552 003e 00       		.byte	0
 8553 003f 06       		.uleb128 0x6
 8554 0040 13       		.uleb128 0x13
 8555 0041 01       		.byte	0x1
 8556 0042 03       		.uleb128 0x3
 8557 0043 0E       		.uleb128 0xe
 8558 0044 0B       		.uleb128 0xb
 8559 0045 0B       		.uleb128 0xb
 8560 0046 3A       		.uleb128 0x3a
 8561 0047 0B       		.uleb128 0xb
 8562 0048 3B       		.uleb128 0x3b
 8563 0049 0B       		.uleb128 0xb
 8564 004a 39       		.uleb128 0x39
 8565 004b 0B       		.uleb128 0xb
 8566 004c 01       		.uleb128 0x1
 8567 004d 13       		.uleb128 0x13
 8568 004e 00       		.byte	0
 8569 004f 00       		.byte	0
 8570 0050 07       		.uleb128 0x7
 8571 0051 0D       		.uleb128 0xd
 8572 0052 00       		.byte	0
 8573 0053 03       		.uleb128 0x3
ARM GAS  /tmp/ccJ6FnJD.s 			page 152


 8574 0054 0E       		.uleb128 0xe
 8575 0055 3A       		.uleb128 0x3a
 8576 0056 0B       		.uleb128 0xb
 8577 0057 3B       		.uleb128 0x3b
 8578 0058 0B       		.uleb128 0xb
 8579 0059 39       		.uleb128 0x39
 8580 005a 0B       		.uleb128 0xb
 8581 005b 49       		.uleb128 0x49
 8582 005c 13       		.uleb128 0x13
 8583 005d 38       		.uleb128 0x38
 8584 005e 0B       		.uleb128 0xb
 8585 005f 00       		.byte	0
 8586 0060 00       		.byte	0
 8587 0061 08       		.uleb128 0x8
 8588 0062 0D       		.uleb128 0xd
 8589 0063 00       		.byte	0
 8590 0064 03       		.uleb128 0x3
 8591 0065 08       		.uleb128 0x8
 8592 0066 3A       		.uleb128 0x3a
 8593 0067 0B       		.uleb128 0xb
 8594 0068 3B       		.uleb128 0x3b
 8595 0069 05       		.uleb128 0x5
 8596 006a 39       		.uleb128 0x39
 8597 006b 0B       		.uleb128 0xb
 8598 006c 49       		.uleb128 0x49
 8599 006d 13       		.uleb128 0x13
 8600 006e 38       		.uleb128 0x38
 8601 006f 0B       		.uleb128 0xb
 8602 0070 00       		.byte	0
 8603 0071 00       		.byte	0
 8604 0072 09       		.uleb128 0x9
 8605 0073 0D       		.uleb128 0xd
 8606 0074 00       		.byte	0
 8607 0075 03       		.uleb128 0x3
 8608 0076 0E       		.uleb128 0xe
 8609 0077 3A       		.uleb128 0x3a
 8610 0078 0B       		.uleb128 0xb
 8611 0079 3B       		.uleb128 0x3b
 8612 007a 05       		.uleb128 0x5
 8613 007b 39       		.uleb128 0x39
 8614 007c 0B       		.uleb128 0xb
 8615 007d 49       		.uleb128 0x49
 8616 007e 13       		.uleb128 0x13
 8617 007f 38       		.uleb128 0x38
 8618 0080 0B       		.uleb128 0xb
 8619 0081 00       		.byte	0
 8620 0082 00       		.byte	0
 8621 0083 0A       		.uleb128 0xa
 8622 0084 0F       		.uleb128 0xf
 8623 0085 00       		.byte	0
 8624 0086 0B       		.uleb128 0xb
 8625 0087 0B       		.uleb128 0xb
 8626 0088 49       		.uleb128 0x49
 8627 0089 13       		.uleb128 0x13
 8628 008a 00       		.byte	0
 8629 008b 00       		.byte	0
 8630 008c 0B       		.uleb128 0xb
ARM GAS  /tmp/ccJ6FnJD.s 			page 153


 8631 008d 26       		.uleb128 0x26
 8632 008e 00       		.byte	0
 8633 008f 49       		.uleb128 0x49
 8634 0090 13       		.uleb128 0x13
 8635 0091 00       		.byte	0
 8636 0092 00       		.byte	0
 8637 0093 0C       		.uleb128 0xc
 8638 0094 13       		.uleb128 0x13
 8639 0095 01       		.byte	0x1
 8640 0096 03       		.uleb128 0x3
 8641 0097 0E       		.uleb128 0xe
 8642 0098 0B       		.uleb128 0xb
 8643 0099 0B       		.uleb128 0xb
 8644 009a 3A       		.uleb128 0x3a
 8645 009b 0B       		.uleb128 0xb
 8646 009c 3B       		.uleb128 0x3b
 8647 009d 05       		.uleb128 0x5
 8648 009e 39       		.uleb128 0x39
 8649 009f 0B       		.uleb128 0xb
 8650 00a0 01       		.uleb128 0x1
 8651 00a1 13       		.uleb128 0x13
 8652 00a2 00       		.byte	0
 8653 00a3 00       		.byte	0
 8654 00a4 0D       		.uleb128 0xd
 8655 00a5 15       		.uleb128 0x15
 8656 00a6 01       		.byte	0x1
 8657 00a7 27       		.uleb128 0x27
 8658 00a8 19       		.uleb128 0x19
 8659 00a9 01       		.uleb128 0x1
 8660 00aa 13       		.uleb128 0x13
 8661 00ab 00       		.byte	0
 8662 00ac 00       		.byte	0
 8663 00ad 0E       		.uleb128 0xe
 8664 00ae 05       		.uleb128 0x5
 8665 00af 00       		.byte	0
 8666 00b0 49       		.uleb128 0x49
 8667 00b1 13       		.uleb128 0x13
 8668 00b2 00       		.byte	0
 8669 00b3 00       		.byte	0
 8670 00b4 0F       		.uleb128 0xf
 8671 00b5 0F       		.uleb128 0xf
 8672 00b6 00       		.byte	0
 8673 00b7 0B       		.uleb128 0xb
 8674 00b8 0B       		.uleb128 0xb
 8675 00b9 00       		.byte	0
 8676 00ba 00       		.byte	0
 8677 00bb 10       		.uleb128 0x10
 8678 00bc 13       		.uleb128 0x13
 8679 00bd 01       		.byte	0x1
 8680 00be 03       		.uleb128 0x3
 8681 00bf 0E       		.uleb128 0xe
 8682 00c0 0B       		.uleb128 0xb
 8683 00c1 05       		.uleb128 0x5
 8684 00c2 3A       		.uleb128 0x3a
 8685 00c3 0B       		.uleb128 0xb
 8686 00c4 3B       		.uleb128 0x3b
 8687 00c5 05       		.uleb128 0x5
ARM GAS  /tmp/ccJ6FnJD.s 			page 154


 8688 00c6 39       		.uleb128 0x39
 8689 00c7 0B       		.uleb128 0xb
 8690 00c8 01       		.uleb128 0x1
 8691 00c9 13       		.uleb128 0x13
 8692 00ca 00       		.byte	0
 8693 00cb 00       		.byte	0
 8694 00cc 11       		.uleb128 0x11
 8695 00cd 0D       		.uleb128 0xd
 8696 00ce 00       		.byte	0
 8697 00cf 03       		.uleb128 0x3
 8698 00d0 0E       		.uleb128 0xe
 8699 00d1 3A       		.uleb128 0x3a
 8700 00d2 0B       		.uleb128 0xb
 8701 00d3 3B       		.uleb128 0x3b
 8702 00d4 05       		.uleb128 0x5
 8703 00d5 39       		.uleb128 0x39
 8704 00d6 0B       		.uleb128 0xb
 8705 00d7 49       		.uleb128 0x49
 8706 00d8 13       		.uleb128 0x13
 8707 00d9 38       		.uleb128 0x38
 8708 00da 05       		.uleb128 0x5
 8709 00db 00       		.byte	0
 8710 00dc 00       		.byte	0
 8711 00dd 12       		.uleb128 0x12
 8712 00de 0D       		.uleb128 0xd
 8713 00df 00       		.byte	0
 8714 00e0 03       		.uleb128 0x3
 8715 00e1 08       		.uleb128 0x8
 8716 00e2 3A       		.uleb128 0x3a
 8717 00e3 0B       		.uleb128 0xb
 8718 00e4 3B       		.uleb128 0x3b
 8719 00e5 05       		.uleb128 0x5
 8720 00e6 39       		.uleb128 0x39
 8721 00e7 0B       		.uleb128 0xb
 8722 00e8 49       		.uleb128 0x49
 8723 00e9 13       		.uleb128 0x13
 8724 00ea 38       		.uleb128 0x38
 8725 00eb 05       		.uleb128 0x5
 8726 00ec 00       		.byte	0
 8727 00ed 00       		.byte	0
 8728 00ee 13       		.uleb128 0x13
 8729 00ef 34       		.uleb128 0x34
 8730 00f0 00       		.byte	0
 8731 00f1 03       		.uleb128 0x3
 8732 00f2 0E       		.uleb128 0xe
 8733 00f3 3A       		.uleb128 0x3a
 8734 00f4 0B       		.uleb128 0xb
 8735 00f5 3B       		.uleb128 0x3b
 8736 00f6 05       		.uleb128 0x5
 8737 00f7 39       		.uleb128 0x39
 8738 00f8 0B       		.uleb128 0xb
 8739 00f9 49       		.uleb128 0x49
 8740 00fa 13       		.uleb128 0x13
 8741 00fb 3F       		.uleb128 0x3f
 8742 00fc 19       		.uleb128 0x19
 8743 00fd 3C       		.uleb128 0x3c
 8744 00fe 19       		.uleb128 0x19
ARM GAS  /tmp/ccJ6FnJD.s 			page 155


 8745 00ff 00       		.byte	0
 8746 0100 00       		.byte	0
 8747 0101 14       		.uleb128 0x14
 8748 0102 34       		.uleb128 0x34
 8749 0103 00       		.byte	0
 8750 0104 03       		.uleb128 0x3
 8751 0105 0E       		.uleb128 0xe
 8752 0106 3A       		.uleb128 0x3a
 8753 0107 0B       		.uleb128 0xb
 8754 0108 3B       		.uleb128 0x3b
 8755 0109 0B       		.uleb128 0xb
 8756 010a 39       		.uleb128 0x39
 8757 010b 0B       		.uleb128 0xb
 8758 010c 49       		.uleb128 0x49
 8759 010d 13       		.uleb128 0x13
 8760 010e 3F       		.uleb128 0x3f
 8761 010f 19       		.uleb128 0x19
 8762 0110 3C       		.uleb128 0x3c
 8763 0111 19       		.uleb128 0x19
 8764 0112 00       		.byte	0
 8765 0113 00       		.byte	0
 8766 0114 15       		.uleb128 0x15
 8767 0115 0D       		.uleb128 0xd
 8768 0116 00       		.byte	0
 8769 0117 03       		.uleb128 0x3
 8770 0118 08       		.uleb128 0x8
 8771 0119 3A       		.uleb128 0x3a
 8772 011a 0B       		.uleb128 0xb
 8773 011b 3B       		.uleb128 0x3b
 8774 011c 0B       		.uleb128 0xb
 8775 011d 39       		.uleb128 0x39
 8776 011e 0B       		.uleb128 0xb
 8777 011f 49       		.uleb128 0x49
 8778 0120 13       		.uleb128 0x13
 8779 0121 38       		.uleb128 0x38
 8780 0122 0B       		.uleb128 0xb
 8781 0123 00       		.byte	0
 8782 0124 00       		.byte	0
 8783 0125 16       		.uleb128 0x16
 8784 0126 13       		.uleb128 0x13
 8785 0127 01       		.byte	0x1
 8786 0128 0B       		.uleb128 0xb
 8787 0129 0B       		.uleb128 0xb
 8788 012a 3A       		.uleb128 0x3a
 8789 012b 0B       		.uleb128 0xb
 8790 012c 3B       		.uleb128 0x3b
 8791 012d 0B       		.uleb128 0xb
 8792 012e 39       		.uleb128 0x39
 8793 012f 0B       		.uleb128 0xb
 8794 0130 01       		.uleb128 0x1
 8795 0131 13       		.uleb128 0x13
 8796 0132 00       		.byte	0
 8797 0133 00       		.byte	0
 8798 0134 17       		.uleb128 0x17
 8799 0135 13       		.uleb128 0x13
 8800 0136 01       		.byte	0x1
 8801 0137 0B       		.uleb128 0xb
ARM GAS  /tmp/ccJ6FnJD.s 			page 156


 8802 0138 05       		.uleb128 0x5
 8803 0139 3A       		.uleb128 0x3a
 8804 013a 0B       		.uleb128 0xb
 8805 013b 3B       		.uleb128 0x3b
 8806 013c 0B       		.uleb128 0xb
 8807 013d 39       		.uleb128 0x39
 8808 013e 0B       		.uleb128 0xb
 8809 013f 01       		.uleb128 0x1
 8810 0140 13       		.uleb128 0x13
 8811 0141 00       		.byte	0
 8812 0142 00       		.byte	0
 8813 0143 18       		.uleb128 0x18
 8814 0144 01       		.uleb128 0x1
 8815 0145 01       		.byte	0x1
 8816 0146 49       		.uleb128 0x49
 8817 0147 13       		.uleb128 0x13
 8818 0148 01       		.uleb128 0x1
 8819 0149 13       		.uleb128 0x13
 8820 014a 00       		.byte	0
 8821 014b 00       		.byte	0
 8822 014c 19       		.uleb128 0x19
 8823 014d 21       		.uleb128 0x21
 8824 014e 00       		.byte	0
 8825 014f 49       		.uleb128 0x49
 8826 0150 13       		.uleb128 0x13
 8827 0151 2F       		.uleb128 0x2f
 8828 0152 0B       		.uleb128 0xb
 8829 0153 00       		.byte	0
 8830 0154 00       		.byte	0
 8831 0155 1A       		.uleb128 0x1a
 8832 0156 17       		.uleb128 0x17
 8833 0157 01       		.byte	0x1
 8834 0158 0B       		.uleb128 0xb
 8835 0159 0B       		.uleb128 0xb
 8836 015a 3A       		.uleb128 0x3a
 8837 015b 0B       		.uleb128 0xb
 8838 015c 3B       		.uleb128 0x3b
 8839 015d 0B       		.uleb128 0xb
 8840 015e 39       		.uleb128 0x39
 8841 015f 0B       		.uleb128 0xb
 8842 0160 01       		.uleb128 0x1
 8843 0161 13       		.uleb128 0x13
 8844 0162 00       		.byte	0
 8845 0163 00       		.byte	0
 8846 0164 1B       		.uleb128 0x1b
 8847 0165 0D       		.uleb128 0xd
 8848 0166 00       		.byte	0
 8849 0167 03       		.uleb128 0x3
 8850 0168 0E       		.uleb128 0xe
 8851 0169 3A       		.uleb128 0x3a
 8852 016a 0B       		.uleb128 0xb
 8853 016b 3B       		.uleb128 0x3b
 8854 016c 05       		.uleb128 0x5
 8855 016d 39       		.uleb128 0x39
 8856 016e 0B       		.uleb128 0xb
 8857 016f 49       		.uleb128 0x49
 8858 0170 13       		.uleb128 0x13
ARM GAS  /tmp/ccJ6FnJD.s 			page 157


 8859 0171 00       		.byte	0
 8860 0172 00       		.byte	0
 8861 0173 1C       		.uleb128 0x1c
 8862 0174 34       		.uleb128 0x34
 8863 0175 00       		.byte	0
 8864 0176 03       		.uleb128 0x3
 8865 0177 08       		.uleb128 0x8
 8866 0178 3A       		.uleb128 0x3a
 8867 0179 0B       		.uleb128 0xb
 8868 017a 3B       		.uleb128 0x3b
 8869 017b 05       		.uleb128 0x5
 8870 017c 39       		.uleb128 0x39
 8871 017d 0B       		.uleb128 0xb
 8872 017e 49       		.uleb128 0x49
 8873 017f 13       		.uleb128 0x13
 8874 0180 3F       		.uleb128 0x3f
 8875 0181 19       		.uleb128 0x19
 8876 0182 3C       		.uleb128 0x3c
 8877 0183 19       		.uleb128 0x19
 8878 0184 00       		.byte	0
 8879 0185 00       		.byte	0
 8880 0186 1D       		.uleb128 0x1d
 8881 0187 2E       		.uleb128 0x2e
 8882 0188 01       		.byte	0x1
 8883 0189 3F       		.uleb128 0x3f
 8884 018a 19       		.uleb128 0x19
 8885 018b 03       		.uleb128 0x3
 8886 018c 0E       		.uleb128 0xe
 8887 018d 3A       		.uleb128 0x3a
 8888 018e 0B       		.uleb128 0xb
 8889 018f 3B       		.uleb128 0x3b
 8890 0190 05       		.uleb128 0x5
 8891 0191 39       		.uleb128 0x39
 8892 0192 0B       		.uleb128 0xb
 8893 0193 27       		.uleb128 0x27
 8894 0194 19       		.uleb128 0x19
 8895 0195 11       		.uleb128 0x11
 8896 0196 01       		.uleb128 0x1
 8897 0197 12       		.uleb128 0x12
 8898 0198 06       		.uleb128 0x6
 8899 0199 40       		.uleb128 0x40
 8900 019a 18       		.uleb128 0x18
 8901 019b 9742     		.uleb128 0x2117
 8902 019d 19       		.uleb128 0x19
 8903 019e 01       		.uleb128 0x1
 8904 019f 13       		.uleb128 0x13
 8905 01a0 00       		.byte	0
 8906 01a1 00       		.byte	0
 8907 01a2 1E       		.uleb128 0x1e
 8908 01a3 05       		.uleb128 0x5
 8909 01a4 00       		.byte	0
 8910 01a5 03       		.uleb128 0x3
 8911 01a6 08       		.uleb128 0x8
 8912 01a7 3A       		.uleb128 0x3a
 8913 01a8 0B       		.uleb128 0xb
 8914 01a9 3B       		.uleb128 0x3b
 8915 01aa 05       		.uleb128 0x5
ARM GAS  /tmp/ccJ6FnJD.s 			page 158


 8916 01ab 39       		.uleb128 0x39
 8917 01ac 0B       		.uleb128 0xb
 8918 01ad 49       		.uleb128 0x49
 8919 01ae 13       		.uleb128 0x13
 8920 01af 02       		.uleb128 0x2
 8921 01b0 17       		.uleb128 0x17
 8922 01b1 B742     		.uleb128 0x2137
 8923 01b3 17       		.uleb128 0x17
 8924 01b4 00       		.byte	0
 8925 01b5 00       		.byte	0
 8926 01b6 1F       		.uleb128 0x1f
 8927 01b7 1D       		.uleb128 0x1d
 8928 01b8 01       		.byte	0x1
 8929 01b9 31       		.uleb128 0x31
 8930 01ba 13       		.uleb128 0x13
 8931 01bb 52       		.uleb128 0x52
 8932 01bc 01       		.uleb128 0x1
 8933 01bd B842     		.uleb128 0x2138
 8934 01bf 0B       		.uleb128 0xb
 8935 01c0 55       		.uleb128 0x55
 8936 01c1 17       		.uleb128 0x17
 8937 01c2 58       		.uleb128 0x58
 8938 01c3 0B       		.uleb128 0xb
 8939 01c4 59       		.uleb128 0x59
 8940 01c5 05       		.uleb128 0x5
 8941 01c6 57       		.uleb128 0x57
 8942 01c7 0B       		.uleb128 0xb
 8943 01c8 01       		.uleb128 0x1
 8944 01c9 13       		.uleb128 0x13
 8945 01ca 00       		.byte	0
 8946 01cb 00       		.byte	0
 8947 01cc 20       		.uleb128 0x20
 8948 01cd 05       		.uleb128 0x5
 8949 01ce 00       		.byte	0
 8950 01cf 31       		.uleb128 0x31
 8951 01d0 13       		.uleb128 0x13
 8952 01d1 02       		.uleb128 0x2
 8953 01d2 17       		.uleb128 0x17
 8954 01d3 B742     		.uleb128 0x2137
 8955 01d5 17       		.uleb128 0x17
 8956 01d6 00       		.byte	0
 8957 01d7 00       		.byte	0
 8958 01d8 21       		.uleb128 0x21
 8959 01d9 05       		.uleb128 0x5
 8960 01da 00       		.byte	0
 8961 01db 31       		.uleb128 0x31
 8962 01dc 13       		.uleb128 0x13
 8963 01dd 00       		.byte	0
 8964 01de 00       		.byte	0
 8965 01df 22       		.uleb128 0x22
 8966 01e0 0B       		.uleb128 0xb
 8967 01e1 01       		.byte	0x1
 8968 01e2 55       		.uleb128 0x55
 8969 01e3 17       		.uleb128 0x17
 8970 01e4 00       		.byte	0
 8971 01e5 00       		.byte	0
 8972 01e6 23       		.uleb128 0x23
ARM GAS  /tmp/ccJ6FnJD.s 			page 159


 8973 01e7 34       		.uleb128 0x34
 8974 01e8 00       		.byte	0
 8975 01e9 31       		.uleb128 0x31
 8976 01ea 13       		.uleb128 0x13
 8977 01eb 02       		.uleb128 0x2
 8978 01ec 17       		.uleb128 0x17
 8979 01ed B742     		.uleb128 0x2137
 8980 01ef 17       		.uleb128 0x17
 8981 01f0 00       		.byte	0
 8982 01f1 00       		.byte	0
 8983 01f2 24       		.uleb128 0x24
 8984 01f3 1D       		.uleb128 0x1d
 8985 01f4 01       		.byte	0x1
 8986 01f5 31       		.uleb128 0x31
 8987 01f6 13       		.uleb128 0x13
 8988 01f7 52       		.uleb128 0x52
 8989 01f8 01       		.uleb128 0x1
 8990 01f9 B842     		.uleb128 0x2138
 8991 01fb 0B       		.uleb128 0xb
 8992 01fc 11       		.uleb128 0x11
 8993 01fd 01       		.uleb128 0x1
 8994 01fe 12       		.uleb128 0x12
 8995 01ff 06       		.uleb128 0x6
 8996 0200 58       		.uleb128 0x58
 8997 0201 0B       		.uleb128 0xb
 8998 0202 59       		.uleb128 0x59
 8999 0203 05       		.uleb128 0x5
 9000 0204 57       		.uleb128 0x57
 9001 0205 0B       		.uleb128 0xb
 9002 0206 01       		.uleb128 0x1
 9003 0207 13       		.uleb128 0x13
 9004 0208 00       		.byte	0
 9005 0209 00       		.byte	0
 9006 020a 25       		.uleb128 0x25
 9007 020b 898201   		.uleb128 0x4109
 9008 020e 01       		.byte	0x1
 9009 020f 11       		.uleb128 0x11
 9010 0210 01       		.uleb128 0x1
 9011 0211 31       		.uleb128 0x31
 9012 0212 13       		.uleb128 0x13
 9013 0213 01       		.uleb128 0x1
 9014 0214 13       		.uleb128 0x13
 9015 0215 00       		.byte	0
 9016 0216 00       		.byte	0
 9017 0217 26       		.uleb128 0x26
 9018 0218 8A8201   		.uleb128 0x410a
 9019 021b 00       		.byte	0
 9020 021c 02       		.uleb128 0x2
 9021 021d 18       		.uleb128 0x18
 9022 021e 9142     		.uleb128 0x2111
 9023 0220 18       		.uleb128 0x18
 9024 0221 00       		.byte	0
 9025 0222 00       		.byte	0
 9026 0223 27       		.uleb128 0x27
 9027 0224 898201   		.uleb128 0x4109
 9028 0227 01       		.byte	0x1
 9029 0228 11       		.uleb128 0x11
ARM GAS  /tmp/ccJ6FnJD.s 			page 160


 9030 0229 01       		.uleb128 0x1
 9031 022a 31       		.uleb128 0x31
 9032 022b 13       		.uleb128 0x13
 9033 022c 00       		.byte	0
 9034 022d 00       		.byte	0
 9035 022e 28       		.uleb128 0x28
 9036 022f 898201   		.uleb128 0x4109
 9037 0232 00       		.byte	0
 9038 0233 11       		.uleb128 0x11
 9039 0234 01       		.uleb128 0x1
 9040 0235 31       		.uleb128 0x31
 9041 0236 13       		.uleb128 0x13
 9042 0237 00       		.byte	0
 9043 0238 00       		.byte	0
 9044 0239 29       		.uleb128 0x29
 9045 023a 898201   		.uleb128 0x4109
 9046 023d 00       		.byte	0
 9047 023e 11       		.uleb128 0x11
 9048 023f 01       		.uleb128 0x1
 9049 0240 9542     		.uleb128 0x2115
 9050 0242 19       		.uleb128 0x19
 9051 0243 31       		.uleb128 0x31
 9052 0244 13       		.uleb128 0x13
 9053 0245 00       		.byte	0
 9054 0246 00       		.byte	0
 9055 0247 2A       		.uleb128 0x2a
 9056 0248 2E       		.uleb128 0x2e
 9057 0249 01       		.byte	0x1
 9058 024a 3F       		.uleb128 0x3f
 9059 024b 19       		.uleb128 0x19
 9060 024c 03       		.uleb128 0x3
 9061 024d 0E       		.uleb128 0xe
 9062 024e 3A       		.uleb128 0x3a
 9063 024f 0B       		.uleb128 0xb
 9064 0250 3B       		.uleb128 0x3b
 9065 0251 05       		.uleb128 0x5
 9066 0252 39       		.uleb128 0x39
 9067 0253 0B       		.uleb128 0xb
 9068 0254 27       		.uleb128 0x27
 9069 0255 19       		.uleb128 0x19
 9070 0256 49       		.uleb128 0x49
 9071 0257 13       		.uleb128 0x13
 9072 0258 11       		.uleb128 0x11
 9073 0259 01       		.uleb128 0x1
 9074 025a 12       		.uleb128 0x12
 9075 025b 06       		.uleb128 0x6
 9076 025c 40       		.uleb128 0x40
 9077 025d 18       		.uleb128 0x18
 9078 025e 9742     		.uleb128 0x2117
 9079 0260 19       		.uleb128 0x19
 9080 0261 01       		.uleb128 0x1
 9081 0262 13       		.uleb128 0x13
 9082 0263 00       		.byte	0
 9083 0264 00       		.byte	0
 9084 0265 2B       		.uleb128 0x2b
 9085 0266 05       		.uleb128 0x5
 9086 0267 00       		.byte	0
ARM GAS  /tmp/ccJ6FnJD.s 			page 161


 9087 0268 03       		.uleb128 0x3
 9088 0269 0E       		.uleb128 0xe
 9089 026a 3A       		.uleb128 0x3a
 9090 026b 0B       		.uleb128 0xb
 9091 026c 3B       		.uleb128 0x3b
 9092 026d 05       		.uleb128 0x5
 9093 026e 39       		.uleb128 0x39
 9094 026f 0B       		.uleb128 0xb
 9095 0270 49       		.uleb128 0x49
 9096 0271 13       		.uleb128 0x13
 9097 0272 02       		.uleb128 0x2
 9098 0273 17       		.uleb128 0x17
 9099 0274 B742     		.uleb128 0x2137
 9100 0276 17       		.uleb128 0x17
 9101 0277 00       		.byte	0
 9102 0278 00       		.byte	0
 9103 0279 2C       		.uleb128 0x2c
 9104 027a 898201   		.uleb128 0x4109
 9105 027d 01       		.byte	0x1
 9106 027e 11       		.uleb128 0x11
 9107 027f 01       		.uleb128 0x1
 9108 0280 9542     		.uleb128 0x2115
 9109 0282 19       		.uleb128 0x19
 9110 0283 31       		.uleb128 0x31
 9111 0284 13       		.uleb128 0x13
 9112 0285 01       		.uleb128 0x1
 9113 0286 13       		.uleb128 0x13
 9114 0287 00       		.byte	0
 9115 0288 00       		.byte	0
 9116 0289 2D       		.uleb128 0x2d
 9117 028a 1D       		.uleb128 0x1d
 9118 028b 01       		.byte	0x1
 9119 028c 31       		.uleb128 0x31
 9120 028d 13       		.uleb128 0x13
 9121 028e 52       		.uleb128 0x52
 9122 028f 01       		.uleb128 0x1
 9123 0290 B842     		.uleb128 0x2138
 9124 0292 0B       		.uleb128 0xb
 9125 0293 11       		.uleb128 0x11
 9126 0294 01       		.uleb128 0x1
 9127 0295 12       		.uleb128 0x12
 9128 0296 06       		.uleb128 0x6
 9129 0297 58       		.uleb128 0x58
 9130 0298 0B       		.uleb128 0xb
 9131 0299 59       		.uleb128 0x59
 9132 029a 05       		.uleb128 0x5
 9133 029b 57       		.uleb128 0x57
 9134 029c 0B       		.uleb128 0xb
 9135 029d 00       		.byte	0
 9136 029e 00       		.byte	0
 9137 029f 2E       		.uleb128 0x2e
 9138 02a0 34       		.uleb128 0x34
 9139 02a1 00       		.byte	0
 9140 02a2 03       		.uleb128 0x3
 9141 02a3 0E       		.uleb128 0xe
 9142 02a4 49       		.uleb128 0x49
 9143 02a5 13       		.uleb128 0x13
ARM GAS  /tmp/ccJ6FnJD.s 			page 162


 9144 02a6 34       		.uleb128 0x34
 9145 02a7 19       		.uleb128 0x19
 9146 02a8 02       		.uleb128 0x2
 9147 02a9 18       		.uleb128 0x18
 9148 02aa 00       		.byte	0
 9149 02ab 00       		.byte	0
 9150 02ac 2F       		.uleb128 0x2f
 9151 02ad 0B       		.uleb128 0xb
 9152 02ae 01       		.byte	0x1
 9153 02af 55       		.uleb128 0x55
 9154 02b0 17       		.uleb128 0x17
 9155 02b1 01       		.uleb128 0x1
 9156 02b2 13       		.uleb128 0x13
 9157 02b3 00       		.byte	0
 9158 02b4 00       		.byte	0
 9159 02b5 30       		.uleb128 0x30
 9160 02b6 34       		.uleb128 0x34
 9161 02b7 00       		.byte	0
 9162 02b8 03       		.uleb128 0x3
 9163 02b9 08       		.uleb128 0x8
 9164 02ba 3A       		.uleb128 0x3a
 9165 02bb 0B       		.uleb128 0xb
 9166 02bc 3B       		.uleb128 0x3b
 9167 02bd 05       		.uleb128 0x5
 9168 02be 39       		.uleb128 0x39
 9169 02bf 0B       		.uleb128 0xb
 9170 02c0 49       		.uleb128 0x49
 9171 02c1 13       		.uleb128 0x13
 9172 02c2 02       		.uleb128 0x2
 9173 02c3 17       		.uleb128 0x17
 9174 02c4 B742     		.uleb128 0x2137
 9175 02c6 17       		.uleb128 0x17
 9176 02c7 00       		.byte	0
 9177 02c8 00       		.byte	0
 9178 02c9 31       		.uleb128 0x31
 9179 02ca 1D       		.uleb128 0x1d
 9180 02cb 00       		.byte	0
 9181 02cc 31       		.uleb128 0x31
 9182 02cd 13       		.uleb128 0x13
 9183 02ce 52       		.uleb128 0x52
 9184 02cf 01       		.uleb128 0x1
 9185 02d0 B842     		.uleb128 0x2138
 9186 02d2 0B       		.uleb128 0xb
 9187 02d3 55       		.uleb128 0x55
 9188 02d4 17       		.uleb128 0x17
 9189 02d5 58       		.uleb128 0x58
 9190 02d6 0B       		.uleb128 0xb
 9191 02d7 59       		.uleb128 0x59
 9192 02d8 05       		.uleb128 0x5
 9193 02d9 57       		.uleb128 0x57
 9194 02da 0B       		.uleb128 0xb
 9195 02db 00       		.byte	0
 9196 02dc 00       		.byte	0
 9197 02dd 32       		.uleb128 0x32
 9198 02de 1D       		.uleb128 0x1d
 9199 02df 00       		.byte	0
 9200 02e0 31       		.uleb128 0x31
ARM GAS  /tmp/ccJ6FnJD.s 			page 163


 9201 02e1 13       		.uleb128 0x13
 9202 02e2 52       		.uleb128 0x52
 9203 02e3 01       		.uleb128 0x1
 9204 02e4 B842     		.uleb128 0x2138
 9205 02e6 0B       		.uleb128 0xb
 9206 02e7 11       		.uleb128 0x11
 9207 02e8 01       		.uleb128 0x1
 9208 02e9 12       		.uleb128 0x12
 9209 02ea 06       		.uleb128 0x6
 9210 02eb 58       		.uleb128 0x58
 9211 02ec 0B       		.uleb128 0xb
 9212 02ed 59       		.uleb128 0x59
 9213 02ee 05       		.uleb128 0x5
 9214 02ef 57       		.uleb128 0x57
 9215 02f0 0B       		.uleb128 0xb
 9216 02f1 00       		.byte	0
 9217 02f2 00       		.byte	0
 9218 02f3 33       		.uleb128 0x33
 9219 02f4 1D       		.uleb128 0x1d
 9220 02f5 01       		.byte	0x1
 9221 02f6 31       		.uleb128 0x31
 9222 02f7 13       		.uleb128 0x13
 9223 02f8 52       		.uleb128 0x52
 9224 02f9 01       		.uleb128 0x1
 9225 02fa B842     		.uleb128 0x2138
 9226 02fc 0B       		.uleb128 0xb
 9227 02fd 55       		.uleb128 0x55
 9228 02fe 17       		.uleb128 0x17
 9229 02ff 58       		.uleb128 0x58
 9230 0300 0B       		.uleb128 0xb
 9231 0301 59       		.uleb128 0x59
 9232 0302 05       		.uleb128 0x5
 9233 0303 57       		.uleb128 0x57
 9234 0304 0B       		.uleb128 0xb
 9235 0305 00       		.byte	0
 9236 0306 00       		.byte	0
 9237 0307 34       		.uleb128 0x34
 9238 0308 34       		.uleb128 0x34
 9239 0309 00       		.byte	0
 9240 030a 03       		.uleb128 0x3
 9241 030b 0E       		.uleb128 0xe
 9242 030c 3A       		.uleb128 0x3a
 9243 030d 0B       		.uleb128 0xb
 9244 030e 3B       		.uleb128 0x3b
 9245 030f 05       		.uleb128 0x5
 9246 0310 39       		.uleb128 0x39
 9247 0311 0B       		.uleb128 0xb
 9248 0312 49       		.uleb128 0x49
 9249 0313 13       		.uleb128 0x13
 9250 0314 02       		.uleb128 0x2
 9251 0315 17       		.uleb128 0x17
 9252 0316 B742     		.uleb128 0x2137
 9253 0318 17       		.uleb128 0x17
 9254 0319 00       		.byte	0
 9255 031a 00       		.byte	0
 9256 031b 35       		.uleb128 0x35
 9257 031c 2E       		.uleb128 0x2e
ARM GAS  /tmp/ccJ6FnJD.s 			page 164


 9258 031d 01       		.byte	0x1
 9259 031e 3F       		.uleb128 0x3f
 9260 031f 19       		.uleb128 0x19
 9261 0320 03       		.uleb128 0x3
 9262 0321 0E       		.uleb128 0xe
 9263 0322 3A       		.uleb128 0x3a
 9264 0323 0B       		.uleb128 0xb
 9265 0324 3B       		.uleb128 0x3b
 9266 0325 0B       		.uleb128 0xb
 9267 0326 39       		.uleb128 0x39
 9268 0327 0B       		.uleb128 0xb
 9269 0328 27       		.uleb128 0x27
 9270 0329 19       		.uleb128 0x19
 9271 032a 49       		.uleb128 0x49
 9272 032b 13       		.uleb128 0x13
 9273 032c 11       		.uleb128 0x11
 9274 032d 01       		.uleb128 0x1
 9275 032e 12       		.uleb128 0x12
 9276 032f 06       		.uleb128 0x6
 9277 0330 40       		.uleb128 0x40
 9278 0331 18       		.uleb128 0x18
 9279 0332 9742     		.uleb128 0x2117
 9280 0334 19       		.uleb128 0x19
 9281 0335 01       		.uleb128 0x1
 9282 0336 13       		.uleb128 0x13
 9283 0337 00       		.byte	0
 9284 0338 00       		.byte	0
 9285 0339 36       		.uleb128 0x36
 9286 033a 05       		.uleb128 0x5
 9287 033b 00       		.byte	0
 9288 033c 03       		.uleb128 0x3
 9289 033d 08       		.uleb128 0x8
 9290 033e 3A       		.uleb128 0x3a
 9291 033f 0B       		.uleb128 0xb
 9292 0340 3B       		.uleb128 0x3b
 9293 0341 0B       		.uleb128 0xb
 9294 0342 39       		.uleb128 0x39
 9295 0343 0B       		.uleb128 0xb
 9296 0344 49       		.uleb128 0x49
 9297 0345 13       		.uleb128 0x13
 9298 0346 02       		.uleb128 0x2
 9299 0347 17       		.uleb128 0x17
 9300 0348 B742     		.uleb128 0x2137
 9301 034a 17       		.uleb128 0x17
 9302 034b 00       		.byte	0
 9303 034c 00       		.byte	0
 9304 034d 37       		.uleb128 0x37
 9305 034e 1D       		.uleb128 0x1d
 9306 034f 01       		.byte	0x1
 9307 0350 31       		.uleb128 0x31
 9308 0351 13       		.uleb128 0x13
 9309 0352 52       		.uleb128 0x52
 9310 0353 01       		.uleb128 0x1
 9311 0354 B842     		.uleb128 0x2138
 9312 0356 0B       		.uleb128 0xb
 9313 0357 55       		.uleb128 0x55
 9314 0358 17       		.uleb128 0x17
ARM GAS  /tmp/ccJ6FnJD.s 			page 165


 9315 0359 58       		.uleb128 0x58
 9316 035a 0B       		.uleb128 0xb
 9317 035b 59       		.uleb128 0x59
 9318 035c 0B       		.uleb128 0xb
 9319 035d 57       		.uleb128 0x57
 9320 035e 0B       		.uleb128 0xb
 9321 035f 01       		.uleb128 0x1
 9322 0360 13       		.uleb128 0x13
 9323 0361 00       		.byte	0
 9324 0362 00       		.byte	0
 9325 0363 38       		.uleb128 0x38
 9326 0364 1D       		.uleb128 0x1d
 9327 0365 01       		.byte	0x1
 9328 0366 31       		.uleb128 0x31
 9329 0367 13       		.uleb128 0x13
 9330 0368 52       		.uleb128 0x52
 9331 0369 01       		.uleb128 0x1
 9332 036a B842     		.uleb128 0x2138
 9333 036c 0B       		.uleb128 0xb
 9334 036d 11       		.uleb128 0x11
 9335 036e 01       		.uleb128 0x1
 9336 036f 12       		.uleb128 0x12
 9337 0370 06       		.uleb128 0x6
 9338 0371 58       		.uleb128 0x58
 9339 0372 0B       		.uleb128 0xb
 9340 0373 59       		.uleb128 0x59
 9341 0374 0B       		.uleb128 0xb
 9342 0375 57       		.uleb128 0x57
 9343 0376 0B       		.uleb128 0xb
 9344 0377 01       		.uleb128 0x1
 9345 0378 13       		.uleb128 0x13
 9346 0379 00       		.byte	0
 9347 037a 00       		.byte	0
 9348 037b 39       		.uleb128 0x39
 9349 037c 05       		.uleb128 0x5
 9350 037d 00       		.byte	0
 9351 037e 03       		.uleb128 0x3
 9352 037f 0E       		.uleb128 0xe
 9353 0380 3A       		.uleb128 0x3a
 9354 0381 0B       		.uleb128 0xb
 9355 0382 3B       		.uleb128 0x3b
 9356 0383 0B       		.uleb128 0xb
 9357 0384 39       		.uleb128 0x39
 9358 0385 0B       		.uleb128 0xb
 9359 0386 49       		.uleb128 0x49
 9360 0387 13       		.uleb128 0x13
 9361 0388 02       		.uleb128 0x2
 9362 0389 17       		.uleb128 0x17
 9363 038a B742     		.uleb128 0x2137
 9364 038c 17       		.uleb128 0x17
 9365 038d 00       		.byte	0
 9366 038e 00       		.byte	0
 9367 038f 3A       		.uleb128 0x3a
 9368 0390 34       		.uleb128 0x34
 9369 0391 00       		.byte	0
 9370 0392 03       		.uleb128 0x3
 9371 0393 08       		.uleb128 0x8
ARM GAS  /tmp/ccJ6FnJD.s 			page 166


 9372 0394 3A       		.uleb128 0x3a
 9373 0395 0B       		.uleb128 0xb
 9374 0396 3B       		.uleb128 0x3b
 9375 0397 0B       		.uleb128 0xb
 9376 0398 39       		.uleb128 0x39
 9377 0399 0B       		.uleb128 0xb
 9378 039a 49       		.uleb128 0x49
 9379 039b 13       		.uleb128 0x13
 9380 039c 02       		.uleb128 0x2
 9381 039d 17       		.uleb128 0x17
 9382 039e B742     		.uleb128 0x2137
 9383 03a0 17       		.uleb128 0x17
 9384 03a1 00       		.byte	0
 9385 03a2 00       		.byte	0
 9386 03a3 3B       		.uleb128 0x3b
 9387 03a4 2E       		.uleb128 0x2e
 9388 03a5 01       		.byte	0x1
 9389 03a6 3F       		.uleb128 0x3f
 9390 03a7 19       		.uleb128 0x19
 9391 03a8 03       		.uleb128 0x3
 9392 03a9 0E       		.uleb128 0xe
 9393 03aa 3A       		.uleb128 0x3a
 9394 03ab 0B       		.uleb128 0xb
 9395 03ac 3B       		.uleb128 0x3b
 9396 03ad 0B       		.uleb128 0xb
 9397 03ae 39       		.uleb128 0x39
 9398 03af 0B       		.uleb128 0xb
 9399 03b0 27       		.uleb128 0x27
 9400 03b1 19       		.uleb128 0x19
 9401 03b2 20       		.uleb128 0x20
 9402 03b3 0B       		.uleb128 0xb
 9403 03b4 01       		.uleb128 0x1
 9404 03b5 13       		.uleb128 0x13
 9405 03b6 00       		.byte	0
 9406 03b7 00       		.byte	0
 9407 03b8 3C       		.uleb128 0x3c
 9408 03b9 05       		.uleb128 0x5
 9409 03ba 00       		.byte	0
 9410 03bb 03       		.uleb128 0x3
 9411 03bc 0E       		.uleb128 0xe
 9412 03bd 3A       		.uleb128 0x3a
 9413 03be 0B       		.uleb128 0xb
 9414 03bf 3B       		.uleb128 0x3b
 9415 03c0 0B       		.uleb128 0xb
 9416 03c1 39       		.uleb128 0x39
 9417 03c2 0B       		.uleb128 0xb
 9418 03c3 49       		.uleb128 0x49
 9419 03c4 13       		.uleb128 0x13
 9420 03c5 00       		.byte	0
 9421 03c6 00       		.byte	0
 9422 03c7 3D       		.uleb128 0x3d
 9423 03c8 05       		.uleb128 0x5
 9424 03c9 00       		.byte	0
 9425 03ca 03       		.uleb128 0x3
 9426 03cb 08       		.uleb128 0x8
 9427 03cc 3A       		.uleb128 0x3a
 9428 03cd 0B       		.uleb128 0xb
ARM GAS  /tmp/ccJ6FnJD.s 			page 167


 9429 03ce 3B       		.uleb128 0x3b
 9430 03cf 0B       		.uleb128 0xb
 9431 03d0 39       		.uleb128 0x39
 9432 03d1 0B       		.uleb128 0xb
 9433 03d2 49       		.uleb128 0x49
 9434 03d3 13       		.uleb128 0x13
 9435 03d4 00       		.byte	0
 9436 03d5 00       		.byte	0
 9437 03d6 3E       		.uleb128 0x3e
 9438 03d7 2E       		.uleb128 0x2e
 9439 03d8 01       		.byte	0x1
 9440 03d9 03       		.uleb128 0x3
 9441 03da 0E       		.uleb128 0xe
 9442 03db 3A       		.uleb128 0x3a
 9443 03dc 0B       		.uleb128 0xb
 9444 03dd 3B       		.uleb128 0x3b
 9445 03de 05       		.uleb128 0x5
 9446 03df 39       		.uleb128 0x39
 9447 03e0 0B       		.uleb128 0xb
 9448 03e1 27       		.uleb128 0x27
 9449 03e2 19       		.uleb128 0x19
 9450 03e3 20       		.uleb128 0x20
 9451 03e4 0B       		.uleb128 0xb
 9452 03e5 01       		.uleb128 0x1
 9453 03e6 13       		.uleb128 0x13
 9454 03e7 00       		.byte	0
 9455 03e8 00       		.byte	0
 9456 03e9 3F       		.uleb128 0x3f
 9457 03ea 05       		.uleb128 0x5
 9458 03eb 00       		.byte	0
 9459 03ec 03       		.uleb128 0x3
 9460 03ed 08       		.uleb128 0x8
 9461 03ee 3A       		.uleb128 0x3a
 9462 03ef 0B       		.uleb128 0xb
 9463 03f0 3B       		.uleb128 0x3b
 9464 03f1 05       		.uleb128 0x5
 9465 03f2 39       		.uleb128 0x39
 9466 03f3 0B       		.uleb128 0xb
 9467 03f4 49       		.uleb128 0x49
 9468 03f5 13       		.uleb128 0x13
 9469 03f6 00       		.byte	0
 9470 03f7 00       		.byte	0
 9471 03f8 40       		.uleb128 0x40
 9472 03f9 34       		.uleb128 0x34
 9473 03fa 00       		.byte	0
 9474 03fb 03       		.uleb128 0x3
 9475 03fc 08       		.uleb128 0x8
 9476 03fd 3A       		.uleb128 0x3a
 9477 03fe 0B       		.uleb128 0xb
 9478 03ff 3B       		.uleb128 0x3b
 9479 0400 05       		.uleb128 0x5
 9480 0401 39       		.uleb128 0x39
 9481 0402 0B       		.uleb128 0xb
 9482 0403 49       		.uleb128 0x49
 9483 0404 13       		.uleb128 0x13
 9484 0405 00       		.byte	0
 9485 0406 00       		.byte	0
ARM GAS  /tmp/ccJ6FnJD.s 			page 168


 9486 0407 41       		.uleb128 0x41
 9487 0408 05       		.uleb128 0x5
 9488 0409 00       		.byte	0
 9489 040a 03       		.uleb128 0x3
 9490 040b 0E       		.uleb128 0xe
 9491 040c 3A       		.uleb128 0x3a
 9492 040d 0B       		.uleb128 0xb
 9493 040e 3B       		.uleb128 0x3b
 9494 040f 05       		.uleb128 0x5
 9495 0410 39       		.uleb128 0x39
 9496 0411 0B       		.uleb128 0xb
 9497 0412 49       		.uleb128 0x49
 9498 0413 13       		.uleb128 0x13
 9499 0414 00       		.byte	0
 9500 0415 00       		.byte	0
 9501 0416 42       		.uleb128 0x42
 9502 0417 2E       		.uleb128 0x2e
 9503 0418 01       		.byte	0x1
 9504 0419 03       		.uleb128 0x3
 9505 041a 0E       		.uleb128 0xe
 9506 041b 3A       		.uleb128 0x3a
 9507 041c 0B       		.uleb128 0xb
 9508 041d 3B       		.uleb128 0x3b
 9509 041e 0B       		.uleb128 0xb
 9510 041f 39       		.uleb128 0x39
 9511 0420 0B       		.uleb128 0xb
 9512 0421 27       		.uleb128 0x27
 9513 0422 19       		.uleb128 0x19
 9514 0423 49       		.uleb128 0x49
 9515 0424 13       		.uleb128 0x13
 9516 0425 20       		.uleb128 0x20
 9517 0426 0B       		.uleb128 0xb
 9518 0427 01       		.uleb128 0x1
 9519 0428 13       		.uleb128 0x13
 9520 0429 00       		.byte	0
 9521 042a 00       		.byte	0
 9522 042b 43       		.uleb128 0x43
 9523 042c 2E       		.uleb128 0x2e
 9524 042d 00       		.byte	0
 9525 042e 03       		.uleb128 0x3
 9526 042f 0E       		.uleb128 0xe
 9527 0430 3A       		.uleb128 0x3a
 9528 0431 0B       		.uleb128 0xb
 9529 0432 3B       		.uleb128 0x3b
 9530 0433 0B       		.uleb128 0xb
 9531 0434 39       		.uleb128 0x39
 9532 0435 0B       		.uleb128 0xb
 9533 0436 27       		.uleb128 0x27
 9534 0437 19       		.uleb128 0x19
 9535 0438 49       		.uleb128 0x49
 9536 0439 13       		.uleb128 0x13
 9537 043a 20       		.uleb128 0x20
 9538 043b 0B       		.uleb128 0xb
 9539 043c 00       		.byte	0
 9540 043d 00       		.byte	0
 9541 043e 44       		.uleb128 0x44
 9542 043f 2E       		.uleb128 0x2e
ARM GAS  /tmp/ccJ6FnJD.s 			page 169


 9543 0440 01       		.byte	0x1
 9544 0441 03       		.uleb128 0x3
 9545 0442 0E       		.uleb128 0xe
 9546 0443 3A       		.uleb128 0x3a
 9547 0444 0B       		.uleb128 0xb
 9548 0445 3B       		.uleb128 0x3b
 9549 0446 05       		.uleb128 0x5
 9550 0447 39       		.uleb128 0x39
 9551 0448 0B       		.uleb128 0xb
 9552 0449 27       		.uleb128 0x27
 9553 044a 19       		.uleb128 0x19
 9554 044b 49       		.uleb128 0x49
 9555 044c 13       		.uleb128 0x13
 9556 044d 20       		.uleb128 0x20
 9557 044e 0B       		.uleb128 0xb
 9558 044f 01       		.uleb128 0x1
 9559 0450 13       		.uleb128 0x13
 9560 0451 00       		.byte	0
 9561 0452 00       		.byte	0
 9562 0453 45       		.uleb128 0x45
 9563 0454 2E       		.uleb128 0x2e
 9564 0455 00       		.byte	0
 9565 0456 03       		.uleb128 0x3
 9566 0457 0E       		.uleb128 0xe
 9567 0458 3A       		.uleb128 0x3a
 9568 0459 0B       		.uleb128 0xb
 9569 045a 3B       		.uleb128 0x3b
 9570 045b 05       		.uleb128 0x5
 9571 045c 39       		.uleb128 0x39
 9572 045d 0B       		.uleb128 0xb
 9573 045e 27       		.uleb128 0x27
 9574 045f 19       		.uleb128 0x19
 9575 0460 20       		.uleb128 0x20
 9576 0461 0B       		.uleb128 0xb
 9577 0462 00       		.byte	0
 9578 0463 00       		.byte	0
 9579 0464 46       		.uleb128 0x46
 9580 0465 2E       		.uleb128 0x2e
 9581 0466 00       		.byte	0
 9582 0467 03       		.uleb128 0x3
 9583 0468 0E       		.uleb128 0xe
 9584 0469 3A       		.uleb128 0x3a
 9585 046a 0B       		.uleb128 0xb
 9586 046b 3B       		.uleb128 0x3b
 9587 046c 05       		.uleb128 0x5
 9588 046d 39       		.uleb128 0x39
 9589 046e 0B       		.uleb128 0xb
 9590 046f 27       		.uleb128 0x27
 9591 0470 19       		.uleb128 0x19
 9592 0471 49       		.uleb128 0x49
 9593 0472 13       		.uleb128 0x13
 9594 0473 20       		.uleb128 0x20
 9595 0474 0B       		.uleb128 0xb
 9596 0475 00       		.byte	0
 9597 0476 00       		.byte	0
 9598 0477 47       		.uleb128 0x47
 9599 0478 2E       		.uleb128 0x2e
ARM GAS  /tmp/ccJ6FnJD.s 			page 170


 9600 0479 01       		.byte	0x1
 9601 047a 31       		.uleb128 0x31
 9602 047b 13       		.uleb128 0x13
 9603 047c 11       		.uleb128 0x11
 9604 047d 01       		.uleb128 0x1
 9605 047e 12       		.uleb128 0x12
 9606 047f 06       		.uleb128 0x6
 9607 0480 40       		.uleb128 0x40
 9608 0481 18       		.uleb128 0x18
 9609 0482 9742     		.uleb128 0x2117
 9610 0484 19       		.uleb128 0x19
 9611 0485 01       		.uleb128 0x1
 9612 0486 13       		.uleb128 0x13
 9613 0487 00       		.byte	0
 9614 0488 00       		.byte	0
 9615 0489 48       		.uleb128 0x48
 9616 048a 2E       		.uleb128 0x2e
 9617 048b 00       		.byte	0
 9618 048c 3F       		.uleb128 0x3f
 9619 048d 19       		.uleb128 0x19
 9620 048e 3C       		.uleb128 0x3c
 9621 048f 19       		.uleb128 0x19
 9622 0490 6E       		.uleb128 0x6e
 9623 0491 0E       		.uleb128 0xe
 9624 0492 03       		.uleb128 0x3
 9625 0493 0E       		.uleb128 0xe
 9626 0494 3A       		.uleb128 0x3a
 9627 0495 0B       		.uleb128 0xb
 9628 0496 3B       		.uleb128 0x3b
 9629 0497 05       		.uleb128 0x5
 9630 0498 39       		.uleb128 0x39
 9631 0499 0B       		.uleb128 0xb
 9632 049a 00       		.byte	0
 9633 049b 00       		.byte	0
 9634 049c 49       		.uleb128 0x49
 9635 049d 2E       		.uleb128 0x2e
 9636 049e 00       		.byte	0
 9637 049f 3F       		.uleb128 0x3f
 9638 04a0 19       		.uleb128 0x19
 9639 04a1 3C       		.uleb128 0x3c
 9640 04a2 19       		.uleb128 0x19
 9641 04a3 6E       		.uleb128 0x6e
 9642 04a4 0E       		.uleb128 0xe
 9643 04a5 03       		.uleb128 0x3
 9644 04a6 0E       		.uleb128 0xe
 9645 04a7 00       		.byte	0
 9646 04a8 00       		.byte	0
 9647 04a9 4A       		.uleb128 0x4a
 9648 04aa 2E       		.uleb128 0x2e
 9649 04ab 00       		.byte	0
 9650 04ac 3F       		.uleb128 0x3f
 9651 04ad 19       		.uleb128 0x19
 9652 04ae 3C       		.uleb128 0x3c
 9653 04af 19       		.uleb128 0x19
 9654 04b0 6E       		.uleb128 0x6e
 9655 04b1 0E       		.uleb128 0xe
 9656 04b2 03       		.uleb128 0x3
ARM GAS  /tmp/ccJ6FnJD.s 			page 171


 9657 04b3 0E       		.uleb128 0xe
 9658 04b4 3A       		.uleb128 0x3a
 9659 04b5 0B       		.uleb128 0xb
 9660 04b6 3B       		.uleb128 0x3b
 9661 04b7 0B       		.uleb128 0xb
 9662 04b8 39       		.uleb128 0x39
 9663 04b9 0B       		.uleb128 0xb
 9664 04ba 00       		.byte	0
 9665 04bb 00       		.byte	0
 9666 04bc 00       		.byte	0
 9667              		.section	.debug_loc,"",%progbits
 9668              	.Ldebug_loc0:
 9669              	.LVUS96:
 9670 0000 00       		.uleb128 0
 9671 0001 00       		.uleb128 .LVU860
 9672 0002 00       		.uleb128 .LVU860
 9673 0003 00       		.uleb128 .LVU896
 9674 0004 00       		.uleb128 .LVU896
 9675 0005 00       		.uleb128 0
 9676              	.LLST96:
 9677 0006 00000000 		.4byte	.LVL270
 9678 000a 1A000000 		.4byte	.LVL272
 9679 000e 0100     		.2byte	0x1
 9680 0010 50       		.byte	0x50
 9681 0011 1A000000 		.4byte	.LVL272
 9682 0015 3C000000 		.4byte	.LVL277
 9683 0019 0100     		.2byte	0x1
 9684 001b 55       		.byte	0x55
 9685 001c 3C000000 		.4byte	.LVL277
 9686 0020 58000000 		.4byte	.LFE240
 9687 0024 0400     		.2byte	0x4
 9688 0026 F3       		.byte	0xf3
 9689 0027 01       		.uleb128 0x1
 9690 0028 50       		.byte	0x50
 9691 0029 9F       		.byte	0x9f
 9692 002a 00000000 		.4byte	0
 9693 002e 00000000 		.4byte	0
 9694              	.LVUS97:
 9695 0032 00       		.uleb128 0
 9696 0033 00       		.uleb128 .LVU860
 9697 0034 00       		.uleb128 .LVU860
 9698 0035 00       		.uleb128 .LVU896
 9699 0036 00       		.uleb128 .LVU896
 9700 0037 00       		.uleb128 0
 9701              	.LLST97:
 9702 0038 00000000 		.4byte	.LVL270
 9703 003c 1A000000 		.4byte	.LVL272
 9704 0040 0100     		.2byte	0x1
 9705 0042 51       		.byte	0x51
 9706 0043 1A000000 		.4byte	.LVL272
 9707 0047 3C000000 		.4byte	.LVL277
 9708 004b 0100     		.2byte	0x1
 9709 004d 56       		.byte	0x56
 9710 004e 3C000000 		.4byte	.LVL277
 9711 0052 58000000 		.4byte	.LFE240
 9712 0056 0400     		.2byte	0x4
 9713 0058 F3       		.byte	0xf3
ARM GAS  /tmp/ccJ6FnJD.s 			page 172


 9714 0059 01       		.uleb128 0x1
 9715 005a 51       		.byte	0x51
 9716 005b 9F       		.byte	0x9f
 9717 005c 00000000 		.4byte	0
 9718 0060 00000000 		.4byte	0
 9719              	.LVUS98:
 9720 0064 02       		.uleb128 .LVU855
 9721 0065 04       		.uleb128 .LVU857
 9722 0066 02       		.uleb128 .LVU891
 9723 0067 00       		.uleb128 .LVU894
 9724              	.LLST98:
 9725 0068 12000000 		.4byte	.LVL271
 9726 006c 12000000 		.4byte	.LVL271
 9727 0070 0100     		.2byte	0x1
 9728 0072 50       		.byte	0x50
 9729 0073 36000000 		.4byte	.LVL275
 9730 0077 38000000 		.4byte	.LVL276
 9731 007b 0100     		.2byte	0x1
 9732 007d 55       		.byte	0x55
 9733 007e 00000000 		.4byte	0
 9734 0082 00000000 		.4byte	0
 9735              	.LVUS99:
 9736 0086 02       		.uleb128 .LVU862
 9737 0087 00       		.uleb128 .LVU889
 9738              	.LLST99:
 9739 0088 1A000000 		.4byte	.LVL272
 9740 008c 36000000 		.4byte	.LVL275
 9741 0090 0100     		.2byte	0x1
 9742 0092 55       		.byte	0x55
 9743 0093 00000000 		.4byte	0
 9744 0097 00000000 		.4byte	0
 9745              	.LVUS100:
 9746 009b 01       		.uleb128 .LVU879
 9747 009c 00       		.uleb128 .LVU894
 9748              	.LLST100:
 9749 009d 20000000 		.4byte	.LVL273
 9750 00a1 38000000 		.4byte	.LVL276
 9751 00a5 0100     		.2byte	0x1
 9752 00a7 54       		.byte	0x54
 9753 00a8 00000000 		.4byte	0
 9754 00ac 00000000 		.4byte	0
 9755              	.LVUS101:
 9756 00b0 0B       		.uleb128 .LVU871
 9757 00b1 01       		.uleb128 .LVU879
 9758              	.LLST101:
 9759 00b2 1A000000 		.4byte	.LVL272
 9760 00b6 20000000 		.4byte	.LVL273
 9761 00ba 0100     		.2byte	0x1
 9762 00bc 55       		.byte	0x55
 9763 00bd 00000000 		.4byte	0
 9764 00c1 00000000 		.4byte	0
 9765              	.LVUS102:
 9766 00c5 0D       		.uleb128 .LVU873
 9767 00c6 01       		.uleb128 .LVU879
 9768              	.LLST102:
 9769 00c7 1A000000 		.4byte	.LVL272
 9770 00cb 20000000 		.4byte	.LVL273
ARM GAS  /tmp/ccJ6FnJD.s 			page 173


 9771 00cf 0100     		.2byte	0x1
 9772 00d1 54       		.byte	0x54
 9773 00d2 00000000 		.4byte	0
 9774 00d6 00000000 		.4byte	0
 9775              	.LVUS88:
 9776 00da 00       		.uleb128 0
 9777 00db 00       		.uleb128 .LVU832
 9778 00dc 00       		.uleb128 .LVU832
 9779 00dd 00       		.uleb128 .LVU841
 9780 00de 00       		.uleb128 .LVU841
 9781 00df 00       		.uleb128 .LVU842
 9782 00e0 00       		.uleb128 .LVU842
 9783 00e1 00       		.uleb128 .LVU844
 9784 00e2 00       		.uleb128 .LVU844
 9785 00e3 00       		.uleb128 .LVU846
 9786 00e4 00       		.uleb128 .LVU846
 9787 00e5 00       		.uleb128 0
 9788              	.LLST88:
 9789 00e6 00000000 		.4byte	.LVL259
 9790 00ea 24000000 		.4byte	.LVL262
 9791 00ee 0100     		.2byte	0x1
 9792 00f0 50       		.byte	0x50
 9793 00f1 24000000 		.4byte	.LVL262
 9794 00f5 3C000000 		.4byte	.LVL264
 9795 00f9 0400     		.2byte	0x4
 9796 00fb F3       		.byte	0xf3
 9797 00fc 01       		.uleb128 0x1
 9798 00fd 50       		.byte	0x50
 9799 00fe 9F       		.byte	0x9f
 9800 00ff 3C000000 		.4byte	.LVL264
 9801 0103 3E000000 		.4byte	.LVL265
 9802 0107 0100     		.2byte	0x1
 9803 0109 50       		.byte	0x50
 9804 010a 3E000000 		.4byte	.LVL265
 9805 010e 44000000 		.4byte	.LVL267
 9806 0112 0400     		.2byte	0x4
 9807 0114 F3       		.byte	0xf3
 9808 0115 01       		.uleb128 0x1
 9809 0116 50       		.byte	0x50
 9810 0117 9F       		.byte	0x9f
 9811 0118 44000000 		.4byte	.LVL267
 9812 011c 52000000 		.4byte	.LVL268
 9813 0120 0100     		.2byte	0x1
 9814 0122 50       		.byte	0x50
 9815 0123 52000000 		.4byte	.LVL268
 9816 0127 60000000 		.4byte	.LFE239
 9817 012b 0400     		.2byte	0x4
 9818 012d F3       		.byte	0xf3
 9819 012e 01       		.uleb128 0x1
 9820 012f 50       		.byte	0x50
 9821 0130 9F       		.byte	0x9f
 9822 0131 00000000 		.4byte	0
 9823 0135 00000000 		.4byte	0
 9824              	.LVUS89:
 9825 0139 00       		.uleb128 0
 9826 013a 00       		.uleb128 .LVU832
 9827 013b 00       		.uleb128 .LVU832
ARM GAS  /tmp/ccJ6FnJD.s 			page 174


 9828 013c 00       		.uleb128 .LVU840
 9829 013d 00       		.uleb128 .LVU840
 9830 013e 00       		.uleb128 .LVU841
 9831 013f 00       		.uleb128 .LVU841
 9832 0140 00       		.uleb128 .LVU841
 9833 0141 00       		.uleb128 .LVU841
 9834 0142 00       		.uleb128 .LVU843
 9835 0143 00       		.uleb128 .LVU843
 9836 0144 00       		.uleb128 .LVU844
 9837 0145 00       		.uleb128 .LVU844
 9838 0146 00       		.uleb128 .LVU846
 9839 0147 00       		.uleb128 .LVU846
 9840 0148 00       		.uleb128 0
 9841              	.LLST89:
 9842 0149 00000000 		.4byte	.LVL259
 9843 014d 24000000 		.4byte	.LVL262
 9844 0151 0100     		.2byte	0x1
 9845 0153 51       		.byte	0x51
 9846 0154 24000000 		.4byte	.LVL262
 9847 0158 38000000 		.4byte	.LVL263
 9848 015c 0100     		.2byte	0x1
 9849 015e 55       		.byte	0x55
 9850 015f 38000000 		.4byte	.LVL263
 9851 0163 3B000000 		.4byte	.LVL264-1
 9852 0167 0200     		.2byte	0x2
 9853 0169 70       		.byte	0x70
 9854 016a 28       		.sleb128 40
 9855 016b 3B000000 		.4byte	.LVL264-1
 9856 016f 3C000000 		.4byte	.LVL264
 9857 0173 0400     		.2byte	0x4
 9858 0175 F3       		.byte	0xf3
 9859 0176 01       		.uleb128 0x1
 9860 0177 51       		.byte	0x51
 9861 0178 9F       		.byte	0x9f
 9862 0179 3C000000 		.4byte	.LVL264
 9863 017d 41000000 		.4byte	.LVL266-1
 9864 0181 0100     		.2byte	0x1
 9865 0183 51       		.byte	0x51
 9866 0184 41000000 		.4byte	.LVL266-1
 9867 0188 44000000 		.4byte	.LVL267
 9868 018c 0100     		.2byte	0x1
 9869 018e 55       		.byte	0x55
 9870 018f 44000000 		.4byte	.LVL267
 9871 0193 52000000 		.4byte	.LVL268
 9872 0197 0100     		.2byte	0x1
 9873 0199 51       		.byte	0x51
 9874 019a 52000000 		.4byte	.LVL268
 9875 019e 60000000 		.4byte	.LFE239
 9876 01a2 0400     		.2byte	0x4
 9877 01a4 F3       		.byte	0xf3
 9878 01a5 01       		.uleb128 0x1
 9879 01a6 51       		.byte	0x51
 9880 01a7 9F       		.byte	0x9f
 9881 01a8 00000000 		.4byte	0
 9882 01ac 00000000 		.4byte	0
 9883              	.LVUS90:
 9884 01b0 01       		.uleb128 .LVU805
ARM GAS  /tmp/ccJ6FnJD.s 			page 175


 9885 01b1 03       		.uleb128 .LVU807
 9886              	.LLST90:
 9887 01b2 12000000 		.4byte	.LVL260
 9888 01b6 12000000 		.4byte	.LVL260
 9889 01ba 0100     		.2byte	0x1
 9890 01bc 50       		.byte	0x50
 9891 01bd 00000000 		.4byte	0
 9892 01c1 00000000 		.4byte	0
 9893              	.LVUS91:
 9894 01c5 01       		.uleb128 .LVU814
 9895 01c6 00       		.uleb128 .LVU832
 9896 01c7 00       		.uleb128 .LVU832
 9897 01c8 00       		.uleb128 .LVU840
 9898 01c9 00       		.uleb128 .LVU840
 9899 01ca 00       		.uleb128 .LVU841
 9900 01cb 00       		.uleb128 .LVU841
 9901 01cc 00       		.uleb128 .LVU841
 9902 01cd 00       		.uleb128 .LVU841
 9903 01ce 00       		.uleb128 .LVU843
 9904 01cf 00       		.uleb128 .LVU843
 9905 01d0 00       		.uleb128 .LVU844
 9906              	.LLST91:
 9907 01d1 22000000 		.4byte	.LVL261
 9908 01d5 24000000 		.4byte	.LVL262
 9909 01d9 0100     		.2byte	0x1
 9910 01db 51       		.byte	0x51
 9911 01dc 24000000 		.4byte	.LVL262
 9912 01e0 38000000 		.4byte	.LVL263
 9913 01e4 0100     		.2byte	0x1
 9914 01e6 55       		.byte	0x55
 9915 01e7 38000000 		.4byte	.LVL263
 9916 01eb 3B000000 		.4byte	.LVL264-1
 9917 01ef 0200     		.2byte	0x2
 9918 01f1 70       		.byte	0x70
 9919 01f2 28       		.sleb128 40
 9920 01f3 3B000000 		.4byte	.LVL264-1
 9921 01f7 3C000000 		.4byte	.LVL264
 9922 01fb 0400     		.2byte	0x4
 9923 01fd F3       		.byte	0xf3
 9924 01fe 01       		.uleb128 0x1
 9925 01ff 51       		.byte	0x51
 9926 0200 9F       		.byte	0x9f
 9927 0201 3C000000 		.4byte	.LVL264
 9928 0205 41000000 		.4byte	.LVL266-1
 9929 0209 0100     		.2byte	0x1
 9930 020b 51       		.byte	0x51
 9931 020c 41000000 		.4byte	.LVL266-1
 9932 0210 44000000 		.4byte	.LVL267
 9933 0214 0100     		.2byte	0x1
 9934 0216 55       		.byte	0x55
 9935 0217 00000000 		.4byte	0
 9936 021b 00000000 		.4byte	0
 9937              	.LVUS92:
 9938 021f 01       		.uleb128 .LVU814
 9939 0220 00       		.uleb128 .LVU832
 9940 0221 00       		.uleb128 .LVU832
 9941 0222 00       		.uleb128 .LVU841
ARM GAS  /tmp/ccJ6FnJD.s 			page 176


 9942 0223 00       		.uleb128 .LVU841
 9943 0224 00       		.uleb128 .LVU842
 9944 0225 00       		.uleb128 .LVU842
 9945 0226 00       		.uleb128 .LVU844
 9946              	.LLST92:
 9947 0227 22000000 		.4byte	.LVL261
 9948 022b 24000000 		.4byte	.LVL262
 9949 022f 0100     		.2byte	0x1
 9950 0231 50       		.byte	0x50
 9951 0232 24000000 		.4byte	.LVL262
 9952 0236 3C000000 		.4byte	.LVL264
 9953 023a 0400     		.2byte	0x4
 9954 023c F3       		.byte	0xf3
 9955 023d 01       		.uleb128 0x1
 9956 023e 50       		.byte	0x50
 9957 023f 9F       		.byte	0x9f
 9958 0240 3C000000 		.4byte	.LVL264
 9959 0244 3E000000 		.4byte	.LVL265
 9960 0248 0100     		.2byte	0x1
 9961 024a 50       		.byte	0x50
 9962 024b 3E000000 		.4byte	.LVL265
 9963 024f 44000000 		.4byte	.LVL267
 9964 0253 0400     		.2byte	0x4
 9965 0255 F3       		.byte	0xf3
 9966 0256 01       		.uleb128 0x1
 9967 0257 50       		.byte	0x50
 9968 0258 9F       		.byte	0x9f
 9969 0259 00000000 		.4byte	0
 9970 025d 00000000 		.4byte	0
 9971              	.LVUS93:
 9972 0261 0F       		.uleb128 .LVU828
 9973 0262 00       		.uleb128 .LVU840
 9974 0263 00       		.uleb128 .LVU840
 9975 0264 00       		.uleb128 .LVU841
 9976 0265 00       		.uleb128 .LVU841
 9977 0266 00       		.uleb128 .LVU844
 9978              	.LLST93:
 9979 0267 22000000 		.4byte	.LVL261
 9980 026b 38000000 		.4byte	.LVL263
 9981 026f 0100     		.2byte	0x1
 9982 0271 54       		.byte	0x54
 9983 0272 38000000 		.4byte	.LVL263
 9984 0276 3B000000 		.4byte	.LVL264-1
 9985 027a 0100     		.2byte	0x1
 9986 027c 50       		.byte	0x50
 9987 027d 3C000000 		.4byte	.LVL264
 9988 0281 44000000 		.4byte	.LVL267
 9989 0285 0100     		.2byte	0x1
 9990 0287 54       		.byte	0x54
 9991 0288 00000000 		.4byte	0
 9992 028c 00000000 		.4byte	0
 9993              	.LVUS94:
 9994 0290 0A       		.uleb128 .LVU823
 9995 0291 0F       		.uleb128 .LVU828
 9996              	.LLST94:
 9997 0292 22000000 		.4byte	.LVL261
 9998 0296 22000000 		.4byte	.LVL261
ARM GAS  /tmp/ccJ6FnJD.s 			page 177


 9999 029a 0100     		.2byte	0x1
 10000 029c 50       		.byte	0x50
 10001 029d 00000000 		.4byte	0
 10002 02a1 00000000 		.4byte	0
 10003              	.LVUS95:
 10004 02a5 0C       		.uleb128 .LVU825
 10005 02a6 0F       		.uleb128 .LVU828
 10006              	.LLST95:
 10007 02a7 22000000 		.4byte	.LVL261
 10008 02ab 22000000 		.4byte	.LVL261
 10009 02af 0100     		.2byte	0x1
 10010 02b1 54       		.byte	0x54
 10011 02b2 00000000 		.4byte	0
 10012 02b6 00000000 		.4byte	0
 10013              	.LVUS84:
 10014 02ba 00       		.uleb128 0
 10015 02bb 00       		.uleb128 .LVU792
 10016 02bc 00       		.uleb128 .LVU792
 10017 02bd 00       		.uleb128 .LVU794
 10018 02be 00       		.uleb128 .LVU794
 10019 02bf 00       		.uleb128 .LVU795
 10020 02c0 00       		.uleb128 .LVU795
 10021 02c1 00       		.uleb128 .LVU796
 10022 02c2 00       		.uleb128 .LVU796
 10023 02c3 00       		.uleb128 .LVU797
 10024 02c4 00       		.uleb128 .LVU797
 10025 02c5 00       		.uleb128 0
 10026              	.LLST84:
 10027 02c6 00000000 		.4byte	.LVL251
 10028 02ca 2A000000 		.4byte	.LVL254
 10029 02ce 0100     		.2byte	0x1
 10030 02d0 50       		.byte	0x50
 10031 02d1 2A000000 		.4byte	.LVL254
 10032 02d5 34000000 		.4byte	.LVL255
 10033 02d9 0400     		.2byte	0x4
 10034 02db F3       		.byte	0xf3
 10035 02dc 01       		.uleb128 0x1
 10036 02dd 50       		.byte	0x50
 10037 02de 9F       		.byte	0x9f
 10038 02df 34000000 		.4byte	.LVL255
 10039 02e3 42000000 		.4byte	.LVL256
 10040 02e7 0100     		.2byte	0x1
 10041 02e9 50       		.byte	0x50
 10042 02ea 42000000 		.4byte	.LVL256
 10043 02ee 48000000 		.4byte	.LVL257
 10044 02f2 0400     		.2byte	0x4
 10045 02f4 F3       		.byte	0xf3
 10046 02f5 01       		.uleb128 0x1
 10047 02f6 50       		.byte	0x50
 10048 02f7 9F       		.byte	0x9f
 10049 02f8 48000000 		.4byte	.LVL257
 10050 02fc 4B000000 		.4byte	.LVL258-1
 10051 0300 0100     		.2byte	0x1
 10052 0302 50       		.byte	0x50
 10053 0303 4B000000 		.4byte	.LVL258-1
 10054 0307 54000000 		.4byte	.LFE238
 10055 030b 0400     		.2byte	0x4
ARM GAS  /tmp/ccJ6FnJD.s 			page 178


 10056 030d F3       		.byte	0xf3
 10057 030e 01       		.uleb128 0x1
 10058 030f 50       		.byte	0x50
 10059 0310 9F       		.byte	0x9f
 10060 0311 00000000 		.4byte	0
 10061 0315 00000000 		.4byte	0
 10062              	.LVUS85:
 10063 0319 00       		.uleb128 0
 10064 031a 00       		.uleb128 .LVU794
 10065 031b 00       		.uleb128 .LVU794
 10066 031c 00       		.uleb128 .LVU794
 10067 031d 00       		.uleb128 .LVU794
 10068 031e 00       		.uleb128 .LVU797
 10069 031f 00       		.uleb128 .LVU797
 10070 0320 00       		.uleb128 0
 10071              	.LLST85:
 10072 0321 00000000 		.4byte	.LVL251
 10073 0325 33000000 		.4byte	.LVL255-1
 10074 0329 0100     		.2byte	0x1
 10075 032b 51       		.byte	0x51
 10076 032c 33000000 		.4byte	.LVL255-1
 10077 0330 34000000 		.4byte	.LVL255
 10078 0334 0400     		.2byte	0x4
 10079 0336 F3       		.byte	0xf3
 10080 0337 01       		.uleb128 0x1
 10081 0338 51       		.byte	0x51
 10082 0339 9F       		.byte	0x9f
 10083 033a 34000000 		.4byte	.LVL255
 10084 033e 4B000000 		.4byte	.LVL258-1
 10085 0342 0100     		.2byte	0x1
 10086 0344 51       		.byte	0x51
 10087 0345 4B000000 		.4byte	.LVL258-1
 10088 0349 54000000 		.4byte	.LFE238
 10089 034d 0400     		.2byte	0x4
 10090 034f F3       		.byte	0xf3
 10091 0350 01       		.uleb128 0x1
 10092 0351 51       		.byte	0x51
 10093 0352 9F       		.byte	0x9f
 10094 0353 00000000 		.4byte	0
 10095 0357 00000000 		.4byte	0
 10096              	.LVUS86:
 10097 035b 00       		.uleb128 .LVU779
 10098 035c 00       		.uleb128 .LVU789
 10099              	.LLST86:
 10100 035d 14000000 		.4byte	.LVL252
 10101 0361 1E000000 		.4byte	.LVL253
 10102 0365 0100     		.2byte	0x1
 10103 0367 50       		.byte	0x50
 10104 0368 00000000 		.4byte	0
 10105 036c 00000000 		.4byte	0
 10106              	.LVUS87:
 10107 0370 00       		.uleb128 .LVU779
 10108 0371 00       		.uleb128 .LVU789
 10109              	.LLST87:
 10110 0372 14000000 		.4byte	.LVL252
 10111 0376 1E000000 		.4byte	.LVL253
 10112 037a 0100     		.2byte	0x1
ARM GAS  /tmp/ccJ6FnJD.s 			page 179


 10113 037c 53       		.byte	0x53
 10114 037d 00000000 		.4byte	0
 10115 0381 00000000 		.4byte	0
 10116              	.LVUS80:
 10117 0385 00       		.uleb128 0
 10118 0386 00       		.uleb128 .LVU753
 10119 0387 00       		.uleb128 .LVU753
 10120 0388 00       		.uleb128 0
 10121              	.LLST80:
 10122 0389 00000000 		.4byte	.LVL237
 10123 038d 1B000000 		.4byte	.LVL240-1
 10124 0391 0100     		.2byte	0x1
 10125 0393 50       		.byte	0x50
 10126 0394 1B000000 		.4byte	.LVL240-1
 10127 0398 70000000 		.4byte	.LFE237
 10128 039c 0200     		.2byte	0x2
 10129 039e 91       		.byte	0x91
 10130 039f 6C       		.sleb128 -20
 10131 03a0 00000000 		.4byte	0
 10132 03a4 00000000 		.4byte	0
 10133              	.LVUS81:
 10134 03a8 00       		.uleb128 0
 10135 03a9 00       		.uleb128 .LVU753
 10136 03aa 00       		.uleb128 .LVU753
 10137 03ab 00       		.uleb128 .LVU770
 10138 03ac 00       		.uleb128 .LVU770
 10139 03ad 00       		.uleb128 .LVU771
 10140 03ae 00       		.uleb128 .LVU771
 10141 03af 00       		.uleb128 0
 10142              	.LLST81:
 10143 03b0 00000000 		.4byte	.LVL237
 10144 03b4 1B000000 		.4byte	.LVL240-1
 10145 03b8 0100     		.2byte	0x1
 10146 03ba 51       		.byte	0x51
 10147 03bb 1B000000 		.4byte	.LVL240-1
 10148 03bf 54000000 		.4byte	.LVL247
 10149 03c3 0200     		.2byte	0x2
 10150 03c5 7D       		.byte	0x7d
 10151 03c6 00       		.sleb128 0
 10152 03c7 54000000 		.4byte	.LVL247
 10153 03cb 58000000 		.4byte	.LVL248
 10154 03cf 0200     		.2byte	0x2
 10155 03d1 91       		.byte	0x91
 10156 03d2 68       		.sleb128 -24
 10157 03d3 58000000 		.4byte	.LVL248
 10158 03d7 70000000 		.4byte	.LFE237
 10159 03db 0200     		.2byte	0x2
 10160 03dd 7D       		.byte	0x7d
 10161 03de 00       		.sleb128 0
 10162 03df 00000000 		.4byte	0
 10163 03e3 00000000 		.4byte	0
 10164              	.LVUS82:
 10165 03e7 05       		.uleb128 .LVU749
 10166 03e8 00       		.uleb128 .LVU751
 10167              	.LLST82:
 10168 03e9 12000000 		.4byte	.LVL238
 10169 03ed 18000000 		.4byte	.LVL239
ARM GAS  /tmp/ccJ6FnJD.s 			page 180


 10170 03f1 0300     		.2byte	0x3
 10171 03f3 08       		.byte	0x8
 10172 03f4 20       		.byte	0x20
 10173 03f5 9F       		.byte	0x9f
 10174 03f6 00000000 		.4byte	0
 10175 03fa 00000000 		.4byte	0
 10176              	.LVUS83:
 10177 03fe 04       		.uleb128 .LVU766
 10178 03ff 00       		.uleb128 .LVU768
 10179              	.LLST83:
 10180 0400 42000000 		.4byte	.LVL245
 10181 0404 48000000 		.4byte	.LVL246
 10182 0408 0200     		.2byte	0x2
 10183 040a 30       		.byte	0x30
 10184 040b 9F       		.byte	0x9f
 10185 040c 00000000 		.4byte	0
 10186 0410 00000000 		.4byte	0
 10187              	.LVUS77:
 10188 0414 00       		.uleb128 0
 10189 0415 00       		.uleb128 .LVU729
 10190 0416 00       		.uleb128 .LVU729
 10191 0417 00       		.uleb128 .LVU734
 10192 0418 00       		.uleb128 .LVU734
 10193 0419 00       		.uleb128 .LVU735
 10194 041a 00       		.uleb128 .LVU735
 10195 041b 00       		.uleb128 .LVU736
 10196 041c 00       		.uleb128 .LVU736
 10197 041d 00       		.uleb128 .LVU738
 10198 041e 00       		.uleb128 .LVU738
 10199 041f 00       		.uleb128 .LVU740
 10200 0420 00       		.uleb128 .LVU740
 10201 0421 00       		.uleb128 0
 10202              	.LLST77:
 10203 0422 00000000 		.4byte	.LVL227
 10204 0426 1E000000 		.4byte	.LVL229
 10205 042a 0100     		.2byte	0x1
 10206 042c 50       		.byte	0x50
 10207 042d 1E000000 		.4byte	.LVL229
 10208 0431 36000000 		.4byte	.LVL230
 10209 0435 0100     		.2byte	0x1
 10210 0437 54       		.byte	0x54
 10211 0438 36000000 		.4byte	.LVL230
 10212 043c 3A000000 		.4byte	.LVL231
 10213 0440 0400     		.2byte	0x4
 10214 0442 F3       		.byte	0xf3
 10215 0443 01       		.uleb128 0x1
 10216 0444 50       		.byte	0x50
 10217 0445 9F       		.byte	0x9f
 10218 0446 3A000000 		.4byte	.LVL231
 10219 044a 3C000000 		.4byte	.LVL232
 10220 044e 0100     		.2byte	0x1
 10221 0450 50       		.byte	0x50
 10222 0451 3C000000 		.4byte	.LVL232
 10223 0455 42000000 		.4byte	.LVL234
 10224 0459 0100     		.2byte	0x1
 10225 045b 54       		.byte	0x54
 10226 045c 42000000 		.4byte	.LVL234
ARM GAS  /tmp/ccJ6FnJD.s 			page 181


 10227 0460 50000000 		.4byte	.LVL235
 10228 0464 0100     		.2byte	0x1
 10229 0466 50       		.byte	0x50
 10230 0467 50000000 		.4byte	.LVL235
 10231 046b 5C000000 		.4byte	.LFE236
 10232 046f 0400     		.2byte	0x4
 10233 0471 F3       		.byte	0xf3
 10234 0472 01       		.uleb128 0x1
 10235 0473 50       		.byte	0x50
 10236 0474 9F       		.byte	0x9f
 10237 0475 00000000 		.4byte	0
 10238 0479 00000000 		.4byte	0
 10239              	.LVUS78:
 10240 047d 00       		.uleb128 0
 10241 047e 00       		.uleb128 .LVU729
 10242 047f 00       		.uleb128 .LVU729
 10243 0480 00       		.uleb128 .LVU734
 10244 0481 00       		.uleb128 .LVU734
 10245 0482 00       		.uleb128 .LVU735
 10246 0483 00       		.uleb128 .LVU735
 10247 0484 00       		.uleb128 .LVU735
 10248 0485 00       		.uleb128 .LVU735
 10249 0486 00       		.uleb128 .LVU737
 10250 0487 00       		.uleb128 .LVU737
 10251 0488 00       		.uleb128 .LVU738
 10252 0489 00       		.uleb128 .LVU738
 10253 048a 00       		.uleb128 .LVU740
 10254 048b 00       		.uleb128 .LVU740
 10255 048c 00       		.uleb128 0
 10256              	.LLST78:
 10257 048d 00000000 		.4byte	.LVL227
 10258 0491 1E000000 		.4byte	.LVL229
 10259 0495 0100     		.2byte	0x1
 10260 0497 51       		.byte	0x51
 10261 0498 1E000000 		.4byte	.LVL229
 10262 049c 36000000 		.4byte	.LVL230
 10263 04a0 0100     		.2byte	0x1
 10264 04a2 55       		.byte	0x55
 10265 04a3 36000000 		.4byte	.LVL230
 10266 04a7 39000000 		.4byte	.LVL231-1
 10267 04ab 0100     		.2byte	0x1
 10268 04ad 51       		.byte	0x51
 10269 04ae 39000000 		.4byte	.LVL231-1
 10270 04b2 3A000000 		.4byte	.LVL231
 10271 04b6 0400     		.2byte	0x4
 10272 04b8 F3       		.byte	0xf3
 10273 04b9 01       		.uleb128 0x1
 10274 04ba 51       		.byte	0x51
 10275 04bb 9F       		.byte	0x9f
 10276 04bc 3A000000 		.4byte	.LVL231
 10277 04c0 3F000000 		.4byte	.LVL233-1
 10278 04c4 0100     		.2byte	0x1
 10279 04c6 51       		.byte	0x51
 10280 04c7 3F000000 		.4byte	.LVL233-1
 10281 04cb 42000000 		.4byte	.LVL234
 10282 04cf 0100     		.2byte	0x1
 10283 04d1 55       		.byte	0x55
ARM GAS  /tmp/ccJ6FnJD.s 			page 182


 10284 04d2 42000000 		.4byte	.LVL234
 10285 04d6 50000000 		.4byte	.LVL235
 10286 04da 0100     		.2byte	0x1
 10287 04dc 51       		.byte	0x51
 10288 04dd 50000000 		.4byte	.LVL235
 10289 04e1 5C000000 		.4byte	.LFE236
 10290 04e5 0400     		.2byte	0x4
 10291 04e7 F3       		.byte	0xf3
 10292 04e8 01       		.uleb128 0x1
 10293 04e9 51       		.byte	0x51
 10294 04ea 9F       		.byte	0x9f
 10295 04eb 00000000 		.4byte	0
 10296 04ef 00000000 		.4byte	0
 10297              	.LVUS79:
 10298 04f3 01       		.uleb128 .LVU726
 10299 04f4 00       		.uleb128 .LVU734
 10300 04f5 00       		.uleb128 .LVU734
 10301 04f6 00       		.uleb128 .LVU735
 10302 04f7 00       		.uleb128 .LVU735
 10303 04f8 00       		.uleb128 .LVU738
 10304              	.LLST79:
 10305 04f9 1C000000 		.4byte	.LVL228
 10306 04fd 36000000 		.4byte	.LVL230
 10307 0501 0100     		.2byte	0x1
 10308 0503 56       		.byte	0x56
 10309 0504 36000000 		.4byte	.LVL230
 10310 0508 39000000 		.4byte	.LVL231-1
 10311 050c 0100     		.2byte	0x1
 10312 050e 50       		.byte	0x50
 10313 050f 3A000000 		.4byte	.LVL231
 10314 0513 42000000 		.4byte	.LVL234
 10315 0517 0100     		.2byte	0x1
 10316 0519 56       		.byte	0x56
 10317 051a 00000000 		.4byte	0
 10318 051e 00000000 		.4byte	0
 10319              	.LVUS74:
 10320 0522 00       		.uleb128 0
 10321 0523 00       		.uleb128 .LVU700
 10322 0524 00       		.uleb128 .LVU700
 10323 0525 00       		.uleb128 .LVU710
 10324 0526 00       		.uleb128 .LVU710
 10325 0527 00       		.uleb128 .LVU711
 10326 0528 00       		.uleb128 .LVU711
 10327 0529 00       		.uleb128 .LVU712
 10328 052a 00       		.uleb128 .LVU712
 10329 052b 00       		.uleb128 .LVU714
 10330 052c 00       		.uleb128 .LVU714
 10331 052d 00       		.uleb128 .LVU716
 10332 052e 00       		.uleb128 .LVU716
 10333 052f 00       		.uleb128 0
 10334              	.LLST74:
 10335 0530 00000000 		.4byte	.LVL217
 10336 0534 1E000000 		.4byte	.LVL219
 10337 0538 0100     		.2byte	0x1
 10338 053a 50       		.byte	0x50
 10339 053b 1E000000 		.4byte	.LVL219
 10340 053f 36000000 		.4byte	.LVL220
ARM GAS  /tmp/ccJ6FnJD.s 			page 183


 10341 0543 0100     		.2byte	0x1
 10342 0545 54       		.byte	0x54
 10343 0546 36000000 		.4byte	.LVL220
 10344 054a 3A000000 		.4byte	.LVL221
 10345 054e 0400     		.2byte	0x4
 10346 0550 F3       		.byte	0xf3
 10347 0551 01       		.uleb128 0x1
 10348 0552 50       		.byte	0x50
 10349 0553 9F       		.byte	0x9f
 10350 0554 3A000000 		.4byte	.LVL221
 10351 0558 3C000000 		.4byte	.LVL222
 10352 055c 0100     		.2byte	0x1
 10353 055e 50       		.byte	0x50
 10354 055f 3C000000 		.4byte	.LVL222
 10355 0563 42000000 		.4byte	.LVL224
 10356 0567 0100     		.2byte	0x1
 10357 0569 54       		.byte	0x54
 10358 056a 42000000 		.4byte	.LVL224
 10359 056e 50000000 		.4byte	.LVL225
 10360 0572 0100     		.2byte	0x1
 10361 0574 50       		.byte	0x50
 10362 0575 50000000 		.4byte	.LVL225
 10363 0579 5C000000 		.4byte	.LFE235
 10364 057d 0400     		.2byte	0x4
 10365 057f F3       		.byte	0xf3
 10366 0580 01       		.uleb128 0x1
 10367 0581 50       		.byte	0x50
 10368 0582 9F       		.byte	0x9f
 10369 0583 00000000 		.4byte	0
 10370 0587 00000000 		.4byte	0
 10371              	.LVUS75:
 10372 058b 00       		.uleb128 0
 10373 058c 00       		.uleb128 .LVU700
 10374 058d 00       		.uleb128 .LVU700
 10375 058e 00       		.uleb128 .LVU710
 10376 058f 00       		.uleb128 .LVU710
 10377 0590 00       		.uleb128 .LVU711
 10378 0591 00       		.uleb128 .LVU711
 10379 0592 00       		.uleb128 .LVU711
 10380 0593 00       		.uleb128 .LVU711
 10381 0594 00       		.uleb128 .LVU713
 10382 0595 00       		.uleb128 .LVU713
 10383 0596 00       		.uleb128 .LVU714
 10384 0597 00       		.uleb128 .LVU714
 10385 0598 00       		.uleb128 .LVU716
 10386 0599 00       		.uleb128 .LVU716
 10387 059a 00       		.uleb128 0
 10388              	.LLST75:
 10389 059b 00000000 		.4byte	.LVL217
 10390 059f 1E000000 		.4byte	.LVL219
 10391 05a3 0100     		.2byte	0x1
 10392 05a5 51       		.byte	0x51
 10393 05a6 1E000000 		.4byte	.LVL219
 10394 05aa 36000000 		.4byte	.LVL220
 10395 05ae 0100     		.2byte	0x1
 10396 05b0 56       		.byte	0x56
 10397 05b1 36000000 		.4byte	.LVL220
ARM GAS  /tmp/ccJ6FnJD.s 			page 184


 10398 05b5 39000000 		.4byte	.LVL221-1
 10399 05b9 0200     		.2byte	0x2
 10400 05bb 70       		.byte	0x70
 10401 05bc 28       		.sleb128 40
 10402 05bd 39000000 		.4byte	.LVL221-1
 10403 05c1 3A000000 		.4byte	.LVL221
 10404 05c5 0400     		.2byte	0x4
 10405 05c7 F3       		.byte	0xf3
 10406 05c8 01       		.uleb128 0x1
 10407 05c9 51       		.byte	0x51
 10408 05ca 9F       		.byte	0x9f
 10409 05cb 3A000000 		.4byte	.LVL221
 10410 05cf 3F000000 		.4byte	.LVL223-1
 10411 05d3 0100     		.2byte	0x1
 10412 05d5 51       		.byte	0x51
 10413 05d6 3F000000 		.4byte	.LVL223-1
 10414 05da 42000000 		.4byte	.LVL224
 10415 05de 0100     		.2byte	0x1
 10416 05e0 56       		.byte	0x56
 10417 05e1 42000000 		.4byte	.LVL224
 10418 05e5 50000000 		.4byte	.LVL225
 10419 05e9 0100     		.2byte	0x1
 10420 05eb 51       		.byte	0x51
 10421 05ec 50000000 		.4byte	.LVL225
 10422 05f0 5C000000 		.4byte	.LFE235
 10423 05f4 0400     		.2byte	0x4
 10424 05f6 F3       		.byte	0xf3
 10425 05f7 01       		.uleb128 0x1
 10426 05f8 51       		.byte	0x51
 10427 05f9 9F       		.byte	0x9f
 10428 05fa 00000000 		.4byte	0
 10429 05fe 00000000 		.4byte	0
 10430              	.LVUS76:
 10431 0602 01       		.uleb128 .LVU697
 10432 0603 00       		.uleb128 .LVU710
 10433 0604 00       		.uleb128 .LVU710
 10434 0605 00       		.uleb128 .LVU711
 10435 0606 00       		.uleb128 .LVU711
 10436 0607 00       		.uleb128 .LVU714
 10437              	.LLST76:
 10438 0608 1C000000 		.4byte	.LVL218
 10439 060c 36000000 		.4byte	.LVL220
 10440 0610 0100     		.2byte	0x1
 10441 0612 55       		.byte	0x55
 10442 0613 36000000 		.4byte	.LVL220
 10443 0617 39000000 		.4byte	.LVL221-1
 10444 061b 0100     		.2byte	0x1
 10445 061d 50       		.byte	0x50
 10446 061e 3A000000 		.4byte	.LVL221
 10447 0622 42000000 		.4byte	.LVL224
 10448 0626 0100     		.2byte	0x1
 10449 0628 55       		.byte	0x55
 10450 0629 00000000 		.4byte	0
 10451 062d 00000000 		.4byte	0
 10452              	.LVUS71:
 10453 0631 00       		.uleb128 0
 10454 0632 00       		.uleb128 .LVU661
ARM GAS  /tmp/ccJ6FnJD.s 			page 185


 10455 0633 00       		.uleb128 .LVU661
 10456 0634 00       		.uleb128 .LVU685
 10457 0635 00       		.uleb128 .LVU685
 10458 0636 00       		.uleb128 .LVU686
 10459 0637 00       		.uleb128 .LVU686
 10460 0638 00       		.uleb128 0
 10461              	.LLST71:
 10462 0639 00000000 		.4byte	.LVL209
 10463 063d 0C000000 		.4byte	.LVL210
 10464 0641 0100     		.2byte	0x1
 10465 0643 50       		.byte	0x50
 10466 0644 0C000000 		.4byte	.LVL210
 10467 0648 3A000000 		.4byte	.LVL213
 10468 064c 0100     		.2byte	0x1
 10469 064e 54       		.byte	0x54
 10470 064f 3A000000 		.4byte	.LVL213
 10471 0653 3E000000 		.4byte	.LVL214
 10472 0657 0400     		.2byte	0x4
 10473 0659 F3       		.byte	0xf3
 10474 065a 01       		.uleb128 0x1
 10475 065b 50       		.byte	0x50
 10476 065c 9F       		.byte	0x9f
 10477 065d 3E000000 		.4byte	.LVL214
 10478 0661 60000000 		.4byte	.LFE234
 10479 0665 0100     		.2byte	0x1
 10480 0667 54       		.byte	0x54
 10481 0668 00000000 		.4byte	0
 10482 066c 00000000 		.4byte	0
 10483              	.LVUS72:
 10484 0670 00       		.uleb128 0
 10485 0671 00       		.uleb128 .LVU673
 10486 0672 00       		.uleb128 .LVU673
 10487 0673 00       		.uleb128 .LVU685
 10488 0674 00       		.uleb128 .LVU685
 10489 0675 00       		.uleb128 .LVU686
 10490 0676 00       		.uleb128 .LVU686
 10491 0677 00       		.uleb128 .LVU686
 10492 0678 00       		.uleb128 .LVU686
 10493 0679 00       		.uleb128 0
 10494              	.LLST72:
 10495 067a 00000000 		.4byte	.LVL209
 10496 067e 1F000000 		.4byte	.LVL212-1
 10497 0682 0100     		.2byte	0x1
 10498 0684 51       		.byte	0x51
 10499 0685 1F000000 		.4byte	.LVL212-1
 10500 0689 3A000000 		.4byte	.LVL213
 10501 068d 0100     		.2byte	0x1
 10502 068f 55       		.byte	0x55
 10503 0690 3A000000 		.4byte	.LVL213
 10504 0694 3D000000 		.4byte	.LVL214-1
 10505 0698 0100     		.2byte	0x1
 10506 069a 51       		.byte	0x51
 10507 069b 3D000000 		.4byte	.LVL214-1
 10508 069f 3E000000 		.4byte	.LVL214
 10509 06a3 0400     		.2byte	0x4
 10510 06a5 F3       		.byte	0xf3
 10511 06a6 01       		.uleb128 0x1
ARM GAS  /tmp/ccJ6FnJD.s 			page 186


 10512 06a7 51       		.byte	0x51
 10513 06a8 9F       		.byte	0x9f
 10514 06a9 3E000000 		.4byte	.LVL214
 10515 06ad 60000000 		.4byte	.LFE234
 10516 06b1 0100     		.2byte	0x1
 10517 06b3 55       		.byte	0x55
 10518 06b4 00000000 		.4byte	0
 10519 06b8 00000000 		.4byte	0
 10520              	.LVUS73:
 10521 06bc 03       		.uleb128 .LVU666
 10522 06bd 00       		.uleb128 .LVU685
 10523 06be 00       		.uleb128 .LVU686
 10524 06bf 00       		.uleb128 0
 10525              	.LLST73:
 10526 06c0 16000000 		.4byte	.LVL211
 10527 06c4 3A000000 		.4byte	.LVL213
 10528 06c8 0100     		.2byte	0x1
 10529 06ca 56       		.byte	0x56
 10530 06cb 3E000000 		.4byte	.LVL214
 10531 06cf 60000000 		.4byte	.LFE234
 10532 06d3 0100     		.2byte	0x1
 10533 06d5 56       		.byte	0x56
 10534 06d6 00000000 		.4byte	0
 10535 06da 00000000 		.4byte	0
 10536              	.LVUS69:
 10537 06de 00       		.uleb128 0
 10538 06df 00       		.uleb128 .LVU640
 10539 06e0 00       		.uleb128 .LVU640
 10540 06e1 00       		.uleb128 0
 10541              	.LLST69:
 10542 06e2 00000000 		.4byte	.LVL202
 10543 06e6 1A000000 		.4byte	.LVL204
 10544 06ea 0100     		.2byte	0x1
 10545 06ec 50       		.byte	0x50
 10546 06ed 1A000000 		.4byte	.LVL204
 10547 06f1 4C000000 		.4byte	.LFE233
 10548 06f5 0100     		.2byte	0x1
 10549 06f7 54       		.byte	0x54
 10550 06f8 00000000 		.4byte	0
 10551 06fc 00000000 		.4byte	0
 10552              	.LVUS70:
 10553 0700 03       		.uleb128 .LVU635
 10554 0701 00       		.uleb128 0
 10555              	.LLST70:
 10556 0702 16000000 		.4byte	.LVL203
 10557 0706 4C000000 		.4byte	.LFE233
 10558 070a 0100     		.2byte	0x1
 10559 070c 56       		.byte	0x56
 10560 070d 00000000 		.4byte	0
 10561 0711 00000000 		.4byte	0
 10562              	.LVUS63:
 10563 0715 00       		.uleb128 0
 10564 0716 00       		.uleb128 .LVU566
 10565 0717 00       		.uleb128 .LVU566
 10566 0718 00       		.uleb128 .LVU622
 10567 0719 00       		.uleb128 .LVU622
 10568 071a 00       		.uleb128 .LVU623
ARM GAS  /tmp/ccJ6FnJD.s 			page 187


 10569 071b 00       		.uleb128 .LVU623
 10570 071c 00       		.uleb128 0
 10571              	.LLST63:
 10572 071d 00000000 		.4byte	.LVL178
 10573 0721 14000000 		.4byte	.LVL179
 10574 0725 0100     		.2byte	0x1
 10575 0727 50       		.byte	0x50
 10576 0728 14000000 		.4byte	.LVL179
 10577 072c 94000000 		.4byte	.LVL197
 10578 0730 0100     		.2byte	0x1
 10579 0732 54       		.byte	0x54
 10580 0733 94000000 		.4byte	.LVL197
 10581 0737 96000000 		.4byte	.LVL198
 10582 073b 0100     		.2byte	0x1
 10583 073d 50       		.byte	0x50
 10584 073e 96000000 		.4byte	.LVL198
 10585 0742 B0000000 		.4byte	.LFE232
 10586 0746 0100     		.2byte	0x1
 10587 0748 54       		.byte	0x54
 10588 0749 00000000 		.4byte	0
 10589 074d 00000000 		.4byte	0
 10590              	.LVUS64:
 10591 0751 00       		.uleb128 .LVU601
 10592 0752 00       		.uleb128 .LVU619
 10593 0753 00       		.uleb128 .LVU624
 10594 0754 00       		.uleb128 0
 10595              	.LLST64:
 10596 0755 48000000 		.4byte	.LVL186
 10597 0759 84000000 		.4byte	.LVL194
 10598 075d 0100     		.2byte	0x1
 10599 075f 56       		.byte	0x56
 10600 0760 9C000000 		.4byte	.LVL200
 10601 0764 B0000000 		.4byte	.LFE232
 10602 0768 0100     		.2byte	0x1
 10603 076a 56       		.byte	0x56
 10604 076b 00000000 		.4byte	0
 10605 076f 00000000 		.4byte	0
 10606              	.LVUS65:
 10607 0773 06       		.uleb128 .LVU572
 10608 0774 00       		.uleb128 .LVU574
 10609              	.LLST65:
 10610 0775 14000000 		.4byte	.LVL179
 10611 0779 1A000000 		.4byte	.LVL180
 10612 077d 0300     		.2byte	0x3
 10613 077f 08       		.byte	0x8
 10614 0780 20       		.byte	0x20
 10615 0781 9F       		.byte	0x9f
 10616 0782 00000000 		.4byte	0
 10617 0786 00000000 		.4byte	0
 10618              	.LVUS66:
 10619 078a 01       		.uleb128 .LVU591
 10620 078b 00       		.uleb128 .LVU599
 10621              	.LLST66:
 10622 078c 3A000000 		.4byte	.LVL183
 10623 0790 46000000 		.4byte	.LVL185
 10624 0794 0300     		.2byte	0x3
 10625 0796 74       		.byte	0x74
ARM GAS  /tmp/ccJ6FnJD.s 			page 188


 10626 0797 2C       		.sleb128 44
 10627 0798 9F       		.byte	0x9f
 10628 0799 00000000 		.4byte	0
 10629 079d 00000000 		.4byte	0
 10630              	.LVUS67:
 10631 07a1 00       		.uleb128 .LVU590
 10632 07a2 00       		.uleb128 .LVU597
 10633              	.LLST67:
 10634 07a3 3A000000 		.4byte	.LVL183
 10635 07a7 42000000 		.4byte	.LVL184
 10636 07ab 0100     		.2byte	0x1
 10637 07ad 53       		.byte	0x53
 10638 07ae 00000000 		.4byte	0
 10639 07b2 00000000 		.4byte	0
 10640              	.LVUS68:
 10641 07b6 04       		.uleb128 .LVU612
 10642 07b7 00       		.uleb128 .LVU614
 10643              	.LLST68:
 10644 07b8 60000000 		.4byte	.LVL189
 10645 07bc 66000000 		.4byte	.LVL190
 10646 07c0 0200     		.2byte	0x2
 10647 07c2 30       		.byte	0x30
 10648 07c3 9F       		.byte	0x9f
 10649 07c4 00000000 		.4byte	0
 10650 07c8 00000000 		.4byte	0
 10651              	.LVUS56:
 10652 07cc 00       		.uleb128 0
 10653 07cd 00       		.uleb128 .LVU512
 10654 07ce 00       		.uleb128 .LVU512
 10655 07cf 00       		.uleb128 0
 10656              	.LLST56:
 10657 07d0 00000000 		.4byte	.LVL158
 10658 07d4 1E000000 		.4byte	.LVL161
 10659 07d8 0100     		.2byte	0x1
 10660 07da 50       		.byte	0x50
 10661 07db 1E000000 		.4byte	.LVL161
 10662 07df 6C000000 		.4byte	.LFE231
 10663 07e3 0400     		.2byte	0x4
 10664 07e5 F3       		.byte	0xf3
 10665 07e6 01       		.uleb128 0x1
 10666 07e7 50       		.byte	0x50
 10667 07e8 9F       		.byte	0x9f
 10668 07e9 00000000 		.4byte	0
 10669 07ed 00000000 		.4byte	0
 10670              	.LVUS57:
 10671 07f1 01       		.uleb128 .LVU502
 10672 07f2 00       		.uleb128 .LVU538
 10673 07f3 00       		.uleb128 .LVU539
 10674 07f4 00       		.uleb128 0
 10675              	.LLST57:
 10676 07f5 1A000000 		.4byte	.LVL159
 10677 07f9 58000000 		.4byte	.LVL167
 10678 07fd 0100     		.2byte	0x1
 10679 07ff 54       		.byte	0x54
 10680 0800 5C000000 		.4byte	.LVL168
 10681 0804 6C000000 		.4byte	.LFE231
 10682 0808 0100     		.2byte	0x1
ARM GAS  /tmp/ccJ6FnJD.s 			page 189


 10683 080a 54       		.byte	0x54
 10684 080b 00000000 		.4byte	0
 10685 080f 00000000 		.4byte	0
 10686              	.LVUS58:
 10687 0813 04       		.uleb128 .LVU508
 10688 0814 06       		.uleb128 .LVU510
 10689 0815 01       		.uleb128 .LVU522
 10690 0816 00       		.uleb128 .LVU525
 10691              	.LLST58:
 10692 0817 1C000000 		.4byte	.LVL160
 10693 081b 1C000000 		.4byte	.LVL160
 10694 081f 0100     		.2byte	0x1
 10695 0821 55       		.byte	0x55
 10696 0822 28000000 		.4byte	.LVL163
 10697 0826 2A000000 		.4byte	.LVL164
 10698 082a 0100     		.2byte	0x1
 10699 082c 55       		.byte	0x55
 10700 082d 00000000 		.4byte	0
 10701 0831 00000000 		.4byte	0
 10702              	.LVUS59:
 10703 0835 02       		.uleb128 .LVU514
 10704 0836 00       		.uleb128 .LVU527
 10705              	.LLST59:
 10706 0837 1E000000 		.4byte	.LVL161
 10707 083b 2E000000 		.4byte	.LVL165
 10708 083f 0100     		.2byte	0x1
 10709 0841 55       		.byte	0x55
 10710 0842 00000000 		.4byte	0
 10711 0846 00000000 		.4byte	0
 10712              	.LVUS60:
 10713 084a 03       		.uleb128 .LVU515
 10714 084b 01       		.uleb128 .LVU519
 10715              	.LLST60:
 10716 084c 1E000000 		.4byte	.LVL161
 10717 0850 22000000 		.4byte	.LVL162
 10718 0854 0100     		.2byte	0x1
 10719 0856 53       		.byte	0x53
 10720 0857 00000000 		.4byte	0
 10721 085b 00000000 		.4byte	0
 10722              	.LVUS61:
 10723 085f 00       		.uleb128 0
 10724 0860 00       		.uleb128 .LVU554
 10725 0861 00       		.uleb128 .LVU554
 10726 0862 00       		.uleb128 .LVU557
 10727 0863 00       		.uleb128 .LVU557
 10728 0864 00       		.uleb128 .LVU558
 10729 0865 00       		.uleb128 .LVU558
 10730 0866 00       		.uleb128 .LVU558
 10731 0867 00       		.uleb128 .LVU558
 10732 0868 00       		.uleb128 0
 10733              	.LLST61:
 10734 0869 00000000 		.4byte	.LVL170
 10735 086d 19000000 		.4byte	.LVL173-1
 10736 0871 0100     		.2byte	0x1
 10737 0873 50       		.byte	0x50
 10738 0874 19000000 		.4byte	.LVL173-1
 10739 0878 30000000 		.4byte	.LVL175
ARM GAS  /tmp/ccJ6FnJD.s 			page 190


 10740 087c 0100     		.2byte	0x1
 10741 087e 54       		.byte	0x54
 10742 087f 30000000 		.4byte	.LVL175
 10743 0883 33000000 		.4byte	.LVL176-1
 10744 0887 0100     		.2byte	0x1
 10745 0889 50       		.byte	0x50
 10746 088a 33000000 		.4byte	.LVL176-1
 10747 088e 34000000 		.4byte	.LVL176
 10748 0892 0400     		.2byte	0x4
 10749 0894 F3       		.byte	0xf3
 10750 0895 01       		.uleb128 0x1
 10751 0896 50       		.byte	0x50
 10752 0897 9F       		.byte	0x9f
 10753 0898 34000000 		.4byte	.LVL176
 10754 089c 3C000000 		.4byte	.LFE230
 10755 08a0 0100     		.2byte	0x1
 10756 08a2 54       		.byte	0x54
 10757 08a3 00000000 		.4byte	0
 10758 08a7 00000000 		.4byte	0
 10759              	.LVUS62:
 10760 08ab 05       		.uleb128 .LVU548
 10761 08ac 00       		.uleb128 .LVU552
 10762              	.LLST62:
 10763 08ad 0E000000 		.4byte	.LVL171
 10764 08b1 16000000 		.4byte	.LVL172
 10765 08b5 0300     		.2byte	0x3
 10766 08b7 08       		.byte	0x8
 10767 08b8 20       		.byte	0x20
 10768 08b9 9F       		.byte	0x9f
 10769 08ba 00000000 		.4byte	0
 10770 08be 00000000 		.4byte	0
 10771              	.LVUS54:
 10772 08c2 05       		.uleb128 .LVU456
 10773 08c3 00       		.uleb128 .LVU458
 10774              	.LLST54:
 10775 08c4 0E000000 		.4byte	.LVL145
 10776 08c8 14000000 		.4byte	.LVL146
 10777 08cc 0300     		.2byte	0x3
 10778 08ce 08       		.byte	0x8
 10779 08cf 20       		.byte	0x20
 10780 08d0 9F       		.byte	0x9f
 10781 08d1 00000000 		.4byte	0
 10782 08d5 00000000 		.4byte	0
 10783              	.LVUS55:
 10784 08d9 04       		.uleb128 .LVU484
 10785 08da 00       		.uleb128 .LVU486
 10786              	.LLST55:
 10787 08db 4A000000 		.4byte	.LVL153
 10788 08df 50000000 		.4byte	.LVL154
 10789 08e3 0200     		.2byte	0x2
 10790 08e5 30       		.byte	0x30
 10791 08e6 9F       		.byte	0x9f
 10792 08e7 00000000 		.4byte	0
 10793 08eb 00000000 		.4byte	0
 10794              	.LVUS45:
 10795 08ef 00       		.uleb128 0
 10796 08f0 00       		.uleb128 .LVU403
ARM GAS  /tmp/ccJ6FnJD.s 			page 191


 10797 08f1 00       		.uleb128 .LVU403
 10798 08f2 00       		.uleb128 .LVU414
 10799 08f3 00       		.uleb128 .LVU414
 10800 08f4 00       		.uleb128 0
 10801              	.LLST45:
 10802 08f5 00000000 		.4byte	.LVL123
 10803 08f9 1D000000 		.4byte	.LVL126-1
 10804 08fd 0100     		.2byte	0x1
 10805 08ff 50       		.byte	0x50
 10806 0900 1D000000 		.4byte	.LVL126-1
 10807 0904 28000000 		.4byte	.LVL129
 10808 0908 0100     		.2byte	0x1
 10809 090a 54       		.byte	0x54
 10810 090b 28000000 		.4byte	.LVL129
 10811 090f 90000000 		.4byte	.LFE228
 10812 0913 0400     		.2byte	0x4
 10813 0915 F3       		.byte	0xf3
 10814 0916 01       		.uleb128 0x1
 10815 0917 50       		.byte	0x50
 10816 0918 9F       		.byte	0x9f
 10817 0919 00000000 		.4byte	0
 10818 091d 00000000 		.4byte	0
 10819              	.LVUS46:
 10820 0921 00       		.uleb128 0
 10821 0922 00       		.uleb128 .LVU403
 10822 0923 00       		.uleb128 .LVU403
 10823 0924 00       		.uleb128 0
 10824              	.LLST46:
 10825 0925 00000000 		.4byte	.LVL123
 10826 0929 1D000000 		.4byte	.LVL126-1
 10827 092d 0100     		.2byte	0x1
 10828 092f 51       		.byte	0x51
 10829 0930 1D000000 		.4byte	.LVL126-1
 10830 0934 90000000 		.4byte	.LFE228
 10831 0938 0100     		.2byte	0x1
 10832 093a 55       		.byte	0x55
 10833 093b 00000000 		.4byte	0
 10834 093f 00000000 		.4byte	0
 10835              	.LVUS47:
 10836 0943 00       		.uleb128 .LVU408
 10837 0944 00       		.uleb128 .LVU416
 10838 0945 00       		.uleb128 .LVU433
 10839 0946 00       		.uleb128 .LVU439
 10840              	.LLST47:
 10841 0947 24000000 		.4byte	.LVL128
 10842 094b 2C000000 		.4byte	.LVL130
 10843 094f 0100     		.2byte	0x1
 10844 0951 51       		.byte	0x51
 10845 0952 62000000 		.4byte	.LVL137
 10846 0956 64000000 		.4byte	.LVL138
 10847 095a 0100     		.2byte	0x1
 10848 095c 51       		.byte	0x51
 10849 095d 00000000 		.4byte	0
 10850 0961 00000000 		.4byte	0
 10851              	.LVUS48:
 10852 0965 06       		.uleb128 .LVU395
 10853 0966 00       		.uleb128 .LVU399
ARM GAS  /tmp/ccJ6FnJD.s 			page 192


 10854              	.LLST48:
 10855 0967 0E000000 		.4byte	.LVL124
 10856 096b 18000000 		.4byte	.LVL125
 10857 096f 0300     		.2byte	0x3
 10858 0971 08       		.byte	0x8
 10859 0972 20       		.byte	0x20
 10860 0973 9F       		.byte	0x9f
 10861 0974 00000000 		.4byte	0
 10862 0978 00000000 		.4byte	0
 10863              	.LVUS49:
 10864 097c 02       		.uleb128 .LVU410
 10865 097d 04       		.uleb128 .LVU412
 10866              	.LLST49:
 10867 097e 24000000 		.4byte	.LVL128
 10868 0982 24000000 		.4byte	.LVL128
 10869 0986 0100     		.2byte	0x1
 10870 0988 55       		.byte	0x55
 10871 0989 00000000 		.4byte	0
 10872 098d 00000000 		.4byte	0
 10873              	.LVUS50:
 10874 0991 02       		.uleb128 .LVU410
 10875 0992 04       		.uleb128 .LVU412
 10876              	.LLST50:
 10877 0993 24000000 		.4byte	.LVL128
 10878 0997 24000000 		.4byte	.LVL128
 10879 099b 0100     		.2byte	0x1
 10880 099d 54       		.byte	0x54
 10881 099e 00000000 		.4byte	0
 10882 09a2 00000000 		.4byte	0
 10883              	.LVUS51:
 10884 09a6 02       		.uleb128 .LVU410
 10885 09a7 04       		.uleb128 .LVU412
 10886              	.LLST51:
 10887 09a8 24000000 		.4byte	.LVL128
 10888 09ac 24000000 		.4byte	.LVL128
 10889 09b0 0100     		.2byte	0x1
 10890 09b2 51       		.byte	0x51
 10891 09b3 00000000 		.4byte	0
 10892 09b7 00000000 		.4byte	0
 10893              	.LVUS52:
 10894 09bb 04       		.uleb128 .LVU427
 10895 09bc 00       		.uleb128 .LVU429
 10896              	.LLST52:
 10897 09bd 44000000 		.4byte	.LVL133
 10898 09c1 4A000000 		.4byte	.LVL134
 10899 09c5 0200     		.2byte	0x2
 10900 09c7 30       		.byte	0x30
 10901 09c8 9F       		.byte	0x9f
 10902 09c9 00000000 		.4byte	0
 10903 09cd 00000000 		.4byte	0
 10904              	.LVUS53:
 10905 09d1 02       		.uleb128 .LVU435
 10906 09d2 00       		.uleb128 .LVU439
 10907 09d3 00       		.uleb128 .LVU439
 10908 09d4 00       		.uleb128 .LVU440
 10909 09d5 00       		.uleb128 .LVU444
 10910 09d6 00       		.uleb128 .LVU446
ARM GAS  /tmp/ccJ6FnJD.s 			page 193


 10911 09d7 00       		.uleb128 .LVU446
 10912 09d8 00       		.uleb128 .LVU447
 10913              	.LLST53:
 10914 09d9 62000000 		.4byte	.LVL137
 10915 09dd 64000000 		.4byte	.LVL138
 10916 09e1 0600     		.2byte	0x6
 10917 09e3 75       		.byte	0x75
 10918 09e4 00       		.sleb128 0
 10919 09e5 71       		.byte	0x71
 10920 09e6 00       		.sleb128 0
 10921 09e7 1C       		.byte	0x1c
 10922 09e8 9F       		.byte	0x9f
 10923 09e9 64000000 		.4byte	.LVL138
 10924 09ed 66000000 		.4byte	.LVL139
 10925 09f1 0100     		.2byte	0x1
 10926 09f3 51       		.byte	0x51
 10927 09f4 6E000000 		.4byte	.LVL141
 10928 09f8 75000000 		.4byte	.LVL142-1
 10929 09fc 0100     		.2byte	0x1
 10930 09fe 51       		.byte	0x51
 10931 09ff 75000000 		.4byte	.LVL142-1
 10932 0a03 7A000000 		.4byte	.LVL143
 10933 0a07 0200     		.2byte	0x2
 10934 0a09 91       		.byte	0x91
 10935 0a0a 64       		.sleb128 -28
 10936 0a0b 00000000 		.4byte	0
 10937 0a0f 00000000 		.4byte	0
 10938              	.LVUS41:
 10939 0a13 00       		.uleb128 0
 10940 0a14 00       		.uleb128 .LVU349
 10941 0a15 00       		.uleb128 .LVU349
 10942 0a16 00       		.uleb128 .LVU354
 10943 0a17 00       		.uleb128 .LVU354
 10944 0a18 00       		.uleb128 .LVU357
 10945 0a19 00       		.uleb128 .LVU357
 10946 0a1a 00       		.uleb128 .LVU358
 10947 0a1b 00       		.uleb128 .LVU374
 10948 0a1c 00       		.uleb128 .LVU383
 10949              	.LLST41:
 10950 0a1d 00000000 		.4byte	.LVL107
 10951 0a21 1B000000 		.4byte	.LVL110-1
 10952 0a25 0100     		.2byte	0x1
 10953 0a27 50       		.byte	0x50
 10954 0a28 1B000000 		.4byte	.LVL110-1
 10955 0a2c 22000000 		.4byte	.LVL112
 10956 0a30 0100     		.2byte	0x1
 10957 0a32 54       		.byte	0x54
 10958 0a33 22000000 		.4byte	.LVL112
 10959 0a37 24000000 		.4byte	.LVL113
 10960 0a3b 0600     		.2byte	0x6
 10961 0a3d 74       		.byte	0x74
 10962 0a3e 00       		.sleb128 0
 10963 0a3f 71       		.byte	0x71
 10964 0a40 00       		.sleb128 0
 10965 0a41 1C       		.byte	0x1c
 10966 0a42 9F       		.byte	0x9f
 10967 0a43 24000000 		.4byte	.LVL113
ARM GAS  /tmp/ccJ6FnJD.s 			page 194


 10968 0a47 26000000 		.4byte	.LVL114
 10969 0a4b 0100     		.2byte	0x1
 10970 0a4d 51       		.byte	0x51
 10971 0a4e 5A000000 		.4byte	.LVL120
 10972 0a52 5F000000 		.4byte	.LVL121-1
 10973 0a56 0100     		.2byte	0x1
 10974 0a58 51       		.byte	0x51
 10975 0a59 00000000 		.4byte	0
 10976 0a5d 00000000 		.4byte	0
 10977              	.LVUS42:
 10978 0a61 05       		.uleb128 .LVU341
 10979 0a62 00       		.uleb128 .LVU345
 10980              	.LLST42:
 10981 0a63 0E000000 		.4byte	.LVL108
 10982 0a67 16000000 		.4byte	.LVL109
 10983 0a6b 0300     		.2byte	0x3
 10984 0a6d 08       		.byte	0x8
 10985 0a6e 20       		.byte	0x20
 10986 0a6f 9F       		.byte	0x9f
 10987 0a70 00000000 		.4byte	0
 10988 0a74 00000000 		.4byte	0
 10989              	.LVUS43:
 10990 0a78 04       		.uleb128 .LVU369
 10991 0a79 00       		.uleb128 .LVU371
 10992              	.LLST43:
 10993 0a7a 3E000000 		.4byte	.LVL117
 10994 0a7e 44000000 		.4byte	.LVL118
 10995 0a82 0200     		.2byte	0x2
 10996 0a84 30       		.byte	0x30
 10997 0a85 9F       		.byte	0x9f
 10998 0a86 00000000 		.4byte	0
 10999 0a8a 00000000 		.4byte	0
 11000              	.LVUS44:
 11001 0a8e 02       		.uleb128 .LVU376
 11002 0a8f 00       		.uleb128 .LVU383
 11003              	.LLST44:
 11004 0a90 5A000000 		.4byte	.LVL120
 11005 0a94 5F000000 		.4byte	.LVL121-1
 11006 0a98 0100     		.2byte	0x1
 11007 0a9a 51       		.byte	0x51
 11008 0a9b 00000000 		.4byte	0
 11009 0a9f 00000000 		.4byte	0
 11010              	.LVUS37:
 11011 0aa3 00       		.uleb128 0
 11012 0aa4 00       		.uleb128 .LVU303
 11013 0aa5 00       		.uleb128 .LVU303
 11014 0aa6 00       		.uleb128 0
 11015              	.LLST37:
 11016 0aa7 00000000 		.4byte	.LVL91
 11017 0aab 19000000 		.4byte	.LVL94-1
 11018 0aaf 0100     		.2byte	0x1
 11019 0ab1 50       		.byte	0x50
 11020 0ab2 19000000 		.4byte	.LVL94-1
 11021 0ab6 7C000000 		.4byte	.LFE226
 11022 0aba 0100     		.2byte	0x1
 11023 0abc 54       		.byte	0x54
 11024 0abd 00000000 		.4byte	0
ARM GAS  /tmp/ccJ6FnJD.s 			page 195


 11025 0ac1 00000000 		.4byte	0
 11026              	.LVUS38:
 11027 0ac5 05       		.uleb128 .LVU297
 11028 0ac6 00       		.uleb128 .LVU301
 11029              	.LLST38:
 11030 0ac7 0E000000 		.4byte	.LVL92
 11031 0acb 16000000 		.4byte	.LVL93
 11032 0acf 0300     		.2byte	0x3
 11033 0ad1 08       		.byte	0x8
 11034 0ad2 20       		.byte	0x20
 11035 0ad3 9F       		.byte	0x9f
 11036 0ad4 00000000 		.4byte	0
 11037 0ad8 00000000 		.4byte	0
 11038              	.LVUS39:
 11039 0adc 01       		.uleb128 .LVU305
 11040 0add 00       		.uleb128 .LVU312
 11041 0ade 00       		.uleb128 .LVU329
 11042 0adf 00       		.uleb128 .LVU331
 11043              	.LLST39:
 11044 0ae0 1E000000 		.4byte	.LVL95
 11045 0ae4 28000000 		.4byte	.LVL96
 11046 0ae8 0100     		.2byte	0x1
 11047 0aea 54       		.byte	0x54
 11048 0aeb 5E000000 		.4byte	.LVL103
 11049 0aef 66000000 		.4byte	.LVL105
 11050 0af3 0100     		.2byte	0x1
 11051 0af5 54       		.byte	0x54
 11052 0af6 00000000 		.4byte	0
 11053 0afa 00000000 		.4byte	0
 11054              	.LVUS40:
 11055 0afe 04       		.uleb128 .LVU324
 11056 0aff 00       		.uleb128 .LVU326
 11057              	.LLST40:
 11058 0b00 42000000 		.4byte	.LVL99
 11059 0b04 48000000 		.4byte	.LVL100
 11060 0b08 0200     		.2byte	0x2
 11061 0b0a 30       		.byte	0x30
 11062 0b0b 9F       		.byte	0x9f
 11063 0b0c 00000000 		.4byte	0
 11064 0b10 00000000 		.4byte	0
 11065              	.LVUS34:
 11066 0b14 00       		.uleb128 0
 11067 0b15 00       		.uleb128 .LVU269
 11068 0b16 00       		.uleb128 .LVU269
 11069 0b17 00       		.uleb128 0
 11070              	.LLST34:
 11071 0b18 00000000 		.4byte	.LVL79
 11072 0b1c 19000000 		.4byte	.LVL82-1
 11073 0b20 0100     		.2byte	0x1
 11074 0b22 50       		.byte	0x50
 11075 0b23 19000000 		.4byte	.LVL82-1
 11076 0b27 70000000 		.4byte	.LFE225
 11077 0b2b 0100     		.2byte	0x1
 11078 0b2d 54       		.byte	0x54
 11079 0b2e 00000000 		.4byte	0
 11080 0b32 00000000 		.4byte	0
 11081              	.LVUS35:
ARM GAS  /tmp/ccJ6FnJD.s 			page 196


 11082 0b36 05       		.uleb128 .LVU263
 11083 0b37 00       		.uleb128 .LVU267
 11084              	.LLST35:
 11085 0b38 0E000000 		.4byte	.LVL80
 11086 0b3c 16000000 		.4byte	.LVL81
 11087 0b40 0300     		.2byte	0x3
 11088 0b42 08       		.byte	0x8
 11089 0b43 20       		.byte	0x20
 11090 0b44 9F       		.byte	0x9f
 11091 0b45 00000000 		.4byte	0
 11092 0b49 00000000 		.4byte	0
 11093              	.LVUS36:
 11094 0b4d 04       		.uleb128 .LVU283
 11095 0b4e 00       		.uleb128 .LVU285
 11096              	.LLST36:
 11097 0b4f 44000000 		.4byte	.LVL86
 11098 0b53 4A000000 		.4byte	.LVL87
 11099 0b57 0200     		.2byte	0x2
 11100 0b59 30       		.byte	0x30
 11101 0b5a 9F       		.byte	0x9f
 11102 0b5b 00000000 		.4byte	0
 11103 0b5f 00000000 		.4byte	0
 11104              	.LVUS30:
 11105 0b63 00       		.uleb128 0
 11106 0b64 00       		.uleb128 .LVU209
 11107 0b65 00       		.uleb128 .LVU209
 11108 0b66 00       		.uleb128 .LVU251
 11109 0b67 00       		.uleb128 .LVU251
 11110 0b68 00       		.uleb128 .LVU253
 11111 0b69 00       		.uleb128 .LVU253
 11112 0b6a 00       		.uleb128 0
 11113              	.LLST30:
 11114 0b6b 00000000 		.4byte	.LVL61
 11115 0b6f 14000000 		.4byte	.LVL62
 11116 0b73 0100     		.2byte	0x1
 11117 0b75 50       		.byte	0x50
 11118 0b76 14000000 		.4byte	.LVL62
 11119 0b7a 74000000 		.4byte	.LVL74
 11120 0b7e 0100     		.2byte	0x1
 11121 0b80 54       		.byte	0x54
 11122 0b81 74000000 		.4byte	.LVL74
 11123 0b85 76000000 		.4byte	.LVL75
 11124 0b89 0100     		.2byte	0x1
 11125 0b8b 50       		.byte	0x50
 11126 0b8c 76000000 		.4byte	.LVL75
 11127 0b90 90000000 		.4byte	.LFE224
 11128 0b94 0100     		.2byte	0x1
 11129 0b96 54       		.byte	0x54
 11130 0b97 00000000 		.4byte	0
 11131 0b9b 00000000 		.4byte	0
 11132              	.LVUS31:
 11133 0b9f 00       		.uleb128 .LVU225
 11134 0ba0 00       		.uleb128 .LVU251
 11135 0ba1 00       		.uleb128 .LVU254
 11136 0ba2 00       		.uleb128 0
 11137              	.LLST31:
 11138 0ba3 28000000 		.4byte	.LVL66
ARM GAS  /tmp/ccJ6FnJD.s 			page 197


 11139 0ba7 74000000 		.4byte	.LVL74
 11140 0bab 0100     		.2byte	0x1
 11141 0bad 56       		.byte	0x56
 11142 0bae 7C000000 		.4byte	.LVL77
 11143 0bb2 90000000 		.4byte	.LFE224
 11144 0bb6 0100     		.2byte	0x1
 11145 0bb8 56       		.byte	0x56
 11146 0bb9 00000000 		.4byte	0
 11147 0bbd 00000000 		.4byte	0
 11148              	.LVUS32:
 11149 0bc1 06       		.uleb128 .LVU215
 11150 0bc2 00       		.uleb128 .LVU217
 11151              	.LLST32:
 11152 0bc3 14000000 		.4byte	.LVL62
 11153 0bc7 1A000000 		.4byte	.LVL63
 11154 0bcb 0300     		.2byte	0x3
 11155 0bcd 08       		.byte	0x8
 11156 0bce 20       		.byte	0x20
 11157 0bcf 9F       		.byte	0x9f
 11158 0bd0 00000000 		.4byte	0
 11159 0bd4 00000000 		.4byte	0
 11160              	.LVUS33:
 11161 0bd8 04       		.uleb128 .LVU243
 11162 0bd9 00       		.uleb128 .LVU245
 11163              	.LLST33:
 11164 0bda 50000000 		.4byte	.LVL70
 11165 0bde 56000000 		.4byte	.LVL71
 11166 0be2 0200     		.2byte	0x2
 11167 0be4 30       		.byte	0x30
 11168 0be5 9F       		.byte	0x9f
 11169 0be6 00000000 		.4byte	0
 11170 0bea 00000000 		.4byte	0
 11171              	.LVUS26:
 11172 0bee 00       		.uleb128 0
 11173 0bef 00       		.uleb128 .LVU172
 11174 0bf0 00       		.uleb128 .LVU172
 11175 0bf1 00       		.uleb128 .LVU182
 11176 0bf2 00       		.uleb128 .LVU182
 11177 0bf3 00       		.uleb128 .LVU186
 11178 0bf4 00       		.uleb128 .LVU186
 11179 0bf5 00       		.uleb128 0
 11180              	.LLST26:
 11181 0bf6 00000000 		.4byte	.LVL46
 11182 0bfa 19000000 		.4byte	.LVL49-1
 11183 0bfe 0100     		.2byte	0x1
 11184 0c00 50       		.byte	0x50
 11185 0c01 19000000 		.4byte	.LVL49-1
 11186 0c05 34000000 		.4byte	.LVL53
 11187 0c09 0100     		.2byte	0x1
 11188 0c0b 54       		.byte	0x54
 11189 0c0c 34000000 		.4byte	.LVL53
 11190 0c10 37000000 		.4byte	.LVL54-1
 11191 0c14 0100     		.2byte	0x1
 11192 0c16 50       		.byte	0x50
 11193 0c17 37000000 		.4byte	.LVL54-1
 11194 0c1b 80000000 		.4byte	.LFE223
 11195 0c1f 0100     		.2byte	0x1
ARM GAS  /tmp/ccJ6FnJD.s 			page 198


 11196 0c21 54       		.byte	0x54
 11197 0c22 00000000 		.4byte	0
 11198 0c26 00000000 		.4byte	0
 11199              	.LVUS27:
 11200 0c2a 05       		.uleb128 .LVU166
 11201 0c2b 00       		.uleb128 .LVU170
 11202              	.LLST27:
 11203 0c2c 0E000000 		.4byte	.LVL47
 11204 0c30 16000000 		.4byte	.LVL48
 11205 0c34 0300     		.2byte	0x3
 11206 0c36 08       		.byte	0x8
 11207 0c37 20       		.byte	0x20
 11208 0c38 9F       		.byte	0x9f
 11209 0c39 00000000 		.4byte	0
 11210 0c3d 00000000 		.4byte	0
 11211              	.LVUS28:
 11212 0c41 01       		.uleb128 .LVU174
 11213 0c42 00       		.uleb128 .LVU182
 11214              	.LLST28:
 11215 0c43 1E000000 		.4byte	.LVL50
 11216 0c47 34000000 		.4byte	.LVL53
 11217 0c4b 0100     		.2byte	0x1
 11218 0c4d 54       		.byte	0x54
 11219 0c4e 00000000 		.4byte	0
 11220 0c52 00000000 		.4byte	0
 11221              	.LVUS29:
 11222 0c56 04       		.uleb128 .LVU194
 11223 0c57 00       		.uleb128 .LVU196
 11224              	.LLST29:
 11225 0c58 4E000000 		.4byte	.LVL56
 11226 0c5c 54000000 		.4byte	.LVL57
 11227 0c60 0200     		.2byte	0x2
 11228 0c62 30       		.byte	0x30
 11229 0c63 9F       		.byte	0x9f
 11230 0c64 00000000 		.4byte	0
 11231 0c68 00000000 		.4byte	0
 11232              	.LVUS12:
 11233 0c6c 00       		.uleb128 0
 11234 0c6d 00       		.uleb128 .LVU100
 11235 0c6e 00       		.uleb128 .LVU100
 11236 0c6f 00       		.uleb128 0
 11237              	.LLST12:
 11238 0c70 00000000 		.4byte	.LVL22
 11239 0c74 0A000000 		.4byte	.LVL23
 11240 0c78 0100     		.2byte	0x1
 11241 0c7a 50       		.byte	0x50
 11242 0c7b 0A000000 		.4byte	.LVL23
 11243 0c7f B0000000 		.4byte	.LFE222
 11244 0c83 0100     		.2byte	0x1
 11245 0c85 57       		.byte	0x57
 11246 0c86 00000000 		.4byte	0
 11247 0c8a 00000000 		.4byte	0
 11248              	.LVUS13:
 11249 0c8e 00       		.uleb128 0
 11250 0c8f 00       		.uleb128 .LVU130
 11251 0c90 00       		.uleb128 .LVU130
 11252 0c91 00       		.uleb128 0
ARM GAS  /tmp/ccJ6FnJD.s 			page 199


 11253              	.LLST13:
 11254 0c92 00000000 		.4byte	.LVL22
 11255 0c96 40000000 		.4byte	.LVL32
 11256 0c9a 0100     		.2byte	0x1
 11257 0c9c 51       		.byte	0x51
 11258 0c9d 40000000 		.4byte	.LVL32
 11259 0ca1 B0000000 		.4byte	.LFE222
 11260 0ca5 0100     		.2byte	0x1
 11261 0ca7 58       		.byte	0x58
 11262 0ca8 00000000 		.4byte	0
 11263 0cac 00000000 		.4byte	0
 11264              	.LVUS14:
 11265 0cb0 00       		.uleb128 0
 11266 0cb1 00       		.uleb128 .LVU133
 11267 0cb2 00       		.uleb128 .LVU133
 11268 0cb3 00       		.uleb128 0
 11269              	.LLST14:
 11270 0cb4 00000000 		.4byte	.LVL22
 11271 0cb8 47000000 		.4byte	.LVL34-1
 11272 0cbc 0100     		.2byte	0x1
 11273 0cbe 52       		.byte	0x52
 11274 0cbf 47000000 		.4byte	.LVL34-1
 11275 0cc3 B0000000 		.4byte	.LFE222
 11276 0cc7 0200     		.2byte	0x2
 11277 0cc9 91       		.byte	0x91
 11278 0cca 50       		.sleb128 -48
 11279 0ccb 00000000 		.4byte	0
 11280 0ccf 00000000 		.4byte	0
 11281              	.LVUS15:
 11282 0cd3 00       		.uleb128 0
 11283 0cd4 00       		.uleb128 .LVU133
 11284 0cd5 00       		.uleb128 .LVU133
 11285 0cd6 00       		.uleb128 0
 11286              	.LLST15:
 11287 0cd7 00000000 		.4byte	.LVL22
 11288 0cdb 47000000 		.4byte	.LVL34-1
 11289 0cdf 0100     		.2byte	0x1
 11290 0ce1 53       		.byte	0x53
 11291 0ce2 47000000 		.4byte	.LVL34-1
 11292 0ce6 B0000000 		.4byte	.LFE222
 11293 0cea 0200     		.2byte	0x2
 11294 0cec 91       		.byte	0x91
 11295 0ced 54       		.sleb128 -44
 11296 0cee 00000000 		.4byte	0
 11297 0cf2 00000000 		.4byte	0
 11298              	.LVUS16:
 11299 0cf6 00       		.uleb128 0
 11300 0cf7 00       		.uleb128 .LVU156
 11301 0cf8 00       		.uleb128 .LVU156
 11302 0cf9 00       		.uleb128 0
 11303              	.LLST16:
 11304 0cfa 00000000 		.4byte	.LVL22
 11305 0cfe 96000000 		.4byte	.LVL43
 11306 0d02 0200     		.2byte	0x2
 11307 0d04 91       		.byte	0x91
 11308 0d05 00       		.sleb128 0
 11309 0d06 96000000 		.4byte	.LVL43
ARM GAS  /tmp/ccJ6FnJD.s 			page 200


 11310 0d0a B0000000 		.4byte	.LFE222
 11311 0d0e 0200     		.2byte	0x2
 11312 0d10 91       		.byte	0x91
 11313 0d11 00       		.sleb128 0
 11314 0d12 00000000 		.4byte	0
 11315 0d16 00000000 		.4byte	0
 11316              	.LVUS17:
 11317 0d1a 00       		.uleb128 .LVU138
 11318 0d1b 00       		.uleb128 .LVU139
 11319 0d1c 00       		.uleb128 .LVU139
 11320 0d1d 00       		.uleb128 0
 11321              	.LLST17:
 11322 0d1e 60000000 		.4byte	.LVL37
 11323 0d22 63000000 		.4byte	.LVL38-1
 11324 0d26 0100     		.2byte	0x1
 11325 0d28 50       		.byte	0x50
 11326 0d29 63000000 		.4byte	.LVL38-1
 11327 0d2d B0000000 		.4byte	.LFE222
 11328 0d31 0100     		.2byte	0x1
 11329 0d33 54       		.byte	0x54
 11330 0d34 00000000 		.4byte	0
 11331 0d38 00000000 		.4byte	0
 11332              	.LVUS18:
 11333 0d3c 00       		.uleb128 .LVU105
 11334 0d3d 00       		.uleb128 .LVU113
 11335              	.LLST18:
 11336 0d3e 1C000000 		.4byte	.LVL24
 11337 0d42 28000000 		.4byte	.LVL27
 11338 0d46 0300     		.2byte	0x3
 11339 0d48 09       		.byte	0x9
 11340 0d49 FF       		.byte	0xff
 11341 0d4a 9F       		.byte	0x9f
 11342 0d4b 00000000 		.4byte	0
 11343 0d4f 00000000 		.4byte	0
 11344              	.LVUS19:
 11345 0d53 00       		.uleb128 .LVU105
 11346 0d54 00       		.uleb128 .LVU113
 11347              	.LLST19:
 11348 0d55 1C000000 		.4byte	.LVL24
 11349 0d59 28000000 		.4byte	.LVL27
 11350 0d5d 0100     		.2byte	0x1
 11351 0d5f 54       		.byte	0x54
 11352 0d60 00000000 		.4byte	0
 11353 0d64 00000000 		.4byte	0
 11354              	.LVUS20:
 11355 0d68 00       		.uleb128 .LVU105
 11356 0d69 00       		.uleb128 .LVU110
 11357 0d6a 00       		.uleb128 .LVU110
 11358 0d6b 01       		.uleb128 .LVU111
 11359 0d6c 01       		.uleb128 .LVU111
 11360 0d6d 00       		.uleb128 .LVU112
 11361 0d6e 00       		.uleb128 .LVU112
 11362 0d6f 00       		.uleb128 .LVU113
 11363              	.LLST20:
 11364 0d70 1C000000 		.4byte	.LVL24
 11365 0d74 20000000 		.4byte	.LVL25
 11366 0d78 0100     		.2byte	0x1
ARM GAS  /tmp/ccJ6FnJD.s 			page 201


 11367 0d7a 57       		.byte	0x57
 11368 0d7b 20000000 		.4byte	.LVL25
 11369 0d7f 20000000 		.4byte	.LVL25
 11370 0d83 0100     		.2byte	0x1
 11371 0d85 55       		.byte	0x55
 11372 0d86 20000000 		.4byte	.LVL25
 11373 0d8a 24000000 		.4byte	.LVL26
 11374 0d8e 0300     		.2byte	0x3
 11375 0d90 75       		.byte	0x75
 11376 0d91 01       		.sleb128 1
 11377 0d92 9F       		.byte	0x9f
 11378 0d93 24000000 		.4byte	.LVL26
 11379 0d97 28000000 		.4byte	.LVL27
 11380 0d9b 0100     		.2byte	0x1
 11381 0d9d 55       		.byte	0x55
 11382 0d9e 00000000 		.4byte	0
 11383 0da2 00000000 		.4byte	0
 11384              	.LVUS21:
 11385 0da6 00       		.uleb128 .LVU115
 11386 0da7 00       		.uleb128 .LVU122
 11387              	.LLST21:
 11388 0da8 2C000000 		.4byte	.LVL28
 11389 0dac 3E000000 		.4byte	.LVL31
 11390 0db0 0300     		.2byte	0x3
 11391 0db2 08       		.byte	0x8
 11392 0db3 55       		.byte	0x55
 11393 0db4 9F       		.byte	0x9f
 11394 0db5 00000000 		.4byte	0
 11395 0db9 00000000 		.4byte	0
 11396              	.LVUS22:
 11397 0dbd 00       		.uleb128 .LVU115
 11398 0dbe 00       		.uleb128 .LVU122
 11399              	.LLST22:
 11400 0dbf 2C000000 		.4byte	.LVL28
 11401 0dc3 3E000000 		.4byte	.LVL31
 11402 0dc7 0100     		.2byte	0x1
 11403 0dc9 55       		.byte	0x55
 11404 0dca 00000000 		.4byte	0
 11405 0dce 00000000 		.4byte	0
 11406              	.LVUS23:
 11407 0dd2 00       		.uleb128 .LVU115
 11408 0dd3 01       		.uleb128 .LVU119
 11409 0dd4 01       		.uleb128 .LVU119
 11410 0dd5 00       		.uleb128 .LVU120
 11411 0dd6 00       		.uleb128 .LVU120
 11412 0dd7 00       		.uleb128 .LVU122
 11413              	.LLST23:
 11414 0dd8 2C000000 		.4byte	.LVL28
 11415 0ddc 32000000 		.4byte	.LVL29
 11416 0de0 0100     		.2byte	0x1
 11417 0de2 54       		.byte	0x54
 11418 0de3 32000000 		.4byte	.LVL29
 11419 0de7 36000000 		.4byte	.LVL30
 11420 0deb 0300     		.2byte	0x3
 11421 0ded 74       		.byte	0x74
 11422 0dee 01       		.sleb128 1
 11423 0def 9F       		.byte	0x9f
ARM GAS  /tmp/ccJ6FnJD.s 			page 202


 11424 0df0 36000000 		.4byte	.LVL30
 11425 0df4 3E000000 		.4byte	.LVL31
 11426 0df8 0100     		.2byte	0x1
 11427 0dfa 54       		.byte	0x54
 11428 0dfb 00000000 		.4byte	0
 11429 0dff 00000000 		.4byte	0
 11430              	.LVUS24:
 11431 0e03 06       		.uleb128 .LVU128
 11432 0e04 00       		.uleb128 .LVU131
 11433              	.LLST24:
 11434 0e05 3E000000 		.4byte	.LVL31
 11435 0e09 44000000 		.4byte	.LVL33
 11436 0e0d 0300     		.2byte	0x3
 11437 0e0f 08       		.byte	0x8
 11438 0e10 20       		.byte	0x20
 11439 0e11 9F       		.byte	0x9f
 11440 0e12 00000000 		.4byte	0
 11441 0e16 00000000 		.4byte	0
 11442              	.LVUS25:
 11443 0e1a 04       		.uleb128 .LVU151
 11444 0e1b 00       		.uleb128 .LVU153
 11445              	.LLST25:
 11446 0e1c 7E000000 		.4byte	.LVL41
 11447 0e20 84000000 		.4byte	.LVL42
 11448 0e24 0200     		.2byte	0x2
 11449 0e26 30       		.byte	0x30
 11450 0e27 9F       		.byte	0x9f
 11451 0e28 00000000 		.4byte	0
 11452 0e2c 00000000 		.4byte	0
 11453              	.LVUS6:
 11454 0e30 00       		.uleb128 0
 11455 0e31 00       		.uleb128 .LVU79
 11456 0e32 00       		.uleb128 .LVU79
 11457 0e33 00       		.uleb128 .LVU93
 11458 0e34 00       		.uleb128 .LVU93
 11459 0e35 00       		.uleb128 .LVU94
 11460 0e36 00       		.uleb128 .LVU94
 11461 0e37 00       		.uleb128 .LVU94
 11462 0e38 00       		.uleb128 .LVU94
 11463 0e39 00       		.uleb128 0
 11464              	.LLST6:
 11465 0e3a 00000000 		.4byte	.LVL14
 11466 0e3e 1F000000 		.4byte	.LVL17-1
 11467 0e42 0100     		.2byte	0x1
 11468 0e44 50       		.byte	0x50
 11469 0e45 1F000000 		.4byte	.LVL17-1
 11470 0e49 58000000 		.4byte	.LVL19
 11471 0e4d 0100     		.2byte	0x1
 11472 0e4f 55       		.byte	0x55
 11473 0e50 58000000 		.4byte	.LVL19
 11474 0e54 5B000000 		.4byte	.LVL20-1
 11475 0e58 0100     		.2byte	0x1
 11476 0e5a 50       		.byte	0x50
 11477 0e5b 5B000000 		.4byte	.LVL20-1
 11478 0e5f 5C000000 		.4byte	.LVL20
 11479 0e63 0400     		.2byte	0x4
 11480 0e65 F3       		.byte	0xf3
ARM GAS  /tmp/ccJ6FnJD.s 			page 203


 11481 0e66 01       		.uleb128 0x1
 11482 0e67 50       		.byte	0x50
 11483 0e68 9F       		.byte	0x9f
 11484 0e69 5C000000 		.4byte	.LVL20
 11485 0e6d 78000000 		.4byte	.LFE221
 11486 0e71 0100     		.2byte	0x1
 11487 0e73 55       		.byte	0x55
 11488 0e74 00000000 		.4byte	0
 11489 0e78 00000000 		.4byte	0
 11490              	.LVUS7:
 11491 0e7c 00       		.uleb128 0
 11492 0e7d 00       		.uleb128 .LVU79
 11493 0e7e 00       		.uleb128 .LVU79
 11494 0e7f 00       		.uleb128 .LVU93
 11495 0e80 00       		.uleb128 .LVU93
 11496 0e81 00       		.uleb128 .LVU94
 11497 0e82 00       		.uleb128 .LVU94
 11498 0e83 00       		.uleb128 0
 11499              	.LLST7:
 11500 0e84 00000000 		.4byte	.LVL14
 11501 0e88 1F000000 		.4byte	.LVL17-1
 11502 0e8c 0100     		.2byte	0x1
 11503 0e8e 51       		.byte	0x51
 11504 0e8f 1F000000 		.4byte	.LVL17-1
 11505 0e93 58000000 		.4byte	.LVL19
 11506 0e97 0100     		.2byte	0x1
 11507 0e99 54       		.byte	0x54
 11508 0e9a 58000000 		.4byte	.LVL19
 11509 0e9e 5C000000 		.4byte	.LVL20
 11510 0ea2 0400     		.2byte	0x4
 11511 0ea4 F3       		.byte	0xf3
 11512 0ea5 01       		.uleb128 0x1
 11513 0ea6 51       		.byte	0x51
 11514 0ea7 9F       		.byte	0x9f
 11515 0ea8 5C000000 		.4byte	.LVL20
 11516 0eac 78000000 		.4byte	.LFE221
 11517 0eb0 0100     		.2byte	0x1
 11518 0eb2 54       		.byte	0x54
 11519 0eb3 00000000 		.4byte	0
 11520 0eb7 00000000 		.4byte	0
 11521              	.LVUS8:
 11522 0ebb 00       		.uleb128 0
 11523 0ebc 00       		.uleb128 .LVU79
 11524 0ebd 00       		.uleb128 .LVU79
 11525 0ebe 00       		.uleb128 .LVU93
 11526 0ebf 00       		.uleb128 .LVU93
 11527 0ec0 00       		.uleb128 .LVU94
 11528 0ec1 00       		.uleb128 .LVU94
 11529 0ec2 00       		.uleb128 .LVU94
 11530 0ec3 00       		.uleb128 .LVU94
 11531 0ec4 00       		.uleb128 0
 11532              	.LLST8:
 11533 0ec5 00000000 		.4byte	.LVL14
 11534 0ec9 1F000000 		.4byte	.LVL17-1
 11535 0ecd 0100     		.2byte	0x1
 11536 0ecf 52       		.byte	0x52
 11537 0ed0 1F000000 		.4byte	.LVL17-1
ARM GAS  /tmp/ccJ6FnJD.s 			page 204


 11538 0ed4 58000000 		.4byte	.LVL19
 11539 0ed8 0100     		.2byte	0x1
 11540 0eda 56       		.byte	0x56
 11541 0edb 58000000 		.4byte	.LVL19
 11542 0edf 5B000000 		.4byte	.LVL20-1
 11543 0ee3 0100     		.2byte	0x1
 11544 0ee5 51       		.byte	0x51
 11545 0ee6 5B000000 		.4byte	.LVL20-1
 11546 0eea 5C000000 		.4byte	.LVL20
 11547 0eee 0400     		.2byte	0x4
 11548 0ef0 F3       		.byte	0xf3
 11549 0ef1 01       		.uleb128 0x1
 11550 0ef2 52       		.byte	0x52
 11551 0ef3 9F       		.byte	0x9f
 11552 0ef4 5C000000 		.4byte	.LVL20
 11553 0ef8 78000000 		.4byte	.LFE221
 11554 0efc 0100     		.2byte	0x1
 11555 0efe 56       		.byte	0x56
 11556 0eff 00000000 		.4byte	0
 11557 0f03 00000000 		.4byte	0
 11558              	.LVUS9:
 11559 0f07 00       		.uleb128 0
 11560 0f08 00       		.uleb128 .LVU76
 11561 0f09 00       		.uleb128 .LVU76
 11562 0f0a 00       		.uleb128 .LVU93
 11563 0f0b 00       		.uleb128 .LVU93
 11564 0f0c 00       		.uleb128 .LVU94
 11565 0f0d 00       		.uleb128 .LVU94
 11566 0f0e 00       		.uleb128 0
 11567              	.LLST9:
 11568 0f0f 00000000 		.4byte	.LVL14
 11569 0f13 0A000000 		.4byte	.LVL15
 11570 0f17 0100     		.2byte	0x1
 11571 0f19 53       		.byte	0x53
 11572 0f1a 0A000000 		.4byte	.LVL15
 11573 0f1e 58000000 		.4byte	.LVL19
 11574 0f22 0100     		.2byte	0x1
 11575 0f24 57       		.byte	0x57
 11576 0f25 58000000 		.4byte	.LVL19
 11577 0f29 5C000000 		.4byte	.LVL20
 11578 0f2d 0400     		.2byte	0x4
 11579 0f2f F3       		.byte	0xf3
 11580 0f30 01       		.uleb128 0x1
 11581 0f31 53       		.byte	0x53
 11582 0f32 9F       		.byte	0x9f
 11583 0f33 5C000000 		.4byte	.LVL20
 11584 0f37 78000000 		.4byte	.LFE221
 11585 0f3b 0100     		.2byte	0x1
 11586 0f3d 57       		.byte	0x57
 11587 0f3e 00000000 		.4byte	0
 11588 0f42 00000000 		.4byte	0
 11589              	.LVUS10:
 11590 0f46 00       		.uleb128 0
 11591 0f47 00       		.uleb128 .LVU93
 11592 0f48 00       		.uleb128 .LVU93
 11593 0f49 00       		.uleb128 .LVU94
 11594 0f4a 00       		.uleb128 .LVU94
ARM GAS  /tmp/ccJ6FnJD.s 			page 205


 11595 0f4b 00       		.uleb128 0
 11596              	.LLST10:
 11597 0f4c 00000000 		.4byte	.LVL14
 11598 0f50 58000000 		.4byte	.LVL19
 11599 0f54 0200     		.2byte	0x2
 11600 0f56 91       		.byte	0x91
 11601 0f57 00       		.sleb128 0
 11602 0f58 58000000 		.4byte	.LVL19
 11603 0f5c 5C000000 		.4byte	.LVL20
 11604 0f60 0200     		.2byte	0x2
 11605 0f62 7D       		.byte	0x7d
 11606 0f63 00       		.sleb128 0
 11607 0f64 5C000000 		.4byte	.LVL20
 11608 0f68 78000000 		.4byte	.LFE221
 11609 0f6c 0200     		.2byte	0x2
 11610 0f6e 91       		.byte	0x91
 11611 0f6f 00       		.sleb128 0
 11612 0f70 00000000 		.4byte	0
 11613 0f74 00000000 		.4byte	0
 11614              	.LVUS11:
 11615 0f78 01       		.uleb128 .LVU78
 11616 0f79 00       		.uleb128 .LVU79
 11617 0f7a 00       		.uleb128 .LVU79
 11618 0f7b 00       		.uleb128 .LVU93
 11619 0f7c 00       		.uleb128 .LVU93
 11620 0f7d 00       		.uleb128 .LVU94
 11621 0f7e 00       		.uleb128 .LVU94
 11622 0f7f 00       		.uleb128 .LVU94
 11623 0f80 00       		.uleb128 .LVU94
 11624 0f81 00       		.uleb128 0
 11625              	.LLST11:
 11626 0f82 1C000000 		.4byte	.LVL16
 11627 0f86 1F000000 		.4byte	.LVL17-1
 11628 0f8a 0100     		.2byte	0x1
 11629 0f8c 50       		.byte	0x50
 11630 0f8d 1F000000 		.4byte	.LVL17-1
 11631 0f91 58000000 		.4byte	.LVL19
 11632 0f95 0100     		.2byte	0x1
 11633 0f97 55       		.byte	0x55
 11634 0f98 58000000 		.4byte	.LVL19
 11635 0f9c 5B000000 		.4byte	.LVL20-1
 11636 0fa0 0100     		.2byte	0x1
 11637 0fa2 50       		.byte	0x50
 11638 0fa3 5B000000 		.4byte	.LVL20-1
 11639 0fa7 5C000000 		.4byte	.LVL20
 11640 0fab 0400     		.2byte	0x4
 11641 0fad F3       		.byte	0xf3
 11642 0fae 01       		.uleb128 0x1
 11643 0faf 50       		.byte	0x50
 11644 0fb0 9F       		.byte	0x9f
 11645 0fb1 5C000000 		.4byte	.LVL20
 11646 0fb5 78000000 		.4byte	.LFE221
 11647 0fb9 0100     		.2byte	0x1
 11648 0fbb 55       		.byte	0x55
 11649 0fbc 00000000 		.4byte	0
 11650 0fc0 00000000 		.4byte	0
 11651              	.LVUS0:
ARM GAS  /tmp/ccJ6FnJD.s 			page 206


 11652 0fc4 00       		.uleb128 0
 11653 0fc5 00       		.uleb128 .LVU24
 11654 0fc6 00       		.uleb128 .LVU24
 11655 0fc7 00       		.uleb128 0
 11656              	.LLST0:
 11657 0fc8 00000000 		.4byte	.LVL0
 11658 0fcc 36000000 		.4byte	.LVL2
 11659 0fd0 0100     		.2byte	0x1
 11660 0fd2 50       		.byte	0x50
 11661 0fd3 36000000 		.4byte	.LVL2
 11662 0fd7 7C000000 		.4byte	.LFE219
 11663 0fdb 0100     		.2byte	0x1
 11664 0fdd 54       		.byte	0x54
 11665 0fde 00000000 		.4byte	0
 11666 0fe2 00000000 		.4byte	0
 11667              	.LVUS1:
 11668 0fe6 00       		.uleb128 0
 11669 0fe7 00       		.uleb128 .LVU17
 11670 0fe8 00       		.uleb128 .LVU17
 11671 0fe9 00       		.uleb128 .LVU24
 11672 0fea 00       		.uleb128 .LVU24
 11673 0feb 00       		.uleb128 .LVU38
 11674 0fec 00       		.uleb128 .LVU38
 11675 0fed 00       		.uleb128 0
 11676              	.LLST1:
 11677 0fee 00000000 		.4byte	.LVL0
 11678 0ff2 22000000 		.4byte	.LVL1
 11679 0ff6 0100     		.2byte	0x1
 11680 0ff8 51       		.byte	0x51
 11681 0ff9 22000000 		.4byte	.LVL1
 11682 0ffd 36000000 		.4byte	.LVL2
 11683 1001 0200     		.2byte	0x2
 11684 1003 70       		.byte	0x70
 11685 1004 08       		.sleb128 8
 11686 1005 36000000 		.4byte	.LVL2
 11687 1009 48000000 		.4byte	.LVL3
 11688 100d 0200     		.2byte	0x2
 11689 100f 74       		.byte	0x74
 11690 1010 08       		.sleb128 8
 11691 1011 48000000 		.4byte	.LVL3
 11692 1015 7C000000 		.4byte	.LFE219
 11693 1019 0400     		.2byte	0x4
 11694 101b F3       		.byte	0xf3
 11695 101c 01       		.uleb128 0x1
 11696 101d 51       		.byte	0x51
 11697 101e 9F       		.byte	0x9f
 11698 101f 00000000 		.4byte	0
 11699 1023 00000000 		.4byte	0
 11700              	.LVUS2:
 11701 1027 02       		.uleb128 .LVU45
 11702 1028 04       		.uleb128 .LVU47
 11703              	.LLST2:
 11704 1029 52000000 		.4byte	.LVL4
 11705 102d 52000000 		.4byte	.LVL4
 11706 1031 0100     		.2byte	0x1
 11707 1033 56       		.byte	0x56
 11708 1034 00000000 		.4byte	0
ARM GAS  /tmp/ccJ6FnJD.s 			page 207


 11709 1038 00000000 		.4byte	0
 11710              	.LVUS3:
 11711 103c 00       		.uleb128 0
 11712 103d 01       		.uleb128 .LVU68
 11713 103e 01       		.uleb128 .LVU68
 11714 103f 00       		.uleb128 .LVU69
 11715 1040 00       		.uleb128 .LVU69
 11716 1041 00       		.uleb128 .LVU72
 11717              	.LLST3:
 11718 1042 00000000 		.4byte	.LVL9
 11719 1046 12000000 		.4byte	.LVL10
 11720 104a 0100     		.2byte	0x1
 11721 104c 50       		.byte	0x50
 11722 104d 12000000 		.4byte	.LVL10
 11723 1051 16000000 		.4byte	.LVL11
 11724 1055 0300     		.2byte	0x3
 11725 1057 70       		.byte	0x70
 11726 1058 01       		.sleb128 1
 11727 1059 9F       		.byte	0x9f
 11728 105a 16000000 		.4byte	.LVL11
 11729 105e 2D000000 		.4byte	.LVL13-1
 11730 1062 0100     		.2byte	0x1
 11731 1064 50       		.byte	0x50
 11732 1065 00000000 		.4byte	0
 11733 1069 00000000 		.4byte	0
 11734              	.LVUS4:
 11735 106d 00       		.uleb128 0
 11736 106e 00       		.uleb128 .LVU72
 11737 106f 00       		.uleb128 .LVU72
 11738 1070 00       		.uleb128 0
 11739              	.LLST4:
 11740 1071 00000000 		.4byte	.LVL9
 11741 1075 2D000000 		.4byte	.LVL13-1
 11742 1079 0100     		.2byte	0x1
 11743 107b 51       		.byte	0x51
 11744 107c 2D000000 		.4byte	.LVL13-1
 11745 1080 34000000 		.4byte	.LFE220
 11746 1084 0400     		.2byte	0x4
 11747 1086 F3       		.byte	0xf3
 11748 1087 01       		.uleb128 0x1
 11749 1088 51       		.byte	0x51
 11750 1089 9F       		.byte	0x9f
 11751 108a 00000000 		.4byte	0
 11752 108e 00000000 		.4byte	0
 11753              	.LVUS5:
 11754 1092 00       		.uleb128 0
 11755 1093 00       		.uleb128 .LVU71
 11756 1094 00       		.uleb128 .LVU71
 11757 1095 00       		.uleb128 0
 11758              	.LLST5:
 11759 1096 00000000 		.4byte	.LVL9
 11760 109a 22000000 		.4byte	.LVL12
 11761 109e 0100     		.2byte	0x1
 11762 10a0 52       		.byte	0x52
 11763 10a1 22000000 		.4byte	.LVL12
 11764 10a5 34000000 		.4byte	.LFE220
 11765 10a9 0400     		.2byte	0x4
ARM GAS  /tmp/ccJ6FnJD.s 			page 208


 11766 10ab F3       		.byte	0xf3
 11767 10ac 01       		.uleb128 0x1
 11768 10ad 52       		.byte	0x52
 11769 10ae 9F       		.byte	0x9f
 11770 10af 00000000 		.4byte	0
 11771 10b3 00000000 		.4byte	0
 11772              		.section	.debug_aranges,"",%progbits
 11773 0000 C4000000 		.4byte	0xc4
 11774 0004 0200     		.2byte	0x2
 11775 0006 00000000 		.4byte	.Ldebug_info0
 11776 000a 04       		.byte	0x4
 11777 000b 00       		.byte	0
 11778 000c 0000     		.2byte	0
 11779 000e 0000     		.2byte	0
 11780 0010 00000000 		.4byte	.LFB219
 11781 0014 7C000000 		.4byte	.LFE219-.LFB219
 11782 0018 00000000 		.4byte	.LFB220
 11783 001c 34000000 		.4byte	.LFE220-.LFB220
 11784 0020 00000000 		.4byte	.LFB221
 11785 0024 78000000 		.4byte	.LFE221-.LFB221
 11786 0028 00000000 		.4byte	.LFB222
 11787 002c B0000000 		.4byte	.LFE222-.LFB222
 11788 0030 00000000 		.4byte	.LFB223
 11789 0034 80000000 		.4byte	.LFE223-.LFB223
 11790 0038 00000000 		.4byte	.LFB224
 11791 003c 90000000 		.4byte	.LFE224-.LFB224
 11792 0040 00000000 		.4byte	.LFB225
 11793 0044 70000000 		.4byte	.LFE225-.LFB225
 11794 0048 00000000 		.4byte	.LFB226
 11795 004c 7C000000 		.4byte	.LFE226-.LFB226
 11796 0050 00000000 		.4byte	.LFB227
 11797 0054 74000000 		.4byte	.LFE227-.LFB227
 11798 0058 00000000 		.4byte	.LFB228
 11799 005c 90000000 		.4byte	.LFE228-.LFB228
 11800 0060 00000000 		.4byte	.LFB229
 11801 0064 7C000000 		.4byte	.LFE229-.LFB229
 11802 0068 00000000 		.4byte	.LFB231
 11803 006c 6C000000 		.4byte	.LFE231-.LFB231
 11804 0070 00000000 		.4byte	.LFB230
 11805 0074 3C000000 		.4byte	.LFE230-.LFB230
 11806 0078 00000000 		.4byte	.LFB232
 11807 007c B0000000 		.4byte	.LFE232-.LFB232
 11808 0080 00000000 		.4byte	.LFB233
 11809 0084 4C000000 		.4byte	.LFE233-.LFB233
 11810 0088 00000000 		.4byte	.LFB234
 11811 008c 60000000 		.4byte	.LFE234-.LFB234
 11812 0090 00000000 		.4byte	.LFB235
 11813 0094 5C000000 		.4byte	.LFE235-.LFB235
 11814 0098 00000000 		.4byte	.LFB236
 11815 009c 5C000000 		.4byte	.LFE236-.LFB236
 11816 00a0 00000000 		.4byte	.LFB237
 11817 00a4 70000000 		.4byte	.LFE237-.LFB237
 11818 00a8 00000000 		.4byte	.LFB238
 11819 00ac 54000000 		.4byte	.LFE238-.LFB238
 11820 00b0 00000000 		.4byte	.LFB239
 11821 00b4 60000000 		.4byte	.LFE239-.LFB239
 11822 00b8 00000000 		.4byte	.LFB240
ARM GAS  /tmp/ccJ6FnJD.s 			page 209


 11823 00bc 58000000 		.4byte	.LFE240-.LFB240
 11824 00c0 00000000 		.4byte	0
 11825 00c4 00000000 		.4byte	0
 11826              		.section	.debug_ranges,"",%progbits
 11827              	.Ldebug_ranges0:
 11828 0000 48000000 		.4byte	.LBB107
 11829 0004 4C000000 		.4byte	.LBE107
 11830 0008 52000000 		.4byte	.LBB114
 11831 000c 52000000 		.4byte	.LBE114
 11832 0010 00000000 		.4byte	0
 11833 0014 00000000 		.4byte	0
 11834 0018 4E000000 		.4byte	.LBB110
 11835 001c 50000000 		.4byte	.LBE110
 11836 0020 52000000 		.4byte	.LBB113
 11837 0024 52000000 		.4byte	.LBE113
 11838 0028 00000000 		.4byte	0
 11839 002c 00000000 		.4byte	0
 11840 0030 1C000000 		.4byte	.LBB129
 11841 0034 1C000000 		.4byte	.LBE129
 11842 0038 1E000000 		.4byte	.LBB132
 11843 003c 28000000 		.4byte	.LBE132
 11844 0040 00000000 		.4byte	0
 11845 0044 00000000 		.4byte	0
 11846 0048 3E000000 		.4byte	.LBB135
 11847 004c 3E000000 		.4byte	.LBE135
 11848 0050 3E000000 		.4byte	.LBB142
 11849 0054 4C000000 		.4byte	.LBE142
 11850 0058 00000000 		.4byte	0
 11851 005c 00000000 		.4byte	0
 11852 0060 3E000000 		.4byte	.LBB137
 11853 0064 3E000000 		.4byte	.LBE137
 11854 0068 3E000000 		.4byte	.LBB140
 11855 006c 44000000 		.4byte	.LBE140
 11856 0070 00000000 		.4byte	0
 11857 0074 00000000 		.4byte	0
 11858 0078 64000000 		.4byte	.LBB143
 11859 007c 7E000000 		.4byte	.LBE143
 11860 0080 7E000000 		.4byte	.LBB151
 11861 0084 84000000 		.4byte	.LBE151
 11862 0088 96000000 		.4byte	.LBB152
 11863 008c 9E000000 		.4byte	.LBE152
 11864 0090 00000000 		.4byte	0
 11865 0094 00000000 		.4byte	0
 11866 0098 7E000000 		.4byte	.LBB145
 11867 009c 7E000000 		.4byte	.LBE145
 11868 00a0 7E000000 		.4byte	.LBB148
 11869 00a4 84000000 		.4byte	.LBE148
 11870 00a8 00000000 		.4byte	0
 11871 00ac 00000000 		.4byte	0
 11872 00b0 0E000000 		.4byte	.LBB165
 11873 00b4 0E000000 		.4byte	.LBE165
 11874 00b8 0E000000 		.4byte	.LBB176
 11875 00bc 0E000000 		.4byte	.LBE176
 11876 00c0 10000000 		.4byte	.LBB177
 11877 00c4 1E000000 		.4byte	.LBE177
 11878 00c8 00000000 		.4byte	0
 11879 00cc 00000000 		.4byte	0
ARM GAS  /tmp/ccJ6FnJD.s 			page 210


 11880 00d0 0E000000 		.4byte	.LBB167
 11881 00d4 0E000000 		.4byte	.LBE167
 11882 00d8 0E000000 		.4byte	.LBB172
 11883 00dc 0E000000 		.4byte	.LBE172
 11884 00e0 10000000 		.4byte	.LBB173
 11885 00e4 16000000 		.4byte	.LBE173
 11886 00e8 00000000 		.4byte	0
 11887 00ec 00000000 		.4byte	0
 11888 00f0 34000000 		.4byte	.LBB180
 11889 00f4 4E000000 		.4byte	.LBE180
 11890 00f8 4E000000 		.4byte	.LBB188
 11891 00fc 54000000 		.4byte	.LBE188
 11892 0100 64000000 		.4byte	.LBB189
 11893 0104 6C000000 		.4byte	.LBE189
 11894 0108 00000000 		.4byte	0
 11895 010c 00000000 		.4byte	0
 11896 0110 4E000000 		.4byte	.LBB182
 11897 0114 4E000000 		.4byte	.LBE182
 11898 0118 4E000000 		.4byte	.LBB185
 11899 011c 54000000 		.4byte	.LBE185
 11900 0120 00000000 		.4byte	0
 11901 0124 00000000 		.4byte	0
 11902 0128 14000000 		.4byte	.LBB200
 11903 012c 14000000 		.4byte	.LBE200
 11904 0130 14000000 		.4byte	.LBB208
 11905 0134 1A000000 		.4byte	.LBE208
 11906 0138 1C000000 		.4byte	.LBB209
 11907 013c 24000000 		.4byte	.LBE209
 11908 0140 00000000 		.4byte	0
 11909 0144 00000000 		.4byte	0
 11910 0148 14000000 		.4byte	.LBB202
 11911 014c 14000000 		.4byte	.LBE202
 11912 0150 14000000 		.4byte	.LBB205
 11913 0154 1A000000 		.4byte	.LBE205
 11914 0158 00000000 		.4byte	0
 11915 015c 00000000 		.4byte	0
 11916 0160 38000000 		.4byte	.LBB210
 11917 0164 50000000 		.4byte	.LBE210
 11918 0168 50000000 		.4byte	.LBB218
 11919 016c 56000000 		.4byte	.LBE218
 11920 0170 6C000000 		.4byte	.LBB219
 11921 0174 74000000 		.4byte	.LBE219
 11922 0178 00000000 		.4byte	0
 11923 017c 00000000 		.4byte	0
 11924 0180 50000000 		.4byte	.LBB212
 11925 0184 50000000 		.4byte	.LBE212
 11926 0188 50000000 		.4byte	.LBB215
 11927 018c 56000000 		.4byte	.LBE215
 11928 0190 00000000 		.4byte	0
 11929 0194 00000000 		.4byte	0
 11930 0198 0E000000 		.4byte	.LBB230
 11931 019c 0E000000 		.4byte	.LBE230
 11932 01a0 0E000000 		.4byte	.LBB241
 11933 01a4 0E000000 		.4byte	.LBE241
 11934 01a8 10000000 		.4byte	.LBB242
 11935 01ac 1E000000 		.4byte	.LBE242
 11936 01b0 00000000 		.4byte	0
ARM GAS  /tmp/ccJ6FnJD.s 			page 211


 11937 01b4 00000000 		.4byte	0
 11938 01b8 0E000000 		.4byte	.LBB232
 11939 01bc 0E000000 		.4byte	.LBE232
 11940 01c0 0E000000 		.4byte	.LBB237
 11941 01c4 0E000000 		.4byte	.LBE237
 11942 01c8 10000000 		.4byte	.LBB238
 11943 01cc 16000000 		.4byte	.LBE238
 11944 01d0 00000000 		.4byte	0
 11945 01d4 00000000 		.4byte	0
 11946 01d8 2A000000 		.4byte	.LBB243
 11947 01dc 44000000 		.4byte	.LBE243
 11948 01e0 44000000 		.4byte	.LBB251
 11949 01e4 4A000000 		.4byte	.LBE251
 11950 01e8 58000000 		.4byte	.LBB252
 11951 01ec 60000000 		.4byte	.LBE252
 11952 01f0 00000000 		.4byte	0
 11953 01f4 00000000 		.4byte	0
 11954 01f8 44000000 		.4byte	.LBB245
 11955 01fc 44000000 		.4byte	.LBE245
 11956 0200 44000000 		.4byte	.LBB248
 11957 0204 4A000000 		.4byte	.LBE248
 11958 0208 00000000 		.4byte	0
 11959 020c 00000000 		.4byte	0
 11960 0210 0E000000 		.4byte	.LBB265
 11961 0214 0E000000 		.4byte	.LBE265
 11962 0218 0E000000 		.4byte	.LBB276
 11963 021c 0E000000 		.4byte	.LBE276
 11964 0220 10000000 		.4byte	.LBB277
 11965 0224 1E000000 		.4byte	.LBE277
 11966 0228 00000000 		.4byte	0
 11967 022c 00000000 		.4byte	0
 11968 0230 0E000000 		.4byte	.LBB267
 11969 0234 0E000000 		.4byte	.LBE267
 11970 0238 0E000000 		.4byte	.LBB272
 11971 023c 0E000000 		.4byte	.LBE272
 11972 0240 10000000 		.4byte	.LBB273
 11973 0244 16000000 		.4byte	.LBE273
 11974 0248 00000000 		.4byte	0
 11975 024c 00000000 		.4byte	0
 11976 0250 1E000000 		.4byte	.LBB278
 11977 0254 28000000 		.4byte	.LBE278
 11978 0258 5E000000 		.4byte	.LBB291
 11979 025c 66000000 		.4byte	.LBE291
 11980 0260 00000000 		.4byte	0
 11981 0264 00000000 		.4byte	0
 11982 0268 28000000 		.4byte	.LBB281
 11983 026c 42000000 		.4byte	.LBE281
 11984 0270 42000000 		.4byte	.LBB289
 11985 0274 48000000 		.4byte	.LBE289
 11986 0278 56000000 		.4byte	.LBB290
 11987 027c 5E000000 		.4byte	.LBE290
 11988 0280 00000000 		.4byte	0
 11989 0284 00000000 		.4byte	0
 11990 0288 42000000 		.4byte	.LBB283
 11991 028c 42000000 		.4byte	.LBE283
 11992 0290 42000000 		.4byte	.LBB286
 11993 0294 48000000 		.4byte	.LBE286
ARM GAS  /tmp/ccJ6FnJD.s 			page 212


 11994 0298 00000000 		.4byte	0
 11995 029c 00000000 		.4byte	0
 11996 02a0 0E000000 		.4byte	.LBB306
 11997 02a4 0E000000 		.4byte	.LBE306
 11998 02a8 0E000000 		.4byte	.LBB318
 11999 02ac 0E000000 		.4byte	.LBE318
 12000 02b0 10000000 		.4byte	.LBB319
 12001 02b4 16000000 		.4byte	.LBE319
 12002 02b8 18000000 		.4byte	.LBB323
 12003 02bc 20000000 		.4byte	.LBE323
 12004 02c0 00000000 		.4byte	0
 12005 02c4 00000000 		.4byte	0
 12006 02c8 0E000000 		.4byte	.LBB308
 12007 02cc 0E000000 		.4byte	.LBE308
 12008 02d0 0E000000 		.4byte	.LBB313
 12009 02d4 0E000000 		.4byte	.LBE313
 12010 02d8 10000000 		.4byte	.LBB314
 12011 02dc 16000000 		.4byte	.LBE314
 12012 02e0 00000000 		.4byte	0
 12013 02e4 00000000 		.4byte	0
 12014 02e8 16000000 		.4byte	.LBB320
 12015 02ec 18000000 		.4byte	.LBE320
 12016 02f0 20000000 		.4byte	.LBB324
 12017 02f4 22000000 		.4byte	.LBE324
 12018 02f8 00000000 		.4byte	0
 12019 02fc 00000000 		.4byte	0
 12020 0300 26000000 		.4byte	.LBB325
 12021 0304 3E000000 		.4byte	.LBE325
 12022 0308 3E000000 		.4byte	.LBB333
 12023 030c 44000000 		.4byte	.LBE333
 12024 0310 52000000 		.4byte	.LBB334
 12025 0314 5A000000 		.4byte	.LBE334
 12026 0318 00000000 		.4byte	0
 12027 031c 00000000 		.4byte	0
 12028 0320 3E000000 		.4byte	.LBB327
 12029 0324 3E000000 		.4byte	.LBE327
 12030 0328 3E000000 		.4byte	.LBB330
 12031 032c 44000000 		.4byte	.LBE330
 12032 0330 00000000 		.4byte	0
 12033 0334 00000000 		.4byte	0
 12034 0338 0E000000 		.4byte	.LBB353
 12035 033c 0E000000 		.4byte	.LBE353
 12036 0340 0E000000 		.4byte	.LBB365
 12037 0344 0E000000 		.4byte	.LBE365
 12038 0348 12000000 		.4byte	.LBB366
 12039 034c 18000000 		.4byte	.LBE366
 12040 0350 1A000000 		.4byte	.LBB370
 12041 0354 22000000 		.4byte	.LBE370
 12042 0358 00000000 		.4byte	0
 12043 035c 00000000 		.4byte	0
 12044 0360 0E000000 		.4byte	.LBB355
 12045 0364 0E000000 		.4byte	.LBE355
 12046 0368 0E000000 		.4byte	.LBB360
 12047 036c 0E000000 		.4byte	.LBE360
 12048 0370 12000000 		.4byte	.LBB361
 12049 0374 18000000 		.4byte	.LBE361
 12050 0378 00000000 		.4byte	0
ARM GAS  /tmp/ccJ6FnJD.s 			page 213


 12051 037c 00000000 		.4byte	0
 12052 0380 18000000 		.4byte	.LBB367
 12053 0384 1A000000 		.4byte	.LBE367
 12054 0388 22000000 		.4byte	.LBB371
 12055 038c 24000000 		.4byte	.LBE371
 12056 0390 00000000 		.4byte	0
 12057 0394 00000000 		.4byte	0
 12058 0398 2C000000 		.4byte	.LBB374
 12059 039c 44000000 		.4byte	.LBE374
 12060 03a0 44000000 		.4byte	.LBB382
 12061 03a4 4A000000 		.4byte	.LBE382
 12062 03a8 5A000000 		.4byte	.LBB383
 12063 03ac 62000000 		.4byte	.LBE383
 12064 03b0 00000000 		.4byte	0
 12065 03b4 00000000 		.4byte	0
 12066 03b8 44000000 		.4byte	.LBB376
 12067 03bc 44000000 		.4byte	.LBE376
 12068 03c0 44000000 		.4byte	.LBB379
 12069 03c4 4A000000 		.4byte	.LBE379
 12070 03c8 00000000 		.4byte	0
 12071 03cc 00000000 		.4byte	0
 12072 03d0 0E000000 		.4byte	.LBB400
 12073 03d4 0E000000 		.4byte	.LBE400
 12074 03d8 0E000000 		.4byte	.LBB408
 12075 03dc 14000000 		.4byte	.LBE408
 12076 03e0 16000000 		.4byte	.LBB417
 12077 03e4 1E000000 		.4byte	.LBE417
 12078 03e8 00000000 		.4byte	0
 12079 03ec 00000000 		.4byte	0
 12080 03f0 0E000000 		.4byte	.LBB402
 12081 03f4 0E000000 		.4byte	.LBE402
 12082 03f8 0E000000 		.4byte	.LBB405
 12083 03fc 14000000 		.4byte	.LBE405
 12084 0400 00000000 		.4byte	0
 12085 0404 00000000 		.4byte	0
 12086 0408 14000000 		.4byte	.LBB409
 12087 040c 16000000 		.4byte	.LBE409
 12088 0410 1E000000 		.4byte	.LBB418
 12089 0414 32000000 		.4byte	.LBE418
 12090 0418 66000000 		.4byte	.LBB429
 12091 041c 6C000000 		.4byte	.LBE429
 12092 0420 00000000 		.4byte	0
 12093 0424 00000000 		.4byte	0
 12094 0428 14000000 		.4byte	.LBB411
 12095 042c 16000000 		.4byte	.LBE411
 12096 0430 22000000 		.4byte	.LBB414
 12097 0434 2A000000 		.4byte	.LBE414
 12098 0438 00000000 		.4byte	0
 12099 043c 00000000 		.4byte	0
 12100 0440 32000000 		.4byte	.LBB419
 12101 0444 4A000000 		.4byte	.LBE419
 12102 0448 4A000000 		.4byte	.LBB427
 12103 044c 50000000 		.4byte	.LBE427
 12104 0450 5E000000 		.4byte	.LBB428
 12105 0454 66000000 		.4byte	.LBE428
 12106 0458 00000000 		.4byte	0
 12107 045c 00000000 		.4byte	0
ARM GAS  /tmp/ccJ6FnJD.s 			page 214


 12108 0460 4A000000 		.4byte	.LBB421
 12109 0464 4A000000 		.4byte	.LBE421
 12110 0468 4A000000 		.4byte	.LBB424
 12111 046c 50000000 		.4byte	.LBE424
 12112 0470 00000000 		.4byte	0
 12113 0474 00000000 		.4byte	0
 12114 0478 08000000 		.4byte	.LBB430
 12115 047c 0A000000 		.4byte	.LBE430
 12116 0480 1C000000 		.4byte	.LBB434
 12117 0484 1C000000 		.4byte	.LBE434
 12118 0488 28000000 		.4byte	.LBB437
 12119 048c 2A000000 		.4byte	.LBE437
 12120 0490 00000000 		.4byte	0
 12121 0494 00000000 		.4byte	0
 12122 0498 0E000000 		.4byte	.LBB438
 12123 049c 0E000000 		.4byte	.LBE438
 12124 04a0 0E000000 		.4byte	.LBB449
 12125 04a4 0E000000 		.4byte	.LBE449
 12126 04a8 10000000 		.4byte	.LBB450
 12127 04ac 1E000000 		.4byte	.LBE450
 12128 04b0 00000000 		.4byte	0
 12129 04b4 00000000 		.4byte	0
 12130 04b8 0E000000 		.4byte	.LBB440
 12131 04bc 0E000000 		.4byte	.LBE440
 12132 04c0 0E000000 		.4byte	.LBB445
 12133 04c4 0E000000 		.4byte	.LBE445
 12134 04c8 10000000 		.4byte	.LBB446
 12135 04cc 16000000 		.4byte	.LBE446
 12136 04d0 00000000 		.4byte	0
 12137 04d4 00000000 		.4byte	0
 12138 04d8 14000000 		.4byte	.LBB463
 12139 04dc 14000000 		.4byte	.LBE463
 12140 04e0 14000000 		.4byte	.LBB471
 12141 04e4 1A000000 		.4byte	.LBE471
 12142 04e8 1C000000 		.4byte	.LBB472
 12143 04ec 24000000 		.4byte	.LBE472
 12144 04f0 00000000 		.4byte	0
 12145 04f4 00000000 		.4byte	0
 12146 04f8 14000000 		.4byte	.LBB465
 12147 04fc 14000000 		.4byte	.LBE465
 12148 0500 14000000 		.4byte	.LBB468
 12149 0504 1A000000 		.4byte	.LBE468
 12150 0508 00000000 		.4byte	0
 12151 050c 00000000 		.4byte	0
 12152 0510 3A000000 		.4byte	.LBB473
 12153 0514 3E000000 		.4byte	.LBE473
 12154 0518 40000000 		.4byte	.LBB476
 12155 051c 42000000 		.4byte	.LBE476
 12156 0520 00000000 		.4byte	0
 12157 0524 00000000 		.4byte	0
 12158 0528 48000000 		.4byte	.LBB477
 12159 052c 60000000 		.4byte	.LBE477
 12160 0530 60000000 		.4byte	.LBB485
 12161 0534 66000000 		.4byte	.LBE485
 12162 0538 7C000000 		.4byte	.LBB486
 12163 053c 84000000 		.4byte	.LBE486
 12164 0540 00000000 		.4byte	0
ARM GAS  /tmp/ccJ6FnJD.s 			page 215


 12165 0544 00000000 		.4byte	0
 12166 0548 60000000 		.4byte	.LBB479
 12167 054c 60000000 		.4byte	.LBE479
 12168 0550 60000000 		.4byte	.LBB482
 12169 0554 66000000 		.4byte	.LBE482
 12170 0558 00000000 		.4byte	0
 12171 055c 00000000 		.4byte	0
 12172 0560 04000000 		.4byte	.LBB487
 12173 0564 06000000 		.4byte	.LBE487
 12174 0568 08000000 		.4byte	.LBB491
 12175 056c 0A000000 		.4byte	.LBE491
 12176 0570 16000000 		.4byte	.LBB492
 12177 0574 16000000 		.4byte	.LBE492
 12178 0578 00000000 		.4byte	0
 12179 057c 00000000 		.4byte	0
 12180 0580 02000000 		.4byte	.LBB495
 12181 0584 04000000 		.4byte	.LBE495
 12182 0588 06000000 		.4byte	.LBB499
 12183 058c 08000000 		.4byte	.LBE499
 12184 0590 16000000 		.4byte	.LBB500
 12185 0594 16000000 		.4byte	.LBE500
 12186 0598 00000000 		.4byte	0
 12187 059c 00000000 		.4byte	0
 12188 05a0 12000000 		.4byte	.LBB501
 12189 05a4 30000000 		.4byte	.LBE501
 12190 05a8 36000000 		.4byte	.LBB502
 12191 05ac 42000000 		.4byte	.LBE502
 12192 05b0 00000000 		.4byte	0
 12193 05b4 00000000 		.4byte	0
 12194 05b8 12000000 		.4byte	.LBB503
 12195 05bc 30000000 		.4byte	.LBE503
 12196 05c0 36000000 		.4byte	.LBB504
 12197 05c4 42000000 		.4byte	.LBE504
 12198 05c8 00000000 		.4byte	0
 12199 05cc 00000000 		.4byte	0
 12200 05d0 12000000 		.4byte	.LBB515
 12201 05d4 12000000 		.4byte	.LBE515
 12202 05d8 12000000 		.4byte	.LBB522
 12203 05dc 20000000 		.4byte	.LBE522
 12204 05e0 00000000 		.4byte	0
 12205 05e4 00000000 		.4byte	0
 12206 05e8 12000000 		.4byte	.LBB517
 12207 05ec 12000000 		.4byte	.LBE517
 12208 05f0 12000000 		.4byte	.LBB520
 12209 05f4 18000000 		.4byte	.LBE520
 12210 05f8 00000000 		.4byte	0
 12211 05fc 00000000 		.4byte	0
 12212 0600 28000000 		.4byte	.LBB523
 12213 0604 42000000 		.4byte	.LBE523
 12214 0608 42000000 		.4byte	.LBB531
 12215 060c 48000000 		.4byte	.LBE531
 12216 0610 58000000 		.4byte	.LBB532
 12217 0614 60000000 		.4byte	.LBE532
 12218 0618 00000000 		.4byte	0
 12219 061c 00000000 		.4byte	0
 12220 0620 42000000 		.4byte	.LBB525
 12221 0624 42000000 		.4byte	.LBE525
ARM GAS  /tmp/ccJ6FnJD.s 			page 216


 12222 0628 42000000 		.4byte	.LBB528
 12223 062c 48000000 		.4byte	.LBE528
 12224 0630 00000000 		.4byte	0
 12225 0634 00000000 		.4byte	0
 12226 0638 02000000 		.4byte	.LBB543
 12227 063c 04000000 		.4byte	.LBE543
 12228 0640 12000000 		.4byte	.LBB546
 12229 0644 12000000 		.4byte	.LBE546
 12230 0648 00000000 		.4byte	0
 12231 064c 00000000 		.4byte	0
 12232 0650 14000000 		.4byte	.LBB547
 12233 0654 22000000 		.4byte	.LBE547
 12234 0658 22000000 		.4byte	.LBB556
 12235 065c 22000000 		.4byte	.LBE556
 12236 0660 22000000 		.4byte	.LBB557
 12237 0664 32000000 		.4byte	.LBE557
 12238 0668 38000000 		.4byte	.LBB558
 12239 066c 44000000 		.4byte	.LBE558
 12240 0670 00000000 		.4byte	0
 12241 0674 00000000 		.4byte	0
 12242 0678 14000000 		.4byte	.LBB549
 12243 067c 1A000000 		.4byte	.LBE549
 12244 0680 22000000 		.4byte	.LBB552
 12245 0684 22000000 		.4byte	.LBE552
 12246 0688 00000000 		.4byte	0
 12247 068c 00000000 		.4byte	0
 12248 0690 02000000 		.4byte	.LBB567
 12249 0694 04000000 		.4byte	.LBE567
 12250 0698 12000000 		.4byte	.LBB571
 12251 069c 12000000 		.4byte	.LBE571
 12252 06a0 36000000 		.4byte	.LBB580
 12253 06a4 38000000 		.4byte	.LBE580
 12254 06a8 00000000 		.4byte	0
 12255 06ac 00000000 		.4byte	0
 12256 06b0 14000000 		.4byte	.LBB572
 12257 06b4 1A000000 		.4byte	.LBE572
 12258 06b8 1A000000 		.4byte	.LBB578
 12259 06bc 1A000000 		.4byte	.LBE578
 12260 06c0 1A000000 		.4byte	.LBB579
 12261 06c4 36000000 		.4byte	.LBE579
 12262 06c8 00000000 		.4byte	0
 12263 06cc 00000000 		.4byte	0
 12264 06d0 00000000 		.4byte	.LFB219
 12265 06d4 7C000000 		.4byte	.LFE219
 12266 06d8 00000000 		.4byte	.LFB220
 12267 06dc 34000000 		.4byte	.LFE220
 12268 06e0 00000000 		.4byte	.LFB221
 12269 06e4 78000000 		.4byte	.LFE221
 12270 06e8 00000000 		.4byte	.LFB222
 12271 06ec B0000000 		.4byte	.LFE222
 12272 06f0 00000000 		.4byte	.LFB223
 12273 06f4 80000000 		.4byte	.LFE223
 12274 06f8 00000000 		.4byte	.LFB224
 12275 06fc 90000000 		.4byte	.LFE224
 12276 0700 00000000 		.4byte	.LFB225
 12277 0704 70000000 		.4byte	.LFE225
 12278 0708 00000000 		.4byte	.LFB226
ARM GAS  /tmp/ccJ6FnJD.s 			page 217


 12279 070c 7C000000 		.4byte	.LFE226
 12280 0710 00000000 		.4byte	.LFB227
 12281 0714 74000000 		.4byte	.LFE227
 12282 0718 00000000 		.4byte	.LFB228
 12283 071c 90000000 		.4byte	.LFE228
 12284 0720 00000000 		.4byte	.LFB229
 12285 0724 7C000000 		.4byte	.LFE229
 12286 0728 00000000 		.4byte	.LFB231
 12287 072c 6C000000 		.4byte	.LFE231
 12288 0730 00000000 		.4byte	.LFB230
 12289 0734 3C000000 		.4byte	.LFE230
 12290 0738 00000000 		.4byte	.LFB232
 12291 073c B0000000 		.4byte	.LFE232
 12292 0740 00000000 		.4byte	.LFB233
 12293 0744 4C000000 		.4byte	.LFE233
 12294 0748 00000000 		.4byte	.LFB234
 12295 074c 60000000 		.4byte	.LFE234
 12296 0750 00000000 		.4byte	.LFB235
 12297 0754 5C000000 		.4byte	.LFE235
 12298 0758 00000000 		.4byte	.LFB236
 12299 075c 5C000000 		.4byte	.LFE236
 12300 0760 00000000 		.4byte	.LFB237
 12301 0764 70000000 		.4byte	.LFE237
 12302 0768 00000000 		.4byte	.LFB238
 12303 076c 54000000 		.4byte	.LFE238
 12304 0770 00000000 		.4byte	.LFB239
 12305 0774 60000000 		.4byte	.LFE239
 12306 0778 00000000 		.4byte	.LFB240
 12307 077c 58000000 		.4byte	.LFE240
 12308 0780 00000000 		.4byte	0
 12309 0784 00000000 		.4byte	0
 12310              		.section	.debug_line,"",%progbits
 12311              	.Ldebug_line0:
 12312 0000 40120000 		.section	.debug_str,"MS",%progbits,1
 12312      03001302 
 12312      00000201 
 12312      FB0E0D00 
 12312      01010101 
 12313              	.LASF49:
 12314 0000 705F7374 		.ascii	"p_stats\000"
 12314      61747300 
 12315              	.LASF5:
 12316 0008 73697A65 		.ascii	"size_t\000"
 12316      5F7400
 12317              	.LASF119:
 12318 000f 77747365 		.ascii	"wtsemp\000"
 12318      6D7000
 12319              	.LASF143:
 12320 0016 63665F6F 		.ascii	"cf_off_name\000"
 12320      66665F6E 
 12320      616D6500 
 12321              	.LASF27:
 12322 0022 73797374 		.ascii	"systime_t\000"
 12322      696D655F 
 12322      7400
 12323              	.LASF132:
 12324 002c 63685F69 		.ascii	"ch_identifier\000"
ARM GAS  /tmp/ccJ6FnJD.s 			page 218


 12324      64656E74 
 12324      69666965 
 12324      7200
 12325              	.LASF32:
 12326 003a 705F6374 		.ascii	"p_ctx\000"
 12326      7800
 12327              	.LASF22:
 12328 0040 74707269 		.ascii	"tprio_t\000"
 12328      6F5F7400 
 12329              	.LASF174:
 12330 0048 63685468 		.ascii	"chThdSetPriority\000"
 12330      64536574 
 12330      5072696F 
 12330      72697479 
 12330      00
 12331              	.LASF151:
 12332 0059 63685F64 		.ascii	"ch_debug\000"
 12332      65627567 
 12332      00
 12333              	.LASF43:
 12334 0062 705F6D73 		.ascii	"p_msgqueue\000"
 12334      67717565 
 12334      756500
 12335              	.LASF60:
 12336 006d 725F6374 		.ascii	"r_ctx\000"
 12336      7800
 12337              	.LASF6:
 12338 0073 696E7433 		.ascii	"int32_t\000"
 12338      325F7400 
 12339              	.LASF153:
 12340 007b 63685468 		.ascii	"chThdDequeueAllI\000"
 12340      64446571 
 12340      75657565 
 12340      416C6C49 
 12340      00
 12341              	.LASF158:
 12342 008c 63685468 		.ascii	"chThdResumeI\000"
 12342      64526573 
 12342      756D6549 
 12342      00
 12343              	.LASF186:
 12344 0099 63685468 		.ascii	"chThdSleepS\000"
 12344      64536C65 
 12344      65705300 
 12345              	.LASF140:
 12346 00a5 63665F6F 		.ascii	"cf_off_ctx\000"
 12346      66665F63 
 12346      747800
 12347              	.LASF64:
 12348 00b0 76746675 		.ascii	"vtfunc_t\000"
 12348      6E635F74 
 12348      00
 12349              	.LASF157:
 12350 00b9 63685468 		.ascii	"chThdResumeS\000"
 12350      64526573 
 12350      756D6553 
 12350      00
ARM GAS  /tmp/ccJ6FnJD.s 			page 219


 12351              	.LASF73:
 12352 00c6 63685F76 		.ascii	"ch_virtual_timers_list\000"
 12352      69727475 
 12352      616C5F74 
 12352      696D6572 
 12352      735F6C69 
 12353              	.LASF210:
 12354 00dd 63685363 		.ascii	"chSchReadyI\000"
 12354      68526561 
 12354      64794900 
 12355              	.LASF159:
 12356 00e9 5F5F6675 		.ascii	"__func__\000"
 12356      6E635F5F 
 12356      00
 12357              	.LASF197:
 12358 00f2 71756575 		.ascii	"queue_fifo_remove\000"
 12358      655F6669 
 12358      666F5F72 
 12358      656D6F76 
 12358      6500
 12359              	.LASF79:
 12360 0104 6C6F636B 		.ascii	"lock_cnt\000"
 12360      5F636E74 
 12360      00
 12361              	.LASF136:
 12362 010d 63685F70 		.ascii	"ch_ptrsize\000"
 12362      74727369 
 12362      7A6500
 12363              	.LASF218:
 12364 0118 63685468 		.ascii	"chThdRelease\000"
 12364      6452656C 
 12364      65617365 
 12364      00
 12365              	.LASF95:
 12366 0125 73655F74 		.ascii	"se_tp\000"
 12366      7000
 12367              	.LASF109:
 12368 012b 74696D65 		.ascii	"time_measurement_t\000"
 12368      5F6D6561 
 12368      73757265 
 12368      6D656E74 
 12368      5F7400
 12369              	.LASF201:
 12370 013e 71756575 		.ascii	"queue_notempty\000"
 12370      655F6E6F 
 12370      74656D70 
 12370      747900
 12371              	.LASF180:
 12372 014d 7072696F 		.ascii	"prio\000"
 12372      00
 12373              	.LASF214:
 12374 0152 5F646267 		.ascii	"_dbg_check_unlock\000"
 12374      5F636865 
 12374      636B5F75 
 12374      6E6C6F63 
 12374      6B00
 12375              	.LASF127:
ARM GAS  /tmp/ccJ6FnJD.s 			page 220


 12376 0164 6D5F6F77 		.ascii	"m_owner\000"
 12376      6E657200 
 12377              	.LASF71:
 12378 016c 76745F70 		.ascii	"vt_par\000"
 12378      617200
 12379              	.LASF116:
 12380 0173 65786974 		.ascii	"exitcode\000"
 12380      636F6465 
 12380      00
 12381              	.LASF121:
 12382 017c 65776D61 		.ascii	"ewmask\000"
 12382      736B00
 12383              	.LASF138:
 12384 0183 63685F74 		.ascii	"ch_threadsize\000"
 12384      68726561 
 12384      6473697A 
 12384      6500
 12385              	.LASF162:
 12386 0191 63685468 		.ascii	"chThdSuspendS\000"
 12386      64537573 
 12386      70656E64 
 12386      5300
 12387              	.LASF33:
 12388 019f 705F6E65 		.ascii	"p_newer\000"
 12388      77657200 
 12389              	.LASF7:
 12390 01a7 6C6F6E67 		.ascii	"long int\000"
 12390      20696E74 
 12390      00
 12391              	.LASF29:
 12392 01b0 705F6E65 		.ascii	"p_next\000"
 12392      787400
 12393              	.LASF205:
 12394 01b7 706F7274 		.ascii	"port_unlock\000"
 12394      5F756E6C 
 12394      6F636B00 
 12395              	.LASF145:
 12396 01c3 63665F6F 		.ascii	"cf_off_state\000"
 12396      66665F73 
 12396      74617465 
 12396      00
 12397              	.LASF160:
 12398 01d0 63685468 		.ascii	"chThdEnqueueTimeoutS\000"
 12398      64456E71 
 12398      75657565 
 12398      54696D65 
 12398      6F757453 
 12399              	.LASF30:
 12400 01e5 705F7072 		.ascii	"p_prev\000"
 12400      657600
 12401              	.LASF19:
 12402 01ec 74737461 		.ascii	"tstate_t\000"
 12402      74655F74 
 12402      00
 12403              	.LASF17:
 12404 01f5 72747469 		.ascii	"rttime_t\000"
 12404      6D655F74 
ARM GAS  /tmp/ccJ6FnJD.s 			page 221


 12404      00
 12405              	.LASF54:
 12406 01fe 74687265 		.ascii	"threads_queue_t\000"
 12406      6164735F 
 12406      71756575 
 12406      655F7400 
 12407              	.LASF46:
 12408 020e 705F6D74 		.ascii	"p_mtxlist\000"
 12408      786C6973 
 12408      7400
 12409              	.LASF90:
 12410 0218 72656761 		.ascii	"regarm_t\000"
 12410      726D5F74 
 12410      00
 12411              	.LASF219:
 12412 0221 63684462 		.ascii	"chDbgCheckClassS\000"
 12412      67436865 
 12412      636B436C 
 12412      61737353 
 12412      00
 12413              	.LASF165:
 12414 0232 63685468 		.ascii	"chThdExit\000"
 12414      64457869 
 12414      7400
 12415              	.LASF161:
 12416 023c 63685468 		.ascii	"chThdSuspendTimeoutS\000"
 12416      64537573 
 12416      70656E64 
 12416      54696D65 
 12416      6F757453 
 12417              	.LASF215:
 12418 0251 5F737461 		.ascii	"_stats_stop_measure_crit_thd\000"
 12418      74735F73 
 12418      746F705F 
 12418      6D656173 
 12418      7572655F 
 12419              	.LASF108:
 12420 026e 63756D75 		.ascii	"cumulative\000"
 12420      6C617469 
 12420      766500
 12421              	.LASF3:
 12422 0279 7369676E 		.ascii	"signed char\000"
 12422      65642063 
 12422      68617200 
 12423              	.LASF40:
 12424 0285 705F7072 		.ascii	"p_preempt\000"
 12424      65656D70 
 12424      7400
 12425              	.LASF8:
 12426 028f 75696E74 		.ascii	"uint8_t\000"
 12426      385F7400 
 12427              	.LASF24:
 12428 0297 6576656E 		.ascii	"eventmask_t\000"
 12428      746D6173 
 12428      6B5F7400 
 12429              	.LASF92:
 12430 02a3 636F6E74 		.ascii	"context\000"
ARM GAS  /tmp/ccJ6FnJD.s 			page 222


 12430      65787400 
 12431              	.LASF118:
 12432 02ab 77747472 		.ascii	"wttrp\000"
 12432      7000
 12433              	.LASF9:
 12434 02b1 756E7369 		.ascii	"unsigned char\000"
 12434      676E6564 
 12434      20636861 
 12434      7200
 12435              	.LASF196:
 12436 02bf 63685363 		.ascii	"chSchCanYieldS\000"
 12436      6843616E 
 12436      5969656C 
 12436      645300
 12437              	.LASF77:
 12438 02ce 70616E69 		.ascii	"panic_msg\000"
 12438      635F6D73 
 12438      6700
 12439              	.LASF80:
 12440 02d8 74726163 		.ascii	"trace_buffer\000"
 12440      655F6275 
 12440      66666572 
 12440      00
 12441              	.LASF61:
 12442 02e5 725F6E65 		.ascii	"r_newer\000"
 12442      77657200 
 12443              	.LASF75:
 12444 02ed 73797374 		.ascii	"system_debug_t\000"
 12444      656D5F64 
 12444      65627567 
 12444      5F7400
 12445              	.LASF190:
 12446 02fc 5F426F6F 		.ascii	"_Bool\000"
 12446      6C00
 12447              	.LASF222:
 12448 0302 63684462 		.ascii	"chDbgCheckClassI\000"
 12448      67436865 
 12448      636B436C 
 12448      61737349 
 12448      00
 12449              	.LASF216:
 12450 0313 63685363 		.ascii	"chSchWakeupS\000"
 12450      6857616B 
 12450      65757053 
 12450      00
 12451              	.LASF208:
 12452 0320 76616C75 		.ascii	"value\000"
 12452      6500
 12453              	.LASF130:
 12454 0326 63686172 		.ascii	"char\000"
 12454      00
 12455              	.LASF31:
 12456 032b 705F7072 		.ascii	"p_prio\000"
 12456      696F00
 12457              	.LASF129:
 12458 0332 6D5F636E 		.ascii	"m_cnt\000"
 12458      7400
ARM GAS  /tmp/ccJ6FnJD.s 			page 223


 12459              	.LASF117:
 12460 0338 77746F62 		.ascii	"wtobjp\000"
 12460      6A7000
 12461              	.LASF111:
 12462 033f 6E5F6374 		.ascii	"n_ctxswc\000"
 12462      78737763 
 12462      00
 12463              	.LASF141:
 12464 0348 63665F6F 		.ascii	"cf_off_newer\000"
 12464      66665F6E 
 12464      65776572 
 12464      00
 12465              	.LASF91:
 12466 0355 73746B61 		.ascii	"stkalign_t\000"
 12466      6C69676E 
 12466      5F7400
 12467              	.LASF223:
 12468 0360 6368544D 		.ascii	"chTMObjectInit\000"
 12468      4F626A65 
 12468      6374496E 
 12468      697400
 12469              	.LASF139:
 12470 036f 63665F6F 		.ascii	"cf_off_prio\000"
 12470      66665F70 
 12470      72696F00 
 12471              	.LASF106:
 12472 037b 776F7273 		.ascii	"worst\000"
 12472      7400
 12473              	.LASF224:
 12474 0381 6368544D 		.ascii	"chTMStartMeasurementX\000"
 12474      53746172 
 12474      744D6561 
 12474      73757265 
 12474      6D656E74 
 12475              	.LASF25:
 12476 0397 636E745F 		.ascii	"cnt_t\000"
 12476      7400
 12477              	.LASF172:
 12478 039d 63685468 		.ascii	"chThdSleep\000"
 12478      64536C65 
 12478      657000
 12479              	.LASF70:
 12480 03a8 76745F66 		.ascii	"vt_func\000"
 12480      756E6300 
 12481              	.LASF102:
 12482 03b0 63685F74 		.ascii	"ch_trace_buffer_t\000"
 12482      72616365 
 12482      5F627566 
 12482      6665725F 
 12482      7400
 12483              	.LASF45:
 12484 03c2 705F6570 		.ascii	"p_epending\000"
 12484      656E6469 
 12484      6E6700
 12485              	.LASF120:
 12486 03cd 77746D74 		.ascii	"wtmtxp\000"
 12486      787000
ARM GAS  /tmp/ccJ6FnJD.s 			page 224


 12487              	.LASF57:
 12488 03d4 63685F72 		.ascii	"ch_ready_list\000"
 12488      65616479 
 12488      5F6C6973 
 12488      7400
 12489              	.LASF78:
 12490 03e2 6973725F 		.ascii	"isr_cnt\000"
 12490      636E7400 
 12491              	.LASF156:
 12492 03ea 63685468 		.ascii	"chThdResume\000"
 12492      64526573 
 12492      756D6500 
 12493              	.LASF113:
 12494 03f6 6D5F6372 		.ascii	"m_crit_isr\000"
 12494      69745F69 
 12494      737200
 12495              	.LASF97:
 12496 0401 73655F73 		.ascii	"se_state\000"
 12496      74617465 
 12496      00
 12497              	.LASF112:
 12498 040a 6D5F6372 		.ascii	"m_crit_thd\000"
 12498      69745F74 
 12498      686400
 12499              	.LASF193:
 12500 0415 63685379 		.ascii	"chSysUnlock\000"
 12500      73556E6C 
 12500      6F636B00 
 12501              	.LASF13:
 12502 0421 6C6F6E67 		.ascii	"long unsigned int\000"
 12502      20756E73 
 12502      69676E65 
 12502      6420696E 
 12502      7400
 12503              	.LASF133:
 12504 0433 63685F7A 		.ascii	"ch_zero\000"
 12504      65726F00 
 12505              	.LASF194:
 12506 043b 63685379 		.ascii	"chSysLock\000"
 12506      734C6F63 
 12506      6B00
 12507              	.LASF89:
 12508 0445 53797374 		.ascii	"SystemCoreClock\000"
 12508      656D436F 
 12508      7265436C 
 12508      6F636B00 
 12509              	.LASF122:
 12510 0455 63685F73 		.ascii	"ch_semaphore\000"
 12510      656D6170 
 12510      686F7265 
 12510      00
 12511              	.LASF52:
 12512 0462 63685F74 		.ascii	"ch_thread\000"
 12512      68726561 
 12512      6400
 12513              	.LASF72:
 12514 046c 76697274 		.ascii	"virtual_timers_list_t\000"
ARM GAS  /tmp/ccJ6FnJD.s 			page 225


 12514      75616C5F 
 12514      74696D65 
 12514      72735F6C 
 12514      6973745F 
 12515              	.LASF65:
 12516 0482 76697274 		.ascii	"virtual_timer_t\000"
 12516      75616C5F 
 12516      74696D65 
 12516      725F7400 
 12517              	.LASF56:
 12518 0492 72656164 		.ascii	"ready_list_t\000"
 12518      795F6C69 
 12518      73745F74 
 12518      00
 12519              	.LASF26:
 12520 049f 75636E74 		.ascii	"ucnt_t\000"
 12520      5F7400
 12521              	.LASF178:
 12522 04a6 63685468 		.ascii	"chThdCreateStatic\000"
 12522      64437265 
 12522      61746553 
 12522      74617469 
 12522      6300
 12523              	.LASF53:
 12524 04b8 63685F74 		.ascii	"ch_threads_list\000"
 12524      68726561 
 12524      64735F6C 
 12524      69737400 
 12525              	.LASF98:
 12526 04c8 63685F73 		.ascii	"ch_swc_event_t\000"
 12526      77635F65 
 12526      76656E74 
 12526      5F7400
 12527              	.LASF203:
 12528 04d7 6C697374 		.ascii	"list_notempty\000"
 12528      5F6E6F74 
 12528      656D7074 
 12528      7900
 12529              	.LASF110:
 12530 04e5 6E5F6972 		.ascii	"n_irq\000"
 12530      7100
 12531              	.LASF199:
 12532 04eb 6C697374 		.ascii	"list_remove\000"
 12532      5F72656D 
 12532      6F766500 
 12533              	.LASF148:
 12534 04f7 63665F6F 		.ascii	"cf_off_preempt\000"
 12534      66665F70 
 12534      7265656D 
 12534      707400
 12535              	.LASF221:
 12536 0506 63685363 		.ascii	"chSchRescheduleS\000"
 12536      68526573 
 12536      63686564 
 12536      756C6553 
 12536      00
 12537              	.LASF229:
ARM GAS  /tmp/ccJ6FnJD.s 			page 226


 12538 0517 5F5F7374 		.ascii	"__stack_chk_fail\000"
 12538      61636B5F 
 12538      63686B5F 
 12538      6661696C 
 12538      00
 12539              	.LASF1:
 12540 0528 6C6F6E67 		.ascii	"long long int\000"
 12540      206C6F6E 
 12540      6720696E 
 12540      7400
 12541              	.LASF135:
 12542 0536 63685F76 		.ascii	"ch_version\000"
 12542      65727369 
 12542      6F6E00
 12543              	.LASF126:
 12544 0541 6D5F7175 		.ascii	"m_queue\000"
 12544      65756500 
 12545              	.LASF67:
 12546 0549 76745F6E 		.ascii	"vt_next\000"
 12546      65787400 
 12547              	.LASF166:
 12548 0551 63685468 		.ascii	"chThdYield\000"
 12548      64596965 
 12548      6C6400
 12549              	.LASF68:
 12550 055c 76745F70 		.ascii	"vt_prev\000"
 12550      72657600 
 12551              	.LASF99:
 12552 0564 74625F73 		.ascii	"tb_size\000"
 12552      697A6500 
 12553              	.LASF187:
 12554 056c 63685468 		.ascii	"chThdStartI\000"
 12554      64537461 
 12554      72744900 
 12555              	.LASF195:
 12556 0578 63685363 		.ascii	"chSchDoYieldS\000"
 12556      68446F59 
 12556      69656C64 
 12556      5300
 12557              	.LASF88:
 12558 0586 49544D5F 		.ascii	"ITM_RxBuffer\000"
 12558      52784275 
 12558      66666572 
 12558      00
 12559              	.LASF131:
 12560 0593 7466756E 		.ascii	"tfunc_t\000"
 12560      635F7400 
 12561              	.LASF155:
 12562 059b 74696D65 		.ascii	"timeout\000"
 12562      6F757400 
 12563              	.LASF154:
 12564 05a3 63685468 		.ascii	"chThdDequeueNextI\000"
 12564      64446571 
 12564      75657565 
 12564      4E657874 
 12564      4900
 12565              	.LASF200:
ARM GAS  /tmp/ccJ6FnJD.s 			page 227


 12566 05b5 6C697374 		.ascii	"list_insert\000"
 12566      5F696E73 
 12566      65727400 
 12567              	.LASF42:
 12568 05c1 705F7761 		.ascii	"p_waiting\000"
 12568      6974696E 
 12568      6700
 12569              	.LASF96:
 12570 05cb 73655F77 		.ascii	"se_wtobjp\000"
 12570      746F626A 
 12570      7000
 12571              	.LASF38:
 12572 05d5 705F666C 		.ascii	"p_flags\000"
 12572      61677300 
 12573              	.LASF87:
 12574 05dd 69646C65 		.ascii	"idle_thread_wa\000"
 12574      5F746872 
 12574      6561645F 
 12574      776100
 12575              	.LASF0:
 12576 05ec 756E7369 		.ascii	"unsigned int\000"
 12576      676E6564 
 12576      20696E74 
 12576      00
 12577              	.LASF167:
 12578 05f9 63685468 		.ascii	"chThdSleepUntilWindowed\000"
 12578      64536C65 
 12578      6570556E 
 12578      74696C57 
 12578      696E646F 
 12579              	.LASF16:
 12580 0611 7274636E 		.ascii	"rtcnt_t\000"
 12580      745F7400 
 12581              	.LASF48:
 12582 0619 705F6D70 		.ascii	"p_mpool\000"
 12582      6F6F6C00 
 12583              	.LASF39:
 12584 0621 705F7265 		.ascii	"p_refs\000"
 12584      667300
 12585              	.LASF137:
 12586 0628 63685F74 		.ascii	"ch_timesize\000"
 12586      696D6573 
 12586      697A6500 
 12587              	.LASF183:
 12588 0634 656E6470 		.ascii	"endp\000"
 12588      00
 12589              	.LASF114:
 12590 0639 6B65726E 		.ascii	"kernel_stats_t\000"
 12590      656C5F73 
 12590      74617473 
 12590      5F7400
 12591              	.LASF228:
 12592 0648 5F746872 		.ascii	"_thread_memfill\000"
 12592      6561645F 
 12592      6D656D66 
 12592      696C6C00 
 12593              	.LASF103:
ARM GAS  /tmp/ccJ6FnJD.s 			page 228


 12594 0658 6F666673 		.ascii	"offset\000"
 12594      657400
 12595              	.LASF101:
 12596 065f 74625F62 		.ascii	"tb_buffer\000"
 12596      75666665 
 12596      7200
 12597              	.LASF41:
 12598 0669 705F7469 		.ascii	"p_time\000"
 12598      6D6500
 12599              	.LASF147:
 12600 0670 63665F6F 		.ascii	"cf_off_refs\000"
 12600      66665F72 
 12600      65667300 
 12601              	.LASF176:
 12602 067c 6F6C6470 		.ascii	"oldprio\000"
 12602      72696F00 
 12603              	.LASF198:
 12604 0684 71756575 		.ascii	"queue_insert\000"
 12604      655F696E 
 12604      73657274 
 12604      00
 12605              	.LASF204:
 12606 0691 6C697374 		.ascii	"list_init\000"
 12606      5F696E69 
 12606      7400
 12607              	.LASF163:
 12608 069b 63685468 		.ascii	"chThdWait\000"
 12608      64576169 
 12608      7400
 12609              	.LASF28:
 12610 06a5 74687265 		.ascii	"thread_t\000"
 12610      61645F74 
 12610      00
 12611              	.LASF2:
 12612 06ae 6C6F6E67 		.ascii	"long double\000"
 12612      20646F75 
 12612      626C6500 
 12613              	.LASF50:
 12614 06ba 74687265 		.ascii	"thread_reference_t\000"
 12614      61645F72 
 12614      65666572 
 12614      656E6365 
 12614      5F7400
 12615              	.LASF192:
 12616 06cd 63685654 		.ascii	"chVTGetSystemTimeX\000"
 12616      47657453 
 12616      79737465 
 12616      6D54696D 
 12616      655800
 12617              	.LASF47:
 12618 06e0 705F7265 		.ascii	"p_realprio\000"
 12618      616C7072 
 12618      696F00
 12619              	.LASF93:
 12620 06eb 706F7274 		.ascii	"port_intctx\000"
 12620      5F696E74 
 12620      63747800 
ARM GAS  /tmp/ccJ6FnJD.s 			page 229


 12621              	.LASF149:
 12622 06f7 63665F6F 		.ascii	"cf_off_time\000"
 12622      66665F74 
 12622      696D6500 
 12623              	.LASF69:
 12624 0703 76745F64 		.ascii	"vt_delta\000"
 12624      656C7461 
 12624      00
 12625              	.LASF175:
 12626 070c 6E657770 		.ascii	"newprio\000"
 12626      72696F00 
 12627              	.LASF66:
 12628 0714 63685F76 		.ascii	"ch_virtual_timer\000"
 12628      69727475 
 12628      616C5F74 
 12628      696D6572 
 12628      00
 12629              	.LASF124:
 12630 0725 735F636E 		.ascii	"s_cnt\000"
 12630      7400
 12631              	.LASF86:
 12632 072b 6B65726E 		.ascii	"kernel_stats\000"
 12632      656C5F73 
 12632      74617473 
 12632      00
 12633              	.LASF179:
 12634 0738 73697A65 		.ascii	"size\000"
 12634      00
 12635              	.LASF15:
 12636 073d 6C6F6E67 		.ascii	"long long unsigned int\000"
 12636      206C6F6E 
 12636      6720756E 
 12636      7369676E 
 12636      65642069 
 12637              	.LASF34:
 12638 0754 705F6F6C 		.ascii	"p_older\000"
 12638      64657200 
 12639              	.LASF10:
 12640 075c 75696E74 		.ascii	"uint16_t\000"
 12640      31365F74 
 12640      00
 12641              	.LASF23:
 12642 0765 6D73675F 		.ascii	"msg_t\000"
 12642      7400
 12643              	.LASF55:
 12644 076b 63685F74 		.ascii	"ch_threads_queue\000"
 12644      68726561 
 12644      64735F71 
 12644      75657565 
 12644      00
 12645              	.LASF146:
 12646 077c 63665F6F 		.ascii	"cf_off_flags\000"
 12646      66665F66 
 12646      6C616773 
 12646      00
 12647              	.LASF21:
 12648 0789 74736C69 		.ascii	"tslices_t\000"
ARM GAS  /tmp/ccJ6FnJD.s 			page 230


 12648      6365735F 
 12648      7400
 12649              	.LASF63:
 12650 0793 725F6375 		.ascii	"r_current\000"
 12650      7272656E 
 12650      7400
 12651              	.LASF220:
 12652 079d 63685363 		.ascii	"chSchDoRescheduleBehind\000"
 12652      68446F52 
 12652      65736368 
 12652      6564756C 
 12652      65426568 
 12653              	.LASF212:
 12654 07b5 5F737461 		.ascii	"_stats_start_measure_crit_thd\000"
 12654      74735F73 
 12654      74617274 
 12654      5F6D6561 
 12654      73757265 
 12655              	.LASF213:
 12656 07d3 5F646267 		.ascii	"_dbg_check_lock\000"
 12656      5F636865 
 12656      636B5F6C 
 12656      6F636B00 
 12657              	.LASF85:
 12658 07e3 6D61696E 		.ascii	"mainthread\000"
 12658      74687265 
 12658      616400
 12659              	.LASF181:
 12660 07ee 63685468 		.ascii	"chThdCreateI\000"
 12660      64437265 
 12660      61746549 
 12660      00
 12661              	.LASF207:
 12662 07fb 5F5F7365 		.ascii	"__set_BASEPRI\000"
 12662      745F4241 
 12662      53455052 
 12662      4900
 12663              	.LASF105:
 12664 0809 62657374 		.ascii	"best\000"
 12664      00
 12665              	.LASF185:
 12666 080e 63685468 		.ascii	"chThdDoDequeueNextI\000"
 12666      64446F44 
 12666      65717565 
 12666      75654E65 
 12666      78744900 
 12667              	.LASF58:
 12668 0822 725F7175 		.ascii	"r_queue\000"
 12668      65756500 
 12669              	.LASF188:
 12670 082a 63685654 		.ascii	"chVTIsTimeWithinX\000"
 12670      49735469 
 12670      6D655769 
 12670      7468696E 
 12670      5800
 12671              	.LASF170:
 12672 083c 74696D65 		.ascii	"time\000"
ARM GAS  /tmp/ccJ6FnJD.s 			page 231


 12672      00
 12673              	.LASF171:
 12674 0841 63685468 		.ascii	"chThdSleepUntil\000"
 12674      64536C65 
 12674      6570556E 
 12674      74696C00 
 12675              	.LASF83:
 12676 0851 726C6973 		.ascii	"rlist\000"
 12676      7400
 12677              	.LASF18:
 12678 0857 746D6F64 		.ascii	"tmode_t\000"
 12678      655F7400 
 12679              	.LASF74:
 12680 085f 76745F73 		.ascii	"vt_systime\000"
 12680      79737469 
 12680      6D6500
 12681              	.LASF62:
 12682 086a 725F6F6C 		.ascii	"r_older\000"
 12682      64657200 
 12683              	.LASF104:
 12684 0872 746D5F63 		.ascii	"tm_calibration_t\000"
 12684      616C6962 
 12684      72617469 
 12684      6F6E5F74 
 12684      00
 12685              	.LASF206:
 12686 0883 706F7274 		.ascii	"port_lock\000"
 12686      5F6C6F63 
 12686      6B00
 12687              	.LASF123:
 12688 088d 735F7175 		.ascii	"s_queue\000"
 12688      65756500 
 12689              	.LASF184:
 12690 0895 5F746872 		.ascii	"_thread_init\000"
 12690      6561645F 
 12690      696E6974 
 12690      00
 12691              	.LASF4:
 12692 08a2 73686F72 		.ascii	"short int\000"
 12692      7420696E 
 12692      7400
 12693              	.LASF14:
 12694 08ac 75696E74 		.ascii	"uint64_t\000"
 12694      36345F74 
 12694      00
 12695              	.LASF125:
 12696 08b5 63685F6D 		.ascii	"ch_mutex\000"
 12696      75746578 
 12696      00
 12697              	.LASF191:
 12698 08be 63685468 		.ascii	"chThdGetSelfX\000"
 12698      64476574 
 12698      53656C66 
 12698      5800
 12699              	.LASF189:
 12700 08cc 73746172 		.ascii	"start\000"
 12700      7400
ARM GAS  /tmp/ccJ6FnJD.s 			page 232


 12701              	.LASF59:
 12702 08d2 725F7072 		.ascii	"r_prio\000"
 12702      696F00
 12703              	.LASF76:
 12704 08d9 63685F73 		.ascii	"ch_system_debug\000"
 12704      79737465 
 12704      6D5F6465 
 12704      62756700 
 12705              	.LASF142:
 12706 08e9 63665F6F 		.ascii	"cf_off_older\000"
 12706      66665F6F 
 12706      6C646572 
 12706      00
 12707              	.LASF164:
 12708 08f6 63685468 		.ascii	"chThdExitS\000"
 12708      64457869 
 12708      745300
 12709              	.LASF84:
 12710 0901 76746C69 		.ascii	"vtlist\000"
 12710      737400
 12711              	.LASF209:
 12712 0908 63685379 		.ascii	"chSysHalt\000"
 12712      7348616C 
 12712      7400
 12713              	.LASF173:
 12714 0912 63685468 		.ascii	"chThdTerminate\000"
 12714      64546572 
 12714      6D696E61 
 12714      746500
 12715              	.LASF152:
 12716 0921 6D757465 		.ascii	"mutex_t\000"
 12716      785F7400 
 12717              	.LASF202:
 12718 0929 71756575 		.ascii	"queue_init\000"
 12718      655F696E 
 12718      697400
 12719              	.LASF20:
 12720 0934 74726566 		.ascii	"trefs_t\000"
 12720      735F7400 
 12721              	.LASF211:
 12722 093c 63685363 		.ascii	"chSchGoSleepTimeoutS\000"
 12722      68476F53 
 12722      6C656570 
 12722      54696D65 
 12722      6F757453 
 12723              	.LASF144:
 12724 0951 63665F6F 		.ascii	"cf_off_stklimit\000"
 12724      66665F73 
 12724      746B6C69 
 12724      6D697400 
 12725              	.LASF51:
 12726 0961 74687265 		.ascii	"threads_list_t\000"
 12726      6164735F 
 12726      6C697374 
 12726      5F7400
 12727              	.LASF225:
 12728 0970 474E5520 		.ascii	"GNU C17 9.2.1 20191025 (release) [ARM/arm-9-branch "
ARM GAS  /tmp/ccJ6FnJD.s 			page 233


 12728      43313720 
 12728      392E322E 
 12728      31203230 
 12728      31393130 
 12729 09a3 72657669 		.ascii	"revision 277599] -mcpu=cortex-m4 -mfloat-abi=hard -"
 12729      73696F6E 
 12729      20323737 
 12729      3539395D 
 12729      202D6D63 
 12730 09d6 6D667075 		.ascii	"mfpu=fpv4-sp-d16 -mno-thumb-interwork -mthumb -marc"
 12730      3D667076 
 12730      342D7370 
 12730      2D643136 
 12730      202D6D6E 
 12731 0a09 683D6172 		.ascii	"h=armv7e-m+fp -ggdb -O2 -fomit-frame-pointer -falig"
 12731      6D763765 
 12731      2D6D2B66 
 12731      70202D67 
 12731      67646220 
 12732 0a3c 6E2D6675 		.ascii	"n-functions=16 -fno-strict-aliasing -fstack-protect"
 12732      6E637469 
 12732      6F6E733D 
 12732      3136202D 
 12732      666E6F2D 
 12733 0a6f 6F722D61 		.ascii	"or-all -ffunction-sections -fdata-sections -fno-com"
 12733      6C6C202D 
 12733      6666756E 
 12733      6374696F 
 12733      6E2D7365 
 12734 0aa2 6D6F6E20 		.ascii	"mon -fsingle-precision-constant\000"
 12734      2D667369 
 12734      6E676C65 
 12734      2D707265 
 12734      63697369 
 12735              	.LASF227:
 12736 0ac2 2F686F6D 		.ascii	"/home/olof/Documents/MICRO-315/micro-315/tp4/lib/e-"
 12736      652F6F6C 
 12736      6F662F44 
 12736      6F63756D 
 12736      656E7473 
 12737 0af5 7075636B 		.ascii	"puck2_main-processor\000"
 12737      325F6D61 
 12737      696E2D70 
 12737      726F6365 
 12737      73736F72 
 12738              	.LASF82:
 12739 0b0a 63685F73 		.ascii	"ch_system\000"
 12739      79737465 
 12739      6D00
 12740              	.LASF177:
 12741 0b14 63685468 		.ascii	"chThdStart\000"
 12741      64537461 
 12741      727400
 12742              	.LASF12:
 12743 0b1f 75696E74 		.ascii	"uint32_t\000"
 12743      33325F74 
 12743      00
ARM GAS  /tmp/ccJ6FnJD.s 			page 234


 12744              	.LASF115:
 12745 0b28 7264796D 		.ascii	"rdymsg\000"
 12745      736700
 12746              	.LASF226:
 12747 0b2f 2E2F2F43 		.ascii	".//ChibiOS//os/rt/src/chthreads.c\000"
 12747      68696269 
 12747      4F532F2F 
 12747      6F732F72 
 12747      742F7372 
 12748              	.LASF11:
 12749 0b51 73686F72 		.ascii	"short unsigned int\000"
 12749      7420756E 
 12749      7369676E 
 12749      65642069 
 12749      6E7400
 12750              	.LASF81:
 12751 0b64 63685F73 		.ascii	"ch_system_t\000"
 12751      79737465 
 12751      6D5F7400 
 12752              	.LASF150:
 12753 0b70 63686465 		.ascii	"chdebug_t\000"
 12753      6275675F 
 12753      7400
 12754              	.LASF217:
 12755 0b7a 63685363 		.ascii	"chSchGoSleepS\000"
 12755      68476F53 
 12755      6C656570 
 12755      5300
 12756              	.LASF134:
 12757 0b88 63685F73 		.ascii	"ch_size\000"
 12757      697A6500 
 12758              	.LASF36:
 12759 0b90 705F7374 		.ascii	"p_stklimit\000"
 12759      6B6C696D 
 12759      697400
 12760              	.LASF94:
 12761 0b9b 73655F74 		.ascii	"se_time\000"
 12761      696D6500 
 12762              	.LASF35:
 12763 0ba3 705F6E61 		.ascii	"p_name\000"
 12763      6D6500
 12764              	.LASF169:
 12765 0baa 6E657874 		.ascii	"next\000"
 12765      00
 12766              	.LASF128:
 12767 0baf 6D5F6E65 		.ascii	"m_next\000"
 12767      787400
 12768              	.LASF100:
 12769 0bb6 74625F70 		.ascii	"tb_ptr\000"
 12769      747200
 12770              	.LASF168:
 12771 0bbd 70726576 		.ascii	"prev\000"
 12771      00
 12772              	.LASF182:
 12773 0bc2 73746172 		.ascii	"startp\000"
 12773      747000
 12774              	.LASF107:
ARM GAS  /tmp/ccJ6FnJD.s 			page 235


 12775 0bc9 6C617374 		.ascii	"last\000"
 12775      00
 12776              	.LASF44:
 12777 0bce 705F6D73 		.ascii	"p_msg\000"
 12777      6700
 12778              	.LASF37:
 12779 0bd4 705F7374 		.ascii	"p_state\000"
 12779      61746500 
 12780              		.ident	"GCC: (15:9-2019-q4-0ubuntu1) 9.2.1 20191025 (release) [ARM/arm-9-branch revision 277599]"
ARM GAS  /tmp/ccJ6FnJD.s 			page 236


DEFINED SYMBOLS
                            *ABS*:0000000000000000 chthreads.c
     /tmp/ccJ6FnJD.s:18     .rodata._thread_init.cst4:0000000000000000 $d
     /tmp/ccJ6FnJD.s:22     .text._thread_init:0000000000000000 $t
     /tmp/ccJ6FnJD.s:31     .text._thread_init:0000000000000000 _thread_init
     /tmp/ccJ6FnJD.s:185    .text._thread_init:0000000000000074 $d
     /tmp/ccJ6FnJD.s:191    .rodata._thread_memfill.cst4:0000000000000000 $d
     /tmp/ccJ6FnJD.s:195    .text._thread_memfill:0000000000000000 $t
     /tmp/ccJ6FnJD.s:203    .text._thread_memfill:0000000000000000 _thread_memfill
     /tmp/ccJ6FnJD.s:257    .text._thread_memfill:0000000000000030 $d
     /tmp/ccJ6FnJD.s:262    .rodata.chThdCreateI.cst4:0000000000000000 $d
     /tmp/ccJ6FnJD.s:266    .text.chThdCreateI:0000000000000000 $t
     /tmp/ccJ6FnJD.s:274    .text.chThdCreateI:0000000000000000 chThdCreateI
     /tmp/ccJ6FnJD.s:379    .text.chThdCreateI:000000000000006c $d
     /tmp/ccJ6FnJD.s:386    .rodata.chThdCreateStatic.cst4:0000000000000000 $d
     /tmp/ccJ6FnJD.s:390    .text.chThdCreateStatic:0000000000000000 $t
     /tmp/ccJ6FnJD.s:398    .text.chThdCreateStatic:0000000000000000 chThdCreateStatic
     /tmp/ccJ6FnJD.s:639    .text.chThdCreateStatic:00000000000000a4 $d
     /tmp/ccJ6FnJD.s:646    .rodata.chThdStart.cst4:0000000000000000 $d
     /tmp/ccJ6FnJD.s:650    .text.chThdStart:0000000000000000 $t
     /tmp/ccJ6FnJD.s:658    .text.chThdStart:0000000000000000 chThdStart
     /tmp/ccJ6FnJD.s:848    .text.chThdStart:0000000000000070 $d
     /tmp/ccJ6FnJD.s:856    .rodata.chThdSetPriority.cst4:0000000000000000 $d
     /tmp/ccJ6FnJD.s:860    .text.chThdSetPriority:0000000000000000 $t
     /tmp/ccJ6FnJD.s:868    .text.chThdSetPriority:0000000000000000 chThdSetPriority
     /tmp/ccJ6FnJD.s:1074   .text.chThdSetPriority:0000000000000080 $d
     /tmp/ccJ6FnJD.s:1082   .rodata.chThdTerminate.cst4:0000000000000000 $d
     /tmp/ccJ6FnJD.s:1086   .text.chThdTerminate:0000000000000000 $t
     /tmp/ccJ6FnJD.s:1094   .text.chThdTerminate:0000000000000000 chThdTerminate
     /tmp/ccJ6FnJD.s:1259   .text.chThdTerminate:0000000000000064 $d
     /tmp/ccJ6FnJD.s:1266   .rodata.chThdSleep.cst4:0000000000000000 $d
     /tmp/ccJ6FnJD.s:1270   .text.chThdSleep:0000000000000000 $t
     /tmp/ccJ6FnJD.s:1278   .text.chThdSleep:0000000000000000 chThdSleep
     /tmp/ccJ6FnJD.s:1472   .text.chThdSleep:000000000000006c $d
     /tmp/ccJ6FnJD.s:1480   .rodata.chThdSleepUntil.cst4:0000000000000000 $d
     /tmp/ccJ6FnJD.s:1484   .text.chThdSleepUntil:0000000000000000 $t
     /tmp/ccJ6FnJD.s:1492   .text.chThdSleepUntil:0000000000000000 chThdSleepUntil
     /tmp/ccJ6FnJD.s:1705   .text.chThdSleepUntil:0000000000000068 $d
     /tmp/ccJ6FnJD.s:1712   .rodata.chThdSleepUntilWindowed.cst4:0000000000000000 $d
     /tmp/ccJ6FnJD.s:1716   .text.chThdSleepUntilWindowed:0000000000000000 $t
     /tmp/ccJ6FnJD.s:1724   .text.chThdSleepUntilWindowed:0000000000000000 chThdSleepUntilWindowed
     /tmp/ccJ6FnJD.s:1971   .text.chThdSleepUntilWindowed:0000000000000080 $d
     /tmp/ccJ6FnJD.s:1979   .rodata.chThdYield.cst4:0000000000000000 $d
     /tmp/ccJ6FnJD.s:1983   .text.chThdYield:0000000000000000 $t
     /tmp/ccJ6FnJD.s:1991   .text.chThdYield:0000000000000000 chThdYield
     /tmp/ccJ6FnJD.s:2189   .text.chThdYield:0000000000000070 $d
     /tmp/ccJ6FnJD.s:2196   .rodata.chThdExitS.cst4:0000000000000000 $d
     /tmp/ccJ6FnJD.s:2200   .text.chThdExitS:0000000000000000 $t
     /tmp/ccJ6FnJD.s:2208   .text.chThdExitS:0000000000000000 chThdExitS
     /tmp/ccJ6FnJD.s:2351   .text.chThdExitS:0000000000000060 $d
     /tmp/ccJ6FnJD.s:2358   .rodata.chThdExit.cst4:0000000000000000 $d
     /tmp/ccJ6FnJD.s:2362   .text.chThdExit:0000000000000000 $t
     /tmp/ccJ6FnJD.s:2370   .text.chThdExit:0000000000000000 chThdExit
     /tmp/ccJ6FnJD.s:2472   .text.chThdExit:0000000000000038 $d
     /tmp/ccJ6FnJD.s:2477   .rodata.chThdWait.cst4:0000000000000000 $d
     /tmp/ccJ6FnJD.s:2481   .text.chThdWait:0000000000000000 $t
     /tmp/ccJ6FnJD.s:2489   .text.chThdWait:0000000000000000 chThdWait
ARM GAS  /tmp/ccJ6FnJD.s 			page 237


     /tmp/ccJ6FnJD.s:2736   .text.chThdWait:00000000000000a0 $d
     /tmp/ccJ6FnJD.s:2744   .rodata.chThdSuspendS.cst4:0000000000000000 $d
     /tmp/ccJ6FnJD.s:2748   .text.chThdSuspendS:0000000000000000 $t
     /tmp/ccJ6FnJD.s:2756   .text.chThdSuspendS:0000000000000000 chThdSuspendS
     /tmp/ccJ6FnJD.s:2858   .text.chThdSuspendS:0000000000000040 $d
     /tmp/ccJ6FnJD.s:2865   .rodata.chThdSuspendTimeoutS.cst4:0000000000000000 $d
     /tmp/ccJ6FnJD.s:2869   .text.chThdSuspendTimeoutS:0000000000000000 $t
     /tmp/ccJ6FnJD.s:2877   .text.chThdSuspendTimeoutS:0000000000000000 chThdSuspendTimeoutS
     /tmp/ccJ6FnJD.s:2997   .text.chThdSuspendTimeoutS:0000000000000054 $d
     /tmp/ccJ6FnJD.s:3004   .rodata.chThdResumeI.cst4:0000000000000000 $d
     /tmp/ccJ6FnJD.s:3008   .text.chThdResumeI:0000000000000000 $t
     /tmp/ccJ6FnJD.s:3016   .text.chThdResumeI:0000000000000000 chThdResumeI
     /tmp/ccJ6FnJD.s:3126   .text.chThdResumeI:0000000000000054 $d
     /tmp/ccJ6FnJD.s:3132   .rodata.chThdResumeS.cst4:0000000000000000 $d
     /tmp/ccJ6FnJD.s:3136   .text.chThdResumeS:0000000000000000 $t
     /tmp/ccJ6FnJD.s:3144   .text.chThdResumeS:0000000000000000 chThdResumeS
     /tmp/ccJ6FnJD.s:3249   .text.chThdResumeS:0000000000000054 $d
     /tmp/ccJ6FnJD.s:3255   .rodata.chThdResume.cst4:0000000000000000 $d
     /tmp/ccJ6FnJD.s:3259   .text.chThdResume:0000000000000000 $t
     /tmp/ccJ6FnJD.s:3267   .text.chThdResume:0000000000000000 chThdResume
     /tmp/ccJ6FnJD.s:3420   .text.chThdResume:0000000000000064 $d
     /tmp/ccJ6FnJD.s:3427   .rodata.chThdEnqueueTimeoutS.cst4:0000000000000000 $d
     /tmp/ccJ6FnJD.s:3431   .text.chThdEnqueueTimeoutS:0000000000000000 $t
     /tmp/ccJ6FnJD.s:3439   .text.chThdEnqueueTimeoutS:0000000000000000 chThdEnqueueTimeoutS
     /tmp/ccJ6FnJD.s:3532   .text.chThdEnqueueTimeoutS:000000000000004c $d
     /tmp/ccJ6FnJD.s:3538   .rodata.chThdDequeueNextI.cst4:0000000000000000 $d
     /tmp/ccJ6FnJD.s:3542   .text.chThdDequeueNextI:0000000000000000 $t
     /tmp/ccJ6FnJD.s:3550   .text.chThdDequeueNextI:0000000000000000 chThdDequeueNextI
     /tmp/ccJ6FnJD.s:3711   .text.chThdDequeueNextI:0000000000000058 $d
     /tmp/ccJ6FnJD.s:3717   .rodata.chThdDequeueAllI.cst4:0000000000000000 $d
     /tmp/ccJ6FnJD.s:3721   .text.chThdDequeueAllI:0000000000000000 $t
     /tmp/ccJ6FnJD.s:3729   .text.chThdDequeueAllI:0000000000000000 chThdDequeueAllI
     /tmp/ccJ6FnJD.s:3876   .text.chThdDequeueAllI:0000000000000050 $d
     /tmp/ccJ6FnJD.s:3882   .rodata.__func__.7261:0000000000000000 $d
     /tmp/ccJ6FnJD.s:3886   .rodata.__func__.7261:0000000000000000 __func__.7261
     /tmp/ccJ6FnJD.s:3889   .rodata.__func__.7428:0000000000000000 $d
     /tmp/ccJ6FnJD.s:3893   .rodata.__func__.7428:0000000000000000 __func__.7428
     /tmp/ccJ6FnJD.s:3896   .rodata.__func__.7432:0000000000000000 $d
     /tmp/ccJ6FnJD.s:3900   .rodata.__func__.7432:0000000000000000 __func__.7432
     /tmp/ccJ6FnJD.s:3903   .rodata.__func__.7444:0000000000000000 $d
     /tmp/ccJ6FnJD.s:3907   .rodata.__func__.7444:0000000000000000 __func__.7444
     /tmp/ccJ6FnJD.s:3910   .rodata.__func__.7974:0000000000000000 $d
     /tmp/ccJ6FnJD.s:3914   .rodata.__func__.7974:0000000000000000 __func__.7974
     /tmp/ccJ6FnJD.s:3917   .rodata.__func__.7990:0000000000000000 $d
     /tmp/ccJ6FnJD.s:3921   .rodata.__func__.7990:0000000000000000 __func__.7990
     /tmp/ccJ6FnJD.s:3924   .rodata.__func__.8018:0000000000000000 $d
     /tmp/ccJ6FnJD.s:3928   .rodata.__func__.8018:0000000000000000 __func__.8018
     /tmp/ccJ6FnJD.s:3931   .rodata.__func__.8023:0000000000000000 $d
     /tmp/ccJ6FnJD.s:3935   .rodata.__func__.8023:0000000000000000 __func__.8023
     /tmp/ccJ6FnJD.s:3938   .rodata.__func__.8028:0000000000000000 $d
     /tmp/ccJ6FnJD.s:3942   .rodata.__func__.8028:0000000000000000 __func__.8028
     /tmp/ccJ6FnJD.s:3945   .rodata.__func__.8034:0000000000000000 $d
     /tmp/ccJ6FnJD.s:3949   .rodata.__func__.8034:0000000000000000 __func__.8034
     /tmp/ccJ6FnJD.s:3952   .rodata.__func__.8040:0000000000000000 $d
     /tmp/ccJ6FnJD.s:3956   .rodata.__func__.8040:0000000000000000 __func__.8040
     /tmp/ccJ6FnJD.s:3959   .rodata.__func__.8046:0000000000000000 $d
     /tmp/ccJ6FnJD.s:3963   .rodata.__func__.8046:0000000000000000 __func__.8046
ARM GAS  /tmp/ccJ6FnJD.s 			page 238



UNDEFINED SYMBOLS
__stack_chk_guard
chTMObjectInit
chTMStartMeasurementX
__stack_chk_fail
ch
chDbgCheckClassI
chSysHalt
_port_thread_start
_stats_start_measure_crit_thd
_dbg_check_lock
chSchWakeupS
_dbg_check_unlock
_stats_stop_measure_crit_thd
chSchReadyI
chSchRescheduleS
chSchGoSleepTimeoutS
chDbgCheckClassS
chSchDoRescheduleBehind
chSchGoSleepS
chThdRelease
