ARM GAS  /tmp/ccJ6FnJD.s 			page 1


   1              		.cpu cortex-m4
   2              		.eabi_attribute 27, 1
   3              		.eabi_attribute 28, 1
   4              		.eabi_attribute 20, 1
   5              		.eabi_attribute 21, 1
   6              		.eabi_attribute 23, 3
   7              		.eabi_attribute 24, 1
   8              		.eabi_attribute 25, 1
   9              		.eabi_attribute 26, 1
  10              		.eabi_attribute 30, 2
  11              		.eabi_attribute 34, 1
  12              		.eabi_attribute 18, 4
  13              		.file	"chthreads.c"
  14              		.text
  15              	.Ltext0:
  16              		.cfi_sections	.debug_frame
  17              		.section	.rodata._thread_init.cst4,"aM",%progbits,4
  18              		.align	2
  19              	.LC0:
  20 0000 00000000 		.word	__stack_chk_guard
  21              		.section	.text._thread_init,"ax",%progbits
  22              		.align	1
  23              		.p2align 4,,15
  24              		.global	_thread_init
  25              		.arch armv7e-m
  26              		.syntax unified
  27              		.thumb
  28              		.thumb_func
  29              		.fpu fpv4-sp-d16
  30              		.type	_thread_init, %function
  31              	_thread_init:
  32              	.LVL0:
  33              	.LFB219:
  34              		.file 1 ".//ChibiOS//os/rt/src/chthreads.c"
  35              		.loc 1 91 52 view -0
  36              		.cfi_startproc
  37              		@ args = 0, pretend = 0, frame = 16
  38              		@ frame_needed = 0, uses_anonymous_args = 0
  39              		.loc 1 91 52 is_stmt 0 view .LVU1
  40 0000 70B5     		push	{r4, r5, r6, lr}
  41              		.cfi_def_cfa_offset 16
  42              		.cfi_offset 4, -16
  43              		.cfi_offset 5, -12
  44              		.cfi_offset 6, -8
  45              		.cfi_offset 14, -4
  46              		.loc 1 114 3 view .LVU2
  47 0002 1C4A     		ldr	r2, .L6
  48              		.loc 1 91 52 view .LVU3
  49 0004 1C4E     		ldr	r6, .L6+4
  50              		.loc 1 114 3 view .LVU4
  51 0006 0261     		str	r2, [r0, #16]
  52              		.loc 1 91 52 view .LVU5
  53 0008 0446     		mov	r4, r0
  54              		.loc 1 93 14 view .LVU6
  55 000a 8160     		str	r1, [r0, #8]
  56              		.loc 1 100 18 view .LVU7
  57 000c 4164     		str	r1, [r0, #68]
ARM GAS  /tmp/ccJ6FnJD.s 			page 2


  58              		.loc 1 91 52 view .LVU8
  59 000e 84B0     		sub	sp, sp, #16
  60              		.cfi_def_cfa_offset 32
  61              		.loc 1 97 17 view .LVU9
  62 0010 1423     		movs	r3, #20
  63              		.loc 1 91 52 view .LVU10
  64 0012 3668     		ldr	r6, [r6]
  65 0014 0396     		str	r6, [sp, #12]
  66 0016 4FF00006 		mov	r6,#0
  67              		.loc 1 93 3 is_stmt 1 view .LVU11
  68              		.loc 1 94 3 view .LVU12
  69              		.loc 1 95 3 view .LVU13
  70              		.loc 1 114 3 is_stmt 0 view .LVU14
  71 001a 5569     		ldr	r5, [r2, #20]
  72              		.loc 1 97 17 view .LVU15
  73 001c 84F82330 		strb	r3, [r4, #35]
  74              		.loc 1 110 14 view .LVU16
  75 0020 0121     		movs	r1, #1
  76              	.LVL1:
  77              		.loc 1 101 17 view .LVU17
  78 0022 0023     		movs	r3, #0
  79              		.loc 1 104 18 view .LVU18
  80 0024 C4E90F33 		strd	r3, r3, [r4, #60]
  81              		.loc 1 110 14 view .LVU19
  82 0028 84F82210 		strb	r1, [r4, #34]
  83              		.loc 1 107 14 view .LVU20
  84 002c 6362     		str	r3, [r4, #36]
  85              		.loc 1 123 38 view .LVU21
  86 002e 04F16801 		add	r1, r4, #104
  87              		.loc 1 113 14 view .LVU22
  88 0032 A361     		str	r3, [r4, #24]
  89              		.loc 1 94 15 view .LVU23
  90 0034 0220     		movs	r0, #2
  91              	.LVL2:
  92              		.loc 1 120 3 view .LVU24
  93 0036 04F13003 		add	r3, r4, #48
  94              		.loc 1 117 3 view .LVU25
  95 003a 04F12C06 		add	r6, r4, #44
  96              		.loc 1 94 15 view .LVU26
  97 003e 2084     		strh	r0, [r4, #32]	@ movhi
  98              		.loc 1 97 3 is_stmt 1 view .LVU27
  99              		.loc 1 100 3 view .LVU28
 100              		.loc 1 101 3 view .LVU29
 101              		.loc 1 107 3 view .LVU30
 102              		.loc 1 110 3 view .LVU31
 103              		.loc 1 113 3 view .LVU32
 104              		.loc 1 114 3 view .LVU33
 105              		.loc 1 114 3 view .LVU34
 106              		.loc 1 114 3 view .LVU35
 107 0040 6561     		str	r5, [r4, #20]
 108              		.loc 1 126 3 is_stmt 0 view .LVU36
 109 0042 04F15000 		add	r0, r4, #80
 110              		.loc 1 114 3 view .LVU37
 111 0046 2C61     		str	r4, [r5, #16]
 112              	.LVL3:
 113              		.loc 1 114 3 is_stmt 1 view .LVU38
 114              	.LBB107:
ARM GAS  /tmp/ccJ6FnJD.s 			page 3


 115              	.LBB108:
 116              		.file 2 ".//ChibiOS//os/rt/include/chschd.h"
 117              		.loc 2 605 15 is_stmt 0 view .LVU39
 118 0048 C4E90C33 		strd	r3, r3, [r4, #48]
 119              	.LBE108:
 120              	.LBE107:
 121              		.loc 1 123 18 view .LVU40
 122 004c E161     		str	r1, [r4, #28]
 123              	.LBB110:
 124              	.LBB111:
 125              		.loc 2 566 15 view .LVU41
 126 004e E662     		str	r6, [r4, #44]
 127              	.LBE111:
 128              	.LBE110:
 129              		.loc 1 114 3 view .LVU42
 130 0050 5461     		str	r4, [r2, #20]
 131              		.loc 1 114 17 is_stmt 1 view .LVU43
 132              		.loc 1 117 3 view .LVU44
 133              	.LVL4:
 134              	.LBB113:
 135              	.LBI110:
 136              		.loc 2 564 20 view .LVU45
 137              	.LBB112:
 138              		.loc 2 566 3 view .LVU46
 139              		.loc 2 566 3 is_stmt 0 view .LVU47
 140              	.LBE112:
 141              	.LBE113:
 142              		.loc 1 120 3 is_stmt 1 view .LVU48
 143              	.LBB114:
 144              	.LBI107:
 145              		.loc 2 602 20 view .LVU49
 146              	.LBB109:
 147              		.loc 2 604 3 view .LVU50
 148              		.loc 2 605 3 view .LVU51
 149              		.loc 2 605 3 is_stmt 0 view .LVU52
 150              	.LBE109:
 151              	.LBE114:
 152              		.loc 1 123 3 is_stmt 1 view .LVU53
 153              		.loc 1 126 3 view .LVU54
 154 0052 0190     		str	r0, [sp, #4]
 155 0054 FFF7FEFF 		bl	chTMObjectInit
 156              	.LVL5:
 157              		.loc 1 127 3 view .LVU55
 158 0058 0198     		ldr	r0, [sp, #4]
 159 005a FFF7FEFF 		bl	chTMStartMeasurementX
 160              	.LVL6:
 161              		.loc 1 130 3 view .LVU56
 162              		.loc 1 130 30 view .LVU57
 163              		.loc 1 132 3 view .LVU58
 164              		.loc 1 133 1 is_stmt 0 view .LVU59
 165 005e 064B     		ldr	r3, .L6+4
 166 0060 1A68     		ldr	r2, [r3]
 167 0062 039B     		ldr	r3, [sp, #12]
 168 0064 5A40     		eors	r2, r3, r2
 169 0066 02D1     		bne	.L5
 170 0068 2046     		mov	r0, r4
 171 006a 04B0     		add	sp, sp, #16
ARM GAS  /tmp/ccJ6FnJD.s 			page 4


 172              		.cfi_remember_state
 173              		.cfi_def_cfa_offset 16
 174              		@ sp needed
 175 006c 70BD     		pop	{r4, r5, r6, pc}
 176              	.LVL7:
 177              	.L5:
 178              		.cfi_restore_state
 179              		.loc 1 133 1 view .LVU60
 180 006e FFF7FEFF 		bl	__stack_chk_fail
 181              	.LVL8:
 182              	.L7:
 183 0072 00BF     		.align	2
 184              	.L6:
 185 0074 00000000 		.word	ch
 186 0078 00000000 		.word	.LC0
 187              		.cfi_endproc
 188              	.LFE219:
 189              		.size	_thread_init, .-_thread_init
 190              		.section	.rodata._thread_memfill.cst4,"aM",%progbits,4
 191              		.align	2
 192              	.LC1:
 193 0000 00000000 		.word	__stack_chk_guard
 194              		.section	.text._thread_memfill,"ax",%progbits
 195              		.align	1
 196              		.p2align 4,,15
 197              		.global	_thread_memfill
 198              		.syntax unified
 199              		.thumb
 200              		.thumb_func
 201              		.fpu fpv4-sp-d16
 202              		.type	_thread_memfill, %function
 203              	_thread_memfill:
 204              	.LVL9:
 205              	.LFB220:
 206              		.loc 1 145 65 is_stmt 1 view -0
 207              		.cfi_startproc
 208              		@ args = 0, pretend = 0, frame = 8
 209              		@ frame_needed = 0, uses_anonymous_args = 0
 210              		.loc 1 145 65 is_stmt 0 view .LVU62
 211 0000 00B5     		push	{lr}
 212              		.cfi_def_cfa_offset 4
 213              		.cfi_offset 14, -4
 214 0002 0B4B     		ldr	r3, .L15
 215 0004 83B0     		sub	sp, sp, #12
 216              		.cfi_def_cfa_offset 16
 217              		.loc 1 147 9 view .LVU63
 218 0006 8842     		cmp	r0, r1
 219              		.loc 1 145 65 view .LVU64
 220 0008 1B68     		ldr	r3, [r3]
 221 000a 0193     		str	r3, [sp, #4]
 222 000c 4FF00003 		mov	r3,#0
 223              		.loc 1 147 3 is_stmt 1 view .LVU65
 224              		.loc 1 147 9 view .LVU66
 225 0010 03D2     		bcs	.L8
 226              	.L10:
 227              		.loc 1 148 5 view .LVU67
 228              	.LVL10:
ARM GAS  /tmp/ccJ6FnJD.s 			page 5


 229              		.loc 1 148 15 is_stmt 0 view .LVU68
 230 0012 00F8012B 		strb	r2, [r0], #1
 231              	.LVL11:
 232              		.loc 1 147 9 is_stmt 1 view .LVU69
 233 0016 8142     		cmp	r1, r0
 234 0018 FBD1     		bne	.L10
 235              	.L8:
 236              		.loc 1 150 1 is_stmt 0 view .LVU70
 237 001a 054B     		ldr	r3, .L15
 238 001c 1A68     		ldr	r2, [r3]
 239 001e 019B     		ldr	r3, [sp, #4]
 240 0020 5A40     		eors	r2, r3, r2
 241              	.LVL12:
 242              		.loc 1 150 1 view .LVU71
 243 0022 02D1     		bne	.L14
 244 0024 03B0     		add	sp, sp, #12
 245              		.cfi_remember_state
 246              		.cfi_def_cfa_offset 4
 247              		@ sp needed
 248 0026 5DF804FB 		ldr	pc, [sp], #4
 249              	.L14:
 250              		.cfi_restore_state
 251 002a FFF7FEFF 		bl	__stack_chk_fail
 252              	.LVL13:
 253              	.L16:
 254              		.loc 1 150 1 view .LVU72
 255 002e 00BF     		.align	2
 256              	.L15:
 257 0030 00000000 		.word	.LC1
 258              		.cfi_endproc
 259              	.LFE220:
 260              		.size	_thread_memfill, .-_thread_memfill
 261              		.section	.rodata.chThdCreateI.cst4,"aM",%progbits,4
 262              		.align	2
 263              	.LC2:
 264 0000 00000000 		.word	__stack_chk_guard
 265              		.section	.text.chThdCreateI,"ax",%progbits
 266              		.align	1
 267              		.p2align 4,,15
 268              		.global	chThdCreateI
 269              		.syntax unified
 270              		.thumb
 271              		.thumb_func
 272              		.fpu fpv4-sp-d16
 273              		.type	chThdCreateI, %function
 274              	chThdCreateI:
 275              	.LVL14:
 276              	.LFB221:
 277              		.loc 1 178 61 is_stmt 1 view -0
 278              		.cfi_startproc
 279              		@ args = 4, pretend = 0, frame = 8
 280              		@ frame_needed = 0, uses_anonymous_args = 0
 281              		.loc 1 178 61 is_stmt 0 view .LVU74
 282 0000 2DE9F041 		push	{r4, r5, r6, r7, r8, lr}
 283              		.cfi_def_cfa_offset 24
 284              		.cfi_offset 4, -24
 285              		.cfi_offset 5, -20
ARM GAS  /tmp/ccJ6FnJD.s 			page 6


 286              		.cfi_offset 6, -16
 287              		.cfi_offset 7, -12
 288              		.cfi_offset 8, -8
 289              		.cfi_offset 14, -4
 290 0004 1F46     		mov	r7, r3
 291 0006 82B0     		sub	sp, sp, #8
 292              		.cfi_def_cfa_offset 32
 293              		.loc 1 178 61 view .LVU75
 294 0008 184B     		ldr	r3, .L28
 295              	.LVL15:
 296              		.loc 1 178 61 view .LVU76
 297 000a DDF82080 		ldr	r8, [sp, #32]
 298 000e 0546     		mov	r5, r0
 299 0010 0C46     		mov	r4, r1
 300 0012 1646     		mov	r6, r2
 301 0014 1B68     		ldr	r3, [r3]
 302 0016 0193     		str	r3, [sp, #4]
 303 0018 4FF00003 		mov	r3,#0
 304              		.loc 1 181 3 is_stmt 1 view .LVU77
 305              	.LVL16:
 306              		.loc 1 183 3 view .LVU78
 307 001c FFF7FEFF 		bl	chDbgCheckClassI
 308              	.LVL17:
 309              		.loc 1 184 3 view .LVU79
 310              		.loc 1 184 3 view .LVU80
 311              		.loc 1 184 3 view .LVU81
 312 0020 15B1     		cbz	r5, .L18
 313              		.loc 1 184 3 is_stmt 0 discriminator 4 view .LVU82
 314 0022 B4F5BC7F 		cmp	r4, #376
 315 0026 19D2     		bcs	.L26
 316              	.L18:
 317              		.loc 1 184 3 is_stmt 1 discriminator 9 view .LVU83
 318 0028 1148     		ldr	r0, .L28+4
 319 002a FFF7FEFF 		bl	chSysHalt
 320              	.LVL18:
 321              	.L19:
 322              		.loc 1 184 3 discriminator 11 view .LVU84
 323              		.loc 1 187 3 discriminator 11 view .LVU85
 324 002e A4F16401 		sub	r1, r4, #100
 325 0032 2944     		add	r1, r1, r5
 326 0034 E960     		str	r1, [r5, #12]
 327              		.loc 1 187 3 discriminator 11 view .LVU86
 328 0036 0F64     		str	r7, [r1, #64]
 329              		.loc 1 187 3 discriminator 11 view .LVU87
 330 0038 EB68     		ldr	r3, [r5, #12]
 331 003a 0E4A     		ldr	r2, .L28+8
 332 003c C3F84480 		str	r8, [r3, #68]
 333              		.loc 1 187 3 discriminator 11 view .LVU88
 334 0040 EB68     		ldr	r3, [r5, #12]
 335 0042 1A66     		str	r2, [r3, #96]
 336              		.loc 1 187 45 discriminator 11 view .LVU89
 337              		.loc 1 189 3 discriminator 11 view .LVU90
 338              		.loc 1 189 10 is_stmt 0 discriminator 11 view .LVU91
 339 0044 094B     		ldr	r3, .L28
 340 0046 1A68     		ldr	r2, [r3]
 341 0048 019B     		ldr	r3, [sp, #4]
 342 004a 5A40     		eors	r2, r3, r2
ARM GAS  /tmp/ccJ6FnJD.s 			page 7


 343 004c 0BD1     		bne	.L27
 344 004e 3146     		mov	r1, r6
 345 0050 2846     		mov	r0, r5
 346              		.loc 1 190 1 discriminator 11 view .LVU92
 347 0052 02B0     		add	sp, sp, #8
 348              		.cfi_remember_state
 349              		.cfi_def_cfa_offset 24
 350              		@ sp needed
 351 0054 BDE8F041 		pop	{r4, r5, r6, r7, r8, lr}
 352              		.cfi_restore 14
 353              		.cfi_restore 8
 354              		.cfi_restore 7
 355              		.cfi_restore 6
 356              		.cfi_restore 5
 357              		.cfi_restore 4
 358              		.cfi_def_cfa_offset 0
 359              	.LVL19:
 360              		.loc 1 189 10 discriminator 11 view .LVU93
 361 0058 FFF7FEBF 		b	_thread_init
 362              	.LVL20:
 363              	.L26:
 364              		.cfi_restore_state
 365              		.loc 1 184 3 discriminator 6 view .LVU94
 366 005c 7F2E     		cmp	r6, #127
 367 005e E3D8     		bhi	.L18
 368              		.loc 1 184 3 discriminator 8 view .LVU95
 369 0060 002F     		cmp	r7, #0
 370 0062 E4D1     		bne	.L19
 371 0064 E0E7     		b	.L18
 372              	.L27:
 373              		.loc 1 189 10 discriminator 11 view .LVU96
 374 0066 FFF7FEFF 		bl	__stack_chk_fail
 375              	.LVL21:
 376              	.L29:
 377 006a 00BF     		.align	2
 378              	.L28:
 379 006c 00000000 		.word	.LC2
 380 0070 00000000 		.word	.LANCHOR0
 381 0074 00000000 		.word	_port_thread_start
 382              		.cfi_endproc
 383              	.LFE221:
 384              		.size	chThdCreateI, .-chThdCreateI
 385              		.section	.rodata.chThdCreateStatic.cst4,"aM",%progbits,4
 386              		.align	2
 387              	.LC3:
 388 0000 00000000 		.word	__stack_chk_guard
 389              		.section	.text.chThdCreateStatic,"ax",%progbits
 390              		.align	1
 391              		.p2align 4,,15
 392              		.global	chThdCreateStatic
 393              		.syntax unified
 394              		.thumb
 395              		.thumb_func
 396              		.fpu fpv4-sp-d16
 397              		.type	chThdCreateStatic, %function
 398              	chThdCreateStatic:
 399              	.LVL22:
ARM GAS  /tmp/ccJ6FnJD.s 			page 8


 400              	.LFB222:
 401              		.loc 1 209 66 is_stmt 1 view -0
 402              		.cfi_startproc
 403              		@ args = 4, pretend = 0, frame = 16
 404              		@ frame_needed = 0, uses_anonymous_args = 0
 405              		.loc 1 209 66 is_stmt 0 view .LVU98
 406 0000 2DE9F043 		push	{r4, r5, r6, r7, r8, r9, lr}
 407              		.cfi_def_cfa_offset 28
 408              		.cfi_offset 4, -28
 409              		.cfi_offset 5, -24
 410              		.cfi_offset 6, -20
 411              		.cfi_offset 7, -16
 412              		.cfi_offset 8, -12
 413              		.cfi_offset 9, -8
 414              		.cfi_offset 14, -4
 415 0004 87B0     		sub	sp, sp, #28
 416              		.cfi_def_cfa_offset 56
 417              		.loc 1 209 66 view .LVU99
 418 0006 0746     		mov	r7, r0
 419 0008 2648     		ldr	r0, .L41
 420              	.LVL23:
 421              		.loc 1 209 66 view .LVU100
 422 000a DDF83890 		ldr	r9, [sp, #56]
 423 000e 0068     		ldr	r0, [r0]
 424 0010 0590     		str	r0, [sp, #20]
 425 0012 4FF00000 		mov	r0,#0
 426              		.loc 1 210 3 is_stmt 1 view .LVU101
 427              		.loc 1 213 3 view .LVU102
 428              		.loc 1 209 66 is_stmt 0 view .LVU103
 429 0016 8846     		mov	r8, r1
 430              		.loc 1 213 3 view .LVU104
 431 0018 07F16804 		add	r4, r7, #104
 432              	.LVL24:
 433              	.LBB129:
 434              	.LBI129:
 435              		.loc 1 145 6 is_stmt 1 view .LVU105
 436              	.LBB130:
 437              		.loc 1 147 3 view .LVU106
 438              		.loc 1 147 9 view .LVU107
 439              	.LBE130:
 440              	.LBE129:
 441              		.loc 1 213 3 is_stmt 0 view .LVU108
 442 001c 3D46     		mov	r5, r7
 443              	.LBB132:
 444              	.LBB131:
 445              		.loc 1 148 15 view .LVU109
 446 001e FF26     		movs	r6, #255
 447              	.LVL25:
 448              	.L31:
 449              		.loc 1 148 5 is_stmt 1 view .LVU110
 450              		.loc 1 148 15 is_stmt 0 view .LVU111
 451 0020 05F8016B 		strb	r6, [r5], #1
 452              	.LVL26:
 453              		.loc 1 147 9 is_stmt 1 view .LVU112
 454 0024 AC42     		cmp	r4, r5
 455 0026 FBD1     		bne	.L31
 456              	.LVL27:
ARM GAS  /tmp/ccJ6FnJD.s 			page 9


 457              		.loc 1 147 9 is_stmt 0 view .LVU113
 458              	.LBE131:
 459              	.LBE132:
 460              		.loc 1 216 3 is_stmt 1 view .LVU114
 461 0028 07EB0805 		add	r5, r7, r8
 462              	.LVL28:
 463              	.LBB133:
 464              	.LBI133:
 465              		.loc 1 145 6 view .LVU115
 466              	.LBB134:
 467              		.loc 1 147 9 view .LVU116
 468 002c AC42     		cmp	r4, r5
 469 002e 04D2     		bcs	.L32
 470              		.loc 1 148 15 is_stmt 0 view .LVU117
 471 0030 5526     		movs	r6, #85
 472              	.L33:
 473              		.loc 1 148 5 is_stmt 1 view .LVU118
 474              	.LVL29:
 475              		.loc 1 148 15 is_stmt 0 view .LVU119
 476 0032 04F8016B 		strb	r6, [r4], #1
 477              	.LVL30:
 478              		.loc 1 147 9 is_stmt 1 view .LVU120
 479 0036 A542     		cmp	r5, r4
 480 0038 FBD1     		bne	.L33
 481              	.L32:
 482              		.loc 1 147 9 is_stmt 0 view .LVU121
 483 003a CDE90223 		strd	r2, r3, [sp, #8]
 484              	.LVL31:
 485              		.loc 1 147 9 view .LVU122
 486              	.LBE134:
 487              	.LBE133:
 488              		.loc 1 221 3 is_stmt 1 view .LVU123
 489              	.LBB135:
 490              	.LBI135:
 491              		.file 3 ".//ChibiOS//os/rt/include/chsys.h"
 492              		.loc 3 346 20 view .LVU124
 493              	.LBB136:
 494              		.loc 3 348 3 view .LVU125
 495              	.LBB137:
 496              	.LBI137:
 497              		.file 4 ".//ChibiOS//os/rt/ports/ARMCMx/chcore_v7m.h"
 498              		.loc 4 444 20 view .LVU126
 499              	.LBE137:
 500              	.LBE136:
 501              	.LBE135:
 502              		.loc 4 447 3 view .LVU127
 503              	.LBB142:
 504              	.LBB141:
 505              	.LBB140:
 506              	.LBB138:
 507              	.LBI138:
 508              		.file 5 ".//ChibiOS//os/ext/CMSIS/include/core_cmFunc.h"
 509              		.loc 5 544 57 view .LVU128
 510              	.LBB139:
 511              		.loc 5 546 3 view .LVU129
 512 003e 2021     		movs	r1, #32
 513              	.LVL32:
ARM GAS  /tmp/ccJ6FnJD.s 			page 10


 514              		.loc 5 546 3 is_stmt 0 view .LVU130
 515              		.syntax unified
 516              	@ 546 ".//ChibiOS//os/ext/CMSIS/include/core_cmFunc.h" 1
 517 0040 81F31188 		MSR basepri, r1
 518              	@ 0 "" 2
 519              	.LVL33:
 520              		.loc 5 546 3 view .LVU131
 521              		.thumb
 522              		.syntax unified
 523              	.LBE139:
 524              	.LBE138:
 525              	.LBE140:
 526              		.loc 3 349 3 is_stmt 1 view .LVU132
 527 0044 FFF7FEFF 		bl	_stats_start_measure_crit_thd
 528              	.LVL34:
 529              		.loc 3 350 3 view .LVU133
 530 0048 FFF7FEFF 		bl	_dbg_check_lock
 531              	.LVL35:
 532              	.LBE141:
 533              	.LBE142:
 534              		.loc 1 222 3 view .LVU134
 535              		.loc 1 222 8 is_stmt 0 view .LVU135
 536 004c DDE90223 		ldrd	r2, r3, [sp, #8]
 537 0050 4146     		mov	r1, r8
 538 0052 CDF80090 		str	r9, [sp]
 539 0056 3846     		mov	r0, r7
 540 0058 FFF7FEFF 		bl	chThdCreateI
 541              	.LVL36:
 542              		.loc 1 223 3 view .LVU136
 543 005c 0021     		movs	r1, #0
 544              		.loc 1 222 8 view .LVU137
 545 005e 0446     		mov	r4, r0
 546              	.LVL37:
 547              		.loc 1 223 3 is_stmt 1 view .LVU138
 548 0060 FFF7FEFF 		bl	chSchWakeupS
 549              	.LVL38:
 550              		.loc 1 224 3 view .LVU139
 551              	.LBB143:
 552              	.LBI143:
 553              		.loc 3 358 20 view .LVU140
 554              	.LBB144:
 555              		.loc 3 360 3 view .LVU141
 556 0064 FFF7FEFF 		bl	_dbg_check_unlock
 557              	.LVL39:
 558              		.loc 3 361 3 view .LVU142
 559 0068 FFF7FEFF 		bl	_stats_stop_measure_crit_thd
 560              	.LVL40:
 561              		.loc 3 367 3 view .LVU143
 562              		.loc 3 367 3 view .LVU144
 563              		.loc 3 367 3 view .LVU145
 564 006c 0E4B     		ldr	r3, .L41+4
 565 006e 1A68     		ldr	r2, [r3]
 566 0070 9A42     		cmp	r2, r3
 567 0072 04D0     		beq	.L34
 568              		.loc 3 367 3 is_stmt 0 view .LVU146
 569 0074 9969     		ldr	r1, [r3, #24]
 570 0076 9368     		ldr	r3, [r2, #8]
ARM GAS  /tmp/ccJ6FnJD.s 			page 11


 571 0078 8A68     		ldr	r2, [r1, #8]
 572 007a 9A42     		cmp	r2, r3
 573 007c 0BD3     		bcc	.L39
 574              	.L34:
 575              		.loc 3 367 3 is_stmt 1 view .LVU147
 576              		.loc 3 371 3 view .LVU148
 577              	.LBB145:
 578              	.LBI145:
 579              		.loc 4 458 20 view .LVU149
 580              	.LBE145:
 581              	.LBE144:
 582              	.LBE143:
 583              		.loc 4 461 3 view .LVU150
 584              	.LVL41:
 585              	.LBB151:
 586              	.LBB149:
 587              	.LBB148:
 588              	.LBB146:
 589              	.LBI146:
 590              		.loc 5 544 57 view .LVU151
 591              	.LBB147:
 592              		.loc 5 546 3 view .LVU152
 593 007e 0023     		movs	r3, #0
 594              		.syntax unified
 595              	@ 546 ".//ChibiOS//os/ext/CMSIS/include/core_cmFunc.h" 1
 596 0080 83F31188 		MSR basepri, r3
 597              	@ 0 "" 2
 598              	.LVL42:
 599              		.loc 5 546 3 is_stmt 0 view .LVU153
 600              		.thumb
 601              		.syntax unified
 602              	.LBE147:
 603              	.LBE146:
 604              	.LBE148:
 605              	.LBE149:
 606              	.LBE151:
 607              		.loc 1 226 3 is_stmt 1 view .LVU154
 608              		.loc 1 227 1 is_stmt 0 view .LVU155
 609 0084 074B     		ldr	r3, .L41
 610 0086 1A68     		ldr	r2, [r3]
 611 0088 059B     		ldr	r3, [sp, #20]
 612 008a 5A40     		eors	r2, r3, r2
 613 008c 07D1     		bne	.L40
 614 008e 2046     		mov	r0, r4
 615 0090 07B0     		add	sp, sp, #28
 616              		.cfi_remember_state
 617              		.cfi_def_cfa_offset 28
 618              		@ sp needed
 619 0092 BDE8F083 		pop	{r4, r5, r6, r7, r8, r9, pc}
 620              	.LVL43:
 621              	.L39:
 622              		.cfi_restore_state
 623              	.LBB152:
 624              	.LBB150:
 625              		.loc 3 367 3 is_stmt 1 view .LVU156
 626 0096 0548     		ldr	r0, .L41+8
 627 0098 FFF7FEFF 		bl	chSysHalt
ARM GAS  /tmp/ccJ6FnJD.s 			page 12


 628              	.LVL44:
 629 009c EFE7     		b	.L34
 630              	.L40:
 631              	.LBE150:
 632              	.LBE152:
 633              		.loc 1 227 1 is_stmt 0 view .LVU157
 634 009e FFF7FEFF 		bl	__stack_chk_fail
 635              	.LVL45:
 636              	.L42:
 637 00a2 00BF     		.align	2
 638              	.L41:
 639 00a4 00000000 		.word	.LC3
 640 00a8 00000000 		.word	ch
 641 00ac 00000000 		.word	.LANCHOR1
 642              		.cfi_endproc
 643              	.LFE222:
 644              		.size	chThdCreateStatic, .-chThdCreateStatic
 645              		.section	.rodata.chThdStart.cst4,"aM",%progbits,4
 646              		.align	2
 647              	.LC4:
 648 0000 00000000 		.word	__stack_chk_guard
 649              		.section	.text.chThdStart,"ax",%progbits
 650              		.align	1
 651              		.p2align 4,,15
 652              		.global	chThdStart
 653              		.syntax unified
 654              		.thumb
 655              		.thumb_func
 656              		.fpu fpv4-sp-d16
 657              		.type	chThdStart, %function
 658              	chThdStart:
 659              	.LVL46:
 660              	.LFB223:
 661              		.loc 1 238 36 is_stmt 1 view -0
 662              		.cfi_startproc
 663              		@ args = 0, pretend = 0, frame = 8
 664              		@ frame_needed = 0, uses_anonymous_args = 0
 665              		.loc 1 238 36 is_stmt 0 view .LVU159
 666 0000 10B5     		push	{r4, lr}
 667              		.cfi_def_cfa_offset 8
 668              		.cfi_offset 4, -8
 669              		.cfi_offset 14, -4
 670 0002 1B4B     		ldr	r3, .L53
 671 0004 82B0     		sub	sp, sp, #8
 672              		.cfi_def_cfa_offset 16
 673              		.loc 1 238 36 view .LVU160
 674 0006 1B68     		ldr	r3, [r3]
 675 0008 0193     		str	r3, [sp, #4]
 676 000a 4FF00003 		mov	r3,#0
 677              		.loc 1 240 3 is_stmt 1 view .LVU161
 678              	.LBB165:
 679              	.LBI165:
 680              		.loc 3 346 20 view .LVU162
 681              	.LBB166:
 682              		.loc 3 348 3 view .LVU163
 683              	.LBB167:
 684              	.LBI167:
ARM GAS  /tmp/ccJ6FnJD.s 			page 13


 685              		.loc 4 444 20 view .LVU164
 686              	.LBE167:
 687              	.LBE166:
 688              	.LBE165:
 689              		.loc 4 447 3 view .LVU165
 690              	.LVL47:
 691              	.LBB176:
 692              	.LBB174:
 693              	.LBB172:
 694              	.LBB168:
 695              	.LBI168:
 696              		.loc 5 544 57 view .LVU166
 697              	.LBB169:
 698              		.loc 5 546 3 view .LVU167
 699              	.LBE169:
 700              	.LBE168:
 701              	.LBE172:
 702              	.LBE174:
 703              	.LBE176:
 704              		.loc 1 238 36 is_stmt 0 view .LVU168
 705 000e 0446     		mov	r4, r0
 706              	.LBB177:
 707              	.LBB175:
 708              	.LBB173:
 709              	.LBB171:
 710              	.LBB170:
 711              		.loc 5 546 3 view .LVU169
 712 0010 2023     		movs	r3, #32
 713              		.syntax unified
 714              	@ 546 ".//ChibiOS//os/ext/CMSIS/include/core_cmFunc.h" 1
 715 0012 83F31188 		MSR basepri, r3
 716              	@ 0 "" 2
 717              	.LVL48:
 718              		.loc 5 546 3 view .LVU170
 719              		.thumb
 720              		.syntax unified
 721              	.LBE170:
 722              	.LBE171:
 723              	.LBE173:
 724              		.loc 3 349 3 is_stmt 1 view .LVU171
 725 0016 FFF7FEFF 		bl	_stats_start_measure_crit_thd
 726              	.LVL49:
 727              		.loc 3 350 3 view .LVU172
 728 001a FFF7FEFF 		bl	_dbg_check_lock
 729              	.LVL50:
 730              	.LBE175:
 731              	.LBE177:
 732              		.loc 1 241 3 view .LVU173
 733              	.LBB178:
 734              	.LBI178:
 735              		.file 6 ".//ChibiOS//os/rt/include/chthreads.h"
 736              		.loc 6 245 25 view .LVU174
 737              	.LBB179:
 738              		.loc 6 247 3 view .LVU175
 739              		.loc 6 247 3 view .LVU176
 740              		.loc 6 247 3 view .LVU177
 741 001e 94F82030 		ldrb	r3, [r4, #32]	@ zero_extendqisi2
ARM GAS  /tmp/ccJ6FnJD.s 			page 14


 742 0022 022B     		cmp	r3, #2
 743 0024 02D0     		beq	.L44
 744              		.loc 6 247 3 view .LVU178
 745 0026 1348     		ldr	r0, .L53+4
 746 0028 FFF7FEFF 		bl	chSysHalt
 747              	.LVL51:
 748              	.L44:
 749              		.loc 6 247 3 view .LVU179
 750              		.loc 6 249 3 view .LVU180
 751              		.loc 6 249 10 is_stmt 0 view .LVU181
 752 002c 2046     		mov	r0, r4
 753 002e FFF7FEFF 		bl	chSchReadyI
 754              	.LVL52:
 755 0032 0446     		mov	r4, r0
 756              	.LVL53:
 757              		.loc 6 249 10 view .LVU182
 758              	.LBE179:
 759              	.LBE178:
 760              		.loc 1 242 3 is_stmt 1 view .LVU183
 761              	.LBB180:
 762              	.LBI180:
 763              		.loc 3 358 20 view .LVU184
 764              	.LBB181:
 765              		.loc 3 360 3 view .LVU185
 766 0034 FFF7FEFF 		bl	_dbg_check_unlock
 767              	.LVL54:
 768              		.loc 3 361 3 view .LVU186
 769 0038 FFF7FEFF 		bl	_stats_stop_measure_crit_thd
 770              	.LVL55:
 771              		.loc 3 367 3 view .LVU187
 772              		.loc 3 367 3 view .LVU188
 773              		.loc 3 367 3 view .LVU189
 774 003c 0E4B     		ldr	r3, .L53+8
 775 003e 1A68     		ldr	r2, [r3]
 776 0040 9A42     		cmp	r2, r3
 777 0042 04D0     		beq	.L45
 778 0044 9969     		ldr	r1, [r3, #24]
 779 0046 9368     		ldr	r3, [r2, #8]
 780 0048 8A68     		ldr	r2, [r1, #8]
 781 004a 9A42     		cmp	r2, r3
 782 004c 0AD3     		bcc	.L51
 783              	.L45:
 784              		.loc 3 367 3 view .LVU190
 785              		.loc 3 371 3 view .LVU191
 786              	.LBB182:
 787              	.LBI182:
 788              		.loc 4 458 20 view .LVU192
 789              	.LBE182:
 790              	.LBE181:
 791              	.LBE180:
 792              		.loc 4 461 3 view .LVU193
 793              	.LVL56:
 794              	.LBB188:
 795              	.LBB186:
 796              	.LBB185:
 797              	.LBB183:
 798              	.LBI183:
ARM GAS  /tmp/ccJ6FnJD.s 			page 15


 799              		.loc 5 544 57 view .LVU194
 800              	.LBB184:
 801              		.loc 5 546 3 view .LVU195
 802 004e 0023     		movs	r3, #0
 803              		.syntax unified
 804              	@ 546 ".//ChibiOS//os/ext/CMSIS/include/core_cmFunc.h" 1
 805 0050 83F31188 		MSR basepri, r3
 806              	@ 0 "" 2
 807              	.LVL57:
 808              		.loc 5 546 3 is_stmt 0 view .LVU196
 809              		.thumb
 810              		.syntax unified
 811              	.LBE184:
 812              	.LBE183:
 813              	.LBE185:
 814              	.LBE186:
 815              	.LBE188:
 816              		.loc 1 244 3 is_stmt 1 view .LVU197
 817              		.loc 1 245 1 is_stmt 0 view .LVU198
 818 0054 064B     		ldr	r3, .L53
 819 0056 1A68     		ldr	r2, [r3]
 820 0058 019B     		ldr	r3, [sp, #4]
 821 005a 5A40     		eors	r2, r3, r2
 822 005c 06D1     		bne	.L52
 823 005e 2046     		mov	r0, r4
 824 0060 02B0     		add	sp, sp, #8
 825              		.cfi_remember_state
 826              		.cfi_def_cfa_offset 8
 827              		@ sp needed
 828 0062 10BD     		pop	{r4, pc}
 829              	.LVL58:
 830              	.L51:
 831              		.cfi_restore_state
 832              	.LBB189:
 833              	.LBB187:
 834              		.loc 3 367 3 is_stmt 1 view .LVU199
 835 0064 0548     		ldr	r0, .L53+12
 836 0066 FFF7FEFF 		bl	chSysHalt
 837              	.LVL59:
 838 006a F0E7     		b	.L45
 839              	.L52:
 840              	.LBE187:
 841              	.LBE189:
 842              		.loc 1 245 1 is_stmt 0 view .LVU200
 843 006c FFF7FEFF 		bl	__stack_chk_fail
 844              	.LVL60:
 845              	.L54:
 846              		.align	2
 847              	.L53:
 848 0070 00000000 		.word	.LC4
 849 0074 00000000 		.word	.LANCHOR2
 850 0078 00000000 		.word	ch
 851 007c 00000000 		.word	.LANCHOR1
 852              		.cfi_endproc
 853              	.LFE223:
 854              		.size	chThdStart, .-chThdStart
 855              		.section	.rodata.chThdSetPriority.cst4,"aM",%progbits,4
ARM GAS  /tmp/ccJ6FnJD.s 			page 16


 856              		.align	2
 857              	.LC5:
 858 0000 00000000 		.word	__stack_chk_guard
 859              		.section	.text.chThdSetPriority,"ax",%progbits
 860              		.align	1
 861              		.p2align 4,,15
 862              		.global	chThdSetPriority
 863              		.syntax unified
 864              		.thumb
 865              		.thumb_func
 866              		.fpu fpv4-sp-d16
 867              		.type	chThdSetPriority, %function
 868              	chThdSetPriority:
 869              	.LVL61:
 870              	.LFB224:
 871              		.loc 1 259 43 is_stmt 1 view -0
 872              		.cfi_startproc
 873              		@ args = 0, pretend = 0, frame = 8
 874              		@ frame_needed = 0, uses_anonymous_args = 0
 875              		.loc 1 259 43 is_stmt 0 view .LVU202
 876 0000 70B5     		push	{r4, r5, r6, lr}
 877              		.cfi_def_cfa_offset 16
 878              		.cfi_offset 4, -16
 879              		.cfi_offset 5, -12
 880              		.cfi_offset 6, -8
 881              		.cfi_offset 14, -4
 882 0002 1F4B     		ldr	r3, .L65
 883 0004 82B0     		sub	sp, sp, #8
 884              		.cfi_def_cfa_offset 24
 885              		.loc 1 262 3 view .LVU203
 886 0006 7F28     		cmp	r0, #127
 887              		.loc 1 259 43 view .LVU204
 888 0008 0446     		mov	r4, r0
 889 000a 1B68     		ldr	r3, [r3]
 890 000c 0193     		str	r3, [sp, #4]
 891 000e 4FF00003 		mov	r3,#0
 892              		.loc 1 260 3 is_stmt 1 view .LVU205
 893              		.loc 1 262 3 view .LVU206
 894              		.loc 1 262 3 view .LVU207
 895              		.loc 1 262 3 view .LVU208
 896 0012 2FD8     		bhi	.L62
 897              	.LVL62:
 898              	.L56:
 899              		.loc 1 262 3 discriminator 5 view .LVU209
 900              		.loc 1 264 3 discriminator 5 view .LVU210
 901              	.LBB200:
 902              	.LBI200:
 903              		.loc 3 346 20 discriminator 5 view .LVU211
 904              	.LBB201:
 905              		.loc 3 348 3 discriminator 5 view .LVU212
 906              	.LBB202:
 907              	.LBI202:
 908              		.loc 4 444 20 discriminator 5 view .LVU213
 909              	.LBE202:
 910              	.LBE201:
 911              	.LBE200:
 912              		.loc 4 447 3 discriminator 5 view .LVU214
ARM GAS  /tmp/ccJ6FnJD.s 			page 17


 913              	.LBB208:
 914              	.LBB206:
 915              	.LBB205:
 916              	.LBB203:
 917              	.LBI203:
 918              		.loc 5 544 57 discriminator 5 view .LVU215
 919              	.LBB204:
 920              		.loc 5 546 3 discriminator 5 view .LVU216
 921 0014 2023     		movs	r3, #32
 922              		.syntax unified
 923              	@ 546 ".//ChibiOS//os/ext/CMSIS/include/core_cmFunc.h" 1
 924 0016 83F31188 		MSR basepri, r3
 925              	@ 0 "" 2
 926              	.LVL63:
 927              		.loc 5 546 3 is_stmt 0 discriminator 5 view .LVU217
 928              		.thumb
 929              		.syntax unified
 930              	.LBE204:
 931              	.LBE203:
 932              	.LBE205:
 933              		.loc 3 349 3 is_stmt 1 discriminator 5 view .LVU218
 934              	.LBE206:
 935              	.LBE208:
 936              		.loc 1 266 13 is_stmt 0 discriminator 5 view .LVU219
 937 001a 1A4D     		ldr	r5, .L65+4
 938              	.LBB209:
 939              	.LBB207:
 940              		.loc 3 349 3 discriminator 5 view .LVU220
 941 001c FFF7FEFF 		bl	_stats_start_measure_crit_thd
 942              	.LVL64:
 943              		.loc 3 350 3 is_stmt 1 discriminator 5 view .LVU221
 944 0020 FFF7FEFF 		bl	_dbg_check_lock
 945              	.LVL65:
 946              	.LBE207:
 947              	.LBE209:
 948              		.loc 1 266 3 discriminator 5 view .LVU222
 949              		.loc 1 266 13 is_stmt 0 discriminator 5 view .LVU223
 950 0024 AB69     		ldr	r3, [r5, #24]
 951              		.loc 1 266 11 discriminator 5 view .LVU224
 952 0026 5E6C     		ldr	r6, [r3, #68]
 953              	.LVL66:
 954              		.loc 1 267 3 is_stmt 1 discriminator 5 view .LVU225
 955              		.loc 1 267 13 is_stmt 0 discriminator 5 view .LVU226
 956 0028 9A68     		ldr	r2, [r3, #8]
 957              		.loc 1 267 6 discriminator 5 view .LVU227
 958 002a B242     		cmp	r2, r6
 959 002c 1BD0     		beq	.L57
 960              		.loc 1 267 44 discriminator 1 view .LVU228
 961 002e A242     		cmp	r2, r4
 962 0030 19D3     		bcc	.L57
 963              	.L58:
 964              		.loc 1 270 3 is_stmt 1 view .LVU229
 965              		.loc 1 270 21 is_stmt 0 view .LVU230
 966 0032 5C64     		str	r4, [r3, #68]
 967              		.loc 1 275 3 is_stmt 1 view .LVU231
 968 0034 FFF7FEFF 		bl	chSchRescheduleS
 969              	.LVL67:
ARM GAS  /tmp/ccJ6FnJD.s 			page 18


 970              		.loc 1 276 3 view .LVU232
 971              	.LBB210:
 972              	.LBI210:
 973              		.loc 3 358 20 view .LVU233
 974              	.LBB211:
 975              		.loc 3 360 3 view .LVU234
 976 0038 FFF7FEFF 		bl	_dbg_check_unlock
 977              	.LVL68:
 978              		.loc 3 361 3 view .LVU235
 979 003c FFF7FEFF 		bl	_stats_stop_measure_crit_thd
 980              	.LVL69:
 981              		.loc 3 367 3 view .LVU236
 982              		.loc 3 367 3 view .LVU237
 983              		.loc 3 367 3 view .LVU238
 984 0040 2B68     		ldr	r3, [r5]
 985 0042 AB42     		cmp	r3, r5
 986 0044 04D0     		beq	.L59
 987 0046 AA69     		ldr	r2, [r5, #24]
 988 0048 9B68     		ldr	r3, [r3, #8]
 989 004a 9268     		ldr	r2, [r2, #8]
 990 004c 9A42     		cmp	r2, r3
 991 004e 0DD3     		bcc	.L63
 992              	.L59:
 993              		.loc 3 367 3 view .LVU239
 994              		.loc 3 371 3 view .LVU240
 995              	.LBB212:
 996              	.LBI212:
 997              		.loc 4 458 20 view .LVU241
 998              	.LBE212:
 999              	.LBE211:
 1000              	.LBE210:
 1001              		.loc 4 461 3 view .LVU242
 1002              	.LVL70:
 1003              	.LBB218:
 1004              	.LBB216:
 1005              	.LBB215:
 1006              	.LBB213:
 1007              	.LBI213:
 1008              		.loc 5 544 57 view .LVU243
 1009              	.LBB214:
 1010              		.loc 5 546 3 view .LVU244
 1011 0050 0023     		movs	r3, #0
 1012              		.syntax unified
 1013              	@ 546 ".//ChibiOS//os/ext/CMSIS/include/core_cmFunc.h" 1
 1014 0052 83F31188 		MSR basepri, r3
 1015              	@ 0 "" 2
 1016              	.LVL71:
 1017              		.loc 5 546 3 is_stmt 0 view .LVU245
 1018              		.thumb
 1019              		.syntax unified
 1020              	.LBE214:
 1021              	.LBE213:
 1022              	.LBE215:
 1023              	.LBE216:
 1024              	.LBE218:
 1025              		.loc 1 278 3 is_stmt 1 view .LVU246
 1026              		.loc 1 279 1 is_stmt 0 view .LVU247
ARM GAS  /tmp/ccJ6FnJD.s 			page 19


 1027 0056 0A4B     		ldr	r3, .L65
 1028 0058 1A68     		ldr	r2, [r3]
 1029 005a 019B     		ldr	r3, [sp, #4]
 1030 005c 5A40     		eors	r2, r3, r2
 1031 005e 0DD1     		bne	.L64
 1032 0060 3046     		mov	r0, r6
 1033 0062 02B0     		add	sp, sp, #8
 1034              		.cfi_remember_state
 1035              		.cfi_def_cfa_offset 16
 1036              		@ sp needed
 1037 0064 70BD     		pop	{r4, r5, r6, pc}
 1038              	.LVL72:
 1039              	.L57:
 1040              		.cfi_restore_state
 1041              		.loc 1 268 5 is_stmt 1 view .LVU248
 1042              		.loc 1 268 19 is_stmt 0 view .LVU249
 1043 0066 9C60     		str	r4, [r3, #8]
 1044 0068 AB69     		ldr	r3, [r5, #24]
 1045 006a E2E7     		b	.L58
 1046              	.L63:
 1047              	.LBB219:
 1048              	.LBB217:
 1049              		.loc 3 367 3 is_stmt 1 view .LVU250
 1050 006c 0648     		ldr	r0, .L65+8
 1051 006e FFF7FEFF 		bl	chSysHalt
 1052              	.LVL73:
 1053 0072 EDE7     		b	.L59
 1054              	.LVL74:
 1055              	.L62:
 1056              		.loc 3 367 3 is_stmt 0 view .LVU251
 1057              	.LBE217:
 1058              	.LBE219:
 1059              		.loc 1 262 3 is_stmt 1 discriminator 3 view .LVU252
 1060 0074 0548     		ldr	r0, .L65+12
 1061              	.LVL75:
 1062              		.loc 1 262 3 is_stmt 0 discriminator 3 view .LVU253
 1063 0076 FFF7FEFF 		bl	chSysHalt
 1064              	.LVL76:
 1065 007a CBE7     		b	.L56
 1066              	.LVL77:
 1067              	.L64:
 1068              		.loc 1 279 1 view .LVU254
 1069 007c FFF7FEFF 		bl	__stack_chk_fail
 1070              	.LVL78:
 1071              	.L66:
 1072              		.align	2
 1073              	.L65:
 1074 0080 00000000 		.word	.LC5
 1075 0084 00000000 		.word	ch
 1076 0088 00000000 		.word	.LANCHOR1
 1077 008c 00000000 		.word	.LANCHOR3
 1078              		.cfi_endproc
 1079              	.LFE224:
 1080              		.size	chThdSetPriority, .-chThdSetPriority
 1081              		.section	.rodata.chThdTerminate.cst4,"aM",%progbits,4
 1082              		.align	2
 1083              	.LC6:
ARM GAS  /tmp/ccJ6FnJD.s 			page 20


 1084 0000 00000000 		.word	__stack_chk_guard
 1085              		.section	.text.chThdTerminate,"ax",%progbits
 1086              		.align	1
 1087              		.p2align 4,,15
 1088              		.global	chThdTerminate
 1089              		.syntax unified
 1090              		.thumb
 1091              		.thumb_func
 1092              		.fpu fpv4-sp-d16
 1093              		.type	chThdTerminate, %function
 1094              	chThdTerminate:
 1095              	.LVL79:
 1096              	.LFB225:
 1097              		.loc 1 293 35 is_stmt 1 view -0
 1098              		.cfi_startproc
 1099              		@ args = 0, pretend = 0, frame = 8
 1100              		@ frame_needed = 0, uses_anonymous_args = 0
 1101              		.loc 1 293 35 is_stmt 0 view .LVU256
 1102 0000 10B5     		push	{r4, lr}
 1103              		.cfi_def_cfa_offset 8
 1104              		.cfi_offset 4, -8
 1105              		.cfi_offset 14, -4
 1106 0002 184B     		ldr	r3, .L73
 1107 0004 82B0     		sub	sp, sp, #8
 1108              		.cfi_def_cfa_offset 16
 1109              		.loc 1 293 35 view .LVU257
 1110 0006 1B68     		ldr	r3, [r3]
 1111 0008 0193     		str	r3, [sp, #4]
 1112 000a 4FF00003 		mov	r3,#0
 1113              		.loc 1 295 3 is_stmt 1 view .LVU258
 1114              	.LBB230:
 1115              	.LBI230:
 1116              		.loc 3 346 20 view .LVU259
 1117              	.LBB231:
 1118              		.loc 3 348 3 view .LVU260
 1119              	.LBB232:
 1120              	.LBI232:
 1121              		.loc 4 444 20 view .LVU261
 1122              	.LBE232:
 1123              	.LBE231:
 1124              	.LBE230:
 1125              		.loc 4 447 3 view .LVU262
 1126              	.LVL80:
 1127              	.LBB241:
 1128              	.LBB239:
 1129              	.LBB237:
 1130              	.LBB233:
 1131              	.LBI233:
 1132              		.loc 5 544 57 view .LVU263
 1133              	.LBB234:
 1134              		.loc 5 546 3 view .LVU264
 1135              	.LBE234:
 1136              	.LBE233:
 1137              	.LBE237:
 1138              	.LBE239:
 1139              	.LBE241:
 1140              		.loc 1 293 35 is_stmt 0 view .LVU265
ARM GAS  /tmp/ccJ6FnJD.s 			page 21


 1141 000e 0446     		mov	r4, r0
 1142              	.LBB242:
 1143              	.LBB240:
 1144              	.LBB238:
 1145              	.LBB236:
 1146              	.LBB235:
 1147              		.loc 5 546 3 view .LVU266
 1148 0010 2023     		movs	r3, #32
 1149              		.syntax unified
 1150              	@ 546 ".//ChibiOS//os/ext/CMSIS/include/core_cmFunc.h" 1
 1151 0012 83F31188 		MSR basepri, r3
 1152              	@ 0 "" 2
 1153              	.LVL81:
 1154              		.loc 5 546 3 view .LVU267
 1155              		.thumb
 1156              		.syntax unified
 1157              	.LBE235:
 1158              	.LBE236:
 1159              	.LBE238:
 1160              		.loc 3 349 3 is_stmt 1 view .LVU268
 1161 0016 FFF7FEFF 		bl	_stats_start_measure_crit_thd
 1162              	.LVL82:
 1163              		.loc 3 350 3 view .LVU269
 1164 001a FFF7FEFF 		bl	_dbg_check_lock
 1165              	.LVL83:
 1166              	.LBE240:
 1167              	.LBE242:
 1168              		.loc 1 296 3 view .LVU270
 1169              		.loc 1 296 15 is_stmt 0 view .LVU271
 1170 001e 94F82130 		ldrb	r3, [r4, #33]	@ zero_extendqisi2
 1171 0022 43F00403 		orr	r3, r3, #4
 1172 0026 84F82130 		strb	r3, [r4, #33]
 1173              		.loc 1 297 3 is_stmt 1 view .LVU272
 1174              	.LBB243:
 1175              	.LBI243:
 1176              		.loc 3 358 20 view .LVU273
 1177              	.LBB244:
 1178              		.loc 3 360 3 view .LVU274
 1179 002a FFF7FEFF 		bl	_dbg_check_unlock
 1180              	.LVL84:
 1181              		.loc 3 361 3 view .LVU275
 1182 002e FFF7FEFF 		bl	_stats_stop_measure_crit_thd
 1183              	.LVL85:
 1184              		.loc 3 367 3 view .LVU276
 1185              		.loc 3 367 3 view .LVU277
 1186              		.loc 3 367 3 view .LVU278
 1187 0032 0D4B     		ldr	r3, .L73+4
 1188 0034 1A68     		ldr	r2, [r3]
 1189 0036 9A42     		cmp	r2, r3
 1190 0038 04D0     		beq	.L68
 1191 003a 9969     		ldr	r1, [r3, #24]
 1192 003c 9368     		ldr	r3, [r2, #8]
 1193 003e 8A68     		ldr	r2, [r1, #8]
 1194 0040 9A42     		cmp	r2, r3
 1195 0042 09D3     		bcc	.L71
 1196              	.L68:
 1197              		.loc 3 367 3 view .LVU279
ARM GAS  /tmp/ccJ6FnJD.s 			page 22


 1198              		.loc 3 371 3 view .LVU280
 1199              	.LBB245:
 1200              	.LBI245:
 1201              		.loc 4 458 20 view .LVU281
 1202              	.LBE245:
 1203              	.LBE244:
 1204              	.LBE243:
 1205              		.loc 4 461 3 view .LVU282
 1206              	.LVL86:
 1207              	.LBB251:
 1208              	.LBB249:
 1209              	.LBB248:
 1210              	.LBB246:
 1211              	.LBI246:
 1212              		.loc 5 544 57 view .LVU283
 1213              	.LBB247:
 1214              		.loc 5 546 3 view .LVU284
 1215 0044 0023     		movs	r3, #0
 1216              		.syntax unified
 1217              	@ 546 ".//ChibiOS//os/ext/CMSIS/include/core_cmFunc.h" 1
 1218 0046 83F31188 		MSR basepri, r3
 1219              	@ 0 "" 2
 1220              	.LVL87:
 1221              		.loc 5 546 3 is_stmt 0 view .LVU285
 1222              		.thumb
 1223              		.syntax unified
 1224              	.LBE247:
 1225              	.LBE246:
 1226              	.LBE248:
 1227              	.LBE249:
 1228              	.LBE251:
 1229              		.loc 1 298 1 view .LVU286
 1230 004a 064B     		ldr	r3, .L73
 1231 004c 1A68     		ldr	r2, [r3]
 1232 004e 019B     		ldr	r3, [sp, #4]
 1233 0050 5A40     		eors	r2, r3, r2
 1234 0052 05D1     		bne	.L72
 1235 0054 02B0     		add	sp, sp, #8
 1236              		.cfi_remember_state
 1237              		.cfi_def_cfa_offset 8
 1238              		@ sp needed
 1239 0056 10BD     		pop	{r4, pc}
 1240              	.LVL88:
 1241              	.L71:
 1242              		.cfi_restore_state
 1243              	.LBB252:
 1244              	.LBB250:
 1245              		.loc 3 367 3 is_stmt 1 view .LVU287
 1246 0058 0448     		ldr	r0, .L73+8
 1247 005a FFF7FEFF 		bl	chSysHalt
 1248              	.LVL89:
 1249 005e F1E7     		b	.L68
 1250              	.L72:
 1251              	.LBE250:
 1252              	.LBE252:
 1253              		.loc 1 298 1 is_stmt 0 view .LVU288
 1254 0060 FFF7FEFF 		bl	__stack_chk_fail
ARM GAS  /tmp/ccJ6FnJD.s 			page 23


 1255              	.LVL90:
 1256              	.L74:
 1257              		.align	2
 1258              	.L73:
 1259 0064 00000000 		.word	.LC6
 1260 0068 00000000 		.word	ch
 1261 006c 00000000 		.word	.LANCHOR1
 1262              		.cfi_endproc
 1263              	.LFE225:
 1264              		.size	chThdTerminate, .-chThdTerminate
 1265              		.section	.rodata.chThdSleep.cst4,"aM",%progbits,4
 1266              		.align	2
 1267              	.LC7:
 1268 0000 00000000 		.word	__stack_chk_guard
 1269              		.section	.text.chThdSleep,"ax",%progbits
 1270              		.align	1
 1271              		.p2align 4,,15
 1272              		.global	chThdSleep
 1273              		.syntax unified
 1274              		.thumb
 1275              		.thumb_func
 1276              		.fpu fpv4-sp-d16
 1277              		.type	chThdSleep, %function
 1278              	chThdSleep:
 1279              	.LVL91:
 1280              	.LFB226:
 1281              		.loc 1 312 33 is_stmt 1 view -0
 1282              		.cfi_startproc
 1283              		@ args = 0, pretend = 0, frame = 8
 1284              		@ frame_needed = 0, uses_anonymous_args = 0
 1285              		.loc 1 312 33 is_stmt 0 view .LVU290
 1286 0000 10B5     		push	{r4, lr}
 1287              		.cfi_def_cfa_offset 8
 1288              		.cfi_offset 4, -8
 1289              		.cfi_offset 14, -4
 1290 0002 1A4B     		ldr	r3, .L83
 1291 0004 82B0     		sub	sp, sp, #8
 1292              		.cfi_def_cfa_offset 16
 1293              		.loc 1 312 33 view .LVU291
 1294 0006 1B68     		ldr	r3, [r3]
 1295 0008 0193     		str	r3, [sp, #4]
 1296 000a 4FF00003 		mov	r3,#0
 1297              		.loc 1 314 3 is_stmt 1 view .LVU292
 1298              	.LBB265:
 1299              	.LBI265:
 1300              		.loc 3 346 20 view .LVU293
 1301              	.LBB266:
 1302              		.loc 3 348 3 view .LVU294
 1303              	.LBB267:
 1304              	.LBI267:
 1305              		.loc 4 444 20 view .LVU295
 1306              	.LBE267:
 1307              	.LBE266:
 1308              	.LBE265:
 1309              		.loc 4 447 3 view .LVU296
 1310              	.LVL92:
 1311              	.LBB276:
ARM GAS  /tmp/ccJ6FnJD.s 			page 24


 1312              	.LBB274:
 1313              	.LBB272:
 1314              	.LBB268:
 1315              	.LBI268:
 1316              		.loc 5 544 57 view .LVU297
 1317              	.LBB269:
 1318              		.loc 5 546 3 view .LVU298
 1319              	.LBE269:
 1320              	.LBE268:
 1321              	.LBE272:
 1322              	.LBE274:
 1323              	.LBE276:
 1324              		.loc 1 312 33 is_stmt 0 view .LVU299
 1325 000e 0446     		mov	r4, r0
 1326              	.LBB277:
 1327              	.LBB275:
 1328              	.LBB273:
 1329              	.LBB271:
 1330              	.LBB270:
 1331              		.loc 5 546 3 view .LVU300
 1332 0010 2023     		movs	r3, #32
 1333              		.syntax unified
 1334              	@ 546 ".//ChibiOS//os/ext/CMSIS/include/core_cmFunc.h" 1
 1335 0012 83F31188 		MSR basepri, r3
 1336              	@ 0 "" 2
 1337              	.LVL93:
 1338              		.loc 5 546 3 view .LVU301
 1339              		.thumb
 1340              		.syntax unified
 1341              	.LBE270:
 1342              	.LBE271:
 1343              	.LBE273:
 1344              		.loc 3 349 3 is_stmt 1 view .LVU302
 1345 0016 FFF7FEFF 		bl	_stats_start_measure_crit_thd
 1346              	.LVL94:
 1347              		.loc 3 350 3 view .LVU303
 1348 001a FFF7FEFF 		bl	_dbg_check_lock
 1349              	.LVL95:
 1350              	.LBE275:
 1351              	.LBE277:
 1352              		.loc 1 315 3 view .LVU304
 1353              	.LBB278:
 1354              	.LBI278:
 1355              		.loc 6 264 20 view .LVU305
 1356              	.LBB279:
 1357              		.loc 6 266 3 view .LVU306
 1358              		.loc 6 266 3 view .LVU307
 1359              		.loc 6 266 3 view .LVU308
 1360 001e F4B1     		cbz	r4, .L80
 1361              	.L76:
 1362              		.loc 6 266 3 view .LVU309
 1363              		.loc 6 268 3 view .LVU310
 1364              		.loc 6 268 10 is_stmt 0 view .LVU311
 1365 0020 2146     		mov	r1, r4
 1366 0022 0820     		movs	r0, #8
 1367 0024 FFF7FEFF 		bl	chSchGoSleepTimeoutS
 1368              	.LVL96:
ARM GAS  /tmp/ccJ6FnJD.s 			page 25


 1369              		.loc 6 268 10 view .LVU312
 1370              	.LBE279:
 1371              	.LBE278:
 1372              		.loc 1 316 3 is_stmt 1 view .LVU313
 1373              	.LBB281:
 1374              	.LBI281:
 1375              		.loc 3 358 20 view .LVU314
 1376              	.LBB282:
 1377              		.loc 3 360 3 view .LVU315
 1378 0028 FFF7FEFF 		bl	_dbg_check_unlock
 1379              	.LVL97:
 1380              		.loc 3 361 3 view .LVU316
 1381 002c FFF7FEFF 		bl	_stats_stop_measure_crit_thd
 1382              	.LVL98:
 1383              		.loc 3 367 3 view .LVU317
 1384              		.loc 3 367 3 view .LVU318
 1385              		.loc 3 367 3 view .LVU319
 1386 0030 0F4B     		ldr	r3, .L83+4
 1387 0032 1A68     		ldr	r2, [r3]
 1388 0034 9A42     		cmp	r2, r3
 1389 0036 04D0     		beq	.L77
 1390 0038 9969     		ldr	r1, [r3, #24]
 1391 003a 9368     		ldr	r3, [r2, #8]
 1392 003c 8A68     		ldr	r2, [r1, #8]
 1393 003e 9A42     		cmp	r2, r3
 1394 0040 09D3     		bcc	.L81
 1395              	.L77:
 1396              		.loc 3 367 3 view .LVU320
 1397              		.loc 3 371 3 view .LVU321
 1398              	.LBB283:
 1399              	.LBI283:
 1400              		.loc 4 458 20 view .LVU322
 1401              	.LBE283:
 1402              	.LBE282:
 1403              	.LBE281:
 1404              		.loc 4 461 3 view .LVU323
 1405              	.LVL99:
 1406              	.LBB289:
 1407              	.LBB287:
 1408              	.LBB286:
 1409              	.LBB284:
 1410              	.LBI284:
 1411              		.loc 5 544 57 view .LVU324
 1412              	.LBB285:
 1413              		.loc 5 546 3 view .LVU325
 1414 0042 0023     		movs	r3, #0
 1415              		.syntax unified
 1416              	@ 546 ".//ChibiOS//os/ext/CMSIS/include/core_cmFunc.h" 1
 1417 0044 83F31188 		MSR basepri, r3
 1418              	@ 0 "" 2
 1419              	.LVL100:
 1420              		.loc 5 546 3 is_stmt 0 view .LVU326
 1421              		.thumb
 1422              		.syntax unified
 1423              	.LBE285:
 1424              	.LBE284:
 1425              	.LBE286:
ARM GAS  /tmp/ccJ6FnJD.s 			page 26


 1426              	.LBE287:
 1427              	.LBE289:
 1428              		.loc 1 317 1 view .LVU327
 1429 0048 084B     		ldr	r3, .L83
 1430 004a 1A68     		ldr	r2, [r3]
 1431 004c 019B     		ldr	r3, [sp, #4]
 1432 004e 5A40     		eors	r2, r3, r2
 1433 0050 09D1     		bne	.L82
 1434 0052 02B0     		add	sp, sp, #8
 1435              		.cfi_remember_state
 1436              		.cfi_def_cfa_offset 8
 1437              		@ sp needed
 1438 0054 10BD     		pop	{r4, pc}
 1439              	.LVL101:
 1440              	.L81:
 1441              		.cfi_restore_state
 1442              	.LBB290:
 1443              	.LBB288:
 1444              		.loc 3 367 3 is_stmt 1 view .LVU328
 1445 0056 0748     		ldr	r0, .L83+8
 1446 0058 FFF7FEFF 		bl	chSysHalt
 1447              	.LVL102:
 1448 005c F1E7     		b	.L77
 1449              	.LVL103:
 1450              	.L80:
 1451              		.loc 3 367 3 is_stmt 0 view .LVU329
 1452              	.LBE288:
 1453              	.LBE290:
 1454              	.LBB291:
 1455              	.LBB280:
 1456              		.loc 6 266 3 is_stmt 1 view .LVU330
 1457 005e 0648     		ldr	r0, .L83+12
 1458 0060 FFF7FEFF 		bl	chSysHalt
 1459              	.LVL104:
 1460 0064 DCE7     		b	.L76
 1461              	.LVL105:
 1462              	.L82:
 1463              		.loc 6 266 3 is_stmt 0 view .LVU331
 1464              	.LBE280:
 1465              	.LBE291:
 1466              		.loc 1 317 1 view .LVU332
 1467 0066 FFF7FEFF 		bl	__stack_chk_fail
 1468              	.LVL106:
 1469              	.L84:
 1470 006a 00BF     		.align	2
 1471              	.L83:
 1472 006c 00000000 		.word	.LC7
 1473 0070 00000000 		.word	ch
 1474 0074 00000000 		.word	.LANCHOR1
 1475 0078 00000000 		.word	.LANCHOR4
 1476              		.cfi_endproc
 1477              	.LFE226:
 1478              		.size	chThdSleep, .-chThdSleep
 1479              		.section	.rodata.chThdSleepUntil.cst4,"aM",%progbits,4
 1480              		.align	2
 1481              	.LC8:
 1482 0000 00000000 		.word	__stack_chk_guard
ARM GAS  /tmp/ccJ6FnJD.s 			page 27


 1483              		.section	.text.chThdSleepUntil,"ax",%progbits
 1484              		.align	1
 1485              		.p2align 4,,15
 1486              		.global	chThdSleepUntil
 1487              		.syntax unified
 1488              		.thumb
 1489              		.thumb_func
 1490              		.fpu fpv4-sp-d16
 1491              		.type	chThdSleepUntil, %function
 1492              	chThdSleepUntil:
 1493              	.LVL107:
 1494              	.LFB227:
 1495              		.loc 1 332 38 is_stmt 1 view -0
 1496              		.cfi_startproc
 1497              		@ args = 0, pretend = 0, frame = 8
 1498              		@ frame_needed = 0, uses_anonymous_args = 0
 1499              		.loc 1 332 38 is_stmt 0 view .LVU334
 1500 0000 30B5     		push	{r4, r5, lr}
 1501              		.cfi_def_cfa_offset 12
 1502              		.cfi_offset 4, -12
 1503              		.cfi_offset 5, -8
 1504              		.cfi_offset 14, -4
 1505 0002 194B     		ldr	r3, .L96
 1506 0004 83B0     		sub	sp, sp, #12
 1507              		.cfi_def_cfa_offset 24
 1508              		.loc 1 332 38 view .LVU335
 1509 0006 1B68     		ldr	r3, [r3]
 1510 0008 0193     		str	r3, [sp, #4]
 1511 000a 4FF00003 		mov	r3,#0
 1512              		.loc 1 334 3 is_stmt 1 view .LVU336
 1513              	.LBB306:
 1514              	.LBI306:
 1515              		.loc 3 346 20 view .LVU337
 1516              	.LBB307:
 1517              		.loc 3 348 3 view .LVU338
 1518              	.LBB308:
 1519              	.LBI308:
 1520              		.loc 4 444 20 view .LVU339
 1521              	.LBE308:
 1522              	.LBE307:
 1523              	.LBE306:
 1524              		.loc 4 447 3 view .LVU340
 1525              	.LVL108:
 1526              	.LBB318:
 1527              	.LBB315:
 1528              	.LBB313:
 1529              	.LBB309:
 1530              	.LBI309:
 1531              		.loc 5 544 57 view .LVU341
 1532              	.LBB310:
 1533              		.loc 5 546 3 view .LVU342
 1534              	.LBE310:
 1535              	.LBE309:
 1536              	.LBE313:
 1537              	.LBE315:
 1538              	.LBE318:
 1539              		.loc 1 332 38 is_stmt 0 view .LVU343
ARM GAS  /tmp/ccJ6FnJD.s 			page 28


 1540 000e 0446     		mov	r4, r0
 1541              	.LBB319:
 1542              	.LBB316:
 1543              	.LBB314:
 1544              	.LBB312:
 1545              	.LBB311:
 1546              		.loc 5 546 3 view .LVU344
 1547 0010 2023     		movs	r3, #32
 1548              		.syntax unified
 1549              	@ 546 ".//ChibiOS//os/ext/CMSIS/include/core_cmFunc.h" 1
 1550 0012 83F31188 		MSR basepri, r3
 1551              	@ 0 "" 2
 1552              	.LVL109:
 1553              		.loc 5 546 3 view .LVU345
 1554              		.thumb
 1555              		.syntax unified
 1556              	.LBE311:
 1557              	.LBE312:
 1558              	.LBE314:
 1559              		.loc 3 349 3 is_stmt 1 view .LVU346
 1560              	.LBE316:
 1561              	.LBE319:
 1562              	.LBB320:
 1563              	.LBB321:
 1564              		.file 7 ".//ChibiOS//os/rt/include/chvt.h"
 1565              		.loc 7 231 19 is_stmt 0 view .LVU347
 1566 0016 154D     		ldr	r5, .L96+4
 1567              	.LBE321:
 1568              	.LBE320:
 1569              	.LBB323:
 1570              	.LBB317:
 1571              		.loc 3 349 3 view .LVU348
 1572 0018 FFF7FEFF 		bl	_stats_start_measure_crit_thd
 1573              	.LVL110:
 1574              		.loc 3 350 3 is_stmt 1 view .LVU349
 1575 001c FFF7FEFF 		bl	_dbg_check_lock
 1576              	.LVL111:
 1577              	.LBE317:
 1578              	.LBE323:
 1579              		.loc 1 335 3 view .LVU350
 1580              	.LBB324:
 1581              	.LBI320:
 1582              		.loc 7 228 25 view .LVU351
 1583              	.LBB322:
 1584              		.loc 7 231 3 view .LVU352
 1585              		.loc 7 231 19 is_stmt 0 view .LVU353
 1586 0020 A96A     		ldr	r1, [r5, #40]
 1587              	.LVL112:
 1588              		.loc 7 231 19 view .LVU354
 1589              	.LBE322:
 1590              	.LBE324:
 1591              		.loc 1 336 3 is_stmt 1 view .LVU355
 1592              		.loc 1 336 6 is_stmt 0 view .LVU356
 1593 0022 611A     		subs	r1, r4, r1
 1594              	.LVL113:
 1595              		.loc 1 336 6 view .LVU357
 1596 0024 19D1     		bne	.L93
ARM GAS  /tmp/ccJ6FnJD.s 			page 29


 1597              	.LVL114:
 1598              	.L86:
 1599              		.loc 1 339 3 is_stmt 1 view .LVU358
 1600              	.LBB325:
 1601              	.LBI325:
 1602              		.loc 3 358 20 view .LVU359
 1603              	.LBB326:
 1604              		.loc 3 360 3 view .LVU360
 1605 0026 FFF7FEFF 		bl	_dbg_check_unlock
 1606              	.LVL115:
 1607              		.loc 3 361 3 view .LVU361
 1608 002a FFF7FEFF 		bl	_stats_stop_measure_crit_thd
 1609              	.LVL116:
 1610              		.loc 3 367 3 view .LVU362
 1611              		.loc 3 367 3 view .LVU363
 1612              		.loc 3 367 3 view .LVU364
 1613 002e 2B68     		ldr	r3, [r5]
 1614 0030 AB42     		cmp	r3, r5
 1615 0032 04D0     		beq	.L87
 1616 0034 AA69     		ldr	r2, [r5, #24]
 1617 0036 9B68     		ldr	r3, [r3, #8]
 1618 0038 9268     		ldr	r2, [r2, #8]
 1619 003a 9A42     		cmp	r2, r3
 1620 003c 09D3     		bcc	.L94
 1621              	.L87:
 1622              		.loc 3 367 3 view .LVU365
 1623              		.loc 3 371 3 view .LVU366
 1624              	.LBB327:
 1625              	.LBI327:
 1626              		.loc 4 458 20 view .LVU367
 1627              	.LBE327:
 1628              	.LBE326:
 1629              	.LBE325:
 1630              		.loc 4 461 3 view .LVU368
 1631              	.LVL117:
 1632              	.LBB333:
 1633              	.LBB331:
 1634              	.LBB330:
 1635              	.LBB328:
 1636              	.LBI328:
 1637              		.loc 5 544 57 view .LVU369
 1638              	.LBB329:
 1639              		.loc 5 546 3 view .LVU370
 1640 003e 0023     		movs	r3, #0
 1641              		.syntax unified
 1642              	@ 546 ".//ChibiOS//os/ext/CMSIS/include/core_cmFunc.h" 1
 1643 0040 83F31188 		MSR basepri, r3
 1644              	@ 0 "" 2
 1645              	.LVL118:
 1646              		.loc 5 546 3 is_stmt 0 view .LVU371
 1647              		.thumb
 1648              		.syntax unified
 1649              	.LBE329:
 1650              	.LBE328:
 1651              	.LBE330:
 1652              	.LBE331:
 1653              	.LBE333:
ARM GAS  /tmp/ccJ6FnJD.s 			page 30


 1654              		.loc 1 340 1 view .LVU372
 1655 0044 084B     		ldr	r3, .L96
 1656 0046 1A68     		ldr	r2, [r3]
 1657 0048 019B     		ldr	r3, [sp, #4]
 1658 004a 5A40     		eors	r2, r3, r2
 1659 004c 09D1     		bne	.L95
 1660 004e 03B0     		add	sp, sp, #12
 1661              		.cfi_remember_state
 1662              		.cfi_def_cfa_offset 12
 1663              		@ sp needed
 1664 0050 30BD     		pop	{r4, r5, pc}
 1665              	.L94:
 1666              		.cfi_restore_state
 1667              	.LBB334:
 1668              	.LBB332:
 1669              		.loc 3 367 3 is_stmt 1 view .LVU373
 1670 0052 0748     		ldr	r0, .L96+8
 1671 0054 FFF7FEFF 		bl	chSysHalt
 1672              	.LVL119:
 1673 0058 F1E7     		b	.L87
 1674              	.LVL120:
 1675              	.L93:
 1676              		.loc 3 367 3 is_stmt 0 view .LVU374
 1677              	.LBE332:
 1678              	.LBE334:
 1679              		.loc 1 337 5 is_stmt 1 view .LVU375
 1680              	.LBB335:
 1681              	.LBI335:
 1682              		.loc 6 264 20 view .LVU376
 1683              	.LBB336:
 1684              		.loc 6 266 3 view .LVU377
 1685              		.loc 6 266 3 view .LVU378
 1686              		.loc 6 266 3 view .LVU379
 1687              		.loc 6 266 3 view .LVU380
 1688              		.loc 6 268 3 view .LVU381
 1689              		.loc 6 268 10 is_stmt 0 view .LVU382
 1690 005a 0820     		movs	r0, #8
 1691 005c FFF7FEFF 		bl	chSchGoSleepTimeoutS
 1692              	.LVL121:
 1693              		.loc 6 269 1 view .LVU383
 1694 0060 E1E7     		b	.L86
 1695              	.L95:
 1696              		.loc 6 269 1 view .LVU384
 1697              	.LBE336:
 1698              	.LBE335:
 1699              		.loc 1 340 1 view .LVU385
 1700 0062 FFF7FEFF 		bl	__stack_chk_fail
 1701              	.LVL122:
 1702              	.L97:
 1703 0066 00BF     		.align	2
 1704              	.L96:
 1705 0068 00000000 		.word	.LC8
 1706 006c 00000000 		.word	ch
 1707 0070 00000000 		.word	.LANCHOR1
 1708              		.cfi_endproc
 1709              	.LFE227:
 1710              		.size	chThdSleepUntil, .-chThdSleepUntil
ARM GAS  /tmp/ccJ6FnJD.s 			page 31


 1711              		.section	.rodata.chThdSleepUntilWindowed.cst4,"aM",%progbits,4
 1712              		.align	2
 1713              	.LC9:
 1714 0000 00000000 		.word	__stack_chk_guard
 1715              		.section	.text.chThdSleepUntilWindowed,"ax",%progbits
 1716              		.align	1
 1717              		.p2align 4,,15
 1718              		.global	chThdSleepUntilWindowed
 1719              		.syntax unified
 1720              		.thumb
 1721              		.thumb_func
 1722              		.fpu fpv4-sp-d16
 1723              		.type	chThdSleepUntilWindowed, %function
 1724              	chThdSleepUntilWindowed:
 1725              	.LVL123:
 1726              	.LFB228:
 1727              		.loc 1 356 67 is_stmt 1 view -0
 1728              		.cfi_startproc
 1729              		@ args = 0, pretend = 0, frame = 16
 1730              		@ frame_needed = 0, uses_anonymous_args = 0
 1731              		.loc 1 356 67 is_stmt 0 view .LVU387
 1732 0000 70B5     		push	{r4, r5, r6, lr}
 1733              		.cfi_def_cfa_offset 16
 1734              		.cfi_offset 4, -16
 1735              		.cfi_offset 5, -12
 1736              		.cfi_offset 6, -8
 1737              		.cfi_offset 14, -4
 1738 0002 1F4B     		ldr	r3, .L108
 1739 0004 84B0     		sub	sp, sp, #16
 1740              		.cfi_def_cfa_offset 32
 1741              		.loc 1 356 67 view .LVU388
 1742 0006 1B68     		ldr	r3, [r3]
 1743 0008 0393     		str	r3, [sp, #12]
 1744 000a 4FF00003 		mov	r3,#0
 1745              		.loc 1 357 3 is_stmt 1 view .LVU389
 1746              		.loc 1 359 3 view .LVU390
 1747              	.LBB353:
 1748              	.LBI353:
 1749              		.loc 3 346 20 view .LVU391
 1750              	.LBB354:
 1751              		.loc 3 348 3 view .LVU392
 1752              	.LBB355:
 1753              	.LBI355:
 1754              		.loc 4 444 20 view .LVU393
 1755              	.LBE355:
 1756              	.LBE354:
 1757              	.LBE353:
 1758              		.loc 4 447 3 view .LVU394
 1759              	.LVL124:
 1760              	.LBB365:
 1761              	.LBB362:
 1762              	.LBB360:
 1763              	.LBB356:
 1764              	.LBI356:
 1765              		.loc 5 544 57 view .LVU395
 1766              	.LBB357:
 1767              		.loc 5 546 3 view .LVU396
ARM GAS  /tmp/ccJ6FnJD.s 			page 32


 1768              	.LBE357:
 1769              	.LBE356:
 1770              	.LBE360:
 1771              	.LBE362:
 1772              	.LBE365:
 1773              		.loc 1 356 67 is_stmt 0 view .LVU397
 1774 000e 0446     		mov	r4, r0
 1775 0010 0D46     		mov	r5, r1
 1776              	.LBB366:
 1777              	.LBB363:
 1778              	.LBB361:
 1779              	.LBB359:
 1780              	.LBB358:
 1781              		.loc 5 546 3 view .LVU398
 1782 0012 2023     		movs	r3, #32
 1783              		.syntax unified
 1784              	@ 546 ".//ChibiOS//os/ext/CMSIS/include/core_cmFunc.h" 1
 1785 0014 83F31188 		MSR basepri, r3
 1786              	@ 0 "" 2
 1787              	.LVL125:
 1788              		.loc 5 546 3 view .LVU399
 1789              		.thumb
 1790              		.syntax unified
 1791              	.LBE358:
 1792              	.LBE359:
 1793              	.LBE361:
 1794              		.loc 3 349 3 is_stmt 1 view .LVU400
 1795              	.LBE363:
 1796              	.LBE366:
 1797              	.LBB367:
 1798              	.LBB368:
 1799              		.loc 7 231 19 is_stmt 0 view .LVU401
 1800 0018 1A4E     		ldr	r6, .L108+4
 1801              	.LBE368:
 1802              	.LBE367:
 1803              	.LBB370:
 1804              	.LBB364:
 1805              		.loc 3 349 3 view .LVU402
 1806 001a FFF7FEFF 		bl	_stats_start_measure_crit_thd
 1807              	.LVL126:
 1808              		.loc 3 350 3 is_stmt 1 view .LVU403
 1809 001e FFF7FEFF 		bl	_dbg_check_lock
 1810              	.LVL127:
 1811              	.LBE364:
 1812              	.LBE370:
 1813              		.loc 1 360 3 view .LVU404
 1814              	.LBB371:
 1815              	.LBI367:
 1816              		.loc 7 228 25 view .LVU405
 1817              	.LBB369:
 1818              		.loc 7 231 3 view .LVU406
 1819              		.loc 7 231 19 is_stmt 0 view .LVU407
 1820 0022 B16A     		ldr	r1, [r6, #40]
 1821              	.LVL128:
 1822              		.loc 7 231 19 view .LVU408
 1823              	.LBE369:
 1824              	.LBE371:
ARM GAS  /tmp/ccJ6FnJD.s 			page 33


 1825              		.loc 1 361 3 is_stmt 1 view .LVU409
 1826              	.LBB372:
 1827              	.LBI372:
 1828              		.loc 7 284 20 view .LVU410
 1829              	.LBB373:
 1830              		.loc 7 288 3 view .LVU411
 1831              		.loc 7 288 39 is_stmt 0 view .LVU412
 1832 0024 2B1B     		subs	r3, r5, r4
 1833              		.loc 7 288 23 view .LVU413
 1834 0026 0C1B     		subs	r4, r1, r4
 1835              	.LVL129:
 1836              		.loc 7 288 23 view .LVU414
 1837              	.LBE373:
 1838              	.LBE372:
 1839              		.loc 1 361 6 view .LVU415
 1840 0028 9C42     		cmp	r4, r3
 1841 002a 1AD3     		bcc	.L104
 1842              	.LVL130:
 1843              	.L99:
 1844              		.loc 1 364 3 is_stmt 1 view .LVU416
 1845              	.LBB374:
 1846              	.LBI374:
 1847              		.loc 3 358 20 view .LVU417
 1848              	.LBB375:
 1849              		.loc 3 360 3 view .LVU418
 1850 002c FFF7FEFF 		bl	_dbg_check_unlock
 1851              	.LVL131:
 1852              		.loc 3 361 3 view .LVU419
 1853 0030 FFF7FEFF 		bl	_stats_stop_measure_crit_thd
 1854              	.LVL132:
 1855              		.loc 3 367 3 view .LVU420
 1856              		.loc 3 367 3 view .LVU421
 1857              		.loc 3 367 3 view .LVU422
 1858 0034 3368     		ldr	r3, [r6]
 1859 0036 B342     		cmp	r3, r6
 1860 0038 04D0     		beq	.L101
 1861 003a B269     		ldr	r2, [r6, #24]
 1862 003c 9B68     		ldr	r3, [r3, #8]
 1863 003e 9268     		ldr	r2, [r2, #8]
 1864 0040 9A42     		cmp	r2, r3
 1865 0042 0AD3     		bcc	.L105
 1866              	.L101:
 1867              		.loc 3 367 3 view .LVU423
 1868              		.loc 3 371 3 view .LVU424
 1869              	.LBB376:
 1870              	.LBI376:
 1871              		.loc 4 458 20 view .LVU425
 1872              	.LBE376:
 1873              	.LBE375:
 1874              	.LBE374:
 1875              		.loc 4 461 3 view .LVU426
 1876              	.LVL133:
 1877              	.LBB382:
 1878              	.LBB380:
 1879              	.LBB379:
 1880              	.LBB377:
 1881              	.LBI377:
ARM GAS  /tmp/ccJ6FnJD.s 			page 34


 1882              		.loc 5 544 57 view .LVU427
 1883              	.LBB378:
 1884              		.loc 5 546 3 view .LVU428
 1885 0044 0023     		movs	r3, #0
 1886              		.syntax unified
 1887              	@ 546 ".//ChibiOS//os/ext/CMSIS/include/core_cmFunc.h" 1
 1888 0046 83F31188 		MSR basepri, r3
 1889              	@ 0 "" 2
 1890              	.LVL134:
 1891              		.loc 5 546 3 is_stmt 0 view .LVU429
 1892              		.thumb
 1893              		.syntax unified
 1894              	.LBE378:
 1895              	.LBE377:
 1896              	.LBE379:
 1897              	.LBE380:
 1898              	.LBE382:
 1899              		.loc 1 366 3 is_stmt 1 view .LVU430
 1900              		.loc 1 367 1 is_stmt 0 view .LVU431
 1901 004a 0D4B     		ldr	r3, .L108
 1902 004c 1A68     		ldr	r2, [r3]
 1903 004e 039B     		ldr	r3, [sp, #12]
 1904 0050 5A40     		eors	r2, r3, r2
 1905 0052 12D1     		bne	.L106
 1906 0054 2846     		mov	r0, r5
 1907 0056 04B0     		add	sp, sp, #16
 1908              		.cfi_remember_state
 1909              		.cfi_def_cfa_offset 16
 1910              		@ sp needed
 1911 0058 70BD     		pop	{r4, r5, r6, pc}
 1912              	.LVL135:
 1913              	.L105:
 1914              		.cfi_restore_state
 1915              	.LBB383:
 1916              	.LBB381:
 1917              		.loc 3 367 3 is_stmt 1 view .LVU432
 1918 005a 0B48     		ldr	r0, .L108+8
 1919 005c FFF7FEFF 		bl	chSysHalt
 1920              	.LVL136:
 1921 0060 F0E7     		b	.L101
 1922              	.LVL137:
 1923              	.L104:
 1924              		.loc 3 367 3 is_stmt 0 view .LVU433
 1925              	.LBE381:
 1926              	.LBE383:
 1927              		.loc 1 362 2 is_stmt 1 view .LVU434
 1928              	.LBB384:
 1929              	.LBI384:
 1930              		.loc 6 264 20 view .LVU435
 1931              	.LBB385:
 1932              		.loc 6 266 3 view .LVU436
 1933              		.loc 6 266 3 view .LVU437
 1934              		.loc 6 266 3 view .LVU438
 1935 0062 691A     		subs	r1, r5, r1
 1936              	.LVL138:
 1937              		.loc 6 266 3 is_stmt 0 view .LVU439
 1938 0064 03D0     		beq	.L107
ARM GAS  /tmp/ccJ6FnJD.s 			page 35


 1939              	.LVL139:
 1940              	.L100:
 1941              		.loc 6 266 3 is_stmt 1 view .LVU440
 1942              		.loc 6 268 3 view .LVU441
 1943              		.loc 6 268 10 is_stmt 0 view .LVU442
 1944 0066 0820     		movs	r0, #8
 1945 0068 FFF7FEFF 		bl	chSchGoSleepTimeoutS
 1946              	.LVL140:
 1947              		.loc 6 269 1 view .LVU443
 1948 006c DEE7     		b	.L99
 1949              	.LVL141:
 1950              	.L107:
 1951              		.loc 6 266 3 view .LVU444
 1952 006e 0748     		ldr	r0, .L108+12
 1953 0070 0191     		str	r1, [sp, #4]
 1954              		.loc 6 266 3 is_stmt 1 view .LVU445
 1955 0072 FFF7FEFF 		bl	chSysHalt
 1956              	.LVL142:
 1957              		.loc 6 266 3 is_stmt 0 view .LVU446
 1958 0076 0199     		ldr	r1, [sp, #4]
 1959 0078 F5E7     		b	.L100
 1960              	.LVL143:
 1961              	.L106:
 1962              		.loc 6 266 3 view .LVU447
 1963              	.LBE385:
 1964              	.LBE384:
 1965              		.loc 1 367 1 view .LVU448
 1966 007a FFF7FEFF 		bl	__stack_chk_fail
 1967              	.LVL144:
 1968              	.L109:
 1969 007e 00BF     		.align	2
 1970              	.L108:
 1971 0080 00000000 		.word	.LC9
 1972 0084 00000000 		.word	ch
 1973 0088 00000000 		.word	.LANCHOR1
 1974 008c 00000000 		.word	.LANCHOR4
 1975              		.cfi_endproc
 1976              	.LFE228:
 1977              		.size	chThdSleepUntilWindowed, .-chThdSleepUntilWindowed
 1978              		.section	.rodata.chThdYield.cst4,"aM",%progbits,4
 1979              		.align	2
 1980              	.LC10:
 1981 0000 00000000 		.word	__stack_chk_guard
 1982              		.section	.text.chThdYield,"ax",%progbits
 1983              		.align	1
 1984              		.p2align 4,,15
 1985              		.global	chThdYield
 1986              		.syntax unified
 1987              		.thumb
 1988              		.thumb_func
 1989              		.fpu fpv4-sp-d16
 1990              		.type	chThdYield, %function
 1991              	chThdYield:
 1992              	.LFB229:
 1993              		.loc 1 376 23 is_stmt 1 view -0
 1994              		.cfi_startproc
 1995              		@ args = 0, pretend = 0, frame = 8
ARM GAS  /tmp/ccJ6FnJD.s 			page 36


 1996              		@ frame_needed = 0, uses_anonymous_args = 0
 1997 0000 10B5     		push	{r4, lr}
 1998              		.cfi_def_cfa_offset 8
 1999              		.cfi_offset 4, -8
 2000              		.cfi_offset 14, -4
 2001 0002 1B4B     		ldr	r3, .L118
 2002 0004 82B0     		sub	sp, sp, #8
 2003              		.cfi_def_cfa_offset 16
 2004              		.loc 1 376 23 is_stmt 0 view .LVU450
 2005 0006 1B68     		ldr	r3, [r3]
 2006 0008 0193     		str	r3, [sp, #4]
 2007 000a 4FF00003 		mov	r3,#0
 2008              		.loc 1 378 3 is_stmt 1 view .LVU451
 2009              	.LBB400:
 2010              	.LBI400:
 2011              		.loc 3 346 20 view .LVU452
 2012              	.LBB401:
 2013              		.loc 3 348 3 view .LVU453
 2014              	.LBB402:
 2015              	.LBI402:
 2016              		.loc 4 444 20 view .LVU454
 2017              	.LBE402:
 2018              	.LBE401:
 2019              	.LBE400:
 2020              		.loc 4 447 3 view .LVU455
 2021              	.LVL145:
 2022              	.LBB408:
 2023              	.LBB406:
 2024              	.LBB405:
 2025              	.LBB403:
 2026              	.LBI403:
 2027              		.loc 5 544 57 view .LVU456
 2028              	.LBB404:
 2029              		.loc 5 546 3 view .LVU457
 2030 000e 2023     		movs	r3, #32
 2031              		.syntax unified
 2032              	@ 546 ".//ChibiOS//os/ext/CMSIS/include/core_cmFunc.h" 1
 2033 0010 83F31188 		MSR basepri, r3
 2034              	@ 0 "" 2
 2035              	.LVL146:
 2036              		.loc 5 546 3 is_stmt 0 view .LVU458
 2037              		.thumb
 2038              		.syntax unified
 2039              	.LBE404:
 2040              	.LBE403:
 2041              	.LBE405:
 2042              		.loc 3 349 3 is_stmt 1 view .LVU459
 2043              	.LBE406:
 2044              	.LBE408:
 2045              	.LBB409:
 2046              	.LBB410:
 2047              	.LBB411:
 2048              	.LBB412:
 2049              		.loc 2 731 10 is_stmt 0 view .LVU460
 2050 0014 174C     		ldr	r4, .L118+4
 2051              	.LBE412:
 2052              	.LBE411:
ARM GAS  /tmp/ccJ6FnJD.s 			page 37


 2053              	.LBE410:
 2054              	.LBE409:
 2055              	.LBB417:
 2056              	.LBB407:
 2057              		.loc 3 349 3 view .LVU461
 2058 0016 FFF7FEFF 		bl	_stats_start_measure_crit_thd
 2059              	.LVL147:
 2060              		.loc 3 350 3 is_stmt 1 view .LVU462
 2061 001a FFF7FEFF 		bl	_dbg_check_lock
 2062              	.LVL148:
 2063              	.LBE407:
 2064              	.LBE417:
 2065              		.loc 1 379 3 view .LVU463
 2066              	.LBB418:
 2067              	.LBI409:
 2068              		.loc 2 741 20 view .LVU464
 2069              	.LBB415:
 2070              		.loc 2 743 3 view .LVU465
 2071 001e FFF7FEFF 		bl	chDbgCheckClassS
 2072              	.LVL149:
 2073              		.loc 2 745 3 view .LVU466
 2074              	.LBB414:
 2075              	.LBI411:
 2076              		.loc 2 727 20 view .LVU467
 2077              	.LBB413:
 2078              		.loc 2 729 3 view .LVU468
 2079 0022 FFF7FEFF 		bl	chDbgCheckClassS
 2080              	.LVL150:
 2081              		.loc 2 731 3 view .LVU469
 2082              		.loc 2 731 10 is_stmt 0 view .LVU470
 2083 0026 2268     		ldr	r2, [r4]
 2084              		.loc 2 731 47 view .LVU471
 2085 0028 A369     		ldr	r3, [r4, #24]
 2086              	.LBE413:
 2087              	.LBE414:
 2088              		.loc 2 745 6 view .LVU472
 2089 002a 9268     		ldr	r2, [r2, #8]
 2090 002c 9B68     		ldr	r3, [r3, #8]
 2091 002e 9A42     		cmp	r2, r3
 2092 0030 19D2     		bcs	.L115
 2093              	.L111:
 2094              	.LBE415:
 2095              	.LBE418:
 2096              		.loc 1 380 3 is_stmt 1 view .LVU473
 2097              	.LBB419:
 2098              	.LBI419:
 2099              		.loc 3 358 20 view .LVU474
 2100              	.LBB420:
 2101              		.loc 3 360 3 view .LVU475
 2102 0032 FFF7FEFF 		bl	_dbg_check_unlock
 2103              	.LVL151:
 2104              		.loc 3 361 3 view .LVU476
 2105 0036 FFF7FEFF 		bl	_stats_stop_measure_crit_thd
 2106              	.LVL152:
 2107              		.loc 3 367 3 view .LVU477
 2108              		.loc 3 367 3 view .LVU478
 2109              		.loc 3 367 3 view .LVU479
ARM GAS  /tmp/ccJ6FnJD.s 			page 38


 2110 003a 2368     		ldr	r3, [r4]
 2111 003c A342     		cmp	r3, r4
 2112 003e 04D0     		beq	.L112
 2113 0040 A269     		ldr	r2, [r4, #24]
 2114 0042 9B68     		ldr	r3, [r3, #8]
 2115 0044 9268     		ldr	r2, [r2, #8]
 2116 0046 9A42     		cmp	r2, r3
 2117 0048 09D3     		bcc	.L116
 2118              	.L112:
 2119              		.loc 3 367 3 view .LVU480
 2120              		.loc 3 371 3 view .LVU481
 2121              	.LBB421:
 2122              	.LBI421:
 2123              		.loc 4 458 20 view .LVU482
 2124              	.LBE421:
 2125              	.LBE420:
 2126              	.LBE419:
 2127              		.loc 4 461 3 view .LVU483
 2128              	.LVL153:
 2129              	.LBB427:
 2130              	.LBB425:
 2131              	.LBB424:
 2132              	.LBB422:
 2133              	.LBI422:
 2134              		.loc 5 544 57 view .LVU484
 2135              	.LBB423:
 2136              		.loc 5 546 3 view .LVU485
 2137 004a 0023     		movs	r3, #0
 2138              		.syntax unified
 2139              	@ 546 ".//ChibiOS//os/ext/CMSIS/include/core_cmFunc.h" 1
 2140 004c 83F31188 		MSR basepri, r3
 2141              	@ 0 "" 2
 2142              	.LVL154:
 2143              		.loc 5 546 3 is_stmt 0 view .LVU486
 2144              		.thumb
 2145              		.syntax unified
 2146              	.LBE423:
 2147              	.LBE422:
 2148              	.LBE424:
 2149              	.LBE425:
 2150              	.LBE427:
 2151              		.loc 1 381 1 view .LVU487
 2152 0050 074B     		ldr	r3, .L118
 2153 0052 1A68     		ldr	r2, [r3]
 2154 0054 019B     		ldr	r3, [sp, #4]
 2155 0056 5A40     		eors	r2, r3, r2
 2156 0058 08D1     		bne	.L117
 2157 005a 02B0     		add	sp, sp, #8
 2158              		.cfi_remember_state
 2159              		.cfi_def_cfa_offset 8
 2160              		@ sp needed
 2161 005c 10BD     		pop	{r4, pc}
 2162              	.L116:
 2163              		.cfi_restore_state
 2164              	.LBB428:
 2165              	.LBB426:
 2166              		.loc 3 367 3 is_stmt 1 view .LVU488
ARM GAS  /tmp/ccJ6FnJD.s 			page 39


 2167 005e 0648     		ldr	r0, .L118+8
 2168 0060 FFF7FEFF 		bl	chSysHalt
 2169              	.LVL155:
 2170 0064 F1E7     		b	.L112
 2171              	.L115:
 2172              	.LBE426:
 2173              	.LBE428:
 2174              	.LBB429:
 2175              	.LBB416:
 2176              		.loc 2 746 5 view .LVU489
 2177 0066 FFF7FEFF 		bl	chSchDoRescheduleBehind
 2178              	.LVL156:
 2179 006a E2E7     		b	.L111
 2180              	.L117:
 2181              	.LBE416:
 2182              	.LBE429:
 2183              		.loc 1 381 1 is_stmt 0 view .LVU490
 2184 006c FFF7FEFF 		bl	__stack_chk_fail
 2185              	.LVL157:
 2186              	.L119:
 2187              		.align	2
 2188              	.L118:
 2189 0070 00000000 		.word	.LC10
 2190 0074 00000000 		.word	ch
 2191 0078 00000000 		.word	.LANCHOR1
 2192              		.cfi_endproc
 2193              	.LFE229:
 2194              		.size	chThdYield, .-chThdYield
 2195              		.section	.rodata.chThdExitS.cst4,"aM",%progbits,4
 2196              		.align	2
 2197              	.LC11:
 2198 0000 00000000 		.word	__stack_chk_guard
 2199              		.section	.text.chThdExitS,"ax",%progbits
 2200              		.align	1
 2201              		.p2align 4,,15
 2202              		.global	chThdExitS
 2203              		.syntax unified
 2204              		.thumb
 2205              		.thumb_func
 2206              		.fpu fpv4-sp-d16
 2207              		.type	chThdExitS, %function
 2208              	chThdExitS:
 2209              	.LVL158:
 2210              	.LFB231:
 2211              		.loc 1 418 28 is_stmt 1 view -0
 2212              		.cfi_startproc
 2213              		@ args = 0, pretend = 0, frame = 8
 2214              		@ frame_needed = 0, uses_anonymous_args = 0
 2215              		.loc 1 418 28 is_stmt 0 view .LVU492
 2216 0000 30B5     		push	{r4, r5, lr}
 2217              		.cfi_def_cfa_offset 12
 2218              		.cfi_offset 4, -12
 2219              		.cfi_offset 5, -8
 2220              		.cfi_offset 14, -4
 2221              		.loc 1 419 13 view .LVU493
 2222 0002 174B     		ldr	r3, .L129
 2223              		.loc 1 418 28 view .LVU494
ARM GAS  /tmp/ccJ6FnJD.s 			page 40


 2224 0004 174A     		ldr	r2, .L129+4
 2225              		.loc 1 419 13 view .LVU495
 2226 0006 9C69     		ldr	r4, [r3, #24]
 2227              	.LBB430:
 2228              	.LBB431:
 2229              		.loc 2 592 20 view .LVU496
 2230 0008 E36A     		ldr	r3, [r4, #44]
 2231              	.LBE431:
 2232              	.LBE430:
 2233              		.loc 1 426 10 view .LVU497
 2234 000a 04F12C05 		add	r5, r4, #44
 2235              		.loc 1 418 28 view .LVU498
 2236 000e 83B0     		sub	sp, sp, #12
 2237              		.cfi_def_cfa_offset 24
 2238              		.loc 1 426 9 view .LVU499
 2239 0010 AB42     		cmp	r3, r5
 2240              		.loc 1 418 28 view .LVU500
 2241 0012 1268     		ldr	r2, [r2]
 2242 0014 0192     		str	r2, [sp, #4]
 2243 0016 4FF00002 		mov	r2,#0
 2244              		.loc 1 419 3 is_stmt 1 view .LVU501
 2245              	.LVL159:
 2246              		.loc 1 421 3 view .LVU502
 2247              		.loc 1 421 20 is_stmt 0 view .LVU503
 2248 001a A062     		str	r0, [r4, #40]
 2249              		.loc 1 423 3 is_stmt 1 view .LVU504
 2250              		.loc 1 423 30 view .LVU505
 2251              		.loc 1 426 3 view .LVU506
 2252              		.loc 1 426 9 view .LVU507
 2253              	.LVL160:
 2254              	.LBB434:
 2255              	.LBI430:
 2256              		.loc 2 590 20 view .LVU508
 2257              	.LBB432:
 2258              		.loc 2 592 3 view .LVU509
 2259              		.loc 2 592 3 is_stmt 0 view .LVU510
 2260              	.LBE432:
 2261              	.LBE434:
 2262              		.loc 1 426 9 view .LVU511
 2263 001c 07D0     		beq	.L121
 2264              	.LVL161:
 2265              	.L122:
 2266              		.loc 1 427 5 is_stmt 1 view .LVU512
 2267              	.LBB435:
 2268              	.LBI435:
 2269              		.loc 2 643 25 view .LVU513
 2270              	.LBB436:
 2271              		.loc 2 645 3 view .LVU514
 2272              		.loc 2 646 3 view .LVU515
 2273              		.loc 2 646 19 is_stmt 0 view .LVU516
 2274 001e 1A68     		ldr	r2, [r3]
 2275              		.loc 2 646 15 view .LVU517
 2276 0020 E262     		str	r2, [r4, #44]
 2277              		.loc 2 648 3 is_stmt 1 view .LVU518
 2278              	.LVL162:
 2279              		.loc 2 648 3 is_stmt 0 view .LVU519
 2280              	.LBE436:
ARM GAS  /tmp/ccJ6FnJD.s 			page 41


 2281              	.LBE435:
 2282              		.loc 1 427 12 view .LVU520
 2283 0022 1846     		mov	r0, r3
 2284 0024 FFF7FEFF 		bl	chSchReadyI
 2285              	.LVL163:
 2286              		.loc 1 426 9 is_stmt 1 view .LVU521
 2287              	.LBB437:
 2288              		.loc 2 590 20 view .LVU522
 2289              	.LBB433:
 2290              		.loc 2 592 3 view .LVU523
 2291              		.loc 2 592 20 is_stmt 0 view .LVU524
 2292 0028 E36A     		ldr	r3, [r4, #44]
 2293              	.LVL164:
 2294              		.loc 2 592 20 view .LVU525
 2295              	.LBE433:
 2296              	.LBE437:
 2297              		.loc 1 426 9 view .LVU526
 2298 002a AB42     		cmp	r3, r5
 2299 002c F7D1     		bne	.L122
 2300              	.LVL165:
 2301              	.L121:
 2302              		.loc 1 433 3 is_stmt 1 view .LVU527
 2303              		.loc 1 433 6 is_stmt 0 view .LVU528
 2304 002e 94F82130 		ldrb	r3, [r4, #33]	@ zero_extendqisi2
 2305 0032 9B07     		lsls	r3, r3, #30
 2306 0034 04D1     		bne	.L123
 2307              		.loc 1 434 5 is_stmt 1 view .LVU529
 2308 0036 D4E90432 		ldrd	r3, r2, [r4, #16]
 2309 003a 1361     		str	r3, [r2, #16]
 2310              		.loc 1 434 5 view .LVU530
 2311 003c 6269     		ldr	r2, [r4, #20]
 2312 003e 5A61     		str	r2, [r3, #20]
 2313              	.L123:
 2314              		.loc 1 434 19 discriminator 1 view .LVU531
 2315              		.loc 1 437 3 discriminator 1 view .LVU532
 2316 0040 0F20     		movs	r0, #15
 2317 0042 FFF7FEFF 		bl	chSchGoSleepS
 2318              	.LVL166:
 2319              		.loc 1 440 3 discriminator 1 view .LVU533
 2320              		.loc 1 440 3 discriminator 1 view .LVU534
 2321              		.loc 1 440 3 discriminator 1 view .LVU535
 2322              		.loc 1 440 3 discriminator 1 view .LVU536
 2323 0046 074B     		ldr	r3, .L129+4
 2324 0048 1A68     		ldr	r2, [r3]
 2325 004a 019B     		ldr	r3, [sp, #4]
 2326 004c 5A40     		eors	r2, r3, r2
 2327 004e 05D1     		bne	.L128
 2328 0050 0548     		ldr	r0, .L129+8
 2329              		.loc 1 441 1 is_stmt 0 discriminator 1 view .LVU537
 2330 0052 03B0     		add	sp, sp, #12
 2331              		.cfi_remember_state
 2332              		.cfi_def_cfa_offset 12
 2333              		@ sp needed
 2334 0054 BDE83040 		pop	{r4, r5, lr}
 2335              		.cfi_restore 14
 2336              		.cfi_restore 5
 2337              		.cfi_restore 4
ARM GAS  /tmp/ccJ6FnJD.s 			page 42


 2338              		.cfi_def_cfa_offset 0
 2339              	.LVL167:
 2340              		.loc 1 440 3 discriminator 1 view .LVU538
 2341 0058 FFF7FEBF 		b	chSysHalt
 2342              	.LVL168:
 2343              	.L128:
 2344              		.cfi_restore_state
 2345              		.loc 1 440 3 discriminator 1 view .LVU539
 2346 005c FFF7FEFF 		bl	__stack_chk_fail
 2347              	.LVL169:
 2348              	.L130:
 2349              		.align	2
 2350              	.L129:
 2351 0060 00000000 		.word	ch
 2352 0064 00000000 		.word	.LC11
 2353 0068 00000000 		.word	.LANCHOR5
 2354              		.cfi_endproc
 2355              	.LFE231:
 2356              		.size	chThdExitS, .-chThdExitS
 2357              		.section	.rodata.chThdExit.cst4,"aM",%progbits,4
 2358              		.align	2
 2359              	.LC12:
 2360 0000 00000000 		.word	__stack_chk_guard
 2361              		.section	.text.chThdExit,"ax",%progbits
 2362              		.align	1
 2363              		.p2align 4,,15
 2364              		.global	chThdExit
 2365              		.syntax unified
 2366              		.thumb
 2367              		.thumb_func
 2368              		.fpu fpv4-sp-d16
 2369              		.type	chThdExit, %function
 2370              	chThdExit:
 2371              	.LVL170:
 2372              	.LFB230:
 2373              		.loc 1 397 27 is_stmt 1 view -0
 2374              		.cfi_startproc
 2375              		@ args = 0, pretend = 0, frame = 8
 2376              		@ frame_needed = 0, uses_anonymous_args = 0
 2377              		.loc 1 397 27 is_stmt 0 view .LVU541
 2378 0000 10B5     		push	{r4, lr}
 2379              		.cfi_def_cfa_offset 8
 2380              		.cfi_offset 4, -8
 2381              		.cfi_offset 14, -4
 2382 0002 0D4B     		ldr	r3, .L136
 2383 0004 82B0     		sub	sp, sp, #8
 2384              		.cfi_def_cfa_offset 16
 2385              		.loc 1 397 27 view .LVU542
 2386 0006 1B68     		ldr	r3, [r3]
 2387 0008 0193     		str	r3, [sp, #4]
 2388 000a 4FF00003 		mov	r3,#0
 2389              		.loc 1 399 3 is_stmt 1 view .LVU543
 2390              	.LBB438:
 2391              	.LBI438:
 2392              		.loc 3 346 20 view .LVU544
 2393              	.LBB439:
 2394              		.loc 3 348 3 view .LVU545
ARM GAS  /tmp/ccJ6FnJD.s 			page 43


 2395              	.LBB440:
 2396              	.LBI440:
 2397              		.loc 4 444 20 view .LVU546
 2398              	.LBE440:
 2399              	.LBE439:
 2400              	.LBE438:
 2401              		.loc 4 447 3 view .LVU547
 2402              	.LVL171:
 2403              	.LBB449:
 2404              	.LBB447:
 2405              	.LBB445:
 2406              	.LBB441:
 2407              	.LBI441:
 2408              		.loc 5 544 57 view .LVU548
 2409              	.LBB442:
 2410              		.loc 5 546 3 view .LVU549
 2411              	.LBE442:
 2412              	.LBE441:
 2413              	.LBE445:
 2414              	.LBE447:
 2415              	.LBE449:
 2416              		.loc 1 397 27 is_stmt 0 view .LVU550
 2417 000e 0446     		mov	r4, r0
 2418              	.LBB450:
 2419              	.LBB448:
 2420              	.LBB446:
 2421              	.LBB444:
 2422              	.LBB443:
 2423              		.loc 5 546 3 view .LVU551
 2424 0010 2023     		movs	r3, #32
 2425              		.syntax unified
 2426              	@ 546 ".//ChibiOS//os/ext/CMSIS/include/core_cmFunc.h" 1
 2427 0012 83F31188 		MSR basepri, r3
 2428              	@ 0 "" 2
 2429              	.LVL172:
 2430              		.loc 5 546 3 view .LVU552
 2431              		.thumb
 2432              		.syntax unified
 2433              	.LBE443:
 2434              	.LBE444:
 2435              	.LBE446:
 2436              		.loc 3 349 3 is_stmt 1 view .LVU553
 2437 0016 FFF7FEFF 		bl	_stats_start_measure_crit_thd
 2438              	.LVL173:
 2439              		.loc 3 350 3 view .LVU554
 2440 001a FFF7FEFF 		bl	_dbg_check_lock
 2441              	.LVL174:
 2442              	.LBE448:
 2443              	.LBE450:
 2444              		.loc 1 400 3 view .LVU555
 2445 001e 064B     		ldr	r3, .L136
 2446 0020 1A68     		ldr	r2, [r3]
 2447 0022 019B     		ldr	r3, [sp, #4]
 2448 0024 5A40     		eors	r2, r3, r2
 2449 0026 05D1     		bne	.L135
 2450 0028 2046     		mov	r0, r4
 2451              		.loc 1 402 1 is_stmt 0 view .LVU556
ARM GAS  /tmp/ccJ6FnJD.s 			page 44


 2452 002a 02B0     		add	sp, sp, #8
 2453              		.cfi_remember_state
 2454              		.cfi_def_cfa_offset 8
 2455              		@ sp needed
 2456 002c BDE81040 		pop	{r4, lr}
 2457              		.cfi_restore 14
 2458              		.cfi_restore 4
 2459              		.cfi_def_cfa_offset 0
 2460              	.LVL175:
 2461              		.loc 1 400 3 view .LVU557
 2462 0030 FFF7FEBF 		b	chThdExitS
 2463              	.LVL176:
 2464              	.L135:
 2465              		.cfi_restore_state
 2466              		.loc 1 400 3 view .LVU558
 2467 0034 FFF7FEFF 		bl	__stack_chk_fail
 2468              	.LVL177:
 2469              	.L137:
 2470              		.align	2
 2471              	.L136:
 2472 0038 00000000 		.word	.LC12
 2473              		.cfi_endproc
 2474              	.LFE230:
 2475              		.size	chThdExit, .-chThdExit
 2476              		.section	.rodata.chThdWait.cst4,"aM",%progbits,4
 2477              		.align	2
 2478              	.LC13:
 2479 0000 00000000 		.word	__stack_chk_guard
 2480              		.section	.text.chThdWait,"ax",%progbits
 2481              		.align	1
 2482              		.p2align 4,,15
 2483              		.global	chThdWait
 2484              		.syntax unified
 2485              		.thumb
 2486              		.thumb_func
 2487              		.fpu fpv4-sp-d16
 2488              		.type	chThdWait, %function
 2489              	chThdWait:
 2490              	.LVL178:
 2491              	.LFB232:
 2492              		.loc 1 475 31 is_stmt 1 view -0
 2493              		.cfi_startproc
 2494              		@ args = 0, pretend = 0, frame = 8
 2495              		@ frame_needed = 0, uses_anonymous_args = 0
 2496              		.loc 1 475 31 is_stmt 0 view .LVU560
 2497 0000 70B5     		push	{r4, r5, r6, lr}
 2498              		.cfi_def_cfa_offset 16
 2499              		.cfi_offset 4, -16
 2500              		.cfi_offset 5, -12
 2501              		.cfi_offset 6, -8
 2502              		.cfi_offset 14, -4
 2503 0002 274B     		ldr	r3, .L154
 2504 0004 82B0     		sub	sp, sp, #8
 2505              		.cfi_def_cfa_offset 24
 2506              		.loc 1 475 31 view .LVU561
 2507 0006 1B68     		ldr	r3, [r3]
 2508 0008 0193     		str	r3, [sp, #4]
ARM GAS  /tmp/ccJ6FnJD.s 			page 45


 2509 000a 4FF00003 		mov	r3,#0
 2510              		.loc 1 476 3 is_stmt 1 view .LVU562
 2511              		.loc 1 478 3 view .LVU563
 2512              		.loc 1 478 3 view .LVU564
 2513              		.loc 1 478 3 view .LVU565
 2514 000e 0446     		mov	r4, r0
 2515 0010 0028     		cmp	r0, #0
 2516 0012 3FD0     		beq	.L149
 2517              	.LVL179:
 2518              	.L139:
 2519              		.loc 1 478 3 discriminator 5 view .LVU566
 2520              		.loc 1 480 3 discriminator 5 view .LVU567
 2521              	.LBB463:
 2522              	.LBI463:
 2523              		.loc 3 346 20 discriminator 5 view .LVU568
 2524              	.LBB464:
 2525              		.loc 3 348 3 discriminator 5 view .LVU569
 2526              	.LBB465:
 2527              	.LBI465:
 2528              		.loc 4 444 20 discriminator 5 view .LVU570
 2529              	.LBE465:
 2530              	.LBE464:
 2531              	.LBE463:
 2532              		.loc 4 447 3 discriminator 5 view .LVU571
 2533              	.LBB471:
 2534              	.LBB469:
 2535              	.LBB468:
 2536              	.LBB466:
 2537              	.LBI466:
 2538              		.loc 5 544 57 discriminator 5 view .LVU572
 2539              	.LBB467:
 2540              		.loc 5 546 3 discriminator 5 view .LVU573
 2541 0014 2023     		movs	r3, #32
 2542              		.syntax unified
 2543              	@ 546 ".//ChibiOS//os/ext/CMSIS/include/core_cmFunc.h" 1
 2544 0016 83F31188 		MSR basepri, r3
 2545              	@ 0 "" 2
 2546              	.LVL180:
 2547              		.loc 5 546 3 is_stmt 0 discriminator 5 view .LVU574
 2548              		.thumb
 2549              		.syntax unified
 2550              	.LBE467:
 2551              	.LBE466:
 2552              	.LBE468:
 2553              		.loc 3 349 3 is_stmt 1 discriminator 5 view .LVU575
 2554              	.LBE469:
 2555              	.LBE471:
 2556              		.loc 1 481 3 is_stmt 0 discriminator 5 view .LVU576
 2557 001a 224D     		ldr	r5, .L154+4
 2558              	.LBB472:
 2559              	.LBB470:
 2560              		.loc 3 349 3 discriminator 5 view .LVU577
 2561 001c FFF7FEFF 		bl	_stats_start_measure_crit_thd
 2562              	.LVL181:
 2563              		.loc 3 350 3 is_stmt 1 discriminator 5 view .LVU578
 2564 0020 FFF7FEFF 		bl	_dbg_check_lock
 2565              	.LVL182:
ARM GAS  /tmp/ccJ6FnJD.s 			page 46


 2566              	.LBE470:
 2567              	.LBE472:
 2568              		.loc 1 481 3 discriminator 5 view .LVU579
 2569              		.loc 1 481 3 discriminator 5 view .LVU580
 2570              		.loc 1 481 3 discriminator 5 view .LVU581
 2571 0024 AB69     		ldr	r3, [r5, #24]
 2572 0026 A342     		cmp	r3, r4
 2573 0028 30D0     		beq	.L150
 2574              	.L140:
 2575              		.loc 1 481 3 discriminator 1 view .LVU582
 2576              		.loc 1 483 3 discriminator 1 view .LVU583
 2577              		.loc 1 483 3 discriminator 1 view .LVU584
 2578              		.loc 1 483 3 discriminator 1 view .LVU585
 2579 002a 94F82230 		ldrb	r3, [r4, #34]	@ zero_extendqisi2
 2580 002e 4BB3     		cbz	r3, .L151
 2581              	.L141:
 2582              		.loc 1 483 3 discriminator 5 view .LVU586
 2583              		.loc 1 485 3 discriminator 5 view .LVU587
 2584              		.loc 1 485 6 is_stmt 0 discriminator 5 view .LVU588
 2585 0030 94F82030 		ldrb	r3, [r4, #32]	@ zero_extendqisi2
 2586 0034 0F2B     		cmp	r3, #15
 2587 0036 06D0     		beq	.L142
 2588              		.loc 1 486 5 is_stmt 1 view .LVU589
 2589 0038 AB69     		ldr	r3, [r5, #24]
 2590              	.LVL183:
 2591              	.LBB473:
 2592              	.LBI473:
 2593              		.loc 2 637 20 view .LVU590
 2594              	.LBB474:
 2595              		.loc 2 639 3 view .LVU591
 2596              		.loc 2 639 19 is_stmt 0 view .LVU592
 2597 003a E26A     		ldr	r2, [r4, #44]
 2598              		.loc 2 639 14 view .LVU593
 2599 003c 1A60     		str	r2, [r3]
 2600              		.loc 2 640 3 is_stmt 1 view .LVU594
 2601              	.LBE474:
 2602              	.LBE473:
 2603              		.loc 1 487 5 is_stmt 0 view .LVU595
 2604 003e 0920     		movs	r0, #9
 2605              	.LBB476:
 2606              	.LBB475:
 2607              		.loc 2 640 15 view .LVU596
 2608 0040 E362     		str	r3, [r4, #44]
 2609              	.LVL184:
 2610              		.loc 2 640 15 view .LVU597
 2611              	.LBE475:
 2612              	.LBE476:
 2613              		.loc 1 487 5 is_stmt 1 view .LVU598
 2614 0042 FFF7FEFF 		bl	chSchGoSleepS
 2615              	.LVL185:
 2616              	.L142:
 2617              		.loc 1 489 3 view .LVU599
 2618              		.loc 1 489 7 is_stmt 0 view .LVU600
 2619 0046 A66A     		ldr	r6, [r4, #40]
 2620              	.LVL186:
 2621              		.loc 1 490 3 is_stmt 1 view .LVU601
 2622              	.LBB477:
ARM GAS  /tmp/ccJ6FnJD.s 			page 47


 2623              	.LBI477:
 2624              		.loc 3 358 20 view .LVU602
 2625              	.LBB478:
 2626              		.loc 3 360 3 view .LVU603
 2627 0048 FFF7FEFF 		bl	_dbg_check_unlock
 2628              	.LVL187:
 2629              		.loc 3 361 3 view .LVU604
 2630 004c FFF7FEFF 		bl	_stats_stop_measure_crit_thd
 2631              	.LVL188:
 2632              		.loc 3 367 3 view .LVU605
 2633              		.loc 3 367 3 view .LVU606
 2634              		.loc 3 367 3 view .LVU607
 2635 0050 2B68     		ldr	r3, [r5]
 2636 0052 AB42     		cmp	r3, r5
 2637 0054 04D0     		beq	.L143
 2638 0056 AA69     		ldr	r2, [r5, #24]
 2639 0058 9B68     		ldr	r3, [r3, #8]
 2640 005a 9268     		ldr	r2, [r2, #8]
 2641 005c 9A42     		cmp	r2, r3
 2642 005e 0DD3     		bcc	.L152
 2643              	.L143:
 2644              		.loc 3 367 3 view .LVU608
 2645              		.loc 3 371 3 view .LVU609
 2646              	.LBB479:
 2647              	.LBI479:
 2648              		.loc 4 458 20 view .LVU610
 2649              	.LBE479:
 2650              	.LBE478:
 2651              	.LBE477:
 2652              		.loc 4 461 3 view .LVU611
 2653              	.LVL189:
 2654              	.LBB485:
 2655              	.LBB483:
 2656              	.LBB482:
 2657              	.LBB480:
 2658              	.LBI480:
 2659              		.loc 5 544 57 view .LVU612
 2660              	.LBB481:
 2661              		.loc 5 546 3 view .LVU613
 2662 0060 0023     		movs	r3, #0
 2663              		.syntax unified
 2664              	@ 546 ".//ChibiOS//os/ext/CMSIS/include/core_cmFunc.h" 1
 2665 0062 83F31188 		MSR basepri, r3
 2666              	@ 0 "" 2
 2667              	.LVL190:
 2668              		.loc 5 546 3 is_stmt 0 view .LVU614
 2669              		.thumb
 2670              		.syntax unified
 2671              	.LBE481:
 2672              	.LBE480:
 2673              	.LBE482:
 2674              	.LBE483:
 2675              	.LBE485:
 2676              		.loc 1 494 3 is_stmt 1 view .LVU615
 2677 0066 2046     		mov	r0, r4
 2678 0068 FFF7FEFF 		bl	chThdRelease
 2679              	.LVL191:
ARM GAS  /tmp/ccJ6FnJD.s 			page 48


 2680              		.loc 1 497 3 view .LVU616
 2681              		.loc 1 498 1 is_stmt 0 view .LVU617
 2682 006c 0C4B     		ldr	r3, .L154
 2683 006e 1A68     		ldr	r2, [r3]
 2684 0070 019B     		ldr	r3, [sp, #4]
 2685 0072 5A40     		eors	r2, r3, r2
 2686 0074 12D1     		bne	.L153
 2687 0076 3046     		mov	r0, r6
 2688 0078 02B0     		add	sp, sp, #8
 2689              		.cfi_remember_state
 2690              		.cfi_def_cfa_offset 16
 2691              		@ sp needed
 2692 007a 70BD     		pop	{r4, r5, r6, pc}
 2693              	.LVL192:
 2694              	.L152:
 2695              		.cfi_restore_state
 2696              	.LBB486:
 2697              	.LBB484:
 2698              		.loc 3 367 3 is_stmt 1 view .LVU618
 2699 007c 0A48     		ldr	r0, .L154+8
 2700 007e FFF7FEFF 		bl	chSysHalt
 2701              	.LVL193:
 2702 0082 EDE7     		b	.L143
 2703              	.LVL194:
 2704              	.L151:
 2705              		.loc 3 367 3 is_stmt 0 view .LVU619
 2706              	.LBE484:
 2707              	.LBE486:
 2708              		.loc 1 483 3 is_stmt 1 discriminator 3 view .LVU620
 2709 0084 0948     		ldr	r0, .L154+12
 2710 0086 FFF7FEFF 		bl	chSysHalt
 2711              	.LVL195:
 2712 008a D1E7     		b	.L141
 2713              	.L150:
 2714              		.loc 1 481 3 discriminator 3 view .LVU621
 2715 008c 0748     		ldr	r0, .L154+12
 2716 008e FFF7FEFF 		bl	chSysHalt
 2717              	.LVL196:
 2718 0092 CAE7     		b	.L140
 2719              	.LVL197:
 2720              	.L149:
 2721              		.loc 1 478 3 discriminator 3 view .LVU622
 2722 0094 0548     		ldr	r0, .L154+12
 2723              	.LVL198:
 2724              		.loc 1 478 3 is_stmt 0 discriminator 3 view .LVU623
 2725 0096 FFF7FEFF 		bl	chSysHalt
 2726              	.LVL199:
 2727 009a BBE7     		b	.L139
 2728              	.LVL200:
 2729              	.L153:
 2730              		.loc 1 498 1 view .LVU624
 2731 009c FFF7FEFF 		bl	__stack_chk_fail
 2732              	.LVL201:
 2733              	.L155:
 2734              		.align	2
 2735              	.L154:
 2736 00a0 00000000 		.word	.LC13
ARM GAS  /tmp/ccJ6FnJD.s 			page 49


 2737 00a4 00000000 		.word	ch
 2738 00a8 00000000 		.word	.LANCHOR1
 2739 00ac 00000000 		.word	.LANCHOR6
 2740              		.cfi_endproc
 2741              	.LFE232:
 2742              		.size	chThdWait, .-chThdWait
 2743              		.section	.rodata.chThdSuspendS.cst4,"aM",%progbits,4
 2744              		.align	2
 2745              	.LC14:
 2746 0000 00000000 		.word	__stack_chk_guard
 2747              		.section	.text.chThdSuspendS,"ax",%progbits
 2748              		.align	1
 2749              		.p2align 4,,15
 2750              		.global	chThdSuspendS
 2751              		.syntax unified
 2752              		.thumb
 2753              		.thumb_func
 2754              		.fpu fpv4-sp-d16
 2755              		.type	chThdSuspendS, %function
 2756              	chThdSuspendS:
 2757              	.LVL202:
 2758              	.LFB233:
 2759              		.loc 1 511 46 is_stmt 1 view -0
 2760              		.cfi_startproc
 2761              		@ args = 0, pretend = 0, frame = 8
 2762              		@ frame_needed = 0, uses_anonymous_args = 0
 2763              		.loc 1 511 46 is_stmt 0 view .LVU626
 2764 0000 70B5     		push	{r4, r5, r6, lr}
 2765              		.cfi_def_cfa_offset 16
 2766              		.cfi_offset 4, -16
 2767              		.cfi_offset 5, -12
 2768              		.cfi_offset 6, -8
 2769              		.cfi_offset 14, -4
 2770 0002 0F4A     		ldr	r2, .L164
 2771              	.LBB487:
 2772              	.LBB488:
 2773              		.loc 6 176 18 view .LVU627
 2774 0004 0F4D     		ldr	r5, .L164+4
 2775              	.LBE488:
 2776              	.LBE487:
 2777              		.loc 1 514 3 view .LVU628
 2778 0006 0368     		ldr	r3, [r0]
 2779              	.LBB491:
 2780              	.LBB489:
 2781              		.loc 6 176 18 view .LVU629
 2782 0008 AE69     		ldr	r6, [r5, #24]
 2783              	.LBE489:
 2784              	.LBE491:
 2785              		.loc 1 511 46 view .LVU630
 2786 000a 82B0     		sub	sp, sp, #8
 2787              		.cfi_def_cfa_offset 24
 2788              		.loc 1 511 46 view .LVU631
 2789 000c 0446     		mov	r4, r0
 2790 000e 1268     		ldr	r2, [r2]
 2791 0010 0192     		str	r2, [sp, #4]
 2792 0012 4FF00002 		mov	r2,#0
 2793              		.loc 1 512 3 is_stmt 1 view .LVU632
ARM GAS  /tmp/ccJ6FnJD.s 			page 50


 2794              	.LBB492:
 2795              	.LBI487:
 2796              		.loc 6 174 25 view .LVU633
 2797              	.LBB490:
 2798              		.loc 6 176 3 view .LVU634
 2799              	.LVL203:
 2800              		.loc 6 176 3 is_stmt 0 view .LVU635
 2801              	.LBE490:
 2802              	.LBE492:
 2803              		.loc 1 514 3 is_stmt 1 view .LVU636
 2804              		.loc 1 514 3 view .LVU637
 2805              		.loc 1 514 3 view .LVU638
 2806 0016 13B1     		cbz	r3, .L157
 2807              		.loc 1 514 3 discriminator 3 view .LVU639
 2808 0018 0B48     		ldr	r0, .L164+8
 2809              	.LVL204:
 2810              		.loc 1 514 3 is_stmt 0 discriminator 3 view .LVU640
 2811 001a FFF7FEFF 		bl	chSysHalt
 2812              	.LVL205:
 2813              	.L157:
 2814              		.loc 1 514 3 is_stmt 1 discriminator 5 view .LVU641
 2815              		.loc 1 516 3 discriminator 5 view .LVU642
 2816              		.loc 1 516 8 is_stmt 0 discriminator 5 view .LVU643
 2817 001e 2660     		str	r6, [r4]
 2818              		.loc 1 517 3 is_stmt 1 discriminator 5 view .LVU644
 2819              		.loc 1 518 3 is_stmt 0 discriminator 5 view .LVU645
 2820 0020 0320     		movs	r0, #3
 2821              		.loc 1 517 17 discriminator 5 view .LVU646
 2822 0022 B462     		str	r4, [r6, #40]
 2823              		.loc 1 518 3 is_stmt 1 discriminator 5 view .LVU647
 2824 0024 FFF7FEFF 		bl	chSchGoSleepS
 2825              	.LVL206:
 2826              		.loc 1 520 3 discriminator 5 view .LVU648
 2827              	.LBB493:
 2828              	.LBI493:
 2829              		.loc 6 174 25 discriminator 5 view .LVU649
 2830              	.LBB494:
 2831              		.loc 6 176 3 discriminator 5 view .LVU650
 2832              	.LBE494:
 2833              	.LBE493:
 2834              		.loc 1 520 30 is_stmt 0 discriminator 5 view .LVU651
 2835 0028 AB69     		ldr	r3, [r5, #24]
 2836 002a 986A     		ldr	r0, [r3, #40]
 2837              		.loc 1 521 1 discriminator 5 view .LVU652
 2838 002c 044B     		ldr	r3, .L164
 2839 002e 1A68     		ldr	r2, [r3]
 2840 0030 019B     		ldr	r3, [sp, #4]
 2841 0032 5A40     		eors	r2, r3, r2
 2842 0034 01D1     		bne	.L163
 2843              		.loc 1 521 1 view .LVU653
 2844 0036 02B0     		add	sp, sp, #8
 2845              		.cfi_remember_state
 2846              		.cfi_def_cfa_offset 16
 2847              		@ sp needed
 2848 0038 70BD     		pop	{r4, r5, r6, pc}
 2849              	.LVL207:
 2850              	.L163:
ARM GAS  /tmp/ccJ6FnJD.s 			page 51


 2851              		.cfi_restore_state
 2852              		.loc 1 521 1 view .LVU654
 2853 003a FFF7FEFF 		bl	__stack_chk_fail
 2854              	.LVL208:
 2855              	.L165:
 2856 003e 00BF     		.align	2
 2857              	.L164:
 2858 0040 00000000 		.word	.LC14
 2859 0044 00000000 		.word	ch
 2860 0048 00000000 		.word	.LANCHOR7
 2861              		.cfi_endproc
 2862              	.LFE233:
 2863              		.size	chThdSuspendS, .-chThdSuspendS
 2864              		.section	.rodata.chThdSuspendTimeoutS.cst4,"aM",%progbits,4
 2865              		.align	2
 2866              	.LC15:
 2867 0000 00000000 		.word	__stack_chk_guard
 2868              		.section	.text.chThdSuspendTimeoutS,"ax",%progbits
 2869              		.align	1
 2870              		.p2align 4,,15
 2871              		.global	chThdSuspendTimeoutS
 2872              		.syntax unified
 2873              		.thumb
 2874              		.thumb_func
 2875              		.fpu fpv4-sp-d16
 2876              		.type	chThdSuspendTimeoutS, %function
 2877              	chThdSuspendTimeoutS:
 2878              	.LVL209:
 2879              	.LFB234:
 2880              		.loc 1 542 72 is_stmt 1 view -0
 2881              		.cfi_startproc
 2882              		@ args = 0, pretend = 0, frame = 8
 2883              		@ frame_needed = 0, uses_anonymous_args = 0
 2884              		.loc 1 542 72 is_stmt 0 view .LVU656
 2885 0000 70B5     		push	{r4, r5, r6, lr}
 2886              		.cfi_def_cfa_offset 16
 2887              		.cfi_offset 4, -16
 2888              		.cfi_offset 5, -12
 2889              		.cfi_offset 6, -8
 2890              		.cfi_offset 14, -4
 2891              	.LBB495:
 2892              	.LBB496:
 2893              		.loc 6 176 18 view .LVU657
 2894 0002 144A     		ldr	r2, .L176
 2895              	.LBE496:
 2896              	.LBE495:
 2897              		.loc 1 545 3 view .LVU658
 2898 0004 0368     		ldr	r3, [r0]
 2899              	.LBB499:
 2900              	.LBB497:
 2901              		.loc 6 176 18 view .LVU659
 2902 0006 9669     		ldr	r6, [r2, #24]
 2903              	.LBE497:
 2904              	.LBE499:
 2905              		.loc 1 542 72 view .LVU660
 2906 0008 0446     		mov	r4, r0
 2907 000a 1348     		ldr	r0, .L176+4
ARM GAS  /tmp/ccJ6FnJD.s 			page 52


 2908              	.LVL210:
 2909              		.loc 1 542 72 view .LVU661
 2910 000c 82B0     		sub	sp, sp, #8
 2911              		.cfi_def_cfa_offset 24
 2912              		.loc 1 542 72 view .LVU662
 2913 000e 0068     		ldr	r0, [r0]
 2914 0010 0190     		str	r0, [sp, #4]
 2915 0012 4FF00000 		mov	r0,#0
 2916              		.loc 1 543 3 is_stmt 1 view .LVU663
 2917              	.LBB500:
 2918              	.LBI495:
 2919              		.loc 6 174 25 view .LVU664
 2920              	.LBB498:
 2921              		.loc 6 176 3 view .LVU665
 2922              	.LVL211:
 2923              		.loc 6 176 3 is_stmt 0 view .LVU666
 2924              	.LBE498:
 2925              	.LBE500:
 2926              		.loc 1 545 3 is_stmt 1 view .LVU667
 2927              		.loc 1 545 3 view .LVU668
 2928              		.loc 1 545 3 view .LVU669
 2929              		.loc 1 542 72 is_stmt 0 view .LVU670
 2930 0016 0D46     		mov	r5, r1
 2931              		.loc 1 545 3 view .LVU671
 2932 0018 13B1     		cbz	r3, .L167
 2933              		.loc 1 545 3 is_stmt 1 discriminator 3 view .LVU672
 2934 001a 1048     		ldr	r0, .L176+8
 2935 001c FFF7FEFF 		bl	chSysHalt
 2936              	.LVL212:
 2937              	.L167:
 2938              		.loc 1 545 3 discriminator 5 view .LVU673
 2939              		.loc 1 547 3 discriminator 5 view .LVU674
 2940              		.loc 1 547 6 is_stmt 0 discriminator 5 view .LVU675
 2941 0020 6DB1     		cbz	r5, .L168
 2942              		.loc 1 551 3 is_stmt 1 view .LVU676
 2943              		.loc 1 554 10 is_stmt 0 view .LVU677
 2944 0022 0D4B     		ldr	r3, .L176+4
 2945              		.loc 1 551 8 view .LVU678
 2946 0024 2660     		str	r6, [r4]
 2947              		.loc 1 552 3 is_stmt 1 view .LVU679
 2948              		.loc 1 552 17 is_stmt 0 view .LVU680
 2949 0026 B462     		str	r4, [r6, #40]
 2950              		.loc 1 554 3 is_stmt 1 view .LVU681
 2951              		.loc 1 554 10 is_stmt 0 view .LVU682
 2952 0028 1A68     		ldr	r2, [r3]
 2953 002a 019B     		ldr	r3, [sp, #4]
 2954 002c 5A40     		eors	r2, r3, r2
 2955 002e 0FD1     		bne	.L175
 2956              		.loc 1 554 10 view .LVU683
 2957 0030 2946     		mov	r1, r5
 2958 0032 0320     		movs	r0, #3
 2959              		.loc 1 555 1 view .LVU684
 2960 0034 02B0     		add	sp, sp, #8
 2961              		.cfi_remember_state
 2962              		.cfi_def_cfa_offset 16
 2963              		@ sp needed
 2964 0036 BDE87040 		pop	{r4, r5, r6, lr}
ARM GAS  /tmp/ccJ6FnJD.s 			page 53


 2965              		.cfi_restore 14
 2966              		.cfi_restore 6
 2967              		.cfi_restore 5
 2968              		.cfi_restore 4
 2969              		.cfi_def_cfa_offset 0
 2970              	.LVL213:
 2971              		.loc 1 554 10 view .LVU685
 2972 003a FFF7FEBF 		b	chSchGoSleepTimeoutS
 2973              	.LVL214:
 2974              	.L168:
 2975              		.cfi_restore_state
 2976              		.loc 1 555 1 view .LVU686
 2977 003e 064B     		ldr	r3, .L176+4
 2978 0040 1A68     		ldr	r2, [r3]
 2979 0042 019B     		ldr	r3, [sp, #4]
 2980 0044 5A40     		eors	r2, r3, r2
 2981 0046 03D1     		bne	.L175
 2982 0048 4FF0FF30 		mov	r0, #-1
 2983 004c 02B0     		add	sp, sp, #8
 2984              		.cfi_remember_state
 2985              		.cfi_def_cfa_offset 16
 2986              		@ sp needed
 2987 004e 70BD     		pop	{r4, r5, r6, pc}
 2988              	.LVL215:
 2989              	.L175:
 2990              		.cfi_restore_state
 2991              		.loc 1 555 1 view .LVU687
 2992 0050 FFF7FEFF 		bl	__stack_chk_fail
 2993              	.LVL216:
 2994              	.L177:
 2995              		.align	2
 2996              	.L176:
 2997 0054 00000000 		.word	ch
 2998 0058 00000000 		.word	.LC15
 2999 005c 00000000 		.word	.LANCHOR8
 3000              		.cfi_endproc
 3001              	.LFE234:
 3002              		.size	chThdSuspendTimeoutS, .-chThdSuspendTimeoutS
 3003              		.section	.rodata.chThdResumeI.cst4,"aM",%progbits,4
 3004              		.align	2
 3005              	.LC16:
 3006 0000 00000000 		.word	__stack_chk_guard
 3007              		.section	.text.chThdResumeI,"ax",%progbits
 3008              		.align	1
 3009              		.p2align 4,,15
 3010              		.global	chThdResumeI
 3011              		.syntax unified
 3012              		.thumb
 3013              		.thumb_func
 3014              		.fpu fpv4-sp-d16
 3015              		.type	chThdResumeI, %function
 3016              	chThdResumeI:
 3017              	.LVL217:
 3018              	.LFB235:
 3019              		.loc 1 567 55 is_stmt 1 view -0
 3020              		.cfi_startproc
 3021              		@ args = 0, pretend = 0, frame = 8
ARM GAS  /tmp/ccJ6FnJD.s 			page 54


 3022              		@ frame_needed = 0, uses_anonymous_args = 0
 3023              		.loc 1 567 55 is_stmt 0 view .LVU689
 3024 0000 70B5     		push	{r4, r5, r6, lr}
 3025              		.cfi_def_cfa_offset 16
 3026              		.cfi_offset 4, -16
 3027              		.cfi_offset 5, -12
 3028              		.cfi_offset 6, -8
 3029              		.cfi_offset 14, -4
 3030 0002 144B     		ldr	r3, .L189
 3031              		.loc 1 569 7 view .LVU690
 3032 0004 0568     		ldr	r5, [r0]
 3033              		.loc 1 567 55 view .LVU691
 3034 0006 82B0     		sub	sp, sp, #8
 3035              		.cfi_def_cfa_offset 24
 3036              		.loc 1 567 55 view .LVU692
 3037 0008 1B68     		ldr	r3, [r3]
 3038 000a 0193     		str	r3, [sp, #4]
 3039 000c 4FF00003 		mov	r3,#0
 3040              		.loc 1 569 3 is_stmt 1 view .LVU693
 3041              		.loc 1 569 6 is_stmt 0 view .LVU694
 3042 0010 BDB1     		cbz	r5, .L178
 3043              	.LBB501:
 3044              		.loc 1 572 5 view .LVU695
 3045 0012 95F82030 		ldrb	r3, [r5, #32]	@ zero_extendqisi2
 3046 0016 032B     		cmp	r3, #3
 3047 0018 0446     		mov	r4, r0
 3048 001a 0E46     		mov	r6, r1
 3049              		.loc 1 570 5 is_stmt 1 view .LVU696
 3050              	.LVL218:
 3051              		.loc 1 572 5 view .LVU697
 3052              		.loc 1 572 5 view .LVU698
 3053              		.loc 1 572 5 view .LVU699
 3054 001c 0DD1     		bne	.L188
 3055              	.LVL219:
 3056              	.L180:
 3057              		.loc 1 572 5 discriminator 5 view .LVU700
 3058              		.loc 1 575 5 discriminator 5 view .LVU701
 3059              		.loc 1 575 10 is_stmt 0 discriminator 5 view .LVU702
 3060 001e 0023     		movs	r3, #0
 3061 0020 2360     		str	r3, [r4]
 3062              		.loc 1 576 5 is_stmt 1 discriminator 5 view .LVU703
 3063              		.loc 1 577 12 is_stmt 0 discriminator 5 view .LVU704
 3064 0022 0C4B     		ldr	r3, .L189
 3065              		.loc 1 576 20 discriminator 5 view .LVU705
 3066 0024 AE62     		str	r6, [r5, #40]
 3067              		.loc 1 577 5 is_stmt 1 discriminator 5 view .LVU706
 3068              		.loc 1 577 12 is_stmt 0 discriminator 5 view .LVU707
 3069 0026 1A68     		ldr	r2, [r3]
 3070 0028 019B     		ldr	r3, [sp, #4]
 3071 002a 5A40     		eors	r2, r3, r2
 3072 002c 10D1     		bne	.L187
 3073              		.loc 1 577 12 discriminator 5 view .LVU708
 3074 002e 2846     		mov	r0, r5
 3075              	.LBE501:
 3076              		.loc 1 579 1 discriminator 5 view .LVU709
 3077 0030 02B0     		add	sp, sp, #8
 3078              		.cfi_remember_state
ARM GAS  /tmp/ccJ6FnJD.s 			page 55


 3079              		.cfi_def_cfa_offset 16
 3080              		@ sp needed
 3081 0032 BDE87040 		pop	{r4, r5, r6, lr}
 3082              		.cfi_restore 14
 3083              		.cfi_restore 6
 3084              		.cfi_restore 5
 3085              		.cfi_restore 4
 3086              		.cfi_def_cfa_offset 0
 3087              	.LVL220:
 3088              	.LBB502:
 3089              		.loc 1 577 12 discriminator 5 view .LVU710
 3090 0036 FFF7FEBF 		b	chSchReadyI
 3091              	.LVL221:
 3092              	.L188:
 3093              		.cfi_restore_state
 3094              		.loc 1 572 5 is_stmt 1 discriminator 3 view .LVU711
 3095 003a 0748     		ldr	r0, .L189+4
 3096              	.LVL222:
 3097              		.loc 1 572 5 is_stmt 0 discriminator 3 view .LVU712
 3098 003c FFF7FEFF 		bl	chSysHalt
 3099              	.LVL223:
 3100              		.loc 1 572 5 discriminator 3 view .LVU713
 3101 0040 EDE7     		b	.L180
 3102              	.LVL224:
 3103              	.L178:
 3104              		.loc 1 572 5 discriminator 3 view .LVU714
 3105              	.LBE502:
 3106              		.loc 1 579 1 view .LVU715
 3107 0042 044B     		ldr	r3, .L189
 3108 0044 1A68     		ldr	r2, [r3]
 3109 0046 019B     		ldr	r3, [sp, #4]
 3110 0048 5A40     		eors	r2, r3, r2
 3111 004a 01D1     		bne	.L187
 3112 004c 02B0     		add	sp, sp, #8
 3113              		.cfi_remember_state
 3114              		.cfi_def_cfa_offset 16
 3115              		@ sp needed
 3116 004e 70BD     		pop	{r4, r5, r6, pc}
 3117              	.LVL225:
 3118              	.L187:
 3119              		.cfi_restore_state
 3120              		.loc 1 579 1 view .LVU716
 3121 0050 FFF7FEFF 		bl	__stack_chk_fail
 3122              	.LVL226:
 3123              	.L190:
 3124              		.align	2
 3125              	.L189:
 3126 0054 00000000 		.word	.LC16
 3127 0058 00000000 		.word	.LANCHOR9
 3128              		.cfi_endproc
 3129              	.LFE235:
 3130              		.size	chThdResumeI, .-chThdResumeI
 3131              		.section	.rodata.chThdResumeS.cst4,"aM",%progbits,4
 3132              		.align	2
 3133              	.LC17:
 3134 0000 00000000 		.word	__stack_chk_guard
 3135              		.section	.text.chThdResumeS,"ax",%progbits
ARM GAS  /tmp/ccJ6FnJD.s 			page 56


 3136              		.align	1
 3137              		.p2align 4,,15
 3138              		.global	chThdResumeS
 3139              		.syntax unified
 3140              		.thumb
 3141              		.thumb_func
 3142              		.fpu fpv4-sp-d16
 3143              		.type	chThdResumeS, %function
 3144              	chThdResumeS:
 3145              	.LVL227:
 3146              	.LFB236:
 3147              		.loc 1 591 55 is_stmt 1 view -0
 3148              		.cfi_startproc
 3149              		@ args = 0, pretend = 0, frame = 8
 3150              		@ frame_needed = 0, uses_anonymous_args = 0
 3151              		.loc 1 591 55 is_stmt 0 view .LVU718
 3152 0000 70B5     		push	{r4, r5, r6, lr}
 3153              		.cfi_def_cfa_offset 16
 3154              		.cfi_offset 4, -16
 3155              		.cfi_offset 5, -12
 3156              		.cfi_offset 6, -8
 3157              		.cfi_offset 14, -4
 3158 0002 144B     		ldr	r3, .L202
 3159              		.loc 1 593 7 view .LVU719
 3160 0004 0668     		ldr	r6, [r0]
 3161              		.loc 1 591 55 view .LVU720
 3162 0006 82B0     		sub	sp, sp, #8
 3163              		.cfi_def_cfa_offset 24
 3164              		.loc 1 591 55 view .LVU721
 3165 0008 1B68     		ldr	r3, [r3]
 3166 000a 0193     		str	r3, [sp, #4]
 3167 000c 4FF00003 		mov	r3,#0
 3168              		.loc 1 593 3 is_stmt 1 view .LVU722
 3169              		.loc 1 593 6 is_stmt 0 view .LVU723
 3170 0010 BEB1     		cbz	r6, .L191
 3171              	.LBB503:
 3172              		.loc 1 596 5 view .LVU724
 3173 0012 96F82030 		ldrb	r3, [r6, #32]	@ zero_extendqisi2
 3174 0016 032B     		cmp	r3, #3
 3175 0018 0446     		mov	r4, r0
 3176 001a 0D46     		mov	r5, r1
 3177              		.loc 1 594 5 is_stmt 1 view .LVU725
 3178              	.LVL228:
 3179              		.loc 1 596 5 view .LVU726
 3180              		.loc 1 596 5 view .LVU727
 3181              		.loc 1 596 5 view .LVU728
 3182 001c 0DD1     		bne	.L201
 3183              	.LVL229:
 3184              	.L193:
 3185              		.loc 1 596 5 discriminator 5 view .LVU729
 3186              		.loc 1 599 5 discriminator 5 view .LVU730
 3187              		.loc 1 599 10 is_stmt 0 discriminator 5 view .LVU731
 3188 001e 0023     		movs	r3, #0
 3189 0020 2360     		str	r3, [r4]
 3190              		.loc 1 600 5 is_stmt 1 discriminator 5 view .LVU732
 3191 0022 0C4B     		ldr	r3, .L202
 3192 0024 1A68     		ldr	r2, [r3]
ARM GAS  /tmp/ccJ6FnJD.s 			page 57


 3193 0026 019B     		ldr	r3, [sp, #4]
 3194 0028 5A40     		eors	r2, r3, r2
 3195 002a 11D1     		bne	.L200
 3196 002c 2946     		mov	r1, r5
 3197 002e 3046     		mov	r0, r6
 3198              	.LBE503:
 3199              		.loc 1 602 1 is_stmt 0 discriminator 5 view .LVU733
 3200 0030 02B0     		add	sp, sp, #8
 3201              		.cfi_remember_state
 3202              		.cfi_def_cfa_offset 16
 3203              		@ sp needed
 3204 0032 BDE87040 		pop	{r4, r5, r6, lr}
 3205              		.cfi_restore 14
 3206              		.cfi_restore 6
 3207              		.cfi_restore 5
 3208              		.cfi_restore 4
 3209              		.cfi_def_cfa_offset 0
 3210              	.LVL230:
 3211              	.LBB504:
 3212              		.loc 1 600 5 discriminator 5 view .LVU734
 3213 0036 FFF7FEBF 		b	chSchWakeupS
 3214              	.LVL231:
 3215              	.L201:
 3216              		.cfi_restore_state
 3217              		.loc 1 596 5 is_stmt 1 discriminator 3 view .LVU735
 3218 003a 0748     		ldr	r0, .L202+4
 3219              	.LVL232:
 3220              		.loc 1 596 5 is_stmt 0 discriminator 3 view .LVU736
 3221 003c FFF7FEFF 		bl	chSysHalt
 3222              	.LVL233:
 3223              		.loc 1 596 5 discriminator 3 view .LVU737
 3224 0040 EDE7     		b	.L193
 3225              	.LVL234:
 3226              	.L191:
 3227              		.loc 1 596 5 discriminator 3 view .LVU738
 3228              	.LBE504:
 3229              		.loc 1 602 1 view .LVU739
 3230 0042 044B     		ldr	r3, .L202
 3231 0044 1A68     		ldr	r2, [r3]
 3232 0046 019B     		ldr	r3, [sp, #4]
 3233 0048 5A40     		eors	r2, r3, r2
 3234 004a 01D1     		bne	.L200
 3235 004c 02B0     		add	sp, sp, #8
 3236              		.cfi_remember_state
 3237              		.cfi_def_cfa_offset 16
 3238              		@ sp needed
 3239 004e 70BD     		pop	{r4, r5, r6, pc}
 3240              	.LVL235:
 3241              	.L200:
 3242              		.cfi_restore_state
 3243              		.loc 1 602 1 view .LVU740
 3244 0050 FFF7FEFF 		bl	__stack_chk_fail
 3245              	.LVL236:
 3246              	.L203:
 3247              		.align	2
 3248              	.L202:
 3249 0054 00000000 		.word	.LC17
ARM GAS  /tmp/ccJ6FnJD.s 			page 58


 3250 0058 00000000 		.word	.LANCHOR10
 3251              		.cfi_endproc
 3252              	.LFE236:
 3253              		.size	chThdResumeS, .-chThdResumeS
 3254              		.section	.rodata.chThdResume.cst4,"aM",%progbits,4
 3255              		.align	2
 3256              	.LC18:
 3257 0000 00000000 		.word	__stack_chk_guard
 3258              		.section	.text.chThdResume,"ax",%progbits
 3259              		.align	1
 3260              		.p2align 4,,15
 3261              		.global	chThdResume
 3262              		.syntax unified
 3263              		.thumb
 3264              		.thumb_func
 3265              		.fpu fpv4-sp-d16
 3266              		.type	chThdResume, %function
 3267              	chThdResume:
 3268              	.LVL237:
 3269              	.LFB237:
 3270              		.loc 1 614 54 is_stmt 1 view -0
 3271              		.cfi_startproc
 3272              		@ args = 0, pretend = 0, frame = 16
 3273              		@ frame_needed = 0, uses_anonymous_args = 0
 3274              		.loc 1 614 54 is_stmt 0 view .LVU742
 3275 0000 00B5     		push	{lr}
 3276              		.cfi_def_cfa_offset 4
 3277              		.cfi_offset 14, -4
 3278 0002 85B0     		sub	sp, sp, #20
 3279              		.cfi_def_cfa_offset 24
 3280              		.loc 1 614 54 view .LVU743
 3281 0004 CDE90010 		strd	r1, r0, [sp]
 3282 0008 164B     		ldr	r3, .L210
 3283 000a 1B68     		ldr	r3, [r3]
 3284 000c 0393     		str	r3, [sp, #12]
 3285 000e 4FF00003 		mov	r3,#0
 3286              		.loc 1 616 3 is_stmt 1 view .LVU744
 3287              	.LBB515:
 3288              	.LBI515:
 3289              		.loc 3 346 20 view .LVU745
 3290              	.LBB516:
 3291              		.loc 3 348 3 view .LVU746
 3292              	.LBB517:
 3293              	.LBI517:
 3294              		.loc 4 444 20 view .LVU747
 3295              	.LBE517:
 3296              	.LBE516:
 3297              	.LBE515:
 3298              		.loc 4 447 3 view .LVU748
 3299              	.LVL238:
 3300              	.LBB522:
 3301              	.LBB521:
 3302              	.LBB520:
 3303              	.LBB518:
 3304              	.LBI518:
 3305              		.loc 5 544 57 view .LVU749
 3306              	.LBB519:
ARM GAS  /tmp/ccJ6FnJD.s 			page 59


 3307              		.loc 5 546 3 view .LVU750
 3308 0012 2023     		movs	r3, #32
 3309              		.syntax unified
 3310              	@ 546 ".//ChibiOS//os/ext/CMSIS/include/core_cmFunc.h" 1
 3311 0014 83F31188 		MSR basepri, r3
 3312              	@ 0 "" 2
 3313              	.LVL239:
 3314              		.loc 5 546 3 is_stmt 0 view .LVU751
 3315              		.thumb
 3316              		.syntax unified
 3317              	.LBE519:
 3318              	.LBE518:
 3319              	.LBE520:
 3320              		.loc 3 349 3 is_stmt 1 view .LVU752
 3321 0018 FFF7FEFF 		bl	_stats_start_measure_crit_thd
 3322              	.LVL240:
 3323              		.loc 3 350 3 view .LVU753
 3324 001c FFF7FEFF 		bl	_dbg_check_lock
 3325              	.LVL241:
 3326              	.LBE521:
 3327              	.LBE522:
 3328              		.loc 1 617 3 view .LVU754
 3329 0020 DDE90010 		ldrd	r1, r0, [sp]
 3330 0024 FFF7FEFF 		bl	chThdResumeS
 3331              	.LVL242:
 3332              		.loc 1 618 3 view .LVU755
 3333              	.LBB523:
 3334              	.LBI523:
 3335              		.loc 3 358 20 view .LVU756
 3336              	.LBB524:
 3337              		.loc 3 360 3 view .LVU757
 3338 0028 FFF7FEFF 		bl	_dbg_check_unlock
 3339              	.LVL243:
 3340              		.loc 3 361 3 view .LVU758
 3341 002c FFF7FEFF 		bl	_stats_stop_measure_crit_thd
 3342              	.LVL244:
 3343              		.loc 3 367 3 view .LVU759
 3344              		.loc 3 367 3 view .LVU760
 3345              		.loc 3 367 3 view .LVU761
 3346 0030 0D4B     		ldr	r3, .L210+4
 3347 0032 1A68     		ldr	r2, [r3]
 3348 0034 9A42     		cmp	r2, r3
 3349 0036 04D0     		beq	.L205
 3350 0038 9969     		ldr	r1, [r3, #24]
 3351 003a 9368     		ldr	r3, [r2, #8]
 3352 003c 8A68     		ldr	r2, [r1, #8]
 3353 003e 9A42     		cmp	r2, r3
 3354 0040 0AD3     		bcc	.L208
 3355              	.L205:
 3356              		.loc 3 367 3 view .LVU762
 3357              		.loc 3 371 3 view .LVU763
 3358              	.LBB525:
 3359              	.LBI525:
 3360              		.loc 4 458 20 view .LVU764
 3361              	.LBE525:
 3362              	.LBE524:
 3363              	.LBE523:
ARM GAS  /tmp/ccJ6FnJD.s 			page 60


 3364              		.loc 4 461 3 view .LVU765
 3365              	.LVL245:
 3366              	.LBB531:
 3367              	.LBB529:
 3368              	.LBB528:
 3369              	.LBB526:
 3370              	.LBI526:
 3371              		.loc 5 544 57 view .LVU766
 3372              	.LBB527:
 3373              		.loc 5 546 3 view .LVU767
 3374 0042 0023     		movs	r3, #0
 3375              		.syntax unified
 3376              	@ 546 ".//ChibiOS//os/ext/CMSIS/include/core_cmFunc.h" 1
 3377 0044 83F31188 		MSR basepri, r3
 3378              	@ 0 "" 2
 3379              	.LVL246:
 3380              		.loc 5 546 3 is_stmt 0 view .LVU768
 3381              		.thumb
 3382              		.syntax unified
 3383              	.LBE527:
 3384              	.LBE526:
 3385              	.LBE528:
 3386              	.LBE529:
 3387              	.LBE531:
 3388              		.loc 1 619 1 view .LVU769
 3389 0048 064B     		ldr	r3, .L210
 3390 004a 1A68     		ldr	r2, [r3]
 3391 004c 039B     		ldr	r3, [sp, #12]
 3392 004e 5A40     		eors	r2, r3, r2
 3393 0050 06D1     		bne	.L209
 3394 0052 05B0     		add	sp, sp, #20
 3395              		.cfi_remember_state
 3396              		.cfi_def_cfa_offset 4
 3397              	.LVL247:
 3398              		.loc 1 619 1 view .LVU770
 3399              		@ sp needed
 3400 0054 5DF804FB 		ldr	pc, [sp], #4
 3401              	.LVL248:
 3402              	.L208:
 3403              		.cfi_restore_state
 3404              	.LBB532:
 3405              	.LBB530:
 3406              		.loc 3 367 3 is_stmt 1 view .LVU771
 3407 0058 0448     		ldr	r0, .L210+8
 3408 005a FFF7FEFF 		bl	chSysHalt
 3409              	.LVL249:
 3410 005e F0E7     		b	.L205
 3411              	.L209:
 3412              	.LBE530:
 3413              	.LBE532:
 3414              		.loc 1 619 1 is_stmt 0 view .LVU772
 3415 0060 FFF7FEFF 		bl	__stack_chk_fail
 3416              	.LVL250:
 3417              	.L211:
 3418              		.align	2
 3419              	.L210:
 3420 0064 00000000 		.word	.LC18
ARM GAS  /tmp/ccJ6FnJD.s 			page 61


 3421 0068 00000000 		.word	ch
 3422 006c 00000000 		.word	.LANCHOR1
 3423              		.cfi_endproc
 3424              	.LFE237:
 3425              		.size	chThdResume, .-chThdResume
 3426              		.section	.rodata.chThdEnqueueTimeoutS.cst4,"aM",%progbits,4
 3427              		.align	2
 3428              	.LC19:
 3429 0000 00000000 		.word	__stack_chk_guard
 3430              		.section	.text.chThdEnqueueTimeoutS,"ax",%progbits
 3431              		.align	1
 3432              		.p2align 4,,15
 3433              		.global	chThdEnqueueTimeoutS
 3434              		.syntax unified
 3435              		.thumb
 3436              		.thumb_func
 3437              		.fpu fpv4-sp-d16
 3438              		.type	chThdEnqueueTimeoutS, %function
 3439              	chThdEnqueueTimeoutS:
 3440              	.LVL251:
 3441              	.LFB238:
 3442              		.loc 1 644 69 is_stmt 1 view -0
 3443              		.cfi_startproc
 3444              		@ args = 0, pretend = 0, frame = 8
 3445              		@ frame_needed = 0, uses_anonymous_args = 0
 3446              		.loc 1 644 69 is_stmt 0 view .LVU774
 3447 0000 00B5     		push	{lr}
 3448              		.cfi_def_cfa_offset 4
 3449              		.cfi_offset 14, -4
 3450 0002 124B     		ldr	r3, .L218
 3451 0004 83B0     		sub	sp, sp, #12
 3452              		.cfi_def_cfa_offset 16
 3453              		.loc 1 644 69 view .LVU775
 3454 0006 1B68     		ldr	r3, [r3]
 3455 0008 0193     		str	r3, [sp, #4]
 3456 000a 4FF00003 		mov	r3,#0
 3457              		.loc 1 646 3 is_stmt 1 view .LVU776
 3458              		.loc 1 646 6 is_stmt 0 view .LVU777
 3459 000e 89B1     		cbz	r1, .L213
 3460              		.loc 1 650 3 is_stmt 1 view .LVU778
 3461 0010 0F4B     		ldr	r3, .L218+4
 3462 0012 9B69     		ldr	r3, [r3, #24]
 3463              	.LVL252:
 3464              	.LBB533:
 3465              	.LBI533:
 3466              		.loc 2 663 20 view .LVU779
 3467              	.LBB534:
 3468              		.loc 2 665 3 view .LVU780
 3469              		.loc 2 665 14 is_stmt 0 view .LVU781
 3470 0014 1860     		str	r0, [r3]
 3471              		.loc 2 666 3 is_stmt 1 view .LVU782
 3472              		.loc 2 666 19 is_stmt 0 view .LVU783
 3473 0016 4268     		ldr	r2, [r0, #4]
 3474              		.loc 2 666 14 view .LVU784
 3475 0018 5A60     		str	r2, [r3, #4]
 3476              		.loc 2 667 3 is_stmt 1 view .LVU785
 3477              		.loc 2 667 22 is_stmt 0 view .LVU786
ARM GAS  /tmp/ccJ6FnJD.s 			page 62


 3478 001a 1360     		str	r3, [r2]
 3479              		.loc 2 668 3 is_stmt 1 view .LVU787
 3480              		.loc 2 668 15 is_stmt 0 view .LVU788
 3481 001c 4360     		str	r3, [r0, #4]
 3482              	.LVL253:
 3483              		.loc 2 668 15 view .LVU789
 3484              	.LBE534:
 3485              	.LBE533:
 3486              		.loc 1 652 3 is_stmt 1 view .LVU790
 3487              		.loc 1 652 10 is_stmt 0 view .LVU791
 3488 001e 0B4B     		ldr	r3, .L218
 3489 0020 1A68     		ldr	r2, [r3]
 3490 0022 019B     		ldr	r3, [sp, #4]
 3491 0024 5A40     		eors	r2, r3, r2
 3492 0026 0FD1     		bne	.L217
 3493 0028 0420     		movs	r0, #4
 3494              	.LVL254:
 3495              		.loc 1 653 1 view .LVU792
 3496 002a 03B0     		add	sp, sp, #12
 3497              		.cfi_remember_state
 3498              		.cfi_def_cfa_offset 4
 3499              		@ sp needed
 3500 002c 5DF804EB 		ldr	lr, [sp], #4
 3501              		.cfi_restore 14
 3502              		.cfi_def_cfa_offset 0
 3503              		.loc 1 652 10 view .LVU793
 3504 0030 FFF7FEBF 		b	chSchGoSleepTimeoutS
 3505              	.LVL255:
 3506              	.L213:
 3507              		.cfi_restore_state
 3508              		.loc 1 653 1 view .LVU794
 3509 0034 054B     		ldr	r3, .L218
 3510 0036 1A68     		ldr	r2, [r3]
 3511 0038 019B     		ldr	r3, [sp, #4]
 3512 003a 5A40     		eors	r2, r3, r2
 3513 003c 04D1     		bne	.L217
 3514 003e 4FF0FF30 		mov	r0, #-1
 3515              	.LVL256:
 3516              		.loc 1 653 1 view .LVU795
 3517 0042 03B0     		add	sp, sp, #12
 3518              		.cfi_remember_state
 3519              		.cfi_def_cfa_offset 4
 3520              		@ sp needed
 3521 0044 5DF804FB 		ldr	pc, [sp], #4
 3522              	.LVL257:
 3523              	.L217:
 3524              		.cfi_restore_state
 3525              		.loc 1 653 1 view .LVU796
 3526 0048 FFF7FEFF 		bl	__stack_chk_fail
 3527              	.LVL258:
 3528              	.L219:
 3529              		.loc 1 653 1 view .LVU797
 3530              		.align	2
 3531              	.L218:
 3532 004c 00000000 		.word	.LC19
 3533 0050 00000000 		.word	ch
 3534              		.cfi_endproc
ARM GAS  /tmp/ccJ6FnJD.s 			page 63


 3535              	.LFE238:
 3536              		.size	chThdEnqueueTimeoutS, .-chThdEnqueueTimeoutS
 3537              		.section	.rodata.chThdDequeueNextI.cst4,"aM",%progbits,4
 3538              		.align	2
 3539              	.LC20:
 3540 0000 00000000 		.word	__stack_chk_guard
 3541              		.section	.text.chThdDequeueNextI,"ax",%progbits
 3542              		.align	1
 3543              		.p2align 4,,15
 3544              		.global	chThdDequeueNextI
 3545              		.syntax unified
 3546              		.thumb
 3547              		.thumb_func
 3548              		.fpu fpv4-sp-d16
 3549              		.type	chThdDequeueNextI, %function
 3550              	chThdDequeueNextI:
 3551              	.LVL259:
 3552              	.LFB239:
 3553              		.loc 1 664 57 is_stmt 1 view -0
 3554              		.cfi_startproc
 3555              		@ args = 0, pretend = 0, frame = 8
 3556              		@ frame_needed = 0, uses_anonymous_args = 0
 3557              		.loc 1 664 57 is_stmt 0 view .LVU799
 3558 0000 30B5     		push	{r4, r5, lr}
 3559              		.cfi_def_cfa_offset 12
 3560              		.cfi_offset 4, -12
 3561              		.cfi_offset 5, -8
 3562              		.cfi_offset 14, -4
 3563              	.LBB543:
 3564              	.LBB544:
 3565              		.loc 2 631 20 view .LVU800
 3566 0002 0468     		ldr	r4, [r0]
 3567              	.LBE544:
 3568              	.LBE543:
 3569              		.loc 1 664 57 view .LVU801
 3570 0004 144B     		ldr	r3, .L231
 3571 0006 83B0     		sub	sp, sp, #12
 3572              		.cfi_def_cfa_offset 24
 3573              		.loc 1 666 6 view .LVU802
 3574 0008 A042     		cmp	r0, r4
 3575              		.loc 1 664 57 view .LVU803
 3576 000a 1B68     		ldr	r3, [r3]
 3577 000c 0193     		str	r3, [sp, #4]
 3578 000e 4FF00003 		mov	r3,#0
 3579              		.loc 1 666 3 is_stmt 1 view .LVU804
 3580              	.LVL260:
 3581              	.LBB546:
 3582              	.LBI543:
 3583              		.loc 2 629 20 view .LVU805
 3584              	.LBB545:
 3585              		.loc 2 631 3 view .LVU806
 3586              		.loc 2 631 3 is_stmt 0 view .LVU807
 3587              	.LBE545:
 3588              	.LBE546:
 3589              		.loc 1 666 6 view .LVU808
 3590 0012 17D0     		beq	.L220
 3591              	.LBB547:
ARM GAS  /tmp/ccJ6FnJD.s 			page 64


 3592              	.LBB548:
 3593              	.LBB549:
 3594              	.LBB550:
 3595              		.loc 2 674 19 view .LVU809
 3596 0014 2368     		ldr	r3, [r4]
 3597              		.loc 2 674 15 view .LVU810
 3598 0016 0360     		str	r3, [r0]
 3599              		.loc 2 675 23 view .LVU811
 3600 0018 5860     		str	r0, [r3, #4]
 3601              	.LBE550:
 3602              	.LBE549:
 3603              		.loc 6 319 3 view .LVU812
 3604 001a 94F82030 		ldrb	r3, [r4, #32]	@ zero_extendqisi2
 3605 001e 042B     		cmp	r3, #4
 3606 0020 0D46     		mov	r5, r1
 3607              	.LBE548:
 3608              	.LBE547:
 3609              		.loc 1 667 5 is_stmt 1 view .LVU813
 3610              	.LVL261:
 3611              	.LBB556:
 3612              	.LBI547:
 3613              		.loc 6 312 20 view .LVU814
 3614              	.LBB553:
 3615              		.loc 6 313 3 view .LVU815
 3616              		.loc 6 315 3 view .LVU816
 3617              		.loc 6 315 3 view .LVU817
 3618              		.loc 6 315 3 view .LVU818
 3619              		.loc 6 315 3 is_stmt 0 view .LVU819
 3620              	.LBE553:
 3621              	.LBE556:
 3622              		.loc 2 631 3 is_stmt 1 view .LVU820
 3623              	.LBB557:
 3624              	.LBB554:
 3625              		.loc 6 315 3 view .LVU821
 3626              		.loc 6 317 3 view .LVU822
 3627              	.LBB552:
 3628              	.LBI549:
 3629              		.loc 2 671 25 view .LVU823
 3630              	.LBB551:
 3631              		.loc 2 672 3 view .LVU824
 3632              		.loc 2 674 3 view .LVU825
 3633              		.loc 2 675 3 view .LVU826
 3634              		.loc 2 677 3 view .LVU827
 3635              		.loc 2 677 3 is_stmt 0 view .LVU828
 3636              	.LBE551:
 3637              	.LBE552:
 3638              		.loc 6 319 3 is_stmt 1 view .LVU829
 3639              		.loc 6 319 3 view .LVU830
 3640              		.loc 6 319 3 view .LVU831
 3641 0022 0BD1     		bne	.L230
 3642              	.LVL262:
 3643              	.L222:
 3644              		.loc 6 319 3 view .LVU832
 3645              		.loc 6 321 3 view .LVU833
 3646              		.loc 6 322 10 is_stmt 0 view .LVU834
 3647 0024 0C4B     		ldr	r3, .L231
 3648              		.loc 6 321 18 view .LVU835
ARM GAS  /tmp/ccJ6FnJD.s 			page 65


 3649 0026 A562     		str	r5, [r4, #40]
 3650              		.loc 6 322 3 is_stmt 1 view .LVU836
 3651              		.loc 6 322 10 is_stmt 0 view .LVU837
 3652 0028 1A68     		ldr	r2, [r3]
 3653 002a 019B     		ldr	r3, [sp, #4]
 3654 002c 5A40     		eors	r2, r3, r2
 3655 002e 10D1     		bne	.L229
 3656              		.loc 6 322 10 view .LVU838
 3657 0030 2046     		mov	r0, r4
 3658              	.LBE554:
 3659              	.LBE557:
 3660              		.loc 1 669 1 view .LVU839
 3661 0032 03B0     		add	sp, sp, #12
 3662              		.cfi_remember_state
 3663              		.cfi_def_cfa_offset 12
 3664              		@ sp needed
 3665 0034 BDE83040 		pop	{r4, r5, lr}
 3666              		.cfi_restore 14
 3667              		.cfi_restore 5
 3668              		.cfi_restore 4
 3669              		.cfi_def_cfa_offset 0
 3670              	.LVL263:
 3671              	.LBB558:
 3672              	.LBB555:
 3673              		.loc 6 322 10 view .LVU840
 3674 0038 FFF7FEBF 		b	chSchReadyI
 3675              	.LVL264:
 3676              	.L230:
 3677              		.cfi_restore_state
 3678              		.loc 6 319 3 is_stmt 1 view .LVU841
 3679 003c 0748     		ldr	r0, .L231+4
 3680              	.LVL265:
 3681              		.loc 6 319 3 is_stmt 0 view .LVU842
 3682 003e FFF7FEFF 		bl	chSysHalt
 3683              	.LVL266:
 3684              		.loc 6 319 3 view .LVU843
 3685 0042 EFE7     		b	.L222
 3686              	.LVL267:
 3687              	.L220:
 3688              		.loc 6 319 3 view .LVU844
 3689              	.LBE555:
 3690              	.LBE558:
 3691              		.loc 1 669 1 view .LVU845
 3692 0044 044B     		ldr	r3, .L231
 3693 0046 1A68     		ldr	r2, [r3]
 3694 0048 019B     		ldr	r3, [sp, #4]
 3695 004a 5A40     		eors	r2, r3, r2
 3696 004c 01D1     		bne	.L229
 3697 004e 03B0     		add	sp, sp, #12
 3698              		.cfi_remember_state
 3699              		.cfi_def_cfa_offset 12
 3700              		@ sp needed
 3701 0050 30BD     		pop	{r4, r5, pc}
 3702              	.LVL268:
 3703              	.L229:
 3704              		.cfi_restore_state
 3705              		.loc 1 669 1 view .LVU846
ARM GAS  /tmp/ccJ6FnJD.s 			page 66


 3706 0052 FFF7FEFF 		bl	__stack_chk_fail
 3707              	.LVL269:
 3708              	.L232:
 3709 0056 00BF     		.align	2
 3710              	.L231:
 3711 0058 00000000 		.word	.LC20
 3712 005c 00000000 		.word	.LANCHOR11
 3713              		.cfi_endproc
 3714              	.LFE239:
 3715              		.size	chThdDequeueNextI, .-chThdDequeueNextI
 3716              		.section	.rodata.chThdDequeueAllI.cst4,"aM",%progbits,4
 3717              		.align	2
 3718              	.LC21:
 3719 0000 00000000 		.word	__stack_chk_guard
 3720              		.section	.text.chThdDequeueAllI,"ax",%progbits
 3721              		.align	1
 3722              		.p2align 4,,15
 3723              		.global	chThdDequeueAllI
 3724              		.syntax unified
 3725              		.thumb
 3726              		.thumb_func
 3727              		.fpu fpv4-sp-d16
 3728              		.type	chThdDequeueAllI, %function
 3729              	chThdDequeueAllI:
 3730              	.LVL270:
 3731              	.LFB240:
 3732              		.loc 1 679 56 is_stmt 1 view -0
 3733              		.cfi_startproc
 3734              		@ args = 0, pretend = 0, frame = 8
 3735              		@ frame_needed = 0, uses_anonymous_args = 0
 3736              		.loc 1 679 56 is_stmt 0 view .LVU848
 3737 0000 F0B5     		push	{r4, r5, r6, r7, lr}
 3738              		.cfi_def_cfa_offset 20
 3739              		.cfi_offset 4, -20
 3740              		.cfi_offset 5, -16
 3741              		.cfi_offset 6, -12
 3742              		.cfi_offset 7, -8
 3743              		.cfi_offset 14, -4
 3744              	.LBB567:
 3745              	.LBB568:
 3746              		.loc 2 631 20 view .LVU849
 3747 0002 0468     		ldr	r4, [r0]
 3748              	.LBE568:
 3749              	.LBE567:
 3750              		.loc 1 679 56 view .LVU850
 3751 0004 124B     		ldr	r3, .L244
 3752 0006 83B0     		sub	sp, sp, #12
 3753              		.cfi_def_cfa_offset 32
 3754              		.loc 1 681 9 view .LVU851
 3755 0008 A042     		cmp	r0, r4
 3756              		.loc 1 679 56 view .LVU852
 3757 000a 1B68     		ldr	r3, [r3]
 3758 000c 0193     		str	r3, [sp, #4]
 3759 000e 4FF00003 		mov	r3,#0
 3760              		.loc 1 681 3 is_stmt 1 view .LVU853
 3761              		.loc 1 681 9 view .LVU854
 3762              	.LVL271:
ARM GAS  /tmp/ccJ6FnJD.s 			page 67


 3763              	.LBB571:
 3764              	.LBI567:
 3765              		.loc 2 629 20 view .LVU855
 3766              	.LBB569:
 3767              		.loc 2 631 3 view .LVU856
 3768              		.loc 2 631 3 is_stmt 0 view .LVU857
 3769              	.LBE569:
 3770              	.LBE571:
 3771              		.loc 1 681 9 view .LVU858
 3772 0012 13D0     		beq	.L233
 3773              	.LBB572:
 3774              	.LBB573:
 3775              		.loc 6 319 3 view .LVU859
 3776 0014 0F4F     		ldr	r7, .L244+4
 3777 0016 0546     		mov	r5, r0
 3778 0018 0E46     		mov	r6, r1
 3779              	.LVL272:
 3780              	.L236:
 3781              		.loc 6 319 3 view .LVU860
 3782              	.LBE573:
 3783              	.LBE572:
 3784              		.loc 1 682 5 is_stmt 1 view .LVU861
 3785              	.LBB578:
 3786              	.LBI572:
 3787              		.loc 6 312 20 view .LVU862
 3788              	.LBB576:
 3789              		.loc 6 313 3 view .LVU863
 3790              		.loc 6 315 3 view .LVU864
 3791              		.loc 6 315 3 view .LVU865
 3792              		.loc 6 315 3 view .LVU866
 3793              		.loc 6 315 3 is_stmt 0 view .LVU867
 3794              	.LBE576:
 3795              	.LBE578:
 3796              		.loc 2 631 3 is_stmt 1 view .LVU868
 3797              	.LBB579:
 3798              	.LBB577:
 3799              		.loc 6 315 3 view .LVU869
 3800              		.loc 6 317 3 view .LVU870
 3801              	.LBB574:
 3802              	.LBI574:
 3803              		.loc 2 671 25 view .LVU871
 3804              	.LBB575:
 3805              		.loc 2 672 3 view .LVU872
 3806              		.loc 2 674 3 view .LVU873
 3807              		.loc 2 674 19 is_stmt 0 view .LVU874
 3808 001a 2368     		ldr	r3, [r4]
 3809              		.loc 2 674 15 view .LVU875
 3810 001c 2B60     		str	r3, [r5]
 3811              		.loc 2 675 3 is_stmt 1 view .LVU876
 3812              		.loc 2 675 23 is_stmt 0 view .LVU877
 3813 001e 5D60     		str	r5, [r3, #4]
 3814              		.loc 2 677 3 is_stmt 1 view .LVU878
 3815              	.LVL273:
 3816              		.loc 2 677 3 is_stmt 0 view .LVU879
 3817              	.LBE575:
 3818              	.LBE574:
 3819              		.loc 6 319 3 is_stmt 1 view .LVU880
ARM GAS  /tmp/ccJ6FnJD.s 			page 68


 3820              		.loc 6 319 3 view .LVU881
 3821              		.loc 6 319 3 view .LVU882
 3822 0020 94F82030 		ldrb	r3, [r4, #32]	@ zero_extendqisi2
 3823 0024 042B     		cmp	r3, #4
 3824 0026 02D0     		beq	.L235
 3825              		.loc 6 319 3 view .LVU883
 3826 0028 3846     		mov	r0, r7
 3827 002a FFF7FEFF 		bl	chSysHalt
 3828              	.LVL274:
 3829              	.L235:
 3830              		.loc 6 319 3 view .LVU884
 3831              		.loc 6 321 3 view .LVU885
 3832              		.loc 6 321 18 is_stmt 0 view .LVU886
 3833 002e A662     		str	r6, [r4, #40]
 3834              		.loc 6 322 3 is_stmt 1 view .LVU887
 3835              		.loc 6 322 10 is_stmt 0 view .LVU888
 3836 0030 2046     		mov	r0, r4
 3837 0032 FFF7FEFF 		bl	chSchReadyI
 3838              	.LVL275:
 3839              		.loc 6 322 10 view .LVU889
 3840              	.LBE577:
 3841              	.LBE579:
 3842              		.loc 1 681 9 is_stmt 1 view .LVU890
 3843              	.LBB580:
 3844              		.loc 2 629 20 view .LVU891
 3845              	.LBB570:
 3846              		.loc 2 631 3 view .LVU892
 3847              		.loc 2 631 20 is_stmt 0 view .LVU893
 3848 0036 2C68     		ldr	r4, [r5]
 3849              	.LVL276:
 3850              		.loc 2 631 20 view .LVU894
 3851              	.LBE570:
 3852              	.LBE580:
 3853              		.loc 1 681 9 view .LVU895
 3854 0038 A542     		cmp	r5, r4
 3855 003a EED1     		bne	.L236
 3856              	.LVL277:
 3857              	.L233:
 3858              		.loc 1 684 1 view .LVU896
 3859 003c 044B     		ldr	r3, .L244
 3860 003e 1A68     		ldr	r2, [r3]
 3861 0040 019B     		ldr	r3, [sp, #4]
 3862 0042 5A40     		eors	r2, r3, r2
 3863 0044 01D1     		bne	.L243
 3864 0046 03B0     		add	sp, sp, #12
 3865              		.cfi_remember_state
 3866              		.cfi_def_cfa_offset 20
 3867              		@ sp needed
 3868 0048 F0BD     		pop	{r4, r5, r6, r7, pc}
 3869              	.L243:
 3870              		.cfi_restore_state
 3871 004a FFF7FEFF 		bl	__stack_chk_fail
 3872              	.LVL278:
 3873              	.L245:
 3874 004e 00BF     		.align	2
 3875              	.L244:
 3876 0050 00000000 		.word	.LC21
ARM GAS  /tmp/ccJ6FnJD.s 			page 69


 3877 0054 00000000 		.word	.LANCHOR11
 3878              		.cfi_endproc
 3879              	.LFE240:
 3880              		.size	chThdDequeueAllI, .-chThdDequeueAllI
 3881              		.section	.rodata.__func__.7261,"a"
 3882              		.align	2
 3883              		.set	.LANCHOR1,. + 0
 3884              		.type	__func__.7261, %object
 3885              		.size	__func__.7261, 12
 3886              	__func__.7261:
 3887 0000 63685379 		.ascii	"chSysUnlock\000"
 3887      73556E6C 
 3887      6F636B00 
 3888              		.section	.rodata.__func__.7428,"a"
 3889              		.align	2
 3890              		.set	.LANCHOR2,. + 0
 3891              		.type	__func__.7428, %object
 3892              		.size	__func__.7428, 12
 3893              	__func__.7428:
 3894 0000 63685468 		.ascii	"chThdStartI\000"
 3894      64537461 
 3894      72744900 
 3895              		.section	.rodata.__func__.7432,"a"
 3896              		.align	2
 3897              		.set	.LANCHOR4,. + 0
 3898              		.type	__func__.7432, %object
 3899              		.size	__func__.7432, 12
 3900              	__func__.7432:
 3901 0000 63685468 		.ascii	"chThdSleepS\000"
 3901      64536C65 
 3901      65705300 
 3902              		.section	.rodata.__func__.7444,"a"
 3903              		.align	2
 3904              		.set	.LANCHOR11,. + 0
 3905              		.type	__func__.7444, %object
 3906              		.size	__func__.7444, 20
 3907              	__func__.7444:
 3908 0000 63685468 		.ascii	"chThdDoDequeueNextI\000"
 3908      64446F44 
 3908      65717565 
 3908      75654E65 
 3908      78744900 
 3909              		.section	.rodata.__func__.7974,"a"
 3910              		.align	2
 3911              		.set	.LANCHOR0,. + 0
 3912              		.type	__func__.7974, %object
 3913              		.size	__func__.7974, 13
 3914              	__func__.7974:
 3915 0000 63685468 		.ascii	"chThdCreateI\000"
 3915      64437265 
 3915      61746549 
 3915      00
 3916              		.section	.rodata.__func__.7990,"a"
 3917              		.align	2
 3918              		.set	.LANCHOR3,. + 0
 3919              		.type	__func__.7990, %object
 3920              		.size	__func__.7990, 17
ARM GAS  /tmp/ccJ6FnJD.s 			page 70


 3921              	__func__.7990:
 3922 0000 63685468 		.ascii	"chThdSetPriority\000"
 3922      64536574 
 3922      5072696F 
 3922      72697479 
 3922      00
 3923              		.section	.rodata.__func__.8018,"a"
 3924              		.align	2
 3925              		.set	.LANCHOR5,. + 0
 3926              		.type	__func__.8018, %object
 3927              		.size	__func__.8018, 11
 3928              	__func__.8018:
 3929 0000 63685468 		.ascii	"chThdExitS\000"
 3929      64457869 
 3929      745300
 3930              		.section	.rodata.__func__.8023,"a"
 3931              		.align	2
 3932              		.set	.LANCHOR6,. + 0
 3933              		.type	__func__.8023, %object
 3934              		.size	__func__.8023, 10
 3935              	__func__.8023:
 3936 0000 63685468 		.ascii	"chThdWait\000"
 3936      64576169 
 3936      7400
 3937              		.section	.rodata.__func__.8028,"a"
 3938              		.align	2
 3939              		.set	.LANCHOR7,. + 0
 3940              		.type	__func__.8028, %object
 3941              		.size	__func__.8028, 14
 3942              	__func__.8028:
 3943 0000 63685468 		.ascii	"chThdSuspendS\000"
 3943      64537573 
 3943      70656E64 
 3943      5300
 3944              		.section	.rodata.__func__.8034,"a"
 3945              		.align	2
 3946              		.set	.LANCHOR8,. + 0
 3947              		.type	__func__.8034, %object
 3948              		.size	__func__.8034, 21
 3949              	__func__.8034:
 3950 0000 63685468 		.ascii	"chThdSuspendTimeoutS\000"
 3950      64537573 
 3950      70656E64 
 3950      54696D65 
 3950      6F757453 
 3951              		.section	.rodata.__func__.8040,"a"
 3952              		.align	2
 3953              		.set	.LANCHOR9,. + 0
 3954              		.type	__func__.8040, %object
 3955              		.size	__func__.8040, 13
 3956              	__func__.8040:
 3957 0000 63685468 		.ascii	"chThdResumeI\000"
 3957      64526573 
 3957      756D6549 
 3957      00
 3958              		.section	.rodata.__func__.8046,"a"
 3959              		.align	2
ARM GAS  /tmp/ccJ6FnJD.s 			page 71


 3960              		.set	.LANCHOR10,. + 0
 3961              		.type	__func__.8046, %object
 3962              		.size	__func__.8046, 13
 3963              	__func__.8046:
 3964 0000 63685468 		.ascii	"chThdResumeS\000"
 3964      64526573 
 3964      756D6553 
 3964      00
 3965              		.text
 3966              	.Letext0:
 3967              		.file 8 "/usr/lib/gcc/arm-none-eabi/9.2.1/include/stddef.h"
 3968              		.file 9 "/usr/lib/gcc/arm-none-eabi/9.2.1/include/stdint.h"
 3969              		.file 10 ".//ChibiOS//os/rt/ports/ARMCMx/compilers/GCC/chtypes.h"
 3970              		.file 11 ".//ChibiOS//os/rt/include/chsystypes.h"
 3971              		.file 12 ".//ChibiOS//os/ext/CMSIS/include/core_cm4.h"
 3972              		.file 13 ".//ChibiOS//os/ext/CMSIS/ST/system_stm32f4xx.h"
 3973              		.file 14 ".//ChibiOS//os/rt/ports/ARMCMx/chcore.h"
 3974              		.file 15 ".//ChibiOS//os/rt/include/chdebug.h"
 3975              		.file 16 ".//ChibiOS//os/rt/include/chtm.h"
 3976              		.file 17 ".//ChibiOS//os/rt/include/chstats.h"
 3977              		.file 18 ".//ChibiOS//os/rt/include/chsem.h"
 3978              		.file 19 ".//ChibiOS//os/rt/include/chmtx.h"
 3979              		.file 20 ".//ChibiOS//os/rt/include/chregistry.h"
 3980              		.file 21 ".//ChibiOS//os/rt/include/chdynamic.h"