ARM GAS  /tmp/cckx0m9S.s 			page 1


   1              		.cpu cortex-m4
   2              		.eabi_attribute 27, 1
   3              		.eabi_attribute 28, 1
   4              		.eabi_attribute 20, 1
   5              		.eabi_attribute 21, 1
   6              		.eabi_attribute 23, 3
   7              		.eabi_attribute 24, 1
   8              		.eabi_attribute 25, 1
   9              		.eabi_attribute 26, 1
  10              		.eabi_attribute 30, 2
  11              		.eabi_attribute 34, 1
  12              		.eabi_attribute 18, 4
  13              		.file	"chvt.c"
  14              		.text
  15              	.Ltext0:
  16              		.cfi_sections	.debug_frame
  17              		.section	.rodata._vt_init.cst4,"aM",%progbits,4
  18              		.align	2
  19              	.LC0:
  20 0000 00000000 		.word	__stack_chk_guard
  21              		.section	.text._vt_init,"ax",%progbits
  22              		.align	1
  23              		.p2align 4,,15
  24              		.global	_vt_init
  25              		.arch armv7e-m
  26              		.syntax unified
  27              		.thumb
  28              		.thumb_func
  29              		.fpu fpv4-sp-d16
  30              		.type	_vt_init, %function
  31              	_vt_init:
  32              	.LFB219:
  33              		.file 1 ".//ChibiOS//os/rt/src/chvt.c"
  34              		.loc 1 61 21 view -0
  35              		.cfi_startproc
  36              		@ args = 0, pretend = 0, frame = 8
  37              		@ frame_needed = 0, uses_anonymous_args = 0
  38 0000 00B5     		push	{lr}
  39              		.cfi_def_cfa_offset 4
  40              		.cfi_offset 14, -4
  41 0002 0D4A     		ldr	r2, .L6
  42              		.loc 1 63 21 is_stmt 0 view .LVU1
  43 0004 0D4B     		ldr	r3, .L6+4
  44              		.loc 1 61 21 view .LVU2
  45 0006 83B0     		sub	sp, sp, #12
  46              		.cfi_def_cfa_offset 16
  47              		.loc 1 61 21 view .LVU3
  48 0008 1268     		ldr	r2, [r2]
  49 000a 0192     		str	r2, [sp, #4]
  50 000c 4FF00002 		mov	r2,#0
  51              		.loc 1 63 3 is_stmt 1 view .LVU4
  52              		.loc 1 67 24 is_stmt 0 view .LVU5
  53 0010 0022     		movs	r2, #0
  54 0012 9A62     		str	r2, [r3, #40]
  55              		.loc 1 65 22 view .LVU6
  56 0014 4FF0FF31 		mov	r1, #-1
  57              		.loc 1 63 21 view .LVU7
ARM GAS  /tmp/cckx0m9S.s 			page 2


  58 0018 03F11C02 		add	r2, r3, #28
  59              		.loc 1 64 21 view .LVU8
  60 001c C3E90722 		strd	r2, r2, [r3, #28]
  61              		.loc 1 65 3 is_stmt 1 view .LVU9
  62              		.loc 1 67 3 view .LVU10
  63              		.loc 1 65 22 is_stmt 0 view .LVU11
  64 0020 5962     		str	r1, [r3, #36]
  65              		.loc 1 71 1 view .LVU12
  66 0022 054B     		ldr	r3, .L6
  67 0024 1A68     		ldr	r2, [r3]
  68 0026 019B     		ldr	r3, [sp, #4]
  69 0028 5A40     		eors	r2, r3, r2
  70 002a 02D1     		bne	.L5
  71 002c 03B0     		add	sp, sp, #12
  72              		.cfi_remember_state
  73              		.cfi_def_cfa_offset 4
  74              		@ sp needed
  75 002e 5DF804FB 		ldr	pc, [sp], #4
  76              	.L5:
  77              		.cfi_restore_state
  78 0032 FFF7FEFF 		bl	__stack_chk_fail
  79              	.LVL0:
  80              	.L7:
  81 0036 00BF     		.align	2
  82              	.L6:
  83 0038 00000000 		.word	.LC0
  84 003c 00000000 		.word	ch
  85              		.cfi_endproc
  86              	.LFE219:
  87              		.size	_vt_init, .-_vt_init
  88              		.section	.rodata.chVTDoSetI.cst4,"aM",%progbits,4
  89              		.align	2
  90              	.LC1:
  91 0000 00000000 		.word	__stack_chk_guard
  92              		.section	.text.chVTDoSetI,"ax",%progbits
  93              		.align	1
  94              		.p2align 4,,15
  95              		.global	chVTDoSetI
  96              		.syntax unified
  97              		.thumb
  98              		.thumb_func
  99              		.fpu fpv4-sp-d16
 100              		.type	chVTDoSetI, %function
 101              	chVTDoSetI:
 102              	.LVL1:
 103              	.LFB220:
 104              		.loc 1 96 45 is_stmt 1 view -0
 105              		.cfi_startproc
 106              		@ args = 0, pretend = 0, frame = 8
 107              		@ frame_needed = 0, uses_anonymous_args = 0
 108              		.loc 1 96 45 is_stmt 0 view .LVU14
 109 0000 F0B5     		push	{r4, r5, r6, r7, lr}
 110              		.cfi_def_cfa_offset 20
 111              		.cfi_offset 4, -20
 112              		.cfi_offset 5, -16
 113              		.cfi_offset 6, -12
 114              		.cfi_offset 7, -8
ARM GAS  /tmp/cckx0m9S.s 			page 3


 115              		.cfi_offset 14, -4
 116 0002 1F46     		mov	r7, r3
 117 0004 194B     		ldr	r3, .L23
 118              	.LVL2:
 119              		.loc 1 96 45 view .LVU15
 120 0006 83B0     		sub	sp, sp, #12
 121              		.cfi_def_cfa_offset 32
 122              		.loc 1 96 45 view .LVU16
 123 0008 0546     		mov	r5, r0
 124 000a 0C46     		mov	r4, r1
 125 000c 1646     		mov	r6, r2
 126 000e 1B68     		ldr	r3, [r3]
 127 0010 0193     		str	r3, [sp, #4]
 128 0012 4FF00003 		mov	r3,#0
 129              		.loc 1 97 3 is_stmt 1 view .LVU17
 130              		.loc 1 98 3 view .LVU18
 131              		.loc 1 100 3 view .LVU19
 132 0016 FFF7FEFF 		bl	chDbgCheckClassI
 133              	.LVL3:
 134              		.loc 1 101 3 view .LVU20
 135              		.loc 1 101 3 view .LVU21
 136              		.loc 1 101 3 view .LVU22
 137 001a 05B3     		cbz	r5, .L9
 138              		.loc 1 101 3 is_stmt 0 discriminator 4 view .LVU23
 139 001c FEB1     		cbz	r6, .L9
 140              		.loc 1 101 3 discriminator 6 view .LVU24
 141 001e F4B1     		cbz	r4, .L9
 142              	.L10:
 143              		.loc 1 101 3 is_stmt 1 discriminator 9 view .LVU25
 144              		.loc 1 103 3 discriminator 9 view .LVU26
 145              		.loc 1 104 16 is_stmt 0 discriminator 9 view .LVU27
 146 0020 C5E90367 		strd	r6, r7, [r5, #12]
 147              		.loc 1 145 3 is_stmt 1 discriminator 9 view .LVU28
 148              	.LVL4:
 149              		.loc 1 150 3 discriminator 9 view .LVU29
 150              		.loc 1 150 5 is_stmt 0 discriminator 9 view .LVU30
 151 0024 1248     		ldr	r0, .L23+4
 152 0026 C369     		ldr	r3, [r0, #28]
 153              	.LVL5:
 154              		.loc 1 151 3 is_stmt 1 discriminator 9 view .LVU31
 155              		.loc 1 151 9 discriminator 9 view .LVU32
 156              		.loc 1 151 11 is_stmt 0 discriminator 9 view .LVU33
 157 0028 9A68     		ldr	r2, [r3, #8]
 158              		.loc 1 151 9 discriminator 9 view .LVU34
 159 002a 9442     		cmp	r4, r2
 160 002c 04D9     		bls	.L11
 161              	.LVL6:
 162              	.L12:
 163              		.loc 1 152 5 is_stmt 1 view .LVU35
 164              		.loc 1 153 7 is_stmt 0 view .LVU36
 165 002e 1B68     		ldr	r3, [r3]
 166              	.LVL7:
 167              		.loc 1 152 11 view .LVU37
 168 0030 A41A     		subs	r4, r4, r2
 169              	.LVL8:
 170              		.loc 1 153 5 is_stmt 1 view .LVU38
 171              		.loc 1 151 9 view .LVU39
ARM GAS  /tmp/cckx0m9S.s 			page 4


 172              		.loc 1 151 11 is_stmt 0 view .LVU40
 173 0032 9A68     		ldr	r2, [r3, #8]
 174              		.loc 1 151 9 view .LVU41
 175 0034 A242     		cmp	r2, r4
 176 0036 FAD3     		bcc	.L12
 177              	.L11:
 178              		.loc 1 157 3 is_stmt 1 view .LVU42
 179              		.loc 1 157 16 is_stmt 0 view .LVU43
 180 0038 2B60     		str	r3, [r5]
 181              		.loc 1 158 3 is_stmt 1 view .LVU44
 182              		.loc 1 158 30 is_stmt 0 view .LVU45
 183 003a 5A68     		ldr	r2, [r3, #4]
 184              		.loc 1 158 16 view .LVU46
 185 003c 6A60     		str	r2, [r5, #4]
 186              		.loc 1 159 3 is_stmt 1 view .LVU47
 187              		.loc 1 159 25 is_stmt 0 view .LVU48
 188 003e 1560     		str	r5, [r2]
 189              		.loc 1 160 3 is_stmt 1 view .LVU49
 190              		.loc 1 160 14 is_stmt 0 view .LVU50
 191 0040 5D60     		str	r5, [r3, #4]
 192              		.loc 1 161 3 is_stmt 1 view .LVU51
 193              		.loc 1 161 17 is_stmt 0 view .LVU52
 194 0042 AC60     		str	r4, [r5, #8]
 195              		.loc 1 165 3 is_stmt 1 view .LVU53
 196              		.loc 1 165 15 is_stmt 0 view .LVU54
 197 0044 9968     		ldr	r1, [r3, #8]
 198 0046 091B     		subs	r1, r1, r4
 199              		.loc 1 166 22 view .LVU55
 200 0048 4FF0FF32 		mov	r2, #-1
 201              		.loc 1 165 15 view .LVU56
 202 004c 9960     		str	r1, [r3, #8]
 203              		.loc 1 166 3 is_stmt 1 view .LVU57
 204              		.loc 1 167 1 is_stmt 0 view .LVU58
 205 004e 074B     		ldr	r3, .L23
 206              	.LVL9:
 207              		.loc 1 166 22 view .LVU59
 208 0050 4262     		str	r2, [r0, #36]
 209              		.loc 1 167 1 view .LVU60
 210 0052 1A68     		ldr	r2, [r3]
 211 0054 019B     		ldr	r3, [sp, #4]
 212 0056 5A40     		eors	r2, r3, r2
 213 0058 05D1     		bne	.L22
 214              		.loc 1 167 1 view .LVU61
 215 005a 03B0     		add	sp, sp, #12
 216              		.cfi_remember_state
 217              		.cfi_def_cfa_offset 20
 218              		@ sp needed
 219 005c F0BD     		pop	{r4, r5, r6, r7, pc}
 220              	.LVL10:
 221              	.L9:
 222              		.cfi_restore_state
 223              		.loc 1 101 3 is_stmt 1 discriminator 7 view .LVU62
 224 005e 0548     		ldr	r0, .L23+8
 225 0060 FFF7FEFF 		bl	chSysHalt
 226              	.LVL11:
 227 0064 DCE7     		b	.L10
 228              	.LVL12:
ARM GAS  /tmp/cckx0m9S.s 			page 5


 229              	.L22:
 230              		.loc 1 167 1 is_stmt 0 view .LVU63
 231 0066 FFF7FEFF 		bl	__stack_chk_fail
 232              	.LVL13:
 233              	.L24:
 234 006a 00BF     		.align	2
 235              	.L23:
 236 006c 00000000 		.word	.LC1
 237 0070 00000000 		.word	ch
 238 0074 00000000 		.word	.LANCHOR0
 239              		.cfi_endproc
 240              	.LFE220:
 241              		.size	chVTDoSetI, .-chVTDoSetI
 242              		.section	.rodata.chVTDoResetI.cst4,"aM",%progbits,4
 243              		.align	2
 244              	.LC2:
 245 0000 00000000 		.word	__stack_chk_guard
 246              		.section	.text.chVTDoResetI,"ax",%progbits
 247              		.align	1
 248              		.p2align 4,,15
 249              		.global	chVTDoResetI
 250              		.syntax unified
 251              		.thumb
 252              		.thumb_func
 253              		.fpu fpv4-sp-d16
 254              		.type	chVTDoResetI, %function
 255              	chVTDoResetI:
 256              	.LVL14:
 257              	.LFB221:
 258              		.loc 1 177 41 is_stmt 1 view -0
 259              		.cfi_startproc
 260              		@ args = 0, pretend = 0, frame = 8
 261              		@ frame_needed = 0, uses_anonymous_args = 0
 262              		.loc 1 177 41 is_stmt 0 view .LVU65
 263 0000 10B5     		push	{r4, lr}
 264              		.cfi_def_cfa_offset 8
 265              		.cfi_offset 4, -8
 266              		.cfi_offset 14, -4
 267 0002 174B     		ldr	r3, .L33
 268 0004 82B0     		sub	sp, sp, #8
 269              		.cfi_def_cfa_offset 16
 270              		.loc 1 177 41 view .LVU66
 271 0006 0446     		mov	r4, r0
 272 0008 1B68     		ldr	r3, [r3]
 273 000a 0193     		str	r3, [sp, #4]
 274 000c 4FF00003 		mov	r3,#0
 275              		.loc 1 179 3 is_stmt 1 view .LVU67
 276 0010 FFF7FEFF 		bl	chDbgCheckClassI
 277              	.LVL15:
 278              		.loc 1 180 3 view .LVU68
 279              		.loc 1 180 3 view .LVU69
 280              		.loc 1 180 3 view .LVU70
 281 0014 C4B1     		cbz	r4, .L30
 282              		.loc 1 180 3 discriminator 1 view .LVU71
 283              		.loc 1 181 3 discriminator 1 view .LVU72
 284              		.loc 1 181 3 discriminator 1 view .LVU73
 285              		.loc 1 181 3 discriminator 1 view .LVU74
ARM GAS  /tmp/cckx0m9S.s 			page 6


 286 0016 E368     		ldr	r3, [r4, #12]
 287 0018 E3B1     		cbz	r3, .L31
 288              	.L27:
 289              		.loc 1 181 3 discriminator 5 view .LVU75
 290              		.loc 1 186 3 discriminator 5 view .LVU76
 291              		.loc 1 186 6 is_stmt 0 discriminator 5 view .LVU77
 292 001a 2268     		ldr	r2, [r4]
 293              		.loc 1 186 26 discriminator 5 view .LVU78
 294 001c A068     		ldr	r0, [r4, #8]
 295 001e 9368     		ldr	r3, [r2, #8]
 296              		.loc 1 195 22 discriminator 5 view .LVU79
 297 0020 1049     		ldr	r1, .L33+4
 298              		.loc 1 186 26 discriminator 5 view .LVU80
 299 0022 0344     		add	r3, r3, r0
 300 0024 9360     		str	r3, [r2, #8]
 301              		.loc 1 189 3 is_stmt 1 discriminator 5 view .LVU81
 302              		.loc 1 189 30 is_stmt 0 discriminator 5 view .LVU82
 303 0026 D4E90032 		ldrd	r3, r2, [r4]
 304              		.loc 1 189 25 discriminator 5 view .LVU83
 305 002a 1360     		str	r3, [r2]
 306              		.loc 1 190 3 is_stmt 1 discriminator 5 view .LVU84
 307              		.loc 1 190 30 is_stmt 0 discriminator 5 view .LVU85
 308 002c 6268     		ldr	r2, [r4, #4]
 309              		.loc 1 190 25 discriminator 5 view .LVU86
 310 002e 5A60     		str	r2, [r3, #4]
 311              		.loc 1 191 3 is_stmt 1 discriminator 5 view .LVU87
 312              		.loc 1 191 16 is_stmt 0 discriminator 5 view .LVU88
 313 0030 0022     		movs	r2, #0
 314              		.loc 1 195 22 discriminator 5 view .LVU89
 315 0032 4FF0FF33 		mov	r3, #-1
 316              		.loc 1 191 16 discriminator 5 view .LVU90
 317 0036 E260     		str	r2, [r4, #12]
 318              		.loc 1 195 3 is_stmt 1 discriminator 5 view .LVU91
 319              		.loc 1 195 22 is_stmt 0 discriminator 5 view .LVU92
 320 0038 4B62     		str	r3, [r1, #36]
 321              		.loc 1 255 1 discriminator 5 view .LVU93
 322 003a 094B     		ldr	r3, .L33
 323 003c 1A68     		ldr	r2, [r3]
 324 003e 019B     		ldr	r3, [sp, #4]
 325 0040 5A40     		eors	r2, r3, r2
 326 0042 0BD1     		bne	.L32
 327              		.loc 1 255 1 view .LVU94
 328 0044 02B0     		add	sp, sp, #8
 329              		.cfi_remember_state
 330              		.cfi_def_cfa_offset 8
 331              		@ sp needed
 332 0046 10BD     		pop	{r4, pc}
 333              	.LVL16:
 334              	.L30:
 335              		.cfi_restore_state
 336              		.loc 1 180 3 is_stmt 1 discriminator 3 view .LVU95
 337 0048 0748     		ldr	r0, .L33+8
 338 004a FFF7FEFF 		bl	chSysHalt
 339              	.LVL17:
 340              		.loc 1 180 3 discriminator 3 view .LVU96
 341              		.loc 1 181 3 discriminator 3 view .LVU97
 342              		.loc 1 181 3 discriminator 3 view .LVU98
ARM GAS  /tmp/cckx0m9S.s 			page 7


 343              		.loc 1 181 3 discriminator 3 view .LVU99
 344 004e E368     		ldr	r3, [r4, #12]
 345 0050 002B     		cmp	r3, #0
 346 0052 E2D1     		bne	.L27
 347              	.L31:
 348              		.loc 1 181 3 discriminator 3 view .LVU100
 349 0054 0448     		ldr	r0, .L33+8
 350 0056 FFF7FEFF 		bl	chSysHalt
 351              	.LVL18:
 352 005a DEE7     		b	.L27
 353              	.L32:
 354              		.loc 1 255 1 is_stmt 0 view .LVU101
 355 005c FFF7FEFF 		bl	__stack_chk_fail
 356              	.LVL19:
 357              	.L34:
 358              		.align	2
 359              	.L33:
 360 0060 00000000 		.word	.LC2
 361 0064 00000000 		.word	ch
 362 0068 00000000 		.word	.LANCHOR1
 363              		.cfi_endproc
 364              	.LFE221:
 365              		.size	chVTDoResetI, .-chVTDoResetI
 366              		.section	.rodata.__func__.7965,"a"
 367              		.align	2
 368              		.set	.LANCHOR0,. + 0
 369              		.type	__func__.7965, %object
 370              		.size	__func__.7965, 11
 371              	__func__.7965:
 372 0000 63685654 		.ascii	"chVTDoSetI\000"
 372      446F5365 
 372      744900
 373              		.section	.rodata.__func__.7972,"a"
 374              		.align	2
 375              		.set	.LANCHOR1,. + 0
 376              		.type	__func__.7972, %object
 377              		.size	__func__.7972, 13
 378              	__func__.7972:
 379 0000 63685654 		.ascii	"chVTDoResetI\000"
 379      446F5265 
 379      73657449 
 379      00
 380              		.text
 381              	.Letext0:
 382              		.file 2 "/usr/lib/gcc/arm-none-eabi/9.2.1/include/stdint.h"
 383              		.file 3 ".//ChibiOS//os/rt/ports/ARMCMx/compilers/GCC/chtypes.h"
 384              		.file 4 ".//ChibiOS//os/rt/include/chsystypes.h"
 385              		.file 5 ".//ChibiOS//os/rt/include/chschd.h"
 386              		.file 6 ".//ChibiOS//os/ext/CMSIS/include/core_cm4.h"
 387              		.file 7 ".//ChibiOS//os/ext/CMSIS/ST/system_stm32f4xx.h"
 388              		.file 8 ".//ChibiOS//os/rt/ports/ARMCMx/chcore.h"
 389              		.file 9 ".//ChibiOS//os/rt/ports/ARMCMx/chcore_v7m.h"
 390              		.file 10 ".//ChibiOS//os/rt/include/chdebug.h"
 391              		.file 11 ".//ChibiOS//os/rt/include/chtm.h"
 392              		.file 12 ".//ChibiOS//os/rt/include/chstats.h"
 393              		.file 13 ".//ChibiOS//os/rt/include/chsem.h"
 394              		.file 14 ".//ChibiOS//os/rt/include/chmtx.h"
ARM GAS  /tmp/cckx0m9S.s 			page 8


 395              		.file 15 ".//ChibiOS//os/rt/include/chregistry.h"
 396              		.file 16 ".//ChibiOS//os/rt/include/chsys.h"
 397              		.section	.debug_info,"",%progbits
 398              	.Ldebug_info0:
 399 0000 150C0000 		.4byte	0xc15
 400 0004 0400     		.2byte	0x4
 401 0006 00000000 		.4byte	.Ldebug_abbrev0
 402 000a 04       		.byte	0x4
 403 000b 01       		.uleb128 0x1
 404 000c 44040000 		.4byte	.LASF160
 405 0010 0C       		.byte	0xc
 406 0011 E7030000 		.4byte	.LASF161
 407 0015 98020000 		.4byte	.LASF162
 408 0019 00000000 		.4byte	.Ldebug_ranges0+0
 409 001d 00000000 		.4byte	0
 410 0021 00000000 		.4byte	.Ldebug_line0
 411 0025 02       		.uleb128 0x2
 412 0026 04       		.byte	0x4
 413 0027 05       		.byte	0x5
 414 0028 696E7400 		.ascii	"int\000"
 415 002c 03       		.uleb128 0x3
 416 002d 04       		.byte	0x4
 417 002e 07       		.byte	0x7
 418 002f 39020000 		.4byte	.LASF0
 419 0033 03       		.uleb128 0x3
 420 0034 08       		.byte	0x8
 421 0035 05       		.byte	0x5
 422 0036 3D010000 		.4byte	.LASF1
 423 003a 03       		.uleb128 0x3
 424 003b 08       		.byte	0x8
 425 003c 04       		.byte	0x4
 426 003d C8030000 		.4byte	.LASF2
 427 0041 03       		.uleb128 0x3
 428 0042 01       		.byte	0x1
 429 0043 06       		.byte	0x6
 430 0044 4B010000 		.4byte	.LASF3
 431 0048 03       		.uleb128 0x3
 432 0049 02       		.byte	0x2
 433 004a 05       		.byte	0x5
 434 004b 1E060000 		.4byte	.LASF4
 435 004f 04       		.uleb128 0x4
 436 0050 F8050000 		.4byte	.LASF6
 437 0054 02       		.byte	0x2
 438 0055 28       		.byte	0x28
 439 0056 18       		.byte	0x18
 440 0057 60000000 		.4byte	0x60
 441 005b 05       		.uleb128 0x5
 442 005c 4F000000 		.4byte	0x4f
 443 0060 03       		.uleb128 0x3
 444 0061 04       		.byte	0x4
 445 0062 05       		.byte	0x5
 446 0063 9F010000 		.4byte	.LASF5
 447 0067 04       		.uleb128 0x4
 448 0068 BB070000 		.4byte	.LASF7
 449 006c 02       		.byte	0x2
 450 006d 2E       		.byte	0x2e
 451 006e 18       		.byte	0x18
ARM GAS  /tmp/cckx0m9S.s 			page 9


 452 006f 73000000 		.4byte	0x73
 453 0073 03       		.uleb128 0x3
 454 0074 01       		.byte	0x1
 455 0075 08       		.byte	0x8
 456 0076 00060000 		.4byte	.LASF8
 457 007a 04       		.uleb128 0x4
 458 007b 4E020000 		.4byte	.LASF9
 459 007f 02       		.byte	0x2
 460 0080 31       		.byte	0x31
 461 0081 19       		.byte	0x19
 462 0082 86000000 		.4byte	0x86
 463 0086 03       		.uleb128 0x3
 464 0087 02       		.byte	0x2
 465 0088 07       		.byte	0x7
 466 0089 E6020000 		.4byte	.LASF10
 467 008d 04       		.uleb128 0x4
 468 008e D6060000 		.4byte	.LASF11
 469 0092 02       		.byte	0x2
 470 0093 34       		.byte	0x34
 471 0094 19       		.byte	0x19
 472 0095 99000000 		.4byte	0x99
 473 0099 03       		.uleb128 0x3
 474 009a 04       		.byte	0x4
 475 009b 07       		.byte	0x7
 476 009c 0B070000 		.4byte	.LASF12
 477 00a0 04       		.uleb128 0x4
 478 00a1 35000000 		.4byte	.LASF13
 479 00a5 02       		.byte	0x2
 480 00a6 37       		.byte	0x37
 481 00a7 19       		.byte	0x19
 482 00a8 AC000000 		.4byte	0xac
 483 00ac 03       		.uleb128 0x3
 484 00ad 08       		.byte	0x8
 485 00ae 07       		.byte	0x7
 486 00af 9C000000 		.4byte	.LASF14
 487 00b3 04       		.uleb128 0x4
 488 00b4 A9030000 		.4byte	.LASF15
 489 00b8 03       		.byte	0x3
 490 00b9 45       		.byte	0x45
 491 00ba 1D       		.byte	0x1d
 492 00bb 8D000000 		.4byte	0x8d
 493 00bf 04       		.uleb128 0x4
 494 00c0 17010000 		.4byte	.LASF16
 495 00c4 03       		.byte	0x3
 496 00c5 46       		.byte	0x46
 497 00c6 1D       		.byte	0x1d
 498 00c7 A0000000 		.4byte	0xa0
 499 00cb 04       		.uleb128 0x4
 500 00cc 4F060000 		.4byte	.LASF17
 501 00d0 03       		.byte	0x3
 502 00d1 48       		.byte	0x48
 503 00d2 1D       		.byte	0x1d
 504 00d3 67000000 		.4byte	0x67
 505 00d7 04       		.uleb128 0x4
 506 00d8 A8010000 		.4byte	.LASF18
 507 00dc 03       		.byte	0x3
 508 00dd 49       		.byte	0x49
ARM GAS  /tmp/cckx0m9S.s 			page 10


 509 00de 1D       		.byte	0x1d
 510 00df 67000000 		.4byte	0x67
 511 00e3 04       		.uleb128 0x4
 512 00e4 B3050000 		.4byte	.LASF19
 513 00e8 03       		.byte	0x3
 514 00e9 4A       		.byte	0x4a
 515 00ea 1D       		.byte	0x1d
 516 00eb 67000000 		.4byte	0x67
 517 00ef 04       		.uleb128 0x4
 518 00f0 8B010000 		.4byte	.LASF20
 519 00f4 03       		.byte	0x3
 520 00f5 4B       		.byte	0x4b
 521 00f6 1D       		.byte	0x1d
 522 00f7 67000000 		.4byte	0x67
 523 00fb 04       		.uleb128 0x4
 524 00fc E7050000 		.4byte	.LASF21
 525 0100 03       		.byte	0x3
 526 0101 4C       		.byte	0x4c
 527 0102 1D       		.byte	0x1d
 528 0103 8D000000 		.4byte	0x8d
 529 0107 04       		.uleb128 0x4
 530 0108 12030000 		.4byte	.LASF22
 531 010c 03       		.byte	0x3
 532 010d 4D       		.byte	0x4d
 533 010e 1D       		.byte	0x1d
 534 010f 4F000000 		.4byte	0x4f
 535 0113 04       		.uleb128 0x4
 536 0114 4B000000 		.4byte	.LASF23
 537 0118 03       		.byte	0x3
 538 0119 4F       		.byte	0x4f
 539 011a 1D       		.byte	0x1d
 540 011b 8D000000 		.4byte	0x8d
 541 011f 04       		.uleb128 0x4
 542 0120 28020000 		.4byte	.LASF24
 543 0124 03       		.byte	0x3
 544 0125 51       		.byte	0x51
 545 0126 1D       		.byte	0x1d
 546 0127 4F000000 		.4byte	0x4f
 547 012b 04       		.uleb128 0x4
 548 012c 1D030000 		.4byte	.LASF25
 549 0130 03       		.byte	0x3
 550 0131 52       		.byte	0x52
 551 0132 1D       		.byte	0x1d
 552 0133 8D000000 		.4byte	0x8d
 553 0137 04       		.uleb128 0x4
 554 0138 3E070000 		.4byte	.LASF26
 555 013c 04       		.byte	0x4
 556 013d 33       		.byte	0x33
 557 013e 12       		.byte	0x12
 558 013f 8D000000 		.4byte	0x8d
 559 0143 05       		.uleb128 0x5
 560 0144 37010000 		.4byte	0x137
 561 0148 04       		.uleb128 0x4
 562 0149 29070000 		.4byte	.LASF27
 563 014d 04       		.byte	0x4
 564 014e 3F       		.byte	0x3f
 565 014f 1A       		.byte	0x1a
ARM GAS  /tmp/cckx0m9S.s 			page 11


 566 0150 54010000 		.4byte	0x154
 567 0154 06       		.uleb128 0x6
 568 0155 08030000 		.4byte	.LASF51
 569 0159 68       		.byte	0x68
 570 015a 05       		.byte	0x5
 571 015b C2       		.byte	0xc2
 572 015c 08       		.byte	0x8
 573 015d 89020000 		.4byte	0x289
 574 0161 07       		.uleb128 0x7
 575 0162 48060000 		.4byte	.LASF28
 576 0166 05       		.byte	0x5
 577 0167 C3       		.byte	0xc3
 578 0168 1A       		.byte	0x1a
 579 0169 95020000 		.4byte	0x295
 580 016d 00       		.byte	0
 581 016e 07       		.uleb128 0x7
 582 016f E0050000 		.4byte	.LASF29
 583 0173 05       		.byte	0x5
 584 0174 C5       		.byte	0xc5
 585 0175 1A       		.byte	0x1a
 586 0176 95020000 		.4byte	0x295
 587 017a 04       		.byte	0x4
 588 017b 07       		.uleb128 0x7
 589 017c 20010000 		.4byte	.LASF30
 590 0180 05       		.byte	0x5
 591 0181 C7       		.byte	0xc7
 592 0182 19       		.byte	0x19
 593 0183 FB000000 		.4byte	0xfb
 594 0187 08       		.byte	0x8
 595 0188 07       		.uleb128 0x7
 596 0189 2D040000 		.4byte	.LASF31
 597 018d 05       		.byte	0x5
 598 018e C8       		.byte	0xc8
 599 018f 19       		.byte	0x19
 600 0190 3E050000 		.4byte	0x53e
 601 0194 0C       		.byte	0xc
 602 0195 07       		.uleb128 0x7
 603 0196 B7010000 		.4byte	.LASF32
 604 019a 05       		.byte	0x5
 605 019b CA       		.byte	0xca
 606 019c 1A       		.byte	0x1a
 607 019d 95020000 		.4byte	0x295
 608 01a1 10       		.byte	0x10
 609 01a2 07       		.uleb128 0x7
 610 01a3 1F040000 		.4byte	.LASF33
 611 01a7 05       		.byte	0x5
 612 01a8 CB       		.byte	0xcb
 613 01a9 1A       		.byte	0x1a
 614 01aa 95020000 		.4byte	0x295
 615 01ae 14       		.byte	0x14
 616 01af 07       		.uleb128 0x7
 617 01b0 DD070000 		.4byte	.LASF34
 618 01b4 05       		.byte	0x5
 619 01b5 D2       		.byte	0xd2
 620 01b6 1A       		.byte	0x1a
 621 01b7 FB080000 		.4byte	0x8fb
 622 01bb 18       		.byte	0x18
ARM GAS  /tmp/cckx0m9S.s 			page 12


 623 01bc 07       		.uleb128 0x7
 624 01bd 2E020000 		.4byte	.LASF35
 625 01c1 05       		.byte	0x5
 626 01c2 D8       		.byte	0xd8
 627 01c3 1A       		.byte	0x1a
 628 01c4 12090000 		.4byte	0x912
 629 01c8 1C       		.byte	0x1c
 630 01c9 07       		.uleb128 0x7
 631 01ca 28060000 		.4byte	.LASF36
 632 01ce 05       		.byte	0x5
 633 01cf DD       		.byte	0xdd
 634 01d0 19       		.byte	0x19
 635 01d1 D7000000 		.4byte	0xd7
 636 01d5 20       		.byte	0x20
 637 01d6 07       		.uleb128 0x7
 638 01d7 66060000 		.4byte	.LASF37
 639 01db 05       		.byte	0x5
 640 01dc E1       		.byte	0xe1
 641 01dd 19       		.byte	0x19
 642 01de CB000000 		.4byte	0xcb
 643 01e2 21       		.byte	0x21
 644 01e3 07       		.uleb128 0x7
 645 01e4 9D070000 		.4byte	.LASF38
 646 01e8 05       		.byte	0x5
 647 01e9 E6       		.byte	0xe6
 648 01ea 19       		.byte	0x19
 649 01eb E3000000 		.4byte	0xe3
 650 01ef 22       		.byte	0x22
 651 01f0 07       		.uleb128 0x7
 652 01f1 30060000 		.4byte	.LASF39
 653 01f5 05       		.byte	0x5
 654 01f6 EC       		.byte	0xec
 655 01f7 19       		.byte	0x19
 656 01f8 EF000000 		.4byte	0xef
 657 01fc 23       		.byte	0x23
 658 01fd 07       		.uleb128 0x7
 659 01fe 67020000 		.4byte	.LASF40
 660 0202 05       		.byte	0x5
 661 0203 F3       		.byte	0xf3
 662 0204 19       		.byte	0x19
 663 0205 43010000 		.4byte	0x143
 664 0209 24       		.byte	0x24
 665 020a 08       		.uleb128 0x8
 666 020b 705F7500 		.ascii	"p_u\000"
 667 020f 05       		.byte	0x5
 668 0210 3101     		.2byte	0x131
 669 0212 19       		.byte	0x19
 670 0213 1A080000 		.4byte	0x81a
 671 0217 28       		.byte	0x28
 672 0218 09       		.uleb128 0x9
 673 0219 9F030000 		.4byte	.LASF41
 674 021d 05       		.byte	0x5
 675 021e 3601     		.2byte	0x136
 676 0220 19       		.byte	0x19
 677 0221 9B020000 		.4byte	0x29b
 678 0225 2C       		.byte	0x2c
 679 0226 09       		.uleb128 0x9
ARM GAS  /tmp/cckx0m9S.s 			page 13


 680 0227 7E020000 		.4byte	.LASF42
 681 022b 05       		.byte	0x5
 682 022c 3C01     		.2byte	0x13c
 683 022e 19       		.byte	0x19
 684 022f C2020000 		.4byte	0x2c2
 685 0233 30       		.byte	0x30
 686 0234 09       		.uleb128 0x9
 687 0235 75070000 		.4byte	.LASF43
 688 0239 05       		.byte	0x5
 689 023a 4001     		.2byte	0x140
 690 023c 19       		.byte	0x19
 691 023d 07010000 		.4byte	0x107
 692 0241 38       		.byte	0x38
 693 0242 09       		.uleb128 0x9
 694 0243 CB060000 		.4byte	.LASF44
 695 0247 05       		.byte	0x5
 696 0248 4601     		.2byte	0x146
 697 024a 19       		.byte	0x19
 698 024b 13010000 		.4byte	0x113
 699 024f 3C       		.byte	0x3c
 700 0250 09       		.uleb128 0x9
 701 0251 14060000 		.4byte	.LASF45
 702 0255 05       		.byte	0x5
 703 0256 4D01     		.2byte	0x14d
 704 0258 1A       		.byte	0x1a
 705 0259 F5080000 		.4byte	0x8f5
 706 025d 40       		.byte	0x40
 707 025e 09       		.uleb128 0x9
 708 025f 48070000 		.4byte	.LASF46
 709 0263 05       		.byte	0x5
 710 0264 5101     		.2byte	0x151
 711 0266 19       		.byte	0x19
 712 0267 FB000000 		.4byte	0xfb
 713 026b 44       		.byte	0x44
 714 026c 09       		.uleb128 0x9
 715 026d 74010000 		.4byte	.LASF47
 716 0271 05       		.byte	0x5
 717 0272 5801     		.2byte	0x158
 718 0274 1A       		.byte	0x1a
 719 0275 82030000 		.4byte	0x382
 720 0279 48       		.byte	0x48
 721 027a 09       		.uleb128 0x9
 722 027b 77060000 		.4byte	.LASF48
 723 027f 05       		.byte	0x5
 724 0280 5E01     		.2byte	0x15e
 725 0282 19       		.byte	0x19
 726 0283 C4070000 		.4byte	0x7c4
 727 0287 50       		.byte	0x50
 728 0288 00       		.byte	0
 729 0289 04       		.uleb128 0x4
 730 028a C3070000 		.4byte	.LASF49
 731 028e 04       		.byte	0x4
 732 028f 44       		.byte	0x44
 733 0290 14       		.byte	0x14
 734 0291 95020000 		.4byte	0x295
 735 0295 0A       		.uleb128 0xa
 736 0296 04       		.byte	0x4
ARM GAS  /tmp/cckx0m9S.s 			page 14


 737 0297 48010000 		.4byte	0x148
 738 029b 04       		.uleb128 0x4
 739 029c 7C030000 		.4byte	.LASF50
 740 02a0 04       		.byte	0x4
 741 02a1 49       		.byte	0x49
 742 02a2 20       		.byte	0x20
 743 02a3 A7020000 		.4byte	0x2a7
 744 02a7 06       		.uleb128 0x6
 745 02a8 F3060000 		.4byte	.LASF52
 746 02ac 04       		.byte	0x4
 747 02ad 05       		.byte	0x5
 748 02ae B0       		.byte	0xb0
 749 02af 08       		.byte	0x8
 750 02b0 C2020000 		.4byte	0x2c2
 751 02b4 07       		.uleb128 0x7
 752 02b5 48060000 		.4byte	.LASF28
 753 02b9 05       		.byte	0x5
 754 02ba B1       		.byte	0xb1
 755 02bb 1A       		.byte	0x1a
 756 02bc 95020000 		.4byte	0x295
 757 02c0 00       		.byte	0
 758 02c1 00       		.byte	0
 759 02c2 04       		.uleb128 0x4
 760 02c3 7F060000 		.4byte	.LASF53
 761 02c7 04       		.byte	0x4
 762 02c8 50       		.byte	0x50
 763 02c9 21       		.byte	0x21
 764 02ca CE020000 		.4byte	0x2ce
 765 02ce 06       		.uleb128 0x6
 766 02cf 63000000 		.4byte	.LASF54
 767 02d3 08       		.byte	0x8
 768 02d4 05       		.byte	0x5
 769 02d5 B7       		.byte	0xb7
 770 02d6 08       		.byte	0x8
 771 02d7 F6020000 		.4byte	0x2f6
 772 02db 07       		.uleb128 0x7
 773 02dc 48060000 		.4byte	.LASF28
 774 02e0 05       		.byte	0x5
 775 02e1 B8       		.byte	0xb8
 776 02e2 1A       		.byte	0x1a
 777 02e3 95020000 		.4byte	0x295
 778 02e7 00       		.byte	0
 779 02e8 07       		.uleb128 0x7
 780 02e9 E0050000 		.4byte	.LASF29
 781 02ed 05       		.byte	0x5
 782 02ee B9       		.byte	0xb9
 783 02ef 1A       		.byte	0x1a
 784 02f0 95020000 		.4byte	0x295
 785 02f4 04       		.byte	0x4
 786 02f5 00       		.byte	0
 787 02f6 04       		.uleb128 0x4
 788 02f7 0D000000 		.4byte	.LASF55
 789 02fb 04       		.byte	0x4
 790 02fc 57       		.byte	0x57
 791 02fd 1E       		.byte	0x1e
 792 02fe 02030000 		.4byte	0x302
 793 0302 0B       		.uleb128 0xb
ARM GAS  /tmp/cckx0m9S.s 			page 15


 794 0303 58030000 		.4byte	.LASF56
 795 0307 1C       		.byte	0x1c
 796 0308 05       		.byte	0x5
 797 0309 9001     		.2byte	0x190
 798 030b 08       		.byte	0x8
 799 030c 65030000 		.4byte	0x365
 800 0310 09       		.uleb128 0x9
 801 0311 EB060000 		.4byte	.LASF57
 802 0315 05       		.byte	0x5
 803 0316 9101     		.2byte	0x191
 804 0318 19       		.byte	0x19
 805 0319 C2020000 		.4byte	0x2c2
 806 031d 00       		.byte	0
 807 031e 09       		.uleb128 0x9
 808 031f 3A060000 		.4byte	.LASF58
 809 0323 05       		.byte	0x5
 810 0324 9201     		.2byte	0x192
 811 0326 19       		.byte	0x19
 812 0327 FB000000 		.4byte	0xfb
 813 032b 08       		.byte	0x8
 814 032c 09       		.uleb128 0x9
 815 032d 27040000 		.4byte	.LASF59
 816 0331 05       		.byte	0x5
 817 0332 9401     		.2byte	0x194
 818 0334 19       		.byte	0x19
 819 0335 3E050000 		.4byte	0x53e
 820 0339 0C       		.byte	0xc
 821 033a 09       		.uleb128 0x9
 822 033b CF010000 		.4byte	.LASF60
 823 033f 05       		.byte	0x5
 824 0340 9701     		.2byte	0x197
 825 0342 1A       		.byte	0x1a
 826 0343 95020000 		.4byte	0x295
 827 0347 10       		.byte	0x10
 828 0348 09       		.uleb128 0x9
 829 0349 A0050000 		.4byte	.LASF61
 830 034d 05       		.byte	0x5
 831 034e 9801     		.2byte	0x198
 832 0350 1A       		.byte	0x1a
 833 0351 95020000 		.4byte	0x295
 834 0355 14       		.byte	0x14
 835 0356 09       		.uleb128 0x9
 836 0357 96050000 		.4byte	.LASF62
 837 035b 05       		.byte	0x5
 838 035c 9B01     		.2byte	0x19b
 839 035e 1A       		.byte	0x1a
 840 035f 95020000 		.4byte	0x295
 841 0363 18       		.byte	0x18
 842 0364 00       		.byte	0
 843 0365 04       		.uleb128 0x4
 844 0366 53070000 		.4byte	.LASF63
 845 036a 04       		.byte	0x4
 846 036b 5C       		.byte	0x5c
 847 036c 10       		.byte	0x10
 848 036d 71030000 		.4byte	0x371
 849 0371 0A       		.uleb128 0xa
 850 0372 04       		.byte	0x4
ARM GAS  /tmp/cckx0m9S.s 			page 16


 851 0373 77030000 		.4byte	0x377
 852 0377 0C       		.uleb128 0xc
 853 0378 82030000 		.4byte	0x382
 854 037c 0D       		.uleb128 0xd
 855 037d 82030000 		.4byte	0x382
 856 0381 00       		.byte	0
 857 0382 0E       		.uleb128 0xe
 858 0383 04       		.byte	0x4
 859 0384 04       		.uleb128 0x4
 860 0385 D0050000 		.4byte	.LASF64
 861 0389 04       		.byte	0x4
 862 038a 61       		.byte	0x61
 863 038b 21       		.byte	0x21
 864 038c 90030000 		.4byte	0x390
 865 0390 0B       		.uleb128 0xb
 866 0391 8F060000 		.4byte	.LASF65
 867 0395 14       		.byte	0x14
 868 0396 05       		.byte	0x5
 869 0397 6B01     		.2byte	0x16b
 870 0399 08       		.byte	0x8
 871 039a E5030000 		.4byte	0x3e5
 872 039e 09       		.uleb128 0x9
 873 039f 46020000 		.4byte	.LASF66
 874 03a3 05       		.byte	0x5
 875 03a4 6C01     		.2byte	0x16c
 876 03a6 1A       		.byte	0x1a
 877 03a7 18090000 		.4byte	0x918
 878 03ab 00       		.byte	0
 879 03ac 09       		.uleb128 0x9
 880 03ad E0010000 		.4byte	.LASF67
 881 03b1 05       		.byte	0x5
 882 03b2 6D01     		.2byte	0x16d
 883 03b4 1A       		.byte	0x1a
 884 03b5 18090000 		.4byte	0x918
 885 03b9 04       		.byte	0x4
 886 03ba 09       		.uleb128 0x9
 887 03bb 75020000 		.4byte	.LASF68
 888 03bf 05       		.byte	0x5
 889 03c0 6E01     		.2byte	0x16e
 890 03c2 19       		.byte	0x19
 891 03c3 37010000 		.4byte	0x137
 892 03c7 08       		.byte	0x8
 893 03c8 09       		.uleb128 0x9
 894 03c9 3C080000 		.4byte	.LASF69
 895 03cd 05       		.byte	0x5
 896 03ce 6F01     		.2byte	0x16f
 897 03d0 19       		.byte	0x19
 898 03d1 65030000 		.4byte	0x365
 899 03d5 0C       		.byte	0xc
 900 03d6 09       		.uleb128 0x9
 901 03d7 7B070000 		.4byte	.LASF70
 902 03db 05       		.byte	0x5
 903 03dc 7101     		.2byte	0x171
 904 03de 1A       		.byte	0x1a
 905 03df 82030000 		.4byte	0x382
 906 03e3 10       		.byte	0x10
 907 03e4 00       		.byte	0
ARM GAS  /tmp/cckx0m9S.s 			page 17


 908 03e5 04       		.uleb128 0x4
 909 03e6 F4000000 		.4byte	.LASF71
 910 03ea 04       		.byte	0x4
 911 03eb 66       		.byte	0x66
 912 03ec 28       		.byte	0x28
 913 03ed F1030000 		.4byte	0x3f1
 914 03f1 0B       		.uleb128 0xb
 915 03f2 B1030000 		.4byte	.LASF72
 916 03f6 10       		.byte	0x10
 917 03f7 05       		.byte	0x5
 918 03f8 7B01     		.2byte	0x17b
 919 03fa 08       		.byte	0x8
 920 03fb 38040000 		.4byte	0x438
 921 03ff 09       		.uleb128 0x9
 922 0400 46020000 		.4byte	.LASF66
 923 0404 05       		.byte	0x5
 924 0405 7C01     		.2byte	0x17c
 925 0407 1A       		.byte	0x1a
 926 0408 18090000 		.4byte	0x918
 927 040c 00       		.byte	0
 928 040d 09       		.uleb128 0x9
 929 040e E0010000 		.4byte	.LASF67
 930 0412 05       		.byte	0x5
 931 0413 7E01     		.2byte	0x17e
 932 0415 1A       		.byte	0x1a
 933 0416 18090000 		.4byte	0x918
 934 041a 04       		.byte	0x4
 935 041b 09       		.uleb128 0x9
 936 041c 75020000 		.4byte	.LASF68
 937 0420 05       		.byte	0x5
 938 0421 8001     		.2byte	0x180
 939 0423 19       		.byte	0x19
 940 0424 37010000 		.4byte	0x137
 941 0428 08       		.byte	0x8
 942 0429 09       		.uleb128 0x9
 943 042a E4070000 		.4byte	.LASF73
 944 042e 05       		.byte	0x5
 945 042f 8201     		.2byte	0x182
 946 0431 19       		.byte	0x19
 947 0432 43010000 		.4byte	0x143
 948 0436 0C       		.byte	0xc
 949 0437 00       		.byte	0
 950 0438 04       		.uleb128 0x4
 951 0439 74000000 		.4byte	.LASF74
 952 043d 04       		.byte	0x4
 953 043e 6B       		.byte	0x6b
 954 043f 20       		.byte	0x20
 955 0440 44040000 		.4byte	0x444
 956 0444 0F       		.uleb128 0xf
 957 0445 F2010000 		.4byte	.LASF75
 958 0449 1404     		.2byte	0x414
 959 044b 05       		.byte	0x5
 960 044c A201     		.2byte	0x1a2
 961 044e 08       		.byte	0x8
 962 044f 8C040000 		.4byte	0x48c
 963 0453 09       		.uleb128 0x9
 964 0454 5C070000 		.4byte	.LASF76
ARM GAS  /tmp/cckx0m9S.s 			page 18


 965 0458 05       		.byte	0x5
 966 0459 AA01     		.2byte	0x1aa
 967 045b 24       		.byte	0x24
 968 045c 01090000 		.4byte	0x901
 969 0460 00       		.byte	0
 970 0461 09       		.uleb128 0x9
 971 0462 A4070000 		.4byte	.LASF77
 972 0466 05       		.byte	0x5
 973 0467 AF01     		.2byte	0x1af
 974 0469 19       		.byte	0x19
 975 046a 1F010000 		.4byte	0x11f
 976 046e 04       		.byte	0x4
 977 046f 09       		.uleb128 0x9
 978 0470 10020000 		.4byte	.LASF78
 979 0474 05       		.byte	0x5
 980 0475 B301     		.2byte	0x1b3
 981 0477 19       		.byte	0x19
 982 0478 1F010000 		.4byte	0x11f
 983 047c 08       		.byte	0x8
 984 047d 09       		.uleb128 0x9
 985 047e EF070000 		.4byte	.LASF79
 986 0482 05       		.byte	0x5
 987 0483 B901     		.2byte	0x1b9
 988 0485 19       		.byte	0x19
 989 0486 4C070000 		.4byte	0x74c
 990 048a 0C       		.byte	0xc
 991 048b 00       		.byte	0
 992 048c 04       		.uleb128 0x4
 993 048d 35030000 		.4byte	.LASF80
 994 0491 04       		.byte	0x4
 995 0492 70       		.byte	0x70
 996 0493 1A       		.byte	0x1a
 997 0494 98040000 		.4byte	0x498
 998 0498 0F       		.uleb128 0xf
 999 0499 95010000 		.4byte	.LASF81
 1000 049d 7006     		.2byte	0x670
 1001 049f 05       		.byte	0x5
 1002 04a0 C201     		.2byte	0x1c2
 1003 04a2 08       		.byte	0x8
 1004 04a3 0D050000 		.4byte	0x50d
 1005 04a7 09       		.uleb128 0x9
 1006 04a8 B5070000 		.4byte	.LASF82
 1007 04ac 05       		.byte	0x5
 1008 04ad C601     		.2byte	0x1c6
 1009 04af 19       		.byte	0x19
 1010 04b0 F6020000 		.4byte	0x2f6
 1011 04b4 00       		.byte	0
 1012 04b5 09       		.uleb128 0x9
 1013 04b6 84010000 		.4byte	.LASF83
 1014 04ba 05       		.byte	0x5
 1015 04bb CA01     		.2byte	0x1ca
 1016 04bd 19       		.byte	0x19
 1017 04be E5030000 		.4byte	0x3e5
 1018 04c2 1C       		.byte	0x1c
 1019 04c3 08       		.uleb128 0x8
 1020 04c4 64626700 		.ascii	"dbg\000"
 1021 04c8 05       		.byte	0x5
ARM GAS  /tmp/cckx0m9S.s 			page 19


 1022 04c9 CE01     		.2byte	0x1ce
 1023 04cb 19       		.byte	0x19
 1024 04cc 38040000 		.4byte	0x438
 1025 04d0 2C       		.byte	0x2c
 1026 04d1 10       		.uleb128 0x10
 1027 04d2 E9000000 		.4byte	.LASF84
 1028 04d6 05       		.byte	0x5
 1029 04d7 D201     		.2byte	0x1d2
 1030 04d9 19       		.byte	0x19
 1031 04da 48010000 		.4byte	0x148
 1032 04de 4004     		.2byte	0x440
 1033 04e0 11       		.uleb128 0x11
 1034 04e1 746D00   		.ascii	"tm\000"
 1035 04e4 05       		.byte	0x5
 1036 04e5 D701     		.2byte	0x1d7
 1037 04e7 19       		.byte	0x19
 1038 04e8 6F070000 		.4byte	0x76f
 1039 04ec A804     		.2byte	0x4a8
 1040 04ee 10       		.uleb128 0x10
 1041 04ef 3E000000 		.4byte	.LASF85
 1042 04f3 05       		.byte	0x5
 1043 04f4 DD01     		.2byte	0x1dd
 1044 04f6 19       		.byte	0x19
 1045 04f7 0E080000 		.4byte	0x80e
 1046 04fb B004     		.2byte	0x4b0
 1047 04fd 10       		.uleb128 0x10
 1048 04fe 19020000 		.4byte	.LASF86
 1049 0502 05       		.byte	0x5
 1050 0503 E301     		.2byte	0x1e3
 1051 0505 03       		.byte	0x3
 1052 0506 1E090000 		.4byte	0x91e
 1053 050a E804     		.2byte	0x4e8
 1054 050c 00       		.byte	0
 1055 050d 12       		.uleb128 0x12
 1056 050e 0A010000 		.4byte	.LASF87
 1057 0512 06       		.byte	0x6
 1058 0513 A706     		.2byte	0x6a7
 1059 0515 19       		.byte	0x19
 1060 0516 5B000000 		.4byte	0x5b
 1061 051a 13       		.uleb128 0x13
 1062 051b 57020000 		.4byte	.LASF88
 1063 051f 07       		.byte	0x7
 1064 0520 4C       		.byte	0x4c
 1065 0521 11       		.byte	0x11
 1066 0522 8D000000 		.4byte	0x8d
 1067 0526 04       		.uleb128 0x4
 1068 0527 D7010000 		.4byte	.LASF89
 1069 052b 08       		.byte	0x8
 1070 052c 65       		.byte	0x65
 1071 052d 0F       		.byte	0xf
 1072 052e 82030000 		.4byte	0x382
 1073 0532 04       		.uleb128 0x4
 1074 0533 71030000 		.4byte	.LASF90
 1075 0537 08       		.byte	0x8
 1076 0538 6D       		.byte	0x6d
 1077 0539 12       		.byte	0x12
 1078 053a A0000000 		.4byte	0xa0
ARM GAS  /tmp/cckx0m9S.s 			page 20


 1079 053e 06       		.uleb128 0x6
 1080 053f 6D070000 		.4byte	.LASF91
 1081 0543 04       		.byte	0x4
 1082 0544 08       		.byte	0x8
 1083 0545 89       		.byte	0x89
 1084 0546 08       		.byte	0x8
 1085 0547 59050000 		.4byte	0x559
 1086 054b 14       		.uleb128 0x14
 1087 054c 72313300 		.ascii	"r13\000"
 1088 0550 08       		.byte	0x8
 1089 0551 8A       		.byte	0x8a
 1090 0552 17       		.byte	0x17
 1091 0553 B4060000 		.4byte	0x6b4
 1092 0557 00       		.byte	0
 1093 0558 00       		.byte	0
 1094 0559 06       		.uleb128 0x6
 1095 055a 57000000 		.4byte	.LASF92
 1096 055e 64       		.byte	0x64
 1097 055f 09       		.byte	0x9
 1098 0560 F4       		.byte	0xf4
 1099 0561 08       		.byte	0x8
 1100 0562 B4060000 		.4byte	0x6b4
 1101 0566 14       		.uleb128 0x14
 1102 0567 73313600 		.ascii	"s16\000"
 1103 056b 09       		.byte	0x9
 1104 056c F6       		.byte	0xf6
 1105 056d 11       		.byte	0x11
 1106 056e 26050000 		.4byte	0x526
 1107 0572 00       		.byte	0
 1108 0573 14       		.uleb128 0x14
 1109 0574 73313700 		.ascii	"s17\000"
 1110 0578 09       		.byte	0x9
 1111 0579 F7       		.byte	0xf7
 1112 057a 11       		.byte	0x11
 1113 057b 26050000 		.4byte	0x526
 1114 057f 04       		.byte	0x4
 1115 0580 14       		.uleb128 0x14
 1116 0581 73313800 		.ascii	"s18\000"
 1117 0585 09       		.byte	0x9
 1118 0586 F8       		.byte	0xf8
 1119 0587 11       		.byte	0x11
 1120 0588 26050000 		.4byte	0x526
 1121 058c 08       		.byte	0x8
 1122 058d 14       		.uleb128 0x14
 1123 058e 73313900 		.ascii	"s19\000"
 1124 0592 09       		.byte	0x9
 1125 0593 F9       		.byte	0xf9
 1126 0594 11       		.byte	0x11
 1127 0595 26050000 		.4byte	0x526
 1128 0599 0C       		.byte	0xc
 1129 059a 14       		.uleb128 0x14
 1130 059b 73323000 		.ascii	"s20\000"
 1131 059f 09       		.byte	0x9
 1132 05a0 FA       		.byte	0xfa
 1133 05a1 11       		.byte	0x11
 1134 05a2 26050000 		.4byte	0x526
 1135 05a6 10       		.byte	0x10
ARM GAS  /tmp/cckx0m9S.s 			page 21


 1136 05a7 14       		.uleb128 0x14
 1137 05a8 73323100 		.ascii	"s21\000"
 1138 05ac 09       		.byte	0x9
 1139 05ad FB       		.byte	0xfb
 1140 05ae 11       		.byte	0x11
 1141 05af 26050000 		.4byte	0x526
 1142 05b3 14       		.byte	0x14
 1143 05b4 14       		.uleb128 0x14
 1144 05b5 73323200 		.ascii	"s22\000"
 1145 05b9 09       		.byte	0x9
 1146 05ba FC       		.byte	0xfc
 1147 05bb 11       		.byte	0x11
 1148 05bc 26050000 		.4byte	0x526
 1149 05c0 18       		.byte	0x18
 1150 05c1 14       		.uleb128 0x14
 1151 05c2 73323300 		.ascii	"s23\000"
 1152 05c6 09       		.byte	0x9
 1153 05c7 FD       		.byte	0xfd
 1154 05c8 11       		.byte	0x11
 1155 05c9 26050000 		.4byte	0x526
 1156 05cd 1C       		.byte	0x1c
 1157 05ce 14       		.uleb128 0x14
 1158 05cf 73323400 		.ascii	"s24\000"
 1159 05d3 09       		.byte	0x9
 1160 05d4 FE       		.byte	0xfe
 1161 05d5 11       		.byte	0x11
 1162 05d6 26050000 		.4byte	0x526
 1163 05da 20       		.byte	0x20
 1164 05db 14       		.uleb128 0x14
 1165 05dc 73323500 		.ascii	"s25\000"
 1166 05e0 09       		.byte	0x9
 1167 05e1 FF       		.byte	0xff
 1168 05e2 11       		.byte	0x11
 1169 05e3 26050000 		.4byte	0x526
 1170 05e7 24       		.byte	0x24
 1171 05e8 08       		.uleb128 0x8
 1172 05e9 73323600 		.ascii	"s26\000"
 1173 05ed 09       		.byte	0x9
 1174 05ee 0001     		.2byte	0x100
 1175 05f0 11       		.byte	0x11
 1176 05f1 26050000 		.4byte	0x526
 1177 05f5 28       		.byte	0x28
 1178 05f6 08       		.uleb128 0x8
 1179 05f7 73323700 		.ascii	"s27\000"
 1180 05fb 09       		.byte	0x9
 1181 05fc 0101     		.2byte	0x101
 1182 05fe 11       		.byte	0x11
 1183 05ff 26050000 		.4byte	0x526
 1184 0603 2C       		.byte	0x2c
 1185 0604 08       		.uleb128 0x8
 1186 0605 73323800 		.ascii	"s28\000"
 1187 0609 09       		.byte	0x9
 1188 060a 0201     		.2byte	0x102
 1189 060c 11       		.byte	0x11
 1190 060d 26050000 		.4byte	0x526
 1191 0611 30       		.byte	0x30
 1192 0612 08       		.uleb128 0x8
ARM GAS  /tmp/cckx0m9S.s 			page 22


 1193 0613 73323900 		.ascii	"s29\000"
 1194 0617 09       		.byte	0x9
 1195 0618 0301     		.2byte	0x103
 1196 061a 11       		.byte	0x11
 1197 061b 26050000 		.4byte	0x526
 1198 061f 34       		.byte	0x34
 1199 0620 08       		.uleb128 0x8
 1200 0621 73333000 		.ascii	"s30\000"
 1201 0625 09       		.byte	0x9
 1202 0626 0401     		.2byte	0x104
 1203 0628 11       		.byte	0x11
 1204 0629 26050000 		.4byte	0x526
 1205 062d 38       		.byte	0x38
 1206 062e 08       		.uleb128 0x8
 1207 062f 73333100 		.ascii	"s31\000"
 1208 0633 09       		.byte	0x9
 1209 0634 0501     		.2byte	0x105
 1210 0636 11       		.byte	0x11
 1211 0637 26050000 		.4byte	0x526
 1212 063b 3C       		.byte	0x3c
 1213 063c 08       		.uleb128 0x8
 1214 063d 723400   		.ascii	"r4\000"
 1215 0640 09       		.byte	0x9
 1216 0641 0701     		.2byte	0x107
 1217 0643 11       		.byte	0x11
 1218 0644 26050000 		.4byte	0x526
 1219 0648 40       		.byte	0x40
 1220 0649 08       		.uleb128 0x8
 1221 064a 723500   		.ascii	"r5\000"
 1222 064d 09       		.byte	0x9
 1223 064e 0801     		.2byte	0x108
 1224 0650 11       		.byte	0x11
 1225 0651 26050000 		.4byte	0x526
 1226 0655 44       		.byte	0x44
 1227 0656 08       		.uleb128 0x8
 1228 0657 723600   		.ascii	"r6\000"
 1229 065a 09       		.byte	0x9
 1230 065b 0901     		.2byte	0x109
 1231 065d 11       		.byte	0x11
 1232 065e 26050000 		.4byte	0x526
 1233 0662 48       		.byte	0x48
 1234 0663 08       		.uleb128 0x8
 1235 0664 723700   		.ascii	"r7\000"
 1236 0667 09       		.byte	0x9
 1237 0668 0A01     		.2byte	0x10a
 1238 066a 11       		.byte	0x11
 1239 066b 26050000 		.4byte	0x526
 1240 066f 4C       		.byte	0x4c
 1241 0670 08       		.uleb128 0x8
 1242 0671 723800   		.ascii	"r8\000"
 1243 0674 09       		.byte	0x9
 1244 0675 0B01     		.2byte	0x10b
 1245 0677 11       		.byte	0x11
 1246 0678 26050000 		.4byte	0x526
 1247 067c 50       		.byte	0x50
 1248 067d 08       		.uleb128 0x8
 1249 067e 723900   		.ascii	"r9\000"
ARM GAS  /tmp/cckx0m9S.s 			page 23


 1250 0681 09       		.byte	0x9
 1251 0682 0C01     		.2byte	0x10c
 1252 0684 11       		.byte	0x11
 1253 0685 26050000 		.4byte	0x526
 1254 0689 54       		.byte	0x54
 1255 068a 08       		.uleb128 0x8
 1256 068b 72313000 		.ascii	"r10\000"
 1257 068f 09       		.byte	0x9
 1258 0690 0D01     		.2byte	0x10d
 1259 0692 11       		.byte	0x11
 1260 0693 26050000 		.4byte	0x526
 1261 0697 58       		.byte	0x58
 1262 0698 08       		.uleb128 0x8
 1263 0699 72313100 		.ascii	"r11\000"
 1264 069d 09       		.byte	0x9
 1265 069e 0E01     		.2byte	0x10e
 1266 06a0 11       		.byte	0x11
 1267 06a1 26050000 		.4byte	0x526
 1268 06a5 5C       		.byte	0x5c
 1269 06a6 08       		.uleb128 0x8
 1270 06a7 6C7200   		.ascii	"lr\000"
 1271 06aa 09       		.byte	0x9
 1272 06ab 0F01     		.2byte	0x10f
 1273 06ad 11       		.byte	0x11
 1274 06ae 26050000 		.4byte	0x526
 1275 06b2 60       		.byte	0x60
 1276 06b3 00       		.byte	0
 1277 06b4 0A       		.uleb128 0xa
 1278 06b5 04       		.byte	0x4
 1279 06b6 59050000 		.4byte	0x559
 1280 06ba 15       		.uleb128 0x15
 1281 06bb 10       		.byte	0x10
 1282 06bc 0A       		.byte	0xa
 1283 06bd 51       		.byte	0x51
 1284 06be 09       		.byte	0x9
 1285 06bf F8060000 		.4byte	0x6f8
 1286 06c3 07       		.uleb128 0x7
 1287 06c4 1A000000 		.4byte	.LASF93
 1288 06c8 0A       		.byte	0xa
 1289 06c9 55       		.byte	0x55
 1290 06ca 19       		.byte	0x19
 1291 06cb 37010000 		.4byte	0x137
 1292 06cf 00       		.byte	0
 1293 06d0 07       		.uleb128 0x7
 1294 06d1 B1010000 		.4byte	.LASF94
 1295 06d5 0A       		.byte	0xa
 1296 06d6 59       		.byte	0x59
 1297 06d7 1A       		.byte	0x1a
 1298 06d8 95020000 		.4byte	0x295
 1299 06dc 04       		.byte	0x4
 1300 06dd 07       		.uleb128 0x7
 1301 06de 24080000 		.4byte	.LASF95
 1302 06e2 0A       		.byte	0xa
 1303 06e3 5D       		.byte	0x5d
 1304 06e4 1A       		.byte	0x1a
 1305 06e5 82030000 		.4byte	0x382
 1306 06e9 08       		.byte	0x8
ARM GAS  /tmp/cckx0m9S.s 			page 24


 1307 06ea 07       		.uleb128 0x7
 1308 06eb AC070000 		.4byte	.LASF96
 1309 06ef 0A       		.byte	0xa
 1310 06f0 61       		.byte	0x61
 1311 06f1 19       		.byte	0x19
 1312 06f2 67000000 		.4byte	0x67
 1313 06f6 0C       		.byte	0xc
 1314 06f7 00       		.byte	0
 1315 06f8 04       		.uleb128 0x4
 1316 06f9 04040000 		.4byte	.LASF97
 1317 06fd 0A       		.byte	0xa
 1318 06fe 62       		.byte	0x62
 1319 06ff 03       		.byte	0x3
 1320 0700 BA060000 		.4byte	0x6ba
 1321 0704 16       		.uleb128 0x16
 1322 0705 0804     		.2byte	0x408
 1323 0707 0A       		.byte	0xa
 1324 0708 67       		.byte	0x67
 1325 0709 09       		.byte	0x9
 1326 070a 36070000 		.4byte	0x736
 1327 070e 07       		.uleb128 0x7
 1328 070f C7010000 		.4byte	.LASF98
 1329 0713 0A       		.byte	0xa
 1330 0714 6B       		.byte	0x6b
 1331 0715 19       		.byte	0x19
 1332 0716 2C000000 		.4byte	0x2c
 1333 071a 00       		.byte	0
 1334 071b 07       		.uleb128 0x7
 1335 071c E0030000 		.4byte	.LASF99
 1336 0720 0A       		.byte	0xa
 1337 0721 6F       		.byte	0x6f
 1338 0722 1A       		.byte	0x1a
 1339 0723 36070000 		.4byte	0x736
 1340 0727 04       		.byte	0x4
 1341 0728 07       		.uleb128 0x7
 1342 0729 BB050000 		.4byte	.LASF100
 1343 072d 0A       		.byte	0xa
 1344 072e 73       		.byte	0x73
 1345 072f 19       		.byte	0x19
 1346 0730 3C070000 		.4byte	0x73c
 1347 0734 08       		.byte	0x8
 1348 0735 00       		.byte	0
 1349 0736 0A       		.uleb128 0xa
 1350 0737 04       		.byte	0x4
 1351 0738 F8060000 		.4byte	0x6f8
 1352 073c 17       		.uleb128 0x17
 1353 073d F8060000 		.4byte	0x6f8
 1354 0741 4C070000 		.4byte	0x74c
 1355 0745 18       		.uleb128 0x18
 1356 0746 2C000000 		.4byte	0x2c
 1357 074a 3F       		.byte	0x3f
 1358 074b 00       		.byte	0
 1359 074c 04       		.uleb128 0x4
 1360 074d B3000000 		.4byte	.LASF101
 1361 0751 0A       		.byte	0xa
 1362 0752 74       		.byte	0x74
 1363 0753 03       		.byte	0x3
ARM GAS  /tmp/cckx0m9S.s 			page 25


 1364 0754 04070000 		.4byte	0x704
 1365 0758 15       		.uleb128 0x15
 1366 0759 04       		.byte	0x4
 1367 075a 0B       		.byte	0xb
 1368 075b 38       		.byte	0x38
 1369 075c 09       		.byte	0x9
 1370 075d 6F070000 		.4byte	0x76f
 1371 0761 07       		.uleb128 0x7
 1372 0762 66070000 		.4byte	.LASF102
 1373 0766 0B       		.byte	0xb
 1374 0767 3C       		.byte	0x3c
 1375 0768 19       		.byte	0x19
 1376 0769 B3000000 		.4byte	0xb3
 1377 076d 00       		.byte	0
 1378 076e 00       		.byte	0
 1379 076f 04       		.uleb128 0x4
 1380 0770 33040000 		.4byte	.LASF103
 1381 0774 0B       		.byte	0xb
 1382 0775 3D       		.byte	0x3d
 1383 0776 03       		.byte	0x3
 1384 0777 58070000 		.4byte	0x758
 1385 077b 15       		.uleb128 0x15
 1386 077c 18       		.byte	0x18
 1387 077d 0B       		.byte	0xb
 1388 077e 48       		.byte	0x48
 1389 077f 09       		.byte	0x9
 1390 0780 C4070000 		.4byte	0x7c4
 1391 0784 07       		.uleb128 0x7
 1392 0785 32070000 		.4byte	.LASF104
 1393 0789 0B       		.byte	0xb
 1394 078a 49       		.byte	0x49
 1395 078b 19       		.byte	0x19
 1396 078c B3000000 		.4byte	0xb3
 1397 0790 00       		.byte	0
 1398 0791 07       		.uleb128 0x7
 1399 0792 83000000 		.4byte	.LASF105
 1400 0796 0B       		.byte	0xb
 1401 0797 4A       		.byte	0x4a
 1402 0798 19       		.byte	0x19
 1403 0799 B3000000 		.4byte	0xb3
 1404 079d 04       		.byte	0x4
 1405 079e 07       		.uleb128 0x7
 1406 079f 18030000 		.4byte	.LASF106
 1407 07a3 0B       		.byte	0xb
 1408 07a4 4B       		.byte	0x4b
 1409 07a5 19       		.byte	0x19
 1410 07a6 B3000000 		.4byte	0xb3
 1411 07aa 08       		.byte	0x8
 1412 07ab 14       		.uleb128 0x14
 1413 07ac 6E00     		.ascii	"n\000"
 1414 07ae 0B       		.byte	0xb
 1415 07af 4C       		.byte	0x4c
 1416 07b0 19       		.byte	0x19
 1417 07b1 2B010000 		.4byte	0x12b
 1418 07b5 0C       		.byte	0xc
 1419 07b6 07       		.uleb128 0x7
 1420 07b7 A8050000 		.4byte	.LASF107
ARM GAS  /tmp/cckx0m9S.s 			page 26


 1421 07bb 0B       		.byte	0xb
 1422 07bc 4D       		.byte	0x4d
 1423 07bd 19       		.byte	0x19
 1424 07be BF000000 		.4byte	0xbf
 1425 07c2 10       		.byte	0x10
 1426 07c3 00       		.byte	0
 1427 07c4 04       		.uleb128 0x4
 1428 07c5 89000000 		.4byte	.LASF108
 1429 07c9 0B       		.byte	0xb
 1430 07ca 4E       		.byte	0x4e
 1431 07cb 03       		.byte	0x3
 1432 07cc 7B070000 		.4byte	0x77b
 1433 07d0 15       		.uleb128 0x15
 1434 07d1 38       		.byte	0x38
 1435 07d2 0C       		.byte	0xc
 1436 07d3 38       		.byte	0x38
 1437 07d4 09       		.byte	0x9
 1438 07d5 0E080000 		.4byte	0x80e
 1439 07d9 07       		.uleb128 0x7
 1440 07da 92020000 		.4byte	.LASF109
 1441 07de 0C       		.byte	0xc
 1442 07df 39       		.byte	0x39
 1443 07e0 19       		.byte	0x19
 1444 07e1 2B010000 		.4byte	0x12b
 1445 07e5 00       		.byte	0
 1446 07e6 07       		.uleb128 0x7
 1447 07e7 EF050000 		.4byte	.LASF110
 1448 07eb 0C       		.byte	0xc
 1449 07ec 3A       		.byte	0x3a
 1450 07ed 19       		.byte	0x19
 1451 07ee 2B010000 		.4byte	0x12b
 1452 07f2 04       		.byte	0x4
 1453 07f3 07       		.uleb128 0x7
 1454 07f4 07080000 		.4byte	.LASF111
 1455 07f8 0C       		.byte	0xc
 1456 07f9 3B       		.byte	0x3b
 1457 07fa 19       		.byte	0x19
 1458 07fb C4070000 		.4byte	0x7c4
 1459 07ff 08       		.byte	0x8
 1460 0800 07       		.uleb128 0x7
 1461 0801 4D030000 		.4byte	.LASF112
 1462 0805 0C       		.byte	0xc
 1463 0806 3D       		.byte	0x3d
 1464 0807 19       		.byte	0x19
 1465 0808 C4070000 		.4byte	0x7c4
 1466 080c 20       		.byte	0x20
 1467 080d 00       		.byte	0
 1468 080e 04       		.uleb128 0x4
 1469 080f F9020000 		.4byte	.LASF113
 1470 0813 0C       		.byte	0xc
 1471 0814 3F       		.byte	0x3f
 1472 0815 03       		.byte	0x3
 1473 0816 D0070000 		.4byte	0x7d0
 1474 081a 19       		.uleb128 0x19
 1475 081b 04       		.byte	0x4
 1476 081c 05       		.byte	0x5
 1477 081d FA       		.byte	0xfa
ARM GAS  /tmp/cckx0m9S.s 			page 27


 1478 081e 03       		.byte	0x3
 1479 081f 7F080000 		.4byte	0x87f
 1480 0823 1A       		.uleb128 0x1a
 1481 0824 2E000000 		.4byte	.LASF114
 1482 0828 05       		.byte	0x5
 1483 0829 0101     		.2byte	0x101
 1484 082b 19       		.byte	0x19
 1485 082c 07010000 		.4byte	0x107
 1486 0830 1A       		.uleb128 0x1a
 1487 0831 E0000000 		.4byte	.LASF115
 1488 0835 05       		.byte	0x5
 1489 0836 0801     		.2byte	0x108
 1490 0838 19       		.byte	0x19
 1491 0839 07010000 		.4byte	0x107
 1492 083d 1A       		.uleb128 0x1a
 1493 083e D6070000 		.4byte	.LASF116
 1494 0842 05       		.byte	0x5
 1495 0843 0F01     		.2byte	0x10f
 1496 0845 1A       		.byte	0x1a
 1497 0846 82030000 		.4byte	0x382
 1498 084a 1A       		.uleb128 0x1a
 1499 084b 22000000 		.4byte	.LASF117
 1500 084f 05       		.byte	0x5
 1501 0850 1601     		.2byte	0x116
 1502 0852 1A       		.byte	0x1a
 1503 0853 7F080000 		.4byte	0x87f
 1504 0857 1A       		.uleb128 0x1a
 1505 0858 6E020000 		.4byte	.LASF118
 1506 085c 05       		.byte	0x5
 1507 085d 1E01     		.2byte	0x11e
 1508 085f 1A       		.byte	0x1a
 1509 0860 AD080000 		.4byte	0x8ad
 1510 0864 1A       		.uleb128 0x1a
 1511 0865 22070000 		.4byte	.LASF119
 1512 0869 05       		.byte	0x5
 1513 086a 2701     		.2byte	0x127
 1514 086c 1A       		.byte	0x1a
 1515 086d F5080000 		.4byte	0x8f5
 1516 0871 1A       		.uleb128 0x1a
 1517 0872 41060000 		.4byte	.LASF120
 1518 0876 05       		.byte	0x5
 1519 0877 2F01     		.2byte	0x12f
 1520 0879 19       		.byte	0x19
 1521 087a 13010000 		.4byte	0x113
 1522 087e 00       		.byte	0
 1523 087f 0A       		.uleb128 0xa
 1524 0880 04       		.byte	0x4
 1525 0881 89020000 		.4byte	0x289
 1526 0885 06       		.uleb128 0x6
 1527 0886 BE060000 		.4byte	.LASF121
 1528 088a 0C       		.byte	0xc
 1529 088b 0D       		.byte	0xd
 1530 088c 34       		.byte	0x34
 1531 088d 10       		.byte	0x10
 1532 088e AD080000 		.4byte	0x8ad
 1533 0892 07       		.uleb128 0x7
 1534 0893 BF010000 		.4byte	.LASF122
ARM GAS  /tmp/cckx0m9S.s 			page 28


 1535 0897 0D       		.byte	0xd
 1536 0898 35       		.byte	0x35
 1537 0899 19       		.byte	0x19
 1538 089a C2020000 		.4byte	0x2c2
 1539 089e 00       		.byte	0
 1540 089f 07       		.uleb128 0x7
 1541 08a0 E0020000 		.4byte	.LASF123
 1542 08a4 0D       		.byte	0xd
 1543 08a5 37       		.byte	0x37
 1544 08a6 19       		.byte	0x19
 1545 08a7 1F010000 		.4byte	0x11f
 1546 08ab 08       		.byte	0x8
 1547 08ac 00       		.byte	0
 1548 08ad 0A       		.uleb128 0xa
 1549 08ae 04       		.byte	0x4
 1550 08af 85080000 		.4byte	0x885
 1551 08b3 06       		.uleb128 0x6
 1552 08b4 94070000 		.4byte	.LASF124
 1553 08b8 14       		.byte	0x14
 1554 08b9 0E       		.byte	0xe
 1555 08ba 39       		.byte	0x39
 1556 08bb 08       		.byte	0x8
 1557 08bc F5080000 		.4byte	0x8f5
 1558 08c0 07       		.uleb128 0x7
 1559 08c1 7C010000 		.4byte	.LASF125
 1560 08c5 0E       		.byte	0xe
 1561 08c6 3A       		.byte	0x3a
 1562 08c7 19       		.byte	0x19
 1563 08c8 C2020000 		.4byte	0x2c2
 1564 08cc 00       		.byte	0
 1565 08cd 07       		.uleb128 0x7
 1566 08ce 12080000 		.4byte	.LASF126
 1567 08d2 0E       		.byte	0xe
 1568 08d3 3C       		.byte	0x3c
 1569 08d4 1A       		.byte	0x1a
 1570 08d5 95020000 		.4byte	0x295
 1571 08d9 08       		.byte	0x8
 1572 08da 07       		.uleb128 0x7
 1573 08db 37070000 		.4byte	.LASF127
 1574 08df 0E       		.byte	0xe
 1575 08e0 3E       		.byte	0x3e
 1576 08e1 1A       		.byte	0x1a
 1577 08e2 670A0000 		.4byte	0xa67
 1578 08e6 0C       		.byte	0xc
 1579 08e7 07       		.uleb128 0x7
 1580 08e8 02020000 		.4byte	.LASF128
 1581 08ec 0E       		.byte	0xe
 1582 08ed 41       		.byte	0x41
 1583 08ee 19       		.byte	0x19
 1584 08ef 1F010000 		.4byte	0x11f
 1585 08f3 10       		.byte	0x10
 1586 08f4 00       		.byte	0
 1587 08f5 0A       		.uleb128 0xa
 1588 08f6 04       		.byte	0x4
 1589 08f7 B3080000 		.4byte	0x8b3
 1590 08fb 0A       		.uleb128 0xa
 1591 08fc 04       		.byte	0x4
ARM GAS  /tmp/cckx0m9S.s 			page 29


 1592 08fd 0D090000 		.4byte	0x90d
 1593 0901 05       		.uleb128 0x5
 1594 0902 FB080000 		.4byte	0x8fb
 1595 0906 03       		.uleb128 0x3
 1596 0907 01       		.byte	0x1
 1597 0908 08       		.byte	0x8
 1598 0909 1D070000 		.4byte	.LASF129
 1599 090d 1B       		.uleb128 0x1b
 1600 090e 06090000 		.4byte	0x906
 1601 0912 0A       		.uleb128 0xa
 1602 0913 04       		.byte	0x4
 1603 0914 32050000 		.4byte	0x532
 1604 0918 0A       		.uleb128 0xa
 1605 0919 04       		.byte	0x4
 1606 091a 84030000 		.4byte	0x384
 1607 091e 17       		.uleb128 0x17
 1608 091f 32050000 		.4byte	0x532
 1609 0923 2E090000 		.4byte	0x92e
 1610 0927 18       		.uleb128 0x18
 1611 0928 2C000000 		.4byte	0x2c
 1612 092c 30       		.byte	0x30
 1613 092d 00       		.byte	0
 1614 092e 1C       		.uleb128 0x1c
 1615 092f 636800   		.ascii	"ch\000"
 1616 0932 05       		.byte	0x5
 1617 0933 0902     		.2byte	0x209
 1618 0935 14       		.byte	0x14
 1619 0936 8C040000 		.4byte	0x48c
 1620 093a 15       		.uleb128 0x15
 1621 093b 16       		.byte	0x16
 1622 093c 0F       		.byte	0xf
 1623 093d 34       		.byte	0x34
 1624 093e 09       		.byte	0x9
 1625 093f 2E0A0000 		.4byte	0xa2e
 1626 0943 07       		.uleb128 0x7
 1627 0944 2E080000 		.4byte	.LASF130
 1628 0948 0F       		.byte	0xf
 1629 0949 35       		.byte	0x35
 1630 094a 0D       		.byte	0xd
 1631 094b 2E0A0000 		.4byte	0xa2e
 1632 094f 00       		.byte	0
 1633 0950 07       		.uleb128 0x7
 1634 0951 8B030000 		.4byte	.LASF131
 1635 0955 0F       		.byte	0xf
 1636 0956 36       		.byte	0x36
 1637 0957 0D       		.byte	0xd
 1638 0958 67000000 		.4byte	0x67
 1639 095c 04       		.byte	0x4
 1640 095d 07       		.uleb128 0x7
 1641 095e 03070000 		.4byte	.LASF132
 1642 0962 0F       		.byte	0xf
 1643 0963 37       		.byte	0x37
 1644 0964 0D       		.byte	0xd
 1645 0965 67000000 		.4byte	0x67
 1646 0969 05       		.byte	0x5
 1647 096a 07       		.uleb128 0x7
 1648 096b FC070000 		.4byte	.LASF133
ARM GAS  /tmp/cckx0m9S.s 			page 30


 1649 096f 0F       		.byte	0xf
 1650 0970 38       		.byte	0x38
 1651 0971 0D       		.byte	0xd
 1652 0972 7A000000 		.4byte	0x7a
 1653 0976 06       		.byte	0x6
 1654 0977 07       		.uleb128 0x7
 1655 0978 C5050000 		.4byte	.LASF134
 1656 097c 0F       		.byte	0xf
 1657 097d 39       		.byte	0x39
 1658 097e 0D       		.byte	0xd
 1659 097f 67000000 		.4byte	0x67
 1660 0983 08       		.byte	0x8
 1661 0984 07       		.uleb128 0x7
 1662 0985 D4030000 		.4byte	.LASF135
 1663 0989 0F       		.byte	0xf
 1664 098a 3A       		.byte	0x3a
 1665 098b 0D       		.byte	0xd
 1666 098c 67000000 		.4byte	0x67
 1667 0990 09       		.byte	0x9
 1668 0991 07       		.uleb128 0x7
 1669 0992 C5000000 		.4byte	.LASF136
 1670 0996 0F       		.byte	0xf
 1671 0997 3B       		.byte	0x3b
 1672 0998 0D       		.byte	0xd
 1673 0999 67000000 		.4byte	0x67
 1674 099d 0A       		.byte	0xa
 1675 099e 07       		.uleb128 0x7
 1676 099f DF060000 		.4byte	.LASF137
 1677 09a3 0F       		.byte	0xf
 1678 09a4 3C       		.byte	0x3c
 1679 09a5 0D       		.byte	0xd
 1680 09a6 67000000 		.4byte	0x67
 1681 09aa 0B       		.byte	0xb
 1682 09ab 07       		.uleb128 0x7
 1683 09ac 89070000 		.4byte	.LASF138
 1684 09b0 0F       		.byte	0xf
 1685 09b1 3D       		.byte	0x3d
 1686 09b2 0D       		.byte	0xd
 1687 09b3 67000000 		.4byte	0x67
 1688 09b7 0C       		.byte	0xc
 1689 09b8 07       		.uleb128 0x7
 1690 09b9 A0060000 		.4byte	.LASF139
 1691 09bd 0F       		.byte	0xf
 1692 09be 3E       		.byte	0x3e
 1693 09bf 0D       		.byte	0xd
 1694 09c0 67000000 		.4byte	0x67
 1695 09c4 0D       		.byte	0xd
 1696 09c5 07       		.uleb128 0x7
 1697 09c6 00000000 		.4byte	.LASF140
 1698 09ca 0F       		.byte	0xf
 1699 09cb 3F       		.byte	0x3f
 1700 09cc 0D       		.byte	0xd
 1701 09cd 67000000 		.4byte	0x67
 1702 09d1 0E       		.byte	0xe
 1703 09d2 07       		.uleb128 0x7
 1704 09d3 13040000 		.4byte	.LASF141
 1705 09d7 0F       		.byte	0xf
ARM GAS  /tmp/cckx0m9S.s 			page 31


 1706 09d8 40       		.byte	0x40
 1707 09d9 0D       		.byte	0xd
 1708 09da 67000000 		.4byte	0x67
 1709 09de 0F       		.byte	0xf
 1710 09df 07       		.uleb128 0x7
 1711 09e0 57010000 		.4byte	.LASF142
 1712 09e4 0F       		.byte	0xf
 1713 09e5 41       		.byte	0x41
 1714 09e6 0D       		.byte	0xd
 1715 09e7 67000000 		.4byte	0x67
 1716 09eb 10       		.byte	0x10
 1717 09ec 07       		.uleb128 0x7
 1718 09ed 27010000 		.4byte	.LASF143
 1719 09f1 0F       		.byte	0xf
 1720 09f2 43       		.byte	0x43
 1721 09f3 0D       		.byte	0xd
 1722 09f4 67000000 		.4byte	0x67
 1723 09f8 11       		.byte	0x11
 1724 09f9 07       		.uleb128 0x7
 1725 09fa 67010000 		.4byte	.LASF144
 1726 09fe 0F       		.byte	0xf
 1727 09ff 44       		.byte	0x44
 1728 0a00 0D       		.byte	0xd
 1729 0a01 67000000 		.4byte	0x67
 1730 0a05 12       		.byte	0x12
 1731 0a06 07       		.uleb128 0x7
 1732 0a07 93030000 		.4byte	.LASF145
 1733 0a0b 0F       		.byte	0xf
 1734 0a0c 45       		.byte	0x45
 1735 0a0d 0D       		.byte	0xd
 1736 0a0e 67000000 		.4byte	0x67
 1737 0a12 13       		.byte	0x13
 1738 0a13 07       		.uleb128 0x7
 1739 0a14 57060000 		.4byte	.LASF146
 1740 0a18 0F       		.byte	0xf
 1741 0a19 46       		.byte	0x46
 1742 0a1a 0D       		.byte	0xd
 1743 0a1b 67000000 		.4byte	0x67
 1744 0a1f 14       		.byte	0x14
 1745 0a20 07       		.uleb128 0x7
 1746 0a21 41030000 		.4byte	.LASF147
 1747 0a25 0F       		.byte	0xf
 1748 0a26 48       		.byte	0x48
 1749 0a27 0D       		.byte	0xd
 1750 0a28 67000000 		.4byte	0x67
 1751 0a2c 15       		.byte	0x15
 1752 0a2d 00       		.byte	0
 1753 0a2e 17       		.uleb128 0x17
 1754 0a2f 06090000 		.4byte	0x906
 1755 0a33 3E0A0000 		.4byte	0xa3e
 1756 0a37 18       		.uleb128 0x18
 1757 0a38 2C000000 		.4byte	0x2c
 1758 0a3c 03       		.byte	0x3
 1759 0a3d 00       		.byte	0
 1760 0a3e 04       		.uleb128 0x4
 1761 0a3f 1A080000 		.4byte	.LASF148
 1762 0a43 0F       		.byte	0xf
ARM GAS  /tmp/cckx0m9S.s 			page 32


 1763 0a44 49       		.byte	0x49
 1764 0a45 03       		.byte	0x3
 1765 0a46 3A090000 		.4byte	0x93a
 1766 0a4a 1B       		.uleb128 0x1b
 1767 0a4b 3E0A0000 		.4byte	0xa3e
 1768 0a4f 13       		.uleb128 0x13
 1769 0a50 89020000 		.4byte	.LASF149
 1770 0a54 0F       		.byte	0xf
 1771 0a55 6E       		.byte	0x6e
 1772 0a56 1D       		.byte	0x1d
 1773 0a57 4A0A0000 		.4byte	0xa4a
 1774 0a5b 04       		.uleb128 0x4
 1775 0a5c 08020000 		.4byte	.LASF150
 1776 0a60 0E       		.byte	0xe
 1777 0a61 34       		.byte	0x34
 1778 0a62 19       		.byte	0x19
 1779 0a63 B3080000 		.4byte	0x8b3
 1780 0a67 0A       		.uleb128 0xa
 1781 0a68 04       		.byte	0x4
 1782 0a69 5B0A0000 		.4byte	0xa5b
 1783 0a6d 1D       		.uleb128 0x1d
 1784 0a6e D3000000 		.4byte	.LASF151
 1785 0a72 01       		.byte	0x1
 1786 0a73 B1       		.byte	0xb1
 1787 0a74 06       		.byte	0x6
 1788 0a75 00000000 		.4byte	.LFB221
 1789 0a79 6C000000 		.4byte	.LFE221-.LFB221
 1790 0a7d 01       		.uleb128 0x1
 1791 0a7e 9C       		.byte	0x9c
 1792 0a7f E70A0000 		.4byte	0xae7
 1793 0a83 1E       		.uleb128 0x1e
 1794 0a84 76747000 		.ascii	"vtp\000"
 1795 0a88 01       		.byte	0x1
 1796 0a89 B1       		.byte	0xb1
 1797 0a8a 24       		.byte	0x24
 1798 0a8b 18090000 		.4byte	0x918
 1799 0a8f 04000000 		.4byte	.LLST6
 1800 0a93 00000000 		.4byte	.LVUS6
 1801 0a97 1F       		.uleb128 0x1f
 1802 0a98 6E060000 		.4byte	.LASF156
 1803 0a9c F70A0000 		.4byte	0xaf7
 1804 0aa0 05       		.uleb128 0x5
 1805 0aa1 03       		.byte	0x3
 1806 0aa2 00000000 		.4byte	__func__.7972
 1807 0aa6 20       		.uleb128 0x20
 1808 0aa7 14000000 		.4byte	.LVL15
 1809 0aab F60B0000 		.4byte	0xbf6
 1810 0aaf 21       		.uleb128 0x21
 1811 0ab0 4E000000 		.4byte	.LVL17
 1812 0ab4 020C0000 		.4byte	0xc02
 1813 0ab8 C60A0000 		.4byte	0xac6
 1814 0abc 22       		.uleb128 0x22
 1815 0abd 01       		.uleb128 0x1
 1816 0abe 50       		.byte	0x50
 1817 0abf 05       		.uleb128 0x5
 1818 0ac0 03       		.byte	0x3
 1819 0ac1 00000000 		.4byte	.LANCHOR1
ARM GAS  /tmp/cckx0m9S.s 			page 33


 1820 0ac5 00       		.byte	0
 1821 0ac6 21       		.uleb128 0x21
 1822 0ac7 5A000000 		.4byte	.LVL18
 1823 0acb 020C0000 		.4byte	0xc02
 1824 0acf DD0A0000 		.4byte	0xadd
 1825 0ad3 22       		.uleb128 0x22
 1826 0ad4 01       		.uleb128 0x1
 1827 0ad5 50       		.byte	0x50
 1828 0ad6 05       		.uleb128 0x5
 1829 0ad7 03       		.byte	0x3
 1830 0ad8 00000000 		.4byte	.LANCHOR1
 1831 0adc 00       		.byte	0
 1832 0add 20       		.uleb128 0x20
 1833 0ade 60000000 		.4byte	.LVL19
 1834 0ae2 0F0C0000 		.4byte	0xc0f
 1835 0ae6 00       		.byte	0
 1836 0ae7 17       		.uleb128 0x17
 1837 0ae8 0D090000 		.4byte	0x90d
 1838 0aec F70A0000 		.4byte	0xaf7
 1839 0af0 18       		.uleb128 0x18
 1840 0af1 2C000000 		.4byte	0x2c
 1841 0af5 0C       		.byte	0xc
 1842 0af6 00       		.byte	0
 1843 0af7 1B       		.uleb128 0x1b
 1844 0af8 E70A0000 		.4byte	0xae7
 1845 0afc 1D       		.uleb128 0x1d
 1846 0afd 66030000 		.4byte	.LASF152
 1847 0b01 01       		.byte	0x1
 1848 0b02 5F       		.byte	0x5f
 1849 0b03 06       		.byte	0x6
 1850 0b04 00000000 		.4byte	.LFB220
 1851 0b08 78000000 		.4byte	.LFE220-.LFB220
 1852 0b0c 01       		.uleb128 0x1
 1853 0b0d 9C       		.byte	0x9c
 1854 0b0e C10B0000 		.4byte	0xbc1
 1855 0b12 1E       		.uleb128 0x1e
 1856 0b13 76747000 		.ascii	"vtp\000"
 1857 0b17 01       		.byte	0x1
 1858 0b18 5F       		.byte	0x5f
 1859 0b19 22       		.byte	0x22
 1860 0b1a 18090000 		.4byte	0x918
 1861 0b1e 26000000 		.4byte	.LLST0
 1862 0b22 22000000 		.4byte	.LVUS0
 1863 0b26 23       		.uleb128 0x23
 1864 0b27 0E060000 		.4byte	.LASF153
 1865 0b2b 01       		.byte	0x1
 1866 0b2c 5F       		.byte	0x5f
 1867 0b2d 31       		.byte	0x31
 1868 0b2e 37010000 		.4byte	0x137
 1869 0b32 4E000000 		.4byte	.LLST1
 1870 0b36 44000000 		.4byte	.LVUS1
 1871 0b3a 23       		.uleb128 0x23
 1872 0b3b 82070000 		.4byte	.LASF154
 1873 0b3f 01       		.byte	0x1
 1874 0b40 60       		.byte	0x60
 1875 0b41 1A       		.byte	0x1a
 1876 0b42 65030000 		.4byte	0x365
ARM GAS  /tmp/cckx0m9S.s 			page 34


 1877 0b46 97000000 		.4byte	.LLST2
 1878 0b4a 93000000 		.4byte	.LVUS2
 1879 0b4e 1E       		.uleb128 0x1e
 1880 0b4f 70617200 		.ascii	"par\000"
 1881 0b53 01       		.byte	0x1
 1882 0b54 60       		.byte	0x60
 1883 0b55 28       		.byte	0x28
 1884 0b56 82030000 		.4byte	0x382
 1885 0b5a B9000000 		.4byte	.LLST3
 1886 0b5e B5000000 		.4byte	.LVUS3
 1887 0b62 24       		.uleb128 0x24
 1888 0b63 7000     		.ascii	"p\000"
 1889 0b65 01       		.byte	0x1
 1890 0b66 61       		.byte	0x61
 1891 0b67 14       		.byte	0x14
 1892 0b68 18090000 		.4byte	0x918
 1893 0b6c DB000000 		.4byte	.LLST4
 1894 0b70 D7000000 		.4byte	.LVUS4
 1895 0b74 25       		.uleb128 0x25
 1896 0b75 28000000 		.4byte	.LASF155
 1897 0b79 01       		.byte	0x1
 1898 0b7a 62       		.byte	0x62
 1899 0b7b 0D       		.byte	0xd
 1900 0b7c 37010000 		.4byte	0x137
 1901 0b80 FD000000 		.4byte	.LLST5
 1902 0b84 F9000000 		.4byte	.LVUS5
 1903 0b88 1F       		.uleb128 0x1f
 1904 0b89 6E060000 		.4byte	.LASF156
 1905 0b8d D10B0000 		.4byte	0xbd1
 1906 0b91 05       		.uleb128 0x5
 1907 0b92 03       		.byte	0x3
 1908 0b93 00000000 		.4byte	__func__.7965
 1909 0b97 20       		.uleb128 0x20
 1910 0b98 1A000000 		.4byte	.LVL3
 1911 0b9c F60B0000 		.4byte	0xbf6
 1912 0ba0 21       		.uleb128 0x21
 1913 0ba1 64000000 		.4byte	.LVL11
 1914 0ba5 020C0000 		.4byte	0xc02
 1915 0ba9 B70B0000 		.4byte	0xbb7
 1916 0bad 22       		.uleb128 0x22
 1917 0bae 01       		.uleb128 0x1
 1918 0baf 50       		.byte	0x50
 1919 0bb0 05       		.uleb128 0x5
 1920 0bb1 03       		.byte	0x3
 1921 0bb2 00000000 		.4byte	.LANCHOR0
 1922 0bb6 00       		.byte	0
 1923 0bb7 20       		.uleb128 0x20
 1924 0bb8 6A000000 		.4byte	.LVL13
 1925 0bbc 0F0C0000 		.4byte	0xc0f
 1926 0bc0 00       		.byte	0
 1927 0bc1 17       		.uleb128 0x17
 1928 0bc2 0D090000 		.4byte	0x90d
 1929 0bc6 D10B0000 		.4byte	0xbd1
 1930 0bca 18       		.uleb128 0x18
 1931 0bcb 2C000000 		.4byte	0x2c
 1932 0bcf 0A       		.byte	0xa
 1933 0bd0 00       		.byte	0
ARM GAS  /tmp/cckx0m9S.s 			page 35


 1934 0bd1 1B       		.uleb128 0x1b
 1935 0bd2 C10B0000 		.4byte	0xbc1
 1936 0bd6 1D       		.uleb128 0x1d
 1937 0bd7 34010000 		.4byte	.LASF157
 1938 0bdb 01       		.byte	0x1
 1939 0bdc 3D       		.byte	0x3d
 1940 0bdd 06       		.byte	0x6
 1941 0bde 00000000 		.4byte	.LFB219
 1942 0be2 40000000 		.4byte	.LFE219-.LFB219
 1943 0be6 01       		.uleb128 0x1
 1944 0be7 9C       		.byte	0x9c
 1945 0be8 F60B0000 		.4byte	0xbf6
 1946 0bec 20       		.uleb128 0x20
 1947 0bed 36000000 		.4byte	.LVL0
 1948 0bf1 0F0C0000 		.4byte	0xc0f
 1949 0bf5 00       		.byte	0
 1950 0bf6 26       		.uleb128 0x26
 1951 0bf7 24030000 		.4byte	.LASF158
 1952 0bfb 24030000 		.4byte	.LASF158
 1953 0bff 0A       		.byte	0xa
 1954 0c00 DE       		.byte	0xde
 1955 0c01 08       		.byte	0x8
 1956 0c02 27       		.uleb128 0x27
 1957 0c03 E8010000 		.4byte	.LASF159
 1958 0c07 E8010000 		.4byte	.LASF159
 1959 0c0b 10       		.byte	0x10
 1960 0c0c 1601     		.2byte	0x116
 1961 0c0e 08       		.byte	0x8
 1962 0c0f 28       		.uleb128 0x28
 1963 0c10 AD060000 		.4byte	.LASF163
 1964 0c14 AD060000 		.4byte	.LASF163
 1965 0c18 00       		.byte	0
 1966              		.section	.debug_abbrev,"",%progbits
 1967              	.Ldebug_abbrev0:
 1968 0000 01       		.uleb128 0x1
 1969 0001 11       		.uleb128 0x11
 1970 0002 01       		.byte	0x1
 1971 0003 25       		.uleb128 0x25
 1972 0004 0E       		.uleb128 0xe
 1973 0005 13       		.uleb128 0x13
 1974 0006 0B       		.uleb128 0xb
 1975 0007 03       		.uleb128 0x3
 1976 0008 0E       		.uleb128 0xe
 1977 0009 1B       		.uleb128 0x1b
 1978 000a 0E       		.uleb128 0xe
 1979 000b 55       		.uleb128 0x55
 1980 000c 17       		.uleb128 0x17
 1981 000d 11       		.uleb128 0x11
 1982 000e 01       		.uleb128 0x1
 1983 000f 10       		.uleb128 0x10
 1984 0010 17       		.uleb128 0x17
 1985 0011 00       		.byte	0
 1986 0012 00       		.byte	0
 1987 0013 02       		.uleb128 0x2
 1988 0014 24       		.uleb128 0x24
 1989 0015 00       		.byte	0
 1990 0016 0B       		.uleb128 0xb
ARM GAS  /tmp/cckx0m9S.s 			page 36


 1991 0017 0B       		.uleb128 0xb
 1992 0018 3E       		.uleb128 0x3e
 1993 0019 0B       		.uleb128 0xb
 1994 001a 03       		.uleb128 0x3
 1995 001b 08       		.uleb128 0x8
 1996 001c 00       		.byte	0
 1997 001d 00       		.byte	0
 1998 001e 03       		.uleb128 0x3
 1999 001f 24       		.uleb128 0x24
 2000 0020 00       		.byte	0
 2001 0021 0B       		.uleb128 0xb
 2002 0022 0B       		.uleb128 0xb
 2003 0023 3E       		.uleb128 0x3e
 2004 0024 0B       		.uleb128 0xb
 2005 0025 03       		.uleb128 0x3
 2006 0026 0E       		.uleb128 0xe
 2007 0027 00       		.byte	0
 2008 0028 00       		.byte	0
 2009 0029 04       		.uleb128 0x4
 2010 002a 16       		.uleb128 0x16
 2011 002b 00       		.byte	0
 2012 002c 03       		.uleb128 0x3
 2013 002d 0E       		.uleb128 0xe
 2014 002e 3A       		.uleb128 0x3a
 2015 002f 0B       		.uleb128 0xb
 2016 0030 3B       		.uleb128 0x3b
 2017 0031 0B       		.uleb128 0xb
 2018 0032 39       		.uleb128 0x39
 2019 0033 0B       		.uleb128 0xb
 2020 0034 49       		.uleb128 0x49
 2021 0035 13       		.uleb128 0x13
 2022 0036 00       		.byte	0
 2023 0037 00       		.byte	0
 2024 0038 05       		.uleb128 0x5
 2025 0039 35       		.uleb128 0x35
 2026 003a 00       		.byte	0
 2027 003b 49       		.uleb128 0x49
 2028 003c 13       		.uleb128 0x13
 2029 003d 00       		.byte	0
 2030 003e 00       		.byte	0
 2031 003f 06       		.uleb128 0x6
 2032 0040 13       		.uleb128 0x13
 2033 0041 01       		.byte	0x1
 2034 0042 03       		.uleb128 0x3
 2035 0043 0E       		.uleb128 0xe
 2036 0044 0B       		.uleb128 0xb
 2037 0045 0B       		.uleb128 0xb
 2038 0046 3A       		.uleb128 0x3a
 2039 0047 0B       		.uleb128 0xb
 2040 0048 3B       		.uleb128 0x3b
 2041 0049 0B       		.uleb128 0xb
 2042 004a 39       		.uleb128 0x39
 2043 004b 0B       		.uleb128 0xb
 2044 004c 01       		.uleb128 0x1
 2045 004d 13       		.uleb128 0x13
 2046 004e 00       		.byte	0
 2047 004f 00       		.byte	0
ARM GAS  /tmp/cckx0m9S.s 			page 37


 2048 0050 07       		.uleb128 0x7
 2049 0051 0D       		.uleb128 0xd
 2050 0052 00       		.byte	0
 2051 0053 03       		.uleb128 0x3
 2052 0054 0E       		.uleb128 0xe
 2053 0055 3A       		.uleb128 0x3a
 2054 0056 0B       		.uleb128 0xb
 2055 0057 3B       		.uleb128 0x3b
 2056 0058 0B       		.uleb128 0xb
 2057 0059 39       		.uleb128 0x39
 2058 005a 0B       		.uleb128 0xb
 2059 005b 49       		.uleb128 0x49
 2060 005c 13       		.uleb128 0x13
 2061 005d 38       		.uleb128 0x38
 2062 005e 0B       		.uleb128 0xb
 2063 005f 00       		.byte	0
 2064 0060 00       		.byte	0
 2065 0061 08       		.uleb128 0x8
 2066 0062 0D       		.uleb128 0xd
 2067 0063 00       		.byte	0
 2068 0064 03       		.uleb128 0x3
 2069 0065 08       		.uleb128 0x8
 2070 0066 3A       		.uleb128 0x3a
 2071 0067 0B       		.uleb128 0xb
 2072 0068 3B       		.uleb128 0x3b
 2073 0069 05       		.uleb128 0x5
 2074 006a 39       		.uleb128 0x39
 2075 006b 0B       		.uleb128 0xb
 2076 006c 49       		.uleb128 0x49
 2077 006d 13       		.uleb128 0x13
 2078 006e 38       		.uleb128 0x38
 2079 006f 0B       		.uleb128 0xb
 2080 0070 00       		.byte	0
 2081 0071 00       		.byte	0
 2082 0072 09       		.uleb128 0x9
 2083 0073 0D       		.uleb128 0xd
 2084 0074 00       		.byte	0
 2085 0075 03       		.uleb128 0x3
 2086 0076 0E       		.uleb128 0xe
 2087 0077 3A       		.uleb128 0x3a
 2088 0078 0B       		.uleb128 0xb
 2089 0079 3B       		.uleb128 0x3b
 2090 007a 05       		.uleb128 0x5
 2091 007b 39       		.uleb128 0x39
 2092 007c 0B       		.uleb128 0xb
 2093 007d 49       		.uleb128 0x49
 2094 007e 13       		.uleb128 0x13
 2095 007f 38       		.uleb128 0x38
 2096 0080 0B       		.uleb128 0xb
 2097 0081 00       		.byte	0
 2098 0082 00       		.byte	0
 2099 0083 0A       		.uleb128 0xa
 2100 0084 0F       		.uleb128 0xf
 2101 0085 00       		.byte	0
 2102 0086 0B       		.uleb128 0xb
 2103 0087 0B       		.uleb128 0xb
 2104 0088 49       		.uleb128 0x49
ARM GAS  /tmp/cckx0m9S.s 			page 38


 2105 0089 13       		.uleb128 0x13
 2106 008a 00       		.byte	0
 2107 008b 00       		.byte	0
 2108 008c 0B       		.uleb128 0xb
 2109 008d 13       		.uleb128 0x13
 2110 008e 01       		.byte	0x1
 2111 008f 03       		.uleb128 0x3
 2112 0090 0E       		.uleb128 0xe
 2113 0091 0B       		.uleb128 0xb
 2114 0092 0B       		.uleb128 0xb
 2115 0093 3A       		.uleb128 0x3a
 2116 0094 0B       		.uleb128 0xb
 2117 0095 3B       		.uleb128 0x3b
 2118 0096 05       		.uleb128 0x5
 2119 0097 39       		.uleb128 0x39
 2120 0098 0B       		.uleb128 0xb
 2121 0099 01       		.uleb128 0x1
 2122 009a 13       		.uleb128 0x13
 2123 009b 00       		.byte	0
 2124 009c 00       		.byte	0
 2125 009d 0C       		.uleb128 0xc
 2126 009e 15       		.uleb128 0x15
 2127 009f 01       		.byte	0x1
 2128 00a0 27       		.uleb128 0x27
 2129 00a1 19       		.uleb128 0x19
 2130 00a2 01       		.uleb128 0x1
 2131 00a3 13       		.uleb128 0x13
 2132 00a4 00       		.byte	0
 2133 00a5 00       		.byte	0
 2134 00a6 0D       		.uleb128 0xd
 2135 00a7 05       		.uleb128 0x5
 2136 00a8 00       		.byte	0
 2137 00a9 49       		.uleb128 0x49
 2138 00aa 13       		.uleb128 0x13
 2139 00ab 00       		.byte	0
 2140 00ac 00       		.byte	0
 2141 00ad 0E       		.uleb128 0xe
 2142 00ae 0F       		.uleb128 0xf
 2143 00af 00       		.byte	0
 2144 00b0 0B       		.uleb128 0xb
 2145 00b1 0B       		.uleb128 0xb
 2146 00b2 00       		.byte	0
 2147 00b3 00       		.byte	0
 2148 00b4 0F       		.uleb128 0xf
 2149 00b5 13       		.uleb128 0x13
 2150 00b6 01       		.byte	0x1
 2151 00b7 03       		.uleb128 0x3
 2152 00b8 0E       		.uleb128 0xe
 2153 00b9 0B       		.uleb128 0xb
 2154 00ba 05       		.uleb128 0x5
 2155 00bb 3A       		.uleb128 0x3a
 2156 00bc 0B       		.uleb128 0xb
 2157 00bd 3B       		.uleb128 0x3b
 2158 00be 05       		.uleb128 0x5
 2159 00bf 39       		.uleb128 0x39
 2160 00c0 0B       		.uleb128 0xb
 2161 00c1 01       		.uleb128 0x1
ARM GAS  /tmp/cckx0m9S.s 			page 39


 2162 00c2 13       		.uleb128 0x13
 2163 00c3 00       		.byte	0
 2164 00c4 00       		.byte	0
 2165 00c5 10       		.uleb128 0x10
 2166 00c6 0D       		.uleb128 0xd
 2167 00c7 00       		.byte	0
 2168 00c8 03       		.uleb128 0x3
 2169 00c9 0E       		.uleb128 0xe
 2170 00ca 3A       		.uleb128 0x3a
 2171 00cb 0B       		.uleb128 0xb
 2172 00cc 3B       		.uleb128 0x3b
 2173 00cd 05       		.uleb128 0x5
 2174 00ce 39       		.uleb128 0x39
 2175 00cf 0B       		.uleb128 0xb
 2176 00d0 49       		.uleb128 0x49
 2177 00d1 13       		.uleb128 0x13
 2178 00d2 38       		.uleb128 0x38
 2179 00d3 05       		.uleb128 0x5
 2180 00d4 00       		.byte	0
 2181 00d5 00       		.byte	0
 2182 00d6 11       		.uleb128 0x11
 2183 00d7 0D       		.uleb128 0xd
 2184 00d8 00       		.byte	0
 2185 00d9 03       		.uleb128 0x3
 2186 00da 08       		.uleb128 0x8
 2187 00db 3A       		.uleb128 0x3a
 2188 00dc 0B       		.uleb128 0xb
 2189 00dd 3B       		.uleb128 0x3b
 2190 00de 05       		.uleb128 0x5
 2191 00df 39       		.uleb128 0x39
 2192 00e0 0B       		.uleb128 0xb
 2193 00e1 49       		.uleb128 0x49
 2194 00e2 13       		.uleb128 0x13
 2195 00e3 38       		.uleb128 0x38
 2196 00e4 05       		.uleb128 0x5
 2197 00e5 00       		.byte	0
 2198 00e6 00       		.byte	0
 2199 00e7 12       		.uleb128 0x12
 2200 00e8 34       		.uleb128 0x34
 2201 00e9 00       		.byte	0
 2202 00ea 03       		.uleb128 0x3
 2203 00eb 0E       		.uleb128 0xe
 2204 00ec 3A       		.uleb128 0x3a
 2205 00ed 0B       		.uleb128 0xb
 2206 00ee 3B       		.uleb128 0x3b
 2207 00ef 05       		.uleb128 0x5
 2208 00f0 39       		.uleb128 0x39
 2209 00f1 0B       		.uleb128 0xb
 2210 00f2 49       		.uleb128 0x49
 2211 00f3 13       		.uleb128 0x13
 2212 00f4 3F       		.uleb128 0x3f
 2213 00f5 19       		.uleb128 0x19
 2214 00f6 3C       		.uleb128 0x3c
 2215 00f7 19       		.uleb128 0x19
 2216 00f8 00       		.byte	0
 2217 00f9 00       		.byte	0
 2218 00fa 13       		.uleb128 0x13
ARM GAS  /tmp/cckx0m9S.s 			page 40


 2219 00fb 34       		.uleb128 0x34
 2220 00fc 00       		.byte	0
 2221 00fd 03       		.uleb128 0x3
 2222 00fe 0E       		.uleb128 0xe
 2223 00ff 3A       		.uleb128 0x3a
 2224 0100 0B       		.uleb128 0xb
 2225 0101 3B       		.uleb128 0x3b
 2226 0102 0B       		.uleb128 0xb
 2227 0103 39       		.uleb128 0x39
 2228 0104 0B       		.uleb128 0xb
 2229 0105 49       		.uleb128 0x49
 2230 0106 13       		.uleb128 0x13
 2231 0107 3F       		.uleb128 0x3f
 2232 0108 19       		.uleb128 0x19
 2233 0109 3C       		.uleb128 0x3c
 2234 010a 19       		.uleb128 0x19
 2235 010b 00       		.byte	0
 2236 010c 00       		.byte	0
 2237 010d 14       		.uleb128 0x14
 2238 010e 0D       		.uleb128 0xd
 2239 010f 00       		.byte	0
 2240 0110 03       		.uleb128 0x3
 2241 0111 08       		.uleb128 0x8
 2242 0112 3A       		.uleb128 0x3a
 2243 0113 0B       		.uleb128 0xb
 2244 0114 3B       		.uleb128 0x3b
 2245 0115 0B       		.uleb128 0xb
 2246 0116 39       		.uleb128 0x39
 2247 0117 0B       		.uleb128 0xb
 2248 0118 49       		.uleb128 0x49
 2249 0119 13       		.uleb128 0x13
 2250 011a 38       		.uleb128 0x38
 2251 011b 0B       		.uleb128 0xb
 2252 011c 00       		.byte	0
 2253 011d 00       		.byte	0
 2254 011e 15       		.uleb128 0x15
 2255 011f 13       		.uleb128 0x13
 2256 0120 01       		.byte	0x1
 2257 0121 0B       		.uleb128 0xb
 2258 0122 0B       		.uleb128 0xb
 2259 0123 3A       		.uleb128 0x3a
 2260 0124 0B       		.uleb128 0xb
 2261 0125 3B       		.uleb128 0x3b
 2262 0126 0B       		.uleb128 0xb
 2263 0127 39       		.uleb128 0x39
 2264 0128 0B       		.uleb128 0xb
 2265 0129 01       		.uleb128 0x1
 2266 012a 13       		.uleb128 0x13
 2267 012b 00       		.byte	0
 2268 012c 00       		.byte	0
 2269 012d 16       		.uleb128 0x16
 2270 012e 13       		.uleb128 0x13
 2271 012f 01       		.byte	0x1
 2272 0130 0B       		.uleb128 0xb
 2273 0131 05       		.uleb128 0x5
 2274 0132 3A       		.uleb128 0x3a
 2275 0133 0B       		.uleb128 0xb
ARM GAS  /tmp/cckx0m9S.s 			page 41


 2276 0134 3B       		.uleb128 0x3b
 2277 0135 0B       		.uleb128 0xb
 2278 0136 39       		.uleb128 0x39
 2279 0137 0B       		.uleb128 0xb
 2280 0138 01       		.uleb128 0x1
 2281 0139 13       		.uleb128 0x13
 2282 013a 00       		.byte	0
 2283 013b 00       		.byte	0
 2284 013c 17       		.uleb128 0x17
 2285 013d 01       		.uleb128 0x1
 2286 013e 01       		.byte	0x1
 2287 013f 49       		.uleb128 0x49
 2288 0140 13       		.uleb128 0x13
 2289 0141 01       		.uleb128 0x1
 2290 0142 13       		.uleb128 0x13
 2291 0143 00       		.byte	0
 2292 0144 00       		.byte	0
 2293 0145 18       		.uleb128 0x18
 2294 0146 21       		.uleb128 0x21
 2295 0147 00       		.byte	0
 2296 0148 49       		.uleb128 0x49
 2297 0149 13       		.uleb128 0x13
 2298 014a 2F       		.uleb128 0x2f
 2299 014b 0B       		.uleb128 0xb
 2300 014c 00       		.byte	0
 2301 014d 00       		.byte	0
 2302 014e 19       		.uleb128 0x19
 2303 014f 17       		.uleb128 0x17
 2304 0150 01       		.byte	0x1
 2305 0151 0B       		.uleb128 0xb
 2306 0152 0B       		.uleb128 0xb
 2307 0153 3A       		.uleb128 0x3a
 2308 0154 0B       		.uleb128 0xb
 2309 0155 3B       		.uleb128 0x3b
 2310 0156 0B       		.uleb128 0xb
 2311 0157 39       		.uleb128 0x39
 2312 0158 0B       		.uleb128 0xb
 2313 0159 01       		.uleb128 0x1
 2314 015a 13       		.uleb128 0x13
 2315 015b 00       		.byte	0
 2316 015c 00       		.byte	0
 2317 015d 1A       		.uleb128 0x1a
 2318 015e 0D       		.uleb128 0xd
 2319 015f 00       		.byte	0
 2320 0160 03       		.uleb128 0x3
 2321 0161 0E       		.uleb128 0xe
 2322 0162 3A       		.uleb128 0x3a
 2323 0163 0B       		.uleb128 0xb
 2324 0164 3B       		.uleb128 0x3b
 2325 0165 05       		.uleb128 0x5
 2326 0166 39       		.uleb128 0x39
 2327 0167 0B       		.uleb128 0xb
 2328 0168 49       		.uleb128 0x49
 2329 0169 13       		.uleb128 0x13
 2330 016a 00       		.byte	0
 2331 016b 00       		.byte	0
 2332 016c 1B       		.uleb128 0x1b
ARM GAS  /tmp/cckx0m9S.s 			page 42


 2333 016d 26       		.uleb128 0x26
 2334 016e 00       		.byte	0
 2335 016f 49       		.uleb128 0x49
 2336 0170 13       		.uleb128 0x13
 2337 0171 00       		.byte	0
 2338 0172 00       		.byte	0
 2339 0173 1C       		.uleb128 0x1c
 2340 0174 34       		.uleb128 0x34
 2341 0175 00       		.byte	0
 2342 0176 03       		.uleb128 0x3
 2343 0177 08       		.uleb128 0x8
 2344 0178 3A       		.uleb128 0x3a
 2345 0179 0B       		.uleb128 0xb
 2346 017a 3B       		.uleb128 0x3b
 2347 017b 05       		.uleb128 0x5
 2348 017c 39       		.uleb128 0x39
 2349 017d 0B       		.uleb128 0xb
 2350 017e 49       		.uleb128 0x49
 2351 017f 13       		.uleb128 0x13
 2352 0180 3F       		.uleb128 0x3f
 2353 0181 19       		.uleb128 0x19
 2354 0182 3C       		.uleb128 0x3c
 2355 0183 19       		.uleb128 0x19
 2356 0184 00       		.byte	0
 2357 0185 00       		.byte	0
 2358 0186 1D       		.uleb128 0x1d
 2359 0187 2E       		.uleb128 0x2e
 2360 0188 01       		.byte	0x1
 2361 0189 3F       		.uleb128 0x3f
 2362 018a 19       		.uleb128 0x19
 2363 018b 03       		.uleb128 0x3
 2364 018c 0E       		.uleb128 0xe
 2365 018d 3A       		.uleb128 0x3a
 2366 018e 0B       		.uleb128 0xb
 2367 018f 3B       		.uleb128 0x3b
 2368 0190 0B       		.uleb128 0xb
 2369 0191 39       		.uleb128 0x39
 2370 0192 0B       		.uleb128 0xb
 2371 0193 27       		.uleb128 0x27
 2372 0194 19       		.uleb128 0x19
 2373 0195 11       		.uleb128 0x11
 2374 0196 01       		.uleb128 0x1
 2375 0197 12       		.uleb128 0x12
 2376 0198 06       		.uleb128 0x6
 2377 0199 40       		.uleb128 0x40
 2378 019a 18       		.uleb128 0x18
 2379 019b 9742     		.uleb128 0x2117
 2380 019d 19       		.uleb128 0x19
 2381 019e 01       		.uleb128 0x1
 2382 019f 13       		.uleb128 0x13
 2383 01a0 00       		.byte	0
 2384 01a1 00       		.byte	0
 2385 01a2 1E       		.uleb128 0x1e
 2386 01a3 05       		.uleb128 0x5
 2387 01a4 00       		.byte	0
 2388 01a5 03       		.uleb128 0x3
 2389 01a6 08       		.uleb128 0x8
ARM GAS  /tmp/cckx0m9S.s 			page 43


 2390 01a7 3A       		.uleb128 0x3a
 2391 01a8 0B       		.uleb128 0xb
 2392 01a9 3B       		.uleb128 0x3b
 2393 01aa 0B       		.uleb128 0xb
 2394 01ab 39       		.uleb128 0x39
 2395 01ac 0B       		.uleb128 0xb
 2396 01ad 49       		.uleb128 0x49
 2397 01ae 13       		.uleb128 0x13
 2398 01af 02       		.uleb128 0x2
 2399 01b0 17       		.uleb128 0x17
 2400 01b1 B742     		.uleb128 0x2137
 2401 01b3 17       		.uleb128 0x17
 2402 01b4 00       		.byte	0
 2403 01b5 00       		.byte	0
 2404 01b6 1F       		.uleb128 0x1f
 2405 01b7 34       		.uleb128 0x34
 2406 01b8 00       		.byte	0
 2407 01b9 03       		.uleb128 0x3
 2408 01ba 0E       		.uleb128 0xe
 2409 01bb 49       		.uleb128 0x49
 2410 01bc 13       		.uleb128 0x13
 2411 01bd 34       		.uleb128 0x34
 2412 01be 19       		.uleb128 0x19
 2413 01bf 02       		.uleb128 0x2
 2414 01c0 18       		.uleb128 0x18
 2415 01c1 00       		.byte	0
 2416 01c2 00       		.byte	0
 2417 01c3 20       		.uleb128 0x20
 2418 01c4 898201   		.uleb128 0x4109
 2419 01c7 00       		.byte	0
 2420 01c8 11       		.uleb128 0x11
 2421 01c9 01       		.uleb128 0x1
 2422 01ca 31       		.uleb128 0x31
 2423 01cb 13       		.uleb128 0x13
 2424 01cc 00       		.byte	0
 2425 01cd 00       		.byte	0
 2426 01ce 21       		.uleb128 0x21
 2427 01cf 898201   		.uleb128 0x4109
 2428 01d2 01       		.byte	0x1
 2429 01d3 11       		.uleb128 0x11
 2430 01d4 01       		.uleb128 0x1
 2431 01d5 31       		.uleb128 0x31
 2432 01d6 13       		.uleb128 0x13
 2433 01d7 01       		.uleb128 0x1
 2434 01d8 13       		.uleb128 0x13
 2435 01d9 00       		.byte	0
 2436 01da 00       		.byte	0
 2437 01db 22       		.uleb128 0x22
 2438 01dc 8A8201   		.uleb128 0x410a
 2439 01df 00       		.byte	0
 2440 01e0 02       		.uleb128 0x2
 2441 01e1 18       		.uleb128 0x18
 2442 01e2 9142     		.uleb128 0x2111
 2443 01e4 18       		.uleb128 0x18
 2444 01e5 00       		.byte	0
 2445 01e6 00       		.byte	0
 2446 01e7 23       		.uleb128 0x23
ARM GAS  /tmp/cckx0m9S.s 			page 44


 2447 01e8 05       		.uleb128 0x5
 2448 01e9 00       		.byte	0
 2449 01ea 03       		.uleb128 0x3
 2450 01eb 0E       		.uleb128 0xe
 2451 01ec 3A       		.uleb128 0x3a
 2452 01ed 0B       		.uleb128 0xb
 2453 01ee 3B       		.uleb128 0x3b
 2454 01ef 0B       		.uleb128 0xb
 2455 01f0 39       		.uleb128 0x39
 2456 01f1 0B       		.uleb128 0xb
 2457 01f2 49       		.uleb128 0x49
 2458 01f3 13       		.uleb128 0x13
 2459 01f4 02       		.uleb128 0x2
 2460 01f5 17       		.uleb128 0x17
 2461 01f6 B742     		.uleb128 0x2137
 2462 01f8 17       		.uleb128 0x17
 2463 01f9 00       		.byte	0
 2464 01fa 00       		.byte	0
 2465 01fb 24       		.uleb128 0x24
 2466 01fc 34       		.uleb128 0x34
 2467 01fd 00       		.byte	0
 2468 01fe 03       		.uleb128 0x3
 2469 01ff 08       		.uleb128 0x8
 2470 0200 3A       		.uleb128 0x3a
 2471 0201 0B       		.uleb128 0xb
 2472 0202 3B       		.uleb128 0x3b
 2473 0203 0B       		.uleb128 0xb
 2474 0204 39       		.uleb128 0x39
 2475 0205 0B       		.uleb128 0xb
 2476 0206 49       		.uleb128 0x49
 2477 0207 13       		.uleb128 0x13
 2478 0208 02       		.uleb128 0x2
 2479 0209 17       		.uleb128 0x17
 2480 020a B742     		.uleb128 0x2137
 2481 020c 17       		.uleb128 0x17
 2482 020d 00       		.byte	0
 2483 020e 00       		.byte	0
 2484 020f 25       		.uleb128 0x25
 2485 0210 34       		.uleb128 0x34
 2486 0211 00       		.byte	0
 2487 0212 03       		.uleb128 0x3
 2488 0213 0E       		.uleb128 0xe
 2489 0214 3A       		.uleb128 0x3a
 2490 0215 0B       		.uleb128 0xb
 2491 0216 3B       		.uleb128 0x3b
 2492 0217 0B       		.uleb128 0xb
 2493 0218 39       		.uleb128 0x39
 2494 0219 0B       		.uleb128 0xb
 2495 021a 49       		.uleb128 0x49
 2496 021b 13       		.uleb128 0x13
 2497 021c 02       		.uleb128 0x2
 2498 021d 17       		.uleb128 0x17
 2499 021e B742     		.uleb128 0x2137
 2500 0220 17       		.uleb128 0x17
 2501 0221 00       		.byte	0
 2502 0222 00       		.byte	0
 2503 0223 26       		.uleb128 0x26
ARM GAS  /tmp/cckx0m9S.s 			page 45


 2504 0224 2E       		.uleb128 0x2e
 2505 0225 00       		.byte	0
 2506 0226 3F       		.uleb128 0x3f
 2507 0227 19       		.uleb128 0x19
 2508 0228 3C       		.uleb128 0x3c
 2509 0229 19       		.uleb128 0x19
 2510 022a 6E       		.uleb128 0x6e
 2511 022b 0E       		.uleb128 0xe
 2512 022c 03       		.uleb128 0x3
 2513 022d 0E       		.uleb128 0xe
 2514 022e 3A       		.uleb128 0x3a
 2515 022f 0B       		.uleb128 0xb
 2516 0230 3B       		.uleb128 0x3b
 2517 0231 0B       		.uleb128 0xb
 2518 0232 39       		.uleb128 0x39
 2519 0233 0B       		.uleb128 0xb
 2520 0234 00       		.byte	0
 2521 0235 00       		.byte	0
 2522 0236 27       		.uleb128 0x27
 2523 0237 2E       		.uleb128 0x2e
 2524 0238 00       		.byte	0
 2525 0239 3F       		.uleb128 0x3f
 2526 023a 19       		.uleb128 0x19
 2527 023b 3C       		.uleb128 0x3c
 2528 023c 19       		.uleb128 0x19
 2529 023d 6E       		.uleb128 0x6e
 2530 023e 0E       		.uleb128 0xe
 2531 023f 03       		.uleb128 0x3
 2532 0240 0E       		.uleb128 0xe
 2533 0241 3A       		.uleb128 0x3a
 2534 0242 0B       		.uleb128 0xb
 2535 0243 3B       		.uleb128 0x3b
 2536 0244 05       		.uleb128 0x5
 2537 0245 39       		.uleb128 0x39
 2538 0246 0B       		.uleb128 0xb
 2539 0247 00       		.byte	0
 2540 0248 00       		.byte	0
 2541 0249 28       		.uleb128 0x28
 2542 024a 2E       		.uleb128 0x2e
 2543 024b 00       		.byte	0
 2544 024c 3F       		.uleb128 0x3f
 2545 024d 19       		.uleb128 0x19
 2546 024e 3C       		.uleb128 0x3c
 2547 024f 19       		.uleb128 0x19
 2548 0250 6E       		.uleb128 0x6e
 2549 0251 0E       		.uleb128 0xe
 2550 0252 03       		.uleb128 0x3
 2551 0253 0E       		.uleb128 0xe
 2552 0254 00       		.byte	0
 2553 0255 00       		.byte	0
 2554 0256 00       		.byte	0
 2555              		.section	.debug_loc,"",%progbits
 2556              	.Ldebug_loc0:
 2557              	.LVUS6:
 2558 0000 00       		.uleb128 0
 2559 0001 00       		.uleb128 .LVU68
 2560 0002 00       		.uleb128 .LVU68
ARM GAS  /tmp/cckx0m9S.s 			page 46


 2561 0003 00       		.uleb128 0
 2562              	.LLST6:
 2563 0004 00000000 		.4byte	.LVL14
 2564 0008 13000000 		.4byte	.LVL15-1
 2565 000c 0100     		.2byte	0x1
 2566 000e 50       		.byte	0x50
 2567 000f 13000000 		.4byte	.LVL15-1
 2568 0013 6C000000 		.4byte	.LFE221
 2569 0017 0100     		.2byte	0x1
 2570 0019 54       		.byte	0x54
 2571 001a 00000000 		.4byte	0
 2572 001e 00000000 		.4byte	0
 2573              	.LVUS0:
 2574 0022 00       		.uleb128 0
 2575 0023 00       		.uleb128 .LVU20
 2576 0024 00       		.uleb128 .LVU20
 2577 0025 00       		.uleb128 0
 2578              	.LLST0:
 2579 0026 00000000 		.4byte	.LVL1
 2580 002a 19000000 		.4byte	.LVL3-1
 2581 002e 0100     		.2byte	0x1
 2582 0030 50       		.byte	0x50
 2583 0031 19000000 		.4byte	.LVL3-1
 2584 0035 78000000 		.4byte	.LFE220
 2585 0039 0100     		.2byte	0x1
 2586 003b 55       		.byte	0x55
 2587 003c 00000000 		.4byte	0
 2588 0040 00000000 		.4byte	0
 2589              	.LVUS1:
 2590 0044 00       		.uleb128 0
 2591 0045 00       		.uleb128 .LVU20
 2592 0046 00       		.uleb128 .LVU20
 2593 0047 00       		.uleb128 .LVU35
 2594 0048 00       		.uleb128 .LVU35
 2595 0049 00       		.uleb128 .LVU62
 2596 004a 00       		.uleb128 .LVU62
 2597 004b 00       		.uleb128 .LVU63
 2598 004c 00       		.uleb128 .LVU63
 2599 004d 00       		.uleb128 0
 2600              	.LLST1:
 2601 004e 00000000 		.4byte	.LVL1
 2602 0052 19000000 		.4byte	.LVL3-1
 2603 0056 0100     		.2byte	0x1
 2604 0058 51       		.byte	0x51
 2605 0059 19000000 		.4byte	.LVL3-1
 2606 005d 2E000000 		.4byte	.LVL6
 2607 0061 0100     		.2byte	0x1
 2608 0063 54       		.byte	0x54
 2609 0064 2E000000 		.4byte	.LVL6
 2610 0068 5E000000 		.4byte	.LVL10
 2611 006c 0400     		.2byte	0x4
 2612 006e F3       		.byte	0xf3
 2613 006f 01       		.uleb128 0x1
 2614 0070 51       		.byte	0x51
 2615 0071 9F       		.byte	0x9f
 2616 0072 5E000000 		.4byte	.LVL10
 2617 0076 66000000 		.4byte	.LVL12
ARM GAS  /tmp/cckx0m9S.s 			page 47


 2618 007a 0100     		.2byte	0x1
 2619 007c 54       		.byte	0x54
 2620 007d 66000000 		.4byte	.LVL12
 2621 0081 78000000 		.4byte	.LFE220
 2622 0085 0400     		.2byte	0x4
 2623 0087 F3       		.byte	0xf3
 2624 0088 01       		.uleb128 0x1
 2625 0089 51       		.byte	0x51
 2626 008a 9F       		.byte	0x9f
 2627 008b 00000000 		.4byte	0
 2628 008f 00000000 		.4byte	0
 2629              	.LVUS2:
 2630 0093 00       		.uleb128 0
 2631 0094 00       		.uleb128 .LVU20
 2632 0095 00       		.uleb128 .LVU20
 2633 0096 00       		.uleb128 0
 2634              	.LLST2:
 2635 0097 00000000 		.4byte	.LVL1
 2636 009b 19000000 		.4byte	.LVL3-1
 2637 009f 0100     		.2byte	0x1
 2638 00a1 52       		.byte	0x52
 2639 00a2 19000000 		.4byte	.LVL3-1
 2640 00a6 78000000 		.4byte	.LFE220
 2641 00aa 0100     		.2byte	0x1
 2642 00ac 56       		.byte	0x56
 2643 00ad 00000000 		.4byte	0
 2644 00b1 00000000 		.4byte	0
 2645              	.LVUS3:
 2646 00b5 00       		.uleb128 0
 2647 00b6 00       		.uleb128 .LVU15
 2648 00b7 00       		.uleb128 .LVU15
 2649 00b8 00       		.uleb128 0
 2650              	.LLST3:
 2651 00b9 00000000 		.4byte	.LVL1
 2652 00bd 06000000 		.4byte	.LVL2
 2653 00c1 0100     		.2byte	0x1
 2654 00c3 53       		.byte	0x53
 2655 00c4 06000000 		.4byte	.LVL2
 2656 00c8 78000000 		.4byte	.LFE220
 2657 00cc 0100     		.2byte	0x1
 2658 00ce 57       		.byte	0x57
 2659 00cf 00000000 		.4byte	0
 2660 00d3 00000000 		.4byte	0
 2661              	.LVUS4:
 2662 00d7 00       		.uleb128 .LVU31
 2663 00d8 00       		.uleb128 .LVU37
 2664 00d9 01       		.uleb128 .LVU39
 2665 00da 00       		.uleb128 .LVU59
 2666              	.LLST4:
 2667 00db 28000000 		.4byte	.LVL5
 2668 00df 30000000 		.4byte	.LVL7
 2669 00e3 0100     		.2byte	0x1
 2670 00e5 53       		.byte	0x53
 2671 00e6 32000000 		.4byte	.LVL8
 2672 00ea 50000000 		.4byte	.LVL9
 2673 00ee 0100     		.2byte	0x1
 2674 00f0 53       		.byte	0x53
ARM GAS  /tmp/cckx0m9S.s 			page 48


 2675 00f1 00000000 		.4byte	0
 2676 00f5 00000000 		.4byte	0
 2677              	.LVUS5:
 2678 00f9 01       		.uleb128 .LVU29
 2679 00fa 00       		.uleb128 .LVU62
 2680 00fb 00       		.uleb128 .LVU63
 2681 00fc 00       		.uleb128 0
 2682              	.LLST5:
 2683 00fd 24000000 		.4byte	.LVL4
 2684 0101 5E000000 		.4byte	.LVL10
 2685 0105 0100     		.2byte	0x1
 2686 0107 54       		.byte	0x54
 2687 0108 66000000 		.4byte	.LVL12
 2688 010c 78000000 		.4byte	.LFE220
 2689 0110 0100     		.2byte	0x1
 2690 0112 54       		.byte	0x54
 2691 0113 00000000 		.4byte	0
 2692 0117 00000000 		.4byte	0
 2693              		.section	.debug_aranges,"",%progbits
 2694 0000 2C000000 		.4byte	0x2c
 2695 0004 0200     		.2byte	0x2
 2696 0006 00000000 		.4byte	.Ldebug_info0
 2697 000a 04       		.byte	0x4
 2698 000b 00       		.byte	0
 2699 000c 0000     		.2byte	0
 2700 000e 0000     		.2byte	0
 2701 0010 00000000 		.4byte	.LFB219
 2702 0014 40000000 		.4byte	.LFE219-.LFB219
 2703 0018 00000000 		.4byte	.LFB220
 2704 001c 78000000 		.4byte	.LFE220-.LFB220
 2705 0020 00000000 		.4byte	.LFB221
 2706 0024 6C000000 		.4byte	.LFE221-.LFB221
 2707 0028 00000000 		.4byte	0
 2708 002c 00000000 		.4byte	0
 2709              		.section	.debug_ranges,"",%progbits
 2710              	.Ldebug_ranges0:
 2711 0000 00000000 		.4byte	.LFB219
 2712 0004 40000000 		.4byte	.LFE219
 2713 0008 00000000 		.4byte	.LFB220
 2714 000c 78000000 		.4byte	.LFE220
 2715 0010 00000000 		.4byte	.LFB221
 2716 0014 6C000000 		.4byte	.LFE221
 2717 0018 00000000 		.4byte	0
 2718 001c 00000000 		.4byte	0
 2719              		.section	.debug_line,"",%progbits
 2720              	.Ldebug_line0:
 2721 0000 D0030000 		.section	.debug_str,"MS",%progbits,1
 2721      0300C901 
 2721      00000201 
 2721      FB0E0D00 
 2721      01010101 
 2722              	.LASF140:
 2723 0000 63665F6F 		.ascii	"cf_off_older\000"
 2723      66665F6F 
 2723      6C646572 
 2723      00
 2724              	.LASF55:
ARM GAS  /tmp/cckx0m9S.s 			page 49


 2725 000d 72656164 		.ascii	"ready_list_t\000"
 2725      795F6C69 
 2725      73745F74 
 2725      00
 2726              	.LASF93:
 2727 001a 73655F74 		.ascii	"se_time\000"
 2727      696D6500 
 2728              	.LASF117:
 2729 0022 77747472 		.ascii	"wttrp\000"
 2729      7000
 2730              	.LASF155:
 2731 0028 64656C74 		.ascii	"delta\000"
 2731      6100
 2732              	.LASF114:
 2733 002e 7264796D 		.ascii	"rdymsg\000"
 2733      736700
 2734              	.LASF13:
 2735 0035 75696E74 		.ascii	"uint64_t\000"
 2735      36345F74 
 2735      00
 2736              	.LASF85:
 2737 003e 6B65726E 		.ascii	"kernel_stats\000"
 2737      656C5F73 
 2737      74617473 
 2737      00
 2738              	.LASF23:
 2739 004b 6576656E 		.ascii	"eventmask_t\000"
 2739      746D6173 
 2739      6B5F7400 
 2740              	.LASF92:
 2741 0057 706F7274 		.ascii	"port_intctx\000"
 2741      5F696E74 
 2741      63747800 
 2742              	.LASF54:
 2743 0063 63685F74 		.ascii	"ch_threads_queue\000"
 2743      68726561 
 2743      64735F71 
 2743      75657565 
 2743      00
 2744              	.LASF74:
 2745 0074 73797374 		.ascii	"system_debug_t\000"
 2745      656D5F64 
 2745      65627567 
 2745      5F7400
 2746              	.LASF105:
 2747 0083 776F7273 		.ascii	"worst\000"
 2747      7400
 2748              	.LASF108:
 2749 0089 74696D65 		.ascii	"time_measurement_t\000"
 2749      5F6D6561 
 2749      73757265 
 2749      6D656E74 
 2749      5F7400
 2750              	.LASF14:
 2751 009c 6C6F6E67 		.ascii	"long long unsigned int\000"
 2751      206C6F6E 
 2751      6720756E 
ARM GAS  /tmp/cckx0m9S.s 			page 50


 2751      7369676E 
 2751      65642069 
 2752              	.LASF101:
 2753 00b3 63685F74 		.ascii	"ch_trace_buffer_t\000"
 2753      72616365 
 2753      5F627566 
 2753      6665725F 
 2753      7400
 2754              	.LASF136:
 2755 00c5 63685F74 		.ascii	"ch_threadsize\000"
 2755      68726561 
 2755      6473697A 
 2755      6500
 2756              	.LASF151:
 2757 00d3 63685654 		.ascii	"chVTDoResetI\000"
 2757      446F5265 
 2757      73657449 
 2757      00
 2758              	.LASF115:
 2759 00e0 65786974 		.ascii	"exitcode\000"
 2759      636F6465 
 2759      00
 2760              	.LASF84:
 2761 00e9 6D61696E 		.ascii	"mainthread\000"
 2761      74687265 
 2761      616400
 2762              	.LASF71:
 2763 00f4 76697274 		.ascii	"virtual_timers_list_t\000"
 2763      75616C5F 
 2763      74696D65 
 2763      72735F6C 
 2763      6973745F 
 2764              	.LASF87:
 2765 010a 49544D5F 		.ascii	"ITM_RxBuffer\000"
 2765      52784275 
 2765      66666572 
 2765      00
 2766              	.LASF16:
 2767 0117 72747469 		.ascii	"rttime_t\000"
 2767      6D655F74 
 2767      00
 2768              	.LASF30:
 2769 0120 705F7072 		.ascii	"p_prio\000"
 2769      696F00
 2770              	.LASF143:
 2771 0127 63665F6F 		.ascii	"cf_off_state\000"
 2771      66665F73 
 2771      74617465 
 2771      00
 2772              	.LASF157:
 2773 0134 5F76745F 		.ascii	"_vt_init\000"
 2773      696E6974 
 2773      00
 2774              	.LASF1:
 2775 013d 6C6F6E67 		.ascii	"long long int\000"
 2775      206C6F6E 
 2775      6720696E 
ARM GAS  /tmp/cckx0m9S.s 			page 51


 2775      7400
 2776              	.LASF3:
 2777 014b 7369676E 		.ascii	"signed char\000"
 2777      65642063 
 2777      68617200 
 2778              	.LASF142:
 2779 0157 63665F6F 		.ascii	"cf_off_stklimit\000"
 2779      66665F73 
 2779      746B6C69 
 2779      6D697400 
 2780              	.LASF144:
 2781 0167 63665F6F 		.ascii	"cf_off_flags\000"
 2781      66665F66 
 2781      6C616773 
 2781      00
 2782              	.LASF47:
 2783 0174 705F6D70 		.ascii	"p_mpool\000"
 2783      6F6F6C00 
 2784              	.LASF125:
 2785 017c 6D5F7175 		.ascii	"m_queue\000"
 2785      65756500 
 2786              	.LASF83:
 2787 0184 76746C69 		.ascii	"vtlist\000"
 2787      737400
 2788              	.LASF20:
 2789 018b 74736C69 		.ascii	"tslices_t\000"
 2789      6365735F 
 2789      7400
 2790              	.LASF81:
 2791 0195 63685F73 		.ascii	"ch_system\000"
 2791      79737465 
 2791      6D00
 2792              	.LASF5:
 2793 019f 6C6F6E67 		.ascii	"long int\000"
 2793      20696E74 
 2793      00
 2794              	.LASF18:
 2795 01a8 74737461 		.ascii	"tstate_t\000"
 2795      74655F74 
 2795      00
 2796              	.LASF94:
 2797 01b1 73655F74 		.ascii	"se_tp\000"
 2797      7000
 2798              	.LASF32:
 2799 01b7 705F6E65 		.ascii	"p_newer\000"
 2799      77657200 
 2800              	.LASF122:
 2801 01bf 735F7175 		.ascii	"s_queue\000"
 2801      65756500 
 2802              	.LASF98:
 2803 01c7 74625F73 		.ascii	"tb_size\000"
 2803      697A6500 
 2804              	.LASF60:
 2805 01cf 725F6E65 		.ascii	"r_newer\000"
 2805      77657200 
 2806              	.LASF89:
 2807 01d7 72656761 		.ascii	"regarm_t\000"
ARM GAS  /tmp/cckx0m9S.s 			page 52


 2807      726D5F74 
 2807      00
 2808              	.LASF67:
 2809 01e0 76745F70 		.ascii	"vt_prev\000"
 2809      72657600 
 2810              	.LASF159:
 2811 01e8 63685379 		.ascii	"chSysHalt\000"
 2811      7348616C 
 2811      7400
 2812              	.LASF75:
 2813 01f2 63685F73 		.ascii	"ch_system_debug\000"
 2813      79737465 
 2813      6D5F6465 
 2813      62756700 
 2814              	.LASF128:
 2815 0202 6D5F636E 		.ascii	"m_cnt\000"
 2815      7400
 2816              	.LASF150:
 2817 0208 6D757465 		.ascii	"mutex_t\000"
 2817      785F7400 
 2818              	.LASF78:
 2819 0210 6C6F636B 		.ascii	"lock_cnt\000"
 2819      5F636E74 
 2819      00
 2820              	.LASF86:
 2821 0219 69646C65 		.ascii	"idle_thread_wa\000"
 2821      5F746872 
 2821      6561645F 
 2821      776100
 2822              	.LASF24:
 2823 0228 636E745F 		.ascii	"cnt_t\000"
 2823      7400
 2824              	.LASF35:
 2825 022e 705F7374 		.ascii	"p_stklimit\000"
 2825      6B6C696D 
 2825      697400
 2826              	.LASF0:
 2827 0239 756E7369 		.ascii	"unsigned int\000"
 2827      676E6564 
 2827      20696E74 
 2827      00
 2828              	.LASF66:
 2829 0246 76745F6E 		.ascii	"vt_next\000"
 2829      65787400 
 2830              	.LASF9:
 2831 024e 75696E74 		.ascii	"uint16_t\000"
 2831      31365F74 
 2831      00
 2832              	.LASF88:
 2833 0257 53797374 		.ascii	"SystemCoreClock\000"
 2833      656D436F 
 2833      7265436C 
 2833      6F636B00 
 2834              	.LASF40:
 2835 0267 705F7469 		.ascii	"p_time\000"
 2835      6D6500
 2836              	.LASF118:
ARM GAS  /tmp/cckx0m9S.s 			page 53


 2837 026e 77747365 		.ascii	"wtsemp\000"
 2837      6D7000
 2838              	.LASF68:
 2839 0275 76745F64 		.ascii	"vt_delta\000"
 2839      656C7461 
 2839      00
 2840              	.LASF42:
 2841 027e 705F6D73 		.ascii	"p_msgqueue\000"
 2841      67717565 
 2841      756500
 2842              	.LASF149:
 2843 0289 63685F64 		.ascii	"ch_debug\000"
 2843      65627567 
 2843      00
 2844              	.LASF109:
 2845 0292 6E5F6972 		.ascii	"n_irq\000"
 2845      7100
 2846              	.LASF162:
 2847 0298 2F686F6D 		.ascii	"/home/olof/Documents/MICRO-315/micro-315/tp4/lib/e-"
 2847      652F6F6C 
 2847      6F662F44 
 2847      6F63756D 
 2847      656E7473 
 2848 02cb 7075636B 		.ascii	"puck2_main-processor\000"
 2848      325F6D61 
 2848      696E2D70 
 2848      726F6365 
 2848      73736F72 
 2849              	.LASF123:
 2850 02e0 735F636E 		.ascii	"s_cnt\000"
 2850      7400
 2851              	.LASF10:
 2852 02e6 73686F72 		.ascii	"short unsigned int\000"
 2852      7420756E 
 2852      7369676E 
 2852      65642069 
 2852      6E7400
 2853              	.LASF113:
 2854 02f9 6B65726E 		.ascii	"kernel_stats_t\000"
 2854      656C5F73 
 2854      74617473 
 2854      5F7400
 2855              	.LASF51:
 2856 0308 63685F74 		.ascii	"ch_thread\000"
 2856      68726561 
 2856      6400
 2857              	.LASF22:
 2858 0312 6D73675F 		.ascii	"msg_t\000"
 2858      7400
 2859              	.LASF106:
 2860 0318 6C617374 		.ascii	"last\000"
 2860      00
 2861              	.LASF25:
 2862 031d 75636E74 		.ascii	"ucnt_t\000"
 2862      5F7400
 2863              	.LASF158:
 2864 0324 63684462 		.ascii	"chDbgCheckClassI\000"
ARM GAS  /tmp/cckx0m9S.s 			page 54


 2864      67436865 
 2864      636B436C 
 2864      61737349 
 2864      00
 2865              	.LASF80:
 2866 0335 63685F73 		.ascii	"ch_system_t\000"
 2866      79737465 
 2866      6D5F7400 
 2867              	.LASF147:
 2868 0341 63665F6F 		.ascii	"cf_off_time\000"
 2868      66665F74 
 2868      696D6500 
 2869              	.LASF112:
 2870 034d 6D5F6372 		.ascii	"m_crit_isr\000"
 2870      69745F69 
 2870      737200
 2871              	.LASF56:
 2872 0358 63685F72 		.ascii	"ch_ready_list\000"
 2872      65616479 
 2872      5F6C6973 
 2872      7400
 2873              	.LASF152:
 2874 0366 63685654 		.ascii	"chVTDoSetI\000"
 2874      446F5365 
 2874      744900
 2875              	.LASF90:
 2876 0371 73746B61 		.ascii	"stkalign_t\000"
 2876      6C69676E 
 2876      5F7400
 2877              	.LASF50:
 2878 037c 74687265 		.ascii	"threads_list_t\000"
 2878      6164735F 
 2878      6C697374 
 2878      5F7400
 2879              	.LASF131:
 2880 038b 63685F7A 		.ascii	"ch_zero\000"
 2880      65726F00 
 2881              	.LASF145:
 2882 0393 63665F6F 		.ascii	"cf_off_refs\000"
 2882      66665F72 
 2882      65667300 
 2883              	.LASF41:
 2884 039f 705F7761 		.ascii	"p_waiting\000"
 2884      6974696E 
 2884      6700
 2885              	.LASF15:
 2886 03a9 7274636E 		.ascii	"rtcnt_t\000"
 2886      745F7400 
 2887              	.LASF72:
 2888 03b1 63685F76 		.ascii	"ch_virtual_timers_list\000"
 2888      69727475 
 2888      616C5F74 
 2888      696D6572 
 2888      735F6C69 
 2889              	.LASF2:
 2890 03c8 6C6F6E67 		.ascii	"long double\000"
 2890      20646F75 
ARM GAS  /tmp/cckx0m9S.s 			page 55


 2890      626C6500 
 2891              	.LASF135:
 2892 03d4 63685F74 		.ascii	"ch_timesize\000"
 2892      696D6573 
 2892      697A6500 
 2893              	.LASF99:
 2894 03e0 74625F70 		.ascii	"tb_ptr\000"
 2894      747200
 2895              	.LASF161:
 2896 03e7 2E2F2F43 		.ascii	".//ChibiOS//os/rt/src/chvt.c\000"
 2896      68696269 
 2896      4F532F2F 
 2896      6F732F72 
 2896      742F7372 
 2897              	.LASF97:
 2898 0404 63685F73 		.ascii	"ch_swc_event_t\000"
 2898      77635F65 
 2898      76656E74 
 2898      5F7400
 2899              	.LASF141:
 2900 0413 63665F6F 		.ascii	"cf_off_name\000"
 2900      66665F6E 
 2900      616D6500 
 2901              	.LASF33:
 2902 041f 705F6F6C 		.ascii	"p_older\000"
 2902      64657200 
 2903              	.LASF59:
 2904 0427 725F6374 		.ascii	"r_ctx\000"
 2904      7800
 2905              	.LASF31:
 2906 042d 705F6374 		.ascii	"p_ctx\000"
 2906      7800
 2907              	.LASF103:
 2908 0433 746D5F63 		.ascii	"tm_calibration_t\000"
 2908      616C6962 
 2908      72617469 
 2908      6F6E5F74 
 2908      00
 2909              	.LASF160:
 2910 0444 474E5520 		.ascii	"GNU C17 9.2.1 20191025 (release) [ARM/arm-9-branch "
 2910      43313720 
 2910      392E322E 
 2910      31203230 
 2910      31393130 
 2911 0477 72657669 		.ascii	"revision 277599] -mcpu=cortex-m4 -mfloat-abi=hard -"
 2911      73696F6E 
 2911      20323737 
 2911      3539395D 
 2911      202D6D63 
 2912 04aa 6D667075 		.ascii	"mfpu=fpv4-sp-d16 -mno-thumb-interwork -mthumb -marc"
 2912      3D667076 
 2912      342D7370 
 2912      2D643136 
 2912      202D6D6E 
 2913 04dd 683D6172 		.ascii	"h=armv7e-m+fp -ggdb -O2 -fomit-frame-pointer -falig"
 2913      6D763765 
 2913      2D6D2B66 
ARM GAS  /tmp/cckx0m9S.s 			page 56


 2913      70202D67 
 2913      67646220 
 2914 0510 6E2D6675 		.ascii	"n-functions=16 -fno-strict-aliasing -fstack-protect"
 2914      6E637469 
 2914      6F6E733D 
 2914      3136202D 
 2914      666E6F2D 
 2915 0543 6F722D61 		.ascii	"or-all -ffunction-sections -fdata-sections -fno-com"
 2915      6C6C202D 
 2915      6666756E 
 2915      6374696F 
 2915      6E2D7365 
 2916 0576 6D6F6E20 		.ascii	"mon -fsingle-precision-constant\000"
 2916      2D667369 
 2916      6E676C65 
 2916      2D707265 
 2916      63697369 
 2917              	.LASF62:
 2918 0596 725F6375 		.ascii	"r_current\000"
 2918      7272656E 
 2918      7400
 2919              	.LASF61:
 2920 05a0 725F6F6C 		.ascii	"r_older\000"
 2920      64657200 
 2921              	.LASF107:
 2922 05a8 63756D75 		.ascii	"cumulative\000"
 2922      6C617469 
 2922      766500
 2923              	.LASF19:
 2924 05b3 74726566 		.ascii	"trefs_t\000"
 2924      735F7400 
 2925              	.LASF100:
 2926 05bb 74625F62 		.ascii	"tb_buffer\000"
 2926      75666665 
 2926      7200
 2927              	.LASF134:
 2928 05c5 63685F70 		.ascii	"ch_ptrsize\000"
 2928      74727369 
 2928      7A6500
 2929              	.LASF64:
 2930 05d0 76697274 		.ascii	"virtual_timer_t\000"
 2930      75616C5F 
 2930      74696D65 
 2930      725F7400 
 2931              	.LASF29:
 2932 05e0 705F7072 		.ascii	"p_prev\000"
 2932      657600
 2933              	.LASF21:
 2934 05e7 74707269 		.ascii	"tprio_t\000"
 2934      6F5F7400 
 2935              	.LASF110:
 2936 05ef 6E5F6374 		.ascii	"n_ctxswc\000"
 2936      78737763 
 2936      00
 2937              	.LASF6:
 2938 05f8 696E7433 		.ascii	"int32_t\000"
 2938      325F7400 
ARM GAS  /tmp/cckx0m9S.s 			page 57


 2939              	.LASF8:
 2940 0600 756E7369 		.ascii	"unsigned char\000"
 2940      676E6564 
 2940      20636861 
 2940      7200
 2941              	.LASF153:
 2942 060e 64656C61 		.ascii	"delay\000"
 2942      7900
 2943              	.LASF45:
 2944 0614 705F6D74 		.ascii	"p_mtxlist\000"
 2944      786C6973 
 2944      7400
 2945              	.LASF4:
 2946 061e 73686F72 		.ascii	"short int\000"
 2946      7420696E 
 2946      7400
 2947              	.LASF36:
 2948 0628 705F7374 		.ascii	"p_state\000"
 2948      61746500 
 2949              	.LASF39:
 2950 0630 705F7072 		.ascii	"p_preempt\000"
 2950      65656D70 
 2950      7400
 2951              	.LASF58:
 2952 063a 725F7072 		.ascii	"r_prio\000"
 2952      696F00
 2953              	.LASF120:
 2954 0641 65776D61 		.ascii	"ewmask\000"
 2954      736B00
 2955              	.LASF28:
 2956 0648 705F6E65 		.ascii	"p_next\000"
 2956      787400
 2957              	.LASF17:
 2958 064f 746D6F64 		.ascii	"tmode_t\000"
 2958      655F7400 
 2959              	.LASF146:
 2960 0657 63665F6F 		.ascii	"cf_off_preempt\000"
 2960      66665F70 
 2960      7265656D 
 2960      707400
 2961              	.LASF37:
 2962 0666 705F666C 		.ascii	"p_flags\000"
 2962      61677300 
 2963              	.LASF156:
 2964 066e 5F5F6675 		.ascii	"__func__\000"
 2964      6E635F5F 
 2964      00
 2965              	.LASF48:
 2966 0677 705F7374 		.ascii	"p_stats\000"
 2966      61747300 
 2967              	.LASF53:
 2968 067f 74687265 		.ascii	"threads_queue_t\000"
 2968      6164735F 
 2968      71756575 
 2968      655F7400 
 2969              	.LASF65:
 2970 068f 63685F76 		.ascii	"ch_virtual_timer\000"
ARM GAS  /tmp/cckx0m9S.s 			page 58


 2970      69727475 
 2970      616C5F74 
 2970      696D6572 
 2970      00
 2971              	.LASF139:
 2972 06a0 63665F6F 		.ascii	"cf_off_newer\000"
 2972      66665F6E 
 2972      65776572 
 2972      00
 2973              	.LASF163:
 2974 06ad 5F5F7374 		.ascii	"__stack_chk_fail\000"
 2974      61636B5F 
 2974      63686B5F 
 2974      6661696C 
 2974      00
 2975              	.LASF121:
 2976 06be 63685F73 		.ascii	"ch_semaphore\000"
 2976      656D6170 
 2976      686F7265 
 2976      00
 2977              	.LASF44:
 2978 06cb 705F6570 		.ascii	"p_epending\000"
 2978      656E6469 
 2978      6E6700
 2979              	.LASF11:
 2980 06d6 75696E74 		.ascii	"uint32_t\000"
 2980      33325F74 
 2980      00
 2981              	.LASF137:
 2982 06df 63665F6F 		.ascii	"cf_off_prio\000"
 2982      66665F70 
 2982      72696F00 
 2983              	.LASF57:
 2984 06eb 725F7175 		.ascii	"r_queue\000"
 2984      65756500 
 2985              	.LASF52:
 2986 06f3 63685F74 		.ascii	"ch_threads_list\000"
 2986      68726561 
 2986      64735F6C 
 2986      69737400 
 2987              	.LASF132:
 2988 0703 63685F73 		.ascii	"ch_size\000"
 2988      697A6500 
 2989              	.LASF12:
 2990 070b 6C6F6E67 		.ascii	"long unsigned int\000"
 2990      20756E73 
 2990      69676E65 
 2990      6420696E 
 2990      7400
 2991              	.LASF129:
 2992 071d 63686172 		.ascii	"char\000"
 2992      00
 2993              	.LASF119:
 2994 0722 77746D74 		.ascii	"wtmtxp\000"
 2994      787000
 2995              	.LASF27:
 2996 0729 74687265 		.ascii	"thread_t\000"
ARM GAS  /tmp/cckx0m9S.s 			page 59


 2996      61645F74 
 2996      00
 2997              	.LASF104:
 2998 0732 62657374 		.ascii	"best\000"
 2998      00
 2999              	.LASF127:
 3000 0737 6D5F6E65 		.ascii	"m_next\000"
 3000      787400
 3001              	.LASF26:
 3002 073e 73797374 		.ascii	"systime_t\000"
 3002      696D655F 
 3002      7400
 3003              	.LASF46:
 3004 0748 705F7265 		.ascii	"p_realprio\000"
 3004      616C7072 
 3004      696F00
 3005              	.LASF63:
 3006 0753 76746675 		.ascii	"vtfunc_t\000"
 3006      6E635F74 
 3006      00
 3007              	.LASF76:
 3008 075c 70616E69 		.ascii	"panic_msg\000"
 3008      635F6D73 
 3008      6700
 3009              	.LASF102:
 3010 0766 6F666673 		.ascii	"offset\000"
 3010      657400
 3011              	.LASF91:
 3012 076d 636F6E74 		.ascii	"context\000"
 3012      65787400 
 3013              	.LASF43:
 3014 0775 705F6D73 		.ascii	"p_msg\000"
 3014      6700
 3015              	.LASF70:
 3016 077b 76745F70 		.ascii	"vt_par\000"
 3016      617200
 3017              	.LASF154:
 3018 0782 76746675 		.ascii	"vtfunc\000"
 3018      6E6300
 3019              	.LASF138:
 3020 0789 63665F6F 		.ascii	"cf_off_ctx\000"
 3020      66665F63 
 3020      747800
 3021              	.LASF124:
 3022 0794 63685F6D 		.ascii	"ch_mutex\000"
 3022      75746578 
 3022      00
 3023              	.LASF38:
 3024 079d 705F7265 		.ascii	"p_refs\000"
 3024      667300
 3025              	.LASF77:
 3026 07a4 6973725F 		.ascii	"isr_cnt\000"
 3026      636E7400 
 3027              	.LASF96:
 3028 07ac 73655F73 		.ascii	"se_state\000"
 3028      74617465 
 3028      00
ARM GAS  /tmp/cckx0m9S.s 			page 60


 3029              	.LASF82:
 3030 07b5 726C6973 		.ascii	"rlist\000"
 3030      7400
 3031              	.LASF7:
 3032 07bb 75696E74 		.ascii	"uint8_t\000"
 3032      385F7400 
 3033              	.LASF49:
 3034 07c3 74687265 		.ascii	"thread_reference_t\000"
 3034      61645F72 
 3034      65666572 
 3034      656E6365 
 3034      5F7400
 3035              	.LASF116:
 3036 07d6 77746F62 		.ascii	"wtobjp\000"
 3036      6A7000
 3037              	.LASF34:
 3038 07dd 705F6E61 		.ascii	"p_name\000"
 3038      6D6500
 3039              	.LASF73:
 3040 07e4 76745F73 		.ascii	"vt_systime\000"
 3040      79737469 
 3040      6D6500
 3041              	.LASF79:
 3042 07ef 74726163 		.ascii	"trace_buffer\000"
 3042      655F6275 
 3042      66666572 
 3042      00
 3043              	.LASF133:
 3044 07fc 63685F76 		.ascii	"ch_version\000"
 3044      65727369 
 3044      6F6E00
 3045              	.LASF111:
 3046 0807 6D5F6372 		.ascii	"m_crit_thd\000"
 3046      69745F74 
 3046      686400
 3047              	.LASF126:
 3048 0812 6D5F6F77 		.ascii	"m_owner\000"
 3048      6E657200 
 3049              	.LASF148:
 3050 081a 63686465 		.ascii	"chdebug_t\000"
 3050      6275675F 
 3050      7400
 3051              	.LASF95:
 3052 0824 73655F77 		.ascii	"se_wtobjp\000"
 3052      746F626A 
 3052      7000
 3053              	.LASF130:
 3054 082e 63685F69 		.ascii	"ch_identifier\000"
 3054      64656E74 
 3054      69666965 
 3054      7200
 3055              	.LASF69:
 3056 083c 76745F66 		.ascii	"vt_func\000"
 3056      756E6300 
 3057              		.ident	"GCC: (15:9-2019-q4-0ubuntu1) 9.2.1 20191025 (release) [ARM/arm-9-branch revision 277599]"
ARM GAS  /tmp/cckx0m9S.s 			page 61


DEFINED SYMBOLS
                            *ABS*:0000000000000000 chvt.c
     /tmp/cckx0m9S.s:18     .rodata._vt_init.cst4:0000000000000000 $d
     /tmp/cckx0m9S.s:22     .text._vt_init:0000000000000000 $t
     /tmp/cckx0m9S.s:31     .text._vt_init:0000000000000000 _vt_init
     /tmp/cckx0m9S.s:83     .text._vt_init:0000000000000038 $d
     /tmp/cckx0m9S.s:89     .rodata.chVTDoSetI.cst4:0000000000000000 $d
     /tmp/cckx0m9S.s:93     .text.chVTDoSetI:0000000000000000 $t
     /tmp/cckx0m9S.s:101    .text.chVTDoSetI:0000000000000000 chVTDoSetI
     /tmp/cckx0m9S.s:236    .text.chVTDoSetI:000000000000006c $d
     /tmp/cckx0m9S.s:243    .rodata.chVTDoResetI.cst4:0000000000000000 $d
     /tmp/cckx0m9S.s:247    .text.chVTDoResetI:0000000000000000 $t
     /tmp/cckx0m9S.s:255    .text.chVTDoResetI:0000000000000000 chVTDoResetI
     /tmp/cckx0m9S.s:360    .text.chVTDoResetI:0000000000000060 $d
     /tmp/cckx0m9S.s:367    .rodata.__func__.7965:0000000000000000 $d
     /tmp/cckx0m9S.s:371    .rodata.__func__.7965:0000000000000000 __func__.7965
     /tmp/cckx0m9S.s:374    .rodata.__func__.7972:0000000000000000 $d
     /tmp/cckx0m9S.s:378    .rodata.__func__.7972:0000000000000000 __func__.7972

UNDEFINED SYMBOLS
__stack_chk_guard
__stack_chk_fail
ch
chDbgCheckClassI
chSysHalt
