ARM GAS  /tmp/cckx0m9S.s 			page 1


   1              		.cpu cortex-m4
   2              		.eabi_attribute 27, 1
   3              		.eabi_attribute 28, 1
   4              		.eabi_attribute 20, 1
   5              		.eabi_attribute 21, 1
   6              		.eabi_attribute 23, 3
   7              		.eabi_attribute 24, 1
   8              		.eabi_attribute 25, 1
   9              		.eabi_attribute 26, 1
  10              		.eabi_attribute 30, 2
  11              		.eabi_attribute 34, 1
  12              		.eabi_attribute 18, 4
  13              		.file	"chvt.c"
  14              		.text
  15              	.Ltext0:
  16              		.cfi_sections	.debug_frame
  17              		.section	.rodata._vt_init.cst4,"aM",%progbits,4
  18              		.align	2
  19              	.LC0:
  20 0000 00000000 		.word	__stack_chk_guard
  21              		.section	.text._vt_init,"ax",%progbits
  22              		.align	1
  23              		.p2align 4,,15
  24              		.global	_vt_init
  25              		.arch armv7e-m
  26              		.syntax unified
  27              		.thumb
  28              		.thumb_func
  29              		.fpu fpv4-sp-d16
  30              		.type	_vt_init, %function
  31              	_vt_init:
  32              	.LFB219:
  33              		.file 1 ".//ChibiOS//os/rt/src/chvt.c"
  34              		.loc 1 61 21 view -0
  35              		.cfi_startproc
  36              		@ args = 0, pretend = 0, frame = 8
  37              		@ frame_needed = 0, uses_anonymous_args = 0
  38 0000 00B5     		push	{lr}
  39              		.cfi_def_cfa_offset 4
  40              		.cfi_offset 14, -4
  41 0002 0D4A     		ldr	r2, .L6
  42              		.loc 1 63 21 is_stmt 0 view .LVU1
  43 0004 0D4B     		ldr	r3, .L6+4
  44              		.loc 1 61 21 view .LVU2
  45 0006 83B0     		sub	sp, sp, #12
  46              		.cfi_def_cfa_offset 16
  47              		.loc 1 61 21 view .LVU3
  48 0008 1268     		ldr	r2, [r2]
  49 000a 0192     		str	r2, [sp, #4]
  50 000c 4FF00002 		mov	r2,#0
  51              		.loc 1 63 3 is_stmt 1 view .LVU4
  52              		.loc 1 67 24 is_stmt 0 view .LVU5
  53 0010 0022     		movs	r2, #0
  54 0012 9A62     		str	r2, [r3, #40]
  55              		.loc 1 65 22 view .LVU6
  56 0014 4FF0FF31 		mov	r1, #-1
  57              		.loc 1 63 21 view .LVU7
ARM GAS  /tmp/cckx0m9S.s 			page 2


  58 0018 03F11C02 		add	r2, r3, #28
  59              		.loc 1 64 21 view .LVU8
  60 001c C3E90722 		strd	r2, r2, [r3, #28]
  61              		.loc 1 65 3 is_stmt 1 view .LVU9
  62              		.loc 1 67 3 view .LVU10
  63              		.loc 1 65 22 is_stmt 0 view .LVU11
  64 0020 5962     		str	r1, [r3, #36]
  65              		.loc 1 71 1 view .LVU12
  66 0022 054B     		ldr	r3, .L6
  67 0024 1A68     		ldr	r2, [r3]
  68 0026 019B     		ldr	r3, [sp, #4]
  69 0028 5A40     		eors	r2, r3, r2
  70 002a 02D1     		bne	.L5
  71 002c 03B0     		add	sp, sp, #12
  72              		.cfi_remember_state
  73              		.cfi_def_cfa_offset 4
  74              		@ sp needed
  75 002e 5DF804FB 		ldr	pc, [sp], #4
  76              	.L5:
  77              		.cfi_restore_state
  78 0032 FFF7FEFF 		bl	__stack_chk_fail
  79              	.LVL0:
  80              	.L7:
  81 0036 00BF     		.align	2
  82              	.L6:
  83 0038 00000000 		.word	.LC0
  84 003c 00000000 		.word	ch
  85              		.cfi_endproc
  86              	.LFE219:
  87              		.size	_vt_init, .-_vt_init
  88              		.section	.rodata.chVTDoSetI.cst4,"aM",%progbits,4
  89              		.align	2
  90              	.LC1:
  91 0000 00000000 		.word	__stack_chk_guard
  92              		.section	.text.chVTDoSetI,"ax",%progbits
  93              		.align	1
  94              		.p2align 4,,15
  95              		.global	chVTDoSetI
  96              		.syntax unified
  97              		.thumb
  98              		.thumb_func
  99              		.fpu fpv4-sp-d16
 100              		.type	chVTDoSetI, %function
 101              	chVTDoSetI:
 102              	.LVL1:
 103              	.LFB220:
 104              		.loc 1 96 45 is_stmt 1 view -0
 105              		.cfi_startproc
 106              		@ args = 0, pretend = 0, frame = 8
 107              		@ frame_needed = 0, uses_anonymous_args = 0
 108              		.loc 1 96 45 is_stmt 0 view .LVU14
 109 0000 F0B5     		push	{r4, r5, r6, r7, lr}
 110              		.cfi_def_cfa_offset 20
 111              		.cfi_offset 4, -20
 112              		.cfi_offset 5, -16
 113              		.cfi_offset 6, -12
 114              		.cfi_offset 7, -8
ARM GAS  /tmp/cckx0m9S.s 			page 3


 115              		.cfi_offset 14, -4
 116 0002 1F46     		mov	r7, r3
 117 0004 194B     		ldr	r3, .L23
 118              	.LVL2:
 119              		.loc 1 96 45 view .LVU15
 120 0006 83B0     		sub	sp, sp, #12
 121              		.cfi_def_cfa_offset 32
 122              		.loc 1 96 45 view .LVU16
 123 0008 0546     		mov	r5, r0
 124 000a 0C46     		mov	r4, r1
 125 000c 1646     		mov	r6, r2
 126 000e 1B68     		ldr	r3, [r3]
 127 0010 0193     		str	r3, [sp, #4]
 128 0012 4FF00003 		mov	r3,#0
 129              		.loc 1 97 3 is_stmt 1 view .LVU17
 130              		.loc 1 98 3 view .LVU18
 131              		.loc 1 100 3 view .LVU19
 132 0016 FFF7FEFF 		bl	chDbgCheckClassI
 133              	.LVL3:
 134              		.loc 1 101 3 view .LVU20
 135              		.loc 1 101 3 view .LVU21
 136              		.loc 1 101 3 view .LVU22
 137 001a 05B3     		cbz	r5, .L9
 138              		.loc 1 101 3 is_stmt 0 discriminator 4 view .LVU23
 139 001c FEB1     		cbz	r6, .L9
 140              		.loc 1 101 3 discriminator 6 view .LVU24
 141 001e F4B1     		cbz	r4, .L9
 142              	.L10:
 143              		.loc 1 101 3 is_stmt 1 discriminator 9 view .LVU25
 144              		.loc 1 103 3 discriminator 9 view .LVU26
 145              		.loc 1 104 16 is_stmt 0 discriminator 9 view .LVU27
 146 0020 C5E90367 		strd	r6, r7, [r5, #12]
 147              		.loc 1 145 3 is_stmt 1 discriminator 9 view .LVU28
 148              	.LVL4:
 149              		.loc 1 150 3 discriminator 9 view .LVU29
 150              		.loc 1 150 5 is_stmt 0 discriminator 9 view .LVU30
 151 0024 1248     		ldr	r0, .L23+4
 152 0026 C369     		ldr	r3, [r0, #28]
 153              	.LVL5:
 154              		.loc 1 151 3 is_stmt 1 discriminator 9 view .LVU31
 155              		.loc 1 151 9 discriminator 9 view .LVU32
 156              		.loc 1 151 11 is_stmt 0 discriminator 9 view .LVU33
 157 0028 9A68     		ldr	r2, [r3, #8]
 158              		.loc 1 151 9 discriminator 9 view .LVU34
 159 002a 9442     		cmp	r4, r2
 160 002c 04D9     		bls	.L11
 161              	.LVL6:
 162              	.L12:
 163              		.loc 1 152 5 is_stmt 1 view .LVU35
 164              		.loc 1 153 7 is_stmt 0 view .LVU36
 165 002e 1B68     		ldr	r3, [r3]
 166              	.LVL7:
 167              		.loc 1 152 11 view .LVU37
 168 0030 A41A     		subs	r4, r4, r2
 169              	.LVL8:
 170              		.loc 1 153 5 is_stmt 1 view .LVU38
 171              		.loc 1 151 9 view .LVU39
ARM GAS  /tmp/cckx0m9S.s 			page 4


 172              		.loc 1 151 11 is_stmt 0 view .LVU40
 173 0032 9A68     		ldr	r2, [r3, #8]
 174              		.loc 1 151 9 view .LVU41
 175 0034 A242     		cmp	r2, r4
 176 0036 FAD3     		bcc	.L12
 177              	.L11:
 178              		.loc 1 157 3 is_stmt 1 view .LVU42
 179              		.loc 1 157 16 is_stmt 0 view .LVU43
 180 0038 2B60     		str	r3, [r5]
 181              		.loc 1 158 3 is_stmt 1 view .LVU44
 182              		.loc 1 158 30 is_stmt 0 view .LVU45
 183 003a 5A68     		ldr	r2, [r3, #4]
 184              		.loc 1 158 16 view .LVU46
 185 003c 6A60     		str	r2, [r5, #4]
 186              		.loc 1 159 3 is_stmt 1 view .LVU47
 187              		.loc 1 159 25 is_stmt 0 view .LVU48
 188 003e 1560     		str	r5, [r2]
 189              		.loc 1 160 3 is_stmt 1 view .LVU49
 190              		.loc 1 160 14 is_stmt 0 view .LVU50
 191 0040 5D60     		str	r5, [r3, #4]
 192              		.loc 1 161 3 is_stmt 1 view .LVU51
 193              		.loc 1 161 17 is_stmt 0 view .LVU52
 194 0042 AC60     		str	r4, [r5, #8]
 195              		.loc 1 165 3 is_stmt 1 view .LVU53
 196              		.loc 1 165 15 is_stmt 0 view .LVU54
 197 0044 9968     		ldr	r1, [r3, #8]
 198 0046 091B     		subs	r1, r1, r4
 199              		.loc 1 166 22 view .LVU55
 200 0048 4FF0FF32 		mov	r2, #-1
 201              		.loc 1 165 15 view .LVU56
 202 004c 9960     		str	r1, [r3, #8]
 203              		.loc 1 166 3 is_stmt 1 view .LVU57
 204              		.loc 1 167 1 is_stmt 0 view .LVU58
 205 004e 074B     		ldr	r3, .L23
 206              	.LVL9:
 207              		.loc 1 166 22 view .LVU59
 208 0050 4262     		str	r2, [r0, #36]
 209              		.loc 1 167 1 view .LVU60
 210 0052 1A68     		ldr	r2, [r3]
 211 0054 019B     		ldr	r3, [sp, #4]
 212 0056 5A40     		eors	r2, r3, r2
 213 0058 05D1     		bne	.L22
 214              		.loc 1 167 1 view .LVU61
 215 005a 03B0     		add	sp, sp, #12
 216              		.cfi_remember_state
 217              		.cfi_def_cfa_offset 20
 218              		@ sp needed
 219 005c F0BD     		pop	{r4, r5, r6, r7, pc}
 220              	.LVL10:
 221              	.L9:
 222              		.cfi_restore_state
 223              		.loc 1 101 3 is_stmt 1 discriminator 7 view .LVU62
 224 005e 0548     		ldr	r0, .L23+8
 225 0060 FFF7FEFF 		bl	chSysHalt
 226              	.LVL11:
 227 0064 DCE7     		b	.L10
 228              	.LVL12:
ARM GAS  /tmp/cckx0m9S.s 			page 5


 229              	.L22:
 230              		.loc 1 167 1 is_stmt 0 view .LVU63
 231 0066 FFF7FEFF 		bl	__stack_chk_fail
 232              	.LVL13:
 233              	.L24:
 234 006a 00BF     		.align	2
 235              	.L23:
 236 006c 00000000 		.word	.LC1
 237 0070 00000000 		.word	ch
 238 0074 00000000 		.word	.LANCHOR0
 239              		.cfi_endproc
 240              	.LFE220:
 241              		.size	chVTDoSetI, .-chVTDoSetI
 242              		.section	.rodata.chVTDoResetI.cst4,"aM",%progbits,4
 243              		.align	2
 244              	.LC2:
 245 0000 00000000 		.word	__stack_chk_guard
 246              		.section	.text.chVTDoResetI,"ax",%progbits
 247              		.align	1
 248              		.p2align 4,,15
 249              		.global	chVTDoResetI
 250              		.syntax unified
 251              		.thumb
 252              		.thumb_func
 253              		.fpu fpv4-sp-d16
 254              		.type	chVTDoResetI, %function
 255              	chVTDoResetI:
 256              	.LVL14:
 257              	.LFB221:
 258              		.loc 1 177 41 is_stmt 1 view -0
 259              		.cfi_startproc
 260              		@ args = 0, pretend = 0, frame = 8
 261              		@ frame_needed = 0, uses_anonymous_args = 0
 262              		.loc 1 177 41 is_stmt 0 view .LVU65
 263 0000 10B5     		push	{r4, lr}
 264              		.cfi_def_cfa_offset 8
 265              		.cfi_offset 4, -8
 266              		.cfi_offset 14, -4
 267 0002 174B     		ldr	r3, .L33
 268 0004 82B0     		sub	sp, sp, #8
 269              		.cfi_def_cfa_offset 16
 270              		.loc 1 177 41 view .LVU66
 271 0006 0446     		mov	r4, r0
 272 0008 1B68     		ldr	r3, [r3]
 273 000a 0193     		str	r3, [sp, #4]
 274 000c 4FF00003 		mov	r3,#0
 275              		.loc 1 179 3 is_stmt 1 view .LVU67
 276 0010 FFF7FEFF 		bl	chDbgCheckClassI
 277              	.LVL15:
 278              		.loc 1 180 3 view .LVU68
 279              		.loc 1 180 3 view .LVU69
 280              		.loc 1 180 3 view .LVU70
 281 0014 C4B1     		cbz	r4, .L30
 282              		.loc 1 180 3 discriminator 1 view .LVU71
 283              		.loc 1 181 3 discriminator 1 view .LVU72
 284              		.loc 1 181 3 discriminator 1 view .LVU73
 285              		.loc 1 181 3 discriminator 1 view .LVU74
ARM GAS  /tmp/cckx0m9S.s 			page 6


 286 0016 E368     		ldr	r3, [r4, #12]
 287 0018 E3B1     		cbz	r3, .L31
 288              	.L27:
 289              		.loc 1 181 3 discriminator 5 view .LVU75
 290              		.loc 1 186 3 discriminator 5 view .LVU76
 291              		.loc 1 186 6 is_stmt 0 discriminator 5 view .LVU77
 292 001a 2268     		ldr	r2, [r4]
 293              		.loc 1 186 26 discriminator 5 view .LVU78
 294 001c A068     		ldr	r0, [r4, #8]
 295 001e 9368     		ldr	r3, [r2, #8]
 296              		.loc 1 195 22 discriminator 5 view .LVU79
 297 0020 1049     		ldr	r1, .L33+4
 298              		.loc 1 186 26 discriminator 5 view .LVU80
 299 0022 0344     		add	r3, r3, r0
 300 0024 9360     		str	r3, [r2, #8]
 301              		.loc 1 189 3 is_stmt 1 discriminator 5 view .LVU81
 302              		.loc 1 189 30 is_stmt 0 discriminator 5 view .LVU82
 303 0026 D4E90032 		ldrd	r3, r2, [r4]
 304              		.loc 1 189 25 discriminator 5 view .LVU83
 305 002a 1360     		str	r3, [r2]
 306              		.loc 1 190 3 is_stmt 1 discriminator 5 view .LVU84
 307              		.loc 1 190 30 is_stmt 0 discriminator 5 view .LVU85
 308 002c 6268     		ldr	r2, [r4, #4]
 309              		.loc 1 190 25 discriminator 5 view .LVU86
 310 002e 5A60     		str	r2, [r3, #4]
 311              		.loc 1 191 3 is_stmt 1 discriminator 5 view .LVU87
 312              		.loc 1 191 16 is_stmt 0 discriminator 5 view .LVU88
 313 0030 0022     		movs	r2, #0
 314              		.loc 1 195 22 discriminator 5 view .LVU89
 315 0032 4FF0FF33 		mov	r3, #-1
 316              		.loc 1 191 16 discriminator 5 view .LVU90
 317 0036 E260     		str	r2, [r4, #12]
 318              		.loc 1 195 3 is_stmt 1 discriminator 5 view .LVU91
 319              		.loc 1 195 22 is_stmt 0 discriminator 5 view .LVU92
 320 0038 4B62     		str	r3, [r1, #36]
 321              		.loc 1 255 1 discriminator 5 view .LVU93
 322 003a 094B     		ldr	r3, .L33
 323 003c 1A68     		ldr	r2, [r3]
 324 003e 019B     		ldr	r3, [sp, #4]
 325 0040 5A40     		eors	r2, r3, r2
 326 0042 0BD1     		bne	.L32
 327              		.loc 1 255 1 view .LVU94
 328 0044 02B0     		add	sp, sp, #8
 329              		.cfi_remember_state
 330              		.cfi_def_cfa_offset 8
 331              		@ sp needed
 332 0046 10BD     		pop	{r4, pc}
 333              	.LVL16:
 334              	.L30:
 335              		.cfi_restore_state
 336              		.loc 1 180 3 is_stmt 1 discriminator 3 view .LVU95
 337 0048 0748     		ldr	r0, .L33+8
 338 004a FFF7FEFF 		bl	chSysHalt
 339              	.LVL17:
 340              		.loc 1 180 3 discriminator 3 view .LVU96
 341              		.loc 1 181 3 discriminator 3 view .LVU97
 342              		.loc 1 181 3 discriminator 3 view .LVU98
ARM GAS  /tmp/cckx0m9S.s 			page 7


 343              		.loc 1 181 3 discriminator 3 view .LVU99
 344 004e E368     		ldr	r3, [r4, #12]
 345 0050 002B     		cmp	r3, #0
 346 0052 E2D1     		bne	.L27
 347              	.L31:
 348              		.loc 1 181 3 discriminator 3 view .LVU100
 349 0054 0448     		ldr	r0, .L33+8
 350 0056 FFF7FEFF 		bl	chSysHalt
 351              	.LVL18:
 352 005a DEE7     		b	.L27
 353              	.L32:
 354              		.loc 1 255 1 is_stmt 0 view .LVU101
 355 005c FFF7FEFF 		bl	__stack_chk_fail
 356              	.LVL19:
 357              	.L34:
 358              		.align	2
 359              	.L33:
 360 0060 00000000 		.word	.LC2
 361 0064 00000000 		.word	ch
 362 0068 00000000 		.word	.LANCHOR1
 363              		.cfi_endproc
 364              	.LFE221:
 365              		.size	chVTDoResetI, .-chVTDoResetI
 366              		.section	.rodata.__func__.7965,"a"
 367              		.align	2
 368              		.set	.LANCHOR0,. + 0
 369              		.type	__func__.7965, %object
 370              		.size	__func__.7965, 11
 371              	__func__.7965:
 372 0000 63685654 		.ascii	"chVTDoSetI\000"
 372      446F5365 
 372      744900
 373              		.section	.rodata.__func__.7972,"a"
 374              		.align	2
 375              		.set	.LANCHOR1,. + 0
 376              		.type	__func__.7972, %object
 377              		.size	__func__.7972, 13
 378              	__func__.7972:
 379 0000 63685654 		.ascii	"chVTDoResetI\000"
 379      446F5265 
 379      73657449 
 379      00
 380              		.text
 381              	.Letext0:
 382              		.file 2 "/usr/lib/gcc/arm-none-eabi/9.2.1/include/stdint.h"
 383              		.file 3 ".//ChibiOS//os/rt/ports/ARMCMx/compilers/GCC/chtypes.h"
 384              		.file 4 ".//ChibiOS//os/rt/include/chsystypes.h"
 385              		.file 5 ".//ChibiOS//os/rt/include/chschd.h"
 386              		.file 6 ".//ChibiOS//os/ext/CMSIS/include/core_cm4.h"
 387              		.file 7 ".//ChibiOS//os/ext/CMSIS/ST/system_stm32f4xx.h"
 388              		.file 8 ".//ChibiOS//os/rt/ports/ARMCMx/chcore.h"
 389              		.file 9 ".//ChibiOS//os/rt/ports/ARMCMx/chcore_v7m.h"
 390              		.file 10 ".//ChibiOS//os/rt/include/chdebug.h"
 391              		.file 11 ".//ChibiOS//os/rt/include/chtm.h"
 392              		.file 12 ".//ChibiOS//os/rt/include/chstats.h"
 393              		.file 13 ".//ChibiOS//os/rt/include/chsem.h"
 394              		.file 14 ".//ChibiOS//os/rt/include/chmtx.h"
ARM GAS  /tmp/cckx0m9S.s 			page 8


 395              		.file 15 ".//ChibiOS//os/rt/include/chregistry.h"
 396              		.file 16 ".//ChibiOS//os/rt/include/chsys.h"