ARM GAS  /tmp/ccsMrpMe.s 			page 1


   1              		.cpu cortex-m4
   2              		.eabi_attribute 27, 1
   3              		.eabi_attribute 28, 1
   4              		.eabi_attribute 20, 1
   5              		.eabi_attribute 21, 1
   6              		.eabi_attribute 23, 3
   7              		.eabi_attribute 24, 1
   8              		.eabi_attribute 25, 1
   9              		.eabi_attribute 26, 1
  10              		.eabi_attribute 30, 2
  11              		.eabi_attribute 34, 1
  12              		.eabi_attribute 18, 4
  13              		.file	"cmp_mem_access.c"
  14              		.text
  15              	.Ltext0:
  16              		.cfi_sections	.debug_frame
  17              		.section	.rodata.cmp_mem_writer_ro.cst4,"aM",%progbits,4
  18              		.align	2
  19              	.LC0:
  20 0000 00000000 		.word	__stack_chk_guard
  21              		.section	.text.cmp_mem_writer_ro,"ax",%progbits
  22              		.align	1
  23              		.p2align 4,,15
  24              		.arch armv7e-m
  25              		.syntax unified
  26              		.thumb
  27              		.thumb_func
  28              		.fpu fpv4-sp-d16
  29              		.type	cmp_mem_writer_ro, %function
  30              	cmp_mem_writer_ro:
  31              	.LVL0:
  32              	.LFB2:
  33              		.file 1 ".//src/cmp_mem_access/cmp_mem_access.c"
  34              		.loc 1 29 1 view -0
  35              		.cfi_startproc
  36              		@ args = 0, pretend = 0, frame = 8
  37              		@ frame_needed = 0, uses_anonymous_args = 0
  38              		.loc 1 29 1 is_stmt 0 view .LVU1
  39 0000 00B5     		push	{lr}
  40              		.cfi_def_cfa_offset 4
  41              		.cfi_offset 14, -4
  42 0002 084B     		ldr	r3, .L6
  43 0004 83B0     		sub	sp, sp, #12
  44              		.cfi_def_cfa_offset 16
  45              		.loc 1 29 1 view .LVU2
  46 0006 1B68     		ldr	r3, [r3]
  47 0008 0193     		str	r3, [sp, #4]
  48 000a 4FF00003 		mov	r3,#0
  49              		.loc 1 30 5 is_stmt 1 view .LVU3
  50              		.loc 1 31 5 view .LVU4
  51              		.loc 1 32 5 view .LVU5
  52              		.loc 1 33 5 view .LVU6
  53              		.loc 1 34 1 is_stmt 0 view .LVU7
  54 000e 054B     		ldr	r3, .L6
  55 0010 1A68     		ldr	r2, [r3]
  56 0012 019B     		ldr	r3, [sp, #4]
  57 0014 5A40     		eors	r2, r3, r2
ARM GAS  /tmp/ccsMrpMe.s 			page 2


  58              	.LVL1:
  59              		.loc 1 34 1 view .LVU8
  60 0016 03D1     		bne	.L5
  61 0018 0020     		movs	r0, #0
  62              	.LVL2:
  63              		.loc 1 34 1 view .LVU9
  64 001a 03B0     		add	sp, sp, #12
  65              		.cfi_remember_state
  66              		.cfi_def_cfa_offset 4
  67              		@ sp needed
  68 001c 5DF804FB 		ldr	pc, [sp], #4
  69              	.LVL3:
  70              	.L5:
  71              		.cfi_restore_state
  72              		.loc 1 34 1 view .LVU10
  73 0020 FFF7FEFF 		bl	__stack_chk_fail
  74              	.LVL4:
  75              	.L7:
  76              		.loc 1 34 1 view .LVU11
  77              		.align	2
  78              	.L6:
  79 0024 00000000 		.word	.LC0
  80              		.cfi_endproc
  81              	.LFE2:
  82              		.size	cmp_mem_writer_ro, .-cmp_mem_writer_ro
  83              		.section	.rodata.cmp_mem_writer.cst4,"aM",%progbits,4
  84              		.align	2
  85              	.LC1:
  86 0000 00000000 		.word	__stack_chk_guard
  87              		.section	.text.cmp_mem_writer,"ax",%progbits
  88              		.align	1
  89              		.p2align 4,,15
  90              		.syntax unified
  91              		.thumb
  92              		.thumb_func
  93              		.fpu fpv4-sp-d16
  94              		.type	cmp_mem_writer, %function
  95              	cmp_mem_writer:
  96              	.LVL5:
  97              	.LFB1:
  98              		.loc 1 17 1 is_stmt 1 view -0
  99              		.cfi_startproc
 100              		@ args = 0, pretend = 0, frame = 8
 101              		@ frame_needed = 0, uses_anonymous_args = 0
 102              		.loc 1 17 1 is_stmt 0 view .LVU13
 103 0000 70B5     		push	{r4, r5, r6, lr}
 104              		.cfi_def_cfa_offset 16
 105              		.cfi_offset 4, -16
 106              		.cfi_offset 5, -12
 107              		.cfi_offset 6, -8
 108              		.cfi_offset 14, -4
 109 0002 104B     		ldr	r3, .L15
 110              		.loc 1 18 23 view .LVU14
 111 0004 4568     		ldr	r5, [r0, #4]
 112              		.loc 1 17 1 view .LVU15
 113 0006 82B0     		sub	sp, sp, #8
 114              		.cfi_def_cfa_offset 24
ARM GAS  /tmp/ccsMrpMe.s 			page 3


 115              		.loc 1 17 1 view .LVU16
 116 0008 1B68     		ldr	r3, [r3]
 117 000a 0193     		str	r3, [sp, #4]
 118 000c 4FF00003 		mov	r3,#0
 119              		.loc 1 18 5 is_stmt 1 view .LVU17
 120              	.LVL6:
 121              		.loc 1 19 5 view .LVU18
 122              		.loc 1 19 8 is_stmt 0 view .LVU19
 123 0010 D5E90130 		ldrd	r3, r0, [r5, #4]
 124              	.LVL7:
 125              		.loc 1 19 20 view .LVU20
 126 0014 9E18     		adds	r6, r3, r2
 127              		.loc 1 19 8 view .LVU21
 128 0016 8642     		cmp	r6, r0
 129 0018 07D9     		bls	.L13
 130              		.loc 1 24 16 view .LVU22
 131 001a 0020     		movs	r0, #0
 132              	.LVL8:
 133              	.L8:
 134              		.loc 1 26 1 view .LVU23
 135 001c 094B     		ldr	r3, .L15
 136 001e 1A68     		ldr	r2, [r3]
 137 0020 019B     		ldr	r3, [sp, #4]
 138 0022 5A40     		eors	r2, r3, r2
 139 0024 0BD1     		bne	.L14
 140 0026 02B0     		add	sp, sp, #8
 141              		.cfi_remember_state
 142              		.cfi_def_cfa_offset 16
 143              		@ sp needed
 144 0028 70BD     		pop	{r4, r5, r6, pc}
 145              	.LVL9:
 146              	.L13:
 147              		.cfi_restore_state
 148              		.loc 1 20 9 is_stmt 1 view .LVU24
 149              		.loc 1 20 16 is_stmt 0 view .LVU25
 150 002a 2868     		ldr	r0, [r5]
 151              		.loc 1 20 9 view .LVU26
 152 002c 1844     		add	r0, r0, r3
 153 002e 1446     		mov	r4, r2
 154 0030 FFF7FEFF 		bl	memcpy
 155              	.LVL10:
 156              		.loc 1 21 9 is_stmt 1 view .LVU27
 157              		.loc 1 21 20 is_stmt 0 view .LVU28
 158 0034 6B68     		ldr	r3, [r5, #4]
 159 0036 2344     		add	r3, r3, r4
 160 0038 6B60     		str	r3, [r5, #4]
 161              		.loc 1 22 9 is_stmt 1 view .LVU29
 162              		.loc 1 22 16 is_stmt 0 view .LVU30
 163 003a 2046     		mov	r0, r4
 164 003c EEE7     		b	.L8
 165              	.LVL11:
 166              	.L14:
 167              		.loc 1 26 1 view .LVU31
 168 003e FFF7FEFF 		bl	__stack_chk_fail
 169              	.LVL12:
 170              	.L16:
 171 0042 00BF     		.align	2
ARM GAS  /tmp/ccsMrpMe.s 			page 4


 172              	.L15:
 173 0044 00000000 		.word	.LC1
 174              		.cfi_endproc
 175              	.LFE1:
 176              		.size	cmp_mem_writer, .-cmp_mem_writer
 177              		.section	.rodata.cmp_mem_reader.cst4,"aM",%progbits,4
 178              		.align	2
 179              	.LC2:
 180 0000 00000000 		.word	__stack_chk_guard
 181              		.section	.text.cmp_mem_reader,"ax",%progbits
 182              		.align	1
 183              		.p2align 4,,15
 184              		.syntax unified
 185              		.thumb
 186              		.thumb_func
 187              		.fpu fpv4-sp-d16
 188              		.type	cmp_mem_reader, %function
 189              	cmp_mem_reader:
 190              	.LVL13:
 191              	.LFB0:
 192              		.loc 1 5 1 is_stmt 1 view -0
 193              		.cfi_startproc
 194              		@ args = 0, pretend = 0, frame = 8
 195              		@ frame_needed = 0, uses_anonymous_args = 0
 196              		.loc 1 5 1 is_stmt 0 view .LVU33
 197 0000 70B5     		push	{r4, r5, r6, lr}
 198              		.cfi_def_cfa_offset 16
 199              		.cfi_offset 4, -16
 200              		.cfi_offset 5, -12
 201              		.cfi_offset 6, -8
 202              		.cfi_offset 14, -4
 203 0002 104B     		ldr	r3, .L24
 204              		.loc 1 6 23 view .LVU34
 205 0004 4568     		ldr	r5, [r0, #4]
 206              		.loc 1 5 1 view .LVU35
 207 0006 82B0     		sub	sp, sp, #8
 208              		.cfi_def_cfa_offset 24
 209              		.loc 1 5 1 view .LVU36
 210 0008 1B68     		ldr	r3, [r3]
 211 000a 0193     		str	r3, [sp, #4]
 212 000c 4FF00003 		mov	r3,#0
 213              		.loc 1 6 5 is_stmt 1 view .LVU37
 214              	.LVL14:
 215              		.loc 1 7 5 view .LVU38
 216              		.loc 1 7 8 is_stmt 0 view .LVU39
 217 0010 D5E90163 		ldrd	r6, r3, [r5, #4]
 218              		.loc 1 7 20 view .LVU40
 219 0014 B018     		adds	r0, r6, r2
 220              	.LVL15:
 221              		.loc 1 7 8 view .LVU41
 222 0016 9842     		cmp	r0, r3
 223 0018 07D9     		bls	.L22
 224              		.loc 1 12 16 view .LVU42
 225 001a 0020     		movs	r0, #0
 226              	.LVL16:
 227              	.L18:
 228              		.loc 1 14 1 view .LVU43
ARM GAS  /tmp/ccsMrpMe.s 			page 5


 229 001c 094B     		ldr	r3, .L24
 230 001e 1A68     		ldr	r2, [r3]
 231 0020 019B     		ldr	r3, [sp, #4]
 232 0022 5A40     		eors	r2, r3, r2
 233 0024 0CD1     		bne	.L23
 234 0026 02B0     		add	sp, sp, #8
 235              		.cfi_remember_state
 236              		.cfi_def_cfa_offset 16
 237              		@ sp needed
 238 0028 70BD     		pop	{r4, r5, r6, pc}
 239              	.LVL17:
 240              	.L22:
 241              		.cfi_restore_state
 242              		.loc 1 8 9 is_stmt 1 view .LVU44
 243              		.loc 1 8 22 is_stmt 0 view .LVU45
 244 002a 2B68     		ldr	r3, [r5]
 245              		.loc 1 8 9 view .LVU46
 246 002c 0846     		mov	r0, r1
 247 002e 9919     		adds	r1, r3, r6
 248              	.LVL18:
 249              		.loc 1 8 9 view .LVU47
 250 0030 1446     		mov	r4, r2
 251 0032 FFF7FEFF 		bl	memcpy
 252              	.LVL19:
 253              		.loc 1 9 9 is_stmt 1 view .LVU48
 254              		.loc 1 9 20 is_stmt 0 view .LVU49
 255 0036 6A68     		ldr	r2, [r5, #4]
 256 0038 2244     		add	r2, r2, r4
 257 003a 6A60     		str	r2, [r5, #4]
 258              		.loc 1 10 9 is_stmt 1 view .LVU50
 259              		.loc 1 10 16 is_stmt 0 view .LVU51
 260 003c 0120     		movs	r0, #1
 261 003e EDE7     		b	.L18
 262              	.LVL20:
 263              	.L23:
 264              		.loc 1 14 1 view .LVU52
 265 0040 FFF7FEFF 		bl	__stack_chk_fail
 266              	.LVL21:
 267              	.L25:
 268              		.align	2
 269              	.L24:
 270 0044 00000000 		.word	.LC2
 271              		.cfi_endproc
 272              	.LFE0:
 273              		.size	cmp_mem_reader, .-cmp_mem_reader
 274              		.section	.rodata.cmp_mem_access_init.cst4,"aM",%progbits,4
 275              		.align	2
 276              	.LC3:
 277 0000 00000000 		.word	__stack_chk_guard
 278              		.section	.text.cmp_mem_access_init,"ax",%progbits
 279              		.align	1
 280              		.p2align 4,,15
 281              		.global	cmp_mem_access_init
 282              		.syntax unified
 283              		.thumb
 284              		.thumb_func
 285              		.fpu fpv4-sp-d16
ARM GAS  /tmp/ccsMrpMe.s 			page 6


 286              		.type	cmp_mem_access_init, %function
 287              	cmp_mem_access_init:
 288              	.LVL22:
 289              	.LFB3:
 290              		.loc 1 37 1 is_stmt 1 view -0
 291              		.cfi_startproc
 292              		@ args = 0, pretend = 0, frame = 8
 293              		@ frame_needed = 0, uses_anonymous_args = 0
 294              		.loc 1 37 1 is_stmt 0 view .LVU54
 295 0000 10B5     		push	{r4, lr}
 296              		.cfi_def_cfa_offset 8
 297              		.cfi_offset 4, -8
 298              		.cfi_offset 14, -4
 299 0002 DFF834C0 		ldr	ip, .L31
 300 0006 82B0     		sub	sp, sp, #8
 301              		.cfi_def_cfa_offset 16
 302              		.loc 1 37 1 view .LVU55
 303 0008 DCF800C0 		ldr	ip, [ip]
 304 000c CDF804C0 		str	ip, [sp, #4]
 305 0010 4FF0000C 		mov	ip,#0
 306              		.loc 1 38 5 is_stmt 1 view .LVU56
 307              		.loc 1 38 12 is_stmt 0 view .LVU57
 308 0014 0A60     		str	r2, [r1]
 309              		.loc 1 39 5 is_stmt 1 view .LVU58
 310              		.loc 1 40 14 is_stmt 0 view .LVU59
 311 0016 0022     		movs	r2, #0
 312              	.LVL23:
 313              		.loc 1 40 14 view .LVU60
 314 0018 C1E90123 		strd	r2, r3, [r1, #4]
 315              		.loc 1 41 5 is_stmt 1 view .LVU61
 316 001c 064B     		ldr	r3, .L31
 317              	.LVL24:
 318              		.loc 1 41 5 is_stmt 0 view .LVU62
 319 001e 1A68     		ldr	r2, [r3]
 320 0020 019B     		ldr	r3, [sp, #4]
 321 0022 5A40     		eors	r2, r3, r2
 322 0024 06D1     		bne	.L30
 323 0026 054B     		ldr	r3, .L31+4
 324 0028 054A     		ldr	r2, .L31+8
 325              		.loc 1 42 1 view .LVU63
 326 002a 02B0     		add	sp, sp, #8
 327              		.cfi_remember_state
 328              		.cfi_def_cfa_offset 8
 329              		@ sp needed
 330 002c BDE81040 		pop	{r4, lr}
 331              		.cfi_restore 14
 332              		.cfi_restore 4
 333              		.cfi_def_cfa_offset 0
 334              		.loc 1 41 5 view .LVU64
 335 0030 FFF7FEBF 		b	cmp_init
 336              	.LVL25:
 337              	.L30:
 338              		.cfi_restore_state
 339              		.loc 1 41 5 view .LVU65
 340 0034 FFF7FEFF 		bl	__stack_chk_fail
 341              	.LVL26:
 342              	.L32:
ARM GAS  /tmp/ccsMrpMe.s 			page 7


 343              		.loc 1 41 5 view .LVU66
 344              		.align	2
 345              	.L31:
 346 0038 00000000 		.word	.LC3
 347 003c 00000000 		.word	cmp_mem_writer
 348 0040 00000000 		.word	cmp_mem_reader
 349              		.cfi_endproc
 350              	.LFE3:
 351              		.size	cmp_mem_access_init, .-cmp_mem_access_init
 352              		.section	.rodata.cmp_mem_access_ro_init.cst4,"aM",%progbits,4
 353              		.align	2
 354              	.LC4:
 355 0000 00000000 		.word	__stack_chk_guard
 356              		.section	.text.cmp_mem_access_ro_init,"ax",%progbits
 357              		.align	1
 358              		.p2align 4,,15
 359              		.global	cmp_mem_access_ro_init
 360              		.syntax unified
 361              		.thumb
 362              		.thumb_func
 363              		.fpu fpv4-sp-d16
 364              		.type	cmp_mem_access_ro_init, %function
 365              	cmp_mem_access_ro_init:
 366              	.LVL27:
 367              	.LFB4:
 368              		.loc 1 45 1 is_stmt 1 view -0
 369              		.cfi_startproc
 370              		@ args = 0, pretend = 0, frame = 8
 371              		@ frame_needed = 0, uses_anonymous_args = 0
 372              		.loc 1 45 1 is_stmt 0 view .LVU68
 373 0000 10B5     		push	{r4, lr}
 374              		.cfi_def_cfa_offset 8
 375              		.cfi_offset 4, -8
 376              		.cfi_offset 14, -4
 377 0002 DFF834C0 		ldr	ip, .L38
 378 0006 82B0     		sub	sp, sp, #8
 379              		.cfi_def_cfa_offset 16
 380              		.loc 1 45 1 view .LVU69
 381 0008 DCF800C0 		ldr	ip, [ip]
 382 000c CDF804C0 		str	ip, [sp, #4]
 383 0010 4FF0000C 		mov	ip,#0
 384              		.loc 1 46 5 is_stmt 1 view .LVU70
 385              		.loc 1 46 12 is_stmt 0 view .LVU71
 386 0014 0A60     		str	r2, [r1]
 387              		.loc 1 47 5 is_stmt 1 view .LVU72
 388              		.loc 1 48 14 is_stmt 0 view .LVU73
 389 0016 0022     		movs	r2, #0
 390              	.LVL28:
 391              		.loc 1 48 14 view .LVU74
 392 0018 C1E90123 		strd	r2, r3, [r1, #4]
 393              		.loc 1 49 5 is_stmt 1 view .LVU75
 394 001c 064B     		ldr	r3, .L38
 395              	.LVL29:
 396              		.loc 1 49 5 is_stmt 0 view .LVU76
 397 001e 1A68     		ldr	r2, [r3]
 398 0020 019B     		ldr	r3, [sp, #4]
 399 0022 5A40     		eors	r2, r3, r2
ARM GAS  /tmp/ccsMrpMe.s 			page 8


 400 0024 06D1     		bne	.L37
 401 0026 054B     		ldr	r3, .L38+4
 402 0028 054A     		ldr	r2, .L38+8
 403              		.loc 1 50 1 view .LVU77
 404 002a 02B0     		add	sp, sp, #8
 405              		.cfi_remember_state
 406              		.cfi_def_cfa_offset 8
 407              		@ sp needed
 408 002c BDE81040 		pop	{r4, lr}
 409              		.cfi_restore 14
 410              		.cfi_restore 4
 411              		.cfi_def_cfa_offset 0
 412              		.loc 1 49 5 view .LVU78
 413 0030 FFF7FEBF 		b	cmp_init
 414              	.LVL30:
 415              	.L37:
 416              		.cfi_restore_state
 417              		.loc 1 49 5 view .LVU79
 418 0034 FFF7FEFF 		bl	__stack_chk_fail
 419              	.LVL31:
 420              	.L39:
 421              		.loc 1 49 5 view .LVU80
 422              		.align	2
 423              	.L38:
 424 0038 00000000 		.word	.LC4
 425 003c 00000000 		.word	cmp_mem_writer_ro
 426 0040 00000000 		.word	cmp_mem_reader
 427              		.cfi_endproc
 428              	.LFE4:
 429              		.size	cmp_mem_access_ro_init, .-cmp_mem_access_ro_init
 430              		.section	.rodata.cmp_mem_access_get_pos.cst4,"aM",%progbits,4
 431              		.align	2
 432              	.LC5:
 433 0000 00000000 		.word	__stack_chk_guard
 434              		.section	.text.cmp_mem_access_get_pos,"ax",%progbits
 435              		.align	1
 436              		.p2align 4,,15
 437              		.global	cmp_mem_access_get_pos
 438              		.syntax unified
 439              		.thumb
 440              		.thumb_func
 441              		.fpu fpv4-sp-d16
 442              		.type	cmp_mem_access_get_pos, %function
 443              	cmp_mem_access_get_pos:
 444              	.LVL32:
 445              	.LFB5:
 446              		.loc 1 53 1 is_stmt 1 view -0
 447              		.cfi_startproc
 448              		@ args = 0, pretend = 0, frame = 8
 449              		@ frame_needed = 0, uses_anonymous_args = 0
 450              		.loc 1 53 1 is_stmt 0 view .LVU82
 451 0000 00B5     		push	{lr}
 452              		.cfi_def_cfa_offset 4
 453              		.cfi_offset 14, -4
 454 0002 084B     		ldr	r3, .L44
 455              		.loc 1 54 13 view .LVU83
 456 0004 4068     		ldr	r0, [r0, #4]
ARM GAS  /tmp/ccsMrpMe.s 			page 9


 457              	.LVL33:
 458              		.loc 1 53 1 view .LVU84
 459 0006 83B0     		sub	sp, sp, #12
 460              		.cfi_def_cfa_offset 16
 461              		.loc 1 53 1 view .LVU85
 462 0008 1B68     		ldr	r3, [r3]
 463 000a 0193     		str	r3, [sp, #4]
 464 000c 4FF00003 		mov	r3,#0
 465              		.loc 1 54 5 is_stmt 1 view .LVU86
 466              		.loc 1 55 1 is_stmt 0 view .LVU87
 467 0010 044B     		ldr	r3, .L44
 468 0012 1A68     		ldr	r2, [r3]
 469 0014 019B     		ldr	r3, [sp, #4]
 470 0016 5A40     		eors	r2, r3, r2
 471 0018 02D1     		bne	.L43
 472 001a 03B0     		add	sp, sp, #12
 473              		.cfi_remember_state
 474              		.cfi_def_cfa_offset 4
 475              		@ sp needed
 476 001c 5DF804FB 		ldr	pc, [sp], #4
 477              	.L43:
 478              		.cfi_restore_state
 479 0020 FFF7FEFF 		bl	__stack_chk_fail
 480              	.LVL34:
 481              	.L45:
 482              		.align	2
 483              	.L44:
 484 0024 00000000 		.word	.LC5
 485              		.cfi_endproc
 486              	.LFE5:
 487              		.size	cmp_mem_access_get_pos, .-cmp_mem_access_get_pos
 488              		.section	.rodata.cmp_mem_access_set_pos.cst4,"aM",%progbits,4
 489              		.align	2
 490              	.LC6:
 491 0000 00000000 		.word	__stack_chk_guard
 492              		.section	.text.cmp_mem_access_set_pos,"ax",%progbits
 493              		.align	1
 494              		.p2align 4,,15
 495              		.global	cmp_mem_access_set_pos
 496              		.syntax unified
 497              		.thumb
 498              		.thumb_func
 499              		.fpu fpv4-sp-d16
 500              		.type	cmp_mem_access_set_pos, %function
 501              	cmp_mem_access_set_pos:
 502              	.LVL35:
 503              	.LFB6:
 504              		.loc 1 58 1 is_stmt 1 view -0
 505              		.cfi_startproc
 506              		@ args = 0, pretend = 0, frame = 8
 507              		@ frame_needed = 0, uses_anonymous_args = 0
 508              		.loc 1 58 1 is_stmt 0 view .LVU89
 509 0000 00B5     		push	{lr}
 510              		.cfi_def_cfa_offset 4
 511              		.cfi_offset 14, -4
 512 0002 084B     		ldr	r3, .L50
 513              		.loc 1 59 14 view .LVU90
ARM GAS  /tmp/ccsMrpMe.s 			page 10


 514 0004 4160     		str	r1, [r0, #4]
 515              		.loc 1 58 1 view .LVU91
 516 0006 83B0     		sub	sp, sp, #12
 517              		.cfi_def_cfa_offset 16
 518              		.loc 1 58 1 view .LVU92
 519 0008 1B68     		ldr	r3, [r3]
 520 000a 0193     		str	r3, [sp, #4]
 521 000c 4FF00003 		mov	r3,#0
 522              		.loc 1 59 5 is_stmt 1 view .LVU93
 523              		.loc 1 60 1 is_stmt 0 view .LVU94
 524 0010 044B     		ldr	r3, .L50
 525 0012 1A68     		ldr	r2, [r3]
 526 0014 019B     		ldr	r3, [sp, #4]
 527 0016 5A40     		eors	r2, r3, r2
 528 0018 02D1     		bne	.L49
 529 001a 03B0     		add	sp, sp, #12
 530              		.cfi_remember_state
 531              		.cfi_def_cfa_offset 4
 532              		@ sp needed
 533 001c 5DF804FB 		ldr	pc, [sp], #4
 534              	.L49:
 535              		.cfi_restore_state
 536 0020 FFF7FEFF 		bl	__stack_chk_fail
 537              	.LVL36:
 538              	.L51:
 539              		.loc 1 60 1 view .LVU95
 540              		.align	2
 541              	.L50:
 542 0024 00000000 		.word	.LC6
 543              		.cfi_endproc
 544              	.LFE6:
 545              		.size	cmp_mem_access_set_pos, .-cmp_mem_access_set_pos
 546              		.section	.rodata.cmp_mem_access_get_ptr_at_pos.cst4,"aM",%progbits,4
 547              		.align	2
 548              	.LC7:
 549 0000 00000000 		.word	__stack_chk_guard
 550              		.section	.text.cmp_mem_access_get_ptr_at_pos,"ax",%progbits
 551              		.align	1
 552              		.p2align 4,,15
 553              		.global	cmp_mem_access_get_ptr_at_pos
 554              		.syntax unified
 555              		.thumb
 556              		.thumb_func
 557              		.fpu fpv4-sp-d16
 558              		.type	cmp_mem_access_get_ptr_at_pos, %function
 559              	cmp_mem_access_get_ptr_at_pos:
 560              	.LVL37:
 561              	.LFB7:
 562              		.loc 1 63 1 is_stmt 1 view -0
 563              		.cfi_startproc
 564              		@ args = 0, pretend = 0, frame = 8
 565              		@ frame_needed = 0, uses_anonymous_args = 0
 566              		.loc 1 63 1 is_stmt 0 view .LVU97
 567 0000 00B5     		push	{lr}
 568              		.cfi_def_cfa_offset 4
 569              		.cfi_offset 14, -4
 570 0002 094B     		ldr	r3, .L56
ARM GAS  /tmp/ccsMrpMe.s 			page 11


 571              		.loc 1 64 19 view .LVU98
 572 0004 0068     		ldr	r0, [r0]
 573              	.LVL38:
 574              		.loc 1 63 1 view .LVU99
 575 0006 83B0     		sub	sp, sp, #12
 576              		.cfi_def_cfa_offset 16
 577              		.loc 1 63 1 view .LVU100
 578 0008 1B68     		ldr	r3, [r3]
 579 000a 0193     		str	r3, [sp, #4]
 580 000c 4FF00003 		mov	r3,#0
 581              		.loc 1 64 5 is_stmt 1 view .LVU101
 582              		.loc 1 65 1 is_stmt 0 view .LVU102
 583 0010 054B     		ldr	r3, .L56
 584 0012 1A68     		ldr	r2, [r3]
 585 0014 019B     		ldr	r3, [sp, #4]
 586 0016 5A40     		eors	r2, r3, r2
 587              		.loc 1 64 19 view .LVU103
 588 0018 0844     		add	r0, r0, r1
 589              		.loc 1 65 1 view .LVU104
 590 001a 02D1     		bne	.L55
 591 001c 03B0     		add	sp, sp, #12
 592              		.cfi_remember_state
 593              		.cfi_def_cfa_offset 4
 594              		@ sp needed
 595 001e 5DF804FB 		ldr	pc, [sp], #4
 596              	.L55:
 597              		.cfi_restore_state
 598 0022 FFF7FEFF 		bl	__stack_chk_fail
 599              	.LVL39:
 600              	.L57:
 601              		.loc 1 65 1 view .LVU105
 602 0026 00BF     		.align	2
 603              	.L56:
 604 0028 00000000 		.word	.LC7
 605              		.cfi_endproc
 606              	.LFE7:
 607              		.size	cmp_mem_access_get_ptr_at_pos, .-cmp_mem_access_get_ptr_at_pos
 608              		.section	.rodata.cmp_mem_access_pos_is_valid.cst4,"aM",%progbits,4
 609              		.align	2
 610              	.LC8:
 611 0000 00000000 		.word	__stack_chk_guard
 612              		.section	.text.cmp_mem_access_pos_is_valid,"ax",%progbits
 613              		.align	1
 614              		.p2align 4,,15
 615              		.global	cmp_mem_access_pos_is_valid
 616              		.syntax unified
 617              		.thumb
 618              		.thumb_func
 619              		.fpu fpv4-sp-d16
 620              		.type	cmp_mem_access_pos_is_valid, %function
 621              	cmp_mem_access_pos_is_valid:
 622              	.LVL40:
 623              	.LFB8:
 624              		.loc 1 68 1 is_stmt 1 view -0
 625              		.cfi_startproc
 626              		@ args = 0, pretend = 0, frame = 8
 627              		@ frame_needed = 0, uses_anonymous_args = 0
ARM GAS  /tmp/ccsMrpMe.s 			page 12


 628              		.loc 1 68 1 is_stmt 0 view .LVU107
 629 0000 00B5     		push	{lr}
 630              		.cfi_def_cfa_offset 4
 631              		.cfi_offset 14, -4
 632 0002 0A4B     		ldr	r3, .L62
 633              		.loc 1 69 8 view .LVU108
 634 0004 8068     		ldr	r0, [r0, #8]
 635              	.LVL41:
 636              		.loc 1 68 1 view .LVU109
 637 0006 83B0     		sub	sp, sp, #12
 638              		.cfi_def_cfa_offset 16
 639              		.loc 1 68 1 view .LVU110
 640 0008 1B68     		ldr	r3, [r3]
 641 000a 0193     		str	r3, [sp, #4]
 642 000c 4FF00003 		mov	r3,#0
 643              		.loc 1 69 5 is_stmt 1 view .LVU111
 644              		.loc 1 74 1 is_stmt 0 view .LVU112
 645 0010 064B     		ldr	r3, .L62
 646 0012 8842     		cmp	r0, r1
 647 0014 94BF     		ite	ls
 648 0016 0020     		movls	r0, #0
 649 0018 0120     		movhi	r0, #1
 650 001a 1A68     		ldr	r2, [r3]
 651 001c 019B     		ldr	r3, [sp, #4]
 652 001e 5A40     		eors	r2, r3, r2
 653 0020 02D1     		bne	.L61
 654 0022 03B0     		add	sp, sp, #12
 655              		.cfi_remember_state
 656              		.cfi_def_cfa_offset 4
 657              		@ sp needed
 658 0024 5DF804FB 		ldr	pc, [sp], #4
 659              	.L61:
 660              		.cfi_restore_state
 661 0028 FFF7FEFF 		bl	__stack_chk_fail
 662              	.LVL42:
 663              	.L63:
 664              		.loc 1 74 1 view .LVU113
 665              		.align	2
 666              	.L62:
 667 002c 00000000 		.word	.LC8
 668              		.cfi_endproc
 669              	.LFE8:
 670              		.size	cmp_mem_access_pos_is_valid, .-cmp_mem_access_pos_is_valid
 671              		.text
 672              	.Letext0:
 673              		.file 2 "/usr/lib/gcc/arm-none-eabi/9.2.1/include/stddef.h"
 674              		.file 3 "/usr/include/newlib/sys/_types.h"
 675              		.file 4 "/usr/include/newlib/sys/reent.h"
 676              		.file 5 "/usr/include/newlib/sys/lock.h"
 677              		.file 6 "/usr/include/newlib/stdlib.h"
 678              		.file 7 "/usr/lib/gcc/arm-none-eabi/9.2.1/include/stdint.h"
 679              		.file 8 ".//src/cmp/cmp.h"
 680              		.file 9 ".//src/cmp_mem_access/cmp_mem_access.h"
 681              		.file 10 "<built-in>"