ARM GAS  /tmp/ccsMrpMe.s 			page 1


   1              		.cpu cortex-m4
   2              		.eabi_attribute 27, 1
   3              		.eabi_attribute 28, 1
   4              		.eabi_attribute 20, 1
   5              		.eabi_attribute 21, 1
   6              		.eabi_attribute 23, 3
   7              		.eabi_attribute 24, 1
   8              		.eabi_attribute 25, 1
   9              		.eabi_attribute 26, 1
  10              		.eabi_attribute 30, 2
  11              		.eabi_attribute 34, 1
  12              		.eabi_attribute 18, 4
  13              		.file	"cmp_mem_access.c"
  14              		.text
  15              	.Ltext0:
  16              		.cfi_sections	.debug_frame
  17              		.section	.rodata.cmp_mem_writer_ro.cst4,"aM",%progbits,4
  18              		.align	2
  19              	.LC0:
  20 0000 00000000 		.word	__stack_chk_guard
  21              		.section	.text.cmp_mem_writer_ro,"ax",%progbits
  22              		.align	1
  23              		.p2align 4,,15
  24              		.arch armv7e-m
  25              		.syntax unified
  26              		.thumb
  27              		.thumb_func
  28              		.fpu fpv4-sp-d16
  29              		.type	cmp_mem_writer_ro, %function
  30              	cmp_mem_writer_ro:
  31              	.LVL0:
  32              	.LFB2:
  33              		.file 1 ".//src/cmp_mem_access/cmp_mem_access.c"
  34              		.loc 1 29 1 view -0
  35              		.cfi_startproc
  36              		@ args = 0, pretend = 0, frame = 8
  37              		@ frame_needed = 0, uses_anonymous_args = 0
  38              		.loc 1 29 1 is_stmt 0 view .LVU1
  39 0000 00B5     		push	{lr}
  40              		.cfi_def_cfa_offset 4
  41              		.cfi_offset 14, -4
  42 0002 084B     		ldr	r3, .L6
  43 0004 83B0     		sub	sp, sp, #12
  44              		.cfi_def_cfa_offset 16
  45              		.loc 1 29 1 view .LVU2
  46 0006 1B68     		ldr	r3, [r3]
  47 0008 0193     		str	r3, [sp, #4]
  48 000a 4FF00003 		mov	r3,#0
  49              		.loc 1 30 5 is_stmt 1 view .LVU3
  50              		.loc 1 31 5 view .LVU4
  51              		.loc 1 32 5 view .LVU5
  52              		.loc 1 33 5 view .LVU6
  53              		.loc 1 34 1 is_stmt 0 view .LVU7
  54 000e 054B     		ldr	r3, .L6
  55 0010 1A68     		ldr	r2, [r3]
  56 0012 019B     		ldr	r3, [sp, #4]
  57 0014 5A40     		eors	r2, r3, r2
ARM GAS  /tmp/ccsMrpMe.s 			page 2


  58              	.LVL1:
  59              		.loc 1 34 1 view .LVU8
  60 0016 03D1     		bne	.L5
  61 0018 0020     		movs	r0, #0
  62              	.LVL2:
  63              		.loc 1 34 1 view .LVU9
  64 001a 03B0     		add	sp, sp, #12
  65              		.cfi_remember_state
  66              		.cfi_def_cfa_offset 4
  67              		@ sp needed
  68 001c 5DF804FB 		ldr	pc, [sp], #4
  69              	.LVL3:
  70              	.L5:
  71              		.cfi_restore_state
  72              		.loc 1 34 1 view .LVU10
  73 0020 FFF7FEFF 		bl	__stack_chk_fail
  74              	.LVL4:
  75              	.L7:
  76              		.loc 1 34 1 view .LVU11
  77              		.align	2
  78              	.L6:
  79 0024 00000000 		.word	.LC0
  80              		.cfi_endproc
  81              	.LFE2:
  82              		.size	cmp_mem_writer_ro, .-cmp_mem_writer_ro
  83              		.section	.rodata.cmp_mem_writer.cst4,"aM",%progbits,4
  84              		.align	2
  85              	.LC1:
  86 0000 00000000 		.word	__stack_chk_guard
  87              		.section	.text.cmp_mem_writer,"ax",%progbits
  88              		.align	1
  89              		.p2align 4,,15
  90              		.syntax unified
  91              		.thumb
  92              		.thumb_func
  93              		.fpu fpv4-sp-d16
  94              		.type	cmp_mem_writer, %function
  95              	cmp_mem_writer:
  96              	.LVL5:
  97              	.LFB1:
  98              		.loc 1 17 1 is_stmt 1 view -0
  99              		.cfi_startproc
 100              		@ args = 0, pretend = 0, frame = 8
 101              		@ frame_needed = 0, uses_anonymous_args = 0
 102              		.loc 1 17 1 is_stmt 0 view .LVU13
 103 0000 70B5     		push	{r4, r5, r6, lr}
 104              		.cfi_def_cfa_offset 16
 105              		.cfi_offset 4, -16
 106              		.cfi_offset 5, -12
 107              		.cfi_offset 6, -8
 108              		.cfi_offset 14, -4
 109 0002 104B     		ldr	r3, .L15
 110              		.loc 1 18 23 view .LVU14
 111 0004 4568     		ldr	r5, [r0, #4]
 112              		.loc 1 17 1 view .LVU15
 113 0006 82B0     		sub	sp, sp, #8
 114              		.cfi_def_cfa_offset 24
ARM GAS  /tmp/ccsMrpMe.s 			page 3


 115              		.loc 1 17 1 view .LVU16
 116 0008 1B68     		ldr	r3, [r3]
 117 000a 0193     		str	r3, [sp, #4]
 118 000c 4FF00003 		mov	r3,#0
 119              		.loc 1 18 5 is_stmt 1 view .LVU17
 120              	.LVL6:
 121              		.loc 1 19 5 view .LVU18
 122              		.loc 1 19 8 is_stmt 0 view .LVU19
 123 0010 D5E90130 		ldrd	r3, r0, [r5, #4]
 124              	.LVL7:
 125              		.loc 1 19 20 view .LVU20
 126 0014 9E18     		adds	r6, r3, r2
 127              		.loc 1 19 8 view .LVU21
 128 0016 8642     		cmp	r6, r0
 129 0018 07D9     		bls	.L13
 130              		.loc 1 24 16 view .LVU22
 131 001a 0020     		movs	r0, #0
 132              	.LVL8:
 133              	.L8:
 134              		.loc 1 26 1 view .LVU23
 135 001c 094B     		ldr	r3, .L15
 136 001e 1A68     		ldr	r2, [r3]
 137 0020 019B     		ldr	r3, [sp, #4]
 138 0022 5A40     		eors	r2, r3, r2
 139 0024 0BD1     		bne	.L14
 140 0026 02B0     		add	sp, sp, #8
 141              		.cfi_remember_state
 142              		.cfi_def_cfa_offset 16
 143              		@ sp needed
 144 0028 70BD     		pop	{r4, r5, r6, pc}
 145              	.LVL9:
 146              	.L13:
 147              		.cfi_restore_state
 148              		.loc 1 20 9 is_stmt 1 view .LVU24
 149              		.loc 1 20 16 is_stmt 0 view .LVU25
 150 002a 2868     		ldr	r0, [r5]
 151              		.loc 1 20 9 view .LVU26
 152 002c 1844     		add	r0, r0, r3
 153 002e 1446     		mov	r4, r2
 154 0030 FFF7FEFF 		bl	memcpy
 155              	.LVL10:
 156              		.loc 1 21 9 is_stmt 1 view .LVU27
 157              		.loc 1 21 20 is_stmt 0 view .LVU28
 158 0034 6B68     		ldr	r3, [r5, #4]
 159 0036 2344     		add	r3, r3, r4
 160 0038 6B60     		str	r3, [r5, #4]
 161              		.loc 1 22 9 is_stmt 1 view .LVU29
 162              		.loc 1 22 16 is_stmt 0 view .LVU30
 163 003a 2046     		mov	r0, r4
 164 003c EEE7     		b	.L8
 165              	.LVL11:
 166              	.L14:
 167              		.loc 1 26 1 view .LVU31
 168 003e FFF7FEFF 		bl	__stack_chk_fail
 169              	.LVL12:
 170              	.L16:
 171 0042 00BF     		.align	2
ARM GAS  /tmp/ccsMrpMe.s 			page 4


 172              	.L15:
 173 0044 00000000 		.word	.LC1
 174              		.cfi_endproc
 175              	.LFE1:
 176              		.size	cmp_mem_writer, .-cmp_mem_writer
 177              		.section	.rodata.cmp_mem_reader.cst4,"aM",%progbits,4
 178              		.align	2
 179              	.LC2:
 180 0000 00000000 		.word	__stack_chk_guard
 181              		.section	.text.cmp_mem_reader,"ax",%progbits
 182              		.align	1
 183              		.p2align 4,,15
 184              		.syntax unified
 185              		.thumb
 186              		.thumb_func
 187              		.fpu fpv4-sp-d16
 188              		.type	cmp_mem_reader, %function
 189              	cmp_mem_reader:
 190              	.LVL13:
 191              	.LFB0:
 192              		.loc 1 5 1 is_stmt 1 view -0
 193              		.cfi_startproc
 194              		@ args = 0, pretend = 0, frame = 8
 195              		@ frame_needed = 0, uses_anonymous_args = 0
 196              		.loc 1 5 1 is_stmt 0 view .LVU33
 197 0000 70B5     		push	{r4, r5, r6, lr}
 198              		.cfi_def_cfa_offset 16
 199              		.cfi_offset 4, -16
 200              		.cfi_offset 5, -12
 201              		.cfi_offset 6, -8
 202              		.cfi_offset 14, -4
 203 0002 104B     		ldr	r3, .L24
 204              		.loc 1 6 23 view .LVU34
 205 0004 4568     		ldr	r5, [r0, #4]
 206              		.loc 1 5 1 view .LVU35
 207 0006 82B0     		sub	sp, sp, #8
 208              		.cfi_def_cfa_offset 24
 209              		.loc 1 5 1 view .LVU36
 210 0008 1B68     		ldr	r3, [r3]
 211 000a 0193     		str	r3, [sp, #4]
 212 000c 4FF00003 		mov	r3,#0
 213              		.loc 1 6 5 is_stmt 1 view .LVU37
 214              	.LVL14:
 215              		.loc 1 7 5 view .LVU38
 216              		.loc 1 7 8 is_stmt 0 view .LVU39
 217 0010 D5E90163 		ldrd	r6, r3, [r5, #4]
 218              		.loc 1 7 20 view .LVU40
 219 0014 B018     		adds	r0, r6, r2
 220              	.LVL15:
 221              		.loc 1 7 8 view .LVU41
 222 0016 9842     		cmp	r0, r3
 223 0018 07D9     		bls	.L22
 224              		.loc 1 12 16 view .LVU42
 225 001a 0020     		movs	r0, #0
 226              	.LVL16:
 227              	.L18:
 228              		.loc 1 14 1 view .LVU43
ARM GAS  /tmp/ccsMrpMe.s 			page 5


 229 001c 094B     		ldr	r3, .L24
 230 001e 1A68     		ldr	r2, [r3]
 231 0020 019B     		ldr	r3, [sp, #4]
 232 0022 5A40     		eors	r2, r3, r2
 233 0024 0CD1     		bne	.L23
 234 0026 02B0     		add	sp, sp, #8
 235              		.cfi_remember_state
 236              		.cfi_def_cfa_offset 16
 237              		@ sp needed
 238 0028 70BD     		pop	{r4, r5, r6, pc}
 239              	.LVL17:
 240              	.L22:
 241              		.cfi_restore_state
 242              		.loc 1 8 9 is_stmt 1 view .LVU44
 243              		.loc 1 8 22 is_stmt 0 view .LVU45
 244 002a 2B68     		ldr	r3, [r5]
 245              		.loc 1 8 9 view .LVU46
 246 002c 0846     		mov	r0, r1
 247 002e 9919     		adds	r1, r3, r6
 248              	.LVL18:
 249              		.loc 1 8 9 view .LVU47
 250 0030 1446     		mov	r4, r2
 251 0032 FFF7FEFF 		bl	memcpy
 252              	.LVL19:
 253              		.loc 1 9 9 is_stmt 1 view .LVU48
 254              		.loc 1 9 20 is_stmt 0 view .LVU49
 255 0036 6A68     		ldr	r2, [r5, #4]
 256 0038 2244     		add	r2, r2, r4
 257 003a 6A60     		str	r2, [r5, #4]
 258              		.loc 1 10 9 is_stmt 1 view .LVU50
 259              		.loc 1 10 16 is_stmt 0 view .LVU51
 260 003c 0120     		movs	r0, #1
 261 003e EDE7     		b	.L18
 262              	.LVL20:
 263              	.L23:
 264              		.loc 1 14 1 view .LVU52
 265 0040 FFF7FEFF 		bl	__stack_chk_fail
 266              	.LVL21:
 267              	.L25:
 268              		.align	2
 269              	.L24:
 270 0044 00000000 		.word	.LC2
 271              		.cfi_endproc
 272              	.LFE0:
 273              		.size	cmp_mem_reader, .-cmp_mem_reader
 274              		.section	.rodata.cmp_mem_access_init.cst4,"aM",%progbits,4
 275              		.align	2
 276              	.LC3:
 277 0000 00000000 		.word	__stack_chk_guard
 278              		.section	.text.cmp_mem_access_init,"ax",%progbits
 279              		.align	1
 280              		.p2align 4,,15
 281              		.global	cmp_mem_access_init
 282              		.syntax unified
 283              		.thumb
 284              		.thumb_func
 285              		.fpu fpv4-sp-d16
ARM GAS  /tmp/ccsMrpMe.s 			page 6


 286              		.type	cmp_mem_access_init, %function
 287              	cmp_mem_access_init:
 288              	.LVL22:
 289              	.LFB3:
 290              		.loc 1 37 1 is_stmt 1 view -0
 291              		.cfi_startproc
 292              		@ args = 0, pretend = 0, frame = 8
 293              		@ frame_needed = 0, uses_anonymous_args = 0
 294              		.loc 1 37 1 is_stmt 0 view .LVU54
 295 0000 10B5     		push	{r4, lr}
 296              		.cfi_def_cfa_offset 8
 297              		.cfi_offset 4, -8
 298              		.cfi_offset 14, -4
 299 0002 DFF834C0 		ldr	ip, .L31
 300 0006 82B0     		sub	sp, sp, #8
 301              		.cfi_def_cfa_offset 16
 302              		.loc 1 37 1 view .LVU55
 303 0008 DCF800C0 		ldr	ip, [ip]
 304 000c CDF804C0 		str	ip, [sp, #4]
 305 0010 4FF0000C 		mov	ip,#0
 306              		.loc 1 38 5 is_stmt 1 view .LVU56
 307              		.loc 1 38 12 is_stmt 0 view .LVU57
 308 0014 0A60     		str	r2, [r1]
 309              		.loc 1 39 5 is_stmt 1 view .LVU58
 310              		.loc 1 40 14 is_stmt 0 view .LVU59
 311 0016 0022     		movs	r2, #0
 312              	.LVL23:
 313              		.loc 1 40 14 view .LVU60
 314 0018 C1E90123 		strd	r2, r3, [r1, #4]
 315              		.loc 1 41 5 is_stmt 1 view .LVU61
 316 001c 064B     		ldr	r3, .L31
 317              	.LVL24:
 318              		.loc 1 41 5 is_stmt 0 view .LVU62
 319 001e 1A68     		ldr	r2, [r3]
 320 0020 019B     		ldr	r3, [sp, #4]
 321 0022 5A40     		eors	r2, r3, r2
 322 0024 06D1     		bne	.L30
 323 0026 054B     		ldr	r3, .L31+4
 324 0028 054A     		ldr	r2, .L31+8
 325              		.loc 1 42 1 view .LVU63
 326 002a 02B0     		add	sp, sp, #8
 327              		.cfi_remember_state
 328              		.cfi_def_cfa_offset 8
 329              		@ sp needed
 330 002c BDE81040 		pop	{r4, lr}
 331              		.cfi_restore 14
 332              		.cfi_restore 4
 333              		.cfi_def_cfa_offset 0
 334              		.loc 1 41 5 view .LVU64
 335 0030 FFF7FEBF 		b	cmp_init
 336              	.LVL25:
 337              	.L30:
 338              		.cfi_restore_state
 339              		.loc 1 41 5 view .LVU65
 340 0034 FFF7FEFF 		bl	__stack_chk_fail
 341              	.LVL26:
 342              	.L32:
ARM GAS  /tmp/ccsMrpMe.s 			page 7


 343              		.loc 1 41 5 view .LVU66
 344              		.align	2
 345              	.L31:
 346 0038 00000000 		.word	.LC3
 347 003c 00000000 		.word	cmp_mem_writer
 348 0040 00000000 		.word	cmp_mem_reader
 349              		.cfi_endproc
 350              	.LFE3:
 351              		.size	cmp_mem_access_init, .-cmp_mem_access_init
 352              		.section	.rodata.cmp_mem_access_ro_init.cst4,"aM",%progbits,4
 353              		.align	2
 354              	.LC4:
 355 0000 00000000 		.word	__stack_chk_guard
 356              		.section	.text.cmp_mem_access_ro_init,"ax",%progbits
 357              		.align	1
 358              		.p2align 4,,15
 359              		.global	cmp_mem_access_ro_init
 360              		.syntax unified
 361              		.thumb
 362              		.thumb_func
 363              		.fpu fpv4-sp-d16
 364              		.type	cmp_mem_access_ro_init, %function
 365              	cmp_mem_access_ro_init:
 366              	.LVL27:
 367              	.LFB4:
 368              		.loc 1 45 1 is_stmt 1 view -0
 369              		.cfi_startproc
 370              		@ args = 0, pretend = 0, frame = 8
 371              		@ frame_needed = 0, uses_anonymous_args = 0
 372              		.loc 1 45 1 is_stmt 0 view .LVU68
 373 0000 10B5     		push	{r4, lr}
 374              		.cfi_def_cfa_offset 8
 375              		.cfi_offset 4, -8
 376              		.cfi_offset 14, -4
 377 0002 DFF834C0 		ldr	ip, .L38
 378 0006 82B0     		sub	sp, sp, #8
 379              		.cfi_def_cfa_offset 16
 380              		.loc 1 45 1 view .LVU69
 381 0008 DCF800C0 		ldr	ip, [ip]
 382 000c CDF804C0 		str	ip, [sp, #4]
 383 0010 4FF0000C 		mov	ip,#0
 384              		.loc 1 46 5 is_stmt 1 view .LVU70
 385              		.loc 1 46 12 is_stmt 0 view .LVU71
 386 0014 0A60     		str	r2, [r1]
 387              		.loc 1 47 5 is_stmt 1 view .LVU72
 388              		.loc 1 48 14 is_stmt 0 view .LVU73
 389 0016 0022     		movs	r2, #0
 390              	.LVL28:
 391              		.loc 1 48 14 view .LVU74
 392 0018 C1E90123 		strd	r2, r3, [r1, #4]
 393              		.loc 1 49 5 is_stmt 1 view .LVU75
 394 001c 064B     		ldr	r3, .L38
 395              	.LVL29:
 396              		.loc 1 49 5 is_stmt 0 view .LVU76
 397 001e 1A68     		ldr	r2, [r3]
 398 0020 019B     		ldr	r3, [sp, #4]
 399 0022 5A40     		eors	r2, r3, r2
ARM GAS  /tmp/ccsMrpMe.s 			page 8


 400 0024 06D1     		bne	.L37
 401 0026 054B     		ldr	r3, .L38+4
 402 0028 054A     		ldr	r2, .L38+8
 403              		.loc 1 50 1 view .LVU77
 404 002a 02B0     		add	sp, sp, #8
 405              		.cfi_remember_state
 406              		.cfi_def_cfa_offset 8
 407              		@ sp needed
 408 002c BDE81040 		pop	{r4, lr}
 409              		.cfi_restore 14
 410              		.cfi_restore 4
 411              		.cfi_def_cfa_offset 0
 412              		.loc 1 49 5 view .LVU78
 413 0030 FFF7FEBF 		b	cmp_init
 414              	.LVL30:
 415              	.L37:
 416              		.cfi_restore_state
 417              		.loc 1 49 5 view .LVU79
 418 0034 FFF7FEFF 		bl	__stack_chk_fail
 419              	.LVL31:
 420              	.L39:
 421              		.loc 1 49 5 view .LVU80
 422              		.align	2
 423              	.L38:
 424 0038 00000000 		.word	.LC4
 425 003c 00000000 		.word	cmp_mem_writer_ro
 426 0040 00000000 		.word	cmp_mem_reader
 427              		.cfi_endproc
 428              	.LFE4:
 429              		.size	cmp_mem_access_ro_init, .-cmp_mem_access_ro_init
 430              		.section	.rodata.cmp_mem_access_get_pos.cst4,"aM",%progbits,4
 431              		.align	2
 432              	.LC5:
 433 0000 00000000 		.word	__stack_chk_guard
 434              		.section	.text.cmp_mem_access_get_pos,"ax",%progbits
 435              		.align	1
 436              		.p2align 4,,15
 437              		.global	cmp_mem_access_get_pos
 438              		.syntax unified
 439              		.thumb
 440              		.thumb_func
 441              		.fpu fpv4-sp-d16
 442              		.type	cmp_mem_access_get_pos, %function
 443              	cmp_mem_access_get_pos:
 444              	.LVL32:
 445              	.LFB5:
 446              		.loc 1 53 1 is_stmt 1 view -0
 447              		.cfi_startproc
 448              		@ args = 0, pretend = 0, frame = 8
 449              		@ frame_needed = 0, uses_anonymous_args = 0
 450              		.loc 1 53 1 is_stmt 0 view .LVU82
 451 0000 00B5     		push	{lr}
 452              		.cfi_def_cfa_offset 4
 453              		.cfi_offset 14, -4
 454 0002 084B     		ldr	r3, .L44
 455              		.loc 1 54 13 view .LVU83
 456 0004 4068     		ldr	r0, [r0, #4]
ARM GAS  /tmp/ccsMrpMe.s 			page 9


 457              	.LVL33:
 458              		.loc 1 53 1 view .LVU84
 459 0006 83B0     		sub	sp, sp, #12
 460              		.cfi_def_cfa_offset 16
 461              		.loc 1 53 1 view .LVU85
 462 0008 1B68     		ldr	r3, [r3]
 463 000a 0193     		str	r3, [sp, #4]
 464 000c 4FF00003 		mov	r3,#0
 465              		.loc 1 54 5 is_stmt 1 view .LVU86
 466              		.loc 1 55 1 is_stmt 0 view .LVU87
 467 0010 044B     		ldr	r3, .L44
 468 0012 1A68     		ldr	r2, [r3]
 469 0014 019B     		ldr	r3, [sp, #4]
 470 0016 5A40     		eors	r2, r3, r2
 471 0018 02D1     		bne	.L43
 472 001a 03B0     		add	sp, sp, #12
 473              		.cfi_remember_state
 474              		.cfi_def_cfa_offset 4
 475              		@ sp needed
 476 001c 5DF804FB 		ldr	pc, [sp], #4
 477              	.L43:
 478              		.cfi_restore_state
 479 0020 FFF7FEFF 		bl	__stack_chk_fail
 480              	.LVL34:
 481              	.L45:
 482              		.align	2
 483              	.L44:
 484 0024 00000000 		.word	.LC5
 485              		.cfi_endproc
 486              	.LFE5:
 487              		.size	cmp_mem_access_get_pos, .-cmp_mem_access_get_pos
 488              		.section	.rodata.cmp_mem_access_set_pos.cst4,"aM",%progbits,4
 489              		.align	2
 490              	.LC6:
 491 0000 00000000 		.word	__stack_chk_guard
 492              		.section	.text.cmp_mem_access_set_pos,"ax",%progbits
 493              		.align	1
 494              		.p2align 4,,15
 495              		.global	cmp_mem_access_set_pos
 496              		.syntax unified
 497              		.thumb
 498              		.thumb_func
 499              		.fpu fpv4-sp-d16
 500              		.type	cmp_mem_access_set_pos, %function
 501              	cmp_mem_access_set_pos:
 502              	.LVL35:
 503              	.LFB6:
 504              		.loc 1 58 1 is_stmt 1 view -0
 505              		.cfi_startproc
 506              		@ args = 0, pretend = 0, frame = 8
 507              		@ frame_needed = 0, uses_anonymous_args = 0
 508              		.loc 1 58 1 is_stmt 0 view .LVU89
 509 0000 00B5     		push	{lr}
 510              		.cfi_def_cfa_offset 4
 511              		.cfi_offset 14, -4
 512 0002 084B     		ldr	r3, .L50
 513              		.loc 1 59 14 view .LVU90
ARM GAS  /tmp/ccsMrpMe.s 			page 10


 514 0004 4160     		str	r1, [r0, #4]
 515              		.loc 1 58 1 view .LVU91
 516 0006 83B0     		sub	sp, sp, #12
 517              		.cfi_def_cfa_offset 16
 518              		.loc 1 58 1 view .LVU92
 519 0008 1B68     		ldr	r3, [r3]
 520 000a 0193     		str	r3, [sp, #4]
 521 000c 4FF00003 		mov	r3,#0
 522              		.loc 1 59 5 is_stmt 1 view .LVU93
 523              		.loc 1 60 1 is_stmt 0 view .LVU94
 524 0010 044B     		ldr	r3, .L50
 525 0012 1A68     		ldr	r2, [r3]
 526 0014 019B     		ldr	r3, [sp, #4]
 527 0016 5A40     		eors	r2, r3, r2
 528 0018 02D1     		bne	.L49
 529 001a 03B0     		add	sp, sp, #12
 530              		.cfi_remember_state
 531              		.cfi_def_cfa_offset 4
 532              		@ sp needed
 533 001c 5DF804FB 		ldr	pc, [sp], #4
 534              	.L49:
 535              		.cfi_restore_state
 536 0020 FFF7FEFF 		bl	__stack_chk_fail
 537              	.LVL36:
 538              	.L51:
 539              		.loc 1 60 1 view .LVU95
 540              		.align	2
 541              	.L50:
 542 0024 00000000 		.word	.LC6
 543              		.cfi_endproc
 544              	.LFE6:
 545              		.size	cmp_mem_access_set_pos, .-cmp_mem_access_set_pos
 546              		.section	.rodata.cmp_mem_access_get_ptr_at_pos.cst4,"aM",%progbits,4
 547              		.align	2
 548              	.LC7:
 549 0000 00000000 		.word	__stack_chk_guard
 550              		.section	.text.cmp_mem_access_get_ptr_at_pos,"ax",%progbits
 551              		.align	1
 552              		.p2align 4,,15
 553              		.global	cmp_mem_access_get_ptr_at_pos
 554              		.syntax unified
 555              		.thumb
 556              		.thumb_func
 557              		.fpu fpv4-sp-d16
 558              		.type	cmp_mem_access_get_ptr_at_pos, %function
 559              	cmp_mem_access_get_ptr_at_pos:
 560              	.LVL37:
 561              	.LFB7:
 562              		.loc 1 63 1 is_stmt 1 view -0
 563              		.cfi_startproc
 564              		@ args = 0, pretend = 0, frame = 8
 565              		@ frame_needed = 0, uses_anonymous_args = 0
 566              		.loc 1 63 1 is_stmt 0 view .LVU97
 567 0000 00B5     		push	{lr}
 568              		.cfi_def_cfa_offset 4
 569              		.cfi_offset 14, -4
 570 0002 094B     		ldr	r3, .L56
ARM GAS  /tmp/ccsMrpMe.s 			page 11


 571              		.loc 1 64 19 view .LVU98
 572 0004 0068     		ldr	r0, [r0]
 573              	.LVL38:
 574              		.loc 1 63 1 view .LVU99
 575 0006 83B0     		sub	sp, sp, #12
 576              		.cfi_def_cfa_offset 16
 577              		.loc 1 63 1 view .LVU100
 578 0008 1B68     		ldr	r3, [r3]
 579 000a 0193     		str	r3, [sp, #4]
 580 000c 4FF00003 		mov	r3,#0
 581              		.loc 1 64 5 is_stmt 1 view .LVU101
 582              		.loc 1 65 1 is_stmt 0 view .LVU102
 583 0010 054B     		ldr	r3, .L56
 584 0012 1A68     		ldr	r2, [r3]
 585 0014 019B     		ldr	r3, [sp, #4]
 586 0016 5A40     		eors	r2, r3, r2
 587              		.loc 1 64 19 view .LVU103
 588 0018 0844     		add	r0, r0, r1
 589              		.loc 1 65 1 view .LVU104
 590 001a 02D1     		bne	.L55
 591 001c 03B0     		add	sp, sp, #12
 592              		.cfi_remember_state
 593              		.cfi_def_cfa_offset 4
 594              		@ sp needed
 595 001e 5DF804FB 		ldr	pc, [sp], #4
 596              	.L55:
 597              		.cfi_restore_state
 598 0022 FFF7FEFF 		bl	__stack_chk_fail
 599              	.LVL39:
 600              	.L57:
 601              		.loc 1 65 1 view .LVU105
 602 0026 00BF     		.align	2
 603              	.L56:
 604 0028 00000000 		.word	.LC7
 605              		.cfi_endproc
 606              	.LFE7:
 607              		.size	cmp_mem_access_get_ptr_at_pos, .-cmp_mem_access_get_ptr_at_pos
 608              		.section	.rodata.cmp_mem_access_pos_is_valid.cst4,"aM",%progbits,4
 609              		.align	2
 610              	.LC8:
 611 0000 00000000 		.word	__stack_chk_guard
 612              		.section	.text.cmp_mem_access_pos_is_valid,"ax",%progbits
 613              		.align	1
 614              		.p2align 4,,15
 615              		.global	cmp_mem_access_pos_is_valid
 616              		.syntax unified
 617              		.thumb
 618              		.thumb_func
 619              		.fpu fpv4-sp-d16
 620              		.type	cmp_mem_access_pos_is_valid, %function
 621              	cmp_mem_access_pos_is_valid:
 622              	.LVL40:
 623              	.LFB8:
 624              		.loc 1 68 1 is_stmt 1 view -0
 625              		.cfi_startproc
 626              		@ args = 0, pretend = 0, frame = 8
 627              		@ frame_needed = 0, uses_anonymous_args = 0
ARM GAS  /tmp/ccsMrpMe.s 			page 12


 628              		.loc 1 68 1 is_stmt 0 view .LVU107
 629 0000 00B5     		push	{lr}
 630              		.cfi_def_cfa_offset 4
 631              		.cfi_offset 14, -4
 632 0002 0A4B     		ldr	r3, .L62
 633              		.loc 1 69 8 view .LVU108
 634 0004 8068     		ldr	r0, [r0, #8]
 635              	.LVL41:
 636              		.loc 1 68 1 view .LVU109
 637 0006 83B0     		sub	sp, sp, #12
 638              		.cfi_def_cfa_offset 16
 639              		.loc 1 68 1 view .LVU110
 640 0008 1B68     		ldr	r3, [r3]
 641 000a 0193     		str	r3, [sp, #4]
 642 000c 4FF00003 		mov	r3,#0
 643              		.loc 1 69 5 is_stmt 1 view .LVU111
 644              		.loc 1 74 1 is_stmt 0 view .LVU112
 645 0010 064B     		ldr	r3, .L62
 646 0012 8842     		cmp	r0, r1
 647 0014 94BF     		ite	ls
 648 0016 0020     		movls	r0, #0
 649 0018 0120     		movhi	r0, #1
 650 001a 1A68     		ldr	r2, [r3]
 651 001c 019B     		ldr	r3, [sp, #4]
 652 001e 5A40     		eors	r2, r3, r2
 653 0020 02D1     		bne	.L61
 654 0022 03B0     		add	sp, sp, #12
 655              		.cfi_remember_state
 656              		.cfi_def_cfa_offset 4
 657              		@ sp needed
 658 0024 5DF804FB 		ldr	pc, [sp], #4
 659              	.L61:
 660              		.cfi_restore_state
 661 0028 FFF7FEFF 		bl	__stack_chk_fail
 662              	.LVL42:
 663              	.L63:
 664              		.loc 1 74 1 view .LVU113
 665              		.align	2
 666              	.L62:
 667 002c 00000000 		.word	.LC8
 668              		.cfi_endproc
 669              	.LFE8:
 670              		.size	cmp_mem_access_pos_is_valid, .-cmp_mem_access_pos_is_valid
 671              		.text
 672              	.Letext0:
 673              		.file 2 "/usr/lib/gcc/arm-none-eabi/9.2.1/include/stddef.h"
 674              		.file 3 "/usr/include/newlib/sys/_types.h"
 675              		.file 4 "/usr/include/newlib/sys/reent.h"
 676              		.file 5 "/usr/include/newlib/sys/lock.h"
 677              		.file 6 "/usr/include/newlib/stdlib.h"
 678              		.file 7 "/usr/lib/gcc/arm-none-eabi/9.2.1/include/stdint.h"
 679              		.file 8 ".//src/cmp/cmp.h"
 680              		.file 9 ".//src/cmp_mem_access/cmp_mem_access.h"
 681              		.file 10 "<built-in>"
 682              		.section	.debug_info,"",%progbits
 683              	.Ldebug_info0:
 684 0000 180E0000 		.4byte	0xe18
ARM GAS  /tmp/ccsMrpMe.s 			page 13


 685 0004 0400     		.2byte	0x4
 686 0006 00000000 		.4byte	.Ldebug_abbrev0
 687 000a 04       		.byte	0x4
 688 000b 01       		.uleb128 0x1
 689 000c AF030000 		.4byte	.LASF145
 690 0010 0C       		.byte	0xc
 691 0011 32000000 		.4byte	.LASF146
 692 0015 39020000 		.4byte	.LASF147
 693 0019 00000000 		.4byte	.Ldebug_ranges0+0
 694 001d 00000000 		.4byte	0
 695 0021 00000000 		.4byte	.Ldebug_line0
 696 0025 02       		.uleb128 0x2
 697 0026 04       		.byte	0x4
 698 0027 05       		.byte	0x5
 699 0028 696E7400 		.ascii	"int\000"
 700 002c 03       		.uleb128 0x3
 701 002d 12000000 		.4byte	.LASF3
 702 0031 02       		.byte	0x2
 703 0032 D1       		.byte	0xd1
 704 0033 17       		.byte	0x17
 705 0034 38000000 		.4byte	0x38
 706 0038 04       		.uleb128 0x4
 707 0039 04       		.byte	0x4
 708 003a 07       		.byte	0x7
 709 003b F2010000 		.4byte	.LASF0
 710 003f 04       		.uleb128 0x4
 711 0040 08       		.byte	0x8
 712 0041 05       		.byte	0x5
 713 0042 D0000000 		.4byte	.LASF1
 714 0046 04       		.uleb128 0x4
 715 0047 08       		.byte	0x8
 716 0048 04       		.byte	0x4
 717 0049 5C030000 		.4byte	.LASF2
 718 004d 05       		.uleb128 0x5
 719 004e DC020000 		.4byte	.LASF4
 720 0052 02       		.byte	0x2
 721 0053 5E01     		.2byte	0x15e
 722 0055 17       		.byte	0x17
 723 0056 38000000 		.4byte	0x38
 724 005a 04       		.uleb128 0x4
 725 005b 01       		.byte	0x1
 726 005c 06       		.byte	0x6
 727 005d DE000000 		.4byte	.LASF5
 728 0061 04       		.uleb128 0x4
 729 0062 01       		.byte	0x1
 730 0063 08       		.byte	0x8
 731 0064 46050000 		.4byte	.LASF6
 732 0068 04       		.uleb128 0x4
 733 0069 02       		.byte	0x2
 734 006a 05       		.byte	0x5
 735 006b 62050000 		.4byte	.LASF7
 736 006f 04       		.uleb128 0x4
 737 0070 02       		.byte	0x2
 738 0071 07       		.byte	0x7
 739 0072 92020000 		.4byte	.LASF8
 740 0076 04       		.uleb128 0x4
 741 0077 04       		.byte	0x4
ARM GAS  /tmp/ccsMrpMe.s 			page 14


 742 0078 05       		.byte	0x5
 743 0079 23010000 		.4byte	.LASF9
 744 007d 04       		.uleb128 0x4
 745 007e 04       		.byte	0x4
 746 007f 07       		.byte	0x7
 747 0080 16020000 		.4byte	.LASF10
 748 0084 04       		.uleb128 0x4
 749 0085 08       		.byte	0x8
 750 0086 07       		.byte	0x7
 751 0087 7F000000 		.4byte	.LASF11
 752 008b 03       		.uleb128 0x3
 753 008c 0C050000 		.4byte	.LASF12
 754 0090 03       		.byte	0x3
 755 0091 2E       		.byte	0x2e
 756 0092 0E       		.byte	0xe
 757 0093 76000000 		.4byte	0x76
 758 0097 03       		.uleb128 0x3
 759 0098 3B060000 		.4byte	.LASF13
 760 009c 03       		.byte	0x3
 761 009d 74       		.byte	0x74
 762 009e 0E       		.byte	0xe
 763 009f 76000000 		.4byte	0x76
 764 00a3 06       		.uleb128 0x6
 765 00a4 04       		.byte	0x4
 766 00a5 03       		.byte	0x3
 767 00a6 A5       		.byte	0xa5
 768 00a7 03       		.byte	0x3
 769 00a8 C5000000 		.4byte	0xc5
 770 00ac 07       		.uleb128 0x7
 771 00ad CF020000 		.4byte	.LASF14
 772 00b1 03       		.byte	0x3
 773 00b2 A7       		.byte	0xa7
 774 00b3 0C       		.byte	0xc
 775 00b4 4D000000 		.4byte	0x4d
 776 00b8 07       		.uleb128 0x7
 777 00b9 FF010000 		.4byte	.LASF15
 778 00bd 03       		.byte	0x3
 779 00be A8       		.byte	0xa8
 780 00bf 13       		.byte	0x13
 781 00c0 C5000000 		.4byte	0xc5
 782 00c4 00       		.byte	0
 783 00c5 08       		.uleb128 0x8
 784 00c6 61000000 		.4byte	0x61
 785 00ca D5000000 		.4byte	0xd5
 786 00ce 09       		.uleb128 0x9
 787 00cf 38000000 		.4byte	0x38
 788 00d3 03       		.byte	0x3
 789 00d4 00       		.byte	0
 790 00d5 0A       		.uleb128 0xa
 791 00d6 08       		.byte	0x8
 792 00d7 03       		.byte	0x3
 793 00d8 A2       		.byte	0xa2
 794 00d9 09       		.byte	0x9
 795 00da F9000000 		.4byte	0xf9
 796 00de 0B       		.uleb128 0xb
 797 00df 19060000 		.4byte	.LASF16
 798 00e3 03       		.byte	0x3
ARM GAS  /tmp/ccsMrpMe.s 			page 15


 799 00e4 A4       		.byte	0xa4
 800 00e5 07       		.byte	0x7
 801 00e6 25000000 		.4byte	0x25
 802 00ea 00       		.byte	0
 803 00eb 0B       		.uleb128 0xb
 804 00ec 21060000 		.4byte	.LASF17
 805 00f0 03       		.byte	0x3
 806 00f1 A9       		.byte	0xa9
 807 00f2 05       		.byte	0x5
 808 00f3 A3000000 		.4byte	0xa3
 809 00f7 04       		.byte	0x4
 810 00f8 00       		.byte	0
 811 00f9 03       		.uleb128 0x3
 812 00fa 8A050000 		.4byte	.LASF18
 813 00fe 03       		.byte	0x3
 814 00ff AA       		.byte	0xaa
 815 0100 03       		.byte	0x3
 816 0101 D5000000 		.4byte	0xd5
 817 0105 0C       		.uleb128 0xc
 818 0106 04       		.byte	0x4
 819 0107 03       		.uleb128 0x3
 820 0108 B3060000 		.4byte	.LASF19
 821 010c 04       		.byte	0x4
 822 010d 16       		.byte	0x16
 823 010e 19       		.byte	0x19
 824 010f 7D000000 		.4byte	0x7d
 825 0113 03       		.uleb128 0x3
 826 0114 2E050000 		.4byte	.LASF20
 827 0118 05       		.byte	0x5
 828 0119 0C       		.byte	0xc
 829 011a 0D       		.byte	0xd
 830 011b 25000000 		.4byte	0x25
 831 011f 03       		.uleb128 0x3
 832 0120 B5010000 		.4byte	.LASF21
 833 0124 04       		.byte	0x4
 834 0125 23       		.byte	0x23
 835 0126 1B       		.byte	0x1b
 836 0127 13010000 		.4byte	0x113
 837 012b 0D       		.uleb128 0xd
 838 012c C6010000 		.4byte	.LASF26
 839 0130 18       		.byte	0x18
 840 0131 04       		.byte	0x4
 841 0132 34       		.byte	0x34
 842 0133 08       		.byte	0x8
 843 0134 85010000 		.4byte	0x185
 844 0138 0B       		.uleb128 0xb
 845 0139 92060000 		.4byte	.LASF22
 846 013d 04       		.byte	0x4
 847 013e 36       		.byte	0x36
 848 013f 13       		.byte	0x13
 849 0140 85010000 		.4byte	0x185
 850 0144 00       		.byte	0
 851 0145 0E       		.uleb128 0xe
 852 0146 5F6B00   		.ascii	"_k\000"
 853 0149 04       		.byte	0x4
 854 014a 37       		.byte	0x37
 855 014b 07       		.byte	0x7
ARM GAS  /tmp/ccsMrpMe.s 			page 16


 856 014c 25000000 		.4byte	0x25
 857 0150 04       		.byte	0x4
 858 0151 0B       		.uleb128 0xb
 859 0152 04060000 		.4byte	.LASF23
 860 0156 04       		.byte	0x4
 861 0157 37       		.byte	0x37
 862 0158 0B       		.byte	0xb
 863 0159 25000000 		.4byte	0x25
 864 015d 08       		.byte	0x8
 865 015e 0B       		.uleb128 0xb
 866 015f 98010000 		.4byte	.LASF24
 867 0163 04       		.byte	0x4
 868 0164 37       		.byte	0x37
 869 0165 14       		.byte	0x14
 870 0166 25000000 		.4byte	0x25
 871 016a 0C       		.byte	0xc
 872 016b 0B       		.uleb128 0xb
 873 016c FF060000 		.4byte	.LASF25
 874 0170 04       		.byte	0x4
 875 0171 37       		.byte	0x37
 876 0172 1B       		.byte	0x1b
 877 0173 25000000 		.4byte	0x25
 878 0177 10       		.byte	0x10
 879 0178 0E       		.uleb128 0xe
 880 0179 5F7800   		.ascii	"_x\000"
 881 017c 04       		.byte	0x4
 882 017d 38       		.byte	0x38
 883 017e 0B       		.byte	0xb
 884 017f 8B010000 		.4byte	0x18b
 885 0183 14       		.byte	0x14
 886 0184 00       		.byte	0
 887 0185 0F       		.uleb128 0xf
 888 0186 04       		.byte	0x4
 889 0187 2B010000 		.4byte	0x12b
 890 018b 08       		.uleb128 0x8
 891 018c 07010000 		.4byte	0x107
 892 0190 9B010000 		.4byte	0x19b
 893 0194 09       		.uleb128 0x9
 894 0195 38000000 		.4byte	0x38
 895 0199 00       		.byte	0
 896 019a 00       		.byte	0
 897 019b 0D       		.uleb128 0xd
 898 019c ED010000 		.4byte	.LASF27
 899 01a0 24       		.byte	0x24
 900 01a1 04       		.byte	0x4
 901 01a2 3C       		.byte	0x3c
 902 01a3 08       		.byte	0x8
 903 01a4 1E020000 		.4byte	0x21e
 904 01a8 0B       		.uleb128 0xb
 905 01a9 C7000000 		.4byte	.LASF28
 906 01ad 04       		.byte	0x4
 907 01ae 3E       		.byte	0x3e
 908 01af 09       		.byte	0x9
 909 01b0 25000000 		.4byte	0x25
 910 01b4 00       		.byte	0
 911 01b5 0B       		.uleb128 0xb
 912 01b6 4F060000 		.4byte	.LASF29
ARM GAS  /tmp/ccsMrpMe.s 			page 17


 913 01ba 04       		.byte	0x4
 914 01bb 3F       		.byte	0x3f
 915 01bc 09       		.byte	0x9
 916 01bd 25000000 		.4byte	0x25
 917 01c1 04       		.byte	0x4
 918 01c2 0B       		.uleb128 0xb
 919 01c3 F6000000 		.4byte	.LASF30
 920 01c7 04       		.byte	0x4
 921 01c8 40       		.byte	0x40
 922 01c9 09       		.byte	0x9
 923 01ca 25000000 		.4byte	0x25
 924 01ce 08       		.byte	0x8
 925 01cf 0B       		.uleb128 0xb
 926 01d0 94070000 		.4byte	.LASF31
 927 01d4 04       		.byte	0x4
 928 01d5 41       		.byte	0x41
 929 01d6 09       		.byte	0x9
 930 01d7 25000000 		.4byte	0x25
 931 01db 0C       		.byte	0xc
 932 01dc 0B       		.uleb128 0xb
 933 01dd 94030000 		.4byte	.LASF32
 934 01e1 04       		.byte	0x4
 935 01e2 42       		.byte	0x42
 936 01e3 09       		.byte	0x9
 937 01e4 25000000 		.4byte	0x25
 938 01e8 10       		.byte	0x10
 939 01e9 0B       		.uleb128 0xb
 940 01ea 47030000 		.4byte	.LASF33
 941 01ee 04       		.byte	0x4
 942 01ef 43       		.byte	0x43
 943 01f0 09       		.byte	0x9
 944 01f1 25000000 		.4byte	0x25
 945 01f5 14       		.byte	0x14
 946 01f6 0B       		.uleb128 0xb
 947 01f7 04070000 		.4byte	.LASF34
 948 01fb 04       		.byte	0x4
 949 01fc 44       		.byte	0x44
 950 01fd 09       		.byte	0x9
 951 01fe 25000000 		.4byte	0x25
 952 0202 18       		.byte	0x18
 953 0203 0B       		.uleb128 0xb
 954 0204 6C050000 		.4byte	.LASF35
 955 0208 04       		.byte	0x4
 956 0209 45       		.byte	0x45
 957 020a 09       		.byte	0x9
 958 020b 25000000 		.4byte	0x25
 959 020f 1C       		.byte	0x1c
 960 0210 0B       		.uleb128 0xb
 961 0211 3F070000 		.4byte	.LASF36
 962 0215 04       		.byte	0x4
 963 0216 46       		.byte	0x46
 964 0217 09       		.byte	0x9
 965 0218 25000000 		.4byte	0x25
 966 021c 20       		.byte	0x20
 967 021d 00       		.byte	0
 968 021e 10       		.uleb128 0x10
 969 021f 05010000 		.4byte	.LASF37
ARM GAS  /tmp/ccsMrpMe.s 			page 18


 970 0223 0801     		.2byte	0x108
 971 0225 04       		.byte	0x4
 972 0226 4F       		.byte	0x4f
 973 0227 08       		.byte	0x8
 974 0228 63020000 		.4byte	0x263
 975 022c 0B       		.uleb128 0xb
 976 022d 81010000 		.4byte	.LASF38
 977 0231 04       		.byte	0x4
 978 0232 50       		.byte	0x50
 979 0233 0A       		.byte	0xa
 980 0234 63020000 		.4byte	0x263
 981 0238 00       		.byte	0
 982 0239 0B       		.uleb128 0xb
 983 023a 00000000 		.4byte	.LASF39
 984 023e 04       		.byte	0x4
 985 023f 51       		.byte	0x51
 986 0240 09       		.byte	0x9
 987 0241 63020000 		.4byte	0x263
 988 0245 80       		.byte	0x80
 989 0246 11       		.uleb128 0x11
 990 0247 A5060000 		.4byte	.LASF40
 991 024b 04       		.byte	0x4
 992 024c 53       		.byte	0x53
 993 024d 0A       		.byte	0xa
 994 024e 07010000 		.4byte	0x107
 995 0252 0001     		.2byte	0x100
 996 0254 11       		.uleb128 0x11
 997 0255 33010000 		.4byte	.LASF41
 998 0259 04       		.byte	0x4
 999 025a 56       		.byte	0x56
 1000 025b 0A       		.byte	0xa
 1001 025c 07010000 		.4byte	0x107
 1002 0260 0401     		.2byte	0x104
 1003 0262 00       		.byte	0
 1004 0263 08       		.uleb128 0x8
 1005 0264 05010000 		.4byte	0x105
 1006 0268 73020000 		.4byte	0x273
 1007 026c 09       		.uleb128 0x9
 1008 026d 38000000 		.4byte	0x38
 1009 0271 1F       		.byte	0x1f
 1010 0272 00       		.byte	0
 1011 0273 10       		.uleb128 0x10
 1012 0274 9D030000 		.4byte	.LASF42
 1013 0278 9001     		.2byte	0x190
 1014 027a 04       		.byte	0x4
 1015 027b 62       		.byte	0x62
 1016 027c 08       		.byte	0x8
 1017 027d B6020000 		.4byte	0x2b6
 1018 0281 0B       		.uleb128 0xb
 1019 0282 92060000 		.4byte	.LASF22
 1020 0286 04       		.byte	0x4
 1021 0287 63       		.byte	0x63
 1022 0288 12       		.byte	0x12
 1023 0289 B6020000 		.4byte	0x2b6
 1024 028d 00       		.byte	0
 1025 028e 0B       		.uleb128 0xb
 1026 028f C3050000 		.4byte	.LASF43
ARM GAS  /tmp/ccsMrpMe.s 			page 19


 1027 0293 04       		.byte	0x4
 1028 0294 64       		.byte	0x64
 1029 0295 06       		.byte	0x6
 1030 0296 25000000 		.4byte	0x25
 1031 029a 04       		.byte	0x4
 1032 029b 0B       		.uleb128 0xb
 1033 029c 93010000 		.4byte	.LASF44
 1034 02a0 04       		.byte	0x4
 1035 02a1 66       		.byte	0x66
 1036 02a2 09       		.byte	0x9
 1037 02a3 BC020000 		.4byte	0x2bc
 1038 02a7 08       		.byte	0x8
 1039 02a8 0B       		.uleb128 0xb
 1040 02a9 05010000 		.4byte	.LASF37
 1041 02ad 04       		.byte	0x4
 1042 02ae 67       		.byte	0x67
 1043 02af 1E       		.byte	0x1e
 1044 02b0 1E020000 		.4byte	0x21e
 1045 02b4 88       		.byte	0x88
 1046 02b5 00       		.byte	0
 1047 02b6 0F       		.uleb128 0xf
 1048 02b7 04       		.byte	0x4
 1049 02b8 73020000 		.4byte	0x273
 1050 02bc 08       		.uleb128 0x8
 1051 02bd CC020000 		.4byte	0x2cc
 1052 02c1 CC020000 		.4byte	0x2cc
 1053 02c5 09       		.uleb128 0x9
 1054 02c6 38000000 		.4byte	0x38
 1055 02ca 1F       		.byte	0x1f
 1056 02cb 00       		.byte	0
 1057 02cc 0F       		.uleb128 0xf
 1058 02cd 04       		.byte	0x4
 1059 02ce D2020000 		.4byte	0x2d2
 1060 02d2 12       		.uleb128 0x12
 1061 02d3 0D       		.uleb128 0xd
 1062 02d4 76050000 		.4byte	.LASF45
 1063 02d8 08       		.byte	0x8
 1064 02d9 04       		.byte	0x4
 1065 02da 7A       		.byte	0x7a
 1066 02db 08       		.byte	0x8
 1067 02dc FB020000 		.4byte	0x2fb
 1068 02e0 0B       		.uleb128 0xb
 1069 02e1 F0000000 		.4byte	.LASF46
 1070 02e5 04       		.byte	0x4
 1071 02e6 7B       		.byte	0x7b
 1072 02e7 11       		.byte	0x11
 1073 02e8 FB020000 		.4byte	0x2fb
 1074 02ec 00       		.byte	0
 1075 02ed 0B       		.uleb128 0xb
 1076 02ee 0C000000 		.4byte	.LASF47
 1077 02f2 04       		.byte	0x4
 1078 02f3 7C       		.byte	0x7c
 1079 02f4 06       		.byte	0x6
 1080 02f5 25000000 		.4byte	0x25
 1081 02f9 04       		.byte	0x4
 1082 02fa 00       		.byte	0
 1083 02fb 0F       		.uleb128 0xf
ARM GAS  /tmp/ccsMrpMe.s 			page 20


 1084 02fc 04       		.byte	0x4
 1085 02fd 61000000 		.4byte	0x61
 1086 0301 0D       		.uleb128 0xd
 1087 0302 95050000 		.4byte	.LASF48
 1088 0306 68       		.byte	0x68
 1089 0307 04       		.byte	0x4
 1090 0308 BA       		.byte	0xba
 1091 0309 08       		.byte	0x8
 1092 030a 44040000 		.4byte	0x444
 1093 030e 0E       		.uleb128 0xe
 1094 030f 5F7000   		.ascii	"_p\000"
 1095 0312 04       		.byte	0x4
 1096 0313 BB       		.byte	0xbb
 1097 0314 12       		.byte	0x12
 1098 0315 FB020000 		.4byte	0x2fb
 1099 0319 00       		.byte	0
 1100 031a 0E       		.uleb128 0xe
 1101 031b 5F7200   		.ascii	"_r\000"
 1102 031e 04       		.byte	0x4
 1103 031f BC       		.byte	0xbc
 1104 0320 07       		.byte	0x7
 1105 0321 25000000 		.4byte	0x25
 1106 0325 04       		.byte	0x4
 1107 0326 0E       		.uleb128 0xe
 1108 0327 5F7700   		.ascii	"_w\000"
 1109 032a 04       		.byte	0x4
 1110 032b BD       		.byte	0xbd
 1111 032c 07       		.byte	0x7
 1112 032d 25000000 		.4byte	0x25
 1113 0331 08       		.byte	0x8
 1114 0332 0B       		.uleb128 0xb
 1115 0333 2C010000 		.4byte	.LASF49
 1116 0337 04       		.byte	0x4
 1117 0338 BE       		.byte	0xbe
 1118 0339 09       		.byte	0x9
 1119 033a 68000000 		.4byte	0x68
 1120 033e 0C       		.byte	0xc
 1121 033f 0B       		.uleb128 0xb
 1122 0340 28020000 		.4byte	.LASF50
 1123 0344 04       		.byte	0x4
 1124 0345 BF       		.byte	0xbf
 1125 0346 09       		.byte	0x9
 1126 0347 68000000 		.4byte	0x68
 1127 034b 0E       		.byte	0xe
 1128 034c 0E       		.uleb128 0xe
 1129 034d 5F626600 		.ascii	"_bf\000"
 1130 0351 04       		.byte	0x4
 1131 0352 C0       		.byte	0xc0
 1132 0353 11       		.byte	0x11
 1133 0354 D3020000 		.4byte	0x2d3
 1134 0358 10       		.byte	0x10
 1135 0359 0B       		.uleb128 0xb
 1136 035a 96000000 		.4byte	.LASF51
 1137 035e 04       		.byte	0x4
 1138 035f C1       		.byte	0xc1
 1139 0360 07       		.byte	0x7
 1140 0361 25000000 		.4byte	0x25
ARM GAS  /tmp/ccsMrpMe.s 			page 21


 1141 0365 18       		.byte	0x18
 1142 0366 0B       		.uleb128 0xb
 1143 0367 13010000 		.4byte	.LASF52
 1144 036b 04       		.byte	0x4
 1145 036c C8       		.byte	0xc8
 1146 036d 0A       		.byte	0xa
 1147 036e 05010000 		.4byte	0x105
 1148 0372 1C       		.byte	0x1c
 1149 0373 0B       		.uleb128 0xb
 1150 0374 DD010000 		.4byte	.LASF53
 1151 0378 04       		.byte	0x4
 1152 0379 CA       		.byte	0xca
 1153 037a 1D       		.byte	0x1d
 1154 037b C8050000 		.4byte	0x5c8
 1155 037f 20       		.byte	0x20
 1156 0380 0B       		.uleb128 0xb
 1157 0381 40030000 		.4byte	.LASF54
 1158 0385 04       		.byte	0x4
 1159 0386 CC       		.byte	0xcc
 1160 0387 1D       		.byte	0x1d
 1161 0388 F2050000 		.4byte	0x5f2
 1162 038c 24       		.byte	0x24
 1163 038d 0B       		.uleb128 0xb
 1164 038e 29060000 		.4byte	.LASF55
 1165 0392 04       		.byte	0x4
 1166 0393 CF       		.byte	0xcf
 1167 0394 0D       		.byte	0xd
 1168 0395 16060000 		.4byte	0x616
 1169 0399 28       		.byte	0x28
 1170 039a 0B       		.uleb128 0xb
 1171 039b 59070000 		.4byte	.LASF56
 1172 039f 04       		.byte	0x4
 1173 03a0 D0       		.byte	0xd0
 1174 03a1 09       		.byte	0x9
 1175 03a2 30060000 		.4byte	0x630
 1176 03a6 2C       		.byte	0x2c
 1177 03a7 0E       		.uleb128 0xe
 1178 03a8 5F756200 		.ascii	"_ub\000"
 1179 03ac 04       		.byte	0x4
 1180 03ad D3       		.byte	0xd3
 1181 03ae 11       		.byte	0x11
 1182 03af D3020000 		.4byte	0x2d3
 1183 03b3 30       		.byte	0x30
 1184 03b4 0E       		.uleb128 0xe
 1185 03b5 5F757000 		.ascii	"_up\000"
 1186 03b9 04       		.byte	0x4
 1187 03ba D4       		.byte	0xd4
 1188 03bb 12       		.byte	0x12
 1189 03bc FB020000 		.4byte	0x2fb
 1190 03c0 38       		.byte	0x38
 1191 03c1 0E       		.uleb128 0xe
 1192 03c2 5F757200 		.ascii	"_ur\000"
 1193 03c6 04       		.byte	0x4
 1194 03c7 D5       		.byte	0xd5
 1195 03c8 07       		.byte	0x7
 1196 03c9 25000000 		.4byte	0x25
 1197 03cd 3C       		.byte	0x3c
ARM GAS  /tmp/ccsMrpMe.s 			page 22


 1198 03ce 0B       		.uleb128 0xb
 1199 03cf EA000000 		.4byte	.LASF57
 1200 03d3 04       		.byte	0x4
 1201 03d4 D8       		.byte	0xd8
 1202 03d5 11       		.byte	0x11
 1203 03d6 36060000 		.4byte	0x636
 1204 03da 40       		.byte	0x40
 1205 03db 0B       		.uleb128 0xb
 1206 03dc 31070000 		.4byte	.LASF58
 1207 03e0 04       		.byte	0x4
 1208 03e1 D9       		.byte	0xd9
 1209 03e2 11       		.byte	0x11
 1210 03e3 46060000 		.4byte	0x646
 1211 03e7 43       		.byte	0x43
 1212 03e8 0E       		.uleb128 0xe
 1213 03e9 5F6C6200 		.ascii	"_lb\000"
 1214 03ed 04       		.byte	0x4
 1215 03ee DC       		.byte	0xdc
 1216 03ef 11       		.byte	0x11
 1217 03f0 D3020000 		.4byte	0x2d3
 1218 03f4 44       		.byte	0x44
 1219 03f5 0B       		.uleb128 0xb
 1220 03f6 42010000 		.4byte	.LASF59
 1221 03fa 04       		.byte	0x4
 1222 03fb DF       		.byte	0xdf
 1223 03fc 07       		.byte	0x7
 1224 03fd 25000000 		.4byte	0x25
 1225 0401 4C       		.byte	0x4c
 1226 0402 0B       		.uleb128 0xb
 1227 0403 5A010000 		.4byte	.LASF60
 1228 0407 04       		.byte	0x4
 1229 0408 E0       		.byte	0xe0
 1230 0409 0A       		.byte	0xa
 1231 040a 8B000000 		.4byte	0x8b
 1232 040e 50       		.byte	0x50
 1233 040f 0B       		.uleb128 0xb
 1234 0410 59000000 		.4byte	.LASF61
 1235 0414 04       		.byte	0x4
 1236 0415 E3       		.byte	0xe3
 1237 0416 12       		.byte	0x12
 1238 0417 62040000 		.4byte	0x462
 1239 041b 54       		.byte	0x54
 1240 041c 0B       		.uleb128 0xb
 1241 041d 12030000 		.4byte	.LASF62
 1242 0421 04       		.byte	0x4
 1243 0422 E7       		.byte	0xe7
 1244 0423 0C       		.byte	0xc
 1245 0424 1F010000 		.4byte	0x11f
 1246 0428 58       		.byte	0x58
 1247 0429 0B       		.uleb128 0xb
 1248 042a 9D050000 		.4byte	.LASF63
 1249 042e 04       		.byte	0x4
 1250 042f E9       		.byte	0xe9
 1251 0430 0E       		.byte	0xe
 1252 0431 F9000000 		.4byte	0xf9
 1253 0435 5C       		.byte	0x5c
 1254 0436 0B       		.uleb128 0xb
ARM GAS  /tmp/ccsMrpMe.s 			page 23


 1255 0437 29030000 		.4byte	.LASF64
 1256 043b 04       		.byte	0x4
 1257 043c EA       		.byte	0xea
 1258 043d 09       		.byte	0x9
 1259 043e 25000000 		.4byte	0x25
 1260 0442 64       		.byte	0x64
 1261 0443 00       		.byte	0
 1262 0444 13       		.uleb128 0x13
 1263 0445 25000000 		.4byte	0x25
 1264 0449 62040000 		.4byte	0x462
 1265 044d 14       		.uleb128 0x14
 1266 044e 62040000 		.4byte	0x462
 1267 0452 14       		.uleb128 0x14
 1268 0453 05010000 		.4byte	0x105
 1269 0457 14       		.uleb128 0x14
 1270 0458 B6050000 		.4byte	0x5b6
 1271 045c 14       		.uleb128 0x14
 1272 045d 25000000 		.4byte	0x25
 1273 0461 00       		.byte	0
 1274 0462 0F       		.uleb128 0xf
 1275 0463 04       		.byte	0x4
 1276 0464 6D040000 		.4byte	0x46d
 1277 0468 15       		.uleb128 0x15
 1278 0469 62040000 		.4byte	0x462
 1279 046d 16       		.uleb128 0x16
 1280 046e 0C060000 		.4byte	.LASF65
 1281 0472 2804     		.2byte	0x428
 1282 0474 04       		.byte	0x4
 1283 0475 6502     		.2byte	0x265
 1284 0477 08       		.byte	0x8
 1285 0478 B6050000 		.4byte	0x5b6
 1286 047c 17       		.uleb128 0x17
 1287 047d 43060000 		.4byte	.LASF66
 1288 0481 04       		.byte	0x4
 1289 0482 6702     		.2byte	0x267
 1290 0484 07       		.byte	0x7
 1291 0485 25000000 		.4byte	0x25
 1292 0489 00       		.byte	0
 1293 048a 17       		.uleb128 0x17
 1294 048b 3B010000 		.4byte	.LASF67
 1295 048f 04       		.byte	0x4
 1296 0490 6C02     		.2byte	0x26c
 1297 0492 0B       		.byte	0xb
 1298 0493 A2060000 		.4byte	0x6a2
 1299 0497 04       		.byte	0x4
 1300 0498 17       		.uleb128 0x17
 1301 0499 06020000 		.4byte	.LASF68
 1302 049d 04       		.byte	0x4
 1303 049e 6C02     		.2byte	0x26c
 1304 04a0 14       		.byte	0x14
 1305 04a1 A2060000 		.4byte	0x6a2
 1306 04a5 08       		.byte	0x8
 1307 04a6 17       		.uleb128 0x17
 1308 04a7 BE010000 		.4byte	.LASF69
 1309 04ab 04       		.byte	0x4
 1310 04ac 6C02     		.2byte	0x26c
 1311 04ae 1E       		.byte	0x1e
ARM GAS  /tmp/ccsMrpMe.s 			page 24


 1312 04af A2060000 		.4byte	0x6a2
 1313 04b3 0C       		.byte	0xc
 1314 04b4 17       		.uleb128 0x17
 1315 04b5 BE050000 		.4byte	.LASF70
 1316 04b9 04       		.byte	0x4
 1317 04ba 6E02     		.2byte	0x26e
 1318 04bc 08       		.byte	0x8
 1319 04bd 25000000 		.4byte	0x25
 1320 04c1 10       		.byte	0x10
 1321 04c2 17       		.uleb128 0x17
 1322 04c3 21000000 		.4byte	.LASF71
 1323 04c7 04       		.byte	0x4
 1324 04c8 6F02     		.2byte	0x26f
 1325 04ca 08       		.byte	0x8
 1326 04cb A2080000 		.4byte	0x8a2
 1327 04cf 14       		.byte	0x14
 1328 04d0 17       		.uleb128 0x17
 1329 04d1 DA050000 		.4byte	.LASF72
 1330 04d5 04       		.byte	0x4
 1331 04d6 7202     		.2byte	0x272
 1332 04d8 07       		.byte	0x7
 1333 04d9 25000000 		.4byte	0x25
 1334 04dd 30       		.byte	0x30
 1335 04de 17       		.uleb128 0x17
 1336 04df C8050000 		.4byte	.LASF73
 1337 04e3 04       		.byte	0x4
 1338 04e4 7302     		.2byte	0x273
 1339 04e6 16       		.byte	0x16
 1340 04e7 B7080000 		.4byte	0x8b7
 1341 04eb 34       		.byte	0x34
 1342 04ec 17       		.uleb128 0x17
 1343 04ed 01050000 		.4byte	.LASF74
 1344 04f1 04       		.byte	0x4
 1345 04f2 7502     		.2byte	0x275
 1346 04f4 07       		.byte	0x7
 1347 04f5 25000000 		.4byte	0x25
 1348 04f9 38       		.byte	0x38
 1349 04fa 17       		.uleb128 0x17
 1350 04fb D0050000 		.4byte	.LASF75
 1351 04ff 04       		.byte	0x4
 1352 0500 7702     		.2byte	0x277
 1353 0502 0A       		.byte	0xa
 1354 0503 C8080000 		.4byte	0x8c8
 1355 0507 3C       		.byte	0x3c
 1356 0508 17       		.uleb128 0x17
 1357 0509 C7020000 		.4byte	.LASF76
 1358 050d 04       		.byte	0x4
 1359 050e 7A02     		.2byte	0x27a
 1360 0510 13       		.byte	0x13
 1361 0511 85010000 		.4byte	0x185
 1362 0515 40       		.byte	0x40
 1363 0516 17       		.uleb128 0x17
 1364 0517 E3010000 		.4byte	.LASF77
 1365 051b 04       		.byte	0x4
 1366 051c 7B02     		.2byte	0x27b
 1367 051e 07       		.byte	0x7
 1368 051f 25000000 		.4byte	0x25
ARM GAS  /tmp/ccsMrpMe.s 			page 25


 1369 0523 44       		.byte	0x44
 1370 0524 17       		.uleb128 0x17
 1371 0525 8F070000 		.4byte	.LASF78
 1372 0529 04       		.byte	0x4
 1373 052a 7C02     		.2byte	0x27c
 1374 052c 13       		.byte	0x13
 1375 052d 85010000 		.4byte	0x185
 1376 0531 48       		.byte	0x48
 1377 0532 17       		.uleb128 0x17
 1378 0533 1E050000 		.4byte	.LASF79
 1379 0537 04       		.byte	0x4
 1380 0538 7D02     		.2byte	0x27d
 1381 053a 14       		.byte	0x14
 1382 053b CE080000 		.4byte	0x8ce
 1383 053f 4C       		.byte	0x4c
 1384 0540 17       		.uleb128 0x17
 1385 0541 0E020000 		.4byte	.LASF80
 1386 0545 04       		.byte	0x4
 1387 0546 8002     		.2byte	0x280
 1388 0548 07       		.byte	0x7
 1389 0549 25000000 		.4byte	0x25
 1390 054d 50       		.byte	0x50
 1391 054e 17       		.uleb128 0x17
 1392 054f 52010000 		.4byte	.LASF81
 1393 0553 04       		.byte	0x4
 1394 0554 8102     		.2byte	0x281
 1395 0556 09       		.byte	0x9
 1396 0557 B6050000 		.4byte	0x5b6
 1397 055b 54       		.byte	0x54
 1398 055c 17       		.uleb128 0x17
 1399 055d 54050000 		.4byte	.LASF82
 1400 0561 04       		.byte	0x4
 1401 0562 A402     		.2byte	0x2a4
 1402 0564 07       		.byte	0x7
 1403 0565 7D080000 		.4byte	0x87d
 1404 0569 58       		.byte	0x58
 1405 056a 18       		.uleb128 0x18
 1406 056b 9D030000 		.4byte	.LASF42
 1407 056f 04       		.byte	0x4
 1408 0570 A802     		.2byte	0x2a8
 1409 0572 13       		.byte	0x13
 1410 0573 B6020000 		.4byte	0x2b6
 1411 0577 4801     		.2byte	0x148
 1412 0579 18       		.uleb128 0x18
 1413 057a A5020000 		.4byte	.LASF83
 1414 057e 04       		.byte	0x4
 1415 057f A902     		.2byte	0x2a9
 1416 0581 12       		.byte	0x12
 1417 0582 73020000 		.4byte	0x273
 1418 0586 4C01     		.2byte	0x14c
 1419 0588 18       		.uleb128 0x18
 1420 0589 27070000 		.4byte	.LASF84
 1421 058d 04       		.byte	0x4
 1422 058e AD02     		.2byte	0x2ad
 1423 0590 0C       		.byte	0xc
 1424 0591 DF080000 		.4byte	0x8df
 1425 0595 DC02     		.2byte	0x2dc
ARM GAS  /tmp/ccsMrpMe.s 			page 26


 1426 0597 18       		.uleb128 0x18
 1427 0598 1B010000 		.4byte	.LASF85
 1428 059c 04       		.byte	0x4
 1429 059d B202     		.2byte	0x2b2
 1430 059f 10       		.byte	0x10
 1431 05a0 63060000 		.4byte	0x663
 1432 05a4 E002     		.2byte	0x2e0
 1433 05a6 18       		.uleb128 0x18
 1434 05a7 00010000 		.4byte	.LASF86
 1435 05ab 04       		.byte	0x4
 1436 05ac B402     		.2byte	0x2b4
 1437 05ae 0A       		.byte	0xa
 1438 05af EB080000 		.4byte	0x8eb
 1439 05b3 EC02     		.2byte	0x2ec
 1440 05b5 00       		.byte	0
 1441 05b6 0F       		.uleb128 0xf
 1442 05b7 04       		.byte	0x4
 1443 05b8 BC050000 		.4byte	0x5bc
 1444 05bc 04       		.uleb128 0x4
 1445 05bd 01       		.byte	0x1
 1446 05be 08       		.byte	0x8
 1447 05bf 4A060000 		.4byte	.LASF87
 1448 05c3 15       		.uleb128 0x15
 1449 05c4 BC050000 		.4byte	0x5bc
 1450 05c8 0F       		.uleb128 0xf
 1451 05c9 04       		.byte	0x4
 1452 05ca 44040000 		.4byte	0x444
 1453 05ce 13       		.uleb128 0x13
 1454 05cf 25000000 		.4byte	0x25
 1455 05d3 EC050000 		.4byte	0x5ec
 1456 05d7 14       		.uleb128 0x14
 1457 05d8 62040000 		.4byte	0x462
 1458 05dc 14       		.uleb128 0x14
 1459 05dd 05010000 		.4byte	0x105
 1460 05e1 14       		.uleb128 0x14
 1461 05e2 EC050000 		.4byte	0x5ec
 1462 05e6 14       		.uleb128 0x14
 1463 05e7 25000000 		.4byte	0x25
 1464 05eb 00       		.byte	0
 1465 05ec 0F       		.uleb128 0xf
 1466 05ed 04       		.byte	0x4
 1467 05ee C3050000 		.4byte	0x5c3
 1468 05f2 0F       		.uleb128 0xf
 1469 05f3 04       		.byte	0x4
 1470 05f4 CE050000 		.4byte	0x5ce
 1471 05f8 13       		.uleb128 0x13
 1472 05f9 97000000 		.4byte	0x97
 1473 05fd 16060000 		.4byte	0x616
 1474 0601 14       		.uleb128 0x14
 1475 0602 62040000 		.4byte	0x462
 1476 0606 14       		.uleb128 0x14
 1477 0607 05010000 		.4byte	0x105
 1478 060b 14       		.uleb128 0x14
 1479 060c 97000000 		.4byte	0x97
 1480 0610 14       		.uleb128 0x14
 1481 0611 25000000 		.4byte	0x25
 1482 0615 00       		.byte	0
ARM GAS  /tmp/ccsMrpMe.s 			page 27


 1483 0616 0F       		.uleb128 0xf
 1484 0617 04       		.byte	0x4
 1485 0618 F8050000 		.4byte	0x5f8
 1486 061c 13       		.uleb128 0x13
 1487 061d 25000000 		.4byte	0x25
 1488 0621 30060000 		.4byte	0x630
 1489 0625 14       		.uleb128 0x14
 1490 0626 62040000 		.4byte	0x462
 1491 062a 14       		.uleb128 0x14
 1492 062b 05010000 		.4byte	0x105
 1493 062f 00       		.byte	0
 1494 0630 0F       		.uleb128 0xf
 1495 0631 04       		.byte	0x4
 1496 0632 1C060000 		.4byte	0x61c
 1497 0636 08       		.uleb128 0x8
 1498 0637 61000000 		.4byte	0x61
 1499 063b 46060000 		.4byte	0x646
 1500 063f 09       		.uleb128 0x9
 1501 0640 38000000 		.4byte	0x38
 1502 0644 02       		.byte	0x2
 1503 0645 00       		.byte	0
 1504 0646 08       		.uleb128 0x8
 1505 0647 61000000 		.4byte	0x61
 1506 064b 56060000 		.4byte	0x656
 1507 064f 09       		.uleb128 0x9
 1508 0650 38000000 		.4byte	0x38
 1509 0654 00       		.byte	0
 1510 0655 00       		.byte	0
 1511 0656 05       		.uleb128 0x5
 1512 0657 83050000 		.4byte	.LASF88
 1513 065b 04       		.byte	0x4
 1514 065c 2401     		.2byte	0x124
 1515 065e 1A       		.byte	0x1a
 1516 065f 01030000 		.4byte	0x301
 1517 0663 19       		.uleb128 0x19
 1518 0664 0E070000 		.4byte	.LASF89
 1519 0668 0C       		.byte	0xc
 1520 0669 04       		.byte	0x4
 1521 066a 2801     		.2byte	0x128
 1522 066c 08       		.byte	0x8
 1523 066d 9C060000 		.4byte	0x69c
 1524 0671 17       		.uleb128 0x17
 1525 0672 92060000 		.4byte	.LASF22
 1526 0676 04       		.byte	0x4
 1527 0677 2A01     		.2byte	0x12a
 1528 0679 11       		.byte	0x11
 1529 067a 9C060000 		.4byte	0x69c
 1530 067e 00       		.byte	0
 1531 067f 17       		.uleb128 0x17
 1532 0680 81020000 		.4byte	.LASF90
 1533 0684 04       		.byte	0x4
 1534 0685 2B01     		.2byte	0x12b
 1535 0687 07       		.byte	0x7
 1536 0688 25000000 		.4byte	0x25
 1537 068c 04       		.byte	0x4
 1538 068d 17       		.uleb128 0x17
 1539 068e 7D050000 		.4byte	.LASF91
ARM GAS  /tmp/ccsMrpMe.s 			page 28


 1540 0692 04       		.byte	0x4
 1541 0693 2C01     		.2byte	0x12c
 1542 0695 0B       		.byte	0xb
 1543 0696 A2060000 		.4byte	0x6a2
 1544 069a 08       		.byte	0x8
 1545 069b 00       		.byte	0
 1546 069c 0F       		.uleb128 0xf
 1547 069d 04       		.byte	0x4
 1548 069e 63060000 		.4byte	0x663
 1549 06a2 0F       		.uleb128 0xf
 1550 06a3 04       		.byte	0x4
 1551 06a4 56060000 		.4byte	0x656
 1552 06a8 19       		.uleb128 0x19
 1553 06a9 19000000 		.4byte	.LASF92
 1554 06ad 0E       		.byte	0xe
 1555 06ae 04       		.byte	0x4
 1556 06af 4401     		.2byte	0x144
 1557 06b1 08       		.byte	0x8
 1558 06b2 E1060000 		.4byte	0x6e1
 1559 06b6 17       		.uleb128 0x17
 1560 06b7 13060000 		.4byte	.LASF93
 1561 06bb 04       		.byte	0x4
 1562 06bc 4501     		.2byte	0x145
 1563 06be 12       		.byte	0x12
 1564 06bf E1060000 		.4byte	0x6e1
 1565 06c3 00       		.byte	0
 1566 06c4 17       		.uleb128 0x17
 1567 06c5 8C060000 		.4byte	.LASF94
 1568 06c9 04       		.byte	0x4
 1569 06ca 4601     		.2byte	0x146
 1570 06cc 12       		.byte	0x12
 1571 06cd E1060000 		.4byte	0x6e1
 1572 06d1 06       		.byte	0x6
 1573 06d2 17       		.uleb128 0x17
 1574 06d3 AE060000 		.4byte	.LASF95
 1575 06d7 04       		.byte	0x4
 1576 06d8 4701     		.2byte	0x147
 1577 06da 12       		.byte	0x12
 1578 06db 6F000000 		.4byte	0x6f
 1579 06df 0C       		.byte	0xc
 1580 06e0 00       		.byte	0
 1581 06e1 08       		.uleb128 0x8
 1582 06e2 6F000000 		.4byte	0x6f
 1583 06e6 F1060000 		.4byte	0x6f1
 1584 06ea 09       		.uleb128 0x9
 1585 06eb 38000000 		.4byte	0x38
 1586 06ef 02       		.byte	0x2
 1587 06f0 00       		.byte	0
 1588 06f1 1A       		.uleb128 0x1a
 1589 06f2 D0       		.byte	0xd0
 1590 06f3 04       		.byte	0x4
 1591 06f4 8502     		.2byte	0x285
 1592 06f6 07       		.byte	0x7
 1593 06f7 06080000 		.4byte	0x806
 1594 06fb 17       		.uleb128 0x17
 1595 06fc DB060000 		.4byte	.LASF96
 1596 0700 04       		.byte	0x4
ARM GAS  /tmp/ccsMrpMe.s 			page 29


 1597 0701 8702     		.2byte	0x287
 1598 0703 18       		.byte	0x18
 1599 0704 38000000 		.4byte	0x38
 1600 0708 00       		.byte	0
 1601 0709 17       		.uleb128 0x17
 1602 070a 98060000 		.4byte	.LASF97
 1603 070e 04       		.byte	0x4
 1604 070f 8802     		.2byte	0x288
 1605 0711 12       		.byte	0x12
 1606 0712 B6050000 		.4byte	0x5b6
 1607 0716 04       		.byte	0x4
 1608 0717 17       		.uleb128 0x17
 1609 0718 BA020000 		.4byte	.LASF98
 1610 071c 04       		.byte	0x4
 1611 071d 8902     		.2byte	0x289
 1612 071f 10       		.byte	0x10
 1613 0720 06080000 		.4byte	0x806
 1614 0724 08       		.byte	0x8
 1615 0725 17       		.uleb128 0x17
 1616 0726 4A070000 		.4byte	.LASF99
 1617 072a 04       		.byte	0x4
 1618 072b 8A02     		.2byte	0x28a
 1619 072d 17       		.byte	0x17
 1620 072e 9B010000 		.4byte	0x19b
 1621 0732 24       		.byte	0x24
 1622 0733 17       		.uleb128 0x17
 1623 0734 CE010000 		.4byte	.LASF100
 1624 0738 04       		.byte	0x4
 1625 0739 8B02     		.2byte	0x28b
 1626 073b 0F       		.byte	0xf
 1627 073c 25000000 		.4byte	0x25
 1628 0740 48       		.byte	0x48
 1629 0741 17       		.uleb128 0x17
 1630 0742 A6050000 		.4byte	.LASF101
 1631 0746 04       		.byte	0x4
 1632 0747 8C02     		.2byte	0x28c
 1633 0749 2C       		.byte	0x2c
 1634 074a 84000000 		.4byte	0x84
 1635 074e 50       		.byte	0x50
 1636 074f 17       		.uleb128 0x17
 1637 0750 60070000 		.4byte	.LASF102
 1638 0754 04       		.byte	0x4
 1639 0755 8D02     		.2byte	0x28d
 1640 0757 1A       		.byte	0x1a
 1641 0758 A8060000 		.4byte	0x6a8
 1642 075c 58       		.byte	0x58
 1643 075d 17       		.uleb128 0x17
 1644 075e B1050000 		.4byte	.LASF103
 1645 0762 04       		.byte	0x4
 1646 0763 8E02     		.2byte	0x28e
 1647 0765 16       		.byte	0x16
 1648 0766 F9000000 		.4byte	0xf9
 1649 076a 68       		.byte	0x68
 1650 076b 17       		.uleb128 0x17
 1651 076c 81070000 		.4byte	.LASF104
 1652 0770 04       		.byte	0x4
 1653 0771 8F02     		.2byte	0x28f
ARM GAS  /tmp/ccsMrpMe.s 			page 30


 1654 0773 16       		.byte	0x16
 1655 0774 F9000000 		.4byte	0xf9
 1656 0778 70       		.byte	0x70
 1657 0779 17       		.uleb128 0x17
 1658 077a B9000000 		.4byte	.LASF105
 1659 077e 04       		.byte	0x4
 1660 077f 9002     		.2byte	0x290
 1661 0781 16       		.byte	0x16
 1662 0782 F9000000 		.4byte	0xf9
 1663 0786 78       		.byte	0x78
 1664 0787 17       		.uleb128 0x17
 1665 0788 1D070000 		.4byte	.LASF106
 1666 078c 04       		.byte	0x4
 1667 078d 9102     		.2byte	0x291
 1668 078f 10       		.byte	0x10
 1669 0790 16080000 		.4byte	0x816
 1670 0794 80       		.byte	0x80
 1671 0795 17       		.uleb128 0x17
 1672 0796 AE020000 		.4byte	.LASF107
 1673 079a 04       		.byte	0x4
 1674 079b 9202     		.2byte	0x292
 1675 079d 10       		.byte	0x10
 1676 079e 26080000 		.4byte	0x826
 1677 07a2 88       		.byte	0x88
 1678 07a3 17       		.uleb128 0x17
 1679 07a4 BB060000 		.4byte	.LASF108
 1680 07a8 04       		.byte	0x4
 1681 07a9 9302     		.2byte	0x293
 1682 07ab 0F       		.byte	0xf
 1683 07ac 25000000 		.4byte	0x25
 1684 07b0 A0       		.byte	0xa0
 1685 07b1 17       		.uleb128 0x17
 1686 07b2 73010000 		.4byte	.LASF109
 1687 07b6 04       		.byte	0x4
 1688 07b7 9402     		.2byte	0x294
 1689 07b9 16       		.byte	0x16
 1690 07ba F9000000 		.4byte	0xf9
 1691 07be A4       		.byte	0xa4
 1692 07bf 17       		.uleb128 0x17
 1693 07c0 AA000000 		.4byte	.LASF110
 1694 07c4 04       		.byte	0x4
 1695 07c5 9502     		.2byte	0x295
 1696 07c7 16       		.byte	0x16
 1697 07c8 F9000000 		.4byte	0xf9
 1698 07cc AC       		.byte	0xac
 1699 07cd 17       		.uleb128 0x17
 1700 07ce 62010000 		.4byte	.LASF111
 1701 07d2 04       		.byte	0x4
 1702 07d3 9602     		.2byte	0x296
 1703 07d5 16       		.byte	0x16
 1704 07d6 F9000000 		.4byte	0xf9
 1705 07da B4       		.byte	0xb4
 1706 07db 17       		.uleb128 0x17
 1707 07dc 5F000000 		.4byte	.LASF112
 1708 07e0 04       		.byte	0x4
 1709 07e1 9702     		.2byte	0x297
 1710 07e3 16       		.byte	0x16
ARM GAS  /tmp/ccsMrpMe.s 			page 31


 1711 07e4 F9000000 		.4byte	0xf9
 1712 07e8 BC       		.byte	0xbc
 1713 07e9 17       		.uleb128 0x17
 1714 07ea 6E000000 		.4byte	.LASF113
 1715 07ee 04       		.byte	0x4
 1716 07ef 9802     		.2byte	0x298
 1717 07f1 16       		.byte	0x16
 1718 07f2 F9000000 		.4byte	0xf9
 1719 07f6 C4       		.byte	0xc4
 1720 07f7 17       		.uleb128 0x17
 1721 07f8 59050000 		.4byte	.LASF114
 1722 07fc 04       		.byte	0x4
 1723 07fd 9902     		.2byte	0x299
 1724 07ff 08       		.byte	0x8
 1725 0800 25000000 		.4byte	0x25
 1726 0804 CC       		.byte	0xcc
 1727 0805 00       		.byte	0
 1728 0806 08       		.uleb128 0x8
 1729 0807 BC050000 		.4byte	0x5bc
 1730 080b 16080000 		.4byte	0x816
 1731 080f 09       		.uleb128 0x9
 1732 0810 38000000 		.4byte	0x38
 1733 0814 19       		.byte	0x19
 1734 0815 00       		.byte	0
 1735 0816 08       		.uleb128 0x8
 1736 0817 BC050000 		.4byte	0x5bc
 1737 081b 26080000 		.4byte	0x826
 1738 081f 09       		.uleb128 0x9
 1739 0820 38000000 		.4byte	0x38
 1740 0824 07       		.byte	0x7
 1741 0825 00       		.byte	0
 1742 0826 08       		.uleb128 0x8
 1743 0827 BC050000 		.4byte	0x5bc
 1744 082b 36080000 		.4byte	0x836
 1745 082f 09       		.uleb128 0x9
 1746 0830 38000000 		.4byte	0x38
 1747 0834 17       		.byte	0x17
 1748 0835 00       		.byte	0
 1749 0836 1A       		.uleb128 0x1a
 1750 0837 F0       		.byte	0xf0
 1751 0838 04       		.byte	0x4
 1752 0839 9E02     		.2byte	0x29e
 1753 083b 07       		.byte	0x7
 1754 083c 5D080000 		.4byte	0x85d
 1755 0840 17       		.uleb128 0x17
 1756 0841 7B030000 		.4byte	.LASF115
 1757 0845 04       		.byte	0x4
 1758 0846 A102     		.2byte	0x2a1
 1759 0848 1B       		.byte	0x1b
 1760 0849 5D080000 		.4byte	0x85d
 1761 084d 00       		.byte	0
 1762 084e 17       		.uleb128 0x17
 1763 084f 14070000 		.4byte	.LASF116
 1764 0853 04       		.byte	0x4
 1765 0854 A202     		.2byte	0x2a2
 1766 0856 18       		.byte	0x18
 1767 0857 6D080000 		.4byte	0x86d
ARM GAS  /tmp/ccsMrpMe.s 			page 32


 1768 085b 78       		.byte	0x78
 1769 085c 00       		.byte	0
 1770 085d 08       		.uleb128 0x8
 1771 085e FB020000 		.4byte	0x2fb
 1772 0862 6D080000 		.4byte	0x86d
 1773 0866 09       		.uleb128 0x9
 1774 0867 38000000 		.4byte	0x38
 1775 086b 1D       		.byte	0x1d
 1776 086c 00       		.byte	0
 1777 086d 08       		.uleb128 0x8
 1778 086e 38000000 		.4byte	0x38
 1779 0872 7D080000 		.4byte	0x87d
 1780 0876 09       		.uleb128 0x9
 1781 0877 38000000 		.4byte	0x38
 1782 087b 1D       		.byte	0x1d
 1783 087c 00       		.byte	0
 1784 087d 1B       		.uleb128 0x1b
 1785 087e F0       		.byte	0xf0
 1786 087f 04       		.byte	0x4
 1787 0880 8302     		.2byte	0x283
 1788 0882 03       		.byte	0x3
 1789 0883 A2080000 		.4byte	0x8a2
 1790 0887 1C       		.uleb128 0x1c
 1791 0888 0C060000 		.4byte	.LASF65
 1792 088c 04       		.byte	0x4
 1793 088d 9A02     		.2byte	0x29a
 1794 088f 0B       		.byte	0xb
 1795 0890 F1060000 		.4byte	0x6f1
 1796 0894 1C       		.uleb128 0x1c
 1797 0895 37070000 		.4byte	.LASF117
 1798 0899 04       		.byte	0x4
 1799 089a A302     		.2byte	0x2a3
 1800 089c 0B       		.byte	0xb
 1801 089d 36080000 		.4byte	0x836
 1802 08a1 00       		.byte	0
 1803 08a2 08       		.uleb128 0x8
 1804 08a3 BC050000 		.4byte	0x5bc
 1805 08a7 B2080000 		.4byte	0x8b2
 1806 08ab 09       		.uleb128 0x9
 1807 08ac 38000000 		.4byte	0x38
 1808 08b0 18       		.byte	0x18
 1809 08b1 00       		.byte	0
 1810 08b2 1D       		.uleb128 0x1d
 1811 08b3 9F000000 		.4byte	.LASF148
 1812 08b7 0F       		.uleb128 0xf
 1813 08b8 04       		.byte	0x4
 1814 08b9 B2080000 		.4byte	0x8b2
 1815 08bd 1E       		.uleb128 0x1e
 1816 08be C8080000 		.4byte	0x8c8
 1817 08c2 14       		.uleb128 0x14
 1818 08c3 62040000 		.4byte	0x462
 1819 08c7 00       		.byte	0
 1820 08c8 0F       		.uleb128 0xf
 1821 08c9 04       		.byte	0x4
 1822 08ca BD080000 		.4byte	0x8bd
 1823 08ce 0F       		.uleb128 0xf
 1824 08cf 04       		.byte	0x4
ARM GAS  /tmp/ccsMrpMe.s 			page 33


 1825 08d0 85010000 		.4byte	0x185
 1826 08d4 1E       		.uleb128 0x1e
 1827 08d5 DF080000 		.4byte	0x8df
 1828 08d9 14       		.uleb128 0x14
 1829 08da 25000000 		.4byte	0x25
 1830 08de 00       		.byte	0
 1831 08df 0F       		.uleb128 0xf
 1832 08e0 04       		.byte	0x4
 1833 08e1 E5080000 		.4byte	0x8e5
 1834 08e5 0F       		.uleb128 0xf
 1835 08e6 04       		.byte	0x4
 1836 08e7 D4080000 		.4byte	0x8d4
 1837 08eb 08       		.uleb128 0x8
 1838 08ec 56060000 		.4byte	0x656
 1839 08f0 FB080000 		.4byte	0x8fb
 1840 08f4 09       		.uleb128 0x9
 1841 08f5 38000000 		.4byte	0x38
 1842 08f9 02       		.byte	0x2
 1843 08fa 00       		.byte	0
 1844 08fb 1F       		.uleb128 0x1f
 1845 08fc 2F060000 		.4byte	.LASF118
 1846 0900 04       		.byte	0x4
 1847 0901 3303     		.2byte	0x333
 1848 0903 17       		.byte	0x17
 1849 0904 62040000 		.4byte	0x462
 1850 0908 1F       		.uleb128 0x1f
 1851 0909 C8060000 		.4byte	.LASF119
 1852 090d 04       		.byte	0x4
 1853 090e 3403     		.2byte	0x334
 1854 0910 1D       		.byte	0x1d
 1855 0911 68040000 		.4byte	0x468
 1856 0915 0F       		.uleb128 0xf
 1857 0916 04       		.byte	0x4
 1858 0917 1B090000 		.4byte	0x91b
 1859 091b 20       		.uleb128 0x20
 1860 091c 21       		.uleb128 0x21
 1861 091d A5030000 		.4byte	.LASF120
 1862 0921 06       		.byte	0x6
 1863 0922 67       		.byte	0x67
 1864 0923 0E       		.byte	0xe
 1865 0924 B6050000 		.4byte	0x5b6
 1866 0928 03       		.uleb128 0x3
 1867 0929 84060000 		.4byte	.LASF121
 1868 092d 07       		.byte	0x7
 1869 092e 2E       		.byte	0x2e
 1870 092f 18       		.byte	0x18
 1871 0930 61000000 		.4byte	0x61
 1872 0934 03       		.uleb128 0x3
 1873 0935 51030000 		.4byte	.LASF122
 1874 0939 08       		.byte	0x8
 1875 093a 06       		.byte	0x6
 1876 093b 12       		.byte	0x12
 1877 093c 40090000 		.4byte	0x940
 1878 0940 0F       		.uleb128 0xf
 1879 0941 04       		.byte	0x4
 1880 0942 46090000 		.4byte	0x946
 1881 0946 13       		.uleb128 0x13
ARM GAS  /tmp/ccsMrpMe.s 			page 34


 1882 0947 5F090000 		.4byte	0x95f
 1883 094b 5F090000 		.4byte	0x95f
 1884 094f 14       		.uleb128 0x14
 1885 0950 66090000 		.4byte	0x966
 1886 0954 14       		.uleb128 0x14
 1887 0955 05010000 		.4byte	0x105
 1888 0959 14       		.uleb128 0x14
 1889 095a 2C000000 		.4byte	0x2c
 1890 095e 00       		.byte	0
 1891 095f 04       		.uleb128 0x4
 1892 0960 01       		.byte	0x1
 1893 0961 02       		.byte	0x2
 1894 0962 40050000 		.4byte	.LASF123
 1895 0966 0F       		.uleb128 0xf
 1896 0967 04       		.byte	0x4
 1897 0968 6C090000 		.4byte	0x96c
 1898 096c 0D       		.uleb128 0xd
 1899 096d 71030000 		.4byte	.LASF124
 1900 0971 10       		.byte	0x10
 1901 0972 08       		.byte	0x8
 1902 0973 48       		.byte	0x48
 1903 0974 10       		.byte	0x10
 1904 0975 AE090000 		.4byte	0x9ae
 1905 0979 0B       		.uleb128 0xb
 1906 097a 28050000 		.4byte	.LASF125
 1907 097e 08       		.byte	0x8
 1908 097f 49       		.byte	0x49
 1909 0980 0F       		.byte	0xf
 1910 0981 28090000 		.4byte	0x928
 1911 0985 00       		.byte	0
 1912 0986 0E       		.uleb128 0xe
 1913 0987 62756600 		.ascii	"buf\000"
 1914 098b 08       		.byte	0x8
 1915 098c 4A       		.byte	0x4a
 1916 098d 0F       		.byte	0xf
 1917 098e 05010000 		.4byte	0x105
 1918 0992 04       		.byte	0x4
 1919 0993 0B       		.uleb128 0xb
 1920 0994 13050000 		.4byte	.LASF126
 1921 0998 08       		.byte	0x8
 1922 0999 4B       		.byte	0x4b
 1923 099a 0F       		.byte	0xf
 1924 099b 34090000 		.4byte	0x934
 1925 099f 08       		.byte	0x8
 1926 09a0 0B       		.uleb128 0xb
 1927 09a1 2C000000 		.4byte	.LASF127
 1928 09a5 08       		.byte	0x8
 1929 09a6 4C       		.byte	0x4c
 1930 09a7 0F       		.byte	0xf
 1931 09a8 AE090000 		.4byte	0x9ae
 1932 09ac 0C       		.byte	0xc
 1933 09ad 00       		.byte	0
 1934 09ae 03       		.uleb128 0x3
 1935 09af 2E020000 		.4byte	.LASF128
 1936 09b3 08       		.byte	0x8
 1937 09b4 07       		.byte	0x7
 1938 09b5 12       		.byte	0x12
ARM GAS  /tmp/ccsMrpMe.s 			page 35


 1939 09b6 BA090000 		.4byte	0x9ba
 1940 09ba 0F       		.uleb128 0xf
 1941 09bb 04       		.byte	0x4
 1942 09bc C0090000 		.4byte	0x9c0
 1943 09c0 13       		.uleb128 0x13
 1944 09c1 2C000000 		.4byte	0x2c
 1945 09c5 D9090000 		.4byte	0x9d9
 1946 09c9 14       		.uleb128 0x14
 1947 09ca 66090000 		.4byte	0x966
 1948 09ce 14       		.uleb128 0x14
 1949 09cf 15090000 		.4byte	0x915
 1950 09d3 14       		.uleb128 0x14
 1951 09d4 2C000000 		.4byte	0x2c
 1952 09d8 00       		.byte	0
 1953 09d9 04       		.uleb128 0x4
 1954 09da 04       		.byte	0x4
 1955 09db 04       		.byte	0x4
 1956 09dc 18050000 		.4byte	.LASF129
 1957 09e0 04       		.uleb128 0x4
 1958 09e1 08       		.byte	0x8
 1959 09e2 04       		.byte	0x4
 1960 09e3 4B010000 		.4byte	.LASF130
 1961 09e7 03       		.uleb128 0x3
 1962 09e8 89010000 		.4byte	.LASF131
 1963 09ec 08       		.byte	0x8
 1964 09ed 4D       		.byte	0x4d
 1965 09ee 03       		.byte	0x3
 1966 09ef 6C090000 		.4byte	0x96c
 1967 09f3 0A       		.uleb128 0xa
 1968 09f4 0C       		.byte	0xc
 1969 09f5 09       		.byte	0x9
 1970 09f6 0D       		.byte	0xd
 1971 09f7 09       		.byte	0x9
 1972 09f8 240A0000 		.4byte	0xa24
 1973 09fc 0E       		.uleb128 0xe
 1974 09fd 62756600 		.ascii	"buf\000"
 1975 0a01 09       		.byte	0x9
 1976 0a02 0E       		.byte	0xe
 1977 0a03 0B       		.byte	0xb
 1978 0a04 B6050000 		.4byte	0x5b6
 1979 0a08 00       		.byte	0
 1980 0a09 0B       		.uleb128 0xb
 1981 0a0a 7E060000 		.4byte	.LASF132
 1982 0a0e 09       		.byte	0x9
 1983 0a0f 0F       		.byte	0xf
 1984 0a10 0C       		.byte	0xc
 1985 0a11 2C000000 		.4byte	0x2c
 1986 0a15 04       		.byte	0x4
 1987 0a16 0B       		.uleb128 0xb
 1988 0a17 8D020000 		.4byte	.LASF133
 1989 0a1b 09       		.byte	0x9
 1990 0a1c 10       		.byte	0x10
 1991 0a1d 0C       		.byte	0xc
 1992 0a1e 2C000000 		.4byte	0x2c
 1993 0a22 08       		.byte	0x8
 1994 0a23 00       		.byte	0
 1995 0a24 03       		.uleb128 0x3
ARM GAS  /tmp/ccsMrpMe.s 			page 36


 1996 0a25 18030000 		.4byte	.LASF134
 1997 0a29 09       		.byte	0x9
 1998 0a2a 11       		.byte	0x11
 1999 0a2b 03       		.byte	0x3
 2000 0a2c F3090000 		.4byte	0x9f3
 2001 0a30 22       		.uleb128 0x22
 2002 0a31 65070000 		.4byte	.LASF135
 2003 0a35 01       		.byte	0x1
 2004 0a36 43       		.byte	0x43
 2005 0a37 06       		.byte	0x6
 2006 0a38 5F090000 		.4byte	0x95f
 2007 0a3c 00000000 		.4byte	.LFB8
 2008 0a40 30000000 		.4byte	.LFE8-.LFB8
 2009 0a44 01       		.uleb128 0x1
 2010 0a45 9C       		.byte	0x9c
 2011 0a46 7A0A0000 		.4byte	0xa7a
 2012 0a4a 23       		.uleb128 0x23
 2013 0a4b 6D00     		.ascii	"m\000"
 2014 0a4d 01       		.byte	0x1
 2015 0a4e 43       		.byte	0x43
 2016 0a4f 34       		.byte	0x34
 2017 0a50 7A0A0000 		.4byte	0xa7a
 2018 0a54 04000000 		.4byte	.LLST24
 2019 0a58 00000000 		.4byte	.LVUS24
 2020 0a5c 23       		.uleb128 0x23
 2021 0a5d 706F7300 		.ascii	"pos\000"
 2022 0a61 01       		.byte	0x1
 2023 0a62 43       		.byte	0x43
 2024 0a63 3E       		.byte	0x3e
 2025 0a64 2C000000 		.4byte	0x2c
 2026 0a68 29000000 		.4byte	.LLST25
 2027 0a6c 25000000 		.4byte	.LVUS25
 2028 0a70 24       		.uleb128 0x24
 2029 0a71 2C000000 		.4byte	.LVL42
 2030 0a75 FB0D0000 		.4byte	0xdfb
 2031 0a79 00       		.byte	0
 2032 0a7a 0F       		.uleb128 0xf
 2033 0a7b 04       		.byte	0x4
 2034 0a7c 240A0000 		.4byte	0xa24
 2035 0a80 22       		.uleb128 0x22
 2036 0a81 E3020000 		.4byte	.LASF136
 2037 0a85 01       		.byte	0x1
 2038 0a86 3E       		.byte	0x3e
 2039 0a87 07       		.byte	0x7
 2040 0a88 05010000 		.4byte	0x105
 2041 0a8c 00000000 		.4byte	.LFB7
 2042 0a90 2C000000 		.4byte	.LFE7-.LFB7
 2043 0a94 01       		.uleb128 0x1
 2044 0a95 9C       		.byte	0x9c
 2045 0a96 CA0A0000 		.4byte	0xaca
 2046 0a9a 23       		.uleb128 0x23
 2047 0a9b 6D00     		.ascii	"m\000"
 2048 0a9d 01       		.byte	0x1
 2049 0a9e 3E       		.byte	0x3e
 2050 0a9f 37       		.byte	0x37
 2051 0aa0 7A0A0000 		.4byte	0xa7a
 2052 0aa4 4E000000 		.4byte	.LLST22
ARM GAS  /tmp/ccsMrpMe.s 			page 37


 2053 0aa8 4A000000 		.4byte	.LVUS22
 2054 0aac 23       		.uleb128 0x23
 2055 0aad 706F7300 		.ascii	"pos\000"
 2056 0ab1 01       		.byte	0x1
 2057 0ab2 3E       		.byte	0x3e
 2058 0ab3 41       		.byte	0x41
 2059 0ab4 2C000000 		.4byte	0x2c
 2060 0ab8 73000000 		.4byte	.LLST23
 2061 0abc 6F000000 		.4byte	.LVUS23
 2062 0ac0 24       		.uleb128 0x24
 2063 0ac1 26000000 		.4byte	.LVL39
 2064 0ac5 FB0D0000 		.4byte	0xdfb
 2065 0ac9 00       		.byte	0
 2066 0aca 25       		.uleb128 0x25
 2067 0acb 58060000 		.4byte	.LASF138
 2068 0acf 01       		.byte	0x1
 2069 0ad0 39       		.byte	0x39
 2070 0ad1 06       		.byte	0x6
 2071 0ad2 00000000 		.4byte	.LFB6
 2072 0ad6 28000000 		.4byte	.LFE6-.LFB6
 2073 0ada 01       		.uleb128 0x1
 2074 0adb 9C       		.byte	0x9c
 2075 0adc 100B0000 		.4byte	0xb10
 2076 0ae0 23       		.uleb128 0x23
 2077 0ae1 6D00     		.ascii	"m\000"
 2078 0ae3 01       		.byte	0x1
 2079 0ae4 39       		.byte	0x39
 2080 0ae5 2F       		.byte	0x2f
 2081 0ae6 7A0A0000 		.4byte	0xa7a
 2082 0aea 98000000 		.4byte	.LLST20
 2083 0aee 94000000 		.4byte	.LVUS20
 2084 0af2 23       		.uleb128 0x23
 2085 0af3 706F7300 		.ascii	"pos\000"
 2086 0af7 01       		.byte	0x1
 2087 0af8 39       		.byte	0x39
 2088 0af9 39       		.byte	0x39
 2089 0afa 2C000000 		.4byte	0x2c
 2090 0afe BD000000 		.4byte	.LLST21
 2091 0b02 B9000000 		.4byte	.LVUS21
 2092 0b06 24       		.uleb128 0x24
 2093 0b07 24000000 		.4byte	.LVL36
 2094 0b0b FB0D0000 		.4byte	0xdfb
 2095 0b0f 00       		.byte	0
 2096 0b10 22       		.uleb128 0x22
 2097 0b11 9E010000 		.4byte	.LASF137
 2098 0b15 01       		.byte	0x1
 2099 0b16 34       		.byte	0x34
 2100 0b17 08       		.byte	0x8
 2101 0b18 2C000000 		.4byte	0x2c
 2102 0b1c 00000000 		.4byte	.LFB5
 2103 0b20 28000000 		.4byte	.LFE5-.LFB5
 2104 0b24 01       		.uleb128 0x1
 2105 0b25 9C       		.byte	0x9c
 2106 0b26 460B0000 		.4byte	0xb46
 2107 0b2a 23       		.uleb128 0x23
 2108 0b2b 6D00     		.ascii	"m\000"
 2109 0b2d 01       		.byte	0x1
ARM GAS  /tmp/ccsMrpMe.s 			page 38


 2110 0b2e 34       		.byte	0x34
 2111 0b2f 31       		.byte	0x31
 2112 0b30 7A0A0000 		.4byte	0xa7a
 2113 0b34 E2000000 		.4byte	.LLST19
 2114 0b38 DE000000 		.4byte	.LVUS19
 2115 0b3c 24       		.uleb128 0x24
 2116 0b3d 24000000 		.4byte	.LVL34
 2117 0b41 FB0D0000 		.4byte	0xdfb
 2118 0b45 00       		.byte	0
 2119 0b46 25       		.uleb128 0x25
 2120 0b47 E8060000 		.4byte	.LASF139
 2121 0b4b 01       		.byte	0x1
 2122 0b4c 2C       		.byte	0x2c
 2123 0b4d 06       		.byte	0x6
 2124 0b4e 00000000 		.4byte	.LFB4
 2125 0b52 44000000 		.4byte	.LFE4-.LFB4
 2126 0b56 01       		.uleb128 0x1
 2127 0b57 9C       		.byte	0x9c
 2128 0b58 E20B0000 		.4byte	0xbe2
 2129 0b5c 23       		.uleb128 0x23
 2130 0b5d 636D7000 		.ascii	"cmp\000"
 2131 0b61 01       		.byte	0x1
 2132 0b62 2C       		.byte	0x2c
 2133 0b63 28       		.byte	0x28
 2134 0b64 E20B0000 		.4byte	0xbe2
 2135 0b68 0B010000 		.4byte	.LLST15
 2136 0b6c 03010000 		.4byte	.LVUS15
 2137 0b70 23       		.uleb128 0x23
 2138 0b71 6D00     		.ascii	"m\000"
 2139 0b73 01       		.byte	0x1
 2140 0b74 2C       		.byte	0x2c
 2141 0b75 3F       		.byte	0x3f
 2142 0b76 7A0A0000 		.4byte	0xa7a
 2143 0b7a 4D010000 		.4byte	.LLST16
 2144 0b7e 45010000 		.4byte	.LVUS16
 2145 0b82 23       		.uleb128 0x23
 2146 0b83 62756600 		.ascii	"buf\000"
 2147 0b87 01       		.byte	0x1
 2148 0b88 2C       		.byte	0x2c
 2149 0b89 4E       		.byte	0x4e
 2150 0b8a 15090000 		.4byte	0x915
 2151 0b8e 91010000 		.4byte	.LLST17
 2152 0b92 87010000 		.4byte	.LVUS17
 2153 0b96 26       		.uleb128 0x26
 2154 0b97 8D020000 		.4byte	.LASF133
 2155 0b9b 01       		.byte	0x1
 2156 0b9c 2C       		.byte	0x2c
 2157 0b9d 5A       		.byte	0x5a
 2158 0b9e 2C000000 		.4byte	0x2c
 2159 0ba2 E2010000 		.4byte	.LLST18
 2160 0ba6 D8010000 		.4byte	.LVUS18
 2161 0baa 27       		.uleb128 0x27
 2162 0bab 34000000 		.4byte	.LVL30
 2163 0baf 040E0000 		.4byte	0xe04
 2164 0bb3 D80B0000 		.4byte	0xbd8
 2165 0bb7 28       		.uleb128 0x28
 2166 0bb8 01       		.uleb128 0x1
ARM GAS  /tmp/ccsMrpMe.s 			page 39


 2167 0bb9 50       		.byte	0x50
 2168 0bba 03       		.uleb128 0x3
 2169 0bbb F3       		.byte	0xf3
 2170 0bbc 01       		.uleb128 0x1
 2171 0bbd 50       		.byte	0x50
 2172 0bbe 28       		.uleb128 0x28
 2173 0bbf 01       		.uleb128 0x1
 2174 0bc0 51       		.byte	0x51
 2175 0bc1 03       		.uleb128 0x3
 2176 0bc2 F3       		.byte	0xf3
 2177 0bc3 01       		.uleb128 0x1
 2178 0bc4 51       		.byte	0x51
 2179 0bc5 28       		.uleb128 0x28
 2180 0bc6 01       		.uleb128 0x1
 2181 0bc7 52       		.byte	0x52
 2182 0bc8 05       		.uleb128 0x5
 2183 0bc9 03       		.byte	0x3
 2184 0bca 00000000 		.4byte	cmp_mem_reader
 2185 0bce 28       		.uleb128 0x28
 2186 0bcf 01       		.uleb128 0x1
 2187 0bd0 53       		.byte	0x53
 2188 0bd1 05       		.uleb128 0x5
 2189 0bd2 03       		.byte	0x3
 2190 0bd3 00000000 		.4byte	cmp_mem_writer_ro
 2191 0bd7 00       		.byte	0
 2192 0bd8 24       		.uleb128 0x24
 2193 0bd9 38000000 		.4byte	.LVL31
 2194 0bdd FB0D0000 		.4byte	0xdfb
 2195 0be1 00       		.byte	0
 2196 0be2 0F       		.uleb128 0xf
 2197 0be3 04       		.byte	0x4
 2198 0be4 E7090000 		.4byte	0x9e7
 2199 0be8 25       		.uleb128 0x25
 2200 0be9 9E070000 		.4byte	.LASF140
 2201 0bed 01       		.byte	0x1
 2202 0bee 24       		.byte	0x24
 2203 0bef 06       		.byte	0x6
 2204 0bf0 00000000 		.4byte	.LFB3
 2205 0bf4 44000000 		.4byte	.LFE3-.LFB3
 2206 0bf8 01       		.uleb128 0x1
 2207 0bf9 9C       		.byte	0x9c
 2208 0bfa 840C0000 		.4byte	0xc84
 2209 0bfe 23       		.uleb128 0x23
 2210 0bff 636D7000 		.ascii	"cmp\000"
 2211 0c03 01       		.byte	0x1
 2212 0c04 24       		.byte	0x24
 2213 0c05 25       		.byte	0x25
 2214 0c06 E20B0000 		.4byte	0xbe2
 2215 0c0a 31020000 		.4byte	.LLST11
 2216 0c0e 29020000 		.4byte	.LVUS11
 2217 0c12 23       		.uleb128 0x23
 2218 0c13 6D00     		.ascii	"m\000"
 2219 0c15 01       		.byte	0x1
 2220 0c16 24       		.byte	0x24
 2221 0c17 3C       		.byte	0x3c
 2222 0c18 7A0A0000 		.4byte	0xa7a
 2223 0c1c 73020000 		.4byte	.LLST12
ARM GAS  /tmp/ccsMrpMe.s 			page 40


 2224 0c20 6B020000 		.4byte	.LVUS12
 2225 0c24 23       		.uleb128 0x23
 2226 0c25 62756600 		.ascii	"buf\000"
 2227 0c29 01       		.byte	0x1
 2228 0c2a 24       		.byte	0x24
 2229 0c2b 45       		.byte	0x45
 2230 0c2c 05010000 		.4byte	0x105
 2231 0c30 B7020000 		.4byte	.LLST13
 2232 0c34 AD020000 		.4byte	.LVUS13
 2233 0c38 26       		.uleb128 0x26
 2234 0c39 8D020000 		.4byte	.LASF133
 2235 0c3d 01       		.byte	0x1
 2236 0c3e 24       		.byte	0x24
 2237 0c3f 51       		.byte	0x51
 2238 0c40 2C000000 		.4byte	0x2c
 2239 0c44 08030000 		.4byte	.LLST14
 2240 0c48 FE020000 		.4byte	.LVUS14
 2241 0c4c 27       		.uleb128 0x27
 2242 0c4d 34000000 		.4byte	.LVL25
 2243 0c51 040E0000 		.4byte	0xe04
 2244 0c55 7A0C0000 		.4byte	0xc7a
 2245 0c59 28       		.uleb128 0x28
 2246 0c5a 01       		.uleb128 0x1
 2247 0c5b 50       		.byte	0x50
 2248 0c5c 03       		.uleb128 0x3
 2249 0c5d F3       		.byte	0xf3
 2250 0c5e 01       		.uleb128 0x1
 2251 0c5f 50       		.byte	0x50
 2252 0c60 28       		.uleb128 0x28
 2253 0c61 01       		.uleb128 0x1
 2254 0c62 51       		.byte	0x51
 2255 0c63 03       		.uleb128 0x3
 2256 0c64 F3       		.byte	0xf3
 2257 0c65 01       		.uleb128 0x1
 2258 0c66 51       		.byte	0x51
 2259 0c67 28       		.uleb128 0x28
 2260 0c68 01       		.uleb128 0x1
 2261 0c69 52       		.byte	0x52
 2262 0c6a 05       		.uleb128 0x5
 2263 0c6b 03       		.byte	0x3
 2264 0c6c 00000000 		.4byte	cmp_mem_reader
 2265 0c70 28       		.uleb128 0x28
 2266 0c71 01       		.uleb128 0x1
 2267 0c72 53       		.byte	0x53
 2268 0c73 05       		.uleb128 0x5
 2269 0c74 03       		.byte	0x3
 2270 0c75 00000000 		.4byte	cmp_mem_writer
 2271 0c79 00       		.byte	0
 2272 0c7a 24       		.uleb128 0x24
 2273 0c7b 38000000 		.4byte	.LVL26
 2274 0c7f FB0D0000 		.4byte	0xdfb
 2275 0c83 00       		.byte	0
 2276 0c84 29       		.uleb128 0x29
 2277 0c85 82030000 		.4byte	.LASF142
 2278 0c89 01       		.byte	0x1
 2279 0c8a 1C       		.byte	0x1c
 2280 0c8b 0F       		.byte	0xf
ARM GAS  /tmp/ccsMrpMe.s 			page 41


 2281 0c8c 2C000000 		.4byte	0x2c
 2282 0c90 00000000 		.4byte	.LFB2
 2283 0c94 28000000 		.4byte	.LFE2-.LFB2
 2284 0c98 01       		.uleb128 0x1
 2285 0c99 9C       		.byte	0x9c
 2286 0c9a E40C0000 		.4byte	0xce4
 2287 0c9e 23       		.uleb128 0x23
 2288 0c9f 63747800 		.ascii	"ctx\000"
 2289 0ca3 01       		.byte	0x1
 2290 0ca4 1C       		.byte	0x1c
 2291 0ca5 33       		.byte	0x33
 2292 0ca6 66090000 		.4byte	0x966
 2293 0caa 57030000 		.4byte	.LLST0
 2294 0cae 4F030000 		.4byte	.LVUS0
 2295 0cb2 26       		.uleb128 0x26
 2296 0cb3 88020000 		.4byte	.LASF141
 2297 0cb7 01       		.byte	0x1
 2298 0cb8 1C       		.byte	0x1c
 2299 0cb9 44       		.byte	0x44
 2300 0cba 15090000 		.4byte	0x915
 2301 0cbe 95030000 		.4byte	.LLST1
 2302 0cc2 91030000 		.4byte	.LVUS1
 2303 0cc6 23       		.uleb128 0x23
 2304 0cc7 6C656E00 		.ascii	"len\000"
 2305 0ccb 01       		.byte	0x1
 2306 0ccc 1C       		.byte	0x1c
 2307 0ccd 51       		.byte	0x51
 2308 0cce 2C000000 		.4byte	0x2c
 2309 0cd2 BA030000 		.4byte	.LLST2
 2310 0cd6 B6030000 		.4byte	.LVUS2
 2311 0cda 24       		.uleb128 0x24
 2312 0cdb 24000000 		.4byte	.LVL4
 2313 0cdf FB0D0000 		.4byte	0xdfb
 2314 0ce3 00       		.byte	0
 2315 0ce4 29       		.uleb128 0x29
 2316 0ce5 6F060000 		.4byte	.LASF143
 2317 0ce9 01       		.byte	0x1
 2318 0cea 10       		.byte	0x10
 2319 0ceb 0F       		.byte	0xf
 2320 0cec 2C000000 		.4byte	0x2c
 2321 0cf0 00000000 		.4byte	.LFB1
 2322 0cf4 48000000 		.4byte	.LFE1-.LFB1
 2323 0cf8 01       		.uleb128 0x1
 2324 0cf9 9C       		.byte	0x9c
 2325 0cfa 6C0D0000 		.4byte	0xd6c
 2326 0cfe 23       		.uleb128 0x23
 2327 0cff 63747800 		.ascii	"ctx\000"
 2328 0d03 01       		.byte	0x1
 2329 0d04 10       		.byte	0x10
 2330 0d05 30       		.byte	0x30
 2331 0d06 66090000 		.4byte	0x966
 2332 0d0a DF030000 		.4byte	.LLST3
 2333 0d0e DB030000 		.4byte	.LVUS3
 2334 0d12 26       		.uleb128 0x26
 2335 0d13 88020000 		.4byte	.LASF141
 2336 0d17 01       		.byte	0x1
 2337 0d18 10       		.byte	0x10
ARM GAS  /tmp/ccsMrpMe.s 			page 42


 2338 0d19 41       		.byte	0x41
 2339 0d1a 15090000 		.4byte	0x915
 2340 0d1e 08040000 		.4byte	.LLST4
 2341 0d22 00040000 		.4byte	.LVUS4
 2342 0d26 23       		.uleb128 0x23
 2343 0d27 6C656E00 		.ascii	"len\000"
 2344 0d2b 01       		.byte	0x1
 2345 0d2c 10       		.byte	0x10
 2346 0d2d 4E       		.byte	0x4e
 2347 0d2e 2C000000 		.4byte	0x2c
 2348 0d32 4C040000 		.4byte	.LLST5
 2349 0d36 42040000 		.4byte	.LVUS5
 2350 0d3a 2A       		.uleb128 0x2a
 2351 0d3b 6D656D00 		.ascii	"mem\000"
 2352 0d3f 01       		.byte	0x1
 2353 0d40 12       		.byte	0x12
 2354 0d41 17       		.byte	0x17
 2355 0d42 7A0A0000 		.4byte	0xa7a
 2356 0d46 93040000 		.4byte	.LLST6
 2357 0d4a 91040000 		.4byte	.LVUS6
 2358 0d4e 2B       		.uleb128 0x2b
 2359 0d4f 34000000 		.4byte	.LVL10
 2360 0d53 100E0000 		.4byte	0xe10
 2361 0d57 620D0000 		.4byte	0xd62
 2362 0d5b 28       		.uleb128 0x28
 2363 0d5c 01       		.uleb128 0x1
 2364 0d5d 52       		.byte	0x52
 2365 0d5e 02       		.uleb128 0x2
 2366 0d5f 74       		.byte	0x74
 2367 0d60 00       		.sleb128 0
 2368 0d61 00       		.byte	0
 2369 0d62 24       		.uleb128 0x24
 2370 0d63 42000000 		.4byte	.LVL12
 2371 0d67 FB0D0000 		.4byte	0xdfb
 2372 0d6b 00       		.byte	0
 2373 0d6c 29       		.uleb128 0x29
 2374 0d6d 31030000 		.4byte	.LASF144
 2375 0d71 01       		.byte	0x1
 2376 0d72 04       		.byte	0x4
 2377 0d73 0D       		.byte	0xd
 2378 0d74 5F090000 		.4byte	0x95f
 2379 0d78 00000000 		.4byte	.LFB0
 2380 0d7c 48000000 		.4byte	.LFE0-.LFB0
 2381 0d80 01       		.uleb128 0x1
 2382 0d81 9C       		.byte	0x9c
 2383 0d82 FB0D0000 		.4byte	0xdfb
 2384 0d86 23       		.uleb128 0x23
 2385 0d87 63747800 		.ascii	"ctx\000"
 2386 0d8b 01       		.byte	0x1
 2387 0d8c 04       		.byte	0x4
 2388 0d8d 2E       		.byte	0x2e
 2389 0d8e 66090000 		.4byte	0x966
 2390 0d92 AA040000 		.4byte	.LLST7
 2391 0d96 A6040000 		.4byte	.LVUS7
 2392 0d9a 26       		.uleb128 0x26
 2393 0d9b 88020000 		.4byte	.LASF141
 2394 0d9f 01       		.byte	0x1
ARM GAS  /tmp/ccsMrpMe.s 			page 43


 2395 0da0 04       		.byte	0x4
 2396 0da1 39       		.byte	0x39
 2397 0da2 05010000 		.4byte	0x105
 2398 0da6 D5040000 		.4byte	.LLST8
 2399 0daa CB040000 		.4byte	.LVUS8
 2400 0dae 23       		.uleb128 0x23
 2401 0daf 6C656E00 		.ascii	"len\000"
 2402 0db3 01       		.byte	0x1
 2403 0db4 04       		.byte	0x4
 2404 0db5 46       		.byte	0x46
 2405 0db6 2C000000 		.4byte	0x2c
 2406 0dba 24050000 		.4byte	.LLST9
 2407 0dbe 1A050000 		.4byte	.LVUS9
 2408 0dc2 2A       		.uleb128 0x2a
 2409 0dc3 6D656D00 		.ascii	"mem\000"
 2410 0dc7 01       		.byte	0x1
 2411 0dc8 06       		.byte	0x6
 2412 0dc9 17       		.byte	0x17
 2413 0dca 7A0A0000 		.4byte	0xa7a
 2414 0dce 6B050000 		.4byte	.LLST10
 2415 0dd2 69050000 		.4byte	.LVUS10
 2416 0dd6 2B       		.uleb128 0x2b
 2417 0dd7 36000000 		.4byte	.LVL19
 2418 0ddb 100E0000 		.4byte	0xe10
 2419 0ddf F10D0000 		.4byte	0xdf1
 2420 0de3 28       		.uleb128 0x28
 2421 0de4 01       		.uleb128 0x1
 2422 0de5 50       		.byte	0x50
 2423 0de6 03       		.uleb128 0x3
 2424 0de7 F3       		.byte	0xf3
 2425 0de8 01       		.uleb128 0x1
 2426 0de9 51       		.byte	0x51
 2427 0dea 28       		.uleb128 0x28
 2428 0deb 01       		.uleb128 0x1
 2429 0dec 52       		.byte	0x52
 2430 0ded 02       		.uleb128 0x2
 2431 0dee 74       		.byte	0x74
 2432 0def 00       		.sleb128 0
 2433 0df0 00       		.byte	0
 2434 0df1 24       		.uleb128 0x24
 2435 0df2 44000000 		.4byte	.LVL21
 2436 0df6 FB0D0000 		.4byte	0xdfb
 2437 0dfa 00       		.byte	0
 2438 0dfb 2C       		.uleb128 0x2c
 2439 0dfc F3050000 		.4byte	.LASF149
 2440 0e00 F3050000 		.4byte	.LASF149
 2441 0e04 2D       		.uleb128 0x2d
 2442 0e05 68030000 		.4byte	.LASF150
 2443 0e09 68030000 		.4byte	.LASF150
 2444 0e0d 08       		.byte	0x8
 2445 0e0e 5F       		.byte	0x5f
 2446 0e0f 06       		.byte	0x6
 2447 0e10 2E       		.uleb128 0x2e
 2448 0e11 D5020000 		.4byte	.LASF151
 2449 0e15 01030000 		.4byte	.LASF152
 2450 0e19 0A       		.byte	0xa
 2451 0e1a 00       		.byte	0
ARM GAS  /tmp/ccsMrpMe.s 			page 44


 2452 0e1b 00       		.byte	0
 2453              		.section	.debug_abbrev,"",%progbits
 2454              	.Ldebug_abbrev0:
 2455 0000 01       		.uleb128 0x1
 2456 0001 11       		.uleb128 0x11
 2457 0002 01       		.byte	0x1
 2458 0003 25       		.uleb128 0x25
 2459 0004 0E       		.uleb128 0xe
 2460 0005 13       		.uleb128 0x13
 2461 0006 0B       		.uleb128 0xb
 2462 0007 03       		.uleb128 0x3
 2463 0008 0E       		.uleb128 0xe
 2464 0009 1B       		.uleb128 0x1b
 2465 000a 0E       		.uleb128 0xe
 2466 000b 55       		.uleb128 0x55
 2467 000c 17       		.uleb128 0x17
 2468 000d 11       		.uleb128 0x11
 2469 000e 01       		.uleb128 0x1
 2470 000f 10       		.uleb128 0x10
 2471 0010 17       		.uleb128 0x17
 2472 0011 00       		.byte	0
 2473 0012 00       		.byte	0
 2474 0013 02       		.uleb128 0x2
 2475 0014 24       		.uleb128 0x24
 2476 0015 00       		.byte	0
 2477 0016 0B       		.uleb128 0xb
 2478 0017 0B       		.uleb128 0xb
 2479 0018 3E       		.uleb128 0x3e
 2480 0019 0B       		.uleb128 0xb
 2481 001a 03       		.uleb128 0x3
 2482 001b 08       		.uleb128 0x8
 2483 001c 00       		.byte	0
 2484 001d 00       		.byte	0
 2485 001e 03       		.uleb128 0x3
 2486 001f 16       		.uleb128 0x16
 2487 0020 00       		.byte	0
 2488 0021 03       		.uleb128 0x3
 2489 0022 0E       		.uleb128 0xe
 2490 0023 3A       		.uleb128 0x3a
 2491 0024 0B       		.uleb128 0xb
 2492 0025 3B       		.uleb128 0x3b
 2493 0026 0B       		.uleb128 0xb
 2494 0027 39       		.uleb128 0x39
 2495 0028 0B       		.uleb128 0xb
 2496 0029 49       		.uleb128 0x49
 2497 002a 13       		.uleb128 0x13
 2498 002b 00       		.byte	0
 2499 002c 00       		.byte	0
 2500 002d 04       		.uleb128 0x4
 2501 002e 24       		.uleb128 0x24
 2502 002f 00       		.byte	0
 2503 0030 0B       		.uleb128 0xb
 2504 0031 0B       		.uleb128 0xb
 2505 0032 3E       		.uleb128 0x3e
 2506 0033 0B       		.uleb128 0xb
 2507 0034 03       		.uleb128 0x3
 2508 0035 0E       		.uleb128 0xe
ARM GAS  /tmp/ccsMrpMe.s 			page 45


 2509 0036 00       		.byte	0
 2510 0037 00       		.byte	0
 2511 0038 05       		.uleb128 0x5
 2512 0039 16       		.uleb128 0x16
 2513 003a 00       		.byte	0
 2514 003b 03       		.uleb128 0x3
 2515 003c 0E       		.uleb128 0xe
 2516 003d 3A       		.uleb128 0x3a
 2517 003e 0B       		.uleb128 0xb
 2518 003f 3B       		.uleb128 0x3b
 2519 0040 05       		.uleb128 0x5
 2520 0041 39       		.uleb128 0x39
 2521 0042 0B       		.uleb128 0xb
 2522 0043 49       		.uleb128 0x49
 2523 0044 13       		.uleb128 0x13
 2524 0045 00       		.byte	0
 2525 0046 00       		.byte	0
 2526 0047 06       		.uleb128 0x6
 2527 0048 17       		.uleb128 0x17
 2528 0049 01       		.byte	0x1
 2529 004a 0B       		.uleb128 0xb
 2530 004b 0B       		.uleb128 0xb
 2531 004c 3A       		.uleb128 0x3a
 2532 004d 0B       		.uleb128 0xb
 2533 004e 3B       		.uleb128 0x3b
 2534 004f 0B       		.uleb128 0xb
 2535 0050 39       		.uleb128 0x39
 2536 0051 0B       		.uleb128 0xb
 2537 0052 01       		.uleb128 0x1
 2538 0053 13       		.uleb128 0x13
 2539 0054 00       		.byte	0
 2540 0055 00       		.byte	0
 2541 0056 07       		.uleb128 0x7
 2542 0057 0D       		.uleb128 0xd
 2543 0058 00       		.byte	0
 2544 0059 03       		.uleb128 0x3
 2545 005a 0E       		.uleb128 0xe
 2546 005b 3A       		.uleb128 0x3a
 2547 005c 0B       		.uleb128 0xb
 2548 005d 3B       		.uleb128 0x3b
 2549 005e 0B       		.uleb128 0xb
 2550 005f 39       		.uleb128 0x39
 2551 0060 0B       		.uleb128 0xb
 2552 0061 49       		.uleb128 0x49
 2553 0062 13       		.uleb128 0x13
 2554 0063 00       		.byte	0
 2555 0064 00       		.byte	0
 2556 0065 08       		.uleb128 0x8
 2557 0066 01       		.uleb128 0x1
 2558 0067 01       		.byte	0x1
 2559 0068 49       		.uleb128 0x49
 2560 0069 13       		.uleb128 0x13
 2561 006a 01       		.uleb128 0x1
 2562 006b 13       		.uleb128 0x13
 2563 006c 00       		.byte	0
 2564 006d 00       		.byte	0
 2565 006e 09       		.uleb128 0x9
ARM GAS  /tmp/ccsMrpMe.s 			page 46


 2566 006f 21       		.uleb128 0x21
 2567 0070 00       		.byte	0
 2568 0071 49       		.uleb128 0x49
 2569 0072 13       		.uleb128 0x13
 2570 0073 2F       		.uleb128 0x2f
 2571 0074 0B       		.uleb128 0xb
 2572 0075 00       		.byte	0
 2573 0076 00       		.byte	0
 2574 0077 0A       		.uleb128 0xa
 2575 0078 13       		.uleb128 0x13
 2576 0079 01       		.byte	0x1
 2577 007a 0B       		.uleb128 0xb
 2578 007b 0B       		.uleb128 0xb
 2579 007c 3A       		.uleb128 0x3a
 2580 007d 0B       		.uleb128 0xb
 2581 007e 3B       		.uleb128 0x3b
 2582 007f 0B       		.uleb128 0xb
 2583 0080 39       		.uleb128 0x39
 2584 0081 0B       		.uleb128 0xb
 2585 0082 01       		.uleb128 0x1
 2586 0083 13       		.uleb128 0x13
 2587 0084 00       		.byte	0
 2588 0085 00       		.byte	0
 2589 0086 0B       		.uleb128 0xb
 2590 0087 0D       		.uleb128 0xd
 2591 0088 00       		.byte	0
 2592 0089 03       		.uleb128 0x3
 2593 008a 0E       		.uleb128 0xe
 2594 008b 3A       		.uleb128 0x3a
 2595 008c 0B       		.uleb128 0xb
 2596 008d 3B       		.uleb128 0x3b
 2597 008e 0B       		.uleb128 0xb
 2598 008f 39       		.uleb128 0x39
 2599 0090 0B       		.uleb128 0xb
 2600 0091 49       		.uleb128 0x49
 2601 0092 13       		.uleb128 0x13
 2602 0093 38       		.uleb128 0x38
 2603 0094 0B       		.uleb128 0xb
 2604 0095 00       		.byte	0
 2605 0096 00       		.byte	0
 2606 0097 0C       		.uleb128 0xc
 2607 0098 0F       		.uleb128 0xf
 2608 0099 00       		.byte	0
 2609 009a 0B       		.uleb128 0xb
 2610 009b 0B       		.uleb128 0xb
 2611 009c 00       		.byte	0
 2612 009d 00       		.byte	0
 2613 009e 0D       		.uleb128 0xd
 2614 009f 13       		.uleb128 0x13
 2615 00a0 01       		.byte	0x1
 2616 00a1 03       		.uleb128 0x3
 2617 00a2 0E       		.uleb128 0xe
 2618 00a3 0B       		.uleb128 0xb
 2619 00a4 0B       		.uleb128 0xb
 2620 00a5 3A       		.uleb128 0x3a
 2621 00a6 0B       		.uleb128 0xb
 2622 00a7 3B       		.uleb128 0x3b
ARM GAS  /tmp/ccsMrpMe.s 			page 47


 2623 00a8 0B       		.uleb128 0xb
 2624 00a9 39       		.uleb128 0x39
 2625 00aa 0B       		.uleb128 0xb
 2626 00ab 01       		.uleb128 0x1
 2627 00ac 13       		.uleb128 0x13
 2628 00ad 00       		.byte	0
 2629 00ae 00       		.byte	0
 2630 00af 0E       		.uleb128 0xe
 2631 00b0 0D       		.uleb128 0xd
 2632 00b1 00       		.byte	0
 2633 00b2 03       		.uleb128 0x3
 2634 00b3 08       		.uleb128 0x8
 2635 00b4 3A       		.uleb128 0x3a
 2636 00b5 0B       		.uleb128 0xb
 2637 00b6 3B       		.uleb128 0x3b
 2638 00b7 0B       		.uleb128 0xb
 2639 00b8 39       		.uleb128 0x39
 2640 00b9 0B       		.uleb128 0xb
 2641 00ba 49       		.uleb128 0x49
 2642 00bb 13       		.uleb128 0x13
 2643 00bc 38       		.uleb128 0x38
 2644 00bd 0B       		.uleb128 0xb
 2645 00be 00       		.byte	0
 2646 00bf 00       		.byte	0
 2647 00c0 0F       		.uleb128 0xf
 2648 00c1 0F       		.uleb128 0xf
 2649 00c2 00       		.byte	0
 2650 00c3 0B       		.uleb128 0xb
 2651 00c4 0B       		.uleb128 0xb
 2652 00c5 49       		.uleb128 0x49
 2653 00c6 13       		.uleb128 0x13
 2654 00c7 00       		.byte	0
 2655 00c8 00       		.byte	0
 2656 00c9 10       		.uleb128 0x10
 2657 00ca 13       		.uleb128 0x13
 2658 00cb 01       		.byte	0x1
 2659 00cc 03       		.uleb128 0x3
 2660 00cd 0E       		.uleb128 0xe
 2661 00ce 0B       		.uleb128 0xb
 2662 00cf 05       		.uleb128 0x5
 2663 00d0 3A       		.uleb128 0x3a
 2664 00d1 0B       		.uleb128 0xb
 2665 00d2 3B       		.uleb128 0x3b
 2666 00d3 0B       		.uleb128 0xb
 2667 00d4 39       		.uleb128 0x39
 2668 00d5 0B       		.uleb128 0xb
 2669 00d6 01       		.uleb128 0x1
 2670 00d7 13       		.uleb128 0x13
 2671 00d8 00       		.byte	0
 2672 00d9 00       		.byte	0
 2673 00da 11       		.uleb128 0x11
 2674 00db 0D       		.uleb128 0xd
 2675 00dc 00       		.byte	0
 2676 00dd 03       		.uleb128 0x3
 2677 00de 0E       		.uleb128 0xe
 2678 00df 3A       		.uleb128 0x3a
 2679 00e0 0B       		.uleb128 0xb
ARM GAS  /tmp/ccsMrpMe.s 			page 48


 2680 00e1 3B       		.uleb128 0x3b
 2681 00e2 0B       		.uleb128 0xb
 2682 00e3 39       		.uleb128 0x39
 2683 00e4 0B       		.uleb128 0xb
 2684 00e5 49       		.uleb128 0x49
 2685 00e6 13       		.uleb128 0x13
 2686 00e7 38       		.uleb128 0x38
 2687 00e8 05       		.uleb128 0x5
 2688 00e9 00       		.byte	0
 2689 00ea 00       		.byte	0
 2690 00eb 12       		.uleb128 0x12
 2691 00ec 15       		.uleb128 0x15
 2692 00ed 00       		.byte	0
 2693 00ee 27       		.uleb128 0x27
 2694 00ef 19       		.uleb128 0x19
 2695 00f0 00       		.byte	0
 2696 00f1 00       		.byte	0
 2697 00f2 13       		.uleb128 0x13
 2698 00f3 15       		.uleb128 0x15
 2699 00f4 01       		.byte	0x1
 2700 00f5 27       		.uleb128 0x27
 2701 00f6 19       		.uleb128 0x19
 2702 00f7 49       		.uleb128 0x49
 2703 00f8 13       		.uleb128 0x13
 2704 00f9 01       		.uleb128 0x1
 2705 00fa 13       		.uleb128 0x13
 2706 00fb 00       		.byte	0
 2707 00fc 00       		.byte	0
 2708 00fd 14       		.uleb128 0x14
 2709 00fe 05       		.uleb128 0x5
 2710 00ff 00       		.byte	0
 2711 0100 49       		.uleb128 0x49
 2712 0101 13       		.uleb128 0x13
 2713 0102 00       		.byte	0
 2714 0103 00       		.byte	0
 2715 0104 15       		.uleb128 0x15
 2716 0105 26       		.uleb128 0x26
 2717 0106 00       		.byte	0
 2718 0107 49       		.uleb128 0x49
 2719 0108 13       		.uleb128 0x13
 2720 0109 00       		.byte	0
 2721 010a 00       		.byte	0
 2722 010b 16       		.uleb128 0x16
 2723 010c 13       		.uleb128 0x13
 2724 010d 01       		.byte	0x1
 2725 010e 03       		.uleb128 0x3
 2726 010f 0E       		.uleb128 0xe
 2727 0110 0B       		.uleb128 0xb
 2728 0111 05       		.uleb128 0x5
 2729 0112 3A       		.uleb128 0x3a
 2730 0113 0B       		.uleb128 0xb
 2731 0114 3B       		.uleb128 0x3b
 2732 0115 05       		.uleb128 0x5
 2733 0116 39       		.uleb128 0x39
 2734 0117 0B       		.uleb128 0xb
 2735 0118 01       		.uleb128 0x1
 2736 0119 13       		.uleb128 0x13
ARM GAS  /tmp/ccsMrpMe.s 			page 49


 2737 011a 00       		.byte	0
 2738 011b 00       		.byte	0
 2739 011c 17       		.uleb128 0x17
 2740 011d 0D       		.uleb128 0xd
 2741 011e 00       		.byte	0
 2742 011f 03       		.uleb128 0x3
 2743 0120 0E       		.uleb128 0xe
 2744 0121 3A       		.uleb128 0x3a
 2745 0122 0B       		.uleb128 0xb
 2746 0123 3B       		.uleb128 0x3b
 2747 0124 05       		.uleb128 0x5
 2748 0125 39       		.uleb128 0x39
 2749 0126 0B       		.uleb128 0xb
 2750 0127 49       		.uleb128 0x49
 2751 0128 13       		.uleb128 0x13
 2752 0129 38       		.uleb128 0x38
 2753 012a 0B       		.uleb128 0xb
 2754 012b 00       		.byte	0
 2755 012c 00       		.byte	0
 2756 012d 18       		.uleb128 0x18
 2757 012e 0D       		.uleb128 0xd
 2758 012f 00       		.byte	0
 2759 0130 03       		.uleb128 0x3
 2760 0131 0E       		.uleb128 0xe
 2761 0132 3A       		.uleb128 0x3a
 2762 0133 0B       		.uleb128 0xb
 2763 0134 3B       		.uleb128 0x3b
 2764 0135 05       		.uleb128 0x5
 2765 0136 39       		.uleb128 0x39
 2766 0137 0B       		.uleb128 0xb
 2767 0138 49       		.uleb128 0x49
 2768 0139 13       		.uleb128 0x13
 2769 013a 38       		.uleb128 0x38
 2770 013b 05       		.uleb128 0x5
 2771 013c 00       		.byte	0
 2772 013d 00       		.byte	0
 2773 013e 19       		.uleb128 0x19
 2774 013f 13       		.uleb128 0x13
 2775 0140 01       		.byte	0x1
 2776 0141 03       		.uleb128 0x3
 2777 0142 0E       		.uleb128 0xe
 2778 0143 0B       		.uleb128 0xb
 2779 0144 0B       		.uleb128 0xb
 2780 0145 3A       		.uleb128 0x3a
 2781 0146 0B       		.uleb128 0xb
 2782 0147 3B       		.uleb128 0x3b
 2783 0148 05       		.uleb128 0x5
 2784 0149 39       		.uleb128 0x39
 2785 014a 0B       		.uleb128 0xb
 2786 014b 01       		.uleb128 0x1
 2787 014c 13       		.uleb128 0x13
 2788 014d 00       		.byte	0
 2789 014e 00       		.byte	0
 2790 014f 1A       		.uleb128 0x1a
 2791 0150 13       		.uleb128 0x13
 2792 0151 01       		.byte	0x1
 2793 0152 0B       		.uleb128 0xb
ARM GAS  /tmp/ccsMrpMe.s 			page 50


 2794 0153 0B       		.uleb128 0xb
 2795 0154 3A       		.uleb128 0x3a
 2796 0155 0B       		.uleb128 0xb
 2797 0156 3B       		.uleb128 0x3b
 2798 0157 05       		.uleb128 0x5
 2799 0158 39       		.uleb128 0x39
 2800 0159 0B       		.uleb128 0xb
 2801 015a 01       		.uleb128 0x1
 2802 015b 13       		.uleb128 0x13
 2803 015c 00       		.byte	0
 2804 015d 00       		.byte	0
 2805 015e 1B       		.uleb128 0x1b
 2806 015f 17       		.uleb128 0x17
 2807 0160 01       		.byte	0x1
 2808 0161 0B       		.uleb128 0xb
 2809 0162 0B       		.uleb128 0xb
 2810 0163 3A       		.uleb128 0x3a
 2811 0164 0B       		.uleb128 0xb
 2812 0165 3B       		.uleb128 0x3b
 2813 0166 05       		.uleb128 0x5
 2814 0167 39       		.uleb128 0x39
 2815 0168 0B       		.uleb128 0xb
 2816 0169 01       		.uleb128 0x1
 2817 016a 13       		.uleb128 0x13
 2818 016b 00       		.byte	0
 2819 016c 00       		.byte	0
 2820 016d 1C       		.uleb128 0x1c
 2821 016e 0D       		.uleb128 0xd
 2822 016f 00       		.byte	0
 2823 0170 03       		.uleb128 0x3
 2824 0171 0E       		.uleb128 0xe
 2825 0172 3A       		.uleb128 0x3a
 2826 0173 0B       		.uleb128 0xb
 2827 0174 3B       		.uleb128 0x3b
 2828 0175 05       		.uleb128 0x5
 2829 0176 39       		.uleb128 0x39
 2830 0177 0B       		.uleb128 0xb
 2831 0178 49       		.uleb128 0x49
 2832 0179 13       		.uleb128 0x13
 2833 017a 00       		.byte	0
 2834 017b 00       		.byte	0
 2835 017c 1D       		.uleb128 0x1d
 2836 017d 13       		.uleb128 0x13
 2837 017e 00       		.byte	0
 2838 017f 03       		.uleb128 0x3
 2839 0180 0E       		.uleb128 0xe
 2840 0181 3C       		.uleb128 0x3c
 2841 0182 19       		.uleb128 0x19
 2842 0183 00       		.byte	0
 2843 0184 00       		.byte	0
 2844 0185 1E       		.uleb128 0x1e
 2845 0186 15       		.uleb128 0x15
 2846 0187 01       		.byte	0x1
 2847 0188 27       		.uleb128 0x27
 2848 0189 19       		.uleb128 0x19
 2849 018a 01       		.uleb128 0x1
 2850 018b 13       		.uleb128 0x13
ARM GAS  /tmp/ccsMrpMe.s 			page 51


 2851 018c 00       		.byte	0
 2852 018d 00       		.byte	0
 2853 018e 1F       		.uleb128 0x1f
 2854 018f 34       		.uleb128 0x34
 2855 0190 00       		.byte	0
 2856 0191 03       		.uleb128 0x3
 2857 0192 0E       		.uleb128 0xe
 2858 0193 3A       		.uleb128 0x3a
 2859 0194 0B       		.uleb128 0xb
 2860 0195 3B       		.uleb128 0x3b
 2861 0196 05       		.uleb128 0x5
 2862 0197 39       		.uleb128 0x39
 2863 0198 0B       		.uleb128 0xb
 2864 0199 49       		.uleb128 0x49
 2865 019a 13       		.uleb128 0x13
 2866 019b 3F       		.uleb128 0x3f
 2867 019c 19       		.uleb128 0x19
 2868 019d 3C       		.uleb128 0x3c
 2869 019e 19       		.uleb128 0x19
 2870 019f 00       		.byte	0
 2871 01a0 00       		.byte	0
 2872 01a1 20       		.uleb128 0x20
 2873 01a2 26       		.uleb128 0x26
 2874 01a3 00       		.byte	0
 2875 01a4 00       		.byte	0
 2876 01a5 00       		.byte	0
 2877 01a6 21       		.uleb128 0x21
 2878 01a7 34       		.uleb128 0x34
 2879 01a8 00       		.byte	0
 2880 01a9 03       		.uleb128 0x3
 2881 01aa 0E       		.uleb128 0xe
 2882 01ab 3A       		.uleb128 0x3a
 2883 01ac 0B       		.uleb128 0xb
 2884 01ad 3B       		.uleb128 0x3b
 2885 01ae 0B       		.uleb128 0xb
 2886 01af 39       		.uleb128 0x39
 2887 01b0 0B       		.uleb128 0xb
 2888 01b1 49       		.uleb128 0x49
 2889 01b2 13       		.uleb128 0x13
 2890 01b3 3F       		.uleb128 0x3f
 2891 01b4 19       		.uleb128 0x19
 2892 01b5 3C       		.uleb128 0x3c
 2893 01b6 19       		.uleb128 0x19
 2894 01b7 00       		.byte	0
 2895 01b8 00       		.byte	0
 2896 01b9 22       		.uleb128 0x22
 2897 01ba 2E       		.uleb128 0x2e
 2898 01bb 01       		.byte	0x1
 2899 01bc 3F       		.uleb128 0x3f
 2900 01bd 19       		.uleb128 0x19
 2901 01be 03       		.uleb128 0x3
 2902 01bf 0E       		.uleb128 0xe
 2903 01c0 3A       		.uleb128 0x3a
 2904 01c1 0B       		.uleb128 0xb
 2905 01c2 3B       		.uleb128 0x3b
 2906 01c3 0B       		.uleb128 0xb
 2907 01c4 39       		.uleb128 0x39
ARM GAS  /tmp/ccsMrpMe.s 			page 52


 2908 01c5 0B       		.uleb128 0xb
 2909 01c6 27       		.uleb128 0x27
 2910 01c7 19       		.uleb128 0x19
 2911 01c8 49       		.uleb128 0x49
 2912 01c9 13       		.uleb128 0x13
 2913 01ca 11       		.uleb128 0x11
 2914 01cb 01       		.uleb128 0x1
 2915 01cc 12       		.uleb128 0x12
 2916 01cd 06       		.uleb128 0x6
 2917 01ce 40       		.uleb128 0x40
 2918 01cf 18       		.uleb128 0x18
 2919 01d0 9742     		.uleb128 0x2117
 2920 01d2 19       		.uleb128 0x19
 2921 01d3 01       		.uleb128 0x1
 2922 01d4 13       		.uleb128 0x13
 2923 01d5 00       		.byte	0
 2924 01d6 00       		.byte	0
 2925 01d7 23       		.uleb128 0x23
 2926 01d8 05       		.uleb128 0x5
 2927 01d9 00       		.byte	0
 2928 01da 03       		.uleb128 0x3
 2929 01db 08       		.uleb128 0x8
 2930 01dc 3A       		.uleb128 0x3a
 2931 01dd 0B       		.uleb128 0xb
 2932 01de 3B       		.uleb128 0x3b
 2933 01df 0B       		.uleb128 0xb
 2934 01e0 39       		.uleb128 0x39
 2935 01e1 0B       		.uleb128 0xb
 2936 01e2 49       		.uleb128 0x49
 2937 01e3 13       		.uleb128 0x13
 2938 01e4 02       		.uleb128 0x2
 2939 01e5 17       		.uleb128 0x17
 2940 01e6 B742     		.uleb128 0x2137
 2941 01e8 17       		.uleb128 0x17
 2942 01e9 00       		.byte	0
 2943 01ea 00       		.byte	0
 2944 01eb 24       		.uleb128 0x24
 2945 01ec 898201   		.uleb128 0x4109
 2946 01ef 00       		.byte	0
 2947 01f0 11       		.uleb128 0x11
 2948 01f1 01       		.uleb128 0x1
 2949 01f2 31       		.uleb128 0x31
 2950 01f3 13       		.uleb128 0x13
 2951 01f4 00       		.byte	0
 2952 01f5 00       		.byte	0
 2953 01f6 25       		.uleb128 0x25
 2954 01f7 2E       		.uleb128 0x2e
 2955 01f8 01       		.byte	0x1
 2956 01f9 3F       		.uleb128 0x3f
 2957 01fa 19       		.uleb128 0x19
 2958 01fb 03       		.uleb128 0x3
 2959 01fc 0E       		.uleb128 0xe
 2960 01fd 3A       		.uleb128 0x3a
 2961 01fe 0B       		.uleb128 0xb
 2962 01ff 3B       		.uleb128 0x3b
 2963 0200 0B       		.uleb128 0xb
 2964 0201 39       		.uleb128 0x39
ARM GAS  /tmp/ccsMrpMe.s 			page 53


 2965 0202 0B       		.uleb128 0xb
 2966 0203 27       		.uleb128 0x27
 2967 0204 19       		.uleb128 0x19
 2968 0205 11       		.uleb128 0x11
 2969 0206 01       		.uleb128 0x1
 2970 0207 12       		.uleb128 0x12
 2971 0208 06       		.uleb128 0x6
 2972 0209 40       		.uleb128 0x40
 2973 020a 18       		.uleb128 0x18
 2974 020b 9742     		.uleb128 0x2117
 2975 020d 19       		.uleb128 0x19
 2976 020e 01       		.uleb128 0x1
 2977 020f 13       		.uleb128 0x13
 2978 0210 00       		.byte	0
 2979 0211 00       		.byte	0
 2980 0212 26       		.uleb128 0x26
 2981 0213 05       		.uleb128 0x5
 2982 0214 00       		.byte	0
 2983 0215 03       		.uleb128 0x3
 2984 0216 0E       		.uleb128 0xe
 2985 0217 3A       		.uleb128 0x3a
 2986 0218 0B       		.uleb128 0xb
 2987 0219 3B       		.uleb128 0x3b
 2988 021a 0B       		.uleb128 0xb
 2989 021b 39       		.uleb128 0x39
 2990 021c 0B       		.uleb128 0xb
 2991 021d 49       		.uleb128 0x49
 2992 021e 13       		.uleb128 0x13
 2993 021f 02       		.uleb128 0x2
 2994 0220 17       		.uleb128 0x17
 2995 0221 B742     		.uleb128 0x2137
 2996 0223 17       		.uleb128 0x17
 2997 0224 00       		.byte	0
 2998 0225 00       		.byte	0
 2999 0226 27       		.uleb128 0x27
 3000 0227 898201   		.uleb128 0x4109
 3001 022a 01       		.byte	0x1
 3002 022b 11       		.uleb128 0x11
 3003 022c 01       		.uleb128 0x1
 3004 022d 9542     		.uleb128 0x2115
 3005 022f 19       		.uleb128 0x19
 3006 0230 31       		.uleb128 0x31
 3007 0231 13       		.uleb128 0x13
 3008 0232 01       		.uleb128 0x1
 3009 0233 13       		.uleb128 0x13
 3010 0234 00       		.byte	0
 3011 0235 00       		.byte	0
 3012 0236 28       		.uleb128 0x28
 3013 0237 8A8201   		.uleb128 0x410a
 3014 023a 00       		.byte	0
 3015 023b 02       		.uleb128 0x2
 3016 023c 18       		.uleb128 0x18
 3017 023d 9142     		.uleb128 0x2111
 3018 023f 18       		.uleb128 0x18
 3019 0240 00       		.byte	0
 3020 0241 00       		.byte	0
 3021 0242 29       		.uleb128 0x29
ARM GAS  /tmp/ccsMrpMe.s 			page 54


 3022 0243 2E       		.uleb128 0x2e
 3023 0244 01       		.byte	0x1
 3024 0245 03       		.uleb128 0x3
 3025 0246 0E       		.uleb128 0xe
 3026 0247 3A       		.uleb128 0x3a
 3027 0248 0B       		.uleb128 0xb
 3028 0249 3B       		.uleb128 0x3b
 3029 024a 0B       		.uleb128 0xb
 3030 024b 39       		.uleb128 0x39
 3031 024c 0B       		.uleb128 0xb
 3032 024d 27       		.uleb128 0x27
 3033 024e 19       		.uleb128 0x19
 3034 024f 49       		.uleb128 0x49
 3035 0250 13       		.uleb128 0x13
 3036 0251 11       		.uleb128 0x11
 3037 0252 01       		.uleb128 0x1
 3038 0253 12       		.uleb128 0x12
 3039 0254 06       		.uleb128 0x6
 3040 0255 40       		.uleb128 0x40
 3041 0256 18       		.uleb128 0x18
 3042 0257 9742     		.uleb128 0x2117
 3043 0259 19       		.uleb128 0x19
 3044 025a 01       		.uleb128 0x1
 3045 025b 13       		.uleb128 0x13
 3046 025c 00       		.byte	0
 3047 025d 00       		.byte	0
 3048 025e 2A       		.uleb128 0x2a
 3049 025f 34       		.uleb128 0x34
 3050 0260 00       		.byte	0
 3051 0261 03       		.uleb128 0x3
 3052 0262 08       		.uleb128 0x8
 3053 0263 3A       		.uleb128 0x3a
 3054 0264 0B       		.uleb128 0xb
 3055 0265 3B       		.uleb128 0x3b
 3056 0266 0B       		.uleb128 0xb
 3057 0267 39       		.uleb128 0x39
 3058 0268 0B       		.uleb128 0xb
 3059 0269 49       		.uleb128 0x49
 3060 026a 13       		.uleb128 0x13
 3061 026b 02       		.uleb128 0x2
 3062 026c 17       		.uleb128 0x17
 3063 026d B742     		.uleb128 0x2137
 3064 026f 17       		.uleb128 0x17
 3065 0270 00       		.byte	0
 3066 0271 00       		.byte	0
 3067 0272 2B       		.uleb128 0x2b
 3068 0273 898201   		.uleb128 0x4109
 3069 0276 01       		.byte	0x1
 3070 0277 11       		.uleb128 0x11
 3071 0278 01       		.uleb128 0x1
 3072 0279 31       		.uleb128 0x31
 3073 027a 13       		.uleb128 0x13
 3074 027b 01       		.uleb128 0x1
 3075 027c 13       		.uleb128 0x13
 3076 027d 00       		.byte	0
 3077 027e 00       		.byte	0
 3078 027f 2C       		.uleb128 0x2c
ARM GAS  /tmp/ccsMrpMe.s 			page 55


 3079 0280 2E       		.uleb128 0x2e
 3080 0281 00       		.byte	0
 3081 0282 3F       		.uleb128 0x3f
 3082 0283 19       		.uleb128 0x19
 3083 0284 3C       		.uleb128 0x3c
 3084 0285 19       		.uleb128 0x19
 3085 0286 6E       		.uleb128 0x6e
 3086 0287 0E       		.uleb128 0xe
 3087 0288 03       		.uleb128 0x3
 3088 0289 0E       		.uleb128 0xe
 3089 028a 00       		.byte	0
 3090 028b 00       		.byte	0
 3091 028c 2D       		.uleb128 0x2d
 3092 028d 2E       		.uleb128 0x2e
 3093 028e 00       		.byte	0
 3094 028f 3F       		.uleb128 0x3f
 3095 0290 19       		.uleb128 0x19
 3096 0291 3C       		.uleb128 0x3c
 3097 0292 19       		.uleb128 0x19
 3098 0293 6E       		.uleb128 0x6e
 3099 0294 0E       		.uleb128 0xe
 3100 0295 03       		.uleb128 0x3
 3101 0296 0E       		.uleb128 0xe
 3102 0297 3A       		.uleb128 0x3a
 3103 0298 0B       		.uleb128 0xb
 3104 0299 3B       		.uleb128 0x3b
 3105 029a 0B       		.uleb128 0xb
 3106 029b 39       		.uleb128 0x39
 3107 029c 0B       		.uleb128 0xb
 3108 029d 00       		.byte	0
 3109 029e 00       		.byte	0
 3110 029f 2E       		.uleb128 0x2e
 3111 02a0 2E       		.uleb128 0x2e
 3112 02a1 00       		.byte	0
 3113 02a2 3F       		.uleb128 0x3f
 3114 02a3 19       		.uleb128 0x19
 3115 02a4 3C       		.uleb128 0x3c
 3116 02a5 19       		.uleb128 0x19
 3117 02a6 6E       		.uleb128 0x6e
 3118 02a7 0E       		.uleb128 0xe
 3119 02a8 03       		.uleb128 0x3
 3120 02a9 0E       		.uleb128 0xe
 3121 02aa 3A       		.uleb128 0x3a
 3122 02ab 0B       		.uleb128 0xb
 3123 02ac 3B       		.uleb128 0x3b
 3124 02ad 0B       		.uleb128 0xb
 3125 02ae 00       		.byte	0
 3126 02af 00       		.byte	0
 3127 02b0 00       		.byte	0
 3128              		.section	.debug_loc,"",%progbits
 3129              	.Ldebug_loc0:
 3130              	.LVUS24:
 3131 0000 00       		.uleb128 0
 3132 0001 00       		.uleb128 .LVU109
 3133 0002 00       		.uleb128 .LVU109
 3134 0003 00       		.uleb128 0
 3135              	.LLST24:
ARM GAS  /tmp/ccsMrpMe.s 			page 56


 3136 0004 00000000 		.4byte	.LVL40
 3137 0008 06000000 		.4byte	.LVL41
 3138 000c 0100     		.2byte	0x1
 3139 000e 50       		.byte	0x50
 3140 000f 06000000 		.4byte	.LVL41
 3141 0013 30000000 		.4byte	.LFE8
 3142 0017 0400     		.2byte	0x4
 3143 0019 F3       		.byte	0xf3
 3144 001a 01       		.uleb128 0x1
 3145 001b 50       		.byte	0x50
 3146 001c 9F       		.byte	0x9f
 3147 001d 00000000 		.4byte	0
 3148 0021 00000000 		.4byte	0
 3149              	.LVUS25:
 3150 0025 00       		.uleb128 0
 3151 0026 00       		.uleb128 .LVU113
 3152 0027 00       		.uleb128 .LVU113
 3153 0028 00       		.uleb128 0
 3154              	.LLST25:
 3155 0029 00000000 		.4byte	.LVL40
 3156 002d 2B000000 		.4byte	.LVL42-1
 3157 0031 0100     		.2byte	0x1
 3158 0033 51       		.byte	0x51
 3159 0034 2B000000 		.4byte	.LVL42-1
 3160 0038 30000000 		.4byte	.LFE8
 3161 003c 0400     		.2byte	0x4
 3162 003e F3       		.byte	0xf3
 3163 003f 01       		.uleb128 0x1
 3164 0040 51       		.byte	0x51
 3165 0041 9F       		.byte	0x9f
 3166 0042 00000000 		.4byte	0
 3167 0046 00000000 		.4byte	0
 3168              	.LVUS22:
 3169 004a 00       		.uleb128 0
 3170 004b 00       		.uleb128 .LVU99
 3171 004c 00       		.uleb128 .LVU99
 3172 004d 00       		.uleb128 0
 3173              	.LLST22:
 3174 004e 00000000 		.4byte	.LVL37
 3175 0052 06000000 		.4byte	.LVL38
 3176 0056 0100     		.2byte	0x1
 3177 0058 50       		.byte	0x50
 3178 0059 06000000 		.4byte	.LVL38
 3179 005d 2C000000 		.4byte	.LFE7
 3180 0061 0400     		.2byte	0x4
 3181 0063 F3       		.byte	0xf3
 3182 0064 01       		.uleb128 0x1
 3183 0065 50       		.byte	0x50
 3184 0066 9F       		.byte	0x9f
 3185 0067 00000000 		.4byte	0
 3186 006b 00000000 		.4byte	0
 3187              	.LVUS23:
 3188 006f 00       		.uleb128 0
 3189 0070 00       		.uleb128 .LVU105
 3190 0071 00       		.uleb128 .LVU105
 3191 0072 00       		.uleb128 0
 3192              	.LLST23:
ARM GAS  /tmp/ccsMrpMe.s 			page 57


 3193 0073 00000000 		.4byte	.LVL37
 3194 0077 25000000 		.4byte	.LVL39-1
 3195 007b 0100     		.2byte	0x1
 3196 007d 51       		.byte	0x51
 3197 007e 25000000 		.4byte	.LVL39-1
 3198 0082 2C000000 		.4byte	.LFE7
 3199 0086 0400     		.2byte	0x4
 3200 0088 F3       		.byte	0xf3
 3201 0089 01       		.uleb128 0x1
 3202 008a 51       		.byte	0x51
 3203 008b 9F       		.byte	0x9f
 3204 008c 00000000 		.4byte	0
 3205 0090 00000000 		.4byte	0
 3206              	.LVUS20:
 3207 0094 00       		.uleb128 0
 3208 0095 00       		.uleb128 .LVU95
 3209 0096 00       		.uleb128 .LVU95
 3210 0097 00       		.uleb128 0
 3211              	.LLST20:
 3212 0098 00000000 		.4byte	.LVL35
 3213 009c 23000000 		.4byte	.LVL36-1
 3214 00a0 0100     		.2byte	0x1
 3215 00a2 50       		.byte	0x50
 3216 00a3 23000000 		.4byte	.LVL36-1
 3217 00a7 28000000 		.4byte	.LFE6
 3218 00ab 0400     		.2byte	0x4
 3219 00ad F3       		.byte	0xf3
 3220 00ae 01       		.uleb128 0x1
 3221 00af 50       		.byte	0x50
 3222 00b0 9F       		.byte	0x9f
 3223 00b1 00000000 		.4byte	0
 3224 00b5 00000000 		.4byte	0
 3225              	.LVUS21:
 3226 00b9 00       		.uleb128 0
 3227 00ba 00       		.uleb128 .LVU95
 3228 00bb 00       		.uleb128 .LVU95
 3229 00bc 00       		.uleb128 0
 3230              	.LLST21:
 3231 00bd 00000000 		.4byte	.LVL35
 3232 00c1 23000000 		.4byte	.LVL36-1
 3233 00c5 0100     		.2byte	0x1
 3234 00c7 51       		.byte	0x51
 3235 00c8 23000000 		.4byte	.LVL36-1
 3236 00cc 28000000 		.4byte	.LFE6
 3237 00d0 0400     		.2byte	0x4
 3238 00d2 F3       		.byte	0xf3
 3239 00d3 01       		.uleb128 0x1
 3240 00d4 51       		.byte	0x51
 3241 00d5 9F       		.byte	0x9f
 3242 00d6 00000000 		.4byte	0
 3243 00da 00000000 		.4byte	0
 3244              	.LVUS19:
 3245 00de 00       		.uleb128 0
 3246 00df 00       		.uleb128 .LVU84
 3247 00e0 00       		.uleb128 .LVU84
 3248 00e1 00       		.uleb128 0
 3249              	.LLST19:
ARM GAS  /tmp/ccsMrpMe.s 			page 58


 3250 00e2 00000000 		.4byte	.LVL32
 3251 00e6 06000000 		.4byte	.LVL33
 3252 00ea 0100     		.2byte	0x1
 3253 00ec 50       		.byte	0x50
 3254 00ed 06000000 		.4byte	.LVL33
 3255 00f1 28000000 		.4byte	.LFE5
 3256 00f5 0400     		.2byte	0x4
 3257 00f7 F3       		.byte	0xf3
 3258 00f8 01       		.uleb128 0x1
 3259 00f9 50       		.byte	0x50
 3260 00fa 9F       		.byte	0x9f
 3261 00fb 00000000 		.4byte	0
 3262 00ff 00000000 		.4byte	0
 3263              	.LVUS15:
 3264 0103 00       		.uleb128 0
 3265 0104 00       		.uleb128 .LVU79
 3266 0105 00       		.uleb128 .LVU79
 3267 0106 00       		.uleb128 .LVU79
 3268 0107 00       		.uleb128 .LVU79
 3269 0108 00       		.uleb128 .LVU80
 3270 0109 00       		.uleb128 .LVU80
 3271 010a 00       		.uleb128 0
 3272              	.LLST15:
 3273 010b 00000000 		.4byte	.LVL27
 3274 010f 33000000 		.4byte	.LVL30-1
 3275 0113 0100     		.2byte	0x1
 3276 0115 50       		.byte	0x50
 3277 0116 33000000 		.4byte	.LVL30-1
 3278 011a 34000000 		.4byte	.LVL30
 3279 011e 0400     		.2byte	0x4
 3280 0120 F3       		.byte	0xf3
 3281 0121 01       		.uleb128 0x1
 3282 0122 50       		.byte	0x50
 3283 0123 9F       		.byte	0x9f
 3284 0124 34000000 		.4byte	.LVL30
 3285 0128 37000000 		.4byte	.LVL31-1
 3286 012c 0100     		.2byte	0x1
 3287 012e 50       		.byte	0x50
 3288 012f 37000000 		.4byte	.LVL31-1
 3289 0133 44000000 		.4byte	.LFE4
 3290 0137 0400     		.2byte	0x4
 3291 0139 F3       		.byte	0xf3
 3292 013a 01       		.uleb128 0x1
 3293 013b 50       		.byte	0x50
 3294 013c 9F       		.byte	0x9f
 3295 013d 00000000 		.4byte	0
 3296 0141 00000000 		.4byte	0
 3297              	.LVUS16:
 3298 0145 00       		.uleb128 0
 3299 0146 00       		.uleb128 .LVU79
 3300 0147 00       		.uleb128 .LVU79
 3301 0148 00       		.uleb128 .LVU79
 3302 0149 00       		.uleb128 .LVU79
 3303 014a 00       		.uleb128 .LVU80
 3304 014b 00       		.uleb128 .LVU80
 3305 014c 00       		.uleb128 0
 3306              	.LLST16:
ARM GAS  /tmp/ccsMrpMe.s 			page 59


 3307 014d 00000000 		.4byte	.LVL27
 3308 0151 33000000 		.4byte	.LVL30-1
 3309 0155 0100     		.2byte	0x1
 3310 0157 51       		.byte	0x51
 3311 0158 33000000 		.4byte	.LVL30-1
 3312 015c 34000000 		.4byte	.LVL30
 3313 0160 0400     		.2byte	0x4
 3314 0162 F3       		.byte	0xf3
 3315 0163 01       		.uleb128 0x1
 3316 0164 51       		.byte	0x51
 3317 0165 9F       		.byte	0x9f
 3318 0166 34000000 		.4byte	.LVL30
 3319 016a 37000000 		.4byte	.LVL31-1
 3320 016e 0100     		.2byte	0x1
 3321 0170 51       		.byte	0x51
 3322 0171 37000000 		.4byte	.LVL31-1
 3323 0175 44000000 		.4byte	.LFE4
 3324 0179 0400     		.2byte	0x4
 3325 017b F3       		.byte	0xf3
 3326 017c 01       		.uleb128 0x1
 3327 017d 51       		.byte	0x51
 3328 017e 9F       		.byte	0x9f
 3329 017f 00000000 		.4byte	0
 3330 0183 00000000 		.4byte	0
 3331              	.LVUS17:
 3332 0187 00       		.uleb128 0
 3333 0188 00       		.uleb128 .LVU74
 3334 0189 00       		.uleb128 .LVU74
 3335 018a 00       		.uleb128 .LVU79
 3336 018b 00       		.uleb128 .LVU79
 3337 018c 00       		.uleb128 .LVU79
 3338 018d 00       		.uleb128 .LVU79
 3339 018e 00       		.uleb128 .LVU80
 3340 018f 00       		.uleb128 .LVU80
 3341 0190 00       		.uleb128 0
 3342              	.LLST17:
 3343 0191 00000000 		.4byte	.LVL27
 3344 0195 18000000 		.4byte	.LVL28
 3345 0199 0100     		.2byte	0x1
 3346 019b 52       		.byte	0x52
 3347 019c 18000000 		.4byte	.LVL28
 3348 01a0 33000000 		.4byte	.LVL30-1
 3349 01a4 0200     		.2byte	0x2
 3350 01a6 71       		.byte	0x71
 3351 01a7 00       		.sleb128 0
 3352 01a8 33000000 		.4byte	.LVL30-1
 3353 01ac 34000000 		.4byte	.LVL30
 3354 01b0 0400     		.2byte	0x4
 3355 01b2 F3       		.byte	0xf3
 3356 01b3 01       		.uleb128 0x1
 3357 01b4 52       		.byte	0x52
 3358 01b5 9F       		.byte	0x9f
 3359 01b6 34000000 		.4byte	.LVL30
 3360 01ba 37000000 		.4byte	.LVL31-1
 3361 01be 0200     		.2byte	0x2
 3362 01c0 71       		.byte	0x71
 3363 01c1 00       		.sleb128 0
ARM GAS  /tmp/ccsMrpMe.s 			page 60


 3364 01c2 37000000 		.4byte	.LVL31-1
 3365 01c6 44000000 		.4byte	.LFE4
 3366 01ca 0400     		.2byte	0x4
 3367 01cc F3       		.byte	0xf3
 3368 01cd 01       		.uleb128 0x1
 3369 01ce 52       		.byte	0x52
 3370 01cf 9F       		.byte	0x9f
 3371 01d0 00000000 		.4byte	0
 3372 01d4 00000000 		.4byte	0
 3373              	.LVUS18:
 3374 01d8 00       		.uleb128 0
 3375 01d9 00       		.uleb128 .LVU76
 3376 01da 00       		.uleb128 .LVU76
 3377 01db 00       		.uleb128 .LVU79
 3378 01dc 00       		.uleb128 .LVU79
 3379 01dd 00       		.uleb128 .LVU79
 3380 01de 00       		.uleb128 .LVU79
 3381 01df 00       		.uleb128 .LVU80
 3382 01e0 00       		.uleb128 .LVU80
 3383 01e1 00       		.uleb128 0
 3384              	.LLST18:
 3385 01e2 00000000 		.4byte	.LVL27
 3386 01e6 1E000000 		.4byte	.LVL29
 3387 01ea 0100     		.2byte	0x1
 3388 01ec 53       		.byte	0x53
 3389 01ed 1E000000 		.4byte	.LVL29
 3390 01f1 33000000 		.4byte	.LVL30-1
 3391 01f5 0200     		.2byte	0x2
 3392 01f7 71       		.byte	0x71
 3393 01f8 08       		.sleb128 8
 3394 01f9 33000000 		.4byte	.LVL30-1
 3395 01fd 34000000 		.4byte	.LVL30
 3396 0201 0400     		.2byte	0x4
 3397 0203 F3       		.byte	0xf3
 3398 0204 01       		.uleb128 0x1
 3399 0205 53       		.byte	0x53
 3400 0206 9F       		.byte	0x9f
 3401 0207 34000000 		.4byte	.LVL30
 3402 020b 37000000 		.4byte	.LVL31-1
 3403 020f 0200     		.2byte	0x2
 3404 0211 71       		.byte	0x71
 3405 0212 08       		.sleb128 8
 3406 0213 37000000 		.4byte	.LVL31-1
 3407 0217 44000000 		.4byte	.LFE4
 3408 021b 0400     		.2byte	0x4
 3409 021d F3       		.byte	0xf3
 3410 021e 01       		.uleb128 0x1
 3411 021f 53       		.byte	0x53
 3412 0220 9F       		.byte	0x9f
 3413 0221 00000000 		.4byte	0
 3414 0225 00000000 		.4byte	0
 3415              	.LVUS11:
 3416 0229 00       		.uleb128 0
 3417 022a 00       		.uleb128 .LVU65
 3418 022b 00       		.uleb128 .LVU65
 3419 022c 00       		.uleb128 .LVU65
 3420 022d 00       		.uleb128 .LVU65
ARM GAS  /tmp/ccsMrpMe.s 			page 61


 3421 022e 00       		.uleb128 .LVU66
 3422 022f 00       		.uleb128 .LVU66
 3423 0230 00       		.uleb128 0
 3424              	.LLST11:
 3425 0231 00000000 		.4byte	.LVL22
 3426 0235 33000000 		.4byte	.LVL25-1
 3427 0239 0100     		.2byte	0x1
 3428 023b 50       		.byte	0x50
 3429 023c 33000000 		.4byte	.LVL25-1
 3430 0240 34000000 		.4byte	.LVL25
 3431 0244 0400     		.2byte	0x4
 3432 0246 F3       		.byte	0xf3
 3433 0247 01       		.uleb128 0x1
 3434 0248 50       		.byte	0x50
 3435 0249 9F       		.byte	0x9f
 3436 024a 34000000 		.4byte	.LVL25
 3437 024e 37000000 		.4byte	.LVL26-1
 3438 0252 0100     		.2byte	0x1
 3439 0254 50       		.byte	0x50
 3440 0255 37000000 		.4byte	.LVL26-1
 3441 0259 44000000 		.4byte	.LFE3
 3442 025d 0400     		.2byte	0x4
 3443 025f F3       		.byte	0xf3
 3444 0260 01       		.uleb128 0x1
 3445 0261 50       		.byte	0x50
 3446 0262 9F       		.byte	0x9f
 3447 0263 00000000 		.4byte	0
 3448 0267 00000000 		.4byte	0
 3449              	.LVUS12:
 3450 026b 00       		.uleb128 0
 3451 026c 00       		.uleb128 .LVU65
 3452 026d 00       		.uleb128 .LVU65
 3453 026e 00       		.uleb128 .LVU65
 3454 026f 00       		.uleb128 .LVU65
 3455 0270 00       		.uleb128 .LVU66
 3456 0271 00       		.uleb128 .LVU66
 3457 0272 00       		.uleb128 0
 3458              	.LLST12:
 3459 0273 00000000 		.4byte	.LVL22
 3460 0277 33000000 		.4byte	.LVL25-1
 3461 027b 0100     		.2byte	0x1
 3462 027d 51       		.byte	0x51
 3463 027e 33000000 		.4byte	.LVL25-1
 3464 0282 34000000 		.4byte	.LVL25
 3465 0286 0400     		.2byte	0x4
 3466 0288 F3       		.byte	0xf3
 3467 0289 01       		.uleb128 0x1
 3468 028a 51       		.byte	0x51
 3469 028b 9F       		.byte	0x9f
 3470 028c 34000000 		.4byte	.LVL25
 3471 0290 37000000 		.4byte	.LVL26-1
 3472 0294 0100     		.2byte	0x1
 3473 0296 51       		.byte	0x51
 3474 0297 37000000 		.4byte	.LVL26-1
 3475 029b 44000000 		.4byte	.LFE3
 3476 029f 0400     		.2byte	0x4
 3477 02a1 F3       		.byte	0xf3
ARM GAS  /tmp/ccsMrpMe.s 			page 62


 3478 02a2 01       		.uleb128 0x1
 3479 02a3 51       		.byte	0x51
 3480 02a4 9F       		.byte	0x9f
 3481 02a5 00000000 		.4byte	0
 3482 02a9 00000000 		.4byte	0
 3483              	.LVUS13:
 3484 02ad 00       		.uleb128 0
 3485 02ae 00       		.uleb128 .LVU60
 3486 02af 00       		.uleb128 .LVU60
 3487 02b0 00       		.uleb128 .LVU65
 3488 02b1 00       		.uleb128 .LVU65
 3489 02b2 00       		.uleb128 .LVU65
 3490 02b3 00       		.uleb128 .LVU65
 3491 02b4 00       		.uleb128 .LVU66
 3492 02b5 00       		.uleb128 .LVU66
 3493 02b6 00       		.uleb128 0
 3494              	.LLST13:
 3495 02b7 00000000 		.4byte	.LVL22
 3496 02bb 18000000 		.4byte	.LVL23
 3497 02bf 0100     		.2byte	0x1
 3498 02c1 52       		.byte	0x52
 3499 02c2 18000000 		.4byte	.LVL23
 3500 02c6 33000000 		.4byte	.LVL25-1
 3501 02ca 0200     		.2byte	0x2
 3502 02cc 71       		.byte	0x71
 3503 02cd 00       		.sleb128 0
 3504 02ce 33000000 		.4byte	.LVL25-1
 3505 02d2 34000000 		.4byte	.LVL25
 3506 02d6 0400     		.2byte	0x4
 3507 02d8 F3       		.byte	0xf3
 3508 02d9 01       		.uleb128 0x1
 3509 02da 52       		.byte	0x52
 3510 02db 9F       		.byte	0x9f
 3511 02dc 34000000 		.4byte	.LVL25
 3512 02e0 37000000 		.4byte	.LVL26-1
 3513 02e4 0200     		.2byte	0x2
 3514 02e6 71       		.byte	0x71
 3515 02e7 00       		.sleb128 0
 3516 02e8 37000000 		.4byte	.LVL26-1
 3517 02ec 44000000 		.4byte	.LFE3
 3518 02f0 0400     		.2byte	0x4
 3519 02f2 F3       		.byte	0xf3
 3520 02f3 01       		.uleb128 0x1
 3521 02f4 52       		.byte	0x52
 3522 02f5 9F       		.byte	0x9f
 3523 02f6 00000000 		.4byte	0
 3524 02fa 00000000 		.4byte	0
 3525              	.LVUS14:
 3526 02fe 00       		.uleb128 0
 3527 02ff 00       		.uleb128 .LVU62
 3528 0300 00       		.uleb128 .LVU62
 3529 0301 00       		.uleb128 .LVU65
 3530 0302 00       		.uleb128 .LVU65
 3531 0303 00       		.uleb128 .LVU65
 3532 0304 00       		.uleb128 .LVU65
 3533 0305 00       		.uleb128 .LVU66
 3534 0306 00       		.uleb128 .LVU66
ARM GAS  /tmp/ccsMrpMe.s 			page 63


 3535 0307 00       		.uleb128 0
 3536              	.LLST14:
 3537 0308 00000000 		.4byte	.LVL22
 3538 030c 1E000000 		.4byte	.LVL24
 3539 0310 0100     		.2byte	0x1
 3540 0312 53       		.byte	0x53
 3541 0313 1E000000 		.4byte	.LVL24
 3542 0317 33000000 		.4byte	.LVL25-1
 3543 031b 0200     		.2byte	0x2
 3544 031d 71       		.byte	0x71
 3545 031e 08       		.sleb128 8
 3546 031f 33000000 		.4byte	.LVL25-1
 3547 0323 34000000 		.4byte	.LVL25
 3548 0327 0400     		.2byte	0x4
 3549 0329 F3       		.byte	0xf3
 3550 032a 01       		.uleb128 0x1
 3551 032b 53       		.byte	0x53
 3552 032c 9F       		.byte	0x9f
 3553 032d 34000000 		.4byte	.LVL25
 3554 0331 37000000 		.4byte	.LVL26-1
 3555 0335 0200     		.2byte	0x2
 3556 0337 71       		.byte	0x71
 3557 0338 08       		.sleb128 8
 3558 0339 37000000 		.4byte	.LVL26-1
 3559 033d 44000000 		.4byte	.LFE3
 3560 0341 0400     		.2byte	0x4
 3561 0343 F3       		.byte	0xf3
 3562 0344 01       		.uleb128 0x1
 3563 0345 53       		.byte	0x53
 3564 0346 9F       		.byte	0x9f
 3565 0347 00000000 		.4byte	0
 3566 034b 00000000 		.4byte	0
 3567              	.LVUS0:
 3568 034f 00       		.uleb128 0
 3569 0350 00       		.uleb128 .LVU9
 3570 0351 00       		.uleb128 .LVU9
 3571 0352 00       		.uleb128 .LVU10
 3572 0353 00       		.uleb128 .LVU10
 3573 0354 00       		.uleb128 .LVU11
 3574 0355 00       		.uleb128 .LVU11
 3575 0356 00       		.uleb128 0
 3576              	.LLST0:
 3577 0357 00000000 		.4byte	.LVL0
 3578 035b 1A000000 		.4byte	.LVL2
 3579 035f 0100     		.2byte	0x1
 3580 0361 50       		.byte	0x50
 3581 0362 1A000000 		.4byte	.LVL2
 3582 0366 20000000 		.4byte	.LVL3
 3583 036a 0400     		.2byte	0x4
 3584 036c F3       		.byte	0xf3
 3585 036d 01       		.uleb128 0x1
 3586 036e 50       		.byte	0x50
 3587 036f 9F       		.byte	0x9f
 3588 0370 20000000 		.4byte	.LVL3
 3589 0374 23000000 		.4byte	.LVL4-1
 3590 0378 0100     		.2byte	0x1
 3591 037a 50       		.byte	0x50
ARM GAS  /tmp/ccsMrpMe.s 			page 64


 3592 037b 23000000 		.4byte	.LVL4-1
 3593 037f 28000000 		.4byte	.LFE2
 3594 0383 0400     		.2byte	0x4
 3595 0385 F3       		.byte	0xf3
 3596 0386 01       		.uleb128 0x1
 3597 0387 50       		.byte	0x50
 3598 0388 9F       		.byte	0x9f
 3599 0389 00000000 		.4byte	0
 3600 038d 00000000 		.4byte	0
 3601              	.LVUS1:
 3602 0391 00       		.uleb128 0
 3603 0392 00       		.uleb128 .LVU11
 3604 0393 00       		.uleb128 .LVU11
 3605 0394 00       		.uleb128 0
 3606              	.LLST1:
 3607 0395 00000000 		.4byte	.LVL0
 3608 0399 23000000 		.4byte	.LVL4-1
 3609 039d 0100     		.2byte	0x1
 3610 039f 51       		.byte	0x51
 3611 03a0 23000000 		.4byte	.LVL4-1
 3612 03a4 28000000 		.4byte	.LFE2
 3613 03a8 0400     		.2byte	0x4
 3614 03aa F3       		.byte	0xf3
 3615 03ab 01       		.uleb128 0x1
 3616 03ac 51       		.byte	0x51
 3617 03ad 9F       		.byte	0x9f
 3618 03ae 00000000 		.4byte	0
 3619 03b2 00000000 		.4byte	0
 3620              	.LVUS2:
 3621 03b6 00       		.uleb128 0
 3622 03b7 00       		.uleb128 .LVU8
 3623 03b8 00       		.uleb128 .LVU8
 3624 03b9 00       		.uleb128 0
 3625              	.LLST2:
 3626 03ba 00000000 		.4byte	.LVL0
 3627 03be 16000000 		.4byte	.LVL1
 3628 03c2 0100     		.2byte	0x1
 3629 03c4 52       		.byte	0x52
 3630 03c5 16000000 		.4byte	.LVL1
 3631 03c9 28000000 		.4byte	.LFE2
 3632 03cd 0400     		.2byte	0x4
 3633 03cf F3       		.byte	0xf3
 3634 03d0 01       		.uleb128 0x1
 3635 03d1 52       		.byte	0x52
 3636 03d2 9F       		.byte	0x9f
 3637 03d3 00000000 		.4byte	0
 3638 03d7 00000000 		.4byte	0
 3639              	.LVUS3:
 3640 03db 00       		.uleb128 0
 3641 03dc 00       		.uleb128 .LVU20
 3642 03dd 00       		.uleb128 .LVU20
 3643 03de 00       		.uleb128 0
 3644              	.LLST3:
 3645 03df 00000000 		.4byte	.LVL5
 3646 03e3 14000000 		.4byte	.LVL7
 3647 03e7 0100     		.2byte	0x1
 3648 03e9 50       		.byte	0x50
ARM GAS  /tmp/ccsMrpMe.s 			page 65


 3649 03ea 14000000 		.4byte	.LVL7
 3650 03ee 48000000 		.4byte	.LFE1
 3651 03f2 0400     		.2byte	0x4
 3652 03f4 F3       		.byte	0xf3
 3653 03f5 01       		.uleb128 0x1
 3654 03f6 50       		.byte	0x50
 3655 03f7 9F       		.byte	0x9f
 3656 03f8 00000000 		.4byte	0
 3657 03fc 00000000 		.4byte	0
 3658              	.LVUS4:
 3659 0400 00       		.uleb128 0
 3660 0401 00       		.uleb128 .LVU23
 3661 0402 00       		.uleb128 .LVU23
 3662 0403 00       		.uleb128 .LVU24
 3663 0404 00       		.uleb128 .LVU24
 3664 0405 00       		.uleb128 .LVU27
 3665 0406 00       		.uleb128 .LVU27
 3666 0407 00       		.uleb128 0
 3667              	.LLST4:
 3668 0408 00000000 		.4byte	.LVL5
 3669 040c 1C000000 		.4byte	.LVL8
 3670 0410 0100     		.2byte	0x1
 3671 0412 51       		.byte	0x51
 3672 0413 1C000000 		.4byte	.LVL8
 3673 0417 2A000000 		.4byte	.LVL9
 3674 041b 0400     		.2byte	0x4
 3675 041d F3       		.byte	0xf3
 3676 041e 01       		.uleb128 0x1
 3677 041f 51       		.byte	0x51
 3678 0420 9F       		.byte	0x9f
 3679 0421 2A000000 		.4byte	.LVL9
 3680 0425 33000000 		.4byte	.LVL10-1
 3681 0429 0100     		.2byte	0x1
 3682 042b 51       		.byte	0x51
 3683 042c 33000000 		.4byte	.LVL10-1
 3684 0430 48000000 		.4byte	.LFE1
 3685 0434 0400     		.2byte	0x4
 3686 0436 F3       		.byte	0xf3
 3687 0437 01       		.uleb128 0x1
 3688 0438 51       		.byte	0x51
 3689 0439 9F       		.byte	0x9f
 3690 043a 00000000 		.4byte	0
 3691 043e 00000000 		.4byte	0
 3692              	.LVUS5:
 3693 0442 00       		.uleb128 0
 3694 0443 00       		.uleb128 .LVU23
 3695 0444 00       		.uleb128 .LVU23
 3696 0445 00       		.uleb128 .LVU24
 3697 0446 00       		.uleb128 .LVU24
 3698 0447 00       		.uleb128 .LVU27
 3699 0448 00       		.uleb128 .LVU27
 3700 0449 00       		.uleb128 .LVU31
 3701 044a 00       		.uleb128 .LVU31
 3702 044b 00       		.uleb128 0
 3703              	.LLST5:
 3704 044c 00000000 		.4byte	.LVL5
 3705 0450 1C000000 		.4byte	.LVL8
ARM GAS  /tmp/ccsMrpMe.s 			page 66


 3706 0454 0100     		.2byte	0x1
 3707 0456 52       		.byte	0x52
 3708 0457 1C000000 		.4byte	.LVL8
 3709 045b 2A000000 		.4byte	.LVL9
 3710 045f 0400     		.2byte	0x4
 3711 0461 F3       		.byte	0xf3
 3712 0462 01       		.uleb128 0x1
 3713 0463 52       		.byte	0x52
 3714 0464 9F       		.byte	0x9f
 3715 0465 2A000000 		.4byte	.LVL9
 3716 0469 33000000 		.4byte	.LVL10-1
 3717 046d 0100     		.2byte	0x1
 3718 046f 52       		.byte	0x52
 3719 0470 33000000 		.4byte	.LVL10-1
 3720 0474 3E000000 		.4byte	.LVL11
 3721 0478 0100     		.2byte	0x1
 3722 047a 54       		.byte	0x54
 3723 047b 3E000000 		.4byte	.LVL11
 3724 047f 48000000 		.4byte	.LFE1
 3725 0483 0400     		.2byte	0x4
 3726 0485 F3       		.byte	0xf3
 3727 0486 01       		.uleb128 0x1
 3728 0487 52       		.byte	0x52
 3729 0488 9F       		.byte	0x9f
 3730 0489 00000000 		.4byte	0
 3731 048d 00000000 		.4byte	0
 3732              	.LVUS6:
 3733 0491 01       		.uleb128 .LVU18
 3734 0492 00       		.uleb128 0
 3735              	.LLST6:
 3736 0493 10000000 		.4byte	.LVL6
 3737 0497 48000000 		.4byte	.LFE1
 3738 049b 0100     		.2byte	0x1
 3739 049d 55       		.byte	0x55
 3740 049e 00000000 		.4byte	0
 3741 04a2 00000000 		.4byte	0
 3742              	.LVUS7:
 3743 04a6 00       		.uleb128 0
 3744 04a7 00       		.uleb128 .LVU41
 3745 04a8 00       		.uleb128 .LVU41
 3746 04a9 00       		.uleb128 0
 3747              	.LLST7:
 3748 04aa 00000000 		.4byte	.LVL13
 3749 04ae 16000000 		.4byte	.LVL15
 3750 04b2 0100     		.2byte	0x1
 3751 04b4 50       		.byte	0x50
 3752 04b5 16000000 		.4byte	.LVL15
 3753 04b9 48000000 		.4byte	.LFE0
 3754 04bd 0400     		.2byte	0x4
 3755 04bf F3       		.byte	0xf3
 3756 04c0 01       		.uleb128 0x1
 3757 04c1 50       		.byte	0x50
 3758 04c2 9F       		.byte	0x9f
 3759 04c3 00000000 		.4byte	0
 3760 04c7 00000000 		.4byte	0
 3761              	.LVUS8:
 3762 04cb 00       		.uleb128 0
ARM GAS  /tmp/ccsMrpMe.s 			page 67


 3763 04cc 00       		.uleb128 .LVU43
 3764 04cd 00       		.uleb128 .LVU43
 3765 04ce 00       		.uleb128 .LVU44
 3766 04cf 00       		.uleb128 .LVU44
 3767 04d0 00       		.uleb128 .LVU47
 3768 04d1 00       		.uleb128 .LVU47
 3769 04d2 00       		.uleb128 .LVU48
 3770 04d3 00       		.uleb128 .LVU48
 3771 04d4 00       		.uleb128 0
 3772              	.LLST8:
 3773 04d5 00000000 		.4byte	.LVL13
 3774 04d9 1C000000 		.4byte	.LVL16
 3775 04dd 0100     		.2byte	0x1
 3776 04df 51       		.byte	0x51
 3777 04e0 1C000000 		.4byte	.LVL16
 3778 04e4 2A000000 		.4byte	.LVL17
 3779 04e8 0400     		.2byte	0x4
 3780 04ea F3       		.byte	0xf3
 3781 04eb 01       		.uleb128 0x1
 3782 04ec 51       		.byte	0x51
 3783 04ed 9F       		.byte	0x9f
 3784 04ee 2A000000 		.4byte	.LVL17
 3785 04f2 30000000 		.4byte	.LVL18
 3786 04f6 0100     		.2byte	0x1
 3787 04f8 51       		.byte	0x51
 3788 04f9 30000000 		.4byte	.LVL18
 3789 04fd 35000000 		.4byte	.LVL19-1
 3790 0501 0100     		.2byte	0x1
 3791 0503 50       		.byte	0x50
 3792 0504 35000000 		.4byte	.LVL19-1
 3793 0508 48000000 		.4byte	.LFE0
 3794 050c 0400     		.2byte	0x4
 3795 050e F3       		.byte	0xf3
 3796 050f 01       		.uleb128 0x1
 3797 0510 51       		.byte	0x51
 3798 0511 9F       		.byte	0x9f
 3799 0512 00000000 		.4byte	0
 3800 0516 00000000 		.4byte	0
 3801              	.LVUS9:
 3802 051a 00       		.uleb128 0
 3803 051b 00       		.uleb128 .LVU43
 3804 051c 00       		.uleb128 .LVU43
 3805 051d 00       		.uleb128 .LVU44
 3806 051e 00       		.uleb128 .LVU44
 3807 051f 00       		.uleb128 .LVU48
 3808 0520 00       		.uleb128 .LVU48
 3809 0521 00       		.uleb128 .LVU52
 3810 0522 00       		.uleb128 .LVU52
 3811 0523 00       		.uleb128 0
 3812              	.LLST9:
 3813 0524 00000000 		.4byte	.LVL13
 3814 0528 1C000000 		.4byte	.LVL16
 3815 052c 0100     		.2byte	0x1
 3816 052e 52       		.byte	0x52
 3817 052f 1C000000 		.4byte	.LVL16
 3818 0533 2A000000 		.4byte	.LVL17
 3819 0537 0400     		.2byte	0x4
ARM GAS  /tmp/ccsMrpMe.s 			page 68


 3820 0539 F3       		.byte	0xf3
 3821 053a 01       		.uleb128 0x1
 3822 053b 52       		.byte	0x52
 3823 053c 9F       		.byte	0x9f
 3824 053d 2A000000 		.4byte	.LVL17
 3825 0541 35000000 		.4byte	.LVL19-1
 3826 0545 0100     		.2byte	0x1
 3827 0547 52       		.byte	0x52
 3828 0548 35000000 		.4byte	.LVL19-1
 3829 054c 40000000 		.4byte	.LVL20
 3830 0550 0100     		.2byte	0x1
 3831 0552 54       		.byte	0x54
 3832 0553 40000000 		.4byte	.LVL20
 3833 0557 48000000 		.4byte	.LFE0
 3834 055b 0400     		.2byte	0x4
 3835 055d F3       		.byte	0xf3
 3836 055e 01       		.uleb128 0x1
 3837 055f 52       		.byte	0x52
 3838 0560 9F       		.byte	0x9f
 3839 0561 00000000 		.4byte	0
 3840 0565 00000000 		.4byte	0
 3841              	.LVUS10:
 3842 0569 01       		.uleb128 .LVU38
 3843 056a 00       		.uleb128 0
 3844              	.LLST10:
 3845 056b 10000000 		.4byte	.LVL14
 3846 056f 48000000 		.4byte	.LFE0
 3847 0573 0100     		.2byte	0x1
 3848 0575 55       		.byte	0x55
 3849 0576 00000000 		.4byte	0
 3850 057a 00000000 		.4byte	0
 3851              		.section	.debug_aranges,"",%progbits
 3852 0000 5C000000 		.4byte	0x5c
 3853 0004 0200     		.2byte	0x2
 3854 0006 00000000 		.4byte	.Ldebug_info0
 3855 000a 04       		.byte	0x4
 3856 000b 00       		.byte	0
 3857 000c 0000     		.2byte	0
 3858 000e 0000     		.2byte	0
 3859 0010 00000000 		.4byte	.LFB2
 3860 0014 28000000 		.4byte	.LFE2-.LFB2
 3861 0018 00000000 		.4byte	.LFB1
 3862 001c 48000000 		.4byte	.LFE1-.LFB1
 3863 0020 00000000 		.4byte	.LFB0
 3864 0024 48000000 		.4byte	.LFE0-.LFB0
 3865 0028 00000000 		.4byte	.LFB3
 3866 002c 44000000 		.4byte	.LFE3-.LFB3
 3867 0030 00000000 		.4byte	.LFB4
 3868 0034 44000000 		.4byte	.LFE4-.LFB4
 3869 0038 00000000 		.4byte	.LFB5
 3870 003c 28000000 		.4byte	.LFE5-.LFB5
 3871 0040 00000000 		.4byte	.LFB6
 3872 0044 28000000 		.4byte	.LFE6-.LFB6
 3873 0048 00000000 		.4byte	.LFB7
 3874 004c 2C000000 		.4byte	.LFE7-.LFB7
 3875 0050 00000000 		.4byte	.LFB8
 3876 0054 30000000 		.4byte	.LFE8-.LFB8
ARM GAS  /tmp/ccsMrpMe.s 			page 69


 3877 0058 00000000 		.4byte	0
 3878 005c 00000000 		.4byte	0
 3879              		.section	.debug_ranges,"",%progbits
 3880              	.Ldebug_ranges0:
 3881 0000 00000000 		.4byte	.LFB2
 3882 0004 28000000 		.4byte	.LFE2
 3883 0008 00000000 		.4byte	.LFB1
 3884 000c 48000000 		.4byte	.LFE1
 3885 0010 00000000 		.4byte	.LFB0
 3886 0014 48000000 		.4byte	.LFE0
 3887 0018 00000000 		.4byte	.LFB3
 3888 001c 44000000 		.4byte	.LFE3
 3889 0020 00000000 		.4byte	.LFB4
 3890 0024 44000000 		.4byte	.LFE4
 3891 0028 00000000 		.4byte	.LFB5
 3892 002c 28000000 		.4byte	.LFE5
 3893 0030 00000000 		.4byte	.LFB6
 3894 0034 28000000 		.4byte	.LFE6
 3895 0038 00000000 		.4byte	.LFB7
 3896 003c 2C000000 		.4byte	.LFE7
 3897 0040 00000000 		.4byte	.LFB8
 3898 0044 30000000 		.4byte	.LFE8
 3899 0048 00000000 		.4byte	0
 3900 004c 00000000 		.4byte	0
 3901              		.section	.debug_line,"",%progbits
 3902              	.Ldebug_line0:
 3903 0000 C7020000 		.section	.debug_str,"MS",%progbits,1
 3903      03000D01 
 3903      00000201 
 3903      FB0E0D00 
 3903      01010101 
 3904              	.LASF39:
 3905 0000 5F64736F 		.ascii	"_dso_handle\000"
 3905      5F68616E 
 3905      646C6500 
 3906              	.LASF47:
 3907 000c 5F73697A 		.ascii	"_size\000"
 3907      6500
 3908              	.LASF3:
 3909 0012 73697A65 		.ascii	"size_t\000"
 3909      5F7400
 3910              	.LASF92:
 3911 0019 5F72616E 		.ascii	"_rand48\000"
 3911      64343800 
 3912              	.LASF71:
 3913 0021 5F656D65 		.ascii	"_emergency\000"
 3913      7267656E 
 3913      637900
 3914              	.LASF127:
 3915 002c 77726974 		.ascii	"write\000"
 3915      6500
 3916              	.LASF146:
 3917 0032 2E2F2F73 		.ascii	".//src/cmp_mem_access/cmp_mem_access.c\000"
 3917      72632F63 
 3917      6D705F6D 
 3917      656D5F61 
 3917      63636573 
ARM GAS  /tmp/ccsMrpMe.s 			page 70


 3918              	.LASF61:
 3919 0059 5F646174 		.ascii	"_data\000"
 3919      6100
 3920              	.LASF112:
 3921 005f 5F776372 		.ascii	"_wcrtomb_state\000"
 3921      746F6D62 
 3921      5F737461 
 3921      746500
 3922              	.LASF113:
 3923 006e 5F776373 		.ascii	"_wcsrtombs_state\000"
 3923      72746F6D 
 3923      62735F73 
 3923      74617465 
 3923      00
 3924              	.LASF11:
 3925 007f 6C6F6E67 		.ascii	"long long unsigned int\000"
 3925      206C6F6E 
 3925      6720756E 
 3925      7369676E 
 3925      65642069 
 3926              	.LASF51:
 3927 0096 5F6C6266 		.ascii	"_lbfsize\000"
 3927      73697A65 
 3927      00
 3928              	.LASF148:
 3929 009f 5F5F6C6F 		.ascii	"__locale_t\000"
 3929      63616C65 
 3929      5F7400
 3930              	.LASF110:
 3931 00aa 5F6D6272 		.ascii	"_mbrtowc_state\000"
 3931      746F7763 
 3931      5F737461 
 3931      746500
 3932              	.LASF105:
 3933 00b9 5F776374 		.ascii	"_wctomb_state\000"
 3933      6F6D625F 
 3933      73746174 
 3933      6500
 3934              	.LASF28:
 3935 00c7 5F5F746D 		.ascii	"__tm_sec\000"
 3935      5F736563 
 3935      00
 3936              	.LASF1:
 3937 00d0 6C6F6E67 		.ascii	"long long int\000"
 3937      206C6F6E 
 3937      6720696E 
 3937      7400
 3938              	.LASF5:
 3939 00de 7369676E 		.ascii	"signed char\000"
 3939      65642063 
 3939      68617200 
 3940              	.LASF57:
 3941 00ea 5F756275 		.ascii	"_ubuf\000"
 3941      6600
 3942              	.LASF46:
 3943 00f0 5F626173 		.ascii	"_base\000"
 3943      6500
ARM GAS  /tmp/ccsMrpMe.s 			page 71


 3944              	.LASF30:
 3945 00f6 5F5F746D 		.ascii	"__tm_hour\000"
 3945      5F686F75 
 3945      7200
 3946              	.LASF86:
 3947 0100 5F5F7366 		.ascii	"__sf\000"
 3947      00
 3948              	.LASF37:
 3949 0105 5F6F6E5F 		.ascii	"_on_exit_args\000"
 3949      65786974 
 3949      5F617267 
 3949      7300
 3950              	.LASF52:
 3951 0113 5F636F6F 		.ascii	"_cookie\000"
 3951      6B696500 
 3952              	.LASF85:
 3953 011b 5F5F7367 		.ascii	"__sglue\000"
 3953      6C756500 
 3954              	.LASF9:
 3955 0123 6C6F6E67 		.ascii	"long int\000"
 3955      20696E74 
 3955      00
 3956              	.LASF49:
 3957 012c 5F666C61 		.ascii	"_flags\000"
 3957      677300
 3958              	.LASF41:
 3959 0133 5F69735F 		.ascii	"_is_cxa\000"
 3959      63786100 
 3960              	.LASF67:
 3961 013b 5F737464 		.ascii	"_stdin\000"
 3961      696E00
 3962              	.LASF59:
 3963 0142 5F626C6B 		.ascii	"_blksize\000"
 3963      73697A65 
 3963      00
 3964              	.LASF130:
 3965 014b 646F7562 		.ascii	"double\000"
 3965      6C6500
 3966              	.LASF81:
 3967 0152 5F637674 		.ascii	"_cvtbuf\000"
 3967      62756600 
 3968              	.LASF60:
 3969 015a 5F6F6666 		.ascii	"_offset\000"
 3969      73657400 
 3970              	.LASF111:
 3971 0162 5F6D6273 		.ascii	"_mbsrtowcs_state\000"
 3971      72746F77 
 3971      63735F73 
 3971      74617465 
 3971      00
 3972              	.LASF109:
 3973 0173 5F6D6272 		.ascii	"_mbrlen_state\000"
 3973      6C656E5F 
 3973      73746174 
 3973      6500
 3974              	.LASF38:
 3975 0181 5F666E61 		.ascii	"_fnargs\000"
ARM GAS  /tmp/ccsMrpMe.s 			page 72


 3975      72677300 
 3976              	.LASF131:
 3977 0189 636D705F 		.ascii	"cmp_ctx_t\000"
 3977      6374785F 
 3977      7400
 3978              	.LASF44:
 3979 0193 5F666E73 		.ascii	"_fns\000"
 3979      00
 3980              	.LASF24:
 3981 0198 5F736967 		.ascii	"_sign\000"
 3981      6E00
 3982              	.LASF137:
 3983 019e 636D705F 		.ascii	"cmp_mem_access_get_pos\000"
 3983      6D656D5F 
 3983      61636365 
 3983      73735F67 
 3983      65745F70 
 3984              	.LASF21:
 3985 01b5 5F666C6F 		.ascii	"_flock_t\000"
 3985      636B5F74 
 3985      00
 3986              	.LASF69:
 3987 01be 5F737464 		.ascii	"_stderr\000"
 3987      65727200 
 3988              	.LASF26:
 3989 01c6 5F426967 		.ascii	"_Bigint\000"
 3989      696E7400 
 3990              	.LASF100:
 3991 01ce 5F67616D 		.ascii	"_gamma_signgam\000"
 3991      6D615F73 
 3991      69676E67 
 3991      616D00
 3992              	.LASF53:
 3993 01dd 5F726561 		.ascii	"_read\000"
 3993      6400
 3994              	.LASF77:
 3995 01e3 5F726573 		.ascii	"_result_k\000"
 3995      756C745F 
 3995      6B00
 3996              	.LASF27:
 3997 01ed 5F5F746D 		.ascii	"__tm\000"
 3997      00
 3998              	.LASF0:
 3999 01f2 756E7369 		.ascii	"unsigned int\000"
 3999      676E6564 
 3999      20696E74 
 3999      00
 4000              	.LASF15:
 4001 01ff 5F5F7763 		.ascii	"__wchb\000"
 4001      686200
 4002              	.LASF68:
 4003 0206 5F737464 		.ascii	"_stdout\000"
 4003      6F757400 
 4004              	.LASF80:
 4005 020e 5F637674 		.ascii	"_cvtlen\000"
 4005      6C656E00 
 4006              	.LASF10:
ARM GAS  /tmp/ccsMrpMe.s 			page 73


 4007 0216 6C6F6E67 		.ascii	"long unsigned int\000"
 4007      20756E73 
 4007      69676E65 
 4007      6420696E 
 4007      7400
 4008              	.LASF50:
 4009 0228 5F66696C 		.ascii	"_file\000"
 4009      6500
 4010              	.LASF128:
 4011 022e 636D705F 		.ascii	"cmp_writer\000"
 4011      77726974 
 4011      657200
 4012              	.LASF147:
 4013 0239 2F686F6D 		.ascii	"/home/olof/Documents/MICRO-315/micro-315/tp4/lib/e-"
 4013      652F6F6C 
 4013      6F662F44 
 4013      6F63756D 
 4013      656E7473 
 4014 026c 7075636B 		.ascii	"puck2_main-processor\000"
 4014      325F6D61 
 4014      696E2D70 
 4014      726F6365 
 4014      73736F72 
 4015              	.LASF90:
 4016 0281 5F6E696F 		.ascii	"_niobs\000"
 4016      627300
 4017              	.LASF141:
 4018 0288 64617461 		.ascii	"data\000"
 4018      00
 4019              	.LASF133:
 4020 028d 73697A65 		.ascii	"size\000"
 4020      00
 4021              	.LASF8:
 4022 0292 73686F72 		.ascii	"short unsigned int\000"
 4022      7420756E 
 4022      7369676E 
 4022      65642069 
 4022      6E7400
 4023              	.LASF83:
 4024 02a5 5F617465 		.ascii	"_atexit0\000"
 4024      78697430 
 4024      00
 4025              	.LASF107:
 4026 02ae 5F736967 		.ascii	"_signal_buf\000"
 4026      6E616C5F 
 4026      62756600 
 4027              	.LASF98:
 4028 02ba 5F617363 		.ascii	"_asctime_buf\000"
 4028      74696D65 
 4028      5F627566 
 4028      00
 4029              	.LASF76:
 4030 02c7 5F726573 		.ascii	"_result\000"
 4030      756C7400 
 4031              	.LASF14:
 4032 02cf 5F5F7763 		.ascii	"__wch\000"
 4032      6800
ARM GAS  /tmp/ccsMrpMe.s 			page 74


 4033              	.LASF151:
 4034 02d5 6D656D63 		.ascii	"memcpy\000"
 4034      707900
 4035              	.LASF4:
 4036 02dc 77696E74 		.ascii	"wint_t\000"
 4036      5F7400
 4037              	.LASF136:
 4038 02e3 636D705F 		.ascii	"cmp_mem_access_get_ptr_at_pos\000"
 4038      6D656D5F 
 4038      61636365 
 4038      73735F67 
 4038      65745F70 
 4039              	.LASF152:
 4040 0301 5F5F6275 		.ascii	"__builtin_memcpy\000"
 4040      696C7469 
 4040      6E5F6D65 
 4040      6D637079 
 4040      00
 4041              	.LASF62:
 4042 0312 5F6C6F63 		.ascii	"_lock\000"
 4042      6B00
 4043              	.LASF134:
 4044 0318 636D705F 		.ascii	"cmp_mem_access_t\000"
 4044      6D656D5F 
 4044      61636365 
 4044      73735F74 
 4044      00
 4045              	.LASF64:
 4046 0329 5F666C61 		.ascii	"_flags2\000"
 4046      67733200 
 4047              	.LASF144:
 4048 0331 636D705F 		.ascii	"cmp_mem_reader\000"
 4048      6D656D5F 
 4048      72656164 
 4048      657200
 4049              	.LASF54:
 4050 0340 5F777269 		.ascii	"_write\000"
 4050      746500
 4051              	.LASF33:
 4052 0347 5F5F746D 		.ascii	"__tm_year\000"
 4052      5F796561 
 4052      7200
 4053              	.LASF122:
 4054 0351 636D705F 		.ascii	"cmp_reader\000"
 4054      72656164 
 4054      657200
 4055              	.LASF2:
 4056 035c 6C6F6E67 		.ascii	"long double\000"
 4056      20646F75 
 4056      626C6500 
 4057              	.LASF150:
 4058 0368 636D705F 		.ascii	"cmp_init\000"
 4058      696E6974 
 4058      00
 4059              	.LASF124:
 4060 0371 636D705F 		.ascii	"cmp_ctx_s\000"
 4060      6374785F 
ARM GAS  /tmp/ccsMrpMe.s 			page 75


 4060      7300
 4061              	.LASF115:
 4062 037b 5F6E6578 		.ascii	"_nextf\000"
 4062      746600
 4063              	.LASF142:
 4064 0382 636D705F 		.ascii	"cmp_mem_writer_ro\000"
 4064      6D656D5F 
 4064      77726974 
 4064      65725F72 
 4064      6F00
 4065              	.LASF32:
 4066 0394 5F5F746D 		.ascii	"__tm_mon\000"
 4066      5F6D6F6E 
 4066      00
 4067              	.LASF42:
 4068 039d 5F617465 		.ascii	"_atexit\000"
 4068      78697400 
 4069              	.LASF120:
 4070 03a5 7375626F 		.ascii	"suboptarg\000"
 4070      70746172 
 4070      6700
 4071              	.LASF145:
 4072 03af 474E5520 		.ascii	"GNU C17 9.2.1 20191025 (release) [ARM/arm-9-branch "
 4072      43313720 
 4072      392E322E 
 4072      31203230 
 4072      31393130 
 4073 03e2 72657669 		.ascii	"revision 277599] -mcpu=cortex-m4 -mfloat-abi=hard -"
 4073      73696F6E 
 4073      20323737 
 4073      3539395D 
 4073      202D6D63 
 4074 0415 6D667075 		.ascii	"mfpu=fpv4-sp-d16 -mno-thumb-interwork -mthumb -marc"
 4074      3D667076 
 4074      342D7370 
 4074      2D643136 
 4074      202D6D6E 
 4075 0448 683D6172 		.ascii	"h=armv7e-m+fp -ggdb -O2 -fomit-frame-pointer -falig"
 4075      6D763765 
 4075      2D6D2B66 
 4075      70202D67 
 4075      67646220 
 4076 047b 6E2D6675 		.ascii	"n-functions=16 -fno-strict-aliasing -fstack-protect"
 4076      6E637469 
 4076      6F6E733D 
 4076      3136202D 
 4076      666E6F2D 
 4077 04ae 6F722D61 		.ascii	"or-all -ffunction-sections -fdata-sections -fno-com"
 4077      6C6C202D 
 4077      6666756E 
 4077      6374696F 
 4077      6E2D7365 
 4078 04e1 6D6F6E20 		.ascii	"mon -fsingle-precision-constant\000"
 4078      2D667369 
 4078      6E676C65 
 4078      2D707265 
 4078      63697369 
ARM GAS  /tmp/ccsMrpMe.s 			page 76


 4079              	.LASF74:
 4080 0501 5F5F7364 		.ascii	"__sdidinit\000"
 4080      6964696E 
 4080      697400
 4081              	.LASF12:
 4082 050c 5F6F6666 		.ascii	"_off_t\000"
 4082      5F7400
 4083              	.LASF126:
 4084 0513 72656164 		.ascii	"read\000"
 4084      00
 4085              	.LASF129:
 4086 0518 666C6F61 		.ascii	"float\000"
 4086      7400
 4087              	.LASF79:
 4088 051e 5F667265 		.ascii	"_freelist\000"
 4088      656C6973 
 4088      7400
 4089              	.LASF125:
 4090 0528 6572726F 		.ascii	"error\000"
 4090      7200
 4091              	.LASF20:
 4092 052e 5F4C4F43 		.ascii	"_LOCK_RECURSIVE_T\000"
 4092      4B5F5245 
 4092      43555253 
 4092      4956455F 
 4092      5400
 4093              	.LASF123:
 4094 0540 5F426F6F 		.ascii	"_Bool\000"
 4094      6C00
 4095              	.LASF6:
 4096 0546 756E7369 		.ascii	"unsigned char\000"
 4096      676E6564 
 4096      20636861 
 4096      7200
 4097              	.LASF82:
 4098 0554 5F6E6577 		.ascii	"_new\000"
 4098      00
 4099              	.LASF114:
 4100 0559 5F685F65 		.ascii	"_h_errno\000"
 4100      72726E6F 
 4100      00
 4101              	.LASF7:
 4102 0562 73686F72 		.ascii	"short int\000"
 4102      7420696E 
 4102      7400
 4103              	.LASF35:
 4104 056c 5F5F746D 		.ascii	"__tm_yday\000"
 4104      5F796461 
 4104      7900
 4105              	.LASF45:
 4106 0576 5F5F7362 		.ascii	"__sbuf\000"
 4106      756600
 4107              	.LASF91:
 4108 057d 5F696F62 		.ascii	"_iobs\000"
 4108      7300
 4109              	.LASF88:
 4110 0583 5F5F4649 		.ascii	"__FILE\000"
ARM GAS  /tmp/ccsMrpMe.s 			page 77


 4110      4C4500
 4111              	.LASF18:
 4112 058a 5F6D6273 		.ascii	"_mbstate_t\000"
 4112      74617465 
 4112      5F7400
 4113              	.LASF48:
 4114 0595 5F5F7346 		.ascii	"__sFILE\000"
 4114      494C4500 
 4115              	.LASF63:
 4116 059d 5F6D6273 		.ascii	"_mbstate\000"
 4116      74617465 
 4116      00
 4117              	.LASF101:
 4118 05a6 5F72616E 		.ascii	"_rand_next\000"
 4118      645F6E65 
 4118      787400
 4119              	.LASF103:
 4120 05b1 5F6D626C 		.ascii	"_mblen_state\000"
 4120      656E5F73 
 4120      74617465 
 4120      00
 4121              	.LASF70:
 4122 05be 5F696E63 		.ascii	"_inc\000"
 4122      00
 4123              	.LASF43:
 4124 05c3 5F696E64 		.ascii	"_ind\000"
 4124      00
 4125              	.LASF73:
 4126 05c8 5F6C6F63 		.ascii	"_locale\000"
 4126      616C6500 
 4127              	.LASF75:
 4128 05d0 5F5F636C 		.ascii	"__cleanup\000"
 4128      65616E75 
 4128      7000
 4129              	.LASF72:
 4130 05da 5F756E73 		.ascii	"_unspecified_locale_info\000"
 4130      70656369 
 4130      66696564 
 4130      5F6C6F63 
 4130      616C655F 
 4131              	.LASF149:
 4132 05f3 5F5F7374 		.ascii	"__stack_chk_fail\000"
 4132      61636B5F 
 4132      63686B5F 
 4132      6661696C 
 4132      00
 4133              	.LASF23:
 4134 0604 5F6D6178 		.ascii	"_maxwds\000"
 4134      77647300 
 4135              	.LASF65:
 4136 060c 5F726565 		.ascii	"_reent\000"
 4136      6E7400
 4137              	.LASF93:
 4138 0613 5F736565 		.ascii	"_seed\000"
 4138      6400
 4139              	.LASF16:
 4140 0619 5F5F636F 		.ascii	"__count\000"
ARM GAS  /tmp/ccsMrpMe.s 			page 78


 4140      756E7400 
 4141              	.LASF17:
 4142 0621 5F5F7661 		.ascii	"__value\000"
 4142      6C756500 
 4143              	.LASF55:
 4144 0629 5F736565 		.ascii	"_seek\000"
 4144      6B00
 4145              	.LASF118:
 4146 062f 5F696D70 		.ascii	"_impure_ptr\000"
 4146      7572655F 
 4146      70747200 
 4147              	.LASF13:
 4148 063b 5F66706F 		.ascii	"_fpos_t\000"
 4148      735F7400 
 4149              	.LASF66:
 4150 0643 5F657272 		.ascii	"_errno\000"
 4150      6E6F00
 4151              	.LASF87:
 4152 064a 63686172 		.ascii	"char\000"
 4152      00
 4153              	.LASF29:
 4154 064f 5F5F746D 		.ascii	"__tm_min\000"
 4154      5F6D696E 
 4154      00
 4155              	.LASF138:
 4156 0658 636D705F 		.ascii	"cmp_mem_access_set_pos\000"
 4156      6D656D5F 
 4156      61636365 
 4156      73735F73 
 4156      65745F70 
 4157              	.LASF143:
 4158 066f 636D705F 		.ascii	"cmp_mem_writer\000"
 4158      6D656D5F 
 4158      77726974 
 4158      657200
 4159              	.LASF132:
 4160 067e 696E6465 		.ascii	"index\000"
 4160      7800
 4161              	.LASF121:
 4162 0684 75696E74 		.ascii	"uint8_t\000"
 4162      385F7400 
 4163              	.LASF94:
 4164 068c 5F6D756C 		.ascii	"_mult\000"
 4164      7400
 4165              	.LASF22:
 4166 0692 5F6E6578 		.ascii	"_next\000"
 4166      7400
 4167              	.LASF97:
 4168 0698 5F737472 		.ascii	"_strtok_last\000"
 4168      746F6B5F 
 4168      6C617374 
 4168      00
 4169              	.LASF40:
 4170 06a5 5F666E74 		.ascii	"_fntypes\000"
 4170      79706573 
 4170      00
 4171              	.LASF95:
ARM GAS  /tmp/ccsMrpMe.s 			page 79


 4172 06ae 5F616464 		.ascii	"_add\000"
 4172      00
 4173              	.LASF19:
 4174 06b3 5F5F554C 		.ascii	"__ULong\000"
 4174      6F6E6700 
 4175              	.LASF108:
 4176 06bb 5F676574 		.ascii	"_getdate_err\000"
 4176      64617465 
 4176      5F657272 
 4176      00
 4177              	.LASF119:
 4178 06c8 5F676C6F 		.ascii	"_global_impure_ptr\000"
 4178      62616C5F 
 4178      696D7075 
 4178      72655F70 
 4178      747200
 4179              	.LASF96:
 4180 06db 5F756E75 		.ascii	"_unused_rand\000"
 4180      7365645F 
 4180      72616E64 
 4180      00
 4181              	.LASF139:
 4182 06e8 636D705F 		.ascii	"cmp_mem_access_ro_init\000"
 4182      6D656D5F 
 4182      61636365 
 4182      73735F72 
 4182      6F5F696E 
 4183              	.LASF25:
 4184 06ff 5F776473 		.ascii	"_wds\000"
 4184      00
 4185              	.LASF34:
 4186 0704 5F5F746D 		.ascii	"__tm_wday\000"
 4186      5F776461 
 4186      7900
 4187              	.LASF89:
 4188 070e 5F676C75 		.ascii	"_glue\000"
 4188      6500
 4189              	.LASF116:
 4190 0714 5F6E6D61 		.ascii	"_nmalloc\000"
 4190      6C6C6F63 
 4190      00
 4191              	.LASF106:
 4192 071d 5F6C3634 		.ascii	"_l64a_buf\000"
 4192      615F6275 
 4192      6600
 4193              	.LASF84:
 4194 0727 5F736967 		.ascii	"_sig_func\000"
 4194      5F66756E 
 4194      6300
 4195              	.LASF58:
 4196 0731 5F6E6275 		.ascii	"_nbuf\000"
 4196      6600
 4197              	.LASF117:
 4198 0737 5F756E75 		.ascii	"_unused\000"
 4198      73656400 
 4199              	.LASF36:
 4200 073f 5F5F746D 		.ascii	"__tm_isdst\000"
ARM GAS  /tmp/ccsMrpMe.s 			page 80


 4200      5F697364 
 4200      737400
 4201              	.LASF99:
 4202 074a 5F6C6F63 		.ascii	"_localtime_buf\000"
 4202      616C7469 
 4202      6D655F62 
 4202      756600
 4203              	.LASF56:
 4204 0759 5F636C6F 		.ascii	"_close\000"
 4204      736500
 4205              	.LASF102:
 4206 0760 5F723438 		.ascii	"_r48\000"
 4206      00
 4207              	.LASF135:
 4208 0765 636D705F 		.ascii	"cmp_mem_access_pos_is_valid\000"
 4208      6D656D5F 
 4208      61636365 
 4208      73735F70 
 4208      6F735F69 
 4209              	.LASF104:
 4210 0781 5F6D6274 		.ascii	"_mbtowc_state\000"
 4210      6F77635F 
 4210      73746174 
 4210      6500
 4211              	.LASF78:
 4212 078f 5F703573 		.ascii	"_p5s\000"
 4212      00
 4213              	.LASF31:
 4214 0794 5F5F746D 		.ascii	"__tm_mday\000"
 4214      5F6D6461 
 4214      7900
 4215              	.LASF140:
 4216 079e 636D705F 		.ascii	"cmp_mem_access_init\000"
 4216      6D656D5F 
 4216      61636365 
 4216      73735F69 
 4216      6E697400 
 4217              		.ident	"GCC: (15:9-2019-q4-0ubuntu1) 9.2.1 20191025 (release) [ARM/arm-9-branch revision 277599]"
ARM GAS  /tmp/ccsMrpMe.s 			page 81


DEFINED SYMBOLS
                            *ABS*:0000000000000000 cmp_mem_access.c
     /tmp/ccsMrpMe.s:18     .rodata.cmp_mem_writer_ro.cst4:0000000000000000 $d
     /tmp/ccsMrpMe.s:22     .text.cmp_mem_writer_ro:0000000000000000 $t
     /tmp/ccsMrpMe.s:30     .text.cmp_mem_writer_ro:0000000000000000 cmp_mem_writer_ro
     /tmp/ccsMrpMe.s:79     .text.cmp_mem_writer_ro:0000000000000024 $d
     /tmp/ccsMrpMe.s:84     .rodata.cmp_mem_writer.cst4:0000000000000000 $d
     /tmp/ccsMrpMe.s:88     .text.cmp_mem_writer:0000000000000000 $t
     /tmp/ccsMrpMe.s:95     .text.cmp_mem_writer:0000000000000000 cmp_mem_writer
     /tmp/ccsMrpMe.s:173    .text.cmp_mem_writer:0000000000000044 $d
     /tmp/ccsMrpMe.s:178    .rodata.cmp_mem_reader.cst4:0000000000000000 $d
     /tmp/ccsMrpMe.s:182    .text.cmp_mem_reader:0000000000000000 $t
     /tmp/ccsMrpMe.s:189    .text.cmp_mem_reader:0000000000000000 cmp_mem_reader
     /tmp/ccsMrpMe.s:270    .text.cmp_mem_reader:0000000000000044 $d
     /tmp/ccsMrpMe.s:275    .rodata.cmp_mem_access_init.cst4:0000000000000000 $d
     /tmp/ccsMrpMe.s:279    .text.cmp_mem_access_init:0000000000000000 $t
     /tmp/ccsMrpMe.s:287    .text.cmp_mem_access_init:0000000000000000 cmp_mem_access_init
     /tmp/ccsMrpMe.s:346    .text.cmp_mem_access_init:0000000000000038 $d
     /tmp/ccsMrpMe.s:353    .rodata.cmp_mem_access_ro_init.cst4:0000000000000000 $d
     /tmp/ccsMrpMe.s:357    .text.cmp_mem_access_ro_init:0000000000000000 $t
     /tmp/ccsMrpMe.s:365    .text.cmp_mem_access_ro_init:0000000000000000 cmp_mem_access_ro_init
     /tmp/ccsMrpMe.s:424    .text.cmp_mem_access_ro_init:0000000000000038 $d
     /tmp/ccsMrpMe.s:431    .rodata.cmp_mem_access_get_pos.cst4:0000000000000000 $d
     /tmp/ccsMrpMe.s:435    .text.cmp_mem_access_get_pos:0000000000000000 $t
     /tmp/ccsMrpMe.s:443    .text.cmp_mem_access_get_pos:0000000000000000 cmp_mem_access_get_pos
     /tmp/ccsMrpMe.s:484    .text.cmp_mem_access_get_pos:0000000000000024 $d
     /tmp/ccsMrpMe.s:489    .rodata.cmp_mem_access_set_pos.cst4:0000000000000000 $d
     /tmp/ccsMrpMe.s:493    .text.cmp_mem_access_set_pos:0000000000000000 $t
     /tmp/ccsMrpMe.s:501    .text.cmp_mem_access_set_pos:0000000000000000 cmp_mem_access_set_pos
     /tmp/ccsMrpMe.s:542    .text.cmp_mem_access_set_pos:0000000000000024 $d
     /tmp/ccsMrpMe.s:547    .rodata.cmp_mem_access_get_ptr_at_pos.cst4:0000000000000000 $d
     /tmp/ccsMrpMe.s:551    .text.cmp_mem_access_get_ptr_at_pos:0000000000000000 $t
     /tmp/ccsMrpMe.s:559    .text.cmp_mem_access_get_ptr_at_pos:0000000000000000 cmp_mem_access_get_ptr_at_pos
     /tmp/ccsMrpMe.s:604    .text.cmp_mem_access_get_ptr_at_pos:0000000000000028 $d
     /tmp/ccsMrpMe.s:609    .rodata.cmp_mem_access_pos_is_valid.cst4:0000000000000000 $d
     /tmp/ccsMrpMe.s:613    .text.cmp_mem_access_pos_is_valid:0000000000000000 $t
     /tmp/ccsMrpMe.s:621    .text.cmp_mem_access_pos_is_valid:0000000000000000 cmp_mem_access_pos_is_valid
     /tmp/ccsMrpMe.s:667    .text.cmp_mem_access_pos_is_valid:000000000000002c $d

UNDEFINED SYMBOLS
__stack_chk_guard
__stack_chk_fail
memcpy
cmp_init
