ARM GAS  /tmp/ccoK7Ufz.s 			page 1


   1              		.cpu cortex-m4
   2              		.eabi_attribute 27, 1
   3              		.eabi_attribute 28, 1
   4              		.eabi_attribute 20, 1
   5              		.eabi_attribute 21, 1
   6              		.eabi_attribute 23, 3
   7              		.eabi_attribute 24, 1
   8              		.eabi_attribute 25, 1
   9              		.eabi_attribute 26, 1
  10              		.eabi_attribute 30, 2
  11              		.eabi_attribute 34, 1
  12              		.eabi_attribute 18, 4
  13              		.file	"communication.c"
  14              		.text
  15              	.Ltext0:
  16              		.cfi_sections	.debug_frame
  17              		.section	.rodata.ping_cb.str1.4,"aMS",%progbits,1
  18              		.align	2
  19              	.LC0:
  20 0000 70696E67 		.ascii	"ping\000"
  20      00
  21              		.section	.rodata.ping_cb.cst4,"aM",%progbits,4
  22              		.align	2
  23              	.LC1:
  24 0000 00000000 		.word	__stack_chk_guard
  25              		.section	.text.ping_cb,"ax",%progbits
  26              		.align	1
  27              		.p2align 4,,15
  28              		.global	ping_cb
  29              		.arch armv7e-m
  30              		.syntax unified
  31              		.thumb
  32              		.thumb_func
  33              		.fpu fpv4-sp-d16
  34              		.type	ping_cb, %function
  35              	ping_cb:
  36              	.LVL0:
  37              	.LFB264:
  38              		.file 1 ".//src/communication.c"
  39              		.loc 1 183 1 view -0
  40              		.cfi_startproc
  41              		@ args = 0, pretend = 0, frame = 112
  42              		@ frame_needed = 0, uses_anonymous_args = 0
  43              		.loc 1 183 1 is_stmt 0 view .LVU1
  44 0000 30B5     		push	{r4, r5, lr}
  45              		.cfi_def_cfa_offset 12
  46              		.cfi_offset 4, -12
  47              		.cfi_offset 5, -8
  48              		.cfi_offset 14, -4
  49 0002 224B     		ldr	r3, .L14
  50 0004 9DB0     		sub	sp, sp, #116
  51              		.cfi_def_cfa_offset 128
  52              		.loc 1 183 1 view .LVU2
  53 0006 0C46     		mov	r4, r1
  54              		.loc 1 187 14 view .LVU3
  55 0008 6425     		movs	r5, #100
  56              		.loc 1 191 9 view .LVU4
ARM GAS  /tmp/ccoK7Ufz.s 			page 2


  57 000a 02A9     		add	r1, sp, #8
  58              	.LVL1:
  59              		.loc 1 191 9 view .LVU5
  60 000c 01AA     		add	r2, sp, #4
  61              		.loc 1 183 1 view .LVU6
  62 000e 1B68     		ldr	r3, [r3]
  63 0010 1B93     		str	r3, [sp, #108]
  64 0012 4FF00003 		mov	r3,#0
  65              		.loc 1 184 5 is_stmt 1 view .LVU7
  66              		.loc 1 185 5 view .LVU8
  67              	.LVL2:
  68              		.loc 1 187 5 view .LVU9
  69              		.loc 1 187 14 is_stmt 0 view .LVU10
  70 0016 0195     		str	r5, [sp, #4]
  71              		.loc 1 188 5 is_stmt 1 view .LVU11
  72              	.LVL3:
  73              		.loc 1 189 5 view .LVU12
  74              		.loc 1 191 5 view .LVU13
  75              		.loc 1 191 9 is_stmt 0 view .LVU14
  76 0018 FFF7FEFF 		bl	cmp_read_str
  77              	.LVL4:
  78              		.loc 1 191 7 view .LVU15
  79 001c 38B9     		cbnz	r0, .L12
  80              	.LVL5:
  81              	.L3:
  82              		.loc 1 207 5 is_stmt 1 view .LVU16
  83              		.loc 1 208 1 is_stmt 0 view .LVU17
  84 001e 1B4B     		ldr	r3, .L14
  85 0020 1A68     		ldr	r2, [r3]
  86 0022 1B9B     		ldr	r3, [sp, #108]
  87 0024 5A40     		eors	r2, r3, r2
  88 0026 2FD1     		bne	.L13
  89 0028 0020     		movs	r0, #0
  90 002a 1DB0     		add	sp, sp, #116
  91              		.cfi_remember_state
  92              		.cfi_def_cfa_offset 12
  93              		@ sp needed
  94 002c 30BD     		pop	{r4, r5, pc}
  95              	.LVL6:
  96              	.L12:
  97              		.cfi_restore_state
  98              	.LBB9:
  99              		.loc 1 192 9 is_stmt 1 view .LVU18
 100 002e 1849     		ldr	r1, .L14+4
 101 0030 1848     		ldr	r0, .L14+8
 102 0032 194A     		ldr	r2, .L14+12
 103 0034 2B46     		mov	r3, r5
 104 0036 FFF7FEFF 		bl	cmp_mem_access_init
 105              	.LVL7:
 106              		.loc 1 194 9 view .LVU19
 107              		.loc 1 195 9 view .LVU20
 108              		.loc 1 195 23 is_stmt 0 view .LVU21
 109 003a 1648     		ldr	r0, .L14+8
 110 003c 0121     		movs	r1, #1
 111 003e FFF7FEFF 		bl	cmp_write_map
 112              	.LVL8:
 113              		.loc 1 195 19 view .LVU22
ARM GAS  /tmp/ccoK7Ufz.s 			page 3


 114 0042 0028     		cmp	r0, #0
 115 0044 EBD0     		beq	.L3
 116              		.loc 1 196 9 is_stmt 1 view .LVU23
 117              		.loc 1 196 23 is_stmt 0 view .LVU24
 118 0046 1549     		ldr	r1, .L14+16
 119 0048 1248     		ldr	r0, .L14+8
 120 004a 0422     		movs	r2, #4
 121 004c FFF7FEFF 		bl	cmp_write_str
 122              	.LVL9:
 123              		.loc 1 196 19 view .LVU25
 124 0050 0028     		cmp	r0, #0
 125 0052 E4D0     		beq	.L3
 126              		.loc 1 197 9 is_stmt 1 view .LVU26
 127              		.loc 1 197 59 is_stmt 0 view .LVU27
 128 0054 02A8     		add	r0, sp, #8
 129              	.LVL10:
 130              		.loc 1 197 59 view .LVU28
 131 0056 FFF7FEFF 		bl	strlen
 132              	.LVL11:
 133              		.loc 1 197 23 view .LVU29
 134 005a 02A9     		add	r1, sp, #8
 135              	.LVL12:
 136              		.loc 1 197 59 view .LVU30
 137 005c 0246     		mov	r2, r0
 138              		.loc 1 197 23 view .LVU31
 139 005e 0D48     		ldr	r0, .L14+8
 140 0060 FFF7FEFF 		bl	cmp_write_str
 141              	.LVL13:
 142              		.loc 1 197 19 view .LVU32
 143 0064 0028     		cmp	r0, #0
 144 0066 DAD0     		beq	.L3
 145              		.loc 1 199 9 is_stmt 1 view .LVU33
 146              		.loc 1 200 13 view .LVU34
 147 0068 0D48     		ldr	r0, .L14+20
 148 006a FFF7FEFF 		bl	chMtxLock
 149              	.LVL14:
 150              		.loc 1 201 13 view .LVU35
 151 006e 0848     		ldr	r0, .L14+4
 152 0070 FFF7FEFF 		bl	cmp_mem_access_get_pos
 153              	.LVL15:
 154 0074 0B4A     		ldr	r2, .L14+24
 155 0076 0146     		mov	r1, r0
 156 0078 2346     		mov	r3, r4
 157 007a 0748     		ldr	r0, .L14+12
 158 007c FFF7FEFF 		bl	serial_datagram_send
 159              	.LVL16:
 160              		.loc 1 202 13 view .LVU36
 161 0080 0748     		ldr	r0, .L14+20
 162 0082 FFF7FEFF 		bl	chMtxUnlock
 163              	.LVL17:
 164 0086 CAE7     		b	.L3
 165              	.LVL18:
 166              	.L13:
 167              		.loc 1 202 13 is_stmt 0 view .LVU37
 168              	.LBE9:
 169              		.loc 1 208 1 view .LVU38
 170 0088 FFF7FEFF 		bl	__stack_chk_fail
ARM GAS  /tmp/ccoK7Ufz.s 			page 4


 171              	.LVL19:
 172              	.L15:
 173              		.align	2
 174              	.L14:
 175 008c 00000000 		.word	.LC1
 176 0090 00000000 		.word	.LANCHOR1
 177 0094 00000000 		.word	.LANCHOR2
 178 0098 00000000 		.word	.LANCHOR0
 179 009c 00000000 		.word	.LC0
 180 00a0 00000000 		.word	.LANCHOR3
 181 00a4 00000000 		.word	_stream_values_sndfn
 182              		.cfi_endproc
 183              	.LFE264:
 184              		.size	ping_cb, .-ping_cb
 185              		.section	.rodata.datagram_dispatcher_cb.cst4,"aM",%progbits,4
 186              		.align	2
 187              	.LC2:
 188 0000 00000000 		.word	__stack_chk_guard
 189              		.section	.text.datagram_dispatcher_cb,"ax",%progbits
 190              		.align	1
 191              		.p2align 4,,15
 192              		.global	datagram_dispatcher_cb
 193              		.syntax unified
 194              		.thumb
 195              		.thumb_func
 196              		.fpu fpv4-sp-d16
 197              		.type	datagram_dispatcher_cb, %function
 198              	datagram_dispatcher_cb:
 199              	.LVL20:
 200              	.LFB267:
 201              		.loc 1 252 1 is_stmt 1 view -0
 202              		.cfi_startproc
 203              		@ args = 0, pretend = 0, frame = 40
 204              		@ frame_needed = 0, uses_anonymous_args = 0
 205              		.loc 1 252 1 is_stmt 0 view .LVU40
 206 0000 F0B5     		push	{r4, r5, r6, r7, lr}
 207              		.cfi_def_cfa_offset 20
 208              		.cfi_offset 4, -20
 209              		.cfi_offset 5, -16
 210              		.cfi_offset 6, -12
 211              		.cfi_offset 7, -8
 212              		.cfi_offset 14, -4
 213 0002 234D     		ldr	r5, .L37
 214 0004 8BB0     		sub	sp, sp, #44
 215              		.cfi_def_cfa_offset 64
 216              		.loc 1 252 1 view .LVU41
 217 0006 0B46     		mov	r3, r1
 218 0008 1446     		mov	r4, r2
 219              		.loc 1 256 5 view .LVU42
 220 000a 02A9     		add	r1, sp, #8
 221              	.LVL21:
 222              		.loc 1 256 5 view .LVU43
 223 000c 0246     		mov	r2, r0
 224              	.LVL22:
 225              		.loc 1 256 5 view .LVU44
 226 000e 05A8     		add	r0, sp, #20
 227              	.LVL23:
ARM GAS  /tmp/ccoK7Ufz.s 			page 5


 228              		.loc 1 252 1 view .LVU45
 229 0010 2D68     		ldr	r5, [r5]
 230 0012 0995     		str	r5, [sp, #36]
 231 0014 4FF00005 		mov	r5,#0
 232              		.loc 1 253 5 is_stmt 1 view .LVU46
 233              	.LVL24:
 234              		.loc 1 254 5 view .LVU47
 235              		.loc 1 255 5 view .LVU48
 236              		.loc 1 256 5 view .LVU49
 237 0018 FFF7FEFF 		bl	cmp_mem_access_ro_init
 238              	.LVL25:
 239              		.loc 1 257 5 view .LVU50
 240              		.loc 1 258 5 view .LVU51
 241              		.loc 1 258 10 is_stmt 0 view .LVU52
 242 001c 05A8     		add	r0, sp, #20
 243 001e 6946     		mov	r1, sp
 244 0020 FFF7FEFF 		bl	cmp_read_map
 245              	.LVL26:
 246              		.loc 1 258 8 view .LVU53
 247 0024 58B3     		cbz	r0, .L16
 248              	.LVL27:
 249              		.loc 1 262 17 is_stmt 1 view .LVU54
 250              		.loc 1 262 5 is_stmt 0 view .LVU55
 251 0026 009B     		ldr	r3, [sp]
 252              		.loc 1 262 12 view .LVU56
 253 0028 0027     		movs	r7, #0
 254              		.loc 1 262 5 view .LVU57
 255 002a 43B3     		cbz	r3, .L16
 256              	.LVL28:
 257              	.L23:
 258              	.LBB10:
 259              		.loc 1 263 9 is_stmt 1 view .LVU58
 260              		.loc 1 264 9 view .LVU59
 261              		.loc 1 264 14 is_stmt 0 view .LVU60
 262 002c 01A9     		add	r1, sp, #4
 263 002e 05A8     		add	r0, sp, #20
 264 0030 FFF7FEFF 		bl	cmp_read_str_size
 265              	.LVL29:
 266              		.loc 1 264 12 view .LVU61
 267 0034 18B3     		cbz	r0, .L16
 268              		.loc 1 267 9 is_stmt 1 view .LVU62
 269              		.loc 1 267 26 is_stmt 0 view .LVU63
 270 0036 02A8     		add	r0, sp, #8
 271 0038 FFF7FEFF 		bl	cmp_mem_access_get_pos
 272              	.LVL30:
 273              		.loc 1 268 46 view .LVU64
 274 003c 0199     		ldr	r1, [sp, #4]
 275              		.loc 1 267 26 view .LVU65
 276 003e 0546     		mov	r5, r0
 277              	.LVL31:
 278              		.loc 1 268 9 is_stmt 1 view .LVU66
 279 0040 0144     		add	r1, r1, r0
 280 0042 02A8     		add	r0, sp, #8
 281              	.LVL32:
 282              		.loc 1 268 9 is_stmt 0 view .LVU67
 283 0044 FFF7FEFF 		bl	cmp_mem_access_set_pos
 284              	.LVL33:
ARM GAS  /tmp/ccoK7Ufz.s 			page 6


 285              		.loc 1 269 9 is_stmt 1 view .LVU68
 286              		.loc 1 269 27 is_stmt 0 view .LVU69
 287 0048 2946     		mov	r1, r5
 288 004a 02A8     		add	r0, sp, #8
 289 004c FFF7FEFF 		bl	cmp_mem_access_get_ptr_at_pos
 290              	.LVL34:
 291 0050 0546     		mov	r5, r0
 292              	.LVL35:
 293              		.loc 1 270 30 view .LVU70
 294 0052 2068     		ldr	r0, [r4]
 295              	.LVL36:
 296              		.loc 1 270 9 is_stmt 1 view .LVU71
 297              		.loc 1 270 15 view .LVU72
 298 0054 78B1     		cbz	r0, .L20
 299              		.loc 1 271 17 is_stmt 0 view .LVU73
 300 0056 019E     		ldr	r6, [sp, #4]
 301 0058 02E0     		b	.L22
 302              	.L21:
 303              		.loc 1 277 13 is_stmt 1 view .LVU74
 304              	.LVL37:
 305              		.loc 1 270 15 view .LVU75
 306              		.loc 1 270 30 is_stmt 0 view .LVU76
 307 005a 54F80C0F 		ldr	r0, [r4, #12]!
 308              	.LVL38:
 309              		.loc 1 270 15 view .LVU77
 310 005e 50B1     		cbz	r0, .L20
 311              	.L22:
 312              		.loc 1 271 13 is_stmt 1 view .LVU78
 313              		.loc 1 271 17 is_stmt 0 view .LVU79
 314 0060 3246     		mov	r2, r6
 315 0062 2946     		mov	r1, r5
 316 0064 FFF7FEFF 		bl	strncmp
 317              	.LVL39:
 318              		.loc 1 271 16 view .LVU80
 319 0068 0028     		cmp	r0, #0
 320 006a F6D1     		bne	.L21
 321              		.loc 1 272 17 is_stmt 1 view .LVU81
 322              		.loc 1 272 21 is_stmt 0 view .LVU82
 323 006c D4E90131 		ldrd	r3, r1, [r4, #4]
 324 0070 05A8     		add	r0, sp, #20
 325 0072 9847     		blx	r3
 326              	.LVL40:
 327              		.loc 1 272 20 view .LVU83
 328 0074 18B9     		cbnz	r0, .L16
 329              	.L20:
 330              		.loc 1 272 20 view .LVU84
 331              	.LBE10:
 332              		.loc 1 262 31 is_stmt 1 discriminator 1 view .LVU85
 333              		.loc 1 262 5 is_stmt 0 discriminator 1 view .LVU86
 334 0076 009B     		ldr	r3, [sp]
 335              		.loc 1 262 32 discriminator 1 view .LVU87
 336 0078 0137     		adds	r7, r7, #1
 337              	.LVL41:
 338              		.loc 1 262 17 is_stmt 1 discriminator 1 view .LVU88
 339              		.loc 1 262 5 is_stmt 0 discriminator 1 view .LVU89
 340 007a BB42     		cmp	r3, r7
 341 007c D6D8     		bhi	.L23
ARM GAS  /tmp/ccoK7Ufz.s 			page 7


 342              	.LVL42:
 343              	.L16:
 344              		.loc 1 280 1 view .LVU90
 345 007e 044B     		ldr	r3, .L37
 346 0080 1A68     		ldr	r2, [r3]
 347 0082 099B     		ldr	r3, [sp, #36]
 348 0084 5A40     		eors	r2, r3, r2
 349 0086 01D1     		bne	.L36
 350 0088 0BB0     		add	sp, sp, #44
 351              		.cfi_remember_state
 352              		.cfi_def_cfa_offset 20
 353              		@ sp needed
 354 008a F0BD     		pop	{r4, r5, r6, r7, pc}
 355              	.LVL43:
 356              	.L36:
 357              		.cfi_restore_state
 358              		.loc 1 280 1 view .LVU91
 359 008c FFF7FEFF 		bl	__stack_chk_fail
 360              	.LVL44:
 361              	.L38:
 362              		.align	2
 363              	.L37:
 364 0090 00000000 		.word	.LC2
 365              		.cfi_endproc
 366              	.LFE267:
 367              		.size	datagram_dispatcher_cb, .-datagram_dispatcher_cb
 368              		.section	.rodata.comm_rx.str1.4,"aMS",%progbits,1
 369              		.align	2
 370              	.LC3:
 371 0000 7365745F 		.ascii	"set_led\000"
 371      6C656400 
 372              		.align	2
 373              	.LC4:
 374 0008 7365745F 		.ascii	"set_rgb_led\000"
 374      7267625F 
 374      6C656400 
 375              		.align	2
 376              	.LC5:
 377 0014 636F6D6D 		.ascii	"comm rx\000"
 377      20727800 
 378              		.section	.rodata.comm_rx.cst4,"aM",%progbits,4
 379              		.align	2
 380              	.LC6:
 381 0000 00000000 		.word	__stack_chk_guard
 382              		.section	.text.comm_rx,"ax",%progbits
 383              		.align	1
 384              		.p2align 4,,15
 385              		.syntax unified
 386              		.thumb
 387              		.thumb_func
 388              		.fpu fpv4-sp-d16
 389              		.type	comm_rx, %function
 390              	comm_rx:
 391              	.LVL45:
 392              	.LFB268:
 393              		.loc 1 287 1 is_stmt 1 view -0
 394              		.cfi_startproc
ARM GAS  /tmp/ccoK7Ufz.s 			page 8


 395              		@ args = 0, pretend = 0, frame = 56
 396              		@ frame_needed = 0, uses_anonymous_args = 0
 397              		.loc 1 287 1 is_stmt 0 view .LVU93
 398 0000 30B5     		push	{r4, r5, lr}
 399              		.cfi_def_cfa_offset 12
 400              		.cfi_offset 4, -12
 401              		.cfi_offset 5, -8
 402              		.cfi_offset 14, -4
 403              	.LBB11:
 404              	.LBB12:
 405              		.file 2 ".//ChibiOS//os/rt/include/chregistry.h"
 406              		.loc 2 135 11 view .LVU94
 407 0002 1C4A     		ldr	r2, .L43
 408              	.LBE12:
 409              	.LBE11:
 410              		.loc 1 291 31 view .LVU95
 411 0004 1C4B     		ldr	r3, .L43+4
 412              	.LBB17:
 413              	.LBB13:
 414              		.loc 2 135 11 view .LVU96
 415 0006 9169     		ldr	r1, [r2, #24]
 416              	.LBE13:
 417              	.LBE17:
 418              		.loc 1 291 31 view .LVU97
 419 0008 1C4A     		ldr	r2, .L43+8
 420              	.LBB18:
 421              	.LBB14:
 422              		.loc 2 135 30 view .LVU98
 423 000a 1D4D     		ldr	r5, .L43+12
 424              	.LBE14:
 425              	.LBE18:
 426              		.loc 1 287 1 view .LVU99
 427 000c DFF890C0 		ldr	ip, .L43+44
 428 0010 91B0     		sub	sp, sp, #68
 429              		.cfi_def_cfa_offset 80
 430              		.loc 1 287 1 view .LVU100
 431 0012 0446     		mov	r4, r0
 432              		.loc 1 291 31 view .LVU101
 433 0014 0993     		str	r3, [sp, #36]
 434 0016 0023     		movs	r3, #0
 435 0018 CDE90A24 		strd	r2, r4, [sp, #40]
 436 001c CDE90C33 		strd	r3, r3, [sp, #48]
 437              		.loc 1 303 5 view .LVU102
 438 0020 03A8     		add	r0, sp, #12
 439              	.LVL46:
 440              		.loc 1 291 31 view .LVU103
 441 0022 0E93     		str	r3, [sp, #56]
 442 0024 174A     		ldr	r2, .L43+16
 443              	.LBB19:
 444              	.LBB15:
 445              		.loc 2 135 30 view .LVU104
 446 0026 8D61     		str	r5, [r1, #24]
 447              	.LBE15:
 448              	.LBE19:
 449              		.loc 1 291 31 view .LVU105
 450 0028 0594     		str	r4, [sp, #20]
 451              		.loc 1 303 5 view .LVU106
ARM GAS  /tmp/ccoK7Ufz.s 			page 9


 452 002a 0090     		str	r0, [sp]
 453              		.loc 1 291 31 view .LVU107
 454 002c 1649     		ldr	r1, .L43+20
 455 002e 1748     		ldr	r0, .L43+24
 456 0030 0894     		str	r4, [sp, #32]
 457              		.loc 1 287 1 view .LVU108
 458 0032 DCF800C0 		ldr	ip, [ip]
 459 0036 CDF83CC0 		str	ip, [sp, #60]
 460 003a 4FF0000C 		mov	ip,#0
 461              		.loc 1 291 5 is_stmt 1 view .LVU109
 462              		.loc 1 297 5 view .LVU110
 463              		.loc 1 298 5 view .LVU111
 464              		.loc 1 300 5 view .LVU112
 465              	.LVL47:
 466              	.LBB20:
 467              	.LBI11:
 468              		.loc 2 132 20 view .LVU113
 469              	.LBB16:
 470              		.loc 2 135 3 view .LVU114
 471              		.loc 2 135 3 is_stmt 0 view .LVU115
 472              	.LBE16:
 473              	.LBE20:
 474              		.loc 1 302 5 is_stmt 1 view .LVU116
 475              		.loc 1 303 5 view .LVU117
 476              		.loc 1 291 31 is_stmt 0 view .LVU118
 477 003e 144D     		ldr	r5, .L43+28
 478 0040 0392     		str	r2, [sp, #12]
 479 0042 0491     		str	r1, [sp, #16]
 480 0044 0690     		str	r0, [sp, #24]
 481              		.loc 1 303 5 view .LVU119
 482 0046 134B     		ldr	r3, .L43+32
 483 0048 1349     		ldr	r1, .L43+36
 484 004a 1448     		ldr	r0, .L43+40
 485              		.loc 1 291 31 view .LVU120
 486 004c 0795     		str	r5, [sp, #28]
 487              		.loc 1 303 5 view .LVU121
 488 004e 4FF4FA62 		mov	r2, #2000
 489 0052 FFF7FEFF 		bl	serial_datagram_rcv_handler_init
 490              	.LVL48:
 491              	.LBB21:
 492              		.loc 1 310 9 view .LVU122
 493 0056 114D     		ldr	r5, .L43+40
 494              	.L40:
 495              	.LBE21:
 496              		.loc 1 308 5 is_stmt 1 discriminator 1 view .LVU123
 497              	.LBB22:
 498              		.loc 1 309 9 discriminator 1 view .LVU124
 499              		.loc 1 309 18 is_stmt 0 discriminator 1 view .LVU125
 500 0058 2368     		ldr	r3, [r4]
 501 005a 2046     		mov	r0, r4
 502 005c DB68     		ldr	r3, [r3, #12]
 503 005e 9847     		blx	r3
 504              	.LVL49:
 505              		.loc 1 310 9 discriminator 1 view .LVU126
 506 0060 0122     		movs	r2, #1
 507              		.loc 1 309 18 discriminator 1 view .LVU127
 508 0062 0346     		mov	r3, r0
ARM GAS  /tmp/ccoK7Ufz.s 			page 10


 509              		.loc 1 310 9 discriminator 1 view .LVU128
 510 0064 0DF10B01 		add	r1, sp, #11
 511 0068 2846     		mov	r0, r5
 512              		.loc 1 309 14 discriminator 1 view .LVU129
 513 006a 8DF80B30 		strb	r3, [sp, #11]
 514              		.loc 1 310 9 is_stmt 1 discriminator 1 view .LVU130
 515 006e FFF7FEFF 		bl	serial_datagram_receive
 516              	.LVL50:
 517              	.LBE22:
 518              		.loc 1 308 11 discriminator 1 view .LVU131
 519 0072 F1E7     		b	.L40
 520              	.L44:
 521              		.align	2
 522              	.L43:
 523 0074 00000000 		.word	ch
 524 0078 08000000 		.word	.LC4
 525 007c 00000000 		.word	set_rgb_led_cb
 526 0080 14000000 		.word	.LC5
 527 0084 00000000 		.word	.LC0
 528 0088 00000000 		.word	ping_cb
 529 008c 00000000 		.word	.LC3
 530 0090 00000000 		.word	set_led_cb
 531 0094 00000000 		.word	datagram_dispatcher_cb
 532 0098 00000000 		.word	.LANCHOR4
 533 009c 00000000 		.word	.LANCHOR5
 534 00a0 00000000 		.word	.LC6
 535              		.cfi_endproc
 536              	.LFE268:
 537              		.size	comm_rx, .-comm_rx
 538              		.section	.rodata._stream_values_sndfn.cst4,"aM",%progbits,4
 539              		.align	2
 540              	.LC7:
 541 0000 00000000 		.word	__stack_chk_guard
 542              		.section	.text._stream_values_sndfn,"ax",%progbits
 543              		.align	1
 544              		.p2align 4,,15
 545              		.syntax unified
 546              		.thumb
 547              		.thumb_func
 548              		.fpu fpv4-sp-d16
 549              		.type	_stream_values_sndfn, %function
 550              	_stream_values_sndfn:
 551              	.LVL51:
 552              	.LFB259:
 553              		.loc 1 67 1 view -0
 554              		.cfi_startproc
 555              		@ args = 0, pretend = 0, frame = 8
 556              		@ frame_needed = 0, uses_anonymous_args = 0
 557              		.loc 1 67 1 is_stmt 0 view .LVU133
 558 0000 00B5     		push	{lr}
 559              		.cfi_def_cfa_offset 4
 560              		.cfi_offset 14, -4
 561 0002 104B     		ldr	r3, .L51
 562 0004 83B0     		sub	sp, sp, #12
 563              		.cfi_def_cfa_offset 16
 564              		.loc 1 67 1 view .LVU134
 565 0006 1B68     		ldr	r3, [r3]
ARM GAS  /tmp/ccoK7Ufz.s 			page 11


 566 0008 0193     		str	r3, [sp, #4]
 567 000a 4FF00003 		mov	r3,#0
 568              		.loc 1 68 5 is_stmt 1 view .LVU135
 569              		.loc 1 68 8 is_stmt 0 view .LVU136
 570 000e 72B1     		cbz	r2, .L45
 571              	.LVL52:
 572              	.LBB25:
 573              	.LBI25:
 574              		.loc 1 66 13 is_stmt 1 view .LVU137
 575              	.LBB26:
 576              		.loc 1 69 9 view .LVU138
 577 0010 DFF830C0 		ldr	ip, .L51
 578 0014 DCF800E0 		ldr	lr, [ip]
 579 0018 DDF804C0 		ldr	ip, [sp, #4]
 580 001c 9CEA0E0E 		eors	lr, ip, lr
 581 0020 0DD1     		bne	.L50
 582 0022 0368     		ldr	r3, [r0]
 583 0024 1B68     		ldr	r3, [r3]
 584              	.LBE26:
 585              	.LBE25:
 586              		.loc 1 71 1 is_stmt 0 view .LVU139
 587 0026 03B0     		add	sp, sp, #12
 588              		.cfi_remember_state
 589              		.cfi_def_cfa_offset 4
 590              		@ sp needed
 591 0028 5DF804EB 		ldr	lr, [sp], #4
 592              		.cfi_restore 14
 593              		.cfi_def_cfa_offset 0
 594              	.LBB28:
 595              	.LBB27:
 596              		.loc 1 69 9 view .LVU140
 597 002c 1847     		bx	r3
 598              	.LVL53:
 599              	.L45:
 600              		.cfi_restore_state
 601              		.loc 1 69 9 view .LVU141
 602              	.LBE27:
 603              	.LBE28:
 604              		.loc 1 71 1 view .LVU142
 605 002e 054B     		ldr	r3, .L51
 606 0030 1A68     		ldr	r2, [r3]
 607 0032 019B     		ldr	r3, [sp, #4]
 608 0034 5A40     		eors	r2, r3, r2
 609              	.LVL54:
 610              		.loc 1 71 1 view .LVU143
 611 0036 02D1     		bne	.L50
 612 0038 03B0     		add	sp, sp, #12
 613              		.cfi_remember_state
 614              		.cfi_def_cfa_offset 4
 615              		@ sp needed
 616 003a 5DF804FB 		ldr	pc, [sp], #4
 617              	.L50:
 618              		.cfi_restore_state
 619 003e FFF7FEFF 		bl	__stack_chk_fail
 620              	.LVL55:
 621              	.L52:
 622              		.loc 1 71 1 view .LVU144
ARM GAS  /tmp/ccoK7Ufz.s 			page 12


 623 0042 00BF     		.align	2
 624              	.L51:
 625 0044 00000000 		.word	.LC7
 626              		.cfi_endproc
 627              	.LFE259:
 628              		.size	_stream_values_sndfn, .-_stream_values_sndfn
 629              		.section	.rodata.set_led_cb.cst4,"aM",%progbits,4
 630              		.align	2
 631              	.LC8:
 632 0000 00000000 		.word	__stack_chk_guard
 633              		.section	.text.set_led_cb,"ax",%progbits
 634              		.align	1
 635              		.p2align 4,,15
 636              		.global	set_led_cb
 637              		.syntax unified
 638              		.thumb
 639              		.thumb_func
 640              		.fpu fpv4-sp-d16
 641              		.type	set_led_cb, %function
 642              	set_led_cb:
 643              	.LVL56:
 644              	.LFB265:
 645              		.loc 1 214 1 is_stmt 1 view -0
 646              		.cfi_startproc
 647              		@ args = 0, pretend = 0, frame = 16
 648              		@ frame_needed = 0, uses_anonymous_args = 0
 649              		.loc 1 214 1 is_stmt 0 view .LVU146
 650 0000 10B5     		push	{r4, lr}
 651              		.cfi_def_cfa_offset 8
 652              		.cfi_offset 4, -8
 653              		.cfi_offset 14, -4
 654 0002 164B     		ldr	r3, .L67
 655 0004 84B0     		sub	sp, sp, #16
 656              		.cfi_def_cfa_offset 24
 657              		.loc 1 220 8 view .LVU147
 658 0006 02A9     		add	r1, sp, #8
 659              	.LVL57:
 660              		.loc 1 214 1 view .LVU148
 661 0008 1B68     		ldr	r3, [r3]
 662 000a 0393     		str	r3, [sp, #12]
 663 000c 4FF00003 		mov	r3,#0
 664              		.loc 1 215 5 is_stmt 1 view .LVU149
 665              		.loc 1 216 5 view .LVU150
 666              		.loc 1 217 5 view .LVU151
 667              		.loc 1 218 5 view .LVU152
 668              		.loc 1 220 5 view .LVU153
 669              		.loc 1 214 1 is_stmt 0 view .LVU154
 670 0010 0446     		mov	r4, r0
 671              		.loc 1 220 8 view .LVU155
 672 0012 FFF7FEFF 		bl	cmp_read_array
 673              	.LVL58:
 674              		.loc 1 220 7 view .LVU156
 675 0016 10B1     		cbz	r0, .L55
 676              		.loc 1 220 35 discriminator 1 view .LVU157
 677 0018 029B     		ldr	r3, [sp, #8]
 678 001a 022B     		cmp	r3, #2
 679 001c 07D0     		beq	.L65
ARM GAS  /tmp/ccoK7Ufz.s 			page 13


 680              	.L55:
 681              		.loc 1 223 5 is_stmt 1 view .LVU158
 682              		.loc 1 224 1 is_stmt 0 view .LVU159
 683 001e 0F4B     		ldr	r3, .L67
 684 0020 1A68     		ldr	r2, [r3]
 685 0022 039B     		ldr	r3, [sp, #12]
 686 0024 5A40     		eors	r2, r3, r2
 687 0026 17D1     		bne	.L66
 688 0028 0020     		movs	r0, #0
 689 002a 04B0     		add	sp, sp, #16
 690              		.cfi_remember_state
 691              		.cfi_def_cfa_offset 8
 692              		@ sp needed
 693 002c 10BD     		pop	{r4, pc}
 694              	.LVL59:
 695              	.L65:
 696              		.cfi_restore_state
 697              	.LBB31:
 698              	.LBI31:
 699              		.loc 1 213 5 is_stmt 1 view .LVU160
 700              	.LBB32:
 701              		.loc 1 220 51 is_stmt 0 view .LVU161
 702 002e 0DF10601 		add	r1, sp, #6
 703 0032 2046     		mov	r0, r4
 704 0034 FFF7FEFF 		bl	cmp_read_uchar
 705              	.LVL60:
 706              		.loc 1 220 48 view .LVU162
 707 0038 0028     		cmp	r0, #0
 708 003a F0D0     		beq	.L55
 709              		.loc 1 220 80 view .LVU163
 710 003c 2046     		mov	r0, r4
 711 003e 0DF10701 		add	r1, sp, #7
 712 0042 FFF7FEFF 		bl	cmp_read_uchar
 713              	.LVL61:
 714              		.loc 1 220 77 view .LVU164
 715 0046 0028     		cmp	r0, #0
 716 0048 E9D0     		beq	.L55
 717              		.loc 1 221 9 is_stmt 1 view .LVU165
 718 004a 9DF80710 		ldrb	r1, [sp, #7]	@ zero_extendqisi2
 719 004e 9DF80600 		ldrb	r0, [sp, #6]	@ zero_extendqisi2
 720 0052 FFF7FEFF 		bl	set_led
 721              	.LVL62:
 722 0056 E2E7     		b	.L55
 723              	.LVL63:
 724              	.L66:
 725              		.loc 1 221 9 is_stmt 0 view .LVU166
 726              	.LBE32:
 727              	.LBE31:
 728              		.loc 1 224 1 view .LVU167
 729 0058 FFF7FEFF 		bl	__stack_chk_fail
 730              	.LVL64:
 731              	.L68:
 732              		.align	2
 733              	.L67:
 734 005c 00000000 		.word	.LC8
 735              		.cfi_endproc
 736              	.LFE265:
ARM GAS  /tmp/ccoK7Ufz.s 			page 14


 737              		.size	set_led_cb, .-set_led_cb
 738              		.section	.rodata.set_rgb_led_cb.cst4,"aM",%progbits,4
 739              		.align	2
 740              	.LC9:
 741 0000 00000000 		.word	__stack_chk_guard
 742              		.section	.text.set_rgb_led_cb,"ax",%progbits
 743              		.align	1
 744              		.p2align 4,,15
 745              		.global	set_rgb_led_cb
 746              		.syntax unified
 747              		.thumb
 748              		.thumb_func
 749              		.fpu fpv4-sp-d16
 750              		.type	set_rgb_led_cb, %function
 751              	set_rgb_led_cb:
 752              	.LVL65:
 753              	.LFB266:
 754              		.loc 1 230 1 is_stmt 1 view -0
 755              		.cfi_startproc
 756              		@ args = 0, pretend = 0, frame = 16
 757              		@ frame_needed = 0, uses_anonymous_args = 0
 758              		.loc 1 230 1 is_stmt 0 view .LVU169
 759 0000 10B5     		push	{r4, lr}
 760              		.cfi_def_cfa_offset 8
 761              		.cfi_offset 4, -8
 762              		.cfi_offset 14, -4
 763 0002 1F4B     		ldr	r3, .L89
 764 0004 84B0     		sub	sp, sp, #16
 765              		.cfi_def_cfa_offset 24
 766              		.loc 1 238 8 view .LVU170
 767 0006 02A9     		add	r1, sp, #8
 768              	.LVL66:
 769              		.loc 1 230 1 view .LVU171
 770 0008 1B68     		ldr	r3, [r3]
 771 000a 0393     		str	r3, [sp, #12]
 772 000c 4FF00003 		mov	r3,#0
 773              		.loc 1 231 5 is_stmt 1 view .LVU172
 774              		.loc 1 232 5 view .LVU173
 775              		.loc 1 233 5 view .LVU174
 776              		.loc 1 234 5 view .LVU175
 777              		.loc 1 235 5 view .LVU176
 778              		.loc 1 236 5 view .LVU177
 779              		.loc 1 238 5 view .LVU178
 780              		.loc 1 230 1 is_stmt 0 view .LVU179
 781 0010 0446     		mov	r4, r0
 782              		.loc 1 238 8 view .LVU180
 783 0012 FFF7FEFF 		bl	cmp_read_array
 784              	.LVL67:
 785              		.loc 1 238 7 view .LVU181
 786 0016 10B1     		cbz	r0, .L71
 787              		.loc 1 238 35 discriminator 1 view .LVU182
 788 0018 029B     		ldr	r3, [sp, #8]
 789 001a 042B     		cmp	r3, #4
 790 001c 07D0     		beq	.L87
 791              	.L71:
 792              		.loc 1 243 5 is_stmt 1 view .LVU183
 793              		.loc 1 244 1 is_stmt 0 view .LVU184
ARM GAS  /tmp/ccoK7Ufz.s 			page 15


 794 001e 184B     		ldr	r3, .L89
 795 0020 1A68     		ldr	r2, [r3]
 796 0022 039B     		ldr	r3, [sp, #12]
 797 0024 5A40     		eors	r2, r3, r2
 798 0026 28D1     		bne	.L88
 799 0028 0020     		movs	r0, #0
 800 002a 04B0     		add	sp, sp, #16
 801              		.cfi_remember_state
 802              		.cfi_def_cfa_offset 8
 803              		@ sp needed
 804 002c 10BD     		pop	{r4, pc}
 805              	.LVL68:
 806              	.L87:
 807              		.cfi_restore_state
 808              	.LBB35:
 809              	.LBI35:
 810              		.loc 1 229 5 is_stmt 1 view .LVU185
 811              	.LBB36:
 812              		.loc 1 238 52 is_stmt 0 view .LVU186
 813 002e 01A9     		add	r1, sp, #4
 814 0030 2046     		mov	r0, r4
 815 0032 FFF7FEFF 		bl	cmp_read_uchar
 816              	.LVL69:
 817              		.loc 1 238 49 view .LVU187
 818 0036 0028     		cmp	r0, #0
 819 0038 F1D0     		beq	.L71
 820              		.loc 1 239 12 view .LVU188
 821 003a 0DF10501 		add	r1, sp, #5
 822 003e 2046     		mov	r0, r4
 823 0040 FFF7FEFF 		bl	cmp_read_uchar
 824              	.LVL70:
 825              		.loc 1 239 9 view .LVU189
 826 0044 0028     		cmp	r0, #0
 827 0046 EAD0     		beq	.L71
 828              		.loc 1 239 41 view .LVU190
 829 0048 0DF10601 		add	r1, sp, #6
 830 004c 2046     		mov	r0, r4
 831 004e FFF7FEFF 		bl	cmp_read_uchar
 832              	.LVL71:
 833              		.loc 1 239 38 view .LVU191
 834 0052 0028     		cmp	r0, #0
 835 0054 E3D0     		beq	.L71
 836              		.loc 1 239 72 view .LVU192
 837 0056 2046     		mov	r0, r4
 838 0058 0DF10701 		add	r1, sp, #7
 839 005c FFF7FEFF 		bl	cmp_read_uchar
 840              	.LVL72:
 841              		.loc 1 239 69 view .LVU193
 842 0060 0028     		cmp	r0, #0
 843 0062 DCD0     		beq	.L71
 844              		.loc 1 241 9 is_stmt 1 view .LVU194
 845 0064 9DF80730 		ldrb	r3, [sp, #7]	@ zero_extendqisi2
 846 0068 9DF80620 		ldrb	r2, [sp, #6]	@ zero_extendqisi2
 847 006c 9DF80510 		ldrb	r1, [sp, #5]	@ zero_extendqisi2
 848 0070 9DF80400 		ldrb	r0, [sp, #4]	@ zero_extendqisi2
 849 0074 FFF7FEFF 		bl	set_rgb_led
 850              	.LVL73:
ARM GAS  /tmp/ccoK7Ufz.s 			page 16


 851 0078 D1E7     		b	.L71
 852              	.LVL74:
 853              	.L88:
 854              		.loc 1 241 9 is_stmt 0 view .LVU195
 855              	.LBE36:
 856              	.LBE35:
 857              		.loc 1 244 1 view .LVU196
 858 007a FFF7FEFF 		bl	__stack_chk_fail
 859              	.LVL75:
 860              	.L90:
 861 007e 00BF     		.align	2
 862              	.L89:
 863 0080 00000000 		.word	.LC9
 864              		.cfi_endproc
 865              	.LFE266:
 866              		.size	set_rgb_led_cb, .-set_rgb_led_cb
 867              		.section	.rodata.comm_tx_stream.str1.4,"aMS",%progbits,1
 868              		.align	2
 869              	.LC10:
 870 0000 2F696D75 		.ascii	"/imu\000"
 870      00
 871 0005 000000   		.align	2
 872              	.LC11:
 873 0008 64697374 		.ascii	"dist\000"
 873      00
 874 000d 000000   		.align	2
 875              	.LC12:
 876 0010 62617474 		.ascii	"batt\000"
 876      00
 877 0015 000000   		.align	2
 878              	.LC13:
 879 0018 74696D65 		.ascii	"time\000"
 879      00
 880 001d 000000   		.align	2
 881              	.LC14:
 882 0020 61636300 		.ascii	"acc\000"
 883              		.align	2
 884              	.LC15:
 885 0024 6779726F 		.ascii	"gyro\000"
 885      00
 886              		.section	.rodata.comm_tx_stream.cst4,"aM",%progbits,4
 887              		.align	2
 888              	.LC16:
 889 0000 00000000 		.word	__stack_chk_guard
 890              		.section	.text.comm_tx_stream,"ax",%progbits
 891              		.align	1
 892              		.p2align 4,,15
 893              		.syntax unified
 894              		.thumb
 895              		.thumb_func
 896              		.fpu fpv4-sp-d16
 897              		.type	comm_tx_stream, %function
 898              	comm_tx_stream:
 899              	.LVL76:
 900              	.LFB263:
 901              		.loc 1 139 1 is_stmt 1 view -0
 902              		.cfi_startproc
ARM GAS  /tmp/ccoK7Ufz.s 			page 17


 903              		@ args = 0, pretend = 0, frame = 88
 904              		@ frame_needed = 0, uses_anonymous_args = 0
 905              		.loc 1 139 1 is_stmt 0 view .LVU198
 906 0000 2DE9F04F 		push	{r4, r5, r6, r7, r8, r9, r10, fp, lr}
 907              		.cfi_def_cfa_offset 36
 908              		.cfi_offset 4, -36
 909              		.cfi_offset 5, -32
 910              		.cfi_offset 6, -28
 911              		.cfi_offset 7, -24
 912              		.cfi_offset 8, -20
 913              		.cfi_offset 9, -16
 914              		.cfi_offset 10, -12
 915              		.cfi_offset 11, -8
 916              		.cfi_offset 14, -4
 917 0004 2DED028B 		vpush.64	{d8}
 918              		.cfi_def_cfa_offset 44
 919              		.cfi_offset 80, -44
 920              		.cfi_offset 81, -40
 921 0008 6B4B     		ldr	r3, .L120
 922              		.loc 1 142 37 view .LVU199
 923 000a 6C49     		ldr	r1, .L120+4
 924 000c DFF8DC91 		ldr	r9, .L120+52
 925              		.loc 1 152 9 view .LVU200
 926 0010 6B4E     		ldr	r6, .L120+8
 927 0012 6C4D     		ldr	r5, .L120+12
 928 0014 6C4C     		ldr	r4, .L120+16
 929              	.LBB45:
 930              	.LBB46:
 931              		.loc 1 117 19 view .LVU201
 932 0016 DFF8D8A1 		ldr	r10, .L120+56
 933              		.loc 1 109 11 view .LVU202
 934 001a 9FED6C8A 		vldr.32	s16, .L120+20
 935              	.LBE46:
 936              	.LBE45:
 937              		.loc 1 139 1 view .LVU203
 938 001e 97B0     		sub	sp, sp, #92
 939              		.cfi_def_cfa_offset 136
 940              		.loc 1 139 1 view .LVU204
 941 0020 0746     		mov	r7, r0
 942              		.loc 1 142 37 view .LVU205
 943 0022 6B48     		ldr	r0, .L120+24
 944              	.LVL77:
 945              		.loc 1 139 1 view .LVU206
 946 0024 1B68     		ldr	r3, [r3]
 947 0026 1593     		str	r3, [sp, #84]
 948 0028 4FF00003 		mov	r3,#0
 949              		.loc 1 140 5 is_stmt 1 view .LVU207
 950              	.LVL78:
 951              		.loc 1 142 5 view .LVU208
 952              		.loc 1 142 37 is_stmt 0 view .LVU209
 953 002c FFF7FEFF 		bl	messagebus_find_topic_blocking
 954              	.LVL79:
 955 0030 8046     		mov	r8, r0
 956              	.LVL80:
 957              	.L98:
 958              		.loc 1 143 5 is_stmt 1 view .LVU210
 959              		.loc 1 145 5 view .LVU211
ARM GAS  /tmp/ccoK7Ufz.s 			page 18


 960              		.loc 1 146 5 view .LVU212
 961              		.loc 1 147 5 view .LVU213
 962              		.loc 1 148 5 view .LVU214
 963              		.loc 1 150 9 view .LVU215
 964 0032 5022     		movs	r2, #80
 965 0034 01A9     		add	r1, sp, #4
 966 0036 4046     		mov	r0, r8
 967 0038 FFF7FEFF 		bl	messagebus_topic_wait
 968              	.LVL81:
 969              		.loc 1 152 9 view .LVU216
 970 003c 2946     		mov	r1, r5
 971 003e 2046     		mov	r0, r4
 972 0040 6423     		movs	r3, #100
 973 0042 3246     		mov	r2, r6
 974 0044 FFF7FEFF 		bl	cmp_mem_access_init
 975              	.LVL82:
 976              		.loc 1 153 9 view .LVU217
 977              	.LBB52:
 978              	.LBI45:
 979              		.loc 1 106 12 view .LVU218
 980              	.LBB51:
 981              		.loc 1 109 5 view .LVU219
 982              	.LBB47:
 983              	.LBI47:
 984              		.file 3 ".//ChibiOS//os/rt/include/chvt.h"
 985              		.loc 3 228 25 view .LVU220
 986              	.LBB48:
 987              		.loc 3 231 3 view .LVU221
 988              	.LBE48:
 989              	.LBE47:
 990              		.loc 1 115 19 is_stmt 0 view .LVU222
 991 0048 0321     		movs	r1, #3
 992 004a 2046     		mov	r0, r4
 993              	.LBB50:
 994              	.LBB49:
 995              		.loc 3 231 19 view .LVU223
 996 004c D9F828B0 		ldr	fp, [r9, #40]
 997              	.LVL83:
 998              		.loc 3 231 19 view .LVU224
 999              	.LBE49:
 1000              	.LBE50:
 1001              		.loc 1 113 5 is_stmt 1 view .LVU225
 1002              		.loc 1 115 5 view .LVU226
 1003              		.loc 1 115 19 is_stmt 0 view .LVU227
 1004 0050 FFF7FEFF 		bl	cmp_write_map
 1005              	.LVL84:
 1006              		.loc 1 115 15 view .LVU228
 1007 0054 0028     		cmp	r0, #0
 1008 0056 5DD0     		beq	.L93
 1009              		.loc 1 116 5 is_stmt 1 view .LVU229
 1010              	.LVL85:
 1011              		.loc 1 117 5 view .LVU230
 1012              		.loc 1 117 19 is_stmt 0 view .LVU231
 1013 0058 0422     		movs	r2, #4
 1014 005a 5146     		mov	r1, r10
 1015 005c 2046     		mov	r0, r4
 1016 005e FFF7FEFF 		bl	cmp_write_str
ARM GAS  /tmp/ccoK7Ufz.s 			page 19


 1017              	.LVL86:
 1018              		.loc 1 117 15 view .LVU232
 1019 0062 0028     		cmp	r0, #0
 1020 0064 56D0     		beq	.L93
 1021              		.loc 1 118 5 is_stmt 1 view .LVU233
 1022              		.loc 1 118 19 is_stmt 0 view .LVU234
 1023 0066 0321     		movs	r1, #3
 1024 0068 2046     		mov	r0, r4
 1025 006a FFF7FEFF 		bl	cmp_write_array
 1026              	.LVL87:
 1027              		.loc 1 118 15 view .LVU235
 1028 006e 0028     		cmp	r0, #0
 1029 0070 50D0     		beq	.L93
 1030              		.loc 1 119 5 is_stmt 1 view .LVU236
 1031              		.loc 1 119 19 is_stmt 0 view .LVU237
 1032 0072 9DED040A 		vldr.32	s0, [sp, #16]
 1033 0076 2046     		mov	r0, r4
 1034 0078 FFF7FEFF 		bl	cmp_write_float
 1035              	.LVL88:
 1036              		.loc 1 119 15 view .LVU238
 1037 007c 0028     		cmp	r0, #0
 1038 007e 49D0     		beq	.L93
 1039              		.loc 1 120 5 is_stmt 1 view .LVU239
 1040              		.loc 1 120 19 is_stmt 0 view .LVU240
 1041 0080 9DED050A 		vldr.32	s0, [sp, #20]
 1042 0084 2046     		mov	r0, r4
 1043 0086 FFF7FEFF 		bl	cmp_write_float
 1044              	.LVL89:
 1045              		.loc 1 120 15 view .LVU241
 1046 008a 0028     		cmp	r0, #0
 1047 008c 42D0     		beq	.L93
 1048              		.loc 1 121 5 is_stmt 1 view .LVU242
 1049              		.loc 1 121 19 is_stmt 0 view .LVU243
 1050 008e 9DED060A 		vldr.32	s0, [sp, #24]
 1051 0092 2046     		mov	r0, r4
 1052 0094 FFF7FEFF 		bl	cmp_write_float
 1053              	.LVL90:
 1054              		.loc 1 121 15 view .LVU244
 1055 0098 0028     		cmp	r0, #0
 1056 009a 3BD0     		beq	.L93
 1057              		.loc 1 122 5 is_stmt 1 view .LVU245
 1058              	.LVL91:
 1059              		.loc 1 123 5 view .LVU246
 1060              		.loc 1 123 19 is_stmt 0 view .LVU247
 1061 009c 4D49     		ldr	r1, .L120+28
 1062 009e 0322     		movs	r2, #3
 1063 00a0 2046     		mov	r0, r4
 1064 00a2 FFF7FEFF 		bl	cmp_write_str
 1065              	.LVL92:
 1066              		.loc 1 123 15 view .LVU248
 1067 00a6 A8B3     		cbz	r0, .L93
 1068              		.loc 1 124 5 is_stmt 1 view .LVU249
 1069              		.loc 1 124 19 is_stmt 0 view .LVU250
 1070 00a8 0321     		movs	r1, #3
 1071 00aa 2046     		mov	r0, r4
 1072 00ac FFF7FEFF 		bl	cmp_write_array
 1073              	.LVL93:
ARM GAS  /tmp/ccoK7Ufz.s 			page 20


 1074              		.loc 1 124 15 view .LVU251
 1075 00b0 80B3     		cbz	r0, .L93
 1076              		.loc 1 125 5 is_stmt 1 view .LVU252
 1077              		.loc 1 125 19 is_stmt 0 view .LVU253
 1078 00b2 9DED010A 		vldr.32	s0, [sp, #4]
 1079 00b6 2046     		mov	r0, r4
 1080 00b8 FFF7FEFF 		bl	cmp_write_float
 1081              	.LVL94:
 1082              		.loc 1 125 15 view .LVU254
 1083 00bc 50B3     		cbz	r0, .L93
 1084              		.loc 1 126 5 is_stmt 1 view .LVU255
 1085              		.loc 1 126 19 is_stmt 0 view .LVU256
 1086 00be 9DED020A 		vldr.32	s0, [sp, #8]
 1087 00c2 2046     		mov	r0, r4
 1088 00c4 FFF7FEFF 		bl	cmp_write_float
 1089              	.LVL95:
 1090              		.loc 1 126 15 view .LVU257
 1091 00c8 20B3     		cbz	r0, .L93
 1092              		.loc 1 127 5 is_stmt 1 view .LVU258
 1093              		.loc 1 127 19 is_stmt 0 view .LVU259
 1094 00ca 9DED030A 		vldr.32	s0, [sp, #12]
 1095 00ce 2046     		mov	r0, r4
 1096 00d0 FFF7FEFF 		bl	cmp_write_float
 1097              	.LVL96:
 1098              		.loc 1 127 15 view .LVU260
 1099 00d4 F0B1     		cbz	r0, .L93
 1100              		.loc 1 128 5 is_stmt 1 view .LVU261
 1101              	.LVL97:
 1102              		.loc 1 129 5 view .LVU262
 1103              		.loc 1 129 19 is_stmt 0 view .LVU263
 1104 00d6 4049     		ldr	r1, .L120+32
 1105 00d8 0422     		movs	r2, #4
 1106 00da 2046     		mov	r0, r4
 1107 00dc FFF7FEFF 		bl	cmp_write_str
 1108              	.LVL98:
 1109              		.loc 1 129 15 view .LVU264
 1110 00e0 C0B1     		cbz	r0, .L93
 1111              		.loc 1 130 5 is_stmt 1 view .LVU265
 1112              		.loc 1 109 15 is_stmt 0 view .LVU266
 1113 00e2 07EE90BA 		vmov	s15, fp	@ int
 1114 00e6 B8EE670A 		vcvt.f32.u32	s0, s15
 1115              	.LVL99:
 1116              		.loc 1 130 19 view .LVU267
 1117 00ea 2046     		mov	r0, r4
 1118 00ec 80EE080A 		vdiv.f32	s0, s0, s16
 1119              	.LVL100:
 1120              		.loc 1 130 19 view .LVU268
 1121 00f0 FFF7FEFF 		bl	cmp_write_float
 1122              	.LVL101:
 1123              		.loc 1 130 15 view .LVU269
 1124 00f4 70B1     		cbz	r0, .L93
 1125              		.loc 1 131 5 is_stmt 1 view .LVU270
 1126              	.LVL102:
 1127              		.loc 1 131 5 is_stmt 0 view .LVU271
 1128              	.LBE51:
 1129              	.LBE52:
 1130              		.loc 1 154 13 is_stmt 1 view .LVU272
ARM GAS  /tmp/ccoK7Ufz.s 			page 21


 1131 00f6 3948     		ldr	r0, .L120+36
 1132 00f8 FFF7FEFF 		bl	chMtxLock
 1133              	.LVL103:
 1134              		.loc 1 155 13 view .LVU273
 1135 00fc 2846     		mov	r0, r5
 1136 00fe FFF7FEFF 		bl	cmp_mem_access_get_pos
 1137              	.LVL104:
 1138 0102 374A     		ldr	r2, .L120+40
 1139 0104 0146     		mov	r1, r0
 1140 0106 3B46     		mov	r3, r7
 1141 0108 3046     		mov	r0, r6
 1142 010a FFF7FEFF 		bl	serial_datagram_send
 1143              	.LVL105:
 1144              		.loc 1 156 13 view .LVU274
 1145 010e 3348     		ldr	r0, .L120+36
 1146 0110 FFF7FEFF 		bl	chMtxUnlock
 1147              	.LVL106:
 1148              	.L93:
 1149              		.loc 1 158 9 view .LVU275
 1150 0114 2946     		mov	r1, r5
 1151 0116 2046     		mov	r0, r4
 1152 0118 6423     		movs	r3, #100
 1153 011a 3246     		mov	r2, r6
 1154 011c FFF7FEFF 		bl	cmp_mem_access_init
 1155              	.LVL107:
 1156              		.loc 1 159 9 view .LVU276
 1157              	.LBB53:
 1158              	.LBI53:
 1159              		.loc 1 91 12 view .LVU277
 1160              	.LBB54:
 1161              		.loc 1 94 5 view .LVU278
 1162              		.loc 1 96 5 view .LVU279
 1163              		.loc 1 96 19 is_stmt 0 view .LVU280
 1164 0120 0121     		movs	r1, #1
 1165 0122 2046     		mov	r0, r4
 1166 0124 FFF7FEFF 		bl	cmp_write_map
 1167              	.LVL108:
 1168              		.loc 1 96 15 view .LVU281
 1169 0128 D0B1     		cbz	r0, .L95
 1170              		.loc 1 97 5 is_stmt 1 view .LVU282
 1171              	.LVL109:
 1172              		.loc 1 98 5 view .LVU283
 1173              		.loc 1 98 19 is_stmt 0 view .LVU284
 1174 012a 2E49     		ldr	r1, .L120+44
 1175 012c 0422     		movs	r2, #4
 1176 012e 2046     		mov	r0, r4
 1177 0130 FFF7FEFF 		bl	cmp_write_str
 1178              	.LVL110:
 1179              		.loc 1 98 15 view .LVU285
 1180 0134 A0B1     		cbz	r0, .L95
 1181              		.loc 1 99 5 is_stmt 1 view .LVU286
 1182              		.loc 1 99 19 is_stmt 0 view .LVU287
 1183 0136 FFF7FEFF 		bl	get_battery_voltage
 1184              	.LVL111:
 1185 013a 2046     		mov	r0, r4
 1186 013c FFF7FEFF 		bl	cmp_write_float
 1187              	.LVL112:
ARM GAS  /tmp/ccoK7Ufz.s 			page 22


 1188              		.loc 1 99 15 view .LVU288
 1189 0140 70B1     		cbz	r0, .L95
 1190              		.loc 1 100 5 is_stmt 1 view .LVU289
 1191              	.LVL113:
 1192              		.loc 1 100 5 is_stmt 0 view .LVU290
 1193              	.LBE54:
 1194              	.LBE53:
 1195              		.loc 1 160 13 is_stmt 1 view .LVU291
 1196 0142 2648     		ldr	r0, .L120+36
 1197 0144 FFF7FEFF 		bl	chMtxLock
 1198              	.LVL114:
 1199              		.loc 1 161 13 view .LVU292
 1200 0148 2846     		mov	r0, r5
 1201 014a FFF7FEFF 		bl	cmp_mem_access_get_pos
 1202              	.LVL115:
 1203 014e 244A     		ldr	r2, .L120+40
 1204 0150 0146     		mov	r1, r0
 1205 0152 3B46     		mov	r3, r7
 1206 0154 3046     		mov	r0, r6
 1207 0156 FFF7FEFF 		bl	serial_datagram_send
 1208              	.LVL116:
 1209              		.loc 1 162 13 view .LVU293
 1210 015a 2048     		ldr	r0, .L120+36
 1211 015c FFF7FEFF 		bl	chMtxUnlock
 1212              	.LVL117:
 1213              	.L95:
 1214              		.loc 1 164 9 view .LVU294
 1215 0160 2946     		mov	r1, r5
 1216 0162 2046     		mov	r0, r4
 1217 0164 6423     		movs	r3, #100
 1218 0166 3246     		mov	r2, r6
 1219 0168 FFF7FEFF 		bl	cmp_mem_access_init
 1220              	.LVL118:
 1221              		.loc 1 165 9 view .LVU295
 1222              	.LBB55:
 1223              	.LBI55:
 1224              		.loc 1 76 12 view .LVU296
 1225              	.LBB56:
 1226              		.loc 1 79 5 view .LVU297
 1227              		.loc 1 81 5 view .LVU298
 1228              		.loc 1 81 19 is_stmt 0 view .LVU299
 1229 016c 0121     		movs	r1, #1
 1230 016e 2046     		mov	r0, r4
 1231 0170 FFF7FEFF 		bl	cmp_write_map
 1232              	.LVL119:
 1233              		.loc 1 81 15 view .LVU300
 1234 0174 D8B1     		cbz	r0, .L97
 1235              		.loc 1 82 5 is_stmt 1 view .LVU301
 1236              	.LVL120:
 1237              		.loc 1 83 5 view .LVU302
 1238              		.loc 1 83 19 is_stmt 0 view .LVU303
 1239 0176 1C49     		ldr	r1, .L120+48
 1240 0178 0422     		movs	r2, #4
 1241 017a 2046     		mov	r0, r4
 1242 017c FFF7FEFF 		bl	cmp_write_str
 1243              	.LVL121:
 1244              		.loc 1 83 15 view .LVU304
ARM GAS  /tmp/ccoK7Ufz.s 			page 23


 1245 0180 A8B1     		cbz	r0, .L97
 1246              		.loc 1 84 5 is_stmt 1 view .LVU305
 1247              		.loc 1 84 19 is_stmt 0 view .LVU306
 1248 0182 FFF7FEFF 		bl	VL53L0X_get_dist_mm
 1249              	.LVL122:
 1250 0186 0146     		mov	r1, r0
 1251 0188 2046     		mov	r0, r4
 1252 018a FFF7FEFF 		bl	cmp_write_u16
 1253              	.LVL123:
 1254              		.loc 1 84 15 view .LVU307
 1255 018e 70B1     		cbz	r0, .L97
 1256              		.loc 1 85 5 is_stmt 1 view .LVU308
 1257              	.LVL124:
 1258              		.loc 1 85 5 is_stmt 0 view .LVU309
 1259              	.LBE56:
 1260              	.LBE55:
 1261              		.loc 1 166 13 is_stmt 1 view .LVU310
 1262 0190 1248     		ldr	r0, .L120+36
 1263 0192 FFF7FEFF 		bl	chMtxLock
 1264              	.LVL125:
 1265              		.loc 1 167 13 view .LVU311
 1266 0196 2846     		mov	r0, r5
 1267 0198 FFF7FEFF 		bl	cmp_mem_access_get_pos
 1268              	.LVL126:
 1269 019c 104A     		ldr	r2, .L120+40
 1270 019e 0146     		mov	r1, r0
 1271 01a0 3B46     		mov	r3, r7
 1272 01a2 3046     		mov	r0, r6
 1273 01a4 FFF7FEFF 		bl	serial_datagram_send
 1274              	.LVL127:
 1275              		.loc 1 168 13 view .LVU312
 1276 01a8 0C48     		ldr	r0, .L120+36
 1277 01aa FFF7FEFF 		bl	chMtxUnlock
 1278              	.LVL128:
 1279              	.L97:
 1280              		.loc 1 171 9 view .LVU313
 1281 01ae 4FF4FA70 		mov	r0, #500
 1282 01b2 FFF7FEFF 		bl	chThdSleep
 1283              	.LVL129:
 1284              		.loc 1 148 11 view .LVU314
 1285              		.loc 1 150 9 is_stmt 0 view .LVU315
 1286 01b6 3CE7     		b	.L98
 1287              	.L121:
 1288              		.align	2
 1289              	.L120:
 1290 01b8 00000000 		.word	.LC16
 1291 01bc 00000000 		.word	.LC10
 1292 01c0 00000000 		.word	.LANCHOR6
 1293 01c4 00000000 		.word	.LANCHOR7
 1294 01c8 00000000 		.word	.LANCHOR8
 1295 01cc 00007A44 		.word	1148846080
 1296 01d0 00000000 		.word	bus
 1297 01d4 20000000 		.word	.LC14
 1298 01d8 18000000 		.word	.LC13
 1299 01dc 00000000 		.word	.LANCHOR3
 1300 01e0 00000000 		.word	_stream_values_sndfn
 1301 01e4 10000000 		.word	.LC12
ARM GAS  /tmp/ccoK7Ufz.s 			page 24


 1302 01e8 08000000 		.word	.LC11
 1303 01ec 00000000 		.word	ch
 1304 01f0 24000000 		.word	.LC15
 1305              		.cfi_endproc
 1306              	.LFE263:
 1307              		.size	comm_tx_stream, .-comm_tx_stream
 1308              		.section	.rodata.communication_start.cst4,"aM",%progbits,4
 1309              		.align	2
 1310              	.LC17:
 1311 0000 00000000 		.word	__stack_chk_guard
 1312              		.section	.text.communication_start,"ax",%progbits
 1313              		.align	1
 1314              		.p2align 4,,15
 1315              		.global	communication_start
 1316              		.syntax unified
 1317              		.thumb
 1318              		.thumb_func
 1319              		.fpu fpv4-sp-d16
 1320              		.type	communication_start, %function
 1321              	communication_start:
 1322              	.LVL130:
 1323              	.LFB269:
 1324              		.loc 1 316 1 is_stmt 1 view -0
 1325              		.cfi_startproc
 1326              		@ args = 0, pretend = 0, frame = 8
 1327              		@ frame_needed = 0, uses_anonymous_args = 0
 1328              		.loc 1 316 1 is_stmt 0 view .LVU317
 1329 0000 10B5     		push	{r4, lr}
 1330              		.cfi_def_cfa_offset 8
 1331              		.cfi_offset 4, -8
 1332              		.cfi_offset 14, -4
 1333 0002 114B     		ldr	r3, .L126
 1334 0004 84B0     		sub	sp, sp, #16
 1335              		.cfi_def_cfa_offset 24
 1336              		.loc 1 316 1 view .LVU318
 1337 0006 0446     		mov	r4, r0
 1338              		.loc 1 317 5 view .LVU319
 1339 0008 1048     		ldr	r0, .L126+4
 1340              	.LVL131:
 1341              		.loc 1 316 1 view .LVU320
 1342 000a 1B68     		ldr	r3, [r3]
 1343 000c 0393     		str	r3, [sp, #12]
 1344 000e 4FF00003 		mov	r3,#0
 1345              		.loc 1 317 5 is_stmt 1 view .LVU321
 1346 0012 FFF7FEFF 		bl	chMtxObjectInit
 1347              	.LVL132:
 1348              		.loc 1 318 5 view .LVU322
 1349 0016 0E4B     		ldr	r3, .L126+8
 1350 0018 0E48     		ldr	r0, .L126+12
 1351 001a 0094     		str	r4, [sp]
 1352 001c 0222     		movs	r2, #2
 1353 001e 4FF4AF61 		mov	r1, #1400
 1354 0022 FFF7FEFF 		bl	chThdCreateStatic
 1355              	.LVL133:
 1356              		.loc 1 319 5 view .LVU323
 1357 0026 0C4B     		ldr	r3, .L126+16
 1358 0028 0C48     		ldr	r0, .L126+20
ARM GAS  /tmp/ccoK7Ufz.s 			page 25


 1359 002a 0094     		str	r4, [sp]
 1360 002c 0222     		movs	r2, #2
 1361 002e 4FF4AF61 		mov	r1, #1400
 1362 0032 FFF7FEFF 		bl	chThdCreateStatic
 1363              	.LVL134:
 1364              		.loc 1 320 1 is_stmt 0 view .LVU324
 1365 0036 044B     		ldr	r3, .L126
 1366 0038 1A68     		ldr	r2, [r3]
 1367 003a 039B     		ldr	r3, [sp, #12]
 1368 003c 5A40     		eors	r2, r3, r2
 1369 003e 01D1     		bne	.L125
 1370 0040 04B0     		add	sp, sp, #16
 1371              		.cfi_remember_state
 1372              		.cfi_def_cfa_offset 8
 1373              		@ sp needed
 1374 0042 10BD     		pop	{r4, pc}
 1375              	.LVL135:
 1376              	.L125:
 1377              		.cfi_restore_state
 1378              		.loc 1 320 1 view .LVU325
 1379 0044 FFF7FEFF 		bl	__stack_chk_fail
 1380              	.LVL136:
 1381              	.L127:
 1382              		.align	2
 1383              	.L126:
 1384 0048 00000000 		.word	.LC17
 1385 004c 00000000 		.word	.LANCHOR3
 1386 0050 00000000 		.word	comm_tx_stream
 1387 0054 00000000 		.word	.LANCHOR9
 1388 0058 00000000 		.word	comm_rx
 1389 005c 00000000 		.word	.LANCHOR10
 1390              		.cfi_endproc
 1391              	.LFE269:
 1392              		.size	communication_start, .-communication_start
 1393              		.global	messagebus
 1394              		.section	.bss.cmp.13745,"aw",%nobits
 1395              		.align	2
 1396              		.set	.LANCHOR8,. + 0
 1397              		.type	cmp.13745, %object
 1398              		.size	cmp.13745, 16
 1399              	cmp.13745:
 1400 0000 00000000 		.space	16
 1400      00000000 
 1400      00000000 
 1400      00000000 
 1401              		.section	.bss.comm_rx_wa,"aw",%nobits
 1402              		.align	3
 1403              		.set	.LANCHOR10,. + 0
 1404              		.type	comm_rx_wa, %object
 1405              		.size	comm_rx_wa, 1400
 1406              	comm_rx_wa:
 1407 0000 00000000 		.space	1400
 1407      00000000 
 1407      00000000 
 1407      00000000 
 1407      00000000 
 1408              		.section	.bss.comm_tx_stream_wa,"aw",%nobits
ARM GAS  /tmp/ccoK7Ufz.s 			page 26


 1409              		.align	3
 1410              		.set	.LANCHOR9,. + 0
 1411              		.type	comm_tx_stream_wa, %object
 1412              		.size	comm_tx_stream_wa, 1400
 1413              	comm_tx_stream_wa:
 1414 0000 00000000 		.space	1400
 1414      00000000 
 1414      00000000 
 1414      00000000 
 1414      00000000 
 1415              		.section	.bss.dtgrm.13743,"aw",%nobits
 1416              		.align	2
 1417              		.set	.LANCHOR6,. + 0
 1418              		.type	dtgrm.13743, %object
 1419              		.size	dtgrm.13743, 100
 1420              	dtgrm.13743:
 1421 0000 00000000 		.space	100
 1421      00000000 
 1421      00000000 
 1421      00000000 
 1421      00000000 
 1422              		.section	.bss.mem.13744,"aw",%nobits
 1423              		.align	2
 1424              		.set	.LANCHOR7,. + 0
 1425              		.type	mem.13744, %object
 1426              		.size	mem.13744, 12
 1427              	mem.13744:
 1428 0000 00000000 		.space	12
 1428      00000000 
 1428      00000000 
 1429              		.section	.bss.messagebus,"aw",%nobits
 1430              		.align	2
 1431              		.type	messagebus, %object
 1432              		.size	messagebus, 12
 1433              	messagebus:
 1434 0000 00000000 		.space	12
 1434      00000000 
 1434      00000000 
 1435              		.section	.bss.rcv_buffer.13800,"aw",%nobits
 1436              		.align	2
 1437              		.set	.LANCHOR4,. + 0
 1438              		.type	rcv_buffer.13800, %object
 1439              		.size	rcv_buffer.13800, 2000
 1440              	rcv_buffer.13800:
 1441 0000 00000000 		.space	2000
 1441      00000000 
 1441      00000000 
 1441      00000000 
 1441      00000000 
 1442              		.section	.bss.rcv_handler.13799,"aw",%nobits
 1443              		.align	2
 1444              		.set	.LANCHOR5,. + 0
 1445              		.type	rcv_handler.13799, %object
 1446              		.size	rcv_handler.13799, 24
 1447              	rcv_handler.13799:
 1448 0000 00000000 		.space	24
 1448      00000000 
ARM GAS  /tmp/ccoK7Ufz.s 			page 27


 1448      00000000 
 1448      00000000 
 1448      00000000 
 1449              		.section	.bss.reply_buf,"aw",%nobits
 1450              		.align	2
 1451              		.set	.LANCHOR0,. + 0
 1452              		.type	reply_buf, %object
 1453              		.size	reply_buf, 100
 1454              	reply_buf:
 1455 0000 00000000 		.space	100
 1455      00000000 
 1455      00000000 
 1455      00000000 
 1455      00000000 
 1456              		.section	.bss.reply_cmp,"aw",%nobits
 1457              		.align	2
 1458              		.set	.LANCHOR2,. + 0
 1459              		.type	reply_cmp, %object
 1460              		.size	reply_cmp, 16
 1461              	reply_cmp:
 1462 0000 00000000 		.space	16
 1462      00000000 
 1462      00000000 
 1462      00000000 
 1463              		.section	.bss.reply_mem,"aw",%nobits
 1464              		.align	2
 1465              		.set	.LANCHOR1,. + 0
 1466              		.type	reply_mem, %object
 1467              		.size	reply_mem, 12
 1468              	reply_mem:
 1469 0000 00000000 		.space	12
 1469      00000000 
 1469      00000000 
 1470              		.section	.bss.send_lock,"aw",%nobits
 1471              		.align	2
 1472              		.set	.LANCHOR3,. + 0
 1473              		.type	send_lock, %object
 1474              		.size	send_lock, 20
 1475              	send_lock:
 1476 0000 00000000 		.space	20
 1476      00000000 
 1476      00000000 
 1476      00000000 
 1476      00000000 
 1477              		.text
 1478              	.Letext0:
 1479              		.file 4 "/usr/lib/gcc/arm-none-eabi/9.2.1/include/stddef.h"
 1480              		.file 5 "/usr/lib/gcc/arm-none-eabi/9.2.1/include/stdint.h"
 1481              		.file 6 ".//ChibiOS//os/rt/ports/ARMCMx/compilers/GCC/chtypes.h"
 1482              		.file 7 ".//ChibiOS//os/rt/include/chsystypes.h"
 1483              		.file 8 ".//ChibiOS//os/rt/include/chschd.h"
 1484              		.file 9 ".//ChibiOS//os/ext/CMSIS/include/core_cm4.h"
 1485              		.file 10 ".//ChibiOS//os/ext/CMSIS/ST/system_stm32f4xx.h"
 1486              		.file 11 ".//ChibiOS//os/ext/CMSIS/ST/stm32f407xx.h"
 1487              		.file 12 ".//ChibiOS//os/rt/ports/ARMCMx/chcore.h"
 1488              		.file 13 ".//ChibiOS//os/rt/ports/ARMCMx/chcore_v7m.h"
 1489              		.file 14 ".//ChibiOS//os/rt/include/chdebug.h"
ARM GAS  /tmp/ccoK7Ufz.s 			page 28


 1490              		.file 15 ".//ChibiOS//os/rt/include/chtm.h"
 1491              		.file 16 ".//ChibiOS//os/rt/include/chstats.h"
 1492              		.file 17 ".//ChibiOS//os/rt/include/chsem.h"
 1493              		.file 18 ".//ChibiOS//os/rt/include/chmtx.h"
 1494              		.file 19 ".//ChibiOS//os/rt/include/chevents.h"
 1495              		.file 20 ".//ChibiOS//os/rt/include/chqueues.h"
 1496              		.file 21 ".//ChibiOS//os/rt/include/chstreams.h"
 1497              		.file 22 ".//ChibiOS//os/hal/ports/STM32/STM32F4xx/stm32_dma.h"
 1498              		.file 23 ".//ChibiOS//os/hal/include/hal_ioblock.h"
 1499              		.file 24 ".//ChibiOS//os/hal/ports/STM32/LLD/GPIOv2/pal_lld.h"
 1500              		.file 25 ".//ChibiOS//os/hal/include/adc.h"
 1501              		.file 26 ".//ChibiOS//os/hal/ports/STM32/STM32F4xx/adc_lld.h"
 1502              		.file 27 ".//ChibiOS//os/hal/include/can.h"
 1503              		.file 28 ".//ChibiOS//os/hal/ports/STM32/LLD/can_lld.h"
 1504              		.file 29 ".//ChibiOS//os/hal/include/dac.h"
 1505              		.file 30 ".//ChibiOS//os/hal/ports/STM32/LLD/DACv1/dac_lld.h"
 1506              		.file 31 ".//ChibiOS//os/hal/include/ext.h"
 1507              		.file 32 ".//ChibiOS//os/hal/ports/STM32/LLD/ext_lld.h"
 1508              		.file 33 ".//ChibiOS//os/hal/include/gpt.h"
 1509              		.file 34 ".//ChibiOS//os/hal/ports/STM32/LLD/TIMv1/gpt_lld.h"
 1510              		.file 35 ".//ChibiOS//os/hal/ports/STM32/LLD/TIMv1/stm32_tim.h"
 1511              		.file 36 ".//ChibiOS//os/hal/include/i2c.h"
 1512              		.file 37 ".//ChibiOS//os/hal/ports/STM32/LLD/I2Cv1/i2c_lld.h"
 1513              		.file 38 ".//ChibiOS//os/hal/include/i2s.h"
 1514              		.file 39 ".//ChibiOS//os/hal/ports/STM32/LLD/SPIv1/i2s_lld.h"
 1515              		.file 40 ".//ChibiOS//os/hal/include/pwm.h"
 1516              		.file 41 ".//ChibiOS//os/hal/ports/STM32/LLD/TIMv1/pwm_lld.h"
 1517              		.file 42 ".//ChibiOS//os/hal/include/serial.h"
 1518              		.file 43 ".//ChibiOS//os/hal/ports/STM32/LLD/USARTv1/serial_lld.h"
 1519              		.file 44 ".//ChibiOS//os/hal/include/sdc.h"
 1520              		.file 45 ".//ChibiOS//os/hal/ports/STM32/LLD/sdc_lld.h"
 1521              		.file 46 ".//ChibiOS//os/hal/include/spi.h"
 1522              		.file 47 ".//ChibiOS//os/hal/ports/STM32/LLD/SPIv1/spi_lld.h"
 1523              		.file 48 ".//ChibiOS//os/hal/include/usb.h"
 1524              		.file 49 ".//ChibiOS//os/hal/ports/STM32/LLD/OTGv1/usb_lld.h"
 1525              		.file 50 ".//ChibiOS//os/hal/ports/STM32/LLD/OTGv1/stm32_otg.h"
 1526              		.file 51 "/usr/include/newlib/sys/_types.h"
 1527              		.file 52 "/usr/include/newlib/sys/reent.h"
 1528              		.file 53 "/usr/include/newlib/sys/lock.h"
 1529              		.file 54 "/usr/include/newlib/stdlib.h"
 1530              		.file 55 ".//src/cmp/cmp.h"
 1531              		.file 56 ".//src/cmp_mem_access/cmp_mem_access.h"
 1532              		.file 57 ".//src/serial-datagram/serial_datagram.h"
 1533              		.file 58 ".//src/communication.h"
 1534              		.file 59 "/usr/include/newlib/sys/unistd.h"
 1535              		.file 60 ".//src/msgbus/messagebus.h"
 1536              		.file 61 ".//src/sensors/imu.h"
 1537              		.file 62 ".//ChibiOS_ext/os/hal/include/../ports/STM32/STM32F4xx/dcmi_lld.h"
 1538              		.file 63 ".//src/parameter/parameter.h"
 1539              		.file 64 ".//src/main.h"
 1540              		.file 65 ".//ChibiOS//os/rt/include/chthreads.h"
 1541              		.file 66 "/usr/include/newlib/string.h"
 1542              		.file 67 ".//src/sensors/battery_level.h"
 1543              		.file 68 ".//src/sensors/VL53L0X/VL53L0X.h"
 1544              		.file 69 ".//src/leds.h"