ARM GAS  /tmp/ccsrAcLv.s 			page 1


   1              		.cpu cortex-m4
   2              		.eabi_attribute 27, 1
   3              		.eabi_attribute 28, 1
   4              		.eabi_attribute 20, 1
   5              		.eabi_attribute 21, 1
   6              		.eabi_attribute 23, 3
   7              		.eabi_attribute 24, 1
   8              		.eabi_attribute 25, 1
   9              		.eabi_attribute 26, 1
  10              		.eabi_attribute 30, 2
  11              		.eabi_attribute 34, 1
  12              		.eabi_attribute 18, 4
  13              		.file	"crc16.c"
  14              		.text
  15              	.Ltext0:
  16              		.cfi_sections	.debug_frame
  17              		.section	.rodata.crc16.cst4,"aM",%progbits,4
  18              		.align	2
  19              	.LC0:
  20 0000 00000000 		.word	__stack_chk_guard
  21              		.section	.text.crc16,"ax",%progbits
  22              		.align	1
  23              		.p2align 4,,15
  24              		.global	crc16
  25              		.arch armv7e-m
  26              		.syntax unified
  27              		.thumb
  28              		.thumb_func
  29              		.fpu fpv4-sp-d16
  30              		.type	crc16, %function
  31              	crc16:
  32              	.LVL0:
  33              	.LFB0:
  34              		.file 1 ".//src/crc/crc16.c"
  35              		.loc 1 8 1 view -0
  36              		.cfi_startproc
  37              		@ args = 0, pretend = 0, frame = 8
  38              		@ frame_needed = 0, uses_anonymous_args = 0
  39              		.loc 1 8 1 is_stmt 0 view .LVU1
  40 0000 30B5     		push	{r4, r5, lr}
  41              		.cfi_def_cfa_offset 12
  42              		.cfi_offset 4, -12
  43              		.cfi_offset 5, -8
  44              		.cfi_offset 14, -4
  45 0002 104B     		ldr	r3, .L14
  46 0004 83B0     		sub	sp, sp, #12
  47              		.cfi_def_cfa_offset 24
  48              		.loc 1 8 1 view .LVU2
  49 0006 1B68     		ldr	r3, [r3]
  50 0008 0193     		str	r3, [sp, #4]
  51 000a 4FF00003 		mov	r3,#0
  52              		.loc 1 9 5 is_stmt 1 view .LVU3
  53              	.LVL1:
  54              		.loc 1 10 5 view .LVU4
  55              		.loc 1 11 5 view .LVU5
  56              		.loc 1 11 11 view .LVU6
  57              		.loc 1 11 11 is_stmt 0 view .LVU7
ARM GAS  /tmp/ccsrAcLv.s 			page 2


  58 000e 7AB1     		cbz	r2, .L2
  59 0010 8D18     		adds	r5, r1, r2
  60              	.LBB2:
  61              		.loc 1 16 21 view .LVU8
  62 0012 4AF20102 		movw	r2, #40961
  63              	.LVL2:
  64              	.L6:
  65              		.loc 1 12 9 is_stmt 1 view .LVU9
  66              		.loc 1 13 9 view .LVU10
  67              		.loc 1 13 16 is_stmt 0 view .LVU11
  68 0016 11F8014B 		ldrb	r4, [r1], #1	@ zero_extendqisi2
  69              	.LVL3:
  70              		.loc 1 13 13 view .LVU12
  71 001a 0823     		movs	r3, #8
  72 001c 6040     		eors	r0, r0, r4
  73              	.LVL4:
  74              		.loc 1 14 9 is_stmt 1 view .LVU13
  75              		.loc 1 14 21 view .LVU14
  76              	.L5:
  77              		.loc 1 15 13 view .LVU15
  78              		.loc 1 16 17 view .LVU16
  79              		.loc 1 15 16 is_stmt 0 view .LVU17
  80 001e C407     		lsls	r4, r0, #31
  81              		.loc 1 16 21 view .LVU18
  82 0020 4CBF     		ite	mi
  83 0022 82EA5000 		eormi	r0, r2, r0, lsr #1
  84              	.LVL5:
  85              		.loc 1 18 17 is_stmt 1 view .LVU19
  86              		.loc 1 18 21 is_stmt 0 view .LVU20
  87 0026 4008     		lsrpl	r0, r0, #1
  88              	.LVL6:
  89              		.loc 1 14 28 is_stmt 1 view .LVU21
  90              		.loc 1 14 21 view .LVU22
  91              		.loc 1 14 9 is_stmt 0 view .LVU23
  92 0028 013B     		subs	r3, r3, #1
  93              	.LVL7:
  94              		.loc 1 14 9 view .LVU24
  95 002a F8D1     		bne	.L5
  96              		.loc 1 14 9 view .LVU25
  97              	.LBE2:
  98              		.loc 1 11 11 is_stmt 1 view .LVU26
  99              		.loc 1 11 11 is_stmt 0 view .LVU27
 100 002c 8D42     		cmp	r5, r1
 101 002e F2D1     		bne	.L6
 102              	.LVL8:
 103              	.L2:
 104              		.loc 1 22 5 is_stmt 1 view .LVU28
 105              		.loc 1 23 1 is_stmt 0 view .LVU29
 106 0030 044B     		ldr	r3, .L14
 107 0032 1A68     		ldr	r2, [r3]
 108 0034 019B     		ldr	r3, [sp, #4]
 109 0036 5A40     		eors	r2, r3, r2
 110 0038 01D1     		bne	.L13
 111 003a 03B0     		add	sp, sp, #12
 112              		.cfi_remember_state
 113              		.cfi_def_cfa_offset 12
 114              		@ sp needed
ARM GAS  /tmp/ccsrAcLv.s 			page 3


 115 003c 30BD     		pop	{r4, r5, pc}
 116              	.L13:
 117              		.cfi_restore_state
 118 003e FFF7FEFF 		bl	__stack_chk_fail
 119              	.LVL9:
 120              	.L15:
 121              		.loc 1 23 1 view .LVU30
 122 0042 00BF     		.align	2
 123              	.L14:
 124 0044 00000000 		.word	.LC0
 125              		.cfi_endproc
 126              	.LFE0:
 127              		.size	crc16, .-crc16
 128              		.text
 129              	.Letext0:
 130              		.file 2 "/usr/lib/gcc/arm-none-eabi/9.2.1/include/stdint.h"
 131              		.file 3 "/usr/lib/gcc/arm-none-eabi/9.2.1/include/stddef.h"