ARM GAS  /tmp/cc3Fa0fO.s 			page 1


   1              		.cpu cortex-m4
   2              		.eabi_attribute 27, 1
   3              		.eabi_attribute 28, 1
   4              		.eabi_attribute 20, 1
   5              		.eabi_attribute 21, 1
   6              		.eabi_attribute 23, 3
   7              		.eabi_attribute 24, 1
   8              		.eabi_attribute 25, 1
   9              		.eabi_attribute 26, 1
  10              		.eabi_attribute 30, 2
  11              		.eabi_attribute 34, 1
  12              		.eabi_attribute 18, 4
  13              		.file	"crc32.c"
  14              		.text
  15              	.Ltext0:
  16              		.cfi_sections	.debug_frame
  17              		.section	.rodata.crc32.cst4,"aM",%progbits,4
  18              		.align	2
  19              	.LC0:
  20 0000 00000000 		.word	__stack_chk_guard
  21              		.section	.text.crc32,"ax",%progbits
  22              		.align	1
  23              		.p2align 4,,15
  24              		.global	crc32
  25              		.arch armv7e-m
  26              		.syntax unified
  27              		.thumb
  28              		.thumb_func
  29              		.fpu fpv4-sp-d16
  30              		.type	crc32, %function
  31              	crc32:
  32              	.LVL0:
  33              	.LFB0:
  34              		.file 1 ".//src/crc/crc32.c"
  35              		.loc 1 8 1 view -0
  36              		.cfi_startproc
  37              		@ args = 0, pretend = 0, frame = 8
  38              		@ frame_needed = 0, uses_anonymous_args = 0
  39              		.loc 1 8 1 is_stmt 0 view .LVU1
  40 0000 70B5     		push	{r4, r5, r6, lr}
  41              		.cfi_def_cfa_offset 16
  42              		.cfi_offset 4, -16
  43              		.cfi_offset 5, -12
  44              		.cfi_offset 6, -8
  45              		.cfi_offset 14, -4
  46 0002 134B     		ldr	r3, .L14
  47 0004 82B0     		sub	sp, sp, #8
  48              		.cfi_def_cfa_offset 24
  49              		.loc 1 8 1 view .LVU2
  50 0006 1B68     		ldr	r3, [r3]
  51 0008 0193     		str	r3, [sp, #4]
  52 000a 4FF00003 		mov	r3,#0
  53              		.loc 1 9 5 is_stmt 1 view .LVU3
  54              	.LVL1:
  55              		.loc 1 10 5 view .LVU4
  56              		.loc 1 11 5 view .LVU5
  57              		.loc 1 12 5 view .LVU6
ARM GAS  /tmp/cc3Fa0fO.s 			page 2


  58              		.loc 1 12 17 view .LVU7
  59              		.loc 1 12 5 is_stmt 0 view .LVU8
  60 000e B2B1     		cbz	r2, .L1
  61 0010 C443     		mvns	r4, r0
  62              	.LVL2:
  63              		.loc 1 12 5 view .LVU9
  64 0012 013A     		subs	r2, r2, #1
  65              	.LVL3:
  66              	.LBB2:
  67              		.loc 1 16 21 view .LVU10
  68 0014 0F48     		ldr	r0, .L14+4
  69              	.LVL4:
  70              		.loc 1 16 21 view .LVU11
  71 0016 8E18     		adds	r6, r1, r2
  72 0018 4D1E     		subs	r5, r1, #1
  73              	.LVL5:
  74              	.L6:
  75              		.loc 1 15 33 view .LVU12
  76 001a 15F8011F 		ldrb	r1, [r5, #1]!	@ zero_extendqisi2
  77              	.LVL6:
  78              		.loc 1 14 18 view .LVU13
  79 001e 0023     		movs	r3, #0
  80              	.L5:
  81              	.LVL7:
  82              		.loc 1 15 13 is_stmt 1 view .LVU14
  83              		.loc 1 16 17 view .LVU15
  84              		.loc 1 15 36 is_stmt 0 view .LVU16
  85 0020 41FA03F2 		asr	r2, r1, r3
  86              		.loc 1 15 27 view .LVU17
  87 0024 6240     		eors	r2, r2, r4
  88              		.loc 1 15 16 view .LVU18
  89 0026 D207     		lsls	r2, r2, #31
  90              		.loc 1 14 35 view .LVU19
  91 0028 03F10103 		add	r3, r3, #1
  92              	.LVL8:
  93              		.loc 1 16 21 view .LVU20
  94 002c 4CBF     		ite	mi
  95 002e 80EA5404 		eormi	r4, r0, r4, lsr #1
  96              	.LVL9:
  97              		.loc 1 18 17 is_stmt 1 view .LVU21
  98              		.loc 1 18 21 is_stmt 0 view .LVU22
  99 0032 6408     		lsrpl	r4, r4, #1
 100              	.LVL10:
 101              		.loc 1 14 32 is_stmt 1 view .LVU23
 102              		.loc 1 14 23 view .LVU24
 103              		.loc 1 14 9 is_stmt 0 view .LVU25
 104 0034 082B     		cmp	r3, #8
 105 0036 F3D1     		bne	.L5
 106              	.LBE2:
 107              		.loc 1 12 29 is_stmt 1 discriminator 2 view .LVU26
 108              	.LVL11:
 109              		.loc 1 12 17 discriminator 2 view .LVU27
 110              		.loc 1 12 5 is_stmt 0 discriminator 2 view .LVU28
 111 0038 AE42     		cmp	r6, r5
 112 003a EED1     		bne	.L6
 113 003c E043     		mvns	r0, r4
 114              	.LVL12:
ARM GAS  /tmp/cc3Fa0fO.s 			page 3


 115              	.L1:
 116              		.loc 1 23 1 view .LVU29
 117 003e 044B     		ldr	r3, .L14
 118 0040 1A68     		ldr	r2, [r3]
 119 0042 019B     		ldr	r3, [sp, #4]
 120 0044 5A40     		eors	r2, r3, r2
 121 0046 01D1     		bne	.L13
 122 0048 02B0     		add	sp, sp, #8
 123              		.cfi_remember_state
 124              		.cfi_def_cfa_offset 16
 125              		@ sp needed
 126 004a 70BD     		pop	{r4, r5, r6, pc}
 127              	.L13:
 128              		.cfi_restore_state
 129 004c FFF7FEFF 		bl	__stack_chk_fail
 130              	.LVL13:
 131              	.L15:
 132              		.align	2
 133              	.L14:
 134 0050 00000000 		.word	.LC0
 135 0054 2083B8ED 		.word	-306674912
 136              		.cfi_endproc
 137              	.LFE0:
 138              		.size	crc32, .-crc32
 139              		.text
 140              	.Letext0:
 141              		.file 2 "/usr/lib/gcc/arm-none-eabi/9.2.1/include/stdint.h"
 142              		.file 3 "/usr/lib/gcc/arm-none-eabi/9.2.1/include/stddef.h"
 143              		.file 4 "/usr/include/newlib/sys/_types.h"
 144              		.file 5 "/usr/include/newlib/sys/reent.h"
 145              		.file 6 "/usr/include/newlib/sys/lock.h"
 146              		.file 7 "/usr/include/newlib/stdlib.h"