ARM GAS  /tmp/cc3Fa0fO.s 			page 1


   1              		.cpu cortex-m4
   2              		.eabi_attribute 27, 1
   3              		.eabi_attribute 28, 1
   4              		.eabi_attribute 20, 1
   5              		.eabi_attribute 21, 1
   6              		.eabi_attribute 23, 3
   7              		.eabi_attribute 24, 1
   8              		.eabi_attribute 25, 1
   9              		.eabi_attribute 26, 1
  10              		.eabi_attribute 30, 2
  11              		.eabi_attribute 34, 1
  12              		.eabi_attribute 18, 4
  13              		.file	"crc32.c"
  14              		.text
  15              	.Ltext0:
  16              		.cfi_sections	.debug_frame
  17              		.section	.rodata.crc32.cst4,"aM",%progbits,4
  18              		.align	2
  19              	.LC0:
  20 0000 00000000 		.word	__stack_chk_guard
  21              		.section	.text.crc32,"ax",%progbits
  22              		.align	1
  23              		.p2align 4,,15
  24              		.global	crc32
  25              		.arch armv7e-m
  26              		.syntax unified
  27              		.thumb
  28              		.thumb_func
  29              		.fpu fpv4-sp-d16
  30              		.type	crc32, %function
  31              	crc32:
  32              	.LVL0:
  33              	.LFB0:
  34              		.file 1 ".//src/crc/crc32.c"
  35              		.loc 1 8 1 view -0
  36              		.cfi_startproc
  37              		@ args = 0, pretend = 0, frame = 8
  38              		@ frame_needed = 0, uses_anonymous_args = 0
  39              		.loc 1 8 1 is_stmt 0 view .LVU1
  40 0000 70B5     		push	{r4, r5, r6, lr}
  41              		.cfi_def_cfa_offset 16
  42              		.cfi_offset 4, -16
  43              		.cfi_offset 5, -12
  44              		.cfi_offset 6, -8
  45              		.cfi_offset 14, -4
  46 0002 134B     		ldr	r3, .L14
  47 0004 82B0     		sub	sp, sp, #8
  48              		.cfi_def_cfa_offset 24
  49              		.loc 1 8 1 view .LVU2
  50 0006 1B68     		ldr	r3, [r3]
  51 0008 0193     		str	r3, [sp, #4]
  52 000a 4FF00003 		mov	r3,#0
  53              		.loc 1 9 5 is_stmt 1 view .LVU3
  54              	.LVL1:
  55              		.loc 1 10 5 view .LVU4
  56              		.loc 1 11 5 view .LVU5
  57              		.loc 1 12 5 view .LVU6
ARM GAS  /tmp/cc3Fa0fO.s 			page 2


  58              		.loc 1 12 17 view .LVU7
  59              		.loc 1 12 5 is_stmt 0 view .LVU8
  60 000e B2B1     		cbz	r2, .L1
  61 0010 C443     		mvns	r4, r0
  62              	.LVL2:
  63              		.loc 1 12 5 view .LVU9
  64 0012 013A     		subs	r2, r2, #1
  65              	.LVL3:
  66              	.LBB2:
  67              		.loc 1 16 21 view .LVU10
  68 0014 0F48     		ldr	r0, .L14+4
  69              	.LVL4:
  70              		.loc 1 16 21 view .LVU11
  71 0016 8E18     		adds	r6, r1, r2
  72 0018 4D1E     		subs	r5, r1, #1
  73              	.LVL5:
  74              	.L6:
  75              		.loc 1 15 33 view .LVU12
  76 001a 15F8011F 		ldrb	r1, [r5, #1]!	@ zero_extendqisi2
  77              	.LVL6:
  78              		.loc 1 14 18 view .LVU13
  79 001e 0023     		movs	r3, #0
  80              	.L5:
  81              	.LVL7:
  82              		.loc 1 15 13 is_stmt 1 view .LVU14
  83              		.loc 1 16 17 view .LVU15
  84              		.loc 1 15 36 is_stmt 0 view .LVU16
  85 0020 41FA03F2 		asr	r2, r1, r3
  86              		.loc 1 15 27 view .LVU17
  87 0024 6240     		eors	r2, r2, r4
  88              		.loc 1 15 16 view .LVU18
  89 0026 D207     		lsls	r2, r2, #31
  90              		.loc 1 14 35 view .LVU19
  91 0028 03F10103 		add	r3, r3, #1
  92              	.LVL8:
  93              		.loc 1 16 21 view .LVU20
  94 002c 4CBF     		ite	mi
  95 002e 80EA5404 		eormi	r4, r0, r4, lsr #1
  96              	.LVL9:
  97              		.loc 1 18 17 is_stmt 1 view .LVU21
  98              		.loc 1 18 21 is_stmt 0 view .LVU22
  99 0032 6408     		lsrpl	r4, r4, #1
 100              	.LVL10:
 101              		.loc 1 14 32 is_stmt 1 view .LVU23
 102              		.loc 1 14 23 view .LVU24
 103              		.loc 1 14 9 is_stmt 0 view .LVU25
 104 0034 082B     		cmp	r3, #8
 105 0036 F3D1     		bne	.L5
 106              	.LBE2:
 107              		.loc 1 12 29 is_stmt 1 discriminator 2 view .LVU26
 108              	.LVL11:
 109              		.loc 1 12 17 discriminator 2 view .LVU27
 110              		.loc 1 12 5 is_stmt 0 discriminator 2 view .LVU28
 111 0038 AE42     		cmp	r6, r5
 112 003a EED1     		bne	.L6
 113 003c E043     		mvns	r0, r4
 114              	.LVL12:
ARM GAS  /tmp/cc3Fa0fO.s 			page 3


 115              	.L1:
 116              		.loc 1 23 1 view .LVU29
 117 003e 044B     		ldr	r3, .L14
 118 0040 1A68     		ldr	r2, [r3]
 119 0042 019B     		ldr	r3, [sp, #4]
 120 0044 5A40     		eors	r2, r3, r2
 121 0046 01D1     		bne	.L13
 122 0048 02B0     		add	sp, sp, #8
 123              		.cfi_remember_state
 124              		.cfi_def_cfa_offset 16
 125              		@ sp needed
 126 004a 70BD     		pop	{r4, r5, r6, pc}
 127              	.L13:
 128              		.cfi_restore_state
 129 004c FFF7FEFF 		bl	__stack_chk_fail
 130              	.LVL13:
 131              	.L15:
 132              		.align	2
 133              	.L14:
 134 0050 00000000 		.word	.LC0
 135 0054 2083B8ED 		.word	-306674912
 136              		.cfi_endproc
 137              	.LFE0:
 138              		.size	crc32, .-crc32
 139              		.text
 140              	.Letext0:
 141              		.file 2 "/usr/lib/gcc/arm-none-eabi/9.2.1/include/stdint.h"
 142              		.file 3 "/usr/lib/gcc/arm-none-eabi/9.2.1/include/stddef.h"
 143              		.file 4 "/usr/include/newlib/sys/_types.h"
 144              		.file 5 "/usr/include/newlib/sys/reent.h"
 145              		.file 6 "/usr/include/newlib/sys/lock.h"
 146              		.file 7 "/usr/include/newlib/stdlib.h"
 147              		.section	.debug_info,"",%progbits
 148              	.Ldebug_info0:
 149 0000 060A0000 		.4byte	0xa06
 150 0004 0400     		.2byte	0x4
 151 0006 00000000 		.4byte	.Ldebug_abbrev0
 152 000a 04       		.byte	0x4
 153 000b 01       		.uleb128 0x1
 154 000c EB020000 		.4byte	.LASF126
 155 0010 0C       		.byte	0xc
 156 0011 0A010000 		.4byte	.LASF127
 157 0015 F7010000 		.4byte	.LASF128
 158 0019 00000000 		.4byte	.Ldebug_ranges0+0
 159 001d 00000000 		.4byte	0
 160 0021 00000000 		.4byte	.Ldebug_line0
 161 0025 02       		.uleb128 0x2
 162 0026 01       		.byte	0x1
 163 0027 06       		.byte	0x6
 164 0028 C5000000 		.4byte	.LASF0
 165 002c 02       		.uleb128 0x2
 166 002d 02       		.byte	0x2
 167 002e 05       		.byte	0x5
 168 002f 87040000 		.4byte	.LASF1
 169 0033 02       		.uleb128 0x2
 170 0034 04       		.byte	0x4
 171 0035 05       		.byte	0x5
ARM GAS  /tmp/cc3Fa0fO.s 			page 4


 172 0036 3D000000 		.4byte	.LASF2
 173 003a 02       		.uleb128 0x2
 174 003b 08       		.byte	0x8
 175 003c 05       		.byte	0x5
 176 003d B7000000 		.4byte	.LASF3
 177 0041 03       		.uleb128 0x3
 178 0042 FE050000 		.4byte	.LASF6
 179 0046 02       		.byte	0x2
 180 0047 2E       		.byte	0x2e
 181 0048 18       		.byte	0x18
 182 0049 4D000000 		.4byte	0x4d
 183 004d 02       		.uleb128 0x2
 184 004e 01       		.byte	0x1
 185 004f 08       		.byte	0x8
 186 0050 6B040000 		.4byte	.LASF4
 187 0054 02       		.uleb128 0x2
 188 0055 02       		.byte	0x2
 189 0056 07       		.byte	0x7
 190 0057 4B020000 		.4byte	.LASF5
 191 005b 03       		.uleb128 0x3
 192 005c 46050000 		.4byte	.LASF7
 193 0060 02       		.byte	0x2
 194 0061 34       		.byte	0x34
 195 0062 19       		.byte	0x19
 196 0063 67000000 		.4byte	0x67
 197 0067 02       		.uleb128 0x2
 198 0068 04       		.byte	0x4
 199 0069 07       		.byte	0x7
 200 006a DF010000 		.4byte	.LASF8
 201 006e 02       		.uleb128 0x2
 202 006f 08       		.byte	0x8
 203 0070 07       		.byte	0x7
 204 0071 66000000 		.4byte	.LASF9
 205 0075 04       		.uleb128 0x4
 206 0076 04       		.byte	0x4
 207 0077 05       		.byte	0x5
 208 0078 696E7400 		.ascii	"int\000"
 209 007c 02       		.uleb128 0x2
 210 007d 04       		.byte	0x4
 211 007e 07       		.byte	0x7
 212 007f BB010000 		.4byte	.LASF10
 213 0083 03       		.uleb128 0x3
 214 0084 12000000 		.4byte	.LASF11
 215 0088 03       		.byte	0x3
 216 0089 D1       		.byte	0xd1
 217 008a 17       		.byte	0x17
 218 008b 7C000000 		.4byte	0x7c
 219 008f 02       		.uleb128 0x2
 220 0090 08       		.byte	0x8
 221 0091 04       		.byte	0x4
 222 0092 BD020000 		.4byte	.LASF12
 223 0096 05       		.uleb128 0x5
 224 0097 8E020000 		.4byte	.LASF13
 225 009b 03       		.byte	0x3
 226 009c 5E01     		.2byte	0x15e
 227 009e 17       		.byte	0x17
 228 009f 7C000000 		.4byte	0x7c
ARM GAS  /tmp/cc3Fa0fO.s 			page 5


 229 00a3 03       		.uleb128 0x3
 230 00a4 48040000 		.4byte	.LASF14
 231 00a8 04       		.byte	0x4
 232 00a9 2E       		.byte	0x2e
 233 00aa 0E       		.byte	0xe
 234 00ab 33000000 		.4byte	0x33
 235 00af 03       		.uleb128 0x3
 236 00b0 61050000 		.4byte	.LASF15
 237 00b4 04       		.byte	0x4
 238 00b5 74       		.byte	0x74
 239 00b6 0E       		.byte	0xe
 240 00b7 33000000 		.4byte	0x33
 241 00bb 06       		.uleb128 0x6
 242 00bc 04       		.byte	0x4
 243 00bd 04       		.byte	0x4
 244 00be A5       		.byte	0xa5
 245 00bf 03       		.byte	0x3
 246 00c0 DD000000 		.4byte	0xdd
 247 00c4 07       		.uleb128 0x7
 248 00c5 88020000 		.4byte	.LASF16
 249 00c9 04       		.byte	0x4
 250 00ca A7       		.byte	0xa7
 251 00cb 0C       		.byte	0xc
 252 00cc 96000000 		.4byte	0x96
 253 00d0 07       		.uleb128 0x7
 254 00d1 C8010000 		.4byte	.LASF17
 255 00d5 04       		.byte	0x4
 256 00d6 A8       		.byte	0xa8
 257 00d7 13       		.byte	0x13
 258 00d8 DD000000 		.4byte	0xdd
 259 00dc 00       		.byte	0
 260 00dd 08       		.uleb128 0x8
 261 00de 4D000000 		.4byte	0x4d
 262 00e2 ED000000 		.4byte	0xed
 263 00e6 09       		.uleb128 0x9
 264 00e7 7C000000 		.4byte	0x7c
 265 00eb 03       		.byte	0x3
 266 00ec 00       		.byte	0
 267 00ed 0A       		.uleb128 0xa
 268 00ee 08       		.byte	0x8
 269 00ef 04       		.byte	0x4
 270 00f0 A2       		.byte	0xa2
 271 00f1 09       		.byte	0x9
 272 00f2 11010000 		.4byte	0x111
 273 00f6 0B       		.uleb128 0xb
 274 00f7 3E050000 		.4byte	.LASF18
 275 00fb 04       		.byte	0x4
 276 00fc A4       		.byte	0xa4
 277 00fd 07       		.byte	0x7
 278 00fe 75000000 		.4byte	0x75
 279 0102 00       		.byte	0
 280 0103 0B       		.uleb128 0xb
 281 0104 9E050000 		.4byte	.LASF19
 282 0108 04       		.byte	0x4
 283 0109 A9       		.byte	0xa9
 284 010a 05       		.byte	0x5
 285 010b BB000000 		.4byte	0xbb
ARM GAS  /tmp/cc3Fa0fO.s 			page 6


 286 010f 04       		.byte	0x4
 287 0110 00       		.byte	0
 288 0111 03       		.uleb128 0x3
 289 0112 AF040000 		.4byte	.LASF20
 290 0116 04       		.byte	0x4
 291 0117 AA       		.byte	0xaa
 292 0118 03       		.byte	0x3
 293 0119 ED000000 		.4byte	0xed
 294 011d 0C       		.uleb128 0xc
 295 011e 04       		.byte	0x4
 296 011f 03       		.uleb128 0x3
 297 0120 B4050000 		.4byte	.LASF21
 298 0124 05       		.byte	0x5
 299 0125 16       		.byte	0x16
 300 0126 19       		.byte	0x19
 301 0127 67000000 		.4byte	0x67
 302 012b 03       		.uleb128 0x3
 303 012c 59040000 		.4byte	.LASF22
 304 0130 06       		.byte	0x6
 305 0131 0C       		.byte	0xc
 306 0132 0D       		.byte	0xd
 307 0133 75000000 		.4byte	0x75
 308 0137 03       		.uleb128 0x3
 309 0138 7E010000 		.4byte	.LASF23
 310 013c 05       		.byte	0x5
 311 013d 23       		.byte	0x23
 312 013e 1B       		.byte	0x1b
 313 013f 2B010000 		.4byte	0x12b
 314 0143 0D       		.uleb128 0xd
 315 0144 8F010000 		.4byte	.LASF28
 316 0148 18       		.byte	0x18
 317 0149 05       		.byte	0x5
 318 014a 34       		.byte	0x34
 319 014b 08       		.byte	0x8
 320 014c 9D010000 		.4byte	0x19d
 321 0150 0B       		.uleb128 0xb
 322 0151 8B050000 		.4byte	.LASF24
 323 0155 05       		.byte	0x5
 324 0156 36       		.byte	0x36
 325 0157 13       		.byte	0x13
 326 0158 9D010000 		.4byte	0x19d
 327 015c 00       		.byte	0
 328 015d 0E       		.uleb128 0xe
 329 015e 5F6B00   		.ascii	"_k\000"
 330 0161 05       		.byte	0x5
 331 0162 37       		.byte	0x37
 332 0163 07       		.byte	0x7
 333 0164 75000000 		.4byte	0x75
 334 0168 04       		.byte	0x4
 335 0169 0B       		.uleb128 0xb
 336 016a 29050000 		.4byte	.LASF25
 337 016e 05       		.byte	0x5
 338 016f 37       		.byte	0x37
 339 0170 0B       		.byte	0xb
 340 0171 75000000 		.4byte	0x75
 341 0175 08       		.byte	0x8
 342 0176 0B       		.uleb128 0xb
ARM GAS  /tmp/cc3Fa0fO.s 			page 7


 343 0177 78010000 		.4byte	.LASF26
 344 017b 05       		.byte	0x5
 345 017c 37       		.byte	0x37
 346 017d 14       		.byte	0x14
 347 017e 75000000 		.4byte	0x75
 348 0182 0C       		.byte	0xc
 349 0183 0B       		.uleb128 0xb
 350 0184 E9050000 		.4byte	.LASF27
 351 0188 05       		.byte	0x5
 352 0189 37       		.byte	0x37
 353 018a 1B       		.byte	0x1b
 354 018b 75000000 		.4byte	0x75
 355 018f 10       		.byte	0x10
 356 0190 0E       		.uleb128 0xe
 357 0191 5F7800   		.ascii	"_x\000"
 358 0194 05       		.byte	0x5
 359 0195 38       		.byte	0x38
 360 0196 0B       		.byte	0xb
 361 0197 A3010000 		.4byte	0x1a3
 362 019b 14       		.byte	0x14
 363 019c 00       		.byte	0
 364 019d 0F       		.uleb128 0xf
 365 019e 04       		.byte	0x4
 366 019f 43010000 		.4byte	0x143
 367 01a3 08       		.uleb128 0x8
 368 01a4 1F010000 		.4byte	0x11f
 369 01a8 B3010000 		.4byte	0x1b3
 370 01ac 09       		.uleb128 0x9
 371 01ad 7C000000 		.4byte	0x7c
 372 01b1 00       		.byte	0
 373 01b2 00       		.byte	0
 374 01b3 0D       		.uleb128 0xd
 375 01b4 B6010000 		.4byte	.LASF29
 376 01b8 24       		.byte	0x24
 377 01b9 05       		.byte	0x5
 378 01ba 3C       		.byte	0x3c
 379 01bb 08       		.byte	0x8
 380 01bc 36020000 		.4byte	0x236
 381 01c0 0B       		.uleb128 0xb
 382 01c1 AE000000 		.4byte	.LASF30
 383 01c5 05       		.byte	0x5
 384 01c6 3E       		.byte	0x3e
 385 01c7 09       		.byte	0x9
 386 01c8 75000000 		.4byte	0x75
 387 01cc 00       		.byte	0
 388 01cd 0B       		.uleb128 0xb
 389 01ce 7C050000 		.4byte	.LASF31
 390 01d2 05       		.byte	0x5
 391 01d3 3F       		.byte	0x3f
 392 01d4 09       		.byte	0x9
 393 01d5 75000000 		.4byte	0x75
 394 01d9 04       		.byte	0x4
 395 01da 0B       		.uleb128 0xb
 396 01db DD000000 		.4byte	.LASF32
 397 01df 05       		.byte	0x5
 398 01e0 40       		.byte	0x40
 399 01e1 09       		.byte	0x9
ARM GAS  /tmp/cc3Fa0fO.s 			page 8


 400 01e2 75000000 		.4byte	0x75
 401 01e6 08       		.byte	0x8
 402 01e7 0B       		.uleb128 0xb
 403 01e8 61060000 		.4byte	.LASF33
 404 01ec 05       		.byte	0x5
 405 01ed 41       		.byte	0x41
 406 01ee 09       		.byte	0x9
 407 01ef 75000000 		.4byte	0x75
 408 01f3 0C       		.byte	0xc
 409 01f4 0B       		.uleb128 0xb
 410 01f5 D0020000 		.4byte	.LASF34
 411 01f9 05       		.byte	0x5
 412 01fa 42       		.byte	0x42
 413 01fb 09       		.byte	0x9
 414 01fc 75000000 		.4byte	0x75
 415 0200 10       		.byte	0x10
 416 0201 0B       		.uleb128 0xb
 417 0202 AA020000 		.4byte	.LASF35
 418 0206 05       		.byte	0x5
 419 0207 43       		.byte	0x43
 420 0208 09       		.byte	0x9
 421 0209 75000000 		.4byte	0x75
 422 020d 14       		.byte	0x14
 423 020e 0B       		.uleb128 0xb
 424 020f EE050000 		.4byte	.LASF36
 425 0213 05       		.byte	0x5
 426 0214 44       		.byte	0x44
 427 0215 09       		.byte	0x9
 428 0216 75000000 		.4byte	0x75
 429 021a 18       		.byte	0x18
 430 021b 0B       		.uleb128 0xb
 431 021c 91040000 		.4byte	.LASF37
 432 0220 05       		.byte	0x5
 433 0221 45       		.byte	0x45
 434 0222 09       		.byte	0x9
 435 0223 75000000 		.4byte	0x75
 436 0227 1C       		.byte	0x1c
 437 0228 0B       		.uleb128 0xb
 438 0229 28060000 		.4byte	.LASF38
 439 022d 05       		.byte	0x5
 440 022e 46       		.byte	0x46
 441 022f 09       		.byte	0x9
 442 0230 75000000 		.4byte	0x75
 443 0234 20       		.byte	0x20
 444 0235 00       		.byte	0
 445 0236 10       		.uleb128 0x10
 446 0237 EC000000 		.4byte	.LASF39
 447 023b 0801     		.2byte	0x108
 448 023d 05       		.byte	0x5
 449 023e 4F       		.byte	0x4f
 450 023f 08       		.byte	0x8
 451 0240 7B020000 		.4byte	0x27b
 452 0244 0B       		.uleb128 0xb
 453 0245 6B010000 		.4byte	.LASF40
 454 0249 05       		.byte	0x5
 455 024a 50       		.byte	0x50
 456 024b 0A       		.byte	0xa
ARM GAS  /tmp/cc3Fa0fO.s 			page 9


 457 024c 7B020000 		.4byte	0x27b
 458 0250 00       		.byte	0
 459 0251 0B       		.uleb128 0xb
 460 0252 00000000 		.4byte	.LASF41
 461 0256 05       		.byte	0x5
 462 0257 51       		.byte	0x51
 463 0258 09       		.byte	0x9
 464 0259 7B020000 		.4byte	0x27b
 465 025d 80       		.byte	0x80
 466 025e 11       		.uleb128 0x11
 467 025f A6050000 		.4byte	.LASF42
 468 0263 05       		.byte	0x5
 469 0264 53       		.byte	0x53
 470 0265 0A       		.byte	0xa
 471 0266 1F010000 		.4byte	0x11f
 472 026a 0001     		.2byte	0x100
 473 026c 11       		.uleb128 0x11
 474 026d 24010000 		.4byte	.LASF43
 475 0271 05       		.byte	0x5
 476 0272 56       		.byte	0x56
 477 0273 0A       		.byte	0xa
 478 0274 1F010000 		.4byte	0x11f
 479 0278 0401     		.2byte	0x104
 480 027a 00       		.byte	0
 481 027b 08       		.uleb128 0x8
 482 027c 1D010000 		.4byte	0x11d
 483 0280 8B020000 		.4byte	0x28b
 484 0284 09       		.uleb128 0x9
 485 0285 7C000000 		.4byte	0x7c
 486 0289 1F       		.byte	0x1f
 487 028a 00       		.byte	0
 488 028b 10       		.uleb128 0x10
 489 028c D9020000 		.4byte	.LASF44
 490 0290 9001     		.2byte	0x190
 491 0292 05       		.byte	0x5
 492 0293 62       		.byte	0x62
 493 0294 08       		.byte	0x8
 494 0295 CE020000 		.4byte	0x2ce
 495 0299 0B       		.uleb128 0xb
 496 029a 8B050000 		.4byte	.LASF24
 497 029e 05       		.byte	0x5
 498 029f 63       		.byte	0x63
 499 02a0 12       		.byte	0x12
 500 02a1 CE020000 		.4byte	0x2ce
 501 02a5 00       		.byte	0
 502 02a6 0B       		.uleb128 0xb
 503 02a7 E8040000 		.4byte	.LASF45
 504 02ab 05       		.byte	0x5
 505 02ac 64       		.byte	0x64
 506 02ad 06       		.byte	0x6
 507 02ae 75000000 		.4byte	0x75
 508 02b2 04       		.byte	0x4
 509 02b3 0B       		.uleb128 0xb
 510 02b4 73010000 		.4byte	.LASF46
 511 02b8 05       		.byte	0x5
 512 02b9 66       		.byte	0x66
 513 02ba 09       		.byte	0x9
ARM GAS  /tmp/cc3Fa0fO.s 			page 10


 514 02bb D4020000 		.4byte	0x2d4
 515 02bf 08       		.byte	0x8
 516 02c0 0B       		.uleb128 0xb
 517 02c1 EC000000 		.4byte	.LASF39
 518 02c5 05       		.byte	0x5
 519 02c6 67       		.byte	0x67
 520 02c7 1E       		.byte	0x1e
 521 02c8 36020000 		.4byte	0x236
 522 02cc 88       		.byte	0x88
 523 02cd 00       		.byte	0
 524 02ce 0F       		.uleb128 0xf
 525 02cf 04       		.byte	0x4
 526 02d0 8B020000 		.4byte	0x28b
 527 02d4 08       		.uleb128 0x8
 528 02d5 E4020000 		.4byte	0x2e4
 529 02d9 E4020000 		.4byte	0x2e4
 530 02dd 09       		.uleb128 0x9
 531 02de 7C000000 		.4byte	0x7c
 532 02e2 1F       		.byte	0x1f
 533 02e3 00       		.byte	0
 534 02e4 0F       		.uleb128 0xf
 535 02e5 04       		.byte	0x4
 536 02e6 EA020000 		.4byte	0x2ea
 537 02ea 12       		.uleb128 0x12
 538 02eb 0D       		.uleb128 0xd
 539 02ec 9B040000 		.4byte	.LASF47
 540 02f0 08       		.byte	0x8
 541 02f1 05       		.byte	0x5
 542 02f2 7A       		.byte	0x7a
 543 02f3 08       		.byte	0x8
 544 02f4 13030000 		.4byte	0x313
 545 02f8 0B       		.uleb128 0xb
 546 02f9 D7000000 		.4byte	.LASF48
 547 02fd 05       		.byte	0x5
 548 02fe 7B       		.byte	0x7b
 549 02ff 11       		.byte	0x11
 550 0300 13030000 		.4byte	0x313
 551 0304 00       		.byte	0
 552 0305 0B       		.uleb128 0xb
 553 0306 0C000000 		.4byte	.LASF49
 554 030a 05       		.byte	0x5
 555 030b 7C       		.byte	0x7c
 556 030c 06       		.byte	0x6
 557 030d 75000000 		.4byte	0x75
 558 0311 04       		.byte	0x4
 559 0312 00       		.byte	0
 560 0313 0F       		.uleb128 0xf
 561 0314 04       		.byte	0x4
 562 0315 4D000000 		.4byte	0x4d
 563 0319 0D       		.uleb128 0xd
 564 031a BA040000 		.4byte	.LASF50
 565 031e 68       		.byte	0x68
 566 031f 05       		.byte	0x5
 567 0320 BA       		.byte	0xba
 568 0321 08       		.byte	0x8
 569 0322 5C040000 		.4byte	0x45c
 570 0326 0E       		.uleb128 0xe
ARM GAS  /tmp/cc3Fa0fO.s 			page 11


 571 0327 5F7000   		.ascii	"_p\000"
 572 032a 05       		.byte	0x5
 573 032b BB       		.byte	0xbb
 574 032c 12       		.byte	0x12
 575 032d 13030000 		.4byte	0x313
 576 0331 00       		.byte	0
 577 0332 0E       		.uleb128 0xe
 578 0333 5F7200   		.ascii	"_r\000"
 579 0336 05       		.byte	0x5
 580 0337 BC       		.byte	0xbc
 581 0338 07       		.byte	0x7
 582 0339 75000000 		.4byte	0x75
 583 033d 04       		.byte	0x4
 584 033e 0E       		.uleb128 0xe
 585 033f 5F7700   		.ascii	"_w\000"
 586 0342 05       		.byte	0x5
 587 0343 BD       		.byte	0xbd
 588 0344 07       		.byte	0x7
 589 0345 75000000 		.4byte	0x75
 590 0349 08       		.byte	0x8
 591 034a 0B       		.uleb128 0xb
 592 034b 1D010000 		.4byte	.LASF51
 593 034f 05       		.byte	0x5
 594 0350 BE       		.byte	0xbe
 595 0351 09       		.byte	0x9
 596 0352 2C000000 		.4byte	0x2c
 597 0356 0C       		.byte	0xc
 598 0357 0B       		.uleb128 0xb
 599 0358 F1010000 		.4byte	.LASF52
 600 035c 05       		.byte	0x5
 601 035d BF       		.byte	0xbf
 602 035e 09       		.byte	0x9
 603 035f 2C000000 		.4byte	0x2c
 604 0363 0E       		.byte	0xe
 605 0364 0E       		.uleb128 0xe
 606 0365 5F626600 		.ascii	"_bf\000"
 607 0369 05       		.byte	0x5
 608 036a C0       		.byte	0xc0
 609 036b 11       		.byte	0x11
 610 036c EB020000 		.4byte	0x2eb
 611 0370 10       		.byte	0x10
 612 0371 0B       		.uleb128 0xb
 613 0372 7D000000 		.4byte	.LASF53
 614 0376 05       		.byte	0x5
 615 0377 C1       		.byte	0xc1
 616 0378 07       		.byte	0x7
 617 0379 75000000 		.4byte	0x75
 618 037d 18       		.byte	0x18
 619 037e 0B       		.uleb128 0xb
 620 037f FA000000 		.4byte	.LASF54
 621 0383 05       		.byte	0x5
 622 0384 C8       		.byte	0xc8
 623 0385 0A       		.byte	0xa
 624 0386 1D010000 		.4byte	0x11d
 625 038a 1C       		.byte	0x1c
 626 038b 0B       		.uleb128 0xb
 627 038c A6010000 		.4byte	.LASF55
ARM GAS  /tmp/cc3Fa0fO.s 			page 12


 628 0390 05       		.byte	0x5
 629 0391 CA       		.byte	0xca
 630 0392 1D       		.byte	0x1d
 631 0393 E0050000 		.4byte	0x5e0
 632 0397 20       		.byte	0x20
 633 0398 0B       		.uleb128 0xb
 634 0399 A3020000 		.4byte	.LASF56
 635 039d 05       		.byte	0x5
 636 039e CC       		.byte	0xcc
 637 039f 1D       		.byte	0x1d
 638 03a0 0A060000 		.4byte	0x60a
 639 03a4 24       		.byte	0x24
 640 03a5 0B       		.uleb128 0xb
 641 03a6 4F050000 		.4byte	.LASF57
 642 03aa 05       		.byte	0x5
 643 03ab CF       		.byte	0xcf
 644 03ac 0D       		.byte	0xd
 645 03ad 2E060000 		.4byte	0x62e
 646 03b1 28       		.byte	0x28
 647 03b2 0B       		.uleb128 0xb
 648 03b3 42060000 		.4byte	.LASF58
 649 03b7 05       		.byte	0x5
 650 03b8 D0       		.byte	0xd0
 651 03b9 09       		.byte	0x9
 652 03ba 48060000 		.4byte	0x648
 653 03be 2C       		.byte	0x2c
 654 03bf 0E       		.uleb128 0xe
 655 03c0 5F756200 		.ascii	"_ub\000"
 656 03c4 05       		.byte	0x5
 657 03c5 D3       		.byte	0xd3
 658 03c6 11       		.byte	0x11
 659 03c7 EB020000 		.4byte	0x2eb
 660 03cb 30       		.byte	0x30
 661 03cc 0E       		.uleb128 0xe
 662 03cd 5F757000 		.ascii	"_up\000"
 663 03d1 05       		.byte	0x5
 664 03d2 D4       		.byte	0xd4
 665 03d3 12       		.byte	0x12
 666 03d4 13030000 		.4byte	0x313
 667 03d8 38       		.byte	0x38
 668 03d9 0E       		.uleb128 0xe
 669 03da 5F757200 		.ascii	"_ur\000"
 670 03de 05       		.byte	0x5
 671 03df D5       		.byte	0xd5
 672 03e0 07       		.byte	0x7
 673 03e1 75000000 		.4byte	0x75
 674 03e5 3C       		.byte	0x3c
 675 03e6 0B       		.uleb128 0xb
 676 03e7 D1000000 		.4byte	.LASF59
 677 03eb 05       		.byte	0x5
 678 03ec D8       		.byte	0xd8
 679 03ed 11       		.byte	0x11
 680 03ee 4E060000 		.4byte	0x64e
 681 03f2 40       		.byte	0x40
 682 03f3 0B       		.uleb128 0xb
 683 03f4 1A060000 		.4byte	.LASF60
 684 03f8 05       		.byte	0x5
ARM GAS  /tmp/cc3Fa0fO.s 			page 13


 685 03f9 D9       		.byte	0xd9
 686 03fa 11       		.byte	0x11
 687 03fb 5E060000 		.4byte	0x65e
 688 03ff 43       		.byte	0x43
 689 0400 0E       		.uleb128 0xe
 690 0401 5F6C6200 		.ascii	"_lb\000"
 691 0405 05       		.byte	0x5
 692 0406 DC       		.byte	0xdc
 693 0407 11       		.byte	0x11
 694 0408 EB020000 		.4byte	0x2eb
 695 040c 44       		.byte	0x44
 696 040d 0B       		.uleb128 0xb
 697 040e 33010000 		.4byte	.LASF61
 698 0412 05       		.byte	0x5
 699 0413 DF       		.byte	0xdf
 700 0414 07       		.byte	0x7
 701 0415 75000000 		.4byte	0x75
 702 0419 4C       		.byte	0x4c
 703 041a 0B       		.uleb128 0xb
 704 041b 44010000 		.4byte	.LASF62
 705 041f 05       		.byte	0x5
 706 0420 E0       		.byte	0xe0
 707 0421 0A       		.byte	0xa
 708 0422 A3000000 		.4byte	0xa3
 709 0426 50       		.byte	0x50
 710 0427 0B       		.uleb128 0xb
 711 0428 32000000 		.4byte	.LASF63
 712 042c 05       		.byte	0x5
 713 042d E3       		.byte	0xe3
 714 042e 12       		.byte	0x12
 715 042f 7A040000 		.4byte	0x47a
 716 0433 54       		.byte	0x54
 717 0434 0B       		.uleb128 0xb
 718 0435 95020000 		.4byte	.LASF64
 719 0439 05       		.byte	0x5
 720 043a E7       		.byte	0xe7
 721 043b 0C       		.byte	0xc
 722 043c 37010000 		.4byte	0x137
 723 0440 58       		.byte	0x58
 724 0441 0B       		.uleb128 0xb
 725 0442 C2040000 		.4byte	.LASF65
 726 0446 05       		.byte	0x5
 727 0447 E9       		.byte	0xe9
 728 0448 0E       		.byte	0xe
 729 0449 11010000 		.4byte	0x111
 730 044d 5C       		.byte	0x5c
 731 044e 0B       		.uleb128 0xb
 732 044f 9B020000 		.4byte	.LASF66
 733 0453 05       		.byte	0x5
 734 0454 EA       		.byte	0xea
 735 0455 09       		.byte	0x9
 736 0456 75000000 		.4byte	0x75
 737 045a 64       		.byte	0x64
 738 045b 00       		.byte	0
 739 045c 13       		.uleb128 0x13
 740 045d 75000000 		.4byte	0x75
 741 0461 7A040000 		.4byte	0x47a
ARM GAS  /tmp/cc3Fa0fO.s 			page 14


 742 0465 14       		.uleb128 0x14
 743 0466 7A040000 		.4byte	0x47a
 744 046a 14       		.uleb128 0x14
 745 046b 1D010000 		.4byte	0x11d
 746 046f 14       		.uleb128 0x14
 747 0470 CE050000 		.4byte	0x5ce
 748 0474 14       		.uleb128 0x14
 749 0475 75000000 		.4byte	0x75
 750 0479 00       		.byte	0
 751 047a 0F       		.uleb128 0xf
 752 047b 04       		.byte	0x4
 753 047c 85040000 		.4byte	0x485
 754 0480 15       		.uleb128 0x15
 755 0481 7A040000 		.4byte	0x47a
 756 0485 16       		.uleb128 0x16
 757 0486 31050000 		.4byte	.LASF67
 758 048a 2804     		.2byte	0x428
 759 048c 05       		.byte	0x5
 760 048d 6502     		.2byte	0x265
 761 048f 08       		.byte	0x8
 762 0490 CE050000 		.4byte	0x5ce
 763 0494 17       		.uleb128 0x17
 764 0495 70050000 		.4byte	.LASF68
 765 0499 05       		.byte	0x5
 766 049a 6702     		.2byte	0x267
 767 049c 07       		.byte	0x7
 768 049d 75000000 		.4byte	0x75
 769 04a1 00       		.byte	0
 770 04a2 17       		.uleb128 0x17
 771 04a3 2C010000 		.4byte	.LASF69
 772 04a7 05       		.byte	0x5
 773 04a8 6C02     		.2byte	0x26c
 774 04aa 0B       		.byte	0xb
 775 04ab BA060000 		.4byte	0x6ba
 776 04af 04       		.byte	0x4
 777 04b0 17       		.uleb128 0x17
 778 04b1 CF010000 		.4byte	.LASF70
 779 04b5 05       		.byte	0x5
 780 04b6 6C02     		.2byte	0x26c
 781 04b8 14       		.byte	0x14
 782 04b9 BA060000 		.4byte	0x6ba
 783 04bd 08       		.byte	0x8
 784 04be 17       		.uleb128 0x17
 785 04bf 87010000 		.4byte	.LASF71
 786 04c3 05       		.byte	0x5
 787 04c4 6C02     		.2byte	0x26c
 788 04c6 1E       		.byte	0x1e
 789 04c7 BA060000 		.4byte	0x6ba
 790 04cb 0C       		.byte	0xc
 791 04cc 17       		.uleb128 0x17
 792 04cd E3040000 		.4byte	.LASF72
 793 04d1 05       		.byte	0x5
 794 04d2 6E02     		.2byte	0x26e
 795 04d4 08       		.byte	0x8
 796 04d5 75000000 		.4byte	0x75
 797 04d9 10       		.byte	0x10
 798 04da 17       		.uleb128 0x17
ARM GAS  /tmp/cc3Fa0fO.s 			page 15


 799 04db 27000000 		.4byte	.LASF73
 800 04df 05       		.byte	0x5
 801 04e0 6F02     		.2byte	0x26f
 802 04e2 08       		.byte	0x8
 803 04e3 BA080000 		.4byte	0x8ba
 804 04e7 14       		.byte	0x14
 805 04e8 17       		.uleb128 0x17
 806 04e9 FF040000 		.4byte	.LASF74
 807 04ed 05       		.byte	0x5
 808 04ee 7202     		.2byte	0x272
 809 04f0 07       		.byte	0x7
 810 04f1 75000000 		.4byte	0x75
 811 04f5 30       		.byte	0x30
 812 04f6 17       		.uleb128 0x17
 813 04f7 ED040000 		.4byte	.LASF75
 814 04fb 05       		.byte	0x5
 815 04fc 7302     		.2byte	0x273
 816 04fe 16       		.byte	0x16
 817 04ff CF080000 		.4byte	0x8cf
 818 0503 34       		.byte	0x34
 819 0504 17       		.uleb128 0x17
 820 0505 3D040000 		.4byte	.LASF76
 821 0509 05       		.byte	0x5
 822 050a 7502     		.2byte	0x275
 823 050c 07       		.byte	0x7
 824 050d 75000000 		.4byte	0x75
 825 0511 38       		.byte	0x38
 826 0512 17       		.uleb128 0x17
 827 0513 F5040000 		.4byte	.LASF77
 828 0517 05       		.byte	0x5
 829 0518 7702     		.2byte	0x277
 830 051a 0A       		.byte	0xa
 831 051b E0080000 		.4byte	0x8e0
 832 051f 3C       		.byte	0x3c
 833 0520 17       		.uleb128 0x17
 834 0521 80020000 		.4byte	.LASF78
 835 0525 05       		.byte	0x5
 836 0526 7A02     		.2byte	0x27a
 837 0528 13       		.byte	0x13
 838 0529 9D010000 		.4byte	0x19d
 839 052d 40       		.byte	0x40
 840 052e 17       		.uleb128 0x17
 841 052f AC010000 		.4byte	.LASF79
 842 0533 05       		.byte	0x5
 843 0534 7B02     		.2byte	0x27b
 844 0536 07       		.byte	0x7
 845 0537 75000000 		.4byte	0x75
 846 053b 44       		.byte	0x44
 847 053c 17       		.uleb128 0x17
 848 053d 5C060000 		.4byte	.LASF80
 849 0541 05       		.byte	0x5
 850 0542 7C02     		.2byte	0x27c
 851 0544 13       		.byte	0x13
 852 0545 9D010000 		.4byte	0x19d
 853 0549 48       		.byte	0x48
 854 054a 17       		.uleb128 0x17
 855 054b 4F040000 		.4byte	.LASF81
ARM GAS  /tmp/cc3Fa0fO.s 			page 16


 856 054f 05       		.byte	0x5
 857 0550 7D02     		.2byte	0x27d
 858 0552 14       		.byte	0x14
 859 0553 E6080000 		.4byte	0x8e6
 860 0557 4C       		.byte	0x4c
 861 0558 17       		.uleb128 0x17
 862 0559 D7010000 		.4byte	.LASF82
 863 055d 05       		.byte	0x5
 864 055e 8002     		.2byte	0x280
 865 0560 07       		.byte	0x7
 866 0561 75000000 		.4byte	0x75
 867 0565 50       		.byte	0x50
 868 0566 17       		.uleb128 0x17
 869 0567 3C010000 		.4byte	.LASF83
 870 056b 05       		.byte	0x5
 871 056c 8102     		.2byte	0x281
 872 056e 09       		.byte	0x9
 873 056f CE050000 		.4byte	0x5ce
 874 0573 54       		.byte	0x54
 875 0574 17       		.uleb128 0x17
 876 0575 79040000 		.4byte	.LASF84
 877 0579 05       		.byte	0x5
 878 057a A402     		.2byte	0x2a4
 879 057c 07       		.byte	0x7
 880 057d 95080000 		.4byte	0x895
 881 0581 58       		.byte	0x58
 882 0582 18       		.uleb128 0x18
 883 0583 D9020000 		.4byte	.LASF44
 884 0587 05       		.byte	0x5
 885 0588 A802     		.2byte	0x2a8
 886 058a 13       		.byte	0x13
 887 058b CE020000 		.4byte	0x2ce
 888 058f 4801     		.2byte	0x148
 889 0591 18       		.uleb128 0x18
 890 0592 5E020000 		.4byte	.LASF85
 891 0596 05       		.byte	0x5
 892 0597 A902     		.2byte	0x2a9
 893 0599 12       		.byte	0x12
 894 059a 8B020000 		.4byte	0x28b
 895 059e 4C01     		.2byte	0x14c
 896 05a0 18       		.uleb128 0x18
 897 05a1 10060000 		.4byte	.LASF86
 898 05a5 05       		.byte	0x5
 899 05a6 AD02     		.2byte	0x2ad
 900 05a8 0C       		.byte	0xc
 901 05a9 F7080000 		.4byte	0x8f7
 902 05ad DC02     		.2byte	0x2dc
 903 05af 18       		.uleb128 0x18
 904 05b0 02010000 		.4byte	.LASF87
 905 05b4 05       		.byte	0x5
 906 05b5 B202     		.2byte	0x2b2
 907 05b7 10       		.byte	0x10
 908 05b8 7B060000 		.4byte	0x67b
 909 05bc E002     		.2byte	0x2e0
 910 05be 18       		.uleb128 0x18
 911 05bf E7000000 		.4byte	.LASF88
 912 05c3 05       		.byte	0x5
ARM GAS  /tmp/cc3Fa0fO.s 			page 17


 913 05c4 B402     		.2byte	0x2b4
 914 05c6 0A       		.byte	0xa
 915 05c7 03090000 		.4byte	0x903
 916 05cb EC02     		.2byte	0x2ec
 917 05cd 00       		.byte	0
 918 05ce 0F       		.uleb128 0xf
 919 05cf 04       		.byte	0x4
 920 05d0 D4050000 		.4byte	0x5d4
 921 05d4 02       		.uleb128 0x2
 922 05d5 01       		.byte	0x1
 923 05d6 08       		.byte	0x8
 924 05d7 77050000 		.4byte	.LASF89
 925 05db 15       		.uleb128 0x15
 926 05dc D4050000 		.4byte	0x5d4
 927 05e0 0F       		.uleb128 0xf
 928 05e1 04       		.byte	0x4
 929 05e2 5C040000 		.4byte	0x45c
 930 05e6 13       		.uleb128 0x13
 931 05e7 75000000 		.4byte	0x75
 932 05eb 04060000 		.4byte	0x604
 933 05ef 14       		.uleb128 0x14
 934 05f0 7A040000 		.4byte	0x47a
 935 05f4 14       		.uleb128 0x14
 936 05f5 1D010000 		.4byte	0x11d
 937 05f9 14       		.uleb128 0x14
 938 05fa 04060000 		.4byte	0x604
 939 05fe 14       		.uleb128 0x14
 940 05ff 75000000 		.4byte	0x75
 941 0603 00       		.byte	0
 942 0604 0F       		.uleb128 0xf
 943 0605 04       		.byte	0x4
 944 0606 DB050000 		.4byte	0x5db
 945 060a 0F       		.uleb128 0xf
 946 060b 04       		.byte	0x4
 947 060c E6050000 		.4byte	0x5e6
 948 0610 13       		.uleb128 0x13
 949 0611 AF000000 		.4byte	0xaf
 950 0615 2E060000 		.4byte	0x62e
 951 0619 14       		.uleb128 0x14
 952 061a 7A040000 		.4byte	0x47a
 953 061e 14       		.uleb128 0x14
 954 061f 1D010000 		.4byte	0x11d
 955 0623 14       		.uleb128 0x14
 956 0624 AF000000 		.4byte	0xaf
 957 0628 14       		.uleb128 0x14
 958 0629 75000000 		.4byte	0x75
 959 062d 00       		.byte	0
 960 062e 0F       		.uleb128 0xf
 961 062f 04       		.byte	0x4
 962 0630 10060000 		.4byte	0x610
 963 0634 13       		.uleb128 0x13
 964 0635 75000000 		.4byte	0x75
 965 0639 48060000 		.4byte	0x648
 966 063d 14       		.uleb128 0x14
 967 063e 7A040000 		.4byte	0x47a
 968 0642 14       		.uleb128 0x14
 969 0643 1D010000 		.4byte	0x11d
ARM GAS  /tmp/cc3Fa0fO.s 			page 18


 970 0647 00       		.byte	0
 971 0648 0F       		.uleb128 0xf
 972 0649 04       		.byte	0x4
 973 064a 34060000 		.4byte	0x634
 974 064e 08       		.uleb128 0x8
 975 064f 4D000000 		.4byte	0x4d
 976 0653 5E060000 		.4byte	0x65e
 977 0657 09       		.uleb128 0x9
 978 0658 7C000000 		.4byte	0x7c
 979 065c 02       		.byte	0x2
 980 065d 00       		.byte	0
 981 065e 08       		.uleb128 0x8
 982 065f 4D000000 		.4byte	0x4d
 983 0663 6E060000 		.4byte	0x66e
 984 0667 09       		.uleb128 0x9
 985 0668 7C000000 		.4byte	0x7c
 986 066c 00       		.byte	0
 987 066d 00       		.byte	0
 988 066e 05       		.uleb128 0x5
 989 066f A8040000 		.4byte	.LASF90
 990 0673 05       		.byte	0x5
 991 0674 2401     		.2byte	0x124
 992 0676 1A       		.byte	0x1a
 993 0677 19030000 		.4byte	0x319
 994 067b 19       		.uleb128 0x19
 995 067c F8050000 		.4byte	.LASF91
 996 0680 0C       		.byte	0xc
 997 0681 05       		.byte	0x5
 998 0682 2801     		.2byte	0x128
 999 0684 08       		.byte	0x8
 1000 0685 B4060000 		.4byte	0x6b4
 1001 0689 17       		.uleb128 0x17
 1002 068a 8B050000 		.4byte	.LASF24
 1003 068e 05       		.byte	0x5
 1004 068f 2A01     		.2byte	0x12a
 1005 0691 11       		.byte	0x11
 1006 0692 B4060000 		.4byte	0x6b4
 1007 0696 00       		.byte	0
 1008 0697 17       		.uleb128 0x17
 1009 0698 3F020000 		.4byte	.LASF92
 1010 069c 05       		.byte	0x5
 1011 069d 2B01     		.2byte	0x12b
 1012 069f 07       		.byte	0x7
 1013 06a0 75000000 		.4byte	0x75
 1014 06a4 04       		.byte	0x4
 1015 06a5 17       		.uleb128 0x17
 1016 06a6 A2040000 		.4byte	.LASF93
 1017 06aa 05       		.byte	0x5
 1018 06ab 2C01     		.2byte	0x12c
 1019 06ad 0B       		.byte	0xb
 1020 06ae BA060000 		.4byte	0x6ba
 1021 06b2 08       		.byte	0x8
 1022 06b3 00       		.byte	0
 1023 06b4 0F       		.uleb128 0xf
 1024 06b5 04       		.byte	0x4
 1025 06b6 7B060000 		.4byte	0x67b
 1026 06ba 0F       		.uleb128 0xf
ARM GAS  /tmp/cc3Fa0fO.s 			page 19


 1027 06bb 04       		.byte	0x4
 1028 06bc 6E060000 		.4byte	0x66e
 1029 06c0 19       		.uleb128 0x19
 1030 06c1 1F000000 		.4byte	.LASF94
 1031 06c5 0E       		.byte	0xe
 1032 06c6 05       		.byte	0x5
 1033 06c7 4401     		.2byte	0x144
 1034 06c9 08       		.byte	0x8
 1035 06ca F9060000 		.4byte	0x6f9
 1036 06ce 17       		.uleb128 0x17
 1037 06cf 38050000 		.4byte	.LASF95
 1038 06d3 05       		.byte	0x5
 1039 06d4 4501     		.2byte	0x145
 1040 06d6 12       		.byte	0x12
 1041 06d7 F9060000 		.4byte	0x6f9
 1042 06db 00       		.byte	0
 1043 06dc 17       		.uleb128 0x17
 1044 06dd 85050000 		.4byte	.LASF96
 1045 06e1 05       		.byte	0x5
 1046 06e2 4601     		.2byte	0x146
 1047 06e4 12       		.byte	0x12
 1048 06e5 F9060000 		.4byte	0x6f9
 1049 06e9 06       		.byte	0x6
 1050 06ea 17       		.uleb128 0x17
 1051 06eb AF050000 		.4byte	.LASF97
 1052 06ef 05       		.byte	0x5
 1053 06f0 4701     		.2byte	0x147
 1054 06f2 12       		.byte	0x12
 1055 06f3 54000000 		.4byte	0x54
 1056 06f7 0C       		.byte	0xc
 1057 06f8 00       		.byte	0
 1058 06f9 08       		.uleb128 0x8
 1059 06fa 54000000 		.4byte	0x54
 1060 06fe 09070000 		.4byte	0x709
 1061 0702 09       		.uleb128 0x9
 1062 0703 7C000000 		.4byte	0x7c
 1063 0707 02       		.byte	0x2
 1064 0708 00       		.byte	0
 1065 0709 1A       		.uleb128 0x1a
 1066 070a D0       		.byte	0xd0
 1067 070b 05       		.byte	0x5
 1068 070c 8502     		.2byte	0x285
 1069 070e 07       		.byte	0x7
 1070 070f 1E080000 		.4byte	0x81e
 1071 0713 17       		.uleb128 0x17
 1072 0714 DC050000 		.4byte	.LASF98
 1073 0718 05       		.byte	0x5
 1074 0719 8702     		.2byte	0x287
 1075 071b 18       		.byte	0x18
 1076 071c 7C000000 		.4byte	0x7c
 1077 0720 00       		.byte	0
 1078 0721 17       		.uleb128 0x17
 1079 0722 91050000 		.4byte	.LASF99
 1080 0726 05       		.byte	0x5
 1081 0727 8802     		.2byte	0x288
 1082 0729 12       		.byte	0x12
 1083 072a CE050000 		.4byte	0x5ce
ARM GAS  /tmp/cc3Fa0fO.s 			page 20


 1084 072e 04       		.byte	0x4
 1085 072f 17       		.uleb128 0x17
 1086 0730 73020000 		.4byte	.LASF100
 1087 0734 05       		.byte	0x5
 1088 0735 8902     		.2byte	0x289
 1089 0737 10       		.byte	0x10
 1090 0738 1E080000 		.4byte	0x81e
 1091 073c 08       		.byte	0x8
 1092 073d 17       		.uleb128 0x17
 1093 073e 33060000 		.4byte	.LASF101
 1094 0742 05       		.byte	0x5
 1095 0743 8A02     		.2byte	0x28a
 1096 0745 17       		.byte	0x17
 1097 0746 B3010000 		.4byte	0x1b3
 1098 074a 24       		.byte	0x24
 1099 074b 17       		.uleb128 0x17
 1100 074c 97010000 		.4byte	.LASF102
 1101 0750 05       		.byte	0x5
 1102 0751 8B02     		.2byte	0x28b
 1103 0753 0F       		.byte	0xf
 1104 0754 75000000 		.4byte	0x75
 1105 0758 48       		.byte	0x48
 1106 0759 17       		.uleb128 0x17
 1107 075a CB040000 		.4byte	.LASF103
 1108 075e 05       		.byte	0x5
 1109 075f 8C02     		.2byte	0x28c
 1110 0761 2C       		.byte	0x2c
 1111 0762 6E000000 		.4byte	0x6e
 1112 0766 50       		.byte	0x50
 1113 0767 17       		.uleb128 0x17
 1114 0768 49060000 		.4byte	.LASF104
 1115 076c 05       		.byte	0x5
 1116 076d 8D02     		.2byte	0x28d
 1117 076f 1A       		.byte	0x1a
 1118 0770 C0060000 		.4byte	0x6c0
 1119 0774 58       		.byte	0x58
 1120 0775 17       		.uleb128 0x17
 1121 0776 D6040000 		.4byte	.LASF105
 1122 077a 05       		.byte	0x5
 1123 077b 8E02     		.2byte	0x28e
 1124 077d 16       		.byte	0x16
 1125 077e 11010000 		.4byte	0x111
 1126 0782 68       		.byte	0x68
 1127 0783 17       		.uleb128 0x17
 1128 0784 4E060000 		.4byte	.LASF106
 1129 0788 05       		.byte	0x5
 1130 0789 8F02     		.2byte	0x28f
 1131 078b 16       		.byte	0x16
 1132 078c 11010000 		.4byte	0x111
 1133 0790 70       		.byte	0x70
 1134 0791 17       		.uleb128 0x17
 1135 0792 A0000000 		.4byte	.LASF107
 1136 0796 05       		.byte	0x5
 1137 0797 9002     		.2byte	0x290
 1138 0799 16       		.byte	0x16
 1139 079a 11010000 		.4byte	0x111
 1140 079e 78       		.byte	0x78
ARM GAS  /tmp/cc3Fa0fO.s 			page 21


 1141 079f 17       		.uleb128 0x17
 1142 07a0 06060000 		.4byte	.LASF108
 1143 07a4 05       		.byte	0x5
 1144 07a5 9102     		.2byte	0x291
 1145 07a7 10       		.byte	0x10
 1146 07a8 2E080000 		.4byte	0x82e
 1147 07ac 80       		.byte	0x80
 1148 07ad 17       		.uleb128 0x17
 1149 07ae 67020000 		.4byte	.LASF109
 1150 07b2 05       		.byte	0x5
 1151 07b3 9202     		.2byte	0x292
 1152 07b5 10       		.byte	0x10
 1153 07b6 3E080000 		.4byte	0x83e
 1154 07ba 88       		.byte	0x88
 1155 07bb 17       		.uleb128 0x17
 1156 07bc BC050000 		.4byte	.LASF110
 1157 07c0 05       		.byte	0x5
 1158 07c1 9302     		.2byte	0x293
 1159 07c3 0F       		.byte	0xf
 1160 07c4 75000000 		.4byte	0x75
 1161 07c8 A0       		.byte	0xa0
 1162 07c9 17       		.uleb128 0x17
 1163 07ca 5D010000 		.4byte	.LASF111
 1164 07ce 05       		.byte	0x5
 1165 07cf 9402     		.2byte	0x294
 1166 07d1 16       		.byte	0x16
 1167 07d2 11010000 		.4byte	0x111
 1168 07d6 A4       		.byte	0xa4
 1169 07d7 17       		.uleb128 0x17
 1170 07d8 91000000 		.4byte	.LASF112
 1171 07dc 05       		.byte	0x5
 1172 07dd 9502     		.2byte	0x295
 1173 07df 16       		.byte	0x16
 1174 07e0 11010000 		.4byte	0x111
 1175 07e4 AC       		.byte	0xac
 1176 07e5 17       		.uleb128 0x17
 1177 07e6 4C010000 		.4byte	.LASF113
 1178 07ea 05       		.byte	0x5
 1179 07eb 9602     		.2byte	0x296
 1180 07ed 16       		.byte	0x16
 1181 07ee 11010000 		.4byte	0x111
 1182 07f2 B4       		.byte	0xb4
 1183 07f3 17       		.uleb128 0x17
 1184 07f4 46000000 		.4byte	.LASF114
 1185 07f8 05       		.byte	0x5
 1186 07f9 9702     		.2byte	0x297
 1187 07fb 16       		.byte	0x16
 1188 07fc 11010000 		.4byte	0x111
 1189 0800 BC       		.byte	0xbc
 1190 0801 17       		.uleb128 0x17
 1191 0802 55000000 		.4byte	.LASF115
 1192 0806 05       		.byte	0x5
 1193 0807 9802     		.2byte	0x298
 1194 0809 16       		.byte	0x16
 1195 080a 11010000 		.4byte	0x111
 1196 080e C4       		.byte	0xc4
 1197 080f 17       		.uleb128 0x17
ARM GAS  /tmp/cc3Fa0fO.s 			page 22


 1198 0810 7E040000 		.4byte	.LASF116
 1199 0814 05       		.byte	0x5
 1200 0815 9902     		.2byte	0x299
 1201 0817 08       		.byte	0x8
 1202 0818 75000000 		.4byte	0x75
 1203 081c CC       		.byte	0xcc
 1204 081d 00       		.byte	0
 1205 081e 08       		.uleb128 0x8
 1206 081f D4050000 		.4byte	0x5d4
 1207 0823 2E080000 		.4byte	0x82e
 1208 0827 09       		.uleb128 0x9
 1209 0828 7C000000 		.4byte	0x7c
 1210 082c 19       		.byte	0x19
 1211 082d 00       		.byte	0
 1212 082e 08       		.uleb128 0x8
 1213 082f D4050000 		.4byte	0x5d4
 1214 0833 3E080000 		.4byte	0x83e
 1215 0837 09       		.uleb128 0x9
 1216 0838 7C000000 		.4byte	0x7c
 1217 083c 07       		.byte	0x7
 1218 083d 00       		.byte	0
 1219 083e 08       		.uleb128 0x8
 1220 083f D4050000 		.4byte	0x5d4
 1221 0843 4E080000 		.4byte	0x84e
 1222 0847 09       		.uleb128 0x9
 1223 0848 7C000000 		.4byte	0x7c
 1224 084c 17       		.byte	0x17
 1225 084d 00       		.byte	0
 1226 084e 1A       		.uleb128 0x1a
 1227 084f F0       		.byte	0xf0
 1228 0850 05       		.byte	0x5
 1229 0851 9E02     		.2byte	0x29e
 1230 0853 07       		.byte	0x7
 1231 0854 75080000 		.4byte	0x875
 1232 0858 17       		.uleb128 0x17
 1233 0859 C9020000 		.4byte	.LASF117
 1234 085d 05       		.byte	0x5
 1235 085e A102     		.2byte	0x2a1
 1236 0860 1B       		.byte	0x1b
 1237 0861 75080000 		.4byte	0x875
 1238 0865 00       		.byte	0
 1239 0866 17       		.uleb128 0x17
 1240 0867 B4020000 		.4byte	.LASF118
 1241 086b 05       		.byte	0x5
 1242 086c A202     		.2byte	0x2a2
 1243 086e 18       		.byte	0x18
 1244 086f 85080000 		.4byte	0x885
 1245 0873 78       		.byte	0x78
 1246 0874 00       		.byte	0
 1247 0875 08       		.uleb128 0x8
 1248 0876 13030000 		.4byte	0x313
 1249 087a 85080000 		.4byte	0x885
 1250 087e 09       		.uleb128 0x9
 1251 087f 7C000000 		.4byte	0x7c
 1252 0883 1D       		.byte	0x1d
 1253 0884 00       		.byte	0
 1254 0885 08       		.uleb128 0x8
ARM GAS  /tmp/cc3Fa0fO.s 			page 23


 1255 0886 7C000000 		.4byte	0x7c
 1256 088a 95080000 		.4byte	0x895
 1257 088e 09       		.uleb128 0x9
 1258 088f 7C000000 		.4byte	0x7c
 1259 0893 1D       		.byte	0x1d
 1260 0894 00       		.byte	0
 1261 0895 1B       		.uleb128 0x1b
 1262 0896 F0       		.byte	0xf0
 1263 0897 05       		.byte	0x5
 1264 0898 8302     		.2byte	0x283
 1265 089a 03       		.byte	0x3
 1266 089b BA080000 		.4byte	0x8ba
 1267 089f 1C       		.uleb128 0x1c
 1268 08a0 31050000 		.4byte	.LASF67
 1269 08a4 05       		.byte	0x5
 1270 08a5 9A02     		.2byte	0x29a
 1271 08a7 0B       		.byte	0xb
 1272 08a8 09070000 		.4byte	0x709
 1273 08ac 1C       		.uleb128 0x1c
 1274 08ad 20060000 		.4byte	.LASF119
 1275 08b1 05       		.byte	0x5
 1276 08b2 A302     		.2byte	0x2a3
 1277 08b4 0B       		.byte	0xb
 1278 08b5 4E080000 		.4byte	0x84e
 1279 08b9 00       		.byte	0
 1280 08ba 08       		.uleb128 0x8
 1281 08bb D4050000 		.4byte	0x5d4
 1282 08bf CA080000 		.4byte	0x8ca
 1283 08c3 09       		.uleb128 0x9
 1284 08c4 7C000000 		.4byte	0x7c
 1285 08c8 18       		.byte	0x18
 1286 08c9 00       		.byte	0
 1287 08ca 1D       		.uleb128 0x1d
 1288 08cb 86000000 		.4byte	.LASF129
 1289 08cf 0F       		.uleb128 0xf
 1290 08d0 04       		.byte	0x4
 1291 08d1 CA080000 		.4byte	0x8ca
 1292 08d5 1E       		.uleb128 0x1e
 1293 08d6 E0080000 		.4byte	0x8e0
 1294 08da 14       		.uleb128 0x14
 1295 08db 7A040000 		.4byte	0x47a
 1296 08df 00       		.byte	0
 1297 08e0 0F       		.uleb128 0xf
 1298 08e1 04       		.byte	0x4
 1299 08e2 D5080000 		.4byte	0x8d5
 1300 08e6 0F       		.uleb128 0xf
 1301 08e7 04       		.byte	0x4
 1302 08e8 9D010000 		.4byte	0x19d
 1303 08ec 1E       		.uleb128 0x1e
 1304 08ed F7080000 		.4byte	0x8f7
 1305 08f1 14       		.uleb128 0x14
 1306 08f2 75000000 		.4byte	0x75
 1307 08f6 00       		.byte	0
 1308 08f7 0F       		.uleb128 0xf
 1309 08f8 04       		.byte	0x4
 1310 08f9 FD080000 		.4byte	0x8fd
 1311 08fd 0F       		.uleb128 0xf
ARM GAS  /tmp/cc3Fa0fO.s 			page 24


 1312 08fe 04       		.byte	0x4
 1313 08ff EC080000 		.4byte	0x8ec
 1314 0903 08       		.uleb128 0x8
 1315 0904 6E060000 		.4byte	0x66e
 1316 0908 13090000 		.4byte	0x913
 1317 090c 09       		.uleb128 0x9
 1318 090d 7C000000 		.4byte	0x7c
 1319 0911 02       		.byte	0x2
 1320 0912 00       		.byte	0
 1321 0913 1F       		.uleb128 0x1f
 1322 0914 55050000 		.4byte	.LASF120
 1323 0918 05       		.byte	0x5
 1324 0919 3303     		.2byte	0x333
 1325 091b 17       		.byte	0x17
 1326 091c 7A040000 		.4byte	0x47a
 1327 0920 1F       		.uleb128 0x1f
 1328 0921 C9050000 		.4byte	.LASF121
 1329 0925 05       		.byte	0x5
 1330 0926 3403     		.2byte	0x334
 1331 0928 1D       		.byte	0x1d
 1332 0929 80040000 		.4byte	0x480
 1333 092d 0F       		.uleb128 0xf
 1334 092e 04       		.byte	0x4
 1335 092f 33090000 		.4byte	0x933
 1336 0933 20       		.uleb128 0x20
 1337 0934 21       		.uleb128 0x21
 1338 0935 E1020000 		.4byte	.LASF122
 1339 0939 07       		.byte	0x7
 1340 093a 67       		.byte	0x67
 1341 093b 0E       		.byte	0xe
 1342 093c CE050000 		.4byte	0x5ce
 1343 0940 22       		.uleb128 0x22
 1344 0941 19000000 		.4byte	.LASF130
 1345 0945 01       		.byte	0x1
 1346 0946 07       		.byte	0x7
 1347 0947 0A       		.byte	0xa
 1348 0948 5B000000 		.4byte	0x5b
 1349 094c 00000000 		.4byte	.LFB0
 1350 0950 58000000 		.4byte	.LFE0-.LFB0
 1351 0954 01       		.uleb128 0x1
 1352 0955 9C       		.byte	0x9c
 1353 0956 FA090000 		.4byte	0x9fa
 1354 095a 23       		.uleb128 0x23
 1355 095b 38000000 		.4byte	.LASF123
 1356 095f 01       		.byte	0x1
 1357 0960 07       		.byte	0x7
 1358 0961 19       		.byte	0x19
 1359 0962 5B000000 		.4byte	0x5b
 1360 0966 06000000 		.4byte	.LLST0
 1361 096a 00000000 		.4byte	.LVUS0
 1362 096e 23       		.uleb128 0x23
 1363 096f 46020000 		.4byte	.LASF124
 1364 0973 01       		.byte	0x1
 1365 0974 07       		.byte	0x7
 1366 0975 2B       		.byte	0x2b
 1367 0976 2D090000 		.4byte	0x92d
 1368 097a 39000000 		.4byte	.LLST1
ARM GAS  /tmp/cc3Fa0fO.s 			page 25


 1369 097e 35000000 		.4byte	.LVUS1
 1370 0982 23       		.uleb128 0x23
 1371 0983 69050000 		.4byte	.LASF125
 1372 0987 01       		.byte	0x1
 1373 0988 07       		.byte	0x7
 1374 0989 38       		.byte	0x38
 1375 098a 83000000 		.4byte	0x83
 1376 098e 60000000 		.4byte	.LLST2
 1377 0992 5A000000 		.4byte	.LVUS2
 1378 0996 24       		.uleb128 0x24
 1379 0997 7000     		.ascii	"p\000"
 1380 0999 01       		.byte	0x1
 1381 099a 09       		.byte	0x9
 1382 099b 0E       		.byte	0xe
 1383 099c FA090000 		.4byte	0x9fa
 1384 09a0 92000000 		.4byte	.LLST3
 1385 09a4 8E000000 		.4byte	.LVUS3
 1386 09a8 24       		.uleb128 0x24
 1387 09a9 63726300 		.ascii	"crc\000"
 1388 09ad 01       		.byte	0x1
 1389 09ae 0A       		.byte	0xa
 1390 09af 0E       		.byte	0xe
 1391 09b0 5B000000 		.4byte	0x5b
 1392 09b4 B7000000 		.4byte	.LLST4
 1393 09b8 B3000000 		.4byte	.LVUS4
 1394 09bc 24       		.uleb128 0x24
 1395 09bd 6900     		.ascii	"i\000"
 1396 09bf 01       		.byte	0x1
 1397 09c0 0B       		.byte	0xb
 1398 09c1 0C       		.byte	0xc
 1399 09c2 83000000 		.4byte	0x83
 1400 09c6 E0000000 		.4byte	.LLST5
 1401 09ca D8000000 		.4byte	.LVUS5
 1402 09ce 25       		.uleb128 0x25
 1403 09cf 14000000 		.4byte	.LBB2
 1404 09d3 24000000 		.4byte	.LBE2-.LBB2
 1405 09d7 F0090000 		.4byte	0x9f0
 1406 09db 24       		.uleb128 0x24
 1407 09dc 62697400 		.ascii	"bit\000"
 1408 09e0 01       		.byte	0x1
 1409 09e1 0D       		.byte	0xd
 1410 09e2 0D       		.byte	0xd
 1411 09e3 75000000 		.4byte	0x75
 1412 09e7 31010000 		.4byte	.LLST6
 1413 09eb 2B010000 		.4byte	.LVUS6
 1414 09ef 00       		.byte	0
 1415 09f0 26       		.uleb128 0x26
 1416 09f1 50000000 		.4byte	.LVL13
 1417 09f5 000A0000 		.4byte	0xa00
 1418 09f9 00       		.byte	0
 1419 09fa 0F       		.uleb128 0xf
 1420 09fb 04       		.byte	0x4
 1421 09fc 41000000 		.4byte	0x41
 1422 0a00 27       		.uleb128 0x27
 1423 0a01 18050000 		.4byte	.LASF131
 1424 0a05 18050000 		.4byte	.LASF131
 1425 0a09 00       		.byte	0
ARM GAS  /tmp/cc3Fa0fO.s 			page 26


 1426              		.section	.debug_abbrev,"",%progbits
 1427              	.Ldebug_abbrev0:
 1428 0000 01       		.uleb128 0x1
 1429 0001 11       		.uleb128 0x11
 1430 0002 01       		.byte	0x1
 1431 0003 25       		.uleb128 0x25
 1432 0004 0E       		.uleb128 0xe
 1433 0005 13       		.uleb128 0x13
 1434 0006 0B       		.uleb128 0xb
 1435 0007 03       		.uleb128 0x3
 1436 0008 0E       		.uleb128 0xe
 1437 0009 1B       		.uleb128 0x1b
 1438 000a 0E       		.uleb128 0xe
 1439 000b 55       		.uleb128 0x55
 1440 000c 17       		.uleb128 0x17
 1441 000d 11       		.uleb128 0x11
 1442 000e 01       		.uleb128 0x1
 1443 000f 10       		.uleb128 0x10
 1444 0010 17       		.uleb128 0x17
 1445 0011 00       		.byte	0
 1446 0012 00       		.byte	0
 1447 0013 02       		.uleb128 0x2
 1448 0014 24       		.uleb128 0x24
 1449 0015 00       		.byte	0
 1450 0016 0B       		.uleb128 0xb
 1451 0017 0B       		.uleb128 0xb
 1452 0018 3E       		.uleb128 0x3e
 1453 0019 0B       		.uleb128 0xb
 1454 001a 03       		.uleb128 0x3
 1455 001b 0E       		.uleb128 0xe
 1456 001c 00       		.byte	0
 1457 001d 00       		.byte	0
 1458 001e 03       		.uleb128 0x3
 1459 001f 16       		.uleb128 0x16
 1460 0020 00       		.byte	0
 1461 0021 03       		.uleb128 0x3
 1462 0022 0E       		.uleb128 0xe
 1463 0023 3A       		.uleb128 0x3a
 1464 0024 0B       		.uleb128 0xb
 1465 0025 3B       		.uleb128 0x3b
 1466 0026 0B       		.uleb128 0xb
 1467 0027 39       		.uleb128 0x39
 1468 0028 0B       		.uleb128 0xb
 1469 0029 49       		.uleb128 0x49
 1470 002a 13       		.uleb128 0x13
 1471 002b 00       		.byte	0
 1472 002c 00       		.byte	0
 1473 002d 04       		.uleb128 0x4
 1474 002e 24       		.uleb128 0x24
 1475 002f 00       		.byte	0
 1476 0030 0B       		.uleb128 0xb
 1477 0031 0B       		.uleb128 0xb
 1478 0032 3E       		.uleb128 0x3e
 1479 0033 0B       		.uleb128 0xb
 1480 0034 03       		.uleb128 0x3
 1481 0035 08       		.uleb128 0x8
 1482 0036 00       		.byte	0
ARM GAS  /tmp/cc3Fa0fO.s 			page 27


 1483 0037 00       		.byte	0
 1484 0038 05       		.uleb128 0x5
 1485 0039 16       		.uleb128 0x16
 1486 003a 00       		.byte	0
 1487 003b 03       		.uleb128 0x3
 1488 003c 0E       		.uleb128 0xe
 1489 003d 3A       		.uleb128 0x3a
 1490 003e 0B       		.uleb128 0xb
 1491 003f 3B       		.uleb128 0x3b
 1492 0040 05       		.uleb128 0x5
 1493 0041 39       		.uleb128 0x39
 1494 0042 0B       		.uleb128 0xb
 1495 0043 49       		.uleb128 0x49
 1496 0044 13       		.uleb128 0x13
 1497 0045 00       		.byte	0
 1498 0046 00       		.byte	0
 1499 0047 06       		.uleb128 0x6
 1500 0048 17       		.uleb128 0x17
 1501 0049 01       		.byte	0x1
 1502 004a 0B       		.uleb128 0xb
 1503 004b 0B       		.uleb128 0xb
 1504 004c 3A       		.uleb128 0x3a
 1505 004d 0B       		.uleb128 0xb
 1506 004e 3B       		.uleb128 0x3b
 1507 004f 0B       		.uleb128 0xb
 1508 0050 39       		.uleb128 0x39
 1509 0051 0B       		.uleb128 0xb
 1510 0052 01       		.uleb128 0x1
 1511 0053 13       		.uleb128 0x13
 1512 0054 00       		.byte	0
 1513 0055 00       		.byte	0
 1514 0056 07       		.uleb128 0x7
 1515 0057 0D       		.uleb128 0xd
 1516 0058 00       		.byte	0
 1517 0059 03       		.uleb128 0x3
 1518 005a 0E       		.uleb128 0xe
 1519 005b 3A       		.uleb128 0x3a
 1520 005c 0B       		.uleb128 0xb
 1521 005d 3B       		.uleb128 0x3b
 1522 005e 0B       		.uleb128 0xb
 1523 005f 39       		.uleb128 0x39
 1524 0060 0B       		.uleb128 0xb
 1525 0061 49       		.uleb128 0x49
 1526 0062 13       		.uleb128 0x13
 1527 0063 00       		.byte	0
 1528 0064 00       		.byte	0
 1529 0065 08       		.uleb128 0x8
 1530 0066 01       		.uleb128 0x1
 1531 0067 01       		.byte	0x1
 1532 0068 49       		.uleb128 0x49
 1533 0069 13       		.uleb128 0x13
 1534 006a 01       		.uleb128 0x1
 1535 006b 13       		.uleb128 0x13
 1536 006c 00       		.byte	0
 1537 006d 00       		.byte	0
 1538 006e 09       		.uleb128 0x9
 1539 006f 21       		.uleb128 0x21
ARM GAS  /tmp/cc3Fa0fO.s 			page 28


 1540 0070 00       		.byte	0
 1541 0071 49       		.uleb128 0x49
 1542 0072 13       		.uleb128 0x13
 1543 0073 2F       		.uleb128 0x2f
 1544 0074 0B       		.uleb128 0xb
 1545 0075 00       		.byte	0
 1546 0076 00       		.byte	0
 1547 0077 0A       		.uleb128 0xa
 1548 0078 13       		.uleb128 0x13
 1549 0079 01       		.byte	0x1
 1550 007a 0B       		.uleb128 0xb
 1551 007b 0B       		.uleb128 0xb
 1552 007c 3A       		.uleb128 0x3a
 1553 007d 0B       		.uleb128 0xb
 1554 007e 3B       		.uleb128 0x3b
 1555 007f 0B       		.uleb128 0xb
 1556 0080 39       		.uleb128 0x39
 1557 0081 0B       		.uleb128 0xb
 1558 0082 01       		.uleb128 0x1
 1559 0083 13       		.uleb128 0x13
 1560 0084 00       		.byte	0
 1561 0085 00       		.byte	0
 1562 0086 0B       		.uleb128 0xb
 1563 0087 0D       		.uleb128 0xd
 1564 0088 00       		.byte	0
 1565 0089 03       		.uleb128 0x3
 1566 008a 0E       		.uleb128 0xe
 1567 008b 3A       		.uleb128 0x3a
 1568 008c 0B       		.uleb128 0xb
 1569 008d 3B       		.uleb128 0x3b
 1570 008e 0B       		.uleb128 0xb
 1571 008f 39       		.uleb128 0x39
 1572 0090 0B       		.uleb128 0xb
 1573 0091 49       		.uleb128 0x49
 1574 0092 13       		.uleb128 0x13
 1575 0093 38       		.uleb128 0x38
 1576 0094 0B       		.uleb128 0xb
 1577 0095 00       		.byte	0
 1578 0096 00       		.byte	0
 1579 0097 0C       		.uleb128 0xc
 1580 0098 0F       		.uleb128 0xf
 1581 0099 00       		.byte	0
 1582 009a 0B       		.uleb128 0xb
 1583 009b 0B       		.uleb128 0xb
 1584 009c 00       		.byte	0
 1585 009d 00       		.byte	0
 1586 009e 0D       		.uleb128 0xd
 1587 009f 13       		.uleb128 0x13
 1588 00a0 01       		.byte	0x1
 1589 00a1 03       		.uleb128 0x3
 1590 00a2 0E       		.uleb128 0xe
 1591 00a3 0B       		.uleb128 0xb
 1592 00a4 0B       		.uleb128 0xb
 1593 00a5 3A       		.uleb128 0x3a
 1594 00a6 0B       		.uleb128 0xb
 1595 00a7 3B       		.uleb128 0x3b
 1596 00a8 0B       		.uleb128 0xb
ARM GAS  /tmp/cc3Fa0fO.s 			page 29


 1597 00a9 39       		.uleb128 0x39
 1598 00aa 0B       		.uleb128 0xb
 1599 00ab 01       		.uleb128 0x1
 1600 00ac 13       		.uleb128 0x13
 1601 00ad 00       		.byte	0
 1602 00ae 00       		.byte	0
 1603 00af 0E       		.uleb128 0xe
 1604 00b0 0D       		.uleb128 0xd
 1605 00b1 00       		.byte	0
 1606 00b2 03       		.uleb128 0x3
 1607 00b3 08       		.uleb128 0x8
 1608 00b4 3A       		.uleb128 0x3a
 1609 00b5 0B       		.uleb128 0xb
 1610 00b6 3B       		.uleb128 0x3b
 1611 00b7 0B       		.uleb128 0xb
 1612 00b8 39       		.uleb128 0x39
 1613 00b9 0B       		.uleb128 0xb
 1614 00ba 49       		.uleb128 0x49
 1615 00bb 13       		.uleb128 0x13
 1616 00bc 38       		.uleb128 0x38
 1617 00bd 0B       		.uleb128 0xb
 1618 00be 00       		.byte	0
 1619 00bf 00       		.byte	0
 1620 00c0 0F       		.uleb128 0xf
 1621 00c1 0F       		.uleb128 0xf
 1622 00c2 00       		.byte	0
 1623 00c3 0B       		.uleb128 0xb
 1624 00c4 0B       		.uleb128 0xb
 1625 00c5 49       		.uleb128 0x49
 1626 00c6 13       		.uleb128 0x13
 1627 00c7 00       		.byte	0
 1628 00c8 00       		.byte	0
 1629 00c9 10       		.uleb128 0x10
 1630 00ca 13       		.uleb128 0x13
 1631 00cb 01       		.byte	0x1
 1632 00cc 03       		.uleb128 0x3
 1633 00cd 0E       		.uleb128 0xe
 1634 00ce 0B       		.uleb128 0xb
 1635 00cf 05       		.uleb128 0x5
 1636 00d0 3A       		.uleb128 0x3a
 1637 00d1 0B       		.uleb128 0xb
 1638 00d2 3B       		.uleb128 0x3b
 1639 00d3 0B       		.uleb128 0xb
 1640 00d4 39       		.uleb128 0x39
 1641 00d5 0B       		.uleb128 0xb
 1642 00d6 01       		.uleb128 0x1
 1643 00d7 13       		.uleb128 0x13
 1644 00d8 00       		.byte	0
 1645 00d9 00       		.byte	0
 1646 00da 11       		.uleb128 0x11
 1647 00db 0D       		.uleb128 0xd
 1648 00dc 00       		.byte	0
 1649 00dd 03       		.uleb128 0x3
 1650 00de 0E       		.uleb128 0xe
 1651 00df 3A       		.uleb128 0x3a
 1652 00e0 0B       		.uleb128 0xb
 1653 00e1 3B       		.uleb128 0x3b
ARM GAS  /tmp/cc3Fa0fO.s 			page 30


 1654 00e2 0B       		.uleb128 0xb
 1655 00e3 39       		.uleb128 0x39
 1656 00e4 0B       		.uleb128 0xb
 1657 00e5 49       		.uleb128 0x49
 1658 00e6 13       		.uleb128 0x13
 1659 00e7 38       		.uleb128 0x38
 1660 00e8 05       		.uleb128 0x5
 1661 00e9 00       		.byte	0
 1662 00ea 00       		.byte	0
 1663 00eb 12       		.uleb128 0x12
 1664 00ec 15       		.uleb128 0x15
 1665 00ed 00       		.byte	0
 1666 00ee 27       		.uleb128 0x27
 1667 00ef 19       		.uleb128 0x19
 1668 00f0 00       		.byte	0
 1669 00f1 00       		.byte	0
 1670 00f2 13       		.uleb128 0x13
 1671 00f3 15       		.uleb128 0x15
 1672 00f4 01       		.byte	0x1
 1673 00f5 27       		.uleb128 0x27
 1674 00f6 19       		.uleb128 0x19
 1675 00f7 49       		.uleb128 0x49
 1676 00f8 13       		.uleb128 0x13
 1677 00f9 01       		.uleb128 0x1
 1678 00fa 13       		.uleb128 0x13
 1679 00fb 00       		.byte	0
 1680 00fc 00       		.byte	0
 1681 00fd 14       		.uleb128 0x14
 1682 00fe 05       		.uleb128 0x5
 1683 00ff 00       		.byte	0
 1684 0100 49       		.uleb128 0x49
 1685 0101 13       		.uleb128 0x13
 1686 0102 00       		.byte	0
 1687 0103 00       		.byte	0
 1688 0104 15       		.uleb128 0x15
 1689 0105 26       		.uleb128 0x26
 1690 0106 00       		.byte	0
 1691 0107 49       		.uleb128 0x49
 1692 0108 13       		.uleb128 0x13
 1693 0109 00       		.byte	0
 1694 010a 00       		.byte	0
 1695 010b 16       		.uleb128 0x16
 1696 010c 13       		.uleb128 0x13
 1697 010d 01       		.byte	0x1
 1698 010e 03       		.uleb128 0x3
 1699 010f 0E       		.uleb128 0xe
 1700 0110 0B       		.uleb128 0xb
 1701 0111 05       		.uleb128 0x5
 1702 0112 3A       		.uleb128 0x3a
 1703 0113 0B       		.uleb128 0xb
 1704 0114 3B       		.uleb128 0x3b
 1705 0115 05       		.uleb128 0x5
 1706 0116 39       		.uleb128 0x39
 1707 0117 0B       		.uleb128 0xb
 1708 0118 01       		.uleb128 0x1
 1709 0119 13       		.uleb128 0x13
 1710 011a 00       		.byte	0
ARM GAS  /tmp/cc3Fa0fO.s 			page 31


 1711 011b 00       		.byte	0
 1712 011c 17       		.uleb128 0x17
 1713 011d 0D       		.uleb128 0xd
 1714 011e 00       		.byte	0
 1715 011f 03       		.uleb128 0x3
 1716 0120 0E       		.uleb128 0xe
 1717 0121 3A       		.uleb128 0x3a
 1718 0122 0B       		.uleb128 0xb
 1719 0123 3B       		.uleb128 0x3b
 1720 0124 05       		.uleb128 0x5
 1721 0125 39       		.uleb128 0x39
 1722 0126 0B       		.uleb128 0xb
 1723 0127 49       		.uleb128 0x49
 1724 0128 13       		.uleb128 0x13
 1725 0129 38       		.uleb128 0x38
 1726 012a 0B       		.uleb128 0xb
 1727 012b 00       		.byte	0
 1728 012c 00       		.byte	0
 1729 012d 18       		.uleb128 0x18
 1730 012e 0D       		.uleb128 0xd
 1731 012f 00       		.byte	0
 1732 0130 03       		.uleb128 0x3
 1733 0131 0E       		.uleb128 0xe
 1734 0132 3A       		.uleb128 0x3a
 1735 0133 0B       		.uleb128 0xb
 1736 0134 3B       		.uleb128 0x3b
 1737 0135 05       		.uleb128 0x5
 1738 0136 39       		.uleb128 0x39
 1739 0137 0B       		.uleb128 0xb
 1740 0138 49       		.uleb128 0x49
 1741 0139 13       		.uleb128 0x13
 1742 013a 38       		.uleb128 0x38
 1743 013b 05       		.uleb128 0x5
 1744 013c 00       		.byte	0
 1745 013d 00       		.byte	0
 1746 013e 19       		.uleb128 0x19
 1747 013f 13       		.uleb128 0x13
 1748 0140 01       		.byte	0x1
 1749 0141 03       		.uleb128 0x3
 1750 0142 0E       		.uleb128 0xe
 1751 0143 0B       		.uleb128 0xb
 1752 0144 0B       		.uleb128 0xb
 1753 0145 3A       		.uleb128 0x3a
 1754 0146 0B       		.uleb128 0xb
 1755 0147 3B       		.uleb128 0x3b
 1756 0148 05       		.uleb128 0x5
 1757 0149 39       		.uleb128 0x39
 1758 014a 0B       		.uleb128 0xb
 1759 014b 01       		.uleb128 0x1
 1760 014c 13       		.uleb128 0x13
 1761 014d 00       		.byte	0
 1762 014e 00       		.byte	0
 1763 014f 1A       		.uleb128 0x1a
 1764 0150 13       		.uleb128 0x13
 1765 0151 01       		.byte	0x1
 1766 0152 0B       		.uleb128 0xb
 1767 0153 0B       		.uleb128 0xb
ARM GAS  /tmp/cc3Fa0fO.s 			page 32


 1768 0154 3A       		.uleb128 0x3a
 1769 0155 0B       		.uleb128 0xb
 1770 0156 3B       		.uleb128 0x3b
 1771 0157 05       		.uleb128 0x5
 1772 0158 39       		.uleb128 0x39
 1773 0159 0B       		.uleb128 0xb
 1774 015a 01       		.uleb128 0x1
 1775 015b 13       		.uleb128 0x13
 1776 015c 00       		.byte	0
 1777 015d 00       		.byte	0
 1778 015e 1B       		.uleb128 0x1b
 1779 015f 17       		.uleb128 0x17
 1780 0160 01       		.byte	0x1
 1781 0161 0B       		.uleb128 0xb
 1782 0162 0B       		.uleb128 0xb
 1783 0163 3A       		.uleb128 0x3a
 1784 0164 0B       		.uleb128 0xb
 1785 0165 3B       		.uleb128 0x3b
 1786 0166 05       		.uleb128 0x5
 1787 0167 39       		.uleb128 0x39
 1788 0168 0B       		.uleb128 0xb
 1789 0169 01       		.uleb128 0x1
 1790 016a 13       		.uleb128 0x13
 1791 016b 00       		.byte	0
 1792 016c 00       		.byte	0
 1793 016d 1C       		.uleb128 0x1c
 1794 016e 0D       		.uleb128 0xd
 1795 016f 00       		.byte	0
 1796 0170 03       		.uleb128 0x3
 1797 0171 0E       		.uleb128 0xe
 1798 0172 3A       		.uleb128 0x3a
 1799 0173 0B       		.uleb128 0xb
 1800 0174 3B       		.uleb128 0x3b
 1801 0175 05       		.uleb128 0x5
 1802 0176 39       		.uleb128 0x39
 1803 0177 0B       		.uleb128 0xb
 1804 0178 49       		.uleb128 0x49
 1805 0179 13       		.uleb128 0x13
 1806 017a 00       		.byte	0
 1807 017b 00       		.byte	0
 1808 017c 1D       		.uleb128 0x1d
 1809 017d 13       		.uleb128 0x13
 1810 017e 00       		.byte	0
 1811 017f 03       		.uleb128 0x3
 1812 0180 0E       		.uleb128 0xe
 1813 0181 3C       		.uleb128 0x3c
 1814 0182 19       		.uleb128 0x19
 1815 0183 00       		.byte	0
 1816 0184 00       		.byte	0
 1817 0185 1E       		.uleb128 0x1e
 1818 0186 15       		.uleb128 0x15
 1819 0187 01       		.byte	0x1
 1820 0188 27       		.uleb128 0x27
 1821 0189 19       		.uleb128 0x19
 1822 018a 01       		.uleb128 0x1
 1823 018b 13       		.uleb128 0x13
 1824 018c 00       		.byte	0
ARM GAS  /tmp/cc3Fa0fO.s 			page 33


 1825 018d 00       		.byte	0
 1826 018e 1F       		.uleb128 0x1f
 1827 018f 34       		.uleb128 0x34
 1828 0190 00       		.byte	0
 1829 0191 03       		.uleb128 0x3
 1830 0192 0E       		.uleb128 0xe
 1831 0193 3A       		.uleb128 0x3a
 1832 0194 0B       		.uleb128 0xb
 1833 0195 3B       		.uleb128 0x3b
 1834 0196 05       		.uleb128 0x5
 1835 0197 39       		.uleb128 0x39
 1836 0198 0B       		.uleb128 0xb
 1837 0199 49       		.uleb128 0x49
 1838 019a 13       		.uleb128 0x13
 1839 019b 3F       		.uleb128 0x3f
 1840 019c 19       		.uleb128 0x19
 1841 019d 3C       		.uleb128 0x3c
 1842 019e 19       		.uleb128 0x19
 1843 019f 00       		.byte	0
 1844 01a0 00       		.byte	0
 1845 01a1 20       		.uleb128 0x20
 1846 01a2 26       		.uleb128 0x26
 1847 01a3 00       		.byte	0
 1848 01a4 00       		.byte	0
 1849 01a5 00       		.byte	0
 1850 01a6 21       		.uleb128 0x21
 1851 01a7 34       		.uleb128 0x34
 1852 01a8 00       		.byte	0
 1853 01a9 03       		.uleb128 0x3
 1854 01aa 0E       		.uleb128 0xe
 1855 01ab 3A       		.uleb128 0x3a
 1856 01ac 0B       		.uleb128 0xb
 1857 01ad 3B       		.uleb128 0x3b
 1858 01ae 0B       		.uleb128 0xb
 1859 01af 39       		.uleb128 0x39
 1860 01b0 0B       		.uleb128 0xb
 1861 01b1 49       		.uleb128 0x49
 1862 01b2 13       		.uleb128 0x13
 1863 01b3 3F       		.uleb128 0x3f
 1864 01b4 19       		.uleb128 0x19
 1865 01b5 3C       		.uleb128 0x3c
 1866 01b6 19       		.uleb128 0x19
 1867 01b7 00       		.byte	0
 1868 01b8 00       		.byte	0
 1869 01b9 22       		.uleb128 0x22
 1870 01ba 2E       		.uleb128 0x2e
 1871 01bb 01       		.byte	0x1
 1872 01bc 3F       		.uleb128 0x3f
 1873 01bd 19       		.uleb128 0x19
 1874 01be 03       		.uleb128 0x3
 1875 01bf 0E       		.uleb128 0xe
 1876 01c0 3A       		.uleb128 0x3a
 1877 01c1 0B       		.uleb128 0xb
 1878 01c2 3B       		.uleb128 0x3b
 1879 01c3 0B       		.uleb128 0xb
 1880 01c4 39       		.uleb128 0x39
 1881 01c5 0B       		.uleb128 0xb
ARM GAS  /tmp/cc3Fa0fO.s 			page 34


 1882 01c6 27       		.uleb128 0x27
 1883 01c7 19       		.uleb128 0x19
 1884 01c8 49       		.uleb128 0x49
 1885 01c9 13       		.uleb128 0x13
 1886 01ca 11       		.uleb128 0x11
 1887 01cb 01       		.uleb128 0x1
 1888 01cc 12       		.uleb128 0x12
 1889 01cd 06       		.uleb128 0x6
 1890 01ce 40       		.uleb128 0x40
 1891 01cf 18       		.uleb128 0x18
 1892 01d0 9742     		.uleb128 0x2117
 1893 01d2 19       		.uleb128 0x19
 1894 01d3 01       		.uleb128 0x1
 1895 01d4 13       		.uleb128 0x13
 1896 01d5 00       		.byte	0
 1897 01d6 00       		.byte	0
 1898 01d7 23       		.uleb128 0x23
 1899 01d8 05       		.uleb128 0x5
 1900 01d9 00       		.byte	0
 1901 01da 03       		.uleb128 0x3
 1902 01db 0E       		.uleb128 0xe
 1903 01dc 3A       		.uleb128 0x3a
 1904 01dd 0B       		.uleb128 0xb
 1905 01de 3B       		.uleb128 0x3b
 1906 01df 0B       		.uleb128 0xb
 1907 01e0 39       		.uleb128 0x39
 1908 01e1 0B       		.uleb128 0xb
 1909 01e2 49       		.uleb128 0x49
 1910 01e3 13       		.uleb128 0x13
 1911 01e4 02       		.uleb128 0x2
 1912 01e5 17       		.uleb128 0x17
 1913 01e6 B742     		.uleb128 0x2137
 1914 01e8 17       		.uleb128 0x17
 1915 01e9 00       		.byte	0
 1916 01ea 00       		.byte	0
 1917 01eb 24       		.uleb128 0x24
 1918 01ec 34       		.uleb128 0x34
 1919 01ed 00       		.byte	0
 1920 01ee 03       		.uleb128 0x3
 1921 01ef 08       		.uleb128 0x8
 1922 01f0 3A       		.uleb128 0x3a
 1923 01f1 0B       		.uleb128 0xb
 1924 01f2 3B       		.uleb128 0x3b
 1925 01f3 0B       		.uleb128 0xb
 1926 01f4 39       		.uleb128 0x39
 1927 01f5 0B       		.uleb128 0xb
 1928 01f6 49       		.uleb128 0x49
 1929 01f7 13       		.uleb128 0x13
 1930 01f8 02       		.uleb128 0x2
 1931 01f9 17       		.uleb128 0x17
 1932 01fa B742     		.uleb128 0x2137
 1933 01fc 17       		.uleb128 0x17
 1934 01fd 00       		.byte	0
 1935 01fe 00       		.byte	0
 1936 01ff 25       		.uleb128 0x25
 1937 0200 0B       		.uleb128 0xb
 1938 0201 01       		.byte	0x1
ARM GAS  /tmp/cc3Fa0fO.s 			page 35


 1939 0202 11       		.uleb128 0x11
 1940 0203 01       		.uleb128 0x1
 1941 0204 12       		.uleb128 0x12
 1942 0205 06       		.uleb128 0x6
 1943 0206 01       		.uleb128 0x1
 1944 0207 13       		.uleb128 0x13
 1945 0208 00       		.byte	0
 1946 0209 00       		.byte	0
 1947 020a 26       		.uleb128 0x26
 1948 020b 898201   		.uleb128 0x4109
 1949 020e 00       		.byte	0
 1950 020f 11       		.uleb128 0x11
 1951 0210 01       		.uleb128 0x1
 1952 0211 31       		.uleb128 0x31
 1953 0212 13       		.uleb128 0x13
 1954 0213 00       		.byte	0
 1955 0214 00       		.byte	0
 1956 0215 27       		.uleb128 0x27
 1957 0216 2E       		.uleb128 0x2e
 1958 0217 00       		.byte	0
 1959 0218 3F       		.uleb128 0x3f
 1960 0219 19       		.uleb128 0x19
 1961 021a 3C       		.uleb128 0x3c
 1962 021b 19       		.uleb128 0x19
 1963 021c 6E       		.uleb128 0x6e
 1964 021d 0E       		.uleb128 0xe
 1965 021e 03       		.uleb128 0x3
 1966 021f 0E       		.uleb128 0xe
 1967 0220 00       		.byte	0
 1968 0221 00       		.byte	0
 1969 0222 00       		.byte	0
 1970              		.section	.debug_loc,"",%progbits
 1971              	.Ldebug_loc0:
 1972              	.LVUS0:
 1973 0000 00       		.uleb128 0
 1974 0001 00       		.uleb128 .LVU11
 1975 0002 00       		.uleb128 .LVU11
 1976 0003 00       		.uleb128 .LVU12
 1977 0004 00       		.uleb128 .LVU12
 1978 0005 00       		.uleb128 0
 1979              	.LLST0:
 1980 0006 00000000 		.4byte	.LVL0
 1981 000a 16000000 		.4byte	.LVL4
 1982 000e 0100     		.2byte	0x1
 1983 0010 50       		.byte	0x50
 1984 0011 16000000 		.4byte	.LVL4
 1985 0015 1A000000 		.4byte	.LVL5
 1986 0019 0400     		.2byte	0x4
 1987 001b 74       		.byte	0x74
 1988 001c 00       		.sleb128 0
 1989 001d 20       		.byte	0x20
 1990 001e 9F       		.byte	0x9f
 1991 001f 1A000000 		.4byte	.LVL5
 1992 0023 58000000 		.4byte	.LFE0
 1993 0027 0400     		.2byte	0x4
 1994 0029 F3       		.byte	0xf3
 1995 002a 01       		.uleb128 0x1
ARM GAS  /tmp/cc3Fa0fO.s 			page 36


 1996 002b 50       		.byte	0x50
 1997 002c 9F       		.byte	0x9f
 1998 002d 00000000 		.4byte	0
 1999 0031 00000000 		.4byte	0
 2000              	.LVUS1:
 2001 0035 00       		.uleb128 0
 2002 0036 00       		.uleb128 .LVU12
 2003 0037 00       		.uleb128 .LVU12
 2004 0038 00       		.uleb128 0
 2005              	.LLST1:
 2006 0039 00000000 		.4byte	.LVL0
 2007 003d 1A000000 		.4byte	.LVL5
 2008 0041 0100     		.2byte	0x1
 2009 0043 51       		.byte	0x51
 2010 0044 1A000000 		.4byte	.LVL5
 2011 0048 58000000 		.4byte	.LFE0
 2012 004c 0400     		.2byte	0x4
 2013 004e F3       		.byte	0xf3
 2014 004f 01       		.uleb128 0x1
 2015 0050 51       		.byte	0x51
 2016 0051 9F       		.byte	0x9f
 2017 0052 00000000 		.4byte	0
 2018 0056 00000000 		.4byte	0
 2019              	.LVUS2:
 2020 005a 00       		.uleb128 0
 2021 005b 00       		.uleb128 .LVU10
 2022 005c 00       		.uleb128 .LVU10
 2023 005d 00       		.uleb128 .LVU12
 2024 005e 00       		.uleb128 .LVU12
 2025 005f 00       		.uleb128 0
 2026              	.LLST2:
 2027 0060 00000000 		.4byte	.LVL0
 2028 0064 14000000 		.4byte	.LVL3
 2029 0068 0100     		.2byte	0x1
 2030 006a 52       		.byte	0x52
 2031 006b 14000000 		.4byte	.LVL3
 2032 006f 1A000000 		.4byte	.LVL5
 2033 0073 0300     		.2byte	0x3
 2034 0075 72       		.byte	0x72
 2035 0076 01       		.sleb128 1
 2036 0077 9F       		.byte	0x9f
 2037 0078 1A000000 		.4byte	.LVL5
 2038 007c 58000000 		.4byte	.LFE0
 2039 0080 0400     		.2byte	0x4
 2040 0082 F3       		.byte	0xf3
 2041 0083 01       		.uleb128 0x1
 2042 0084 52       		.byte	0x52
 2043 0085 9F       		.byte	0x9f
 2044 0086 00000000 		.4byte	0
 2045 008a 00000000 		.4byte	0
 2046              	.LVUS3:
 2047 008e 01       		.uleb128 .LVU4
 2048 008f 00       		.uleb128 .LVU12
 2049 0090 00       		.uleb128 .LVU12
 2050 0091 00       		.uleb128 0
 2051              	.LLST3:
 2052 0092 0E000000 		.4byte	.LVL1
ARM GAS  /tmp/cc3Fa0fO.s 			page 37


 2053 0096 1A000000 		.4byte	.LVL5
 2054 009a 0100     		.2byte	0x1
 2055 009c 51       		.byte	0x51
 2056 009d 1A000000 		.4byte	.LVL5
 2057 00a1 58000000 		.4byte	.LFE0
 2058 00a5 0400     		.2byte	0x4
 2059 00a7 F3       		.byte	0xf3
 2060 00a8 01       		.uleb128 0x1
 2061 00a9 51       		.byte	0x51
 2062 00aa 9F       		.byte	0x9f
 2063 00ab 00000000 		.4byte	0
 2064 00af 00000000 		.4byte	0
 2065              	.LVUS4:
 2066 00b3 02       		.uleb128 .LVU5
 2067 00b4 00       		.uleb128 .LVU9
 2068 00b5 00       		.uleb128 .LVU9
 2069 00b6 00       		.uleb128 .LVU29
 2070              	.LLST4:
 2071 00b7 0E000000 		.4byte	.LVL1
 2072 00bb 12000000 		.4byte	.LVL2
 2073 00bf 0400     		.2byte	0x4
 2074 00c1 70       		.byte	0x70
 2075 00c2 00       		.sleb128 0
 2076 00c3 20       		.byte	0x20
 2077 00c4 9F       		.byte	0x9f
 2078 00c5 12000000 		.4byte	.LVL2
 2079 00c9 3E000000 		.4byte	.LVL12
 2080 00cd 0100     		.2byte	0x1
 2081 00cf 54       		.byte	0x54
 2082 00d0 00000000 		.4byte	0
 2083 00d4 00000000 		.4byte	0
 2084              	.LVUS5:
 2085 00d8 04       		.uleb128 .LVU7
 2086 00d9 00       		.uleb128 .LVU12
 2087 00da 00       		.uleb128 .LVU12
 2088 00db 00       		.uleb128 .LVU13
 2089 00dc 00       		.uleb128 .LVU13
 2090 00dd 01       		.uleb128 .LVU27
 2091 00de 01       		.uleb128 .LVU27
 2092 00df 00       		.uleb128 .LVU29
 2093              	.LLST5:
 2094 00e0 0E000000 		.4byte	.LVL1
 2095 00e4 1A000000 		.4byte	.LVL5
 2096 00e8 0200     		.2byte	0x2
 2097 00ea 30       		.byte	0x30
 2098 00eb 9F       		.byte	0x9f
 2099 00ec 1A000000 		.4byte	.LVL5
 2100 00f0 1E000000 		.4byte	.LVL6
 2101 00f4 0900     		.2byte	0x9
 2102 00f6 75       		.byte	0x75
 2103 00f7 00       		.sleb128 0
 2104 00f8 F3       		.byte	0xf3
 2105 00f9 01       		.uleb128 0x1
 2106 00fa 51       		.byte	0x51
 2107 00fb 1C       		.byte	0x1c
 2108 00fc 23       		.byte	0x23
 2109 00fd 01       		.uleb128 0x1
ARM GAS  /tmp/cc3Fa0fO.s 			page 38


 2110 00fe 9F       		.byte	0x9f
 2111 00ff 1E000000 		.4byte	.LVL6
 2112 0103 38000000 		.4byte	.LVL11
 2113 0107 0700     		.2byte	0x7
 2114 0109 75       		.byte	0x75
 2115 010a 00       		.sleb128 0
 2116 010b F3       		.byte	0xf3
 2117 010c 01       		.uleb128 0x1
 2118 010d 51       		.byte	0x51
 2119 010e 1C       		.byte	0x1c
 2120 010f 9F       		.byte	0x9f
 2121 0110 38000000 		.4byte	.LVL11
 2122 0114 3E000000 		.4byte	.LVL12
 2123 0118 0900     		.2byte	0x9
 2124 011a 75       		.byte	0x75
 2125 011b 00       		.sleb128 0
 2126 011c F3       		.byte	0xf3
 2127 011d 01       		.uleb128 0x1
 2128 011e 51       		.byte	0x51
 2129 011f 1C       		.byte	0x1c
 2130 0120 23       		.byte	0x23
 2131 0121 01       		.uleb128 0x1
 2132 0122 9F       		.byte	0x9f
 2133 0123 00000000 		.4byte	0
 2134 0127 00000000 		.4byte	0
 2135              	.LVUS6:
 2136 012b 00       		.uleb128 .LVU14
 2137 012c 00       		.uleb128 .LVU20
 2138 012d 00       		.uleb128 .LVU20
 2139 012e 01       		.uleb128 .LVU24
 2140 012f 01       		.uleb128 .LVU24
 2141 0130 00       		.uleb128 .LVU29
 2142              	.LLST6:
 2143 0131 20000000 		.4byte	.LVL7
 2144 0135 2C000000 		.4byte	.LVL8
 2145 0139 0100     		.2byte	0x1
 2146 013b 53       		.byte	0x53
 2147 013c 2C000000 		.4byte	.LVL8
 2148 0140 34000000 		.4byte	.LVL10
 2149 0144 0300     		.2byte	0x3
 2150 0146 73       		.byte	0x73
 2151 0147 7F       		.sleb128 -1
 2152 0148 9F       		.byte	0x9f
 2153 0149 34000000 		.4byte	.LVL10
 2154 014d 3E000000 		.4byte	.LVL12
 2155 0151 0100     		.2byte	0x1
 2156 0153 53       		.byte	0x53
 2157 0154 00000000 		.4byte	0
 2158 0158 00000000 		.4byte	0
 2159              		.section	.debug_aranges,"",%progbits
 2160 0000 1C000000 		.4byte	0x1c
 2161 0004 0200     		.2byte	0x2
 2162 0006 00000000 		.4byte	.Ldebug_info0
 2163 000a 04       		.byte	0x4
 2164 000b 00       		.byte	0
 2165 000c 0000     		.2byte	0
 2166 000e 0000     		.2byte	0
ARM GAS  /tmp/cc3Fa0fO.s 			page 39


 2167 0010 00000000 		.4byte	.LFB0
 2168 0014 58000000 		.4byte	.LFE0-.LFB0
 2169 0018 00000000 		.4byte	0
 2170 001c 00000000 		.4byte	0
 2171              		.section	.debug_ranges,"",%progbits
 2172              	.Ldebug_ranges0:
 2173 0000 00000000 		.4byte	.LFB0
 2174 0004 58000000 		.4byte	.LFE0
 2175 0008 00000000 		.4byte	0
 2176 000c 00000000 		.4byte	0
 2177              		.section	.debug_line,"",%progbits
 2178              	.Ldebug_line0:
 2179 0000 3A010000 		.section	.debug_str,"MS",%progbits,1
 2179      0300C300 
 2179      00000201 
 2179      FB0E0D00 
 2179      01010101 
 2180              	.LASF41:
 2181 0000 5F64736F 		.ascii	"_dso_handle\000"
 2181      5F68616E 
 2181      646C6500 
 2182              	.LASF49:
 2183 000c 5F73697A 		.ascii	"_size\000"
 2183      6500
 2184              	.LASF11:
 2185 0012 73697A65 		.ascii	"size_t\000"
 2185      5F7400
 2186              	.LASF130:
 2187 0019 63726333 		.ascii	"crc32\000"
 2187      3200
 2188              	.LASF94:
 2189 001f 5F72616E 		.ascii	"_rand48\000"
 2189      64343800 
 2190              	.LASF73:
 2191 0027 5F656D65 		.ascii	"_emergency\000"
 2191      7267656E 
 2191      637900
 2192              	.LASF63:
 2193 0032 5F646174 		.ascii	"_data\000"
 2193      6100
 2194              	.LASF123:
 2195 0038 696E6974 		.ascii	"init\000"
 2195      00
 2196              	.LASF2:
 2197 003d 6C6F6E67 		.ascii	"long int\000"
 2197      20696E74 
 2197      00
 2198              	.LASF114:
 2199 0046 5F776372 		.ascii	"_wcrtomb_state\000"
 2199      746F6D62 
 2199      5F737461 
 2199      746500
 2200              	.LASF115:
 2201 0055 5F776373 		.ascii	"_wcsrtombs_state\000"
 2201      72746F6D 
 2201      62735F73 
 2201      74617465 
ARM GAS  /tmp/cc3Fa0fO.s 			page 40


 2201      00
 2202              	.LASF9:
 2203 0066 6C6F6E67 		.ascii	"long long unsigned int\000"
 2203      206C6F6E 
 2203      6720756E 
 2203      7369676E 
 2203      65642069 
 2204              	.LASF53:
 2205 007d 5F6C6266 		.ascii	"_lbfsize\000"
 2205      73697A65 
 2205      00
 2206              	.LASF129:
 2207 0086 5F5F6C6F 		.ascii	"__locale_t\000"
 2207      63616C65 
 2207      5F7400
 2208              	.LASF112:
 2209 0091 5F6D6272 		.ascii	"_mbrtowc_state\000"
 2209      746F7763 
 2209      5F737461 
 2209      746500
 2210              	.LASF107:
 2211 00a0 5F776374 		.ascii	"_wctomb_state\000"
 2211      6F6D625F 
 2211      73746174 
 2211      6500
 2212              	.LASF30:
 2213 00ae 5F5F746D 		.ascii	"__tm_sec\000"
 2213      5F736563 
 2213      00
 2214              	.LASF3:
 2215 00b7 6C6F6E67 		.ascii	"long long int\000"
 2215      206C6F6E 
 2215      6720696E 
 2215      7400
 2216              	.LASF0:
 2217 00c5 7369676E 		.ascii	"signed char\000"
 2217      65642063 
 2217      68617200 
 2218              	.LASF59:
 2219 00d1 5F756275 		.ascii	"_ubuf\000"
 2219      6600
 2220              	.LASF48:
 2221 00d7 5F626173 		.ascii	"_base\000"
 2221      6500
 2222              	.LASF32:
 2223 00dd 5F5F746D 		.ascii	"__tm_hour\000"
 2223      5F686F75 
 2223      7200
 2224              	.LASF88:
 2225 00e7 5F5F7366 		.ascii	"__sf\000"
 2225      00
 2226              	.LASF39:
 2227 00ec 5F6F6E5F 		.ascii	"_on_exit_args\000"
 2227      65786974 
 2227      5F617267 
 2227      7300
 2228              	.LASF54:
ARM GAS  /tmp/cc3Fa0fO.s 			page 41


 2229 00fa 5F636F6F 		.ascii	"_cookie\000"
 2229      6B696500 
 2230              	.LASF87:
 2231 0102 5F5F7367 		.ascii	"__sglue\000"
 2231      6C756500 
 2232              	.LASF127:
 2233 010a 2E2F2F73 		.ascii	".//src/crc/crc32.c\000"
 2233      72632F63 
 2233      72632F63 
 2233      72633332 
 2233      2E6300
 2234              	.LASF51:
 2235 011d 5F666C61 		.ascii	"_flags\000"
 2235      677300
 2236              	.LASF43:
 2237 0124 5F69735F 		.ascii	"_is_cxa\000"
 2237      63786100 
 2238              	.LASF69:
 2239 012c 5F737464 		.ascii	"_stdin\000"
 2239      696E00
 2240              	.LASF61:
 2241 0133 5F626C6B 		.ascii	"_blksize\000"
 2241      73697A65 
 2241      00
 2242              	.LASF83:
 2243 013c 5F637674 		.ascii	"_cvtbuf\000"
 2243      62756600 
 2244              	.LASF62:
 2245 0144 5F6F6666 		.ascii	"_offset\000"
 2245      73657400 
 2246              	.LASF113:
 2247 014c 5F6D6273 		.ascii	"_mbsrtowcs_state\000"
 2247      72746F77 
 2247      63735F73 
 2247      74617465 
 2247      00
 2248              	.LASF111:
 2249 015d 5F6D6272 		.ascii	"_mbrlen_state\000"
 2249      6C656E5F 
 2249      73746174 
 2249      6500
 2250              	.LASF40:
 2251 016b 5F666E61 		.ascii	"_fnargs\000"
 2251      72677300 
 2252              	.LASF46:
 2253 0173 5F666E73 		.ascii	"_fns\000"
 2253      00
 2254              	.LASF26:
 2255 0178 5F736967 		.ascii	"_sign\000"
 2255      6E00
 2256              	.LASF23:
 2257 017e 5F666C6F 		.ascii	"_flock_t\000"
 2257      636B5F74 
 2257      00
 2258              	.LASF71:
 2259 0187 5F737464 		.ascii	"_stderr\000"
 2259      65727200 
ARM GAS  /tmp/cc3Fa0fO.s 			page 42


 2260              	.LASF28:
 2261 018f 5F426967 		.ascii	"_Bigint\000"
 2261      696E7400 
 2262              	.LASF102:
 2263 0197 5F67616D 		.ascii	"_gamma_signgam\000"
 2263      6D615F73 
 2263      69676E67 
 2263      616D00
 2264              	.LASF55:
 2265 01a6 5F726561 		.ascii	"_read\000"
 2265      6400
 2266              	.LASF79:
 2267 01ac 5F726573 		.ascii	"_result_k\000"
 2267      756C745F 
 2267      6B00
 2268              	.LASF29:
 2269 01b6 5F5F746D 		.ascii	"__tm\000"
 2269      00
 2270              	.LASF10:
 2271 01bb 756E7369 		.ascii	"unsigned int\000"
 2271      676E6564 
 2271      20696E74 
 2271      00
 2272              	.LASF17:
 2273 01c8 5F5F7763 		.ascii	"__wchb\000"
 2273      686200
 2274              	.LASF70:
 2275 01cf 5F737464 		.ascii	"_stdout\000"
 2275      6F757400 
 2276              	.LASF82:
 2277 01d7 5F637674 		.ascii	"_cvtlen\000"
 2277      6C656E00 
 2278              	.LASF8:
 2279 01df 6C6F6E67 		.ascii	"long unsigned int\000"
 2279      20756E73 
 2279      69676E65 
 2279      6420696E 
 2279      7400
 2280              	.LASF52:
 2281 01f1 5F66696C 		.ascii	"_file\000"
 2281      6500
 2282              	.LASF128:
 2283 01f7 2F686F6D 		.ascii	"/home/olof/Documents/MICRO-315/micro-315/tp4/lib/e-"
 2283      652F6F6C 
 2283      6F662F44 
 2283      6F63756D 
 2283      656E7473 
 2284 022a 7075636B 		.ascii	"puck2_main-processor\000"
 2284      325F6D61 
 2284      696E2D70 
 2284      726F6365 
 2284      73736F72 
 2285              	.LASF92:
 2286 023f 5F6E696F 		.ascii	"_niobs\000"
 2286      627300
 2287              	.LASF124:
 2288 0246 64617461 		.ascii	"data\000"
ARM GAS  /tmp/cc3Fa0fO.s 			page 43


 2288      00
 2289              	.LASF5:
 2290 024b 73686F72 		.ascii	"short unsigned int\000"
 2290      7420756E 
 2290      7369676E 
 2290      65642069 
 2290      6E7400
 2291              	.LASF85:
 2292 025e 5F617465 		.ascii	"_atexit0\000"
 2292      78697430 
 2292      00
 2293              	.LASF109:
 2294 0267 5F736967 		.ascii	"_signal_buf\000"
 2294      6E616C5F 
 2294      62756600 
 2295              	.LASF100:
 2296 0273 5F617363 		.ascii	"_asctime_buf\000"
 2296      74696D65 
 2296      5F627566 
 2296      00
 2297              	.LASF78:
 2298 0280 5F726573 		.ascii	"_result\000"
 2298      756C7400 
 2299              	.LASF16:
 2300 0288 5F5F7763 		.ascii	"__wch\000"
 2300      6800
 2301              	.LASF13:
 2302 028e 77696E74 		.ascii	"wint_t\000"
 2302      5F7400
 2303              	.LASF64:
 2304 0295 5F6C6F63 		.ascii	"_lock\000"
 2304      6B00
 2305              	.LASF66:
 2306 029b 5F666C61 		.ascii	"_flags2\000"
 2306      67733200 
 2307              	.LASF56:
 2308 02a3 5F777269 		.ascii	"_write\000"
 2308      746500
 2309              	.LASF35:
 2310 02aa 5F5F746D 		.ascii	"__tm_year\000"
 2310      5F796561 
 2310      7200
 2311              	.LASF118:
 2312 02b4 5F6E6D61 		.ascii	"_nmalloc\000"
 2312      6C6C6F63 
 2312      00
 2313              	.LASF12:
 2314 02bd 6C6F6E67 		.ascii	"long double\000"
 2314      20646F75 
 2314      626C6500 
 2315              	.LASF117:
 2316 02c9 5F6E6578 		.ascii	"_nextf\000"
 2316      746600
 2317              	.LASF34:
 2318 02d0 5F5F746D 		.ascii	"__tm_mon\000"
 2318      5F6D6F6E 
 2318      00
ARM GAS  /tmp/cc3Fa0fO.s 			page 44


 2319              	.LASF44:
 2320 02d9 5F617465 		.ascii	"_atexit\000"
 2320      78697400 
 2321              	.LASF122:
 2322 02e1 7375626F 		.ascii	"suboptarg\000"
 2322      70746172 
 2322      6700
 2323              	.LASF126:
 2324 02eb 474E5520 		.ascii	"GNU C17 9.2.1 20191025 (release) [ARM/arm-9-branch "
 2324      43313720 
 2324      392E322E 
 2324      31203230 
 2324      31393130 
 2325 031e 72657669 		.ascii	"revision 277599] -mcpu=cortex-m4 -mfloat-abi=hard -"
 2325      73696F6E 
 2325      20323737 
 2325      3539395D 
 2325      202D6D63 
 2326 0351 6D667075 		.ascii	"mfpu=fpv4-sp-d16 -mno-thumb-interwork -mthumb -marc"
 2326      3D667076 
 2326      342D7370 
 2326      2D643136 
 2326      202D6D6E 
 2327 0384 683D6172 		.ascii	"h=armv7e-m+fp -ggdb -O2 -fomit-frame-pointer -falig"
 2327      6D763765 
 2327      2D6D2B66 
 2327      70202D67 
 2327      67646220 
 2328 03b7 6E2D6675 		.ascii	"n-functions=16 -fno-strict-aliasing -fstack-protect"
 2328      6E637469 
 2328      6F6E733D 
 2328      3136202D 
 2328      666E6F2D 
 2329 03ea 6F722D61 		.ascii	"or-all -ffunction-sections -fdata-sections -fno-com"
 2329      6C6C202D 
 2329      6666756E 
 2329      6374696F 
 2329      6E2D7365 
 2330 041d 6D6F6E20 		.ascii	"mon -fsingle-precision-constant\000"
 2330      2D667369 
 2330      6E676C65 
 2330      2D707265 
 2330      63697369 
 2331              	.LASF76:
 2332 043d 5F5F7364 		.ascii	"__sdidinit\000"
 2332      6964696E 
 2332      697400
 2333              	.LASF14:
 2334 0448 5F6F6666 		.ascii	"_off_t\000"
 2334      5F7400
 2335              	.LASF81:
 2336 044f 5F667265 		.ascii	"_freelist\000"
 2336      656C6973 
 2336      7400
 2337              	.LASF22:
 2338 0459 5F4C4F43 		.ascii	"_LOCK_RECURSIVE_T\000"
 2338      4B5F5245 
ARM GAS  /tmp/cc3Fa0fO.s 			page 45


 2338      43555253 
 2338      4956455F 
 2338      5400
 2339              	.LASF4:
 2340 046b 756E7369 		.ascii	"unsigned char\000"
 2340      676E6564 
 2340      20636861 
 2340      7200
 2341              	.LASF84:
 2342 0479 5F6E6577 		.ascii	"_new\000"
 2342      00
 2343              	.LASF116:
 2344 047e 5F685F65 		.ascii	"_h_errno\000"
 2344      72726E6F 
 2344      00
 2345              	.LASF1:
 2346 0487 73686F72 		.ascii	"short int\000"
 2346      7420696E 
 2346      7400
 2347              	.LASF37:
 2348 0491 5F5F746D 		.ascii	"__tm_yday\000"
 2348      5F796461 
 2348      7900
 2349              	.LASF47:
 2350 049b 5F5F7362 		.ascii	"__sbuf\000"
 2350      756600
 2351              	.LASF93:
 2352 04a2 5F696F62 		.ascii	"_iobs\000"
 2352      7300
 2353              	.LASF90:
 2354 04a8 5F5F4649 		.ascii	"__FILE\000"
 2354      4C4500
 2355              	.LASF20:
 2356 04af 5F6D6273 		.ascii	"_mbstate_t\000"
 2356      74617465 
 2356      5F7400
 2357              	.LASF50:
 2358 04ba 5F5F7346 		.ascii	"__sFILE\000"
 2358      494C4500 
 2359              	.LASF65:
 2360 04c2 5F6D6273 		.ascii	"_mbstate\000"
 2360      74617465 
 2360      00
 2361              	.LASF103:
 2362 04cb 5F72616E 		.ascii	"_rand_next\000"
 2362      645F6E65 
 2362      787400
 2363              	.LASF105:
 2364 04d6 5F6D626C 		.ascii	"_mblen_state\000"
 2364      656E5F73 
 2364      74617465 
 2364      00
 2365              	.LASF72:
 2366 04e3 5F696E63 		.ascii	"_inc\000"
 2366      00
 2367              	.LASF45:
 2368 04e8 5F696E64 		.ascii	"_ind\000"
ARM GAS  /tmp/cc3Fa0fO.s 			page 46


 2368      00
 2369              	.LASF75:
 2370 04ed 5F6C6F63 		.ascii	"_locale\000"
 2370      616C6500 
 2371              	.LASF77:
 2372 04f5 5F5F636C 		.ascii	"__cleanup\000"
 2372      65616E75 
 2372      7000
 2373              	.LASF74:
 2374 04ff 5F756E73 		.ascii	"_unspecified_locale_info\000"
 2374      70656369 
 2374      66696564 
 2374      5F6C6F63 
 2374      616C655F 
 2375              	.LASF131:
 2376 0518 5F5F7374 		.ascii	"__stack_chk_fail\000"
 2376      61636B5F 
 2376      63686B5F 
 2376      6661696C 
 2376      00
 2377              	.LASF25:
 2378 0529 5F6D6178 		.ascii	"_maxwds\000"
 2378      77647300 
 2379              	.LASF67:
 2380 0531 5F726565 		.ascii	"_reent\000"
 2380      6E7400
 2381              	.LASF95:
 2382 0538 5F736565 		.ascii	"_seed\000"
 2382      6400
 2383              	.LASF18:
 2384 053e 5F5F636F 		.ascii	"__count\000"
 2384      756E7400 
 2385              	.LASF7:
 2386 0546 75696E74 		.ascii	"uint32_t\000"
 2386      33325F74 
 2386      00
 2387              	.LASF57:
 2388 054f 5F736565 		.ascii	"_seek\000"
 2388      6B00
 2389              	.LASF120:
 2390 0555 5F696D70 		.ascii	"_impure_ptr\000"
 2390      7572655F 
 2390      70747200 
 2391              	.LASF15:
 2392 0561 5F66706F 		.ascii	"_fpos_t\000"
 2392      735F7400 
 2393              	.LASF125:
 2394 0569 6C656E67 		.ascii	"length\000"
 2394      746800
 2395              	.LASF68:
 2396 0570 5F657272 		.ascii	"_errno\000"
 2396      6E6F00
 2397              	.LASF89:
 2398 0577 63686172 		.ascii	"char\000"
 2398      00
 2399              	.LASF31:
 2400 057c 5F5F746D 		.ascii	"__tm_min\000"
ARM GAS  /tmp/cc3Fa0fO.s 			page 47


 2400      5F6D696E 
 2400      00
 2401              	.LASF96:
 2402 0585 5F6D756C 		.ascii	"_mult\000"
 2402      7400
 2403              	.LASF24:
 2404 058b 5F6E6578 		.ascii	"_next\000"
 2404      7400
 2405              	.LASF99:
 2406 0591 5F737472 		.ascii	"_strtok_last\000"
 2406      746F6B5F 
 2406      6C617374 
 2406      00
 2407              	.LASF19:
 2408 059e 5F5F7661 		.ascii	"__value\000"
 2408      6C756500 
 2409              	.LASF42:
 2410 05a6 5F666E74 		.ascii	"_fntypes\000"
 2410      79706573 
 2410      00
 2411              	.LASF97:
 2412 05af 5F616464 		.ascii	"_add\000"
 2412      00
 2413              	.LASF21:
 2414 05b4 5F5F554C 		.ascii	"__ULong\000"
 2414      6F6E6700 
 2415              	.LASF110:
 2416 05bc 5F676574 		.ascii	"_getdate_err\000"
 2416      64617465 
 2416      5F657272 
 2416      00
 2417              	.LASF121:
 2418 05c9 5F676C6F 		.ascii	"_global_impure_ptr\000"
 2418      62616C5F 
 2418      696D7075 
 2418      72655F70 
 2418      747200
 2419              	.LASF98:
 2420 05dc 5F756E75 		.ascii	"_unused_rand\000"
 2420      7365645F 
 2420      72616E64 
 2420      00
 2421              	.LASF27:
 2422 05e9 5F776473 		.ascii	"_wds\000"
 2422      00
 2423              	.LASF36:
 2424 05ee 5F5F746D 		.ascii	"__tm_wday\000"
 2424      5F776461 
 2424      7900
 2425              	.LASF91:
 2426 05f8 5F676C75 		.ascii	"_glue\000"
 2426      6500
 2427              	.LASF6:
 2428 05fe 75696E74 		.ascii	"uint8_t\000"
 2428      385F7400 
 2429              	.LASF108:
 2430 0606 5F6C3634 		.ascii	"_l64a_buf\000"
ARM GAS  /tmp/cc3Fa0fO.s 			page 48


 2430      615F6275 
 2430      6600
 2431              	.LASF86:
 2432 0610 5F736967 		.ascii	"_sig_func\000"
 2432      5F66756E 
 2432      6300
 2433              	.LASF60:
 2434 061a 5F6E6275 		.ascii	"_nbuf\000"
 2434      6600
 2435              	.LASF119:
 2436 0620 5F756E75 		.ascii	"_unused\000"
 2436      73656400 
 2437              	.LASF38:
 2438 0628 5F5F746D 		.ascii	"__tm_isdst\000"
 2438      5F697364 
 2438      737400
 2439              	.LASF101:
 2440 0633 5F6C6F63 		.ascii	"_localtime_buf\000"
 2440      616C7469 
 2440      6D655F62 
 2440      756600
 2441              	.LASF58:
 2442 0642 5F636C6F 		.ascii	"_close\000"
 2442      736500
 2443              	.LASF104:
 2444 0649 5F723438 		.ascii	"_r48\000"
 2444      00
 2445              	.LASF106:
 2446 064e 5F6D6274 		.ascii	"_mbtowc_state\000"
 2446      6F77635F 
 2446      73746174 
 2446      6500
 2447              	.LASF80:
 2448 065c 5F703573 		.ascii	"_p5s\000"
 2448      00
 2449              	.LASF33:
 2450 0661 5F5F746D 		.ascii	"__tm_mday\000"
 2450      5F6D6461 
 2450      7900
 2451              		.ident	"GCC: (15:9-2019-q4-0ubuntu1) 9.2.1 20191025 (release) [ARM/arm-9-branch revision 277599]"
ARM GAS  /tmp/cc3Fa0fO.s 			page 49


DEFINED SYMBOLS
                            *ABS*:0000000000000000 crc32.c
     /tmp/cc3Fa0fO.s:18     .rodata.crc32.cst4:0000000000000000 $d
     /tmp/cc3Fa0fO.s:22     .text.crc32:0000000000000000 $t
     /tmp/cc3Fa0fO.s:31     .text.crc32:0000000000000000 crc32
     /tmp/cc3Fa0fO.s:134    .text.crc32:0000000000000050 $d

UNDEFINED SYMBOLS
__stack_chk_guard
__stack_chk_fail
