ARM GAS  /tmp/cchtfvJF.s 			page 1


   1              		.cpu cortex-m4
   2              		.eabi_attribute 27, 1
   3              		.eabi_attribute 28, 1
   4              		.eabi_attribute 20, 1
   5              		.eabi_attribute 21, 1
   6              		.eabi_attribute 23, 3
   7              		.eabi_attribute 24, 1
   8              		.eabi_attribute 25, 1
   9              		.eabi_attribute 26, 1
  10              		.eabi_attribute 30, 2
  11              		.eabi_attribute 34, 1
  12              		.eabi_attribute 18, 4
  13              		.file	"crt1.c"
  14              		.text
  15              	.Ltext0:
  16              		.cfi_sections	.debug_frame
  17              		.section	.rodata.__early_init.cst4,"aM",%progbits,4
  18              		.align	2
  19              	.LC0:
  20 0000 00000000 		.word	__stack_chk_guard
  21              		.section	.text.__early_init,"ax",%progbits
  22              		.align	1
  23              		.p2align 4,,15
  24              		.weak	__early_init
  25              		.arch armv7e-m
  26              		.syntax unified
  27              		.thumb
  28              		.thumb_func
  29              		.fpu fpv4-sp-d16
  30              		.type	__early_init, %function
  31              	__early_init:
  32              	.LFB0:
  33              		.file 1 ".//ChibiOS//os/common/ports/ARMCMx/compilers/GCC/crt1.c"
  34              		.loc 1 41 25 view -0
  35              		.cfi_startproc
  36              		@ args = 0, pretend = 0, frame = 8
  37              		@ frame_needed = 0, uses_anonymous_args = 0
  38 0000 00B5     		push	{lr}
  39              		.cfi_def_cfa_offset 4
  40              		.cfi_offset 14, -4
  41 0002 084B     		ldr	r3, .L6
  42 0004 83B0     		sub	sp, sp, #12
  43              		.cfi_def_cfa_offset 16
  44              		.loc 1 41 25 is_stmt 0 view .LVU1
  45 0006 1B68     		ldr	r3, [r3]
  46 0008 0193     		str	r3, [sp, #4]
  47 000a 4FF00003 		mov	r3,#0
  48              		.loc 1 41 26 is_stmt 1 view .LVU2
  49              		.loc 1 41 1 is_stmt 0 view .LVU3
  50 000e 054B     		ldr	r3, .L6
  51 0010 1A68     		ldr	r2, [r3]
  52 0012 019B     		ldr	r3, [sp, #4]
  53 0014 5A40     		eors	r2, r3, r2
  54 0016 02D1     		bne	.L5
  55 0018 03B0     		add	sp, sp, #12
  56              		.cfi_remember_state
  57              		.cfi_def_cfa_offset 4
ARM GAS  /tmp/cchtfvJF.s 			page 2


  58              		@ sp needed
  59 001a 5DF804FB 		ldr	pc, [sp], #4
  60              	.L5:
  61              		.cfi_restore_state
  62 001e FFF7FEFF 		bl	__stack_chk_fail
  63              	.LVL0:
  64              	.L7:
  65 0022 00BF     		.align	2
  66              	.L6:
  67 0024 00000000 		.word	.LC0
  68              		.cfi_endproc
  69              	.LFE0:
  70              		.size	__early_init, .-__early_init
  71              		.section	.rodata.__late_init.cst4,"aM",%progbits,4
  72              		.align	2
  73              	.LC1:
  74 0000 00000000 		.word	__stack_chk_guard
  75              		.section	.text.__late_init,"ax",%progbits
  76              		.align	1
  77              		.p2align 4,,15
  78              		.weak	__late_init
  79              		.syntax unified
  80              		.thumb
  81              		.thumb_func
  82              		.fpu fpv4-sp-d16
  83              		.type	__late_init, %function
  84              	__late_init:
  85              	.LFB4:
  86              		.cfi_startproc
  87              		@ args = 0, pretend = 0, frame = 8
  88              		@ frame_needed = 0, uses_anonymous_args = 0
  89 0000 00B5     		push	{lr}
  90              		.cfi_def_cfa_offset 4
  91              		.cfi_offset 14, -4
  92 0002 084B     		ldr	r3, .L12
  93 0004 83B0     		sub	sp, sp, #12
  94              		.cfi_def_cfa_offset 16
  95 0006 1B68     		ldr	r3, [r3]
  96 0008 0193     		str	r3, [sp, #4]
  97 000a 4FF00003 		mov	r3,#0
  98 000e 054B     		ldr	r3, .L12
  99 0010 1A68     		ldr	r2, [r3]
 100 0012 019B     		ldr	r3, [sp, #4]
 101 0014 5A40     		eors	r2, r3, r2
 102 0016 02D1     		bne	.L11
 103 0018 03B0     		add	sp, sp, #12
 104              		.cfi_remember_state
 105              		.cfi_def_cfa_offset 4
 106              		@ sp needed
 107 001a 5DF804FB 		ldr	pc, [sp], #4
 108              	.L11:
 109              		.cfi_restore_state
 110 001e FFF7FEFF 		bl	__stack_chk_fail
 111              	.L13:
 112 0022 00BF     		.align	2
 113              	.L12:
 114 0024 00000000 		.word	.LC1
ARM GAS  /tmp/cchtfvJF.s 			page 3


 115              		.cfi_endproc
 116              	.LFE4:
 117              		.size	__late_init, .-__late_init
 118              		.section	.rodata.__default_exit.cst4,"aM",%progbits,4
 119              		.align	2
 120              	.LC2:
 121 0000 00000000 		.word	__stack_chk_guard
 122              		.section	.text.__default_exit,"ax",%progbits
 123              		.align	1
 124              		.p2align 4,,15
 125              		.weak	__default_exit
 126              		.syntax unified
 127              		.thumb
 128              		.thumb_func
 129              		.fpu fpv4-sp-d16
 130              		.type	__default_exit, %function
 131              	__default_exit:
 132              	.LFB2:
 133              		.loc 1 68 27 is_stmt 1 view -0
 134              		.cfi_startproc
 135              		@ Volatile: function does not return.
 136              		@ args = 0, pretend = 0, frame = 8
 137              		@ frame_needed = 0, uses_anonymous_args = 0
 138              		@ link register save eliminated.
 139              		.loc 1 68 27 is_stmt 0 view .LVU5
 140 0000 034B     		ldr	r3, .L18
 141 0002 82B0     		sub	sp, sp, #8
 142              		.cfi_def_cfa_offset 8
 143              		.loc 1 68 27 view .LVU6
 144 0004 1B68     		ldr	r3, [r3]
 145 0006 0193     		str	r3, [sp, #4]
 146 0008 4FF00003 		mov	r3,#0
 147              	.L15:
 148              		.loc 1 71 3 is_stmt 1 discriminator 1 view .LVU7
 149              		.loc 1 72 3 discriminator 1 view .LVU8
 150              		.loc 1 71 9 discriminator 1 view .LVU9
 151              		.loc 1 71 3 discriminator 1 view .LVU10
 152              		.loc 1 72 3 discriminator 1 view .LVU11
 153              		.loc 1 71 9 discriminator 1 view .LVU12
 154 000c FEE7     		b	.L15
 155              	.L19:
 156 000e 00BF     		.align	2
 157              	.L18:
 158 0010 00000000 		.word	.LC2
 159              		.cfi_endproc
 160              	.LFE2:
 161              		.size	__default_exit, .-__default_exit
 162              		.text
 163              	.Letext0: