ARM GAS  /tmp/cchtfvJF.s 			page 1


   1              		.cpu cortex-m4
   2              		.eabi_attribute 27, 1
   3              		.eabi_attribute 28, 1
   4              		.eabi_attribute 20, 1
   5              		.eabi_attribute 21, 1
   6              		.eabi_attribute 23, 3
   7              		.eabi_attribute 24, 1
   8              		.eabi_attribute 25, 1
   9              		.eabi_attribute 26, 1
  10              		.eabi_attribute 30, 2
  11              		.eabi_attribute 34, 1
  12              		.eabi_attribute 18, 4
  13              		.file	"crt1.c"
  14              		.text
  15              	.Ltext0:
  16              		.cfi_sections	.debug_frame
  17              		.section	.rodata.__early_init.cst4,"aM",%progbits,4
  18              		.align	2
  19              	.LC0:
  20 0000 00000000 		.word	__stack_chk_guard
  21              		.section	.text.__early_init,"ax",%progbits
  22              		.align	1
  23              		.p2align 4,,15
  24              		.weak	__early_init
  25              		.arch armv7e-m
  26              		.syntax unified
  27              		.thumb
  28              		.thumb_func
  29              		.fpu fpv4-sp-d16
  30              		.type	__early_init, %function
  31              	__early_init:
  32              	.LFB0:
  33              		.file 1 ".//ChibiOS//os/common/ports/ARMCMx/compilers/GCC/crt1.c"
  34              		.loc 1 41 25 view -0
  35              		.cfi_startproc
  36              		@ args = 0, pretend = 0, frame = 8
  37              		@ frame_needed = 0, uses_anonymous_args = 0
  38 0000 00B5     		push	{lr}
  39              		.cfi_def_cfa_offset 4
  40              		.cfi_offset 14, -4
  41 0002 084B     		ldr	r3, .L6
  42 0004 83B0     		sub	sp, sp, #12
  43              		.cfi_def_cfa_offset 16
  44              		.loc 1 41 25 is_stmt 0 view .LVU1
  45 0006 1B68     		ldr	r3, [r3]
  46 0008 0193     		str	r3, [sp, #4]
  47 000a 4FF00003 		mov	r3,#0
  48              		.loc 1 41 26 is_stmt 1 view .LVU2
  49              		.loc 1 41 1 is_stmt 0 view .LVU3
  50 000e 054B     		ldr	r3, .L6
  51 0010 1A68     		ldr	r2, [r3]
  52 0012 019B     		ldr	r3, [sp, #4]
  53 0014 5A40     		eors	r2, r3, r2
  54 0016 02D1     		bne	.L5
  55 0018 03B0     		add	sp, sp, #12
  56              		.cfi_remember_state
  57              		.cfi_def_cfa_offset 4
ARM GAS  /tmp/cchtfvJF.s 			page 2


  58              		@ sp needed
  59 001a 5DF804FB 		ldr	pc, [sp], #4
  60              	.L5:
  61              		.cfi_restore_state
  62 001e FFF7FEFF 		bl	__stack_chk_fail
  63              	.LVL0:
  64              	.L7:
  65 0022 00BF     		.align	2
  66              	.L6:
  67 0024 00000000 		.word	.LC0
  68              		.cfi_endproc
  69              	.LFE0:
  70              		.size	__early_init, .-__early_init
  71              		.section	.rodata.__late_init.cst4,"aM",%progbits,4
  72              		.align	2
  73              	.LC1:
  74 0000 00000000 		.word	__stack_chk_guard
  75              		.section	.text.__late_init,"ax",%progbits
  76              		.align	1
  77              		.p2align 4,,15
  78              		.weak	__late_init
  79              		.syntax unified
  80              		.thumb
  81              		.thumb_func
  82              		.fpu fpv4-sp-d16
  83              		.type	__late_init, %function
  84              	__late_init:
  85              	.LFB4:
  86              		.cfi_startproc
  87              		@ args = 0, pretend = 0, frame = 8
  88              		@ frame_needed = 0, uses_anonymous_args = 0
  89 0000 00B5     		push	{lr}
  90              		.cfi_def_cfa_offset 4
  91              		.cfi_offset 14, -4
  92 0002 084B     		ldr	r3, .L12
  93 0004 83B0     		sub	sp, sp, #12
  94              		.cfi_def_cfa_offset 16
  95 0006 1B68     		ldr	r3, [r3]
  96 0008 0193     		str	r3, [sp, #4]
  97 000a 4FF00003 		mov	r3,#0
  98 000e 054B     		ldr	r3, .L12
  99 0010 1A68     		ldr	r2, [r3]
 100 0012 019B     		ldr	r3, [sp, #4]
 101 0014 5A40     		eors	r2, r3, r2
 102 0016 02D1     		bne	.L11
 103 0018 03B0     		add	sp, sp, #12
 104              		.cfi_remember_state
 105              		.cfi_def_cfa_offset 4
 106              		@ sp needed
 107 001a 5DF804FB 		ldr	pc, [sp], #4
 108              	.L11:
 109              		.cfi_restore_state
 110 001e FFF7FEFF 		bl	__stack_chk_fail
 111              	.L13:
 112 0022 00BF     		.align	2
 113              	.L12:
 114 0024 00000000 		.word	.LC1
ARM GAS  /tmp/cchtfvJF.s 			page 3


 115              		.cfi_endproc
 116              	.LFE4:
 117              		.size	__late_init, .-__late_init
 118              		.section	.rodata.__default_exit.cst4,"aM",%progbits,4
 119              		.align	2
 120              	.LC2:
 121 0000 00000000 		.word	__stack_chk_guard
 122              		.section	.text.__default_exit,"ax",%progbits
 123              		.align	1
 124              		.p2align 4,,15
 125              		.weak	__default_exit
 126              		.syntax unified
 127              		.thumb
 128              		.thumb_func
 129              		.fpu fpv4-sp-d16
 130              		.type	__default_exit, %function
 131              	__default_exit:
 132              	.LFB2:
 133              		.loc 1 68 27 is_stmt 1 view -0
 134              		.cfi_startproc
 135              		@ Volatile: function does not return.
 136              		@ args = 0, pretend = 0, frame = 8
 137              		@ frame_needed = 0, uses_anonymous_args = 0
 138              		@ link register save eliminated.
 139              		.loc 1 68 27 is_stmt 0 view .LVU5
 140 0000 034B     		ldr	r3, .L18
 141 0002 82B0     		sub	sp, sp, #8
 142              		.cfi_def_cfa_offset 8
 143              		.loc 1 68 27 view .LVU6
 144 0004 1B68     		ldr	r3, [r3]
 145 0006 0193     		str	r3, [sp, #4]
 146 0008 4FF00003 		mov	r3,#0
 147              	.L15:
 148              		.loc 1 71 3 is_stmt 1 discriminator 1 view .LVU7
 149              		.loc 1 72 3 discriminator 1 view .LVU8
 150              		.loc 1 71 9 discriminator 1 view .LVU9
 151              		.loc 1 71 3 discriminator 1 view .LVU10
 152              		.loc 1 72 3 discriminator 1 view .LVU11
 153              		.loc 1 71 9 discriminator 1 view .LVU12
 154 000c FEE7     		b	.L15
 155              	.L19:
 156 000e 00BF     		.align	2
 157              	.L18:
 158 0010 00000000 		.word	.LC2
 159              		.cfi_endproc
 160              	.LFE2:
 161              		.size	__default_exit, .-__default_exit
 162              		.text
 163              	.Letext0:
 164              		.section	.debug_info,"",%progbits
 165              	.Ldebug_info0:
 166 0000 6B000000 		.4byte	0x6b
 167 0004 0400     		.2byte	0x4
 168 0006 00000000 		.4byte	.Ldebug_abbrev0
 169 000a 04       		.byte	0x4
 170 000b 01       		.uleb128 0x1
 171 000c 66000000 		.4byte	.LASF0
ARM GAS  /tmp/cchtfvJF.s 			page 4


 172 0010 0C       		.byte	0xc
 173 0011 D3010000 		.4byte	.LASF1
 174 0015 00000000 		.4byte	.LASF2
 175 0019 00000000 		.4byte	.Ldebug_ranges0+0
 176 001d 00000000 		.4byte	0
 177 0021 00000000 		.4byte	.Ldebug_line0
 178 0025 02       		.uleb128 0x2
 179 0026 C4010000 		.4byte	.LASF3
 180 002a 01       		.byte	0x1
 181 002b 44       		.byte	0x44
 182 002c 06       		.byte	0x6
 183 002d 00000000 		.4byte	.LFB2
 184 0031 14000000 		.4byte	.LFE2-.LFB2
 185 0035 01       		.uleb128 0x1
 186 0036 9C       		.byte	0x9c
 187 0037 03       		.uleb128 0x3
 188 0038 B8010000 		.4byte	.LASF4
 189 003c 01       		.byte	0x1
 190 003d 37       		.byte	0x37
 191 003e 06       		.byte	0x6
 192 003f 04       		.uleb128 0x4
 193 0040 48000000 		.4byte	.LASF5
 194 0044 01       		.byte	0x1
 195 0045 29       		.byte	0x29
 196 0046 06       		.byte	0x6
 197 0047 01       		.byte	0x1
 198 0048 05       		.uleb128 0x5
 199 0049 3F000000 		.4byte	0x3f
 200 004d 00000000 		.4byte	.LFB0
 201 0051 28000000 		.4byte	.LFE0-.LFB0
 202 0055 01       		.uleb128 0x1
 203 0056 9C       		.byte	0x9c
 204 0057 65000000 		.4byte	0x65
 205 005b 06       		.uleb128 0x6
 206 005c 22000000 		.4byte	.LVL0
 207 0060 65000000 		.4byte	0x65
 208 0064 00       		.byte	0
 209 0065 07       		.uleb128 0x7
 210 0066 55000000 		.4byte	.LASF6
 211 006a 55000000 		.4byte	.LASF6
 212 006e 00       		.byte	0
 213              		.section	.debug_abbrev,"",%progbits
 214              	.Ldebug_abbrev0:
 215 0000 01       		.uleb128 0x1
 216 0001 11       		.uleb128 0x11
 217 0002 01       		.byte	0x1
 218 0003 25       		.uleb128 0x25
 219 0004 0E       		.uleb128 0xe
 220 0005 13       		.uleb128 0x13
 221 0006 0B       		.uleb128 0xb
 222 0007 03       		.uleb128 0x3
 223 0008 0E       		.uleb128 0xe
 224 0009 1B       		.uleb128 0x1b
 225 000a 0E       		.uleb128 0xe
 226 000b 55       		.uleb128 0x55
 227 000c 17       		.uleb128 0x17
 228 000d 11       		.uleb128 0x11
ARM GAS  /tmp/cchtfvJF.s 			page 5


 229 000e 01       		.uleb128 0x1
 230 000f 10       		.uleb128 0x10
 231 0010 17       		.uleb128 0x17
 232 0011 00       		.byte	0
 233 0012 00       		.byte	0
 234 0013 02       		.uleb128 0x2
 235 0014 2E       		.uleb128 0x2e
 236 0015 00       		.byte	0
 237 0016 3F       		.uleb128 0x3f
 238 0017 19       		.uleb128 0x19
 239 0018 03       		.uleb128 0x3
 240 0019 0E       		.uleb128 0xe
 241 001a 3A       		.uleb128 0x3a
 242 001b 0B       		.uleb128 0xb
 243 001c 3B       		.uleb128 0x3b
 244 001d 0B       		.uleb128 0xb
 245 001e 39       		.uleb128 0x39
 246 001f 0B       		.uleb128 0xb
 247 0020 27       		.uleb128 0x27
 248 0021 19       		.uleb128 0x19
 249 0022 8701     		.uleb128 0x87
 250 0024 19       		.uleb128 0x19
 251 0025 11       		.uleb128 0x11
 252 0026 01       		.uleb128 0x1
 253 0027 12       		.uleb128 0x12
 254 0028 06       		.uleb128 0x6
 255 0029 40       		.uleb128 0x40
 256 002a 18       		.uleb128 0x18
 257 002b 9742     		.uleb128 0x2117
 258 002d 19       		.uleb128 0x19
 259 002e 00       		.byte	0
 260 002f 00       		.byte	0
 261 0030 03       		.uleb128 0x3
 262 0031 2E       		.uleb128 0x2e
 263 0032 00       		.byte	0
 264 0033 3F       		.uleb128 0x3f
 265 0034 19       		.uleb128 0x19
 266 0035 03       		.uleb128 0x3
 267 0036 0E       		.uleb128 0xe
 268 0037 3A       		.uleb128 0x3a
 269 0038 0B       		.uleb128 0xb
 270 0039 3B       		.uleb128 0x3b
 271 003a 0B       		.uleb128 0xb
 272 003b 39       		.uleb128 0x39
 273 003c 0B       		.uleb128 0xb
 274 003d 27       		.uleb128 0x27
 275 003e 19       		.uleb128 0x19
 276 003f 00       		.byte	0
 277 0040 00       		.byte	0
 278 0041 04       		.uleb128 0x4
 279 0042 2E       		.uleb128 0x2e
 280 0043 00       		.byte	0
 281 0044 3F       		.uleb128 0x3f
 282 0045 19       		.uleb128 0x19
 283 0046 03       		.uleb128 0x3
 284 0047 0E       		.uleb128 0xe
 285 0048 3A       		.uleb128 0x3a
ARM GAS  /tmp/cchtfvJF.s 			page 6


 286 0049 0B       		.uleb128 0xb
 287 004a 3B       		.uleb128 0x3b
 288 004b 0B       		.uleb128 0xb
 289 004c 39       		.uleb128 0x39
 290 004d 0B       		.uleb128 0xb
 291 004e 27       		.uleb128 0x27
 292 004f 19       		.uleb128 0x19
 293 0050 20       		.uleb128 0x20
 294 0051 0B       		.uleb128 0xb
 295 0052 00       		.byte	0
 296 0053 00       		.byte	0
 297 0054 05       		.uleb128 0x5
 298 0055 2E       		.uleb128 0x2e
 299 0056 01       		.byte	0x1
 300 0057 31       		.uleb128 0x31
 301 0058 13       		.uleb128 0x13
 302 0059 11       		.uleb128 0x11
 303 005a 01       		.uleb128 0x1
 304 005b 12       		.uleb128 0x12
 305 005c 06       		.uleb128 0x6
 306 005d 40       		.uleb128 0x40
 307 005e 18       		.uleb128 0x18
 308 005f 9742     		.uleb128 0x2117
 309 0061 19       		.uleb128 0x19
 310 0062 01       		.uleb128 0x1
 311 0063 13       		.uleb128 0x13
 312 0064 00       		.byte	0
 313 0065 00       		.byte	0
 314 0066 06       		.uleb128 0x6
 315 0067 898201   		.uleb128 0x4109
 316 006a 00       		.byte	0
 317 006b 11       		.uleb128 0x11
 318 006c 01       		.uleb128 0x1
 319 006d 31       		.uleb128 0x31
 320 006e 13       		.uleb128 0x13
 321 006f 00       		.byte	0
 322 0070 00       		.byte	0
 323 0071 07       		.uleb128 0x7
 324 0072 2E       		.uleb128 0x2e
 325 0073 00       		.byte	0
 326 0074 3F       		.uleb128 0x3f
 327 0075 19       		.uleb128 0x19
 328 0076 3C       		.uleb128 0x3c
 329 0077 19       		.uleb128 0x19
 330 0078 6E       		.uleb128 0x6e
 331 0079 0E       		.uleb128 0xe
 332 007a 03       		.uleb128 0x3
 333 007b 0E       		.uleb128 0xe
 334 007c 00       		.byte	0
 335 007d 00       		.byte	0
 336 007e 00       		.byte	0
 337              		.section	.debug_aranges,"",%progbits
 338 0000 24000000 		.4byte	0x24
 339 0004 0200     		.2byte	0x2
 340 0006 00000000 		.4byte	.Ldebug_info0
 341 000a 04       		.byte	0x4
 342 000b 00       		.byte	0
ARM GAS  /tmp/cchtfvJF.s 			page 7


 343 000c 0000     		.2byte	0
 344 000e 0000     		.2byte	0
 345 0010 00000000 		.4byte	.LFB0
 346 0014 28000000 		.4byte	.LFE0-.LFB0
 347 0018 00000000 		.4byte	.LFB2
 348 001c 14000000 		.4byte	.LFE2-.LFB2
 349 0020 00000000 		.4byte	0
 350 0024 00000000 		.4byte	0
 351              		.section	.debug_ranges,"",%progbits
 352              	.Ldebug_ranges0:
 353 0000 00000000 		.4byte	.LFB0
 354 0004 28000000 		.4byte	.LFE0
 355 0008 00000000 		.4byte	.LFB2
 356 000c 14000000 		.4byte	.LFE2
 357 0010 00000000 		.4byte	0
 358 0014 00000000 		.4byte	0
 359              		.section	.debug_line,"",%progbits
 360              	.Ldebug_line0:
 361 0000 AB000000 		.section	.debug_str,"MS",%progbits,1
 361      03004E00 
 361      00000201 
 361      FB0E0D00 
 361      01010101 
 362              	.LASF2:
 363 0000 2F686F6D 		.ascii	"/home/olof/Documents/MICRO-315/micro-315/tp4/lib/e-"
 363      652F6F6C 
 363      6F662F44 
 363      6F63756D 
 363      656E7473 
 364 0033 7075636B 		.ascii	"puck2_main-processor\000"
 364      325F6D61 
 364      696E2D70 
 364      726F6365 
 364      73736F72 
 365              	.LASF5:
 366 0048 5F5F6561 		.ascii	"__early_init\000"
 366      726C795F 
 366      696E6974 
 366      00
 367              	.LASF6:
 368 0055 5F5F7374 		.ascii	"__stack_chk_fail\000"
 368      61636B5F 
 368      63686B5F 
 368      6661696C 
 368      00
 369              	.LASF0:
 370 0066 474E5520 		.ascii	"GNU C17 9.2.1 20191025 (release) [ARM/arm-9-branch "
 370      43313720 
 370      392E322E 
 370      31203230 
 370      31393130 
 371 0099 72657669 		.ascii	"revision 277599] -mcpu=cortex-m4 -mfloat-abi=hard -"
 371      73696F6E 
 371      20323737 
 371      3539395D 
 371      202D6D63 
 372 00cc 6D667075 		.ascii	"mfpu=fpv4-sp-d16 -mno-thumb-interwork -mthumb -marc"
ARM GAS  /tmp/cchtfvJF.s 			page 8


 372      3D667076 
 372      342D7370 
 372      2D643136 
 372      202D6D6E 
 373 00ff 683D6172 		.ascii	"h=armv7e-m+fp -ggdb -O2 -fomit-frame-pointer -falig"
 373      6D763765 
 373      2D6D2B66 
 373      70202D67 
 373      67646220 
 374 0132 6E2D6675 		.ascii	"n-functions=16 -fno-strict-aliasing -fstack-protect"
 374      6E637469 
 374      6F6E733D 
 374      3136202D 
 374      666E6F2D 
 375 0165 6F722D61 		.ascii	"or-all -ffunction-sections -fdata-sections -fno-com"
 375      6C6C202D 
 375      6666756E 
 375      6374696F 
 375      6E2D7365 
 376 0198 6D6F6E20 		.ascii	"mon -fsingle-precision-constant\000"
 376      2D667369 
 376      6E676C65 
 376      2D707265 
 376      63697369 
 377              	.LASF4:
 378 01b8 5F5F6C61 		.ascii	"__late_init\000"
 378      74655F69 
 378      6E697400 
 379              	.LASF3:
 380 01c4 5F5F6465 		.ascii	"__default_exit\000"
 380      6661756C 
 380      745F6578 
 380      697400
 381              	.LASF1:
 382 01d3 2E2F2F43 		.ascii	".//ChibiOS//os/common/ports/ARMCMx/compilers/GCC/cr"
 382      68696269 
 382      4F532F2F 
 382      6F732F63 
 382      6F6D6D6F 
 383 0206 74312E63 		.ascii	"t1.c\000"
 383      00
 384              		.ident	"GCC: (15:9-2019-q4-0ubuntu1) 9.2.1 20191025 (release) [ARM/arm-9-branch revision 277599]"
ARM GAS  /tmp/cchtfvJF.s 			page 9


DEFINED SYMBOLS
                            *ABS*:0000000000000000 crt1.c
     /tmp/cchtfvJF.s:18     .rodata.__early_init.cst4:0000000000000000 $d
     /tmp/cchtfvJF.s:22     .text.__early_init:0000000000000000 $t
     /tmp/cchtfvJF.s:31     .text.__early_init:0000000000000000 __early_init
     /tmp/cchtfvJF.s:67     .text.__early_init:0000000000000024 $d
     /tmp/cchtfvJF.s:72     .rodata.__late_init.cst4:0000000000000000 $d
     /tmp/cchtfvJF.s:76     .text.__late_init:0000000000000000 $t
     /tmp/cchtfvJF.s:84     .text.__late_init:0000000000000000 __late_init
     /tmp/cchtfvJF.s:114    .text.__late_init:0000000000000024 $d
     /tmp/cchtfvJF.s:119    .rodata.__default_exit.cst4:0000000000000000 $d
     /tmp/cchtfvJF.s:123    .text.__default_exit:0000000000000000 $t
     /tmp/cchtfvJF.s:131    .text.__default_exit:0000000000000000 __default_exit
     /tmp/cchtfvJF.s:158    .text.__default_exit:0000000000000010 $d

UNDEFINED SYMBOLS
__stack_chk_guard
__stack_chk_fail
