ARM GAS  /tmp/cc7MWemj.s 			page 1


   1              		.cpu cortex-m4
   2              		.eabi_attribute 27, 1
   3              		.eabi_attribute 28, 1
   4              		.eabi_attribute 20, 1
   5              		.eabi_attribute 21, 1
   6              		.eabi_attribute 23, 3
   7              		.eabi_attribute 24, 1
   8              		.eabi_attribute 25, 1
   9              		.eabi_attribute 26, 1
  10              		.eabi_attribute 30, 2
  11              		.eabi_attribute 34, 1
  12              		.eabi_attribute 18, 4
  13              		.file	"DataEEPROM.c"
  14              		.text
  15              	.Ltext0:
  16              		.cfi_sections	.debug_frame
  17              		.section	.rodata.ReadEE.cst4,"aM",%progbits,4
  18              		.align	2
  19              	.LC0:
  20 0000 00000000 		.word	__stack_chk_guard
  21              		.section	.text.ReadEE,"ax",%progbits
  22              		.align	1
  23              		.p2align 4,,15
  24              		.global	ReadEE
  25              		.arch armv7e-m
  26              		.syntax unified
  27              		.thumb
  28              		.thumb_func
  29              		.fpu fpv4-sp-d16
  30              		.type	ReadEE, %function
  31              	ReadEE:
  32              	.LVL0:
  33              	.LFB0:
  34              		.file 1 ".//src/epuck1x/DataEEPROM.c"
  35              		.loc 1 3 58 view -0
  36              		.cfi_startproc
  37              		@ args = 0, pretend = 0, frame = 8
  38              		@ frame_needed = 0, uses_anonymous_args = 0
  39              		.loc 1 3 58 is_stmt 0 view .LVU1
  40 0000 00B5     		push	{lr}
  41              		.cfi_def_cfa_offset 4
  42              		.cfi_offset 14, -4
  43 0002 0F4B     		ldr	r3, .L10
  44              	.LVL1:
  45              		.loc 1 3 58 view .LVU2
  46 0004 83B0     		sub	sp, sp, #12
  47              		.cfi_def_cfa_offset 16
  48              		.loc 1 5 4 view .LVU3
  49 0006 7F28     		cmp	r0, #127
  50              		.loc 1 3 58 view .LVU4
  51 0008 1B68     		ldr	r3, [r3]
  52 000a 0193     		str	r3, [sp, #4]
  53 000c 4FF00003 		mov	r3,#0
  54              		.loc 1 4 2 is_stmt 1 view .LVU5
  55              		.loc 1 5 2 view .LVU6
  56              		.loc 1 5 4 is_stmt 0 view .LVU7
  57 0010 0AD0     		beq	.L8
ARM GAS  /tmp/cc7MWemj.s 			page 2


  58              		.loc 1 9 12 view .LVU8
  59 0012 0021     		movs	r1, #0
  60              	.LVL2:
  61              	.L2:
  62              		.loc 1 12 1 view .LVU9
  63 0014 0A4B     		ldr	r3, .L10
  64 0016 1160     		str	r1, [r2]
  65              		.loc 1 11 2 is_stmt 1 view .LVU10
  66              		.loc 1 12 1 is_stmt 0 view .LVU11
  67 0018 1A68     		ldr	r2, [r3]
  68 001a 019B     		ldr	r3, [sp, #4]
  69 001c 5A40     		eors	r2, r3, r2
  70              	.LVL3:
  71              		.loc 1 12 1 view .LVU12
  72 001e 0CD1     		bne	.L9
  73 0020 0020     		movs	r0, #0
  74 0022 03B0     		add	sp, sp, #12
  75              		.cfi_remember_state
  76              		.cfi_def_cfa_offset 4
  77              		@ sp needed
  78 0024 5DF804FB 		ldr	pc, [sp], #4
  79              	.LVL4:
  80              	.L8:
  81              		.cfi_restore_state
  82              		.loc 1 5 16 discriminator 1 view .LVU13
  83 0028 4FF6FE70 		movw	r0, #65534
  84              	.LVL5:
  85              		.loc 1 6 12 discriminator 1 view .LVU14
  86 002c 4FF6F773 		movw	r3, #65527
  87 0030 8142     		cmp	r1, r0
  88 0032 0CBF     		ite	eq
  89 0034 1946     		moveq	r1, r3
  90 0036 0021     		movne	r1, #0
  91              	.LVL6:
  92              		.loc 1 6 12 discriminator 1 view .LVU15
  93 0038 ECE7     		b	.L2
  94              	.LVL7:
  95              	.L9:
  96              		.loc 1 12 1 view .LVU16
  97 003a FFF7FEFF 		bl	__stack_chk_fail
  98              	.LVL8:
  99              	.L11:
 100 003e 00BF     		.align	2
 101              	.L10:
 102 0040 00000000 		.word	.LC0
 103              		.cfi_endproc
 104              	.LFE0:
 105              		.size	ReadEE, .-ReadEE
 106              		.section	.rodata.EraseEE.cst4,"aM",%progbits,4
 107              		.align	2
 108              	.LC1:
 109 0000 00000000 		.word	__stack_chk_guard
 110              		.section	.text.EraseEE,"ax",%progbits
 111              		.align	1
 112              		.p2align 4,,15
 113              		.global	EraseEE
 114              		.syntax unified
ARM GAS  /tmp/cc7MWemj.s 			page 3


 115              		.thumb
 116              		.thumb_func
 117              		.fpu fpv4-sp-d16
 118              		.type	EraseEE, %function
 119              	EraseEE:
 120              	.LVL9:
 121              	.LFB1:
 122              		.loc 1 14 45 is_stmt 1 view -0
 123              		.cfi_startproc
 124              		@ args = 0, pretend = 0, frame = 8
 125              		@ frame_needed = 0, uses_anonymous_args = 0
 126              		.loc 1 14 45 is_stmt 0 view .LVU18
 127 0000 00B5     		push	{lr}
 128              		.cfi_def_cfa_offset 4
 129              		.cfi_offset 14, -4
 130 0002 084B     		ldr	r3, .L16
 131 0004 83B0     		sub	sp, sp, #12
 132              		.cfi_def_cfa_offset 16
 133              		.loc 1 14 45 view .LVU19
 134 0006 1B68     		ldr	r3, [r3]
 135 0008 0193     		str	r3, [sp, #4]
 136 000a 4FF00003 		mov	r3,#0
 137              		.loc 1 15 2 is_stmt 1 view .LVU20
 138              		.loc 1 16 2 view .LVU21
 139              		.loc 1 17 2 view .LVU22
 140              		.loc 1 18 2 view .LVU23
 141              		.loc 1 19 1 is_stmt 0 view .LVU24
 142 000e 054B     		ldr	r3, .L16
 143 0010 1A68     		ldr	r2, [r3]
 144 0012 019B     		ldr	r3, [sp, #4]
 145 0014 5A40     		eors	r2, r3, r2
 146              	.LVL10:
 147              		.loc 1 19 1 view .LVU25
 148 0016 03D1     		bne	.L15
 149 0018 0020     		movs	r0, #0
 150              	.LVL11:
 151              		.loc 1 19 1 view .LVU26
 152 001a 03B0     		add	sp, sp, #12
 153              		.cfi_remember_state
 154              		.cfi_def_cfa_offset 4
 155              		@ sp needed
 156 001c 5DF804FB 		ldr	pc, [sp], #4
 157              	.LVL12:
 158              	.L15:
 159              		.cfi_restore_state
 160              		.loc 1 19 1 view .LVU27
 161 0020 FFF7FEFF 		bl	__stack_chk_fail
 162              	.LVL13:
 163              	.L17:
 164              		.loc 1 19 1 view .LVU28
 165              		.align	2
 166              	.L16:
 167 0024 00000000 		.word	.LC1
 168              		.cfi_endproc
 169              	.LFE1:
 170              		.size	EraseEE, .-EraseEE
 171              		.section	.rodata.WriteEE.cst4,"aM",%progbits,4
ARM GAS  /tmp/cc7MWemj.s 			page 4


 172              		.align	2
 173              	.LC2:
 174 0000 00000000 		.word	__stack_chk_guard
 175              		.section	.text.WriteEE,"ax",%progbits
 176              		.align	1
 177              		.p2align 4,,15
 178              		.global	WriteEE
 179              		.syntax unified
 180              		.thumb
 181              		.thumb_func
 182              		.fpu fpv4-sp-d16
 183              		.type	WriteEE, %function
 184              	WriteEE:
 185              	.LVL14:
 186              	.LFB2:
 187              		.loc 1 21 58 is_stmt 1 view -0
 188              		.cfi_startproc
 189              		@ args = 0, pretend = 0, frame = 8
 190              		@ frame_needed = 0, uses_anonymous_args = 0
 191              		.loc 1 21 58 is_stmt 0 view .LVU30
 192 0000 00B5     		push	{lr}
 193              		.cfi_def_cfa_offset 4
 194              		.cfi_offset 14, -4
 195 0002 084B     		ldr	r3, .L22
 196              	.LVL15:
 197              		.loc 1 21 58 view .LVU31
 198 0004 83B0     		sub	sp, sp, #12
 199              		.cfi_def_cfa_offset 16
 200              		.loc 1 21 58 view .LVU32
 201 0006 1B68     		ldr	r3, [r3]
 202 0008 0193     		str	r3, [sp, #4]
 203 000a 4FF00003 		mov	r3,#0
 204              		.loc 1 22 2 is_stmt 1 view .LVU33
 205              		.loc 1 23 2 view .LVU34
 206              		.loc 1 24 2 view .LVU35
 207              		.loc 1 25 2 view .LVU36
 208              		.loc 1 26 2 view .LVU37
 209              		.loc 1 27 1 is_stmt 0 view .LVU38
 210 000e 054B     		ldr	r3, .L22
 211 0010 1A68     		ldr	r2, [r3]
 212 0012 019B     		ldr	r3, [sp, #4]
 213 0014 5A40     		eors	r2, r3, r2
 214              	.LVL16:
 215              		.loc 1 27 1 view .LVU39
 216 0016 03D1     		bne	.L21
 217 0018 0020     		movs	r0, #0
 218              	.LVL17:
 219              		.loc 1 27 1 view .LVU40
 220 001a 03B0     		add	sp, sp, #12
 221              		.cfi_remember_state
 222              		.cfi_def_cfa_offset 4
 223              		@ sp needed
 224 001c 5DF804FB 		ldr	pc, [sp], #4
 225              	.LVL18:
 226              	.L21:
 227              		.cfi_restore_state
 228              		.loc 1 27 1 view .LVU41
ARM GAS  /tmp/cc7MWemj.s 			page 5


 229 0020 FFF7FEFF 		bl	__stack_chk_fail
 230              	.LVL19:
 231              	.L23:
 232              		.loc 1 27 1 view .LVU42
 233              		.align	2
 234              	.L22:
 235 0024 00000000 		.word	.LC2
 236              		.cfi_endproc
 237              	.LFE2:
 238              		.size	WriteEE, .-WriteEE
 239              		.text
 240              	.Letext0:
 241              		.section	.debug_info,"",%progbits
 242              	.Ldebug_info0:
 243 0000 80010000 		.4byte	0x180
 244 0004 0400     		.2byte	0x4
 245 0006 00000000 		.4byte	.Ldebug_abbrev0
 246 000a 04       		.byte	0x4
 247 000b 01       		.uleb128 0x1
 248 000c 00000000 		.4byte	.LASF8
 249 0010 0C       		.byte	0xc
 250 0011 52010000 		.4byte	.LASF9
 251 0015 83010000 		.4byte	.LASF10
 252 0019 00000000 		.4byte	.Ldebug_ranges0+0
 253 001d 00000000 		.4byte	0
 254 0021 00000000 		.4byte	.Ldebug_line0
 255 0025 02       		.uleb128 0x2
 256 0026 73010000 		.4byte	.LASF4
 257 002a 01       		.byte	0x1
 258 002b 15       		.byte	0x15
 259 002c 05       		.byte	0x5
 260 002d 99000000 		.4byte	0x99
 261 0031 00000000 		.4byte	.LFB2
 262 0035 28000000 		.4byte	.LFE2-.LFB2
 263 0039 01       		.uleb128 0x1
 264 003a 9C       		.byte	0x9c
 265 003b 99000000 		.4byte	0x99
 266 003f 03       		.uleb128 0x3
 267 0040 D2010000 		.4byte	.LASF0
 268 0044 01       		.byte	0x1
 269 0045 15       		.byte	0x15
 270 0046 12       		.byte	0x12
 271 0047 A0000000 		.4byte	0xa0
 272 004b 08000000 		.4byte	.LLST7
 273 004f 00000000 		.4byte	.LVUS7
 274 0053 03       		.uleb128 0x3
 275 0054 6E010000 		.4byte	.LASF1
 276 0058 01       		.byte	0x1
 277 0059 15       		.byte	0x15
 278 005a 1E       		.byte	0x1e
 279 005b 99000000 		.4byte	0x99
 280 005f 46000000 		.4byte	.LLST8
 281 0063 42000000 		.4byte	.LVUS8
 282 0067 03       		.uleb128 0x3
 283 0068 CB010000 		.4byte	.LASF2
 284 006c 01       		.byte	0x1
 285 006d 15       		.byte	0x15
ARM GAS  /tmp/cc7MWemj.s 			page 6


 286 006e 28       		.byte	0x28
 287 006f 99000000 		.4byte	0x99
 288 0073 6B000000 		.4byte	.LLST9
 289 0077 67000000 		.4byte	.LVUS9
 290 007b 03       		.uleb128 0x3
 291 007c D9010000 		.4byte	.LASF3
 292 0080 01       		.byte	0x1
 293 0081 15       		.byte	0x15
 294 0082 34       		.byte	0x34
 295 0083 99000000 		.4byte	0x99
 296 0087 90000000 		.4byte	.LLST10
 297 008b 8C000000 		.4byte	.LVUS10
 298 008f 04       		.uleb128 0x4
 299 0090 24000000 		.4byte	.LVL19
 300 0094 7A010000 		.4byte	0x17a
 301 0098 00       		.byte	0
 302 0099 05       		.uleb128 0x5
 303 009a 04       		.byte	0x4
 304 009b 05       		.byte	0x5
 305 009c 696E7400 		.ascii	"int\000"
 306 00a0 06       		.uleb128 0x6
 307 00a1 04       		.byte	0x4
 308 00a2 99000000 		.4byte	0x99
 309 00a6 02       		.uleb128 0x2
 310 00a7 7B010000 		.4byte	.LASF5
 311 00ab 01       		.byte	0x1
 312 00ac 0E       		.byte	0xe
 313 00ad 05       		.byte	0x5
 314 00ae 99000000 		.4byte	0x99
 315 00b2 00000000 		.4byte	.LFB1
 316 00b6 28000000 		.4byte	.LFE1-.LFB1
 317 00ba 01       		.uleb128 0x1
 318 00bb 9C       		.byte	0x9c
 319 00bc 06010000 		.4byte	0x106
 320 00c0 03       		.uleb128 0x3
 321 00c1 6E010000 		.4byte	.LASF1
 322 00c5 01       		.byte	0x1
 323 00c6 0E       		.byte	0xe
 324 00c7 11       		.byte	0x11
 325 00c8 99000000 		.4byte	0x99
 326 00cc B9000000 		.4byte	.LLST4
 327 00d0 B1000000 		.4byte	.LVUS4
 328 00d4 03       		.uleb128 0x3
 329 00d5 CB010000 		.4byte	.LASF2
 330 00d9 01       		.byte	0x1
 331 00da 0E       		.byte	0xe
 332 00db 1B       		.byte	0x1b
 333 00dc 99000000 		.4byte	0x99
 334 00e0 F7000000 		.4byte	.LLST5
 335 00e4 F3000000 		.4byte	.LVUS5
 336 00e8 03       		.uleb128 0x3
 337 00e9 D9010000 		.4byte	.LASF3
 338 00ed 01       		.byte	0x1
 339 00ee 0E       		.byte	0xe
 340 00ef 27       		.byte	0x27
 341 00f0 99000000 		.4byte	0x99
 342 00f4 1C010000 		.4byte	.LLST6
ARM GAS  /tmp/cc7MWemj.s 			page 7


 343 00f8 18010000 		.4byte	.LVUS6
 344 00fc 04       		.uleb128 0x4
 345 00fd 24000000 		.4byte	.LVL13
 346 0101 7A010000 		.4byte	0x17a
 347 0105 00       		.byte	0
 348 0106 02       		.uleb128 0x2
 349 0107 DE010000 		.4byte	.LASF6
 350 010b 01       		.byte	0x1
 351 010c 03       		.byte	0x3
 352 010d 05       		.byte	0x5
 353 010e 99000000 		.4byte	0x99
 354 0112 00000000 		.4byte	.LFB0
 355 0116 44000000 		.4byte	.LFE0-.LFB0
 356 011a 01       		.uleb128 0x1
 357 011b 9C       		.byte	0x9c
 358 011c 7A010000 		.4byte	0x17a
 359 0120 03       		.uleb128 0x3
 360 0121 6E010000 		.4byte	.LASF1
 361 0125 01       		.byte	0x1
 362 0126 03       		.byte	0x3
 363 0127 10       		.byte	0x10
 364 0128 99000000 		.4byte	0x99
 365 012c 45010000 		.4byte	.LLST0
 366 0130 3D010000 		.4byte	.LVUS0
 367 0134 03       		.uleb128 0x3
 368 0135 CB010000 		.4byte	.LASF2
 369 0139 01       		.byte	0x1
 370 013a 03       		.byte	0x3
 371 013b 1A       		.byte	0x1a
 372 013c 99000000 		.4byte	0x99
 373 0140 87010000 		.4byte	.LLST1
 374 0144 7F010000 		.4byte	.LVUS1
 375 0148 03       		.uleb128 0x3
 376 0149 F6010000 		.4byte	.LASF7
 377 014d 01       		.byte	0x1
 378 014e 03       		.byte	0x3
 379 014f 27       		.byte	0x27
 380 0150 A0000000 		.4byte	0xa0
 381 0154 C9010000 		.4byte	.LLST2
 382 0158 C1010000 		.4byte	.LVUS2
 383 015c 03       		.uleb128 0x3
 384 015d D9010000 		.4byte	.LASF3
 385 0161 01       		.byte	0x1
 386 0162 03       		.byte	0x3
 387 0163 34       		.byte	0x34
 388 0164 99000000 		.4byte	0x99
 389 0168 07020000 		.4byte	.LLST3
 390 016c 03020000 		.4byte	.LVUS3
 391 0170 04       		.uleb128 0x4
 392 0171 3E000000 		.4byte	.LVL8
 393 0175 7A010000 		.4byte	0x17a
 394 0179 00       		.byte	0
 395 017a 07       		.uleb128 0x7
 396 017b E5010000 		.4byte	.LASF11
 397 017f E5010000 		.4byte	.LASF11
 398 0183 00       		.byte	0
 399              		.section	.debug_abbrev,"",%progbits
ARM GAS  /tmp/cc7MWemj.s 			page 8


 400              	.Ldebug_abbrev0:
 401 0000 01       		.uleb128 0x1
 402 0001 11       		.uleb128 0x11
 403 0002 01       		.byte	0x1
 404 0003 25       		.uleb128 0x25
 405 0004 0E       		.uleb128 0xe
 406 0005 13       		.uleb128 0x13
 407 0006 0B       		.uleb128 0xb
 408 0007 03       		.uleb128 0x3
 409 0008 0E       		.uleb128 0xe
 410 0009 1B       		.uleb128 0x1b
 411 000a 0E       		.uleb128 0xe
 412 000b 55       		.uleb128 0x55
 413 000c 17       		.uleb128 0x17
 414 000d 11       		.uleb128 0x11
 415 000e 01       		.uleb128 0x1
 416 000f 10       		.uleb128 0x10
 417 0010 17       		.uleb128 0x17
 418 0011 00       		.byte	0
 419 0012 00       		.byte	0
 420 0013 02       		.uleb128 0x2
 421 0014 2E       		.uleb128 0x2e
 422 0015 01       		.byte	0x1
 423 0016 3F       		.uleb128 0x3f
 424 0017 19       		.uleb128 0x19
 425 0018 03       		.uleb128 0x3
 426 0019 0E       		.uleb128 0xe
 427 001a 3A       		.uleb128 0x3a
 428 001b 0B       		.uleb128 0xb
 429 001c 3B       		.uleb128 0x3b
 430 001d 0B       		.uleb128 0xb
 431 001e 39       		.uleb128 0x39
 432 001f 0B       		.uleb128 0xb
 433 0020 27       		.uleb128 0x27
 434 0021 19       		.uleb128 0x19
 435 0022 49       		.uleb128 0x49
 436 0023 13       		.uleb128 0x13
 437 0024 11       		.uleb128 0x11
 438 0025 01       		.uleb128 0x1
 439 0026 12       		.uleb128 0x12
 440 0027 06       		.uleb128 0x6
 441 0028 40       		.uleb128 0x40
 442 0029 18       		.uleb128 0x18
 443 002a 9742     		.uleb128 0x2117
 444 002c 19       		.uleb128 0x19
 445 002d 01       		.uleb128 0x1
 446 002e 13       		.uleb128 0x13
 447 002f 00       		.byte	0
 448 0030 00       		.byte	0
 449 0031 03       		.uleb128 0x3
 450 0032 05       		.uleb128 0x5
 451 0033 00       		.byte	0
 452 0034 03       		.uleb128 0x3
 453 0035 0E       		.uleb128 0xe
 454 0036 3A       		.uleb128 0x3a
 455 0037 0B       		.uleb128 0xb
 456 0038 3B       		.uleb128 0x3b
ARM GAS  /tmp/cc7MWemj.s 			page 9


 457 0039 0B       		.uleb128 0xb
 458 003a 39       		.uleb128 0x39
 459 003b 0B       		.uleb128 0xb
 460 003c 49       		.uleb128 0x49
 461 003d 13       		.uleb128 0x13
 462 003e 02       		.uleb128 0x2
 463 003f 17       		.uleb128 0x17
 464 0040 B742     		.uleb128 0x2137
 465 0042 17       		.uleb128 0x17
 466 0043 00       		.byte	0
 467 0044 00       		.byte	0
 468 0045 04       		.uleb128 0x4
 469 0046 898201   		.uleb128 0x4109
 470 0049 00       		.byte	0
 471 004a 11       		.uleb128 0x11
 472 004b 01       		.uleb128 0x1
 473 004c 31       		.uleb128 0x31
 474 004d 13       		.uleb128 0x13
 475 004e 00       		.byte	0
 476 004f 00       		.byte	0
 477 0050 05       		.uleb128 0x5
 478 0051 24       		.uleb128 0x24
 479 0052 00       		.byte	0
 480 0053 0B       		.uleb128 0xb
 481 0054 0B       		.uleb128 0xb
 482 0055 3E       		.uleb128 0x3e
 483 0056 0B       		.uleb128 0xb
 484 0057 03       		.uleb128 0x3
 485 0058 08       		.uleb128 0x8
 486 0059 00       		.byte	0
 487 005a 00       		.byte	0
 488 005b 06       		.uleb128 0x6
 489 005c 0F       		.uleb128 0xf
 490 005d 00       		.byte	0
 491 005e 0B       		.uleb128 0xb
 492 005f 0B       		.uleb128 0xb
 493 0060 49       		.uleb128 0x49
 494 0061 13       		.uleb128 0x13
 495 0062 00       		.byte	0
 496 0063 00       		.byte	0
 497 0064 07       		.uleb128 0x7
 498 0065 2E       		.uleb128 0x2e
 499 0066 00       		.byte	0
 500 0067 3F       		.uleb128 0x3f
 501 0068 19       		.uleb128 0x19
 502 0069 3C       		.uleb128 0x3c
 503 006a 19       		.uleb128 0x19
 504 006b 6E       		.uleb128 0x6e
 505 006c 0E       		.uleb128 0xe
 506 006d 03       		.uleb128 0x3
 507 006e 0E       		.uleb128 0xe
 508 006f 00       		.byte	0
 509 0070 00       		.byte	0
 510 0071 00       		.byte	0
 511              		.section	.debug_loc,"",%progbits
 512              	.Ldebug_loc0:
 513              	.LVUS7:
ARM GAS  /tmp/cc7MWemj.s 			page 10


 514 0000 00       		.uleb128 0
 515 0001 00       		.uleb128 .LVU40
 516 0002 00       		.uleb128 .LVU40
 517 0003 00       		.uleb128 .LVU41
 518 0004 00       		.uleb128 .LVU41
 519 0005 00       		.uleb128 .LVU42
 520 0006 00       		.uleb128 .LVU42
 521 0007 00       		.uleb128 0
 522              	.LLST7:
 523 0008 00000000 		.4byte	.LVL14
 524 000c 1A000000 		.4byte	.LVL17
 525 0010 0100     		.2byte	0x1
 526 0012 50       		.byte	0x50
 527 0013 1A000000 		.4byte	.LVL17
 528 0017 20000000 		.4byte	.LVL18
 529 001b 0400     		.2byte	0x4
 530 001d F3       		.byte	0xf3
 531 001e 01       		.uleb128 0x1
 532 001f 50       		.byte	0x50
 533 0020 9F       		.byte	0x9f
 534 0021 20000000 		.4byte	.LVL18
 535 0025 23000000 		.4byte	.LVL19-1
 536 0029 0100     		.2byte	0x1
 537 002b 50       		.byte	0x50
 538 002c 23000000 		.4byte	.LVL19-1
 539 0030 28000000 		.4byte	.LFE2
 540 0034 0400     		.2byte	0x4
 541 0036 F3       		.byte	0xf3
 542 0037 01       		.uleb128 0x1
 543 0038 50       		.byte	0x50
 544 0039 9F       		.byte	0x9f
 545 003a 00000000 		.4byte	0
 546 003e 00000000 		.4byte	0
 547              	.LVUS8:
 548 0042 00       		.uleb128 0
 549 0043 00       		.uleb128 .LVU42
 550 0044 00       		.uleb128 .LVU42
 551 0045 00       		.uleb128 0
 552              	.LLST8:
 553 0046 00000000 		.4byte	.LVL14
 554 004a 23000000 		.4byte	.LVL19-1
 555 004e 0100     		.2byte	0x1
 556 0050 51       		.byte	0x51
 557 0051 23000000 		.4byte	.LVL19-1
 558 0055 28000000 		.4byte	.LFE2
 559 0059 0400     		.2byte	0x4
 560 005b F3       		.byte	0xf3
 561 005c 01       		.uleb128 0x1
 562 005d 51       		.byte	0x51
 563 005e 9F       		.byte	0x9f
 564 005f 00000000 		.4byte	0
 565 0063 00000000 		.4byte	0
 566              	.LVUS9:
 567 0067 00       		.uleb128 0
 568 0068 00       		.uleb128 .LVU39
 569 0069 00       		.uleb128 .LVU39
 570 006a 00       		.uleb128 0
ARM GAS  /tmp/cc7MWemj.s 			page 11


 571              	.LLST9:
 572 006b 00000000 		.4byte	.LVL14
 573 006f 16000000 		.4byte	.LVL16
 574 0073 0100     		.2byte	0x1
 575 0075 52       		.byte	0x52
 576 0076 16000000 		.4byte	.LVL16
 577 007a 28000000 		.4byte	.LFE2
 578 007e 0400     		.2byte	0x4
 579 0080 F3       		.byte	0xf3
 580 0081 01       		.uleb128 0x1
 581 0082 52       		.byte	0x52
 582 0083 9F       		.byte	0x9f
 583 0084 00000000 		.4byte	0
 584 0088 00000000 		.4byte	0
 585              	.LVUS10:
 586 008c 00       		.uleb128 0
 587 008d 00       		.uleb128 .LVU31
 588 008e 00       		.uleb128 .LVU31
 589 008f 00       		.uleb128 0
 590              	.LLST10:
 591 0090 00000000 		.4byte	.LVL14
 592 0094 04000000 		.4byte	.LVL15
 593 0098 0100     		.2byte	0x1
 594 009a 53       		.byte	0x53
 595 009b 04000000 		.4byte	.LVL15
 596 009f 28000000 		.4byte	.LFE2
 597 00a3 0400     		.2byte	0x4
 598 00a5 F3       		.byte	0xf3
 599 00a6 01       		.uleb128 0x1
 600 00a7 53       		.byte	0x53
 601 00a8 9F       		.byte	0x9f
 602 00a9 00000000 		.4byte	0
 603 00ad 00000000 		.4byte	0
 604              	.LVUS4:
 605 00b1 00       		.uleb128 0
 606 00b2 00       		.uleb128 .LVU26
 607 00b3 00       		.uleb128 .LVU26
 608 00b4 00       		.uleb128 .LVU27
 609 00b5 00       		.uleb128 .LVU27
 610 00b6 00       		.uleb128 .LVU28
 611 00b7 00       		.uleb128 .LVU28
 612 00b8 00       		.uleb128 0
 613              	.LLST4:
 614 00b9 00000000 		.4byte	.LVL9
 615 00bd 1A000000 		.4byte	.LVL11
 616 00c1 0100     		.2byte	0x1
 617 00c3 50       		.byte	0x50
 618 00c4 1A000000 		.4byte	.LVL11
 619 00c8 20000000 		.4byte	.LVL12
 620 00cc 0400     		.2byte	0x4
 621 00ce F3       		.byte	0xf3
 622 00cf 01       		.uleb128 0x1
 623 00d0 50       		.byte	0x50
 624 00d1 9F       		.byte	0x9f
 625 00d2 20000000 		.4byte	.LVL12
 626 00d6 23000000 		.4byte	.LVL13-1
 627 00da 0100     		.2byte	0x1
ARM GAS  /tmp/cc7MWemj.s 			page 12


 628 00dc 50       		.byte	0x50
 629 00dd 23000000 		.4byte	.LVL13-1
 630 00e1 28000000 		.4byte	.LFE1
 631 00e5 0400     		.2byte	0x4
 632 00e7 F3       		.byte	0xf3
 633 00e8 01       		.uleb128 0x1
 634 00e9 50       		.byte	0x50
 635 00ea 9F       		.byte	0x9f
 636 00eb 00000000 		.4byte	0
 637 00ef 00000000 		.4byte	0
 638              	.LVUS5:
 639 00f3 00       		.uleb128 0
 640 00f4 00       		.uleb128 .LVU28
 641 00f5 00       		.uleb128 .LVU28
 642 00f6 00       		.uleb128 0
 643              	.LLST5:
 644 00f7 00000000 		.4byte	.LVL9
 645 00fb 23000000 		.4byte	.LVL13-1
 646 00ff 0100     		.2byte	0x1
 647 0101 51       		.byte	0x51
 648 0102 23000000 		.4byte	.LVL13-1
 649 0106 28000000 		.4byte	.LFE1
 650 010a 0400     		.2byte	0x4
 651 010c F3       		.byte	0xf3
 652 010d 01       		.uleb128 0x1
 653 010e 51       		.byte	0x51
 654 010f 9F       		.byte	0x9f
 655 0110 00000000 		.4byte	0
 656 0114 00000000 		.4byte	0
 657              	.LVUS6:
 658 0118 00       		.uleb128 0
 659 0119 00       		.uleb128 .LVU25
 660 011a 00       		.uleb128 .LVU25
 661 011b 00       		.uleb128 0
 662              	.LLST6:
 663 011c 00000000 		.4byte	.LVL9
 664 0120 16000000 		.4byte	.LVL10
 665 0124 0100     		.2byte	0x1
 666 0126 52       		.byte	0x52
 667 0127 16000000 		.4byte	.LVL10
 668 012b 28000000 		.4byte	.LFE1
 669 012f 0400     		.2byte	0x4
 670 0131 F3       		.byte	0xf3
 671 0132 01       		.uleb128 0x1
 672 0133 52       		.byte	0x52
 673 0134 9F       		.byte	0x9f
 674 0135 00000000 		.4byte	0
 675 0139 00000000 		.4byte	0
 676              	.LVUS0:
 677 013d 00       		.uleb128 0
 678 013e 00       		.uleb128 .LVU9
 679 013f 00       		.uleb128 .LVU9
 680 0140 00       		.uleb128 .LVU13
 681 0141 00       		.uleb128 .LVU13
 682 0142 00       		.uleb128 .LVU14
 683 0143 00       		.uleb128 .LVU14
 684 0144 00       		.uleb128 0
ARM GAS  /tmp/cc7MWemj.s 			page 13


 685              	.LLST0:
 686 0145 00000000 		.4byte	.LVL0
 687 0149 14000000 		.4byte	.LVL2
 688 014d 0100     		.2byte	0x1
 689 014f 50       		.byte	0x50
 690 0150 14000000 		.4byte	.LVL2
 691 0154 28000000 		.4byte	.LVL4
 692 0158 0400     		.2byte	0x4
 693 015a F3       		.byte	0xf3
 694 015b 01       		.uleb128 0x1
 695 015c 50       		.byte	0x50
 696 015d 9F       		.byte	0x9f
 697 015e 28000000 		.4byte	.LVL4
 698 0162 2C000000 		.4byte	.LVL5
 699 0166 0100     		.2byte	0x1
 700 0168 50       		.byte	0x50
 701 0169 2C000000 		.4byte	.LVL5
 702 016d 44000000 		.4byte	.LFE0
 703 0171 0400     		.2byte	0x4
 704 0173 F3       		.byte	0xf3
 705 0174 01       		.uleb128 0x1
 706 0175 50       		.byte	0x50
 707 0176 9F       		.byte	0x9f
 708 0177 00000000 		.4byte	0
 709 017b 00000000 		.4byte	0
 710              	.LVUS1:
 711 017f 00       		.uleb128 0
 712 0180 00       		.uleb128 .LVU9
 713 0181 00       		.uleb128 .LVU9
 714 0182 00       		.uleb128 .LVU13
 715 0183 00       		.uleb128 .LVU13
 716 0184 00       		.uleb128 .LVU15
 717 0185 00       		.uleb128 .LVU15
 718 0186 00       		.uleb128 0
 719              	.LLST1:
 720 0187 00000000 		.4byte	.LVL0
 721 018b 14000000 		.4byte	.LVL2
 722 018f 0100     		.2byte	0x1
 723 0191 51       		.byte	0x51
 724 0192 14000000 		.4byte	.LVL2
 725 0196 28000000 		.4byte	.LVL4
 726 019a 0400     		.2byte	0x4
 727 019c F3       		.byte	0xf3
 728 019d 01       		.uleb128 0x1
 729 019e 51       		.byte	0x51
 730 019f 9F       		.byte	0x9f
 731 01a0 28000000 		.4byte	.LVL4
 732 01a4 38000000 		.4byte	.LVL6
 733 01a8 0100     		.2byte	0x1
 734 01aa 51       		.byte	0x51
 735 01ab 38000000 		.4byte	.LVL6
 736 01af 44000000 		.4byte	.LFE0
 737 01b3 0400     		.2byte	0x4
 738 01b5 F3       		.byte	0xf3
 739 01b6 01       		.uleb128 0x1
 740 01b7 51       		.byte	0x51
 741 01b8 9F       		.byte	0x9f
ARM GAS  /tmp/cc7MWemj.s 			page 14


 742 01b9 00000000 		.4byte	0
 743 01bd 00000000 		.4byte	0
 744              	.LVUS2:
 745 01c1 00       		.uleb128 0
 746 01c2 00       		.uleb128 .LVU12
 747 01c3 00       		.uleb128 .LVU12
 748 01c4 00       		.uleb128 .LVU13
 749 01c5 00       		.uleb128 .LVU13
 750 01c6 00       		.uleb128 .LVU16
 751 01c7 00       		.uleb128 .LVU16
 752 01c8 00       		.uleb128 0
 753              	.LLST2:
 754 01c9 00000000 		.4byte	.LVL0
 755 01cd 1E000000 		.4byte	.LVL3
 756 01d1 0100     		.2byte	0x1
 757 01d3 52       		.byte	0x52
 758 01d4 1E000000 		.4byte	.LVL3
 759 01d8 28000000 		.4byte	.LVL4
 760 01dc 0400     		.2byte	0x4
 761 01de F3       		.byte	0xf3
 762 01df 01       		.uleb128 0x1
 763 01e0 52       		.byte	0x52
 764 01e1 9F       		.byte	0x9f
 765 01e2 28000000 		.4byte	.LVL4
 766 01e6 3A000000 		.4byte	.LVL7
 767 01ea 0100     		.2byte	0x1
 768 01ec 52       		.byte	0x52
 769 01ed 3A000000 		.4byte	.LVL7
 770 01f1 44000000 		.4byte	.LFE0
 771 01f5 0400     		.2byte	0x4
 772 01f7 F3       		.byte	0xf3
 773 01f8 01       		.uleb128 0x1
 774 01f9 52       		.byte	0x52
 775 01fa 9F       		.byte	0x9f
 776 01fb 00000000 		.4byte	0
 777 01ff 00000000 		.4byte	0
 778              	.LVUS3:
 779 0203 00       		.uleb128 0
 780 0204 00       		.uleb128 .LVU2
 781 0205 00       		.uleb128 .LVU2
 782 0206 00       		.uleb128 0
 783              	.LLST3:
 784 0207 00000000 		.4byte	.LVL0
 785 020b 04000000 		.4byte	.LVL1
 786 020f 0100     		.2byte	0x1
 787 0211 53       		.byte	0x53
 788 0212 04000000 		.4byte	.LVL1
 789 0216 44000000 		.4byte	.LFE0
 790 021a 0400     		.2byte	0x4
 791 021c F3       		.byte	0xf3
 792 021d 01       		.uleb128 0x1
 793 021e 53       		.byte	0x53
 794 021f 9F       		.byte	0x9f
 795 0220 00000000 		.4byte	0
 796 0224 00000000 		.4byte	0
 797              		.section	.debug_aranges,"",%progbits
 798 0000 2C000000 		.4byte	0x2c
ARM GAS  /tmp/cc7MWemj.s 			page 15


 799 0004 0200     		.2byte	0x2
 800 0006 00000000 		.4byte	.Ldebug_info0
 801 000a 04       		.byte	0x4
 802 000b 00       		.byte	0
 803 000c 0000     		.2byte	0
 804 000e 0000     		.2byte	0
 805 0010 00000000 		.4byte	.LFB0
 806 0014 44000000 		.4byte	.LFE0-.LFB0
 807 0018 00000000 		.4byte	.LFB1
 808 001c 28000000 		.4byte	.LFE1-.LFB1
 809 0020 00000000 		.4byte	.LFB2
 810 0024 28000000 		.4byte	.LFE2-.LFB2
 811 0028 00000000 		.4byte	0
 812 002c 00000000 		.4byte	0
 813              		.section	.debug_ranges,"",%progbits
 814              	.Ldebug_ranges0:
 815 0000 00000000 		.4byte	.LFB0
 816 0004 44000000 		.4byte	.LFE0
 817 0008 00000000 		.4byte	.LFB1
 818 000c 28000000 		.4byte	.LFE1
 819 0010 00000000 		.4byte	.LFB2
 820 0014 28000000 		.4byte	.LFE2
 821 0018 00000000 		.4byte	0
 822 001c 00000000 		.4byte	0
 823              		.section	.debug_line,"",%progbits
 824              	.Ldebug_line0:
 825 0000 C8000000 		.section	.debug_str,"MS",%progbits,1
 825      03003200 
 825      00000201 
 825      FB0E0D00 
 825      01010101 
 826              	.LASF8:
 827 0000 474E5520 		.ascii	"GNU C17 9.2.1 20191025 (release) [ARM/arm-9-branch "
 827      43313720 
 827      392E322E 
 827      31203230 
 827      31393130 
 828 0033 72657669 		.ascii	"revision 277599] -mcpu=cortex-m4 -mfloat-abi=hard -"
 828      73696F6E 
 828      20323737 
 828      3539395D 
 828      202D6D63 
 829 0066 6D667075 		.ascii	"mfpu=fpv4-sp-d16 -mno-thumb-interwork -mthumb -marc"
 829      3D667076 
 829      342D7370 
 829      2D643136 
 829      202D6D6E 
 830 0099 683D6172 		.ascii	"h=armv7e-m+fp -ggdb -O2 -fomit-frame-pointer -falig"
 830      6D763765 
 830      2D6D2B66 
 830      70202D67 
 830      67646220 
 831 00cc 6E2D6675 		.ascii	"n-functions=16 -fno-strict-aliasing -fstack-protect"
 831      6E637469 
 831      6F6E733D 
 831      3136202D 
 831      666E6F2D 
ARM GAS  /tmp/cc7MWemj.s 			page 16


 832 00ff 6F722D61 		.ascii	"or-all -ffunction-sections -fdata-sections -fno-com"
 832      6C6C202D 
 832      6666756E 
 832      6374696F 
 832      6E2D7365 
 833 0132 6D6F6E20 		.ascii	"mon -fsingle-precision-constant\000"
 833      2D667369 
 833      6E676C65 
 833      2D707265 
 833      63697369 
 834              	.LASF9:
 835 0152 2E2F2F73 		.ascii	".//src/epuck1x/DataEEPROM.c\000"
 835      72632F65 
 835      7075636B 
 835      31782F44 
 835      61746145 
 836              	.LASF1:
 837 016e 50616765 		.ascii	"Page\000"
 837      00
 838              	.LASF4:
 839 0173 57726974 		.ascii	"WriteEE\000"
 839      65454500 
 840              	.LASF5:
 841 017b 45726173 		.ascii	"EraseEE\000"
 841      65454500 
 842              	.LASF10:
 843 0183 2F686F6D 		.ascii	"/home/olof/Documents/MICRO-315/micro-315/tp4/lib/e-"
 843      652F6F6C 
 843      6F662F44 
 843      6F63756D 
 843      656E7473 
 844 01b6 7075636B 		.ascii	"puck2_main-processor\000"
 844      325F6D61 
 844      696E2D70 
 844      726F6365 
 844      73736F72 
 845              	.LASF2:
 846 01cb 4F666673 		.ascii	"Offset\000"
 846      657400
 847              	.LASF0:
 848 01d2 44617461 		.ascii	"DataIn\000"
 848      496E00
 849              	.LASF3:
 850 01d9 53697A65 		.ascii	"Size\000"
 850      00
 851              	.LASF6:
 852 01de 52656164 		.ascii	"ReadEE\000"
 852      454500
 853              	.LASF11:
 854 01e5 5F5F7374 		.ascii	"__stack_chk_fail\000"
 854      61636B5F 
 854      63686B5F 
 854      6661696C 
 854      00
 855              	.LASF7:
 856 01f6 44617461 		.ascii	"DataOut\000"
 856      4F757400 
ARM GAS  /tmp/cc7MWemj.s 			page 17


 857              		.ident	"GCC: (15:9-2019-q4-0ubuntu1) 9.2.1 20191025 (release) [ARM/arm-9-branch revision 277599]"
ARM GAS  /tmp/cc7MWemj.s 			page 18


DEFINED SYMBOLS
                            *ABS*:0000000000000000 DataEEPROM.c
     /tmp/cc7MWemj.s:18     .rodata.ReadEE.cst4:0000000000000000 $d
     /tmp/cc7MWemj.s:22     .text.ReadEE:0000000000000000 $t
     /tmp/cc7MWemj.s:31     .text.ReadEE:0000000000000000 ReadEE
     /tmp/cc7MWemj.s:102    .text.ReadEE:0000000000000040 $d
     /tmp/cc7MWemj.s:107    .rodata.EraseEE.cst4:0000000000000000 $d
     /tmp/cc7MWemj.s:111    .text.EraseEE:0000000000000000 $t
     /tmp/cc7MWemj.s:119    .text.EraseEE:0000000000000000 EraseEE
     /tmp/cc7MWemj.s:167    .text.EraseEE:0000000000000024 $d
     /tmp/cc7MWemj.s:172    .rodata.WriteEE.cst4:0000000000000000 $d
     /tmp/cc7MWemj.s:176    .text.WriteEE:0000000000000000 $t
     /tmp/cc7MWemj.s:184    .text.WriteEE:0000000000000000 WriteEE
     /tmp/cc7MWemj.s:235    .text.WriteEE:0000000000000024 $d

UNDEFINED SYMBOLS
__stack_chk_guard
__stack_chk_fail
