ARM GAS  /tmp/cc7MWemj.s 			page 1


   1              		.cpu cortex-m4
   2              		.eabi_attribute 27, 1
   3              		.eabi_attribute 28, 1
   4              		.eabi_attribute 20, 1
   5              		.eabi_attribute 21, 1
   6              		.eabi_attribute 23, 3
   7              		.eabi_attribute 24, 1
   8              		.eabi_attribute 25, 1
   9              		.eabi_attribute 26, 1
  10              		.eabi_attribute 30, 2
  11              		.eabi_attribute 34, 1
  12              		.eabi_attribute 18, 4
  13              		.file	"DataEEPROM.c"
  14              		.text
  15              	.Ltext0:
  16              		.cfi_sections	.debug_frame
  17              		.section	.rodata.ReadEE.cst4,"aM",%progbits,4
  18              		.align	2
  19              	.LC0:
  20 0000 00000000 		.word	__stack_chk_guard
  21              		.section	.text.ReadEE,"ax",%progbits
  22              		.align	1
  23              		.p2align 4,,15
  24              		.global	ReadEE
  25              		.arch armv7e-m
  26              		.syntax unified
  27              		.thumb
  28              		.thumb_func
  29              		.fpu fpv4-sp-d16
  30              		.type	ReadEE, %function
  31              	ReadEE:
  32              	.LVL0:
  33              	.LFB0:
  34              		.file 1 ".//src/epuck1x/DataEEPROM.c"
  35              		.loc 1 3 58 view -0
  36              		.cfi_startproc
  37              		@ args = 0, pretend = 0, frame = 8
  38              		@ frame_needed = 0, uses_anonymous_args = 0
  39              		.loc 1 3 58 is_stmt 0 view .LVU1
  40 0000 00B5     		push	{lr}
  41              		.cfi_def_cfa_offset 4
  42              		.cfi_offset 14, -4
  43 0002 0F4B     		ldr	r3, .L10
  44              	.LVL1:
  45              		.loc 1 3 58 view .LVU2
  46 0004 83B0     		sub	sp, sp, #12
  47              		.cfi_def_cfa_offset 16
  48              		.loc 1 5 4 view .LVU3
  49 0006 7F28     		cmp	r0, #127
  50              		.loc 1 3 58 view .LVU4
  51 0008 1B68     		ldr	r3, [r3]
  52 000a 0193     		str	r3, [sp, #4]
  53 000c 4FF00003 		mov	r3,#0
  54              		.loc 1 4 2 is_stmt 1 view .LVU5
  55              		.loc 1 5 2 view .LVU6
  56              		.loc 1 5 4 is_stmt 0 view .LVU7
  57 0010 0AD0     		beq	.L8
ARM GAS  /tmp/cc7MWemj.s 			page 2


  58              		.loc 1 9 12 view .LVU8
  59 0012 0021     		movs	r1, #0
  60              	.LVL2:
  61              	.L2:
  62              		.loc 1 12 1 view .LVU9
  63 0014 0A4B     		ldr	r3, .L10
  64 0016 1160     		str	r1, [r2]
  65              		.loc 1 11 2 is_stmt 1 view .LVU10
  66              		.loc 1 12 1 is_stmt 0 view .LVU11
  67 0018 1A68     		ldr	r2, [r3]
  68 001a 019B     		ldr	r3, [sp, #4]
  69 001c 5A40     		eors	r2, r3, r2
  70              	.LVL3:
  71              		.loc 1 12 1 view .LVU12
  72 001e 0CD1     		bne	.L9
  73 0020 0020     		movs	r0, #0
  74 0022 03B0     		add	sp, sp, #12
  75              		.cfi_remember_state
  76              		.cfi_def_cfa_offset 4
  77              		@ sp needed
  78 0024 5DF804FB 		ldr	pc, [sp], #4
  79              	.LVL4:
  80              	.L8:
  81              		.cfi_restore_state
  82              		.loc 1 5 16 discriminator 1 view .LVU13
  83 0028 4FF6FE70 		movw	r0, #65534
  84              	.LVL5:
  85              		.loc 1 6 12 discriminator 1 view .LVU14
  86 002c 4FF6F773 		movw	r3, #65527
  87 0030 8142     		cmp	r1, r0
  88 0032 0CBF     		ite	eq
  89 0034 1946     		moveq	r1, r3
  90 0036 0021     		movne	r1, #0
  91              	.LVL6:
  92              		.loc 1 6 12 discriminator 1 view .LVU15
  93 0038 ECE7     		b	.L2
  94              	.LVL7:
  95              	.L9:
  96              		.loc 1 12 1 view .LVU16
  97 003a FFF7FEFF 		bl	__stack_chk_fail
  98              	.LVL8:
  99              	.L11:
 100 003e 00BF     		.align	2
 101              	.L10:
 102 0040 00000000 		.word	.LC0
 103              		.cfi_endproc
 104              	.LFE0:
 105              		.size	ReadEE, .-ReadEE
 106              		.section	.rodata.EraseEE.cst4,"aM",%progbits,4
 107              		.align	2
 108              	.LC1:
 109 0000 00000000 		.word	__stack_chk_guard
 110              		.section	.text.EraseEE,"ax",%progbits
 111              		.align	1
 112              		.p2align 4,,15
 113              		.global	EraseEE
 114              		.syntax unified
ARM GAS  /tmp/cc7MWemj.s 			page 3


 115              		.thumb
 116              		.thumb_func
 117              		.fpu fpv4-sp-d16
 118              		.type	EraseEE, %function
 119              	EraseEE:
 120              	.LVL9:
 121              	.LFB1:
 122              		.loc 1 14 45 is_stmt 1 view -0
 123              		.cfi_startproc
 124              		@ args = 0, pretend = 0, frame = 8
 125              		@ frame_needed = 0, uses_anonymous_args = 0
 126              		.loc 1 14 45 is_stmt 0 view .LVU18
 127 0000 00B5     		push	{lr}
 128              		.cfi_def_cfa_offset 4
 129              		.cfi_offset 14, -4
 130 0002 084B     		ldr	r3, .L16
 131 0004 83B0     		sub	sp, sp, #12
 132              		.cfi_def_cfa_offset 16
 133              		.loc 1 14 45 view .LVU19
 134 0006 1B68     		ldr	r3, [r3]
 135 0008 0193     		str	r3, [sp, #4]
 136 000a 4FF00003 		mov	r3,#0
 137              		.loc 1 15 2 is_stmt 1 view .LVU20
 138              		.loc 1 16 2 view .LVU21
 139              		.loc 1 17 2 view .LVU22
 140              		.loc 1 18 2 view .LVU23
 141              		.loc 1 19 1 is_stmt 0 view .LVU24
 142 000e 054B     		ldr	r3, .L16
 143 0010 1A68     		ldr	r2, [r3]
 144 0012 019B     		ldr	r3, [sp, #4]
 145 0014 5A40     		eors	r2, r3, r2
 146              	.LVL10:
 147              		.loc 1 19 1 view .LVU25
 148 0016 03D1     		bne	.L15
 149 0018 0020     		movs	r0, #0
 150              	.LVL11:
 151              		.loc 1 19 1 view .LVU26
 152 001a 03B0     		add	sp, sp, #12
 153              		.cfi_remember_state
 154              		.cfi_def_cfa_offset 4
 155              		@ sp needed
 156 001c 5DF804FB 		ldr	pc, [sp], #4
 157              	.LVL12:
 158              	.L15:
 159              		.cfi_restore_state
 160              		.loc 1 19 1 view .LVU27
 161 0020 FFF7FEFF 		bl	__stack_chk_fail
 162              	.LVL13:
 163              	.L17:
 164              		.loc 1 19 1 view .LVU28
 165              		.align	2
 166              	.L16:
 167 0024 00000000 		.word	.LC1
 168              		.cfi_endproc
 169              	.LFE1:
 170              		.size	EraseEE, .-EraseEE
 171              		.section	.rodata.WriteEE.cst4,"aM",%progbits,4
ARM GAS  /tmp/cc7MWemj.s 			page 4


 172              		.align	2
 173              	.LC2:
 174 0000 00000000 		.word	__stack_chk_guard
 175              		.section	.text.WriteEE,"ax",%progbits
 176              		.align	1
 177              		.p2align 4,,15
 178              		.global	WriteEE
 179              		.syntax unified
 180              		.thumb
 181              		.thumb_func
 182              		.fpu fpv4-sp-d16
 183              		.type	WriteEE, %function
 184              	WriteEE:
 185              	.LVL14:
 186              	.LFB2:
 187              		.loc 1 21 58 is_stmt 1 view -0
 188              		.cfi_startproc
 189              		@ args = 0, pretend = 0, frame = 8
 190              		@ frame_needed = 0, uses_anonymous_args = 0
 191              		.loc 1 21 58 is_stmt 0 view .LVU30
 192 0000 00B5     		push	{lr}
 193              		.cfi_def_cfa_offset 4
 194              		.cfi_offset 14, -4
 195 0002 084B     		ldr	r3, .L22
 196              	.LVL15:
 197              		.loc 1 21 58 view .LVU31
 198 0004 83B0     		sub	sp, sp, #12
 199              		.cfi_def_cfa_offset 16
 200              		.loc 1 21 58 view .LVU32
 201 0006 1B68     		ldr	r3, [r3]
 202 0008 0193     		str	r3, [sp, #4]
 203 000a 4FF00003 		mov	r3,#0
 204              		.loc 1 22 2 is_stmt 1 view .LVU33
 205              		.loc 1 23 2 view .LVU34
 206              		.loc 1 24 2 view .LVU35
 207              		.loc 1 25 2 view .LVU36
 208              		.loc 1 26 2 view .LVU37
 209              		.loc 1 27 1 is_stmt 0 view .LVU38
 210 000e 054B     		ldr	r3, .L22
 211 0010 1A68     		ldr	r2, [r3]
 212 0012 019B     		ldr	r3, [sp, #4]
 213 0014 5A40     		eors	r2, r3, r2
 214              	.LVL16:
 215              		.loc 1 27 1 view .LVU39
 216 0016 03D1     		bne	.L21
 217 0018 0020     		movs	r0, #0
 218              	.LVL17:
 219              		.loc 1 27 1 view .LVU40
 220 001a 03B0     		add	sp, sp, #12
 221              		.cfi_remember_state
 222              		.cfi_def_cfa_offset 4
 223              		@ sp needed
 224 001c 5DF804FB 		ldr	pc, [sp], #4
 225              	.LVL18:
 226              	.L21:
 227              		.cfi_restore_state
 228              		.loc 1 27 1 view .LVU41
ARM GAS  /tmp/cc7MWemj.s 			page 5


 229 0020 FFF7FEFF 		bl	__stack_chk_fail
 230              	.LVL19:
 231              	.L23:
 232              		.loc 1 27 1 view .LVU42
 233              		.align	2
 234              	.L22:
 235 0024 00000000 		.word	.LC2
 236              		.cfi_endproc
 237              	.LFE2:
 238              		.size	WriteEE, .-WriteEE
 239              		.text
 240              	.Letext0: