ARM GAS  /tmp/ccb7mubE.s 			page 1


   1              		.cpu cortex-m4
   2              		.eabi_attribute 27, 1
   3              		.eabi_attribute 28, 1
   4              		.eabi_attribute 20, 1
   5              		.eabi_attribute 21, 1
   6              		.eabi_attribute 23, 3
   7              		.eabi_attribute 24, 1
   8              		.eabi_attribute 25, 1
   9              		.eabi_attribute 26, 1
  10              		.eabi_attribute 30, 2
  11              		.eabi_attribute 34, 1
  12              		.eabi_attribute 18, 4
  13              		.file	"dcmi_lld.c"
  14              		.text
  15              	.Ltext0:
  16              		.cfi_sections	.debug_frame
  17              		.section	.rodata.dcmi_lld_stop_stream.part.0.cst4,"aM",%progbits,4
  18              		.align	2
  19              	.LC0:
  20 0000 00000000 		.word	__stack_chk_guard
  21              		.section	.text.dcmi_lld_stop_stream.part.0,"ax",%progbits
  22              		.align	1
  23              		.p2align 4,,15
  24              		.arch armv7e-m
  25              		.syntax unified
  26              		.thumb
  27              		.thumb_func
  28              		.fpu fpv4-sp-d16
  29              		.type	dcmi_lld_stop_stream.part.0, %function
  30              	dcmi_lld_stop_stream.part.0:
  31              	.LVL0:
  32              	.LFB265:
  33              		.file 1 ".//ChibiOS_ext/os/hal/ports/STM32/STM32F4xx/dcmi_lld.c"
  34              		.loc 1 240 7 view -0
  35              		.cfi_startproc
  36              		@ args = 0, pretend = 0, frame = 8
  37              		@ frame_needed = 0, uses_anonymous_args = 0
  38              		.loc 1 240 7 is_stmt 0 view .LVU1
  39 0000 10B5     		push	{r4, lr}
  40              		.cfi_def_cfa_offset 8
  41              		.cfi_offset 4, -8
  42              		.cfi_offset 14, -4
  43 0002 114B     		ldr	r3, .L12
  44              		.loc 1 243 8 view .LVU2
  45 0004 8168     		ldr	r1, [r0, #8]
  46              	.LBB32:
  47              	.LBB33:
  48              	.LBB34:
  49              		.file 2 ".//ChibiOS//os/rt/include/chvt.h"
  50              		.loc 2 231 19 view .LVU3
  51 0006 114A     		ldr	r2, .L12+4
  52              	.LBE34:
  53              	.LBE33:
  54              	.LBE32:
  55              		.loc 1 240 7 view .LVU4
  56 0008 82B0     		sub	sp, sp, #8
  57              		.cfi_def_cfa_offset 16
ARM GAS  /tmp/ccb7mubE.s 			page 2


  58              		.loc 1 240 7 view .LVU5
  59 000a 1B68     		ldr	r3, [r3]
  60 000c 0193     		str	r3, [sp, #4]
  61 000e 4FF00003 		mov	r3,#0
  62              		.loc 1 243 3 is_stmt 1 view .LVU6
  63              		.loc 1 243 19 is_stmt 0 view .LVU7
  64 0012 0B68     		ldr	r3, [r1]
  65 0014 23F00103 		bic	r3, r3, #1
  66 0018 0B60     		str	r3, [r1]
  67              		.loc 1 245 9 is_stmt 1 view .LVU8
  68              	.LBB39:
  69              	.LBI32:
  70              		.file 3 ".//ChibiOS//os/hal/osal/rt/osal.h"
  71              		.loc 3 570 25 view .LVU9
  72              	.LBE39:
  73              		.loc 3 572 3 view .LVU10
  74              	.LBB40:
  75              	.LBB37:
  76              	.LBI33:
  77              		.loc 2 228 25 view .LVU11
  78              	.LBB35:
  79              		.loc 2 231 3 view .LVU12
  80              	.LBE35:
  81              	.LBE37:
  82              	.LBE40:
  83              		.loc 1 250 22 is_stmt 0 view .LVU13
  84 001a 8168     		ldr	r1, [r0, #8]
  85              	.LBB41:
  86              	.LBB38:
  87              	.LBB36:
  88              		.loc 2 231 19 view .LVU14
  89 001c 946A     		ldr	r4, [r2, #40]
  90              	.LVL1:
  91              		.loc 2 231 19 view .LVU15
  92              	.LBE36:
  93              	.LBE38:
  94              	.LBE41:
  95              		.loc 1 246 3 is_stmt 1 view .LVU16
  96              		.loc 1 246 3 is_stmt 0 view .LVU17
  97 001e 03E0     		b	.L3
  98              	.LVL2:
  99              	.L10:
 100              		.loc 1 254 4 is_stmt 1 view .LVU18
 101              	.LBB42:
 102              	.LBI42:
 103              		.loc 3 570 25 view .LVU19
 104              	.LBE42:
 105              		.loc 3 572 3 view .LVU20
 106              	.LBB45:
 107              	.LBB43:
 108              	.LBI43:
 109              		.loc 2 228 25 view .LVU21
 110              	.LBB44:
 111              		.loc 2 231 3 view .LVU22
 112              		.loc 2 231 19 is_stmt 0 view .LVU23
 113 0020 936A     		ldr	r3, [r2, #40]
 114              	.LVL3:
ARM GAS  /tmp/ccb7mubE.s 			page 3


 115              		.loc 2 231 19 view .LVU24
 116              	.LBE44:
 117              	.LBE43:
 118              	.LBE45:
 119              	.LBB46:
 120              	.LBI46:
 121              		.loc 3 589 20 is_stmt 1 view .LVU25
 122              	.LBE46:
 123              		.loc 3 593 3 view .LVU26
 124              	.LBB49:
 125              	.LBB47:
 126              	.LBI47:
 127              		.loc 2 284 20 view .LVU27
 128              	.LBB48:
 129              		.loc 2 288 3 view .LVU28
 130              		.loc 2 288 23 is_stmt 0 view .LVU29
 131 0022 1B1B     		subs	r3, r3, r4
 132              	.LBE48:
 133              	.LBE47:
 134              	.LBE49:
 135              		.loc 1 254 7 view .LVU30
 136 0024 C72B     		cmp	r3, #199
 137 0026 0AD8     		bhi	.L9
 138              	.L3:
 139              		.loc 1 248 3 is_stmt 1 view .LVU31
 140              		.loc 1 250 13 view .LVU32
 141              		.loc 1 250 28 is_stmt 0 view .LVU33
 142 0028 0868     		ldr	r0, [r1]
 143              		.loc 1 250 15 view .LVU34
 144 002a 10F00100 		ands	r0, r0, #1
 145 002e F7D1     		bne	.L10
 146              	.L1:
 147              		.loc 1 260 1 view .LVU35
 148 0030 054B     		ldr	r3, .L12
 149 0032 1A68     		ldr	r2, [r3]
 150 0034 019B     		ldr	r3, [sp, #4]
 151 0036 5A40     		eors	r2, r3, r2
 152 0038 04D1     		bne	.L11
 153 003a 02B0     		add	sp, sp, #8
 154              		.cfi_remember_state
 155              		.cfi_def_cfa_offset 8
 156              		@ sp needed
 157 003c 10BD     		pop	{r4, pc}
 158              	.LVL4:
 159              	.L9:
 160              		.cfi_restore_state
 161              		.loc 1 255 12 view .LVU36
 162 003e 4FF0FF30 		mov	r0, #-1
 163 0042 F5E7     		b	.L1
 164              	.L11:
 165              		.loc 1 260 1 view .LVU37
 166 0044 FFF7FEFF 		bl	__stack_chk_fail
 167              	.LVL5:
 168              	.L13:
 169              		.align	2
 170              	.L12:
 171 0048 00000000 		.word	.LC0
ARM GAS  /tmp/ccb7mubE.s 			page 4


 172 004c 00000000 		.word	ch
 173              		.cfi_endproc
 174              	.LFE265:
 175              		.size	dcmi_lld_stop_stream.part.0, .-dcmi_lld_stop_stream.part.0
 176              		.section	.rodata.dcmi_lld_serve_dma_rx_interrupt.cst4,"aM",%progbits,4
 177              		.align	2
 178              	.LC1:
 179 0000 00000000 		.word	__stack_chk_guard
 180              		.section	.text.dcmi_lld_serve_dma_rx_interrupt,"ax",%progbits
 181              		.align	1
 182              		.p2align 4,,15
 183              		.syntax unified
 184              		.thumb
 185              		.thumb_func
 186              		.fpu fpv4-sp-d16
 187              		.type	dcmi_lld_serve_dma_rx_interrupt, %function
 188              	dcmi_lld_serve_dma_rx_interrupt:
 189              	.LVL6:
 190              	.LFB257:
 191              		.loc 1 63 80 is_stmt 1 view -0
 192              		.cfi_startproc
 193              		@ args = 0, pretend = 0, frame = 8
 194              		@ frame_needed = 0, uses_anonymous_args = 0
 195              		.loc 1 63 80 is_stmt 0 view .LVU39
 196 0000 10B5     		push	{r4, lr}
 197              		.cfi_def_cfa_offset 8
 198              		.cfi_offset 4, -8
 199              		.cfi_offset 14, -4
 200 0002 174B     		ldr	r3, .L28
 201 0004 82B0     		sub	sp, sp, #8
 202              		.cfi_def_cfa_offset 16
 203              		.loc 1 66 5 view .LVU40
 204 0006 11F00C0F 		tst	r1, #12
 205              		.loc 1 63 80 view .LVU41
 206 000a 1B68     		ldr	r3, [r3]
 207 000c 0193     		str	r3, [sp, #4]
 208 000e 4FF00003 		mov	r3,#0
 209              		.loc 1 66 2 is_stmt 1 view .LVU42
 210              		.loc 1 63 80 is_stmt 0 view .LVU43
 211 0012 0446     		mov	r4, r0
 212              		.loc 1 66 5 view .LVU44
 213 0014 0AD0     		beq	.L25
 214              		.loc 1 67 3 is_stmt 1 view .LVU45
 215 0016 0378     		ldrb	r3, [r0]	@ zero_extendqisi2
 216 0018 032B     		cmp	r3, #3
 217 001a 1BD0     		beq	.L27
 218              	.LVL7:
 219              	.L17:
 220              		.loc 1 67 3 discriminator 3 view .LVU46
 221 001c 0622     		movs	r2, #6
 222 001e 6368     		ldr	r3, [r4, #4]
 223 0020 2270     		strb	r2, [r4]
 224              		.loc 1 67 3 discriminator 3 view .LVU47
 225 0022 9A68     		ldr	r2, [r3, #8]
 226 0024 1AB1     		cbz	r2, .L16
 227              		.loc 1 67 3 discriminator 4 view .LVU48
 228 0026 0021     		movs	r1, #0
ARM GAS  /tmp/ccb7mubE.s 			page 5


 229 0028 2046     		mov	r0, r4
 230 002a 9047     		blx	r2
 231              	.LVL8:
 232              	.L25:
 233              		.loc 1 67 3 is_stmt 0 discriminator 4 view .LVU49
 234 002c 6368     		ldr	r3, [r4, #4]
 235              	.L16:
 236              		.loc 1 67 51 is_stmt 1 discriminator 6 view .LVU50
 237              		.loc 1 69 2 discriminator 6 view .LVU51
 238              		.loc 1 69 19 is_stmt 0 discriminator 6 view .LVU52
 239 002e 5B68     		ldr	r3, [r3, #4]
 240              		.loc 1 69 4 discriminator 6 view .LVU53
 241 0030 4BB1     		cbz	r3, .L14
 242              		.loc 1 70 3 is_stmt 1 view .LVU54
 243 0032 0B4A     		ldr	r2, .L28
 244 0034 1168     		ldr	r1, [r2]
 245 0036 019A     		ldr	r2, [sp, #4]
 246 0038 5140     		eors	r1, r2, r1
 247 003a 0ED1     		bne	.L26
 248 003c 2046     		mov	r0, r4
 249              		.loc 1 73 1 is_stmt 0 view .LVU55
 250 003e 02B0     		add	sp, sp, #8
 251              		.cfi_remember_state
 252              		.cfi_def_cfa_offset 8
 253              		@ sp needed
 254 0040 BDE81040 		pop	{r4, lr}
 255              		.cfi_restore 14
 256              		.cfi_restore 4
 257              		.cfi_def_cfa_offset 0
 258              	.LVL9:
 259              		.loc 1 70 3 view .LVU56
 260 0044 1847     		bx	r3	@ indirect register sibling call
 261              	.LVL10:
 262              	.L14:
 263              		.cfi_restore_state
 264              		.loc 1 73 1 view .LVU57
 265 0046 064B     		ldr	r3, .L28
 266 0048 1A68     		ldr	r2, [r3]
 267 004a 019B     		ldr	r3, [sp, #4]
 268 004c 5A40     		eors	r2, r3, r2
 269 004e 04D1     		bne	.L26
 270 0050 02B0     		add	sp, sp, #8
 271              		.cfi_remember_state
 272              		.cfi_def_cfa_offset 8
 273              		@ sp needed
 274 0052 10BD     		pop	{r4, pc}
 275              	.LVL11:
 276              	.L27:
 277              		.cfi_restore_state
 278              		.loc 1 67 3 is_stmt 1 view .LVU58
 279              	.LBB50:
 280              	.LBI50:
 281              		.loc 1 240 7 view .LVU59
 282              	.LBB51:
 283              		.loc 1 241 5 view .LVU60
 284              		.loc 1 242 2 view .LVU61
 285 0054 FFF7FEFF 		bl	dcmi_lld_stop_stream.part.0
ARM GAS  /tmp/ccb7mubE.s 			page 6


 286              	.LVL12:
 287              		.loc 1 242 2 is_stmt 0 view .LVU62
 288 0058 E0E7     		b	.L17
 289              	.LVL13:
 290              	.L26:
 291              		.loc 1 242 2 view .LVU63
 292              	.LBE51:
 293              	.LBE50:
 294              		.loc 1 73 1 view .LVU64
 295 005a FFF7FEFF 		bl	__stack_chk_fail
 296              	.LVL14:
 297              	.L29:
 298 005e 00BF     		.align	2
 299              	.L28:
 300 0060 00000000 		.word	.LC1
 301              		.cfi_endproc
 302              	.LFE257:
 303              		.size	dcmi_lld_serve_dma_rx_interrupt, .-dcmi_lld_serve_dma_rx_interrupt
 304              		.section	.rodata.Vector178.cst4,"aM",%progbits,4
 305              		.align	2
 306              	.LC2:
 307 0000 00000000 		.word	__stack_chk_guard
 308              		.section	.text.Vector178,"ax",%progbits
 309              		.align	1
 310              		.p2align 4,,15
 311              		.global	Vector178
 312              		.syntax unified
 313              		.thumb
 314              		.thumb_func
 315              		.fpu fpv4-sp-d16
 316              		.type	Vector178, %function
 317              	Vector178:
 318              	.LFB258:
 319              		.loc 1 84 29 is_stmt 1 view -0
 320              		.cfi_startproc
 321              		@ args = 0, pretend = 0, frame = 8
 322              		@ frame_needed = 0, uses_anonymous_args = 0
 323 0000 70B5     		push	{r4, r5, r6, lr}
 324              		.cfi_def_cfa_offset 16
 325              		.cfi_offset 4, -16
 326              		.cfi_offset 5, -12
 327              		.cfi_offset 6, -8
 328              		.cfi_offset 14, -4
 329 0002 2A4B     		ldr	r3, .L58
 330 0004 82B0     		sub	sp, sp, #8
 331              		.cfi_def_cfa_offset 24
 332              		.loc 1 84 29 is_stmt 0 view .LVU66
 333 0006 1B68     		ldr	r3, [r3]
 334 0008 0193     		str	r3, [sp, #4]
 335 000a 4FF00003 		mov	r3,#0
 336              		.loc 1 85 2 is_stmt 1 view .LVU67
 337              		.loc 1 85 2 view .LVU68
 338 000e FFF7FEFF 		bl	_stats_increase_irq
 339              	.LVL15:
 340              		.loc 1 85 2 view .LVU69
 341 0012 FFF7FEFF 		bl	_dbg_check_enter_isr
 342              	.LVL16:
ARM GAS  /tmp/ccb7mubE.s 			page 7


 343              		.loc 1 87 2 view .LVU70
 344              		.loc 1 87 11 is_stmt 0 view .LVU71
 345 0016 264B     		ldr	r3, .L58+4
 346 0018 1D69     		ldr	r5, [r3, #16]
 347              	.LVL17:
 348              		.loc 1 88 2 is_stmt 1 view .LVU72
 349              		.loc 1 88 5 is_stmt 0 view .LVU73
 350 001a EA07     		lsls	r2, r5, #31
 351 001c 15D5     		bpl	.L31
 352              		.loc 1 89 9 is_stmt 1 view .LVU74
 353              		.loc 1 89 19 is_stmt 0 view .LVU75
 354 001e 5A69     		ldr	r2, [r3, #20]
 355              	.LBB52:
 356              		.loc 1 90 9 view .LVU76
 357 0020 244C     		ldr	r4, .L58+8
 358              	.LBE52:
 359              		.loc 1 89 19 view .LVU77
 360 0022 42F00102 		orr	r2, r2, #1
 361 0026 5A61     		str	r2, [r3, #20]
 362              	.LBB53:
 363              		.loc 1 90 9 is_stmt 1 view .LVU78
 364 0028 2678     		ldrb	r6, [r4]	@ zero_extendqisi2
 365              	.LVL18:
 366              		.loc 1 90 9 view .LVU79
 367              		.loc 1 90 9 view .LVU80
 368 002a B31F     		subs	r3, r6, #6
 369 002c 012B     		cmp	r3, #1
 370 002e 30D9     		bls	.L30
 371              		.loc 1 90 9 discriminator 2 view .LVU81
 372 0030 6368     		ldr	r3, [r4, #4]
 373 0032 0522     		movs	r2, #5
 374 0034 2270     		strb	r2, [r4]
 375              		.loc 1 90 9 discriminator 2 view .LVU82
 376 0036 1B68     		ldr	r3, [r3]
 377 0038 0BB1     		cbz	r3, .L33
 378              		.loc 1 90 9 discriminator 3 view .LVU83
 379 003a 2046     		mov	r0, r4
 380 003c 9847     		blx	r3
 381              	.LVL19:
 382              	.L33:
 383              		.loc 1 90 9 discriminator 5 view .LVU84
 384 003e 042E     		cmp	r6, #4
 385 0040 22D0     		beq	.L35
 386              		.loc 1 90 9 discriminator 7 view .LVU85
 387 0042 022E     		cmp	r6, #2
 388 0044 20D0     		beq	.L35
 389              		.loc 1 90 9 discriminator 10 view .LVU86
 390 0046 0323     		movs	r3, #3
 391 0048 2370     		strb	r3, [r4]
 392              	.LVL20:
 393              	.L31:
 394              		.loc 1 90 9 is_stmt 0 discriminator 10 view .LVU87
 395              	.LBE53:
 396              		.loc 1 90 31 is_stmt 1 discriminator 12 view .LVU88
 397              		.loc 1 92 2 discriminator 12 view .LVU89
 398              		.loc 1 92 5 is_stmt 0 discriminator 12 view .LVU90
 399 004a AB07     		lsls	r3, r5, #30
ARM GAS  /tmp/ccb7mubE.s 			page 8


 400 004c 10D5     		bpl	.L37
 401              	.L57:
 402              		.loc 1 93 9 is_stmt 1 view .LVU91
 403              		.loc 1 93 19 is_stmt 0 view .LVU92
 404 004e 184A     		ldr	r2, .L58+4
 405              		.loc 1 94 3 view .LVU93
 406 0050 184C     		ldr	r4, .L58+8
 407              		.loc 1 93 19 view .LVU94
 408 0052 5369     		ldr	r3, [r2, #20]
 409 0054 43F00203 		orr	r3, r3, #2
 410 0058 5361     		str	r3, [r2, #20]
 411              		.loc 1 94 3 is_stmt 1 view .LVU95
 412 005a 2378     		ldrb	r3, [r4]	@ zero_extendqisi2
 413 005c 032B     		cmp	r3, #3
 414 005e 1FD0     		beq	.L56
 415              	.L38:
 416              		.loc 1 94 3 discriminator 3 view .LVU96
 417 0060 6368     		ldr	r3, [r4, #4]
 418 0062 9B68     		ldr	r3, [r3, #8]
 419 0064 0622     		movs	r2, #6
 420 0066 2270     		strb	r2, [r4]
 421              		.loc 1 94 3 discriminator 3 view .LVU97
 422 0068 13B1     		cbz	r3, .L37
 423              		.loc 1 94 3 discriminator 4 view .LVU98
 424 006a 1248     		ldr	r0, .L58+8
 425 006c 0121     		movs	r1, #1
 426 006e 9847     		blx	r3
 427              	.LVL21:
 428              	.L37:
 429              		.loc 1 94 50 discriminator 6 view .LVU99
 430              		.loc 1 98 2 discriminator 6 view .LVU100
 431 0070 FFF7FEFF 		bl	_dbg_check_leave_isr
 432              	.LVL22:
 433              		.loc 1 98 2 discriminator 6 view .LVU101
 434 0074 0D4B     		ldr	r3, .L58
 435 0076 1A68     		ldr	r2, [r3]
 436 0078 019B     		ldr	r3, [sp, #4]
 437 007a 5A40     		eors	r2, r3, r2
 438 007c 14D1     		bne	.L55
 439              		.loc 1 99 1 is_stmt 0 discriminator 6 view .LVU102
 440 007e 02B0     		add	sp, sp, #8
 441              		.cfi_remember_state
 442              		.cfi_def_cfa_offset 16
 443              		@ sp needed
 444 0080 BDE87040 		pop	{r4, r5, r6, lr}
 445              		.cfi_restore 14
 446              		.cfi_restore 6
 447              		.cfi_restore 5
 448              		.cfi_restore 4
 449              		.cfi_def_cfa_offset 0
 450              	.LVL23:
 451              		.loc 1 98 2 discriminator 6 view .LVU103
 452 0084 FFF7FEBF 		b	_port_irq_epilogue
 453              	.LVL24:
 454              	.L35:
 455              		.cfi_restore_state
 456              	.LBB54:
ARM GAS  /tmp/ccb7mubE.s 			page 9


 457              		.loc 1 90 9 is_stmt 1 discriminator 6 view .LVU104
 458 0088 0223     		movs	r3, #2
 459 008a 2370     		strb	r3, [r4]
 460              	.LBE54:
 461              		.loc 1 90 31 discriminator 6 view .LVU105
 462              		.loc 1 92 2 discriminator 6 view .LVU106
 463              		.loc 1 92 5 is_stmt 0 discriminator 6 view .LVU107
 464 008c AB07     		lsls	r3, r5, #30
 465 008e EFD5     		bpl	.L37
 466 0090 DDE7     		b	.L57
 467              	.L30:
 468              		.loc 1 99 1 view .LVU108
 469 0092 064B     		ldr	r3, .L58
 470 0094 1A68     		ldr	r2, [r3]
 471 0096 019B     		ldr	r3, [sp, #4]
 472 0098 5A40     		eors	r2, r3, r2
 473 009a 05D1     		bne	.L55
 474 009c 02B0     		add	sp, sp, #8
 475              		.cfi_remember_state
 476              		.cfi_def_cfa_offset 16
 477              		@ sp needed
 478 009e 70BD     		pop	{r4, r5, r6, pc}
 479              	.LVL25:
 480              	.L56:
 481              		.cfi_restore_state
 482              		.loc 1 94 3 is_stmt 1 view .LVU109
 483              	.LBB55:
 484              	.LBI55:
 485              		.loc 1 240 7 view .LVU110
 486              	.LBB56:
 487              		.loc 1 241 5 view .LVU111
 488              		.loc 1 242 2 view .LVU112
 489 00a0 2046     		mov	r0, r4
 490 00a2 FFF7FEFF 		bl	dcmi_lld_stop_stream.part.0
 491              	.LVL26:
 492 00a6 DBE7     		b	.L38
 493              	.LVL27:
 494              	.L55:
 495              		.loc 1 242 2 is_stmt 0 view .LVU113
 496              	.LBE56:
 497              	.LBE55:
 498              		.loc 1 99 1 view .LVU114
 499 00a8 FFF7FEFF 		bl	__stack_chk_fail
 500              	.LVL28:
 501              	.L59:
 502              		.align	2
 503              	.L58:
 504 00ac 00000000 		.word	.LC2
 505 00b0 00000550 		.word	1342504960
 506 00b4 00000000 		.word	.LANCHOR0
 507              		.cfi_endproc
 508              	.LFE258:
 509              		.size	Vector178, .-Vector178
 510              		.section	.rodata.dcmi_lld_init.cst4,"aM",%progbits,4
 511              		.align	2
 512              	.LC3:
 513 0000 00000000 		.word	__stack_chk_guard
ARM GAS  /tmp/ccb7mubE.s 			page 10


 514              		.section	.text.dcmi_lld_init,"ax",%progbits
 515              		.align	1
 516              		.p2align 4,,15
 517              		.global	dcmi_lld_init
 518              		.syntax unified
 519              		.thumb
 520              		.thumb_func
 521              		.fpu fpv4-sp-d16
 522              		.type	dcmi_lld_init, %function
 523              	dcmi_lld_init:
 524              	.LFB259:
 525              		.loc 1 110 26 is_stmt 1 view -0
 526              		.cfi_startproc
 527              		@ args = 0, pretend = 0, frame = 8
 528              		@ frame_needed = 0, uses_anonymous_args = 0
 529 0000 10B5     		push	{r4, lr}
 530              		.cfi_def_cfa_offset 8
 531              		.cfi_offset 4, -8
 532              		.cfi_offset 14, -4
 533              		.loc 1 111 2 is_stmt 0 view .LVU116
 534 0002 0C4C     		ldr	r4, .L64
 535              		.loc 1 110 26 view .LVU117
 536 0004 0C4B     		ldr	r3, .L64+4
 537 0006 82B0     		sub	sp, sp, #8
 538              		.cfi_def_cfa_offset 16
 539              		.loc 1 111 2 view .LVU118
 540 0008 2046     		mov	r0, r4
 541              		.loc 1 110 26 view .LVU119
 542 000a 1B68     		ldr	r3, [r3]
 543 000c 0193     		str	r3, [sp, #4]
 544 000e 4FF00003 		mov	r3,#0
 545              		.loc 1 111 2 is_stmt 1 view .LVU120
 546 0012 FFF7FEFF 		bl	dcmiObjectInit
 547              	.LVL29:
 548              		.loc 1 112 2 view .LVU121
 549              		.loc 1 113 15 is_stmt 0 view .LVU122
 550 0016 094A     		ldr	r2, .L64+8
 551              		.loc 1 112 13 view .LVU123
 552 0018 0949     		ldr	r1, .L64+12
 553              		.loc 1 114 16 view .LVU124
 554 001a 0A4B     		ldr	r3, .L64+16
 555 001c 2361     		str	r3, [r4, #16]
 556              		.loc 1 113 15 view .LVU125
 557 001e C4E90212 		strd	r1, r2, [r4, #8]
 558              		.loc 1 114 2 is_stmt 1 view .LVU126
 559              		.loc 1 127 1 is_stmt 0 view .LVU127
 560 0022 054B     		ldr	r3, .L64+4
 561 0024 1A68     		ldr	r2, [r3]
 562 0026 019B     		ldr	r3, [sp, #4]
 563 0028 5A40     		eors	r2, r3, r2
 564 002a 01D1     		bne	.L63
 565 002c 02B0     		add	sp, sp, #8
 566              		.cfi_remember_state
 567              		.cfi_def_cfa_offset 8
 568              		@ sp needed
 569 002e 10BD     		pop	{r4, pc}
 570              	.L63:
ARM GAS  /tmp/ccb7mubE.s 			page 11


 571              		.cfi_restore_state
 572 0030 FFF7FEFF 		bl	__stack_chk_fail
 573              	.LVL30:
 574              	.L65:
 575              		.align	2
 576              	.L64:
 577 0034 00000000 		.word	.LANCHOR0
 578 0038 00000000 		.word	.LC3
 579 003c 6C000000 		.word	_stm32_dma_streams+108
 580 0040 00000550 		.word	1342504960
 581 0044 16550202 		.word	33707286
 582              		.cfi_endproc
 583              	.LFE259:
 584              		.size	dcmi_lld_init, .-dcmi_lld_init
 585              		.section	.rodata.dcmi_lld_prepare.cst4,"aM",%progbits,4
 586              		.align	2
 587              	.LC4:
 588 0000 00000000 		.word	__stack_chk_guard
 589              		.section	.text.dcmi_lld_prepare,"ax",%progbits
 590              		.align	1
 591              		.p2align 4,,15
 592              		.global	dcmi_lld_prepare
 593              		.syntax unified
 594              		.thumb
 595              		.thumb_func
 596              		.fpu fpv4-sp-d16
 597              		.type	dcmi_lld_prepare, %function
 598              	dcmi_lld_prepare:
 599              	.LVL31:
 600              	.LFB260:
 601              		.loc 1 139 96 is_stmt 1 view -0
 602              		.cfi_startproc
 603              		@ args = 0, pretend = 0, frame = 8
 604              		@ frame_needed = 0, uses_anonymous_args = 0
 605              		.loc 1 139 96 is_stmt 0 view .LVU129
 606 0000 F0B5     		push	{r4, r5, r6, r7, lr}
 607              		.cfi_def_cfa_offset 20
 608              		.cfi_offset 4, -20
 609              		.cfi_offset 5, -16
 610              		.cfi_offset 6, -12
 611              		.cfi_offset 7, -8
 612              		.cfi_offset 14, -4
 613              		.loc 1 142 5 view .LVU130
 614 0002 0478     		ldrb	r4, [r0]	@ zero_extendqisi2
 615              		.loc 1 139 96 view .LVU131
 616 0004 2F4D     		ldr	r5, .L80
 617 0006 83B0     		sub	sp, sp, #12
 618              		.cfi_def_cfa_offset 32
 619              		.loc 1 142 5 view .LVU132
 620 0008 012C     		cmp	r4, #1
 621              		.loc 1 139 96 view .LVU133
 622 000a 2D68     		ldr	r5, [r5]
 623 000c 0195     		str	r5, [sp, #4]
 624 000e 4FF00005 		mov	r5,#0
 625              		.loc 1 142 2 is_stmt 1 view .LVU134
 626              		.loc 1 142 5 is_stmt 0 view .LVU135
 627 0012 06D0     		beq	.L76
ARM GAS  /tmp/ccb7mubE.s 			page 12


 628              	.LVL32:
 629              	.L66:
 630              		.loc 1 174 1 view .LVU136
 631 0014 2B4B     		ldr	r3, .L80
 632 0016 1A68     		ldr	r2, [r3]
 633 0018 019B     		ldr	r3, [sp, #4]
 634 001a 5A40     		eors	r2, r3, r2
 635 001c 4FD1     		bne	.L77
 636 001e 03B0     		add	sp, sp, #12
 637              		.cfi_remember_state
 638              		.cfi_def_cfa_offset 20
 639              		@ sp needed
 640 0020 F0BD     		pop	{r4, r5, r6, r7, pc}
 641              	.LVL33:
 642              	.L76:
 643              		.cfi_restore_state
 644              		.loc 1 143 3 is_stmt 1 view .LVU137
 645              		.loc 1 143 6 is_stmt 0 view .LVU138
 646 0022 294C     		ldr	r4, .L80+4
 647 0024 A042     		cmp	r0, r4
 648 0026 F5D1     		bne	.L66
 649              	.LBB57:
 650              		.loc 1 145 4 is_stmt 1 view .LVU139
 651              		.loc 1 146 4 view .LVU140
 652 0028 0F46     		mov	r7, r1
 653 002a 1646     		mov	r6, r2
 654 002c 1D46     		mov	r5, r3
 655              		.loc 1 146 8 is_stmt 0 view .LVU141
 656 002e 274A     		ldr	r2, .L80+8
 657              	.LVL34:
 658              		.loc 1 146 8 view .LVU142
 659 0030 E068     		ldr	r0, [r4, #12]
 660              	.LVL35:
 661              		.loc 1 146 8 view .LVU143
 662 0032 2346     		mov	r3, r4
 663              	.LVL36:
 664              		.loc 1 146 8 view .LVU144
 665 0034 0C21     		movs	r1, #12
 666              	.LVL37:
 667              		.loc 1 146 8 view .LVU145
 668 0036 FFF7FEFF 		bl	dmaStreamAllocate
 669              	.LVL38:
 670              		.loc 1 147 4 is_stmt 1 view .LVU146
 671              		.loc 1 147 4 view .LVU147
 672              		.loc 1 147 4 view .LVU148
 673 003a 0028     		cmp	r0, #0
 674 003c 38D1     		bne	.L78
 675              	.LVL39:
 676              	.L68:
 677              		.loc 1 147 4 discriminator 5 view .LVU149
 678              		.loc 1 148 4 discriminator 5 view .LVU150
 679 003e D4E90232 		ldrd	r3, r2, [r4, #8]
 680 0042 1268     		ldr	r2, [r2]
 681 0044 2833     		adds	r3, r3, #40
 682 0046 9360     		str	r3, [r2, #8]
 683              		.loc 1 148 59 discriminator 5 view .LVU151
 684              		.loc 1 149 4 discriminator 5 view .LVU152
ARM GAS  /tmp/ccb7mubE.s 			page 13


 685 0048 E368     		ldr	r3, [r4, #12]
 686 004a 1A68     		ldr	r2, [r3]
 687 004c 0421     		movs	r1, #4
 688 004e 5161     		str	r1, [r2, #20]
 689              		.loc 1 149 56 discriminator 5 view .LVU153
 690              		.loc 1 150 4 discriminator 5 view .LVU154
 691 0050 1B68     		ldr	r3, [r3]
 692 0052 DE60     		str	r6, [r3, #12]
 693              		.loc 1 150 46 discriminator 5 view .LVU155
 694              		.loc 1 151 4 discriminator 5 view .LVU156
 695 0054 E368     		ldr	r3, [r4, #12]
 696 0056 1A68     		ldr	r2, [r3]
 697 0058 1561     		str	r5, [r2, #16]
 698              		.loc 1 151 46 discriminator 5 view .LVU157
 699              		.loc 1 152 4 discriminator 5 view .LVU158
 700 005a 1B68     		ldr	r3, [r3]
 701 005c BF08     		lsrs	r7, r7, #2
 702              	.LVL40:
 703              		.loc 1 152 4 is_stmt 0 discriminator 5 view .LVU159
 704 005e 5F60     		str	r7, [r3, #4]
 705              		.loc 1 152 65 is_stmt 1 discriminator 5 view .LVU160
 706              		.loc 1 154 4 discriminator 5 view .LVU161
 707              		.loc 1 155 20 is_stmt 0 discriminator 5 view .LVU162
 708 0060 2369     		ldr	r3, [r4, #16]
 709              		.loc 1 154 6 discriminator 5 view .LVU163
 710 0062 4DB3     		cbz	r5, .L79
 711              		.loc 1 157 5 is_stmt 1 view .LVU164
 712              		.loc 1 157 20 is_stmt 0 view .LVU165
 713 0064 43F48023 		orr	r3, r3, #262144
 714              	.L70:
 715              		.loc 1 159 4 view .LVU166
 716 0068 E268     		ldr	r2, [r4, #12]
 717 006a 2361     		str	r3, [r4, #16]
 718              		.loc 1 159 4 is_stmt 1 view .LVU167
 719 006c 1168     		ldr	r1, [r2]
 720              		.loc 1 163 4 is_stmt 0 view .LVU168
 721 006e 184A     		ldr	r2, .L80+12
 722              		.loc 1 159 4 view .LVU169
 723 0070 0B60     		str	r3, [r1]
 724              		.loc 1 159 51 is_stmt 1 view .LVU170
 725              		.loc 1 160 4 view .LVU171
 726 0072 E368     		ldr	r3, [r4, #12]
 727 0074 1968     		ldr	r1, [r3]
 728 0076 0B68     		ldr	r3, [r1]
 729 0078 43F00103 		orr	r3, r3, #1
 730 007c 0B60     		str	r3, [r1]
 731              		.loc 1 160 34 view .LVU172
 732              		.loc 1 163 4 view .LVU173
 733 007e 536B     		ldr	r3, [r2, #52]
 734 0080 43F00103 		orr	r3, r3, #1
 735 0084 5363     		str	r3, [r2, #52]
 736              		.loc 1 163 4 view .LVU174
 737              		.loc 1 163 24 view .LVU175
 738              		.loc 1 164 4 view .LVU176
 739 0086 0B21     		movs	r1, #11
 740 0088 4E20     		movs	r0, #78
 741 008a FFF7FEFF 		bl	nvicEnableVector
ARM GAS  /tmp/ccb7mubE.s 			page 14


 742              	.LVL41:
 743              		.loc 1 166 4 view .LVU177
 744              		.loc 1 170 37 is_stmt 0 view .LVU178
 745 008e D4E90113 		ldrd	r1, r3, [r4, #4]
 746              		.loc 1 166 21 view .LVU179
 747 0092 DA68     		ldr	r2, [r3, #12]
 748 0094 42F00102 		orr	r2, r2, #1
 749 0098 DA60     		str	r2, [r3, #12]
 750              		.loc 1 168 4 is_stmt 1 view .LVU180
 751              		.loc 1 168 21 is_stmt 0 view .LVU181
 752 009a DA68     		ldr	r2, [r3, #12]
 753 009c 42F00202 		orr	r2, r2, #2
 754 00a0 DA60     		str	r2, [r3, #12]
 755              		.loc 1 170 4 is_stmt 1 view .LVU182
 756              		.loc 1 170 42 is_stmt 0 view .LVU183
 757 00a2 CA68     		ldr	r2, [r1, #12]
 758 00a4 22F48042 		bic	r2, r2, #16384
 759 00a8 22F00102 		bic	r2, r2, #1
 760              		.loc 1 170 21 view .LVU184
 761 00ac 1A60     		str	r2, [r3]
 762              	.LBE57:
 763              		.loc 1 174 1 view .LVU185
 764 00ae B1E7     		b	.L66
 765              	.LVL42:
 766              	.L78:
 767              	.LBB58:
 768              		.loc 1 147 4 is_stmt 1 discriminator 3 view .LVU186
 769 00b0 0848     		ldr	r0, .L80+16
 770              	.LVL43:
 771              		.loc 1 147 4 is_stmt 0 discriminator 3 view .LVU187
 772 00b2 FFF7FEFF 		bl	chSysHalt
 773              	.LVL44:
 774 00b6 C2E7     		b	.L68
 775              	.LVL45:
 776              	.L79:
 777              		.loc 1 155 5 is_stmt 1 view .LVU188
 778              		.loc 1 155 20 is_stmt 0 view .LVU189
 779 00b8 23F48023 		bic	r3, r3, #262144
 780 00bc D4E7     		b	.L70
 781              	.LVL46:
 782              	.L77:
 783              		.loc 1 155 20 view .LVU190
 784              	.LBE58:
 785              		.loc 1 174 1 view .LVU191
 786 00be FFF7FEFF 		bl	__stack_chk_fail
 787              	.LVL47:
 788              	.L81:
 789 00c2 00BF     		.align	2
 790              	.L80:
 791 00c4 00000000 		.word	.LC4
 792 00c8 00000000 		.word	.LANCHOR0
 793 00cc 00000000 		.word	dcmi_lld_serve_dma_rx_interrupt
 794 00d0 00380240 		.word	1073887232
 795 00d4 00000000 		.word	.LANCHOR1
 796              		.cfi_endproc
 797              	.LFE260:
 798              		.size	dcmi_lld_prepare, .-dcmi_lld_prepare
ARM GAS  /tmp/ccb7mubE.s 			page 15


 799              		.section	.rodata.dcmi_lld_unprepare.cst4,"aM",%progbits,4
 800              		.align	2
 801              	.LC5:
 802 0000 00000000 		.word	__stack_chk_guard
 803              		.section	.text.dcmi_lld_unprepare,"ax",%progbits
 804              		.align	1
 805              		.p2align 4,,15
 806              		.global	dcmi_lld_unprepare
 807              		.syntax unified
 808              		.thumb
 809              		.thumb_func
 810              		.fpu fpv4-sp-d16
 811              		.type	dcmi_lld_unprepare, %function
 812              	dcmi_lld_unprepare:
 813              	.LVL48:
 814              	.LFB261:
 815              		.loc 1 183 44 is_stmt 1 view -0
 816              		.cfi_startproc
 817              		@ args = 0, pretend = 0, frame = 8
 818              		@ frame_needed = 0, uses_anonymous_args = 0
 819              		.loc 1 183 44 is_stmt 0 view .LVU193
 820 0000 10B5     		push	{r4, lr}
 821              		.cfi_def_cfa_offset 8
 822              		.cfi_offset 4, -8
 823              		.cfi_offset 14, -4
 824 0002 1A4B     		ldr	r3, .L89
 825 0004 82B0     		sub	sp, sp, #8
 826              		.cfi_def_cfa_offset 16
 827              		.loc 1 183 44 view .LVU194
 828 0006 1B68     		ldr	r3, [r3]
 829 0008 0193     		str	r3, [sp, #4]
 830 000a 4FF00003 		mov	r3,#0
 831              		.loc 1 185 2 is_stmt 1 view .LVU195
 832              		.loc 1 185 4 is_stmt 0 view .LVU196
 833 000e 0378     		ldrb	r3, [r0]	@ zero_extendqisi2
 834 0010 022B     		cmp	r3, #2
 835 0012 06D0     		beq	.L88
 836              	.L82:
 837              		.loc 1 196 1 view .LVU197
 838 0014 154B     		ldr	r3, .L89
 839 0016 1A68     		ldr	r2, [r3]
 840 0018 019B     		ldr	r3, [sp, #4]
 841 001a 5A40     		eors	r2, r3, r2
 842 001c 24D1     		bne	.L87
 843 001e 02B0     		add	sp, sp, #8
 844              		.cfi_remember_state
 845              		.cfi_def_cfa_offset 8
 846              		@ sp needed
 847 0020 10BD     		pop	{r4, pc}
 848              	.L88:
 849              		.cfi_restore_state
 850              		.loc 1 186 5 view .LVU198
 851 0022 134B     		ldr	r3, .L89+4
 852 0024 9842     		cmp	r0, r3
 853 0026 0446     		mov	r4, r0
 854              		.loc 1 186 3 is_stmt 1 view .LVU199
 855              		.loc 1 186 5 is_stmt 0 view .LVU200
ARM GAS  /tmp/ccb7mubE.s 			page 16


 856 0028 F4D1     		bne	.L82
 857              		.loc 1 188 4 is_stmt 1 view .LVU201
 858              		.loc 1 188 9 is_stmt 0 view .LVU202
 859 002a 8168     		ldr	r1, [r0, #8]
 860              		.loc 1 190 4 view .LVU203
 861 002c 114A     		ldr	r2, .L89+8
 862              		.loc 1 188 20 view .LVU204
 863 002e 0B68     		ldr	r3, [r1]
 864 0030 23F48043 		bic	r3, r3, #16384
 865 0034 23F00103 		bic	r3, r3, #1
 866 0038 0B60     		str	r3, [r1]
 867              		.loc 1 189 4 is_stmt 1 view .LVU205
 868              		.loc 1 189 9 is_stmt 0 view .LVU206
 869 003a 8168     		ldr	r1, [r0, #8]
 870              		.loc 1 189 21 view .LVU207
 871 003c CB68     		ldr	r3, [r1, #12]
 872 003e 23F00F03 		bic	r3, r3, #15
 873 0042 CB60     		str	r3, [r1, #12]
 874              		.loc 1 190 4 is_stmt 1 view .LVU208
 875 0044 536B     		ldr	r3, [r2, #52]
 876 0046 23F00103 		bic	r3, r3, #1
 877 004a 5363     		str	r3, [r2, #52]
 878              		.loc 1 190 4 view .LVU209
 879              		.loc 1 190 25 view .LVU210
 880              		.loc 1 191 4 view .LVU211
 881 004c 4E20     		movs	r0, #78
 882              	.LVL49:
 883              		.loc 1 191 4 is_stmt 0 view .LVU212
 884 004e FFF7FEFF 		bl	nvicDisableVector
 885              	.LVL50:
 886              		.loc 1 193 4 is_stmt 1 view .LVU213
 887 0052 064B     		ldr	r3, .L89
 888 0054 1A68     		ldr	r2, [r3]
 889 0056 019B     		ldr	r3, [sp, #4]
 890 0058 5A40     		eors	r2, r3, r2
 891 005a 05D1     		bne	.L87
 892 005c E068     		ldr	r0, [r4, #12]
 893              		.loc 1 196 1 is_stmt 0 view .LVU214
 894 005e 02B0     		add	sp, sp, #8
 895              		.cfi_remember_state
 896              		.cfi_def_cfa_offset 8
 897              		@ sp needed
 898 0060 BDE81040 		pop	{r4, lr}
 899              		.cfi_restore 14
 900              		.cfi_restore 4
 901              		.cfi_def_cfa_offset 0
 902              	.LVL51:
 903              		.loc 1 193 4 view .LVU215
 904 0064 FFF7FEBF 		b	dmaStreamRelease
 905              	.LVL52:
 906              	.L87:
 907              		.cfi_restore_state
 908              		.loc 1 196 1 view .LVU216
 909 0068 FFF7FEFF 		bl	__stack_chk_fail
 910              	.LVL53:
 911              	.L90:
 912              		.align	2
ARM GAS  /tmp/ccb7mubE.s 			page 17


 913              	.L89:
 914 006c 00000000 		.word	.LC5
 915 0070 00000000 		.word	.LANCHOR0
 916 0074 00380240 		.word	1073887232
 917              		.cfi_endproc
 918              	.LFE261:
 919              		.size	dcmi_lld_unprepare, .-dcmi_lld_unprepare
 920              		.section	.rodata.dcmi_lld_start_oneshot.cst4,"aM",%progbits,4
 921              		.align	2
 922              	.LC6:
 923 0000 00000000 		.word	__stack_chk_guard
 924              		.section	.text.dcmi_lld_start_oneshot,"ax",%progbits
 925              		.align	1
 926              		.p2align 4,,15
 927              		.global	dcmi_lld_start_oneshot
 928              		.syntax unified
 929              		.thumb
 930              		.thumb_func
 931              		.fpu fpv4-sp-d16
 932              		.type	dcmi_lld_start_oneshot, %function
 933              	dcmi_lld_start_oneshot:
 934              	.LVL54:
 935              	.LFB262:
 936              		.loc 1 205 48 is_stmt 1 view -0
 937              		.cfi_startproc
 938              		@ args = 0, pretend = 0, frame = 8
 939              		@ frame_needed = 0, uses_anonymous_args = 0
 940              		.loc 1 205 48 is_stmt 0 view .LVU218
 941 0000 00B5     		push	{lr}
 942              		.cfi_def_cfa_offset 4
 943              		.cfi_offset 14, -4
 944 0002 114B     		ldr	r3, .L96
 945 0004 83B0     		sub	sp, sp, #12
 946              		.cfi_def_cfa_offset 16
 947              		.loc 1 205 48 view .LVU219
 948 0006 1B68     		ldr	r3, [r3]
 949 0008 0193     		str	r3, [sp, #4]
 950 000a 4FF00003 		mov	r3,#0
 951              		.loc 1 206 2 is_stmt 1 view .LVU220
 952              		.loc 1 206 4 is_stmt 0 view .LVU221
 953 000e 0378     		ldrb	r3, [r0]	@ zero_extendqisi2
 954 0010 022B     		cmp	r3, #2
 955 0012 0ED1     		bne	.L91
 956              		.loc 1 207 3 is_stmt 1 view .LVU222
 957              		.loc 1 207 8 is_stmt 0 view .LVU223
 958 0014 8268     		ldr	r2, [r0, #8]
 959              		.loc 1 207 19 view .LVU224
 960 0016 1368     		ldr	r3, [r2]
 961 0018 43F00203 		orr	r3, r3, #2
 962 001c 1360     		str	r3, [r2]
 963              		.loc 1 208 3 is_stmt 1 view .LVU225
 964              		.loc 1 208 8 is_stmt 0 view .LVU226
 965 001e 8268     		ldr	r2, [r0, #8]
 966              		.loc 1 208 19 view .LVU227
 967 0020 1368     		ldr	r3, [r2]
 968 0022 43F48043 		orr	r3, r3, #16384
 969 0026 1360     		str	r3, [r2]
ARM GAS  /tmp/ccb7mubE.s 			page 18


 970              		.loc 1 209 3 is_stmt 1 view .LVU228
 971              		.loc 1 209 8 is_stmt 0 view .LVU229
 972 0028 8268     		ldr	r2, [r0, #8]
 973              		.loc 1 209 19 view .LVU230
 974 002a 1368     		ldr	r3, [r2]
 975 002c 43F00103 		orr	r3, r3, #1
 976 0030 1360     		str	r3, [r2]
 977              	.L91:
 978              		.loc 1 211 1 view .LVU231
 979 0032 054B     		ldr	r3, .L96
 980 0034 1A68     		ldr	r2, [r3]
 981 0036 019B     		ldr	r3, [sp, #4]
 982 0038 5A40     		eors	r2, r3, r2
 983 003a 02D1     		bne	.L95
 984 003c 03B0     		add	sp, sp, #12
 985              		.cfi_remember_state
 986              		.cfi_def_cfa_offset 4
 987              		@ sp needed
 988 003e 5DF804FB 		ldr	pc, [sp], #4
 989              	.L95:
 990              		.cfi_restore_state
 991 0042 FFF7FEFF 		bl	__stack_chk_fail
 992              	.LVL55:
 993              	.L97:
 994              		.loc 1 211 1 view .LVU232
 995 0046 00BF     		.align	2
 996              	.L96:
 997 0048 00000000 		.word	.LC6
 998              		.cfi_endproc
 999              	.LFE262:
 1000              		.size	dcmi_lld_start_oneshot, .-dcmi_lld_start_oneshot
 1001              		.section	.rodata.dcmi_lld_start_stream.cst4,"aM",%progbits,4
 1002              		.align	2
 1003              	.LC7:
 1004 0000 00000000 		.word	__stack_chk_guard
 1005              		.section	.text.dcmi_lld_start_stream,"ax",%progbits
 1006              		.align	1
 1007              		.p2align 4,,15
 1008              		.global	dcmi_lld_start_stream
 1009              		.syntax unified
 1010              		.thumb
 1011              		.thumb_func
 1012              		.fpu fpv4-sp-d16
 1013              		.type	dcmi_lld_start_stream, %function
 1014              	dcmi_lld_start_stream:
 1015              	.LVL56:
 1016              	.LFB263:
 1017              		.loc 1 220 47 is_stmt 1 view -0
 1018              		.cfi_startproc
 1019              		@ args = 0, pretend = 0, frame = 8
 1020              		@ frame_needed = 0, uses_anonymous_args = 0
 1021              		.loc 1 220 47 is_stmt 0 view .LVU234
 1022 0000 00B5     		push	{lr}
 1023              		.cfi_def_cfa_offset 4
 1024              		.cfi_offset 14, -4
 1025 0002 114B     		ldr	r3, .L103
 1026 0004 83B0     		sub	sp, sp, #12
ARM GAS  /tmp/ccb7mubE.s 			page 19


 1027              		.cfi_def_cfa_offset 16
 1028              		.loc 1 220 47 view .LVU235
 1029 0006 1B68     		ldr	r3, [r3]
 1030 0008 0193     		str	r3, [sp, #4]
 1031 000a 4FF00003 		mov	r3,#0
 1032              		.loc 1 221 2 is_stmt 1 view .LVU236
 1033              		.loc 1 221 4 is_stmt 0 view .LVU237
 1034 000e 0378     		ldrb	r3, [r0]	@ zero_extendqisi2
 1035 0010 022B     		cmp	r3, #2
 1036 0012 0ED1     		bne	.L98
 1037              		.loc 1 222 3 is_stmt 1 view .LVU238
 1038              		.loc 1 222 8 is_stmt 0 view .LVU239
 1039 0014 8268     		ldr	r2, [r0, #8]
 1040              		.loc 1 222 19 view .LVU240
 1041 0016 1368     		ldr	r3, [r2]
 1042 0018 23F00203 		bic	r3, r3, #2
 1043 001c 1360     		str	r3, [r2]
 1044              		.loc 1 223 3 is_stmt 1 view .LVU241
 1045              		.loc 1 223 8 is_stmt 0 view .LVU242
 1046 001e 8268     		ldr	r2, [r0, #8]
 1047              		.loc 1 223 19 view .LVU243
 1048 0020 1368     		ldr	r3, [r2]
 1049 0022 43F48043 		orr	r3, r3, #16384
 1050 0026 1360     		str	r3, [r2]
 1051              		.loc 1 224 3 is_stmt 1 view .LVU244
 1052              		.loc 1 224 8 is_stmt 0 view .LVU245
 1053 0028 8268     		ldr	r2, [r0, #8]
 1054              		.loc 1 224 19 view .LVU246
 1055 002a 1368     		ldr	r3, [r2]
 1056 002c 43F00103 		orr	r3, r3, #1
 1057 0030 1360     		str	r3, [r2]
 1058              	.L98:
 1059              		.loc 1 226 1 view .LVU247
 1060 0032 054B     		ldr	r3, .L103
 1061 0034 1A68     		ldr	r2, [r3]
 1062 0036 019B     		ldr	r3, [sp, #4]
 1063 0038 5A40     		eors	r2, r3, r2
 1064 003a 02D1     		bne	.L102
 1065 003c 03B0     		add	sp, sp, #12
 1066              		.cfi_remember_state
 1067              		.cfi_def_cfa_offset 4
 1068              		@ sp needed
 1069 003e 5DF804FB 		ldr	pc, [sp], #4
 1070              	.L102:
 1071              		.cfi_restore_state
 1072 0042 FFF7FEFF 		bl	__stack_chk_fail
 1073              	.LVL57:
 1074              	.L104:
 1075              		.loc 1 226 1 view .LVU248
 1076 0046 00BF     		.align	2
 1077              	.L103:
 1078 0048 00000000 		.word	.LC7
 1079              		.cfi_endproc
 1080              	.LFE263:
 1081              		.size	dcmi_lld_start_stream, .-dcmi_lld_start_stream
 1082              		.section	.rodata.dcmi_lld_stop_stream.cst4,"aM",%progbits,4
 1083              		.align	2
ARM GAS  /tmp/ccb7mubE.s 			page 20


 1084              	.LC8:
 1085 0000 00000000 		.word	__stack_chk_guard
 1086              		.section	.text.dcmi_lld_stop_stream,"ax",%progbits
 1087              		.align	1
 1088              		.p2align 4,,15
 1089              		.global	dcmi_lld_stop_stream
 1090              		.syntax unified
 1091              		.thumb
 1092              		.thumb_func
 1093              		.fpu fpv4-sp-d16
 1094              		.type	dcmi_lld_stop_stream, %function
 1095              	dcmi_lld_stop_stream:
 1096              	.LVL58:
 1097              	.LFB264:
 1098              		.loc 1 240 47 is_stmt 1 view -0
 1099              		.cfi_startproc
 1100              		@ args = 0, pretend = 0, frame = 8
 1101              		@ frame_needed = 0, uses_anonymous_args = 0
 1102              		.loc 1 240 47 is_stmt 0 view .LVU250
 1103 0000 00B5     		push	{lr}
 1104              		.cfi_def_cfa_offset 4
 1105              		.cfi_offset 14, -4
 1106 0002 0E4B     		ldr	r3, .L112
 1107 0004 83B0     		sub	sp, sp, #12
 1108              		.cfi_def_cfa_offset 16
 1109              		.loc 1 240 47 view .LVU251
 1110 0006 1B68     		ldr	r3, [r3]
 1111 0008 0193     		str	r3, [sp, #4]
 1112 000a 4FF00003 		mov	r3,#0
 1113              		.loc 1 241 5 is_stmt 1 view .LVU252
 1114              		.loc 1 242 2 view .LVU253
 1115              		.loc 1 242 4 is_stmt 0 view .LVU254
 1116 000e 0378     		ldrb	r3, [r0]	@ zero_extendqisi2
 1117 0010 032B     		cmp	r3, #3
 1118 0012 0A4B     		ldr	r3, .L112
 1119 0014 07D0     		beq	.L111
 1120              		.loc 1 260 1 view .LVU255
 1121 0016 1A68     		ldr	r2, [r3]
 1122 0018 019B     		ldr	r3, [sp, #4]
 1123 001a 5A40     		eors	r2, r3, r2
 1124 001c 0CD1     		bne	.L110
 1125 001e 0020     		movs	r0, #0
 1126              	.LVL59:
 1127              		.loc 1 260 1 view .LVU256
 1128 0020 03B0     		add	sp, sp, #12
 1129              		.cfi_remember_state
 1130              		.cfi_def_cfa_offset 4
 1131              		@ sp needed
 1132 0022 5DF804FB 		ldr	pc, [sp], #4
 1133              	.LVL60:
 1134              	.L111:
 1135              		.cfi_restore_state
 1136              		.loc 1 260 1 view .LVU257
 1137 0026 1A68     		ldr	r2, [r3]
 1138 0028 019B     		ldr	r3, [sp, #4]
 1139 002a 5A40     		eors	r2, r3, r2
 1140 002c 04D1     		bne	.L110
ARM GAS  /tmp/ccb7mubE.s 			page 21


 1141 002e 03B0     		add	sp, sp, #12
 1142              		.cfi_remember_state
 1143              		.cfi_def_cfa_offset 4
 1144              		@ sp needed
 1145 0030 5DF804EB 		ldr	lr, [sp], #4
 1146              		.cfi_restore 14
 1147              		.cfi_def_cfa_offset 0
 1148 0034 FFF7FEBF 		b	dcmi_lld_stop_stream.part.0
 1149              	.LVL61:
 1150              	.L110:
 1151              		.cfi_restore_state
 1152              		.loc 1 260 1 view .LVU258
 1153 0038 FFF7FEFF 		bl	__stack_chk_fail
 1154              	.LVL62:
 1155              	.L113:
 1156              		.loc 1 260 1 view .LVU259
 1157              		.align	2
 1158              	.L112:
 1159 003c 00000000 		.word	.LC8
 1160              		.cfi_endproc
 1161              	.LFE264:
 1162              		.size	dcmi_lld_stop_stream, .-dcmi_lld_stop_stream
 1163              		.global	DCMID
 1164              		.section	.bss.DCMID,"aw",%nobits
 1165              		.align	2
 1166              		.set	.LANCHOR0,. + 0
 1167              		.type	DCMID, %object
 1168              		.size	DCMID, 20
 1169              	DCMID:
 1170 0000 00000000 		.space	20
 1170      00000000 
 1170      00000000 
 1170      00000000 
 1170      00000000 
 1171              		.section	.rodata.__func__.10049,"a"
 1172              		.align	2
 1173              		.set	.LANCHOR1,. + 0
 1174              		.type	__func__.10049, %object
 1175              		.size	__func__.10049, 17
 1176              	__func__.10049:
 1177 0000 64636D69 		.ascii	"dcmi_lld_prepare\000"
 1177      5F6C6C64 
 1177      5F707265 
 1177      70617265 
 1177      00
 1178              		.text
 1179              	.Letext0:
 1180              		.file 4 "/usr/lib/gcc/arm-none-eabi/9.2.1/include/stddef.h"
 1181              		.file 5 "/usr/lib/gcc/arm-none-eabi/9.2.1/include/stdint.h"
 1182              		.file 6 ".//ChibiOS//os/rt/ports/ARMCMx/compilers/GCC/chtypes.h"
 1183              		.file 7 ".//ChibiOS//os/rt/include/chsystypes.h"
 1184              		.file 8 ".//ChibiOS//os/rt/include/chschd.h"
 1185              		.file 9 ".//ChibiOS//os/ext/CMSIS/include/core_cm4.h"
 1186              		.file 10 ".//ChibiOS//os/ext/CMSIS/ST/system_stm32f4xx.h"
 1187              		.file 11 ".//ChibiOS//os/ext/CMSIS/ST/stm32f407xx.h"
 1188              		.file 12 ".//ChibiOS//os/rt/ports/ARMCMx/chcore.h"
 1189              		.file 13 ".//ChibiOS//os/rt/ports/ARMCMx/chcore_v7m.h"
ARM GAS  /tmp/ccb7mubE.s 			page 22


 1190              		.file 14 ".//ChibiOS//os/rt/include/chdebug.h"
 1191              		.file 15 ".//ChibiOS//os/rt/include/chtm.h"
 1192              		.file 16 ".//ChibiOS//os/rt/include/chstats.h"
 1193              		.file 17 ".//ChibiOS//os/rt/include/chsem.h"
 1194              		.file 18 ".//ChibiOS//os/rt/include/chmtx.h"
 1195              		.file 19 ".//ChibiOS//os/rt/include/chregistry.h"
 1196              		.file 20 ".//ChibiOS//os/rt/include/chevents.h"
 1197              		.file 21 ".//ChibiOS//os/rt/include/chqueues.h"
 1198              		.file 22 ".//ChibiOS//os/hal/ports/STM32/STM32F4xx/stm32_dma.h"
 1199              		.file 23 ".//ChibiOS//os/hal/include/hal_ioblock.h"
 1200              		.file 24 ".//ChibiOS//os/hal/ports/STM32/LLD/GPIOv2/pal_lld.h"
 1201              		.file 25 ".//ChibiOS//os/hal/include/adc.h"
 1202              		.file 26 ".//ChibiOS//os/hal/ports/STM32/STM32F4xx/adc_lld.h"
 1203              		.file 27 ".//ChibiOS//os/hal/include/can.h"
 1204              		.file 28 ".//ChibiOS//os/hal/ports/STM32/LLD/can_lld.h"
 1205              		.file 29 ".//ChibiOS//os/hal/include/dac.h"
 1206              		.file 30 ".//ChibiOS//os/hal/ports/STM32/LLD/DACv1/dac_lld.h"
 1207              		.file 31 ".//ChibiOS//os/hal/include/ext.h"
 1208              		.file 32 ".//ChibiOS//os/hal/ports/STM32/LLD/ext_lld.h"
 1209              		.file 33 ".//ChibiOS//os/hal/include/gpt.h"
 1210              		.file 34 ".//ChibiOS//os/hal/ports/STM32/LLD/TIMv1/gpt_lld.h"
 1211              		.file 35 ".//ChibiOS//os/hal/ports/STM32/LLD/TIMv1/stm32_tim.h"
 1212              		.file 36 ".//ChibiOS//os/hal/include/i2c.h"
 1213              		.file 37 ".//ChibiOS//os/hal/ports/STM32/LLD/I2Cv1/i2c_lld.h"
 1214              		.file 38 ".//ChibiOS//os/hal/include/i2s.h"
 1215              		.file 39 ".//ChibiOS//os/hal/ports/STM32/LLD/SPIv1/i2s_lld.h"
 1216              		.file 40 ".//ChibiOS//os/hal/include/pwm.h"
 1217              		.file 41 ".//ChibiOS//os/hal/ports/STM32/LLD/TIMv1/pwm_lld.h"
 1218              		.file 42 ".//ChibiOS//os/hal/include/serial.h"
 1219              		.file 43 ".//ChibiOS//os/hal/ports/STM32/LLD/USARTv1/serial_lld.h"
 1220              		.file 44 ".//ChibiOS//os/hal/include/sdc.h"
 1221              		.file 45 ".//ChibiOS//os/hal/ports/STM32/LLD/sdc_lld.h"
 1222              		.file 46 ".//ChibiOS//os/hal/include/spi.h"
 1223              		.file 47 ".//ChibiOS//os/hal/ports/STM32/LLD/SPIv1/spi_lld.h"
 1224              		.file 48 ".//ChibiOS//os/hal/include/usb.h"
 1225              		.file 49 ".//ChibiOS//os/hal/ports/STM32/LLD/OTGv1/usb_lld.h"
 1226              		.file 50 ".//ChibiOS//os/hal/ports/STM32/LLD/OTGv1/stm32_otg.h"
 1227              		.file 51 ".//ChibiOS_ext/os/hal/ports/STM32/STM32F4xx/dcmi_lld.h"
 1228              		.file 52 ".//ChibiOS//os/hal/ports/common/ARMCMx/nvic.h"
 1229              		.file 53 ".//ChibiOS//os/rt/include/chsys.h"
 1230              		.file 54 ".//ChibiOS_ext/os/hal/include/dcmi.h"