ARM GAS  /tmp/ccpG2h7U.s 			page 1


   1              		.cpu cortex-m4
   2              		.eabi_attribute 27, 1
   3              		.eabi_attribute 28, 1
   4              		.eabi_attribute 20, 1
   5              		.eabi_attribute 21, 1
   6              		.eabi_attribute 23, 3
   7              		.eabi_attribute 24, 1
   8              		.eabi_attribute 25, 1
   9              		.eabi_attribute 26, 1
  10              		.eabi_attribute 30, 2
  11              		.eabi_attribute 34, 1
  12              		.eabi_attribute 18, 4
  13              		.file	"e_acc.c"
  14              		.text
  15              	.Ltext0:
  16              		.cfi_sections	.debug_frame
  17              		.section	.rodata.e_get_acc.cst4,"aM",%progbits,4
  18              		.align	2
  19              	.LC0:
  20 0000 00000000 		.word	__stack_chk_guard
  21              		.section	.text.e_get_acc,"ax",%progbits
  22              		.align	1
  23              		.p2align 4,,15
  24              		.global	e_get_acc
  25              		.arch armv7e-m
  26              		.syntax unified
  27              		.thumb
  28              		.thumb_func
  29              		.fpu fpv4-sp-d16
  30              		.type	e_get_acc, %function
  31              	e_get_acc:
  32              	.LVL0:
  33              	.LFB256:
  34              		.file 1 ".//src/epuck1x/a_d/advance_ad_scan/e_acc.c"
  35              		.loc 1 17 36 view -0
  36              		.cfi_startproc
  37              		@ args = 0, pretend = 0, frame = 8
  38              		@ frame_needed = 0, uses_anonymous_args = 0
  39              		.loc 1 17 36 is_stmt 0 view .LVU1
  40 0000 30B5     		push	{r4, r5, lr}
  41              		.cfi_def_cfa_offset 12
  42              		.cfi_offset 4, -12
  43              		.cfi_offset 5, -8
  44              		.cfi_offset 14, -4
  45 0002 184B     		ldr	r3, .L11
  46 0004 83B0     		sub	sp, sp, #12
  47              		.cfi_def_cfa_offset 24
  48              		.loc 1 17 36 view .LVU2
  49 0006 1B68     		ldr	r3, [r3]
  50 0008 0193     		str	r3, [sp, #4]
  51 000a 4FF00003 		mov	r3,#0
  52              		.loc 1 21 2 is_stmt 1 view .LVU3
  53              	.LVL1:
  54              		.loc 1 22 2 view .LVU4
  55              		.loc 1 22 4 is_stmt 0 view .LVU5
  56 000e 0546     		mov	r5, r0
  57 0010 F0B1     		cbz	r0, .L8
ARM GAS  /tmp/ccpG2h7U.s 			page 2


  58              		.loc 1 24 9 is_stmt 1 view .LVU6
  59              		.loc 1 24 11 is_stmt 0 view .LVU7
  60 0012 0128     		cmp	r0, #1
  61 0014 14D0     		beq	.L9
  62              		.loc 1 27 3 is_stmt 1 view .LVU8
  63              		.loc 1 27 15 is_stmt 0 view .LVU9
  64 0016 C5B2     		uxtb	r5, r0
  65 0018 2846     		mov	r0, r5
  66              	.LVL2:
  67              		.loc 1 27 15 view .LVU10
  68 001a FFF7FEFF 		bl	get_acc
  69              	.LVL3:
  70 001e 0446     		mov	r4, r0
  71              		.loc 1 27 33 view .LVU11
  72 0020 2846     		mov	r0, r5
  73 0022 FFF7FEFF 		bl	get_acc_offset
  74              	.LVL4:
  75              		.loc 1 27 31 view .LVU12
  76 0026 201A     		subs	r0, r4, r0
  77              		.loc 1 27 13 view .LVU13
  78 0028 A0F58040 		sub	r0, r0, #16384
  79              	.LVL5:
  80              	.L3:
  81              		.loc 1 29 2 is_stmt 1 view .LVU14
  82              		.loc 1 30 2 view .LVU15
  83              		.loc 1 29 24 is_stmt 0 view .LVU16
  84 002c 0311     		asrs	r3, r0, #4
  85              		.loc 1 30 9 view .LVU17
  86 002e C3EBA010 		rsb	r0, r3, r0, asr #6
  87              	.LVL6:
  88              		.loc 1 32 1 view .LVU18
  89 0032 0C4B     		ldr	r3, .L11
  90 0034 1A68     		ldr	r2, [r3]
  91 0036 019B     		ldr	r3, [sp, #4]
  92 0038 5A40     		eors	r2, r3, r2
  93 003a 11D1     		bne	.L10
  94 003c 03B0     		add	sp, sp, #12
  95              		.cfi_remember_state
  96              		.cfi_def_cfa_offset 12
  97              		@ sp needed
  98 003e 30BD     		pop	{r4, r5, pc}
  99              	.LVL7:
 100              	.L9:
 101              		.cfi_restore_state
 102              		.loc 1 25 3 is_stmt 1 view .LVU19
 103              		.loc 1 25 35 is_stmt 0 view .LVU20
 104 0040 FFF7FEFF 		bl	get_acc_offset
 105              	.LVL8:
 106              		.loc 1 25 35 view .LVU21
 107 0044 0446     		mov	r4, r0
 108              		.loc 1 25 17 view .LVU22
 109 0046 2846     		mov	r0, r5
 110 0048 FFF7FEFF 		bl	get_acc
 111              	.LVL9:
 112              		.loc 1 25 13 view .LVU23
 113 004c 201A     		subs	r0, r4, r0
 114              	.LVL10:
ARM GAS  /tmp/ccpG2h7U.s 			page 3


 115              		.loc 1 25 13 view .LVU24
 116 004e EDE7     		b	.L3
 117              	.LVL11:
 118              	.L8:
 119              		.loc 1 23 3 is_stmt 1 view .LVU25
 120              		.loc 1 23 15 is_stmt 0 view .LVU26
 121 0050 FFF7FEFF 		bl	get_acc
 122              	.LVL12:
 123              		.loc 1 23 15 view .LVU27
 124 0054 0446     		mov	r4, r0
 125              		.loc 1 23 33 view .LVU28
 126 0056 2846     		mov	r0, r5
 127 0058 FFF7FEFF 		bl	get_acc_offset
 128              	.LVL13:
 129              		.loc 1 23 13 view .LVU29
 130 005c 201A     		subs	r0, r4, r0
 131              	.LVL14:
 132              		.loc 1 23 13 view .LVU30
 133 005e E5E7     		b	.L3
 134              	.LVL15:
 135              	.L10:
 136              		.loc 1 32 1 view .LVU31
 137 0060 FFF7FEFF 		bl	__stack_chk_fail
 138              	.LVL16:
 139              	.L12:
 140              		.align	2
 141              	.L11:
 142 0064 00000000 		.word	.LC0
 143              		.cfi_endproc
 144              	.LFE256:
 145              		.size	e_get_acc, .-e_get_acc
 146              		.section	.rodata.e_get_acc_filtered.cst4,"aM",%progbits,4
 147              		.align	2
 148              	.LC1:
 149 0000 00000000 		.word	__stack_chk_guard
 150              		.section	.text.e_get_acc_filtered,"ax",%progbits
 151              		.align	1
 152              		.p2align 4,,15
 153              		.global	e_get_acc_filtered
 154              		.syntax unified
 155              		.thumb
 156              		.thumb_func
 157              		.fpu fpv4-sp-d16
 158              		.type	e_get_acc_filtered, %function
 159              	e_get_acc_filtered:
 160              	.LVL17:
 161              	.LFB257:
 162              		.loc 1 35 1 is_stmt 1 view -0
 163              		.cfi_startproc
 164              		@ args = 0, pretend = 0, frame = 8
 165              		@ frame_needed = 0, uses_anonymous_args = 0
 166              		.loc 1 35 1 is_stmt 0 view .LVU33
 167 0000 00B5     		push	{lr}
 168              		.cfi_def_cfa_offset 4
 169              		.cfi_offset 14, -4
 170 0002 124B     		ldr	r3, .L22
 171 0004 83B0     		sub	sp, sp, #12
ARM GAS  /tmp/ccpG2h7U.s 			page 4


 172              		.cfi_def_cfa_offset 16
 173              		.loc 1 35 1 view .LVU34
 174 0006 1B68     		ldr	r3, [r3]
 175 0008 0193     		str	r3, [sp, #4]
 176 000a 4FF00003 		mov	r3,#0
 177              		.loc 1 40 2 is_stmt 1 view .LVU35
 178              	.LVL18:
 179              		.loc 1 41 2 view .LVU36
 180              		.loc 1 41 4 is_stmt 0 view .LVU37
 181 000e B0B1     		cbz	r0, .L19
 182              		.loc 1 43 9 is_stmt 1 view .LVU38
 183              		.loc 1 43 11 is_stmt 0 view .LVU39
 184 0010 0128     		cmp	r0, #1
 185              		.loc 1 44 15 view .LVU40
 186 0012 C9B2     		uxtb	r1, r1
 187              	.LVL19:
 188              		.loc 1 43 11 view .LVU41
 189 0014 10D0     		beq	.L20
 190              		.loc 1 46 3 is_stmt 1 view .LVU42
 191              		.loc 1 46 16 is_stmt 0 view .LVU43
 192 0016 C0B2     		uxtb	r0, r0
 193              	.LVL20:
 194              		.loc 1 46 16 view .LVU44
 195 0018 FFF7FEFF 		bl	get_acc_filtered
 196              	.LVL21:
 197              		.loc 1 46 13 view .LVU45
 198 001c 4042     		rsbs	r0, r0, #0
 199              	.LVL22:
 200              	.L15:
 201              		.loc 1 48 2 is_stmt 1 view .LVU46
 202              		.loc 1 48 42 is_stmt 0 view .LVU47
 203 001e 8311     		asrs	r3, r0, #6
 204              		.loc 1 48 30 view .LVU48
 205 0020 C3EB2010 		rsb	r0, r3, r0, asr #4
 206              	.LVL23:
 207              		.loc 1 49 2 is_stmt 1 view .LVU49
 208              		.loc 1 50 1 is_stmt 0 view .LVU50
 209 0024 094B     		ldr	r3, .L22
 210 0026 1A68     		ldr	r2, [r3]
 211 0028 019B     		ldr	r3, [sp, #4]
 212 002a 5A40     		eors	r2, r3, r2
 213              		.loc 1 48 12 view .LVU51
 214 002c 00F50060 		add	r0, r0, #2048
 215              	.LVL24:
 216              		.loc 1 50 1 view .LVU52
 217 0030 0AD1     		bne	.L21
 218 0032 03B0     		add	sp, sp, #12
 219              		.cfi_remember_state
 220              		.cfi_def_cfa_offset 4
 221              		@ sp needed
 222 0034 5DF804FB 		ldr	pc, [sp], #4
 223              	.LVL25:
 224              	.L20:
 225              		.cfi_restore_state
 226              		.loc 1 44 3 is_stmt 1 view .LVU53
 227              		.loc 1 44 15 is_stmt 0 view .LVU54
 228 0038 FFF7FEFF 		bl	get_acc_filtered
ARM GAS  /tmp/ccpG2h7U.s 			page 5


 229              	.LVL26:
 230              		.loc 1 44 15 view .LVU55
 231 003c EFE7     		b	.L15
 232              	.LVL27:
 233              	.L19:
 234              		.loc 1 42 3 is_stmt 1 view .LVU56
 235              		.loc 1 42 16 is_stmt 0 view .LVU57
 236 003e C9B2     		uxtb	r1, r1
 237              	.LVL28:
 238              		.loc 1 42 16 view .LVU58
 239 0040 FFF7FEFF 		bl	get_acc_filtered
 240              	.LVL29:
 241              		.loc 1 42 13 view .LVU59
 242 0044 4042     		rsbs	r0, r0, #0
 243              	.LVL30:
 244              		.loc 1 42 13 view .LVU60
 245 0046 EAE7     		b	.L15
 246              	.L21:
 247              		.loc 1 50 1 view .LVU61
 248 0048 FFF7FEFF 		bl	__stack_chk_fail
 249              	.LVL31:
 250              	.L23:
 251              		.loc 1 50 1 view .LVU62
 252              		.align	2
 253              	.L22:
 254 004c 00000000 		.word	.LC1
 255              		.cfi_endproc
 256              	.LFE257:
 257              		.size	e_get_acc_filtered, .-e_get_acc_filtered
 258              		.section	.rodata.e_acc_calibr.cst4,"aM",%progbits,4
 259              		.align	2
 260              	.LC2:
 261 0000 00000000 		.word	__stack_chk_guard
 262              		.section	.text.e_acc_calibr,"ax",%progbits
 263              		.align	1
 264              		.p2align 4,,15
 265              		.global	e_acc_calibr
 266              		.syntax unified
 267              		.thumb
 268              		.thumb_func
 269              		.fpu fpv4-sp-d16
 270              		.type	e_acc_calibr, %function
 271              	e_acc_calibr:
 272              	.LFB258:
 273              		.loc 1 53 1 is_stmt 1 view -0
 274              		.cfi_startproc
 275              		@ args = 0, pretend = 0, frame = 8
 276              		@ frame_needed = 0, uses_anonymous_args = 0
 277 0000 00B5     		push	{lr}
 278              		.cfi_def_cfa_offset 4
 279              		.cfi_offset 14, -4
 280 0002 094B     		ldr	r3, .L29
 281 0004 83B0     		sub	sp, sp, #12
 282              		.cfi_def_cfa_offset 16
 283              		.loc 1 53 1 is_stmt 0 view .LVU64
 284 0006 1B68     		ldr	r3, [r3]
 285 0008 0193     		str	r3, [sp, #4]
ARM GAS  /tmp/ccpG2h7U.s 			page 6


 286 000a 4FF00003 		mov	r3,#0
 287              		.loc 1 54 2 is_stmt 1 view .LVU65
 288 000e 064B     		ldr	r3, .L29
 289 0010 1A68     		ldr	r2, [r3]
 290 0012 019B     		ldr	r3, [sp, #4]
 291 0014 5A40     		eors	r2, r3, r2
 292 0016 04D1     		bne	.L28
 293              		.loc 1 55 1 is_stmt 0 view .LVU66
 294 0018 03B0     		add	sp, sp, #12
 295              		.cfi_remember_state
 296              		.cfi_def_cfa_offset 4
 297              		@ sp needed
 298 001a 5DF804EB 		ldr	lr, [sp], #4
 299              		.cfi_restore 14
 300              		.cfi_def_cfa_offset 0
 301              		.loc 1 54 2 view .LVU67
 302 001e FFF7FEBF 		b	calibrate_acc
 303              	.LVL32:
 304              	.L28:
 305              		.cfi_restore_state
 306 0022 FFF7FEFF 		bl	__stack_chk_fail
 307              	.LVL33:
 308              	.L30:
 309 0026 00BF     		.align	2
 310              	.L29:
 311 0028 00000000 		.word	.LC2
 312              		.cfi_endproc
 313              	.LFE258:
 314              		.size	e_acc_calibr, .-e_acc_calibr
 315              		.section	.rodata.e_read_acc_spheric.cst4,"aM",%progbits,4
 316              		.align	2
 317              	.LC3:
 318 0000 00000000 		.word	__stack_chk_guard
 319              		.section	.text.e_read_acc_spheric,"ax",%progbits
 320              		.align	1
 321              		.p2align 4,,15
 322              		.global	e_read_acc_spheric
 323              		.syntax unified
 324              		.thumb
 325              		.thumb_func
 326              		.fpu fpv4-sp-d16
 327              		.type	e_read_acc_spheric, %function
 328              	e_read_acc_spheric:
 329              	.LFB259:
 330              		.loc 1 58 1 is_stmt 1 view -0
 331              		.cfi_startproc
 332              		@ args = 0, pretend = 0, frame = 40
 333              		@ frame_needed = 0, uses_anonymous_args = 0
 334 0000 D0B5     		push	{r4, r6, r7, lr}
 335              		.cfi_def_cfa_offset 16
 336              		.cfi_offset 4, -16
 337              		.cfi_offset 6, -12
 338              		.cfi_offset 7, -8
 339              		.cfi_offset 14, -4
 340 0002 2DED028B 		vpush.64	{d8}
 341              		.cfi_def_cfa_offset 24
 342              		.cfi_offset 80, -24
ARM GAS  /tmp/ccpG2h7U.s 			page 7


 343              		.cfi_offset 81, -20
 344 0006 3B4B     		ldr	r3, .L43
 345 0008 8AB0     		sub	sp, sp, #40
 346              		.cfi_def_cfa_offset 64
 347              		.loc 1 61 10 is_stmt 0 view .LVU69
 348 000a 0020     		movs	r0, #0
 349              		.loc 1 58 1 view .LVU70
 350 000c 1B68     		ldr	r3, [r3]
 351 000e 0993     		str	r3, [sp, #36]
 352 0010 4FF00003 		mov	r3,#0
 353              		.loc 1 59 2 is_stmt 1 view .LVU71
 354              		.loc 1 60 2 view .LVU72
 355              		.loc 1 61 2 view .LVU73
 356              		.loc 1 61 10 is_stmt 0 view .LVU74
 357 0014 FFF7FEFF 		bl	e_get_acc
 358              	.LVL34:
 359 0018 0646     		mov	r6, r0
 360              		.loc 1 62 10 view .LVU75
 361 001a 0120     		movs	r0, #1
 362              	.LVL35:
 363              		.loc 1 62 2 is_stmt 1 view .LVU76
 364              		.loc 1 62 10 is_stmt 0 view .LVU77
 365 001c FFF7FEFF 		bl	e_get_acc
 366              	.LVL36:
 367 0020 0746     		mov	r7, r0
 368              	.LVL37:
 369              		.loc 1 63 2 is_stmt 1 view .LVU78
 370              		.loc 1 63 10 is_stmt 0 view .LVU79
 371 0022 0220     		movs	r0, #2
 372              	.LVL38:
 373              		.loc 1 63 10 view .LVU80
 374 0024 FFF7FEFF 		bl	e_get_acc
 375              	.LVL39:
 376              		.loc 1 66 63 view .LVU81
 377 0028 07FB07F4 		mul	r4, r7, r7
 378              	.LVL40:
 379              		.loc 1 66 2 is_stmt 1 view .LVU82
 380              		.loc 1 66 54 is_stmt 0 view .LVU83
 381 002c 06FB0644 		mla	r4, r6, r6, r4
 382              		.loc 1 66 72 view .LVU84
 383 0030 00FB0043 		mla	r3, r0, r0, r4
 384 0034 00EE103A 		vmov	s0, r3	@ int
 385              		.loc 1 66 24 view .LVU85
 386 0038 B8EEC00A 		vcvt.f32.s32	s0, s0
 387 003c B5EE400A 		vcmp.f32	s0, #0
 388 0040 F1EE10FA 		vmrs	APSR_nzcv, FPSCR
 389 0044 F1EEC08A 		vsqrt.f32	s17, s0
 390 0048 46D4     		bmi	.L39
 391              	.LVL41:
 392              	.L32:
 393              		.loc 1 67 2 is_stmt 1 view .LVU86
 394              		.loc 1 67 31 is_stmt 0 view .LVU87
 395 004a 07EE904A 		vmov	s15, r4	@ int
 396 004e B8EEE70A 		vcvt.f32.s32	s0, s15
 397 0052 07EE900A 		vmov	s15, r0	@ int
 398 0056 B5EE400A 		vcmp.f32	s0, #0
 399 005a F1EE10FA 		vmrs	APSR_nzcv, FPSCR
ARM GAS  /tmp/ccpG2h7U.s 			page 8


 400 005e F1EEC00A 		vsqrt.f32	s1, s0
 401 0062 B8EEE78A 		vcvt.f32.s32	s16, s15
 402 0066 3CD4     		bmi	.L40
 403              	.L33:
 404              		.loc 1 67 31 view .LVU88
 405 0068 B0EE480A 		vmov.f32	s0, s16
 406 006c FFF7FEFF 		bl	atan2f
 407              	.LVL42:
 408              		.loc 1 67 29 view .LVU89
 409 0070 9FED218A 		vldr.32	s16, .L43+4
 410 0074 9FED211A 		vldr.32	s2, .L43+8
 411 0078 A0EE481A 		vfms.f32	s2, s0, s16
 412              	.LVL43:
 413              		.loc 1 68 2 is_stmt 1 view .LVU90
 414              		.loc 1 68 5 is_stmt 0 view .LVU91
 415 007c F1EE047A 		vmov.f32	s15, #5.0e+0
 416 0080 B4EEE71A 		vcmpe.f32	s2, s15
 417 0084 F1EE10FA 		vmrs	APSR_nzcv, FPSCR
 418 0088 06D4     		bmi	.L37
 419              		.loc 1 68 27 discriminator 1 view .LVU92
 420 008a DFED1D7A 		vldr.32	s15, .L43+12
 421 008e B4EEE71A 		vcmpe.f32	s2, s15
 422 0092 F1EE10FA 		vmrs	APSR_nzcv, FPSCR
 423 0096 0CDD     		ble	.L41
 424              	.L37:
 425              		.loc 1 69 21 view .LVU93
 426 0098 DFED1A0A 		vldr.32	s1, .L43+16
 427              	.LVL44:
 428              	.L34:
 429              		.loc 1 73 2 is_stmt 1 view .LVU94
 430              		.loc 1 74 1 is_stmt 0 view .LVU95
 431 009c 154B     		ldr	r3, .L43
 432 009e 1A68     		ldr	r2, [r3]
 433 00a0 099B     		ldr	r3, [sp, #36]
 434 00a2 5A40     		eors	r2, r3, r2
 435 00a4 24D1     		bne	.L42
 436 00a6 B0EE680A 		vmov.f32	s0, s17
 437 00aa 0AB0     		add	sp, sp, #40
 438              		.cfi_remember_state
 439              		.cfi_def_cfa_offset 24
 440              		@ sp needed
 441 00ac BDEC028B 		vldm	sp!, {d8}
 442              		.cfi_restore 80
 443              		.cfi_restore 81
 444              		.cfi_def_cfa_offset 16
 445 00b0 D0BD     		pop	{r4, r6, r7, pc}
 446              	.LVL45:
 447              	.L41:
 448              		.cfi_restore_state
 449              		.loc 1 71 3 is_stmt 1 view .LVU96
 450              		.loc 1 71 25 is_stmt 0 view .LVU97
 451 00b2 07EE907A 		vmov	s15, r7	@ int
 452 00b6 F8EEE70A 		vcvt.f32.s32	s1, s15
 453 00ba 07EE906A 		vmov	s15, r6	@ int
 454 00be B8EEE70A 		vcvt.f32.s32	s0, s15
 455 00c2 8DED011A 		vstr.32	s2, [sp, #4]	@ int
 456 00c6 FFF7FEFF 		bl	atan2f
ARM GAS  /tmp/ccpG2h7U.s 			page 9


 457              	.LVL46:
 458              		.loc 1 71 78 view .LVU98
 459 00ca DFED0F0A 		vldr.32	s1, .L43+20
 460 00ce 9DED011A 		vldr.32	s2, [sp, #4]	@ int
 461 00d2 E0EE080A 		vfma.f32	s1, s0, s16
 462              	.LVL47:
 463              		.loc 1 71 78 view .LVU99
 464 00d6 E1E7     		b	.L34
 465              	.LVL48:
 466              	.L39:
 467              		.loc 1 71 78 view .LVU100
 468 00d8 0190     		str	r0, [sp, #4]
 469              		.loc 1 66 24 view .LVU101
 470 00da FFF7FEFF 		bl	sqrtf
 471              	.LVL49:
 472              		.loc 1 66 24 view .LVU102
 473 00de 0198     		ldr	r0, [sp, #4]
 474 00e0 B3E7     		b	.L32
 475              	.LVL50:
 476              	.L40:
 477              		.loc 1 66 24 view .LVU103
 478 00e2 CDED010A 		vstr.32	s1, [sp, #4]	@ int
 479              		.loc 1 67 31 view .LVU104
 480 00e6 FFF7FEFF 		bl	sqrtf
 481              	.LVL51:
 482 00ea DDED010A 		vldr.32	s1, [sp, #4]	@ int
 483 00ee BBE7     		b	.L33
 484              	.LVL52:
 485              	.L42:
 486              		.loc 1 74 1 view .LVU105
 487 00f0 FFF7FEFF 		bl	__stack_chk_fail
 488              	.LVL53:
 489              	.L44:
 490              		.align	2
 491              	.L43:
 492 00f4 00000000 		.word	.LC3
 493 00f8 9C306542 		.word	1113927836
 494 00fc 0000B442 		.word	1119092736
 495 0100 00002043 		.word	1126170624
 496 0104 00000000 		.word	0
 497 0108 00003443 		.word	1127481344
 498              		.cfi_endproc
 499              	.LFE259:
 500              		.size	e_read_acc_spheric, .-e_read_acc_spheric
 501              		.section	.rodata.e_read_inclination.cst4,"aM",%progbits,4
 502              		.align	2
 503              	.LC4:
 504 0000 00000000 		.word	__stack_chk_guard
 505              		.section	.text.e_read_inclination,"ax",%progbits
 506              		.align	1
 507              		.p2align 4,,15
 508              		.global	e_read_inclination
 509              		.syntax unified
 510              		.thumb
 511              		.thumb_func
 512              		.fpu fpv4-sp-d16
 513              		.type	e_read_inclination, %function
ARM GAS  /tmp/ccpG2h7U.s 			page 10


 514              	e_read_inclination:
 515              	.LFB260:
 516              		.loc 1 77 1 is_stmt 1 view -0
 517              		.cfi_startproc
 518              		@ args = 0, pretend = 0, frame = 16
 519              		@ frame_needed = 0, uses_anonymous_args = 0
 520 0000 30B5     		push	{r4, r5, lr}
 521              		.cfi_def_cfa_offset 12
 522              		.cfi_offset 4, -12
 523              		.cfi_offset 5, -8
 524              		.cfi_offset 14, -4
 525 0002 2DED028B 		vpush.64	{d8}
 526              		.cfi_def_cfa_offset 20
 527              		.cfi_offset 80, -20
 528              		.cfi_offset 81, -16
 529 0006 214B     		ldr	r3, .L51
 530 0008 85B0     		sub	sp, sp, #20
 531              		.cfi_def_cfa_offset 40
 532              		.loc 1 80 10 is_stmt 0 view .LVU107
 533 000a 0020     		movs	r0, #0
 534              		.loc 1 77 1 view .LVU108
 535 000c 1B68     		ldr	r3, [r3]
 536 000e 0393     		str	r3, [sp, #12]
 537 0010 4FF00003 		mov	r3,#0
 538              		.loc 1 78 2 is_stmt 1 view .LVU109
 539              		.loc 1 79 2 view .LVU110
 540              		.loc 1 80 2 view .LVU111
 541              		.loc 1 80 10 is_stmt 0 view .LVU112
 542 0014 FFF7FEFF 		bl	e_get_acc
 543              	.LVL54:
 544 0018 0446     		mov	r4, r0
 545              		.loc 1 81 10 view .LVU113
 546 001a 0120     		movs	r0, #1
 547              	.LVL55:
 548              		.loc 1 81 2 is_stmt 1 view .LVU114
 549              		.loc 1 81 10 is_stmt 0 view .LVU115
 550 001c FFF7FEFF 		bl	e_get_acc
 551              	.LVL56:
 552 0020 0546     		mov	r5, r0
 553              	.LVL57:
 554              		.loc 1 82 2 is_stmt 1 view .LVU116
 555              		.loc 1 84 94 is_stmt 0 view .LVU117
 556 0022 05FB05F5 		mul	r5, r5, r5
 557              		.loc 1 82 10 view .LVU118
 558 0026 0220     		movs	r0, #2
 559              	.LVL58:
 560              		.loc 1 84 85 view .LVU119
 561 0028 04FB0454 		mla	r4, r4, r4, r5
 562              	.LVL59:
 563              		.loc 1 82 10 view .LVU120
 564 002c FFF7FEFF 		bl	e_get_acc
 565              	.LVL60:
 566              		.loc 1 84 2 is_stmt 1 view .LVU121
 567              		.loc 1 84 31 is_stmt 0 view .LVU122
 568 0030 07EE904A 		vmov	s15, r4	@ int
 569 0034 B8EEE70A 		vcvt.f32.s32	s0, s15
 570 0038 07EE900A 		vmov	s15, r0	@ int
ARM GAS  /tmp/ccpG2h7U.s 			page 11


 571 003c B5EE400A 		vcmp.f32	s0, #0
 572 0040 F1EE10FA 		vmrs	APSR_nzcv, FPSCR
 573 0044 F1EEC00A 		vsqrt.f32	s1, s0
 574 0048 B8EEE78A 		vcvt.f32.s32	s16, s15
 575 004c 14D4     		bmi	.L49
 576              	.LVL61:
 577              	.L46:
 578              		.loc 1 84 31 view .LVU123
 579 004e B0EE480A 		vmov.f32	s0, s16
 580 0052 FFF7FEFF 		bl	atan2f
 581              	.LVL62:
 582              		.loc 1 84 29 view .LVU124
 583 0056 9FED0E7A 		vldr.32	s14, .L51+4
 584 005a DFED0E7A 		vldr.32	s15, .L51+8
 585              		.loc 1 86 1 view .LVU125
 586 005e 0B4B     		ldr	r3, .L51
 587              		.loc 1 84 29 view .LVU126
 588 0060 E0EE477A 		vfms.f32	s15, s0, s14
 589              		.loc 1 86 1 view .LVU127
 590 0064 1A68     		ldr	r2, [r3]
 591 0066 039B     		ldr	r3, [sp, #12]
 592 0068 5A40     		eors	r2, r3, r2
 593              		.loc 1 84 29 view .LVU128
 594 006a B0EE670A 		vmov.f32	s0, s15
 595              	.LVL63:
 596              		.loc 1 85 2 is_stmt 1 view .LVU129
 597              		.loc 1 86 1 is_stmt 0 view .LVU130
 598 006e 0AD1     		bne	.L50
 599 0070 05B0     		add	sp, sp, #20
 600              		.cfi_remember_state
 601              		.cfi_def_cfa_offset 20
 602              		@ sp needed
 603 0072 BDEC028B 		vldm	sp!, {d8}
 604              		.cfi_restore 80
 605              		.cfi_restore 81
 606              		.cfi_def_cfa_offset 12
 607 0076 30BD     		pop	{r4, r5, pc}
 608              	.LVL64:
 609              	.L49:
 610              		.cfi_restore_state
 611              		.loc 1 86 1 view .LVU131
 612 0078 CDED010A 		vstr.32	s1, [sp, #4]	@ int
 613              		.loc 1 84 31 view .LVU132
 614 007c FFF7FEFF 		bl	sqrtf
 615              	.LVL65:
 616              		.loc 1 84 31 view .LVU133
 617 0080 DDED010A 		vldr.32	s1, [sp, #4]	@ int
 618 0084 E3E7     		b	.L46
 619              	.LVL66:
 620              	.L50:
 621              		.loc 1 86 1 view .LVU134
 622 0086 FFF7FEFF 		bl	__stack_chk_fail
 623              	.LVL67:
 624              	.L52:
 625              		.loc 1 86 1 view .LVU135
 626 008a 00BF     		.align	2
 627              	.L51:
ARM GAS  /tmp/ccpG2h7U.s 			page 12


 628 008c 00000000 		.word	.LC4
 629 0090 9C306542 		.word	1113927836
 630 0094 0000B442 		.word	1119092736
 631              		.cfi_endproc
 632              	.LFE260:
 633              		.size	e_read_inclination, .-e_read_inclination
 634              		.section	.rodata.e_read_orientation.cst4,"aM",%progbits,4
 635              		.align	2
 636              	.LC5:
 637 0000 00000000 		.word	__stack_chk_guard
 638              		.section	.text.e_read_orientation,"ax",%progbits
 639              		.align	1
 640              		.p2align 4,,15
 641              		.global	e_read_orientation
 642              		.syntax unified
 643              		.thumb
 644              		.thumb_func
 645              		.fpu fpv4-sp-d16
 646              		.type	e_read_orientation, %function
 647              	e_read_orientation:
 648              	.LFB261:
 649              		.loc 1 89 1 is_stmt 1 view -0
 650              		.cfi_startproc
 651              		@ args = 0, pretend = 0, frame = 16
 652              		@ frame_needed = 0, uses_anonymous_args = 0
 653 0000 30B5     		push	{r4, r5, lr}
 654              		.cfi_def_cfa_offset 12
 655              		.cfi_offset 4, -12
 656              		.cfi_offset 5, -8
 657              		.cfi_offset 14, -4
 658 0002 2DED028B 		vpush.64	{d8}
 659              		.cfi_def_cfa_offset 20
 660              		.cfi_offset 80, -20
 661              		.cfi_offset 81, -16
 662 0006 304B     		ldr	r3, .L63
 663 0008 85B0     		sub	sp, sp, #20
 664              		.cfi_def_cfa_offset 40
 665              		.loc 1 92 10 is_stmt 0 view .LVU137
 666 000a 0020     		movs	r0, #0
 667              		.loc 1 89 1 view .LVU138
 668 000c 1B68     		ldr	r3, [r3]
 669 000e 0393     		str	r3, [sp, #12]
 670 0010 4FF00003 		mov	r3,#0
 671              		.loc 1 90 2 is_stmt 1 view .LVU139
 672              		.loc 1 91 2 view .LVU140
 673              		.loc 1 92 2 view .LVU141
 674              		.loc 1 92 10 is_stmt 0 view .LVU142
 675 0014 FFF7FEFF 		bl	e_get_acc
 676              	.LVL68:
 677 0018 0446     		mov	r4, r0
 678              		.loc 1 93 10 view .LVU143
 679 001a 0120     		movs	r0, #1
 680              	.LVL69:
 681              		.loc 1 93 2 is_stmt 1 view .LVU144
 682              		.loc 1 93 10 is_stmt 0 view .LVU145
 683 001c FFF7FEFF 		bl	e_get_acc
 684              	.LVL70:
ARM GAS  /tmp/ccpG2h7U.s 			page 13


 685 0020 0546     		mov	r5, r0
 686              	.LVL71:
 687              		.loc 1 94 2 is_stmt 1 view .LVU146
 688              		.loc 1 94 10 is_stmt 0 view .LVU147
 689 0022 0220     		movs	r0, #2
 690              	.LVL72:
 691              		.loc 1 94 10 view .LVU148
 692 0024 FFF7FEFF 		bl	e_get_acc
 693              	.LVL73:
 694              		.loc 1 96 2 is_stmt 1 view .LVU149
 695              		.loc 1 96 94 is_stmt 0 view .LVU150
 696 0028 05FB05F3 		mul	r3, r5, r5
 697              		.loc 1 96 85 view .LVU151
 698 002c 04FB0433 		mla	r3, r4, r4, r3
 699              		.loc 1 96 31 view .LVU152
 700 0030 07EE903A 		vmov	s15, r3	@ int
 701 0034 B8EEE70A 		vcvt.f32.s32	s0, s15
 702 0038 07EE900A 		vmov	s15, r0	@ int
 703 003c B5EE400A 		vcmp.f32	s0, #0
 704 0040 F1EE10FA 		vmrs	APSR_nzcv, FPSCR
 705 0044 F1EEC00A 		vsqrt.f32	s1, s0
 706 0048 B8EEE78A 		vcvt.f32.s32	s16, s15
 707 004c 33D4     		bmi	.L60
 708              	.LVL74:
 709              	.L54:
 710              		.loc 1 96 31 view .LVU153
 711 004e B0EE480A 		vmov.f32	s0, s16
 712 0052 FFF7FEFF 		bl	atan2f
 713              	.LVL75:
 714              		.loc 1 96 29 view .LVU154
 715 0056 9FED1D8A 		vldr.32	s16, .L63+4
 716 005a DFED1D7A 		vldr.32	s15, .L63+8
 717 005e E0EE487A 		vfms.f32	s15, s0, s16
 718              	.LVL76:
 719              		.loc 1 97 2 is_stmt 1 view .LVU155
 720              		.loc 1 97 5 is_stmt 0 view .LVU156
 721 0062 B1EE047A 		vmov.f32	s14, #5.0e+0
 722 0066 F4EEC77A 		vcmpe.f32	s15, s14
 723 006a F1EE10FA 		vmrs	APSR_nzcv, FPSCR
 724 006e 06D4     		bmi	.L58
 725              		.loc 1 97 27 discriminator 1 view .LVU157
 726 0070 9FED187A 		vldr.32	s14, .L63+12
 727 0074 F4EEC77A 		vcmpe.f32	s15, s14
 728 0078 F1EE10FA 		vmrs	APSR_nzcv, FPSCR
 729 007c 0ADD     		ble	.L61
 730              	.L58:
 731              		.loc 1 98 21 view .LVU158
 732 007e 9FED160A 		vldr.32	s0, .L63+16
 733              	.LVL77:
 734              		.loc 1 102 2 is_stmt 1 view .LVU159
 735              	.L53:
 736              		.loc 1 103 1 is_stmt 0 view .LVU160
 737 0082 114B     		ldr	r3, .L63
 738 0084 1A68     		ldr	r2, [r3]
 739 0086 039B     		ldr	r3, [sp, #12]
 740 0088 5A40     		eors	r2, r3, r2
 741 008a 1BD1     		bne	.L62
ARM GAS  /tmp/ccpG2h7U.s 			page 14


 742 008c 05B0     		add	sp, sp, #20
 743              		.cfi_remember_state
 744              		.cfi_def_cfa_offset 20
 745              		@ sp needed
 746 008e BDEC028B 		vldm	sp!, {d8}
 747              		.cfi_restore 80
 748              		.cfi_restore 81
 749              		.cfi_def_cfa_offset 12
 750 0092 30BD     		pop	{r4, r5, pc}
 751              	.LVL78:
 752              	.L61:
 753              		.cfi_restore_state
 754              		.loc 1 100 3 is_stmt 1 view .LVU161
 755              		.loc 1 100 25 is_stmt 0 view .LVU162
 756 0094 07EE905A 		vmov	s15, r5	@ int
 757              	.LVL79:
 758              		.loc 1 100 25 view .LVU163
 759 0098 F8EEE70A 		vcvt.f32.s32	s1, s15
 760 009c 07EE904A 		vmov	s15, r4	@ int
 761 00a0 B8EEE70A 		vcvt.f32.s32	s0, s15
 762              	.LVL80:
 763              		.loc 1 100 25 view .LVU164
 764 00a4 FFF7FEFF 		bl	atan2f
 765              	.LVL81:
 766              		.loc 1 100 78 view .LVU165
 767 00a8 DFED0C7A 		vldr.32	s15, .L63+20
 768 00ac E0EE087A 		vfma.f32	s15, s0, s16
 769 00b0 B0EE670A 		vmov.f32	s0, s15
 770              	.LVL82:
 771              		.loc 1 100 78 view .LVU166
 772 00b4 E5E7     		b	.L53
 773              	.LVL83:
 774              	.L60:
 775              		.loc 1 100 78 view .LVU167
 776 00b6 CDED010A 		vstr.32	s1, [sp, #4]	@ int
 777              		.loc 1 96 31 view .LVU168
 778 00ba FFF7FEFF 		bl	sqrtf
 779              	.LVL84:
 780              		.loc 1 96 31 view .LVU169
 781 00be DDED010A 		vldr.32	s1, [sp, #4]	@ int
 782 00c2 C4E7     		b	.L54
 783              	.L62:
 784              		.loc 1 103 1 view .LVU170
 785 00c4 FFF7FEFF 		bl	__stack_chk_fail
 786              	.LVL85:
 787              	.L64:
 788              		.align	2
 789              	.L63:
 790 00c8 00000000 		.word	.LC5
 791 00cc 9C306542 		.word	1113927836
 792 00d0 0000B442 		.word	1119092736
 793 00d4 00002043 		.word	1126170624
 794 00d8 00000000 		.word	0
 795 00dc 00003443 		.word	1127481344
 796              		.cfi_endproc
 797              	.LFE261:
 798              		.size	e_read_orientation, .-e_read_orientation
ARM GAS  /tmp/ccpG2h7U.s 			page 15


 799              		.section	.rodata.e_read_acc.cst4,"aM",%progbits,4
 800              		.align	2
 801              	.LC6:
 802 0000 00000000 		.word	__stack_chk_guard
 803              		.section	.text.e_read_acc,"ax",%progbits
 804              		.align	1
 805              		.p2align 4,,15
 806              		.global	e_read_acc
 807              		.syntax unified
 808              		.thumb
 809              		.thumb_func
 810              		.fpu fpv4-sp-d16
 811              		.type	e_read_acc, %function
 812              	e_read_acc:
 813              	.LFB262:
 814              		.loc 1 106 1 is_stmt 1 view -0
 815              		.cfi_startproc
 816              		@ args = 0, pretend = 0, frame = 8
 817              		@ frame_needed = 0, uses_anonymous_args = 0
 818 0000 30B5     		push	{r4, r5, lr}
 819              		.cfi_def_cfa_offset 12
 820              		.cfi_offset 4, -12
 821              		.cfi_offset 5, -8
 822              		.cfi_offset 14, -4
 823 0002 2DED028B 		vpush.64	{d8}
 824              		.cfi_def_cfa_offset 20
 825              		.cfi_offset 80, -20
 826              		.cfi_offset 81, -16
 827 0006 194B     		ldr	r3, .L71
 828 0008 83B0     		sub	sp, sp, #12
 829              		.cfi_def_cfa_offset 32
 830              		.loc 1 109 10 is_stmt 0 view .LVU172
 831 000a 0020     		movs	r0, #0
 832              		.loc 1 106 1 view .LVU173
 833 000c 1B68     		ldr	r3, [r3]
 834 000e 0193     		str	r3, [sp, #4]
 835 0010 4FF00003 		mov	r3,#0
 836              		.loc 1 107 2 is_stmt 1 view .LVU174
 837              		.loc 1 108 2 view .LVU175
 838              		.loc 1 109 2 view .LVU176
 839              		.loc 1 109 10 is_stmt 0 view .LVU177
 840 0014 FFF7FEFF 		bl	e_get_acc
 841              	.LVL86:
 842 0018 0446     		mov	r4, r0
 843              		.loc 1 110 10 view .LVU178
 844 001a 0120     		movs	r0, #1
 845              	.LVL87:
 846              		.loc 1 110 2 is_stmt 1 view .LVU179
 847              		.loc 1 110 10 is_stmt 0 view .LVU180
 848 001c FFF7FEFF 		bl	e_get_acc
 849              	.LVL88:
 850 0020 0546     		mov	r5, r0
 851              	.LVL89:
 852              		.loc 1 111 2 is_stmt 1 view .LVU181
 853              		.loc 1 111 10 is_stmt 0 view .LVU182
 854 0022 0220     		movs	r0, #2
 855              	.LVL90:
ARM GAS  /tmp/ccpG2h7U.s 			page 16


 856              		.loc 1 111 10 view .LVU183
 857 0024 FFF7FEFF 		bl	e_get_acc
 858              	.LVL91:
 859              		.loc 1 113 2 is_stmt 1 view .LVU184
 860              		.loc 1 113 63 is_stmt 0 view .LVU185
 861 0028 05FB05F5 		mul	r5, r5, r5
 862              	.LVL92:
 863              		.loc 1 113 54 view .LVU186
 864 002c 04FB0454 		mla	r4, r4, r4, r5
 865              	.LVL93:
 866              		.loc 1 113 72 view .LVU187
 867 0030 00FB0043 		mla	r3, r0, r0, r4
 868              		.loc 1 113 24 view .LVU188
 869 0034 07EE903A 		vmov	s15, r3	@ int
 870 0038 B8EEE70A 		vcvt.f32.s32	s0, s15
 871 003c B5EE400A 		vcmp.f32	s0, #0
 872 0040 F1EE10FA 		vmrs	APSR_nzcv, FPSCR
 873 0044 B1EEC08A 		vsqrt.f32	s16, s0
 874 0048 0AD4     		bmi	.L69
 875              	.LVL94:
 876              	.L65:
 877              		.loc 1 115 1 view .LVU189
 878 004a 084B     		ldr	r3, .L71
 879 004c 1A68     		ldr	r2, [r3]
 880 004e 019B     		ldr	r3, [sp, #4]
 881 0050 5A40     		eors	r2, r3, r2
 882 0052 08D1     		bne	.L70
 883 0054 B0EE480A 		vmov.f32	s0, s16
 884 0058 03B0     		add	sp, sp, #12
 885              		.cfi_remember_state
 886              		.cfi_def_cfa_offset 20
 887              		@ sp needed
 888 005a BDEC028B 		vldm	sp!, {d8}
 889              		.cfi_restore 80
 890              		.cfi_restore 81
 891              		.cfi_def_cfa_offset 12
 892 005e 30BD     		pop	{r4, r5, pc}
 893              	.LVL95:
 894              	.L69:
 895              		.cfi_restore_state
 896              		.loc 1 113 24 view .LVU190
 897 0060 FFF7FEFF 		bl	sqrtf
 898              	.LVL96:
 899              		.loc 1 114 2 is_stmt 1 view .LVU191
 900              		.loc 1 114 15 is_stmt 0 view .LVU192
 901 0064 F1E7     		b	.L65
 902              	.LVL97:
 903              	.L70:
 904              		.loc 1 115 1 view .LVU193
 905 0066 FFF7FEFF 		bl	__stack_chk_fail
 906              	.LVL98:
 907              	.L72:
 908 006a 00BF     		.align	2
 909              	.L71:
 910 006c 00000000 		.word	.LC6
 911              		.cfi_endproc
 912              	.LFE262:
ARM GAS  /tmp/ccpG2h7U.s 			page 17


 913              		.size	e_read_acc, .-e_read_acc
 914              		.section	.rodata.e_read_acc_xyz.cst4,"aM",%progbits,4
 915              		.align	2
 916              	.LC7:
 917 0000 00000000 		.word	__stack_chk_guard
 918              		.section	.text.e_read_acc_xyz,"ax",%progbits
 919              		.align	1
 920              		.p2align 4,,15
 921              		.global	e_read_acc_xyz
 922              		.syntax unified
 923              		.thumb
 924              		.thumb_func
 925              		.fpu fpv4-sp-d16
 926              		.type	e_read_acc_xyz, %function
 927              	e_read_acc_xyz:
 928              	.LVL99:
 929              	.LFB263:
 930              		.loc 1 118 1 is_stmt 1 view -0
 931              		.cfi_startproc
 932              		@ args = 0, pretend = 0, frame = 8
 933              		@ frame_needed = 0, uses_anonymous_args = 0
 934              		.loc 1 118 1 is_stmt 0 view .LVU195
 935 0000 70B5     		push	{r4, r5, r6, lr}
 936              		.cfi_def_cfa_offset 16
 937              		.cfi_offset 4, -16
 938              		.cfi_offset 5, -12
 939              		.cfi_offset 6, -8
 940              		.cfi_offset 14, -4
 941 0002 0F4B     		ldr	r3, .L77
 942 0004 82B0     		sub	sp, sp, #8
 943              		.cfi_def_cfa_offset 24
 944              		.loc 1 118 1 view .LVU196
 945 0006 0446     		mov	r4, r0
 946              		.loc 1 120 17 view .LVU197
 947 0008 0020     		movs	r0, #0
 948              	.LVL100:
 949              		.loc 1 118 1 view .LVU198
 950 000a 1B68     		ldr	r3, [r3]
 951 000c 0193     		str	r3, [sp, #4]
 952 000e 4FF00003 		mov	r3,#0
 953              		.loc 1 119 2 is_stmt 1 view .LVU199
 954              		.loc 1 120 2 view .LVU200
 955              		.loc 1 120 17 is_stmt 0 view .LVU201
 956 0012 FFF7FEFF 		bl	e_get_acc
 957              	.LVL101:
 958 0016 0646     		mov	r6, r0
 959              		.loc 1 121 17 view .LVU202
 960 0018 0120     		movs	r0, #1
 961              	.LVL102:
 962              		.loc 1 121 2 is_stmt 1 view .LVU203
 963              		.loc 1 121 17 is_stmt 0 view .LVU204
 964 001a FFF7FEFF 		bl	e_get_acc
 965              	.LVL103:
 966 001e 0546     		mov	r5, r0
 967              		.loc 1 122 17 view .LVU205
 968 0020 0220     		movs	r0, #2
 969              	.LVL104:
ARM GAS  /tmp/ccpG2h7U.s 			page 18


 970              		.loc 1 122 2 is_stmt 1 view .LVU206
 971              		.loc 1 122 17 is_stmt 0 view .LVU207
 972 0022 FFF7FEFF 		bl	e_get_acc
 973              	.LVL105:
 974              		.loc 1 123 2 is_stmt 1 view .LVU208
 975              		.loc 1 123 9 is_stmt 0 view .LVU209
 976 0026 C4E90065 		strd	r6, r5, [r4]
 977              		.loc 1 124 1 view .LVU210
 978 002a 054B     		ldr	r3, .L77
 979              		.loc 1 123 9 view .LVU211
 980 002c A060     		str	r0, [r4, #8]
 981              	.LVL106:
 982              		.loc 1 124 1 view .LVU212
 983 002e 1A68     		ldr	r2, [r3]
 984 0030 019B     		ldr	r3, [sp, #4]
 985 0032 5A40     		eors	r2, r3, r2
 986 0034 02D1     		bne	.L76
 987 0036 2046     		mov	r0, r4
 988 0038 02B0     		add	sp, sp, #8
 989              		.cfi_remember_state
 990              		.cfi_def_cfa_offset 16
 991              		@ sp needed
 992 003a 70BD     		pop	{r4, r5, r6, pc}
 993              	.LVL107:
 994              	.L76:
 995              		.cfi_restore_state
 996              		.loc 1 124 1 view .LVU213
 997 003c FFF7FEFF 		bl	__stack_chk_fail
 998              	.LVL108:
 999              	.L78:
 1000              		.align	2
 1001              	.L77:
 1002 0040 00000000 		.word	.LC7
 1003              		.cfi_endproc
 1004              	.LFE263:
 1005              		.size	e_read_acc_xyz, .-e_read_acc_xyz
 1006              		.section	.rodata.e_read_acc_x.cst4,"aM",%progbits,4
 1007              		.align	2
 1008              	.LC8:
 1009 0000 00000000 		.word	__stack_chk_guard
 1010              		.section	.text.e_read_acc_x,"ax",%progbits
 1011              		.align	1
 1012              		.p2align 4,,15
 1013              		.global	e_read_acc_x
 1014              		.syntax unified
 1015              		.thumb
 1016              		.thumb_func
 1017              		.fpu fpv4-sp-d16
 1018              		.type	e_read_acc_x, %function
 1019              	e_read_acc_x:
 1020              	.LFB264:
 1021              		.loc 1 127 1 is_stmt 1 view -0
 1022              		.cfi_startproc
 1023              		@ args = 0, pretend = 0, frame = 8
 1024              		@ frame_needed = 0, uses_anonymous_args = 0
 1025 0000 00B5     		push	{lr}
 1026              		.cfi_def_cfa_offset 4
ARM GAS  /tmp/ccpG2h7U.s 			page 19


 1027              		.cfi_offset 14, -4
 1028 0002 094B     		ldr	r3, .L84
 1029 0004 83B0     		sub	sp, sp, #12
 1030              		.cfi_def_cfa_offset 16
 1031              		.loc 1 127 1 is_stmt 0 view .LVU215
 1032 0006 1B68     		ldr	r3, [r3]
 1033 0008 0193     		str	r3, [sp, #4]
 1034 000a 4FF00003 		mov	r3,#0
 1035              		.loc 1 128 2 is_stmt 1 view .LVU216
 1036              		.loc 1 128 10 is_stmt 0 view .LVU217
 1037 000e 064B     		ldr	r3, .L84
 1038 0010 1A68     		ldr	r2, [r3]
 1039 0012 019B     		ldr	r3, [sp, #4]
 1040 0014 5A40     		eors	r2, r3, r2
 1041 0016 05D1     		bne	.L83
 1042 0018 0020     		movs	r0, #0
 1043              		.loc 1 129 1 view .LVU218
 1044 001a 03B0     		add	sp, sp, #12
 1045              		.cfi_remember_state
 1046              		.cfi_def_cfa_offset 4
 1047              		@ sp needed
 1048 001c 5DF804EB 		ldr	lr, [sp], #4
 1049              		.cfi_restore 14
 1050              		.cfi_def_cfa_offset 0
 1051              		.loc 1 128 10 view .LVU219
 1052 0020 FFF7FEBF 		b	e_get_acc
 1053              	.LVL109:
 1054              	.L83:
 1055              		.cfi_restore_state
 1056 0024 FFF7FEFF 		bl	__stack_chk_fail
 1057              	.LVL110:
 1058              	.L85:
 1059              		.align	2
 1060              	.L84:
 1061 0028 00000000 		.word	.LC8
 1062              		.cfi_endproc
 1063              	.LFE264:
 1064              		.size	e_read_acc_x, .-e_read_acc_x
 1065              		.section	.rodata.e_read_acc_y.cst4,"aM",%progbits,4
 1066              		.align	2
 1067              	.LC9:
 1068 0000 00000000 		.word	__stack_chk_guard
 1069              		.section	.text.e_read_acc_y,"ax",%progbits
 1070              		.align	1
 1071              		.p2align 4,,15
 1072              		.global	e_read_acc_y
 1073              		.syntax unified
 1074              		.thumb
 1075              		.thumb_func
 1076              		.fpu fpv4-sp-d16
 1077              		.type	e_read_acc_y, %function
 1078              	e_read_acc_y:
 1079              	.LFB265:
 1080              		.loc 1 132 1 is_stmt 1 view -0
 1081              		.cfi_startproc
 1082              		@ args = 0, pretend = 0, frame = 8
 1083              		@ frame_needed = 0, uses_anonymous_args = 0
ARM GAS  /tmp/ccpG2h7U.s 			page 20


 1084 0000 00B5     		push	{lr}
 1085              		.cfi_def_cfa_offset 4
 1086              		.cfi_offset 14, -4
 1087 0002 094B     		ldr	r3, .L91
 1088 0004 83B0     		sub	sp, sp, #12
 1089              		.cfi_def_cfa_offset 16
 1090              		.loc 1 132 1 is_stmt 0 view .LVU221
 1091 0006 1B68     		ldr	r3, [r3]
 1092 0008 0193     		str	r3, [sp, #4]
 1093 000a 4FF00003 		mov	r3,#0
 1094              		.loc 1 133 2 is_stmt 1 view .LVU222
 1095              		.loc 1 133 10 is_stmt 0 view .LVU223
 1096 000e 064B     		ldr	r3, .L91
 1097 0010 1A68     		ldr	r2, [r3]
 1098 0012 019B     		ldr	r3, [sp, #4]
 1099 0014 5A40     		eors	r2, r3, r2
 1100 0016 05D1     		bne	.L90
 1101 0018 0120     		movs	r0, #1
 1102              		.loc 1 134 1 view .LVU224
 1103 001a 03B0     		add	sp, sp, #12
 1104              		.cfi_remember_state
 1105              		.cfi_def_cfa_offset 4
 1106              		@ sp needed
 1107 001c 5DF804EB 		ldr	lr, [sp], #4
 1108              		.cfi_restore 14
 1109              		.cfi_def_cfa_offset 0
 1110              		.loc 1 133 10 view .LVU225
 1111 0020 FFF7FEBF 		b	e_get_acc
 1112              	.LVL111:
 1113              	.L90:
 1114              		.cfi_restore_state
 1115 0024 FFF7FEFF 		bl	__stack_chk_fail
 1116              	.LVL112:
 1117              	.L92:
 1118              		.align	2
 1119              	.L91:
 1120 0028 00000000 		.word	.LC9
 1121              		.cfi_endproc
 1122              	.LFE265:
 1123              		.size	e_read_acc_y, .-e_read_acc_y
 1124              		.section	.rodata.e_read_acc_z.cst4,"aM",%progbits,4
 1125              		.align	2
 1126              	.LC10:
 1127 0000 00000000 		.word	__stack_chk_guard
 1128              		.section	.text.e_read_acc_z,"ax",%progbits
 1129              		.align	1
 1130              		.p2align 4,,15
 1131              		.global	e_read_acc_z
 1132              		.syntax unified
 1133              		.thumb
 1134              		.thumb_func
 1135              		.fpu fpv4-sp-d16
 1136              		.type	e_read_acc_z, %function
 1137              	e_read_acc_z:
 1138              	.LFB266:
 1139              		.loc 1 137 1 is_stmt 1 view -0
 1140              		.cfi_startproc
ARM GAS  /tmp/ccpG2h7U.s 			page 21


 1141              		@ args = 0, pretend = 0, frame = 8
 1142              		@ frame_needed = 0, uses_anonymous_args = 0
 1143 0000 00B5     		push	{lr}
 1144              		.cfi_def_cfa_offset 4
 1145              		.cfi_offset 14, -4
 1146 0002 094B     		ldr	r3, .L98
 1147 0004 83B0     		sub	sp, sp, #12
 1148              		.cfi_def_cfa_offset 16
 1149              		.loc 1 137 1 is_stmt 0 view .LVU227
 1150 0006 1B68     		ldr	r3, [r3]
 1151 0008 0193     		str	r3, [sp, #4]
 1152 000a 4FF00003 		mov	r3,#0
 1153              		.loc 1 138 2 is_stmt 1 view .LVU228
 1154              		.loc 1 138 10 is_stmt 0 view .LVU229
 1155 000e 064B     		ldr	r3, .L98
 1156 0010 1A68     		ldr	r2, [r3]
 1157 0012 019B     		ldr	r3, [sp, #4]
 1158 0014 5A40     		eors	r2, r3, r2
 1159 0016 05D1     		bne	.L97
 1160 0018 0220     		movs	r0, #2
 1161              		.loc 1 139 1 view .LVU230
 1162 001a 03B0     		add	sp, sp, #12
 1163              		.cfi_remember_state
 1164              		.cfi_def_cfa_offset 4
 1165              		@ sp needed
 1166 001c 5DF804EB 		ldr	lr, [sp], #4
 1167              		.cfi_restore 14
 1168              		.cfi_def_cfa_offset 0
 1169              		.loc 1 138 10 view .LVU231
 1170 0020 FFF7FEBF 		b	e_get_acc
 1171              	.LVL113:
 1172              	.L97:
 1173              		.cfi_restore_state
 1174 0024 FFF7FEFF 		bl	__stack_chk_fail
 1175              	.LVL114:
 1176              	.L99:
 1177              		.align	2
 1178              	.L98:
 1179 0028 00000000 		.word	.LC10
 1180              		.cfi_endproc
 1181              	.LFE266:
 1182              		.size	e_read_acc_z, .-e_read_acc_z
 1183              		.section	.rodata.e_display_angle.cst4,"aM",%progbits,4
 1184              		.align	2
 1185              	.LC11:
 1186 0000 00000000 		.word	__stack_chk_guard
 1187              		.section	.text.e_display_angle,"ax",%progbits
 1188              		.align	1
 1189              		.p2align 4,,15
 1190              		.global	e_display_angle
 1191              		.syntax unified
 1192              		.thumb
 1193              		.thumb_func
 1194              		.fpu fpv4-sp-d16
 1195              		.type	e_display_angle, %function
 1196              	e_display_angle:
 1197              	.LFB267:
ARM GAS  /tmp/ccpG2h7U.s 			page 22


 1198              		.loc 1 142 1 is_stmt 1 view -0
 1199              		.cfi_startproc
 1200              		@ args = 0, pretend = 0, frame = 8
 1201              		@ frame_needed = 0, uses_anonymous_args = 0
 1202 0000 10B5     		push	{r4, lr}
 1203              		.cfi_def_cfa_offset 8
 1204              		.cfi_offset 4, -8
 1205              		.cfi_offset 14, -4
 1206 0002 2DED028B 		vpush.64	{d8}
 1207              		.cfi_def_cfa_offset 16
 1208              		.cfi_offset 80, -16
 1209              		.cfi_offset 81, -12
 1210 0006 694B     		ldr	r3, .L153
 1211              		.loc 1 148 21 is_stmt 0 view .LVU233
 1212 0008 694C     		ldr	r4, .L153+4
 1213              		.loc 1 142 1 view .LVU234
 1214 000a 82B0     		sub	sp, sp, #8
 1215              		.cfi_def_cfa_offset 24
 1216              		.loc 1 142 1 view .LVU235
 1217 000c 1B68     		ldr	r3, [r3]
 1218 000e 0193     		str	r3, [sp, #4]
 1219 0010 4FF00003 		mov	r3,#0
 1220              		.loc 1 143 2 is_stmt 1 view .LVU236
 1221              	.LVL115:
 1222              		.loc 1 147 2 view .LVU237
 1223              		.loc 1 147 10 is_stmt 0 view .LVU238
 1224 0014 FFF7FEFF 		bl	e_read_orientation
 1225              	.LVL116:
 1226              		.loc 1 148 2 is_stmt 1 view .LVU239
 1227              		.loc 1 148 21 is_stmt 0 view .LVU240
 1228 0018 D4ED007A 		vldr.32	s15, [r4]	@ int
 1229 001c F8EEE77A 		vcvt.f32.s32	s15, s15
 1230              		.loc 1 148 5 view .LVU241
 1231 0020 B1EE047A 		vmov.f32	s14, #5.0e+0
 1232              		.loc 1 148 21 view .LVU242
 1233 0024 77EEC07A 		vsub.f32	s15, s15, s0
 1234              		.loc 1 148 7 view .LVU243
 1235 0028 FDEEE77A 		vcvt.s32.f32	s15, s15
 1236 002c 17EE903A 		vmov	r3, s15	@ int
 1237 0030 002B     		cmp	r3, #0
 1238 0032 B8BF     		it	lt
 1239 0034 5B42     		rsblt	r3, r3, #0
 1240 0036 07EE903A 		vmov	s15, r3	@ int
 1241              		.loc 1 148 30 view .LVU244
 1242 003a F8EEE77A 		vcvt.f32.s32	s15, s15
 1243              		.loc 1 148 5 view .LVU245
 1244 003e F4EEC77A 		vcmpe.f32	s15, s14
 1245 0042 F1EE10FA 		vmrs	APSR_nzcv, FPSCR
 1246 0046 09DC     		bgt	.L144
 1247              	.LVL117:
 1248              	.L100:
 1249              		.loc 1 170 1 view .LVU246
 1250 0048 584B     		ldr	r3, .L153
 1251 004a 1A68     		ldr	r2, [r3]
 1252 004c 019B     		ldr	r3, [sp, #4]
 1253 004e 5A40     		eors	r2, r3, r2
 1254 0050 40F0AA80 		bne	.L145
ARM GAS  /tmp/ccpG2h7U.s 			page 23


 1255 0054 02B0     		add	sp, sp, #8
 1256              		.cfi_remember_state
 1257              		.cfi_def_cfa_offset 16
 1258              		@ sp needed
 1259 0056 BDEC028B 		vldm	sp!, {d8}
 1260              		.cfi_restore 80
 1261              		.cfi_restore 81
 1262              		.cfi_def_cfa_offset 8
 1263 005a 10BD     		pop	{r4, pc}
 1264              	.LVL118:
 1265              	.L144:
 1266              		.cfi_restore_state
 1267              		.loc 1 150 3 is_stmt 1 view .LVU247
 1268 005c B0EE408A 		vmov.f32	s16, s0
 1269 0060 FFF7FEFF 		bl	e_led_clear
 1270              	.LVL119:
 1271              		.loc 1 152 3 view .LVU248
 1272              		.loc 1 152 32 is_stmt 0 view .LVU249
 1273 0064 DFED537A 		vldr.32	s15, .L153+8
 1274              		.loc 1 152 6 view .LVU250
 1275 0068 B4EEE78A 		vcmpe.f32	s16, s15
 1276 006c F1EE10FA 		vmrs	APSR_nzcv, FPSCR
 1277 0070 4DDC     		bgt	.L128
 1278              		.loc 1 152 32 view .LVU251
 1279 0072 DFED517A 		vldr.32	s15, .L153+12
 1280              		.loc 1 152 6 view .LVU252
 1281 0076 B4EE678A 		vcmp.f32	s16, s15
 1282 007a F1EE10FA 		vmrs	APSR_nzcv, FPSCR
 1283 007e 46D9     		bls	.L128
 1284              		.loc 1 154 8 is_stmt 1 view .LVU253
 1285              		.loc 1 154 11 is_stmt 0 view .LVU254
 1286 0080 B4EEE78A 		vcmpe.f32	s16, s15
 1287 0084 F1EE10FA 		vmrs	APSR_nzcv, FPSCR
 1288 0088 35DC     		bgt	.L146
 1289              	.L106:
 1290              		.loc 1 156 8 is_stmt 1 view .LVU255
 1291              		.loc 1 156 11 is_stmt 0 view .LVU256
 1292 008a DFED4C7A 		vldr.32	s15, .L153+16
 1293 008e B4EEE78A 		vcmpe.f32	s16, s15
 1294 0092 F1EE10FA 		vmrs	APSR_nzcv, FPSCR
 1295 0096 46DC     		bgt	.L147
 1296              	.L109:
 1297              		.loc 1 158 8 is_stmt 1 view .LVU257
 1298              		.loc 1 158 11 is_stmt 0 view .LVU258
 1299 0098 DFED497A 		vldr.32	s15, .L153+20
 1300 009c B4EEE78A 		vcmpe.f32	s16, s15
 1301 00a0 F1EE10FA 		vmrs	APSR_nzcv, FPSCR
 1302 00a4 4BDC     		bgt	.L148
 1303              	.L112:
 1304              		.loc 1 160 8 is_stmt 1 view .LVU259
 1305              		.loc 1 160 11 is_stmt 0 view .LVU260
 1306 00a6 DFED477A 		vldr.32	s15, .L153+24
 1307 00aa B4EEE78A 		vcmpe.f32	s16, s15
 1308 00ae F1EE10FA 		vmrs	APSR_nzcv, FPSCR
 1309 00b2 55DC     		bgt	.L149
 1310              	.L115:
 1311              		.loc 1 162 8 is_stmt 1 view .LVU261
ARM GAS  /tmp/ccpG2h7U.s 			page 24


 1312              		.loc 1 162 11 is_stmt 0 view .LVU262
 1313 00b4 DFED447A 		vldr.32	s15, .L153+28
 1314 00b8 B4EEE78A 		vcmpe.f32	s16, s15
 1315 00bc F1EE10FA 		vmrs	APSR_nzcv, FPSCR
 1316 00c0 5ADC     		bgt	.L150
 1317              	.L118:
 1318              		.loc 1 164 8 is_stmt 1 view .LVU263
 1319              		.loc 1 164 11 is_stmt 0 view .LVU264
 1320 00c2 DFED427A 		vldr.32	s15, .L153+32
 1321 00c6 B4EEE78A 		vcmpe.f32	s16, s15
 1322 00ca F1EE10FA 		vmrs	APSR_nzcv, FPSCR
 1323 00ce 5FDC     		bgt	.L151
 1324              	.L121:
 1325              		.loc 1 166 8 is_stmt 1 view .LVU265
 1326              		.loc 1 166 11 is_stmt 0 view .LVU266
 1327 00d0 DFED3F7A 		vldr.32	s15, .L153+36
 1328 00d4 B4EEE78A 		vcmpe.f32	s16, s15
 1329 00d8 F1EE10FA 		vmrs	APSR_nzcv, FPSCR
 1330 00dc 1EDD     		ble	.L105
 1331              		.loc 1 166 36 discriminator 1 view .LVU267
 1332 00de DFED357A 		vldr.32	s15, .L153+8
 1333 00e2 B4EEE78A 		vcmpe.f32	s16, s15
 1334 00e6 F1EE10FA 		vmrs	APSR_nzcv, FPSCR
 1335 00ea 17D8     		bhi	.L105
 1336              		.loc 1 167 4 is_stmt 1 view .LVU268
 1337 00ec 0121     		movs	r1, #1
 1338 00ee 0846     		mov	r0, r1
 1339 00f0 FFF7FEFF 		bl	e_set_led
 1340              	.LVL120:
 1341 00f4 12E0     		b	.L105
 1342              	.L146:
 1343              		.loc 1 154 36 is_stmt 0 discriminator 1 view .LVU269
 1344 00f6 DFED317A 		vldr.32	s15, .L153+16
 1345 00fa B4EEE78A 		vcmpe.f32	s16, s15
 1346 00fe F1EE10FA 		vmrs	APSR_nzcv, FPSCR
 1347 0102 C2D8     		bhi	.L106
 1348              		.loc 1 155 4 is_stmt 1 view .LVU270
 1349 0104 0121     		movs	r1, #1
 1350 0106 0720     		movs	r0, #7
 1351 0108 FFF7FEFF 		bl	e_set_led
 1352              	.LVL121:
 1353 010c 06E0     		b	.L105
 1354              	.L128:
 1355              		.loc 1 152 61 is_stmt 0 discriminator 1 view .LVU271
 1356 010e DFED317A 		vldr.32	s15, .L153+40
 1357 0112 B4EE678A 		vcmp.f32	s16, s15
 1358 0116 F1EE10FA 		vmrs	APSR_nzcv, FPSCR
 1359 011a 1CD1     		bne	.L152
 1360              	.L105:
 1361              		.loc 1 168 3 is_stmt 1 view .LVU272
 1362              		.loc 1 168 13 is_stmt 0 view .LVU273
 1363 011c BDEEC88A 		vcvt.s32.f32	s16, s16
 1364              	.LVL122:
 1365              		.loc 1 168 13 view .LVU274
 1366 0120 84ED008A 		vstr.32	s16, [r4]	@ int
 1367              		.loc 1 170 1 view .LVU275
 1368 0124 90E7     		b	.L100
ARM GAS  /tmp/ccpG2h7U.s 			page 25


 1369              	.LVL123:
 1370              	.L147:
 1371              		.loc 1 156 36 discriminator 1 view .LVU276
 1372 0126 DFED267A 		vldr.32	s15, .L153+20
 1373 012a B4EEE78A 		vcmpe.f32	s16, s15
 1374 012e F1EE10FA 		vmrs	APSR_nzcv, FPSCR
 1375 0132 B1D8     		bhi	.L109
 1376              		.loc 1 157 4 is_stmt 1 view .LVU277
 1377 0134 0121     		movs	r1, #1
 1378 0136 0620     		movs	r0, #6
 1379 0138 FFF7FEFF 		bl	e_set_led
 1380              	.LVL124:
 1381 013c EEE7     		b	.L105
 1382              	.L148:
 1383              		.loc 1 158 36 is_stmt 0 discriminator 1 view .LVU278
 1384 013e DFED217A 		vldr.32	s15, .L153+24
 1385 0142 B4EEE78A 		vcmpe.f32	s16, s15
 1386 0146 F1EE10FA 		vmrs	APSR_nzcv, FPSCR
 1387 014a ACD8     		bhi	.L112
 1388              		.loc 1 159 4 is_stmt 1 view .LVU279
 1389 014c 0121     		movs	r1, #1
 1390 014e 0520     		movs	r0, #5
 1391 0150 FFF7FEFF 		bl	e_set_led
 1392              	.LVL125:
 1393 0154 E2E7     		b	.L105
 1394              	.L152:
 1395              		.loc 1 153 4 view .LVU280
 1396 0156 0121     		movs	r1, #1
 1397 0158 0020     		movs	r0, #0
 1398 015a FFF7FEFF 		bl	e_set_led
 1399              	.LVL126:
 1400 015e DDE7     		b	.L105
 1401              	.L149:
 1402              		.loc 1 160 36 is_stmt 0 discriminator 1 view .LVU281
 1403 0160 DFED197A 		vldr.32	s15, .L153+28
 1404 0164 B4EEE78A 		vcmpe.f32	s16, s15
 1405 0168 F1EE10FA 		vmrs	APSR_nzcv, FPSCR
 1406 016c A2D8     		bhi	.L115
 1407              		.loc 1 161 4 is_stmt 1 view .LVU282
 1408 016e 0121     		movs	r1, #1
 1409 0170 0420     		movs	r0, #4
 1410 0172 FFF7FEFF 		bl	e_set_led
 1411              	.LVL127:
 1412 0176 D1E7     		b	.L105
 1413              	.L150:
 1414              		.loc 1 162 36 is_stmt 0 discriminator 1 view .LVU283
 1415 0178 DFED147A 		vldr.32	s15, .L153+32
 1416 017c B4EEE78A 		vcmpe.f32	s16, s15
 1417 0180 F1EE10FA 		vmrs	APSR_nzcv, FPSCR
 1418 0184 9DD8     		bhi	.L118
 1419              		.loc 1 163 4 is_stmt 1 view .LVU284
 1420 0186 0121     		movs	r1, #1
 1421 0188 0320     		movs	r0, #3
 1422 018a FFF7FEFF 		bl	e_set_led
 1423              	.LVL128:
 1424 018e C5E7     		b	.L105
 1425              	.L151:
ARM GAS  /tmp/ccpG2h7U.s 			page 26


 1426              		.loc 1 164 36 is_stmt 0 discriminator 1 view .LVU285
 1427 0190 DFED0F7A 		vldr.32	s15, .L153+36
 1428 0194 B4EEE78A 		vcmpe.f32	s16, s15
 1429 0198 F1EE10FA 		vmrs	APSR_nzcv, FPSCR
 1430 019c 98D8     		bhi	.L121
 1431              		.loc 1 165 4 is_stmt 1 view .LVU286
 1432 019e 0121     		movs	r1, #1
 1433 01a0 0220     		movs	r0, #2
 1434 01a2 FFF7FEFF 		bl	e_set_led
 1435              	.LVL129:
 1436 01a6 B9E7     		b	.L105
 1437              	.LVL130:
 1438              	.L145:
 1439              		.loc 1 170 1 is_stmt 0 view .LVU287
 1440 01a8 FFF7FEFF 		bl	__stack_chk_fail
 1441              	.LVL131:
 1442              	.L154:
 1443              		.align	2
 1444              	.L153:
 1445 01ac 00000000 		.word	.LC11
 1446 01b0 00000000 		.word	.LANCHOR0
 1447 01b4 00C0A843 		.word	1135132672
 1448 01b8 0000B441 		.word	1102315520
 1449 01bc 00008742 		.word	1116143616
 1450 01c0 0000E142 		.word	1122041856
 1451 01c4 00801D43 		.word	1126006784
 1452 01c8 00804A43 		.word	1128955904
 1453 01cc 00807743 		.word	1131905024
 1454 01d0 00409243 		.word	1133658112
 1455 01d4 00802644 		.word	1143373824
 1456              		.cfi_endproc
 1457              	.LFE267:
 1458              		.size	e_display_angle, .-e_display_angle
 1459              		.section	.bss.angle_mem,"aw",%nobits
 1460              		.align	2
 1461              		.set	.LANCHOR0,. + 0
 1462              		.type	angle_mem, %object
 1463              		.size	angle_mem, 4
 1464              	angle_mem:
 1465 0000 00000000 		.space	4
 1466              		.text
 1467              	.Letext0:
 1468              		.file 2 "/usr/lib/gcc/arm-none-eabi/9.2.1/include/stddef.h"
 1469              		.file 3 "/usr/include/newlib/sys/_types.h"
 1470              		.file 4 "/usr/include/newlib/sys/reent.h"
 1471              		.file 5 "/usr/include/newlib/sys/lock.h"
 1472              		.file 6 "/usr/include/newlib/math.h"
 1473              		.file 7 ".//src/epuck1x/a_d/advance_ad_scan/e_acc.h"
 1474              		.file 8 "/usr/lib/gcc/arm-none-eabi/9.2.1/include/stdint.h"
 1475              		.file 9 ".//ChibiOS//os/rt/ports/ARMCMx/compilers/GCC/chtypes.h"
 1476              		.file 10 ".//ChibiOS//os/rt/include/chsystypes.h"
 1477              		.file 11 ".//ChibiOS//os/rt/include/chschd.h"
 1478              		.file 12 ".//ChibiOS//os/ext/CMSIS/include/core_cm4.h"
 1479              		.file 13 ".//ChibiOS//os/ext/CMSIS/ST/system_stm32f4xx.h"
 1480              		.file 14 ".//ChibiOS//os/ext/CMSIS/ST/stm32f407xx.h"
 1481              		.file 15 ".//ChibiOS//os/rt/ports/ARMCMx/chcore.h"
 1482              		.file 16 ".//ChibiOS//os/rt/ports/ARMCMx/chcore_v7m.h"
ARM GAS  /tmp/ccpG2h7U.s 			page 27


 1483              		.file 17 ".//ChibiOS//os/rt/include/chdebug.h"
 1484              		.file 18 ".//ChibiOS//os/rt/include/chtm.h"
 1485              		.file 19 ".//ChibiOS//os/rt/include/chstats.h"
 1486              		.file 20 ".//ChibiOS//os/rt/include/chsem.h"
 1487              		.file 21 ".//ChibiOS//os/rt/include/chmtx.h"
 1488              		.file 22 ".//ChibiOS//os/rt/include/chregistry.h"
 1489              		.file 23 ".//ChibiOS//os/rt/include/chevents.h"
 1490              		.file 24 ".//ChibiOS//os/rt/include/chqueues.h"
 1491              		.file 25 ".//ChibiOS//os/hal/ports/STM32/STM32F4xx/stm32_dma.h"
 1492              		.file 26 ".//ChibiOS//os/hal/include/hal_ioblock.h"
 1493              		.file 27 ".//ChibiOS//os/hal/ports/STM32/LLD/GPIOv2/pal_lld.h"
 1494              		.file 28 ".//ChibiOS//os/hal/include/adc.h"
 1495              		.file 29 ".//ChibiOS//os/hal/ports/STM32/STM32F4xx/adc_lld.h"
 1496              		.file 30 ".//ChibiOS//os/hal/include/can.h"
 1497              		.file 31 ".//ChibiOS//os/hal/ports/STM32/LLD/can_lld.h"
 1498              		.file 32 ".//ChibiOS//os/hal/include/dac.h"
 1499              		.file 33 ".//ChibiOS//os/hal/ports/STM32/LLD/DACv1/dac_lld.h"
 1500              		.file 34 ".//ChibiOS//os/hal/include/ext.h"
 1501              		.file 35 ".//ChibiOS//os/hal/ports/STM32/LLD/ext_lld.h"
 1502              		.file 36 ".//ChibiOS//os/hal/include/gpt.h"
 1503              		.file 37 ".//ChibiOS//os/hal/ports/STM32/LLD/TIMv1/gpt_lld.h"
 1504              		.file 38 ".//ChibiOS//os/hal/ports/STM32/LLD/TIMv1/stm32_tim.h"
 1505              		.file 39 ".//ChibiOS//os/hal/include/i2c.h"
 1506              		.file 40 ".//ChibiOS//os/hal/ports/STM32/LLD/I2Cv1/i2c_lld.h"
 1507              		.file 41 ".//ChibiOS//os/hal/include/i2s.h"
 1508              		.file 42 ".//ChibiOS//os/hal/ports/STM32/LLD/SPIv1/i2s_lld.h"
 1509              		.file 43 ".//ChibiOS//os/hal/include/pwm.h"
 1510              		.file 44 ".//ChibiOS//os/hal/ports/STM32/LLD/TIMv1/pwm_lld.h"
 1511              		.file 45 ".//ChibiOS//os/hal/include/serial.h"
 1512              		.file 46 ".//ChibiOS//os/hal/ports/STM32/LLD/USARTv1/serial_lld.h"
 1513              		.file 47 ".//ChibiOS//os/hal/include/sdc.h"
 1514              		.file 48 ".//ChibiOS//os/hal/ports/STM32/LLD/sdc_lld.h"
 1515              		.file 49 ".//ChibiOS//os/hal/include/spi.h"
 1516              		.file 50 ".//ChibiOS//os/hal/ports/STM32/LLD/SPIv1/spi_lld.h"
 1517              		.file 51 ".//ChibiOS//os/hal/include/usb.h"
 1518              		.file 52 ".//ChibiOS//os/hal/ports/STM32/LLD/OTGv1/usb_lld.h"
 1519              		.file 53 ".//ChibiOS//os/hal/ports/STM32/LLD/OTGv1/stm32_otg.h"
 1520              		.file 54 "/usr/include/newlib/stdlib.h"
 1521              		.file 55 ".//src/epuck1x/motor_led/advance_one_timer/e_led.h"
 1522              		.file 56 ".//src/sensors/imu.h"