ARM GAS  /tmp/ccWdBoTf.s 			page 1


   1              		.cpu cortex-m4
   2              		.eabi_attribute 27, 1
   3              		.eabi_attribute 28, 1
   4              		.eabi_attribute 20, 1
   5              		.eabi_attribute 21, 1
   6              		.eabi_attribute 23, 3
   7              		.eabi_attribute 24, 1
   8              		.eabi_attribute 25, 1
   9              		.eabi_attribute 26, 1
  10              		.eabi_attribute 30, 2
  11              		.eabi_attribute 34, 1
  12              		.eabi_attribute 18, 4
  13              		.file	"e_ad_conv.c"
  14              		.text
  15              	.Ltext0:
  16              		.cfi_sections	.debug_frame
  17              		.section	.rodata.e_init_ad_scan.cst4,"aM",%progbits,4
  18              		.align	2
  19              	.LC0:
  20 0000 00000000 		.word	__stack_chk_guard
  21              		.section	.text.e_init_ad_scan,"ax",%progbits
  22              		.align	1
  23              		.p2align 4,,15
  24              		.global	e_init_ad_scan
  25              		.arch armv7e-m
  26              		.syntax unified
  27              		.thumb
  28              		.thumb_func
  29              		.fpu fpv4-sp-d16
  30              		.type	e_init_ad_scan, %function
  31              	e_init_ad_scan:
  32              	.LVL0:
  33              	.LFB256:
  34              		.file 1 ".//src/epuck1x/a_d/advance_ad_scan/e_ad_conv.c"
  35              		.loc 1 11 1 view -0
  36              		.cfi_startproc
  37              		@ args = 0, pretend = 0, frame = 8
  38              		@ frame_needed = 0, uses_anonymous_args = 0
  39              		.loc 1 11 1 is_stmt 0 view .LVU1
  40 0000 00B5     		push	{lr}
  41              		.cfi_def_cfa_offset 4
  42              		.cfi_offset 14, -4
  43 0002 0D4B     		ldr	r3, .L6
  44 0004 83B0     		sub	sp, sp, #12
  45              		.cfi_def_cfa_offset 16
  46              		.loc 1 11 1 view .LVU2
  47 0006 1B68     		ldr	r3, [r3]
  48 0008 0193     		str	r3, [sp, #4]
  49 000a 4FF00003 		mov	r3,#0
  50              		.loc 1 12 2 is_stmt 1 view .LVU3
  51              		.loc 1 13 2 view .LVU4
  52 000e FFF7FEFF 		bl	proximity_start
  53              	.LVL1:
  54              		.loc 1 14 2 view .LVU5
  55 0012 FFF7FEFF 		bl	imu_start
  56              	.LVL2:
  57              		.loc 1 15 2 view .LVU6
ARM GAS  /tmp/ccWdBoTf.s 			page 2


  58 0016 0020     		movs	r0, #0
  59 0018 FFF7FEFF 		bl	mic_start
  60              	.LVL3:
  61              		.loc 1 16 2 view .LVU7
  62              		.loc 1 16 15 is_stmt 0 view .LVU8
  63 001c FFF7FEFF 		bl	mic_get_buffer_ptr
  64              	.LVL4:
  65              		.loc 1 16 13 view .LVU9
  66 0020 064B     		ldr	r3, .L6+4
  67 0022 1860     		str	r0, [r3]
  68              		.loc 1 17 1 view .LVU10
  69 0024 044B     		ldr	r3, .L6
  70 0026 1A68     		ldr	r2, [r3]
  71 0028 019B     		ldr	r3, [sp, #4]
  72 002a 5A40     		eors	r2, r3, r2
  73 002c 02D1     		bne	.L5
  74 002e 03B0     		add	sp, sp, #12
  75              		.cfi_remember_state
  76              		.cfi_def_cfa_offset 4
  77              		@ sp needed
  78 0030 5DF804FB 		ldr	pc, [sp], #4
  79              	.L5:
  80              		.cfi_restore_state
  81 0034 FFF7FEFF 		bl	__stack_chk_fail
  82              	.LVL5:
  83              	.L7:
  84              		.align	2
  85              	.L6:
  86 0038 00000000 		.word	.LC0
  87 003c 00000000 		.word	.LANCHOR0
  88              		.cfi_endproc
  89              	.LFE256:
  90              		.size	e_init_ad_scan, .-e_init_ad_scan
  91              		.section	.rodata.e_ad_is_acquisition_completed.cst4,"aM",%progbits,4
  92              		.align	2
  93              	.LC1:
  94 0000 00000000 		.word	__stack_chk_guard
  95              		.section	.text.e_ad_is_acquisition_completed,"ax",%progbits
  96              		.align	1
  97              		.p2align 4,,15
  98              		.global	e_ad_is_acquisition_completed
  99              		.syntax unified
 100              		.thumb
 101              		.thumb_func
 102              		.fpu fpv4-sp-d16
 103              		.type	e_ad_is_acquisition_completed, %function
 104              	e_ad_is_acquisition_completed:
 105              	.LFB262:
 106              		.cfi_startproc
 107              		@ args = 0, pretend = 0, frame = 8
 108              		@ frame_needed = 0, uses_anonymous_args = 0
 109 0000 00B5     		push	{lr}
 110              		.cfi_def_cfa_offset 4
 111              		.cfi_offset 14, -4
 112 0002 084B     		ldr	r3, .L12
 113 0004 83B0     		sub	sp, sp, #12
 114              		.cfi_def_cfa_offset 16
ARM GAS  /tmp/ccWdBoTf.s 			page 3


 115 0006 1B68     		ldr	r3, [r3]
 116 0008 0193     		str	r3, [sp, #4]
 117 000a 4FF00003 		mov	r3,#0
 118 000e 054B     		ldr	r3, .L12
 119 0010 1A68     		ldr	r2, [r3]
 120 0012 019B     		ldr	r3, [sp, #4]
 121 0014 5A40     		eors	r2, r3, r2
 122 0016 03D1     		bne	.L11
 123 0018 0120     		movs	r0, #1
 124 001a 03B0     		add	sp, sp, #12
 125              		.cfi_remember_state
 126              		.cfi_def_cfa_offset 4
 127              		@ sp needed
 128 001c 5DF804FB 		ldr	pc, [sp], #4
 129              	.L11:
 130              		.cfi_restore_state
 131 0020 FFF7FEFF 		bl	__stack_chk_fail
 132              	.L13:
 133              		.align	2
 134              	.L12:
 135 0024 00000000 		.word	.LC1
 136              		.cfi_endproc
 137              	.LFE262:
 138              		.size	e_ad_is_acquisition_completed, .-e_ad_is_acquisition_completed
 139              		.section	.rodata.e_ad_is_array_filled.cst4,"aM",%progbits,4
 140              		.align	2
 141              	.LC2:
 142 0000 00000000 		.word	__stack_chk_guard
 143              		.section	.text.e_ad_is_array_filled,"ax",%progbits
 144              		.align	1
 145              		.p2align 4,,15
 146              		.global	e_ad_is_array_filled
 147              		.syntax unified
 148              		.thumb
 149              		.thumb_func
 150              		.fpu fpv4-sp-d16
 151              		.type	e_ad_is_array_filled, %function
 152              	e_ad_is_array_filled:
 153              	.LFB258:
 154              		.loc 1 25 1 is_stmt 1 view -0
 155              		.cfi_startproc
 156              		@ args = 0, pretend = 0, frame = 8
 157              		@ frame_needed = 0, uses_anonymous_args = 0
 158              		.loc 1 25 1 is_stmt 0 view .LVU12
 159 0000 00B5     		push	{lr}
 160              		.cfi_def_cfa_offset 4
 161              		.cfi_offset 14, -4
 162 0002 084B     		ldr	r3, .L18
 163 0004 83B0     		sub	sp, sp, #12
 164              		.cfi_def_cfa_offset 16
 165              		.loc 1 25 1 view .LVU13
 166 0006 1B68     		ldr	r3, [r3]
 167 0008 0193     		str	r3, [sp, #4]
 168 000a 4FF00003 		mov	r3,#0
 169              		.loc 1 26 2 is_stmt 1 view .LVU14
 170              		.loc 1 27 1 is_stmt 0 view .LVU15
 171 000e 054B     		ldr	r3, .L18
ARM GAS  /tmp/ccWdBoTf.s 			page 4


 172 0010 1A68     		ldr	r2, [r3]
 173 0012 019B     		ldr	r3, [sp, #4]
 174 0014 5A40     		eors	r2, r3, r2
 175 0016 03D1     		bne	.L17
 176 0018 0120     		movs	r0, #1
 177 001a 03B0     		add	sp, sp, #12
 178              		.cfi_remember_state
 179              		.cfi_def_cfa_offset 4
 180              		@ sp needed
 181 001c 5DF804FB 		ldr	pc, [sp], #4
 182              	.L17:
 183              		.cfi_restore_state
 184 0020 FFF7FEFF 		bl	__stack_chk_fail
 185              	.LVL6:
 186              	.L19:
 187              		.align	2
 188              	.L18:
 189 0024 00000000 		.word	.LC2
 190              		.cfi_endproc
 191              	.LFE258:
 192              		.size	e_ad_is_array_filled, .-e_ad_is_array_filled
 193              		.section	.rodata.e_ad_scan_on.cst4,"aM",%progbits,4
 194              		.align	2
 195              	.LC3:
 196 0000 00000000 		.word	__stack_chk_guard
 197              		.section	.text.e_ad_scan_on,"ax",%progbits
 198              		.align	1
 199              		.p2align 4,,15
 200              		.global	e_ad_scan_on
 201              		.syntax unified
 202              		.thumb
 203              		.thumb_func
 204              		.fpu fpv4-sp-d16
 205              		.type	e_ad_scan_on, %function
 206              	e_ad_scan_on:
 207              	.LFB259:
 208              		.loc 1 30 1 is_stmt 1 view -0
 209              		.cfi_startproc
 210              		@ args = 0, pretend = 0, frame = 8
 211              		@ frame_needed = 0, uses_anonymous_args = 0
 212 0000 00B5     		push	{lr}
 213              		.cfi_def_cfa_offset 4
 214              		.cfi_offset 14, -4
 215 0002 084B     		ldr	r3, .L24
 216 0004 83B0     		sub	sp, sp, #12
 217              		.cfi_def_cfa_offset 16
 218              		.loc 1 30 1 is_stmt 0 view .LVU17
 219 0006 1B68     		ldr	r3, [r3]
 220 0008 0193     		str	r3, [sp, #4]
 221 000a 4FF00003 		mov	r3,#0
 222              		.loc 1 31 2 is_stmt 1 view .LVU18
 223              		.loc 1 32 1 is_stmt 0 view .LVU19
 224 000e 054B     		ldr	r3, .L24
 225 0010 1A68     		ldr	r2, [r3]
 226 0012 019B     		ldr	r3, [sp, #4]
 227 0014 5A40     		eors	r2, r3, r2
 228 0016 02D1     		bne	.L23
ARM GAS  /tmp/ccWdBoTf.s 			page 5


 229 0018 03B0     		add	sp, sp, #12
 230              		.cfi_remember_state
 231              		.cfi_def_cfa_offset 4
 232              		@ sp needed
 233 001a 5DF804FB 		ldr	pc, [sp], #4
 234              	.L23:
 235              		.cfi_restore_state
 236 001e FFF7FEFF 		bl	__stack_chk_fail
 237              	.LVL7:
 238              	.L25:
 239 0022 00BF     		.align	2
 240              	.L24:
 241 0024 00000000 		.word	.LC3
 242              		.cfi_endproc
 243              	.LFE259:
 244              		.size	e_ad_scan_on, .-e_ad_scan_on
 245              		.section	.rodata.e_ad_scan_off.cst4,"aM",%progbits,4
 246              		.align	2
 247              	.LC4:
 248 0000 00000000 		.word	__stack_chk_guard
 249              		.section	.text.e_ad_scan_off,"ax",%progbits
 250              		.align	1
 251              		.p2align 4,,15
 252              		.global	e_ad_scan_off
 253              		.syntax unified
 254              		.thumb
 255              		.thumb_func
 256              		.fpu fpv4-sp-d16
 257              		.type	e_ad_scan_off, %function
 258              	e_ad_scan_off:
 259              	.LFB264:
 260              		.cfi_startproc
 261              		@ args = 0, pretend = 0, frame = 8
 262              		@ frame_needed = 0, uses_anonymous_args = 0
 263 0000 00B5     		push	{lr}
 264              		.cfi_def_cfa_offset 4
 265              		.cfi_offset 14, -4
 266 0002 084B     		ldr	r3, .L30
 267 0004 83B0     		sub	sp, sp, #12
 268              		.cfi_def_cfa_offset 16
 269 0006 1B68     		ldr	r3, [r3]
 270 0008 0193     		str	r3, [sp, #4]
 271 000a 4FF00003 		mov	r3,#0
 272 000e 054B     		ldr	r3, .L30
 273 0010 1A68     		ldr	r2, [r3]
 274 0012 019B     		ldr	r3, [sp, #4]
 275 0014 5A40     		eors	r2, r3, r2
 276 0016 02D1     		bne	.L29
 277 0018 03B0     		add	sp, sp, #12
 278              		.cfi_remember_state
 279              		.cfi_def_cfa_offset 4
 280              		@ sp needed
 281 001a 5DF804FB 		ldr	pc, [sp], #4
 282              	.L29:
 283              		.cfi_restore_state
 284 001e FFF7FEFF 		bl	__stack_chk_fail
 285              	.L31:
ARM GAS  /tmp/ccWdBoTf.s 			page 6


 286 0022 00BF     		.align	2
 287              	.L30:
 288 0024 00000000 		.word	.LC4
 289              		.cfi_endproc
 290              	.LFE264:
 291              		.size	e_ad_scan_off, .-e_ad_scan_off
 292              		.global	e_last_mic_scan_id
 293              		.global	e_mic_scan
 294              		.section	.bss.e_mic_scan,"aw",%nobits
 295              		.align	2
 296              		.set	.LANCHOR0,. + 0
 297              		.type	e_mic_scan, %object
 298              		.size	e_mic_scan, 4
 299              	e_mic_scan:
 300 0000 00000000 		.space	4
 301              		.section	.data.e_last_mic_scan_id,"aw"
 302              		.align	2
 303              		.type	e_last_mic_scan_id, %object
 304              		.size	e_last_mic_scan_id, 4
 305              	e_last_mic_scan_id:
 306 0000 9F000000 		.word	159
 307              		.text
 308              	.Letext0:
 309              		.file 2 "/usr/lib/gcc/arm-none-eabi/9.2.1/include/stddef.h"
 310              		.file 3 "/usr/lib/gcc/arm-none-eabi/9.2.1/include/stdint.h"
 311              		.file 4 ".//ChibiOS//os/rt/ports/ARMCMx/compilers/GCC/chtypes.h"
 312              		.file 5 ".//ChibiOS//os/rt/include/chsystypes.h"
 313              		.file 6 ".//ChibiOS//os/rt/include/chschd.h"
 314              		.file 7 ".//ChibiOS//os/ext/CMSIS/include/core_cm4.h"
 315              		.file 8 ".//ChibiOS//os/ext/CMSIS/ST/system_stm32f4xx.h"
 316              		.file 9 ".//ChibiOS//os/ext/CMSIS/ST/stm32f407xx.h"
 317              		.file 10 ".//ChibiOS//os/rt/ports/ARMCMx/chcore.h"
 318              		.file 11 ".//ChibiOS//os/rt/ports/ARMCMx/chcore_v7m.h"
 319              		.file 12 ".//ChibiOS//os/rt/include/chdebug.h"
 320              		.file 13 ".//ChibiOS//os/rt/include/chtm.h"
 321              		.file 14 ".//ChibiOS//os/rt/include/chstats.h"
 322              		.file 15 ".//ChibiOS//os/rt/include/chsem.h"
 323              		.file 16 ".//ChibiOS//os/rt/include/chmtx.h"
 324              		.file 17 ".//ChibiOS//os/rt/include/chregistry.h"
 325              		.file 18 ".//ChibiOS//os/rt/include/chevents.h"
 326              		.file 19 ".//ChibiOS//os/rt/include/chqueues.h"
 327              		.file 20 ".//ChibiOS//os/hal/ports/STM32/STM32F4xx/stm32_dma.h"
 328              		.file 21 ".//ChibiOS//os/hal/include/hal_ioblock.h"
 329              		.file 22 ".//ChibiOS//os/hal/ports/STM32/LLD/GPIOv2/pal_lld.h"
 330              		.file 23 ".//ChibiOS//os/hal/include/adc.h"
 331              		.file 24 ".//ChibiOS//os/hal/ports/STM32/STM32F4xx/adc_lld.h"
 332              		.file 25 ".//ChibiOS//os/hal/include/can.h"
 333              		.file 26 ".//ChibiOS//os/hal/ports/STM32/LLD/can_lld.h"
 334              		.file 27 ".//ChibiOS//os/hal/include/dac.h"
 335              		.file 28 ".//ChibiOS//os/hal/ports/STM32/LLD/DACv1/dac_lld.h"
 336              		.file 29 ".//ChibiOS//os/hal/include/ext.h"
 337              		.file 30 ".//ChibiOS//os/hal/ports/STM32/LLD/ext_lld.h"
 338              		.file 31 ".//ChibiOS//os/hal/include/gpt.h"
 339              		.file 32 ".//ChibiOS//os/hal/ports/STM32/LLD/TIMv1/gpt_lld.h"
 340              		.file 33 ".//ChibiOS//os/hal/ports/STM32/LLD/TIMv1/stm32_tim.h"
 341              		.file 34 ".//ChibiOS//os/hal/include/i2c.h"
 342              		.file 35 ".//ChibiOS//os/hal/ports/STM32/LLD/I2Cv1/i2c_lld.h"
ARM GAS  /tmp/ccWdBoTf.s 			page 7


 343              		.file 36 ".//ChibiOS//os/hal/include/i2s.h"
 344              		.file 37 ".//ChibiOS//os/hal/ports/STM32/LLD/SPIv1/i2s_lld.h"
 345              		.file 38 ".//ChibiOS//os/hal/include/pwm.h"
 346              		.file 39 ".//ChibiOS//os/hal/ports/STM32/LLD/TIMv1/pwm_lld.h"
 347              		.file 40 ".//ChibiOS//os/hal/include/serial.h"
 348              		.file 41 ".//ChibiOS//os/hal/ports/STM32/LLD/USARTv1/serial_lld.h"
 349              		.file 42 ".//ChibiOS//os/hal/include/sdc.h"
 350              		.file 43 ".//ChibiOS//os/hal/ports/STM32/LLD/sdc_lld.h"
 351              		.file 44 ".//ChibiOS//os/hal/include/spi.h"
 352              		.file 45 ".//ChibiOS//os/hal/ports/STM32/LLD/SPIv1/spi_lld.h"
 353              		.file 46 ".//ChibiOS//os/hal/include/usb.h"
 354              		.file 47 ".//ChibiOS//os/hal/ports/STM32/LLD/OTGv1/usb_lld.h"
 355              		.file 48 ".//ChibiOS//os/hal/ports/STM32/LLD/OTGv1/stm32_otg.h"
 356              		.file 49 ".//src/sensors/proximity.h"
 357              		.file 50 ".//src/sensors/imu.h"
 358              		.file 51 ".//src/audio/microphone.h"