ARM GAS  /tmp/cco0COHg.s 			page 1


   1              		.cpu cortex-m4
   2              		.eabi_attribute 27, 1
   3              		.eabi_attribute 28, 1
   4              		.eabi_attribute 20, 1
   5              		.eabi_attribute 21, 1
   6              		.eabi_attribute 23, 3
   7              		.eabi_attribute 24, 1
   8              		.eabi_attribute 25, 1
   9              		.eabi_attribute 26, 1
  10              		.eabi_attribute 30, 2
  11              		.eabi_attribute 34, 1
  12              		.eabi_attribute 18, 4
  13              		.file	"e_agenda.c"
  14              		.text
  15              	.Ltext0:
  16              		.cfi_sections	.debug_frame
  17              		.section	.rodata.e_start_agendas_processing.cst4,"aM",%progbits,4
  18              		.align	2
  19              	.LC0:
  20 0000 00000000 		.word	__stack_chk_guard
  21              		.section	.text.e_start_agendas_processing,"ax",%progbits
  22              		.align	1
  23              		.p2align 4,,15
  24              		.global	e_start_agendas_processing
  25              		.arch armv7e-m
  26              		.syntax unified
  27              		.thumb
  28              		.thumb_func
  29              		.fpu fpv4-sp-d16
  30              		.type	e_start_agendas_processing, %function
  31              	e_start_agendas_processing:
  32              	.LFB0:
  33              		.file 1 ".//src/epuck1x/motor_led/advance_one_timer/e_agenda.c"
  34              		.loc 1 49 1 view -0
  35              		.cfi_startproc
  36              		@ args = 0, pretend = 0, frame = 8
  37              		@ frame_needed = 0, uses_anonymous_args = 0
  38 0000 00B5     		push	{lr}
  39              		.cfi_def_cfa_offset 4
  40              		.cfi_offset 14, -4
  41 0002 084B     		ldr	r3, .L6
  42 0004 83B0     		sub	sp, sp, #12
  43              		.cfi_def_cfa_offset 16
  44              		.loc 1 49 1 is_stmt 0 view .LVU1
  45 0006 1B68     		ldr	r3, [r3]
  46 0008 0193     		str	r3, [sp, #4]
  47 000a 4FF00003 		mov	r3,#0
  48              		.loc 1 57 1 is_stmt 1 view .LVU2
  49 000e 054B     		ldr	r3, .L6
  50 0010 1A68     		ldr	r2, [r3]
  51 0012 019B     		ldr	r3, [sp, #4]
  52 0014 5A40     		eors	r2, r3, r2
  53 0016 02D1     		bne	.L5
  54 0018 03B0     		add	sp, sp, #12
  55              		.cfi_remember_state
  56              		.cfi_def_cfa_offset 4
  57              		@ sp needed
ARM GAS  /tmp/cco0COHg.s 			page 2


  58 001a 5DF804FB 		ldr	pc, [sp], #4
  59              	.L5:
  60              		.cfi_restore_state
  61 001e FFF7FEFF 		bl	__stack_chk_fail
  62              	.LVL0:
  63              	.L7:
  64 0022 00BF     		.align	2
  65              	.L6:
  66 0024 00000000 		.word	.LC0
  67              		.cfi_endproc
  68              	.LFE0:
  69              		.size	e_start_agendas_processing, .-e_start_agendas_processing
  70              		.section	.rodata.e_end_agendas_processing.cst4,"aM",%progbits,4
  71              		.align	2
  72              	.LC1:
  73 0000 00000000 		.word	__stack_chk_guard
  74              		.section	.text.e_end_agendas_processing,"ax",%progbits
  75              		.align	1
  76              		.p2align 4,,15
  77              		.global	e_end_agendas_processing
  78              		.syntax unified
  79              		.thumb
  80              		.thumb_func
  81              		.fpu fpv4-sp-d16
  82              		.type	e_end_agendas_processing, %function
  83              	e_end_agendas_processing:
  84              	.LFB9:
  85              		.cfi_startproc
  86              		@ args = 0, pretend = 0, frame = 8
  87              		@ frame_needed = 0, uses_anonymous_args = 0
  88 0000 00B5     		push	{lr}
  89              		.cfi_def_cfa_offset 4
  90              		.cfi_offset 14, -4
  91 0002 084B     		ldr	r3, .L12
  92 0004 83B0     		sub	sp, sp, #12
  93              		.cfi_def_cfa_offset 16
  94 0006 1B68     		ldr	r3, [r3]
  95 0008 0193     		str	r3, [sp, #4]
  96 000a 4FF00003 		mov	r3,#0
  97 000e 054B     		ldr	r3, .L12
  98 0010 1A68     		ldr	r2, [r3]
  99 0012 019B     		ldr	r3, [sp, #4]
 100 0014 5A40     		eors	r2, r3, r2
 101 0016 02D1     		bne	.L11
 102 0018 03B0     		add	sp, sp, #12
 103              		.cfi_remember_state
 104              		.cfi_def_cfa_offset 4
 105              		@ sp needed
 106 001a 5DF804FB 		ldr	pc, [sp], #4
 107              	.L11:
 108              		.cfi_restore_state
 109 001e FFF7FEFF 		bl	__stack_chk_fail
 110              	.L13:
 111 0022 00BF     		.align	2
 112              	.L12:
 113 0024 00000000 		.word	.LC1
 114              		.cfi_endproc
ARM GAS  /tmp/cco0COHg.s 			page 3


 115              	.LFE9:
 116              		.size	e_end_agendas_processing, .-e_end_agendas_processing
 117              		.section	.rodata.e_activate_agenda.cst4,"aM",%progbits,4
 118              		.align	2
 119              	.LC2:
 120 0000 00000000 		.word	__stack_chk_guard
 121              		.section	.text.e_activate_agenda,"ax",%progbits
 122              		.align	1
 123              		.p2align 4,,15
 124              		.global	e_activate_agenda
 125              		.syntax unified
 126              		.thumb
 127              		.thumb_func
 128              		.fpu fpv4-sp-d16
 129              		.type	e_activate_agenda, %function
 130              	e_activate_agenda:
 131              	.LVL1:
 132              	.LFB2:
 133              		.loc 1 84 1 view -0
 134              		.cfi_startproc
 135              		@ args = 0, pretend = 0, frame = 8
 136              		@ frame_needed = 0, uses_anonymous_args = 0
 137              		.loc 1 84 1 is_stmt 0 view .LVU4
 138 0000 00B5     		push	{lr}
 139              		.cfi_def_cfa_offset 4
 140              		.cfi_offset 14, -4
 141 0002 084B     		ldr	r3, .L18
 142 0004 83B0     		sub	sp, sp, #12
 143              		.cfi_def_cfa_offset 16
 144              		.loc 1 84 1 view .LVU5
 145 0006 1B68     		ldr	r3, [r3]
 146 0008 0193     		str	r3, [sp, #4]
 147 000a 4FF00003 		mov	r3,#0
 148              		.loc 1 85 2 is_stmt 1 view .LVU6
 149              		.loc 1 86 2 view .LVU7
 150              		.loc 1 108 2 view .LVU8
 151              		.loc 1 109 1 is_stmt 0 view .LVU9
 152 000e 054B     		ldr	r3, .L18
 153 0010 1A68     		ldr	r2, [r3]
 154 0012 019B     		ldr	r3, [sp, #4]
 155 0014 5A40     		eors	r2, r3, r2
 156 0016 03D1     		bne	.L17
 157 0018 0020     		movs	r0, #0
 158              	.LVL2:
 159              		.loc 1 109 1 view .LVU10
 160 001a 03B0     		add	sp, sp, #12
 161              		.cfi_remember_state
 162              		.cfi_def_cfa_offset 4
 163              		@ sp needed
 164 001c 5DF804FB 		ldr	pc, [sp], #4
 165              	.LVL3:
 166              	.L17:
 167              		.cfi_restore_state
 168              		.loc 1 109 1 view .LVU11
 169 0020 FFF7FEFF 		bl	__stack_chk_fail
 170              	.LVL4:
 171              	.L19:
ARM GAS  /tmp/cco0COHg.s 			page 4


 172              		.loc 1 109 1 view .LVU12
 173              		.align	2
 174              	.L18:
 175 0024 00000000 		.word	.LC2
 176              		.cfi_endproc
 177              	.LFE2:
 178              		.size	e_activate_agenda, .-e_activate_agenda
 179              		.section	.rodata.e_destroy_agenda.cst4,"aM",%progbits,4
 180              		.align	2
 181              	.LC3:
 182 0000 00000000 		.word	__stack_chk_guard
 183              		.section	.text.e_destroy_agenda,"ax",%progbits
 184              		.align	1
 185              		.p2align 4,,15
 186              		.global	e_destroy_agenda
 187              		.syntax unified
 188              		.thumb
 189              		.thumb_func
 190              		.fpu fpv4-sp-d16
 191              		.type	e_destroy_agenda, %function
 192              	e_destroy_agenda:
 193              	.LVL5:
 194              	.LFB3:
 195              		.loc 1 119 1 is_stmt 1 view -0
 196              		.cfi_startproc
 197              		@ args = 0, pretend = 0, frame = 8
 198              		@ frame_needed = 0, uses_anonymous_args = 0
 199              		.loc 1 119 1 is_stmt 0 view .LVU14
 200 0000 00B5     		push	{lr}
 201              		.cfi_def_cfa_offset 4
 202              		.cfi_offset 14, -4
 203 0002 084B     		ldr	r3, .L24
 204 0004 83B0     		sub	sp, sp, #12
 205              		.cfi_def_cfa_offset 16
 206              		.loc 1 119 1 view .LVU15
 207 0006 1B68     		ldr	r3, [r3]
 208 0008 0193     		str	r3, [sp, #4]
 209 000a 4FF00003 		mov	r3,#0
 210              		.loc 1 120 2 is_stmt 1 view .LVU16
 211              		.loc 1 144 2 view .LVU17
 212              		.loc 1 145 1 is_stmt 0 view .LVU18
 213 000e 054B     		ldr	r3, .L24
 214 0010 1A68     		ldr	r2, [r3]
 215 0012 019B     		ldr	r3, [sp, #4]
 216 0014 5A40     		eors	r2, r3, r2
 217 0016 03D1     		bne	.L23
 218 0018 0020     		movs	r0, #0
 219              	.LVL6:
 220              		.loc 1 145 1 view .LVU19
 221 001a 03B0     		add	sp, sp, #12
 222              		.cfi_remember_state
 223              		.cfi_def_cfa_offset 4
 224              		@ sp needed
 225 001c 5DF804FB 		ldr	pc, [sp], #4
 226              	.LVL7:
 227              	.L23:
 228              		.cfi_restore_state
ARM GAS  /tmp/cco0COHg.s 			page 5


 229              		.loc 1 145 1 view .LVU20
 230 0020 FFF7FEFF 		bl	__stack_chk_fail
 231              	.LVL8:
 232              	.L25:
 233              		.loc 1 145 1 view .LVU21
 234              		.align	2
 235              	.L24:
 236 0024 00000000 		.word	.LC3
 237              		.cfi_endproc
 238              	.LFE3:
 239              		.size	e_destroy_agenda, .-e_destroy_agenda
 240              		.section	.rodata.e_set_agenda_cycle.cst4,"aM",%progbits,4
 241              		.align	2
 242              	.LC4:
 243 0000 00000000 		.word	__stack_chk_guard
 244              		.section	.text.e_set_agenda_cycle,"ax",%progbits
 245              		.align	1
 246              		.p2align 4,,15
 247              		.global	e_set_agenda_cycle
 248              		.syntax unified
 249              		.thumb
 250              		.thumb_func
 251              		.fpu fpv4-sp-d16
 252              		.type	e_set_agenda_cycle, %function
 253              	e_set_agenda_cycle:
 254              	.LFB11:
 255              		.cfi_startproc
 256              		@ args = 0, pretend = 0, frame = 8
 257              		@ frame_needed = 0, uses_anonymous_args = 0
 258 0000 00B5     		push	{lr}
 259              		.cfi_def_cfa_offset 4
 260              		.cfi_offset 14, -4
 261 0002 084B     		ldr	r3, .L30
 262 0004 83B0     		sub	sp, sp, #12
 263              		.cfi_def_cfa_offset 16
 264 0006 1B68     		ldr	r3, [r3]
 265 0008 0193     		str	r3, [sp, #4]
 266 000a 4FF00003 		mov	r3,#0
 267 000e 054B     		ldr	r3, .L30
 268 0010 1A68     		ldr	r2, [r3]
 269 0012 019B     		ldr	r3, [sp, #4]
 270 0014 5A40     		eors	r2, r3, r2
 271 0016 03D1     		bne	.L29
 272 0018 0020     		movs	r0, #0
 273 001a 03B0     		add	sp, sp, #12
 274              		.cfi_remember_state
 275              		.cfi_def_cfa_offset 4
 276              		@ sp needed
 277 001c 5DF804FB 		ldr	pc, [sp], #4
 278              	.L29:
 279              		.cfi_restore_state
 280 0020 FFF7FEFF 		bl	__stack_chk_fail
 281              	.L31:
 282              		.align	2
 283              	.L30:
 284 0024 00000000 		.word	.LC4
 285              		.cfi_endproc
ARM GAS  /tmp/cco0COHg.s 			page 6


 286              	.LFE11:
 287              		.size	e_set_agenda_cycle, .-e_set_agenda_cycle
 288              		.section	.rodata.e_reset_agenda.cst4,"aM",%progbits,4
 289              		.align	2
 290              	.LC5:
 291 0000 00000000 		.word	__stack_chk_guard
 292              		.section	.text.e_reset_agenda,"ax",%progbits
 293              		.align	1
 294              		.p2align 4,,15
 295              		.global	e_reset_agenda
 296              		.syntax unified
 297              		.thumb
 298              		.thumb_func
 299              		.fpu fpv4-sp-d16
 300              		.type	e_reset_agenda, %function
 301              	e_reset_agenda:
 302              	.LFB13:
 303              		.cfi_startproc
 304              		@ args = 0, pretend = 0, frame = 8
 305              		@ frame_needed = 0, uses_anonymous_args = 0
 306 0000 00B5     		push	{lr}
 307              		.cfi_def_cfa_offset 4
 308              		.cfi_offset 14, -4
 309 0002 084B     		ldr	r3, .L36
 310 0004 83B0     		sub	sp, sp, #12
 311              		.cfi_def_cfa_offset 16
 312 0006 1B68     		ldr	r3, [r3]
 313 0008 0193     		str	r3, [sp, #4]
 314 000a 4FF00003 		mov	r3,#0
 315 000e 054B     		ldr	r3, .L36
 316 0010 1A68     		ldr	r2, [r3]
 317 0012 019B     		ldr	r3, [sp, #4]
 318 0014 5A40     		eors	r2, r3, r2
 319 0016 03D1     		bne	.L35
 320 0018 0020     		movs	r0, #0
 321 001a 03B0     		add	sp, sp, #12
 322              		.cfi_remember_state
 323              		.cfi_def_cfa_offset 4
 324              		@ sp needed
 325 001c 5DF804FB 		ldr	pc, [sp], #4
 326              	.L35:
 327              		.cfi_restore_state
 328 0020 FFF7FEFF 		bl	__stack_chk_fail
 329              	.L37:
 330              		.align	2
 331              	.L36:
 332 0024 00000000 		.word	.LC5
 333              		.cfi_endproc
 334              	.LFE13:
 335              		.size	e_reset_agenda, .-e_reset_agenda
 336              		.section	.rodata.e_pause_agenda.cst4,"aM",%progbits,4
 337              		.align	2
 338              	.LC6:
 339 0000 00000000 		.word	__stack_chk_guard
 340              		.section	.text.e_pause_agenda,"ax",%progbits
 341              		.align	1
 342              		.p2align 4,,15
ARM GAS  /tmp/cco0COHg.s 			page 7


 343              		.global	e_pause_agenda
 344              		.syntax unified
 345              		.thumb
 346              		.thumb_func
 347              		.fpu fpv4-sp-d16
 348              		.type	e_pause_agenda, %function
 349              	e_pause_agenda:
 350              	.LFB15:
 351              		.cfi_startproc
 352              		@ args = 0, pretend = 0, frame = 8
 353              		@ frame_needed = 0, uses_anonymous_args = 0
 354 0000 00B5     		push	{lr}
 355              		.cfi_def_cfa_offset 4
 356              		.cfi_offset 14, -4
 357 0002 084B     		ldr	r3, .L42
 358 0004 83B0     		sub	sp, sp, #12
 359              		.cfi_def_cfa_offset 16
 360 0006 1B68     		ldr	r3, [r3]
 361 0008 0193     		str	r3, [sp, #4]
 362 000a 4FF00003 		mov	r3,#0
 363 000e 054B     		ldr	r3, .L42
 364 0010 1A68     		ldr	r2, [r3]
 365 0012 019B     		ldr	r3, [sp, #4]
 366 0014 5A40     		eors	r2, r3, r2
 367 0016 03D1     		bne	.L41
 368 0018 0020     		movs	r0, #0
 369 001a 03B0     		add	sp, sp, #12
 370              		.cfi_remember_state
 371              		.cfi_def_cfa_offset 4
 372              		@ sp needed
 373 001c 5DF804FB 		ldr	pc, [sp], #4
 374              	.L41:
 375              		.cfi_restore_state
 376 0020 FFF7FEFF 		bl	__stack_chk_fail
 377              	.L43:
 378              		.align	2
 379              	.L42:
 380 0024 00000000 		.word	.LC6
 381              		.cfi_endproc
 382              	.LFE15:
 383              		.size	e_pause_agenda, .-e_pause_agenda
 384              		.section	.rodata.e_restart_agenda.cst4,"aM",%progbits,4
 385              		.align	2
 386              	.LC7:
 387 0000 00000000 		.word	__stack_chk_guard
 388              		.section	.text.e_restart_agenda,"ax",%progbits
 389              		.align	1
 390              		.p2align 4,,15
 391              		.global	e_restart_agenda
 392              		.syntax unified
 393              		.thumb
 394              		.thumb_func
 395              		.fpu fpv4-sp-d16
 396              		.type	e_restart_agenda, %function
 397              	e_restart_agenda:
 398              	.LFB17:
 399              		.cfi_startproc
ARM GAS  /tmp/cco0COHg.s 			page 8


 400              		@ args = 0, pretend = 0, frame = 8
 401              		@ frame_needed = 0, uses_anonymous_args = 0
 402 0000 00B5     		push	{lr}
 403              		.cfi_def_cfa_offset 4
 404              		.cfi_offset 14, -4
 405 0002 084B     		ldr	r3, .L48
 406 0004 83B0     		sub	sp, sp, #12
 407              		.cfi_def_cfa_offset 16
 408 0006 1B68     		ldr	r3, [r3]
 409 0008 0193     		str	r3, [sp, #4]
 410 000a 4FF00003 		mov	r3,#0
 411 000e 054B     		ldr	r3, .L48
 412 0010 1A68     		ldr	r2, [r3]
 413 0012 019B     		ldr	r3, [sp, #4]
 414 0014 5A40     		eors	r2, r3, r2
 415 0016 03D1     		bne	.L47
 416 0018 0020     		movs	r0, #0
 417 001a 03B0     		add	sp, sp, #12
 418              		.cfi_remember_state
 419              		.cfi_def_cfa_offset 4
 420              		@ sp needed
 421 001c 5DF804FB 		ldr	pc, [sp], #4
 422              	.L47:
 423              		.cfi_restore_state
 424 0020 FFF7FEFF 		bl	__stack_chk_fail
 425              	.L49:
 426              		.align	2
 427              	.L48:
 428 0024 00000000 		.word	.LC7
 429              		.cfi_endproc
 430              	.LFE17:
 431              		.size	e_restart_agenda, .-e_restart_agenda
 432              		.text
 433              	.Letext0:
 434              		.file 2 "/usr/lib/gcc/arm-none-eabi/9.2.1/include/stddef.h"
 435              		.file 3 "/usr/include/newlib/sys/_types.h"
 436              		.file 4 "/usr/include/newlib/sys/reent.h"
 437              		.file 5 "/usr/include/newlib/sys/lock.h"
 438              		.file 6 "/usr/include/newlib/stdlib.h"