ARM GAS  /tmp/ccl33tiE.s 			page 1


   1              		.cpu cortex-m4
   2              		.eabi_attribute 27, 1
   3              		.eabi_attribute 28, 1
   4              		.eabi_attribute 20, 1
   5              		.eabi_attribute 21, 1
   6              		.eabi_attribute 23, 3
   7              		.eabi_attribute 24, 1
   8              		.eabi_attribute 25, 1
   9              		.eabi_attribute 26, 1
  10              		.eabi_attribute 30, 2
  11              		.eabi_attribute 34, 1
  12              		.eabi_attribute 18, 4
  13              		.file	"e_common.c"
  14              		.text
  15              	.Ltext0:
  16              		.cfi_sections	.debug_frame
  17              		.section	.rodata.e_poxxxx_config_cam.cst4,"aM",%progbits,4
  18              		.align	2
  19              	.LC0:
  20 0000 00000000 		.word	__stack_chk_guard
  21              		.section	.text.e_poxxxx_config_cam,"ax",%progbits
  22              		.align	1
  23              		.p2align 4,,15
  24              		.global	e_poxxxx_config_cam
  25              		.arch armv7e-m
  26              		.syntax unified
  27              		.thumb
  28              		.thumb_func
  29              		.fpu fpv4-sp-d16
  30              		.type	e_poxxxx_config_cam, %function
  31              	e_poxxxx_config_cam:
  32              	.LVL0:
  33              	.LFB256:
  34              		.file 1 ".//src/epuck1x/camera/fast_2_timer/e_common.c"
  35              		.loc 1 9 21 view -0
  36              		.cfi_startproc
  37              		@ args = 12, pretend = 0, frame = 8
  38              		@ frame_needed = 0, uses_anonymous_args = 0
  39              		.loc 1 9 21 is_stmt 0 view .LVU1
  40 0000 F0B5     		push	{r4, r5, r6, r7, lr}
  41              		.cfi_def_cfa_offset 20
  42              		.cfi_offset 4, -20
  43              		.cfi_offset 5, -16
  44              		.cfi_offset 6, -12
  45              		.cfi_offset 7, -8
  46              		.cfi_offset 14, -4
  47 0002 264C     		ldr	r4, .L25
  48 0004 87B0     		sub	sp, sp, #28
  49              		.cfi_def_cfa_offset 48
  50              		.loc 1 9 21 view .LVU2
  51 0006 2468     		ldr	r4, [r4]
  52 0008 0594     		str	r4, [sp, #20]
  53 000a 4FF00004 		mov	r4,#0
  54              		.loc 1 11 2 is_stmt 1 view .LVU3
  55              		.loc 1 12 2 view .LVU4
  56              		.loc 1 14 2 view .LVU5
  57              		.loc 1 9 21 is_stmt 0 view .LVU6
ARM GAS  /tmp/ccl33tiE.s 			page 2


  58 000e DDE90C54 		ldrd	r5, r4, [sp, #48]
  59 0012 0E9F     		ldr	r7, [sp, #56]
  60              		.loc 1 14 15 view .LVU7
  61 0014 B2FBF5F2 		udiv	r2, r2, r5
  62              	.LVL1:
  63              		.loc 1 15 2 is_stmt 1 view .LVU8
  64              		.loc 1 9 21 is_stmt 0 view .LVU9
  65 0018 0646     		mov	r6, r0
  66              		.loc 1 15 16 view .LVU10
  67 001a B3FBF4F3 		udiv	r3, r3, r4
  68              	.LVL2:
  69              		.loc 1 17 2 is_stmt 1 view .LVU11
  70              		.loc 1 17 4 is_stmt 0 view .LVU12
  71 001e 57B3     		cbz	r7, .L12
  72              		.loc 1 19 9 is_stmt 1 view .LVU13
  73              		.loc 1 19 11 is_stmt 0 view .LVU14
  74 0020 012F     		cmp	r7, #1
  75              		.loc 1 22 7 view .LVU15
  76 0022 0CBF     		ite	eq
  77 0024 3020     		moveq	r0, #48
  78              	.LVL3:
  79              		.loc 1 22 7 view .LVU16
  80 0026 0220     		movne	r0, #2
  81              	.LVL4:
  82              		.loc 1 25 2 is_stmt 1 view .LVU17
  83 0028 022D     		cmp	r5, #2
  84 002a 28D0     		beq	.L3
  85              	.L23:
  86              		.loc 1 25 2 is_stmt 0 view .LVU18
  87 002c 042D     		cmp	r5, #4
  88 002e 01D0     		beq	.L16
  89 0030 012D     		cmp	r5, #1
  90 0032 2DD0     		beq	.L20
  91              	.L16:
  92              		.loc 1 36 4 is_stmt 1 view .LVU19
  93              	.LVL5:
  94              		.loc 1 37 4 view .LVU20
  95              		.loc 1 38 4 view .LVU21
  96 0034 9200     		lsls	r2, r2, #2
  97              	.LVL6:
  98              		.loc 1 36 9 is_stmt 0 view .LVU22
  99 0036 8025     		movs	r5, #128
 100              	.LVL7:
 101              	.L5:
 102              		.loc 1 41 2 is_stmt 1 view .LVU23
 103 0038 022C     		cmp	r4, #2
 104 003a 26D0     		beq	.L7
 105              	.L24:
 106              		.loc 1 41 2 is_stmt 0 view .LVU24
 107 003c 042C     		cmp	r4, #4
 108 003e 01D0     		beq	.L17
 109 0040 012C     		cmp	r4, #1
 110 0042 27D0     		beq	.L21
 111              	.L17:
 112              		.loc 1 52 4 is_stmt 1 view .LVU25
 113              	.LVL8:
 114              		.loc 1 53 4 view .LVU26
ARM GAS  /tmp/ccl33tiE.s 			page 3


 115              		.loc 1 54 4 view .LVU27
 116 0044 9B00     		lsls	r3, r3, #2
 117              	.LVL9:
 118              		.loc 1 52 9 is_stmt 0 view .LVU28
 119 0046 8024     		movs	r4, #128
 120              	.LVL10:
 121              	.L9:
 122              		.loc 1 57 2 is_stmt 1 view .LVU29
 123 0048 0093     		str	r3, [sp]
 124 004a CDE90154 		strd	r5, r4, [sp, #4]
 125 004e 1346     		mov	r3, r2
 126 0050 0A46     		mov	r2, r1
 127 0052 3146     		mov	r1, r6
 128              	.LVL11:
 129              		.loc 1 57 2 is_stmt 0 view .LVU30
 130 0054 FFF7FEFF 		bl	po8030_advanced_config
 131              	.LVL12:
 132              		.loc 1 58 2 is_stmt 1 view .LVU31
 133 0058 FFF7FEFF 		bl	dcmi_disable_double_buffering
 134              	.LVL13:
 135              		.loc 1 59 2 view .LVU32
 136 005c 0020     		movs	r0, #0
 137 005e FFF7FEFF 		bl	dcmi_set_capture_mode
 138              	.LVL14:
 139              		.loc 1 60 2 view .LVU33
 140 0062 FFF7FEFF 		bl	dcmi_prepare
 141              	.LVL15:
 142              		.loc 1 62 2 view .LVU34
 143              		.loc 1 63 1 is_stmt 0 view .LVU35
 144 0066 0D4B     		ldr	r3, .L25
 145 0068 1A68     		ldr	r2, [r3]
 146 006a 059B     		ldr	r3, [sp, #20]
 147 006c 5A40     		eors	r2, r3, r2
 148 006e 13D1     		bne	.L22
 149 0070 0020     		movs	r0, #0
 150 0072 07B0     		add	sp, sp, #28
 151              		.cfi_remember_state
 152              		.cfi_def_cfa_offset 20
 153              		@ sp needed
 154 0074 F0BD     		pop	{r4, r5, r6, r7, pc}
 155              	.LVL16:
 156              	.L12:
 157              		.cfi_restore_state
 158              		.loc 1 25 2 view .LVU36
 159 0076 022D     		cmp	r5, #2
 160              		.loc 1 18 7 view .LVU37
 161 0078 4FF04400 		mov	r0, #68
 162              	.LVL17:
 163              		.loc 1 25 2 is_stmt 1 view .LVU38
 164 007c D6D1     		bne	.L23
 165              	.L3:
 166              		.loc 1 41 2 is_stmt 0 view .LVU39
 167 007e 022C     		cmp	r4, #2
 168 0080 4FEA4202 		lsl	r2, r2, #1
 169              	.LVL18:
 170              		.loc 1 30 9 view .LVU40
 171 0084 4FF04005 		mov	r5, #64
ARM GAS  /tmp/ccl33tiE.s 			page 4


 172              	.LVL19:
 173              		.loc 1 41 2 is_stmt 1 view .LVU41
 174 0088 D8D1     		bne	.L24
 175              	.L7:
 176              		.loc 1 41 2 is_stmt 0 view .LVU42
 177 008a 5B00     		lsls	r3, r3, #1
 178              	.LVL20:
 179              		.loc 1 46 9 view .LVU43
 180 008c 4024     		movs	r4, #64
 181              	.LVL21:
 182              		.loc 1 46 9 view .LVU44
 183 008e DBE7     		b	.L9
 184              	.LVL22:
 185              	.L20:
 186              		.loc 1 25 2 view .LVU45
 187 0090 2025     		movs	r5, #32
 188 0092 D1E7     		b	.L5
 189              	.LVL23:
 190              	.L21:
 191              		.loc 1 41 2 view .LVU46
 192 0094 2024     		movs	r4, #32
 193 0096 D7E7     		b	.L9
 194              	.LVL24:
 195              	.L22:
 196              		.loc 1 63 1 view .LVU47
 197 0098 FFF7FEFF 		bl	__stack_chk_fail
 198              	.LVL25:
 199              	.L26:
 200              		.align	2
 201              	.L25:
 202 009c 00000000 		.word	.LC0
 203              		.cfi_endproc
 204              	.LFE256:
 205              		.size	e_poxxxx_config_cam, .-e_poxxxx_config_cam
 206              		.section	.rodata.e_poxxxx_set_mirror.cst4,"aM",%progbits,4
 207              		.align	2
 208              	.LC1:
 209 0000 00000000 		.word	__stack_chk_guard
 210              		.section	.text.e_poxxxx_set_mirror,"ax",%progbits
 211              		.align	1
 212              		.p2align 4,,15
 213              		.global	e_poxxxx_set_mirror
 214              		.syntax unified
 215              		.thumb
 216              		.thumb_func
 217              		.fpu fpv4-sp-d16
 218              		.type	e_poxxxx_set_mirror, %function
 219              	e_poxxxx_set_mirror:
 220              	.LVL26:
 221              	.LFB257:
 222              		.loc 1 66 56 is_stmt 1 view -0
 223              		.cfi_startproc
 224              		@ args = 0, pretend = 0, frame = 8
 225              		@ frame_needed = 0, uses_anonymous_args = 0
 226              		.loc 1 66 56 is_stmt 0 view .LVU49
 227 0000 00B5     		push	{lr}
 228              		.cfi_def_cfa_offset 4
ARM GAS  /tmp/ccl33tiE.s 			page 5


 229              		.cfi_offset 14, -4
 230 0002 084B     		ldr	r3, .L31
 231 0004 83B0     		sub	sp, sp, #12
 232              		.cfi_def_cfa_offset 16
 233              		.loc 1 66 56 view .LVU50
 234 0006 1B68     		ldr	r3, [r3]
 235 0008 0193     		str	r3, [sp, #4]
 236 000a 4FF00003 		mov	r3,#0
 237              		.loc 1 67 2 is_stmt 1 view .LVU51
 238              		.loc 1 68 2 view .LVU52
 239              		.loc 1 69 2 view .LVU53
 240              		.loc 1 70 1 is_stmt 0 view .LVU54
 241 000e 054B     		ldr	r3, .L31
 242 0010 1A68     		ldr	r2, [r3]
 243 0012 019B     		ldr	r3, [sp, #4]
 244 0014 5A40     		eors	r2, r3, r2
 245 0016 02D1     		bne	.L30
 246 0018 03B0     		add	sp, sp, #12
 247              		.cfi_remember_state
 248              		.cfi_def_cfa_offset 4
 249              		@ sp needed
 250 001a 5DF804FB 		ldr	pc, [sp], #4
 251              	.L30:
 252              		.cfi_restore_state
 253 001e FFF7FEFF 		bl	__stack_chk_fail
 254              	.LVL27:
 255              	.L32:
 256              		.loc 1 70 1 view .LVU55
 257 0022 00BF     		.align	2
 258              	.L31:
 259 0024 00000000 		.word	.LC1
 260              		.cfi_endproc
 261              	.LFE257:
 262              		.size	e_poxxxx_set_mirror, .-e_poxxxx_set_mirror
 263              		.section	.rodata.e_poxxxx_write_cam_registers.cst4,"aM",%progbits,4
 264              		.align	2
 265              	.LC2:
 266 0000 00000000 		.word	__stack_chk_guard
 267              		.section	.text.e_poxxxx_write_cam_registers,"ax",%progbits
 268              		.align	1
 269              		.p2align 4,,15
 270              		.global	e_poxxxx_write_cam_registers
 271              		.syntax unified
 272              		.thumb
 273              		.thumb_func
 274              		.fpu fpv4-sp-d16
 275              		.type	e_poxxxx_write_cam_registers, %function
 276              	e_poxxxx_write_cam_registers:
 277              	.LFB258:
 278              		.loc 1 72 41 is_stmt 1 view -0
 279              		.cfi_startproc
 280              		@ args = 0, pretend = 0, frame = 8
 281              		@ frame_needed = 0, uses_anonymous_args = 0
 282 0000 00B5     		push	{lr}
 283              		.cfi_def_cfa_offset 4
 284              		.cfi_offset 14, -4
 285 0002 084B     		ldr	r3, .L37
ARM GAS  /tmp/ccl33tiE.s 			page 6


 286 0004 83B0     		sub	sp, sp, #12
 287              		.cfi_def_cfa_offset 16
 288              		.loc 1 72 41 is_stmt 0 view .LVU57
 289 0006 1B68     		ldr	r3, [r3]
 290 0008 0193     		str	r3, [sp, #4]
 291 000a 4FF00003 		mov	r3,#0
 292              		.loc 1 73 2 is_stmt 1 view .LVU58
 293              		.loc 1 74 1 is_stmt 0 view .LVU59
 294 000e 054B     		ldr	r3, .L37
 295 0010 1A68     		ldr	r2, [r3]
 296 0012 019B     		ldr	r3, [sp, #4]
 297 0014 5A40     		eors	r2, r3, r2
 298 0016 02D1     		bne	.L36
 299 0018 03B0     		add	sp, sp, #12
 300              		.cfi_remember_state
 301              		.cfi_def_cfa_offset 4
 302              		@ sp needed
 303 001a 5DF804FB 		ldr	pc, [sp], #4
 304              	.L36:
 305              		.cfi_restore_state
 306 001e FFF7FEFF 		bl	__stack_chk_fail
 307              	.LVL28:
 308              	.L38:
 309 0022 00BF     		.align	2
 310              	.L37:
 311 0024 00000000 		.word	.LC2
 312              		.cfi_endproc
 313              	.LFE258:
 314              		.size	e_poxxxx_write_cam_registers, .-e_poxxxx_write_cam_registers
 315              		.section	.rodata.e_poxxxx_init_cam.cst4,"aM",%progbits,4
 316              		.align	2
 317              	.LC3:
 318 0000 00000000 		.word	__stack_chk_guard
 319              		.section	.text.e_poxxxx_init_cam,"ax",%progbits
 320              		.align	1
 321              		.p2align 4,,15
 322              		.global	e_poxxxx_init_cam
 323              		.syntax unified
 324              		.thumb
 325              		.thumb_func
 326              		.fpu fpv4-sp-d16
 327              		.type	e_poxxxx_init_cam, %function
 328              	e_poxxxx_init_cam:
 329              	.LFB259:
 330              		.loc 1 79 29 is_stmt 1 view -0
 331              		.cfi_startproc
 332              		@ args = 0, pretend = 0, frame = 8
 333              		@ frame_needed = 0, uses_anonymous_args = 0
 334 0000 00B5     		push	{lr}
 335              		.cfi_def_cfa_offset 4
 336              		.cfi_offset 14, -4
 337 0002 094B     		ldr	r3, .L43
 338 0004 83B0     		sub	sp, sp, #12
 339              		.cfi_def_cfa_offset 16
 340              		.loc 1 79 29 is_stmt 0 view .LVU61
 341 0006 1B68     		ldr	r3, [r3]
 342 0008 0193     		str	r3, [sp, #4]
ARM GAS  /tmp/ccl33tiE.s 			page 7


 343 000a 4FF00003 		mov	r3,#0
 344              		.loc 1 81 2 is_stmt 1 view .LVU62
 345              		.loc 1 82 1 is_stmt 0 view .LVU63
 346 000e 064B     		ldr	r3, .L43
 347 0010 1A68     		ldr	r2, [r3]
 348 0012 019B     		ldr	r3, [sp, #4]
 349 0014 5A40     		eors	r2, r3, r2
 350 0016 04D1     		bne	.L42
 351 0018 48F23000 		movw	r0, #32816
 352 001c 03B0     		add	sp, sp, #12
 353              		.cfi_remember_state
 354              		.cfi_def_cfa_offset 4
 355              		@ sp needed
 356 001e 5DF804FB 		ldr	pc, [sp], #4
 357              	.L42:
 358              		.cfi_restore_state
 359 0022 FFF7FEFF 		bl	__stack_chk_fail
 360              	.LVL29:
 361              	.L44:
 362 0026 00BF     		.align	2
 363              	.L43:
 364 0028 00000000 		.word	.LC3
 365              		.cfi_endproc
 366              	.LFE259:
 367              		.size	e_poxxxx_init_cam, .-e_poxxxx_init_cam
 368              		.section	.rodata.e_poxxxx_get_orientation.cst4,"aM",%progbits,4
 369              		.align	2
 370              	.LC4:
 371 0000 00000000 		.word	__stack_chk_guard
 372              		.section	.text.e_poxxxx_get_orientation,"ax",%progbits
 373              		.align	1
 374              		.p2align 4,,15
 375              		.global	e_poxxxx_get_orientation
 376              		.syntax unified
 377              		.thumb
 378              		.thumb_func
 379              		.fpu fpv4-sp-d16
 380              		.type	e_poxxxx_get_orientation, %function
 381              	e_poxxxx_get_orientation:
 382              	.LFB260:
 383              		.loc 1 88 36 is_stmt 1 view -0
 384              		.cfi_startproc
 385              		@ args = 0, pretend = 0, frame = 8
 386              		@ frame_needed = 0, uses_anonymous_args = 0
 387 0000 00B5     		push	{lr}
 388              		.cfi_def_cfa_offset 4
 389              		.cfi_offset 14, -4
 390 0002 084B     		ldr	r3, .L49
 391 0004 83B0     		sub	sp, sp, #12
 392              		.cfi_def_cfa_offset 16
 393              		.loc 1 88 36 is_stmt 0 view .LVU65
 394 0006 1B68     		ldr	r3, [r3]
 395 0008 0193     		str	r3, [sp, #4]
 396 000a 4FF00003 		mov	r3,#0
 397              		.loc 1 89 2 is_stmt 1 view .LVU66
 398              		.loc 1 90 1 is_stmt 0 view .LVU67
 399 000e 054B     		ldr	r3, .L49
ARM GAS  /tmp/ccl33tiE.s 			page 8


 400 0010 1A68     		ldr	r2, [r3]
 401 0012 019B     		ldr	r3, [sp, #4]
 402 0014 5A40     		eors	r2, r3, r2
 403 0016 03D1     		bne	.L48
 404 0018 0120     		movs	r0, #1
 405 001a 03B0     		add	sp, sp, #12
 406              		.cfi_remember_state
 407              		.cfi_def_cfa_offset 4
 408              		@ sp needed
 409 001c 5DF804FB 		ldr	pc, [sp], #4
 410              	.L48:
 411              		.cfi_restore_state
 412 0020 FFF7FEFF 		bl	__stack_chk_fail
 413              	.LVL30:
 414              	.L50:
 415              		.align	2
 416              	.L49:
 417 0024 00000000 		.word	.LC4
 418              		.cfi_endproc
 419              	.LFE260:
 420              		.size	e_poxxxx_get_orientation, .-e_poxxxx_get_orientation
 421              		.section	.rodata.e_poxxxx_set_awb_ae.cst4,"aM",%progbits,4
 422              		.align	2
 423              	.LC5:
 424 0000 00000000 		.word	__stack_chk_guard
 425              		.section	.text.e_poxxxx_set_awb_ae,"ax",%progbits
 426              		.align	1
 427              		.p2align 4,,15
 428              		.global	e_poxxxx_set_awb_ae
 429              		.syntax unified
 430              		.thumb
 431              		.thumb_func
 432              		.fpu fpv4-sp-d16
 433              		.type	e_poxxxx_set_awb_ae, %function
 434              	e_poxxxx_set_awb_ae:
 435              	.LFB269:
 436              		.cfi_startproc
 437              		@ args = 0, pretend = 0, frame = 8
 438              		@ frame_needed = 0, uses_anonymous_args = 0
 439 0000 00B5     		push	{lr}
 440              		.cfi_def_cfa_offset 4
 441              		.cfi_offset 14, -4
 442 0002 084B     		ldr	r3, .L55
 443 0004 83B0     		sub	sp, sp, #12
 444              		.cfi_def_cfa_offset 16
 445 0006 1B68     		ldr	r3, [r3]
 446 0008 0193     		str	r3, [sp, #4]
 447 000a 4FF00003 		mov	r3,#0
 448 000e 054B     		ldr	r3, .L55
 449 0010 1A68     		ldr	r2, [r3]
 450 0012 019B     		ldr	r3, [sp, #4]
 451 0014 5A40     		eors	r2, r3, r2
 452 0016 02D1     		bne	.L54
 453 0018 03B0     		add	sp, sp, #12
 454              		.cfi_remember_state
 455              		.cfi_def_cfa_offset 4
 456              		@ sp needed
ARM GAS  /tmp/ccl33tiE.s 			page 9


 457 001a 5DF804FB 		ldr	pc, [sp], #4
 458              	.L54:
 459              		.cfi_restore_state
 460 001e FFF7FEFF 		bl	__stack_chk_fail
 461              	.L56:
 462 0022 00BF     		.align	2
 463              	.L55:
 464 0024 00000000 		.word	.LC5
 465              		.cfi_endproc
 466              	.LFE269:
 467              		.size	e_poxxxx_set_awb_ae, .-e_poxxxx_set_awb_ae
 468              		.section	.rodata.e_poxxxx_set_rgb_gain.cst4,"aM",%progbits,4
 469              		.align	2
 470              	.LC6:
 471 0000 00000000 		.word	__stack_chk_guard
 472              		.section	.text.e_poxxxx_set_rgb_gain,"ax",%progbits
 473              		.align	1
 474              		.p2align 4,,15
 475              		.global	e_poxxxx_set_rgb_gain
 476              		.syntax unified
 477              		.thumb
 478              		.thumb_func
 479              		.fpu fpv4-sp-d16
 480              		.type	e_poxxxx_set_rgb_gain, %function
 481              	e_poxxxx_set_rgb_gain:
 482              	.LVL31:
 483              	.LFB262:
 484              		.loc 1 108 79 is_stmt 1 view -0
 485              		.cfi_startproc
 486              		@ args = 0, pretend = 0, frame = 8
 487              		@ frame_needed = 0, uses_anonymous_args = 0
 488              		.loc 1 108 79 is_stmt 0 view .LVU69
 489 0000 00B5     		push	{lr}
 490              		.cfi_def_cfa_offset 4
 491              		.cfi_offset 14, -4
 492 0002 084B     		ldr	r3, .L61
 493 0004 83B0     		sub	sp, sp, #12
 494              		.cfi_def_cfa_offset 16
 495              		.loc 1 108 79 view .LVU70
 496 0006 1B68     		ldr	r3, [r3]
 497 0008 0193     		str	r3, [sp, #4]
 498 000a 4FF00003 		mov	r3,#0
 499              		.loc 1 109 2 is_stmt 1 view .LVU71
 500              		.loc 1 110 2 view .LVU72
 501              		.loc 1 111 2 view .LVU73
 502              		.loc 1 112 2 view .LVU74
 503              		.loc 1 113 1 is_stmt 0 view .LVU75
 504 000e 054B     		ldr	r3, .L61
 505 0010 1A68     		ldr	r2, [r3]
 506 0012 019B     		ldr	r3, [sp, #4]
 507 0014 5A40     		eors	r2, r3, r2
 508              	.LVL32:
 509              		.loc 1 113 1 view .LVU76
 510 0016 02D1     		bne	.L60
 511 0018 03B0     		add	sp, sp, #12
 512              		.cfi_remember_state
 513              		.cfi_def_cfa_offset 4
ARM GAS  /tmp/ccl33tiE.s 			page 10


 514              		@ sp needed
 515 001a 5DF804FB 		ldr	pc, [sp], #4
 516              	.L60:
 517              		.cfi_restore_state
 518 001e FFF7FEFF 		bl	__stack_chk_fail
 519              	.LVL33:
 520              	.L62:
 521              		.loc 1 113 1 view .LVU77
 522 0022 00BF     		.align	2
 523              	.L61:
 524 0024 00000000 		.word	.LC6
 525              		.cfi_endproc
 526              	.LFE262:
 527              		.size	e_poxxxx_set_rgb_gain, .-e_poxxxx_set_rgb_gain
 528              		.section	.rodata.e_poxxxx_set_exposure.cst4,"aM",%progbits,4
 529              		.align	2
 530              	.LC7:
 531 0000 00000000 		.word	__stack_chk_guard
 532              		.section	.text.e_poxxxx_set_exposure,"ax",%progbits
 533              		.align	1
 534              		.p2align 4,,15
 535              		.global	e_poxxxx_set_exposure
 536              		.syntax unified
 537              		.thumb
 538              		.thumb_func
 539              		.fpu fpv4-sp-d16
 540              		.type	e_poxxxx_set_exposure, %function
 541              	e_poxxxx_set_exposure:
 542              	.LVL34:
 543              	.LFB263:
 544              		.loc 1 119 47 is_stmt 1 view -0
 545              		.cfi_startproc
 546              		@ args = 0, pretend = 0, frame = 8
 547              		@ frame_needed = 0, uses_anonymous_args = 0
 548              		.loc 1 119 47 is_stmt 0 view .LVU79
 549 0000 00B5     		push	{lr}
 550              		.cfi_def_cfa_offset 4
 551              		.cfi_offset 14, -4
 552 0002 084B     		ldr	r3, .L67
 553 0004 83B0     		sub	sp, sp, #12
 554              		.cfi_def_cfa_offset 16
 555              		.loc 1 119 47 view .LVU80
 556 0006 1B68     		ldr	r3, [r3]
 557 0008 0193     		str	r3, [sp, #4]
 558 000a 4FF00003 		mov	r3,#0
 559              		.loc 1 120 2 is_stmt 1 view .LVU81
 560              		.loc 1 121 2 view .LVU82
 561              		.loc 1 122 1 is_stmt 0 view .LVU83
 562 000e 054B     		ldr	r3, .L67
 563 0010 1A68     		ldr	r2, [r3]
 564 0012 019B     		ldr	r3, [sp, #4]
 565 0014 5A40     		eors	r2, r3, r2
 566 0016 02D1     		bne	.L66
 567 0018 03B0     		add	sp, sp, #12
 568              		.cfi_remember_state
 569              		.cfi_def_cfa_offset 4
 570              		@ sp needed
ARM GAS  /tmp/ccl33tiE.s 			page 11


 571 001a 5DF804FB 		ldr	pc, [sp], #4
 572              	.L66:
 573              		.cfi_restore_state
 574 001e FFF7FEFF 		bl	__stack_chk_fail
 575              	.LVL35:
 576              	.L68:
 577              		.loc 1 122 1 view .LVU84
 578 0022 00BF     		.align	2
 579              	.L67:
 580 0024 00000000 		.word	.LC7
 581              		.cfi_endproc
 582              	.LFE263:
 583              		.size	e_poxxxx_set_exposure, .-e_poxxxx_set_exposure
 584              		.section	.rodata.getCameraVersion.cst4,"aM",%progbits,4
 585              		.align	2
 586              	.LC8:
 587 0000 00000000 		.word	__stack_chk_guard
 588              		.section	.text.getCameraVersion,"ax",%progbits
 589              		.align	1
 590              		.p2align 4,,15
 591              		.global	getCameraVersion
 592              		.syntax unified
 593              		.thumb
 594              		.thumb_func
 595              		.fpu fpv4-sp-d16
 596              		.type	getCameraVersion, %function
 597              	getCameraVersion:
 598              	.LFB264:
 599              		.loc 1 123 37 is_stmt 1 view -0
 600              		.cfi_startproc
 601              		@ args = 0, pretend = 0, frame = 8
 602              		@ frame_needed = 0, uses_anonymous_args = 0
 603 0000 00B5     		push	{lr}
 604              		.cfi_def_cfa_offset 4
 605              		.cfi_offset 14, -4
 606 0002 094B     		ldr	r3, .L73
 607 0004 83B0     		sub	sp, sp, #12
 608              		.cfi_def_cfa_offset 16
 609              		.loc 1 123 37 is_stmt 0 view .LVU86
 610 0006 1B68     		ldr	r3, [r3]
 611 0008 0193     		str	r3, [sp, #4]
 612 000a 4FF00003 		mov	r3,#0
 613              		.loc 1 124 2 is_stmt 1 view .LVU87
 614              		.loc 1 125 1 is_stmt 0 view .LVU88
 615 000e 064B     		ldr	r3, .L73
 616 0010 1A68     		ldr	r2, [r3]
 617 0012 019B     		ldr	r3, [sp, #4]
 618 0014 5A40     		eors	r2, r3, r2
 619 0016 04D1     		bne	.L72
 620 0018 48F23000 		movw	r0, #32816
 621 001c 03B0     		add	sp, sp, #12
 622              		.cfi_remember_state
 623              		.cfi_def_cfa_offset 4
 624              		@ sp needed
 625 001e 5DF804FB 		ldr	pc, [sp], #4
 626              	.L72:
 627              		.cfi_restore_state
ARM GAS  /tmp/ccl33tiE.s 			page 12


 628 0022 FFF7FEFF 		bl	__stack_chk_fail
 629              	.LVL36:
 630              	.L74:
 631 0026 00BF     		.align	2
 632              	.L73:
 633 0028 00000000 		.word	.LC8
 634              		.cfi_endproc
 635              	.LFE264:
 636              		.size	getCameraVersion, .-getCameraVersion
 637              		.section	.rodata.e_poxxxx_launch_capture.cst4,"aM",%progbits,4
 638              		.align	2
 639              	.LC9:
 640 0000 00000000 		.word	__stack_chk_guard
 641              		.section	.text.e_poxxxx_launch_capture,"ax",%progbits
 642              		.align	1
 643              		.p2align 4,,15
 644              		.global	e_poxxxx_launch_capture
 645              		.syntax unified
 646              		.thumb
 647              		.thumb_func
 648              		.fpu fpv4-sp-d16
 649              		.type	e_poxxxx_launch_capture, %function
 650              	e_poxxxx_launch_capture:
 651              	.LVL37:
 652              	.LFB265:
 653              		.loc 1 131 42 is_stmt 1 view -0
 654              		.cfi_startproc
 655              		@ args = 0, pretend = 0, frame = 8
 656              		@ frame_needed = 0, uses_anonymous_args = 0
 657              		.loc 1 131 42 is_stmt 0 view .LVU90
 658 0000 00B5     		push	{lr}
 659              		.cfi_def_cfa_offset 4
 660              		.cfi_offset 14, -4
 661 0002 094B     		ldr	r3, .L80
 662 0004 83B0     		sub	sp, sp, #12
 663              		.cfi_def_cfa_offset 16
 664              		.loc 1 131 42 view .LVU91
 665 0006 1B68     		ldr	r3, [r3]
 666 0008 0193     		str	r3, [sp, #4]
 667 000a 4FF00003 		mov	r3,#0
 668              		.loc 1 132 2 is_stmt 1 view .LVU92
 669              		.loc 1 133 2 view .LVU93
 670 000e 064B     		ldr	r3, .L80
 671 0010 1A68     		ldr	r2, [r3]
 672 0012 019B     		ldr	r3, [sp, #4]
 673 0014 5A40     		eors	r2, r3, r2
 674 0016 04D1     		bne	.L79
 675              		.loc 1 134 1 is_stmt 0 view .LVU94
 676 0018 03B0     		add	sp, sp, #12
 677              		.cfi_remember_state
 678              		.cfi_def_cfa_offset 4
 679              		@ sp needed
 680 001a 5DF804EB 		ldr	lr, [sp], #4
 681              		.cfi_restore 14
 682              		.cfi_def_cfa_offset 0
 683              		.loc 1 133 2 view .LVU95
 684 001e FFF7FEBF 		b	dcmi_capture_start
ARM GAS  /tmp/ccl33tiE.s 			page 13


 685              	.LVL38:
 686              	.L79:
 687              		.cfi_restore_state
 688              		.loc 1 133 2 view .LVU96
 689 0022 FFF7FEFF 		bl	__stack_chk_fail
 690              	.LVL39:
 691              	.L81:
 692              		.loc 1 133 2 view .LVU97
 693 0026 00BF     		.align	2
 694              	.L80:
 695 0028 00000000 		.word	.LC9
 696              		.cfi_endproc
 697              	.LFE265:
 698              		.size	e_poxxxx_launch_capture, .-e_poxxxx_launch_capture
 699              		.section	.rodata.e_poxxxx_is_img_ready.cst4,"aM",%progbits,4
 700              		.align	2
 701              	.LC10:
 702 0000 00000000 		.word	__stack_chk_guard
 703              		.section	.text.e_poxxxx_is_img_ready,"ax",%progbits
 704              		.align	1
 705              		.p2align 4,,15
 706              		.global	e_poxxxx_is_img_ready
 707              		.syntax unified
 708              		.thumb
 709              		.thumb_func
 710              		.fpu fpv4-sp-d16
 711              		.type	e_poxxxx_is_img_ready, %function
 712              	e_poxxxx_is_img_ready:
 713              	.LFB266:
 714              		.loc 1 140 33 is_stmt 1 view -0
 715              		.cfi_startproc
 716              		@ args = 0, pretend = 0, frame = 8
 717              		@ frame_needed = 0, uses_anonymous_args = 0
 718 0000 00B5     		push	{lr}
 719              		.cfi_def_cfa_offset 4
 720              		.cfi_offset 14, -4
 721 0002 094B     		ldr	r3, .L86
 722 0004 83B0     		sub	sp, sp, #12
 723              		.cfi_def_cfa_offset 16
 724              		.loc 1 140 33 is_stmt 0 view .LVU99
 725 0006 1B68     		ldr	r3, [r3]
 726 0008 0193     		str	r3, [sp, #4]
 727 000a 4FF00003 		mov	r3,#0
 728              		.loc 1 141 2 is_stmt 1 view .LVU100
 729              		.loc 1 141 9 is_stmt 0 view .LVU101
 730 000e FFF7FEFF 		bl	image_is_ready
 731              	.LVL40:
 732              		.loc 1 142 1 view .LVU102
 733 0012 054B     		ldr	r3, .L86
 734 0014 1A68     		ldr	r2, [r3]
 735 0016 019B     		ldr	r3, [sp, #4]
 736 0018 5A40     		eors	r2, r3, r2
 737 001a 02D1     		bne	.L85
 738 001c 03B0     		add	sp, sp, #12
 739              		.cfi_remember_state
 740              		.cfi_def_cfa_offset 4
 741              		@ sp needed
ARM GAS  /tmp/ccl33tiE.s 			page 14


 742 001e 5DF804FB 		ldr	pc, [sp], #4
 743              	.L85:
 744              		.cfi_restore_state
 745 0022 FFF7FEFF 		bl	__stack_chk_fail
 746              	.LVL41:
 747              	.L87:
 748 0026 00BF     		.align	2
 749              	.L86:
 750 0028 00000000 		.word	.LC10
 751              		.cfi_endproc
 752              	.LFE266:
 753              		.size	e_poxxxx_is_img_ready, .-e_poxxxx_is_img_ready
 754              		.section	.rodata.e_poxxxx_wait_img_ready.cst4,"aM",%progbits,4
 755              		.align	2
 756              	.LC11:
 757 0000 00000000 		.word	__stack_chk_guard
 758              		.section	.text.e_poxxxx_wait_img_ready,"ax",%progbits
 759              		.align	1
 760              		.p2align 4,,15
 761              		.global	e_poxxxx_wait_img_ready
 762              		.syntax unified
 763              		.thumb
 764              		.thumb_func
 765              		.fpu fpv4-sp-d16
 766              		.type	e_poxxxx_wait_img_ready, %function
 767              	e_poxxxx_wait_img_ready:
 768              	.LFB267:
 769              		.loc 1 147 36 is_stmt 1 view -0
 770              		.cfi_startproc
 771              		@ args = 0, pretend = 0, frame = 8
 772              		@ frame_needed = 0, uses_anonymous_args = 0
 773 0000 00B5     		push	{lr}
 774              		.cfi_def_cfa_offset 4
 775              		.cfi_offset 14, -4
 776 0002 094B     		ldr	r3, .L93
 777 0004 83B0     		sub	sp, sp, #12
 778              		.cfi_def_cfa_offset 16
 779              		.loc 1 147 36 is_stmt 0 view .LVU104
 780 0006 1B68     		ldr	r3, [r3]
 781 0008 0193     		str	r3, [sp, #4]
 782 000a 4FF00003 		mov	r3,#0
 783              		.loc 1 148 2 is_stmt 1 view .LVU105
 784 000e 064B     		ldr	r3, .L93
 785 0010 1A68     		ldr	r2, [r3]
 786 0012 019B     		ldr	r3, [sp, #4]
 787 0014 5A40     		eors	r2, r3, r2
 788 0016 04D1     		bne	.L92
 789              		.loc 1 149 1 is_stmt 0 view .LVU106
 790 0018 03B0     		add	sp, sp, #12
 791              		.cfi_remember_state
 792              		.cfi_def_cfa_offset 4
 793              		@ sp needed
 794 001a 5DF804EB 		ldr	lr, [sp], #4
 795              		.cfi_restore 14
 796              		.cfi_def_cfa_offset 0
 797              		.loc 1 148 2 view .LVU107
 798 001e FFF7FEBF 		b	wait_image_ready
ARM GAS  /tmp/ccl33tiE.s 			page 15


 799              	.LVL42:
 800              	.L92:
 801              		.cfi_restore_state
 802 0022 FFF7FEFF 		bl	__stack_chk_fail
 803              	.LVL43:
 804              	.L94:
 805 0026 00BF     		.align	2
 806              	.L93:
 807 0028 00000000 		.word	.LC11
 808              		.cfi_endproc
 809              	.LFE267:
 810              		.size	e_poxxxx_wait_img_ready, .-e_poxxxx_wait_img_ready
 811              		.text
 812              	.Letext0:
 813              		.file 2 "/usr/lib/gcc/arm-none-eabi/9.2.1/include/stdint.h"
 814              		.file 3 "/usr/lib/gcc/arm-none-eabi/9.2.1/include/stddef.h"
 815              		.file 4 ".//ChibiOS//os/rt/ports/ARMCMx/compilers/GCC/chtypes.h"
 816              		.file 5 ".//ChibiOS//os/rt/include/chsystypes.h"
 817              		.file 6 ".//ChibiOS//os/rt/include/chschd.h"
 818              		.file 7 ".//ChibiOS//os/ext/CMSIS/include/core_cm4.h"
 819              		.file 8 ".//ChibiOS//os/ext/CMSIS/ST/system_stm32f4xx.h"
 820              		.file 9 ".//ChibiOS//os/ext/CMSIS/ST/stm32f407xx.h"
 821              		.file 10 ".//ChibiOS//os/rt/ports/ARMCMx/chcore.h"
 822              		.file 11 ".//ChibiOS//os/rt/ports/ARMCMx/chcore_v7m.h"
 823              		.file 12 ".//ChibiOS//os/rt/include/chdebug.h"
 824              		.file 13 ".//ChibiOS//os/rt/include/chtm.h"
 825              		.file 14 ".//ChibiOS//os/rt/include/chstats.h"
 826              		.file 15 ".//ChibiOS//os/rt/include/chsem.h"
 827              		.file 16 ".//ChibiOS//os/rt/include/chmtx.h"
 828              		.file 17 ".//ChibiOS//os/rt/include/chregistry.h"
 829              		.file 18 ".//ChibiOS//os/rt/include/chevents.h"
 830              		.file 19 ".//ChibiOS//os/rt/include/chqueues.h"
 831              		.file 20 ".//ChibiOS//os/hal/ports/STM32/STM32F4xx/stm32_dma.h"
 832              		.file 21 ".//ChibiOS//os/hal/include/hal_ioblock.h"
 833              		.file 22 ".//ChibiOS//os/hal/ports/STM32/LLD/GPIOv2/pal_lld.h"
 834              		.file 23 ".//ChibiOS//os/hal/include/adc.h"
 835              		.file 24 ".//ChibiOS//os/hal/ports/STM32/STM32F4xx/adc_lld.h"
 836              		.file 25 ".//ChibiOS//os/hal/include/can.h"
 837              		.file 26 ".//ChibiOS//os/hal/ports/STM32/LLD/can_lld.h"
 838              		.file 27 ".//ChibiOS//os/hal/include/dac.h"
 839              		.file 28 ".//ChibiOS//os/hal/ports/STM32/LLD/DACv1/dac_lld.h"
 840              		.file 29 ".//ChibiOS//os/hal/include/ext.h"
 841              		.file 30 ".//ChibiOS//os/hal/ports/STM32/LLD/ext_lld.h"
 842              		.file 31 ".//ChibiOS//os/hal/include/gpt.h"
 843              		.file 32 ".//ChibiOS//os/hal/ports/STM32/LLD/TIMv1/gpt_lld.h"
 844              		.file 33 ".//ChibiOS//os/hal/ports/STM32/LLD/TIMv1/stm32_tim.h"
 845              		.file 34 ".//ChibiOS//os/hal/include/i2c.h"
 846              		.file 35 ".//ChibiOS//os/hal/ports/STM32/LLD/I2Cv1/i2c_lld.h"
 847              		.file 36 ".//ChibiOS//os/hal/include/i2s.h"
 848              		.file 37 ".//ChibiOS//os/hal/ports/STM32/LLD/SPIv1/i2s_lld.h"
 849              		.file 38 ".//ChibiOS//os/hal/include/pwm.h"
 850              		.file 39 ".//ChibiOS//os/hal/ports/STM32/LLD/TIMv1/pwm_lld.h"
 851              		.file 40 ".//ChibiOS//os/hal/include/serial.h"
 852              		.file 41 ".//ChibiOS//os/hal/ports/STM32/LLD/USARTv1/serial_lld.h"
 853              		.file 42 ".//ChibiOS//os/hal/include/sdc.h"
 854              		.file 43 ".//ChibiOS//os/hal/ports/STM32/LLD/sdc_lld.h"
 855              		.file 44 ".//ChibiOS//os/hal/include/spi.h"
ARM GAS  /tmp/ccl33tiE.s 			page 16


 856              		.file 45 ".//ChibiOS//os/hal/ports/STM32/LLD/SPIv1/spi_lld.h"
 857              		.file 46 ".//ChibiOS//os/hal/include/usb.h"
 858              		.file 47 ".//ChibiOS//os/hal/ports/STM32/LLD/OTGv1/usb_lld.h"
 859              		.file 48 ".//ChibiOS//os/hal/ports/STM32/LLD/OTGv1/stm32_otg.h"
 860              		.file 49 ".//ChibiOS_ext/os/hal/include/../ports/STM32/STM32F4xx/dcmi_lld.h"
 861              		.file 50 ".//src/epuck1x/../camera/po8030.h"
 862              		.file 51 ".//src/epuck1x/../camera/dcmi_camera.h"
 863              		.file 52 "/usr/include/newlib/sys/_types.h"
 864              		.file 53 "/usr/include/newlib/sys/reent.h"
 865              		.file 54 "/usr/include/newlib/sys/lock.h"
 866              		.file 55 "/usr/include/newlib/stdlib.h"