ARM GAS  /tmp/ccWdPANE.s 			page 1


   1              		.cpu cortex-m4
   2              		.eabi_attribute 27, 1
   3              		.eabi_attribute 28, 1
   4              		.eabi_attribute 20, 1
   5              		.eabi_attribute 21, 1
   6              		.eabi_attribute 23, 3
   7              		.eabi_attribute 24, 1
   8              		.eabi_attribute 25, 1
   9              		.eabi_attribute 26, 1
  10              		.eabi_attribute 30, 2
  11              		.eabi_attribute 34, 1
  12              		.eabi_attribute 18, 4
  13              		.file	"e_I2C_protocol.c"
  14              		.text
  15              	.Ltext0:
  16              		.cfi_sections	.debug_frame
  17              		.section	.rodata.e_i2cp_init.cst4,"aM",%progbits,4
  18              		.align	2
  19              	.LC0:
  20 0000 00000000 		.word	__stack_chk_guard
  21              		.section	.text.e_i2cp_init,"ax",%progbits
  22              		.align	1
  23              		.p2align 4,,15
  24              		.global	e_i2cp_init
  25              		.arch armv7e-m
  26              		.syntax unified
  27              		.thumb
  28              		.thumb_func
  29              		.fpu fpv4-sp-d16
  30              		.type	e_i2cp_init, %function
  31              	e_i2cp_init:
  32              	.LFB256:
  33              		.file 1 ".//src/epuck1x/I2C/e_I2C_protocol.c"
  34              		.loc 1 37 1 view -0
  35              		.cfi_startproc
  36              		@ args = 0, pretend = 0, frame = 8
  37              		@ frame_needed = 0, uses_anonymous_args = 0
  38 0000 00B5     		push	{lr}
  39              		.cfi_def_cfa_offset 4
  40              		.cfi_offset 14, -4
  41 0002 084B     		ldr	r3, .L6
  42 0004 83B0     		sub	sp, sp, #12
  43              		.cfi_def_cfa_offset 16
  44              		.loc 1 37 1 is_stmt 0 view .LVU1
  45 0006 1B68     		ldr	r3, [r3]
  46 0008 0193     		str	r3, [sp, #4]
  47 000a 4FF00003 		mov	r3,#0
  48              		.loc 1 38 2 is_stmt 1 view .LVU2
  49              		.loc 1 39 1 is_stmt 0 view .LVU3
  50 000e 054B     		ldr	r3, .L6
  51 0010 1A68     		ldr	r2, [r3]
  52 0012 019B     		ldr	r3, [sp, #4]
  53 0014 5A40     		eors	r2, r3, r2
  54 0016 02D1     		bne	.L5
  55 0018 03B0     		add	sp, sp, #12
  56              		.cfi_remember_state
  57              		.cfi_def_cfa_offset 4
ARM GAS  /tmp/ccWdPANE.s 			page 2


  58              		@ sp needed
  59 001a 5DF804FB 		ldr	pc, [sp], #4
  60              	.L5:
  61              		.cfi_restore_state
  62 001e FFF7FEFF 		bl	__stack_chk_fail
  63              	.LVL0:
  64              	.L7:
  65 0022 00BF     		.align	2
  66              	.L6:
  67 0024 00000000 		.word	.LC0
  68              		.cfi_endproc
  69              	.LFE256:
  70              		.size	e_i2cp_init, .-e_i2cp_init
  71              		.section	.rodata.e_i2cp_deinit.cst4,"aM",%progbits,4
  72              		.align	2
  73              	.LC1:
  74 0000 00000000 		.word	__stack_chk_guard
  75              		.section	.text.e_i2cp_deinit,"ax",%progbits
  76              		.align	1
  77              		.p2align 4,,15
  78              		.global	e_i2cp_deinit
  79              		.syntax unified
  80              		.thumb
  81              		.thumb_func
  82              		.fpu fpv4-sp-d16
  83              		.type	e_i2cp_deinit, %function
  84              	e_i2cp_deinit:
  85              	.LFB263:
  86              		.cfi_startproc
  87              		@ args = 0, pretend = 0, frame = 8
  88              		@ frame_needed = 0, uses_anonymous_args = 0
  89 0000 00B5     		push	{lr}
  90              		.cfi_def_cfa_offset 4
  91              		.cfi_offset 14, -4
  92 0002 084B     		ldr	r3, .L12
  93 0004 83B0     		sub	sp, sp, #12
  94              		.cfi_def_cfa_offset 16
  95 0006 1B68     		ldr	r3, [r3]
  96 0008 0193     		str	r3, [sp, #4]
  97 000a 4FF00003 		mov	r3,#0
  98 000e 054B     		ldr	r3, .L12
  99 0010 1A68     		ldr	r2, [r3]
 100 0012 019B     		ldr	r3, [sp, #4]
 101 0014 5A40     		eors	r2, r3, r2
 102 0016 02D1     		bne	.L11
 103 0018 03B0     		add	sp, sp, #12
 104              		.cfi_remember_state
 105              		.cfi_def_cfa_offset 4
 106              		@ sp needed
 107 001a 5DF804FB 		ldr	pc, [sp], #4
 108              	.L11:
 109              		.cfi_restore_state
 110 001e FFF7FEFF 		bl	__stack_chk_fail
 111              	.L13:
 112 0022 00BF     		.align	2
 113              	.L12:
 114 0024 00000000 		.word	.LC1
ARM GAS  /tmp/ccWdPANE.s 			page 3


 115              		.cfi_endproc
 116              	.LFE263:
 117              		.size	e_i2cp_deinit, .-e_i2cp_deinit
 118              		.section	.rodata.e_i2cp_enable.cst4,"aM",%progbits,4
 119              		.align	2
 120              	.LC2:
 121 0000 00000000 		.word	__stack_chk_guard
 122              		.section	.text.e_i2cp_enable,"ax",%progbits
 123              		.align	1
 124              		.p2align 4,,15
 125              		.global	e_i2cp_enable
 126              		.syntax unified
 127              		.thumb
 128              		.thumb_func
 129              		.fpu fpv4-sp-d16
 130              		.type	e_i2cp_enable, %function
 131              	e_i2cp_enable:
 132              	.LFB265:
 133              		.cfi_startproc
 134              		@ args = 0, pretend = 0, frame = 8
 135              		@ frame_needed = 0, uses_anonymous_args = 0
 136 0000 00B5     		push	{lr}
 137              		.cfi_def_cfa_offset 4
 138              		.cfi_offset 14, -4
 139 0002 084B     		ldr	r3, .L18
 140 0004 83B0     		sub	sp, sp, #12
 141              		.cfi_def_cfa_offset 16
 142 0006 1B68     		ldr	r3, [r3]
 143 0008 0193     		str	r3, [sp, #4]
 144 000a 4FF00003 		mov	r3,#0
 145 000e 054B     		ldr	r3, .L18
 146 0010 1A68     		ldr	r2, [r3]
 147 0012 019B     		ldr	r3, [sp, #4]
 148 0014 5A40     		eors	r2, r3, r2
 149 0016 02D1     		bne	.L17
 150 0018 03B0     		add	sp, sp, #12
 151              		.cfi_remember_state
 152              		.cfi_def_cfa_offset 4
 153              		@ sp needed
 154 001a 5DF804FB 		ldr	pc, [sp], #4
 155              	.L17:
 156              		.cfi_restore_state
 157 001e FFF7FEFF 		bl	__stack_chk_fail
 158              	.L19:
 159 0022 00BF     		.align	2
 160              	.L18:
 161 0024 00000000 		.word	.LC2
 162              		.cfi_endproc
 163              	.LFE265:
 164              		.size	e_i2cp_enable, .-e_i2cp_enable
 165              		.section	.rodata.e_i2cp_disable.cst4,"aM",%progbits,4
 166              		.align	2
 167              	.LC3:
 168 0000 00000000 		.word	__stack_chk_guard
 169              		.section	.text.e_i2cp_disable,"ax",%progbits
 170              		.align	1
 171              		.p2align 4,,15
ARM GAS  /tmp/ccWdPANE.s 			page 4


 172              		.global	e_i2cp_disable
 173              		.syntax unified
 174              		.thumb
 175              		.thumb_func
 176              		.fpu fpv4-sp-d16
 177              		.type	e_i2cp_disable, %function
 178              	e_i2cp_disable:
 179              	.LFB267:
 180              		.cfi_startproc
 181              		@ args = 0, pretend = 0, frame = 8
 182              		@ frame_needed = 0, uses_anonymous_args = 0
 183 0000 00B5     		push	{lr}
 184              		.cfi_def_cfa_offset 4
 185              		.cfi_offset 14, -4
 186 0002 084B     		ldr	r3, .L24
 187 0004 83B0     		sub	sp, sp, #12
 188              		.cfi_def_cfa_offset 16
 189 0006 1B68     		ldr	r3, [r3]
 190 0008 0193     		str	r3, [sp, #4]
 191 000a 4FF00003 		mov	r3,#0
 192 000e 054B     		ldr	r3, .L24
 193 0010 1A68     		ldr	r2, [r3]
 194 0012 019B     		ldr	r3, [sp, #4]
 195 0014 5A40     		eors	r2, r3, r2
 196 0016 02D1     		bne	.L23
 197 0018 03B0     		add	sp, sp, #12
 198              		.cfi_remember_state
 199              		.cfi_def_cfa_offset 4
 200              		@ sp needed
 201 001a 5DF804FB 		ldr	pc, [sp], #4
 202              	.L23:
 203              		.cfi_restore_state
 204 001e FFF7FEFF 		bl	__stack_chk_fail
 205              	.L25:
 206 0022 00BF     		.align	2
 207              	.L24:
 208 0024 00000000 		.word	.LC3
 209              		.cfi_endproc
 210              	.LFE267:
 211              		.size	e_i2cp_disable, .-e_i2cp_disable
 212              		.section	.rodata.e_i2cp_read.cst4,"aM",%progbits,4
 213              		.align	2
 214              	.LC4:
 215 0000 00000000 		.word	__stack_chk_guard
 216              		.section	.text.e_i2cp_read,"ax",%progbits
 217              		.align	1
 218              		.p2align 4,,15
 219              		.global	e_i2cp_read
 220              		.syntax unified
 221              		.thumb
 222              		.thumb_func
 223              		.fpu fpv4-sp-d16
 224              		.type	e_i2cp_read, %function
 225              	e_i2cp_read:
 226              	.LVL1:
 227              	.LFB260:
 228              		.loc 1 68 1 is_stmt 1 view -0
ARM GAS  /tmp/ccWdPANE.s 			page 5


 229              		.cfi_startproc
 230              		@ args = 0, pretend = 0, frame = 8
 231              		@ frame_needed = 0, uses_anonymous_args = 0
 232              		.loc 1 68 1 is_stmt 0 view .LVU5
 233 0000 00B5     		push	{lr}
 234              		.cfi_def_cfa_offset 4
 235              		.cfi_offset 14, -4
 236 0002 DFF838C0 		ldr	ip, .L30
 237 0006 83B0     		sub	sp, sp, #12
 238              		.cfi_def_cfa_offset 16
 239              		.loc 1 69 10 view .LVU6
 240 0008 0023     		movs	r3, #0
 241              		.loc 1 70 2 view .LVU7
 242 000a 0DF10302 		add	r2, sp, #3
 243 000e 4008     		lsrs	r0, r0, #1
 244              	.LVL2:
 245              		.loc 1 68 1 view .LVU8
 246 0010 DCF800C0 		ldr	ip, [ip]
 247 0014 CDF804C0 		str	ip, [sp, #4]
 248 0018 4FF0000C 		mov	ip,#0
 249              		.loc 1 69 2 is_stmt 1 view .LVU9
 250              		.loc 1 69 10 is_stmt 0 view .LVU10
 251 001c 8DF80330 		strb	r3, [sp, #3]
 252              		.loc 1 70 2 is_stmt 1 view .LVU11
 253 0020 FFF7FEFF 		bl	read_reg
 254              	.LVL3:
 255              		.loc 1 71 2 view .LVU12
 256              		.loc 1 72 1 is_stmt 0 view .LVU13
 257 0024 054B     		ldr	r3, .L30
 258              		.loc 1 71 9 view .LVU14
 259 0026 9DF80300 		ldrb	r0, [sp, #3]	@ zero_extendqisi2
 260              		.loc 1 72 1 view .LVU15
 261 002a 1A68     		ldr	r2, [r3]
 262 002c 019B     		ldr	r3, [sp, #4]
 263 002e 5A40     		eors	r2, r3, r2
 264 0030 02D1     		bne	.L29
 265 0032 03B0     		add	sp, sp, #12
 266              		.cfi_remember_state
 267              		.cfi_def_cfa_offset 4
 268              		@ sp needed
 269 0034 5DF804FB 		ldr	pc, [sp], #4
 270              	.L29:
 271              		.cfi_restore_state
 272 0038 FFF7FEFF 		bl	__stack_chk_fail
 273              	.LVL4:
 274              	.L31:
 275              		.align	2
 276              	.L30:
 277 003c 00000000 		.word	.LC4
 278              		.cfi_endproc
 279              	.LFE260:
 280              		.size	e_i2cp_read, .-e_i2cp_read
 281              		.section	.rodata.e_i2cp_write.cst4,"aM",%progbits,4
 282              		.align	2
 283              	.LC5:
 284 0000 00000000 		.word	__stack_chk_guard
 285              		.section	.text.e_i2cp_write,"ax",%progbits
ARM GAS  /tmp/ccWdPANE.s 			page 6


 286              		.align	1
 287              		.p2align 4,,15
 288              		.global	e_i2cp_write
 289              		.syntax unified
 290              		.thumb
 291              		.thumb_func
 292              		.fpu fpv4-sp-d16
 293              		.type	e_i2cp_write, %function
 294              	e_i2cp_write:
 295              	.LVL5:
 296              	.LFB261:
 297              		.loc 1 81 1 is_stmt 1 view -0
 298              		.cfi_startproc
 299              		@ args = 0, pretend = 0, frame = 8
 300              		@ frame_needed = 0, uses_anonymous_args = 0
 301              		.loc 1 81 1 is_stmt 0 view .LVU17
 302 0000 00B5     		push	{lr}
 303              		.cfi_def_cfa_offset 4
 304              		.cfi_offset 14, -4
 305 0002 0B4B     		ldr	r3, .L36
 306 0004 83B0     		sub	sp, sp, #12
 307              		.cfi_def_cfa_offset 16
 308              		.loc 1 83 12 view .LVU18
 309 0006 4008     		lsrs	r0, r0, #1
 310              	.LVL6:
 311              		.loc 1 81 1 view .LVU19
 312 0008 1B68     		ldr	r3, [r3]
 313 000a 0193     		str	r3, [sp, #4]
 314 000c 4FF00003 		mov	r3,#0
 315              		.loc 1 82 2 is_stmt 1 view .LVU20
 316              	.LVL7:
 317              		.loc 1 83 2 view .LVU21
 318              		.loc 1 83 12 is_stmt 0 view .LVU22
 319 0010 FFF7FEFF 		bl	write_reg
 320              	.LVL8:
 321              		.loc 1 88 1 view .LVU23
 322 0014 064B     		ldr	r3, .L36
 323 0016 1A68     		ldr	r2, [r3]
 324 0018 019B     		ldr	r3, [sp, #4]
 325 001a 5A40     		eors	r2, r3, r2
 326 001c 05D1     		bne	.L35
 327 001e B0FA80F0 		clz	r0, r0
 328              	.LVL9:
 329              		.loc 1 88 1 view .LVU24
 330 0022 4009     		lsrs	r0, r0, #5
 331 0024 03B0     		add	sp, sp, #12
 332              		.cfi_remember_state
 333              		.cfi_def_cfa_offset 4
 334              		@ sp needed
 335 0026 5DF804FB 		ldr	pc, [sp], #4
 336              	.LVL10:
 337              	.L35:
 338              		.cfi_restore_state
 339              		.loc 1 88 1 view .LVU25
 340 002a FFF7FEFF 		bl	__stack_chk_fail
 341              	.LVL11:
 342              	.L37:
ARM GAS  /tmp/ccWdPANE.s 			page 7


 343              		.loc 1 88 1 view .LVU26
 344 002e 00BF     		.align	2
 345              	.L36:
 346 0030 00000000 		.word	.LC5
 347              		.cfi_endproc
 348              	.LFE261:
 349              		.size	e_i2cp_write, .-e_i2cp_write
 350              		.text
 351              	.Letext0:
 352              		.file 2 "/usr/lib/gcc/arm-none-eabi/9.2.1/include/stddef.h"
 353              		.file 3 "/usr/lib/gcc/arm-none-eabi/9.2.1/include/stdint.h"
 354              		.file 4 ".//ChibiOS//os/rt/ports/ARMCMx/compilers/GCC/chtypes.h"
 355              		.file 5 ".//ChibiOS//os/rt/include/chsystypes.h"
 356              		.file 6 ".//ChibiOS//os/rt/include/chschd.h"
 357              		.file 7 ".//ChibiOS//os/ext/CMSIS/include/core_cm4.h"
 358              		.file 8 ".//ChibiOS//os/ext/CMSIS/ST/system_stm32f4xx.h"
 359              		.file 9 ".//ChibiOS//os/ext/CMSIS/ST/stm32f407xx.h"
 360              		.file 10 ".//ChibiOS//os/rt/ports/ARMCMx/chcore.h"
 361              		.file 11 ".//ChibiOS//os/rt/ports/ARMCMx/chcore_v7m.h"
 362              		.file 12 ".//ChibiOS//os/rt/include/chdebug.h"
 363              		.file 13 ".//ChibiOS//os/rt/include/chtm.h"
 364              		.file 14 ".//ChibiOS//os/rt/include/chstats.h"
 365              		.file 15 ".//ChibiOS//os/rt/include/chsem.h"
 366              		.file 16 ".//ChibiOS//os/rt/include/chmtx.h"
 367              		.file 17 ".//ChibiOS//os/rt/include/chregistry.h"
 368              		.file 18 ".//ChibiOS//os/rt/include/chevents.h"
 369              		.file 19 ".//ChibiOS//os/rt/include/chqueues.h"
 370              		.file 20 ".//ChibiOS//os/hal/ports/STM32/STM32F4xx/stm32_dma.h"
 371              		.file 21 ".//ChibiOS//os/hal/include/hal_ioblock.h"
 372              		.file 22 ".//ChibiOS//os/hal/ports/STM32/LLD/GPIOv2/pal_lld.h"
 373              		.file 23 ".//ChibiOS//os/hal/include/adc.h"
 374              		.file 24 ".//ChibiOS//os/hal/ports/STM32/STM32F4xx/adc_lld.h"
 375              		.file 25 ".//ChibiOS//os/hal/include/can.h"
 376              		.file 26 ".//ChibiOS//os/hal/ports/STM32/LLD/can_lld.h"
 377              		.file 27 ".//ChibiOS//os/hal/include/dac.h"
 378              		.file 28 ".//ChibiOS//os/hal/ports/STM32/LLD/DACv1/dac_lld.h"
 379              		.file 29 ".//ChibiOS//os/hal/include/ext.h"
 380              		.file 30 ".//ChibiOS//os/hal/ports/STM32/LLD/ext_lld.h"
 381              		.file 31 ".//ChibiOS//os/hal/include/gpt.h"
 382              		.file 32 ".//ChibiOS//os/hal/ports/STM32/LLD/TIMv1/gpt_lld.h"
 383              		.file 33 ".//ChibiOS//os/hal/ports/STM32/LLD/TIMv1/stm32_tim.h"
 384              		.file 34 ".//ChibiOS//os/hal/include/i2c.h"
 385              		.file 35 ".//ChibiOS//os/hal/ports/STM32/LLD/I2Cv1/i2c_lld.h"
 386              		.file 36 ".//ChibiOS//os/hal/include/i2s.h"
 387              		.file 37 ".//ChibiOS//os/hal/ports/STM32/LLD/SPIv1/i2s_lld.h"
 388              		.file 38 ".//ChibiOS//os/hal/include/pwm.h"
 389              		.file 39 ".//ChibiOS//os/hal/ports/STM32/LLD/TIMv1/pwm_lld.h"
 390              		.file 40 ".//ChibiOS//os/hal/include/serial.h"
 391              		.file 41 ".//ChibiOS//os/hal/ports/STM32/LLD/USARTv1/serial_lld.h"
 392              		.file 42 ".//ChibiOS//os/hal/include/sdc.h"
 393              		.file 43 ".//ChibiOS//os/hal/ports/STM32/LLD/sdc_lld.h"
 394              		.file 44 ".//ChibiOS//os/hal/include/spi.h"
 395              		.file 45 ".//ChibiOS//os/hal/ports/STM32/LLD/SPIv1/spi_lld.h"
 396              		.file 46 ".//ChibiOS//os/hal/include/usb.h"
 397              		.file 47 ".//ChibiOS//os/hal/ports/STM32/LLD/OTGv1/usb_lld.h"
 398              		.file 48 ".//ChibiOS//os/hal/ports/STM32/LLD/OTGv1/stm32_otg.h"
 399              		.file 49 ".//src/epuck1x/../i2c_bus.h"
ARM GAS  /tmp/ccWdPANE.s 			page 8

