ARM GAS  /tmp/ccJDMPNu.s 			page 1


   1              		.cpu cortex-m4
   2              		.eabi_attribute 27, 1
   3              		.eabi_attribute 28, 1
   4              		.eabi_attribute 20, 1
   5              		.eabi_attribute 21, 1
   6              		.eabi_attribute 23, 3
   7              		.eabi_attribute 24, 1
   8              		.eabi_attribute 25, 1
   9              		.eabi_attribute 26, 1
  10              		.eabi_attribute 30, 2
  11              		.eabi_attribute 34, 1
  12              		.eabi_attribute 18, 4
  13              		.file	"e_init_port.c"
  14              		.text
  15              	.Ltext0:
  16              		.cfi_sections	.debug_frame
  17              		.section	.rodata.e_init_port.cst4,"aM",%progbits,4
  18              		.align	2
  19              	.LC0:
  20 0000 00000000 		.word	__stack_chk_guard
  21              		.section	.text.e_init_port,"ax",%progbits
  22              		.align	1
  23              		.p2align 4,,15
  24              		.global	e_init_port
  25              		.arch armv7e-m
  26              		.syntax unified
  27              		.thumb
  28              		.thumb_func
  29              		.fpu fpv4-sp-d16
  30              		.type	e_init_port, %function
  31              	e_init_port:
  32              	.LFB0:
  33              		.file 1 ".//src/epuck1x/motor_led/e_init_port.c"
  34              		.loc 1 39 24 view -0
  35              		.cfi_startproc
  36              		@ args = 0, pretend = 0, frame = 8
  37              		@ frame_needed = 0, uses_anonymous_args = 0
  38 0000 00B5     		push	{lr}
  39              		.cfi_def_cfa_offset 4
  40              		.cfi_offset 14, -4
  41 0002 084B     		ldr	r3, .L6
  42 0004 83B0     		sub	sp, sp, #12
  43              		.cfi_def_cfa_offset 16
  44              		.loc 1 39 24 is_stmt 0 view .LVU1
  45 0006 1B68     		ldr	r3, [r3]
  46 0008 0193     		str	r3, [sp, #4]
  47 000a 4FF00003 		mov	r3,#0
  48              		.loc 1 40 2 is_stmt 1 view .LVU2
  49              		.loc 1 41 1 is_stmt 0 view .LVU3
  50 000e 054B     		ldr	r3, .L6
  51 0010 1A68     		ldr	r2, [r3]
  52 0012 019B     		ldr	r3, [sp, #4]
  53 0014 5A40     		eors	r2, r3, r2
  54 0016 02D1     		bne	.L5
  55 0018 03B0     		add	sp, sp, #12
  56              		.cfi_remember_state
  57              		.cfi_def_cfa_offset 4
ARM GAS  /tmp/ccJDMPNu.s 			page 2


  58              		@ sp needed
  59 001a 5DF804FB 		ldr	pc, [sp], #4
  60              	.L5:
  61              		.cfi_restore_state
  62 001e FFF7FEFF 		bl	__stack_chk_fail
  63              	.LVL0:
  64              	.L7:
  65 0022 00BF     		.align	2
  66              	.L6:
  67 0024 00000000 		.word	.LC0
  68              		.cfi_endproc
  69              	.LFE0:
  70              		.size	e_init_port, .-e_init_port
  71              		.section	.rodata.isEpuckVersion1_3.cst4,"aM",%progbits,4
  72              		.align	2
  73              	.LC1:
  74 0000 00000000 		.word	__stack_chk_guard
  75              		.section	.text.isEpuckVersion1_3,"ax",%progbits
  76              		.align	1
  77              		.p2align 4,,15
  78              		.global	isEpuckVersion1_3
  79              		.syntax unified
  80              		.thumb
  81              		.thumb_func
  82              		.fpu fpv4-sp-d16
  83              		.type	isEpuckVersion1_3, %function
  84              	isEpuckVersion1_3:
  85              	.LFB1:
  86              		.loc 1 43 39 is_stmt 1 view -0
  87              		.cfi_startproc
  88              		@ args = 0, pretend = 0, frame = 8
  89              		@ frame_needed = 0, uses_anonymous_args = 0
  90 0000 00B5     		push	{lr}
  91              		.cfi_def_cfa_offset 4
  92              		.cfi_offset 14, -4
  93 0002 084B     		ldr	r3, .L12
  94 0004 83B0     		sub	sp, sp, #12
  95              		.cfi_def_cfa_offset 16
  96              		.loc 1 43 39 is_stmt 0 view .LVU5
  97 0006 1B68     		ldr	r3, [r3]
  98 0008 0193     		str	r3, [sp, #4]
  99 000a 4FF00003 		mov	r3,#0
 100              		.loc 1 44 5 is_stmt 1 view .LVU6
 101              		.loc 1 45 1 is_stmt 0 view .LVU7
 102 000e 054B     		ldr	r3, .L12
 103 0010 1A68     		ldr	r2, [r3]
 104 0012 019B     		ldr	r3, [sp, #4]
 105 0014 5A40     		eors	r2, r3, r2
 106 0016 03D1     		bne	.L11
 107 0018 0120     		movs	r0, #1
 108 001a 03B0     		add	sp, sp, #12
 109              		.cfi_remember_state
 110              		.cfi_def_cfa_offset 4
 111              		@ sp needed
 112 001c 5DF804FB 		ldr	pc, [sp], #4
 113              	.L11:
 114              		.cfi_restore_state
ARM GAS  /tmp/ccJDMPNu.s 			page 3


 115 0020 FFF7FEFF 		bl	__stack_chk_fail
 116              	.LVL1:
 117              	.L13:
 118              		.align	2
 119              	.L12:
 120 0024 00000000 		.word	.LC1
 121              		.cfi_endproc
 122              	.LFE1:
 123              		.size	isEpuckVersion1_3, .-isEpuckVersion1_3
 124              		.text
 125              	.Letext0: