ARM GAS  /tmp/cc9ZVZUy.s 			page 1


   1              		.cpu cortex-m4
   2              		.eabi_attribute 27, 1
   3              		.eabi_attribute 28, 1
   4              		.eabi_attribute 20, 1
   5              		.eabi_attribute 21, 1
   6              		.eabi_attribute 23, 3
   7              		.eabi_attribute 24, 1
   8              		.eabi_attribute 25, 1
   9              		.eabi_attribute 26, 1
  10              		.eabi_attribute 30, 2
  11              		.eabi_attribute 34, 1
  12              		.eabi_attribute 18, 4
  13              		.file	"e_led.c"
  14              		.text
  15              	.Ltext0:
  16              		.cfi_sections	.debug_frame
  17              		.section	.rodata.e_set_led.cst4,"aM",%progbits,4
  18              		.align	2
  19              	.LC0:
  20 0000 00000000 		.word	__stack_chk_guard
  21              		.section	.text.e_set_led,"ax",%progbits
  22              		.align	1
  23              		.p2align 4,,15
  24              		.global	e_set_led
  25              		.arch armv7e-m
  26              		.syntax unified
  27              		.thumb
  28              		.thumb_func
  29              		.fpu fpv4-sp-d16
  30              		.type	e_set_led, %function
  31              	e_set_led:
  32              	.LVL0:
  33              	.LFB256:
  34              		.file 1 ".//src/epuck1x/motor_led/advance_one_timer/e_led.c"
  35              		.loc 1 25 1 view -0
  36              		.cfi_startproc
  37              		@ args = 0, pretend = 0, frame = 16
  38              		@ frame_needed = 0, uses_anonymous_args = 0
  39              		.loc 1 25 1 is_stmt 0 view .LVU1
  40 0000 10B5     		push	{r4, lr}
  41              		.cfi_def_cfa_offset 8
  42              		.cfi_offset 4, -8
  43              		.cfi_offset 14, -4
  44 0002 5A4B     		ldr	r3, .L39
  45 0004 84B0     		sub	sp, sp, #16
  46              		.cfi_def_cfa_offset 24
  47              		.loc 1 25 1 view .LVU2
  48 0006 1B68     		ldr	r3, [r3]
  49 0008 0393     		str	r3, [sp, #12]
  50 000a 4FF00003 		mov	r3,#0
  51              		.loc 1 26 2 is_stmt 1 view .LVU3
  52 000e 0728     		cmp	r0, #7
  53 0010 00F29B80 		bhi	.L29
  54 0014 DFE800F0 		tbb	[pc, r0]
  55              	.L4:
  56 0018 13       		.byte	(.L11-.L4)/2
  57 0019 1F       		.byte	(.L10-.L4)/2
ARM GAS  /tmp/cc9ZVZUy.s 			page 2


  58 001a 2A       		.byte	(.L9-.L4)/2
  59 001b 33       		.byte	(.L8-.L4)/2
  60 001c 3E       		.byte	(.L7-.L4)/2
  61 001d 4A       		.byte	(.L6-.L4)/2
  62 001e 55       		.byte	(.L5-.L4)/2
  63 001f 04       		.byte	(.L3-.L4)/2
  64              		.p2align 1
  65              	.L3:
  66              		.loc 1 62 4 view .LVU4
  67              		.loc 1 62 6 is_stmt 0 view .LVU5
  68 0020 0129     		cmp	r1, #1
  69              		.loc 1 63 5 view .LVU6
  70 0022 524B     		ldr	r3, .L39
  71              		.loc 1 62 6 view .LVU7
  72 0024 59D9     		bls	.L25
  73              		.loc 1 63 5 is_stmt 1 view .LVU8
  74 0026 1A68     		ldr	r2, [r3]
  75 0028 039B     		ldr	r3, [sp, #12]
  76 002a 5A40     		eors	r2, r3, r2
  77 002c 25D1     		bne	.L34
  78 002e 0A22     		movs	r2, #10
  79 0030 0021     		movs	r1, #0
  80              	.LVL1:
  81              		.loc 1 63 5 is_stmt 0 view .LVU9
  82 0032 0320     		movs	r0, #3
  83              	.LVL2:
  84              	.L33:
  85              		.loc 1 74 1 view .LVU10
  86 0034 04B0     		add	sp, sp, #16
  87              		.cfi_remember_state
  88              		.cfi_def_cfa_offset 8
  89              		@ sp needed
  90 0036 BDE81040 		pop	{r4, lr}
  91              		.cfi_restore 14
  92              		.cfi_restore 4
  93              		.cfi_def_cfa_offset 0
  94              		.loc 1 43 5 view .LVU11
  95 003a FFF7FEBF 		b	toggle_rgb_led
  96              	.LVL3:
  97              	.L11:
  98              		.cfi_restore_state
  99              		.loc 1 29 4 is_stmt 1 view .LVU12
 100 003e 4B4B     		ldr	r3, .L39
 101 0040 1A68     		ldr	r2, [r3]
 102 0042 039B     		ldr	r3, [sp, #12]
 103 0044 5A40     		eors	r2, r3, r2
 104 0046 08BF     		it	eq
 105 0048 0020     		moveq	r0, #0
 106              	.LVL4:
 107              		.loc 1 29 4 is_stmt 0 view .LVU13
 108 004a 16D1     		bne	.L34
 109              	.L32:
 110              		.loc 1 74 1 view .LVU14
 111 004c 04B0     		add	sp, sp, #16
 112              		.cfi_remember_state
 113              		.cfi_def_cfa_offset 8
 114              		@ sp needed
ARM GAS  /tmp/cc9ZVZUy.s 			page 3


 115 004e BDE81040 		pop	{r4, lr}
 116              		.cfi_restore 14
 117              		.cfi_restore 4
 118              		.cfi_def_cfa_offset 0
 119              		.loc 1 39 4 view .LVU15
 120 0052 FFF7FEBF 		b	set_led
 121              	.LVL5:
 122              	.L10:
 123              		.cfi_restore_state
 124              		.loc 1 32 4 is_stmt 1 view .LVU16
 125              		.loc 1 32 6 is_stmt 0 view .LVU17
 126 0056 0129     		cmp	r1, #1
 127              		.loc 1 33 5 view .LVU18
 128 0058 444B     		ldr	r3, .L39
 129              		.loc 1 32 6 view .LVU19
 130 005a 69D9     		bls	.L13
 131              		.loc 1 33 5 is_stmt 1 view .LVU20
 132 005c 1A68     		ldr	r2, [r3]
 133 005e 039B     		ldr	r3, [sp, #12]
 134 0060 5A40     		eors	r2, r3, r2
 135 0062 0AD1     		bne	.L34
 136 0064 0021     		movs	r1, #0
 137              	.LVL6:
 138              		.loc 1 33 5 is_stmt 0 view .LVU21
 139 0066 0846     		mov	r0, r1
 140              	.LVL7:
 141              		.loc 1 33 5 view .LVU22
 142 0068 0A22     		movs	r2, #10
 143 006a E3E7     		b	.L33
 144              	.LVL8:
 145              	.L9:
 146              		.loc 1 39 4 is_stmt 1 view .LVU23
 147 006c 3F4B     		ldr	r3, .L39
 148 006e 1A68     		ldr	r2, [r3]
 149 0070 039B     		ldr	r3, [sp, #12]
 150 0072 5A40     		eors	r2, r3, r2
 151 0074 08BF     		it	eq
 152 0076 0120     		moveq	r0, #1
 153              	.LVL9:
 154              		.loc 1 39 4 is_stmt 0 view .LVU24
 155 0078 E8D0     		beq	.L32
 156              	.LVL10:
 157              	.L34:
 158              		.loc 1 74 1 view .LVU25
 159 007a FFF7FEFF 		bl	__stack_chk_fail
 160              	.LVL11:
 161              	.L8:
 162              		.loc 1 42 4 is_stmt 1 view .LVU26
 163              		.loc 1 42 6 is_stmt 0 view .LVU27
 164 007e 0129     		cmp	r1, #1
 165              		.loc 1 43 5 view .LVU28
 166 0080 3A4B     		ldr	r3, .L39
 167              		.loc 1 42 6 view .LVU29
 168 0082 48D9     		bls	.L17
 169              		.loc 1 43 5 is_stmt 1 view .LVU30
 170 0084 1A68     		ldr	r2, [r3]
 171 0086 039B     		ldr	r3, [sp, #12]
ARM GAS  /tmp/cc9ZVZUy.s 			page 4


 172 0088 5A40     		eors	r2, r3, r2
 173 008a F6D1     		bne	.L34
 174 008c 0A22     		movs	r2, #10
 175 008e 0021     		movs	r1, #0
 176              	.LVL12:
 177              		.loc 1 43 5 is_stmt 0 view .LVU31
 178 0090 0120     		movs	r0, #1
 179              	.LVL13:
 180              		.loc 1 43 5 view .LVU32
 181 0092 CFE7     		b	.L33
 182              	.LVL14:
 183              	.L7:
 184              		.loc 1 49 4 is_stmt 1 view .LVU33
 185 0094 354B     		ldr	r3, .L39
 186 0096 1A68     		ldr	r2, [r3]
 187 0098 039B     		ldr	r3, [sp, #12]
 188 009a 5A40     		eors	r2, r3, r2
 189 009c 08BF     		it	eq
 190 009e 0220     		moveq	r0, #2
 191              	.LVL15:
 192              		.loc 1 49 4 is_stmt 0 view .LVU34
 193 00a0 EBD1     		bne	.L34
 194              		.loc 1 74 1 view .LVU35
 195 00a2 04B0     		add	sp, sp, #16
 196              		.cfi_remember_state
 197              		.cfi_def_cfa_offset 8
 198              		@ sp needed
 199 00a4 BDE81040 		pop	{r4, lr}
 200              		.cfi_restore 14
 201              		.cfi_restore 4
 202              		.cfi_def_cfa_offset 0
 203              		.loc 1 39 4 view .LVU36
 204 00a8 FFF7FEBF 		b	set_led
 205              	.LVL16:
 206              	.L6:
 207              		.cfi_restore_state
 208              		.loc 1 52 4 is_stmt 1 view .LVU37
 209              		.loc 1 52 6 is_stmt 0 view .LVU38
 210 00ac 0129     		cmp	r1, #1
 211              		.loc 1 53 5 view .LVU39
 212 00ae 2F4B     		ldr	r3, .L39
 213              		.loc 1 52 6 view .LVU40
 214 00b0 24D9     		bls	.L21
 215              		.loc 1 53 5 is_stmt 1 view .LVU41
 216 00b2 1A68     		ldr	r2, [r3]
 217 00b4 039B     		ldr	r3, [sp, #12]
 218 00b6 5A40     		eors	r2, r3, r2
 219 00b8 DFD1     		bne	.L34
 220 00ba 0A22     		movs	r2, #10
 221 00bc 0021     		movs	r1, #0
 222              	.LVL17:
 223              		.loc 1 53 5 is_stmt 0 view .LVU42
 224 00be 0220     		movs	r0, #2
 225              	.LVL18:
 226              		.loc 1 53 5 view .LVU43
 227 00c0 B8E7     		b	.L33
 228              	.LVL19:
ARM GAS  /tmp/cc9ZVZUy.s 			page 5


 229              	.L5:
 230              		.loc 1 59 4 is_stmt 1 view .LVU44
 231 00c2 2A4B     		ldr	r3, .L39
 232 00c4 1A68     		ldr	r2, [r3]
 233 00c6 039B     		ldr	r3, [sp, #12]
 234 00c8 5A40     		eors	r2, r3, r2
 235 00ca 08BF     		it	eq
 236 00cc 0320     		moveq	r0, #3
 237              	.LVL20:
 238              		.loc 1 59 4 is_stmt 0 view .LVU45
 239 00ce D4D1     		bne	.L34
 240              		.loc 1 74 1 view .LVU46
 241 00d0 04B0     		add	sp, sp, #16
 242              		.cfi_remember_state
 243              		.cfi_def_cfa_offset 8
 244              		@ sp needed
 245 00d2 BDE81040 		pop	{r4, lr}
 246              		.cfi_restore 14
 247              		.cfi_restore 4
 248              		.cfi_def_cfa_offset 0
 249              		.loc 1 39 4 view .LVU47
 250 00d6 FFF7FEBF 		b	set_led
 251              	.LVL21:
 252              	.L25:
 253              		.cfi_restore_state
 254              		.loc 1 65 5 is_stmt 1 view .LVU48
 255 00da 1A68     		ldr	r2, [r3]
 256 00dc 039B     		ldr	r3, [sp, #12]
 257 00de 5A40     		eors	r2, r3, r2
 258 00e0 CBD1     		bne	.L34
 259 00e2 01EB8101 		add	r1, r1, r1, lsl #2
 260              	.LVL22:
 261              		.loc 1 65 5 is_stmt 0 view .LVU49
 262 00e6 4900     		lsls	r1, r1, #1
 263 00e8 0023     		movs	r3, #0
 264 00ea 01F0FE01 		and	r1, r1, #254
 265 00ee 1A46     		mov	r2, r3
 266 00f0 0320     		movs	r0, #3
 267              	.LVL23:
 268              	.L35:
 269              		.loc 1 74 1 view .LVU50
 270 00f2 04B0     		add	sp, sp, #16
 271              		.cfi_remember_state
 272              		.cfi_def_cfa_offset 8
 273              		@ sp needed
 274 00f4 BDE81040 		pop	{r4, lr}
 275              		.cfi_restore 14
 276              		.cfi_restore 4
 277              		.cfi_def_cfa_offset 0
 278              		.loc 1 65 5 view .LVU51
 279 00f8 FFF7FEBF 		b	set_rgb_led
 280              	.LVL24:
 281              	.L21:
 282              		.cfi_restore_state
 283              		.loc 1 55 5 is_stmt 1 view .LVU52
 284 00fc 1A68     		ldr	r2, [r3]
 285 00fe 039B     		ldr	r3, [sp, #12]
ARM GAS  /tmp/cc9ZVZUy.s 			page 6


 286 0100 5A40     		eors	r2, r3, r2
 287 0102 BAD1     		bne	.L34
 288 0104 01EB8101 		add	r1, r1, r1, lsl #2
 289              	.LVL25:
 290              		.loc 1 55 5 is_stmt 0 view .LVU53
 291 0108 4900     		lsls	r1, r1, #1
 292 010a 0023     		movs	r3, #0
 293 010c 01F0FE01 		and	r1, r1, #254
 294 0110 1A46     		mov	r2, r3
 295 0112 0220     		movs	r0, #2
 296              	.LVL26:
 297              		.loc 1 55 5 view .LVU54
 298 0114 EDE7     		b	.L35
 299              	.LVL27:
 300              	.L17:
 301              		.loc 1 45 5 is_stmt 1 view .LVU55
 302 0116 1A68     		ldr	r2, [r3]
 303 0118 039B     		ldr	r3, [sp, #12]
 304 011a 5A40     		eors	r2, r3, r2
 305 011c ADD1     		bne	.L34
 306 011e 01EB8101 		add	r1, r1, r1, lsl #2
 307              	.LVL28:
 308              		.loc 1 45 5 is_stmt 0 view .LVU56
 309 0122 4900     		lsls	r1, r1, #1
 310 0124 0023     		movs	r3, #0
 311 0126 01F0FE01 		and	r1, r1, #254
 312 012a 1A46     		mov	r2, r3
 313 012c 0120     		movs	r0, #1
 314              	.LVL29:
 315              		.loc 1 45 5 view .LVU57
 316 012e E0E7     		b	.L35
 317              	.LVL30:
 318              	.L13:
 319              		.loc 1 35 5 is_stmt 1 view .LVU58
 320 0130 1A68     		ldr	r2, [r3]
 321 0132 039B     		ldr	r3, [sp, #12]
 322 0134 5A40     		eors	r2, r3, r2
 323 0136 A0D1     		bne	.L34
 324 0138 01EB8101 		add	r1, r1, r1, lsl #2
 325              	.LVL31:
 326              		.loc 1 35 5 is_stmt 0 view .LVU59
 327 013c 0023     		movs	r3, #0
 328 013e 4900     		lsls	r1, r1, #1
 329 0140 01F0FE01 		and	r1, r1, #254
 330 0144 1A46     		mov	r2, r3
 331 0146 1846     		mov	r0, r3
 332              	.LVL32:
 333              		.loc 1 35 5 view .LVU60
 334 0148 D3E7     		b	.L35
 335              	.LVL33:
 336              	.L29:
 337              		.loc 1 25 1 view .LVU61
 338 014a 0024     		movs	r4, #0
 339              	.LVL34:
 340              	.L2:
 341              	.LBB6:
 342              		.loc 1 70 5 is_stmt 1 discriminator 3 view .LVU62
ARM GAS  /tmp/cc9ZVZUy.s 			page 7


 343 014c 2046     		mov	r0, r4
 344              		.loc 1 69 23 is_stmt 0 discriminator 3 view .LVU63
 345 014e 0134     		adds	r4, r4, #1
 346              	.LVL35:
 347              		.loc 1 70 5 discriminator 3 view .LVU64
 348 0150 0191     		str	r1, [sp, #4]
 349 0152 FFF7FEFF 		bl	e_set_led
 350              	.LVL36:
 351              		.loc 1 69 22 is_stmt 1 discriminator 3 view .LVU65
 352              		.loc 1 69 17 discriminator 3 view .LVU66
 353              		.loc 1 69 4 is_stmt 0 discriminator 3 view .LVU67
 354 0156 082C     		cmp	r4, #8
 355 0158 0199     		ldr	r1, [sp, #4]
 356 015a F7D1     		bne	.L2
 357              	.LBE6:
 358              		.loc 1 74 1 view .LVU68
 359 015c 034B     		ldr	r3, .L39
 360 015e 1A68     		ldr	r2, [r3]
 361 0160 039B     		ldr	r3, [sp, #12]
 362 0162 5A40     		eors	r2, r3, r2
 363 0164 89D1     		bne	.L34
 364 0166 04B0     		add	sp, sp, #16
 365              		@ sp needed
 366 0168 10BD     		pop	{r4, pc}
 367              	.LVL37:
 368              	.L40:
 369              		.loc 1 74 1 view .LVU69
 370 016a 00BF     		.align	2
 371              	.L39:
 372 016c 00000000 		.word	.LC0
 373              		.cfi_endproc
 374              	.LFE256:
 375              		.size	e_set_led, .-e_set_led
 376              		.section	.rodata.e_led_clear.cst4,"aM",%progbits,4
 377              		.align	2
 378              	.LC1:
 379 0000 00000000 		.word	__stack_chk_guard
 380              		.section	.text.e_led_clear,"ax",%progbits
 381              		.align	1
 382              		.p2align 4,,15
 383              		.global	e_led_clear
 384              		.syntax unified
 385              		.thumb
 386              		.thumb_func
 387              		.fpu fpv4-sp-d16
 388              		.type	e_led_clear, %function
 389              	e_led_clear:
 390              	.LFB257:
 391              		.loc 1 82 1 is_stmt 1 view -0
 392              		.cfi_startproc
 393              		@ args = 0, pretend = 0, frame = 8
 394              		@ frame_needed = 0, uses_anonymous_args = 0
 395 0000 00B5     		push	{lr}
 396              		.cfi_def_cfa_offset 4
 397              		.cfi_offset 14, -4
 398 0002 094B     		ldr	r3, .L46
 399 0004 83B0     		sub	sp, sp, #12
ARM GAS  /tmp/cc9ZVZUy.s 			page 8


 400              		.cfi_def_cfa_offset 16
 401              		.loc 1 82 1 is_stmt 0 view .LVU71
 402 0006 1B68     		ldr	r3, [r3]
 403 0008 0193     		str	r3, [sp, #4]
 404 000a 4FF00003 		mov	r3,#0
 405              		.loc 1 83 2 is_stmt 1 view .LVU72
 406 000e 064B     		ldr	r3, .L46
 407 0010 1A68     		ldr	r2, [r3]
 408 0012 019B     		ldr	r3, [sp, #4]
 409 0014 5A40     		eors	r2, r3, r2
 410 0016 04D1     		bne	.L45
 411              		.loc 1 84 1 is_stmt 0 view .LVU73
 412 0018 03B0     		add	sp, sp, #12
 413              		.cfi_remember_state
 414              		.cfi_def_cfa_offset 4
 415              		@ sp needed
 416 001a 5DF804EB 		ldr	lr, [sp], #4
 417              		.cfi_restore 14
 418              		.cfi_def_cfa_offset 0
 419              		.loc 1 83 2 view .LVU74
 420 001e FFF7FEBF 		b	clear_leds
 421              	.LVL38:
 422              	.L45:
 423              		.cfi_restore_state
 424 0022 FFF7FEFF 		bl	__stack_chk_fail
 425              	.LVL39:
 426              	.L47:
 427 0026 00BF     		.align	2
 428              	.L46:
 429 0028 00000000 		.word	.LC1
 430              		.cfi_endproc
 431              	.LFE257:
 432              		.size	e_led_clear, .-e_led_clear
 433              		.section	.rodata.e_set_body_led.cst4,"aM",%progbits,4
 434              		.align	2
 435              	.LC2:
 436 0000 00000000 		.word	__stack_chk_guard
 437              		.section	.text.e_set_body_led,"ax",%progbits
 438              		.align	1
 439              		.p2align 4,,15
 440              		.global	e_set_body_led
 441              		.syntax unified
 442              		.thumb
 443              		.thumb_func
 444              		.fpu fpv4-sp-d16
 445              		.type	e_set_body_led, %function
 446              	e_set_body_led:
 447              	.LVL40:
 448              	.LFB258:
 449              		.loc 1 93 1 is_stmt 1 view -0
 450              		.cfi_startproc
 451              		@ args = 0, pretend = 0, frame = 8
 452              		@ frame_needed = 0, uses_anonymous_args = 0
 453              		.loc 1 93 1 is_stmt 0 view .LVU76
 454 0000 00B5     		push	{lr}
 455              		.cfi_def_cfa_offset 4
 456              		.cfi_offset 14, -4
ARM GAS  /tmp/cc9ZVZUy.s 			page 9


 457 0002 094B     		ldr	r3, .L53
 458 0004 83B0     		sub	sp, sp, #12
 459              		.cfi_def_cfa_offset 16
 460              		.loc 1 93 1 view .LVU77
 461 0006 1B68     		ldr	r3, [r3]
 462 0008 0193     		str	r3, [sp, #4]
 463 000a 4FF00003 		mov	r3,#0
 464              		.loc 1 94 2 is_stmt 1 view .LVU78
 465 000e 064B     		ldr	r3, .L53
 466 0010 1A68     		ldr	r2, [r3]
 467 0012 019B     		ldr	r3, [sp, #4]
 468 0014 5A40     		eors	r2, r3, r2
 469 0016 04D1     		bne	.L52
 470              		.loc 1 95 1 is_stmt 0 view .LVU79
 471 0018 03B0     		add	sp, sp, #12
 472              		.cfi_remember_state
 473              		.cfi_def_cfa_offset 4
 474              		@ sp needed
 475 001a 5DF804EB 		ldr	lr, [sp], #4
 476              		.cfi_restore 14
 477              		.cfi_def_cfa_offset 0
 478              		.loc 1 94 2 view .LVU80
 479 001e FFF7FEBF 		b	set_body_led
 480              	.LVL41:
 481              	.L52:
 482              		.cfi_restore_state
 483              		.loc 1 94 2 view .LVU81
 484 0022 FFF7FEFF 		bl	__stack_chk_fail
 485              	.LVL42:
 486              	.L54:
 487              		.loc 1 94 2 view .LVU82
 488 0026 00BF     		.align	2
 489              	.L53:
 490 0028 00000000 		.word	.LC2
 491              		.cfi_endproc
 492              	.LFE258:
 493              		.size	e_set_body_led, .-e_set_body_led
 494              		.section	.rodata.e_set_front_led.cst4,"aM",%progbits,4
 495              		.align	2
 496              	.LC3:
 497 0000 00000000 		.word	__stack_chk_guard
 498              		.section	.text.e_set_front_led,"ax",%progbits
 499              		.align	1
 500              		.p2align 4,,15
 501              		.global	e_set_front_led
 502              		.syntax unified
 503              		.thumb
 504              		.thumb_func
 505              		.fpu fpv4-sp-d16
 506              		.type	e_set_front_led, %function
 507              	e_set_front_led:
 508              	.LVL43:
 509              	.LFB259:
 510              		.loc 1 104 1 is_stmt 1 view -0
 511              		.cfi_startproc
 512              		@ args = 0, pretend = 0, frame = 8
 513              		@ frame_needed = 0, uses_anonymous_args = 0
ARM GAS  /tmp/cc9ZVZUy.s 			page 10


 514              		.loc 1 104 1 is_stmt 0 view .LVU84
 515 0000 00B5     		push	{lr}
 516              		.cfi_def_cfa_offset 4
 517              		.cfi_offset 14, -4
 518 0002 094B     		ldr	r3, .L60
 519 0004 83B0     		sub	sp, sp, #12
 520              		.cfi_def_cfa_offset 16
 521              		.loc 1 104 1 view .LVU85
 522 0006 1B68     		ldr	r3, [r3]
 523 0008 0193     		str	r3, [sp, #4]
 524 000a 4FF00003 		mov	r3,#0
 525              		.loc 1 105 2 is_stmt 1 view .LVU86
 526 000e 064B     		ldr	r3, .L60
 527 0010 1A68     		ldr	r2, [r3]
 528 0012 019B     		ldr	r3, [sp, #4]
 529 0014 5A40     		eors	r2, r3, r2
 530 0016 04D1     		bne	.L59
 531              		.loc 1 106 1 is_stmt 0 view .LVU87
 532 0018 03B0     		add	sp, sp, #12
 533              		.cfi_remember_state
 534              		.cfi_def_cfa_offset 4
 535              		@ sp needed
 536 001a 5DF804EB 		ldr	lr, [sp], #4
 537              		.cfi_restore 14
 538              		.cfi_def_cfa_offset 0
 539              		.loc 1 105 2 view .LVU88
 540 001e FFF7FEBF 		b	set_front_led
 541              	.LVL44:
 542              	.L59:
 543              		.cfi_restore_state
 544              		.loc 1 105 2 view .LVU89
 545 0022 FFF7FEFF 		bl	__stack_chk_fail
 546              	.LVL45:
 547              	.L61:
 548              		.loc 1 105 2 view .LVU90
 549 0026 00BF     		.align	2
 550              	.L60:
 551 0028 00000000 		.word	.LC3
 552              		.cfi_endproc
 553              	.LFE259:
 554              		.size	e_set_front_led, .-e_set_front_led
 555              		.section	.rodata.e_blink_led.cst4,"aM",%progbits,4
 556              		.align	2
 557              	.LC4:
 558 0000 00000000 		.word	__stack_chk_guard
 559              		.section	.text.e_blink_led,"ax",%progbits
 560              		.align	1
 561              		.p2align 4,,15
 562              		.global	e_blink_led
 563              		.syntax unified
 564              		.thumb
 565              		.thumb_func
 566              		.fpu fpv4-sp-d16
 567              		.type	e_blink_led, %function
 568              	e_blink_led:
 569              	.LFB260:
 570              		.loc 1 114 1 is_stmt 1 view -0
ARM GAS  /tmp/cc9ZVZUy.s 			page 11


 571              		.cfi_startproc
 572              		@ args = 0, pretend = 0, frame = 8
 573              		@ frame_needed = 0, uses_anonymous_args = 0
 574 0000 00B5     		push	{lr}
 575              		.cfi_def_cfa_offset 4
 576              		.cfi_offset 14, -4
 577 0002 0A4B     		ldr	r3, .L67
 578 0004 83B0     		sub	sp, sp, #12
 579              		.cfi_def_cfa_offset 16
 580              		.loc 1 114 1 is_stmt 0 view .LVU92
 581 0006 1B68     		ldr	r3, [r3]
 582 0008 0193     		str	r3, [sp, #4]
 583 000a 4FF00003 		mov	r3,#0
 584              		.loc 1 115 2 is_stmt 1 view .LVU93
 585 000e 074B     		ldr	r3, .L67
 586 0010 1A68     		ldr	r2, [r3]
 587 0012 019B     		ldr	r3, [sp, #4]
 588 0014 5A40     		eors	r2, r3, r2
 589 0016 06D1     		bne	.L66
 590 0018 0221     		movs	r1, #2
 591 001a 0420     		movs	r0, #4
 592              		.loc 1 117 1 is_stmt 0 view .LVU94
 593 001c 03B0     		add	sp, sp, #12
 594              		.cfi_remember_state
 595              		.cfi_def_cfa_offset 4
 596              		@ sp needed
 597 001e 5DF804EB 		ldr	lr, [sp], #4
 598              		.cfi_restore 14
 599              		.cfi_def_cfa_offset 0
 600              		.loc 1 115 2 view .LVU95
 601 0022 FFF7FEBF 		b	set_led
 602              	.LVL46:
 603              	.L66:
 604              		.cfi_restore_state
 605 0026 FFF7FEFF 		bl	__stack_chk_fail
 606              	.LVL47:
 607              	.L68:
 608 002a 00BF     		.align	2
 609              	.L67:
 610 002c 00000000 		.word	.LC4
 611              		.cfi_endproc
 612              	.LFE260:
 613              		.size	e_blink_led, .-e_blink_led
 614              		.section	.rodata.e_blink_led0.cst4,"aM",%progbits,4
 615              		.align	2
 616              	.LC5:
 617 0000 00000000 		.word	__stack_chk_guard
 618              		.section	.text.e_blink_led0,"ax",%progbits
 619              		.align	1
 620              		.p2align 4,,15
 621              		.global	e_blink_led0
 622              		.syntax unified
 623              		.thumb
 624              		.thumb_func
 625              		.fpu fpv4-sp-d16
 626              		.type	e_blink_led0, %function
 627              	e_blink_led0:
ARM GAS  /tmp/cc9ZVZUy.s 			page 12


 628              	.LFB261:
 629              		.loc 1 125 1 is_stmt 1 view -0
 630              		.cfi_startproc
 631              		@ args = 0, pretend = 0, frame = 8
 632              		@ frame_needed = 0, uses_anonymous_args = 0
 633 0000 00B5     		push	{lr}
 634              		.cfi_def_cfa_offset 4
 635              		.cfi_offset 14, -4
 636 0002 0A4B     		ldr	r3, .L74
 637 0004 83B0     		sub	sp, sp, #12
 638              		.cfi_def_cfa_offset 16
 639              		.loc 1 125 1 is_stmt 0 view .LVU97
 640 0006 1B68     		ldr	r3, [r3]
 641 0008 0193     		str	r3, [sp, #4]
 642 000a 4FF00003 		mov	r3,#0
 643              		.loc 1 126 2 is_stmt 1 view .LVU98
 644 000e 074B     		ldr	r3, .L74
 645 0010 1A68     		ldr	r2, [r3]
 646 0012 019B     		ldr	r3, [sp, #4]
 647 0014 5A40     		eors	r2, r3, r2
 648 0016 06D1     		bne	.L73
 649 0018 0221     		movs	r1, #2
 650 001a 0020     		movs	r0, #0
 651              		.loc 1 127 1 is_stmt 0 view .LVU99
 652 001c 03B0     		add	sp, sp, #12
 653              		.cfi_remember_state
 654              		.cfi_def_cfa_offset 4
 655              		@ sp needed
 656 001e 5DF804EB 		ldr	lr, [sp], #4
 657              		.cfi_restore 14
 658              		.cfi_def_cfa_offset 0
 659              		.loc 1 126 2 view .LVU100
 660 0022 FFF7FEBF 		b	set_led
 661              	.LVL48:
 662              	.L73:
 663              		.cfi_restore_state
 664 0026 FFF7FEFF 		bl	__stack_chk_fail
 665              	.LVL49:
 666              	.L75:
 667 002a 00BF     		.align	2
 668              	.L74:
 669 002c 00000000 		.word	.LC5
 670              		.cfi_endproc
 671              	.LFE261:
 672              		.size	e_blink_led0, .-e_blink_led0
 673              		.section	.rodata.e_blink_led1.cst4,"aM",%progbits,4
 674              		.align	2
 675              	.LC6:
 676 0000 00000000 		.word	__stack_chk_guard
 677              		.section	.text.e_blink_led1,"ax",%progbits
 678              		.align	1
 679              		.p2align 4,,15
 680              		.global	e_blink_led1
 681              		.syntax unified
 682              		.thumb
 683              		.thumb_func
 684              		.fpu fpv4-sp-d16
ARM GAS  /tmp/cc9ZVZUy.s 			page 13


 685              		.type	e_blink_led1, %function
 686              	e_blink_led1:
 687              	.LFB262:
 688              		.loc 1 135 1 is_stmt 1 view -0
 689              		.cfi_startproc
 690              		@ args = 0, pretend = 0, frame = 8
 691              		@ frame_needed = 0, uses_anonymous_args = 0
 692 0000 00B5     		push	{lr}
 693              		.cfi_def_cfa_offset 4
 694              		.cfi_offset 14, -4
 695 0002 084B     		ldr	r3, .L80
 696 0004 83B0     		sub	sp, sp, #12
 697              		.cfi_def_cfa_offset 16
 698              		.loc 1 135 1 is_stmt 0 view .LVU102
 699 0006 1B68     		ldr	r3, [r3]
 700 0008 0193     		str	r3, [sp, #4]
 701 000a 4FF00003 		mov	r3,#0
 702              		.loc 1 137 1 is_stmt 1 view .LVU103
 703 000e 054B     		ldr	r3, .L80
 704 0010 1A68     		ldr	r2, [r3]
 705 0012 019B     		ldr	r3, [sp, #4]
 706 0014 5A40     		eors	r2, r3, r2
 707 0016 02D1     		bne	.L79
 708 0018 03B0     		add	sp, sp, #12
 709              		.cfi_remember_state
 710              		.cfi_def_cfa_offset 4
 711              		@ sp needed
 712 001a 5DF804FB 		ldr	pc, [sp], #4
 713              	.L79:
 714              		.cfi_restore_state
 715 001e FFF7FEFF 		bl	__stack_chk_fail
 716              	.LVL50:
 717              	.L81:
 718 0022 00BF     		.align	2
 719              	.L80:
 720 0024 00000000 		.word	.LC6
 721              		.cfi_endproc
 722              	.LFE262:
 723              		.size	e_blink_led1, .-e_blink_led1
 724              		.section	.rodata.e_blink_led2.cst4,"aM",%progbits,4
 725              		.align	2
 726              	.LC7:
 727 0000 00000000 		.word	__stack_chk_guard
 728              		.section	.text.e_blink_led2,"ax",%progbits
 729              		.align	1
 730              		.p2align 4,,15
 731              		.global	e_blink_led2
 732              		.syntax unified
 733              		.thumb
 734              		.thumb_func
 735              		.fpu fpv4-sp-d16
 736              		.type	e_blink_led2, %function
 737              	e_blink_led2:
 738              	.LFB263:
 739              		.loc 1 145 1 view -0
 740              		.cfi_startproc
 741              		@ args = 0, pretend = 0, frame = 8
ARM GAS  /tmp/cc9ZVZUy.s 			page 14


 742              		@ frame_needed = 0, uses_anonymous_args = 0
 743 0000 00B5     		push	{lr}
 744              		.cfi_def_cfa_offset 4
 745              		.cfi_offset 14, -4
 746 0002 0A4B     		ldr	r3, .L87
 747 0004 83B0     		sub	sp, sp, #12
 748              		.cfi_def_cfa_offset 16
 749              		.loc 1 145 1 is_stmt 0 view .LVU105
 750 0006 1B68     		ldr	r3, [r3]
 751 0008 0193     		str	r3, [sp, #4]
 752 000a 4FF00003 		mov	r3,#0
 753              		.loc 1 146 2 is_stmt 1 view .LVU106
 754 000e 074B     		ldr	r3, .L87
 755 0010 1A68     		ldr	r2, [r3]
 756 0012 019B     		ldr	r3, [sp, #4]
 757 0014 5A40     		eors	r2, r3, r2
 758 0016 06D1     		bne	.L86
 759 0018 0221     		movs	r1, #2
 760 001a 0120     		movs	r0, #1
 761              		.loc 1 147 1 is_stmt 0 view .LVU107
 762 001c 03B0     		add	sp, sp, #12
 763              		.cfi_remember_state
 764              		.cfi_def_cfa_offset 4
 765              		@ sp needed
 766 001e 5DF804EB 		ldr	lr, [sp], #4
 767              		.cfi_restore 14
 768              		.cfi_def_cfa_offset 0
 769              		.loc 1 146 2 view .LVU108
 770 0022 FFF7FEBF 		b	set_led
 771              	.LVL51:
 772              	.L86:
 773              		.cfi_restore_state
 774 0026 FFF7FEFF 		bl	__stack_chk_fail
 775              	.LVL52:
 776              	.L88:
 777 002a 00BF     		.align	2
 778              	.L87:
 779 002c 00000000 		.word	.LC7
 780              		.cfi_endproc
 781              	.LFE263:
 782              		.size	e_blink_led2, .-e_blink_led2
 783              		.section	.rodata.e_blink_led3.cst4,"aM",%progbits,4
 784              		.align	2
 785              	.LC8:
 786 0000 00000000 		.word	__stack_chk_guard
 787              		.section	.text.e_blink_led3,"ax",%progbits
 788              		.align	1
 789              		.p2align 4,,15
 790              		.global	e_blink_led3
 791              		.syntax unified
 792              		.thumb
 793              		.thumb_func
 794              		.fpu fpv4-sp-d16
 795              		.type	e_blink_led3, %function
 796              	e_blink_led3:
 797              	.LFB278:
 798              		.cfi_startproc
ARM GAS  /tmp/cc9ZVZUy.s 			page 15


 799              		@ args = 0, pretend = 0, frame = 8
 800              		@ frame_needed = 0, uses_anonymous_args = 0
 801 0000 00B5     		push	{lr}
 802              		.cfi_def_cfa_offset 4
 803              		.cfi_offset 14, -4
 804 0002 084B     		ldr	r3, .L93
 805 0004 83B0     		sub	sp, sp, #12
 806              		.cfi_def_cfa_offset 16
 807 0006 1B68     		ldr	r3, [r3]
 808 0008 0193     		str	r3, [sp, #4]
 809 000a 4FF00003 		mov	r3,#0
 810 000e 054B     		ldr	r3, .L93
 811 0010 1A68     		ldr	r2, [r3]
 812 0012 019B     		ldr	r3, [sp, #4]
 813 0014 5A40     		eors	r2, r3, r2
 814 0016 02D1     		bne	.L92
 815 0018 03B0     		add	sp, sp, #12
 816              		.cfi_remember_state
 817              		.cfi_def_cfa_offset 4
 818              		@ sp needed
 819 001a 5DF804FB 		ldr	pc, [sp], #4
 820              	.L92:
 821              		.cfi_restore_state
 822 001e FFF7FEFF 		bl	__stack_chk_fail
 823              	.L94:
 824 0022 00BF     		.align	2
 825              	.L93:
 826 0024 00000000 		.word	.LC8
 827              		.cfi_endproc
 828              	.LFE278:
 829              		.size	e_blink_led3, .-e_blink_led3
 830              		.section	.rodata.e_blink_led4.cst4,"aM",%progbits,4
 831              		.align	2
 832              	.LC9:
 833 0000 00000000 		.word	__stack_chk_guard
 834              		.section	.text.e_blink_led4,"ax",%progbits
 835              		.align	1
 836              		.p2align 4,,15
 837              		.global	e_blink_led4
 838              		.syntax unified
 839              		.thumb
 840              		.thumb_func
 841              		.fpu fpv4-sp-d16
 842              		.type	e_blink_led4, %function
 843              	e_blink_led4:
 844              	.LFB265:
 845              		.loc 1 165 1 is_stmt 1 view -0
 846              		.cfi_startproc
 847              		@ args = 0, pretend = 0, frame = 8
 848              		@ frame_needed = 0, uses_anonymous_args = 0
 849              		.loc 1 165 1 is_stmt 0 view .LVU110
 850 0000 00B5     		push	{lr}
 851              		.cfi_def_cfa_offset 4
 852              		.cfi_offset 14, -4
 853 0002 0A4B     		ldr	r3, .L100
 854 0004 83B0     		sub	sp, sp, #12
 855              		.cfi_def_cfa_offset 16
ARM GAS  /tmp/cc9ZVZUy.s 			page 16


 856              		.loc 1 165 1 view .LVU111
 857 0006 1B68     		ldr	r3, [r3]
 858 0008 0193     		str	r3, [sp, #4]
 859 000a 4FF00003 		mov	r3,#0
 860              		.loc 1 166 2 is_stmt 1 view .LVU112
 861 000e 074B     		ldr	r3, .L100
 862 0010 1A68     		ldr	r2, [r3]
 863 0012 019B     		ldr	r3, [sp, #4]
 864 0014 5A40     		eors	r2, r3, r2
 865 0016 06D1     		bne	.L99
 866 0018 0221     		movs	r1, #2
 867 001a 0846     		mov	r0, r1
 868              		.loc 1 167 1 is_stmt 0 view .LVU113
 869 001c 03B0     		add	sp, sp, #12
 870              		.cfi_remember_state
 871              		.cfi_def_cfa_offset 4
 872              		@ sp needed
 873 001e 5DF804EB 		ldr	lr, [sp], #4
 874              		.cfi_restore 14
 875              		.cfi_def_cfa_offset 0
 876              		.loc 1 166 2 view .LVU114
 877 0022 FFF7FEBF 		b	set_led
 878              	.LVL53:
 879              	.L99:
 880              		.cfi_restore_state
 881 0026 FFF7FEFF 		bl	__stack_chk_fail
 882              	.LVL54:
 883              	.L101:
 884 002a 00BF     		.align	2
 885              	.L100:
 886 002c 00000000 		.word	.LC9
 887              		.cfi_endproc
 888              	.LFE265:
 889              		.size	e_blink_led4, .-e_blink_led4
 890              		.section	.rodata.e_blink_led5.cst4,"aM",%progbits,4
 891              		.align	2
 892              	.LC10:
 893 0000 00000000 		.word	__stack_chk_guard
 894              		.section	.text.e_blink_led5,"ax",%progbits
 895              		.align	1
 896              		.p2align 4,,15
 897              		.global	e_blink_led5
 898              		.syntax unified
 899              		.thumb
 900              		.thumb_func
 901              		.fpu fpv4-sp-d16
 902              		.type	e_blink_led5, %function
 903              	e_blink_led5:
 904              	.LFB280:
 905              		.cfi_startproc
 906              		@ args = 0, pretend = 0, frame = 8
 907              		@ frame_needed = 0, uses_anonymous_args = 0
 908 0000 00B5     		push	{lr}
 909              		.cfi_def_cfa_offset 4
 910              		.cfi_offset 14, -4
 911 0002 084B     		ldr	r3, .L106
 912 0004 83B0     		sub	sp, sp, #12
ARM GAS  /tmp/cc9ZVZUy.s 			page 17


 913              		.cfi_def_cfa_offset 16
 914 0006 1B68     		ldr	r3, [r3]
 915 0008 0193     		str	r3, [sp, #4]
 916 000a 4FF00003 		mov	r3,#0
 917 000e 054B     		ldr	r3, .L106
 918 0010 1A68     		ldr	r2, [r3]
 919 0012 019B     		ldr	r3, [sp, #4]
 920 0014 5A40     		eors	r2, r3, r2
 921 0016 02D1     		bne	.L105
 922 0018 03B0     		add	sp, sp, #12
 923              		.cfi_remember_state
 924              		.cfi_def_cfa_offset 4
 925              		@ sp needed
 926 001a 5DF804FB 		ldr	pc, [sp], #4
 927              	.L105:
 928              		.cfi_restore_state
 929 001e FFF7FEFF 		bl	__stack_chk_fail
 930              	.L107:
 931 0022 00BF     		.align	2
 932              	.L106:
 933 0024 00000000 		.word	.LC10
 934              		.cfi_endproc
 935              	.LFE280:
 936              		.size	e_blink_led5, .-e_blink_led5
 937              		.section	.rodata.e_blink_led6.cst4,"aM",%progbits,4
 938              		.align	2
 939              	.LC11:
 940 0000 00000000 		.word	__stack_chk_guard
 941              		.section	.text.e_blink_led6,"ax",%progbits
 942              		.align	1
 943              		.p2align 4,,15
 944              		.global	e_blink_led6
 945              		.syntax unified
 946              		.thumb
 947              		.thumb_func
 948              		.fpu fpv4-sp-d16
 949              		.type	e_blink_led6, %function
 950              	e_blink_led6:
 951              	.LFB267:
 952              		.loc 1 185 1 is_stmt 1 view -0
 953              		.cfi_startproc
 954              		@ args = 0, pretend = 0, frame = 8
 955              		@ frame_needed = 0, uses_anonymous_args = 0
 956              		.loc 1 185 1 is_stmt 0 view .LVU116
 957 0000 00B5     		push	{lr}
 958              		.cfi_def_cfa_offset 4
 959              		.cfi_offset 14, -4
 960 0002 0A4B     		ldr	r3, .L113
 961 0004 83B0     		sub	sp, sp, #12
 962              		.cfi_def_cfa_offset 16
 963              		.loc 1 185 1 view .LVU117
 964 0006 1B68     		ldr	r3, [r3]
 965 0008 0193     		str	r3, [sp, #4]
 966 000a 4FF00003 		mov	r3,#0
 967              		.loc 1 186 2 is_stmt 1 view .LVU118
 968 000e 074B     		ldr	r3, .L113
 969 0010 1A68     		ldr	r2, [r3]
ARM GAS  /tmp/cc9ZVZUy.s 			page 18


 970 0012 019B     		ldr	r3, [sp, #4]
 971 0014 5A40     		eors	r2, r3, r2
 972 0016 06D1     		bne	.L112
 973 0018 0221     		movs	r1, #2
 974 001a 0320     		movs	r0, #3
 975              		.loc 1 187 1 is_stmt 0 view .LVU119
 976 001c 03B0     		add	sp, sp, #12
 977              		.cfi_remember_state
 978              		.cfi_def_cfa_offset 4
 979              		@ sp needed
 980 001e 5DF804EB 		ldr	lr, [sp], #4
 981              		.cfi_restore 14
 982              		.cfi_def_cfa_offset 0
 983              		.loc 1 186 2 view .LVU120
 984 0022 FFF7FEBF 		b	set_led
 985              	.LVL55:
 986              	.L112:
 987              		.cfi_restore_state
 988 0026 FFF7FEFF 		bl	__stack_chk_fail
 989              	.LVL56:
 990              	.L114:
 991 002a 00BF     		.align	2
 992              	.L113:
 993 002c 00000000 		.word	.LC11
 994              		.cfi_endproc
 995              	.LFE267:
 996              		.size	e_blink_led6, .-e_blink_led6
 997              		.section	.rodata.e_blink_led7.cst4,"aM",%progbits,4
 998              		.align	2
 999              	.LC12:
 1000 0000 00000000 		.word	__stack_chk_guard
 1001              		.section	.text.e_blink_led7,"ax",%progbits
 1002              		.align	1
 1003              		.p2align 4,,15
 1004              		.global	e_blink_led7
 1005              		.syntax unified
 1006              		.thumb
 1007              		.thumb_func
 1008              		.fpu fpv4-sp-d16
 1009              		.type	e_blink_led7, %function
 1010              	e_blink_led7:
 1011              	.LFB282:
 1012              		.cfi_startproc
 1013              		@ args = 0, pretend = 0, frame = 8
 1014              		@ frame_needed = 0, uses_anonymous_args = 0
 1015 0000 00B5     		push	{lr}
 1016              		.cfi_def_cfa_offset 4
 1017              		.cfi_offset 14, -4
 1018 0002 084B     		ldr	r3, .L119
 1019 0004 83B0     		sub	sp, sp, #12
 1020              		.cfi_def_cfa_offset 16
 1021 0006 1B68     		ldr	r3, [r3]
 1022 0008 0193     		str	r3, [sp, #4]
 1023 000a 4FF00003 		mov	r3,#0
 1024 000e 054B     		ldr	r3, .L119
 1025 0010 1A68     		ldr	r2, [r3]
 1026 0012 019B     		ldr	r3, [sp, #4]
ARM GAS  /tmp/cc9ZVZUy.s 			page 19


 1027 0014 5A40     		eors	r2, r3, r2
 1028 0016 02D1     		bne	.L118
 1029 0018 03B0     		add	sp, sp, #12
 1030              		.cfi_remember_state
 1031              		.cfi_def_cfa_offset 4
 1032              		@ sp needed
 1033 001a 5DF804FB 		ldr	pc, [sp], #4
 1034              	.L118:
 1035              		.cfi_restore_state
 1036 001e FFF7FEFF 		bl	__stack_chk_fail
 1037              	.L120:
 1038 0022 00BF     		.align	2
 1039              	.L119:
 1040 0024 00000000 		.word	.LC12
 1041              		.cfi_endproc
 1042              	.LFE282:
 1043              		.size	e_blink_led7, .-e_blink_led7
 1044              		.section	.rodata.e_start_led_blinking.cst4,"aM",%progbits,4
 1045              		.align	2
 1046              	.LC13:
 1047 0000 00000000 		.word	__stack_chk_guard
 1048              		.section	.text.e_start_led_blinking,"ax",%progbits
 1049              		.align	1
 1050              		.p2align 4,,15
 1051              		.global	e_start_led_blinking
 1052              		.syntax unified
 1053              		.thumb
 1054              		.thumb_func
 1055              		.fpu fpv4-sp-d16
 1056              		.type	e_start_led_blinking, %function
 1057              	e_start_led_blinking:
 1058              	.LVL57:
 1059              	.LFB269:
 1060              		.loc 1 205 1 is_stmt 1 view -0
 1061              		.cfi_startproc
 1062              		@ args = 0, pretend = 0, frame = 8
 1063              		@ frame_needed = 0, uses_anonymous_args = 0
 1064              		.loc 1 205 1 is_stmt 0 view .LVU122
 1065 0000 00B5     		push	{lr}
 1066              		.cfi_def_cfa_offset 4
 1067              		.cfi_offset 14, -4
 1068 0002 084B     		ldr	r3, .L125
 1069 0004 83B0     		sub	sp, sp, #12
 1070              		.cfi_def_cfa_offset 16
 1071              		.loc 1 205 1 view .LVU123
 1072 0006 1B68     		ldr	r3, [r3]
 1073 0008 0193     		str	r3, [sp, #4]
 1074 000a 4FF00003 		mov	r3,#0
 1075              		.loc 1 207 2 is_stmt 1 view .LVU124
 1076              		.loc 1 208 1 is_stmt 0 view .LVU125
 1077 000e 054B     		ldr	r3, .L125
 1078 0010 1A68     		ldr	r2, [r3]
 1079 0012 019B     		ldr	r3, [sp, #4]
 1080 0014 5A40     		eors	r2, r3, r2
 1081 0016 02D1     		bne	.L124
 1082 0018 03B0     		add	sp, sp, #12
 1083              		.cfi_remember_state
ARM GAS  /tmp/cc9ZVZUy.s 			page 20


 1084              		.cfi_def_cfa_offset 4
 1085              		@ sp needed
 1086 001a 5DF804FB 		ldr	pc, [sp], #4
 1087              	.L124:
 1088              		.cfi_restore_state
 1089 001e FFF7FEFF 		bl	__stack_chk_fail
 1090              	.LVL58:
 1091              	.L126:
 1092              		.loc 1 208 1 view .LVU126
 1093 0022 00BF     		.align	2
 1094              	.L125:
 1095 0024 00000000 		.word	.LC13
 1096              		.cfi_endproc
 1097              	.LFE269:
 1098              		.size	e_start_led_blinking, .-e_start_led_blinking
 1099              		.section	.rodata.e_stop_led_blinking.cst4,"aM",%progbits,4
 1100              		.align	2
 1101              	.LC14:
 1102 0000 00000000 		.word	__stack_chk_guard
 1103              		.section	.text.e_stop_led_blinking,"ax",%progbits
 1104              		.align	1
 1105              		.p2align 4,,15
 1106              		.global	e_stop_led_blinking
 1107              		.syntax unified
 1108              		.thumb
 1109              		.thumb_func
 1110              		.fpu fpv4-sp-d16
 1111              		.type	e_stop_led_blinking, %function
 1112              	e_stop_led_blinking:
 1113              	.LFB284:
 1114              		.cfi_startproc
 1115              		@ args = 0, pretend = 0, frame = 8
 1116              		@ frame_needed = 0, uses_anonymous_args = 0
 1117 0000 00B5     		push	{lr}
 1118              		.cfi_def_cfa_offset 4
 1119              		.cfi_offset 14, -4
 1120 0002 084B     		ldr	r3, .L131
 1121 0004 83B0     		sub	sp, sp, #12
 1122              		.cfi_def_cfa_offset 16
 1123 0006 1B68     		ldr	r3, [r3]
 1124 0008 0193     		str	r3, [sp, #4]
 1125 000a 4FF00003 		mov	r3,#0
 1126 000e 054B     		ldr	r3, .L131
 1127 0010 1A68     		ldr	r2, [r3]
 1128 0012 019B     		ldr	r3, [sp, #4]
 1129 0014 5A40     		eors	r2, r3, r2
 1130 0016 02D1     		bne	.L130
 1131 0018 03B0     		add	sp, sp, #12
 1132              		.cfi_remember_state
 1133              		.cfi_def_cfa_offset 4
 1134              		@ sp needed
 1135 001a 5DF804FB 		ldr	pc, [sp], #4
 1136              	.L130:
 1137              		.cfi_restore_state
 1138 001e FFF7FEFF 		bl	__stack_chk_fail
 1139              	.L132:
 1140 0022 00BF     		.align	2
ARM GAS  /tmp/cc9ZVZUy.s 			page 21


 1141              	.L131:
 1142 0024 00000000 		.word	.LC14
 1143              		.cfi_endproc
 1144              	.LFE284:
 1145              		.size	e_stop_led_blinking, .-e_stop_led_blinking
 1146              		.section	.rodata.e_set_blinking_cycle.cst4,"aM",%progbits,4
 1147              		.align	2
 1148              	.LC15:
 1149 0000 00000000 		.word	__stack_chk_guard
 1150              		.section	.text.e_set_blinking_cycle,"ax",%progbits
 1151              		.align	1
 1152              		.p2align 4,,15
 1153              		.global	e_set_blinking_cycle
 1154              		.syntax unified
 1155              		.thumb
 1156              		.thumb_func
 1157              		.fpu fpv4-sp-d16
 1158              		.type	e_set_blinking_cycle, %function
 1159              	e_set_blinking_cycle:
 1160              	.LFB286:
 1161              		.cfi_startproc
 1162              		@ args = 0, pretend = 0, frame = 8
 1163              		@ frame_needed = 0, uses_anonymous_args = 0
 1164 0000 00B5     		push	{lr}
 1165              		.cfi_def_cfa_offset 4
 1166              		.cfi_offset 14, -4
 1167 0002 084B     		ldr	r3, .L137
 1168 0004 83B0     		sub	sp, sp, #12
 1169              		.cfi_def_cfa_offset 16
 1170 0006 1B68     		ldr	r3, [r3]
 1171 0008 0193     		str	r3, [sp, #4]
 1172 000a 4FF00003 		mov	r3,#0
 1173 000e 054B     		ldr	r3, .L137
 1174 0010 1A68     		ldr	r2, [r3]
 1175 0012 019B     		ldr	r3, [sp, #4]
 1176 0014 5A40     		eors	r2, r3, r2
 1177 0016 02D1     		bne	.L136
 1178 0018 03B0     		add	sp, sp, #12
 1179              		.cfi_remember_state
 1180              		.cfi_def_cfa_offset 4
 1181              		@ sp needed
 1182 001a 5DF804FB 		ldr	pc, [sp], #4
 1183              	.L136:
 1184              		.cfi_restore_state
 1185 001e FFF7FEFF 		bl	__stack_chk_fail
 1186              	.L138:
 1187 0022 00BF     		.align	2
 1188              	.L137:
 1189 0024 00000000 		.word	.LC15
 1190              		.cfi_endproc
 1191              	.LFE286:
 1192              		.size	e_set_blinking_cycle, .-e_set_blinking_cycle
 1193              		.section	.rodata.snake_led.cst4,"aM",%progbits,4
 1194              		.align	2
 1195              	.LC16:
 1196 0000 00000000 		.word	__stack_chk_guard
 1197              		.section	.text.snake_led,"ax",%progbits
ARM GAS  /tmp/cc9ZVZUy.s 			page 22


 1198              		.align	1
 1199              		.p2align 4,,15
 1200              		.global	snake_led
 1201              		.syntax unified
 1202              		.thumb
 1203              		.thumb_func
 1204              		.fpu fpv4-sp-d16
 1205              		.type	snake_led, %function
 1206              	snake_led:
 1207              	.LFB272:
 1208              		.loc 1 241 1 is_stmt 1 view -0
 1209              		.cfi_startproc
 1210              		@ args = 0, pretend = 0, frame = 8
 1211              		@ frame_needed = 0, uses_anonymous_args = 0
 1212              		.loc 1 241 1 is_stmt 0 view .LVU128
 1213 0000 10B5     		push	{r4, lr}
 1214              		.cfi_def_cfa_offset 8
 1215              		.cfi_offset 4, -8
 1216              		.cfi_offset 14, -4
 1217              		.loc 1 243 12 view .LVU129
 1218 0002 164C     		ldr	r4, .L149
 1219              		.loc 1 241 1 view .LVU130
 1220 0004 164B     		ldr	r3, .L149+4
 1221              		.loc 1 243 12 view .LVU131
 1222 0006 2178     		ldrb	r1, [r4]	@ zero_extendqisi2
 1223              		.loc 1 241 1 view .LVU132
 1224 0008 82B0     		sub	sp, sp, #8
 1225              		.cfi_def_cfa_offset 16
 1226              		.loc 1 241 1 view .LVU133
 1227 000a 1B68     		ldr	r3, [r3]
 1228 000c 0193     		str	r3, [sp, #4]
 1229 000e 4FF00003 		mov	r3,#0
 1230              		.loc 1 242 2 is_stmt 1 view .LVU134
 1231              		.loc 1 243 2 view .LVU135
 1232              		.loc 1 243 4 is_stmt 0 view .LVU136
 1233 0012 F1B1     		cbz	r1, .L146
 1234              		.loc 1 249 7 is_stmt 1 view .LVU137
 1235              		.loc 1 249 9 is_stmt 0 view .LVU138
 1236 0014 0729     		cmp	r1, #7
 1237 0016 11D0     		beq	.L147
 1238              		.loc 1 257 3 is_stmt 1 view .LVU139
 1239 0018 481E     		subs	r0, r1, #1
 1240 001a 0021     		movs	r1, #0
 1241              	.L145:
 1242 001c FFF7FEFF 		bl	e_set_led
 1243              	.LVL59:
 1244              		.loc 1 258 3 view .LVU140
 1245 0020 2078     		ldrb	r0, [r4]	@ zero_extendqisi2
 1246 0022 0121     		movs	r1, #1
 1247 0024 FFF7FEFF 		bl	e_set_led
 1248              	.LVL60:
 1249              		.loc 1 259 3 view .LVU141
 1250              		.loc 1 259 9 is_stmt 0 view .LVU142
 1251 0028 2378     		ldrb	r3, [r4]	@ zero_extendqisi2
 1252 002a 0133     		adds	r3, r3, #1
 1253 002c 2370     		strb	r3, [r4]
 1254              	.L139:
ARM GAS  /tmp/cc9ZVZUy.s 			page 23


 1255              		.loc 1 261 1 view .LVU143
 1256 002e 0C4B     		ldr	r3, .L149+4
 1257 0030 1A68     		ldr	r2, [r3]
 1258 0032 019B     		ldr	r3, [sp, #4]
 1259 0034 5A40     		eors	r2, r3, r2
 1260 0036 0ED1     		bne	.L148
 1261 0038 02B0     		add	sp, sp, #8
 1262              		.cfi_remember_state
 1263              		.cfi_def_cfa_offset 8
 1264              		@ sp needed
 1265 003a 10BD     		pop	{r4, pc}
 1266              	.L147:
 1267              		.cfi_restore_state
 1268              		.loc 1 251 3 is_stmt 1 view .LVU144
 1269 003c 0021     		movs	r1, #0
 1270 003e 0620     		movs	r0, #6
 1271 0040 FFF7FEFF 		bl	e_set_led
 1272              	.LVL61:
 1273              		.loc 1 252 3 view .LVU145
 1274 0044 2078     		ldrb	r0, [r4]	@ zero_extendqisi2
 1275 0046 0121     		movs	r1, #1
 1276 0048 FFF7FEFF 		bl	e_set_led
 1277              	.LVL62:
 1278              		.loc 1 253 3 view .LVU146
 1279              		.loc 1 253 10 is_stmt 0 view .LVU147
 1280 004c 0023     		movs	r3, #0
 1281 004e 2370     		strb	r3, [r4]
 1282 0050 EDE7     		b	.L139
 1283              	.L146:
 1284              		.loc 1 245 3 is_stmt 1 view .LVU148
 1285 0052 0720     		movs	r0, #7
 1286 0054 E2E7     		b	.L145
 1287              	.L148:
 1288              		.loc 1 261 1 is_stmt 0 view .LVU149
 1289 0056 FFF7FEFF 		bl	__stack_chk_fail
 1290              	.LVL63:
 1291              	.L150:
 1292 005a 00BF     		.align	2
 1293              	.L149:
 1294 005c 00000000 		.word	.LANCHOR0
 1295 0060 00000000 		.word	.LC16
 1296              		.cfi_endproc
 1297              	.LFE272:
 1298              		.size	snake_led, .-snake_led
 1299              		.section	.rodata.flow_led.cst4,"aM",%progbits,4
 1300              		.align	2
 1301              	.LC17:
 1302 0000 00000000 		.word	__stack_chk_guard
 1303              		.section	.text.flow_led,"ax",%progbits
 1304              		.align	1
 1305              		.p2align 4,,15
 1306              		.global	flow_led
 1307              		.syntax unified
 1308              		.thumb
 1309              		.thumb_func
 1310              		.fpu fpv4-sp-d16
 1311              		.type	flow_led, %function
ARM GAS  /tmp/cc9ZVZUy.s 			page 24


 1312              	flow_led:
 1313              	.LFB273:
 1314              		.loc 1 266 1 is_stmt 1 view -0
 1315              		.cfi_startproc
 1316              		@ args = 0, pretend = 0, frame = 8
 1317              		@ frame_needed = 0, uses_anonymous_args = 0
 1318 0000 10B5     		push	{r4, lr}
 1319              		.cfi_def_cfa_offset 8
 1320              		.cfi_offset 4, -8
 1321              		.cfi_offset 14, -4
 1322 0002 244B     		ldr	r3, .L165
 1323              		.loc 1 268 2 is_stmt 0 view .LVU151
 1324 0004 244C     		ldr	r4, .L165+4
 1325              		.loc 1 266 1 view .LVU152
 1326 0006 82B0     		sub	sp, sp, #8
 1327              		.cfi_def_cfa_offset 16
 1328              		.loc 1 266 1 view .LVU153
 1329 0008 1B68     		ldr	r3, [r3]
 1330 000a 0193     		str	r3, [sp, #4]
 1331 000c 4FF00003 		mov	r3,#0
 1332              		.loc 1 267 2 is_stmt 1 view .LVU154
 1333              		.loc 1 268 2 view .LVU155
 1334 0010 2378     		ldrb	r3, [r4]	@ zero_extendqisi2
 1335 0012 042B     		cmp	r3, #4
 1336 0014 04D8     		bhi	.L162
 1337 0016 DFE803F0 		tbb	[pc, r3]
 1338              	.L154:
 1339 001a 16       		.byte	(.L158-.L154)/2
 1340 001b 1C       		.byte	(.L157-.L154)/2
 1341 001c 26       		.byte	(.L156-.L154)/2
 1342 001d 30       		.byte	(.L155-.L154)/2
 1343 001e 0C       		.byte	(.L153-.L154)/2
 1344 001f 00       		.p2align 1
 1345              	.L162:
 1346              		.loc 1 279 10 is_stmt 0 view .LVU156
 1347 0020 0023     		movs	r3, #0
 1348              	.L152:
 1349 0022 2370     		strb	r3, [r4]
 1350              		.loc 1 280 1 view .LVU157
 1351 0024 1B4B     		ldr	r3, .L165
 1352 0026 1A68     		ldr	r2, [r3]
 1353 0028 019B     		ldr	r3, [sp, #4]
 1354 002a 5A40     		eors	r2, r3, r2
 1355 002c 2FD1     		bne	.L164
 1356 002e 02B0     		add	sp, sp, #8
 1357              		.cfi_remember_state
 1358              		.cfi_def_cfa_offset 8
 1359              		@ sp needed
 1360 0030 10BD     		pop	{r4, pc}
 1361              	.L153:
 1362              		.cfi_restore_state
 1363              		.loc 1 274 11 is_stmt 1 view .LVU158
 1364 0032 0221     		movs	r1, #2
 1365 0034 0420     		movs	r0, #4
 1366 0036 FFF7FEFF 		bl	e_set_led
 1367              	.LVL64:
 1368              		.loc 1 274 28 view .LVU159
ARM GAS  /tmp/cc9ZVZUy.s 			page 25


 1369 003a 2378     		ldrb	r3, [r4]	@ zero_extendqisi2
 1370              	.L159:
 1371              		.loc 1 276 2 view .LVU160
 1372              		.loc 1 276 4 is_stmt 0 view .LVU161
 1373 003c 032B     		cmp	r3, #3
 1374 003e EFD8     		bhi	.L162
 1375              		.loc 1 277 3 is_stmt 1 view .LVU162
 1376              		.loc 1 277 9 is_stmt 0 view .LVU163
 1377 0040 0133     		adds	r3, r3, #1
 1378 0042 DBB2     		uxtb	r3, r3
 1379 0044 EDE7     		b	.L152
 1380              	.L158:
 1381              		.loc 1 270 11 is_stmt 1 view .LVU164
 1382 0046 0221     		movs	r1, #2
 1383 0048 0020     		movs	r0, #0
 1384 004a FFF7FEFF 		bl	e_set_led
 1385              	.LVL65:
 1386              		.loc 1 270 28 view .LVU165
 1387 004e 2378     		ldrb	r3, [r4]	@ zero_extendqisi2
 1388              		.loc 1 270 3 is_stmt 0 view .LVU166
 1389 0050 F4E7     		b	.L159
 1390              	.L157:
 1391              		.loc 1 271 11 is_stmt 1 view .LVU167
 1392 0052 0221     		movs	r1, #2
 1393 0054 0120     		movs	r0, #1
 1394 0056 FFF7FEFF 		bl	e_set_led
 1395              	.LVL66:
 1396              		.loc 1 271 28 view .LVU168
 1397 005a 0221     		movs	r1, #2
 1398 005c 0720     		movs	r0, #7
 1399 005e FFF7FEFF 		bl	e_set_led
 1400              	.LVL67:
 1401              		.loc 1 271 45 view .LVU169
 1402 0062 2378     		ldrb	r3, [r4]	@ zero_extendqisi2
 1403              		.loc 1 271 3 is_stmt 0 view .LVU170
 1404 0064 EAE7     		b	.L159
 1405              	.L156:
 1406              		.loc 1 272 11 is_stmt 1 view .LVU171
 1407 0066 0221     		movs	r1, #2
 1408 0068 0846     		mov	r0, r1
 1409 006a FFF7FEFF 		bl	e_set_led
 1410              	.LVL68:
 1411              		.loc 1 272 28 view .LVU172
 1412 006e 0221     		movs	r1, #2
 1413 0070 0620     		movs	r0, #6
 1414 0072 FFF7FEFF 		bl	e_set_led
 1415              	.LVL69:
 1416              		.loc 1 272 45 view .LVU173
 1417 0076 2378     		ldrb	r3, [r4]	@ zero_extendqisi2
 1418              		.loc 1 272 3 is_stmt 0 view .LVU174
 1419 0078 E0E7     		b	.L159
 1420              	.L155:
 1421              		.loc 1 273 11 is_stmt 1 view .LVU175
 1422 007a 0221     		movs	r1, #2
 1423 007c 0320     		movs	r0, #3
 1424 007e FFF7FEFF 		bl	e_set_led
 1425              	.LVL70:
ARM GAS  /tmp/cc9ZVZUy.s 			page 26


 1426              		.loc 1 273 28 view .LVU176
 1427 0082 0221     		movs	r1, #2
 1428 0084 0520     		movs	r0, #5
 1429 0086 FFF7FEFF 		bl	e_set_led
 1430              	.LVL71:
 1431              		.loc 1 273 45 view .LVU177
 1432 008a 2378     		ldrb	r3, [r4]	@ zero_extendqisi2
 1433              		.loc 1 273 3 is_stmt 0 view .LVU178
 1434 008c D6E7     		b	.L159
 1435              	.L164:
 1436              		.loc 1 280 1 view .LVU179
 1437 008e FFF7FEFF 		bl	__stack_chk_fail
 1438              	.LVL72:
 1439              	.L166:
 1440 0092 00BF     		.align	2
 1441              	.L165:
 1442 0094 00000000 		.word	.LC17
 1443 0098 00000000 		.word	.LANCHOR1
 1444              		.cfi_endproc
 1445              	.LFE273:
 1446              		.size	flow_led, .-flow_led
 1447              		.section	.rodata.k2000_led.cst4,"aM",%progbits,4
 1448              		.align	2
 1449              	.LC18:
 1450 0000 00000000 		.word	__stack_chk_guard
 1451              		.section	.text.k2000_led,"ax",%progbits
 1452              		.align	1
 1453              		.p2align 4,,15
 1454              		.global	k2000_led
 1455              		.syntax unified
 1456              		.thumb
 1457              		.thumb_func
 1458              		.fpu fpv4-sp-d16
 1459              		.type	k2000_led, %function
 1460              	k2000_led:
 1461              	.LFB274:
 1462              		.loc 1 284 1 is_stmt 1 view -0
 1463              		.cfi_startproc
 1464              		@ args = 0, pretend = 0, frame = 8
 1465              		@ frame_needed = 0, uses_anonymous_args = 0
 1466 0000 F0B5     		push	{r4, r5, r6, r7, lr}
 1467              		.cfi_def_cfa_offset 20
 1468              		.cfi_offset 4, -20
 1469              		.cfi_offset 5, -16
 1470              		.cfi_offset 6, -12
 1471              		.cfi_offset 7, -8
 1472              		.cfi_offset 14, -4
 1473              		.loc 1 287 12 is_stmt 0 view .LVU181
 1474 0002 294D     		ldr	r5, .L182
 1475              		.loc 1 284 1 view .LVU182
 1476 0004 294B     		ldr	r3, .L182+4
 1477              		.loc 1 287 12 view .LVU183
 1478 0006 2C78     		ldrb	r4, [r5]	@ zero_extendqisi2
 1479              		.loc 1 284 1 view .LVU184
 1480 0008 83B0     		sub	sp, sp, #12
 1481              		.cfi_def_cfa_offset 32
 1482              		.loc 1 284 1 view .LVU185
ARM GAS  /tmp/cc9ZVZUy.s 			page 27


 1483 000a 1B68     		ldr	r3, [r3]
 1484 000c 0193     		str	r3, [sp, #4]
 1485 000e 4FF00003 		mov	r3,#0
 1486              		.loc 1 285 2 is_stmt 1 view .LVU186
 1487              		.loc 1 286 2 view .LVU187
 1488              		.loc 1 287 2 view .LVU188
 1489              		.loc 1 287 4 is_stmt 0 view .LVU189
 1490 0012 54B1     		cbz	r4, .L178
 1491              		.loc 1 290 7 is_stmt 1 view .LVU190
 1492              		.loc 1 293 7 view .LVU191
 1493              		.loc 1 293 9 is_stmt 0 view .LVU192
 1494 0014 072C     		cmp	r4, #7
 1495 0016 23D0     		beq	.L179
 1496              		.loc 1 296 7 is_stmt 1 view .LVU193
 1497              		.loc 1 296 9 is_stmt 0 view .LVU194
 1498 0018 012C     		cmp	r4, #1
 1499 001a 32D0     		beq	.L180
 1500              	.L167:
 1501              		.loc 1 299 1 view .LVU195
 1502 001c 234B     		ldr	r3, .L182+4
 1503 001e 1A68     		ldr	r2, [r3]
 1504 0020 019B     		ldr	r3, [sp, #4]
 1505 0022 5A40     		eors	r2, r3, r2
 1506 0024 3ED1     		bne	.L177
 1507 0026 03B0     		add	sp, sp, #12
 1508              		.cfi_remember_state
 1509              		.cfi_def_cfa_offset 20
 1510              		@ sp needed
 1511 0028 F0BD     		pop	{r4, r5, r6, r7, pc}
 1512              	.L178:
 1513              		.cfi_restore_state
 1514              		.loc 1 287 17 discriminator 1 view .LVU196
 1515 002a 214E     		ldr	r6, .L182+8
 1516 002c 3178     		ldrb	r1, [r6]	@ zero_extendqisi2
 1517 002e 59B9     		cbnz	r1, .L181
 1518              		.loc 1 290 7 is_stmt 1 discriminator 1 view .LVU197
 1519              		.loc 1 291 3 discriminator 1 view .LVU198
 1520              		.loc 1 291 10 is_stmt 0 discriminator 1 view .LVU199
 1521 0030 0723     		movs	r3, #7
 1522              		.loc 1 291 15 discriminator 1 view .LVU200
 1523 0032 0846     		mov	r0, r1
 1524              		.loc 1 291 10 discriminator 1 view .LVU201
 1525 0034 2B70     		strb	r3, [r5]
 1526              		.loc 1 291 15 is_stmt 1 discriminator 1 view .LVU202
 1527 0036 FFF7FEFF 		bl	e_set_led
 1528              	.LVL73:
 1529              		.loc 1 291 32 discriminator 1 view .LVU203
 1530 003a 2878     		ldrb	r0, [r5]	@ zero_extendqisi2
 1531 003c 0121     		movs	r1, #1
 1532 003e FFF7FEFF 		bl	e_set_led
 1533              	.LVL74:
 1534              		.loc 1 291 54 discriminator 1 view .LVU204
 1535              		.loc 1 291 60 is_stmt 0 discriminator 1 view .LVU205
 1536 0042 0123     		movs	r3, #1
 1537 0044 3370     		strb	r3, [r6]
 1538 0046 E9E7     		b	.L167
 1539              	.L181:
ARM GAS  /tmp/cc9ZVZUy.s 			page 28


 1540              		.loc 1 288 3 is_stmt 1 view .LVU206
 1541              		.loc 1 288 10 is_stmt 0 view .LVU207
 1542 0048 0127     		movs	r7, #1
 1543              		.loc 1 288 15 view .LVU208
 1544 004a 2146     		mov	r1, r4
 1545 004c 2046     		mov	r0, r4
 1546              		.loc 1 288 10 view .LVU209
 1547 004e 2F70     		strb	r7, [r5]
 1548              		.loc 1 288 15 is_stmt 1 view .LVU210
 1549 0050 FFF7FEFF 		bl	e_set_led
 1550              	.LVL75:
 1551              		.loc 1 288 32 view .LVU211
 1552 0054 2878     		ldrb	r0, [r5]	@ zero_extendqisi2
 1553 0056 3946     		mov	r1, r7
 1554 0058 FFF7FEFF 		bl	e_set_led
 1555              	.LVL76:
 1556              		.loc 1 288 54 view .LVU212
 1557              		.loc 1 288 60 is_stmt 0 view .LVU213
 1558 005c 3470     		strb	r4, [r6]
 1559 005e DDE7     		b	.L167
 1560              	.L179:
 1561              		.loc 1 294 3 is_stmt 1 view .LVU214
 1562              		.loc 1 294 10 is_stmt 0 view .LVU215
 1563 0060 0021     		movs	r1, #0
 1564              		.loc 1 294 15 view .LVU216
 1565 0062 2046     		mov	r0, r4
 1566              		.loc 1 294 10 view .LVU217
 1567 0064 2970     		strb	r1, [r5]
 1568              		.loc 1 294 15 is_stmt 1 view .LVU218
 1569 0066 FFF7FEFF 		bl	e_set_led
 1570              	.LVL77:
 1571              		.loc 1 294 32 view .LVU219
 1572 006a 104B     		ldr	r3, .L182+4
 1573 006c 1A68     		ldr	r2, [r3]
 1574 006e 019B     		ldr	r3, [sp, #4]
 1575 0070 5A40     		eors	r2, r3, r2
 1576 0072 17D1     		bne	.L177
 1577 0074 2878     		ldrb	r0, [r5]	@ zero_extendqisi2
 1578 0076 0121     		movs	r1, #1
 1579              		.loc 1 299 1 is_stmt 0 view .LVU220
 1580 0078 03B0     		add	sp, sp, #12
 1581              		.cfi_remember_state
 1582              		.cfi_def_cfa_offset 20
 1583              		@ sp needed
 1584 007a BDE8F040 		pop	{r4, r5, r6, r7, lr}
 1585              		.cfi_restore 14
 1586              		.cfi_restore 7
 1587              		.cfi_restore 6
 1588              		.cfi_restore 5
 1589              		.cfi_restore 4
 1590              		.cfi_def_cfa_offset 0
 1591              		.loc 1 297 32 view .LVU221
 1592 007e FFF7FEBF 		b	e_set_led
 1593              	.LVL78:
 1594              	.L180:
 1595              		.cfi_restore_state
 1596              		.loc 1 297 3 is_stmt 1 view .LVU222
ARM GAS  /tmp/cc9ZVZUy.s 			page 29


 1597              		.loc 1 297 10 is_stmt 0 view .LVU223
 1598 0082 0021     		movs	r1, #0
 1599              		.loc 1 297 15 view .LVU224
 1600 0084 2046     		mov	r0, r4
 1601              		.loc 1 297 10 view .LVU225
 1602 0086 2970     		strb	r1, [r5]
 1603              		.loc 1 297 15 is_stmt 1 view .LVU226
 1604 0088 FFF7FEFF 		bl	e_set_led
 1605              	.LVL79:
 1606              		.loc 1 297 32 view .LVU227
 1607 008c 074B     		ldr	r3, .L182+4
 1608 008e 1A68     		ldr	r2, [r3]
 1609 0090 019B     		ldr	r3, [sp, #4]
 1610 0092 5A40     		eors	r2, r3, r2
 1611 0094 06D1     		bne	.L177
 1612 0096 2878     		ldrb	r0, [r5]	@ zero_extendqisi2
 1613 0098 2146     		mov	r1, r4
 1614              		.loc 1 299 1 is_stmt 0 view .LVU228
 1615 009a 03B0     		add	sp, sp, #12
 1616              		.cfi_remember_state
 1617              		.cfi_def_cfa_offset 20
 1618              		@ sp needed
 1619 009c BDE8F040 		pop	{r4, r5, r6, r7, lr}
 1620              		.cfi_restore 14
 1621              		.cfi_restore 7
 1622              		.cfi_restore 6
 1623              		.cfi_restore 5
 1624              		.cfi_restore 4
 1625              		.cfi_def_cfa_offset 0
 1626              		.loc 1 297 32 view .LVU229
 1627 00a0 FFF7FEBF 		b	e_set_led
 1628              	.LVL80:
 1629              	.L177:
 1630              		.cfi_restore_state
 1631              		.loc 1 299 1 view .LVU230
 1632 00a4 FFF7FEFF 		bl	__stack_chk_fail
 1633              	.LVL81:
 1634              	.L183:
 1635              		.align	2
 1636              	.L182:
 1637 00a8 00000000 		.word	.LANCHOR2
 1638 00ac 00000000 		.word	.LC18
 1639 00b0 00000000 		.word	.LANCHOR3
 1640              		.cfi_endproc
 1641              	.LFE274:
 1642              		.size	k2000_led, .-k2000_led
 1643              		.section	.rodata.right_led.cst4,"aM",%progbits,4
 1644              		.align	2
 1645              	.LC19:
 1646 0000 00000000 		.word	__stack_chk_guard
 1647              		.section	.text.right_led,"ax",%progbits
 1648              		.align	1
 1649              		.p2align 4,,15
 1650              		.global	right_led
 1651              		.syntax unified
 1652              		.thumb
 1653              		.thumb_func
ARM GAS  /tmp/cc9ZVZUy.s 			page 30


 1654              		.fpu fpv4-sp-d16
 1655              		.type	right_led, %function
 1656              	right_led:
 1657              	.LFB275:
 1658              		.loc 1 303 1 is_stmt 1 view -0
 1659              		.cfi_startproc
 1660              		@ args = 0, pretend = 0, frame = 8
 1661              		@ frame_needed = 0, uses_anonymous_args = 0
 1662 0000 10B5     		push	{r4, lr}
 1663              		.cfi_def_cfa_offset 8
 1664              		.cfi_offset 4, -8
 1665              		.cfi_offset 14, -4
 1666 0002 1D4B     		ldr	r3, .L197
 1667              		.loc 1 305 2 is_stmt 0 view .LVU232
 1668 0004 1D4C     		ldr	r4, .L197+4
 1669              		.loc 1 303 1 view .LVU233
 1670 0006 82B0     		sub	sp, sp, #8
 1671              		.cfi_def_cfa_offset 16
 1672              		.loc 1 303 1 view .LVU234
 1673 0008 1B68     		ldr	r3, [r3]
 1674 000a 0193     		str	r3, [sp, #4]
 1675 000c 4FF00003 		mov	r3,#0
 1676              		.loc 1 304 2 is_stmt 1 view .LVU235
 1677              		.loc 1 305 2 view .LVU236
 1678 0010 2378     		ldrb	r3, [r4]	@ zero_extendqisi2
 1679 0012 032B     		cmp	r3, #3
 1680 0014 03D8     		bhi	.L194
 1681 0016 DFE803F0 		tbb	[pc, r3]
 1682              	.L187:
 1683 001a 13       		.byte	(.L190-.L187)/2
 1684 001b 1D       		.byte	(.L189-.L187)/2
 1685 001c 27       		.byte	(.L188-.L187)/2
 1686 001d 0B       		.byte	(.L186-.L187)/2
 1687              		.p2align 1
 1688              	.L194:
 1689              		.loc 1 315 10 is_stmt 0 view .LVU237
 1690 001e 0023     		movs	r3, #0
 1691              	.L185:
 1692 0020 2370     		strb	r3, [r4]
 1693              		.loc 1 316 1 view .LVU238
 1694 0022 154B     		ldr	r3, .L197
 1695 0024 1A68     		ldr	r2, [r3]
 1696 0026 019B     		ldr	r3, [sp, #4]
 1697 0028 5A40     		eors	r2, r3, r2
 1698 002a 23D1     		bne	.L196
 1699 002c 02B0     		add	sp, sp, #8
 1700              		.cfi_remember_state
 1701              		.cfi_def_cfa_offset 8
 1702              		@ sp needed
 1703 002e 10BD     		pop	{r4, pc}
 1704              	.L186:
 1705              		.cfi_restore_state
 1706              		.loc 1 310 11 is_stmt 1 view .LVU239
 1707              	.LBB7:
 1708              	.LBI7:
 1709              		.loc 1 81 6 view .LVU240
 1710              	.LBB8:
ARM GAS  /tmp/cc9ZVZUy.s 			page 31


 1711              		.loc 1 83 2 view .LVU241
 1712 0030 FFF7FEFF 		bl	clear_leds
 1713              	.LVL82:
 1714 0034 2378     		ldrb	r3, [r4]	@ zero_extendqisi2
 1715              	.L191:
 1716              	.LBE8:
 1717              	.LBE7:
 1718              		.loc 1 312 2 view .LVU242
 1719              		.loc 1 312 4 is_stmt 0 view .LVU243
 1720 0036 022B     		cmp	r3, #2
 1721 0038 F1D8     		bhi	.L194
 1722              		.loc 1 313 3 is_stmt 1 view .LVU244
 1723              		.loc 1 313 9 is_stmt 0 view .LVU245
 1724 003a 0133     		adds	r3, r3, #1
 1725 003c DBB2     		uxtb	r3, r3
 1726 003e EFE7     		b	.L185
 1727              	.L190:
 1728              		.loc 1 307 11 is_stmt 1 view .LVU246
 1729 0040 0221     		movs	r1, #2
 1730 0042 0020     		movs	r0, #0
 1731 0044 FFF7FEFF 		bl	e_set_led
 1732              	.LVL83:
 1733              		.loc 1 307 28 view .LVU247
 1734 0048 0221     		movs	r1, #2
 1735 004a 0420     		movs	r0, #4
 1736 004c FFF7FEFF 		bl	e_set_led
 1737              	.LVL84:
 1738              		.loc 1 307 45 view .LVU248
 1739 0050 2378     		ldrb	r3, [r4]	@ zero_extendqisi2
 1740              		.loc 1 307 3 is_stmt 0 view .LVU249
 1741 0052 F0E7     		b	.L191
 1742              	.L189:
 1743              		.loc 1 308 11 is_stmt 1 view .LVU250
 1744 0054 0221     		movs	r1, #2
 1745 0056 0120     		movs	r0, #1
 1746 0058 FFF7FEFF 		bl	e_set_led
 1747              	.LVL85:
 1748              		.loc 1 308 28 view .LVU251
 1749 005c 0221     		movs	r1, #2
 1750 005e 0320     		movs	r0, #3
 1751 0060 FFF7FEFF 		bl	e_set_led
 1752              	.LVL86:
 1753              		.loc 1 308 45 view .LVU252
 1754 0064 2378     		ldrb	r3, [r4]	@ zero_extendqisi2
 1755              		.loc 1 308 3 is_stmt 0 view .LVU253
 1756 0066 E6E7     		b	.L191
 1757              	.L188:
 1758              		.loc 1 309 11 is_stmt 1 view .LVU254
 1759 0068 0221     		movs	r1, #2
 1760 006a 0846     		mov	r0, r1
 1761 006c FFF7FEFF 		bl	e_set_led
 1762              	.LVL87:
 1763              		.loc 1 309 28 view .LVU255
 1764 0070 2378     		ldrb	r3, [r4]	@ zero_extendqisi2
 1765              		.loc 1 309 3 is_stmt 0 view .LVU256
 1766 0072 E0E7     		b	.L191
 1767              	.L196:
ARM GAS  /tmp/cc9ZVZUy.s 			page 32


 1768              		.loc 1 316 1 view .LVU257
 1769 0074 FFF7FEFF 		bl	__stack_chk_fail
 1770              	.LVL88:
 1771              	.L198:
 1772              		.align	2
 1773              	.L197:
 1774 0078 00000000 		.word	.LC19
 1775 007c 00000000 		.word	.LANCHOR4
 1776              		.cfi_endproc
 1777              	.LFE275:
 1778              		.size	right_led, .-right_led
 1779              		.section	.rodata.left_led.cst4,"aM",%progbits,4
 1780              		.align	2
 1781              	.LC20:
 1782 0000 00000000 		.word	__stack_chk_guard
 1783              		.section	.text.left_led,"ax",%progbits
 1784              		.align	1
 1785              		.p2align 4,,15
 1786              		.global	left_led
 1787              		.syntax unified
 1788              		.thumb
 1789              		.thumb_func
 1790              		.fpu fpv4-sp-d16
 1791              		.type	left_led, %function
 1792              	left_led:
 1793              	.LFB276:
 1794              		.loc 1 320 1 is_stmt 1 view -0
 1795              		.cfi_startproc
 1796              		@ args = 0, pretend = 0, frame = 8
 1797              		@ frame_needed = 0, uses_anonymous_args = 0
 1798 0000 10B5     		push	{r4, lr}
 1799              		.cfi_def_cfa_offset 8
 1800              		.cfi_offset 4, -8
 1801              		.cfi_offset 14, -4
 1802 0002 1D4B     		ldr	r3, .L212
 1803              		.loc 1 322 2 is_stmt 0 view .LVU259
 1804 0004 1D4C     		ldr	r4, .L212+4
 1805              		.loc 1 320 1 view .LVU260
 1806 0006 82B0     		sub	sp, sp, #8
 1807              		.cfi_def_cfa_offset 16
 1808              		.loc 1 320 1 view .LVU261
 1809 0008 1B68     		ldr	r3, [r3]
 1810 000a 0193     		str	r3, [sp, #4]
 1811 000c 4FF00003 		mov	r3,#0
 1812              		.loc 1 321 2 is_stmt 1 view .LVU262
 1813              		.loc 1 322 2 view .LVU263
 1814 0010 2378     		ldrb	r3, [r4]	@ zero_extendqisi2
 1815 0012 032B     		cmp	r3, #3
 1816 0014 03D8     		bhi	.L209
 1817 0016 DFE803F0 		tbb	[pc, r3]
 1818              	.L202:
 1819 001a 13       		.byte	(.L205-.L202)/2
 1820 001b 1D       		.byte	(.L204-.L202)/2
 1821 001c 27       		.byte	(.L203-.L202)/2
 1822 001d 0B       		.byte	(.L201-.L202)/2
 1823              		.p2align 1
 1824              	.L209:
ARM GAS  /tmp/cc9ZVZUy.s 			page 33


 1825              		.loc 1 332 10 is_stmt 0 view .LVU264
 1826 001e 0023     		movs	r3, #0
 1827              	.L200:
 1828 0020 2370     		strb	r3, [r4]
 1829              		.loc 1 333 1 view .LVU265
 1830 0022 154B     		ldr	r3, .L212
 1831 0024 1A68     		ldr	r2, [r3]
 1832 0026 019B     		ldr	r3, [sp, #4]
 1833 0028 5A40     		eors	r2, r3, r2
 1834 002a 23D1     		bne	.L211
 1835 002c 02B0     		add	sp, sp, #8
 1836              		.cfi_remember_state
 1837              		.cfi_def_cfa_offset 8
 1838              		@ sp needed
 1839 002e 10BD     		pop	{r4, pc}
 1840              	.L201:
 1841              		.cfi_restore_state
 1842              		.loc 1 327 11 is_stmt 1 view .LVU266
 1843              	.LBB9:
 1844              	.LBI9:
 1845              		.loc 1 81 6 view .LVU267
 1846              	.LBB10:
 1847              		.loc 1 83 2 view .LVU268
 1848 0030 FFF7FEFF 		bl	clear_leds
 1849              	.LVL89:
 1850 0034 2378     		ldrb	r3, [r4]	@ zero_extendqisi2
 1851              	.L206:
 1852              	.LBE10:
 1853              	.LBE9:
 1854              		.loc 1 329 2 view .LVU269
 1855              		.loc 1 329 4 is_stmt 0 view .LVU270
 1856 0036 022B     		cmp	r3, #2
 1857 0038 F1D8     		bhi	.L209
 1858              		.loc 1 330 3 is_stmt 1 view .LVU271
 1859              		.loc 1 330 9 is_stmt 0 view .LVU272
 1860 003a 0133     		adds	r3, r3, #1
 1861 003c DBB2     		uxtb	r3, r3
 1862 003e EFE7     		b	.L200
 1863              	.L205:
 1864              		.loc 1 324 11 is_stmt 1 view .LVU273
 1865 0040 0221     		movs	r1, #2
 1866 0042 0020     		movs	r0, #0
 1867 0044 FFF7FEFF 		bl	e_set_led
 1868              	.LVL90:
 1869              		.loc 1 324 28 view .LVU274
 1870 0048 0221     		movs	r1, #2
 1871 004a 0420     		movs	r0, #4
 1872 004c FFF7FEFF 		bl	e_set_led
 1873              	.LVL91:
 1874              		.loc 1 324 45 view .LVU275
 1875 0050 2378     		ldrb	r3, [r4]	@ zero_extendqisi2
 1876              		.loc 1 324 3 is_stmt 0 view .LVU276
 1877 0052 F0E7     		b	.L206
 1878              	.L204:
 1879              		.loc 1 325 11 is_stmt 1 view .LVU277
 1880 0054 0221     		movs	r1, #2
 1881 0056 0720     		movs	r0, #7
ARM GAS  /tmp/cc9ZVZUy.s 			page 34


 1882 0058 FFF7FEFF 		bl	e_set_led
 1883              	.LVL92:
 1884              		.loc 1 325 28 view .LVU278
 1885 005c 0221     		movs	r1, #2
 1886 005e 0520     		movs	r0, #5
 1887 0060 FFF7FEFF 		bl	e_set_led
 1888              	.LVL93:
 1889              		.loc 1 325 45 view .LVU279
 1890 0064 2378     		ldrb	r3, [r4]	@ zero_extendqisi2
 1891              		.loc 1 325 3 is_stmt 0 view .LVU280
 1892 0066 E6E7     		b	.L206
 1893              	.L203:
 1894              		.loc 1 326 11 is_stmt 1 view .LVU281
 1895 0068 0221     		movs	r1, #2
 1896 006a 0620     		movs	r0, #6
 1897 006c FFF7FEFF 		bl	e_set_led
 1898              	.LVL94:
 1899              		.loc 1 326 28 view .LVU282
 1900 0070 2378     		ldrb	r3, [r4]	@ zero_extendqisi2
 1901              		.loc 1 326 3 is_stmt 0 view .LVU283
 1902 0072 E0E7     		b	.L206
 1903              	.L211:
 1904              		.loc 1 333 1 view .LVU284
 1905 0074 FFF7FEFF 		bl	__stack_chk_fail
 1906              	.LVL95:
 1907              	.L213:
 1908              		.align	2
 1909              	.L212:
 1910 0078 00000000 		.word	.LC20
 1911 007c 00000000 		.word	.LANCHOR5
 1912              		.cfi_endproc
 1913              	.LFE276:
 1914              		.size	left_led, .-left_led
 1915              		.section	.bss.no_led.10093,"aw",%nobits
 1916              		.set	.LANCHOR0,. + 0
 1917              		.type	no_led.10093, %object
 1918              		.size	no_led.10093, 1
 1919              	no_led.10093:
 1920 0000 00       		.space	1
 1921              		.section	.bss.no_led.10097,"aw",%nobits
 1922              		.set	.LANCHOR1,. + 0
 1923              		.type	no_led.10097, %object
 1924              		.size	no_led.10097, 1
 1925              	no_led.10097:
 1926 0000 00       		.space	1
 1927              		.section	.bss.no_led.10107,"aw",%nobits
 1928              		.set	.LANCHOR2,. + 0
 1929              		.type	no_led.10107, %object
 1930              		.size	no_led.10107, 1
 1931              	no_led.10107:
 1932 0000 00       		.space	1
 1933              		.section	.bss.no_led.10112,"aw",%nobits
 1934              		.set	.LANCHOR4,. + 0
 1935              		.type	no_led.10112, %object
 1936              		.size	no_led.10112, 1
 1937              	no_led.10112:
 1938 0000 00       		.space	1
ARM GAS  /tmp/cc9ZVZUy.s 			page 35


 1939              		.section	.bss.no_led.10121,"aw",%nobits
 1940              		.set	.LANCHOR5,. + 0
 1941              		.type	no_led.10121, %object
 1942              		.size	no_led.10121, 1
 1943              	no_led.10121:
 1944 0000 00       		.space	1
 1945              		.section	.data.right.10108,"aw"
 1946              		.set	.LANCHOR3,. + 0
 1947              		.type	right.10108, %object
 1948              		.size	right.10108, 1
 1949              	right.10108:
 1950 0000 01       		.byte	1
 1951              		.text
 1952              	.Letext0:
 1953              		.file 2 "/usr/lib/gcc/arm-none-eabi/9.2.1/include/stddef.h"
 1954              		.file 3 "/usr/lib/gcc/arm-none-eabi/9.2.1/include/stdint.h"
 1955              		.file 4 ".//ChibiOS//os/rt/ports/ARMCMx/compilers/GCC/chtypes.h"
 1956              		.file 5 ".//ChibiOS//os/rt/include/chsystypes.h"
 1957              		.file 6 ".//ChibiOS//os/rt/include/chschd.h"
 1958              		.file 7 ".//ChibiOS//os/ext/CMSIS/include/core_cm4.h"
 1959              		.file 8 ".//ChibiOS//os/ext/CMSIS/ST/system_stm32f4xx.h"
 1960              		.file 9 ".//ChibiOS//os/ext/CMSIS/ST/stm32f407xx.h"
 1961              		.file 10 ".//ChibiOS//os/rt/ports/ARMCMx/chcore.h"
 1962              		.file 11 ".//ChibiOS//os/rt/ports/ARMCMx/chcore_v7m.h"
 1963              		.file 12 ".//ChibiOS//os/rt/include/chdebug.h"
 1964              		.file 13 ".//ChibiOS//os/rt/include/chtm.h"
 1965              		.file 14 ".//ChibiOS//os/rt/include/chstats.h"
 1966              		.file 15 ".//ChibiOS//os/rt/include/chsem.h"
 1967              		.file 16 ".//ChibiOS//os/rt/include/chmtx.h"
 1968              		.file 17 ".//ChibiOS//os/rt/include/chregistry.h"
 1969              		.file 18 ".//ChibiOS//os/rt/include/chevents.h"
 1970              		.file 19 ".//ChibiOS//os/rt/include/chqueues.h"
 1971              		.file 20 ".//ChibiOS//os/hal/ports/STM32/STM32F4xx/stm32_dma.h"
 1972              		.file 21 ".//ChibiOS//os/hal/include/hal_ioblock.h"
 1973              		.file 22 ".//ChibiOS//os/hal/ports/STM32/LLD/GPIOv2/pal_lld.h"
 1974              		.file 23 ".//ChibiOS//os/hal/include/adc.h"
 1975              		.file 24 ".//ChibiOS//os/hal/ports/STM32/STM32F4xx/adc_lld.h"
 1976              		.file 25 ".//ChibiOS//os/hal/include/can.h"
 1977              		.file 26 ".//ChibiOS//os/hal/ports/STM32/LLD/can_lld.h"
 1978              		.file 27 ".//ChibiOS//os/hal/include/dac.h"
 1979              		.file 28 ".//ChibiOS//os/hal/ports/STM32/LLD/DACv1/dac_lld.h"
 1980              		.file 29 ".//ChibiOS//os/hal/include/ext.h"
 1981              		.file 30 ".//ChibiOS//os/hal/ports/STM32/LLD/ext_lld.h"
 1982              		.file 31 ".//ChibiOS//os/hal/include/gpt.h"
 1983              		.file 32 ".//ChibiOS//os/hal/ports/STM32/LLD/TIMv1/gpt_lld.h"
 1984              		.file 33 ".//ChibiOS//os/hal/ports/STM32/LLD/TIMv1/stm32_tim.h"
 1985              		.file 34 ".//ChibiOS//os/hal/include/i2c.h"
 1986              		.file 35 ".//ChibiOS//os/hal/ports/STM32/LLD/I2Cv1/i2c_lld.h"
 1987              		.file 36 ".//ChibiOS//os/hal/include/i2s.h"
 1988              		.file 37 ".//ChibiOS//os/hal/ports/STM32/LLD/SPIv1/i2s_lld.h"
 1989              		.file 38 ".//ChibiOS//os/hal/include/pwm.h"
 1990              		.file 39 ".//ChibiOS//os/hal/ports/STM32/LLD/TIMv1/pwm_lld.h"
 1991              		.file 40 ".//ChibiOS//os/hal/include/serial.h"
 1992              		.file 41 ".//ChibiOS//os/hal/ports/STM32/LLD/USARTv1/serial_lld.h"
 1993              		.file 42 ".//ChibiOS//os/hal/include/sdc.h"
 1994              		.file 43 ".//ChibiOS//os/hal/ports/STM32/LLD/sdc_lld.h"
 1995              		.file 44 ".//ChibiOS//os/hal/include/spi.h"
ARM GAS  /tmp/cc9ZVZUy.s 			page 36


 1996              		.file 45 ".//ChibiOS//os/hal/ports/STM32/LLD/SPIv1/spi_lld.h"
 1997              		.file 46 ".//ChibiOS//os/hal/include/usb.h"
 1998              		.file 47 ".//ChibiOS//os/hal/ports/STM32/LLD/OTGv1/usb_lld.h"
 1999              		.file 48 ".//ChibiOS//os/hal/ports/STM32/LLD/OTGv1/stm32_otg.h"
 2000              		.file 49 ".//src/epuck1x/../leds.h"