ARM GAS  /tmp/ccLpktsX.s 			page 1


   1              		.cpu cortex-m4
   2              		.eabi_attribute 27, 1
   3              		.eabi_attribute 28, 1
   4              		.eabi_attribute 20, 1
   5              		.eabi_attribute 21, 1
   6              		.eabi_attribute 23, 3
   7              		.eabi_attribute 24, 1
   8              		.eabi_attribute 25, 1
   9              		.eabi_attribute 26, 1
  10              		.eabi_attribute 30, 2
  11              		.eabi_attribute 34, 1
  12              		.eabi_attribute 18, 4
  13              		.file	"e_prox.c"
  14              		.text
  15              	.Ltext0:
  16              		.cfi_sections	.debug_frame
  17              		.section	.rodata.e_calibrate_ir.cst4,"aM",%progbits,4
  18              		.align	2
  19              	.LC0:
  20 0000 00000000 		.word	__stack_chk_guard
  21              		.section	.text.e_calibrate_ir,"ax",%progbits
  22              		.align	1
  23              		.p2align 4,,15
  24              		.global	e_calibrate_ir
  25              		.arch armv7e-m
  26              		.syntax unified
  27              		.thumb
  28              		.thumb_func
  29              		.fpu fpv4-sp-d16
  30              		.type	e_calibrate_ir, %function
  31              	e_calibrate_ir:
  32              	.LFB0:
  33              		.file 1 ".//src/epuck1x/a_d/advance_ad_scan/e_prox.c"
  34              		.loc 1 5 1 view -0
  35              		.cfi_startproc
  36              		@ args = 0, pretend = 0, frame = 8
  37              		@ frame_needed = 0, uses_anonymous_args = 0
  38 0000 00B5     		push	{lr}
  39              		.cfi_def_cfa_offset 4
  40              		.cfi_offset 14, -4
  41 0002 094B     		ldr	r3, .L7
  42 0004 83B0     		sub	sp, sp, #12
  43              		.cfi_def_cfa_offset 16
  44              		.loc 1 5 1 is_stmt 0 view .LVU1
  45 0006 1B68     		ldr	r3, [r3]
  46 0008 0193     		str	r3, [sp, #4]
  47 000a 4FF00003 		mov	r3,#0
  48              		.loc 1 6 2 is_stmt 1 view .LVU2
  49 000e 064B     		ldr	r3, .L7
  50 0010 1A68     		ldr	r2, [r3]
  51 0012 019B     		ldr	r3, [sp, #4]
  52 0014 5A40     		eors	r2, r3, r2
  53 0016 04D1     		bne	.L6
  54              		.loc 1 7 1 is_stmt 0 view .LVU3
  55 0018 03B0     		add	sp, sp, #12
  56              		.cfi_remember_state
  57              		.cfi_def_cfa_offset 4
ARM GAS  /tmp/ccLpktsX.s 			page 2


  58              		@ sp needed
  59 001a 5DF804EB 		ldr	lr, [sp], #4
  60              		.cfi_restore 14
  61              		.cfi_def_cfa_offset 0
  62              		.loc 1 6 2 view .LVU4
  63 001e FFF7FEBF 		b	calibrate_ir
  64              	.LVL0:
  65              	.L6:
  66              		.cfi_restore_state
  67 0022 FFF7FEFF 		bl	__stack_chk_fail
  68              	.LVL1:
  69              	.L8:
  70 0026 00BF     		.align	2
  71              	.L7:
  72 0028 00000000 		.word	.LC0
  73              		.cfi_endproc
  74              	.LFE0:
  75              		.size	e_calibrate_ir, .-e_calibrate_ir
  76              		.section	.rodata.e_get_prox.cst4,"aM",%progbits,4
  77              		.align	2
  78              	.LC1:
  79 0000 00000000 		.word	__stack_chk_guard
  80              		.section	.text.e_get_prox,"ax",%progbits
  81              		.align	1
  82              		.p2align 4,,15
  83              		.global	e_get_prox
  84              		.syntax unified
  85              		.thumb
  86              		.thumb_func
  87              		.fpu fpv4-sp-d16
  88              		.type	e_get_prox, %function
  89              	e_get_prox:
  90              	.LVL2:
  91              	.LFB1:
  92              		.loc 1 10 1 is_stmt 1 view -0
  93              		.cfi_startproc
  94              		@ args = 0, pretend = 0, frame = 8
  95              		@ frame_needed = 0, uses_anonymous_args = 0
  96              		.loc 1 10 1 is_stmt 0 view .LVU6
  97 0000 00B5     		push	{lr}
  98              		.cfi_def_cfa_offset 4
  99              		.cfi_offset 14, -4
 100 0002 0E4B     		ldr	r3, .L16
 101 0004 83B0     		sub	sp, sp, #12
 102              		.cfi_def_cfa_offset 16
 103              		.loc 1 11 5 view .LVU7
 104 0006 0728     		cmp	r0, #7
 105              		.loc 1 10 1 view .LVU8
 106 0008 1B68     		ldr	r3, [r3]
 107 000a 0193     		str	r3, [sp, #4]
 108 000c 4FF00003 		mov	r3,#0
 109              		.loc 1 11 2 is_stmt 1 view .LVU9
 110              		.loc 1 16 1 is_stmt 0 view .LVU10
 111 0010 0A4B     		ldr	r3, .L16
 112              		.loc 1 11 5 view .LVU11
 113 0012 07D9     		bls	.L15
 114              		.loc 1 16 1 view .LVU12
ARM GAS  /tmp/ccLpktsX.s 			page 3


 115 0014 1A68     		ldr	r2, [r3]
 116 0016 019B     		ldr	r3, [sp, #4]
 117 0018 5A40     		eors	r2, r3, r2
 118 001a 0CD1     		bne	.L14
 119 001c 0020     		movs	r0, #0
 120              	.LVL3:
 121              		.loc 1 16 1 view .LVU13
 122 001e 03B0     		add	sp, sp, #12
 123              		.cfi_remember_state
 124              		.cfi_def_cfa_offset 4
 125              		@ sp needed
 126 0020 5DF804FB 		ldr	pc, [sp], #4
 127              	.LVL4:
 128              	.L15:
 129              		.cfi_restore_state
 130              		.loc 1 14 3 is_stmt 1 view .LVU14
 131              		.loc 1 14 10 is_stmt 0 view .LVU15
 132 0024 1A68     		ldr	r2, [r3]
 133 0026 019B     		ldr	r3, [sp, #4]
 134 0028 5A40     		eors	r2, r3, r2
 135 002a 04D1     		bne	.L14
 136              		.loc 1 16 1 view .LVU16
 137 002c 03B0     		add	sp, sp, #12
 138              		.cfi_remember_state
 139              		.cfi_def_cfa_offset 4
 140              		@ sp needed
 141 002e 5DF804EB 		ldr	lr, [sp], #4
 142              		.cfi_restore 14
 143              		.cfi_def_cfa_offset 0
 144              		.loc 1 14 10 view .LVU17
 145 0032 FFF7FEBF 		b	get_prox
 146              	.LVL5:
 147              	.L14:
 148              		.cfi_restore_state
 149              		.loc 1 16 1 view .LVU18
 150 0036 FFF7FEFF 		bl	__stack_chk_fail
 151              	.LVL6:
 152              	.L17:
 153              		.loc 1 16 1 view .LVU19
 154 003a 00BF     		.align	2
 155              	.L16:
 156 003c 00000000 		.word	.LC1
 157              		.cfi_endproc
 158              	.LFE1:
 159              		.size	e_get_prox, .-e_get_prox
 160              		.section	.rodata.e_get_calibrated_prox.cst4,"aM",%progbits,4
 161              		.align	2
 162              	.LC2:
 163 0000 00000000 		.word	__stack_chk_guard
 164              		.section	.text.e_get_calibrated_prox,"ax",%progbits
 165              		.align	1
 166              		.p2align 4,,15
 167              		.global	e_get_calibrated_prox
 168              		.syntax unified
 169              		.thumb
 170              		.thumb_func
 171              		.fpu fpv4-sp-d16
ARM GAS  /tmp/ccLpktsX.s 			page 4


 172              		.type	e_get_calibrated_prox, %function
 173              	e_get_calibrated_prox:
 174              	.LVL7:
 175              	.LFB2:
 176              		.loc 1 19 1 is_stmt 1 view -0
 177              		.cfi_startproc
 178              		@ args = 0, pretend = 0, frame = 8
 179              		@ frame_needed = 0, uses_anonymous_args = 0
 180              		.loc 1 19 1 is_stmt 0 view .LVU21
 181 0000 00B5     		push	{lr}
 182              		.cfi_def_cfa_offset 4
 183              		.cfi_offset 14, -4
 184 0002 0E4B     		ldr	r3, .L25
 185 0004 83B0     		sub	sp, sp, #12
 186              		.cfi_def_cfa_offset 16
 187              		.loc 1 20 5 view .LVU22
 188 0006 0728     		cmp	r0, #7
 189              		.loc 1 19 1 view .LVU23
 190 0008 1B68     		ldr	r3, [r3]
 191 000a 0193     		str	r3, [sp, #4]
 192 000c 4FF00003 		mov	r3,#0
 193              		.loc 1 20 2 is_stmt 1 view .LVU24
 194              		.loc 1 25 1 is_stmt 0 view .LVU25
 195 0010 0A4B     		ldr	r3, .L25
 196              		.loc 1 20 5 view .LVU26
 197 0012 07D9     		bls	.L24
 198              		.loc 1 25 1 view .LVU27
 199 0014 1A68     		ldr	r2, [r3]
 200 0016 019B     		ldr	r3, [sp, #4]
 201 0018 5A40     		eors	r2, r3, r2
 202 001a 0CD1     		bne	.L23
 203 001c 0020     		movs	r0, #0
 204              	.LVL8:
 205              		.loc 1 25 1 view .LVU28
 206 001e 03B0     		add	sp, sp, #12
 207              		.cfi_remember_state
 208              		.cfi_def_cfa_offset 4
 209              		@ sp needed
 210 0020 5DF804FB 		ldr	pc, [sp], #4
 211              	.LVL9:
 212              	.L24:
 213              		.cfi_restore_state
 214              		.loc 1 23 3 is_stmt 1 view .LVU29
 215              		.loc 1 23 10 is_stmt 0 view .LVU30
 216 0024 1A68     		ldr	r2, [r3]
 217 0026 019B     		ldr	r3, [sp, #4]
 218 0028 5A40     		eors	r2, r3, r2
 219 002a 04D1     		bne	.L23
 220              		.loc 1 25 1 view .LVU31
 221 002c 03B0     		add	sp, sp, #12
 222              		.cfi_remember_state
 223              		.cfi_def_cfa_offset 4
 224              		@ sp needed
 225 002e 5DF804EB 		ldr	lr, [sp], #4
 226              		.cfi_restore 14
 227              		.cfi_def_cfa_offset 0
 228              		.loc 1 23 10 view .LVU32
ARM GAS  /tmp/ccLpktsX.s 			page 5


 229 0032 FFF7FEBF 		b	get_calibrated_prox
 230              	.LVL10:
 231              	.L23:
 232              		.cfi_restore_state
 233              		.loc 1 25 1 view .LVU33
 234 0036 FFF7FEFF 		bl	__stack_chk_fail
 235              	.LVL11:
 236              	.L26:
 237              		.loc 1 25 1 view .LVU34
 238 003a 00BF     		.align	2
 239              	.L25:
 240 003c 00000000 		.word	.LC2
 241              		.cfi_endproc
 242              	.LFE2:
 243              		.size	e_get_calibrated_prox, .-e_get_calibrated_prox
 244              		.section	.rodata.e_get_ambient_light.cst4,"aM",%progbits,4
 245              		.align	2
 246              	.LC3:
 247 0000 00000000 		.word	__stack_chk_guard
 248              		.section	.text.e_get_ambient_light,"ax",%progbits
 249              		.align	1
 250              		.p2align 4,,15
 251              		.global	e_get_ambient_light
 252              		.syntax unified
 253              		.thumb
 254              		.thumb_func
 255              		.fpu fpv4-sp-d16
 256              		.type	e_get_ambient_light, %function
 257              	e_get_ambient_light:
 258              	.LVL12:
 259              	.LFB3:
 260              		.loc 1 28 1 is_stmt 1 view -0
 261              		.cfi_startproc
 262              		@ args = 0, pretend = 0, frame = 8
 263              		@ frame_needed = 0, uses_anonymous_args = 0
 264              		.loc 1 28 1 is_stmt 0 view .LVU36
 265 0000 00B5     		push	{lr}
 266              		.cfi_def_cfa_offset 4
 267              		.cfi_offset 14, -4
 268 0002 0E4B     		ldr	r3, .L34
 269 0004 83B0     		sub	sp, sp, #12
 270              		.cfi_def_cfa_offset 16
 271              		.loc 1 29 5 view .LVU37
 272 0006 0728     		cmp	r0, #7
 273              		.loc 1 28 1 view .LVU38
 274 0008 1B68     		ldr	r3, [r3]
 275 000a 0193     		str	r3, [sp, #4]
 276 000c 4FF00003 		mov	r3,#0
 277              		.loc 1 29 2 is_stmt 1 view .LVU39
 278              		.loc 1 34 1 is_stmt 0 view .LVU40
 279 0010 0A4B     		ldr	r3, .L34
 280              		.loc 1 29 5 view .LVU41
 281 0012 07D9     		bls	.L33
 282              		.loc 1 34 1 view .LVU42
 283 0014 1A68     		ldr	r2, [r3]
 284 0016 019B     		ldr	r3, [sp, #4]
 285 0018 5A40     		eors	r2, r3, r2
ARM GAS  /tmp/ccLpktsX.s 			page 6


 286 001a 0CD1     		bne	.L32
 287 001c 0020     		movs	r0, #0
 288              	.LVL13:
 289              		.loc 1 34 1 view .LVU43
 290 001e 03B0     		add	sp, sp, #12
 291              		.cfi_remember_state
 292              		.cfi_def_cfa_offset 4
 293              		@ sp needed
 294 0020 5DF804FB 		ldr	pc, [sp], #4
 295              	.LVL14:
 296              	.L33:
 297              		.cfi_restore_state
 298              		.loc 1 32 3 is_stmt 1 view .LVU44
 299              		.loc 1 32 10 is_stmt 0 view .LVU45
 300 0024 1A68     		ldr	r2, [r3]
 301 0026 019B     		ldr	r3, [sp, #4]
 302 0028 5A40     		eors	r2, r3, r2
 303 002a 04D1     		bne	.L32
 304              		.loc 1 34 1 view .LVU46
 305 002c 03B0     		add	sp, sp, #12
 306              		.cfi_remember_state
 307              		.cfi_def_cfa_offset 4
 308              		@ sp needed
 309 002e 5DF804EB 		ldr	lr, [sp], #4
 310              		.cfi_restore 14
 311              		.cfi_def_cfa_offset 0
 312              		.loc 1 32 10 view .LVU47
 313 0032 FFF7FEBF 		b	get_ambient_light
 314              	.LVL15:
 315              	.L32:
 316              		.cfi_restore_state
 317              		.loc 1 34 1 view .LVU48
 318 0036 FFF7FEFF 		bl	__stack_chk_fail
 319              	.LVL16:
 320              	.L35:
 321              		.loc 1 34 1 view .LVU49
 322 003a 00BF     		.align	2
 323              	.L34:
 324 003c 00000000 		.word	.LC3
 325              		.cfi_endproc
 326              	.LFE3:
 327              		.size	e_get_ambient_light, .-e_get_ambient_light
 328              		.text
 329              	.Letext0:
 330              		.file 2 ".//src/epuck1x/../sensors/proximity.h"