ARM GAS  /tmp/ccAR1Nqc.s 			page 1


   1              		.cpu cortex-m4
   2              		.eabi_attribute 27, 1
   3              		.eabi_attribute 28, 1
   4              		.eabi_attribute 20, 1
   5              		.eabi_attribute 21, 1
   6              		.eabi_attribute 23, 3
   7              		.eabi_attribute 24, 1
   8              		.eabi_attribute 25, 1
   9              		.eabi_attribute 26, 1
  10              		.eabi_attribute 30, 2
  11              		.eabi_attribute 34, 1
  12              		.eabi_attribute 18, 4
  13              		.file	"e_remote_control.c"
  14              		.text
  15              	.Ltext0:
  16              		.cfi_sections	.debug_frame
  17              		.section	.rodata.e_init_remote_control.cst4,"aM",%progbits,4
  18              		.align	2
  19              	.LC0:
  20 0000 00000000 		.word	__stack_chk_guard
  21              		.section	.text.e_init_remote_control,"ax",%progbits
  22              		.align	1
  23              		.p2align 4,,15
  24              		.global	e_init_remote_control
  25              		.arch armv7e-m
  26              		.syntax unified
  27              		.thumb
  28              		.thumb_func
  29              		.fpu fpv4-sp-d16
  30              		.type	e_init_remote_control, %function
  31              	e_init_remote_control:
  32              	.LFB256:
  33              		.file 1 ".//src/epuck1x/motor_led/advance_one_timer/e_remote_control.c"
  34              		.loc 1 60 1 view -0
  35              		.cfi_startproc
  36              		@ args = 0, pretend = 0, frame = 8
  37              		@ frame_needed = 0, uses_anonymous_args = 0
  38 0000 00B5     		push	{lr}
  39              		.cfi_def_cfa_offset 4
  40              		.cfi_offset 14, -4
  41 0002 084B     		ldr	r3, .L6
  42 0004 83B0     		sub	sp, sp, #12
  43              		.cfi_def_cfa_offset 16
  44              		.loc 1 60 1 is_stmt 0 view .LVU1
  45 0006 1B68     		ldr	r3, [r3]
  46 0008 0193     		str	r3, [sp, #4]
  47 000a 4FF00003 		mov	r3,#0
  48              		.loc 1 61 2 is_stmt 1 view .LVU2
  49              		.loc 1 62 1 is_stmt 0 view .LVU3
  50 000e 054B     		ldr	r3, .L6
  51 0010 1A68     		ldr	r2, [r3]
  52 0012 019B     		ldr	r3, [sp, #4]
  53 0014 5A40     		eors	r2, r3, r2
  54 0016 02D1     		bne	.L5
  55 0018 03B0     		add	sp, sp, #12
  56              		.cfi_remember_state
  57              		.cfi_def_cfa_offset 4
ARM GAS  /tmp/ccAR1Nqc.s 			page 2


  58              		@ sp needed
  59 001a 5DF804FB 		ldr	pc, [sp], #4
  60              	.L5:
  61              		.cfi_restore_state
  62 001e FFF7FEFF 		bl	__stack_chk_fail
  63              	.LVL0:
  64              	.L7:
  65 0022 00BF     		.align	2
  66              	.L6:
  67 0024 00000000 		.word	.LC0
  68              		.cfi_endproc
  69              	.LFE256:
  70              		.size	e_init_remote_control, .-e_init_remote_control
  71              		.section	.rodata.e_get_check.cst4,"aM",%progbits,4
  72              		.align	2
  73              	.LC1:
  74 0000 00000000 		.word	__stack_chk_guard
  75              		.section	.text.e_get_check,"ax",%progbits
  76              		.align	1
  77              		.p2align 4,,15
  78              		.global	e_get_check
  79              		.syntax unified
  80              		.thumb
  81              		.thumb_func
  82              		.fpu fpv4-sp-d16
  83              		.type	e_get_check, %function
  84              	e_get_check:
  85              	.LFB257:
  86              		.loc 1 69 33 is_stmt 1 view -0
  87              		.cfi_startproc
  88              		@ args = 0, pretend = 0, frame = 8
  89              		@ frame_needed = 0, uses_anonymous_args = 0
  90 0000 00B5     		push	{lr}
  91              		.cfi_def_cfa_offset 4
  92              		.cfi_offset 14, -4
  93 0002 094B     		ldr	r3, .L13
  94 0004 83B0     		sub	sp, sp, #12
  95              		.cfi_def_cfa_offset 16
  96              		.loc 1 69 33 is_stmt 0 view .LVU5
  97 0006 1B68     		ldr	r3, [r3]
  98 0008 0193     		str	r3, [sp, #4]
  99 000a 4FF00003 		mov	r3,#0
 100              		.loc 1 70 2 is_stmt 1 view .LVU6
 101              		.loc 1 70 9 is_stmt 0 view .LVU7
 102 000e 064B     		ldr	r3, .L13
 103 0010 1A68     		ldr	r2, [r3]
 104 0012 019B     		ldr	r3, [sp, #4]
 105 0014 5A40     		eors	r2, r3, r2
 106 0016 04D1     		bne	.L12
 107              		.loc 1 71 1 view .LVU8
 108 0018 03B0     		add	sp, sp, #12
 109              		.cfi_remember_state
 110              		.cfi_def_cfa_offset 4
 111              		@ sp needed
 112 001a 5DF804EB 		ldr	lr, [sp], #4
 113              		.cfi_restore 14
 114              		.cfi_def_cfa_offset 0
ARM GAS  /tmp/ccAR1Nqc.s 			page 3


 115              		.loc 1 70 9 view .LVU9
 116 001e FFF7FEBF 		b	ir_remote_get_toggle
 117              	.LVL1:
 118              	.L12:
 119              		.cfi_restore_state
 120 0022 FFF7FEFF 		bl	__stack_chk_fail
 121              	.LVL2:
 122              	.L14:
 123 0026 00BF     		.align	2
 124              	.L13:
 125 0028 00000000 		.word	.LC1
 126              		.cfi_endproc
 127              	.LFE257:
 128              		.size	e_get_check, .-e_get_check
 129              		.section	.rodata.e_get_address.cst4,"aM",%progbits,4
 130              		.align	2
 131              	.LC2:
 132 0000 00000000 		.word	__stack_chk_guard
 133              		.section	.text.e_get_address,"ax",%progbits
 134              		.align	1
 135              		.p2align 4,,15
 136              		.global	e_get_address
 137              		.syntax unified
 138              		.thumb
 139              		.thumb_func
 140              		.fpu fpv4-sp-d16
 141              		.type	e_get_address, %function
 142              	e_get_address:
 143              	.LFB258:
 144              		.loc 1 76 35 is_stmt 1 view -0
 145              		.cfi_startproc
 146              		@ args = 0, pretend = 0, frame = 8
 147              		@ frame_needed = 0, uses_anonymous_args = 0
 148 0000 00B5     		push	{lr}
 149              		.cfi_def_cfa_offset 4
 150              		.cfi_offset 14, -4
 151 0002 094B     		ldr	r3, .L20
 152 0004 83B0     		sub	sp, sp, #12
 153              		.cfi_def_cfa_offset 16
 154              		.loc 1 76 35 is_stmt 0 view .LVU11
 155 0006 1B68     		ldr	r3, [r3]
 156 0008 0193     		str	r3, [sp, #4]
 157 000a 4FF00003 		mov	r3,#0
 158              		.loc 1 77 2 is_stmt 1 view .LVU12
 159              		.loc 1 77 9 is_stmt 0 view .LVU13
 160 000e 064B     		ldr	r3, .L20
 161 0010 1A68     		ldr	r2, [r3]
 162 0012 019B     		ldr	r3, [sp, #4]
 163 0014 5A40     		eors	r2, r3, r2
 164 0016 04D1     		bne	.L19
 165              		.loc 1 78 1 view .LVU14
 166 0018 03B0     		add	sp, sp, #12
 167              		.cfi_remember_state
 168              		.cfi_def_cfa_offset 4
 169              		@ sp needed
 170 001a 5DF804EB 		ldr	lr, [sp], #4
 171              		.cfi_restore 14
ARM GAS  /tmp/ccAR1Nqc.s 			page 4


 172              		.cfi_def_cfa_offset 0
 173              		.loc 1 77 9 view .LVU15
 174 001e FFF7FEBF 		b	ir_remote_get_address
 175              	.LVL3:
 176              	.L19:
 177              		.cfi_restore_state
 178 0022 FFF7FEFF 		bl	__stack_chk_fail
 179              	.LVL4:
 180              	.L21:
 181 0026 00BF     		.align	2
 182              	.L20:
 183 0028 00000000 		.word	.LC2
 184              		.cfi_endproc
 185              	.LFE258:
 186              		.size	e_get_address, .-e_get_address
 187              		.section	.rodata.e_get_data.cst4,"aM",%progbits,4
 188              		.align	2
 189              	.LC3:
 190 0000 00000000 		.word	__stack_chk_guard
 191              		.section	.text.e_get_data,"ax",%progbits
 192              		.align	1
 193              		.p2align 4,,15
 194              		.global	e_get_data
 195              		.syntax unified
 196              		.thumb
 197              		.thumb_func
 198              		.fpu fpv4-sp-d16
 199              		.type	e_get_data, %function
 200              	e_get_data:
 201              	.LFB259:
 202              		.loc 1 83 32 is_stmt 1 view -0
 203              		.cfi_startproc
 204              		@ args = 0, pretend = 0, frame = 8
 205              		@ frame_needed = 0, uses_anonymous_args = 0
 206 0000 00B5     		push	{lr}
 207              		.cfi_def_cfa_offset 4
 208              		.cfi_offset 14, -4
 209 0002 094B     		ldr	r3, .L27
 210 0004 83B0     		sub	sp, sp, #12
 211              		.cfi_def_cfa_offset 16
 212              		.loc 1 83 32 is_stmt 0 view .LVU17
 213 0006 1B68     		ldr	r3, [r3]
 214 0008 0193     		str	r3, [sp, #4]
 215 000a 4FF00003 		mov	r3,#0
 216              		.loc 1 84 2 is_stmt 1 view .LVU18
 217              		.loc 1 84 9 is_stmt 0 view .LVU19
 218 000e 064B     		ldr	r3, .L27
 219 0010 1A68     		ldr	r2, [r3]
 220 0012 019B     		ldr	r3, [sp, #4]
 221 0014 5A40     		eors	r2, r3, r2
 222 0016 04D1     		bne	.L26
 223              		.loc 1 85 1 view .LVU20
 224 0018 03B0     		add	sp, sp, #12
 225              		.cfi_remember_state
 226              		.cfi_def_cfa_offset 4
 227              		@ sp needed
 228 001a 5DF804EB 		ldr	lr, [sp], #4
ARM GAS  /tmp/ccAR1Nqc.s 			page 5


 229              		.cfi_restore 14
 230              		.cfi_def_cfa_offset 0
 231              		.loc 1 84 9 view .LVU21
 232 001e FFF7FEBF 		b	ir_remote_get_data
 233              	.LVL5:
 234              	.L26:
 235              		.cfi_restore_state
 236 0022 FFF7FEFF 		bl	__stack_chk_fail
 237              	.LVL6:
 238              	.L28:
 239 0026 00BF     		.align	2
 240              	.L27:
 241 0028 00000000 		.word	.LC3
 242              		.cfi_endproc
 243              	.LFE259:
 244              		.size	e_get_data, .-e_get_data
 245              		.text
 246              	.Letext0:
 247              		.file 2 "/usr/lib/gcc/arm-none-eabi/9.2.1/include/stdint.h"
 248              		.file 3 "/usr/lib/gcc/arm-none-eabi/9.2.1/include/stddef.h"
 249              		.file 4 ".//ChibiOS//os/rt/ports/ARMCMx/compilers/GCC/chtypes.h"
 250              		.file 5 ".//ChibiOS//os/rt/include/chsystypes.h"
 251              		.file 6 ".//ChibiOS//os/rt/include/chschd.h"
 252              		.file 7 ".//ChibiOS//os/ext/CMSIS/include/core_cm4.h"
 253              		.file 8 ".//ChibiOS//os/ext/CMSIS/ST/system_stm32f4xx.h"
 254              		.file 9 ".//ChibiOS//os/ext/CMSIS/ST/stm32f407xx.h"
 255              		.file 10 ".//ChibiOS//os/rt/ports/ARMCMx/chcore.h"
 256              		.file 11 ".//ChibiOS//os/rt/ports/ARMCMx/chcore_v7m.h"
 257              		.file 12 ".//ChibiOS//os/rt/include/chdebug.h"
 258              		.file 13 ".//ChibiOS//os/rt/include/chtm.h"
 259              		.file 14 ".//ChibiOS//os/rt/include/chstats.h"
 260              		.file 15 ".//ChibiOS//os/rt/include/chsem.h"
 261              		.file 16 ".//ChibiOS//os/rt/include/chmtx.h"
 262              		.file 17 ".//ChibiOS//os/rt/include/chregistry.h"
 263              		.file 18 ".//ChibiOS//os/rt/include/chevents.h"
 264              		.file 19 ".//ChibiOS//os/rt/include/chqueues.h"
 265              		.file 20 ".//ChibiOS//os/hal/ports/STM32/STM32F4xx/stm32_dma.h"
 266              		.file 21 ".//ChibiOS//os/hal/include/hal_ioblock.h"
 267              		.file 22 ".//ChibiOS//os/hal/ports/STM32/LLD/GPIOv2/pal_lld.h"
 268              		.file 23 ".//ChibiOS//os/hal/include/adc.h"
 269              		.file 24 ".//ChibiOS//os/hal/ports/STM32/STM32F4xx/adc_lld.h"
 270              		.file 25 ".//ChibiOS//os/hal/include/can.h"
 271              		.file 26 ".//ChibiOS//os/hal/ports/STM32/LLD/can_lld.h"
 272              		.file 27 ".//ChibiOS//os/hal/include/dac.h"
 273              		.file 28 ".//ChibiOS//os/hal/ports/STM32/LLD/DACv1/dac_lld.h"
 274              		.file 29 ".//ChibiOS//os/hal/include/ext.h"
 275              		.file 30 ".//ChibiOS//os/hal/ports/STM32/LLD/ext_lld.h"
 276              		.file 31 ".//ChibiOS//os/hal/include/gpt.h"
 277              		.file 32 ".//ChibiOS//os/hal/ports/STM32/LLD/TIMv1/gpt_lld.h"
 278              		.file 33 ".//ChibiOS//os/hal/ports/STM32/LLD/TIMv1/stm32_tim.h"
 279              		.file 34 ".//ChibiOS//os/hal/include/i2c.h"
 280              		.file 35 ".//ChibiOS//os/hal/ports/STM32/LLD/I2Cv1/i2c_lld.h"
 281              		.file 36 ".//ChibiOS//os/hal/include/i2s.h"
 282              		.file 37 ".//ChibiOS//os/hal/ports/STM32/LLD/SPIv1/i2s_lld.h"
 283              		.file 38 ".//ChibiOS//os/hal/include/pwm.h"
 284              		.file 39 ".//ChibiOS//os/hal/ports/STM32/LLD/TIMv1/pwm_lld.h"
 285              		.file 40 ".//ChibiOS//os/hal/include/serial.h"
ARM GAS  /tmp/ccAR1Nqc.s 			page 6


 286              		.file 41 ".//ChibiOS//os/hal/ports/STM32/LLD/USARTv1/serial_lld.h"
 287              		.file 42 ".//ChibiOS//os/hal/include/sdc.h"
 288              		.file 43 ".//ChibiOS//os/hal/ports/STM32/LLD/sdc_lld.h"
 289              		.file 44 ".//ChibiOS//os/hal/include/spi.h"
 290              		.file 45 ".//ChibiOS//os/hal/ports/STM32/LLD/SPIv1/spi_lld.h"
 291              		.file 46 ".//ChibiOS//os/hal/include/usb.h"
 292              		.file 47 ".//ChibiOS//os/hal/ports/STM32/LLD/OTGv1/usb_lld.h"
 293              		.file 48 ".//ChibiOS//os/hal/ports/STM32/LLD/OTGv1/stm32_otg.h"
 294              		.file 49 ".//src/epuck1x/../ir_remote.h"