ARM GAS  /tmp/cc9Z92AZ.s 			page 1


   1              		.cpu cortex-m4
   2              		.eabi_attribute 27, 1
   3              		.eabi_attribute 28, 1
   4              		.eabi_attribute 20, 1
   5              		.eabi_attribute 21, 1
   6              		.eabi_attribute 23, 3
   7              		.eabi_attribute 24, 1
   8              		.eabi_attribute 25, 1
   9              		.eabi_attribute 26, 1
  10              		.eabi_attribute 30, 2
  11              		.eabi_attribute 34, 1
  12              		.eabi_attribute 18, 4
  13              		.file	"e_sound.c"
  14              		.text
  15              	.Ltext0:
  16              		.cfi_sections	.debug_frame
  17              		.section	.rodata.e_init_sound.cst4,"aM",%progbits,4
  18              		.align	2
  19              	.LC0:
  20 0000 00000000 		.word	__stack_chk_guard
  21              		.section	.text.e_init_sound,"ax",%progbits
  22              		.align	1
  23              		.p2align 4,,15
  24              		.global	e_init_sound
  25              		.arch armv7e-m
  26              		.syntax unified
  27              		.thumb
  28              		.thumb_func
  29              		.fpu fpv4-sp-d16
  30              		.type	e_init_sound, %function
  31              	e_init_sound:
  32              	.LFB256:
  33              		.file 1 ".//src/epuck1x/codec/e_sound.c"
  34              		.loc 1 34 1 view -0
  35              		.cfi_startproc
  36              		@ args = 0, pretend = 0, frame = 8
  37              		@ frame_needed = 0, uses_anonymous_args = 0
  38 0000 00B5     		push	{lr}
  39              		.cfi_def_cfa_offset 4
  40              		.cfi_offset 14, -4
  41 0002 084B     		ldr	r3, .L6
  42 0004 83B0     		sub	sp, sp, #12
  43              		.cfi_def_cfa_offset 16
  44              		.loc 1 34 1 is_stmt 0 view .LVU1
  45 0006 1B68     		ldr	r3, [r3]
  46 0008 0193     		str	r3, [sp, #4]
  47 000a 4FF00003 		mov	r3,#0
  48              		.loc 1 35 2 is_stmt 1 view .LVU2
  49              		.loc 1 36 1 is_stmt 0 view .LVU3
  50 000e 054B     		ldr	r3, .L6
  51 0010 1A68     		ldr	r2, [r3]
  52 0012 019B     		ldr	r3, [sp, #4]
  53 0014 5A40     		eors	r2, r3, r2
  54 0016 02D1     		bne	.L5
  55 0018 03B0     		add	sp, sp, #12
  56              		.cfi_remember_state
  57              		.cfi_def_cfa_offset 4
ARM GAS  /tmp/cc9Z92AZ.s 			page 2


  58              		@ sp needed
  59 001a 5DF804FB 		ldr	pc, [sp], #4
  60              	.L5:
  61              		.cfi_restore_state
  62 001e FFF7FEFF 		bl	__stack_chk_fail
  63              	.LVL0:
  64              	.L7:
  65 0022 00BF     		.align	2
  66              	.L6:
  67 0024 00000000 		.word	.LC0
  68              		.cfi_endproc
  69              	.LFE256:
  70              		.size	e_init_sound, .-e_init_sound
  71              		.section	.rodata.e_play_sound.cst4,"aM",%progbits,4
  72              		.align	2
  73              	.LC1:
  74 0000 00000000 		.word	__stack_chk_guard
  75              		.section	.text.e_play_sound,"ax",%progbits
  76              		.align	1
  77              		.p2align 4,,15
  78              		.global	e_play_sound
  79              		.syntax unified
  80              		.thumb
  81              		.thumb_func
  82              		.fpu fpv4-sp-d16
  83              		.type	e_play_sound, %function
  84              	e_play_sound:
  85              	.LVL1:
  86              	.LFB257:
  87              		.loc 1 44 1 is_stmt 1 view -0
  88              		.cfi_startproc
  89              		@ args = 0, pretend = 0, frame = 8
  90              		@ frame_needed = 0, uses_anonymous_args = 0
  91              		.loc 1 44 1 is_stmt 0 view .LVU5
  92 0000 00B5     		push	{lr}
  93              		.cfi_def_cfa_offset 4
  94              		.cfi_offset 14, -4
  95 0002 2E4A     		ldr	r2, .L29
  96              		.loc 1 46 2 view .LVU6
  97 0004 40F62673 		movw	r3, #3878
  98              		.loc 1 44 1 view .LVU7
  99 0008 83B0     		sub	sp, sp, #12
 100              		.cfi_def_cfa_offset 16
 101              		.loc 1 46 2 view .LVU8
 102 000a 9842     		cmp	r0, r3
 103              		.loc 1 44 1 view .LVU9
 104 000c 1268     		ldr	r2, [r2]
 105 000e 0192     		str	r2, [sp, #4]
 106 0010 4FF00002 		mov	r2,#0
 107              		.loc 1 45 2 is_stmt 1 view .LVU10
 108              		.loc 1 46 2 view .LVU11
 109 0014 30D0     		beq	.L9
 110 0016 14DD     		ble	.L28
 111 0018 41F67E43 		movw	r3, #7294
 112 001c 9842     		cmp	r0, r3
 113 001e 38D0     		beq	.L14
 114 0020 42F61433 		movw	r3, #11028
ARM GAS  /tmp/cc9Z92AZ.s 			page 3


 115 0024 9842     		cmp	r0, r3
 116 0026 41D1     		bne	.L8
 117              		.loc 1 60 4 view .LVU12
 118 0028 244B     		ldr	r3, .L29
 119 002a 1A68     		ldr	r2, [r3]
 120 002c 019B     		ldr	r3, [sp, #4]
 121 002e 5A40     		eors	r2, r3, r2
 122 0030 08BF     		it	eq
 123 0032 42F21070 		movweq	r0, #10000
 124              	.LVL2:
 125              		.loc 1 60 4 is_stmt 0 view .LVU13
 126 0036 11D1     		bne	.L24
 127              	.L23:
 128              		.loc 1 63 1 view .LVU14
 129 0038 03B0     		add	sp, sp, #12
 130              		.cfi_remember_state
 131              		.cfi_def_cfa_offset 4
 132              		@ sp needed
 133 003a 5DF804EB 		ldr	lr, [sp], #4
 134              		.cfi_restore 14
 135              		.cfi_def_cfa_offset 0
 136              		.loc 1 60 4 view .LVU15
 137 003e FFF7FEBF 		b	dac_play
 138              	.LVL3:
 139              	.L28:
 140              		.cfi_restore_state
 141              		.loc 1 46 2 view .LVU16
 142 0042 68B1     		cbz	r0, .L11
 143 0044 40F64403 		movw	r3, #2116
 144 0048 9842     		cmp	r0, r3
 145 004a 2FD1     		bne	.L8
 146              		.loc 1 51 4 is_stmt 1 view .LVU17
 147 004c 1B4B     		ldr	r3, .L29
 148 004e 1A68     		ldr	r2, [r3]
 149 0050 019B     		ldr	r3, [sp, #4]
 150 0052 5A40     		eors	r2, r3, r2
 151 0054 08BF     		it	eq
 152 0056 4FF4FA70 		moveq	r0, #500
 153              	.LVL4:
 154              		.loc 1 51 4 is_stmt 0 view .LVU18
 155 005a EDD0     		beq	.L23
 156              	.L24:
 157              		.loc 1 63 1 view .LVU19
 158 005c FFF7FEFF 		bl	__stack_chk_fail
 159              	.LVL5:
 160              	.L11:
 161              		.loc 1 48 4 is_stmt 1 view .LVU20
 162 0060 164B     		ldr	r3, .L29
 163 0062 1A68     		ldr	r2, [r3]
 164 0064 019B     		ldr	r3, [sp, #4]
 165 0066 5A40     		eors	r2, r3, r2
 166 0068 08BF     		it	eq
 167 006a 6420     		moveq	r0, #100
 168              	.LVL6:
 169              		.loc 1 48 4 is_stmt 0 view .LVU21
 170 006c F6D1     		bne	.L24
 171              		.loc 1 63 1 view .LVU22
ARM GAS  /tmp/cc9Z92AZ.s 			page 4


 172 006e 03B0     		add	sp, sp, #12
 173              		.cfi_remember_state
 174              		.cfi_def_cfa_offset 4
 175              		@ sp needed
 176 0070 5DF804EB 		ldr	lr, [sp], #4
 177              		.cfi_restore 14
 178              		.cfi_def_cfa_offset 0
 179              		.loc 1 60 4 view .LVU23
 180 0074 FFF7FEBF 		b	dac_play
 181              	.LVL7:
 182              	.L9:
 183              		.cfi_restore_state
 184              		.loc 1 54 4 is_stmt 1 view .LVU24
 185 0078 104B     		ldr	r3, .L29
 186 007a 1A68     		ldr	r2, [r3]
 187 007c 019B     		ldr	r3, [sp, #4]
 188 007e 5A40     		eors	r2, r3, r2
 189 0080 08BF     		it	eq
 190 0082 4FF4FA60 		moveq	r0, #2000
 191              	.LVL8:
 192              		.loc 1 54 4 is_stmt 0 view .LVU25
 193 0086 E9D1     		bne	.L24
 194              		.loc 1 63 1 view .LVU26
 195 0088 03B0     		add	sp, sp, #12
 196              		.cfi_remember_state
 197              		.cfi_def_cfa_offset 4
 198              		@ sp needed
 199 008a 5DF804EB 		ldr	lr, [sp], #4
 200              		.cfi_restore 14
 201              		.cfi_def_cfa_offset 0
 202              		.loc 1 60 4 view .LVU27
 203 008e FFF7FEBF 		b	dac_play
 204              	.LVL9:
 205              	.L14:
 206              		.cfi_restore_state
 207              		.loc 1 57 4 is_stmt 1 view .LVU28
 208 0092 0A4B     		ldr	r3, .L29
 209 0094 1A68     		ldr	r2, [r3]
 210 0096 019B     		ldr	r3, [sp, #4]
 211 0098 5A40     		eors	r2, r3, r2
 212 009a 08BF     		it	eq
 213 009c 4FF47A60 		moveq	r0, #4000
 214              	.LVL10:
 215              		.loc 1 57 4 is_stmt 0 view .LVU29
 216 00a0 DCD1     		bne	.L24
 217              		.loc 1 63 1 view .LVU30
 218 00a2 03B0     		add	sp, sp, #12
 219              		.cfi_remember_state
 220              		.cfi_def_cfa_offset 4
 221              		@ sp needed
 222 00a4 5DF804EB 		ldr	lr, [sp], #4
 223              		.cfi_restore 14
 224              		.cfi_def_cfa_offset 0
 225              		.loc 1 60 4 view .LVU31
 226 00a8 FFF7FEBF 		b	dac_play
 227              	.LVL11:
 228              	.L8:
ARM GAS  /tmp/cc9Z92AZ.s 			page 5


 229              		.cfi_restore_state
 230              		.loc 1 63 1 view .LVU32
 231 00ac 034B     		ldr	r3, .L29
 232 00ae 1A68     		ldr	r2, [r3]
 233 00b0 019B     		ldr	r3, [sp, #4]
 234 00b2 5A40     		eors	r2, r3, r2
 235 00b4 D2D1     		bne	.L24
 236 00b6 03B0     		add	sp, sp, #12
 237              		.cfi_def_cfa_offset 4
 238              		@ sp needed
 239 00b8 5DF804FB 		ldr	pc, [sp], #4
 240              	.L30:
 241              		.align	2
 242              	.L29:
 243 00bc 00000000 		.word	.LC1
 244              		.cfi_endproc
 245              	.LFE257:
 246              		.size	e_play_sound, .-e_play_sound
 247              		.section	.rodata.e_close_sound.cst4,"aM",%progbits,4
 248              		.align	2
 249              	.LC2:
 250 0000 00000000 		.word	__stack_chk_guard
 251              		.section	.text.e_close_sound,"ax",%progbits
 252              		.align	1
 253              		.p2align 4,,15
 254              		.global	e_close_sound
 255              		.syntax unified
 256              		.thumb
 257              		.thumb_func
 258              		.fpu fpv4-sp-d16
 259              		.type	e_close_sound, %function
 260              	e_close_sound:
 261              	.LFB258:
 262              		.loc 1 70 1 is_stmt 1 view -0
 263              		.cfi_startproc
 264              		@ args = 0, pretend = 0, frame = 8
 265              		@ frame_needed = 0, uses_anonymous_args = 0
 266 0000 00B5     		push	{lr}
 267              		.cfi_def_cfa_offset 4
 268              		.cfi_offset 14, -4
 269 0002 094B     		ldr	r3, .L36
 270 0004 83B0     		sub	sp, sp, #12
 271              		.cfi_def_cfa_offset 16
 272              		.loc 1 70 1 is_stmt 0 view .LVU34
 273 0006 1B68     		ldr	r3, [r3]
 274 0008 0193     		str	r3, [sp, #4]
 275 000a 4FF00003 		mov	r3,#0
 276              		.loc 1 71 2 is_stmt 1 view .LVU35
 277 000e 064B     		ldr	r3, .L36
 278 0010 1A68     		ldr	r2, [r3]
 279 0012 019B     		ldr	r3, [sp, #4]
 280 0014 5A40     		eors	r2, r3, r2
 281 0016 04D1     		bne	.L35
 282              		.loc 1 72 1 is_stmt 0 view .LVU36
 283 0018 03B0     		add	sp, sp, #12
 284              		.cfi_remember_state
 285              		.cfi_def_cfa_offset 4
ARM GAS  /tmp/cc9Z92AZ.s 			page 6


 286              		@ sp needed
 287 001a 5DF804EB 		ldr	lr, [sp], #4
 288              		.cfi_restore 14
 289              		.cfi_def_cfa_offset 0
 290              		.loc 1 71 2 view .LVU37
 291 001e FFF7FEBF 		b	dac_stop
 292              	.LVL12:
 293              	.L35:
 294              		.cfi_restore_state
 295 0022 FFF7FEFF 		bl	__stack_chk_fail
 296              	.LVL13:
 297              	.L37:
 298 0026 00BF     		.align	2
 299              	.L36:
 300 0028 00000000 		.word	.LC2
 301              		.cfi_endproc
 302              	.LFE258:
 303              		.size	e_close_sound, .-e_close_sound
 304              		.text
 305              	.Letext0:
 306              		.file 2 "/usr/lib/gcc/arm-none-eabi/9.2.1/include/stddef.h"
 307              		.file 3 "/usr/lib/gcc/arm-none-eabi/9.2.1/include/stdint.h"
 308              		.file 4 ".//ChibiOS//os/rt/ports/ARMCMx/compilers/GCC/chtypes.h"
 309              		.file 5 ".//ChibiOS//os/rt/include/chsystypes.h"
 310              		.file 6 ".//ChibiOS//os/rt/include/chschd.h"
 311              		.file 7 ".//ChibiOS//os/ext/CMSIS/include/core_cm4.h"
 312              		.file 8 ".//ChibiOS//os/ext/CMSIS/ST/system_stm32f4xx.h"
 313              		.file 9 ".//ChibiOS//os/ext/CMSIS/ST/stm32f407xx.h"
 314              		.file 10 ".//ChibiOS//os/rt/ports/ARMCMx/chcore.h"
 315              		.file 11 ".//ChibiOS//os/rt/ports/ARMCMx/chcore_v7m.h"
 316              		.file 12 ".//ChibiOS//os/rt/include/chdebug.h"
 317              		.file 13 ".//ChibiOS//os/rt/include/chtm.h"
 318              		.file 14 ".//ChibiOS//os/rt/include/chstats.h"
 319              		.file 15 ".//ChibiOS//os/rt/include/chsem.h"
 320              		.file 16 ".//ChibiOS//os/rt/include/chmtx.h"
 321              		.file 17 ".//ChibiOS//os/rt/include/chregistry.h"
 322              		.file 18 ".//ChibiOS//os/rt/include/chevents.h"
 323              		.file 19 ".//ChibiOS//os/rt/include/chqueues.h"
 324              		.file 20 ".//ChibiOS//os/hal/ports/STM32/STM32F4xx/stm32_dma.h"
 325              		.file 21 ".//ChibiOS//os/hal/include/hal_ioblock.h"
 326              		.file 22 ".//ChibiOS//os/hal/ports/STM32/LLD/GPIOv2/pal_lld.h"
 327              		.file 23 ".//ChibiOS//os/hal/include/adc.h"
 328              		.file 24 ".//ChibiOS//os/hal/ports/STM32/STM32F4xx/adc_lld.h"
 329              		.file 25 ".//ChibiOS//os/hal/include/can.h"
 330              		.file 26 ".//ChibiOS//os/hal/ports/STM32/LLD/can_lld.h"
 331              		.file 27 ".//ChibiOS//os/hal/include/dac.h"
 332              		.file 28 ".//ChibiOS//os/hal/ports/STM32/LLD/DACv1/dac_lld.h"
 333              		.file 29 ".//ChibiOS//os/hal/include/ext.h"
 334              		.file 30 ".//ChibiOS//os/hal/ports/STM32/LLD/ext_lld.h"
 335              		.file 31 ".//ChibiOS//os/hal/include/gpt.h"
 336              		.file 32 ".//ChibiOS//os/hal/ports/STM32/LLD/TIMv1/gpt_lld.h"
 337              		.file 33 ".//ChibiOS//os/hal/ports/STM32/LLD/TIMv1/stm32_tim.h"
 338              		.file 34 ".//ChibiOS//os/hal/include/i2c.h"
 339              		.file 35 ".//ChibiOS//os/hal/ports/STM32/LLD/I2Cv1/i2c_lld.h"
 340              		.file 36 ".//ChibiOS//os/hal/include/i2s.h"
 341              		.file 37 ".//ChibiOS//os/hal/ports/STM32/LLD/SPIv1/i2s_lld.h"
 342              		.file 38 ".//ChibiOS//os/hal/include/pwm.h"
ARM GAS  /tmp/cc9Z92AZ.s 			page 7


 343              		.file 39 ".//ChibiOS//os/hal/ports/STM32/LLD/TIMv1/pwm_lld.h"
 344              		.file 40 ".//ChibiOS//os/hal/include/serial.h"
 345              		.file 41 ".//ChibiOS//os/hal/ports/STM32/LLD/USARTv1/serial_lld.h"
 346              		.file 42 ".//ChibiOS//os/hal/include/sdc.h"
 347              		.file 43 ".//ChibiOS//os/hal/ports/STM32/LLD/sdc_lld.h"
 348              		.file 44 ".//ChibiOS//os/hal/include/spi.h"
 349              		.file 45 ".//ChibiOS//os/hal/ports/STM32/LLD/SPIv1/spi_lld.h"
 350              		.file 46 ".//ChibiOS//os/hal/include/usb.h"
 351              		.file 47 ".//ChibiOS//os/hal/ports/STM32/LLD/OTGv1/usb_lld.h"
 352              		.file 48 ".//ChibiOS//os/hal/ports/STM32/LLD/OTGv1/stm32_otg.h"
 353              		.file 49 ".//src/epuck1x/../audio/audio_thread.h"