ARM GAS  /tmp/ccuLfVWz.s 			page 1


   1              		.cpu cortex-m4
   2              		.eabi_attribute 27, 1
   3              		.eabi_attribute 28, 1
   4              		.eabi_attribute 20, 1
   5              		.eabi_attribute 21, 1
   6              		.eabi_attribute 23, 3
   7              		.eabi_attribute 24, 1
   8              		.eabi_attribute 25, 1
   9              		.eabi_attribute 26, 1
  10              		.eabi_attribute 30, 2
  11              		.eabi_attribute 34, 1
  12              		.eabi_attribute 18, 4
  13              		.file	"ext.c"
  14              		.text
  15              	.Ltext0:
  16              		.cfi_sections	.debug_frame
  17              		.section	.rodata.extInit.cst4,"aM",%progbits,4
  18              		.align	2
  19              	.LC0:
  20 0000 00000000 		.word	__stack_chk_guard
  21              		.section	.text.extInit,"ax",%progbits
  22              		.align	1
  23              		.p2align 4,,15
  24              		.global	extInit
  25              		.arch armv7e-m
  26              		.syntax unified
  27              		.thumb
  28              		.thumb_func
  29              		.fpu fpv4-sp-d16
  30              		.type	extInit, %function
  31              	extInit:
  32              	.LFB256:
  33              		.file 1 ".//ChibiOS//os/hal/src/ext.c"
  34              		.loc 1 56 20 view -0
  35              		.cfi_startproc
  36              		@ args = 0, pretend = 0, frame = 8
  37              		@ frame_needed = 0, uses_anonymous_args = 0
  38 0000 00B5     		push	{lr}
  39              		.cfi_def_cfa_offset 4
  40              		.cfi_offset 14, -4
  41 0002 094B     		ldr	r3, .L7
  42 0004 83B0     		sub	sp, sp, #12
  43              		.cfi_def_cfa_offset 16
  44              		.loc 1 56 20 is_stmt 0 view .LVU1
  45 0006 1B68     		ldr	r3, [r3]
  46 0008 0193     		str	r3, [sp, #4]
  47 000a 4FF00003 		mov	r3,#0
  48              		.loc 1 58 3 is_stmt 1 view .LVU2
  49 000e 064B     		ldr	r3, .L7
  50 0010 1A68     		ldr	r2, [r3]
  51 0012 019B     		ldr	r3, [sp, #4]
  52 0014 5A40     		eors	r2, r3, r2
  53 0016 04D1     		bne	.L6
  54              		.loc 1 59 1 is_stmt 0 view .LVU3
  55 0018 03B0     		add	sp, sp, #12
  56              		.cfi_remember_state
  57              		.cfi_def_cfa_offset 4
ARM GAS  /tmp/ccuLfVWz.s 			page 2


  58              		@ sp needed
  59 001a 5DF804EB 		ldr	lr, [sp], #4
  60              		.cfi_restore 14
  61              		.cfi_def_cfa_offset 0
  62              		.loc 1 58 3 view .LVU4
  63 001e FFF7FEBF 		b	ext_lld_init
  64              	.LVL0:
  65              	.L6:
  66              		.cfi_restore_state
  67 0022 FFF7FEFF 		bl	__stack_chk_fail
  68              	.LVL1:
  69              	.L8:
  70 0026 00BF     		.align	2
  71              	.L7:
  72 0028 00000000 		.word	.LC0
  73              		.cfi_endproc
  74              	.LFE256:
  75              		.size	extInit, .-extInit
  76              		.section	.rodata.extObjectInit.cst4,"aM",%progbits,4
  77              		.align	2
  78              	.LC1:
  79 0000 00000000 		.word	__stack_chk_guard
  80              		.section	.text.extObjectInit,"ax",%progbits
  81              		.align	1
  82              		.p2align 4,,15
  83              		.global	extObjectInit
  84              		.syntax unified
  85              		.thumb
  86              		.thumb_func
  87              		.fpu fpv4-sp-d16
  88              		.type	extObjectInit, %function
  89              	extObjectInit:
  90              	.LVL2:
  91              	.LFB257:
  92              		.loc 1 68 37 is_stmt 1 view -0
  93              		.cfi_startproc
  94              		@ args = 0, pretend = 0, frame = 8
  95              		@ frame_needed = 0, uses_anonymous_args = 0
  96              		.loc 1 68 37 is_stmt 0 view .LVU6
  97 0000 00B5     		push	{lr}
  98              		.cfi_def_cfa_offset 4
  99              		.cfi_offset 14, -4
 100 0002 0A4B     		ldr	r3, .L13
 101 0004 83B0     		sub	sp, sp, #12
 102              		.cfi_def_cfa_offset 16
 103              		.loc 1 68 37 view .LVU7
 104 0006 1B68     		ldr	r3, [r3]
 105 0008 0193     		str	r3, [sp, #4]
 106 000a 4FF00003 		mov	r3,#0
 107              		.loc 1 70 3 is_stmt 1 view .LVU8
 108              		.loc 1 71 16 is_stmt 0 view .LVU9
 109 000e 0023     		movs	r3, #0
 110              		.loc 1 70 16 view .LVU10
 111 0010 0122     		movs	r2, #1
 112              		.loc 1 71 16 view .LVU11
 113 0012 4360     		str	r3, [r0, #4]
 114              		.loc 1 72 1 view .LVU12
ARM GAS  /tmp/ccuLfVWz.s 			page 3


 115 0014 054B     		ldr	r3, .L13
 116              		.loc 1 70 16 view .LVU13
 117 0016 0270     		strb	r2, [r0]
 118              		.loc 1 71 3 is_stmt 1 view .LVU14
 119              		.loc 1 72 1 is_stmt 0 view .LVU15
 120 0018 1A68     		ldr	r2, [r3]
 121 001a 019B     		ldr	r3, [sp, #4]
 122 001c 5A40     		eors	r2, r3, r2
 123 001e 02D1     		bne	.L12
 124 0020 03B0     		add	sp, sp, #12
 125              		.cfi_remember_state
 126              		.cfi_def_cfa_offset 4
 127              		@ sp needed
 128 0022 5DF804FB 		ldr	pc, [sp], #4
 129              	.L12:
 130              		.cfi_restore_state
 131 0026 FFF7FEFF 		bl	__stack_chk_fail
 132              	.LVL3:
 133              	.L14:
 134              		.loc 1 72 1 view .LVU16
 135 002a 00BF     		.align	2
 136              	.L13:
 137 002c 00000000 		.word	.LC1
 138              		.cfi_endproc
 139              	.LFE257:
 140              		.size	extObjectInit, .-extObjectInit
 141              		.section	.rodata.extStart.cst4,"aM",%progbits,4
 142              		.align	2
 143              	.LC2:
 144 0000 00000000 		.word	__stack_chk_guard
 145              		.section	.text.extStart,"ax",%progbits
 146              		.align	1
 147              		.p2align 4,,15
 148              		.global	extStart
 149              		.syntax unified
 150              		.thumb
 151              		.thumb_func
 152              		.fpu fpv4-sp-d16
 153              		.type	extStart, %function
 154              	extStart:
 155              	.LVL4:
 156              	.LFB258:
 157              		.loc 1 84 57 is_stmt 1 view -0
 158              		.cfi_startproc
 159              		@ args = 0, pretend = 0, frame = 8
 160              		@ frame_needed = 0, uses_anonymous_args = 0
 161              		.loc 1 84 57 is_stmt 0 view .LVU18
 162 0000 30B5     		push	{r4, r5, lr}
 163              		.cfi_def_cfa_offset 12
 164              		.cfi_offset 4, -12
 165              		.cfi_offset 5, -8
 166              		.cfi_offset 14, -4
 167 0002 1F4B     		ldr	r3, .L27
 168 0004 83B0     		sub	sp, sp, #12
 169              		.cfi_def_cfa_offset 24
 170              		.loc 1 84 57 view .LVU19
 171 0006 0D46     		mov	r5, r1
ARM GAS  /tmp/ccuLfVWz.s 			page 4


 172 0008 1B68     		ldr	r3, [r3]
 173 000a 0193     		str	r3, [sp, #4]
 174 000c 4FF00003 		mov	r3,#0
 175              		.loc 1 86 3 is_stmt 1 view .LVU20
 176              		.loc 1 86 3 view .LVU21
 177              		.loc 1 86 3 view .LVU22
 178 0010 0446     		mov	r4, r0
 179 0012 78B3     		cbz	r0, .L16
 180              		.loc 1 86 3 is_stmt 0 discriminator 4 view .LVU23
 181 0014 71B3     		cbz	r1, .L16
 182              	.LVL5:
 183              	.L17:
 184              		.loc 1 86 3 is_stmt 1 discriminator 7 view .LVU24
 185              		.loc 1 88 3 discriminator 7 view .LVU25
 186              	.LBB68:
 187              	.LBI68:
 188              		.file 2 ".//ChibiOS//os/hal/osal/rt/osal.h"
 189              		.loc 2 445 20 discriminator 7 view .LVU26
 190              	.LBE68:
 191              		.loc 2 447 3 discriminator 7 view .LVU27
 192              	.LBB77:
 193              	.LBB69:
 194              	.LBI69:
 195              		.file 3 ".//ChibiOS//os/rt/include/chsys.h"
 196              		.loc 3 346 20 discriminator 7 view .LVU28
 197              	.LBB70:
 198              		.loc 3 348 3 discriminator 7 view .LVU29
 199              	.LBB71:
 200              	.LBI71:
 201              		.file 4 ".//ChibiOS//os/rt/ports/ARMCMx/chcore_v7m.h"
 202              		.loc 4 444 20 discriminator 7 view .LVU30
 203              	.LBE71:
 204              	.LBE70:
 205              	.LBE69:
 206              	.LBE77:
 207              		.loc 4 447 3 discriminator 7 view .LVU31
 208              	.LBB78:
 209              	.LBB76:
 210              	.LBB75:
 211              	.LBB74:
 212              	.LBB72:
 213              	.LBI72:
 214              		.file 5 ".//ChibiOS//os/ext/CMSIS/include/core_cmFunc.h"
 215              		.loc 5 544 57 discriminator 7 view .LVU32
 216              	.LBB73:
 217              		.loc 5 546 3 discriminator 7 view .LVU33
 218 0016 2023     		movs	r3, #32
 219              		.syntax unified
 220              	@ 546 ".//ChibiOS//os/ext/CMSIS/include/core_cmFunc.h" 1
 221 0018 83F31188 		MSR basepri, r3
 222              	@ 0 "" 2
 223              	.LVL6:
 224              		.loc 5 546 3 is_stmt 0 discriminator 7 view .LVU34
 225              		.thumb
 226              		.syntax unified
 227              	.LBE73:
 228              	.LBE72:
ARM GAS  /tmp/ccuLfVWz.s 			page 5


 229              	.LBE74:
 230              		.loc 3 349 3 is_stmt 1 discriminator 7 view .LVU35
 231 001c FFF7FEFF 		bl	_stats_start_measure_crit_thd
 232              	.LVL7:
 233              		.loc 3 350 3 discriminator 7 view .LVU36
 234 0020 FFF7FEFF 		bl	_dbg_check_lock
 235              	.LVL8:
 236              	.LBE75:
 237              	.LBE76:
 238              	.LBE78:
 239              		.loc 1 89 3 discriminator 7 view .LVU37
 240              		.loc 1 89 3 discriminator 7 view .LVU38
 241              		.loc 1 89 3 discriminator 7 view .LVU39
 242 0024 2378     		ldrb	r3, [r4]	@ zero_extendqisi2
 243 0026 013B     		subs	r3, r3, #1
 244 0028 012B     		cmp	r3, #1
 245 002a 02D9     		bls	.L18
 246              		.loc 1 89 3 discriminator 3 view .LVU40
 247 002c 1548     		ldr	r0, .L27+4
 248 002e FFF7FEFF 		bl	chSysHalt
 249              	.LVL9:
 250              	.L18:
 251              		.loc 1 89 3 discriminator 5 view .LVU41
 252              		.loc 1 91 3 discriminator 5 view .LVU42
 253              		.loc 1 92 3 is_stmt 0 discriminator 5 view .LVU43
 254 0032 2046     		mov	r0, r4
 255              		.loc 1 91 16 discriminator 5 view .LVU44
 256 0034 6560     		str	r5, [r4, #4]
 257              		.loc 1 92 3 is_stmt 1 discriminator 5 view .LVU45
 258 0036 FFF7FEFF 		bl	ext_lld_start
 259              	.LVL10:
 260              		.loc 1 93 3 discriminator 5 view .LVU46
 261              		.loc 1 93 15 is_stmt 0 discriminator 5 view .LVU47
 262 003a 0223     		movs	r3, #2
 263 003c 2370     		strb	r3, [r4]
 264              		.loc 1 94 3 is_stmt 1 discriminator 5 view .LVU48
 265              	.LBB79:
 266              	.LBI79:
 267              		.loc 2 456 20 discriminator 5 view .LVU49
 268              	.LBE79:
 269              		.loc 2 458 3 discriminator 5 view .LVU50
 270              	.LBB90:
 271              	.LBB80:
 272              	.LBI80:
 273              		.loc 3 358 20 discriminator 5 view .LVU51
 274              	.LBB81:
 275              		.loc 3 360 3 discriminator 5 view .LVU52
 276 003e FFF7FEFF 		bl	_dbg_check_unlock
 277              	.LVL11:
 278              		.loc 3 361 3 discriminator 5 view .LVU53
 279 0042 FFF7FEFF 		bl	_stats_stop_measure_crit_thd
 280              	.LVL12:
 281              		.loc 3 367 3 discriminator 5 view .LVU54
 282              		.loc 3 367 3 discriminator 5 view .LVU55
 283              		.loc 3 367 3 discriminator 5 view .LVU56
 284 0046 104B     		ldr	r3, .L27+8
 285 0048 1A68     		ldr	r2, [r3]
ARM GAS  /tmp/ccuLfVWz.s 			page 6


 286 004a 9A42     		cmp	r2, r3
 287 004c 04D0     		beq	.L19
 288              		.loc 3 367 3 is_stmt 0 view .LVU57
 289 004e 9969     		ldr	r1, [r3, #24]
 290 0050 9368     		ldr	r3, [r2, #8]
 291 0052 8A68     		ldr	r2, [r1, #8]
 292 0054 9A42     		cmp	r2, r3
 293 0056 09D3     		bcc	.L25
 294              	.L19:
 295              		.loc 3 367 3 is_stmt 1 view .LVU58
 296              		.loc 3 371 3 view .LVU59
 297              	.LBB82:
 298              	.LBI82:
 299              		.loc 4 458 20 view .LVU60
 300              	.LBE82:
 301              	.LBE81:
 302              	.LBE80:
 303              	.LBE90:
 304              		.loc 4 461 3 view .LVU61
 305              	.LVL13:
 306              	.LBB91:
 307              	.LBB88:
 308              	.LBB86:
 309              	.LBB85:
 310              	.LBB83:
 311              	.LBI83:
 312              		.loc 5 544 57 view .LVU62
 313              	.LBB84:
 314              		.loc 5 546 3 view .LVU63
 315 0058 0023     		movs	r3, #0
 316              		.syntax unified
 317              	@ 546 ".//ChibiOS//os/ext/CMSIS/include/core_cmFunc.h" 1
 318 005a 83F31188 		MSR basepri, r3
 319              	@ 0 "" 2
 320              	.LVL14:
 321              		.loc 5 546 3 is_stmt 0 view .LVU64
 322              		.thumb
 323              		.syntax unified
 324              	.LBE84:
 325              	.LBE83:
 326              	.LBE85:
 327              	.LBE86:
 328              	.LBE88:
 329              	.LBE91:
 330              		.loc 1 95 1 view .LVU65
 331 005e 084B     		ldr	r3, .L27
 332 0060 1A68     		ldr	r2, [r3]
 333 0062 019B     		ldr	r3, [sp, #4]
 334 0064 5A40     		eors	r2, r3, r2
 335 0066 09D1     		bne	.L26
 336 0068 03B0     		add	sp, sp, #12
 337              		.cfi_remember_state
 338              		.cfi_def_cfa_offset 12
 339              		@ sp needed
 340 006a 30BD     		pop	{r4, r5, pc}
 341              	.LVL15:
 342              	.L25:
ARM GAS  /tmp/ccuLfVWz.s 			page 7


 343              		.cfi_restore_state
 344              	.LBB92:
 345              	.LBB89:
 346              	.LBB87:
 347              		.loc 3 367 3 is_stmt 1 view .LVU66
 348 006c 0748     		ldr	r0, .L27+12
 349 006e FFF7FEFF 		bl	chSysHalt
 350              	.LVL16:
 351 0072 F1E7     		b	.L19
 352              	.LVL17:
 353              	.L16:
 354              		.loc 3 367 3 is_stmt 0 view .LVU67
 355              	.LBE87:
 356              	.LBE89:
 357              	.LBE92:
 358              		.loc 1 86 3 is_stmt 1 discriminator 5 view .LVU68
 359 0074 0348     		ldr	r0, .L27+4
 360              	.LVL18:
 361              		.loc 1 86 3 is_stmt 0 discriminator 5 view .LVU69
 362 0076 FFF7FEFF 		bl	chSysHalt
 363              	.LVL19:
 364              		.loc 1 86 3 discriminator 5 view .LVU70
 365 007a CCE7     		b	.L17
 366              	.L26:
 367              		.loc 1 95 1 view .LVU71
 368 007c FFF7FEFF 		bl	__stack_chk_fail
 369              	.LVL20:
 370              	.L28:
 371              		.align	2
 372              	.L27:
 373 0080 00000000 		.word	.LC2
 374 0084 00000000 		.word	.LANCHOR0
 375 0088 00000000 		.word	ch
 376 008c 00000000 		.word	.LANCHOR1
 377              		.cfi_endproc
 378              	.LFE258:
 379              		.size	extStart, .-extStart
 380              		.section	.rodata.extStop.cst4,"aM",%progbits,4
 381              		.align	2
 382              	.LC3:
 383 0000 00000000 		.word	__stack_chk_guard
 384              		.section	.text.extStop,"ax",%progbits
 385              		.align	1
 386              		.p2align 4,,15
 387              		.global	extStop
 388              		.syntax unified
 389              		.thumb
 390              		.thumb_func
 391              		.fpu fpv4-sp-d16
 392              		.type	extStop, %function
 393              	extStop:
 394              	.LVL21:
 395              	.LFB259:
 396              		.loc 1 104 31 is_stmt 1 view -0
 397              		.cfi_startproc
 398              		@ args = 0, pretend = 0, frame = 8
 399              		@ frame_needed = 0, uses_anonymous_args = 0
ARM GAS  /tmp/ccuLfVWz.s 			page 8


 400              		.loc 1 104 31 is_stmt 0 view .LVU73
 401 0000 10B5     		push	{r4, lr}
 402              		.cfi_def_cfa_offset 8
 403              		.cfi_offset 4, -8
 404              		.cfi_offset 14, -4
 405 0002 1E4B     		ldr	r3, .L38
 406 0004 82B0     		sub	sp, sp, #8
 407              		.cfi_def_cfa_offset 16
 408              		.loc 1 104 31 view .LVU74
 409 0006 1B68     		ldr	r3, [r3]
 410 0008 0193     		str	r3, [sp, #4]
 411 000a 4FF00003 		mov	r3,#0
 412              		.loc 1 106 3 is_stmt 1 view .LVU75
 413              		.loc 1 106 3 view .LVU76
 414              		.loc 1 106 3 view .LVU77
 415 000e 0446     		mov	r4, r0
 416 0010 68B3     		cbz	r0, .L35
 417              	.LVL22:
 418              	.L30:
 419              		.loc 1 106 3 discriminator 5 view .LVU78
 420              		.loc 1 108 3 discriminator 5 view .LVU79
 421              	.LBB106:
 422              	.LBI106:
 423              		.loc 2 445 20 discriminator 5 view .LVU80
 424              	.LBE106:
 425              		.loc 2 447 3 discriminator 5 view .LVU81
 426              	.LBB115:
 427              	.LBB107:
 428              	.LBI107:
 429              		.loc 3 346 20 discriminator 5 view .LVU82
 430              	.LBB108:
 431              		.loc 3 348 3 discriminator 5 view .LVU83
 432              	.LBB109:
 433              	.LBI109:
 434              		.loc 4 444 20 discriminator 5 view .LVU84
 435              	.LBE109:
 436              	.LBE108:
 437              	.LBE107:
 438              	.LBE115:
 439              		.loc 4 447 3 discriminator 5 view .LVU85
 440              	.LBB116:
 441              	.LBB114:
 442              	.LBB113:
 443              	.LBB112:
 444              	.LBB110:
 445              	.LBI110:
 446              		.loc 5 544 57 discriminator 5 view .LVU86
 447              	.LBB111:
 448              		.loc 5 546 3 discriminator 5 view .LVU87
 449 0012 2023     		movs	r3, #32
 450              		.syntax unified
 451              	@ 546 ".//ChibiOS//os/ext/CMSIS/include/core_cmFunc.h" 1
 452 0014 83F31188 		MSR basepri, r3
 453              	@ 0 "" 2
 454              	.LVL23:
 455              		.loc 5 546 3 is_stmt 0 discriminator 5 view .LVU88
 456              		.thumb
ARM GAS  /tmp/ccuLfVWz.s 			page 9


 457              		.syntax unified
 458              	.LBE111:
 459              	.LBE110:
 460              	.LBE112:
 461              		.loc 3 349 3 is_stmt 1 discriminator 5 view .LVU89
 462 0018 FFF7FEFF 		bl	_stats_start_measure_crit_thd
 463              	.LVL24:
 464              		.loc 3 350 3 discriminator 5 view .LVU90
 465 001c FFF7FEFF 		bl	_dbg_check_lock
 466              	.LVL25:
 467              	.LBE113:
 468              	.LBE114:
 469              	.LBE116:
 470              		.loc 1 109 3 discriminator 5 view .LVU91
 471              		.loc 1 109 3 discriminator 5 view .LVU92
 472              		.loc 1 109 3 discriminator 5 view .LVU93
 473 0020 2378     		ldrb	r3, [r4]	@ zero_extendqisi2
 474 0022 013B     		subs	r3, r3, #1
 475 0024 012B     		cmp	r3, #1
 476 0026 02D9     		bls	.L31
 477              		.loc 1 109 3 discriminator 3 view .LVU94
 478 0028 1548     		ldr	r0, .L38+4
 479 002a FFF7FEFF 		bl	chSysHalt
 480              	.LVL26:
 481              	.L31:
 482              		.loc 1 109 3 discriminator 5 view .LVU95
 483              		.loc 1 111 3 discriminator 5 view .LVU96
 484 002e 2046     		mov	r0, r4
 485 0030 FFF7FEFF 		bl	ext_lld_stop
 486              	.LVL27:
 487              		.loc 1 112 3 discriminator 5 view .LVU97
 488              		.loc 1 112 15 is_stmt 0 discriminator 5 view .LVU98
 489 0034 0123     		movs	r3, #1
 490 0036 2370     		strb	r3, [r4]
 491              		.loc 1 113 3 is_stmt 1 discriminator 5 view .LVU99
 492              	.LBB117:
 493              	.LBI117:
 494              		.loc 2 456 20 discriminator 5 view .LVU100
 495              	.LBE117:
 496              		.loc 2 458 3 discriminator 5 view .LVU101
 497              	.LBB128:
 498              	.LBB118:
 499              	.LBI118:
 500              		.loc 3 358 20 discriminator 5 view .LVU102
 501              	.LBB119:
 502              		.loc 3 360 3 discriminator 5 view .LVU103
 503 0038 FFF7FEFF 		bl	_dbg_check_unlock
 504              	.LVL28:
 505              		.loc 3 361 3 discriminator 5 view .LVU104
 506 003c FFF7FEFF 		bl	_stats_stop_measure_crit_thd
 507              	.LVL29:
 508              		.loc 3 367 3 discriminator 5 view .LVU105
 509              		.loc 3 367 3 discriminator 5 view .LVU106
 510              		.loc 3 367 3 discriminator 5 view .LVU107
 511 0040 104B     		ldr	r3, .L38+8
 512 0042 1A68     		ldr	r2, [r3]
 513 0044 9A42     		cmp	r2, r3
ARM GAS  /tmp/ccuLfVWz.s 			page 10


 514 0046 04D0     		beq	.L32
 515              		.loc 3 367 3 is_stmt 0 view .LVU108
 516 0048 9969     		ldr	r1, [r3, #24]
 517 004a 9368     		ldr	r3, [r2, #8]
 518 004c 8A68     		ldr	r2, [r1, #8]
 519 004e 9A42     		cmp	r2, r3
 520 0050 09D3     		bcc	.L36
 521              	.L32:
 522              		.loc 3 367 3 is_stmt 1 view .LVU109
 523              		.loc 3 371 3 view .LVU110
 524              	.LBB120:
 525              	.LBI120:
 526              		.loc 4 458 20 view .LVU111
 527              	.LBE120:
 528              	.LBE119:
 529              	.LBE118:
 530              	.LBE128:
 531              		.loc 4 461 3 view .LVU112
 532              	.LVL30:
 533              	.LBB129:
 534              	.LBB126:
 535              	.LBB124:
 536              	.LBB123:
 537              	.LBB121:
 538              	.LBI121:
 539              		.loc 5 544 57 view .LVU113
 540              	.LBB122:
 541              		.loc 5 546 3 view .LVU114
 542 0052 0023     		movs	r3, #0
 543              		.syntax unified
 544              	@ 546 ".//ChibiOS//os/ext/CMSIS/include/core_cmFunc.h" 1
 545 0054 83F31188 		MSR basepri, r3
 546              	@ 0 "" 2
 547              	.LVL31:
 548              		.loc 5 546 3 is_stmt 0 view .LVU115
 549              		.thumb
 550              		.syntax unified
 551              	.LBE122:
 552              	.LBE121:
 553              	.LBE123:
 554              	.LBE124:
 555              	.LBE126:
 556              	.LBE129:
 557              		.loc 1 114 1 view .LVU116
 558 0058 084B     		ldr	r3, .L38
 559 005a 1A68     		ldr	r2, [r3]
 560 005c 019B     		ldr	r3, [sp, #4]
 561 005e 5A40     		eors	r2, r3, r2
 562 0060 09D1     		bne	.L37
 563 0062 02B0     		add	sp, sp, #8
 564              		.cfi_remember_state
 565              		.cfi_def_cfa_offset 8
 566              		@ sp needed
 567 0064 10BD     		pop	{r4, pc}
 568              	.LVL32:
 569              	.L36:
 570              		.cfi_restore_state
ARM GAS  /tmp/ccuLfVWz.s 			page 11


 571              	.LBB130:
 572              	.LBB127:
 573              	.LBB125:
 574              		.loc 3 367 3 is_stmt 1 view .LVU117
 575 0066 0848     		ldr	r0, .L38+12
 576 0068 FFF7FEFF 		bl	chSysHalt
 577              	.LVL33:
 578 006c F1E7     		b	.L32
 579              	.LVL34:
 580              	.L35:
 581              		.loc 3 367 3 is_stmt 0 view .LVU118
 582              	.LBE125:
 583              	.LBE127:
 584              	.LBE130:
 585              		.loc 1 106 3 is_stmt 1 discriminator 3 view .LVU119
 586 006e 0448     		ldr	r0, .L38+4
 587              	.LVL35:
 588              		.loc 1 106 3 is_stmt 0 discriminator 3 view .LVU120
 589 0070 FFF7FEFF 		bl	chSysHalt
 590              	.LVL36:
 591 0074 CDE7     		b	.L30
 592              	.L37:
 593              		.loc 1 114 1 view .LVU121
 594 0076 FFF7FEFF 		bl	__stack_chk_fail
 595              	.LVL37:
 596              	.L39:
 597 007a 00BF     		.align	2
 598              	.L38:
 599 007c 00000000 		.word	.LC3
 600 0080 00000000 		.word	.LANCHOR2
 601 0084 00000000 		.word	ch
 602 0088 00000000 		.word	.LANCHOR1
 603              		.cfi_endproc
 604              	.LFE259:
 605              		.size	extStop, .-extStop
 606              		.section	.rodata.extChannelEnable.cst4,"aM",%progbits,4
 607              		.align	2
 608              	.LC4:
 609 0000 00000000 		.word	__stack_chk_guard
 610              		.section	.text.extChannelEnable,"ax",%progbits
 611              		.align	1
 612              		.p2align 4,,15
 613              		.global	extChannelEnable
 614              		.syntax unified
 615              		.thumb
 616              		.thumb_func
 617              		.fpu fpv4-sp-d16
 618              		.type	extChannelEnable, %function
 619              	extChannelEnable:
 620              	.LVL38:
 621              	.LFB260:
 622              		.loc 1 125 62 is_stmt 1 view -0
 623              		.cfi_startproc
 624              		@ args = 0, pretend = 0, frame = 8
 625              		@ frame_needed = 0, uses_anonymous_args = 0
 626              		.loc 1 125 62 is_stmt 0 view .LVU123
 627 0000 30B5     		push	{r4, r5, lr}
ARM GAS  /tmp/ccuLfVWz.s 			page 12


 628              		.cfi_def_cfa_offset 12
 629              		.cfi_offset 4, -12
 630              		.cfi_offset 5, -8
 631              		.cfi_offset 14, -4
 632 0002 214B     		ldr	r3, .L53
 633 0004 83B0     		sub	sp, sp, #12
 634              		.cfi_def_cfa_offset 24
 635              		.loc 1 125 62 view .LVU124
 636 0006 0D46     		mov	r5, r1
 637 0008 1B68     		ldr	r3, [r3]
 638 000a 0193     		str	r3, [sp, #4]
 639 000c 4FF00003 		mov	r3,#0
 640              		.loc 1 127 3 is_stmt 1 view .LVU125
 641              		.loc 1 127 3 view .LVU126
 642              		.loc 1 127 3 view .LVU127
 643 0010 0446     		mov	r4, r0
 644 0012 58B3     		cbz	r0, .L41
 645              		.loc 1 127 3 is_stmt 0 discriminator 4 view .LVU128
 646 0014 1629     		cmp	r1, #22
 647 0016 29D8     		bhi	.L41
 648              	.LVL39:
 649              	.L42:
 650              		.loc 1 127 3 is_stmt 1 discriminator 7 view .LVU129
 651              		.loc 1 129 3 discriminator 7 view .LVU130
 652              	.LBB144:
 653              	.LBI144:
 654              		.loc 2 445 20 discriminator 7 view .LVU131
 655              	.LBE144:
 656              		.loc 2 447 3 discriminator 7 view .LVU132
 657              	.LBB153:
 658              	.LBB145:
 659              	.LBI145:
 660              		.loc 3 346 20 discriminator 7 view .LVU133
 661              	.LBB146:
 662              		.loc 3 348 3 discriminator 7 view .LVU134
 663              	.LBB147:
 664              	.LBI147:
 665              		.loc 4 444 20 discriminator 7 view .LVU135
 666              	.LBE147:
 667              	.LBE146:
 668              	.LBE145:
 669              	.LBE153:
 670              		.loc 4 447 3 discriminator 7 view .LVU136
 671              	.LBB154:
 672              	.LBB152:
 673              	.LBB151:
 674              	.LBB150:
 675              	.LBB148:
 676              	.LBI148:
 677              		.loc 5 544 57 discriminator 7 view .LVU137
 678              	.LBB149:
 679              		.loc 5 546 3 discriminator 7 view .LVU138
 680 0018 2023     		movs	r3, #32
 681              		.syntax unified
 682              	@ 546 ".//ChibiOS//os/ext/CMSIS/include/core_cmFunc.h" 1
 683 001a 83F31188 		MSR basepri, r3
 684              	@ 0 "" 2
ARM GAS  /tmp/ccuLfVWz.s 			page 13


 685              	.LVL40:
 686              		.loc 5 546 3 is_stmt 0 discriminator 7 view .LVU139
 687              		.thumb
 688              		.syntax unified
 689              	.LBE149:
 690              	.LBE148:
 691              	.LBE150:
 692              		.loc 3 349 3 is_stmt 1 discriminator 7 view .LVU140
 693 001e FFF7FEFF 		bl	_stats_start_measure_crit_thd
 694              	.LVL41:
 695              		.loc 3 350 3 discriminator 7 view .LVU141
 696 0022 FFF7FEFF 		bl	_dbg_check_lock
 697              	.LVL42:
 698              	.LBE151:
 699              	.LBE152:
 700              	.LBE154:
 701              		.loc 1 130 3 discriminator 7 view .LVU142
 702              		.loc 1 130 3 discriminator 7 view .LVU143
 703              		.loc 1 130 3 discriminator 7 view .LVU144
 704 0026 2378     		ldrb	r3, [r4]	@ zero_extendqisi2
 705 0028 022B     		cmp	r3, #2
 706 002a 23D1     		bne	.L43
 707              		.loc 1 130 3 is_stmt 0 discriminator 4 view .LVU145
 708 002c 6368     		ldr	r3, [r4, #4]
 709 002e 53F83530 		ldr	r3, [r3, r5, lsl #3]
 710 0032 9B07     		lsls	r3, r3, #30
 711 0034 1ED0     		beq	.L43
 712              	.L44:
 713              		.loc 1 130 3 is_stmt 1 discriminator 7 view .LVU146
 714              		.loc 1 134 3 discriminator 7 view .LVU147
 715 0036 2946     		mov	r1, r5
 716 0038 2046     		mov	r0, r4
 717 003a FFF7FEFF 		bl	ext_lld_channel_enable
 718              	.LVL43:
 719              		.loc 1 135 3 discriminator 7 view .LVU148
 720              	.LBB155:
 721              	.LBI155:
 722              		.loc 2 456 20 discriminator 7 view .LVU149
 723              	.LBE155:
 724              		.loc 2 458 3 discriminator 7 view .LVU150
 725              	.LBB166:
 726              	.LBB156:
 727              	.LBI156:
 728              		.loc 3 358 20 discriminator 7 view .LVU151
 729              	.LBB157:
 730              		.loc 3 360 3 discriminator 7 view .LVU152
 731 003e FFF7FEFF 		bl	_dbg_check_unlock
 732              	.LVL44:
 733              		.loc 3 361 3 discriminator 7 view .LVU153
 734 0042 FFF7FEFF 		bl	_stats_stop_measure_crit_thd
 735              	.LVL45:
 736              		.loc 3 367 3 discriminator 7 view .LVU154
 737              		.loc 3 367 3 discriminator 7 view .LVU155
 738              		.loc 3 367 3 discriminator 7 view .LVU156
 739 0046 114B     		ldr	r3, .L53+4
 740 0048 1A68     		ldr	r2, [r3]
 741 004a 9A42     		cmp	r2, r3
ARM GAS  /tmp/ccuLfVWz.s 			page 14


 742 004c 04D0     		beq	.L45
 743              		.loc 3 367 3 is_stmt 0 view .LVU157
 744 004e 9969     		ldr	r1, [r3, #24]
 745 0050 9368     		ldr	r3, [r2, #8]
 746 0052 8A68     		ldr	r2, [r1, #8]
 747 0054 9A42     		cmp	r2, r3
 748 0056 11D3     		bcc	.L51
 749              	.L45:
 750              		.loc 3 367 3 is_stmt 1 view .LVU158
 751              		.loc 3 371 3 view .LVU159
 752              	.LBB158:
 753              	.LBI158:
 754              		.loc 4 458 20 view .LVU160
 755              	.LBE158:
 756              	.LBE157:
 757              	.LBE156:
 758              	.LBE166:
 759              		.loc 4 461 3 view .LVU161
 760              	.LVL46:
 761              	.LBB167:
 762              	.LBB164:
 763              	.LBB162:
 764              	.LBB161:
 765              	.LBB159:
 766              	.LBI159:
 767              		.loc 5 544 57 view .LVU162
 768              	.LBB160:
 769              		.loc 5 546 3 view .LVU163
 770 0058 0023     		movs	r3, #0
 771              		.syntax unified
 772              	@ 546 ".//ChibiOS//os/ext/CMSIS/include/core_cmFunc.h" 1
 773 005a 83F31188 		MSR basepri, r3
 774              	@ 0 "" 2
 775              	.LVL47:
 776              		.loc 5 546 3 is_stmt 0 view .LVU164
 777              		.thumb
 778              		.syntax unified
 779              	.LBE160:
 780              	.LBE159:
 781              	.LBE161:
 782              	.LBE162:
 783              	.LBE164:
 784              	.LBE167:
 785              		.loc 1 136 1 view .LVU165
 786 005e 0A4B     		ldr	r3, .L53
 787 0060 1A68     		ldr	r2, [r3]
 788 0062 019B     		ldr	r3, [sp, #4]
 789 0064 5A40     		eors	r2, r3, r2
 790 0066 0DD1     		bne	.L52
 791 0068 03B0     		add	sp, sp, #12
 792              		.cfi_remember_state
 793              		.cfi_def_cfa_offset 12
 794              		@ sp needed
 795 006a 30BD     		pop	{r4, r5, pc}
 796              	.LVL48:
 797              	.L41:
 798              		.cfi_restore_state
ARM GAS  /tmp/ccuLfVWz.s 			page 15


 799              		.loc 1 127 3 is_stmt 1 discriminator 5 view .LVU166
 800 006c 0848     		ldr	r0, .L53+8
 801              	.LVL49:
 802              		.loc 1 127 3 is_stmt 0 discriminator 5 view .LVU167
 803 006e FFF7FEFF 		bl	chSysHalt
 804              	.LVL50:
 805              		.loc 1 127 3 discriminator 5 view .LVU168
 806 0072 D1E7     		b	.L42
 807              	.L43:
 808              		.loc 1 130 3 is_stmt 1 discriminator 5 view .LVU169
 809 0074 0648     		ldr	r0, .L53+8
 810 0076 FFF7FEFF 		bl	chSysHalt
 811              	.LVL51:
 812 007a DCE7     		b	.L44
 813              	.L51:
 814              	.LBB168:
 815              	.LBB165:
 816              	.LBB163:
 817              		.loc 3 367 3 view .LVU170
 818 007c 0548     		ldr	r0, .L53+12
 819 007e FFF7FEFF 		bl	chSysHalt
 820              	.LVL52:
 821 0082 E9E7     		b	.L45
 822              	.L52:
 823              	.LBE163:
 824              	.LBE165:
 825              	.LBE168:
 826              		.loc 1 136 1 is_stmt 0 view .LVU171
 827 0084 FFF7FEFF 		bl	__stack_chk_fail
 828              	.LVL53:
 829              	.L54:
 830              		.align	2
 831              	.L53:
 832 0088 00000000 		.word	.LC4
 833 008c 00000000 		.word	ch
 834 0090 00000000 		.word	.LANCHOR3
 835 0094 00000000 		.word	.LANCHOR1
 836              		.cfi_endproc
 837              	.LFE260:
 838              		.size	extChannelEnable, .-extChannelEnable
 839              		.section	.rodata.extChannelDisable.cst4,"aM",%progbits,4
 840              		.align	2
 841              	.LC5:
 842 0000 00000000 		.word	__stack_chk_guard
 843              		.section	.text.extChannelDisable,"ax",%progbits
 844              		.align	1
 845              		.p2align 4,,15
 846              		.global	extChannelDisable
 847              		.syntax unified
 848              		.thumb
 849              		.thumb_func
 850              		.fpu fpv4-sp-d16
 851              		.type	extChannelDisable, %function
 852              	extChannelDisable:
 853              	.LVL54:
 854              	.LFB261:
 855              		.loc 1 147 63 is_stmt 1 view -0
ARM GAS  /tmp/ccuLfVWz.s 			page 16


 856              		.cfi_startproc
 857              		@ args = 0, pretend = 0, frame = 8
 858              		@ frame_needed = 0, uses_anonymous_args = 0
 859              		.loc 1 147 63 is_stmt 0 view .LVU173
 860 0000 30B5     		push	{r4, r5, lr}
 861              		.cfi_def_cfa_offset 12
 862              		.cfi_offset 4, -12
 863              		.cfi_offset 5, -8
 864              		.cfi_offset 14, -4
 865 0002 214B     		ldr	r3, .L68
 866 0004 83B0     		sub	sp, sp, #12
 867              		.cfi_def_cfa_offset 24
 868              		.loc 1 147 63 view .LVU174
 869 0006 0D46     		mov	r5, r1
 870 0008 1B68     		ldr	r3, [r3]
 871 000a 0193     		str	r3, [sp, #4]
 872 000c 4FF00003 		mov	r3,#0
 873              		.loc 1 149 3 is_stmt 1 view .LVU175
 874              		.loc 1 149 3 view .LVU176
 875              		.loc 1 149 3 view .LVU177
 876 0010 0446     		mov	r4, r0
 877 0012 58B3     		cbz	r0, .L56
 878              		.loc 1 149 3 is_stmt 0 discriminator 4 view .LVU178
 879 0014 1629     		cmp	r1, #22
 880 0016 29D8     		bhi	.L56
 881              	.LVL55:
 882              	.L57:
 883              		.loc 1 149 3 is_stmt 1 discriminator 7 view .LVU179
 884              		.loc 1 151 3 discriminator 7 view .LVU180
 885              	.LBB182:
 886              	.LBI182:
 887              		.loc 2 445 20 discriminator 7 view .LVU181
 888              	.LBE182:
 889              		.loc 2 447 3 discriminator 7 view .LVU182
 890              	.LBB191:
 891              	.LBB183:
 892              	.LBI183:
 893              		.loc 3 346 20 discriminator 7 view .LVU183
 894              	.LBB184:
 895              		.loc 3 348 3 discriminator 7 view .LVU184
 896              	.LBB185:
 897              	.LBI185:
 898              		.loc 4 444 20 discriminator 7 view .LVU185
 899              	.LBE185:
 900              	.LBE184:
 901              	.LBE183:
 902              	.LBE191:
 903              		.loc 4 447 3 discriminator 7 view .LVU186
 904              	.LBB192:
 905              	.LBB190:
 906              	.LBB189:
 907              	.LBB188:
 908              	.LBB186:
 909              	.LBI186:
 910              		.loc 5 544 57 discriminator 7 view .LVU187
 911              	.LBB187:
 912              		.loc 5 546 3 discriminator 7 view .LVU188
ARM GAS  /tmp/ccuLfVWz.s 			page 17


 913 0018 2023     		movs	r3, #32
 914              		.syntax unified
 915              	@ 546 ".//ChibiOS//os/ext/CMSIS/include/core_cmFunc.h" 1
 916 001a 83F31188 		MSR basepri, r3
 917              	@ 0 "" 2
 918              	.LVL56:
 919              		.loc 5 546 3 is_stmt 0 discriminator 7 view .LVU189
 920              		.thumb
 921              		.syntax unified
 922              	.LBE187:
 923              	.LBE186:
 924              	.LBE188:
 925              		.loc 3 349 3 is_stmt 1 discriminator 7 view .LVU190
 926 001e FFF7FEFF 		bl	_stats_start_measure_crit_thd
 927              	.LVL57:
 928              		.loc 3 350 3 discriminator 7 view .LVU191
 929 0022 FFF7FEFF 		bl	_dbg_check_lock
 930              	.LVL58:
 931              	.LBE189:
 932              	.LBE190:
 933              	.LBE192:
 934              		.loc 1 152 3 discriminator 7 view .LVU192
 935              		.loc 1 152 3 discriminator 7 view .LVU193
 936              		.loc 1 152 3 discriminator 7 view .LVU194
 937 0026 2378     		ldrb	r3, [r4]	@ zero_extendqisi2
 938 0028 022B     		cmp	r3, #2
 939 002a 23D1     		bne	.L58
 940              		.loc 1 152 3 is_stmt 0 discriminator 4 view .LVU195
 941 002c 6368     		ldr	r3, [r4, #4]
 942 002e 53F83530 		ldr	r3, [r3, r5, lsl #3]
 943 0032 9B07     		lsls	r3, r3, #30
 944 0034 1ED0     		beq	.L58
 945              	.L59:
 946              		.loc 1 152 3 is_stmt 1 discriminator 7 view .LVU196
 947              		.loc 1 156 3 discriminator 7 view .LVU197
 948 0036 2946     		mov	r1, r5
 949 0038 2046     		mov	r0, r4
 950 003a FFF7FEFF 		bl	ext_lld_channel_disable
 951              	.LVL59:
 952              		.loc 1 157 3 discriminator 7 view .LVU198
 953              	.LBB193:
 954              	.LBI193:
 955              		.loc 2 456 20 discriminator 7 view .LVU199
 956              	.LBE193:
 957              		.loc 2 458 3 discriminator 7 view .LVU200
 958              	.LBB204:
 959              	.LBB194:
 960              	.LBI194:
 961              		.loc 3 358 20 discriminator 7 view .LVU201
 962              	.LBB195:
 963              		.loc 3 360 3 discriminator 7 view .LVU202
 964 003e FFF7FEFF 		bl	_dbg_check_unlock
 965              	.LVL60:
 966              		.loc 3 361 3 discriminator 7 view .LVU203
 967 0042 FFF7FEFF 		bl	_stats_stop_measure_crit_thd
 968              	.LVL61:
 969              		.loc 3 367 3 discriminator 7 view .LVU204
ARM GAS  /tmp/ccuLfVWz.s 			page 18


 970              		.loc 3 367 3 discriminator 7 view .LVU205
 971              		.loc 3 367 3 discriminator 7 view .LVU206
 972 0046 114B     		ldr	r3, .L68+4
 973 0048 1A68     		ldr	r2, [r3]
 974 004a 9A42     		cmp	r2, r3
 975 004c 04D0     		beq	.L60
 976              		.loc 3 367 3 is_stmt 0 view .LVU207
 977 004e 9969     		ldr	r1, [r3, #24]
 978 0050 9368     		ldr	r3, [r2, #8]
 979 0052 8A68     		ldr	r2, [r1, #8]
 980 0054 9A42     		cmp	r2, r3
 981 0056 11D3     		bcc	.L66
 982              	.L60:
 983              		.loc 3 367 3 is_stmt 1 view .LVU208
 984              		.loc 3 371 3 view .LVU209
 985              	.LBB196:
 986              	.LBI196:
 987              		.loc 4 458 20 view .LVU210
 988              	.LBE196:
 989              	.LBE195:
 990              	.LBE194:
 991              	.LBE204:
 992              		.loc 4 461 3 view .LVU211
 993              	.LVL62:
 994              	.LBB205:
 995              	.LBB202:
 996              	.LBB200:
 997              	.LBB199:
 998              	.LBB197:
 999              	.LBI197:
 1000              		.loc 5 544 57 view .LVU212
 1001              	.LBB198:
 1002              		.loc 5 546 3 view .LVU213
 1003 0058 0023     		movs	r3, #0
 1004              		.syntax unified
 1005              	@ 546 ".//ChibiOS//os/ext/CMSIS/include/core_cmFunc.h" 1
 1006 005a 83F31188 		MSR basepri, r3
 1007              	@ 0 "" 2
 1008              	.LVL63:
 1009              		.loc 5 546 3 is_stmt 0 view .LVU214
 1010              		.thumb
 1011              		.syntax unified
 1012              	.LBE198:
 1013              	.LBE197:
 1014              	.LBE199:
 1015              	.LBE200:
 1016              	.LBE202:
 1017              	.LBE205:
 1018              		.loc 1 158 1 view .LVU215
 1019 005e 0A4B     		ldr	r3, .L68
 1020 0060 1A68     		ldr	r2, [r3]
 1021 0062 019B     		ldr	r3, [sp, #4]
 1022 0064 5A40     		eors	r2, r3, r2
 1023 0066 0DD1     		bne	.L67
 1024 0068 03B0     		add	sp, sp, #12
 1025              		.cfi_remember_state
 1026              		.cfi_def_cfa_offset 12
ARM GAS  /tmp/ccuLfVWz.s 			page 19


 1027              		@ sp needed
 1028 006a 30BD     		pop	{r4, r5, pc}
 1029              	.LVL64:
 1030              	.L56:
 1031              		.cfi_restore_state
 1032              		.loc 1 149 3 is_stmt 1 discriminator 5 view .LVU216
 1033 006c 0848     		ldr	r0, .L68+8
 1034              	.LVL65:
 1035              		.loc 1 149 3 is_stmt 0 discriminator 5 view .LVU217
 1036 006e FFF7FEFF 		bl	chSysHalt
 1037              	.LVL66:
 1038              		.loc 1 149 3 discriminator 5 view .LVU218
 1039 0072 D1E7     		b	.L57
 1040              	.L58:
 1041              		.loc 1 152 3 is_stmt 1 discriminator 5 view .LVU219
 1042 0074 0648     		ldr	r0, .L68+8
 1043 0076 FFF7FEFF 		bl	chSysHalt
 1044              	.LVL67:
 1045 007a DCE7     		b	.L59
 1046              	.L66:
 1047              	.LBB206:
 1048              	.LBB203:
 1049              	.LBB201:
 1050              		.loc 3 367 3 view .LVU220
 1051 007c 0548     		ldr	r0, .L68+12
 1052 007e FFF7FEFF 		bl	chSysHalt
 1053              	.LVL68:
 1054 0082 E9E7     		b	.L60
 1055              	.L67:
 1056              	.LBE201:
 1057              	.LBE203:
 1058              	.LBE206:
 1059              		.loc 1 158 1 is_stmt 0 view .LVU221
 1060 0084 FFF7FEFF 		bl	__stack_chk_fail
 1061              	.LVL69:
 1062              	.L69:
 1063              		.align	2
 1064              	.L68:
 1065 0088 00000000 		.word	.LC5
 1066 008c 00000000 		.word	ch
 1067 0090 00000000 		.word	.LANCHOR4
 1068 0094 00000000 		.word	.LANCHOR1
 1069              		.cfi_endproc
 1070              	.LFE261:
 1071              		.size	extChannelDisable, .-extChannelDisable
 1072              		.section	.rodata.extSetChannelModeI.cst4,"aM",%progbits,4
 1073              		.align	2
 1074              	.LC6:
 1075 0000 00000000 		.word	__stack_chk_guard
 1076              		.section	.text.extSetChannelModeI,"ax",%progbits
 1077              		.align	1
 1078              		.p2align 4,,15
 1079              		.global	extSetChannelModeI
 1080              		.syntax unified
 1081              		.thumb
 1082              		.thumb_func
 1083              		.fpu fpv4-sp-d16
ARM GAS  /tmp/ccuLfVWz.s 			page 20


 1084              		.type	extSetChannelModeI, %function
 1085              	extSetChannelModeI:
 1086              	.LVL70:
 1087              	.LFB262:
 1088              		.loc 1 179 56 is_stmt 1 view -0
 1089              		.cfi_startproc
 1090              		@ args = 0, pretend = 0, frame = 8
 1091              		@ frame_needed = 0, uses_anonymous_args = 0
 1092              		.loc 1 179 56 is_stmt 0 view .LVU223
 1093 0000 70B5     		push	{r4, r5, r6, lr}
 1094              		.cfi_def_cfa_offset 16
 1095              		.cfi_offset 4, -16
 1096              		.cfi_offset 5, -12
 1097              		.cfi_offset 6, -8
 1098              		.cfi_offset 14, -4
 1099 0002 164B     		ldr	r3, .L85
 1100 0004 82B0     		sub	sp, sp, #8
 1101              		.cfi_def_cfa_offset 24
 1102              		.loc 1 179 56 view .LVU224
 1103 0006 0D46     		mov	r5, r1
 1104 0008 1646     		mov	r6, r2
 1105 000a 1B68     		ldr	r3, [r3]
 1106 000c 0193     		str	r3, [sp, #4]
 1107 000e 4FF00003 		mov	r3,#0
 1108              		.loc 1 180 3 is_stmt 1 view .LVU225
 1109              		.loc 1 182 3 view .LVU226
 1110              		.loc 1 182 3 view .LVU227
 1111              		.loc 1 182 3 view .LVU228
 1112 0012 0446     		mov	r4, r0
 1113 0014 08B1     		cbz	r0, .L71
 1114              		.loc 1 182 3 is_stmt 0 discriminator 4 view .LVU229
 1115 0016 1629     		cmp	r1, #22
 1116 0018 1BD9     		bls	.L83
 1117              	.L71:
 1118              		.loc 1 182 3 is_stmt 1 discriminator 7 view .LVU230
 1119 001a 1148     		ldr	r0, .L85+4
 1120              	.LVL71:
 1121              		.loc 1 182 3 is_stmt 0 discriminator 7 view .LVU231
 1122 001c FFF7FEFF 		bl	chSysHalt
 1123              	.LVL72:
 1124              	.L72:
 1125              		.loc 1 182 3 is_stmt 1 discriminator 1 view .LVU232
 1126              		.loc 1 186 3 discriminator 1 view .LVU233
 1127              		.loc 1 186 3 discriminator 1 view .LVU234
 1128              		.loc 1 186 3 discriminator 1 view .LVU235
 1129 0020 2378     		ldrb	r3, [r4]	@ zero_extendqisi2
 1130 0022 022B     		cmp	r3, #2
 1131 0024 02D0     		beq	.L73
 1132              		.loc 1 186 3 discriminator 3 view .LVU236
 1133 0026 0E48     		ldr	r0, .L85+4
 1134 0028 FFF7FEFF 		bl	chSysHalt
 1135              	.LVL73:
 1136              	.L73:
 1137              		.loc 1 186 3 discriminator 5 view .LVU237
 1138              		.loc 1 191 3 discriminator 5 view .LVU238
 1139              		.loc 1 191 36 is_stmt 0 discriminator 5 view .LVU239
 1140 002c 6368     		ldr	r3, [r4, #4]
ARM GAS  /tmp/ccuLfVWz.s 			page 21


 1141              	.LVL74:
 1142              		.loc 1 196 3 is_stmt 1 discriminator 5 view .LVU240
 1143              		.loc 1 196 10 is_stmt 0 discriminator 5 view .LVU241
 1144 002e 96E80300 		ldm	r6, {r0, r1}
 1145 0032 03EBC503 		add	r3, r3, r5, lsl #3
 1146              	.LVL75:
 1147              		.loc 1 196 10 discriminator 5 view .LVU242
 1148 0036 83E80300 		stm	r3, {r0, r1}
 1149              		.loc 1 197 3 is_stmt 1 discriminator 5 view .LVU243
 1150 003a 084B     		ldr	r3, .L85
 1151              	.LVL76:
 1152              		.loc 1 197 3 is_stmt 0 discriminator 5 view .LVU244
 1153 003c 1A68     		ldr	r2, [r3]
 1154 003e 019B     		ldr	r3, [sp, #4]
 1155 0040 5A40     		eors	r2, r3, r2
 1156 0042 09D1     		bne	.L84
 1157 0044 2946     		mov	r1, r5
 1158 0046 2046     		mov	r0, r4
 1159              		.loc 1 198 1 discriminator 5 view .LVU245
 1160 0048 02B0     		add	sp, sp, #8
 1161              		.cfi_remember_state
 1162              		.cfi_def_cfa_offset 16
 1163              		@ sp needed
 1164 004a BDE87040 		pop	{r4, r5, r6, lr}
 1165              		.cfi_restore 14
 1166              		.cfi_restore 6
 1167              		.cfi_restore 5
 1168              		.cfi_restore 4
 1169              		.cfi_def_cfa_offset 0
 1170              	.LVL77:
 1171              		.loc 1 197 3 discriminator 5 view .LVU246
 1172 004e FFF7FEBF 		b	ext_lld_channel_enable
 1173              	.LVL78:
 1174              	.L83:
 1175              		.cfi_restore_state
 1176              		.loc 1 182 3 discriminator 6 view .LVU247
 1177 0052 002A     		cmp	r2, #0
 1178 0054 E4D1     		bne	.L72
 1179 0056 E0E7     		b	.L71
 1180              	.LVL79:
 1181              	.L84:
 1182              		.loc 1 197 3 discriminator 5 view .LVU248
 1183 0058 FFF7FEFF 		bl	__stack_chk_fail
 1184              	.LVL80:
 1185              	.L86:
 1186              		.align	2
 1187              	.L85:
 1188 005c 00000000 		.word	.LC6
 1189 0060 00000000 		.word	.LANCHOR5
 1190              		.cfi_endproc
 1191              	.LFE262:
 1192              		.size	extSetChannelModeI, .-extSetChannelModeI
 1193              		.section	.rodata.__func__.7261,"a"
 1194              		.align	2
 1195              		.set	.LANCHOR1,. + 0
 1196              		.type	__func__.7261, %object
 1197              		.size	__func__.7261, 12
ARM GAS  /tmp/ccuLfVWz.s 			page 22


 1198              	__func__.7261:
 1199 0000 63685379 		.ascii	"chSysUnlock\000"
 1199      73556E6C 
 1199      6F636B00 
 1200              		.section	.rodata.__func__.9956,"a"
 1201              		.align	2
 1202              		.set	.LANCHOR0,. + 0
 1203              		.type	__func__.9956, %object
 1204              		.size	__func__.9956, 9
 1205              	__func__.9956:
 1206 0000 65787453 		.ascii	"extStart\000"
 1206      74617274 
 1206      00
 1207              		.section	.rodata.__func__.9960,"a"
 1208              		.align	2
 1209              		.set	.LANCHOR2,. + 0
 1210              		.type	__func__.9960, %object
 1211              		.size	__func__.9960, 8
 1212              	__func__.9960:
 1213 0000 65787453 		.ascii	"extStop\000"
 1213      746F7000 
 1214              		.section	.rodata.__func__.9965,"a"
 1215              		.align	2
 1216              		.set	.LANCHOR3,. + 0
 1217              		.type	__func__.9965, %object
 1218              		.size	__func__.9965, 17
 1219              	__func__.9965:
 1220 0000 65787443 		.ascii	"extChannelEnable\000"
 1220      68616E6E 
 1220      656C456E 
 1220      61626C65 
 1220      00
 1221              		.section	.rodata.__func__.9970,"a"
 1222              		.align	2
 1223              		.set	.LANCHOR4,. + 0
 1224              		.type	__func__.9970, %object
 1225              		.size	__func__.9970, 18
 1226              	__func__.9970:
 1227 0000 65787443 		.ascii	"extChannelDisable\000"
 1227      68616E6E 
 1227      656C4469 
 1227      7361626C 
 1227      6500
 1228              		.section	.rodata.__func__.9977,"a"
 1229              		.align	2
 1230              		.set	.LANCHOR5,. + 0
 1231              		.type	__func__.9977, %object
 1232              		.size	__func__.9977, 19
 1233              	__func__.9977:
 1234 0000 65787453 		.ascii	"extSetChannelModeI\000"
 1234      65744368 
 1234      616E6E65 
 1234      6C4D6F64 
 1234      654900
 1235              		.text
 1236              	.Letext0:
 1237              		.file 6 "/usr/lib/gcc/arm-none-eabi/9.2.1/include/stddef.h"
ARM GAS  /tmp/ccuLfVWz.s 			page 23


 1238              		.file 7 "/usr/lib/gcc/arm-none-eabi/9.2.1/include/stdint.h"
 1239              		.file 8 ".//ChibiOS//os/rt/ports/ARMCMx/compilers/GCC/chtypes.h"
 1240              		.file 9 ".//ChibiOS//os/rt/include/chsystypes.h"
 1241              		.file 10 ".//ChibiOS//os/rt/include/chschd.h"
 1242              		.file 11 ".//ChibiOS//os/ext/CMSIS/include/core_cm4.h"
 1243              		.file 12 ".//ChibiOS//os/ext/CMSIS/ST/system_stm32f4xx.h"
 1244              		.file 13 ".//ChibiOS//os/ext/CMSIS/ST/stm32f407xx.h"
 1245              		.file 14 ".//ChibiOS//os/rt/ports/ARMCMx/chcore.h"
 1246              		.file 15 ".//ChibiOS//os/rt/include/chdebug.h"
 1247              		.file 16 ".//ChibiOS//os/rt/include/chtm.h"
 1248              		.file 17 ".//ChibiOS//os/rt/include/chstats.h"
 1249              		.file 18 ".//ChibiOS//os/rt/include/chsem.h"
 1250              		.file 19 ".//ChibiOS//os/rt/include/chmtx.h"
 1251              		.file 20 ".//ChibiOS//os/rt/include/chregistry.h"
 1252              		.file 21 ".//ChibiOS//os/rt/include/chevents.h"
 1253              		.file 22 ".//ChibiOS//os/rt/include/chqueues.h"
 1254              		.file 23 ".//ChibiOS//os/hal/ports/STM32/STM32F4xx/stm32_dma.h"
 1255              		.file 24 ".//ChibiOS//os/hal/include/hal_ioblock.h"
 1256              		.file 25 ".//ChibiOS//os/hal/ports/STM32/LLD/GPIOv2/pal_lld.h"
 1257              		.file 26 ".//ChibiOS//os/hal/include/adc.h"
 1258              		.file 27 ".//ChibiOS//os/hal/ports/STM32/STM32F4xx/adc_lld.h"
 1259              		.file 28 ".//ChibiOS//os/hal/include/can.h"
 1260              		.file 29 ".//ChibiOS//os/hal/ports/STM32/LLD/can_lld.h"
 1261              		.file 30 ".//ChibiOS//os/hal/include/dac.h"
 1262              		.file 31 ".//ChibiOS//os/hal/ports/STM32/LLD/DACv1/dac_lld.h"
 1263              		.file 32 ".//ChibiOS//os/hal/include/ext.h"
 1264              		.file 33 ".//ChibiOS//os/hal/ports/STM32/LLD/ext_lld.h"
 1265              		.file 34 ".//ChibiOS//os/hal/include/gpt.h"
 1266              		.file 35 ".//ChibiOS//os/hal/ports/STM32/LLD/TIMv1/gpt_lld.h"
 1267              		.file 36 ".//ChibiOS//os/hal/ports/STM32/LLD/TIMv1/stm32_tim.h"
 1268              		.file 37 ".//ChibiOS//os/hal/include/i2c.h"
 1269              		.file 38 ".//ChibiOS//os/hal/ports/STM32/LLD/I2Cv1/i2c_lld.h"
 1270              		.file 39 ".//ChibiOS//os/hal/include/i2s.h"
 1271              		.file 40 ".//ChibiOS//os/hal/ports/STM32/LLD/SPIv1/i2s_lld.h"
 1272              		.file 41 ".//ChibiOS//os/hal/include/pwm.h"
 1273              		.file 42 ".//ChibiOS//os/hal/ports/STM32/LLD/TIMv1/pwm_lld.h"
 1274              		.file 43 ".//ChibiOS//os/hal/include/serial.h"
 1275              		.file 44 ".//ChibiOS//os/hal/ports/STM32/LLD/USARTv1/serial_lld.h"
 1276              		.file 45 ".//ChibiOS//os/hal/include/sdc.h"
 1277              		.file 46 ".//ChibiOS//os/hal/ports/STM32/LLD/sdc_lld.h"
 1278              		.file 47 ".//ChibiOS//os/hal/include/spi.h"
 1279              		.file 48 ".//ChibiOS//os/hal/ports/STM32/LLD/SPIv1/spi_lld.h"
 1280              		.file 49 ".//ChibiOS//os/hal/include/usb.h"
 1281              		.file 50 ".//ChibiOS//os/hal/ports/STM32/LLD/OTGv1/usb_lld.h"
 1282              		.file 51 ".//ChibiOS//os/hal/ports/STM32/LLD/OTGv1/stm32_otg.h"