ARM GAS  /tmp/ccLxwNxU.s 			page 1


   1              		.cpu cortex-m4
   2              		.eabi_attribute 27, 1
   3              		.eabi_attribute 28, 1
   4              		.eabi_attribute 20, 1
   5              		.eabi_attribute 21, 1
   6              		.eabi_attribute 23, 3
   7              		.eabi_attribute 24, 1
   8              		.eabi_attribute 25, 1
   9              		.eabi_attribute 26, 1
  10              		.eabi_attribute 30, 2
  11              		.eabi_attribute 34, 1
  12              		.eabi_attribute 18, 4
  13              		.file	"ext_lld_isr.c"
  14              		.text
  15              	.Ltext0:
  16              		.cfi_sections	.debug_frame
  17              		.section	.rodata.Vector58.cst4,"aM",%progbits,4
  18              		.align	2
  19              	.LC0:
  20 0000 00000000 		.word	__stack_chk_guard
  21              		.section	.text.Vector58,"ax",%progbits
  22              		.align	1
  23              		.p2align 4,,15
  24              		.global	Vector58
  25              		.arch armv7e-m
  26              		.syntax unified
  27              		.thumb
  28              		.thumb_func
  29              		.fpu fpv4-sp-d16
  30              		.type	Vector58, %function
  31              	Vector58:
  32              	.LFB256:
  33              		.file 1 ".//ChibiOS//os/hal/ports/STM32/STM32F4xx/ext_lld_isr.c"
  34              		.loc 1 56 28 view -0
  35              		.cfi_startproc
  36              		@ args = 0, pretend = 0, frame = 8
  37              		@ frame_needed = 0, uses_anonymous_args = 0
  38 0000 00B5     		push	{lr}
  39              		.cfi_def_cfa_offset 4
  40              		.cfi_offset 14, -4
  41 0002 104B     		ldr	r3, .L7
  42 0004 83B0     		sub	sp, sp, #12
  43              		.cfi_def_cfa_offset 16
  44              		.loc 1 56 28 is_stmt 0 view .LVU1
  45 0006 1B68     		ldr	r3, [r3]
  46 0008 0193     		str	r3, [sp, #4]
  47 000a 4FF00003 		mov	r3,#0
  48              		.loc 1 58 3 is_stmt 1 view .LVU2
  49              		.loc 1 58 3 view .LVU3
  50 000e FFF7FEFF 		bl	_stats_increase_irq
  51              	.LVL0:
  52              		.loc 1 58 3 view .LVU4
  53 0012 FFF7FEFF 		bl	_dbg_check_enter_isr
  54              	.LVL1:
  55              		.loc 1 60 3 view .LVU5
  56              		.loc 1 61 3 is_stmt 0 view .LVU6
  57 0016 0C48     		ldr	r0, .L7+4
ARM GAS  /tmp/ccLxwNxU.s 			page 2


  58              		.loc 1 60 12 view .LVU7
  59 0018 0C4A     		ldr	r2, .L7+8
  60              		.loc 1 61 28 view .LVU8
  61 001a 4368     		ldr	r3, [r0, #4]
  62              		.loc 1 60 12 view .LVU9
  63 001c 0121     		movs	r1, #1
  64 001e 5161     		str	r1, [r2, #20]
  65              		.loc 1 61 3 is_stmt 1 view .LVU10
  66 0020 5B68     		ldr	r3, [r3, #4]
  67 0022 0021     		movs	r1, #0
  68 0024 9847     		blx	r3
  69              	.LVL2:
  70              		.loc 1 63 3 view .LVU11
  71 0026 FFF7FEFF 		bl	_dbg_check_leave_isr
  72              	.LVL3:
  73              		.loc 1 63 3 view .LVU12
  74 002a 064B     		ldr	r3, .L7
  75 002c 1A68     		ldr	r2, [r3]
  76 002e 019B     		ldr	r3, [sp, #4]
  77 0030 5A40     		eors	r2, r3, r2
  78 0032 04D1     		bne	.L6
  79              		.loc 1 64 1 is_stmt 0 view .LVU13
  80 0034 03B0     		add	sp, sp, #12
  81              		.cfi_remember_state
  82              		.cfi_def_cfa_offset 4
  83              		@ sp needed
  84 0036 5DF804EB 		ldr	lr, [sp], #4
  85              		.cfi_restore 14
  86              		.cfi_def_cfa_offset 0
  87              		.loc 1 63 3 view .LVU14
  88 003a FFF7FEBF 		b	_port_irq_epilogue
  89              	.LVL4:
  90              	.L6:
  91              		.cfi_restore_state
  92 003e FFF7FEFF 		bl	__stack_chk_fail
  93              	.LVL5:
  94              	.L8:
  95 0042 00BF     		.align	2
  96              	.L7:
  97 0044 00000000 		.word	.LC0
  98 0048 00000000 		.word	EXTD1
  99 004c 003C0140 		.word	1073822720
 100              		.cfi_endproc
 101              	.LFE256:
 102              		.size	Vector58, .-Vector58
 103              		.section	.rodata.Vector5C.cst4,"aM",%progbits,4
 104              		.align	2
 105              	.LC1:
 106 0000 00000000 		.word	__stack_chk_guard
 107              		.section	.text.Vector5C,"ax",%progbits
 108              		.align	1
 109              		.p2align 4,,15
 110              		.global	Vector5C
 111              		.syntax unified
 112              		.thumb
 113              		.thumb_func
 114              		.fpu fpv4-sp-d16
ARM GAS  /tmp/ccLxwNxU.s 			page 3


 115              		.type	Vector5C, %function
 116              	Vector5C:
 117              	.LFB257:
 118              		.loc 1 71 28 is_stmt 1 view -0
 119              		.cfi_startproc
 120              		@ args = 0, pretend = 0, frame = 8
 121              		@ frame_needed = 0, uses_anonymous_args = 0
 122 0000 00B5     		push	{lr}
 123              		.cfi_def_cfa_offset 4
 124              		.cfi_offset 14, -4
 125 0002 104B     		ldr	r3, .L14
 126 0004 83B0     		sub	sp, sp, #12
 127              		.cfi_def_cfa_offset 16
 128              		.loc 1 71 28 is_stmt 0 view .LVU16
 129 0006 1B68     		ldr	r3, [r3]
 130 0008 0193     		str	r3, [sp, #4]
 131 000a 4FF00003 		mov	r3,#0
 132              		.loc 1 73 3 is_stmt 1 view .LVU17
 133              		.loc 1 73 3 view .LVU18
 134 000e FFF7FEFF 		bl	_stats_increase_irq
 135              	.LVL6:
 136              		.loc 1 73 3 view .LVU19
 137 0012 FFF7FEFF 		bl	_dbg_check_enter_isr
 138              	.LVL7:
 139              		.loc 1 75 3 view .LVU20
 140              		.loc 1 76 3 is_stmt 0 view .LVU21
 141 0016 0C48     		ldr	r0, .L14+4
 142              		.loc 1 75 12 view .LVU22
 143 0018 0C4A     		ldr	r2, .L14+8
 144              		.loc 1 76 28 view .LVU23
 145 001a 4368     		ldr	r3, [r0, #4]
 146              		.loc 1 75 12 view .LVU24
 147 001c 0221     		movs	r1, #2
 148 001e 5161     		str	r1, [r2, #20]
 149              		.loc 1 76 3 is_stmt 1 view .LVU25
 150 0020 DB68     		ldr	r3, [r3, #12]
 151 0022 0121     		movs	r1, #1
 152 0024 9847     		blx	r3
 153              	.LVL8:
 154              		.loc 1 78 3 view .LVU26
 155 0026 FFF7FEFF 		bl	_dbg_check_leave_isr
 156              	.LVL9:
 157              		.loc 1 78 3 view .LVU27
 158 002a 064B     		ldr	r3, .L14
 159 002c 1A68     		ldr	r2, [r3]
 160 002e 019B     		ldr	r3, [sp, #4]
 161 0030 5A40     		eors	r2, r3, r2
 162 0032 04D1     		bne	.L13
 163              		.loc 1 79 1 is_stmt 0 view .LVU28
 164 0034 03B0     		add	sp, sp, #12
 165              		.cfi_remember_state
 166              		.cfi_def_cfa_offset 4
 167              		@ sp needed
 168 0036 5DF804EB 		ldr	lr, [sp], #4
 169              		.cfi_restore 14
 170              		.cfi_def_cfa_offset 0
 171              		.loc 1 78 3 view .LVU29
ARM GAS  /tmp/ccLxwNxU.s 			page 4


 172 003a FFF7FEBF 		b	_port_irq_epilogue
 173              	.LVL10:
 174              	.L13:
 175              		.cfi_restore_state
 176 003e FFF7FEFF 		bl	__stack_chk_fail
 177              	.LVL11:
 178              	.L15:
 179 0042 00BF     		.align	2
 180              	.L14:
 181 0044 00000000 		.word	.LC1
 182 0048 00000000 		.word	EXTD1
 183 004c 003C0140 		.word	1073822720
 184              		.cfi_endproc
 185              	.LFE257:
 186              		.size	Vector5C, .-Vector5C
 187              		.section	.rodata.Vector60.cst4,"aM",%progbits,4
 188              		.align	2
 189              	.LC2:
 190 0000 00000000 		.word	__stack_chk_guard
 191              		.section	.text.Vector60,"ax",%progbits
 192              		.align	1
 193              		.p2align 4,,15
 194              		.global	Vector60
 195              		.syntax unified
 196              		.thumb
 197              		.thumb_func
 198              		.fpu fpv4-sp-d16
 199              		.type	Vector60, %function
 200              	Vector60:
 201              	.LFB258:
 202              		.loc 1 86 28 is_stmt 1 view -0
 203              		.cfi_startproc
 204              		@ args = 0, pretend = 0, frame = 8
 205              		@ frame_needed = 0, uses_anonymous_args = 0
 206 0000 00B5     		push	{lr}
 207              		.cfi_def_cfa_offset 4
 208              		.cfi_offset 14, -4
 209 0002 104B     		ldr	r3, .L21
 210 0004 83B0     		sub	sp, sp, #12
 211              		.cfi_def_cfa_offset 16
 212              		.loc 1 86 28 is_stmt 0 view .LVU31
 213 0006 1B68     		ldr	r3, [r3]
 214 0008 0193     		str	r3, [sp, #4]
 215 000a 4FF00003 		mov	r3,#0
 216              		.loc 1 88 3 is_stmt 1 view .LVU32
 217              		.loc 1 88 3 view .LVU33
 218 000e FFF7FEFF 		bl	_stats_increase_irq
 219              	.LVL12:
 220              		.loc 1 88 3 view .LVU34
 221 0012 FFF7FEFF 		bl	_dbg_check_enter_isr
 222              	.LVL13:
 223              		.loc 1 90 3 view .LVU35
 224              		.loc 1 91 3 is_stmt 0 view .LVU36
 225 0016 0C48     		ldr	r0, .L21+4
 226              		.loc 1 90 12 view .LVU37
 227 0018 0C4A     		ldr	r2, .L21+8
 228              		.loc 1 91 28 view .LVU38
ARM GAS  /tmp/ccLxwNxU.s 			page 5


 229 001a 4368     		ldr	r3, [r0, #4]
 230              		.loc 1 90 12 view .LVU39
 231 001c 0421     		movs	r1, #4
 232 001e 5161     		str	r1, [r2, #20]
 233              		.loc 1 91 3 is_stmt 1 view .LVU40
 234 0020 5B69     		ldr	r3, [r3, #20]
 235 0022 0221     		movs	r1, #2
 236 0024 9847     		blx	r3
 237              	.LVL14:
 238              		.loc 1 93 3 view .LVU41
 239 0026 FFF7FEFF 		bl	_dbg_check_leave_isr
 240              	.LVL15:
 241              		.loc 1 93 3 view .LVU42
 242 002a 064B     		ldr	r3, .L21
 243 002c 1A68     		ldr	r2, [r3]
 244 002e 019B     		ldr	r3, [sp, #4]
 245 0030 5A40     		eors	r2, r3, r2
 246 0032 04D1     		bne	.L20
 247              		.loc 1 94 1 is_stmt 0 view .LVU43
 248 0034 03B0     		add	sp, sp, #12
 249              		.cfi_remember_state
 250              		.cfi_def_cfa_offset 4
 251              		@ sp needed
 252 0036 5DF804EB 		ldr	lr, [sp], #4
 253              		.cfi_restore 14
 254              		.cfi_def_cfa_offset 0
 255              		.loc 1 93 3 view .LVU44
 256 003a FFF7FEBF 		b	_port_irq_epilogue
 257              	.LVL16:
 258              	.L20:
 259              		.cfi_restore_state
 260 003e FFF7FEFF 		bl	__stack_chk_fail
 261              	.LVL17:
 262              	.L22:
 263 0042 00BF     		.align	2
 264              	.L21:
 265 0044 00000000 		.word	.LC2
 266 0048 00000000 		.word	EXTD1
 267 004c 003C0140 		.word	1073822720
 268              		.cfi_endproc
 269              	.LFE258:
 270              		.size	Vector60, .-Vector60
 271              		.section	.rodata.Vector64.cst4,"aM",%progbits,4
 272              		.align	2
 273              	.LC3:
 274 0000 00000000 		.word	__stack_chk_guard
 275              		.section	.text.Vector64,"ax",%progbits
 276              		.align	1
 277              		.p2align 4,,15
 278              		.global	Vector64
 279              		.syntax unified
 280              		.thumb
 281              		.thumb_func
 282              		.fpu fpv4-sp-d16
 283              		.type	Vector64, %function
 284              	Vector64:
 285              	.LFB259:
ARM GAS  /tmp/ccLxwNxU.s 			page 6


 286              		.loc 1 101 28 is_stmt 1 view -0
 287              		.cfi_startproc
 288              		@ args = 0, pretend = 0, frame = 8
 289              		@ frame_needed = 0, uses_anonymous_args = 0
 290 0000 00B5     		push	{lr}
 291              		.cfi_def_cfa_offset 4
 292              		.cfi_offset 14, -4
 293 0002 104B     		ldr	r3, .L28
 294 0004 83B0     		sub	sp, sp, #12
 295              		.cfi_def_cfa_offset 16
 296              		.loc 1 101 28 is_stmt 0 view .LVU46
 297 0006 1B68     		ldr	r3, [r3]
 298 0008 0193     		str	r3, [sp, #4]
 299 000a 4FF00003 		mov	r3,#0
 300              		.loc 1 103 3 is_stmt 1 view .LVU47
 301              		.loc 1 103 3 view .LVU48
 302 000e FFF7FEFF 		bl	_stats_increase_irq
 303              	.LVL18:
 304              		.loc 1 103 3 view .LVU49
 305 0012 FFF7FEFF 		bl	_dbg_check_enter_isr
 306              	.LVL19:
 307              		.loc 1 105 3 view .LVU50
 308              		.loc 1 106 3 is_stmt 0 view .LVU51
 309 0016 0C48     		ldr	r0, .L28+4
 310              		.loc 1 105 12 view .LVU52
 311 0018 0C4A     		ldr	r2, .L28+8
 312              		.loc 1 106 28 view .LVU53
 313 001a 4368     		ldr	r3, [r0, #4]
 314              		.loc 1 105 12 view .LVU54
 315 001c 0821     		movs	r1, #8
 316 001e 5161     		str	r1, [r2, #20]
 317              		.loc 1 106 3 is_stmt 1 view .LVU55
 318 0020 DB69     		ldr	r3, [r3, #28]
 319 0022 0321     		movs	r1, #3
 320 0024 9847     		blx	r3
 321              	.LVL20:
 322              		.loc 1 108 3 view .LVU56
 323 0026 FFF7FEFF 		bl	_dbg_check_leave_isr
 324              	.LVL21:
 325              		.loc 1 108 3 view .LVU57
 326 002a 064B     		ldr	r3, .L28
 327 002c 1A68     		ldr	r2, [r3]
 328 002e 019B     		ldr	r3, [sp, #4]
 329 0030 5A40     		eors	r2, r3, r2
 330 0032 04D1     		bne	.L27
 331              		.loc 1 109 1 is_stmt 0 view .LVU58
 332 0034 03B0     		add	sp, sp, #12
 333              		.cfi_remember_state
 334              		.cfi_def_cfa_offset 4
 335              		@ sp needed
 336 0036 5DF804EB 		ldr	lr, [sp], #4
 337              		.cfi_restore 14
 338              		.cfi_def_cfa_offset 0
 339              		.loc 1 108 3 view .LVU59
 340 003a FFF7FEBF 		b	_port_irq_epilogue
 341              	.LVL22:
 342              	.L27:
ARM GAS  /tmp/ccLxwNxU.s 			page 7


 343              		.cfi_restore_state
 344 003e FFF7FEFF 		bl	__stack_chk_fail
 345              	.LVL23:
 346              	.L29:
 347 0042 00BF     		.align	2
 348              	.L28:
 349 0044 00000000 		.word	.LC3
 350 0048 00000000 		.word	EXTD1
 351 004c 003C0140 		.word	1073822720
 352              		.cfi_endproc
 353              	.LFE259:
 354              		.size	Vector64, .-Vector64
 355              		.section	.rodata.Vector68.cst4,"aM",%progbits,4
 356              		.align	2
 357              	.LC4:
 358 0000 00000000 		.word	__stack_chk_guard
 359              		.section	.text.Vector68,"ax",%progbits
 360              		.align	1
 361              		.p2align 4,,15
 362              		.global	Vector68
 363              		.syntax unified
 364              		.thumb
 365              		.thumb_func
 366              		.fpu fpv4-sp-d16
 367              		.type	Vector68, %function
 368              	Vector68:
 369              	.LFB260:
 370              		.loc 1 116 28 is_stmt 1 view -0
 371              		.cfi_startproc
 372              		@ args = 0, pretend = 0, frame = 8
 373              		@ frame_needed = 0, uses_anonymous_args = 0
 374 0000 00B5     		push	{lr}
 375              		.cfi_def_cfa_offset 4
 376              		.cfi_offset 14, -4
 377 0002 104B     		ldr	r3, .L35
 378 0004 83B0     		sub	sp, sp, #12
 379              		.cfi_def_cfa_offset 16
 380              		.loc 1 116 28 is_stmt 0 view .LVU61
 381 0006 1B68     		ldr	r3, [r3]
 382 0008 0193     		str	r3, [sp, #4]
 383 000a 4FF00003 		mov	r3,#0
 384              		.loc 1 118 3 is_stmt 1 view .LVU62
 385              		.loc 1 118 3 view .LVU63
 386 000e FFF7FEFF 		bl	_stats_increase_irq
 387              	.LVL24:
 388              		.loc 1 118 3 view .LVU64
 389 0012 FFF7FEFF 		bl	_dbg_check_enter_isr
 390              	.LVL25:
 391              		.loc 1 120 3 view .LVU65
 392              		.loc 1 121 3 is_stmt 0 view .LVU66
 393 0016 0C48     		ldr	r0, .L35+4
 394              		.loc 1 120 12 view .LVU67
 395 0018 0C4A     		ldr	r2, .L35+8
 396              		.loc 1 121 28 view .LVU68
 397 001a 4368     		ldr	r3, [r0, #4]
 398              		.loc 1 120 12 view .LVU69
 399 001c 1021     		movs	r1, #16
ARM GAS  /tmp/ccLxwNxU.s 			page 8


 400 001e 5161     		str	r1, [r2, #20]
 401              		.loc 1 121 3 is_stmt 1 view .LVU70
 402 0020 5B6A     		ldr	r3, [r3, #36]
 403 0022 0421     		movs	r1, #4
 404 0024 9847     		blx	r3
 405              	.LVL26:
 406              		.loc 1 123 3 view .LVU71
 407 0026 FFF7FEFF 		bl	_dbg_check_leave_isr
 408              	.LVL27:
 409              		.loc 1 123 3 view .LVU72
 410 002a 064B     		ldr	r3, .L35
 411 002c 1A68     		ldr	r2, [r3]
 412 002e 019B     		ldr	r3, [sp, #4]
 413 0030 5A40     		eors	r2, r3, r2
 414 0032 04D1     		bne	.L34
 415              		.loc 1 124 1 is_stmt 0 view .LVU73
 416 0034 03B0     		add	sp, sp, #12
 417              		.cfi_remember_state
 418              		.cfi_def_cfa_offset 4
 419              		@ sp needed
 420 0036 5DF804EB 		ldr	lr, [sp], #4
 421              		.cfi_restore 14
 422              		.cfi_def_cfa_offset 0
 423              		.loc 1 123 3 view .LVU74
 424 003a FFF7FEBF 		b	_port_irq_epilogue
 425              	.LVL28:
 426              	.L34:
 427              		.cfi_restore_state
 428 003e FFF7FEFF 		bl	__stack_chk_fail
 429              	.LVL29:
 430              	.L36:
 431 0042 00BF     		.align	2
 432              	.L35:
 433 0044 00000000 		.word	.LC4
 434 0048 00000000 		.word	EXTD1
 435 004c 003C0140 		.word	1073822720
 436              		.cfi_endproc
 437              	.LFE260:
 438              		.size	Vector68, .-Vector68
 439              		.section	.rodata.Vector9C.cst4,"aM",%progbits,4
 440              		.align	2
 441              	.LC5:
 442 0000 00000000 		.word	__stack_chk_guard
 443              		.section	.text.Vector9C,"ax",%progbits
 444              		.align	1
 445              		.p2align 4,,15
 446              		.global	Vector9C
 447              		.syntax unified
 448              		.thumb
 449              		.thumb_func
 450              		.fpu fpv4-sp-d16
 451              		.type	Vector9C, %function
 452              	Vector9C:
 453              	.LFB261:
 454              		.loc 1 131 28 is_stmt 1 view -0
 455              		.cfi_startproc
 456              		@ args = 0, pretend = 0, frame = 8
ARM GAS  /tmp/ccLxwNxU.s 			page 9


 457              		@ frame_needed = 0, uses_anonymous_args = 0
 458 0000 10B5     		push	{r4, lr}
 459              		.cfi_def_cfa_offset 8
 460              		.cfi_offset 4, -8
 461              		.cfi_offset 14, -4
 462 0002 204B     		ldr	r3, .L62
 463 0004 82B0     		sub	sp, sp, #8
 464              		.cfi_def_cfa_offset 16
 465              		.loc 1 131 28 is_stmt 0 view .LVU76
 466 0006 1B68     		ldr	r3, [r3]
 467 0008 0193     		str	r3, [sp, #4]
 468 000a 4FF00003 		mov	r3,#0
 469              		.loc 1 132 3 is_stmt 1 view .LVU77
 470              		.loc 1 134 3 view .LVU78
 471              		.loc 1 134 3 view .LVU79
 472 000e FFF7FEFF 		bl	_stats_increase_irq
 473              	.LVL30:
 474              		.loc 1 134 3 view .LVU80
 475 0012 FFF7FEFF 		bl	_dbg_check_enter_isr
 476              	.LVL31:
 477              		.loc 1 136 3 view .LVU81
 478              		.loc 1 136 12 is_stmt 0 view .LVU82
 479 0016 1C4B     		ldr	r3, .L62+4
 480 0018 5C69     		ldr	r4, [r3, #20]
 481              		.loc 1 136 6 view .LVU83
 482 001a 04F47872 		and	r2, r4, #992
 483              	.LVL32:
 484              		.loc 1 137 3 is_stmt 1 view .LVU84
 485              		.loc 1 137 12 is_stmt 0 view .LVU85
 486 001e 5A61     		str	r2, [r3, #20]
 487              		.loc 1 138 3 is_stmt 1 view .LVU86
 488              		.loc 1 138 6 is_stmt 0 view .LVU87
 489 0020 A306     		lsls	r3, r4, #26
 490 0022 04D5     		bpl	.L38
 491              		.loc 1 139 5 is_stmt 1 view .LVU88
 492 0024 1948     		ldr	r0, .L62+8
 493              		.loc 1 139 30 is_stmt 0 view .LVU89
 494 0026 4368     		ldr	r3, [r0, #4]
 495              		.loc 1 139 5 view .LVU90
 496 0028 0521     		movs	r1, #5
 497 002a DB6A     		ldr	r3, [r3, #44]
 498 002c 9847     		blx	r3
 499              	.LVL33:
 500              	.L38:
 501              		.loc 1 140 3 is_stmt 1 view .LVU91
 502              		.loc 1 140 6 is_stmt 0 view .LVU92
 503 002e 6006     		lsls	r0, r4, #25
 504 0030 04D5     		bpl	.L39
 505              		.loc 1 141 5 is_stmt 1 view .LVU93
 506 0032 1648     		ldr	r0, .L62+8
 507              		.loc 1 141 30 is_stmt 0 view .LVU94
 508 0034 4368     		ldr	r3, [r0, #4]
 509              		.loc 1 141 5 view .LVU95
 510 0036 0621     		movs	r1, #6
 511 0038 5B6B     		ldr	r3, [r3, #52]
 512 003a 9847     		blx	r3
 513              	.LVL34:
ARM GAS  /tmp/ccLxwNxU.s 			page 10


 514              	.L39:
 515              		.loc 1 142 3 is_stmt 1 view .LVU96
 516              		.loc 1 142 6 is_stmt 0 view .LVU97
 517 003c 2106     		lsls	r1, r4, #24
 518 003e 04D5     		bpl	.L40
 519              		.loc 1 143 5 is_stmt 1 view .LVU98
 520 0040 1248     		ldr	r0, .L62+8
 521              		.loc 1 143 30 is_stmt 0 view .LVU99
 522 0042 4368     		ldr	r3, [r0, #4]
 523              		.loc 1 143 5 view .LVU100
 524 0044 0721     		movs	r1, #7
 525 0046 DB6B     		ldr	r3, [r3, #60]
 526 0048 9847     		blx	r3
 527              	.LVL35:
 528              	.L40:
 529              		.loc 1 144 3 is_stmt 1 view .LVU101
 530              		.loc 1 144 6 is_stmt 0 view .LVU102
 531 004a E205     		lsls	r2, r4, #23
 532 004c 04D5     		bpl	.L41
 533              		.loc 1 145 5 is_stmt 1 view .LVU103
 534 004e 0F48     		ldr	r0, .L62+8
 535              		.loc 1 145 30 is_stmt 0 view .LVU104
 536 0050 4368     		ldr	r3, [r0, #4]
 537              		.loc 1 145 5 view .LVU105
 538 0052 0821     		movs	r1, #8
 539 0054 5B6C     		ldr	r3, [r3, #68]
 540 0056 9847     		blx	r3
 541              	.LVL36:
 542              	.L41:
 543              		.loc 1 146 3 is_stmt 1 view .LVU106
 544              		.loc 1 146 6 is_stmt 0 view .LVU107
 545 0058 A305     		lsls	r3, r4, #22
 546 005a 04D5     		bpl	.L42
 547              		.loc 1 147 5 is_stmt 1 view .LVU108
 548 005c 0B48     		ldr	r0, .L62+8
 549              		.loc 1 147 30 is_stmt 0 view .LVU109
 550 005e 4368     		ldr	r3, [r0, #4]
 551              		.loc 1 147 5 view .LVU110
 552 0060 0921     		movs	r1, #9
 553 0062 DB6C     		ldr	r3, [r3, #76]
 554 0064 9847     		blx	r3
 555              	.LVL37:
 556              	.L42:
 557              		.loc 1 149 3 is_stmt 1 view .LVU111
 558 0066 FFF7FEFF 		bl	_dbg_check_leave_isr
 559              	.LVL38:
 560              		.loc 1 149 3 view .LVU112
 561 006a 064B     		ldr	r3, .L62
 562 006c 1A68     		ldr	r2, [r3]
 563 006e 019B     		ldr	r3, [sp, #4]
 564 0070 5A40     		eors	r2, r3, r2
 565 0072 04D1     		bne	.L61
 566              		.loc 1 150 1 is_stmt 0 view .LVU113
 567 0074 02B0     		add	sp, sp, #8
 568              		.cfi_remember_state
 569              		.cfi_def_cfa_offset 8
 570              		@ sp needed
ARM GAS  /tmp/ccLxwNxU.s 			page 11


 571 0076 BDE81040 		pop	{r4, lr}
 572              		.cfi_restore 14
 573              		.cfi_restore 4
 574              		.cfi_def_cfa_offset 0
 575              	.LVL39:
 576              		.loc 1 149 3 view .LVU114
 577 007a FFF7FEBF 		b	_port_irq_epilogue
 578              	.LVL40:
 579              	.L61:
 580              		.cfi_restore_state
 581              		.loc 1 149 3 view .LVU115
 582 007e FFF7FEFF 		bl	__stack_chk_fail
 583              	.LVL41:
 584              	.L63:
 585 0082 00BF     		.align	2
 586              	.L62:
 587 0084 00000000 		.word	.LC5
 588 0088 003C0140 		.word	1073822720
 589 008c 00000000 		.word	EXTD1
 590              		.cfi_endproc
 591              	.LFE261:
 592              		.size	Vector9C, .-Vector9C
 593              		.section	.rodata.VectorE0.cst4,"aM",%progbits,4
 594              		.align	2
 595              	.LC6:
 596 0000 00000000 		.word	__stack_chk_guard
 597              		.section	.text.VectorE0,"ax",%progbits
 598              		.align	1
 599              		.p2align 4,,15
 600              		.global	VectorE0
 601              		.syntax unified
 602              		.thumb
 603              		.thumb_func
 604              		.fpu fpv4-sp-d16
 605              		.type	VectorE0, %function
 606              	VectorE0:
 607              	.LFB262:
 608              		.loc 1 157 28 is_stmt 1 view -0
 609              		.cfi_startproc
 610              		@ args = 0, pretend = 0, frame = 8
 611              		@ frame_needed = 0, uses_anonymous_args = 0
 612 0000 10B5     		push	{r4, lr}
 613              		.cfi_def_cfa_offset 8
 614              		.cfi_offset 4, -8
 615              		.cfi_offset 14, -4
 616 0002 234B     		ldr	r3, .L93
 617 0004 82B0     		sub	sp, sp, #8
 618              		.cfi_def_cfa_offset 16
 619              		.loc 1 157 28 is_stmt 0 view .LVU117
 620 0006 1B68     		ldr	r3, [r3]
 621 0008 0193     		str	r3, [sp, #4]
 622 000a 4FF00003 		mov	r3,#0
 623              		.loc 1 158 3 is_stmt 1 view .LVU118
 624              		.loc 1 160 3 view .LVU119
 625              		.loc 1 160 3 view .LVU120
 626 000e FFF7FEFF 		bl	_stats_increase_irq
 627              	.LVL42:
ARM GAS  /tmp/ccLxwNxU.s 			page 12


 628              		.loc 1 160 3 view .LVU121
 629 0012 FFF7FEFF 		bl	_dbg_check_enter_isr
 630              	.LVL43:
 631              		.loc 1 162 3 view .LVU122
 632              		.loc 1 162 12 is_stmt 0 view .LVU123
 633 0016 1F4B     		ldr	r3, .L93+4
 634 0018 5C69     		ldr	r4, [r3, #20]
 635              		.loc 1 162 6 view .LVU124
 636 001a 04F47C42 		and	r2, r4, #64512
 637              	.LVL44:
 638              		.loc 1 164 3 is_stmt 1 view .LVU125
 639              		.loc 1 164 12 is_stmt 0 view .LVU126
 640 001e 5A61     		str	r2, [r3, #20]
 641              		.loc 1 165 3 is_stmt 1 view .LVU127
 642              		.loc 1 165 6 is_stmt 0 view .LVU128
 643 0020 6205     		lsls	r2, r4, #21
 644              	.LVL45:
 645              		.loc 1 165 6 view .LVU129
 646 0022 04D5     		bpl	.L65
 647              		.loc 1 166 5 is_stmt 1 view .LVU130
 648 0024 1C48     		ldr	r0, .L93+8
 649              		.loc 1 166 31 is_stmt 0 view .LVU131
 650 0026 4368     		ldr	r3, [r0, #4]
 651              	.LVL46:
 652              		.loc 1 166 5 view .LVU132
 653 0028 0A21     		movs	r1, #10
 654 002a 5B6D     		ldr	r3, [r3, #84]
 655 002c 9847     		blx	r3
 656              	.LVL47:
 657              	.L65:
 658              		.loc 1 167 3 is_stmt 1 view .LVU133
 659              		.loc 1 167 6 is_stmt 0 view .LVU134
 660 002e 2305     		lsls	r3, r4, #20
 661 0030 04D5     		bpl	.L66
 662              		.loc 1 168 5 is_stmt 1 view .LVU135
 663 0032 1948     		ldr	r0, .L93+8
 664              		.loc 1 168 31 is_stmt 0 view .LVU136
 665 0034 4368     		ldr	r3, [r0, #4]
 666              		.loc 1 168 5 view .LVU137
 667 0036 0B21     		movs	r1, #11
 668 0038 DB6D     		ldr	r3, [r3, #92]
 669 003a 9847     		blx	r3
 670              	.LVL48:
 671              	.L66:
 672              		.loc 1 169 3 is_stmt 1 view .LVU138
 673              		.loc 1 169 6 is_stmt 0 view .LVU139
 674 003c E004     		lsls	r0, r4, #19
 675 003e 04D5     		bpl	.L67
 676              		.loc 1 170 5 is_stmt 1 view .LVU140
 677 0040 1548     		ldr	r0, .L93+8
 678              		.loc 1 170 31 is_stmt 0 view .LVU141
 679 0042 4368     		ldr	r3, [r0, #4]
 680              		.loc 1 170 5 view .LVU142
 681 0044 0C21     		movs	r1, #12
 682 0046 5B6E     		ldr	r3, [r3, #100]
 683 0048 9847     		blx	r3
 684              	.LVL49:
ARM GAS  /tmp/ccLxwNxU.s 			page 13


 685              	.L67:
 686              		.loc 1 171 3 is_stmt 1 view .LVU143
 687              		.loc 1 171 6 is_stmt 0 view .LVU144
 688 004a A104     		lsls	r1, r4, #18
 689 004c 04D5     		bpl	.L68
 690              		.loc 1 172 5 is_stmt 1 view .LVU145
 691 004e 1248     		ldr	r0, .L93+8
 692              		.loc 1 172 31 is_stmt 0 view .LVU146
 693 0050 4368     		ldr	r3, [r0, #4]
 694              		.loc 1 172 5 view .LVU147
 695 0052 0D21     		movs	r1, #13
 696 0054 DB6E     		ldr	r3, [r3, #108]
 697 0056 9847     		blx	r3
 698              	.LVL50:
 699              	.L68:
 700              		.loc 1 173 3 is_stmt 1 view .LVU148
 701              		.loc 1 173 6 is_stmt 0 view .LVU149
 702 0058 6204     		lsls	r2, r4, #17
 703 005a 04D5     		bpl	.L69
 704              		.loc 1 174 5 is_stmt 1 view .LVU150
 705 005c 0E48     		ldr	r0, .L93+8
 706              		.loc 1 174 31 is_stmt 0 view .LVU151
 707 005e 4368     		ldr	r3, [r0, #4]
 708              		.loc 1 174 5 view .LVU152
 709 0060 0E21     		movs	r1, #14
 710 0062 5B6F     		ldr	r3, [r3, #116]
 711 0064 9847     		blx	r3
 712              	.LVL51:
 713              	.L69:
 714              		.loc 1 175 3 is_stmt 1 view .LVU153
 715              		.loc 1 175 6 is_stmt 0 view .LVU154
 716 0066 2304     		lsls	r3, r4, #16
 717 0068 04D5     		bpl	.L70
 718              		.loc 1 176 5 is_stmt 1 view .LVU155
 719 006a 0B48     		ldr	r0, .L93+8
 720              		.loc 1 176 31 is_stmt 0 view .LVU156
 721 006c 4368     		ldr	r3, [r0, #4]
 722              		.loc 1 176 5 view .LVU157
 723 006e 0F21     		movs	r1, #15
 724 0070 DB6F     		ldr	r3, [r3, #124]
 725 0072 9847     		blx	r3
 726              	.LVL52:
 727              	.L70:
 728              		.loc 1 178 3 is_stmt 1 view .LVU158
 729 0074 FFF7FEFF 		bl	_dbg_check_leave_isr
 730              	.LVL53:
 731              		.loc 1 178 3 view .LVU159
 732 0078 054B     		ldr	r3, .L93
 733 007a 1A68     		ldr	r2, [r3]
 734 007c 019B     		ldr	r3, [sp, #4]
 735 007e 5A40     		eors	r2, r3, r2
 736 0080 04D1     		bne	.L92
 737              		.loc 1 179 1 is_stmt 0 view .LVU160
 738 0082 02B0     		add	sp, sp, #8
 739              		.cfi_remember_state
 740              		.cfi_def_cfa_offset 8
 741              		@ sp needed
ARM GAS  /tmp/ccLxwNxU.s 			page 14


 742 0084 BDE81040 		pop	{r4, lr}
 743              		.cfi_restore 14
 744              		.cfi_restore 4
 745              		.cfi_def_cfa_offset 0
 746              	.LVL54:
 747              		.loc 1 178 3 view .LVU161
 748 0088 FFF7FEBF 		b	_port_irq_epilogue
 749              	.LVL55:
 750              	.L92:
 751              		.cfi_restore_state
 752              		.loc 1 178 3 view .LVU162
 753 008c FFF7FEFF 		bl	__stack_chk_fail
 754              	.LVL56:
 755              	.L94:
 756              		.align	2
 757              	.L93:
 758 0090 00000000 		.word	.LC6
 759 0094 003C0140 		.word	1073822720
 760 0098 00000000 		.word	EXTD1
 761              		.cfi_endproc
 762              	.LFE262:
 763              		.size	VectorE0, .-VectorE0
 764              		.section	.rodata.Vector44.cst4,"aM",%progbits,4
 765              		.align	2
 766              	.LC7:
 767 0000 00000000 		.word	__stack_chk_guard
 768              		.section	.text.Vector44,"ax",%progbits
 769              		.align	1
 770              		.p2align 4,,15
 771              		.global	Vector44
 772              		.syntax unified
 773              		.thumb
 774              		.thumb_func
 775              		.fpu fpv4-sp-d16
 776              		.type	Vector44, %function
 777              	Vector44:
 778              	.LFB263:
 779              		.loc 1 186 28 is_stmt 1 view -0
 780              		.cfi_startproc
 781              		@ args = 0, pretend = 0, frame = 8
 782              		@ frame_needed = 0, uses_anonymous_args = 0
 783 0000 00B5     		push	{lr}
 784              		.cfi_def_cfa_offset 4
 785              		.cfi_offset 14, -4
 786 0002 114B     		ldr	r3, .L100
 787 0004 83B0     		sub	sp, sp, #12
 788              		.cfi_def_cfa_offset 16
 789              		.loc 1 186 28 is_stmt 0 view .LVU164
 790 0006 1B68     		ldr	r3, [r3]
 791 0008 0193     		str	r3, [sp, #4]
 792 000a 4FF00003 		mov	r3,#0
 793              		.loc 1 188 3 is_stmt 1 view .LVU165
 794              		.loc 1 188 3 view .LVU166
 795 000e FFF7FEFF 		bl	_stats_increase_irq
 796              	.LVL57:
 797              		.loc 1 188 3 view .LVU167
 798 0012 FFF7FEFF 		bl	_dbg_check_enter_isr
ARM GAS  /tmp/ccLxwNxU.s 			page 15


 799              	.LVL58:
 800              		.loc 1 190 3 view .LVU168
 801              		.loc 1 191 3 is_stmt 0 view .LVU169
 802 0016 0D48     		ldr	r0, .L100+4
 803              		.loc 1 190 12 view .LVU170
 804 0018 0D4A     		ldr	r2, .L100+8
 805              		.loc 1 191 29 view .LVU171
 806 001a 4368     		ldr	r3, [r0, #4]
 807              		.loc 1 190 12 view .LVU172
 808 001c 4FF48031 		mov	r1, #65536
 809 0020 5161     		str	r1, [r2, #20]
 810              		.loc 1 191 3 is_stmt 1 view .LVU173
 811 0022 D3F88430 		ldr	r3, [r3, #132]
 812 0026 1021     		movs	r1, #16
 813 0028 9847     		blx	r3
 814              	.LVL59:
 815              		.loc 1 193 3 view .LVU174
 816 002a FFF7FEFF 		bl	_dbg_check_leave_isr
 817              	.LVL60:
 818              		.loc 1 193 3 view .LVU175
 819 002e 064B     		ldr	r3, .L100
 820 0030 1A68     		ldr	r2, [r3]
 821 0032 019B     		ldr	r3, [sp, #4]
 822 0034 5A40     		eors	r2, r3, r2
 823 0036 04D1     		bne	.L99
 824              		.loc 1 194 1 is_stmt 0 view .LVU176
 825 0038 03B0     		add	sp, sp, #12
 826              		.cfi_remember_state
 827              		.cfi_def_cfa_offset 4
 828              		@ sp needed
 829 003a 5DF804EB 		ldr	lr, [sp], #4
 830              		.cfi_restore 14
 831              		.cfi_def_cfa_offset 0
 832              		.loc 1 193 3 view .LVU177
 833 003e FFF7FEBF 		b	_port_irq_epilogue
 834              	.LVL61:
 835              	.L99:
 836              		.cfi_restore_state
 837 0042 FFF7FEFF 		bl	__stack_chk_fail
 838              	.LVL62:
 839              	.L101:
 840 0046 00BF     		.align	2
 841              	.L100:
 842 0048 00000000 		.word	.LC7
 843 004c 00000000 		.word	EXTD1
 844 0050 003C0140 		.word	1073822720
 845              		.cfi_endproc
 846              	.LFE263:
 847              		.size	Vector44, .-Vector44
 848              		.section	.rodata.VectorE4.cst4,"aM",%progbits,4
 849              		.align	2
 850              	.LC8:
 851 0000 00000000 		.word	__stack_chk_guard
 852              		.section	.text.VectorE4,"ax",%progbits
 853              		.align	1
 854              		.p2align 4,,15
 855              		.global	VectorE4
ARM GAS  /tmp/ccLxwNxU.s 			page 16


 856              		.syntax unified
 857              		.thumb
 858              		.thumb_func
 859              		.fpu fpv4-sp-d16
 860              		.type	VectorE4, %function
 861              	VectorE4:
 862              	.LFB264:
 863              		.loc 1 201 28 is_stmt 1 view -0
 864              		.cfi_startproc
 865              		@ args = 0, pretend = 0, frame = 8
 866              		@ frame_needed = 0, uses_anonymous_args = 0
 867 0000 00B5     		push	{lr}
 868              		.cfi_def_cfa_offset 4
 869              		.cfi_offset 14, -4
 870 0002 114B     		ldr	r3, .L107
 871 0004 83B0     		sub	sp, sp, #12
 872              		.cfi_def_cfa_offset 16
 873              		.loc 1 201 28 is_stmt 0 view .LVU179
 874 0006 1B68     		ldr	r3, [r3]
 875 0008 0193     		str	r3, [sp, #4]
 876 000a 4FF00003 		mov	r3,#0
 877              		.loc 1 203 3 is_stmt 1 view .LVU180
 878              		.loc 1 203 3 view .LVU181
 879 000e FFF7FEFF 		bl	_stats_increase_irq
 880              	.LVL63:
 881              		.loc 1 203 3 view .LVU182
 882 0012 FFF7FEFF 		bl	_dbg_check_enter_isr
 883              	.LVL64:
 884              		.loc 1 205 3 view .LVU183
 885              		.loc 1 206 3 is_stmt 0 view .LVU184
 886 0016 0D48     		ldr	r0, .L107+4
 887              		.loc 1 205 12 view .LVU185
 888 0018 0D4A     		ldr	r2, .L107+8
 889              		.loc 1 206 29 view .LVU186
 890 001a 4368     		ldr	r3, [r0, #4]
 891              		.loc 1 205 12 view .LVU187
 892 001c 4FF40031 		mov	r1, #131072
 893 0020 5161     		str	r1, [r2, #20]
 894              		.loc 1 206 3 is_stmt 1 view .LVU188
 895 0022 D3F88C30 		ldr	r3, [r3, #140]
 896 0026 1121     		movs	r1, #17
 897 0028 9847     		blx	r3
 898              	.LVL65:
 899              		.loc 1 208 3 view .LVU189
 900 002a FFF7FEFF 		bl	_dbg_check_leave_isr
 901              	.LVL66:
 902              		.loc 1 208 3 view .LVU190
 903 002e 064B     		ldr	r3, .L107
 904 0030 1A68     		ldr	r2, [r3]
 905 0032 019B     		ldr	r3, [sp, #4]
 906 0034 5A40     		eors	r2, r3, r2
 907 0036 04D1     		bne	.L106
 908              		.loc 1 209 1 is_stmt 0 view .LVU191
 909 0038 03B0     		add	sp, sp, #12
 910              		.cfi_remember_state
 911              		.cfi_def_cfa_offset 4
 912              		@ sp needed
ARM GAS  /tmp/ccLxwNxU.s 			page 17


 913 003a 5DF804EB 		ldr	lr, [sp], #4
 914              		.cfi_restore 14
 915              		.cfi_def_cfa_offset 0
 916              		.loc 1 208 3 view .LVU192
 917 003e FFF7FEBF 		b	_port_irq_epilogue
 918              	.LVL67:
 919              	.L106:
 920              		.cfi_restore_state
 921 0042 FFF7FEFF 		bl	__stack_chk_fail
 922              	.LVL68:
 923              	.L108:
 924 0046 00BF     		.align	2
 925              	.L107:
 926 0048 00000000 		.word	.LC8
 927 004c 00000000 		.word	EXTD1
 928 0050 003C0140 		.word	1073822720
 929              		.cfi_endproc
 930              	.LFE264:
 931              		.size	VectorE4, .-VectorE4
 932              		.section	.rodata.VectorE8.cst4,"aM",%progbits,4
 933              		.align	2
 934              	.LC9:
 935 0000 00000000 		.word	__stack_chk_guard
 936              		.section	.text.VectorE8,"ax",%progbits
 937              		.align	1
 938              		.p2align 4,,15
 939              		.global	VectorE8
 940              		.syntax unified
 941              		.thumb
 942              		.thumb_func
 943              		.fpu fpv4-sp-d16
 944              		.type	VectorE8, %function
 945              	VectorE8:
 946              	.LFB265:
 947              		.loc 1 216 28 is_stmt 1 view -0
 948              		.cfi_startproc
 949              		@ args = 0, pretend = 0, frame = 8
 950              		@ frame_needed = 0, uses_anonymous_args = 0
 951 0000 00B5     		push	{lr}
 952              		.cfi_def_cfa_offset 4
 953              		.cfi_offset 14, -4
 954 0002 114B     		ldr	r3, .L114
 955 0004 83B0     		sub	sp, sp, #12
 956              		.cfi_def_cfa_offset 16
 957              		.loc 1 216 28 is_stmt 0 view .LVU194
 958 0006 1B68     		ldr	r3, [r3]
 959 0008 0193     		str	r3, [sp, #4]
 960 000a 4FF00003 		mov	r3,#0
 961              		.loc 1 218 3 is_stmt 1 view .LVU195
 962              		.loc 1 218 3 view .LVU196
 963 000e FFF7FEFF 		bl	_stats_increase_irq
 964              	.LVL69:
 965              		.loc 1 218 3 view .LVU197
 966 0012 FFF7FEFF 		bl	_dbg_check_enter_isr
 967              	.LVL70:
 968              		.loc 1 220 3 view .LVU198
 969              		.loc 1 221 3 is_stmt 0 view .LVU199
ARM GAS  /tmp/ccLxwNxU.s 			page 18


 970 0016 0D48     		ldr	r0, .L114+4
 971              		.loc 1 220 12 view .LVU200
 972 0018 0D4A     		ldr	r2, .L114+8
 973              		.loc 1 221 29 view .LVU201
 974 001a 4368     		ldr	r3, [r0, #4]
 975              		.loc 1 220 12 view .LVU202
 976 001c 4FF48021 		mov	r1, #262144
 977 0020 5161     		str	r1, [r2, #20]
 978              		.loc 1 221 3 is_stmt 1 view .LVU203
 979 0022 D3F89430 		ldr	r3, [r3, #148]
 980 0026 1221     		movs	r1, #18
 981 0028 9847     		blx	r3
 982              	.LVL71:
 983              		.loc 1 223 3 view .LVU204
 984 002a FFF7FEFF 		bl	_dbg_check_leave_isr
 985              	.LVL72:
 986              		.loc 1 223 3 view .LVU205
 987 002e 064B     		ldr	r3, .L114
 988 0030 1A68     		ldr	r2, [r3]
 989 0032 019B     		ldr	r3, [sp, #4]
 990 0034 5A40     		eors	r2, r3, r2
 991 0036 04D1     		bne	.L113
 992              		.loc 1 224 1 is_stmt 0 view .LVU206
 993 0038 03B0     		add	sp, sp, #12
 994              		.cfi_remember_state
 995              		.cfi_def_cfa_offset 4
 996              		@ sp needed
 997 003a 5DF804EB 		ldr	lr, [sp], #4
 998              		.cfi_restore 14
 999              		.cfi_def_cfa_offset 0
 1000              		.loc 1 223 3 view .LVU207
 1001 003e FFF7FEBF 		b	_port_irq_epilogue
 1002              	.LVL73:
 1003              	.L113:
 1004              		.cfi_restore_state
 1005 0042 FFF7FEFF 		bl	__stack_chk_fail
 1006              	.LVL74:
 1007              	.L115:
 1008 0046 00BF     		.align	2
 1009              	.L114:
 1010 0048 00000000 		.word	.LC9
 1011 004c 00000000 		.word	EXTD1
 1012 0050 003C0140 		.word	1073822720
 1013              		.cfi_endproc
 1014              	.LFE265:
 1015              		.size	VectorE8, .-VectorE8
 1016              		.section	.rodata.Vector138.cst4,"aM",%progbits,4
 1017              		.align	2
 1018              	.LC10:
 1019 0000 00000000 		.word	__stack_chk_guard
 1020              		.section	.text.Vector138,"ax",%progbits
 1021              		.align	1
 1022              		.p2align 4,,15
 1023              		.global	Vector138
 1024              		.syntax unified
 1025              		.thumb
 1026              		.thumb_func
ARM GAS  /tmp/ccLxwNxU.s 			page 19


 1027              		.fpu fpv4-sp-d16
 1028              		.type	Vector138, %function
 1029              	Vector138:
 1030              	.LFB266:
 1031              		.loc 1 232 29 is_stmt 1 view -0
 1032              		.cfi_startproc
 1033              		@ args = 0, pretend = 0, frame = 8
 1034              		@ frame_needed = 0, uses_anonymous_args = 0
 1035 0000 00B5     		push	{lr}
 1036              		.cfi_def_cfa_offset 4
 1037              		.cfi_offset 14, -4
 1038 0002 114B     		ldr	r3, .L121
 1039 0004 83B0     		sub	sp, sp, #12
 1040              		.cfi_def_cfa_offset 16
 1041              		.loc 1 232 29 is_stmt 0 view .LVU209
 1042 0006 1B68     		ldr	r3, [r3]
 1043 0008 0193     		str	r3, [sp, #4]
 1044 000a 4FF00003 		mov	r3,#0
 1045              		.loc 1 234 3 is_stmt 1 view .LVU210
 1046              		.loc 1 234 3 view .LVU211
 1047 000e FFF7FEFF 		bl	_stats_increase_irq
 1048              	.LVL75:
 1049              		.loc 1 234 3 view .LVU212
 1050 0012 FFF7FEFF 		bl	_dbg_check_enter_isr
 1051              	.LVL76:
 1052              		.loc 1 236 3 view .LVU213
 1053              		.loc 1 237 3 is_stmt 0 view .LVU214
 1054 0016 0D48     		ldr	r0, .L121+4
 1055              		.loc 1 236 12 view .LVU215
 1056 0018 0D4A     		ldr	r2, .L121+8
 1057              		.loc 1 237 29 view .LVU216
 1058 001a 4368     		ldr	r3, [r0, #4]
 1059              		.loc 1 236 12 view .LVU217
 1060 001c 4FF40021 		mov	r1, #524288
 1061 0020 5161     		str	r1, [r2, #20]
 1062              		.loc 1 237 3 is_stmt 1 view .LVU218
 1063 0022 D3F89C30 		ldr	r3, [r3, #156]
 1064 0026 1321     		movs	r1, #19
 1065 0028 9847     		blx	r3
 1066              	.LVL77:
 1067              		.loc 1 239 3 view .LVU219
 1068 002a FFF7FEFF 		bl	_dbg_check_leave_isr
 1069              	.LVL78:
 1070              		.loc 1 239 3 view .LVU220
 1071 002e 064B     		ldr	r3, .L121
 1072 0030 1A68     		ldr	r2, [r3]
 1073 0032 019B     		ldr	r3, [sp, #4]
 1074 0034 5A40     		eors	r2, r3, r2
 1075 0036 04D1     		bne	.L120
 1076              		.loc 1 240 1 is_stmt 0 view .LVU221
 1077 0038 03B0     		add	sp, sp, #12
 1078              		.cfi_remember_state
 1079              		.cfi_def_cfa_offset 4
 1080              		@ sp needed
 1081 003a 5DF804EB 		ldr	lr, [sp], #4
 1082              		.cfi_restore 14
 1083              		.cfi_def_cfa_offset 0
ARM GAS  /tmp/ccLxwNxU.s 			page 20


 1084              		.loc 1 239 3 view .LVU222
 1085 003e FFF7FEBF 		b	_port_irq_epilogue
 1086              	.LVL79:
 1087              	.L120:
 1088              		.cfi_restore_state
 1089 0042 FFF7FEFF 		bl	__stack_chk_fail
 1090              	.LVL80:
 1091              	.L122:
 1092 0046 00BF     		.align	2
 1093              	.L121:
 1094 0048 00000000 		.word	.LC10
 1095 004c 00000000 		.word	EXTD1
 1096 0050 003C0140 		.word	1073822720
 1097              		.cfi_endproc
 1098              	.LFE266:
 1099              		.size	Vector138, .-Vector138
 1100              		.section	.rodata.Vector170.cst4,"aM",%progbits,4
 1101              		.align	2
 1102              	.LC11:
 1103 0000 00000000 		.word	__stack_chk_guard
 1104              		.section	.text.Vector170,"ax",%progbits
 1105              		.align	1
 1106              		.p2align 4,,15
 1107              		.global	Vector170
 1108              		.syntax unified
 1109              		.thumb
 1110              		.thumb_func
 1111              		.fpu fpv4-sp-d16
 1112              		.type	Vector170, %function
 1113              	Vector170:
 1114              	.LFB267:
 1115              		.loc 1 249 29 is_stmt 1 view -0
 1116              		.cfi_startproc
 1117              		@ args = 0, pretend = 0, frame = 8
 1118              		@ frame_needed = 0, uses_anonymous_args = 0
 1119 0000 00B5     		push	{lr}
 1120              		.cfi_def_cfa_offset 4
 1121              		.cfi_offset 14, -4
 1122 0002 114B     		ldr	r3, .L128
 1123 0004 83B0     		sub	sp, sp, #12
 1124              		.cfi_def_cfa_offset 16
 1125              		.loc 1 249 29 is_stmt 0 view .LVU224
 1126 0006 1B68     		ldr	r3, [r3]
 1127 0008 0193     		str	r3, [sp, #4]
 1128 000a 4FF00003 		mov	r3,#0
 1129              		.loc 1 251 3 is_stmt 1 view .LVU225
 1130              		.loc 1 251 3 view .LVU226
 1131 000e FFF7FEFF 		bl	_stats_increase_irq
 1132              	.LVL81:
 1133              		.loc 1 251 3 view .LVU227
 1134 0012 FFF7FEFF 		bl	_dbg_check_enter_isr
 1135              	.LVL82:
 1136              		.loc 1 253 3 view .LVU228
 1137              		.loc 1 254 3 is_stmt 0 view .LVU229
 1138 0016 0D48     		ldr	r0, .L128+4
 1139              		.loc 1 253 12 view .LVU230
 1140 0018 0D4A     		ldr	r2, .L128+8
ARM GAS  /tmp/ccLxwNxU.s 			page 21


 1141              		.loc 1 254 29 view .LVU231
 1142 001a 4368     		ldr	r3, [r0, #4]
 1143              		.loc 1 253 12 view .LVU232
 1144 001c 4FF48011 		mov	r1, #1048576
 1145 0020 5161     		str	r1, [r2, #20]
 1146              		.loc 1 254 3 is_stmt 1 view .LVU233
 1147 0022 D3F8A430 		ldr	r3, [r3, #164]
 1148 0026 1421     		movs	r1, #20
 1149 0028 9847     		blx	r3
 1150              	.LVL83:
 1151              		.loc 1 256 3 view .LVU234
 1152 002a FFF7FEFF 		bl	_dbg_check_leave_isr
 1153              	.LVL84:
 1154              		.loc 1 256 3 view .LVU235
 1155 002e 064B     		ldr	r3, .L128
 1156 0030 1A68     		ldr	r2, [r3]
 1157 0032 019B     		ldr	r3, [sp, #4]
 1158 0034 5A40     		eors	r2, r3, r2
 1159 0036 04D1     		bne	.L127
 1160              		.loc 1 257 1 is_stmt 0 view .LVU236
 1161 0038 03B0     		add	sp, sp, #12
 1162              		.cfi_remember_state
 1163              		.cfi_def_cfa_offset 4
 1164              		@ sp needed
 1165 003a 5DF804EB 		ldr	lr, [sp], #4
 1166              		.cfi_restore 14
 1167              		.cfi_def_cfa_offset 0
 1168              		.loc 1 256 3 view .LVU237
 1169 003e FFF7FEBF 		b	_port_irq_epilogue
 1170              	.LVL85:
 1171              	.L127:
 1172              		.cfi_restore_state
 1173 0042 FFF7FEFF 		bl	__stack_chk_fail
 1174              	.LVL86:
 1175              	.L129:
 1176 0046 00BF     		.align	2
 1177              	.L128:
 1178 0048 00000000 		.word	.LC11
 1179 004c 00000000 		.word	EXTD1
 1180 0050 003C0140 		.word	1073822720
 1181              		.cfi_endproc
 1182              	.LFE267:
 1183              		.size	Vector170, .-Vector170
 1184              		.section	.rodata.Vector48.cst4,"aM",%progbits,4
 1185              		.align	2
 1186              	.LC12:
 1187 0000 00000000 		.word	__stack_chk_guard
 1188              		.section	.text.Vector48,"ax",%progbits
 1189              		.align	1
 1190              		.p2align 4,,15
 1191              		.global	Vector48
 1192              		.syntax unified
 1193              		.thumb
 1194              		.thumb_func
 1195              		.fpu fpv4-sp-d16
 1196              		.type	Vector48, %function
 1197              	Vector48:
ARM GAS  /tmp/ccLxwNxU.s 			page 22


 1198              	.LFB268:
 1199              		.loc 1 266 28 is_stmt 1 view -0
 1200              		.cfi_startproc
 1201              		@ args = 0, pretend = 0, frame = 8
 1202              		@ frame_needed = 0, uses_anonymous_args = 0
 1203 0000 00B5     		push	{lr}
 1204              		.cfi_def_cfa_offset 4
 1205              		.cfi_offset 14, -4
 1206 0002 114B     		ldr	r3, .L135
 1207 0004 83B0     		sub	sp, sp, #12
 1208              		.cfi_def_cfa_offset 16
 1209              		.loc 1 266 28 is_stmt 0 view .LVU239
 1210 0006 1B68     		ldr	r3, [r3]
 1211 0008 0193     		str	r3, [sp, #4]
 1212 000a 4FF00003 		mov	r3,#0
 1213              		.loc 1 268 3 is_stmt 1 view .LVU240
 1214              		.loc 1 268 3 view .LVU241
 1215 000e FFF7FEFF 		bl	_stats_increase_irq
 1216              	.LVL87:
 1217              		.loc 1 268 3 view .LVU242
 1218 0012 FFF7FEFF 		bl	_dbg_check_enter_isr
 1219              	.LVL88:
 1220              		.loc 1 270 3 view .LVU243
 1221              		.loc 1 271 3 is_stmt 0 view .LVU244
 1222 0016 0D48     		ldr	r0, .L135+4
 1223              		.loc 1 270 12 view .LVU245
 1224 0018 0D4A     		ldr	r2, .L135+8
 1225              		.loc 1 271 29 view .LVU246
 1226 001a 4368     		ldr	r3, [r0, #4]
 1227              		.loc 1 270 12 view .LVU247
 1228 001c 4FF40011 		mov	r1, #2097152
 1229 0020 5161     		str	r1, [r2, #20]
 1230              		.loc 1 271 3 is_stmt 1 view .LVU248
 1231 0022 D3F8AC30 		ldr	r3, [r3, #172]
 1232 0026 1521     		movs	r1, #21
 1233 0028 9847     		blx	r3
 1234              	.LVL89:
 1235              		.loc 1 273 3 view .LVU249
 1236 002a FFF7FEFF 		bl	_dbg_check_leave_isr
 1237              	.LVL90:
 1238              		.loc 1 273 3 view .LVU250
 1239 002e 064B     		ldr	r3, .L135
 1240 0030 1A68     		ldr	r2, [r3]
 1241 0032 019B     		ldr	r3, [sp, #4]
 1242 0034 5A40     		eors	r2, r3, r2
 1243 0036 04D1     		bne	.L134
 1244              		.loc 1 274 1 is_stmt 0 view .LVU251
 1245 0038 03B0     		add	sp, sp, #12
 1246              		.cfi_remember_state
 1247              		.cfi_def_cfa_offset 4
 1248              		@ sp needed
 1249 003a 5DF804EB 		ldr	lr, [sp], #4
 1250              		.cfi_restore 14
 1251              		.cfi_def_cfa_offset 0
 1252              		.loc 1 273 3 view .LVU252
 1253 003e FFF7FEBF 		b	_port_irq_epilogue
 1254              	.LVL91:
ARM GAS  /tmp/ccLxwNxU.s 			page 23


 1255              	.L134:
 1256              		.cfi_restore_state
 1257 0042 FFF7FEFF 		bl	__stack_chk_fail
 1258              	.LVL92:
 1259              	.L136:
 1260 0046 00BF     		.align	2
 1261              	.L135:
 1262 0048 00000000 		.word	.LC12
 1263 004c 00000000 		.word	EXTD1
 1264 0050 003C0140 		.word	1073822720
 1265              		.cfi_endproc
 1266              	.LFE268:
 1267              		.size	Vector48, .-Vector48
 1268              		.section	.rodata.Vector4C.cst4,"aM",%progbits,4
 1269              		.align	2
 1270              	.LC13:
 1271 0000 00000000 		.word	__stack_chk_guard
 1272              		.section	.text.Vector4C,"ax",%progbits
 1273              		.align	1
 1274              		.p2align 4,,15
 1275              		.global	Vector4C
 1276              		.syntax unified
 1277              		.thumb
 1278              		.thumb_func
 1279              		.fpu fpv4-sp-d16
 1280              		.type	Vector4C, %function
 1281              	Vector4C:
 1282              	.LFB269:
 1283              		.loc 1 282 28 is_stmt 1 view -0
 1284              		.cfi_startproc
 1285              		@ args = 0, pretend = 0, frame = 8
 1286              		@ frame_needed = 0, uses_anonymous_args = 0
 1287 0000 00B5     		push	{lr}
 1288              		.cfi_def_cfa_offset 4
 1289              		.cfi_offset 14, -4
 1290 0002 114B     		ldr	r3, .L142
 1291 0004 83B0     		sub	sp, sp, #12
 1292              		.cfi_def_cfa_offset 16
 1293              		.loc 1 282 28 is_stmt 0 view .LVU254
 1294 0006 1B68     		ldr	r3, [r3]
 1295 0008 0193     		str	r3, [sp, #4]
 1296 000a 4FF00003 		mov	r3,#0
 1297              		.loc 1 284 3 is_stmt 1 view .LVU255
 1298              		.loc 1 284 3 view .LVU256
 1299 000e FFF7FEFF 		bl	_stats_increase_irq
 1300              	.LVL93:
 1301              		.loc 1 284 3 view .LVU257
 1302 0012 FFF7FEFF 		bl	_dbg_check_enter_isr
 1303              	.LVL94:
 1304              		.loc 1 286 3 view .LVU258
 1305              		.loc 1 287 3 is_stmt 0 view .LVU259
 1306 0016 0D48     		ldr	r0, .L142+4
 1307              		.loc 1 286 12 view .LVU260
 1308 0018 0D4A     		ldr	r2, .L142+8
 1309              		.loc 1 287 29 view .LVU261
 1310 001a 4368     		ldr	r3, [r0, #4]
 1311              		.loc 1 286 12 view .LVU262
ARM GAS  /tmp/ccLxwNxU.s 			page 24


 1312 001c 4FF48001 		mov	r1, #4194304
 1313 0020 5161     		str	r1, [r2, #20]
 1314              		.loc 1 287 3 is_stmt 1 view .LVU263
 1315 0022 D3F8B430 		ldr	r3, [r3, #180]
 1316 0026 1621     		movs	r1, #22
 1317 0028 9847     		blx	r3
 1318              	.LVL95:
 1319              		.loc 1 289 3 view .LVU264
 1320 002a FFF7FEFF 		bl	_dbg_check_leave_isr
 1321              	.LVL96:
 1322              		.loc 1 289 3 view .LVU265
 1323 002e 064B     		ldr	r3, .L142
 1324 0030 1A68     		ldr	r2, [r3]
 1325 0032 019B     		ldr	r3, [sp, #4]
 1326 0034 5A40     		eors	r2, r3, r2
 1327 0036 04D1     		bne	.L141
 1328              		.loc 1 290 1 is_stmt 0 view .LVU266
 1329 0038 03B0     		add	sp, sp, #12
 1330              		.cfi_remember_state
 1331              		.cfi_def_cfa_offset 4
 1332              		@ sp needed
 1333 003a 5DF804EB 		ldr	lr, [sp], #4
 1334              		.cfi_restore 14
 1335              		.cfi_def_cfa_offset 0
 1336              		.loc 1 289 3 view .LVU267
 1337 003e FFF7FEBF 		b	_port_irq_epilogue
 1338              	.LVL97:
 1339              	.L141:
 1340              		.cfi_restore_state
 1341 0042 FFF7FEFF 		bl	__stack_chk_fail
 1342              	.LVL98:
 1343              	.L143:
 1344 0046 00BF     		.align	2
 1345              	.L142:
 1346 0048 00000000 		.word	.LC13
 1347 004c 00000000 		.word	EXTD1
 1348 0050 003C0140 		.word	1073822720
 1349              		.cfi_endproc
 1350              	.LFE269:
 1351              		.size	Vector4C, .-Vector4C
 1352              		.section	.rodata.ext_lld_exti_irq_enable.cst4,"aM",%progbits,4
 1353              		.align	2
 1354              	.LC14:
 1355 0000 00000000 		.word	__stack_chk_guard
 1356              		.section	.text.ext_lld_exti_irq_enable,"ax",%progbits
 1357              		.align	1
 1358              		.p2align 4,,15
 1359              		.global	ext_lld_exti_irq_enable
 1360              		.syntax unified
 1361              		.thumb
 1362              		.thumb_func
 1363              		.fpu fpv4-sp-d16
 1364              		.type	ext_lld_exti_irq_enable, %function
 1365              	ext_lld_exti_irq_enable:
 1366              	.LFB270:
 1367              		.loc 1 301 36 is_stmt 1 view -0
 1368              		.cfi_startproc
ARM GAS  /tmp/ccLxwNxU.s 			page 25


 1369              		@ args = 0, pretend = 0, frame = 8
 1370              		@ frame_needed = 0, uses_anonymous_args = 0
 1371 0000 00B5     		push	{lr}
 1372              		.cfi_def_cfa_offset 4
 1373              		.cfi_offset 14, -4
 1374 0002 244B     		ldr	r3, .L149
 1375              		.loc 1 303 3 is_stmt 0 view .LVU269
 1376 0004 0621     		movs	r1, #6
 1377              		.loc 1 301 36 view .LVU270
 1378 0006 83B0     		sub	sp, sp, #12
 1379              		.cfi_def_cfa_offset 16
 1380              		.loc 1 303 3 view .LVU271
 1381 0008 0846     		mov	r0, r1
 1382              		.loc 1 301 36 view .LVU272
 1383 000a 1B68     		ldr	r3, [r3]
 1384 000c 0193     		str	r3, [sp, #4]
 1385 000e 4FF00003 		mov	r3,#0
 1386              		.loc 1 303 3 is_stmt 1 view .LVU273
 1387 0012 FFF7FEFF 		bl	nvicEnableVector
 1388              	.LVL99:
 1389              		.loc 1 304 3 view .LVU274
 1390 0016 0621     		movs	r1, #6
 1391 0018 0720     		movs	r0, #7
 1392 001a FFF7FEFF 		bl	nvicEnableVector
 1393              	.LVL100:
 1394              		.loc 1 305 3 view .LVU275
 1395 001e 0621     		movs	r1, #6
 1396 0020 0820     		movs	r0, #8
 1397 0022 FFF7FEFF 		bl	nvicEnableVector
 1398              	.LVL101:
 1399              		.loc 1 306 3 view .LVU276
 1400 0026 0621     		movs	r1, #6
 1401 0028 0920     		movs	r0, #9
 1402 002a FFF7FEFF 		bl	nvicEnableVector
 1403              	.LVL102:
 1404              		.loc 1 307 3 view .LVU277
 1405 002e 0621     		movs	r1, #6
 1406 0030 0A20     		movs	r0, #10
 1407 0032 FFF7FEFF 		bl	nvicEnableVector
 1408              	.LVL103:
 1409              		.loc 1 308 3 view .LVU278
 1410 0036 0621     		movs	r1, #6
 1411 0038 1720     		movs	r0, #23
 1412 003a FFF7FEFF 		bl	nvicEnableVector
 1413              	.LVL104:
 1414              		.loc 1 309 3 view .LVU279
 1415 003e 0621     		movs	r1, #6
 1416 0040 2820     		movs	r0, #40
 1417 0042 FFF7FEFF 		bl	nvicEnableVector
 1418              	.LVL105:
 1419              		.loc 1 310 3 view .LVU280
 1420 0046 0621     		movs	r1, #6
 1421 0048 0120     		movs	r0, #1
 1422 004a FFF7FEFF 		bl	nvicEnableVector
 1423              	.LVL106:
 1424              		.loc 1 311 3 view .LVU281
 1425 004e 0F21     		movs	r1, #15
ARM GAS  /tmp/ccLxwNxU.s 			page 26


 1426 0050 2920     		movs	r0, #41
 1427 0052 FFF7FEFF 		bl	nvicEnableVector
 1428              	.LVL107:
 1429              		.loc 1 312 3 view .LVU282
 1430 0056 0621     		movs	r1, #6
 1431 0058 2A20     		movs	r0, #42
 1432 005a FFF7FEFF 		bl	nvicEnableVector
 1433              	.LVL108:
 1434              		.loc 1 314 3 view .LVU283
 1435 005e 0621     		movs	r1, #6
 1436 0060 3E20     		movs	r0, #62
 1437 0062 FFF7FEFF 		bl	nvicEnableVector
 1438              	.LVL109:
 1439              		.loc 1 317 3 view .LVU284
 1440 0066 0621     		movs	r1, #6
 1441 0068 4C20     		movs	r0, #76
 1442 006a FFF7FEFF 		bl	nvicEnableVector
 1443              	.LVL110:
 1444              		.loc 1 320 3 view .LVU285
 1445 006e 0F21     		movs	r1, #15
 1446 0070 0220     		movs	r0, #2
 1447 0072 FFF7FEFF 		bl	nvicEnableVector
 1448              	.LVL111:
 1449              		.loc 1 322 3 view .LVU286
 1450 0076 074B     		ldr	r3, .L149
 1451 0078 1A68     		ldr	r2, [r3]
 1452 007a 019B     		ldr	r3, [sp, #4]
 1453 007c 5A40     		eors	r2, r3, r2
 1454 007e 06D1     		bne	.L148
 1455 0080 0F21     		movs	r1, #15
 1456 0082 0320     		movs	r0, #3
 1457              		.loc 1 323 1 is_stmt 0 view .LVU287
 1458 0084 03B0     		add	sp, sp, #12
 1459              		.cfi_remember_state
 1460              		.cfi_def_cfa_offset 4
 1461              		@ sp needed
 1462 0086 5DF804EB 		ldr	lr, [sp], #4
 1463              		.cfi_restore 14
 1464              		.cfi_def_cfa_offset 0
 1465              		.loc 1 322 3 view .LVU288
 1466 008a FFF7FEBF 		b	nvicEnableVector
 1467              	.LVL112:
 1468              	.L148:
 1469              		.cfi_restore_state
 1470 008e FFF7FEFF 		bl	__stack_chk_fail
 1471              	.LVL113:
 1472              	.L150:
 1473 0092 00BF     		.align	2
 1474              	.L149:
 1475 0094 00000000 		.word	.LC14
 1476              		.cfi_endproc
 1477              	.LFE270:
 1478              		.size	ext_lld_exti_irq_enable, .-ext_lld_exti_irq_enable
 1479              		.section	.rodata.ext_lld_exti_irq_disable.cst4,"aM",%progbits,4
 1480              		.align	2
 1481              	.LC15:
 1482 0000 00000000 		.word	__stack_chk_guard
ARM GAS  /tmp/ccLxwNxU.s 			page 27


 1483              		.section	.text.ext_lld_exti_irq_disable,"ax",%progbits
 1484              		.align	1
 1485              		.p2align 4,,15
 1486              		.global	ext_lld_exti_irq_disable
 1487              		.syntax unified
 1488              		.thumb
 1489              		.thumb_func
 1490              		.fpu fpv4-sp-d16
 1491              		.type	ext_lld_exti_irq_disable, %function
 1492              	ext_lld_exti_irq_disable:
 1493              	.LFB271:
 1494              		.loc 1 330 37 is_stmt 1 view -0
 1495              		.cfi_startproc
 1496              		@ args = 0, pretend = 0, frame = 8
 1497              		@ frame_needed = 0, uses_anonymous_args = 0
 1498 0000 00B5     		push	{lr}
 1499              		.cfi_def_cfa_offset 4
 1500              		.cfi_offset 14, -4
 1501 0002 1D4B     		ldr	r3, .L156
 1502 0004 83B0     		sub	sp, sp, #12
 1503              		.cfi_def_cfa_offset 16
 1504              		.loc 1 332 3 is_stmt 0 view .LVU290
 1505 0006 0620     		movs	r0, #6
 1506              		.loc 1 330 37 view .LVU291
 1507 0008 1B68     		ldr	r3, [r3]
 1508 000a 0193     		str	r3, [sp, #4]
 1509 000c 4FF00003 		mov	r3,#0
 1510              		.loc 1 332 3 is_stmt 1 view .LVU292
 1511 0010 FFF7FEFF 		bl	nvicDisableVector
 1512              	.LVL114:
 1513              		.loc 1 333 3 view .LVU293
 1514 0014 0720     		movs	r0, #7
 1515 0016 FFF7FEFF 		bl	nvicDisableVector
 1516              	.LVL115:
 1517              		.loc 1 334 3 view .LVU294
 1518 001a 0820     		movs	r0, #8
 1519 001c FFF7FEFF 		bl	nvicDisableVector
 1520              	.LVL116:
 1521              		.loc 1 335 3 view .LVU295
 1522 0020 0920     		movs	r0, #9
 1523 0022 FFF7FEFF 		bl	nvicDisableVector
 1524              	.LVL117:
 1525              		.loc 1 336 3 view .LVU296
 1526 0026 0A20     		movs	r0, #10
 1527 0028 FFF7FEFF 		bl	nvicDisableVector
 1528              	.LVL118:
 1529              		.loc 1 337 3 view .LVU297
 1530 002c 1720     		movs	r0, #23
 1531 002e FFF7FEFF 		bl	nvicDisableVector
 1532              	.LVL119:
 1533              		.loc 1 338 3 view .LVU298
 1534 0032 2820     		movs	r0, #40
 1535 0034 FFF7FEFF 		bl	nvicDisableVector
 1536              	.LVL120:
 1537              		.loc 1 339 3 view .LVU299
 1538 0038 0120     		movs	r0, #1
 1539 003a FFF7FEFF 		bl	nvicDisableVector
ARM GAS  /tmp/ccLxwNxU.s 			page 28


 1540              	.LVL121:
 1541              		.loc 1 340 3 view .LVU300
 1542 003e 2920     		movs	r0, #41
 1543 0040 FFF7FEFF 		bl	nvicDisableVector
 1544              	.LVL122:
 1545              		.loc 1 341 3 view .LVU301
 1546 0044 2A20     		movs	r0, #42
 1547 0046 FFF7FEFF 		bl	nvicDisableVector
 1548              	.LVL123:
 1549              		.loc 1 343 3 view .LVU302
 1550 004a 3E20     		movs	r0, #62
 1551 004c FFF7FEFF 		bl	nvicDisableVector
 1552              	.LVL124:
 1553              		.loc 1 346 3 view .LVU303
 1554 0050 4C20     		movs	r0, #76
 1555 0052 FFF7FEFF 		bl	nvicDisableVector
 1556              	.LVL125:
 1557              		.loc 1 349 3 view .LVU304
 1558 0056 0220     		movs	r0, #2
 1559 0058 FFF7FEFF 		bl	nvicDisableVector
 1560              	.LVL126:
 1561              		.loc 1 351 3 view .LVU305
 1562 005c 064B     		ldr	r3, .L156
 1563 005e 1A68     		ldr	r2, [r3]
 1564 0060 019B     		ldr	r3, [sp, #4]
 1565 0062 5A40     		eors	r2, r3, r2
 1566 0064 05D1     		bne	.L155
 1567 0066 0320     		movs	r0, #3
 1568              		.loc 1 352 1 is_stmt 0 view .LVU306
 1569 0068 03B0     		add	sp, sp, #12
 1570              		.cfi_remember_state
 1571              		.cfi_def_cfa_offset 4
 1572              		@ sp needed
 1573 006a 5DF804EB 		ldr	lr, [sp], #4
 1574              		.cfi_restore 14
 1575              		.cfi_def_cfa_offset 0
 1576              		.loc 1 351 3 view .LVU307
 1577 006e FFF7FEBF 		b	nvicDisableVector
 1578              	.LVL127:
 1579              	.L155:
 1580              		.cfi_restore_state
 1581 0072 FFF7FEFF 		bl	__stack_chk_fail
 1582              	.LVL128:
 1583              	.L157:
 1584 0076 00BF     		.align	2
 1585              	.L156:
 1586 0078 00000000 		.word	.LC15
 1587              		.cfi_endproc
 1588              	.LFE271:
 1589              		.size	ext_lld_exti_irq_disable, .-ext_lld_exti_irq_disable
 1590              		.text
 1591              	.Letext0:
 1592              		.file 2 "/usr/lib/gcc/arm-none-eabi/9.2.1/include/stddef.h"
 1593              		.file 3 "/usr/lib/gcc/arm-none-eabi/9.2.1/include/stdint.h"
 1594              		.file 4 ".//ChibiOS//os/rt/ports/ARMCMx/compilers/GCC/chtypes.h"
 1595              		.file 5 ".//ChibiOS//os/rt/include/chsystypes.h"
 1596              		.file 6 ".//ChibiOS//os/rt/include/chschd.h"
ARM GAS  /tmp/ccLxwNxU.s 			page 29


 1597              		.file 7 ".//ChibiOS//os/ext/CMSIS/include/core_cm4.h"
 1598              		.file 8 ".//ChibiOS//os/ext/CMSIS/ST/system_stm32f4xx.h"
 1599              		.file 9 ".//ChibiOS//os/ext/CMSIS/ST/stm32f407xx.h"
 1600              		.file 10 ".//ChibiOS//os/rt/ports/ARMCMx/chcore.h"
 1601              		.file 11 ".//ChibiOS//os/rt/ports/ARMCMx/chcore_v7m.h"
 1602              		.file 12 ".//ChibiOS//os/rt/include/chdebug.h"
 1603              		.file 13 ".//ChibiOS//os/rt/include/chtm.h"
 1604              		.file 14 ".//ChibiOS//os/rt/include/chstats.h"
 1605              		.file 15 ".//ChibiOS//os/rt/include/chsem.h"
 1606              		.file 16 ".//ChibiOS//os/rt/include/chmtx.h"
 1607              		.file 17 ".//ChibiOS//os/rt/include/chregistry.h"
 1608              		.file 18 ".//ChibiOS//os/rt/include/chevents.h"
 1609              		.file 19 ".//ChibiOS//os/rt/include/chqueues.h"
 1610              		.file 20 ".//ChibiOS//os/hal/ports/STM32/STM32F4xx/stm32_dma.h"
 1611              		.file 21 ".//ChibiOS//os/hal/include/hal_ioblock.h"
 1612              		.file 22 ".//ChibiOS//os/hal/ports/STM32/LLD/GPIOv2/pal_lld.h"
 1613              		.file 23 ".//ChibiOS//os/hal/include/adc.h"
 1614              		.file 24 ".//ChibiOS//os/hal/ports/STM32/STM32F4xx/adc_lld.h"
 1615              		.file 25 ".//ChibiOS//os/hal/include/can.h"
 1616              		.file 26 ".//ChibiOS//os/hal/ports/STM32/LLD/can_lld.h"
 1617              		.file 27 ".//ChibiOS//os/hal/include/dac.h"
 1618              		.file 28 ".//ChibiOS//os/hal/ports/STM32/LLD/DACv1/dac_lld.h"
 1619              		.file 29 ".//ChibiOS//os/hal/include/ext.h"
 1620              		.file 30 ".//ChibiOS//os/hal/ports/STM32/LLD/ext_lld.h"
 1621              		.file 31 ".//ChibiOS//os/hal/include/gpt.h"
 1622              		.file 32 ".//ChibiOS//os/hal/ports/STM32/LLD/TIMv1/gpt_lld.h"
 1623              		.file 33 ".//ChibiOS//os/hal/ports/STM32/LLD/TIMv1/stm32_tim.h"
 1624              		.file 34 ".//ChibiOS//os/hal/include/i2c.h"
 1625              		.file 35 ".//ChibiOS//os/hal/ports/STM32/LLD/I2Cv1/i2c_lld.h"
 1626              		.file 36 ".//ChibiOS//os/hal/include/i2s.h"
 1627              		.file 37 ".//ChibiOS//os/hal/ports/STM32/LLD/SPIv1/i2s_lld.h"
 1628              		.file 38 ".//ChibiOS//os/hal/include/pwm.h"
 1629              		.file 39 ".//ChibiOS//os/hal/ports/STM32/LLD/TIMv1/pwm_lld.h"
 1630              		.file 40 ".//ChibiOS//os/hal/include/serial.h"
 1631              		.file 41 ".//ChibiOS//os/hal/ports/STM32/LLD/USARTv1/serial_lld.h"
 1632              		.file 42 ".//ChibiOS//os/hal/include/sdc.h"
 1633              		.file 43 ".//ChibiOS//os/hal/ports/STM32/LLD/sdc_lld.h"
 1634              		.file 44 ".//ChibiOS//os/hal/include/spi.h"
 1635              		.file 45 ".//ChibiOS//os/hal/ports/STM32/LLD/SPIv1/spi_lld.h"
 1636              		.file 46 ".//ChibiOS//os/hal/include/usb.h"
 1637              		.file 47 ".//ChibiOS//os/hal/ports/STM32/LLD/OTGv1/usb_lld.h"
 1638              		.file 48 ".//ChibiOS//os/hal/ports/STM32/LLD/OTGv1/stm32_otg.h"
 1639              		.file 49 ".//ChibiOS//os/hal/ports/common/ARMCMx/nvic.h"