ARM GAS  /tmp/cceC6P4z.s 			page 1


   1              		.cpu cortex-m4
   2              		.eabi_attribute 27, 1
   3              		.eabi_attribute 28, 1
   4              		.eabi_attribute 20, 1
   5              		.eabi_attribute 21, 1
   6              		.eabi_attribute 23, 3
   7              		.eabi_attribute 24, 1
   8              		.eabi_attribute 25, 1
   9              		.eabi_attribute 26, 1
  10              		.eabi_attribute 30, 2
  11              		.eabi_attribute 34, 1
  12              		.eabi_attribute 18, 4
  13              		.file	"exti.c"
  14              		.text
  15              	.Ltext0:
  16              		.cfi_sections	.debug_frame
  17              		.section	.rodata.gpio_exti_callback.cst4,"aM",%progbits,4
  18              		.align	2
  19              	.LC0:
  20 0000 00000000 		.word	__stack_chk_guard
  21              		.section	.text.gpio_exti_callback,"ax",%progbits
  22              		.align	1
  23              		.p2align 4,,15
  24              		.arch armv7e-m
  25              		.syntax unified
  26              		.thumb
  27              		.thumb_func
  28              		.fpu fpv4-sp-d16
  29              		.type	gpio_exti_callback, %function
  30              	gpio_exti_callback:
  31              	.LVL0:
  32              	.LFB256:
  33              		.file 1 ".//src/exti.c"
  34              		.loc 1 14 1 view -0
  35              		.cfi_startproc
  36              		@ args = 0, pretend = 0, frame = 8
  37              		@ frame_needed = 0, uses_anonymous_args = 0
  38              		.loc 1 14 1 is_stmt 0 view .LVU1
  39 0000 00B5     		push	{lr}
  40              		.cfi_def_cfa_offset 4
  41              		.cfi_offset 14, -4
  42 0002 184B     		ldr	r3, .L11
  43 0004 83B0     		sub	sp, sp, #12
  44              		.cfi_def_cfa_offset 16
  45              		.loc 1 16 8 view .LVU2
  46 0006 0329     		cmp	r1, #3
  47              		.loc 1 14 1 view .LVU3
  48 0008 1B68     		ldr	r3, [r3]
  49 000a 0193     		str	r3, [sp, #4]
  50 000c 4FF00003 		mov	r3,#0
  51              		.loc 1 15 5 is_stmt 1 view .LVU4
  52              		.loc 1 16 5 view .LVU5
  53              		.loc 1 16 8 is_stmt 0 view .LVU6
  54 0010 09D0     		beq	.L8
  55              		.loc 1 20 12 is_stmt 1 view .LVU7
  56              		.loc 1 20 14 is_stmt 0 view .LVU8
  57 0012 0F29     		cmp	r1, #15
ARM GAS  /tmp/cceC6P4z.s 			page 2


  58 0014 1AD0     		beq	.L9
  59              	.LVL1:
  60              	.L1:
  61              		.loc 1 25 1 view .LVU9
  62 0016 134B     		ldr	r3, .L11
  63 0018 1A68     		ldr	r2, [r3]
  64 001a 019B     		ldr	r3, [sp, #4]
  65 001c 5A40     		eors	r2, r3, r2
  66 001e 1ED1     		bne	.L10
  67 0020 03B0     		add	sp, sp, #12
  68              		.cfi_remember_state
  69              		.cfi_def_cfa_offset 4
  70              		@ sp needed
  71 0022 5DF804FB 		ldr	pc, [sp], #4
  72              	.LVL2:
  73              	.L8:
  74              		.cfi_restore_state
  75              		.loc 1 17 9 is_stmt 1 view .LVU10
  76              	.LBB112:
  77              	.LBI112:
  78              		.file 2 ".//ChibiOS//os/rt/include/chsys.h"
  79              		.loc 2 386 20 view .LVU11
  80              	.LBB113:
  81              		.loc 2 388 3 view .LVU12
  82              	.LBB114:
  83              	.LBI114:
  84              		.file 3 ".//ChibiOS//os/rt/ports/ARMCMx/chcore_v7m.h"
  85              		.loc 3 473 20 view .LVU13
  86              	.LBE114:
  87              	.LBE113:
  88              	.LBE112:
  89              		.loc 3 475 3 view .LVU14
  90              	.LBB123:
  91              	.LBB121:
  92              	.LBB119:
  93              	.LBB115:
  94              	.LBI115:
  95              		.loc 3 444 20 view .LVU15
  96              	.LBE115:
  97              	.LBE119:
  98              	.LBE121:
  99              	.LBE123:
 100              		.loc 3 447 3 view .LVU16
 101              	.LBB124:
 102              	.LBB122:
 103              	.LBB120:
 104              	.LBB118:
 105              	.LBB116:
 106              	.LBI116:
 107              		.file 4 ".//ChibiOS//os/ext/CMSIS/include/core_cmFunc.h"
 108              		.loc 4 544 57 view .LVU17
 109              	.LBB117:
 110              		.loc 4 546 3 view .LVU18
 111 0026 2023     		movs	r3, #32
 112              		.syntax unified
 113              	@ 546 ".//ChibiOS//os/ext/CMSIS/include/core_cmFunc.h" 1
 114 0028 83F31188 		MSR basepri, r3
ARM GAS  /tmp/cceC6P4z.s 			page 3


 115              	@ 0 "" 2
 116              	.LVL3:
 117              		.loc 4 546 3 is_stmt 0 view .LVU19
 118              		.thumb
 119              		.syntax unified
 120              	.LBE117:
 121              	.LBE116:
 122              	.LBE118:
 123              	.LBE120:
 124              		.loc 2 389 3 is_stmt 1 view .LVU20
 125 002c FFF7FEFF 		bl	_stats_start_measure_crit_isr
 126              	.LVL4:
 127              		.loc 2 390 3 view .LVU21
 128 0030 FFF7FEFF 		bl	_dbg_check_lock_from_isr
 129              	.LVL5:
 130              	.LBE122:
 131              	.LBE124:
 132              		.loc 1 18 9 view .LVU22
 133 0034 0221     		movs	r1, #2
 134              	.L6:
 135              	.LBB125:
 136              	.LBB126:
 137              		.loc 1 22 9 is_stmt 0 view .LVU23
 138 0036 0C48     		ldr	r0, .L11+4
 139 0038 FFF7FEFF 		bl	chEvtBroadcastFlagsI
 140              	.LVL6:
 141              		.loc 1 23 9 is_stmt 1 view .LVU24
 142              	.LBB127:
 143              	.LBI127:
 144              		.loc 2 406 20 view .LVU25
 145              	.LBB128:
 146              		.loc 2 408 3 view .LVU26
 147 003c FFF7FEFF 		bl	_dbg_check_unlock_from_isr
 148              	.LVL7:
 149              		.loc 2 409 3 view .LVU27
 150 0040 FFF7FEFF 		bl	_stats_stop_measure_crit_isr
 151              	.LVL8:
 152              		.loc 2 410 3 view .LVU28
 153              	.LBB129:
 154              	.LBI129:
 155              		.loc 3 484 20 view .LVU29
 156              	.LBE129:
 157              	.LBE128:
 158              	.LBE127:
 159              	.LBE126:
 160              	.LBE125:
 161              		.loc 3 486 3 view .LVU30
 162              	.LBB158:
 163              	.LBB153:
 164              	.LBB138:
 165              	.LBB136:
 166              	.LBB134:
 167              	.LBB130:
 168              	.LBI130:
 169              		.loc 3 458 20 view .LVU31
 170              	.LBE130:
 171              	.LBE134:
ARM GAS  /tmp/cceC6P4z.s 			page 4


 172              	.LBE136:
 173              	.LBE138:
 174              	.LBE153:
 175              	.LBE158:
 176              		.loc 3 461 3 view .LVU32
 177              	.LBB159:
 178              	.LBB154:
 179              	.LBB139:
 180              	.LBB137:
 181              	.LBB135:
 182              	.LBB133:
 183              	.LBB131:
 184              	.LBI131:
 185              		.loc 4 544 57 view .LVU33
 186              	.LBB132:
 187              		.loc 4 546 3 view .LVU34
 188 0044 0023     		movs	r3, #0
 189              		.syntax unified
 190              	@ 546 ".//ChibiOS//os/ext/CMSIS/include/core_cmFunc.h" 1
 191 0046 83F31188 		MSR basepri, r3
 192              	@ 0 "" 2
 193              	.LVL9:
 194              		.loc 4 546 3 is_stmt 0 view .LVU35
 195              		.thumb
 196              		.syntax unified
 197              	.LBE132:
 198              	.LBE131:
 199              	.LBE133:
 200              	.LBE135:
 201              	.LBE137:
 202              	.LBE139:
 203              	.LBE154:
 204              	.LBE159:
 205              		.loc 1 25 1 view .LVU36
 206 004a E4E7     		b	.L1
 207              	.LVL10:
 208              	.L9:
 209              	.LBB160:
 210              	.LBI125:
 211              		.loc 1 13 13 is_stmt 1 view .LVU37
 212              	.LBB155:
 213              		.loc 1 21 9 view .LVU38
 214              	.LBB140:
 215              	.LBI140:
 216              		.loc 2 386 20 view .LVU39
 217              	.LBB141:
 218              		.loc 2 388 3 view .LVU40
 219              	.LBB142:
 220              	.LBI142:
 221              		.loc 3 473 20 view .LVU41
 222              	.LBE142:
 223              	.LBE141:
 224              	.LBE140:
 225              	.LBE155:
 226              	.LBE160:
 227              		.loc 3 475 3 view .LVU42
 228              	.LBB161:
ARM GAS  /tmp/cceC6P4z.s 			page 5


 229              	.LBB156:
 230              	.LBB151:
 231              	.LBB149:
 232              	.LBB147:
 233              	.LBB143:
 234              	.LBI143:
 235              		.loc 3 444 20 view .LVU43
 236              	.LBE143:
 237              	.LBE147:
 238              	.LBE149:
 239              	.LBE151:
 240              	.LBE156:
 241              	.LBE161:
 242              		.loc 3 447 3 view .LVU44
 243              	.LBB162:
 244              	.LBB157:
 245              	.LBB152:
 246              	.LBB150:
 247              	.LBB148:
 248              	.LBB146:
 249              	.LBB144:
 250              	.LBI144:
 251              		.loc 4 544 57 view .LVU45
 252              	.LBB145:
 253              		.loc 4 546 3 view .LVU46
 254 004c 2023     		movs	r3, #32
 255              		.syntax unified
 256              	@ 546 ".//ChibiOS//os/ext/CMSIS/include/core_cmFunc.h" 1
 257 004e 83F31188 		MSR basepri, r3
 258              	@ 0 "" 2
 259              	.LVL11:
 260              		.loc 4 546 3 is_stmt 0 view .LVU47
 261              		.thumb
 262              		.syntax unified
 263              	.LBE145:
 264              	.LBE144:
 265              	.LBE146:
 266              	.LBE148:
 267              		.loc 2 389 3 is_stmt 1 view .LVU48
 268 0052 FFF7FEFF 		bl	_stats_start_measure_crit_isr
 269              	.LVL12:
 270              		.loc 2 390 3 view .LVU49
 271 0056 FFF7FEFF 		bl	_dbg_check_lock_from_isr
 272              	.LVL13:
 273              	.LBE150:
 274              	.LBE152:
 275              		.loc 1 22 9 view .LVU50
 276 005a 0121     		movs	r1, #1
 277 005c EBE7     		b	.L6
 278              	.LVL14:
 279              	.L10:
 280              		.loc 1 22 9 is_stmt 0 view .LVU51
 281              	.LBE157:
 282              	.LBE162:
 283              		.loc 1 25 1 view .LVU52
 284 005e FFF7FEFF 		bl	__stack_chk_fail
 285              	.LVL15:
ARM GAS  /tmp/cceC6P4z.s 			page 6


 286              	.L12:
 287 0062 00BF     		.align	2
 288              	.L11:
 289 0064 00000000 		.word	.LC0
 290 0068 00000000 		.word	.LANCHOR0
 291              		.cfi_endproc
 292              	.LFE256:
 293              		.size	gpio_exti_callback, .-gpio_exti_callback
 294              		.section	.rodata.exti_start.cst4,"aM",%progbits,4
 295              		.align	2
 296              	.LC1:
 297 0000 00000000 		.word	__stack_chk_guard
 298              		.section	.text.exti_start,"ax",%progbits
 299              		.align	1
 300              		.p2align 4,,15
 301              		.global	exti_start
 302              		.syntax unified
 303              		.thumb
 304              		.thumb_func
 305              		.fpu fpv4-sp-d16
 306              		.type	exti_start, %function
 307              	exti_start:
 308              	.LFB257:
 309              		.loc 1 61 23 is_stmt 1 view -0
 310              		.cfi_startproc
 311              		@ args = 0, pretend = 0, frame = 8
 312              		@ frame_needed = 0, uses_anonymous_args = 0
 313 0000 00B5     		push	{lr}
 314              		.cfi_def_cfa_offset 4
 315              		.cfi_offset 14, -4
 316              	.LBB163:
 317              	.LBB164:
 318              		.file 5 ".//ChibiOS//os/rt/include/chevents.h"
 319              		.loc 5 172 16 is_stmt 0 view .LVU54
 320 0002 0B4B     		ldr	r3, .L18
 321              	.LBE164:
 322              	.LBE163:
 323              		.loc 1 61 23 view .LVU55
 324 0004 0B4A     		ldr	r2, .L18+4
 325 0006 83B0     		sub	sp, sp, #12
 326              		.cfi_def_cfa_offset 16
 327              		.loc 1 61 23 view .LVU56
 328 0008 1268     		ldr	r2, [r2]
 329 000a 0192     		str	r2, [sp, #4]
 330 000c 4FF00002 		mov	r2,#0
 331              		.loc 1 62 2 is_stmt 1 view .LVU57
 332              	.LVL16:
 333              	.LBB166:
 334              	.LBI163:
 335              		.loc 5 170 20 view .LVU58
 336              	.LBB165:
 337              		.loc 5 172 3 view .LVU59
 338              		.loc 5 172 16 is_stmt 0 view .LVU60
 339 0010 1B60     		str	r3, [r3]
 340              	.LVL17:
 341              		.loc 5 172 16 view .LVU61
 342              	.LBE165:
ARM GAS  /tmp/cceC6P4z.s 			page 7


 343              	.LBE166:
 344              		.loc 1 63 2 is_stmt 1 view .LVU62
 345 0012 084B     		ldr	r3, .L18+4
 346 0014 1A68     		ldr	r2, [r3]
 347 0016 019B     		ldr	r3, [sp, #4]
 348 0018 5A40     		eors	r2, r3, r2
 349 001a 06D1     		bne	.L17
 350 001c 0649     		ldr	r1, .L18+8
 351 001e 0748     		ldr	r0, .L18+12
 352              		.loc 1 64 1 is_stmt 0 view .LVU63
 353 0020 03B0     		add	sp, sp, #12
 354              		.cfi_remember_state
 355              		.cfi_def_cfa_offset 4
 356              		@ sp needed
 357 0022 5DF804EB 		ldr	lr, [sp], #4
 358              		.cfi_restore 14
 359              		.cfi_def_cfa_offset 0
 360              		.loc 1 63 2 view .LVU64
 361 0026 FFF7FEBF 		b	extStart
 362              	.LVL18:
 363              	.L17:
 364              		.cfi_restore_state
 365 002a FFF7FEFF 		bl	__stack_chk_fail
 366              	.LVL19:
 367              	.L19:
 368 002e 00BF     		.align	2
 369              	.L18:
 370 0030 00000000 		.word	.LANCHOR0
 371 0034 00000000 		.word	.LC1
 372 0038 00000000 		.word	.LANCHOR1
 373 003c 00000000 		.word	EXTD1
 374              		.cfi_endproc
 375              	.LFE257:
 376              		.size	exti_start, .-exti_start
 377              		.section	.rodata.exti_disable_ir_remote.cst4,"aM",%progbits,4
 378              		.align	2
 379              	.LC2:
 380 0000 00000000 		.word	__stack_chk_guard
 381              		.section	.text.exti_disable_ir_remote,"ax",%progbits
 382              		.align	1
 383              		.p2align 4,,15
 384              		.global	exti_disable_ir_remote
 385              		.syntax unified
 386              		.thumb
 387              		.thumb_func
 388              		.fpu fpv4-sp-d16
 389              		.type	exti_disable_ir_remote, %function
 390              	exti_disable_ir_remote:
 391              	.LFB258:
 392              		.loc 1 66 35 is_stmt 1 view -0
 393              		.cfi_startproc
 394              		@ args = 0, pretend = 0, frame = 8
 395              		@ frame_needed = 0, uses_anonymous_args = 0
 396 0000 00B5     		push	{lr}
 397              		.cfi_def_cfa_offset 4
 398              		.cfi_offset 14, -4
 399 0002 0A4B     		ldr	r3, .L25
ARM GAS  /tmp/cceC6P4z.s 			page 8


 400 0004 83B0     		sub	sp, sp, #12
 401              		.cfi_def_cfa_offset 16
 402              		.loc 1 66 35 is_stmt 0 view .LVU66
 403 0006 1B68     		ldr	r3, [r3]
 404 0008 0193     		str	r3, [sp, #4]
 405 000a 4FF00003 		mov	r3,#0
 406              		.loc 1 67 2 is_stmt 1 view .LVU67
 407 000e 074B     		ldr	r3, .L25
 408 0010 1A68     		ldr	r2, [r3]
 409 0012 019B     		ldr	r3, [sp, #4]
 410 0014 5A40     		eors	r2, r3, r2
 411 0016 06D1     		bne	.L24
 412 0018 0548     		ldr	r0, .L25+4
 413 001a 0321     		movs	r1, #3
 414              		.loc 1 68 1 is_stmt 0 view .LVU68
 415 001c 03B0     		add	sp, sp, #12
 416              		.cfi_remember_state
 417              		.cfi_def_cfa_offset 4
 418              		@ sp needed
 419 001e 5DF804EB 		ldr	lr, [sp], #4
 420              		.cfi_restore 14
 421              		.cfi_def_cfa_offset 0
 422              		.loc 1 67 2 view .LVU69
 423 0022 FFF7FEBF 		b	ext_lld_channel_disable
 424              	.LVL20:
 425              	.L24:
 426              		.cfi_restore_state
 427 0026 FFF7FEFF 		bl	__stack_chk_fail
 428              	.LVL21:
 429              	.L26:
 430 002a 00BF     		.align	2
 431              	.L25:
 432 002c 00000000 		.word	.LC2
 433 0030 00000000 		.word	EXTD1
 434              		.cfi_endproc
 435              	.LFE258:
 436              		.size	exti_disable_ir_remote, .-exti_disable_ir_remote
 437              		.section	.rodata.exti_enable_ir_remote.cst4,"aM",%progbits,4
 438              		.align	2
 439              	.LC3:
 440 0000 00000000 		.word	__stack_chk_guard
 441              		.section	.text.exti_enable_ir_remote,"ax",%progbits
 442              		.align	1
 443              		.p2align 4,,15
 444              		.global	exti_enable_ir_remote
 445              		.syntax unified
 446              		.thumb
 447              		.thumb_func
 448              		.fpu fpv4-sp-d16
 449              		.type	exti_enable_ir_remote, %function
 450              	exti_enable_ir_remote:
 451              	.LFB259:
 452              		.loc 1 70 34 is_stmt 1 view -0
 453              		.cfi_startproc
 454              		@ args = 0, pretend = 0, frame = 8
 455              		@ frame_needed = 0, uses_anonymous_args = 0
 456 0000 00B5     		push	{lr}
ARM GAS  /tmp/cceC6P4z.s 			page 9


 457              		.cfi_def_cfa_offset 4
 458              		.cfi_offset 14, -4
 459 0002 0A4B     		ldr	r3, .L32
 460 0004 83B0     		sub	sp, sp, #12
 461              		.cfi_def_cfa_offset 16
 462              		.loc 1 70 34 is_stmt 0 view .LVU71
 463 0006 1B68     		ldr	r3, [r3]
 464 0008 0193     		str	r3, [sp, #4]
 465 000a 4FF00003 		mov	r3,#0
 466              		.loc 1 71 2 is_stmt 1 view .LVU72
 467 000e 074B     		ldr	r3, .L32
 468 0010 1A68     		ldr	r2, [r3]
 469 0012 019B     		ldr	r3, [sp, #4]
 470 0014 5A40     		eors	r2, r3, r2
 471 0016 06D1     		bne	.L31
 472 0018 0548     		ldr	r0, .L32+4
 473 001a 0321     		movs	r1, #3
 474              		.loc 1 72 1 is_stmt 0 view .LVU73
 475 001c 03B0     		add	sp, sp, #12
 476              		.cfi_remember_state
 477              		.cfi_def_cfa_offset 4
 478              		@ sp needed
 479 001e 5DF804EB 		ldr	lr, [sp], #4
 480              		.cfi_restore 14
 481              		.cfi_def_cfa_offset 0
 482              		.loc 1 71 2 view .LVU74
 483 0022 FFF7FEBF 		b	ext_lld_channel_enable
 484              	.LVL22:
 485              	.L31:
 486              		.cfi_restore_state
 487 0026 FFF7FEFF 		bl	__stack_chk_fail
 488              	.LVL23:
 489              	.L33:
 490 002a 00BF     		.align	2
 491              	.L32:
 492 002c 00000000 		.word	.LC3
 493 0030 00000000 		.word	EXTD1
 494              		.cfi_endproc
 495              	.LFE259:
 496              		.size	exti_enable_ir_remote, .-exti_enable_ir_remote
 497              		.global	exti_events
 498              		.section	.bss.exti_events,"aw",%nobits
 499              		.align	2
 500              		.set	.LANCHOR0,. + 0
 501              		.type	exti_events, %object
 502              		.size	exti_events, 4
 503              	exti_events:
 504 0000 00000000 		.space	4
 505              		.section	.rodata.extcfg,"a"
 506              		.align	2
 507              		.set	.LANCHOR1,. + 0
 508              		.type	extcfg, %object
 509              		.size	extcfg, 184
 510              	extcfg:
 511 0000 00000000 		.word	0
 512 0004 00000000 		.word	0
 513 0008 00000000 		.word	0
ARM GAS  /tmp/cceC6P4z.s 			page 10


 514 000c 00000000 		.word	0
 515 0010 00000000 		.word	0
 516 0014 00000000 		.word	0
 517 0018 37000000 		.word	55
 518 001c 00000000 		.word	gpio_exti_callback
 519 0020 00000000 		.word	0
 520 0024 00000000 		.word	0
 521 0028 00000000 		.word	0
 522 002c 00000000 		.word	0
 523 0030 00000000 		.word	0
 524 0034 00000000 		.word	0
 525 0038 00000000 		.word	0
 526 003c 00000000 		.word	0
 527 0040 00000000 		.word	0
 528 0044 00000000 		.word	0
 529 0048 00000000 		.word	0
 530 004c 00000000 		.word	0
 531 0050 00000000 		.word	0
 532 0054 00000000 		.word	0
 533 0058 00000000 		.word	0
 534 005c 00000000 		.word	0
 535 0060 00000000 		.word	0
 536 0064 00000000 		.word	0
 537 0068 00000000 		.word	0
 538 006c 00000000 		.word	0
 539 0070 00000000 		.word	0
 540 0074 00000000 		.word	0
 541 0078 35000000 		.word	53
 542 007c 00000000 		.word	gpio_exti_callback
 543 0080 00000000 		.word	0
 544 0084 00000000 		.word	0
 545 0088 00000000 		.word	0
 546 008c 00000000 		.word	0
 547 0090 00000000 		.word	0
 548 0094 00000000 		.word	0
 549 0098 00000000 		.word	0
 550 009c 00000000 		.word	0
 551 00a0 00000000 		.word	0
 552 00a4 00000000 		.word	0
 553 00a8 00000000 		.word	0
 554 00ac 00000000 		.word	0
 555 00b0 00000000 		.word	0
 556 00b4 00000000 		.word	0
 557              		.text
 558              	.Letext0:
 559              		.file 6 "/usr/lib/gcc/arm-none-eabi/9.2.1/include/stddef.h"
 560              		.file 7 "/usr/lib/gcc/arm-none-eabi/9.2.1/include/stdint.h"
 561              		.file 8 ".//ChibiOS//os/rt/ports/ARMCMx/compilers/GCC/chtypes.h"
 562              		.file 9 ".//ChibiOS//os/rt/include/chsystypes.h"
 563              		.file 10 ".//ChibiOS//os/rt/include/chschd.h"
 564              		.file 11 ".//ChibiOS//os/ext/CMSIS/include/core_cm4.h"
 565              		.file 12 ".//ChibiOS//os/ext/CMSIS/ST/system_stm32f4xx.h"
 566              		.file 13 ".//ChibiOS//os/ext/CMSIS/ST/stm32f407xx.h"
 567              		.file 14 ".//ChibiOS//os/rt/ports/ARMCMx/chcore.h"
 568              		.file 15 ".//ChibiOS//os/rt/include/chdebug.h"
 569              		.file 16 ".//ChibiOS//os/rt/include/chtm.h"
 570              		.file 17 ".//ChibiOS//os/rt/include/chstats.h"
ARM GAS  /tmp/cceC6P4z.s 			page 11


 571              		.file 18 ".//ChibiOS//os/rt/include/chsem.h"
 572              		.file 19 ".//ChibiOS//os/rt/include/chmtx.h"
 573              		.file 20 ".//ChibiOS//os/rt/include/chregistry.h"
 574              		.file 21 ".//ChibiOS//os/rt/include/chqueues.h"
 575              		.file 22 ".//ChibiOS//os/hal/ports/STM32/STM32F4xx/stm32_dma.h"
 576              		.file 23 ".//ChibiOS//os/hal/include/hal_ioblock.h"
 577              		.file 24 ".//ChibiOS//os/hal/ports/STM32/LLD/GPIOv2/pal_lld.h"
 578              		.file 25 ".//ChibiOS//os/hal/include/adc.h"
 579              		.file 26 ".//ChibiOS//os/hal/ports/STM32/STM32F4xx/adc_lld.h"
 580              		.file 27 ".//ChibiOS//os/hal/include/can.h"
 581              		.file 28 ".//ChibiOS//os/hal/ports/STM32/LLD/can_lld.h"
 582              		.file 29 ".//ChibiOS//os/hal/include/dac.h"
 583              		.file 30 ".//ChibiOS//os/hal/ports/STM32/LLD/DACv1/dac_lld.h"
 584              		.file 31 ".//ChibiOS//os/hal/include/ext.h"
 585              		.file 32 ".//ChibiOS//os/hal/ports/STM32/LLD/ext_lld.h"
 586              		.file 33 ".//ChibiOS//os/hal/include/gpt.h"
 587              		.file 34 ".//ChibiOS//os/hal/ports/STM32/LLD/TIMv1/gpt_lld.h"
 588              		.file 35 ".//ChibiOS//os/hal/ports/STM32/LLD/TIMv1/stm32_tim.h"
 589              		.file 36 ".//ChibiOS//os/hal/include/i2c.h"
 590              		.file 37 ".//ChibiOS//os/hal/ports/STM32/LLD/I2Cv1/i2c_lld.h"
 591              		.file 38 ".//ChibiOS//os/hal/include/i2s.h"
 592              		.file 39 ".//ChibiOS//os/hal/ports/STM32/LLD/SPIv1/i2s_lld.h"
 593              		.file 40 ".//ChibiOS//os/hal/include/pwm.h"
 594              		.file 41 ".//ChibiOS//os/hal/ports/STM32/LLD/TIMv1/pwm_lld.h"
 595              		.file 42 ".//ChibiOS//os/hal/include/serial.h"
 596              		.file 43 ".//ChibiOS//os/hal/ports/STM32/LLD/USARTv1/serial_lld.h"
 597              		.file 44 ".//ChibiOS//os/hal/include/sdc.h"
 598              		.file 45 ".//ChibiOS//os/hal/ports/STM32/LLD/sdc_lld.h"
 599              		.file 46 ".//ChibiOS//os/hal/include/spi.h"
 600              		.file 47 ".//ChibiOS//os/hal/ports/STM32/LLD/SPIv1/spi_lld.h"
 601              		.file 48 ".//ChibiOS//os/hal/include/usb.h"
 602              		.file 49 ".//ChibiOS//os/hal/ports/STM32/LLD/OTGv1/usb_lld.h"
 603              		.file 50 ".//ChibiOS//os/hal/ports/STM32/LLD/OTGv1/stm32_otg.h"
 604              		.file 51 ".//src/exti.h"