ARM GAS  /tmp/ccszA1D4.s 			page 1


   1              		.cpu cortex-m4
   2              		.eabi_attribute 27, 1
   3              		.eabi_attribute 28, 1
   4              		.eabi_attribute 20, 1
   5              		.eabi_attribute 21, 1
   6              		.eabi_attribute 23, 3
   7              		.eabi_attribute 24, 1
   8              		.eabi_attribute 25, 1
   9              		.eabi_attribute 26, 1
  10              		.eabi_attribute 30, 2
  11              		.eabi_attribute 34, 1
  12              		.eabi_attribute 18, 4
  13              		.file	"fat.c"
  14              		.text
  15              	.Ltext0:
  16              		.cfi_sections	.debug_frame
  17              		.section	.rodata.chprintf.cst4,"aM",%progbits,4
  18              		.align	2
  19              	.LC0:
  20 0000 00000000 		.word	__stack_chk_guard
  21              		.section	.text.chprintf,"ax",%progbits
  22              		.align	1
  23              		.p2align 4,,15
  24              		.arch armv7e-m
  25              		.syntax unified
  26              		.thumb
  27              		.thumb_func
  28              		.fpu fpv4-sp-d16
  29              		.type	chprintf, %function
  30              	chprintf:
  31              	.LVL0:
  32              	.LFB256:
  33              		.file 1 ".//ChibiOS//os/hal/lib/streams/chprintf.h"
  34              		.loc 1 69 77 view -0
  35              		.cfi_startproc
  36              		@ args = 4, pretend = 12, frame = 8
  37              		@ frame_needed = 0, uses_anonymous_args = 1
  38              		.loc 1 69 77 is_stmt 0 view .LVU1
  39 0000 0EB4     		push	{r1, r2, r3}
  40              		.cfi_def_cfa_offset 12
  41              		.cfi_offset 1, -12
  42              		.cfi_offset 2, -8
  43              		.cfi_offset 3, -4
  44 0002 00B5     		push	{lr}
  45              		.cfi_def_cfa_offset 16
  46              		.cfi_offset 14, -16
  47 0004 82B0     		sub	sp, sp, #8
  48              		.cfi_def_cfa_offset 24
  49              		.loc 1 69 77 view .LVU2
  50 0006 03AA     		add	r2, sp, #12
  51 0008 0A4B     		ldr	r3, .L6
  52 000a 52F8041B 		ldr	r1, [r2], #4
  53 000e 1B68     		ldr	r3, [r3]
  54 0010 0193     		str	r3, [sp, #4]
  55 0012 4FF00003 		mov	r3,#0
  56              		.loc 1 70 3 is_stmt 1 view .LVU3
  57              		.loc 1 71 3 view .LVU4
ARM GAS  /tmp/ccszA1D4.s 			page 2


  58              		.loc 1 73 3 view .LVU5
  59 0016 0092     		str	r2, [sp]
  60              		.loc 1 74 3 view .LVU6
  61              		.loc 1 74 21 is_stmt 0 view .LVU7
  62 0018 FFF7FEFF 		bl	chvprintf
  63              	.LVL1:
  64              		.loc 1 75 3 is_stmt 1 view .LVU8
  65              		.loc 1 77 3 view .LVU9
  66              		.loc 1 78 1 is_stmt 0 view .LVU10
  67 001c 054B     		ldr	r3, .L6
  68 001e 1A68     		ldr	r2, [r3]
  69 0020 019B     		ldr	r3, [sp, #4]
  70 0022 5A40     		eors	r2, r3, r2
  71 0024 04D1     		bne	.L5
  72 0026 02B0     		add	sp, sp, #8
  73              		.cfi_remember_state
  74              		.cfi_def_cfa_offset 16
  75              		@ sp needed
  76 0028 5DF804EB 		ldr	lr, [sp], #4
  77              		.cfi_restore 14
  78              		.cfi_def_cfa_offset 12
  79 002c 03B0     		add	sp, sp, #12
  80              		.cfi_restore 3
  81              		.cfi_restore 2
  82              		.cfi_restore 1
  83              		.cfi_def_cfa_offset 0
  84 002e 7047     		bx	lr
  85              	.L5:
  86              		.cfi_restore_state
  87 0030 FFF7FEFF 		bl	__stack_chk_fail
  88              	.LVL2:
  89              	.L7:
  90              		.loc 1 78 1 view .LVU11
  91              		.align	2
  92              	.L6:
  93 0034 00000000 		.word	.LC0
  94              		.cfi_endproc
  95              	.LFE256:
  96              		.size	chprintf, .-chprintf
  97              		.section	.rodata.fresult_str.str1.4,"aMS",%progbits,1
  98              		.align	2
  99              	.LC1:
 100 0000 556E6B6E 		.ascii	"Unknown\000"
 100      6F776E00 
 101              		.section	.rodata.fresult_str.cst4,"aM",%progbits,4
 102              		.align	2
 103              	.LC2:
 104 0000 00000000 		.word	__stack_chk_guard
 105              		.section	.text.fresult_str,"ax",%progbits
 106              		.align	1
 107              		.p2align 4,,15
 108              		.global	fresult_str
 109              		.syntax unified
 110              		.thumb
 111              		.thumb_func
 112              		.fpu fpv4-sp-d16
 113              		.type	fresult_str, %function
ARM GAS  /tmp/ccszA1D4.s 			page 3


 114              	fresult_str:
 115              	.LVL3:
 116              	.LFB257:
 117              		.file 2 ".//src/fat.c"
 118              		.loc 2 38 33 is_stmt 1 view -0
 119              		.cfi_startproc
 120              		@ args = 0, pretend = 0, frame = 8
 121              		@ frame_needed = 0, uses_anonymous_args = 0
 122              		.loc 2 38 33 is_stmt 0 view .LVU13
 123 0000 00B5     		push	{lr}
 124              		.cfi_def_cfa_offset 4
 125              		.cfi_offset 14, -4
 126 0002 0B4B     		ldr	r3, .L14
 127 0004 1328     		cmp	r0, #19
 128 0006 83B0     		sub	sp, sp, #12
 129              		.cfi_def_cfa_offset 16
 130              		.loc 2 38 33 view .LVU14
 131 0008 1B68     		ldr	r3, [r3]
 132 000a 0193     		str	r3, [sp, #4]
 133 000c 4FF00003 		mov	r3,#0
 134              		.loc 2 42 5 is_stmt 1 view .LVU15
 135 0010 96BF     		itet	ls
 136 0012 084B     		ldrls	r3, .L14+4
 137              		.loc 2 38 33 is_stmt 0 view .LVU16
 138 0014 0848     		ldrhi	r0, .L14+8
 139              	.LVL4:
 140              		.loc 2 38 33 view .LVU17
 141 0016 53F82000 		ldrls	r0, [r3, r0, lsl #2]
 142              		.loc 2 87 1 view .LVU18
 143 001a 054B     		ldr	r3, .L14
 144 001c 1A68     		ldr	r2, [r3]
 145 001e 019B     		ldr	r3, [sp, #4]
 146 0020 5A40     		eors	r2, r3, r2
 147 0022 02D1     		bne	.L13
 148 0024 03B0     		add	sp, sp, #12
 149              		.cfi_remember_state
 150              		.cfi_def_cfa_offset 4
 151              		@ sp needed
 152 0026 5DF804FB 		ldr	pc, [sp], #4
 153              	.L13:
 154              		.cfi_restore_state
 155 002a FFF7FEFF 		bl	__stack_chk_fail
 156              	.LVL5:
 157              	.L15:
 158 002e 00BF     		.align	2
 159              	.L14:
 160 0030 00000000 		.word	.LC2
 161 0034 00000000 		.word	.LANCHOR0
 162 0038 00000000 		.word	.LC1
 163              		.cfi_endproc
 164              	.LFE257:
 165              		.size	fresult_str, .-fresult_str
 166              		.section	.rodata.mountSDCard.str1.4,"aMS",%progbits,1
 167              		.align	2
 168              	.LC3:
 169 0000 00       		.ascii	"\000"
 170              		.section	.rodata.mountSDCard.cst4,"aM",%progbits,4
ARM GAS  /tmp/ccszA1D4.s 			page 4


 171              		.align	2
 172              	.LC4:
 173 0000 00000000 		.word	__stack_chk_guard
 174              		.section	.text.mountSDCard,"ax",%progbits
 175              		.align	1
 176              		.p2align 4,,15
 177              		.global	mountSDCard
 178              		.syntax unified
 179              		.thumb
 180              		.thumb_func
 181              		.fpu fpv4-sp-d16
 182              		.type	mountSDCard, %function
 183              	mountSDCard:
 184              	.LFB258:
 185              		.loc 2 93 23 is_stmt 1 view -0
 186              		.cfi_startproc
 187              		@ args = 0, pretend = 0, frame = 8
 188              		@ frame_needed = 0, uses_anonymous_args = 0
 189 0000 30B5     		push	{r4, r5, lr}
 190              		.cfi_def_cfa_offset 12
 191              		.cfi_offset 4, -12
 192              		.cfi_offset 5, -8
 193              		.cfi_offset 14, -4
 194              		.loc 2 95 8 is_stmt 0 view .LVU20
 195 0002 104D     		ldr	r5, .L24
 196              		.loc 2 93 23 view .LVU21
 197 0004 104B     		ldr	r3, .L24+4
 198              		.loc 2 95 8 view .LVU22
 199 0006 2C78     		ldrb	r4, [r5]	@ zero_extendqisi2
 200              		.loc 2 93 23 view .LVU23
 201 0008 83B0     		sub	sp, sp, #12
 202              		.cfi_def_cfa_offset 24
 203              		.loc 2 93 23 view .LVU24
 204 000a 1B68     		ldr	r3, [r3]
 205 000c 0193     		str	r3, [sp, #4]
 206 000e 4FF00003 		mov	r3,#0
 207              		.loc 2 95 5 is_stmt 1 view .LVU25
 208              		.loc 2 95 7 is_stmt 0 view .LVU26
 209 0012 3CB1     		cbz	r4, .L22
 210              	.L17:
 211              		.loc 2 108 1 view .LVU27
 212 0014 0C4B     		ldr	r3, .L24+4
 213 0016 1A68     		ldr	r2, [r3]
 214 0018 019B     		ldr	r3, [sp, #4]
 215 001a 5A40     		eors	r2, r3, r2
 216 001c 10D1     		bne	.L23
 217 001e 2046     		mov	r0, r4
 218 0020 03B0     		add	sp, sp, #12
 219              		.cfi_remember_state
 220              		.cfi_def_cfa_offset 12
 221              		@ sp needed
 222 0022 30BD     		pop	{r4, r5, pc}
 223              	.L22:
 224              		.cfi_restore_state
 225              		.loc 2 99 9 is_stmt 1 view .LVU28
 226              		.loc 2 99 13 is_stmt 0 view .LVU29
 227 0024 FFF7FEFF 		bl	sdio_connect
ARM GAS  /tmp/ccszA1D4.s 			page 5


 228              	.LVL6:
 229              		.loc 2 99 12 view .LVU30
 230 0028 0028     		cmp	r0, #0
 231 002a F3D1     		bne	.L17
 232              		.loc 2 102 9 is_stmt 1 view .LVU31
 233              		.loc 2 102 12 is_stmt 0 view .LVU32
 234 002c 0749     		ldr	r1, .L24+8
 235 002e 0848     		ldr	r0, .L24+12
 236 0030 2246     		mov	r2, r4
 237 0032 FFF7FEFF 		bl	f_mount
 238              	.LVL7:
 239              		.loc 2 102 11 view .LVU33
 240 0036 0028     		cmp	r0, #0
 241 0038 ECD1     		bne	.L17
 242              		.loc 2 105 9 is_stmt 1 view .LVU34
 243              		.loc 2 105 25 is_stmt 0 view .LVU35
 244 003a 0124     		movs	r4, #1
 245 003c 2C70     		strb	r4, [r5]
 246 003e E9E7     		b	.L17
 247              	.L23:
 248              		.loc 2 108 1 view .LVU36
 249 0040 FFF7FEFF 		bl	__stack_chk_fail
 250              	.LVL8:
 251              	.L25:
 252              		.align	2
 253              	.L24:
 254 0044 00000000 		.word	.LANCHOR1
 255 0048 00000000 		.word	.LC4
 256 004c 00000000 		.word	.LC3
 257 0050 00000000 		.word	.LANCHOR2
 258              		.cfi_endproc
 259              	.LFE258:
 260              		.size	mountSDCard, .-mountSDCard
 261              		.section	.rodata.unmountSDCard.cst4,"aM",%progbits,4
 262              		.align	2
 263              	.LC5:
 264 0000 00000000 		.word	__stack_chk_guard
 265              		.section	.text.unmountSDCard,"ax",%progbits
 266              		.align	1
 267              		.p2align 4,,15
 268              		.global	unmountSDCard
 269              		.syntax unified
 270              		.thumb
 271              		.thumb_func
 272              		.fpu fpv4-sp-d16
 273              		.type	unmountSDCard, %function
 274              	unmountSDCard:
 275              	.LFB259:
 276              		.loc 2 113 25 is_stmt 1 view -0
 277              		.cfi_startproc
 278              		@ args = 0, pretend = 0, frame = 8
 279              		@ frame_needed = 0, uses_anonymous_args = 0
 280 0000 30B5     		push	{r4, r5, lr}
 281              		.cfi_def_cfa_offset 12
 282              		.cfi_offset 4, -12
 283              		.cfi_offset 5, -8
 284              		.cfi_offset 14, -4
ARM GAS  /tmp/ccszA1D4.s 			page 6


 285              		.loc 2 114 8 is_stmt 0 view .LVU38
 286 0002 104D     		ldr	r5, .L35
 287              		.loc 2 113 25 view .LVU39
 288 0004 104B     		ldr	r3, .L35+4
 289              		.loc 2 114 8 view .LVU40
 290 0006 2C78     		ldrb	r4, [r5]	@ zero_extendqisi2
 291              		.loc 2 113 25 view .LVU41
 292 0008 83B0     		sub	sp, sp, #12
 293              		.cfi_def_cfa_offset 24
 294              		.loc 2 113 25 view .LVU42
 295 000a 1B68     		ldr	r3, [r3]
 296 000c 0193     		str	r3, [sp, #4]
 297 000e 4FF00003 		mov	r3,#0
 298              		.loc 2 114 5 is_stmt 1 view .LVU43
 299              		.loc 2 114 7 is_stmt 0 view .LVU44
 300 0012 44B9     		cbnz	r4, .L33
 301              		.loc 2 127 12 view .LVU45
 302 0014 0124     		movs	r4, #1
 303              	.L27:
 304              		.loc 2 128 1 view .LVU46
 305 0016 0C4B     		ldr	r3, .L35+4
 306 0018 1A68     		ldr	r2, [r3]
 307 001a 019B     		ldr	r3, [sp, #4]
 308 001c 5A40     		eors	r2, r3, r2
 309 001e 0FD1     		bne	.L34
 310 0020 2046     		mov	r0, r4
 311 0022 03B0     		add	sp, sp, #12
 312              		.cfi_remember_state
 313              		.cfi_def_cfa_offset 12
 314              		@ sp needed
 315 0024 30BD     		pop	{r4, r5, pc}
 316              	.L33:
 317              		.cfi_restore_state
 318              		.loc 2 118 9 is_stmt 1 view .LVU47
 319              		.loc 2 118 12 is_stmt 0 view .LVU48
 320 0026 FFF7FEFF 		bl	sdio_disconnect
 321              	.LVL9:
 322              		.loc 2 118 11 view .LVU49
 323 002a 0246     		mov	r2, r0
 324 002c 08B1     		cbz	r0, .L28
 325              	.L29:
 326              		.loc 2 119 20 view .LVU50
 327 002e 0024     		movs	r4, #0
 328 0030 F1E7     		b	.L27
 329              	.L28:
 330              		.loc 2 121 9 is_stmt 1 view .LVU51
 331              		.loc 2 121 12 is_stmt 0 view .LVU52
 332 0032 0649     		ldr	r1, .L35+8
 333 0034 FFF7FEFF 		bl	f_mount
 334              	.LVL10:
 335              		.loc 2 121 11 view .LVU53
 336 0038 0028     		cmp	r0, #0
 337 003a F8D1     		bne	.L29
 338              		.loc 2 124 9 is_stmt 1 view .LVU54
 339              		.loc 2 124 25 is_stmt 0 view .LVU55
 340 003c 2870     		strb	r0, [r5]
 341 003e EAE7     		b	.L27
ARM GAS  /tmp/ccszA1D4.s 			page 7


 342              	.L34:
 343              		.loc 2 128 1 view .LVU56
 344 0040 FFF7FEFF 		bl	__stack_chk_fail
 345              	.LVL11:
 346              	.L36:
 347              		.align	2
 348              	.L35:
 349 0044 00000000 		.word	.LANCHOR1
 350 0048 00000000 		.word	.LC5
 351 004c 00000000 		.word	.LC3
 352              		.cfi_endproc
 353              	.LFE259:
 354              		.size	unmountSDCard, .-unmountSDCard
 355              		.section	.rodata.isSDCardMounted.cst4,"aM",%progbits,4
 356              		.align	2
 357              	.LC6:
 358 0000 00000000 		.word	__stack_chk_guard
 359              		.section	.text.isSDCardMounted,"ax",%progbits
 360              		.align	1
 361              		.p2align 4,,15
 362              		.global	isSDCardMounted
 363              		.syntax unified
 364              		.thumb
 365              		.thumb_func
 366              		.fpu fpv4-sp-d16
 367              		.type	isSDCardMounted, %function
 368              	isSDCardMounted:
 369              	.LFB260:
 370              		.loc 2 133 27 is_stmt 1 view -0
 371              		.cfi_startproc
 372              		@ args = 0, pretend = 0, frame = 8
 373              		@ frame_needed = 0, uses_anonymous_args = 0
 374 0000 00B5     		push	{lr}
 375              		.cfi_def_cfa_offset 4
 376              		.cfi_offset 14, -4
 377              		.loc 2 134 12 is_stmt 0 view .LVU58
 378 0002 094B     		ldr	r3, .L41
 379              		.loc 2 133 27 view .LVU59
 380 0004 094A     		ldr	r2, .L41+4
 381              		.loc 2 134 12 view .LVU60
 382 0006 1878     		ldrb	r0, [r3]	@ zero_extendqisi2
 383              		.loc 2 135 1 view .LVU61
 384 0008 084B     		ldr	r3, .L41+4
 385              		.loc 2 133 27 view .LVU62
 386 000a 83B0     		sub	sp, sp, #12
 387              		.cfi_def_cfa_offset 16
 388              		.loc 2 133 27 view .LVU63
 389 000c 1268     		ldr	r2, [r2]
 390 000e 0192     		str	r2, [sp, #4]
 391 0010 4FF00002 		mov	r2,#0
 392              		.loc 2 134 5 is_stmt 1 view .LVU64
 393              		.loc 2 135 1 is_stmt 0 view .LVU65
 394 0014 1A68     		ldr	r2, [r3]
 395 0016 019B     		ldr	r3, [sp, #4]
 396 0018 5A40     		eors	r2, r3, r2
 397 001a 02D1     		bne	.L40
 398 001c 03B0     		add	sp, sp, #12
ARM GAS  /tmp/ccszA1D4.s 			page 8


 399              		.cfi_remember_state
 400              		.cfi_def_cfa_offset 4
 401              		@ sp needed
 402 001e 5DF804FB 		ldr	pc, [sp], #4
 403              	.L40:
 404              		.cfi_restore_state
 405 0022 FFF7FEFF 		bl	__stack_chk_fail
 406              	.LVL12:
 407              	.L42:
 408 0026 00BF     		.align	2
 409              	.L41:
 410 0028 00000000 		.word	.LANCHOR1
 411 002c 00000000 		.word	.LC6
 412              		.cfi_endproc
 413              	.LFE260:
 414              		.size	isSDCardMounted, .-isSDCardMounted
 415              		.section	.rodata.scan_files.str1.4,"aMS",%progbits,1
 416              		.align	2
 417              	.LC7:
 418 0000 2534642D 		.ascii	"%4d-%02d-%02d %02d:%02d:%02d \000"
 418      25303264 
 418      2D253032 
 418      64202530 
 418      32643A25 
 419 001e 0000     		.align	2
 420              	.LC8:
 421 0020 3C444952 		.ascii	"<DIR> %s/\015\012\000"
 421      3E202573 
 421      2F0D0A00 
 422              		.align	2
 423              	.LC9:
 424 002c 20202020 		.ascii	"      %s/%s\015\012\000"
 424      20202573 
 424      2F25730D 
 424      0A00
 425 003a 0000     		.align	2
 426              	.LC10:
 427 003c 46533A20 		.ascii	"FS: f_opendir() failed\015\012\000"
 427      665F6F70 
 427      656E6469 
 427      72282920 
 427      6661696C 
 428              		.section	.rodata.scan_files.cst4,"aM",%progbits,4
 429              		.align	2
 430              	.LC11:
 431 0000 00000000 		.word	__stack_chk_guard
 432              		.section	.text.scan_files,"ax",%progbits
 433              		.align	1
 434              		.p2align 4,,15
 435              		.global	scan_files
 436              		.syntax unified
 437              		.thumb
 438              		.thumb_func
 439              		.fpu fpv4-sp-d16
 440              		.type	scan_files, %function
 441              	scan_files:
 442              	.LVL13:
ARM GAS  /tmp/ccszA1D4.s 			page 9


 443              	.LFB261:
 444              		.loc 2 140 59 is_stmt 1 view -0
 445              		.cfi_startproc
 446              		@ args = 0, pretend = 0, frame = 72
 447              		@ frame_needed = 0, uses_anonymous_args = 0
 448              		.loc 2 140 59 is_stmt 0 view .LVU67
 449 0000 2DE9F047 		push	{r4, r5, r6, r7, r8, r9, r10, lr}
 450              		.cfi_def_cfa_offset 32
 451              		.cfi_offset 4, -32
 452              		.cfi_offset 5, -28
 453              		.cfi_offset 6, -24
 454              		.cfi_offset 7, -20
 455              		.cfi_offset 8, -16
 456              		.cfi_offset 9, -12
 457              		.cfi_offset 10, -8
 458              		.cfi_offset 14, -4
 459 0004 3B4A     		ldr	r2, .L59
 460 0006 96B0     		sub	sp, sp, #88
 461              		.cfi_def_cfa_offset 120
 462              		.loc 2 140 59 view .LVU68
 463 0008 0646     		mov	r6, r0
 464              		.loc 2 150 16 view .LVU69
 465 000a 0023     		movs	r3, #0
 466              		.loc 2 156 11 view .LVU70
 467 000c 04A8     		add	r0, sp, #16
 468              	.LVL14:
 469              		.loc 2 140 59 view .LVU71
 470 000e 1268     		ldr	r2, [r2]
 471 0010 1592     		str	r2, [sp, #84]
 472 0012 4FF00002 		mov	r2,#0
 473              		.loc 2 141 5 is_stmt 1 view .LVU72
 474              		.loc 2 142 5 view .LVU73
 475              		.loc 2 143 5 view .LVU74
 476              		.loc 2 144 5 view .LVU75
 477              		.loc 2 146 5 view .LVU76
 478              		.loc 2 147 5 view .LVU77
 479              		.loc 2 150 5 view .LVU78
 480              		.loc 2 140 59 is_stmt 0 view .LVU79
 481 0016 0D46     		mov	r5, r1
 482              		.loc 2 151 16 view .LVU80
 483 0018 CDE91333 		strd	r3, r3, [sp, #76]
 484              		.loc 2 156 5 is_stmt 1 view .LVU81
 485              		.loc 2 156 11 is_stmt 0 view .LVU82
 486 001c FFF7FEFF 		bl	f_opendir
 487              	.LVL15:
 488              		.loc 2 157 5 is_stmt 1 view .LVU83
 489              		.loc 2 157 8 is_stmt 0 view .LVU84
 490 0020 0028     		cmp	r0, #0
 491 0022 5FD1     		bne	.L44
 492              		.loc 2 161 9 is_stmt 1 view .LVU85
 493              		.loc 2 161 13 is_stmt 0 view .LVU86
 494 0024 2846     		mov	r0, r5
 495              	.LVL16:
 496              		.loc 2 161 13 view .LVU87
 497 0026 FFF7FEFF 		bl	strlen
 498              	.LVL17:
 499              		.loc 2 195 13 view .LVU88
ARM GAS  /tmp/ccszA1D4.s 			page 10


 500 002a DFF8D080 		ldr	r8, .L59+8
 501              		.loc 2 221 17 view .LVU89
 502 002e DFF8D0A0 		ldr	r10, .L59+12
 503              		.loc 2 208 17 view .LVU90
 504 0032 DFF8D090 		ldr	r9, .L59+16
 505              		.loc 2 161 13 view .LVU91
 506 0036 0746     		mov	r7, r0
 507              	.LVL18:
 508              	.L47:
 509              		.loc 2 162 9 is_stmt 1 view .LVU92
 510              		.loc 2 166 13 view .LVU93
 511              		.loc 2 166 19 is_stmt 0 view .LVU94
 512 0038 0DA9     		add	r1, sp, #52
 513 003a 04A8     		add	r0, sp, #16
 514 003c FFF7FEFF 		bl	f_readdir
 515              	.LVL19:
 516              		.loc 2 170 13 is_stmt 1 view .LVU95
 517              		.loc 2 170 16 is_stmt 0 view .LVU96
 518 0040 0446     		mov	r4, r0
 519 0042 0028     		cmp	r0, #0
 520 0044 3DD1     		bne	.L46
 521              	.L57:
 522              		.loc 2 170 42 discriminator 1 view .LVU97
 523 0046 9DF83D40 		ldrb	r4, [sp, #61]	@ zero_extendqisi2
 524              		.loc 2 170 30 discriminator 1 view .LVU98
 525 004a 002C     		cmp	r4, #0
 526 004c 39D0     		beq	.L46
 527              		.loc 2 176 13 is_stmt 1 view .LVU99
 528              		.loc 2 176 16 is_stmt 0 view .LVU100
 529 004e 2E2C     		cmp	r4, #46
 530 0050 F2D0     		beq	.L47
 531              		.loc 2 179 13 is_stmt 1 view .LVU101
 532              	.LVL20:
 533              		.loc 2 183 13 view .LVU102
 534              		.loc 2 189 46 is_stmt 0 view .LVU103
 535 0052 BDF83A20 		ldrh	r2, [sp, #58]
 536              		.loc 2 183 45 view .LVU104
 537 0056 BDF83830 		ldrh	r3, [sp, #56]
 538              	.LVL21:
 539              		.loc 2 184 13 is_stmt 1 view .LVU105
 540              		.loc 2 185 13 view .LVU106
 541              		.loc 2 189 13 view .LVU107
 542              		.loc 2 190 13 view .LVU108
 543              		.loc 2 191 13 view .LVU109
 544              		.loc 2 195 13 view .LVU110
 545              		.loc 2 191 42 is_stmt 0 view .LVU111
 546 005a 02F01F01 		and	r1, r2, #31
 547              		.loc 2 191 21 view .LVU112
 548 005e 4900     		lsls	r1, r1, #1
 549              		.loc 2 183 53 view .LVU113
 550 0060 580A     		lsrs	r0, r3, #9
 551              	.LVL22:
 552              		.loc 2 190 21 view .LVU114
 553 0062 C2F34514 		ubfx	r4, r2, #5, #6
 554              		.loc 2 195 13 view .LVU115
 555 0066 0391     		str	r1, [sp, #12]
 556              		.loc 2 189 21 view .LVU116
ARM GAS  /tmp/ccszA1D4.s 			page 11


 557 0068 D20A     		lsrs	r2, r2, #11
 558              	.LVL23:
 559              		.loc 2 185 19 view .LVU117
 560 006a 03F01F01 		and	r1, r3, #31
 561              		.loc 2 189 21 view .LVU118
 562 006e CDE90124 		strd	r2, r4, [sp, #4]
 563              		.loc 2 185 19 view .LVU119
 564 0072 0091     		str	r1, [sp]
 565              		.loc 2 195 13 view .LVU120
 566 0074 00F2BC72 		addw	r2, r0, #1980
 567 0078 C3F34313 		ubfx	r3, r3, #5, #4
 568              	.LVL24:
 569              		.loc 2 195 13 view .LVU121
 570 007c 4146     		mov	r1, r8
 571 007e 3046     		mov	r0, r6
 572 0080 FFF7FEFF 		bl	chprintf
 573              	.LVL25:
 574              		.loc 2 199 13 is_stmt 1 view .LVU122
 575              		.loc 2 199 16 is_stmt 0 view .LVU123
 576 0084 9DF83C30 		ldrb	r3, [sp, #60]	@ zero_extendqisi2
 577 0088 DB06     		lsls	r3, r3, #27
 578 008a 23D5     		bpl	.L48
 579              		.loc 2 203 17 is_stmt 1 view .LVU124
 580              	.LVL26:
 581              		.loc 2 203 27 is_stmt 0 view .LVU125
 582 008c 2F23     		movs	r3, #47
 583              		.loc 2 203 23 view .LVU126
 584 008e 781C     		adds	r0, r7, #1
 585              	.LVL27:
 586              		.loc 2 203 27 view .LVU127
 587 0090 EB55     		strb	r3, [r5, r7]
 588              		.loc 2 204 17 is_stmt 1 view .LVU128
 589 0092 0DF13D01 		add	r1, sp, #61
 590              	.LVL28:
 591              		.loc 2 204 17 is_stmt 0 view .LVU129
 592 0096 2844     		add	r0, r0, r5
 593              	.LVL29:
 594              		.loc 2 204 17 view .LVU130
 595 0098 FFF7FEFF 		bl	strcpy
 596              	.LVL30:
 597              		.loc 2 208 17 is_stmt 1 view .LVU131
 598 009c 2A46     		mov	r2, r5
 599 009e 4946     		mov	r1, r9
 600 00a0 3046     		mov	r0, r6
 601 00a2 FFF7FEFF 		bl	chprintf
 602              	.LVL31:
 603              		.loc 2 212 17 view .LVU132
 604              		.loc 2 212 23 is_stmt 0 view .LVU133
 605 00a6 2946     		mov	r1, r5
 606 00a8 3046     		mov	r0, r6
 607 00aa FFF7FEFF 		bl	scan_files
 608              	.LVL32:
 609 00ae 0446     		mov	r4, r0
 610              	.LVL33:
 611              		.loc 2 213 17 is_stmt 1 view .LVU134
 612              		.loc 2 213 20 is_stmt 0 view .LVU135
 613 00b0 38B9     		cbnz	r0, .L46
ARM GAS  /tmp/ccszA1D4.s 			page 12


 614              		.loc 2 216 17 is_stmt 1 view .LVU136
 615              	.LVL34:
 616              		.loc 2 216 27 is_stmt 0 view .LVU137
 617 00b2 E855     		strb	r0, [r5, r7]
 618              		.loc 2 162 9 is_stmt 1 view .LVU138
 619              		.loc 2 166 13 view .LVU139
 620              		.loc 2 166 19 is_stmt 0 view .LVU140
 621 00b4 0DA9     		add	r1, sp, #52
 622 00b6 04A8     		add	r0, sp, #16
 623              	.LVL35:
 624              		.loc 2 166 19 view .LVU141
 625 00b8 FFF7FEFF 		bl	f_readdir
 626              	.LVL36:
 627              		.loc 2 170 13 is_stmt 1 view .LVU142
 628              		.loc 2 170 16 is_stmt 0 view .LVU143
 629 00bc 0446     		mov	r4, r0
 630 00be 0028     		cmp	r0, #0
 631 00c0 C1D0     		beq	.L57
 632              	.LVL37:
 633              	.L46:
 634              		.loc 2 227 5 is_stmt 1 view .LVU144
 635              		.loc 2 228 1 is_stmt 0 view .LVU145
 636 00c2 0C4B     		ldr	r3, .L59
 637 00c4 1A68     		ldr	r2, [r3]
 638 00c6 159B     		ldr	r3, [sp, #84]
 639 00c8 5A40     		eors	r2, r3, r2
 640 00ca 11D1     		bne	.L58
 641 00cc 2046     		mov	r0, r4
 642 00ce 16B0     		add	sp, sp, #88
 643              		.cfi_remember_state
 644              		.cfi_def_cfa_offset 32
 645              		@ sp needed
 646 00d0 BDE8F087 		pop	{r4, r5, r6, r7, r8, r9, r10, pc}
 647              	.LVL38:
 648              	.L48:
 649              		.cfi_restore_state
 650              		.loc 2 221 17 is_stmt 1 view .LVU146
 651 00d4 0DF13D03 		add	r3, sp, #61
 652              	.LVL39:
 653              		.loc 2 221 17 is_stmt 0 view .LVU147
 654 00d8 2A46     		mov	r2, r5
 655 00da 5146     		mov	r1, r10
 656 00dc 3046     		mov	r0, r6
 657 00de FFF7FEFF 		bl	chprintf
 658              	.LVL40:
 659              		.loc 2 221 17 view .LVU148
 660 00e2 A9E7     		b	.L47
 661              	.LVL41:
 662              	.L44:
 663              		.loc 2 221 17 view .LVU149
 664 00e4 0446     		mov	r4, r0
 665              		.loc 2 225 9 is_stmt 1 view .LVU150
 666 00e6 0449     		ldr	r1, .L59+4
 667 00e8 3046     		mov	r0, r6
 668              	.LVL42:
 669              		.loc 2 225 9 is_stmt 0 view .LVU151
 670 00ea FFF7FEFF 		bl	chprintf
ARM GAS  /tmp/ccszA1D4.s 			page 13


 671              	.LVL43:
 672 00ee E8E7     		b	.L46
 673              	.LVL44:
 674              	.L58:
 675              		.loc 2 228 1 view .LVU152
 676 00f0 FFF7FEFF 		bl	__stack_chk_fail
 677              	.LVL45:
 678              	.L60:
 679              		.align	2
 680              	.L59:
 681 00f4 00000000 		.word	.LC11
 682 00f8 3C000000 		.word	.LC10
 683 00fc 00000000 		.word	.LC7
 684 0100 2C000000 		.word	.LC9
 685 0104 20000000 		.word	.LC8
 686              		.cfi_endproc
 687              	.LFE261:
 688              		.size	scan_files, .-scan_files
 689              		.section	.rodata.getSDCardClusterSize.cst4,"aM",%progbits,4
 690              		.align	2
 691              	.LC12:
 692 0000 00000000 		.word	__stack_chk_guard
 693              		.section	.text.getSDCardClusterSize,"ax",%progbits
 694              		.align	1
 695              		.p2align 4,,15
 696              		.global	getSDCardClusterSize
 697              		.syntax unified
 698              		.thumb
 699              		.thumb_func
 700              		.fpu fpv4-sp-d16
 701              		.type	getSDCardClusterSize, %function
 702              	getSDCardClusterSize:
 703              	.LFB262:
 704              		.loc 2 234 32 is_stmt 1 view -0
 705              		.cfi_startproc
 706              		@ args = 0, pretend = 0, frame = 8
 707              		@ frame_needed = 0, uses_anonymous_args = 0
 708 0000 00B5     		push	{lr}
 709              		.cfi_def_cfa_offset 4
 710              		.cfi_offset 14, -4
 711              		.loc 2 235 18 is_stmt 0 view .LVU154
 712 0002 094B     		ldr	r3, .L65
 713              		.loc 2 234 32 view .LVU155
 714 0004 094A     		ldr	r2, .L65+4
 715              		.loc 2 235 18 view .LVU156
 716 0006 9878     		ldrb	r0, [r3, #2]	@ zero_extendqisi2
 717              		.loc 2 236 1 view .LVU157
 718 0008 084B     		ldr	r3, .L65+4
 719              		.loc 2 234 32 view .LVU158
 720 000a 83B0     		sub	sp, sp, #12
 721              		.cfi_def_cfa_offset 16
 722              		.loc 2 234 32 view .LVU159
 723 000c 1268     		ldr	r2, [r2]
 724 000e 0192     		str	r2, [sp, #4]
 725 0010 4FF00002 		mov	r2,#0
 726              		.loc 2 235 5 is_stmt 1 view .LVU160
 727              		.loc 2 236 1 is_stmt 0 view .LVU161
ARM GAS  /tmp/ccszA1D4.s 			page 14


 728 0014 1A68     		ldr	r2, [r3]
 729 0016 019B     		ldr	r3, [sp, #4]
 730 0018 5A40     		eors	r2, r3, r2
 731 001a 02D1     		bne	.L64
 732 001c 03B0     		add	sp, sp, #12
 733              		.cfi_remember_state
 734              		.cfi_def_cfa_offset 4
 735              		@ sp needed
 736 001e 5DF804FB 		ldr	pc, [sp], #4
 737              	.L64:
 738              		.cfi_restore_state
 739 0022 FFF7FEFF 		bl	__stack_chk_fail
 740              	.LVL46:
 741              	.L66:
 742 0026 00BF     		.align	2
 743              	.L65:
 744 0028 00000000 		.word	.LANCHOR2
 745 002c 00000000 		.word	.LC12
 746              		.cfi_endproc
 747              	.LFE262:
 748              		.size	getSDCardClusterSize, .-getSDCardClusterSize
 749              		.section	.rodata.fverbose_error.str1.4,"aMS",%progbits,1
 750              		.align	2
 751              	.LC13:
 752 0000 0925732E 		.ascii	"\011%s.\015\012\000"
 752      0D0A00
 753              		.section	.rodata.fverbose_error.cst4,"aM",%progbits,4
 754              		.align	2
 755              	.LC14:
 756 0000 00000000 		.word	__stack_chk_guard
 757              		.section	.text.fverbose_error,"ax",%progbits
 758              		.align	1
 759              		.p2align 4,,15
 760              		.global	fverbose_error
 761              		.syntax unified
 762              		.thumb
 763              		.thumb_func
 764              		.fpu fpv4-sp-d16
 765              		.type	fverbose_error, %function
 766              	fverbose_error:
 767              	.LVL47:
 768              	.LFB263:
 769              		.loc 2 240 61 is_stmt 1 view -0
 770              		.cfi_startproc
 771              		@ args = 0, pretend = 0, frame = 8
 772              		@ frame_needed = 0, uses_anonymous_args = 0
 773              		.loc 2 240 61 is_stmt 0 view .LVU163
 774 0000 00B5     		push	{lr}
 775              		.cfi_def_cfa_offset 4
 776              		.cfi_offset 14, -4
 777 0002 0C4B     		ldr	r3, .L74
 778 0004 1329     		cmp	r1, #19
 779 0006 83B0     		sub	sp, sp, #12
 780              		.cfi_def_cfa_offset 16
 781              		.loc 2 240 61 view .LVU164
 782 0008 1B68     		ldr	r3, [r3]
 783 000a 0193     		str	r3, [sp, #4]
ARM GAS  /tmp/ccszA1D4.s 			page 15


 784 000c 4FF00003 		mov	r3,#0
 785              		.loc 2 241 5 is_stmt 1 view .LVU165
 786              	.LVL48:
 787              	.LBB4:
 788              	.LBI4:
 789              		.loc 2 38 7 view .LVU166
 790              	.LBE4:
 791              		.loc 2 42 5 view .LVU167
 792 0010 96BF     		itet	ls
 793 0012 094B     		ldrls	r3, .L74+4
 794              		.loc 2 240 61 is_stmt 0 view .LVU168
 795 0014 094A     		ldrhi	r2, .L74+8
 796              	.LVL49:
 797              		.loc 2 240 61 view .LVU169
 798 0016 53F82120 		ldrls	r2, [r3, r1, lsl #2]
 799              		.loc 2 241 5 view .LVU170
 800 001a 064B     		ldr	r3, .L74
 801 001c 1968     		ldr	r1, [r3]
 802 001e 019B     		ldr	r3, [sp, #4]
 803 0020 5940     		eors	r1, r3, r1
 804              	.LVL50:
 805              		.loc 2 241 5 view .LVU171
 806 0022 05D1     		bne	.L73
 807 0024 0649     		ldr	r1, .L74+12
 808              		.loc 2 242 1 view .LVU172
 809 0026 03B0     		add	sp, sp, #12
 810              		.cfi_remember_state
 811              		.cfi_def_cfa_offset 4
 812              		@ sp needed
 813 0028 5DF804EB 		ldr	lr, [sp], #4
 814              		.cfi_restore 14
 815              		.cfi_def_cfa_offset 0
 816              		.loc 2 241 5 view .LVU173
 817 002c FFF7FEBF 		b	chprintf
 818              	.LVL51:
 819              	.L73:
 820              		.cfi_restore_state
 821              		.loc 2 241 5 view .LVU174
 822 0030 FFF7FEFF 		bl	__stack_chk_fail
 823              	.LVL52:
 824              	.L75:
 825              		.loc 2 241 5 view .LVU175
 826              		.align	2
 827              	.L74:
 828 0034 00000000 		.word	.LC14
 829 0038 00000000 		.word	.LANCHOR0
 830 003c 00000000 		.word	.LC1
 831 0040 00000000 		.word	.LC13
 832              		.cfi_endproc
 833              	.LFE263:
 834              		.size	fverbose_error, .-fverbose_error
 835              		.section	.rodata.str1.4,"aMS",%progbits,1
 836              		.align	2
 837              	.LC15:
 838 0000 53756363 		.ascii	"Succeeded\000"
 838      65656465 
 838      6400
ARM GAS  /tmp/ccszA1D4.s 			page 16


 839 000a 0000     		.align	2
 840              	.LC16:
 841 000c 41206861 		.ascii	"A hard error occurred in the low level disk I/O lay"
 841      72642065 
 841      72726F72 
 841      206F6363 
 841      75727265 
 842 003f 657200   		.ascii	"er\000"
 843 0042 0000     		.align	2
 844              	.LC17:
 845 0044 41737365 		.ascii	"Assertion failed\000"
 845      7274696F 
 845      6E206661 
 845      696C6564 
 845      00
 846 0055 000000   		.align	2
 847              	.LC18:
 848 0058 54686520 		.ascii	"The physical drive cannot work\000"
 848      70687973 
 848      6963616C 
 848      20647269 
 848      76652063 
 849 0077 00       		.align	2
 850              	.LC19:
 851 0078 436F756C 		.ascii	"Could not find the file\000"
 851      64206E6F 
 851      74206669 
 851      6E642074 
 851      68652066 
 852              		.align	2
 853              	.LC20:
 854 0090 436F756C 		.ascii	"Could not find the path\000"
 854      64206E6F 
 854      74206669 
 854      6E642074 
 854      68652070 
 855              		.align	2
 856              	.LC21:
 857 00a8 54686520 		.ascii	"The path name format is invalid\000"
 857      70617468 
 857      206E616D 
 857      6520666F 
 857      726D6174 
 858              		.align	2
 859              	.LC22:
 860 00c8 41636365 		.ascii	"Access denied due to prohibited access or directory"
 860      73732064 
 860      656E6965 
 860      64206475 
 860      6520746F 
 861 00fb 2066756C 		.ascii	" full\000"
 861      6C00
 862 0101 000000   		.align	2
 863              	.LC23:
 864 0104 41636365 		.ascii	"Access denied due to prohibited access\000"
 864      73732064 
 864      656E6965 
ARM GAS  /tmp/ccszA1D4.s 			page 17


 864      64206475 
 864      6520746F 
 865 012b 00       		.align	2
 866              	.LC24:
 867 012c 54686520 		.ascii	"The file/directory object is invalid\000"
 867      66696C65 
 867      2F646972 
 867      6563746F 
 867      7279206F 
 868 0151 000000   		.align	2
 869              	.LC25:
 870 0154 54686520 		.ascii	"The physical drive is write protected\000"
 870      70687973 
 870      6963616C 
 870      20647269 
 870      76652069 
 871 017a 0000     		.align	2
 872              	.LC26:
 873 017c 54686520 		.ascii	"The logical drive number is invalid\000"
 873      6C6F6769 
 873      63616C20 
 873      64726976 
 873      65206E75 
 874              		.align	2
 875              	.LC27:
 876 01a0 54686520 		.ascii	"The volume has no work area\000"
 876      766F6C75 
 876      6D652068 
 876      6173206E 
 876      6F20776F 
 877              		.align	2
 878              	.LC28:
 879 01bc 54686572 		.ascii	"There is no valid FAT volume\000"
 879      65206973 
 879      206E6F20 
 879      76616C69 
 879      64204641 
 880 01d9 000000   		.align	2
 881              	.LC29:
 882 01dc 54686520 		.ascii	"The f_mkfs() aborted due to any parameter error\000"
 882      665F6D6B 
 882      66732829 
 882      2061626F 
 882      72746564 
 883              		.align	2
 884              	.LC30:
 885 020c 436F756C 		.ascii	"Could not get a grant to access the volume within d"
 885      64206E6F 
 885      74206765 
 885      74206120 
 885      6772616E 
 886 023f 6566696E 		.ascii	"efined period\000"
 886      65642070 
 886      6572696F 
 886      6400
 887 024d 000000   		.align	2
 888              	.LC31:
ARM GAS  /tmp/ccszA1D4.s 			page 18


 889 0250 54686520 		.ascii	"The operation is rejected according to the file sha"
 889      6F706572 
 889      6174696F 
 889      6E206973 
 889      2072656A 
 890 0283 72696E67 		.ascii	"ring policy\000"
 890      20706F6C 
 890      69637900 
 891 028f 00       		.align	2
 892              	.LC32:
 893 0290 4C464E20 		.ascii	"LFN working buffer could not be allocated\000"
 893      776F726B 
 893      696E6720 
 893      62756666 
 893      65722063 
 894 02ba 0000     		.align	2
 895              	.LC33:
 896 02bc 4E756D62 		.ascii	"Number of open files > _FS_SHARE\000"
 896      6572206F 
 896      66206F70 
 896      656E2066 
 896      696C6573 
 897 02dd 000000   		.align	2
 898              	.LC34:
 899 02e0 47697665 		.ascii	"Given parameter is invalid\000"
 899      6E207061 
 899      72616D65 
 899      74657220 
 899      69732069 
 900              		.section	.bss.SDC_FS,"aw",%nobits
 901              		.align	2
 902              		.set	.LANCHOR2,. + 0
 903              		.type	SDC_FS, %object
 904              		.size	SDC_FS, 560
 905              	SDC_FS:
 906 0000 00000000 		.space	560
 906      00000000 
 906      00000000 
 906      00000000 
 906      00000000 
 907              		.section	.bss.sd_card_mounted,"aw",%nobits
 908              		.set	.LANCHOR1,. + 0
 909              		.type	sd_card_mounted, %object
 910              		.size	sd_card_mounted, 1
 911              	sd_card_mounted:
 912 0000 00       		.space	1
 913              		.section	.rodata.CSWTCH.8,"a"
 914              		.align	2
 915              		.set	.LANCHOR0,. + 0
 916              		.type	CSWTCH.8, %object
 917              		.size	CSWTCH.8, 80
 918              	CSWTCH.8:
 919 0000 00000000 		.word	.LC15
 920 0004 0C000000 		.word	.LC16
 921 0008 44000000 		.word	.LC17
 922 000c 58000000 		.word	.LC18
 923 0010 78000000 		.word	.LC19
ARM GAS  /tmp/ccszA1D4.s 			page 19


 924 0014 90000000 		.word	.LC20
 925 0018 A8000000 		.word	.LC21
 926 001c C8000000 		.word	.LC22
 927 0020 04010000 		.word	.LC23
 928 0024 2C010000 		.word	.LC24
 929 0028 54010000 		.word	.LC25
 930 002c 7C010000 		.word	.LC26
 931 0030 A0010000 		.word	.LC27
 932 0034 BC010000 		.word	.LC28
 933 0038 DC010000 		.word	.LC29
 934 003c 0C020000 		.word	.LC30
 935 0040 50020000 		.word	.LC31
 936 0044 90020000 		.word	.LC32
 937 0048 BC020000 		.word	.LC33
 938 004c E0020000 		.word	.LC34
 939              		.text
 940              	.Letext0:
 941              		.file 3 "/usr/lib/gcc/arm-none-eabi/9.2.1/include/stddef.h"
 942              		.file 4 "/usr/lib/gcc/arm-none-eabi/9.2.1/include/stdint.h"
 943              		.file 5 ".//ChibiOS//os/rt/ports/ARMCMx/compilers/GCC/chtypes.h"
 944              		.file 6 ".//ChibiOS//os/rt/include/chsystypes.h"
 945              		.file 7 ".//ChibiOS//os/rt/include/chschd.h"
 946              		.file 8 ".//ChibiOS//os/ext/CMSIS/include/core_cm4.h"
 947              		.file 9 ".//ChibiOS//os/ext/CMSIS/ST/system_stm32f4xx.h"
 948              		.file 10 ".//ChibiOS//os/ext/CMSIS/ST/stm32f407xx.h"
 949              		.file 11 ".//ChibiOS//os/rt/ports/ARMCMx/chcore.h"
 950              		.file 12 ".//ChibiOS//os/rt/ports/ARMCMx/chcore_v7m.h"
 951              		.file 13 ".//ChibiOS//os/rt/include/chdebug.h"
 952              		.file 14 ".//ChibiOS//os/rt/include/chtm.h"
 953              		.file 15 ".//ChibiOS//os/rt/include/chstats.h"
 954              		.file 16 ".//ChibiOS//os/rt/include/chsem.h"
 955              		.file 17 ".//ChibiOS//os/rt/include/chmtx.h"
 956              		.file 18 ".//ChibiOS//os/rt/include/chregistry.h"
 957              		.file 19 ".//ChibiOS//os/rt/include/chevents.h"
 958              		.file 20 ".//ChibiOS//os/rt/include/chqueues.h"
 959              		.file 21 ".//ChibiOS//os/rt/include/chstreams.h"
 960              		.file 22 ".//ChibiOS//os/hal/ports/STM32/STM32F4xx/stm32_dma.h"
 961              		.file 23 ".//ChibiOS//os/hal/include/hal_ioblock.h"
 962              		.file 24 ".//ChibiOS//os/hal/ports/STM32/LLD/GPIOv2/pal_lld.h"
 963              		.file 25 ".//ChibiOS//os/hal/include/adc.h"
 964              		.file 26 ".//ChibiOS//os/hal/ports/STM32/STM32F4xx/adc_lld.h"
 965              		.file 27 ".//ChibiOS//os/hal/include/can.h"
 966              		.file 28 ".//ChibiOS//os/hal/ports/STM32/LLD/can_lld.h"
 967              		.file 29 ".//ChibiOS//os/hal/include/dac.h"
 968              		.file 30 ".//ChibiOS//os/hal/ports/STM32/LLD/DACv1/dac_lld.h"
 969              		.file 31 ".//ChibiOS//os/hal/include/ext.h"
 970              		.file 32 ".//ChibiOS//os/hal/ports/STM32/LLD/ext_lld.h"
 971              		.file 33 ".//ChibiOS//os/hal/include/gpt.h"
 972              		.file 34 ".//ChibiOS//os/hal/ports/STM32/LLD/TIMv1/gpt_lld.h"
 973              		.file 35 ".//ChibiOS//os/hal/ports/STM32/LLD/TIMv1/stm32_tim.h"
 974              		.file 36 ".//ChibiOS//os/hal/include/i2c.h"
 975              		.file 37 ".//ChibiOS//os/hal/ports/STM32/LLD/I2Cv1/i2c_lld.h"
 976              		.file 38 ".//ChibiOS//os/hal/include/i2s.h"
 977              		.file 39 ".//ChibiOS//os/hal/ports/STM32/LLD/SPIv1/i2s_lld.h"
 978              		.file 40 ".//ChibiOS//os/hal/include/pwm.h"
 979              		.file 41 ".//ChibiOS//os/hal/ports/STM32/LLD/TIMv1/pwm_lld.h"
 980              		.file 42 ".//ChibiOS//os/hal/include/serial.h"
ARM GAS  /tmp/ccszA1D4.s 			page 20


 981              		.file 43 ".//ChibiOS//os/hal/ports/STM32/LLD/USARTv1/serial_lld.h"
 982              		.file 44 ".//ChibiOS//os/hal/include/sdc.h"
 983              		.file 45 ".//ChibiOS//os/hal/ports/STM32/LLD/sdc_lld.h"
 984              		.file 46 ".//ChibiOS//os/hal/include/spi.h"
 985              		.file 47 ".//ChibiOS//os/hal/ports/STM32/LLD/SPIv1/spi_lld.h"
 986              		.file 48 ".//ChibiOS//os/hal/include/usb.h"
 987              		.file 49 ".//ChibiOS//os/hal/ports/STM32/LLD/OTGv1/usb_lld.h"
 988              		.file 50 ".//ChibiOS//os/hal/ports/STM32/LLD/OTGv1/stm32_otg.h"
 989              		.file 51 "/usr/lib/gcc/arm-none-eabi/9.2.1/include/stdarg.h"
 990              		.file 52 "/usr/include/newlib/sys/_types.h"
 991              		.file 53 "/usr/include/newlib/sys/reent.h"
 992              		.file 54 "/usr/include/newlib/sys/lock.h"
 993              		.file 55 ".//ChibiOS_ext//ext/fatfs/src/integer.h"
 994              		.file 56 ".//ChibiOS_ext//ext/fatfs/src/ff.h"
 995              		.file 57 "/usr/include/newlib/string.h"
 996              		.file 58 ".//src/sdio.h"
 997              		.file 59 "<built-in>"