ARM GAS  /tmp/cceBSuz7.s 			page 1


   1              		.cpu cortex-m4
   2              		.eabi_attribute 27, 1
   3              		.eabi_attribute 28, 1
   4              		.eabi_attribute 20, 1
   5              		.eabi_attribute 21, 1
   6              		.eabi_attribute 23, 3
   7              		.eabi_attribute 24, 1
   8              		.eabi_attribute 25, 1
   9              		.eabi_attribute 26, 1
  10              		.eabi_attribute 30, 2
  11              		.eabi_attribute 34, 1
  12              		.eabi_attribute 18, 4
  13              		.file	"ff.c"
  14              		.text
  15              	.Ltext0:
  16              		.cfi_sections	.debug_frame
  17              		.section	.rodata.get_ldnumber.cst4,"aM",%progbits,4
  18              		.align	2
  19              	.LC0:
  20 0000 00000000 		.word	__stack_chk_guard
  21              		.section	.text.get_ldnumber,"ax",%progbits
  22              		.align	1
  23              		.p2align 4,,15
  24              		.arch armv7e-m
  25              		.syntax unified
  26              		.thumb
  27              		.thumb_func
  28              		.fpu fpv4-sp-d16
  29              		.type	get_ldnumber, %function
  30              	get_ldnumber:
  31              	.LVL0:
  32              	.LFB249:
  33              		.file 1 ".//ChibiOS_ext//ext/fatfs/src/ff.c"
  34              		.loc 1 2080 1 view -0
  35              		.cfi_startproc
  36              		@ args = 0, pretend = 0, frame = 8
  37              		@ frame_needed = 0, uses_anonymous_args = 0
  38              		.loc 1 2080 1 is_stmt 0 view .LVU1
  39 0000 10B5     		push	{r4, lr}
  40              		.cfi_def_cfa_offset 8
  41              		.cfi_offset 4, -8
  42              		.cfi_offset 14, -4
  43 0002 154B     		ldr	r3, .L17
  44              		.loc 1 2086 6 view .LVU2
  45 0004 0168     		ldr	r1, [r0]
  46              		.loc 1 2080 1 view .LVU3
  47 0006 82B0     		sub	sp, sp, #8
  48              		.cfi_def_cfa_offset 16
  49              		.loc 1 2080 1 view .LVU4
  50 0008 1B68     		ldr	r3, [r3]
  51 000a 0193     		str	r3, [sp, #4]
  52 000c 4FF00003 		mov	r3,#0
  53              		.loc 1 2081 2 is_stmt 1 view .LVU5
  54              		.loc 1 2082 2 view .LVU6
  55              		.loc 1 2083 2 view .LVU7
  56              	.LVL1:
  57              		.loc 1 2086 2 view .LVU8
ARM GAS  /tmp/cceBSuz7.s 			page 2


  58              		.loc 1 2086 5 is_stmt 0 view .LVU9
  59 0010 71B1     		cbz	r1, .L14
  60              	.LVL2:
  61              		.loc 1 2087 20 is_stmt 1 view .LVU10
  62              		.loc 1 2087 26 is_stmt 0 view .LVU11
  63 0012 0C78     		ldrb	r4, [r1]	@ zero_extendqisi2
  64              		.loc 1 2087 3 view .LVU12
  65 0014 1F2C     		cmp	r4, #31
  66 0016 0ED9     		bls	.L10
  67 0018 0A46     		mov	r2, r1
  68 001a 2346     		mov	r3, r4
  69 001c 03E0     		b	.L3
  70              	.LVL3:
  71              	.L4:
  72              		.loc 1 2087 77 is_stmt 1 discriminator 4 view .LVU13
  73              		.loc 1 2087 71 discriminator 4 view .LVU14
  74              		.loc 1 2087 20 discriminator 4 view .LVU15
  75              		.loc 1 2087 26 is_stmt 0 discriminator 4 view .LVU16
  76 001e 12F8013F 		ldrb	r3, [r2, #1]!	@ zero_extendqisi2
  77              	.LVL4:
  78              		.loc 1 2087 3 discriminator 4 view .LVU17
  79 0022 1F2B     		cmp	r3, #31
  80 0024 07D9     		bls	.L10
  81              	.L3:
  82              		.loc 1 2087 56 discriminator 3 view .LVU18
  83 0026 3A2B     		cmp	r3, #58
  84 0028 F9D1     		bne	.L4
  85              		.loc 1 2088 3 is_stmt 1 view .LVU19
  86              		.loc 1 2089 4 view .LVU20
  87              	.LVL5:
  88              		.loc 1 2090 4 view .LVU21
  89              		.loc 1 2091 4 view .LVU22
  90              		.loc 1 2090 11 is_stmt 0 view .LVU23
  91 002a 0131     		adds	r1, r1, #1
  92              	.LVL6:
  93              		.loc 1 2091 15 view .LVU24
  94 002c 8A42     		cmp	r2, r1
  95 002e 0AD0     		beq	.L6
  96              	.LVL7:
  97              	.L14:
  98              		.loc 1 2083 6 view .LVU25
  99 0030 4FF0FF30 		mov	r0, #-1
 100              	.LVL8:
 101              		.loc 1 2083 6 view .LVU26
 102 0034 00E0     		b	.L1
 103              	.LVL9:
 104              	.L10:
 105              		.loc 1 2122 7 view .LVU27
 106 0036 0020     		movs	r0, #0
 107              	.LVL10:
 108              	.L1:
 109              		.loc 1 2126 1 view .LVU28
 110 0038 074B     		ldr	r3, .L17
 111 003a 1A68     		ldr	r2, [r3]
 112 003c 019B     		ldr	r3, [sp, #4]
 113 003e 5A40     		eors	r2, r3, r2
 114 0040 07D1     		bne	.L16
ARM GAS  /tmp/cceBSuz7.s 			page 3


 115 0042 02B0     		add	sp, sp, #8
 116              		.cfi_remember_state
 117              		.cfi_def_cfa_offset 8
 118              		@ sp needed
 119 0044 10BD     		pop	{r4, pc}
 120              	.LVL11:
 121              	.L6:
 122              		.cfi_restore_state
 123              		.loc 1 2092 5 is_stmt 1 view .LVU29
 124              		.loc 1 2092 8 is_stmt 0 view .LVU30
 125 0046 302C     		cmp	r4, #48
 126 0048 F2D1     		bne	.L14
 127              		.loc 1 2093 6 is_stmt 1 view .LVU31
 128              	.LVL12:
 129              		.loc 1 2094 6 view .LVU32
 130              		.loc 1 2094 12 is_stmt 0 view .LVU33
 131 004a 0132     		adds	r2, r2, #1
 132              	.LVL13:
 133              		.loc 1 2094 12 view .LVU34
 134 004c 0260     		str	r2, [r0]
 135              		.loc 1 2093 10 view .LVU35
 136 004e 0020     		movs	r0, #0
 137              	.LVL14:
 138              		.loc 1 2093 10 view .LVU36
 139 0050 F2E7     		b	.L1
 140              	.LVL15:
 141              	.L16:
 142              		.loc 1 2126 1 view .LVU37
 143 0052 FFF7FEFF 		bl	__stack_chk_fail
 144              	.LVL16:
 145              	.L18:
 146 0056 00BF     		.align	2
 147              	.L17:
 148 0058 00000000 		.word	.LC0
 149              		.cfi_endproc
 150              	.LFE249:
 151              		.size	get_ldnumber, .-get_ldnumber
 152              		.section	.rodata.validate.cst4,"aM",%progbits,4
 153              		.align	2
 154              	.LC1:
 155 0000 00000000 		.word	__stack_chk_guard
 156              		.section	.text.validate,"ax",%progbits
 157              		.align	1
 158              		.p2align 4,,15
 159              		.syntax unified
 160              		.thumb
 161              		.thumb_func
 162              		.fpu fpv4-sp-d16
 163              		.type	validate, %function
 164              	validate:
 165              	.LVL17:
 166              	.LFB252:
 167              		.loc 1 2338 1 is_stmt 1 view -0
 168              		.cfi_startproc
 169              		@ args = 0, pretend = 0, frame = 8
 170              		@ frame_needed = 0, uses_anonymous_args = 0
 171              		.loc 1 2338 1 is_stmt 0 view .LVU39
ARM GAS  /tmp/cceBSuz7.s 			page 4


 172 0000 00B5     		push	{lr}
 173              		.cfi_def_cfa_offset 4
 174              		.cfi_offset 14, -4
 175 0002 114B     		ldr	r3, .L31
 176 0004 83B0     		sub	sp, sp, #12
 177              		.cfi_def_cfa_offset 16
 178              		.loc 1 2338 1 view .LVU40
 179 0006 1B68     		ldr	r3, [r3]
 180 0008 0193     		str	r3, [sp, #4]
 181 000a 4FF00003 		mov	r3,#0
 182              		.loc 1 2339 2 is_stmt 1 view .LVU41
 183              	.LVL18:
 184              		.loc 1 2342 2 view .LVU42
 185              		.loc 1 2342 5 is_stmt 0 view .LVU43
 186 000e 38B1     		cbz	r0, .L25
 187              		.loc 1 2342 18 discriminator 1 view .LVU44
 188 0010 0368     		ldr	r3, [r0]
 189              		.loc 1 2342 11 discriminator 1 view .LVU45
 190 0012 2BB1     		cbz	r3, .L25
 191              		.loc 1 2342 23 discriminator 2 view .LVU46
 192 0014 1A78     		ldrb	r2, [r3]	@ zero_extendqisi2
 193 0016 1AB1     		cbz	r2, .L25
 194              		.loc 1 2342 44 discriminator 3 view .LVU47
 195 0018 8288     		ldrh	r2, [r0, #4]
 196 001a D988     		ldrh	r1, [r3, #6]
 197 001c 9142     		cmp	r1, r2
 198 001e 08D0     		beq	.L29
 199              	.L25:
 200              		.loc 1 2343 10 view .LVU48
 201 0020 0920     		movs	r0, #9
 202              	.LVL19:
 203              	.L20:
 204              		.loc 1 2351 1 view .LVU49
 205 0022 094B     		ldr	r3, .L31
 206 0024 1A68     		ldr	r2, [r3]
 207 0026 019B     		ldr	r3, [sp, #4]
 208 0028 5A40     		eors	r2, r3, r2
 209 002a 0AD1     		bne	.L30
 210 002c 03B0     		add	sp, sp, #12
 211              		.cfi_remember_state
 212              		.cfi_def_cfa_offset 4
 213              		@ sp needed
 214 002e 5DF804FB 		ldr	pc, [sp], #4
 215              	.LVL20:
 216              	.L29:
 217              		.cfi_restore_state
 218              		.loc 1 2345 19 is_stmt 1 view .LVU50
 219              		.loc 1 2347 2 view .LVU51
 220              		.loc 1 2347 6 is_stmt 0 view .LVU52
 221 0032 5878     		ldrb	r0, [r3, #1]	@ zero_extendqisi2
 222              	.LVL21:
 223              		.loc 1 2347 6 view .LVU53
 224 0034 FFF7FEFF 		bl	disk_status
 225              	.LVL22:
 226              		.loc 1 2347 5 view .LVU54
 227 0038 10F00100 		ands	r0, r0, #1
 228              		.loc 1 2348 10 view .LVU55
ARM GAS  /tmp/cceBSuz7.s 			page 5


 229 003c 18BF     		it	ne
 230 003e 0320     		movne	r0, #3
 231 0040 EFE7     		b	.L20
 232              	.L30:
 233              		.loc 1 2351 1 view .LVU56
 234 0042 FFF7FEFF 		bl	__stack_chk_fail
 235              	.LVL23:
 236              	.L32:
 237 0046 00BF     		.align	2
 238              	.L31:
 239 0048 00000000 		.word	.LC1
 240              		.cfi_endproc
 241              	.LFE252:
 242              		.size	validate, .-validate
 243              		.section	.rodata.get_fileinfo.cst4,"aM",%progbits,4
 244              		.align	2
 245              	.LC2:
 246 0000 00000000 		.word	__stack_chk_guard
 247              		.section	.text.get_fileinfo,"ax",%progbits
 248              		.align	1
 249              		.p2align 4,,15
 250              		.syntax unified
 251              		.thumb
 252              		.thumb_func
 253              		.fpu fpv4-sp-d16
 254              		.type	get_fileinfo, %function
 255              	get_fileinfo:
 256              	.LVL24:
 257              	.LFB246:
 258              		.loc 1 1739 1 is_stmt 1 view -0
 259              		.cfi_startproc
 260              		@ args = 0, pretend = 0, frame = 8
 261              		@ frame_needed = 0, uses_anonymous_args = 0
 262              		.loc 1 1739 1 is_stmt 0 view .LVU58
 263 0000 2DE9F041 		push	{r4, r5, r6, r7, r8, lr}
 264              		.cfi_def_cfa_offset 24
 265              		.cfi_offset 4, -24
 266              		.cfi_offset 5, -20
 267              		.cfi_offset 6, -16
 268              		.cfi_offset 7, -12
 269              		.cfi_offset 8, -8
 270              		.cfi_offset 14, -4
 271 0004 424B     		ldr	r3, .L83
 272              		.loc 1 1745 5 view .LVU59
 273 0006 0269     		ldr	r2, [r0, #16]
 274              		.loc 1 1739 1 view .LVU60
 275 0008 82B0     		sub	sp, sp, #8
 276              		.cfi_def_cfa_offset 32
 277              		.loc 1 1739 1 view .LVU61
 278 000a 1B68     		ldr	r3, [r3]
 279 000c 0193     		str	r3, [sp, #4]
 280 000e 4FF00003 		mov	r3,#0
 281              		.loc 1 1740 2 is_stmt 1 view .LVU62
 282              		.loc 1 1741 2 view .LVU63
 283              		.loc 1 1744 2 view .LVU64
 284              		.loc 1 1739 1 is_stmt 0 view .LVU65
 285 0012 0F46     		mov	r7, r1
ARM GAS  /tmp/cceBSuz7.s 			page 6


 286              		.loc 1 1744 4 view .LVU66
 287 0014 01F10903 		add	r3, r1, #9
 288              	.LVL25:
 289              		.loc 1 1745 2 is_stmt 1 view .LVU67
 290              		.loc 1 1745 5 is_stmt 0 view .LVU68
 291 0018 002A     		cmp	r2, #0
 292 001a 3BD0     		beq	.L34
 293              	.LBB226:
 294              		.loc 1 1746 3 is_stmt 1 view .LVU69
 295              		.loc 1 1746 9 is_stmt 0 view .LVU70
 296 001c 4669     		ldr	r6, [r0, #20]
 297              	.LVL26:
 298              		.loc 1 1748 3 is_stmt 1 view .LVU71
 299              		.loc 1 1749 3 view .LVU72
 300              		.loc 1 1749 9 view .LVU73
 301              		.loc 1 1753 21 is_stmt 0 view .LVU74
 302 001e 4FF02E0E 		mov	lr, #46
 303 0022 751E     		subs	r5, r6, #1
 304 0024 06F10A01 		add	r1, r6, #10
 305              	.LVL27:
 306              		.loc 1 1753 21 view .LVU75
 307 0028 17E0     		b	.L41
 308              	.LVL28:
 309              	.L78:
 310              		.loc 1 1753 4 is_stmt 1 view .LVU76
 311 002a 0232     		adds	r2, r2, #2
 312 002c 921B     		subs	r2, r2, r6
 313              		.loc 1 1753 7 is_stmt 0 view .LVU77
 314 002e 092A     		cmp	r2, #9
 315 0030 40D0     		beq	.L76
 316              		.loc 1 1755 4 is_stmt 1 view .LVU78
 317              		.loc 1 1755 7 is_stmt 0 view .LVU79
 318 0032 A4F1410C 		sub	ip, r4, #65
 319 0036 BCF1190F 		cmp	ip, #25
 320 003a 0AD8     		bhi	.L39
 321              		.loc 1 1755 57 discriminator 1 view .LVU80
 322 003c 092A     		cmp	r2, #9
 323              		.loc 1 1755 26 discriminator 1 view .LVU81
 324 003e 96F80CC0 		ldrb	ip, [r6, #12]	@ zero_extendqisi2
 325              		.loc 1 1755 57 discriminator 1 view .LVU82
 326 0042 34BF     		ite	cc
 327 0044 0822     		movcc	r2, #8
 328 0046 1022     		movcs	r2, #16
 329              	.L40:
 330              		.loc 1 1755 19 discriminator 5 view .LVU83
 331 0048 12EA0C0F 		tst	r2, ip
 332              		.loc 1 1756 5 is_stmt 1 discriminator 5 view .LVU84
 333              		.loc 1 1756 7 is_stmt 0 discriminator 5 view .LVU85
 334 004c 1CBF     		itt	ne
 335 004e 2034     		addne	r4, r4, #32
 336              	.LVL29:
 337              		.loc 1 1756 7 discriminator 5 view .LVU86
 338 0050 E4B2     		uxtbne	r4, r4
 339              	.LVL30:
 340              	.L39:
 341              		.loc 1 1764 4 is_stmt 1 view .LVU87
 342              		.loc 1 1764 9 is_stmt 0 view .LVU88
ARM GAS  /tmp/cceBSuz7.s 			page 7


 343 0052 03F8014B 		strb	r4, [r3], #1
 344              	.LVL31:
 345              	.L35:
 346              		.loc 1 1749 9 is_stmt 1 view .LVU89
 347 0056 8D42     		cmp	r5, r1
 348 0058 0ED0     		beq	.L77
 349              	.LVL32:
 350              	.L41:
 351              		.loc 1 1750 4 view .LVU90
 352              		.loc 1 1750 4 is_stmt 0 view .LVU91
 353 005a 2A46     		mov	r2, r5
 354              		.loc 1 1750 6 view .LVU92
 355 005c 15F8014F 		ldrb	r4, [r5, #1]!	@ zero_extendqisi2
 356              	.LVL33:
 357              		.loc 1 1751 4 is_stmt 1 view .LVU93
 358              		.loc 1 1751 7 is_stmt 0 view .LVU94
 359 0060 202C     		cmp	r4, #32
 360 0062 F8D0     		beq	.L35
 361              		.loc 1 1752 4 is_stmt 1 view .LVU95
 362              		.loc 1 1752 7 is_stmt 0 view .LVU96
 363 0064 052C     		cmp	r4, #5
 364 0066 E0D1     		bne	.L78
 365              	.LVL34:
 366              		.loc 1 1753 4 is_stmt 1 view .LVU97
 367              		.loc 1 1753 7 is_stmt 0 view .LVU98
 368 0068 073A     		subs	r2, r2, #7
 369 006a B242     		cmp	r2, r6
 370              		.loc 1 1752 21 view .LVU99
 371 006c 4FF0E504 		mov	r4, #229
 372              		.loc 1 1753 7 view .LVU100
 373 0070 EFD1     		bne	.L39
 374              		.loc 1 1753 16 is_stmt 1 view .LVU101
 375              	.LVL35:
 376              		.loc 1 1753 21 is_stmt 0 view .LVU102
 377 0072 03F801EB 		strb	lr, [r3], #1
 378              	.LVL36:
 379              		.loc 1 1755 4 is_stmt 1 view .LVU103
 380 0076 ECE7     		b	.L39
 381              	.LVL37:
 382              	.L77:
 383              		.loc 1 1766 3 view .LVU104
 384              		.loc 1 1766 16 is_stmt 0 view .LVU105
 385 0078 F27A     		ldrb	r2, [r6, #11]	@ zero_extendqisi2
 386 007a 3A72     		strb	r2, [r7, #8]
 387              		.loc 1 1767 3 is_stmt 1 view .LVU106
 388              		.loc 1 1767 16 is_stmt 0 view .LVU107
 389 007c F269     		ldr	r2, [r6, #28]	@ unaligned
 390              		.loc 1 1767 14 view .LVU108
 391 007e 3A60     		str	r2, [r7]
 392              		.loc 1 1768 3 is_stmt 1 view .LVU109
 393              		.loc 1 1768 16 is_stmt 0 view .LVU110
 394 0080 717E     		ldrb	r1, [r6, #25]	@ zero_extendqisi2
 395 0082 327E     		ldrb	r2, [r6, #24]	@ zero_extendqisi2
 396 0084 42EA0122 		orr	r2, r2, r1, lsl #8
 397              		.loc 1 1768 14 view .LVU111
 398 0088 BA80     		strh	r2, [r7, #4]	@ movhi
 399              		.loc 1 1769 3 is_stmt 1 view .LVU112
ARM GAS  /tmp/cceBSuz7.s 			page 8


 400              		.loc 1 1769 16 is_stmt 0 view .LVU113
 401 008a F17D     		ldrb	r1, [r6, #23]	@ zero_extendqisi2
 402 008c B27D     		ldrb	r2, [r6, #22]	@ zero_extendqisi2
 403 008e 42EA0122 		orr	r2, r2, r1, lsl #8
 404              		.loc 1 1769 14 view .LVU114
 405 0092 FA80     		strh	r2, [r7, #6]	@ movhi
 406              	.LVL38:
 407              	.L34:
 408              		.loc 1 1769 14 view .LVU115
 409              	.LBE226:
 410              		.loc 1 1771 2 is_stmt 1 view .LVU116
 411              		.loc 1 1771 5 is_stmt 0 view .LVU117
 412 0094 0024     		movs	r4, #0
 413 0096 1C70     		strb	r4, [r3]
 414              		.loc 1 1774 2 is_stmt 1 view .LVU118
 415              		.loc 1 1774 9 is_stmt 0 view .LVU119
 416 0098 BD69     		ldr	r5, [r7, #24]
 417              		.loc 1 1774 5 view .LVU120
 418 009a 1DB1     		cbz	r5, .L33
 419              	.LBB227:
 420              		.loc 1 1775 3 is_stmt 1 view .LVU121
 421              		.loc 1 1777 3 view .LVU122
 422              	.LVL39:
 423              		.loc 1 1777 10 view .LVU123
 424              		.loc 1 1778 3 view .LVU124
 425              		.loc 1 1778 6 is_stmt 0 view .LVU125
 426 009c 0369     		ldr	r3, [r0, #16]
 427 009e 9BB9     		cbnz	r3, .L79
 428              	.LVL40:
 429              	.L43:
 430              		.loc 1 1791 3 is_stmt 1 view .LVU126
 431              		.loc 1 1791 8 is_stmt 0 view .LVU127
 432 00a0 0023     		movs	r3, #0
 433 00a2 2B70     		strb	r3, [r5]
 434              	.L33:
 435              		.loc 1 1791 8 view .LVU128
 436              	.LBE227:
 437              		.loc 1 1794 1 view .LVU129
 438 00a4 1A4B     		ldr	r3, .L83
 439 00a6 1A68     		ldr	r2, [r3]
 440 00a8 019B     		ldr	r3, [sp, #4]
 441 00aa 5A40     		eors	r2, r3, r2
 442 00ac 2ED1     		bne	.L80
 443 00ae 02B0     		add	sp, sp, #8
 444              		.cfi_remember_state
 445              		.cfi_def_cfa_offset 24
 446              		@ sp needed
 447 00b0 BDE8F081 		pop	{r4, r5, r6, r7, r8, pc}
 448              	.LVL41:
 449              	.L76:
 450              		.cfi_restore_state
 451              	.LBB228:
 452              		.loc 1 1753 16 is_stmt 1 view .LVU130
 453              		.loc 1 1755 7 is_stmt 0 view .LVU131
 454 00b4 A4F14102 		sub	r2, r4, #65
 455 00b8 192A     		cmp	r2, #25
 456              		.loc 1 1753 21 view .LVU132
ARM GAS  /tmp/cceBSuz7.s 			page 9


 457 00ba 03F801EB 		strb	lr, [r3], #1
 458              	.LVL42:
 459              		.loc 1 1755 4 is_stmt 1 view .LVU133
 460              		.loc 1 1755 7 is_stmt 0 view .LVU134
 461 00be C8D8     		bhi	.L39
 462              		.loc 1 1755 26 view .LVU135
 463 00c0 96F80CC0 		ldrb	ip, [r6, #12]	@ zero_extendqisi2
 464              		.loc 1 1755 57 view .LVU136
 465 00c4 1022     		movs	r2, #16
 466 00c6 BFE7     		b	.L40
 467              	.LVL43:
 468              	.L79:
 469              		.loc 1 1755 57 view .LVU137
 470              	.LBE228:
 471              	.LBB229:
 472              		.loc 1 1778 16 discriminator 1 view .LVU138
 473 00c8 FB69     		ldr	r3, [r7, #28]
 474 00ca 002B     		cmp	r3, #0
 475 00cc E8D0     		beq	.L43
 476              		.loc 1 1778 31 discriminator 2 view .LVU139
 477 00ce 028C     		ldrh	r2, [r0, #32]
 478 00d0 4FF6FF73 		movw	r3, #65535
 479 00d4 9A42     		cmp	r2, r3
 480 00d6 E3D0     		beq	.L43
 481              		.loc 1 1779 4 is_stmt 1 view .LVU140
 482              	.LVL44:
 483              		.loc 1 1780 4 view .LVU141
 484              		.loc 1 1780 10 view .LVU142
 485              		.loc 1 1780 20 is_stmt 0 view .LVU143
 486 00d8 D0F81C80 		ldr	r8, [r0, #28]
 487              	.LVL45:
 488              		.loc 1 1780 14 view .LVU144
 489 00dc 38F8020B 		ldrh	r0, [r8], #2
 490              	.LVL46:
 491              		.loc 1 1780 10 view .LVU145
 492 00e0 0028     		cmp	r0, #0
 493 00e2 DDD0     		beq	.L43
 494 00e4 6E1E     		subs	r6, r5, #1
 495 00e6 09E0     		b	.L44
 496              	.LVL47:
 497              	.L82:
 498              		.loc 1 1784 5 is_stmt 1 view .LVU146
 499              		.loc 1 1787 5 view .LVU147
 500              		.loc 1 1787 26 is_stmt 0 view .LVU148
 501 00e8 FB69     		ldr	r3, [r7, #28]
 502 00ea 013B     		subs	r3, r3, #1
 503              		.loc 1 1787 8 view .LVU149
 504 00ec A342     		cmp	r3, r4
 505 00ee D7D9     		bls	.L43
 506              		.loc 1 1788 5 is_stmt 1 view .LVU150
 507              		.loc 1 1788 14 is_stmt 0 view .LVU151
 508 00f0 06F8010F 		strb	r0, [r6, #1]!
 509              		.loc 1 1780 14 view .LVU152
 510 00f4 38F8020B 		ldrh	r0, [r8], #2
 511              	.LVL48:
 512              		.loc 1 1788 8 view .LVU153
 513 00f8 0134     		adds	r4, r4, #1
ARM GAS  /tmp/cceBSuz7.s 			page 10


 514              	.LVL49:
 515              		.loc 1 1780 10 is_stmt 1 view .LVU154
 516              		.loc 1 1780 10 is_stmt 0 view .LVU155
 517 00fa 28B1     		cbz	r0, .L81
 518              	.LVL50:
 519              	.L44:
 520              		.loc 1 1782 5 is_stmt 1 view .LVU156
 521              		.loc 1 1782 9 is_stmt 0 view .LVU157
 522 00fc 0021     		movs	r1, #0
 523 00fe FFF7FEFF 		bl	ff_convert
 524              	.LVL51:
 525              		.loc 1 1783 5 is_stmt 1 view .LVU158
 526              		.loc 1 1783 8 is_stmt 0 view .LVU159
 527 0102 0028     		cmp	r0, #0
 528 0104 F0D1     		bne	.L82
 529 0106 CBE7     		b	.L43
 530              	.LVL52:
 531              	.L81:
 532              		.loc 1 1783 8 view .LVU160
 533 0108 2544     		add	r5, r5, r4
 534              	.LVL53:
 535              		.loc 1 1783 8 view .LVU161
 536 010a C9E7     		b	.L43
 537              	.LVL54:
 538              	.L80:
 539              		.loc 1 1783 8 view .LVU162
 540              	.LBE229:
 541              		.loc 1 1794 1 view .LVU163
 542 010c FFF7FEFF 		bl	__stack_chk_fail
 543              	.LVL55:
 544              	.L84:
 545              		.align	2
 546              	.L83:
 547 0110 00000000 		.word	.LC2
 548              		.cfi_endproc
 549              	.LFE246:
 550              		.size	get_fileinfo, .-get_fileinfo
 551              		.section	.rodata.sync_window.part.0.cst4,"aM",%progbits,4
 552              		.align	2
 553              	.LC3:
 554 0000 00000000 		.word	__stack_chk_guard
 555              		.section	.text.sync_window.part.0,"ax",%progbits
 556              		.align	1
 557              		.p2align 4,,15
 558              		.syntax unified
 559              		.thumb
 560              		.thumb_func
 561              		.fpu fpv4-sp-d16
 562              		.type	sync_window.part.0, %function
 563              	sync_window.part.0:
 564              	.LVL56:
 565              	.LFB281:
 566              		.loc 1 755 9 is_stmt 1 view -0
 567              		.cfi_startproc
 568              		@ args = 0, pretend = 0, frame = 8
 569              		@ frame_needed = 0, uses_anonymous_args = 0
 570              		.loc 1 755 9 is_stmt 0 view .LVU165
ARM GAS  /tmp/cceBSuz7.s 			page 11


 571 0000 2DE9F041 		push	{r4, r5, r6, r7, r8, lr}
 572              		.cfi_def_cfa_offset 24
 573              		.cfi_offset 4, -24
 574              		.cfi_offset 5, -20
 575              		.cfi_offset 6, -16
 576              		.cfi_offset 7, -12
 577              		.cfi_offset 8, -8
 578              		.cfi_offset 14, -4
 579 0004 194B     		ldr	r3, .L98
 580              		.loc 1 764 9 view .LVU166
 581 0006 C56A     		ldr	r5, [r0, #44]
 582              		.loc 1 755 9 view .LVU167
 583 0008 82B0     		sub	sp, sp, #8
 584              		.cfi_def_cfa_offset 32
 585              		.loc 1 765 29 view .LVU168
 586 000a 00F13008 		add	r8, r0, #48
 587              		.loc 1 755 9 view .LVU169
 588 000e 0446     		mov	r4, r0
 589 0010 1B68     		ldr	r3, [r3]
 590 0012 0193     		str	r3, [sp, #4]
 591 0014 4FF00003 		mov	r3,#0
 592              		.loc 1 764 3 is_stmt 1 view .LVU170
 593              	.LVL57:
 594              		.loc 1 765 3 view .LVU171
 595              		.loc 1 765 7 is_stmt 0 view .LVU172
 596 0018 4078     		ldrb	r0, [r0, #1]	@ zero_extendqisi2
 597              	.LVL58:
 598              		.loc 1 765 7 view .LVU173
 599 001a 2A46     		mov	r2, r5
 600 001c 4146     		mov	r1, r8
 601 001e 0123     		movs	r3, #1
 602 0020 FFF7FEFF 		bl	disk_write
 603              	.LVL59:
 604              		.loc 1 765 6 view .LVU174
 605 0024 F0B9     		cbnz	r0, .L91
 606              		.loc 1 768 13 view .LVU175
 607 0026 226A     		ldr	r2, [r4, #32]
 608              		.loc 1 768 31 view .LVU176
 609 0028 A369     		ldr	r3, [r4, #24]
 610              		.loc 1 767 13 view .LVU177
 611 002a 2071     		strb	r0, [r4, #4]
 612              		.loc 1 768 13 view .LVU178
 613 002c AA1A     		subs	r2, r5, r2
 614              		.loc 1 768 6 view .LVU179
 615 002e 9A42     		cmp	r2, r3
 616 0030 0746     		mov	r7, r0
 617              		.loc 1 767 3 is_stmt 1 view .LVU180
 618              		.loc 1 768 3 view .LVU181
 619              		.loc 1 768 6 is_stmt 0 view .LVU182
 620 0032 0ED2     		bcs	.L86
 621              		.loc 1 769 4 is_stmt 1 view .LVU183
 622              		.loc 1 769 12 is_stmt 0 view .LVU184
 623 0034 E678     		ldrb	r6, [r4, #3]	@ zero_extendqisi2
 624              	.LVL60:
 625              		.loc 1 769 26 is_stmt 1 view .LVU185
 626              		.loc 1 769 4 is_stmt 0 view .LVU186
 627 0036 012E     		cmp	r6, #1
ARM GAS  /tmp/cceBSuz7.s 			page 12


 628 0038 01D8     		bhi	.L89
 629 003a 0AE0     		b	.L86
 630              	.L96:
 631              		.loc 1 769 4 view .LVU187
 632 003c A369     		ldr	r3, [r4, #24]
 633              	.L89:
 634              		.loc 1 770 5 is_stmt 1 view .LVU188
 635              		.loc 1 771 5 is_stmt 0 view .LVU189
 636 003e 6078     		ldrb	r0, [r4, #1]	@ zero_extendqisi2
 637              		.loc 1 770 11 view .LVU190
 638 0040 1D44     		add	r5, r5, r3
 639              	.LVL61:
 640              		.loc 1 771 5 is_stmt 1 view .LVU191
 641              		.loc 1 769 37 is_stmt 0 view .LVU192
 642 0042 013E     		subs	r6, r6, #1
 643              	.LVL62:
 644              		.loc 1 771 5 view .LVU193
 645 0044 2A46     		mov	r2, r5
 646 0046 0123     		movs	r3, #1
 647 0048 4146     		mov	r1, r8
 648 004a FFF7FEFF 		bl	disk_write
 649              	.LVL63:
 650              		.loc 1 769 35 is_stmt 1 view .LVU194
 651              		.loc 1 769 26 view .LVU195
 652              		.loc 1 769 4 is_stmt 0 view .LVU196
 653 004e 012E     		cmp	r6, #1
 654 0050 F4D1     		bne	.L96
 655              	.LVL64:
 656              	.L86:
 657              		.loc 1 776 1 view .LVU197
 658 0052 064B     		ldr	r3, .L98
 659 0054 1A68     		ldr	r2, [r3]
 660 0056 019B     		ldr	r3, [sp, #4]
 661 0058 5A40     		eors	r2, r3, r2
 662 005a 05D1     		bne	.L97
 663 005c 3846     		mov	r0, r7
 664 005e 02B0     		add	sp, sp, #8
 665              		.cfi_remember_state
 666              		.cfi_def_cfa_offset 24
 667              		@ sp needed
 668 0060 BDE8F081 		pop	{r4, r5, r6, r7, r8, pc}
 669              	.LVL65:
 670              	.L91:
 671              		.cfi_restore_state
 672              		.loc 1 766 11 view .LVU198
 673 0064 0127     		movs	r7, #1
 674 0066 F4E7     		b	.L86
 675              	.L97:
 676              		.loc 1 776 1 view .LVU199
 677 0068 FFF7FEFF 		bl	__stack_chk_fail
 678              	.LVL66:
 679              	.L99:
 680              		.align	2
 681              	.L98:
 682 006c 00000000 		.word	.LC3
 683              		.cfi_endproc
 684              	.LFE281:
ARM GAS  /tmp/cceBSuz7.s 			page 13


 685              		.size	sync_window.part.0, .-sync_window.part.0
 686              		.section	.rodata.sync_fs.cst4,"aM",%progbits,4
 687              		.align	2
 688              	.LC4:
 689 0000 00000000 		.word	__stack_chk_guard
 690              		.section	.text.sync_fs,"ax",%progbits
 691              		.align	1
 692              		.p2align 4,,15
 693              		.syntax unified
 694              		.thumb
 695              		.thumb_func
 696              		.fpu fpv4-sp-d16
 697              		.type	sync_fs, %function
 698              	sync_fs:
 699              	.LVL67:
 700              	.LFB225:
 701              		.loc 1 810 1 is_stmt 1 view -0
 702              		.cfi_startproc
 703              		@ args = 0, pretend = 0, frame = 8
 704              		@ frame_needed = 0, uses_anonymous_args = 0
 705              		.loc 1 810 1 is_stmt 0 view .LVU201
 706 0000 70B5     		push	{r4, r5, r6, lr}
 707              		.cfi_def_cfa_offset 16
 708              		.cfi_offset 4, -16
 709              		.cfi_offset 5, -12
 710              		.cfi_offset 6, -8
 711              		.cfi_offset 14, -4
 712 0002 234B     		ldr	r3, .L116
 713 0004 82B0     		sub	sp, sp, #8
 714              		.cfi_def_cfa_offset 24
 715              		.loc 1 810 1 view .LVU202
 716 0006 1B68     		ldr	r3, [r3]
 717 0008 0193     		str	r3, [sp, #4]
 718 000a 4FF00003 		mov	r3,#0
 719              		.loc 1 811 2 is_stmt 1 view .LVU203
 720              		.loc 1 814 2 view .LVU204
 721              	.LVL68:
 722              	.LBB230:
 723              	.LBI230:
 724              		.loc 1 755 9 view .LVU205
 725              	.LBB231:
 726              		.loc 1 759 2 view .LVU206
 727              		.loc 1 760 2 view .LVU207
 728              		.loc 1 763 2 view .LVU208
 729              		.loc 1 763 5 is_stmt 0 view .LVU209
 730 000e 0379     		ldrb	r3, [r0, #4]	@ zero_extendqisi2
 731              	.LBE231:
 732              	.LBE230:
 733              		.loc 1 810 1 view .LVU210
 734 0010 0446     		mov	r4, r0
 735              	.LBB234:
 736              	.LBB232:
 737              		.loc 1 763 5 view .LVU211
 738 0012 8BB9     		cbnz	r3, .L101
 739              	.LVL69:
 740              		.loc 1 763 5 view .LVU212
 741              	.LBE232:
ARM GAS  /tmp/cceBSuz7.s 			page 14


 742              	.LBE234:
 743              		.loc 1 817 3 is_stmt 1 view .LVU213
 744              		.loc 1 817 6 is_stmt 0 view .LVU214
 745 0014 2378     		ldrb	r3, [r4]	@ zero_extendqisi2
 746 0016 032B     		cmp	r3, #3
 747 0018 15D0     		beq	.L114
 748              	.LVL70:
 749              	.L103:
 750              		.loc 1 831 3 is_stmt 1 view .LVU215
 751              		.loc 1 831 7 is_stmt 0 view .LVU216
 752 001a 0022     		movs	r2, #0
 753 001c 6078     		ldrb	r0, [r4, #1]	@ zero_extendqisi2
 754 001e 1146     		mov	r1, r2
 755 0020 FFF7FEFF 		bl	disk_ioctl
 756              	.LVL71:
 757              		.loc 1 832 8 view .LVU217
 758 0024 0038     		subs	r0, r0, #0
 759 0026 18BF     		it	ne
 760 0028 0120     		movne	r0, #1
 761              	.L105:
 762              	.LVL72:
 763              		.loc 1 835 2 is_stmt 1 view .LVU218
 764              		.loc 1 836 1 is_stmt 0 view .LVU219
 765 002a 194B     		ldr	r3, .L116
 766 002c 1A68     		ldr	r2, [r3]
 767 002e 019B     		ldr	r3, [sp, #4]
 768 0030 5A40     		eors	r2, r3, r2
 769 0032 2BD1     		bne	.L115
 770 0034 02B0     		add	sp, sp, #8
 771              		.cfi_remember_state
 772              		.cfi_def_cfa_offset 16
 773              		@ sp needed
 774 0036 70BD     		pop	{r4, r5, r6, pc}
 775              	.LVL73:
 776              	.L101:
 777              		.cfi_restore_state
 778              	.LBB235:
 779              	.LBB233:
 780              		.loc 1 836 1 view .LVU220
 781 0038 FFF7FEFF 		bl	sync_window.part.0
 782              	.LVL74:
 783              		.loc 1 836 1 view .LVU221
 784              	.LBE233:
 785              	.LBE235:
 786              		.loc 1 815 2 is_stmt 1 view .LVU222
 787              		.loc 1 815 5 is_stmt 0 view .LVU223
 788 003c 0028     		cmp	r0, #0
 789 003e F4D1     		bne	.L105
 790              	.LVL75:
 791              		.loc 1 817 3 is_stmt 1 view .LVU224
 792              		.loc 1 817 6 is_stmt 0 view .LVU225
 793 0040 2378     		ldrb	r3, [r4]	@ zero_extendqisi2
 794 0042 032B     		cmp	r3, #3
 795 0044 E9D1     		bne	.L103
 796              	.L114:
 797              		.loc 1 817 31 discriminator 1 view .LVU226
 798 0046 6379     		ldrb	r3, [r4, #5]	@ zero_extendqisi2
ARM GAS  /tmp/cceBSuz7.s 			page 15


 799 0048 012B     		cmp	r3, #1
 800 004a E6D1     		bne	.L103
 801              		.loc 1 819 4 is_stmt 1 view .LVU227
 802              		.loc 1 819 14 is_stmt 0 view .LVU228
 803 004c 04F13001 		add	r1, r4, #48
 804              	.LVL76:
 805              	.LBB236:
 806              	.LBI236:
 807              		.loc 1 579 6 is_stmt 1 view .LVU229
 808              	.LBB237:
 809              		.loc 1 580 2 view .LVU230
 810              		.loc 1 582 2 view .LVU231
 811              		.loc 1 582 8 view .LVU232
 812              		.loc 1 580 8 is_stmt 0 view .LVU233
 813 0050 0B46     		mov	r3, r1
 814 0052 04F50C72 		add	r2, r4, #560
 815              		.loc 1 583 8 view .LVU234
 816 0056 0025     		movs	r5, #0
 817              	.LVL77:
 818              	.L106:
 819              		.loc 1 583 3 is_stmt 1 view .LVU235
 820              		.loc 1 583 8 is_stmt 0 view .LVU236
 821 0058 03F8015B 		strb	r5, [r3], #1
 822              	.LVL78:
 823              		.loc 1 582 8 is_stmt 1 view .LVU237
 824              		.loc 1 582 8 is_stmt 0 view .LVU238
 825 005c 9A42     		cmp	r2, r3
 826 005e FBD1     		bne	.L106
 827              	.LVL79:
 828              		.loc 1 582 8 view .LVU239
 829              	.LBE237:
 830              	.LBE236:
 831              		.loc 1 820 4 is_stmt 1 view .LVU240
 832              		.loc 1 820 4 view .LVU241
 833              		.loc 1 826 30 is_stmt 0 view .LVU242
 834 0060 E269     		ldr	r2, [r4, #28]
 835              		.loc 1 821 4 view .LVU243
 836 0062 0C4B     		ldr	r3, .L116+4
 837              		.loc 1 823 4 view .LVU244
 838 0064 2069     		ldr	r0, [r4, #16]
 839              		.loc 1 821 4 view .LVU245
 840 0066 2363     		str	r3, [r4, #48]
 841              		.loc 1 822 4 view .LVU246
 842 0068 0B4E     		ldr	r6, .L116+8
 843              		.loc 1 820 4 view .LVU247
 844 006a 4AF65523 		movw	r3, #43605
 845              		.loc 1 826 30 view .LVU248
 846 006e 0132     		adds	r2, r2, #1
 847              		.loc 1 820 4 view .LVU249
 848 0070 A4F82E32 		strh	r3, [r4, #558]	@ movhi
 849              		.loc 1 821 4 is_stmt 1 view .LVU250
 850              		.loc 1 821 4 view .LVU251
 851              		.loc 1 821 4 view .LVU252
 852              		.loc 1 821 4 view .LVU253
 853              		.loc 1 822 4 view .LVU254
 854              		.loc 1 822 4 view .LVU255
 855              		.loc 1 822 4 view .LVU256
ARM GAS  /tmp/cceBSuz7.s 			page 16


 856              		.loc 1 822 4 view .LVU257
 857              		.loc 1 824 4 is_stmt 0 view .LVU258
 858 0074 E368     		ldr	r3, [r4, #12]
 859 0076 C4F81C32 		str	r3, [r4, #540]
 860              		.loc 1 823 4 view .LVU259
 861 007a C4E98560 		strd	r6, r0, [r4, #532]
 862              		.loc 1 824 4 is_stmt 1 view .LVU260
 863              		.loc 1 824 4 view .LVU261
 864              		.loc 1 824 4 view .LVU262
 865              		.loc 1 824 4 view .LVU263
 866              		.loc 1 826 4 view .LVU264
 867              		.loc 1 827 4 view .LVU265
 868              		.loc 1 826 16 is_stmt 0 view .LVU266
 869 007e E262     		str	r2, [r4, #44]
 870              		.loc 1 827 4 view .LVU267
 871 0080 6078     		ldrb	r0, [r4, #1]	@ zero_extendqisi2
 872 0082 0123     		movs	r3, #1
 873 0084 FFF7FEFF 		bl	disk_write
 874              	.LVL80:
 875              		.loc 1 828 4 is_stmt 1 view .LVU268
 876              		.loc 1 828 17 is_stmt 0 view .LVU269
 877 0088 6571     		strb	r5, [r4, #5]
 878 008a C6E7     		b	.L103
 879              	.LVL81:
 880              	.L115:
 881              		.loc 1 836 1 view .LVU270
 882 008c FFF7FEFF 		bl	__stack_chk_fail
 883              	.LVL82:
 884              	.L117:
 885              		.loc 1 836 1 view .LVU271
 886              		.align	2
 887              	.L116:
 888 0090 00000000 		.word	.LC4
 889 0094 52526141 		.word	1096897106
 890 0098 72724161 		.word	1631679090
 891              		.cfi_endproc
 892              	.LFE225:
 893              		.size	sync_fs, .-sync_fs
 894              		.section	.rodata.move_window.cst4,"aM",%progbits,4
 895              		.align	2
 896              	.LC5:
 897 0000 00000000 		.word	__stack_chk_guard
 898              		.section	.text.move_window,"ax",%progbits
 899              		.align	1
 900              		.p2align 4,,15
 901              		.syntax unified
 902              		.thumb
 903              		.thumb_func
 904              		.fpu fpv4-sp-d16
 905              		.type	move_window, %function
 906              	move_window:
 907              	.LVL83:
 908              	.LFB224:
 909              		.loc 1 785 1 is_stmt 1 view -0
 910              		.cfi_startproc
 911              		@ args = 0, pretend = 0, frame = 8
 912              		@ frame_needed = 0, uses_anonymous_args = 0
ARM GAS  /tmp/cceBSuz7.s 			page 17


 913              		.loc 1 785 1 is_stmt 0 view .LVU273
 914 0000 30B5     		push	{r4, r5, lr}
 915              		.cfi_def_cfa_offset 12
 916              		.cfi_offset 4, -12
 917              		.cfi_offset 5, -8
 918              		.cfi_offset 14, -4
 919              		.loc 1 786 5 view .LVU274
 920 0002 C36A     		ldr	r3, [r0, #44]
 921              		.loc 1 785 1 view .LVU275
 922 0004 124A     		ldr	r2, .L132
 923 0006 83B0     		sub	sp, sp, #12
 924              		.cfi_def_cfa_offset 24
 925              		.loc 1 786 5 view .LVU276
 926 0008 8B42     		cmp	r3, r1
 927              		.loc 1 785 1 view .LVU277
 928 000a 1268     		ldr	r2, [r2]
 929 000c 0192     		str	r2, [sp, #4]
 930 000e 4FF00002 		mov	r2,#0
 931              		.loc 1 786 2 is_stmt 1 view .LVU278
 932              		.loc 1 786 5 is_stmt 0 view .LVU279
 933 0012 19D0     		beq	.L125
 934              		.loc 1 788 3 is_stmt 1 view .LVU280
 935              	.LVL84:
 936              	.LBB244:
 937              	.LBI244:
 938              		.loc 1 755 9 view .LVU281
 939              	.LBB245:
 940              		.loc 1 759 2 view .LVU282
 941              		.loc 1 760 2 view .LVU283
 942              		.loc 1 763 2 view .LVU284
 943              		.loc 1 763 5 is_stmt 0 view .LVU285
 944 0014 0379     		ldrb	r3, [r0, #4]	@ zero_extendqisi2
 945 0016 0446     		mov	r4, r0
 946 0018 0D46     		mov	r5, r1
 947 001a 7BB9     		cbnz	r3, .L120
 948              	.LVL85:
 949              	.L123:
 950              		.loc 1 763 5 view .LVU286
 951              	.LBE245:
 952              	.LBE244:
 953              	.LBB247:
 954              	.LBI247:
 955              		.loc 1 781 9 is_stmt 1 view .LVU287
 956              	.LBB248:
 957              		.loc 1 791 3 view .LVU288
 958              		.loc 1 791 7 is_stmt 0 view .LVU289
 959 001c 6078     		ldrb	r0, [r4, #1]	@ zero_extendqisi2
 960 001e 0123     		movs	r3, #1
 961 0020 2A46     		mov	r2, r5
 962 0022 04F13001 		add	r1, r4, #48
 963 0026 FFF7FEFF 		bl	disk_read
 964              	.LVL86:
 965              		.loc 1 791 6 view .LVU290
 966 002a 58B9     		cbnz	r0, .L121
 967              		.loc 1 793 3 is_stmt 1 view .LVU291
 968              		.loc 1 793 15 is_stmt 0 view .LVU292
 969 002c E562     		str	r5, [r4, #44]
ARM GAS  /tmp/cceBSuz7.s 			page 18


 970              	.LVL87:
 971              	.L119:
 972              		.loc 1 793 15 view .LVU293
 973              	.LBE248:
 974              	.LBE247:
 975              		.loc 1 797 1 view .LVU294
 976 002e 084B     		ldr	r3, .L132
 977 0030 1A68     		ldr	r2, [r3]
 978 0032 019B     		ldr	r3, [sp, #4]
 979 0034 5A40     		eors	r2, r3, r2
 980 0036 09D1     		bne	.L131
 981 0038 03B0     		add	sp, sp, #12
 982              		.cfi_remember_state
 983              		.cfi_def_cfa_offset 12
 984              		@ sp needed
 985 003a 30BD     		pop	{r4, r5, pc}
 986              	.LVL88:
 987              	.L120:
 988              		.cfi_restore_state
 989              	.LBB249:
 990              	.LBB246:
 991              		.loc 1 797 1 view .LVU295
 992 003c FFF7FEFF 		bl	sync_window.part.0
 993              	.LVL89:
 994              		.loc 1 797 1 view .LVU296
 995              	.LBE246:
 996              	.LBE249:
 997              		.loc 1 788 6 view .LVU297
 998 0040 0028     		cmp	r0, #0
 999 0042 EBD0     		beq	.L123
 1000              	.L121:
 1001              		.loc 1 789 11 view .LVU298
 1002 0044 0120     		movs	r0, #1
 1003 0046 F2E7     		b	.L119
 1004              	.LVL90:
 1005              	.L125:
 1006              		.loc 1 796 9 view .LVU299
 1007 0048 0020     		movs	r0, #0
 1008              	.LVL91:
 1009              		.loc 1 796 9 view .LVU300
 1010 004a F0E7     		b	.L119
 1011              	.LVL92:
 1012              	.L131:
 1013              		.loc 1 797 1 view .LVU301
 1014 004c FFF7FEFF 		bl	__stack_chk_fail
 1015              	.LVL93:
 1016              	.L133:
 1017              		.align	2
 1018              	.L132:
 1019 0050 00000000 		.word	.LC5
 1020              		.cfi_endproc
 1021              	.LFE224:
 1022              		.size	move_window, .-move_window
 1023              		.section	.rodata.check_fs.cst4,"aM",%progbits,4
 1024              		.align	2
 1025              	.LC6:
 1026 0000 00000000 		.word	__stack_chk_guard
ARM GAS  /tmp/cceBSuz7.s 			page 19


 1027              		.section	.text.check_fs,"ax",%progbits
 1028              		.align	1
 1029              		.p2align 4,,15
 1030              		.syntax unified
 1031              		.thumb
 1032              		.thumb_func
 1033              		.fpu fpv4-sp-d16
 1034              		.type	check_fs, %function
 1035              	check_fs:
 1036              	.LVL94:
 1037              	.LFB250:
 1038              		.loc 1 2140 1 is_stmt 1 view -0
 1039              		.cfi_startproc
 1040              		@ args = 0, pretend = 0, frame = 8
 1041              		@ frame_needed = 0, uses_anonymous_args = 0
 1042              		.loc 1 2140 1 is_stmt 0 view .LVU303
 1043 0000 10B5     		push	{r4, lr}
 1044              		.cfi_def_cfa_offset 8
 1045              		.cfi_offset 4, -8
 1046              		.cfi_offset 14, -4
 1047              		.loc 1 2141 29 view .LVU304
 1048 0002 4FF0FF33 		mov	r3, #-1
 1049 0006 C362     		str	r3, [r0, #44]
 1050              		.loc 1 2141 12 view .LVU305
 1051 0008 0022     		movs	r2, #0
 1052              		.loc 1 2140 1 view .LVU306
 1053 000a 184B     		ldr	r3, .L141
 1054              		.loc 1 2141 12 view .LVU307
 1055 000c 0271     		strb	r2, [r0, #4]
 1056              		.loc 1 2140 1 view .LVU308
 1057 000e 82B0     		sub	sp, sp, #8
 1058              		.cfi_def_cfa_offset 16
 1059              		.loc 1 2140 1 view .LVU309
 1060 0010 0446     		mov	r4, r0
 1061 0012 1B68     		ldr	r3, [r3]
 1062 0014 0193     		str	r3, [sp, #4]
 1063 0016 4FF00003 		mov	r3,#0
 1064              		.loc 1 2141 2 is_stmt 1 view .LVU310
 1065              		.loc 1 2141 17 view .LVU311
 1066              		.loc 1 2142 2 view .LVU312
 1067              		.loc 1 2142 6 is_stmt 0 view .LVU313
 1068 001a FFF7FEFF 		bl	move_window
 1069              	.LVL95:
 1070              		.loc 1 2142 5 view .LVU314
 1071 001e 00BB     		cbnz	r0, .L137
 1072              		.loc 1 2145 2 is_stmt 1 view .LVU315
 1073              		.loc 1 2145 6 is_stmt 0 view .LVU316
 1074 0020 94F82F12 		ldrb	r1, [r4, #559]	@ zero_extendqisi2
 1075 0024 94F82E32 		ldrb	r3, [r4, #558]	@ zero_extendqisi2
 1076              		.loc 1 2145 5 view .LVU317
 1077 0028 4AF65522 		movw	r2, #43605
 1078              		.loc 1 2145 6 view .LVU318
 1079 002c 43EA0123 		orr	r3, r3, r1, lsl #8
 1080              		.loc 1 2145 5 view .LVU319
 1081 0030 9342     		cmp	r3, r2
 1082 0032 14D1     		bne	.L138
 1083              		.loc 1 2148 2 is_stmt 1 view .LVU320
ARM GAS  /tmp/cceBSuz7.s 			page 20


 1084              		.loc 1 2148 7 is_stmt 0 view .LVU321
 1085 0034 D4F86630 		ldr	r3, [r4, #102]	@ unaligned
 1086              		.loc 1 2148 5 view .LVU322
 1087 0038 0D4A     		ldr	r2, .L141+4
 1088              		.loc 1 2148 41 view .LVU323
 1089 003a 23F07F43 		bic	r3, r3, #-16777216
 1090              		.loc 1 2148 5 view .LVU324
 1091 003e 9342     		cmp	r3, r2
 1092 0040 06D0     		beq	.L135
 1093              	.LVL96:
 1094              	.LBB252:
 1095              	.LBI252:
 1096              		.loc 1 2136 6 is_stmt 1 view .LVU325
 1097              	.LBB253:
 1098              		.loc 1 2150 2 view .LVU326
 1099              		.loc 1 2150 7 is_stmt 0 view .LVU327
 1100 0042 D4F88200 		ldr	r0, [r4, #130]	@ unaligned
 1101              		.loc 1 2150 43 view .LVU328
 1102 0046 20F07F40 		bic	r0, r0, #-16777216
 1103              	.LBE253:
 1104              	.LBE252:
 1105              		.loc 1 2143 10 view .LVU329
 1106 004a 801A     		subs	r0, r0, r2
 1107 004c 18BF     		it	ne
 1108 004e 0120     		movne	r0, #1
 1109              	.LVL97:
 1110              	.L135:
 1111              		.loc 1 2154 1 view .LVU330
 1112 0050 064B     		ldr	r3, .L141
 1113 0052 1A68     		ldr	r2, [r3]
 1114 0054 019B     		ldr	r3, [sp, #4]
 1115 0056 5A40     		eors	r2, r3, r2
 1116 0058 05D1     		bne	.L140
 1117 005a 02B0     		add	sp, sp, #8
 1118              		.cfi_remember_state
 1119              		.cfi_def_cfa_offset 8
 1120              		@ sp needed
 1121 005c 10BD     		pop	{r4, pc}
 1122              	.LVL98:
 1123              	.L138:
 1124              		.cfi_restore_state
 1125              		.loc 1 2146 10 view .LVU331
 1126 005e 0220     		movs	r0, #2
 1127 0060 F6E7     		b	.L135
 1128              	.L137:
 1129              		.loc 1 2143 10 view .LVU332
 1130 0062 0320     		movs	r0, #3
 1131 0064 F4E7     		b	.L135
 1132              	.L140:
 1133              		.loc 1 2154 1 view .LVU333
 1134 0066 FFF7FEFF 		bl	__stack_chk_fail
 1135              	.LVL99:
 1136              	.L142:
 1137 006a 00BF     		.align	2
 1138              	.L141:
 1139 006c 00000000 		.word	.LC6
 1140 0070 46415400 		.word	5521734
ARM GAS  /tmp/cceBSuz7.s 			page 21


 1141              		.cfi_endproc
 1142              	.LFE250:
 1143              		.size	check_fs, .-check_fs
 1144              		.section	.rodata.find_volume.cst4,"aM",%progbits,4
 1145              		.align	2
 1146              	.LC7:
 1147 0000 00000000 		.word	__stack_chk_guard
 1148              		.section	.text.find_volume,"ax",%progbits
 1149              		.align	1
 1150              		.p2align 4,,15
 1151              		.syntax unified
 1152              		.thumb
 1153              		.thumb_func
 1154              		.fpu fpv4-sp-d16
 1155              		.type	find_volume, %function
 1156              	find_volume:
 1157              	.LVL100:
 1158              	.LFB251:
 1159              		.loc 1 2169 1 is_stmt 1 view -0
 1160              		.cfi_startproc
 1161              		@ args = 0, pretend = 0, frame = 32
 1162              		@ frame_needed = 0, uses_anonymous_args = 0
 1163              		.loc 1 2169 1 is_stmt 0 view .LVU335
 1164 0000 2DE9F041 		push	{r4, r5, r6, r7, r8, lr}
 1165              		.cfi_def_cfa_offset 24
 1166              		.cfi_offset 4, -24
 1167              		.cfi_offset 5, -20
 1168              		.cfi_offset 6, -16
 1169              		.cfi_offset 7, -12
 1170              		.cfi_offset 8, -8
 1171              		.cfi_offset 14, -4
 1172 0004 0646     		mov	r6, r0
 1173              		.loc 1 2180 8 view .LVU336
 1174 0006 0846     		mov	r0, r1
 1175              	.LVL101:
 1176              		.loc 1 2169 1 view .LVU337
 1177 0008 A349     		ldr	r1, .L219
 1178              	.LVL102:
 1179              		.loc 1 2169 1 view .LVU338
 1180 000a 88B0     		sub	sp, sp, #32
 1181              		.cfi_def_cfa_offset 56
 1182              		.loc 1 2179 7 view .LVU339
 1183 000c 0023     		movs	r3, #0
 1184              		.loc 1 2169 1 view .LVU340
 1185 000e 0968     		ldr	r1, [r1]
 1186 0010 0791     		str	r1, [sp, #28]
 1187 0012 4FF00001 		mov	r1,#0
 1188              		.loc 1 2170 2 is_stmt 1 view .LVU341
 1189              		.loc 1 2171 2 view .LVU342
 1190              		.loc 1 2172 2 view .LVU343
 1191              		.loc 1 2173 2 view .LVU344
 1192              		.loc 1 2174 2 view .LVU345
 1193              		.loc 1 2175 2 view .LVU346
 1194              		.loc 1 2179 2 view .LVU347
 1195              		.loc 1 2179 7 is_stmt 0 view .LVU348
 1196 0016 3360     		str	r3, [r6]
 1197              		.loc 1 2180 2 is_stmt 1 view .LVU349
ARM GAS  /tmp/cceBSuz7.s 			page 22


 1198              		.loc 1 2169 1 is_stmt 0 view .LVU350
 1199 0018 1746     		mov	r7, r2
 1200              		.loc 1 2180 8 view .LVU351
 1201 001a FFF7FEFF 		bl	get_ldnumber
 1202              	.LVL103:
 1203              		.loc 1 2181 2 is_stmt 1 view .LVU352
 1204              		.loc 1 2181 5 is_stmt 0 view .LVU353
 1205 001e 051E     		subs	r5, r0, #0
 1206 0020 C0F2B580 		blt	.L172
 1207              		.loc 1 2184 2 is_stmt 1 view .LVU354
 1208              		.loc 1 2184 5 is_stmt 0 view .LVU355
 1209 0024 9D4B     		ldr	r3, .L219+4
 1210 0026 53F82540 		ldr	r4, [r3, r5, lsl #2]
 1211              	.LVL104:
 1212              		.loc 1 2185 2 is_stmt 1 view .LVU356
 1213              		.loc 1 2185 5 is_stmt 0 view .LVU357
 1214 002a 002C     		cmp	r4, #0
 1215 002c 00F0D480 		beq	.L173
 1216              		.loc 1 2187 14 is_stmt 1 view .LVU358
 1217              		.loc 1 2188 2 view .LVU359
 1218              		.loc 1 2188 7 is_stmt 0 view .LVU360
 1219 0030 3460     		str	r4, [r6]
 1220              		.loc 1 2190 2 is_stmt 1 view .LVU361
 1221              		.loc 1 2190 5 is_stmt 0 view .LVU362
 1222 0032 2378     		ldrb	r3, [r4]	@ zero_extendqisi2
 1223 0034 6BB1     		cbz	r3, .L145
 1224              		.loc 1 2191 3 is_stmt 1 view .LVU363
 1225              		.loc 1 2191 10 is_stmt 0 view .LVU364
 1226 0036 6078     		ldrb	r0, [r4, #1]	@ zero_extendqisi2
 1227              	.LVL105:
 1228              		.loc 1 2191 10 view .LVU365
 1229 0038 FFF7FEFF 		bl	disk_status
 1230              	.LVL106:
 1231              		.loc 1 2192 3 is_stmt 1 view .LVU366
 1232              		.loc 1 2192 6 is_stmt 0 view .LVU367
 1233 003c C207     		lsls	r2, r0, #31
 1234 003e 08D4     		bmi	.L145
 1235              		.loc 1 2193 4 is_stmt 1 view .LVU368
 1236              		.loc 1 2193 7 is_stmt 0 view .LVU369
 1237 0040 002F     		cmp	r7, #0
 1238 0042 00F0CD80 		beq	.L174
 1239              		.loc 1 2193 31 discriminator 1 view .LVU370
 1240 0046 10F00402 		ands	r2, r0, #4
 1241 004a 00F09580 		beq	.L144
 1242              	.LVL107:
 1243              	.L147:
 1244              		.loc 1 2194 12 view .LVU371
 1245 004e 0A22     		movs	r2, #10
 1246 0050 92E0     		b	.L144
 1247              	.LVL108:
 1248              	.L145:
 1249              		.loc 1 2202 2 is_stmt 1 view .LVU372
 1250              		.loc 1 2202 14 is_stmt 0 view .LVU373
 1251 0052 0023     		movs	r3, #0
 1252              		.loc 1 2203 12 view .LVU374
 1253 0054 E8B2     		uxtb	r0, r5
 1254              		.loc 1 2202 14 view .LVU375
ARM GAS  /tmp/cceBSuz7.s 			page 23


 1255 0056 2370     		strb	r3, [r4]
 1256              		.loc 1 2203 2 is_stmt 1 view .LVU376
 1257              		.loc 1 2204 2 view .LVU377
 1258              		.loc 1 2203 10 is_stmt 0 view .LVU378
 1259 0058 6070     		strb	r0, [r4, #1]
 1260              		.loc 1 2204 9 view .LVU379
 1261 005a FFF7FEFF 		bl	disk_initialize
 1262              	.LVL109:
 1263              		.loc 1 2205 2 is_stmt 1 view .LVU380
 1264              		.loc 1 2205 5 is_stmt 0 view .LVU381
 1265 005e C307     		lsls	r3, r0, #31
 1266 0060 00F19380 		bmi	.L175
 1267              		.loc 1 2207 2 is_stmt 1 view .LVU382
 1268              		.loc 1 2207 5 is_stmt 0 view .LVU383
 1269 0064 0FB1     		cbz	r7, .L146
 1270              		.loc 1 2207 29 discriminator 1 view .LVU384
 1271 0066 4607     		lsls	r6, r0, #29
 1272              	.LVL110:
 1273              		.loc 1 2207 29 discriminator 1 view .LVU385
 1274 0068 F1D4     		bmi	.L147
 1275              	.L146:
 1276              		.loc 1 2214 2 is_stmt 1 view .LVU386
 1277              	.LVL111:
 1278              		.loc 1 2215 2 view .LVU387
 1279              		.loc 1 2215 8 is_stmt 0 view .LVU388
 1280 006a 0021     		movs	r1, #0
 1281 006c 2046     		mov	r0, r4
 1282              	.LVL112:
 1283              		.loc 1 2215 8 view .LVU389
 1284 006e FFF7FEFF 		bl	check_fs
 1285              	.LVL113:
 1286              		.loc 1 2216 5 view .LVU390
 1287 0072 0128     		cmp	r0, #1
 1288              		.loc 1 2215 8 view .LVU391
 1289 0074 0246     		mov	r2, r0
 1290              	.LVL114:
 1291              		.loc 1 2216 2 is_stmt 1 view .LVU392
 1292              		.loc 1 2216 5 is_stmt 0 view .LVU393
 1293 0076 00F08C80 		beq	.L215
 1294              		.loc 1 2214 8 view .LVU394
 1295 007a 0026     		movs	r6, #0
 1296              	.LVL115:
 1297              	.L148:
 1298              		.loc 1 2231 2 is_stmt 1 view .LVU395
 1299              		.loc 1 2231 5 is_stmt 0 view .LVU396
 1300 007c 032A     		cmp	r2, #3
 1301 007e 00F0AD80 		beq	.L179
 1302              		.loc 1 2232 2 is_stmt 1 view .LVU397
 1303              		.loc 1 2232 5 is_stmt 0 view .LVU398
 1304 0082 002A     		cmp	r2, #0
 1305 0084 77D1     		bne	.L155
 1306              	.LVL116:
 1307              	.L154:
 1308              		.loc 1 2236 2 is_stmt 1 view .LVU399
 1309              		.loc 1 2236 6 is_stmt 0 view .LVU400
 1310 0086 94F83C10 		ldrb	r1, [r4, #60]	@ zero_extendqisi2
 1311 008a 94F83B30 		ldrb	r3, [r4, #59]	@ zero_extendqisi2
ARM GAS  /tmp/cceBSuz7.s 			page 24


 1312 008e 43EA0123 		orr	r3, r3, r1, lsl #8
 1313              		.loc 1 2236 5 view .LVU401
 1314 0092 B3F5007F 		cmp	r3, #512
 1315 0096 6ED1     		bne	.L155
 1316              		.loc 1 2239 2 is_stmt 1 view .LVU402
 1317              		.loc 1 2239 11 is_stmt 0 view .LVU403
 1318 0098 94F84710 		ldrb	r1, [r4, #71]	@ zero_extendqisi2
 1319 009c 94F84630 		ldrb	r3, [r4, #70]	@ zero_extendqisi2
 1320              	.LVL117:
 1321              		.loc 1 2240 2 is_stmt 1 view .LVU404
 1322              		.loc 1 2240 5 is_stmt 0 view .LVU405
 1323 00a0 53EA0123 		orrs	r3, r3, r1, lsl #8
 1324              	.LVL118:
 1325              		.loc 1 2240 15 is_stmt 1 view .LVU406
 1326              		.loc 1 2243 22 is_stmt 0 view .LVU407
 1327 00a4 94F84010 		ldrb	r1, [r4, #64]	@ zero_extendqisi2
 1328              		.loc 1 2240 22 view .LVU408
 1329 00a8 08BF     		it	eq
 1330 00aa 636D     		ldreq	r3, [r4, #84]
 1331              	.LVL119:
 1332              		.loc 1 2241 2 is_stmt 1 view .LVU409
 1333              		.loc 1 2241 12 is_stmt 0 view .LVU410
 1334 00ac A361     		str	r3, [r4, #24]
 1335              		.loc 1 2243 2 is_stmt 1 view .LVU411
 1336              		.loc 1 2244 5 is_stmt 0 view .LVU412
 1337 00ae 481E     		subs	r0, r1, #1
 1338 00b0 0128     		cmp	r0, #1
 1339              		.loc 1 2243 13 view .LVU413
 1340 00b2 E170     		strb	r1, [r4, #3]
 1341              		.loc 1 2244 2 is_stmt 1 view .LVU414
 1342              		.loc 1 2244 5 is_stmt 0 view .LVU415
 1343 00b4 5FD8     		bhi	.L155
 1344              		.loc 1 2246 2 is_stmt 1 view .LVU416
 1345              	.LVL120:
 1346              		.loc 1 2248 2 view .LVU417
 1347              		.loc 1 2248 21 is_stmt 0 view .LVU418
 1348 00b6 94F83D00 		ldrb	r0, [r4, #61]	@ zero_extendqisi2
 1349              		.loc 1 2248 12 view .LVU419
 1350 00ba A070     		strb	r0, [r4, #2]
 1351              		.loc 1 2249 2 is_stmt 1 view .LVU420
 1352              		.loc 1 2249 5 is_stmt 0 view .LVU421
 1353 00bc 0028     		cmp	r0, #0
 1354 00be 5AD0     		beq	.L155
 1355              		.loc 1 2249 44 discriminator 1 view .LVU422
 1356 00c0 451E     		subs	r5, r0, #1
 1357              		.loc 1 2249 17 discriminator 1 view .LVU423
 1358 00c2 0542     		tst	r5, r0
 1359 00c4 57D1     		bne	.L155
 1360              		.loc 1 2252 2 is_stmt 1 view .LVU424
 1361              		.loc 1 2252 18 is_stmt 0 view .LVU425
 1362 00c6 94F84250 		ldrb	r5, [r4, #66]	@ zero_extendqisi2
 1363 00ca 94F84170 		ldrb	r7, [r4, #65]	@ zero_extendqisi2
 1364 00ce 47EA0527 		orr	r7, r7, r5, lsl #8
 1365              		.loc 1 2253 5 view .LVU426
 1366 00d2 3D07     		lsls	r5, r7, #28
 1367              		.loc 1 2252 16 view .LVU427
 1368 00d4 2781     		strh	r7, [r4, #8]	@ movhi
ARM GAS  /tmp/cceBSuz7.s 			page 25


 1369              		.loc 1 2253 2 is_stmt 1 view .LVU428
 1370              		.loc 1 2253 5 is_stmt 0 view .LVU429
 1371 00d6 4ED1     		bne	.L155
 1372              		.loc 1 2256 2 is_stmt 1 view .LVU430
 1373              		.loc 1 2256 10 is_stmt 0 view .LVU431
 1374 00d8 94F844C0 		ldrb	ip, [r4, #68]	@ zero_extendqisi2
 1375 00dc 94F84350 		ldrb	r5, [r4, #67]	@ zero_extendqisi2
 1376              	.LVL121:
 1377              		.loc 1 2257 2 is_stmt 1 view .LVU432
 1378              		.loc 1 2259 9 is_stmt 0 view .LVU433
 1379 00e0 94F83FE0 		ldrb	lr, [r4, #63]	@ zero_extendqisi2
 1380              		.loc 1 2257 5 view .LVU434
 1381 00e4 55EA0C25 		orrs	r5, r5, ip, lsl #8
 1382              	.LVL122:
 1383              		.loc 1 2257 14 is_stmt 1 view .LVU435
 1384              		.loc 1 2259 9 is_stmt 0 view .LVU436
 1385 00e8 94F83EC0 		ldrb	ip, [r4, #62]	@ zero_extendqisi2
 1386              		.loc 1 2257 20 view .LVU437
 1387 00ec 08BF     		it	eq
 1388 00ee 256D     		ldreq	r5, [r4, #80]
 1389              	.LVL123:
 1390              		.loc 1 2259 2 is_stmt 1 view .LVU438
 1391              		.loc 1 2260 2 view .LVU439
 1392              		.loc 1 2260 5 is_stmt 0 view .LVU440
 1393 00f0 5CEA0E2C 		orrs	ip, ip, lr, lsl #8
 1394              	.LVL124:
 1395              		.loc 1 2260 5 view .LVU441
 1396 00f4 3FD0     		beq	.L155
 1397              		.loc 1 2246 9 view .LVU442
 1398 00f6 03FB01F1 		mul	r1, r3, r1
 1399              	.LVL125:
 1400              		.loc 1 2263 2 is_stmt 1 view .LVU443
 1401              		.loc 1 2263 9 is_stmt 0 view .LVU444
 1402 00fa 0CEB171E 		add	lr, ip, r7, lsr #4
 1403 00fe 8E44     		add	lr, lr, r1
 1404              	.LVL126:
 1405              		.loc 1 2264 2 is_stmt 1 view .LVU445
 1406              		.loc 1 2264 5 is_stmt 0 view .LVU446
 1407 0100 7545     		cmp	r5, lr
 1408 0102 38D3     		bcc	.L155
 1409              		.loc 1 2265 2 is_stmt 1 view .LVU447
 1410              		.loc 1 2265 17 is_stmt 0 view .LVU448
 1411 0104 A5EB0E05 		sub	r5, r5, lr
 1412              	.LVL127:
 1413              		.loc 1 2266 5 view .LVU449
 1414 0108 8542     		cmp	r5, r0
 1415              		.loc 1 2265 8 view .LVU450
 1416 010a B5FBF0F8 		udiv	r8, r5, r0
 1417              	.LVL128:
 1418              		.loc 1 2266 2 is_stmt 1 view .LVU451
 1419              		.loc 1 2266 5 is_stmt 0 view .LVU452
 1420 010e 32D3     		bcc	.L155
 1421              		.loc 1 2267 2 is_stmt 1 view .LVU453
 1422              	.LVL129:
 1423              		.loc 1 2268 2 view .LVU454
 1424              		.loc 1 2268 5 is_stmt 0 view .LVU455
 1425 0110 40F6F570 		movw	r0, #4085
ARM GAS  /tmp/cceBSuz7.s 			page 26


 1426 0114 8045     		cmp	r8, r0
 1427 0116 65D9     		bls	.L160
 1428              		.loc 1 2268 26 is_stmt 1 view .LVU456
 1429              	.LVL130:
 1430              		.loc 1 2269 2 view .LVU457
 1431              		.loc 1 2269 5 is_stmt 0 view .LVU458
 1432 0118 4FF6F570 		movw	r0, #65525
 1433 011c 8045     		cmp	r8, r0
 1434 011e 40F2A980 		bls	.L161
 1435              		.loc 1 2269 26 is_stmt 1 view .LVU459
 1436              	.LVL131:
 1437              		.loc 1 2272 2 view .LVU460
 1438              		.loc 1 2272 23 is_stmt 0 view .LVU461
 1439 0122 08F10201 		add	r1, r8, #2
 1440              		.loc 1 2274 22 view .LVU462
 1441 0126 0CEB0605 		add	r5, ip, r6
 1442              		.loc 1 2275 23 view .LVU463
 1443 012a 06EB0E00 		add	r0, r6, lr
 1444              		.loc 1 2272 15 view .LVU464
 1445 012e 6161     		str	r1, [r4, #20]
 1446              		.loc 1 2273 2 is_stmt 1 view .LVU465
 1447              		.loc 1 2274 14 is_stmt 0 view .LVU466
 1448 0130 2562     		str	r5, [r4, #32]
 1449              		.loc 1 2275 15 view .LVU467
 1450 0132 A062     		str	r0, [r4, #40]
 1451              		.loc 1 2273 14 view .LVU468
 1452 0134 E661     		str	r6, [r4, #28]
 1453              		.loc 1 2274 2 is_stmt 1 view .LVU469
 1454              		.loc 1 2275 2 view .LVU470
 1455              		.loc 1 2276 2 view .LVU471
 1456              		.loc 1 2277 3 view .LVU472
 1457              		.loc 1 2277 6 is_stmt 0 view .LVU473
 1458 0136 F7B9     		cbnz	r7, .L155
 1459              		.loc 1 2278 3 is_stmt 1 view .LVU474
 1460              		.loc 1 2279 10 is_stmt 0 view .LVU475
 1461 0138 8900     		lsls	r1, r1, #2
 1462              		.loc 1 2286 26 view .LVU476
 1463 013a 01F2FF11 		addw	r1, r1, #511
 1464              		.loc 1 2278 15 view .LVU477
 1465 013e E06D     		ldr	r0, [r4, #92]
 1466 0140 6062     		str	r0, [r4, #36]
 1467              		.loc 1 2279 3 is_stmt 1 view .LVU478
 1468              	.LVL132:
 1469              		.loc 1 2286 2 view .LVU479
 1470              		.loc 1 2286 5 is_stmt 0 view .LVU480
 1471 0142 B3EB512F 		cmp	r3, r1, lsr #9
 1472 0146 16D3     		bcc	.L155
 1473              		.loc 1 2291 2 is_stmt 1 view .LVU481
 1474              		.loc 1 2297 6 is_stmt 0 view .LVU482
 1475 0148 94F86110 		ldrb	r1, [r4, #97]	@ zero_extendqisi2
 1476 014c 94F86030 		ldrb	r3, [r4, #96]	@ zero_extendqisi2
 1477              	.LVL133:
 1478              		.loc 1 2297 6 view .LVU483
 1479 0150 43EA0123 		orr	r3, r3, r1, lsl #8
 1480              		.loc 1 2294 15 view .LVU484
 1481 0154 8020     		movs	r0, #128
 1482              		.loc 1 2291 34 view .LVU485
ARM GAS  /tmp/cceBSuz7.s 			page 27


 1483 0156 4FF0FF31 		mov	r1, #-1
 1484              		.loc 1 2297 3 view .LVU486
 1485 015a 012B     		cmp	r3, #1
 1486              		.loc 1 2291 17 view .LVU487
 1487 015c C4E90311 		strd	r1, r1, [r4, #12]
 1488              		.loc 1 2294 2 is_stmt 1 view .LVU488
 1489              		.loc 1 2294 15 is_stmt 0 view .LVU489
 1490 0160 6071     		strb	r0, [r4, #5]
 1491              		.loc 1 2296 2 is_stmt 1 view .LVU490
 1492              		.loc 1 2297 3 is_stmt 0 view .LVU491
 1493 0162 60D0     		beq	.L216
 1494              	.LVL134:
 1495              	.L213:
 1496              		.loc 1 2309 19 view .LVU492
 1497 0164 0320     		movs	r0, #3
 1498              	.LVL135:
 1499              	.L164:
 1500              		.loc 1 2315 2 is_stmt 1 view .LVU493
 1501              		.loc 1 2316 11 is_stmt 0 view .LVU494
 1502 0166 4E49     		ldr	r1, .L219+8
 1503              		.loc 1 2315 14 view .LVU495
 1504 0168 2070     		strb	r0, [r4]
 1505              		.loc 1 2316 2 is_stmt 1 view .LVU496
 1506              		.loc 1 2316 11 is_stmt 0 view .LVU497
 1507 016a 0B88     		ldrh	r3, [r1]
 1508 016c 0133     		adds	r3, r3, #1
 1509 016e 9BB2     		uxth	r3, r3
 1510              		.loc 1 2316 9 view .LVU498
 1511 0170 0B80     		strh	r3, [r1]	@ movhi
 1512 0172 E380     		strh	r3, [r4, #6]	@ movhi
 1513              		.loc 1 2324 2 is_stmt 1 view .LVU499
 1514              		.loc 1 2324 9 is_stmt 0 view .LVU500
 1515 0174 00E0     		b	.L144
 1516              	.LVL136:
 1517              	.L155:
 1518              		.loc 1 2232 18 view .LVU501
 1519 0176 0D22     		movs	r2, #13
 1520              	.LVL137:
 1521              	.L144:
 1522              		.loc 1 2325 1 view .LVU502
 1523 0178 474B     		ldr	r3, .L219
 1524 017a 1968     		ldr	r1, [r3]
 1525 017c 079B     		ldr	r3, [sp, #28]
 1526 017e 5940     		eors	r1, r3, r1
 1527 0180 76D1     		bne	.L217
 1528 0182 1046     		mov	r0, r2
 1529 0184 08B0     		add	sp, sp, #32
 1530              		.cfi_remember_state
 1531              		.cfi_def_cfa_offset 24
 1532              		@ sp needed
 1533 0186 BDE8F081 		pop	{r4, r5, r6, r7, r8, pc}
 1534              	.LVL138:
 1535              	.L175:
 1536              		.cfi_restore_state
 1537              		.loc 1 2206 10 view .LVU503
 1538 018a 0322     		movs	r2, #3
 1539 018c F4E7     		b	.L144
ARM GAS  /tmp/cceBSuz7.s 			page 28


 1540              	.LVL139:
 1541              	.L172:
 1542              		.loc 1 2181 22 view .LVU504
 1543 018e 0B22     		movs	r2, #11
 1544 0190 F2E7     		b	.L144
 1545              	.LVL140:
 1546              	.L215:
 1547              		.loc 1 2181 22 view .LVU505
 1548 0192 03AD     		add	r5, sp, #12
 1549              	.LVL141:
 1550              		.loc 1 2216 5 view .LVU506
 1551 0194 2946     		mov	r1, r5
 1552 0196 04F5F773 		add	r3, r4, #494
 1553 019a 04F22E20 		addw	r0, r4, #558
 1554              	.LVL142:
 1555              	.L150:
 1556              	.LBB254:
 1557              	.LBB255:
 1558              		.loc 1 2221 4 is_stmt 1 view .LVU507
 1559              		.loc 1 2222 4 view .LVU508
 1560              		.loc 1 2222 37 is_stmt 0 view .LVU509
 1561 019e 1A79     		ldrb	r2, [r3, #4]	@ zero_extendqisi2
 1562 01a0 02B1     		cbz	r2, .L149
 1563              		.loc 1 2222 37 discriminator 1 view .LVU510
 1564 01a2 9A68     		ldr	r2, [r3, #8]	@ unaligned
 1565              	.L149:
 1566              		.loc 1 2222 10 discriminator 4 view .LVU511
 1567 01a4 41F8042B 		str	r2, [r1], #4
 1568              	.LBE255:
 1569              		.loc 1 2220 22 is_stmt 1 discriminator 4 view .LVU512
 1570              		.loc 1 2220 15 discriminator 4 view .LVU513
 1571 01a8 1033     		adds	r3, r3, #16
 1572              	.LVL143:
 1573              		.loc 1 2220 3 is_stmt 0 discriminator 4 view .LVU514
 1574 01aa 8342     		cmp	r3, r0
 1575 01ac F7D1     		bne	.L150
 1576              		.loc 1 2226 3 is_stmt 1 view .LVU515
 1577              		.loc 1 2227 4 view .LVU516
 1578 01ae 05F11007 		add	r7, r5, #16
 1579              		.loc 1 2227 10 is_stmt 0 view .LVU517
 1580 01b2 55F8046B 		ldr	r6, [r5], #4
 1581              	.LVL144:
 1582              		.loc 1 2228 4 is_stmt 1 view .LVU518
 1583              		.loc 1 2228 8 is_stmt 0 view .LVU519
 1584 01b6 3EB9     		cbnz	r6, .L218
 1585              	.LVL145:
 1586              	.L178:
 1587              		.loc 1 2228 8 view .LVU520
 1588 01b8 0222     		movs	r2, #2
 1589              	.L151:
 1590              		.loc 1 2229 31 discriminator 1 view .LVU521
 1591 01ba BD42     		cmp	r5, r7
 1592 01bc 3FF45EAF 		beq	.L148
 1593              		.loc 1 2226 3 is_stmt 1 view .LVU522
 1594              		.loc 1 2227 4 view .LVU523
 1595              		.loc 1 2227 10 is_stmt 0 view .LVU524
 1596 01c0 55F8046B 		ldr	r6, [r5], #4
ARM GAS  /tmp/cceBSuz7.s 			page 29


 1597              	.LVL146:
 1598              		.loc 1 2228 4 is_stmt 1 view .LVU525
 1599              		.loc 1 2228 8 is_stmt 0 view .LVU526
 1600 01c4 002E     		cmp	r6, #0
 1601 01c6 F7D0     		beq	.L178
 1602              	.L218:
 1603              		.loc 1 2228 18 discriminator 1 view .LVU527
 1604 01c8 3146     		mov	r1, r6
 1605 01ca 2046     		mov	r0, r4
 1606 01cc FFF7FEFF 		bl	check_fs
 1607              	.LVL147:
 1608              		.loc 1 2229 11 is_stmt 1 discriminator 1 view .LVU528
 1609              		.loc 1 2229 3 is_stmt 0 discriminator 1 view .LVU529
 1610 01d0 0246     		mov	r2, r0
 1611 01d2 0028     		cmp	r0, #0
 1612 01d4 F1D1     		bne	.L151
 1613              		.loc 1 2229 3 discriminator 1 view .LVU530
 1614 01d6 56E7     		b	.L154
 1615              	.LVL148:
 1616              	.L173:
 1617              		.loc 1 2229 3 discriminator 1 view .LVU531
 1618              	.LBE254:
 1619              		.loc 1 2185 18 view .LVU532
 1620 01d8 0C22     		movs	r2, #12
 1621 01da CDE7     		b	.L144
 1622              	.LVL149:
 1623              	.L179:
 1624              		.loc 1 2231 23 view .LVU533
 1625 01dc 0122     		movs	r2, #1
 1626              	.LVL150:
 1627              		.loc 1 2231 23 view .LVU534
 1628 01de CBE7     		b	.L144
 1629              	.LVL151:
 1630              	.L174:
 1631              		.loc 1 2195 11 view .LVU535
 1632 01e0 3A46     		mov	r2, r7
 1633 01e2 C9E7     		b	.L144
 1634              	.LVL152:
 1635              	.L160:
 1636              		.loc 1 2272 2 is_stmt 1 view .LVU536
 1637              		.loc 1 2272 23 is_stmt 0 view .LVU537
 1638 01e4 08F10200 		add	r0, r8, #2
 1639              		.loc 1 2274 22 view .LVU538
 1640 01e8 0CEB0605 		add	r5, ip, r6
 1641              		.loc 1 2275 23 view .LVU539
 1642 01ec B644     		add	lr, lr, r6
 1643              	.LVL153:
 1644              		.loc 1 2272 15 view .LVU540
 1645 01ee 6061     		str	r0, [r4, #20]
 1646              		.loc 1 2273 2 is_stmt 1 view .LVU541
 1647              		.loc 1 2274 14 is_stmt 0 view .LVU542
 1648 01f0 2562     		str	r5, [r4, #32]
 1649              		.loc 1 2275 15 view .LVU543
 1650 01f2 C4F828E0 		str	lr, [r4, #40]
 1651              		.loc 1 2273 14 view .LVU544
 1652 01f6 E661     		str	r6, [r4, #28]
 1653              		.loc 1 2274 2 is_stmt 1 view .LVU545
ARM GAS  /tmp/cceBSuz7.s 			page 30


 1654              		.loc 1 2275 2 view .LVU546
 1655              		.loc 1 2276 2 view .LVU547
 1656              		.loc 1 2281 3 view .LVU548
 1657              		.loc 1 2281 6 is_stmt 0 view .LVU549
 1658 01f8 002F     		cmp	r7, #0
 1659 01fa BCD0     		beq	.L155
 1660              		.loc 1 2282 3 is_stmt 1 view .LVU550
 1661              		.loc 1 2282 29 is_stmt 0 view .LVU551
 1662 01fc 0D44     		add	r5, r5, r1
 1663              		.loc 1 2284 36 view .LVU552
 1664 01fe 00EB4006 		add	r6, r0, r0, lsl #1
 1665              	.LVL154:
 1666              		.loc 1 2284 60 view .LVU553
 1667 0202 00F00101 		and	r1, r0, #1
 1668              	.LVL155:
 1669              		.loc 1 2282 15 view .LVU554
 1670 0206 6562     		str	r5, [r4, #36]
 1671              		.loc 1 2283 3 is_stmt 1 view .LVU555
 1672              		.loc 1 2284 21 is_stmt 0 view .LVU556
 1673 0208 01EB5601 		add	r1, r1, r6, lsr #1
 1674 020c 0120     		movs	r0, #1
 1675              	.LVL156:
 1676              	.L168:
 1677              		.loc 1 2286 2 is_stmt 1 view .LVU557
 1678              		.loc 1 2286 26 is_stmt 0 view .LVU558
 1679 020e 01F2FF11 		addw	r1, r1, #511
 1680              	.LVL157:
 1681              		.loc 1 2286 5 view .LVU559
 1682 0212 B3EB512F 		cmp	r3, r1, lsr #9
 1683 0216 AED3     		bcc	.L155
 1684              		.loc 1 2291 2 is_stmt 1 view .LVU560
 1685              		.loc 1 2291 34 is_stmt 0 view .LVU561
 1686 0218 4FF0FF33 		mov	r3, #-1
 1687              	.LVL158:
 1688              		.loc 1 2294 15 view .LVU562
 1689 021c 8021     		movs	r1, #128
 1690              	.LVL159:
 1691              		.loc 1 2291 17 view .LVU563
 1692 021e C4E90333 		strd	r3, r3, [r4, #12]
 1693              		.loc 1 2294 2 is_stmt 1 view .LVU564
 1694              		.loc 1 2294 15 is_stmt 0 view .LVU565
 1695 0222 6171     		strb	r1, [r4, #5]
 1696              		.loc 1 2296 2 is_stmt 1 view .LVU566
 1697 0224 9FE7     		b	.L164
 1698              	.LVL160:
 1699              	.L216:
 1700              		.loc 1 2298 6 is_stmt 0 view .LVU567
 1701 0226 711C     		adds	r1, r6, #1
 1702 0228 2046     		mov	r0, r4
 1703 022a 0192     		str	r2, [sp, #4]
 1704 022c FFF7FEFF 		bl	move_window
 1705              	.LVL161:
 1706              		.loc 1 2298 3 view .LVU568
 1707 0230 019A     		ldr	r2, [sp, #4]
 1708 0232 0028     		cmp	r0, #0
 1709 0234 96D1     		bne	.L213
 1710              		.loc 1 2300 3 is_stmt 1 view .LVU569
ARM GAS  /tmp/cceBSuz7.s 			page 31


 1711              		.loc 1 2301 7 is_stmt 0 view .LVU570
 1712 0236 94F82F12 		ldrb	r1, [r4, #559]	@ zero_extendqisi2
 1713 023a 94F82E32 		ldrb	r3, [r4, #558]	@ zero_extendqisi2
 1714              		.loc 1 2300 16 view .LVU571
 1715 023e 6771     		strb	r7, [r4, #5]
 1716              		.loc 1 2301 3 is_stmt 1 view .LVU572
 1717              		.loc 1 2301 7 is_stmt 0 view .LVU573
 1718 0240 43EA0123 		orr	r3, r3, r1, lsl #8
 1719              		.loc 1 2301 6 view .LVU574
 1720 0244 4AF65521 		movw	r1, #43605
 1721 0248 8B42     		cmp	r3, r1
 1722 024a 8BD1     		bne	.L213
 1723              		.loc 1 2302 4 view .LVU575
 1724 024c 154B     		ldr	r3, .L219+12
 1725 024e 216B     		ldr	r1, [r4, #48]
 1726 0250 9942     		cmp	r1, r3
 1727 0252 87D1     		bne	.L213
 1728              		.loc 1 2303 4 view .LVU576
 1729 0254 03F1FF53 		add	r3, r3, #534773760
 1730 0258 D4F81412 		ldr	r1, [r4, #532]
 1731 025c 03F50053 		add	r3, r3, #8192
 1732 0260 2033     		adds	r3, r3, #32
 1733 0262 9942     		cmp	r1, r3
 1734              		.loc 1 2306 4 is_stmt 1 view .LVU577
 1735              		.loc 1 2309 19 is_stmt 0 view .LVU578
 1736 0264 04BF     		itt	eq
 1737 0266 D4E98613 		ldrdeq	r1, r3, [r4, #536]
 1738 026a C4E90331 		strdeq	r3, r1, [r4, #12]
 1739 026e 79E7     		b	.L213
 1740              	.LVL162:
 1741              	.L217:
 1742              		.loc 1 2325 1 view .LVU579
 1743 0270 FFF7FEFF 		bl	__stack_chk_fail
 1744              	.LVL163:
 1745              	.L161:
 1746              		.loc 1 2272 2 is_stmt 1 view .LVU580
 1747              		.loc 1 2272 23 is_stmt 0 view .LVU581
 1748 0274 08F10200 		add	r0, r8, #2
 1749              		.loc 1 2274 22 view .LVU582
 1750 0278 0CEB0605 		add	r5, ip, r6
 1751              		.loc 1 2275 23 view .LVU583
 1752 027c B644     		add	lr, lr, r6
 1753              	.LVL164:
 1754              		.loc 1 2272 15 view .LVU584
 1755 027e 6061     		str	r0, [r4, #20]
 1756              		.loc 1 2273 2 is_stmt 1 view .LVU585
 1757              		.loc 1 2274 14 is_stmt 0 view .LVU586
 1758 0280 2562     		str	r5, [r4, #32]
 1759              		.loc 1 2275 15 view .LVU587
 1760 0282 C4F828E0 		str	lr, [r4, #40]
 1761              		.loc 1 2273 14 view .LVU588
 1762 0286 E661     		str	r6, [r4, #28]
 1763              		.loc 1 2274 2 is_stmt 1 view .LVU589
 1764              		.loc 1 2275 2 view .LVU590
 1765              		.loc 1 2276 2 view .LVU591
 1766              		.loc 1 2281 3 view .LVU592
 1767              		.loc 1 2281 6 is_stmt 0 view .LVU593
ARM GAS  /tmp/cceBSuz7.s 			page 32


 1768 0288 002F     		cmp	r7, #0
 1769 028a 3FF474AF 		beq	.L155
 1770              		.loc 1 2282 3 is_stmt 1 view .LVU594
 1771              		.loc 1 2282 29 is_stmt 0 view .LVU595
 1772 028e 2944     		add	r1, r1, r5
 1773              	.LVL165:
 1774              		.loc 1 2282 15 view .LVU596
 1775 0290 6162     		str	r1, [r4, #36]
 1776              		.loc 1 2283 3 is_stmt 1 view .LVU597
 1777              		.loc 1 2284 21 is_stmt 0 view .LVU598
 1778 0292 4100     		lsls	r1, r0, #1
 1779 0294 0220     		movs	r0, #2
 1780 0296 BAE7     		b	.L168
 1781              	.L220:
 1782              		.align	2
 1783              	.L219:
 1784 0298 00000000 		.word	.LC7
 1785 029c 00000000 		.word	.LANCHOR0
 1786 02a0 00000000 		.word	.LANCHOR1
 1787 02a4 52526141 		.word	1096897106
 1788              		.cfi_endproc
 1789              	.LFE251:
 1790              		.size	find_volume, .-find_volume
 1791              		.section	.rodata.get_fat.part.0.cst4,"aM",%progbits,4
 1792              		.align	2
 1793              	.LC8:
 1794 0000 00000000 		.word	__stack_chk_guard
 1795              		.section	.text.get_fat.part.0,"ax",%progbits
 1796              		.align	1
 1797              		.p2align 4,,15
 1798              		.syntax unified
 1799              		.thumb
 1800              		.thumb_func
 1801              		.fpu fpv4-sp-d16
 1802              		.type	get_fat.part.0, %function
 1803              	get_fat.part.0:
 1804              	.LVL166:
 1805              	.LFB285:
 1806              		.loc 1 865 7 is_stmt 1 view -0
 1807              		.cfi_startproc
 1808              		@ args = 0, pretend = 0, frame = 8
 1809              		@ frame_needed = 0, uses_anonymous_args = 0
 1810              		.loc 1 865 7 is_stmt 0 view .LVU600
 1811 0000 F0B5     		push	{r4, r5, r6, r7, lr}
 1812              		.cfi_def_cfa_offset 20
 1813              		.cfi_offset 4, -20
 1814              		.cfi_offset 5, -16
 1815              		.cfi_offset 6, -12
 1816              		.cfi_offset 7, -8
 1817              		.cfi_offset 14, -4
 1818              		.loc 1 877 12 view .LVU601
 1819 0002 0378     		ldrb	r3, [r0]	@ zero_extendqisi2
 1820              		.loc 1 865 7 view .LVU602
 1821 0004 354A     		ldr	r2, .L233
 1822 0006 83B0     		sub	sp, sp, #12
 1823              		.cfi_def_cfa_offset 32
 1824              		.loc 1 877 2 view .LVU603
ARM GAS  /tmp/cceBSuz7.s 			page 33


 1825 0008 022B     		cmp	r3, #2
 1826              		.loc 1 865 7 view .LVU604
 1827 000a 0746     		mov	r7, r0
 1828 000c 1268     		ldr	r2, [r2]
 1829 000e 0192     		str	r2, [sp, #4]
 1830 0010 4FF00002 		mov	r2,#0
 1831              		.loc 1 877 2 is_stmt 1 view .LVU605
 1832              		.loc 1 865 7 is_stmt 0 view .LVU606
 1833 0014 0C46     		mov	r4, r1
 1834              		.loc 1 877 2 view .LVU607
 1835 0016 0BD0     		beq	.L222
 1836 0018 032B     		cmp	r3, #3
 1837 001a 25D0     		beq	.L223
 1838 001c 012B     		cmp	r3, #1
 1839 001e 18D0     		beq	.L231
 1840 0020 0120     		movs	r0, #1
 1841              	.LVL167:
 1842              	.L221:
 1843              		.loc 1 901 1 view .LVU608
 1844 0022 2E4B     		ldr	r3, .L233
 1845 0024 1A68     		ldr	r2, [r3]
 1846 0026 019B     		ldr	r3, [sp, #4]
 1847 0028 5A40     		eors	r2, r3, r2
 1848 002a 54D1     		bne	.L232
 1849 002c 03B0     		add	sp, sp, #12
 1850              		.cfi_remember_state
 1851              		.cfi_def_cfa_offset 20
 1852              		@ sp needed
 1853 002e F0BD     		pop	{r4, r5, r6, r7, pc}
 1854              	.LVL168:
 1855              	.L222:
 1856              		.cfi_restore_state
 1857              		.loc 1 887 3 is_stmt 1 view .LVU609
 1858              		.loc 1 887 7 is_stmt 0 view .LVU610
 1859 0030 016A     		ldr	r1, [r0, #32]
 1860              	.LVL169:
 1861              		.loc 1 887 7 view .LVU611
 1862 0032 01EB1421 		add	r1, r1, r4, lsr #8
 1863 0036 FFF7FEFF 		bl	move_window
 1864              	.LVL170:
 1865              		.loc 1 887 6 view .LVU612
 1866 003a 90B9     		cbnz	r0, .L226
 1867              		.loc 1 888 3 is_stmt 1 view .LVU613
 1868              		.loc 1 888 21 is_stmt 0 view .LVU614
 1869 003c 6400     		lsls	r4, r4, #1
 1870              	.LVL171:
 1871              		.loc 1 888 25 view .LVU615
 1872 003e 04F4FF74 		and	r4, r4, #510
 1873              	.LVL172:
 1874              		.loc 1 889 3 is_stmt 1 view .LVU616
 1875              		.loc 1 889 10 is_stmt 0 view .LVU617
 1876 0042 3C44     		add	r4, r4, r7
 1877              	.LVL173:
 1878              		.loc 1 889 10 view .LVU618
 1879 0044 94F83130 		ldrb	r3, [r4, #49]	@ zero_extendqisi2
 1880 0048 94F83000 		ldrb	r0, [r4, #48]	@ zero_extendqisi2
 1881 004c 40EA0320 		orr	r0, r0, r3, lsl #8
ARM GAS  /tmp/cceBSuz7.s 			page 34


 1882 0050 E7E7     		b	.L221
 1883              	.LVL174:
 1884              	.L231:
 1885              		.loc 1 879 3 is_stmt 1 view .LVU619
 1886              		.loc 1 879 20 view .LVU620
 1887              		.loc 1 880 7 is_stmt 0 view .LVU621
 1888 0052 016A     		ldr	r1, [r0, #32]
 1889              	.LVL175:
 1890              		.loc 1 879 23 view .LVU622
 1891 0054 04EB5406 		add	r6, r4, r4, lsr #1
 1892              	.LVL176:
 1893              		.loc 1 880 3 is_stmt 1 view .LVU623
 1894              		.loc 1 880 7 is_stmt 0 view .LVU624
 1895 0058 01EB5621 		add	r1, r1, r6, lsr #9
 1896 005c FFF7FEFF 		bl	move_window
 1897              	.LVL177:
 1898              		.loc 1 880 6 view .LVU625
 1899 0060 F0B1     		cbz	r0, .L225
 1900              	.LVL178:
 1901              	.L226:
 1902              		.loc 1 900 9 view .LVU626
 1903 0062 4FF0FF30 		mov	r0, #-1
 1904 0066 DCE7     		b	.L221
 1905              	.LVL179:
 1906              	.L223:
 1907              		.loc 1 892 3 is_stmt 1 view .LVU627
 1908              		.loc 1 892 7 is_stmt 0 view .LVU628
 1909 0068 016A     		ldr	r1, [r0, #32]
 1910              	.LVL180:
 1911              		.loc 1 892 7 view .LVU629
 1912 006a 01EBD411 		add	r1, r1, r4, lsr #7
 1913 006e FFF7FEFF 		bl	move_window
 1914              	.LVL181:
 1915              		.loc 1 892 6 view .LVU630
 1916 0072 0028     		cmp	r0, #0
 1917 0074 F5D1     		bne	.L226
 1918              		.loc 1 893 3 is_stmt 1 view .LVU631
 1919              		.loc 1 893 21 is_stmt 0 view .LVU632
 1920 0076 A100     		lsls	r1, r4, #2
 1921              		.loc 1 893 25 view .LVU633
 1922 0078 01F4FE71 		and	r1, r1, #508
 1923              		.loc 1 893 5 view .LVU634
 1924 007c 01F13003 		add	r3, r1, #48
 1925 0080 3B44     		add	r3, r3, r7
 1926              	.LVL182:
 1927              		.loc 1 894 3 is_stmt 1 view .LVU635
 1928              		.loc 1 894 10 is_stmt 0 view .LVU636
 1929 0082 7C18     		adds	r4, r7, r1
 1930              	.LVL183:
 1931              		.loc 1 894 10 view .LVU637
 1932 0084 9878     		ldrb	r0, [r3, #2]	@ zero_extendqisi2
 1933 0086 D978     		ldrb	r1, [r3, #3]	@ zero_extendqisi2
 1934 0088 94F83020 		ldrb	r2, [r4, #48]	@ zero_extendqisi2
 1935 008c 5B78     		ldrb	r3, [r3, #1]	@ zero_extendqisi2
 1936              	.LVL184:
 1937              		.loc 1 894 10 view .LVU638
 1938 008e 0004     		lsls	r0, r0, #16
ARM GAS  /tmp/cceBSuz7.s 			page 35


 1939 0090 40EA0160 		orr	r0, r0, r1, lsl #24
 1940 0094 1043     		orrs	r0, r0, r2
 1941 0096 40EA0320 		orr	r0, r0, r3, lsl #8
 1942              		.loc 1 894 22 view .LVU639
 1943 009a 20F07040 		bic	r0, r0, #-268435456
 1944 009e C0E7     		b	.L221
 1945              	.LVL185:
 1946              	.L225:
 1947              		.loc 1 881 3 is_stmt 1 view .LVU640
 1948              		.loc 1 881 19 is_stmt 0 view .LVU641
 1949 00a0 C6F30803 		ubfx	r3, r6, #0, #9
 1950              		.loc 1 882 7 view .LVU642
 1951 00a4 396A     		ldr	r1, [r7, #32]
 1952              		.loc 1 881 15 view .LVU643
 1953 00a6 3B44     		add	r3, r3, r7
 1954              		.loc 1 881 32 view .LVU644
 1955 00a8 0136     		adds	r6, r6, #1
 1956              	.LVL186:
 1957              		.loc 1 882 7 view .LVU645
 1958 00aa 01EB5621 		add	r1, r1, r6, lsr #9
 1959 00ae 3846     		mov	r0, r7
 1960              		.loc 1 881 15 view .LVU646
 1961 00b0 93F83050 		ldrb	r5, [r3, #48]	@ zero_extendqisi2
 1962              	.LVL187:
 1963              		.loc 1 881 30 is_stmt 1 view .LVU647
 1964              		.loc 1 882 3 view .LVU648
 1965              		.loc 1 882 7 is_stmt 0 view .LVU649
 1966 00b4 FFF7FEFF 		bl	move_window
 1967              	.LVL188:
 1968              		.loc 1 882 6 view .LVU650
 1969 00b8 0028     		cmp	r0, #0
 1970 00ba D2D1     		bne	.L226
 1971              		.loc 1 883 3 is_stmt 1 view .LVU651
 1972              		.loc 1 883 20 is_stmt 0 view .LVU652
 1973 00bc C6F30800 		ubfx	r0, r6, #0, #9
 1974              		.loc 1 883 16 view .LVU653
 1975 00c0 3844     		add	r0, r0, r7
 1976              		.loc 1 884 29 view .LVU654
 1977 00c2 E307     		lsls	r3, r4, #31
 1978              		.loc 1 883 16 view .LVU655
 1979 00c4 90F83000 		ldrb	r0, [r0, #48]	@ zero_extendqisi2
 1980              		.loc 1 883 6 view .LVU656
 1981 00c8 45EA0020 		orr	r0, r5, r0, lsl #8
 1982              	.LVL189:
 1983              		.loc 1 884 3 is_stmt 1 view .LVU657
 1984              		.loc 1 884 29 is_stmt 0 view .LVU658
 1985 00cc 4CBF     		ite	mi
 1986 00ce 0009     		lsrmi	r0, r0, #4
 1987              	.LVL190:
 1988              		.loc 1 884 29 view .LVU659
 1989 00d0 C0F30B00 		ubfxpl	r0, r0, #0, #12
 1990 00d4 A5E7     		b	.L221
 1991              	.LVL191:
 1992              	.L232:
 1993              		.loc 1 901 1 view .LVU660
 1994 00d6 FFF7FEFF 		bl	__stack_chk_fail
 1995              	.LVL192:
ARM GAS  /tmp/cceBSuz7.s 			page 36


 1996              	.L234:
 1997 00da 00BF     		.align	2
 1998              	.L233:
 1999 00dc 00000000 		.word	.LC8
 2000              		.cfi_endproc
 2001              	.LFE285:
 2002              		.size	get_fat.part.0, .-get_fat.part.0
 2003              		.section	.rodata.dir_sdi.cst4,"aM",%progbits,4
 2004              		.align	2
 2005              	.LC9:
 2006 0000 00000000 		.word	__stack_chk_guard
 2007              		.section	.text.dir_sdi,"ax",%progbits
 2008              		.align	1
 2009              		.p2align 4,,15
 2010              		.syntax unified
 2011              		.thumb
 2012              		.thumb_func
 2013              		.fpu fpv4-sp-d16
 2014              		.type	dir_sdi, %function
 2015              	dir_sdi:
 2016              	.LVL193:
 2017              	.LFB232:
 2018              		.loc 1 1121 1 is_stmt 1 view -0
 2019              		.cfi_startproc
 2020              		@ args = 0, pretend = 0, frame = 8
 2021              		@ frame_needed = 0, uses_anonymous_args = 0
 2022              		.loc 1 1121 1 is_stmt 0 view .LVU662
 2023 0000 70B5     		push	{r4, r5, r6, lr}
 2024              		.cfi_def_cfa_offset 16
 2025              		.cfi_offset 4, -16
 2026              		.cfi_offset 5, -12
 2027              		.cfi_offset 6, -8
 2028              		.cfi_offset 14, -4
 2029              		.loc 1 1127 7 view .LVU663
 2030 0002 8368     		ldr	r3, [r0, #8]
 2031              		.loc 1 1121 1 view .LVU664
 2032 0004 2D4A     		ldr	r2, .L259
 2033 0006 82B0     		sub	sp, sp, #8
 2034              		.cfi_def_cfa_offset 24
 2035              		.loc 1 1128 5 view .LVU665
 2036 0008 012B     		cmp	r3, #1
 2037              		.loc 1 1121 1 view .LVU666
 2038 000a 1268     		ldr	r2, [r2]
 2039 000c 0192     		str	r2, [sp, #4]
 2040 000e 4FF00002 		mov	r2,#0
 2041 0012 0646     		mov	r6, r0
 2042              		.loc 1 1122 2 is_stmt 1 view .LVU667
 2043              		.loc 1 1123 2 view .LVU668
 2044              		.loc 1 1126 2 view .LVU669
 2045              		.loc 1 1126 14 is_stmt 0 view .LVU670
 2046 0014 C180     		strh	r1, [r0, #6]	@ movhi
 2047              		.loc 1 1127 2 is_stmt 1 view .LVU671
 2048              	.LVL194:
 2049              		.loc 1 1128 2 view .LVU672
 2050              		.loc 1 1128 5 is_stmt 0 view .LVU673
 2051 0016 1FD0     		beq	.L253
 2052              		.loc 1 1128 29 discriminator 1 view .LVU674
ARM GAS  /tmp/cceBSuz7.s 			page 37


 2053 0018 0068     		ldr	r0, [r0]
 2054              	.LVL195:
 2055              		.loc 1 1128 33 discriminator 1 view .LVU675
 2056 001a 4269     		ldr	r2, [r0, #20]
 2057              		.loc 1 1128 16 discriminator 1 view .LVU676
 2058 001c 9A42     		cmp	r2, r3
 2059 001e 1BD9     		bls	.L253
 2060              		.loc 1 1130 2 is_stmt 1 view .LVU677
 2061 0020 0D46     		mov	r5, r1
 2062              		.loc 1 1130 5 is_stmt 0 view .LVU678
 2063 0022 0BB3     		cbz	r3, .L254
 2064              	.LVL196:
 2065              	.L239:
 2066              		.loc 1 1139 3 is_stmt 1 view .LVU679
 2067              		.loc 1 1139 6 is_stmt 0 view .LVU680
 2068 0024 8178     		ldrb	r1, [r0, #2]	@ zero_extendqisi2
 2069              		.loc 1 1140 9 view .LVU681
 2070 0026 B5EB011F 		cmp	r5, r1, lsl #4
 2071              		.loc 1 1139 6 view .LVU682
 2072 002a 4FEA0114 		lsl	r4, r1, #4
 2073              	.LVL197:
 2074              		.loc 1 1140 3 is_stmt 1 view .LVU683
 2075              		.loc 1 1140 9 view .LVU684
 2076 002e 36D3     		bcc	.L242
 2077              		.loc 1 1141 4 view .LVU685
 2078              	.LVL198:
 2079              	.LBB256:
 2080              	.LBI256:
 2081              		.loc 1 865 7 view .LVU686
 2082              	.LBB257:
 2083              		.loc 1 870 2 view .LVU687
 2084              		.loc 1 871 2 view .LVU688
 2085              		.loc 1 874 2 view .LVU689
 2086              		.loc 1 874 5 is_stmt 0 view .LVU690
 2087 0030 012B     		cmp	r3, #1
 2088 0032 0FD8     		bhi	.L243
 2089 0034 10E0     		b	.L253
 2090              	.L255:
 2091              		.loc 1 874 5 view .LVU691
 2092 0036 1946     		mov	r1, r3
 2093 0038 FFF7FEFF 		bl	get_fat.part.0
 2094              	.LVL199:
 2095              		.loc 1 874 5 view .LVU692
 2096              	.LBE257:
 2097              	.LBE256:
 2098              		.loc 1 1142 7 view .LVU693
 2099 003c 421C     		adds	r2, r0, #1
 2100              	.LBB260:
 2101              	.LBB258:
 2102 003e 0346     		mov	r3, r0
 2103              	.LVL200:
 2104              		.loc 1 1142 7 view .LVU694
 2105              	.LBE258:
 2106              	.LBE260:
 2107              		.loc 1 1142 4 is_stmt 1 view .LVU695
 2108              		.loc 1 1142 7 is_stmt 0 view .LVU696
 2109 0040 36D0     		beq	.L247
ARM GAS  /tmp/cceBSuz7.s 			page 38


 2110              	.LVL201:
 2111              		.loc 1 1143 4 is_stmt 1 view .LVU697
 2112              		.loc 1 1143 7 is_stmt 0 view .LVU698
 2113 0042 0128     		cmp	r0, #1
 2114 0044 08D9     		bls	.L253
 2115              		.loc 1 1143 30 discriminator 1 view .LVU699
 2116 0046 3068     		ldr	r0, [r6]
 2117              		.loc 1 1143 34 discriminator 1 view .LVU700
 2118 0048 4269     		ldr	r2, [r0, #20]
 2119              		.loc 1 1143 17 discriminator 1 view .LVU701
 2120 004a 9A42     		cmp	r2, r3
 2121 004c 04D9     		bls	.L253
 2122              		.loc 1 1145 4 is_stmt 1 view .LVU702
 2123              	.LVL202:
 2124              		.loc 1 1145 8 is_stmt 0 view .LVU703
 2125 004e 2D1B     		subs	r5, r5, r4
 2126              	.LVL203:
 2127              		.loc 1 1140 9 is_stmt 1 view .LVU704
 2128 0050 AC42     		cmp	r4, r5
 2129 0052 24D8     		bhi	.L242
 2130              	.L243:
 2131              	.LVL204:
 2132              	.LBB261:
 2133              	.LBB259:
 2134              		.loc 1 874 15 is_stmt 0 view .LVU705
 2135 0054 9A42     		cmp	r2, r3
 2136 0056 EED8     		bhi	.L255
 2137              	.LVL205:
 2138              	.L253:
 2139              		.loc 1 874 15 view .LVU706
 2140              	.LBE259:
 2141              	.LBE261:
 2142              		.loc 1 1150 2 is_stmt 1 view .LVU707
 2143              		.loc 1 1150 20 is_stmt 0 view .LVU708
 2144 0058 0220     		movs	r0, #2
 2145              	.L237:
 2146              		.loc 1 1155 1 view .LVU709
 2147 005a 184B     		ldr	r3, .L259
 2148 005c 1A68     		ldr	r2, [r3]
 2149 005e 019B     		ldr	r3, [sp, #4]
 2150 0060 5A40     		eors	r2, r3, r2
 2151 0062 29D1     		bne	.L256
 2152 0064 02B0     		add	sp, sp, #8
 2153              		.cfi_remember_state
 2154              		.cfi_def_cfa_offset 16
 2155              		@ sp needed
 2156 0066 70BD     		pop	{r4, r5, r6, pc}
 2157              	.LVL206:
 2158              	.L254:
 2159              		.cfi_restore_state
 2160              		.loc 1 1130 12 discriminator 1 view .LVU710
 2161 0068 0178     		ldrb	r1, [r0]	@ zero_extendqisi2
 2162              	.LVL207:
 2163              		.loc 1 1130 12 discriminator 1 view .LVU711
 2164 006a 0329     		cmp	r1, #3
 2165 006c 12D0     		beq	.L257
 2166              	.LVL208:
ARM GAS  /tmp/cceBSuz7.s 			page 39


 2167              	.L240:
 2168              		.loc 1 1134 3 is_stmt 1 view .LVU712
 2169              		.loc 1 1134 20 is_stmt 0 view .LVU713
 2170 006e 0289     		ldrh	r2, [r0, #8]
 2171              		.loc 1 1134 6 view .LVU714
 2172 0070 AA42     		cmp	r2, r5
 2173 0072 F1D9     		bls	.L253
 2174              		.loc 1 1136 3 is_stmt 1 view .LVU715
 2175              		.loc 1 1136 8 is_stmt 0 view .LVU716
 2176 0074 416A     		ldr	r1, [r0, #36]
 2177              	.LVL209:
 2178              	.L241:
 2179              		.loc 1 1149 2 is_stmt 1 view .LVU717
 2180              		.loc 1 1149 12 is_stmt 0 view .LVU718
 2181 0076 F360     		str	r3, [r6, #12]
 2182              		.loc 1 1150 2 is_stmt 1 view .LVU719
 2183              		.loc 1 1150 5 is_stmt 0 view .LVU720
 2184 0078 0029     		cmp	r1, #0
 2185 007a EDD0     		beq	.L253
 2186              		.loc 1 1151 2 is_stmt 1 view .LVU721
 2187              		.loc 1 1152 12 is_stmt 0 view .LVU722
 2188 007c 00F13003 		add	r3, r0, #48
 2189              	.LVL210:
 2190              		.loc 1 1152 31 view .LVU723
 2191 0080 05F00F00 		and	r0, r5, #15
 2192              		.loc 1 1152 24 view .LVU724
 2193 0084 03EB4013 		add	r3, r3, r0, lsl #5
 2194              		.loc 1 1151 18 view .LVU725
 2195 0088 01EB1511 		add	r1, r1, r5, lsr #4
 2196              	.LVL211:
 2197              		.loc 1 1151 11 view .LVU726
 2198 008c C6E90413 		strd	r1, r3, [r6, #16]
 2199              		.loc 1 1152 2 is_stmt 1 view .LVU727
 2200              		.loc 1 1154 2 view .LVU728
 2201              		.loc 1 1154 9 is_stmt 0 view .LVU729
 2202 0090 0020     		movs	r0, #0
 2203 0092 E2E7     		b	.L237
 2204              	.LVL212:
 2205              	.L257:
 2206              		.loc 1 1131 3 is_stmt 1 view .LVU730
 2207              		.loc 1 1131 8 is_stmt 0 view .LVU731
 2208 0094 416A     		ldr	r1, [r0, #36]
 2209              	.LVL213:
 2210              		.loc 1 1133 2 is_stmt 1 view .LVU732
 2211              		.loc 1 1133 5 is_stmt 0 view .LVU733
 2212 0096 0029     		cmp	r1, #0
 2213 0098 E9D0     		beq	.L240
 2214 009a 0B46     		mov	r3, r1
 2215 009c C2E7     		b	.L239
 2216              	.LVL214:
 2217              	.L242:
 2218              		.loc 1 1147 3 is_stmt 1 view .LVU734
 2219              	.LBB262:
 2220              	.LBI262:
 2221              		.loc 1 847 7 view .LVU735
 2222              	.LBB263:
 2223              		.loc 1 852 2 view .LVU736
ARM GAS  /tmp/cceBSuz7.s 			page 40


 2224              		.loc 1 853 28 is_stmt 0 view .LVU737
 2225 009e 023A     		subs	r2, r2, #2
 2226              		.loc 1 852 7 view .LVU738
 2227 00a0 9C1E     		subs	r4, r3, #2
 2228              	.LVL215:
 2229              		.loc 1 853 2 is_stmt 1 view .LVU739
 2230              		.loc 1 853 5 is_stmt 0 view .LVU740
 2231 00a2 9442     		cmp	r4, r2
 2232 00a4 06D2     		bcs	.L258
 2233              		.loc 1 854 2 is_stmt 1 view .LVU741
 2234              		.loc 1 854 18 is_stmt 0 view .LVU742
 2235 00a6 8178     		ldrb	r1, [r0, #2]	@ zero_extendqisi2
 2236              		.loc 1 854 26 view .LVU743
 2237 00a8 826A     		ldr	r2, [r0, #40]
 2238 00aa 04FB0121 		mla	r1, r4, r1, r2
 2239 00ae E2E7     		b	.L241
 2240              	.LVL216:
 2241              	.L247:
 2242              		.loc 1 854 26 view .LVU744
 2243              	.LBE263:
 2244              	.LBE262:
 2245              		.loc 1 1142 35 view .LVU745
 2246 00b0 0120     		movs	r0, #1
 2247              	.LVL217:
 2248              		.loc 1 1142 35 view .LVU746
 2249 00b2 D2E7     		b	.L237
 2250              	.LVL218:
 2251              	.L258:
 2252              		.loc 1 1149 2 is_stmt 1 view .LVU747
 2253              		.loc 1 1149 12 is_stmt 0 view .LVU748
 2254 00b4 F360     		str	r3, [r6, #12]
 2255 00b6 CFE7     		b	.L253
 2256              	.LVL219:
 2257              	.L256:
 2258              		.loc 1 1155 1 view .LVU749
 2259 00b8 FFF7FEFF 		bl	__stack_chk_fail
 2260              	.LVL220:
 2261              	.L260:
 2262              		.align	2
 2263              	.L259:
 2264 00bc 00000000 		.word	.LC9
 2265              		.cfi_endproc
 2266              	.LFE232:
 2267              		.size	dir_sdi, .-dir_sdi
 2268              		.section	.rodata.put_fat.part.0.cst4,"aM",%progbits,4
 2269              		.align	2
 2270              	.LC10:
 2271 0000 00000000 		.word	__stack_chk_guard
 2272              		.section	.text.put_fat.part.0,"ax",%progbits
 2273              		.align	1
 2274              		.p2align 4,,15
 2275              		.syntax unified
 2276              		.thumb
 2277              		.thumb_func
 2278              		.fpu fpv4-sp-d16
 2279              		.type	put_fat.part.0, %function
 2280              	put_fat.part.0:
ARM GAS  /tmp/cceBSuz7.s 			page 41


 2281              	.LVL221:
 2282              	.LFB286:
 2283              		.loc 1 911 9 is_stmt 1 view -0
 2284              		.cfi_startproc
 2285              		@ args = 0, pretend = 0, frame = 8
 2286              		@ frame_needed = 0, uses_anonymous_args = 0
 2287              		.loc 1 911 9 is_stmt 0 view .LVU751
 2288 0000 2DE9F043 		push	{r4, r5, r6, r7, r8, r9, lr}
 2289              		.cfi_def_cfa_offset 28
 2290              		.cfi_offset 4, -28
 2291              		.cfi_offset 5, -24
 2292              		.cfi_offset 6, -20
 2293              		.cfi_offset 7, -16
 2294              		.cfi_offset 8, -12
 2295              		.cfi_offset 9, -8
 2296              		.cfi_offset 14, -4
 2297              		.loc 1 926 13 view .LVU752
 2298 0004 0778     		ldrb	r7, [r0]	@ zero_extendqisi2
 2299              		.loc 1 911 9 view .LVU753
 2300 0006 494B     		ldr	r3, .L280
 2301 0008 83B0     		sub	sp, sp, #12
 2302              		.cfi_def_cfa_offset 40
 2303              		.loc 1 926 3 view .LVU754
 2304 000a 022F     		cmp	r7, #2
 2305              		.loc 1 911 9 view .LVU755
 2306 000c 0446     		mov	r4, r0
 2307 000e 1B68     		ldr	r3, [r3]
 2308 0010 0193     		str	r3, [sp, #4]
 2309 0012 4FF00003 		mov	r3,#0
 2310              		.loc 1 926 3 is_stmt 1 view .LVU756
 2311              		.loc 1 911 9 is_stmt 0 view .LVU757
 2312 0016 0D46     		mov	r5, r1
 2313 0018 9046     		mov	r8, r2
 2314              		.loc 1 926 3 view .LVU758
 2315 001a 0FD0     		beq	.L262
 2316 001c 032F     		cmp	r7, #3
 2317 001e 44D0     		beq	.L263
 2318 0020 012F     		cmp	r7, #1
 2319 0022 1ED0     		beq	.L277
 2320 0024 0226     		movs	r6, #2
 2321              	.LVL222:
 2322              	.L264:
 2323              		.loc 1 959 3 is_stmt 1 view .LVU759
 2324              		.loc 1 959 13 is_stmt 0 view .LVU760
 2325 0026 0123     		movs	r3, #1
 2326 0028 2371     		strb	r3, [r4, #4]
 2327              		.loc 1 962 2 is_stmt 1 view .LVU761
 2328              		.loc 1 963 1 is_stmt 0 view .LVU762
 2329 002a 404B     		ldr	r3, .L280
 2330 002c 1A68     		ldr	r2, [r3]
 2331 002e 019B     		ldr	r3, [sp, #4]
 2332 0030 5A40     		eors	r2, r3, r2
 2333 0032 78D1     		bne	.L278
 2334 0034 3046     		mov	r0, r6
 2335 0036 03B0     		add	sp, sp, #12
 2336              		.cfi_remember_state
 2337              		.cfi_def_cfa_offset 28
ARM GAS  /tmp/cceBSuz7.s 			page 42


 2338              		@ sp needed
 2339 0038 BDE8F083 		pop	{r4, r5, r6, r7, r8, r9, pc}
 2340              	.LVL223:
 2341              	.L262:
 2342              		.cfi_restore_state
 2343              		.loc 1 942 4 is_stmt 1 view .LVU763
 2344              		.loc 1 942 10 is_stmt 0 view .LVU764
 2345 003c 016A     		ldr	r1, [r0, #32]
 2346              	.LVL224:
 2347              		.loc 1 942 10 view .LVU765
 2348 003e 01EB1521 		add	r1, r1, r5, lsr #8
 2349 0042 FFF7FEFF 		bl	move_window
 2350              	.LVL225:
 2351              		.loc 1 943 4 is_stmt 1 view .LVU766
 2352              		.loc 1 943 7 is_stmt 0 view .LVU767
 2353 0046 0646     		mov	r6, r0
 2354 0048 0028     		cmp	r0, #0
 2355 004a ECD1     		bne	.L264
 2356              		.loc 1 944 4 is_stmt 1 view .LVU768
 2357              		.loc 1 944 22 is_stmt 0 view .LVU769
 2358 004c 6D00     		lsls	r5, r5, #1
 2359              	.LVL226:
 2360              		.loc 1 944 26 view .LVU770
 2361 004e 05F4FF75 		and	r5, r5, #510
 2362              	.LVL227:
 2363              		.loc 1 945 4 is_stmt 1 view .LVU771
 2364 0052 2544     		add	r5, r5, r4
 2365              	.LVL228:
 2366              		.loc 1 945 4 is_stmt 0 view .LVU772
 2367 0054 C8F30723 		ubfx	r3, r8, #8, #8
 2368 0058 85F83080 		strb	r8, [r5, #48]
 2369              		.loc 1 945 4 is_stmt 1 view .LVU773
 2370 005c 85F83130 		strb	r3, [r5, #49]
 2371              		.loc 1 946 4 view .LVU774
 2372 0060 E1E7     		b	.L264
 2373              	.LVL229:
 2374              	.L277:
 2375              		.loc 1 928 4 view .LVU775
 2376              		.loc 1 928 21 view .LVU776
 2377              		.loc 1 929 10 is_stmt 0 view .LVU777
 2378 0062 016A     		ldr	r1, [r0, #32]
 2379              	.LVL230:
 2380              		.loc 1 928 24 view .LVU778
 2381 0064 05EB5509 		add	r9, r5, r5, lsr #1
 2382              	.LVL231:
 2383              		.loc 1 929 4 is_stmt 1 view .LVU779
 2384              		.loc 1 929 10 is_stmt 0 view .LVU780
 2385 0068 01EB5921 		add	r1, r1, r9, lsr #9
 2386 006c FFF7FEFF 		bl	move_window
 2387              	.LVL232:
 2388              		.loc 1 930 4 is_stmt 1 view .LVU781
 2389              		.loc 1 930 7 is_stmt 0 view .LVU782
 2390 0070 0646     		mov	r6, r0
 2391 0072 0028     		cmp	r0, #0
 2392 0074 D7D1     		bne	.L264
 2393              		.loc 1 931 4 is_stmt 1 view .LVU783
 2394              		.loc 1 931 20 is_stmt 0 view .LVU784
ARM GAS  /tmp/cceBSuz7.s 			page 43


 2395 0076 C9F30803 		ubfx	r3, r9, #0, #9
 2396              	.LVL233:
 2397              		.loc 1 932 4 is_stmt 1 view .LVU785
 2398              		.loc 1 932 7 is_stmt 0 view .LVU786
 2399 007a EA07     		lsls	r2, r5, #31
 2400 007c 2344     		add	r3, r3, r4
 2401              	.LVL234:
 2402              		.loc 1 933 6 view .LVU787
 2403 007e 09F10109 		add	r9, r9, #1
 2404              	.LVL235:
 2405              		.loc 1 932 7 view .LVU788
 2406 0082 31D5     		bpl	.L265
 2407              		.loc 1 932 27 view .LVU789
 2408 0084 93F83020 		ldrb	r2, [r3, #48]	@ zero_extendqisi2
 2409 0088 02F00F02 		and	r2, r2, #15
 2410              		.loc 1 932 35 view .LVU790
 2411 008c 42EA0812 		orr	r2, r2, r8, lsl #4
 2412              		.loc 1 932 7 view .LVU791
 2413 0090 83F83020 		strb	r2, [r3, #48]
 2414              		.loc 1 933 4 is_stmt 1 view .LVU792
 2415              	.LVL236:
 2416              		.loc 1 934 4 view .LVU793
 2417              		.loc 1 935 10 is_stmt 0 view .LVU794
 2418 0094 216A     		ldr	r1, [r4, #32]
 2419              		.loc 1 934 14 view .LVU795
 2420 0096 2771     		strb	r7, [r4, #4]
 2421              		.loc 1 935 4 is_stmt 1 view .LVU796
 2422              		.loc 1 935 10 is_stmt 0 view .LVU797
 2423 0098 01EB5921 		add	r1, r1, r9, lsr #9
 2424 009c 2046     		mov	r0, r4
 2425              	.LVL237:
 2426              		.loc 1 935 10 view .LVU798
 2427 009e FFF7FEFF 		bl	move_window
 2428              	.LVL238:
 2429              		.loc 1 936 4 is_stmt 1 view .LVU799
 2430              		.loc 1 936 7 is_stmt 0 view .LVU800
 2431 00a2 0028     		cmp	r0, #0
 2432 00a4 39D0     		beq	.L279
 2433              	.L272:
 2434              		.loc 1 936 7 view .LVU801
 2435 00a6 0646     		mov	r6, r0
 2436 00a8 BDE7     		b	.L264
 2437              	.LVL239:
 2438              	.L263:
 2439              		.loc 1 949 4 is_stmt 1 view .LVU802
 2440              		.loc 1 949 10 is_stmt 0 view .LVU803
 2441 00aa 016A     		ldr	r1, [r0, #32]
 2442              	.LVL240:
 2443              		.loc 1 949 10 view .LVU804
 2444 00ac 01EBD511 		add	r1, r1, r5, lsr #7
 2445 00b0 FFF7FEFF 		bl	move_window
 2446              	.LVL241:
 2447              		.loc 1 950 4 is_stmt 1 view .LVU805
 2448              		.loc 1 950 7 is_stmt 0 view .LVU806
 2449 00b4 0646     		mov	r6, r0
 2450 00b6 0028     		cmp	r0, #0
 2451 00b8 B5D1     		bne	.L264
ARM GAS  /tmp/cceBSuz7.s 			page 44


 2452              		.loc 1 951 4 is_stmt 1 view .LVU807
 2453              		.loc 1 951 22 is_stmt 0 view .LVU808
 2454 00ba AD00     		lsls	r5, r5, #2
 2455              	.LVL242:
 2456              		.loc 1 951 26 view .LVU809
 2457 00bc 05F4FE75 		and	r5, r5, #508
 2458              		.loc 1 951 6 view .LVU810
 2459 00c0 05F13003 		add	r3, r5, #48
 2460 00c4 2344     		add	r3, r3, r4
 2461              	.LVL243:
 2462              		.loc 1 952 4 is_stmt 1 view .LVU811
 2463              		.loc 1 952 11 is_stmt 0 view .LVU812
 2464 00c6 2544     		add	r5, r5, r4
 2465 00c8 DA78     		ldrb	r2, [r3, #3]	@ zero_extendqisi2
 2466 00ca 1206     		lsls	r2, r2, #24
 2467              		.loc 1 952 23 view .LVU813
 2468 00cc 02F07042 		and	r2, r2, #-268435456
 2469              		.loc 1 952 8 view .LVU814
 2470 00d0 42EA0802 		orr	r2, r2, r8
 2471              	.LVL244:
 2472              		.loc 1 953 4 is_stmt 1 view .LVU815
 2473 00d4 85F83020 		strb	r2, [r5, #48]
 2474              		.loc 1 953 4 view .LVU816
 2475 00d8 C2F30720 		ubfx	r0, r2, #8, #8
 2476              	.LVL245:
 2477              		.loc 1 953 4 is_stmt 0 view .LVU817
 2478 00dc 110C     		lsrs	r1, r2, #16
 2479 00de 120E     		lsrs	r2, r2, #24
 2480              	.LVL246:
 2481              		.loc 1 953 4 view .LVU818
 2482 00e0 5870     		strb	r0, [r3, #1]
 2483              		.loc 1 953 4 is_stmt 1 view .LVU819
 2484 00e2 9970     		strb	r1, [r3, #2]
 2485              		.loc 1 953 4 view .LVU820
 2486 00e4 DA70     		strb	r2, [r3, #3]
 2487              	.LVL247:
 2488              		.loc 1 954 4 view .LVU821
 2489 00e6 9EE7     		b	.L264
 2490              	.LVL248:
 2491              	.L265:
 2492              		.loc 1 932 7 is_stmt 0 view .LVU822
 2493 00e8 83F83080 		strb	r8, [r3, #48]
 2494              		.loc 1 933 4 is_stmt 1 view .LVU823
 2495              	.LVL249:
 2496              		.loc 1 934 4 view .LVU824
 2497              		.loc 1 935 10 is_stmt 0 view .LVU825
 2498 00ec 216A     		ldr	r1, [r4, #32]
 2499              		.loc 1 934 14 view .LVU826
 2500 00ee 2771     		strb	r7, [r4, #4]
 2501              		.loc 1 935 4 is_stmt 1 view .LVU827
 2502              		.loc 1 935 10 is_stmt 0 view .LVU828
 2503 00f0 01EB5921 		add	r1, r1, r9, lsr #9
 2504 00f4 2046     		mov	r0, r4
 2505              	.LVL250:
 2506              		.loc 1 935 10 view .LVU829
 2507 00f6 FFF7FEFF 		bl	move_window
 2508              	.LVL251:
ARM GAS  /tmp/cceBSuz7.s 			page 45


 2509              		.loc 1 936 4 is_stmt 1 view .LVU830
 2510              		.loc 1 936 7 is_stmt 0 view .LVU831
 2511 00fa 0028     		cmp	r0, #0
 2512 00fc D3D1     		bne	.L272
 2513              		.loc 1 937 4 is_stmt 1 view .LVU832
 2514              		.loc 1 937 20 is_stmt 0 view .LVU833
 2515 00fe C9F30809 		ubfx	r9, r9, #0, #9
 2516              	.LVL252:
 2517              		.loc 1 938 4 is_stmt 1 view .LVU834
 2518              		.loc 1 938 43 is_stmt 0 view .LVU835
 2519 0102 A144     		add	r9, r9, r4
 2520              	.LVL253:
 2521              		.loc 1 938 74 view .LVU836
 2522 0104 C8F30322 		ubfx	r2, r8, #8, #4
 2523              		.loc 1 938 46 view .LVU837
 2524 0108 99F83080 		ldrb	r8, [r9, #48]	@ zero_extendqisi2
 2525              	.LVL254:
 2526              		.loc 1 938 46 view .LVU838
 2527 010c 28F00F08 		bic	r8, r8, #15
 2528              		.loc 1 938 7 view .LVU839
 2529 0110 48EA0202 		orr	r2, r8, r2
 2530              	.LVL255:
 2531              	.L268:
 2532              		.loc 1 938 7 view .LVU840
 2533 0114 89F83020 		strb	r2, [r9, #48]
 2534              		.loc 1 939 4 is_stmt 1 view .LVU841
 2535 0118 85E7     		b	.L264
 2536              	.LVL256:
 2537              	.L279:
 2538              		.loc 1 937 4 view .LVU842
 2539              		.loc 1 937 20 is_stmt 0 view .LVU843
 2540 011a C9F30809 		ubfx	r9, r9, #0, #9
 2541              	.LVL257:
 2542              		.loc 1 938 4 is_stmt 1 view .LVU844
 2543              		.loc 1 938 4 is_stmt 0 view .LVU845
 2544 011e A144     		add	r9, r9, r4
 2545              	.LVL258:
 2546              		.loc 1 938 7 view .LVU846
 2547 0120 C8F30712 		ubfx	r2, r8, #4, #8
 2548 0124 F6E7     		b	.L268
 2549              	.LVL259:
 2550              	.L278:
 2551              		.loc 1 963 1 view .LVU847
 2552 0126 FFF7FEFF 		bl	__stack_chk_fail
 2553              	.LVL260:
 2554              	.L281:
 2555 012a 00BF     		.align	2
 2556              	.L280:
 2557 012c 00000000 		.word	.LC10
 2558              		.cfi_endproc
 2559              	.LFE286:
 2560              		.size	put_fat.part.0, .-put_fat.part.0
 2561              		.section	.rodata.create_chain.cst4,"aM",%progbits,4
 2562              		.align	2
 2563              	.LC11:
 2564 0000 00000000 		.word	__stack_chk_guard
 2565              		.section	.text.create_chain,"ax",%progbits
ARM GAS  /tmp/cceBSuz7.s 			page 46


 2566              		.align	1
 2567              		.p2align 4,,15
 2568              		.syntax unified
 2569              		.thumb
 2570              		.thumb_func
 2571              		.fpu fpv4-sp-d16
 2572              		.type	create_chain, %function
 2573              	create_chain:
 2574              	.LVL261:
 2575              	.LFB230:
 2576              		.loc 1 1031 1 is_stmt 1 view -0
 2577              		.cfi_startproc
 2578              		@ args = 0, pretend = 0, frame = 8
 2579              		@ frame_needed = 0, uses_anonymous_args = 0
 2580              		.loc 1 1031 1 is_stmt 0 view .LVU849
 2581 0000 F0B5     		push	{r4, r5, r6, r7, lr}
 2582              		.cfi_def_cfa_offset 20
 2583              		.cfi_offset 4, -20
 2584              		.cfi_offset 5, -16
 2585              		.cfi_offset 6, -12
 2586              		.cfi_offset 7, -8
 2587              		.cfi_offset 14, -4
 2588 0002 374B     		ldr	r3, .L317
 2589 0004 83B0     		sub	sp, sp, #12
 2590              		.cfi_def_cfa_offset 32
 2591              		.loc 1 1031 1 view .LVU850
 2592 0006 1B68     		ldr	r3, [r3]
 2593 0008 0193     		str	r3, [sp, #4]
 2594 000a 4FF00003 		mov	r3,#0
 2595              		.loc 1 1032 2 is_stmt 1 view .LVU851
 2596              		.loc 1 1033 2 view .LVU852
 2597              		.loc 1 1036 2 view .LVU853
 2598              		.loc 1 1031 1 is_stmt 0 view .LVU854
 2599 000e 0546     		mov	r5, r0
 2600              		.loc 1 1036 5 view .LVU855
 2601 0010 0F46     		mov	r7, r1
 2602 0012 21BB     		cbnz	r1, .L283
 2603              		.loc 1 1037 3 is_stmt 1 view .LVU856
 2604              		.loc 1 1037 7 is_stmt 0 view .LVU857
 2605 0014 C668     		ldr	r6, [r0, #12]
 2606              	.LVL262:
 2607              		.loc 1 1038 3 is_stmt 1 view .LVU858
 2608 0016 4369     		ldr	r3, [r0, #20]
 2609              		.loc 1 1038 6 is_stmt 0 view .LVU859
 2610 0018 96BB     		cbnz	r6, .L284
 2611              		.loc 1 1038 40 view .LVU860
 2612 001a 0126     		movs	r6, #1
 2613              	.LVL263:
 2614              	.L285:
 2615              		.loc 1 1048 2 is_stmt 1 view .LVU861
 2616              		.loc 1 1048 2 is_stmt 0 view .LVU862
 2617 001c 3446     		mov	r4, r6
 2618 001e 10E0     		b	.L295
 2619              	.LVL264:
 2620              	.L314:
 2621              		.loc 1 1052 4 is_stmt 1 view .LVU863
 2622              		.loc 1 1053 4 view .LVU864
ARM GAS  /tmp/cceBSuz7.s 			page 47


 2623              		.loc 1 1053 7 is_stmt 0 view .LVU865
 2624 0020 012E     		cmp	r6, #1
 2625 0022 40D9     		bls	.L294
 2626              	.LVL265:
 2627              	.LBB264:
 2628              	.LBB265:
 2629              		.loc 1 874 15 view .LVU866
 2630 0024 022B     		cmp	r3, #2
 2631 0026 11D9     		bls	.L288
 2632              	.LBE265:
 2633              	.LBE264:
 2634              		.loc 1 1052 8 view .LVU867
 2635 0028 0224     		movs	r4, #2
 2636              	.L292:
 2637              	.LBB268:
 2638              	.LBB266:
 2639              		.loc 1 1052 8 view .LVU868
 2640 002a 2146     		mov	r1, r4
 2641 002c 2846     		mov	r0, r5
 2642 002e FFF7FEFF 		bl	get_fat.part.0
 2643              	.LVL266:
 2644              		.loc 1 1052 8 view .LVU869
 2645              	.LBE266:
 2646              	.LBE268:
 2647              		.loc 1 1056 3 is_stmt 1 view .LVU870
 2648              		.loc 1 1056 6 is_stmt 0 view .LVU871
 2649 0032 48B3     		cbz	r0, .L293
 2650              	.LVL267:
 2651              		.loc 1 1057 3 is_stmt 1 view .LVU872
 2652              		.loc 1 1057 6 is_stmt 0 view .LVU873
 2653 0034 411C     		adds	r1, r0, #1
 2654 0036 33D0     		beq	.L289
 2655              		.loc 1 1057 24 discriminator 1 view .LVU874
 2656 0038 0128     		cmp	r0, #1
 2657 003a 07D0     		beq	.L288
 2658              		.loc 1 1059 3 is_stmt 1 view .LVU875
 2659              		.loc 1 1059 6 is_stmt 0 view .LVU876
 2660 003c A642     		cmp	r6, r4
 2661 003e 32D0     		beq	.L294
 2662 0040 6B69     		ldr	r3, [r5, #20]
 2663              	.L295:
 2664              	.LVL268:
 2665              		.loc 1 1049 2 is_stmt 1 view .LVU877
 2666              		.loc 1 1050 3 view .LVU878
 2667              		.loc 1 1050 6 is_stmt 0 view .LVU879
 2668 0042 0134     		adds	r4, r4, #1
 2669              	.LVL269:
 2670              		.loc 1 1051 3 is_stmt 1 view .LVU880
 2671              		.loc 1 1051 6 is_stmt 0 view .LVU881
 2672 0044 9C42     		cmp	r4, r3
 2673 0046 EBD2     		bcs	.L314
 2674              		.loc 1 1055 3 is_stmt 1 view .LVU882
 2675              	.LVL270:
 2676              	.LBB269:
 2677              	.LBI264:
 2678              		.loc 1 865 7 view .LVU883
 2679              	.LBB267:
ARM GAS  /tmp/cceBSuz7.s 			page 48


 2680              		.loc 1 870 2 view .LVU884
 2681              		.loc 1 871 2 view .LVU885
 2682              		.loc 1 874 2 view .LVU886
 2683              		.loc 1 874 5 is_stmt 0 view .LVU887
 2684 0048 012C     		cmp	r4, #1
 2685 004a EED8     		bhi	.L292
 2686              	.LVL271:
 2687              	.L288:
 2688              		.loc 1 874 5 view .LVU888
 2689              	.LBE267:
 2690              	.LBE269:
 2691              		.loc 1 1042 22 view .LVU889
 2692 004c 0124     		movs	r4, #1
 2693              	.L282:
 2694              		.loc 1 1077 1 view .LVU890
 2695 004e 244B     		ldr	r3, .L317
 2696 0050 1A68     		ldr	r2, [r3]
 2697 0052 019B     		ldr	r3, [sp, #4]
 2698 0054 5A40     		eors	r2, r3, r2
 2699 0056 40D1     		bne	.L315
 2700 0058 2046     		mov	r0, r4
 2701 005a 03B0     		add	sp, sp, #12
 2702              		.cfi_remember_state
 2703              		.cfi_def_cfa_offset 20
 2704              		@ sp needed
 2705 005c F0BD     		pop	{r4, r5, r6, r7, pc}
 2706              	.LVL272:
 2707              	.L283:
 2708              		.cfi_restore_state
 2709              		.loc 1 1041 3 is_stmt 1 view .LVU891
 2710              	.LBB270:
 2711              	.LBI270:
 2712              		.loc 1 865 7 view .LVU892
 2713              	.LBB271:
 2714              		.loc 1 870 2 view .LVU893
 2715              		.loc 1 871 2 view .LVU894
 2716              		.loc 1 874 2 view .LVU895
 2717              		.loc 1 874 5 is_stmt 0 view .LVU896
 2718 005e 0129     		cmp	r1, #1
 2719 0060 F4D9     		bls	.L288
 2720              		.loc 1 874 15 view .LVU897
 2721 0062 4369     		ldr	r3, [r0, #20]
 2722 0064 9942     		cmp	r1, r3
 2723 0066 F1D2     		bcs	.L288
 2724 0068 FFF7FEFF 		bl	get_fat.part.0
 2725              	.LVL273:
 2726              		.loc 1 874 15 view .LVU898
 2727              	.LBE271:
 2728              	.LBE270:
 2729              		.loc 1 1042 6 view .LVU899
 2730 006c 0128     		cmp	r0, #1
 2731              	.LBB273:
 2732              	.LBB272:
 2733 006e 0446     		mov	r4, r0
 2734              	.LVL274:
 2735              		.loc 1 1042 6 view .LVU900
 2736              	.LBE272:
ARM GAS  /tmp/cceBSuz7.s 			page 49


 2737              	.LBE273:
 2738              		.loc 1 1042 3 is_stmt 1 view .LVU901
 2739              		.loc 1 1042 6 is_stmt 0 view .LVU902
 2740 0070 ECD9     		bls	.L288
 2741              		.loc 1 1043 3 is_stmt 1 view .LVU903
 2742              		.loc 1 1043 6 is_stmt 0 view .LVU904
 2743 0072 601C     		adds	r0, r4, #1
 2744              	.LVL275:
 2745              		.loc 1 1043 6 view .LVU905
 2746 0074 14D0     		beq	.L289
 2747              		.loc 1 1044 3 is_stmt 1 view .LVU906
 2748              		.loc 1 1044 14 is_stmt 0 view .LVU907
 2749 0076 6B69     		ldr	r3, [r5, #20]
 2750              		.loc 1 1044 6 view .LVU908
 2751 0078 A342     		cmp	r3, r4
 2752 007a E8D8     		bhi	.L282
 2753 007c 3E46     		mov	r6, r7
 2754 007e CDE7     		b	.L285
 2755              	.LVL276:
 2756              	.L284:
 2757              		.loc 1 1038 40 discriminator 2 view .LVU909
 2758 0080 B342     		cmp	r3, r6
 2759 0082 98BF     		it	ls
 2760 0084 0126     		movls	r6, #1
 2761              	.LVL277:
 2762              		.loc 1 1038 40 discriminator 2 view .LVU910
 2763 0086 C9E7     		b	.L285
 2764              	.LVL278:
 2765              	.L293:
 2766              		.loc 1 1062 2 is_stmt 1 view .LVU911
 2767              	.LBB274:
 2768              	.LBI274:
 2769              		.loc 1 911 9 view .LVU912
 2770              	.LBB275:
 2771              		.loc 1 917 2 view .LVU913
 2772              		.loc 1 918 2 view .LVU914
 2773              		.loc 1 919 2 view .LVU915
 2774              		.loc 1 922 2 view .LVU916
 2775              		.loc 1 922 15 is_stmt 0 view .LVU917
 2776 0088 6B69     		ldr	r3, [r5, #20]
 2777 008a A342     		cmp	r3, r4
 2778 008c DED9     		bls	.L288
 2779 008e 6FF07042 		mvn	r2, #-268435456
 2780 0092 2146     		mov	r1, r4
 2781 0094 2846     		mov	r0, r5
 2782              	.LVL279:
 2783              		.loc 1 922 15 view .LVU918
 2784 0096 FFF7FEFF 		bl	put_fat.part.0
 2785              	.LVL280:
 2786              		.loc 1 962 2 is_stmt 1 view .LVU919
 2787              		.loc 1 962 2 is_stmt 0 view .LVU920
 2788              	.LBE275:
 2789              	.LBE274:
 2790              		.loc 1 1063 2 is_stmt 1 view .LVU921
 2791              		.loc 1 1063 5 is_stmt 0 view .LVU922
 2792 009a 30B1     		cbz	r0, .L316
 2793              	.L296:
ARM GAS  /tmp/cceBSuz7.s 			page 50


 2794              	.LVL281:
 2795              		.loc 1 1073 3 is_stmt 1 view .LVU923
 2796              		.loc 1 1073 43 is_stmt 0 view .LVU924
 2797 009c 0128     		cmp	r0, #1
 2798 009e D5D1     		bne	.L288
 2799              	.LVL282:
 2800              	.L289:
 2801              		.loc 1 1073 43 view .LVU925
 2802 00a0 4FF0FF34 		mov	r4, #-1
 2803 00a4 D3E7     		b	.L282
 2804              	.LVL283:
 2805              	.L294:
 2806              		.loc 1 1053 26 view .LVU926
 2807 00a6 0024     		movs	r4, #0
 2808 00a8 D1E7     		b	.L282
 2809              	.LVL284:
 2810              	.L316:
 2811              		.loc 1 1063 19 discriminator 1 view .LVU927
 2812 00aa 5FB1     		cbz	r7, .L299
 2813              		.loc 1 1064 3 is_stmt 1 view .LVU928
 2814              	.LVL285:
 2815              	.LBB276:
 2816              	.LBI276:
 2817              		.loc 1 911 9 view .LVU929
 2818              	.LBB277:
 2819              		.loc 1 917 2 view .LVU930
 2820              		.loc 1 918 2 view .LVU931
 2821              		.loc 1 919 2 view .LVU932
 2822              		.loc 1 922 2 view .LVU933
 2823              		.loc 1 922 5 is_stmt 0 view .LVU934
 2824 00ac 012F     		cmp	r7, #1
 2825 00ae CDD9     		bls	.L288
 2826              		.loc 1 922 15 view .LVU935
 2827 00b0 6B69     		ldr	r3, [r5, #20]
 2828 00b2 9F42     		cmp	r7, r3
 2829 00b4 CAD2     		bcs	.L288
 2830 00b6 3946     		mov	r1, r7
 2831 00b8 2246     		mov	r2, r4
 2832 00ba 2846     		mov	r0, r5
 2833              	.LVL286:
 2834              		.loc 1 922 15 view .LVU936
 2835 00bc FFF7FEFF 		bl	put_fat.part.0
 2836              	.LVL287:
 2837              		.loc 1 962 2 is_stmt 1 view .LVU937
 2838              		.loc 1 962 2 is_stmt 0 view .LVU938
 2839              	.LBE277:
 2840              	.LBE276:
 2841              		.loc 1 1066 2 is_stmt 1 view .LVU939
 2842              		.loc 1 1066 5 is_stmt 0 view .LVU940
 2843 00c0 0028     		cmp	r0, #0
 2844 00c2 EBD1     		bne	.L296
 2845              	.L299:
 2846              	.LVL288:
 2847              		.loc 1 1067 3 is_stmt 1 view .LVU941
 2848              		.loc 1 1068 9 is_stmt 0 view .LVU942
 2849 00c4 2B69     		ldr	r3, [r5, #16]
 2850              		.loc 1 1067 18 view .LVU943
ARM GAS  /tmp/cceBSuz7.s 			page 51


 2851 00c6 EC60     		str	r4, [r5, #12]
 2852              		.loc 1 1068 3 is_stmt 1 view .LVU944
 2853              		.loc 1 1068 6 is_stmt 0 view .LVU945
 2854 00c8 5A1C     		adds	r2, r3, #1
 2855 00ca C0D0     		beq	.L282
 2856              		.loc 1 1069 4 is_stmt 1 view .LVU946
 2857              		.loc 1 1070 17 is_stmt 0 view .LVU947
 2858 00cc 6A79     		ldrb	r2, [r5, #5]	@ zero_extendqisi2
 2859              		.loc 1 1069 18 view .LVU948
 2860 00ce 013B     		subs	r3, r3, #1
 2861              		.loc 1 1070 17 view .LVU949
 2862 00d0 42F00102 		orr	r2, r2, #1
 2863              		.loc 1 1069 18 view .LVU950
 2864 00d4 2B61     		str	r3, [r5, #16]
 2865              		.loc 1 1070 4 is_stmt 1 view .LVU951
 2866              		.loc 1 1070 17 is_stmt 0 view .LVU952
 2867 00d6 6A71     		strb	r2, [r5, #5]
 2868 00d8 B9E7     		b	.L282
 2869              	.LVL289:
 2870              	.L315:
 2871              		.loc 1 1077 1 view .LVU953
 2872 00da FFF7FEFF 		bl	__stack_chk_fail
 2873              	.LVL290:
 2874              	.L318:
 2875 00de 00BF     		.align	2
 2876              	.L317:
 2877 00e0 00000000 		.word	.LC11
 2878              		.cfi_endproc
 2879              	.LFE230:
 2880              		.size	create_chain, .-create_chain
 2881              		.section	.rodata.dir_next.cst4,"aM",%progbits,4
 2882              		.align	2
 2883              	.LC12:
 2884 0000 00000000 		.word	__stack_chk_guard
 2885              		.section	.text.dir_next,"ax",%progbits
 2886              		.align	1
 2887              		.p2align 4,,15
 2888              		.syntax unified
 2889              		.thumb
 2890              		.thumb_func
 2891              		.fpu fpv4-sp-d16
 2892              		.type	dir_next, %function
 2893              	dir_next:
 2894              	.LVL291:
 2895              	.LFB233:
 2896              		.loc 1 1169 1 is_stmt 1 view -0
 2897              		.cfi_startproc
 2898              		@ args = 0, pretend = 0, frame = 8
 2899              		@ frame_needed = 0, uses_anonymous_args = 0
 2900              		.loc 1 1169 1 is_stmt 0 view .LVU955
 2901 0000 2DE9F04F 		push	{r4, r5, r6, r7, r8, r9, r10, fp, lr}
 2902              		.cfi_def_cfa_offset 36
 2903              		.cfi_offset 4, -36
 2904              		.cfi_offset 5, -32
 2905              		.cfi_offset 6, -28
 2906              		.cfi_offset 7, -24
 2907              		.cfi_offset 8, -20
ARM GAS  /tmp/cceBSuz7.s 			page 52


 2908              		.cfi_offset 9, -16
 2909              		.cfi_offset 10, -12
 2910              		.cfi_offset 11, -8
 2911              		.cfi_offset 14, -4
 2912              		.loc 1 1174 8 view .LVU956
 2913 0004 C588     		ldrh	r5, [r0, #6]
 2914              		.loc 1 1169 1 view .LVU957
 2915 0006 534B     		ldr	r3, .L367
 2916 0008 83B0     		sub	sp, sp, #12
 2917              		.cfi_def_cfa_offset 48
 2918              		.loc 1 1174 16 view .LVU958
 2919 000a 0135     		adds	r5, r5, #1
 2920              		.loc 1 1169 1 view .LVU959
 2921 000c 1B68     		ldr	r3, [r3]
 2922 000e 0193     		str	r3, [sp, #4]
 2923 0010 4FF00003 		mov	r3,#0
 2924              		.loc 1 1170 2 is_stmt 1 view .LVU960
 2925              		.loc 1 1171 2 view .LVU961
 2926              		.loc 1 1174 2 view .LVU962
 2927              	.LVL292:
 2928              		.loc 1 1175 2 view .LVU963
 2929              		.loc 1 1175 10 is_stmt 0 view .LVU964
 2930 0014 ABB2     		uxth	r3, r5
 2931              		.loc 1 1175 5 view .LVU965
 2932 0016 002B     		cmp	r3, #0
 2933 0018 45D0     		beq	.L322
 2934              		.loc 1 1175 26 discriminator 1 view .LVU966
 2935 001a 0369     		ldr	r3, [r0, #16]
 2936 001c 0446     		mov	r4, r0
 2937              		.loc 1 1175 20 discriminator 1 view .LVU967
 2938 001e 002B     		cmp	r3, #0
 2939 0020 41D0     		beq	.L322
 2940              		.loc 1 1178 2 is_stmt 1 view .LVU968
 2941              		.loc 1 1178 5 is_stmt 0 view .LVU969
 2942 0022 15F00F07 		ands	r7, r5, #15
 2943 0026 0FD0     		beq	.L323
 2944 0028 0068     		ldr	r0, [r0]
 2945              	.LVL293:
 2946              	.L324:
 2947              		.loc 1 1219 2 is_stmt 1 view .LVU970
 2948              		.loc 1 1219 12 is_stmt 0 view .LVU971
 2949 002a E580     		strh	r5, [r4, #6]	@ movhi
 2950              		.loc 1 1220 2 is_stmt 1 view .LVU972
 2951              		.loc 1 1222 2 view .LVU973
 2952              		.loc 1 1220 12 is_stmt 0 view .LVU974
 2953 002c 3030     		adds	r0, r0, #48
 2954              		.loc 1 1220 24 view .LVU975
 2955 002e 00EB4710 		add	r0, r0, r7, lsl #5
 2956              		.loc 1 1220 10 view .LVU976
 2957 0032 6061     		str	r0, [r4, #20]
 2958              		.loc 1 1222 9 view .LVU977
 2959 0034 0020     		movs	r0, #0
 2960              	.LVL294:
 2961              	.L321:
 2962              		.loc 1 1223 1 view .LVU978
 2963 0036 474B     		ldr	r3, .L367
 2964 0038 1A68     		ldr	r2, [r3]
ARM GAS  /tmp/cceBSuz7.s 			page 53


 2965 003a 019B     		ldr	r3, [sp, #4]
 2966 003c 5A40     		eors	r2, r3, r2
 2967 003e 40F08680 		bne	.L364
 2968 0042 03B0     		add	sp, sp, #12
 2969              		.cfi_remember_state
 2970              		.cfi_def_cfa_offset 36
 2971              		@ sp needed
 2972 0044 BDE8F08F 		pop	{r4, r5, r6, r7, r8, r9, r10, fp, pc}
 2973              	.LVL295:
 2974              	.L323:
 2975              		.cfi_restore_state
 2976              		.loc 1 1179 3 is_stmt 1 view .LVU979
 2977 0048 0E46     		mov	r6, r1
 2978              		.loc 1 1181 10 is_stmt 0 view .LVU980
 2979 004a C168     		ldr	r1, [r0, #12]
 2980              	.LVL296:
 2981              		.loc 1 1179 11 view .LVU981
 2982 004c 0133     		adds	r3, r3, #1
 2983 004e 0361     		str	r3, [r0, #16]
 2984              		.loc 1 1181 3 is_stmt 1 view .LVU982
 2985              		.loc 1 1182 15 is_stmt 0 view .LVU983
 2986 0050 0068     		ldr	r0, [r0]
 2987              	.LVL297:
 2988              		.loc 1 1181 6 view .LVU984
 2989 0052 29B3     		cbz	r1, .L365
 2990              		.loc 1 1186 4 is_stmt 1 view .LVU985
 2991              		.loc 1 1186 46 is_stmt 0 view .LVU986
 2992 0054 8378     		ldrb	r3, [r0, #2]	@ zero_extendqisi2
 2993              		.loc 1 1186 54 view .LVU987
 2994 0056 013B     		subs	r3, r3, #1
 2995              		.loc 1 1186 7 view .LVU988
 2996 0058 13EA1518 		ands	r8, r3, r5, lsr #4
 2997 005c E5D1     		bne	.L324
 2998              		.loc 1 1187 5 is_stmt 1 view .LVU989
 2999              	.LVL298:
 3000              	.LBB278:
 3001              	.LBI278:
 3002              		.loc 1 865 7 view .LVU990
 3003              	.LBB279:
 3004              		.loc 1 870 2 view .LVU991
 3005              		.loc 1 871 2 view .LVU992
 3006              		.loc 1 874 2 view .LVU993
 3007              		.loc 1 874 5 is_stmt 0 view .LVU994
 3008 005e 0129     		cmp	r1, #1
 3009 0060 23D9     		bls	.L327
 3010              		.loc 1 874 15 view .LVU995
 3011 0062 4369     		ldr	r3, [r0, #20]
 3012 0064 9942     		cmp	r1, r3
 3013 0066 20D2     		bcs	.L327
 3014 0068 FFF7FEFF 		bl	get_fat.part.0
 3015              	.LVL299:
 3016              		.loc 1 874 15 view .LVU996
 3017              	.LBE279:
 3018              	.LBE278:
 3019              		.loc 1 1188 8 view .LVU997
 3020 006c 0128     		cmp	r0, #1
 3021              	.LBB281:
ARM GAS  /tmp/cceBSuz7.s 			page 54


 3022              	.LBB280:
 3023 006e 8146     		mov	r9, r0
 3024              	.LVL300:
 3025              		.loc 1 1188 8 view .LVU998
 3026              	.LBE280:
 3027              	.LBE281:
 3028              		.loc 1 1188 5 is_stmt 1 view .LVU999
 3029              		.loc 1 1188 8 is_stmt 0 view .LVU1000
 3030 0070 1BD9     		bls	.L327
 3031              		.loc 1 1189 5 is_stmt 1 view .LVU1001
 3032              		.loc 1 1189 8 is_stmt 0 view .LVU1002
 3033 0072 B0F1FF3F 		cmp	r0, #-1
 3034 0076 5BD0     		beq	.L331
 3035              		.loc 1 1190 5 is_stmt 1 view .LVU1003
 3036              		.loc 1 1190 19 is_stmt 0 view .LVU1004
 3037 0078 2068     		ldr	r0, [r4]
 3038              	.LVL301:
 3039              		.loc 1 1190 8 view .LVU1005
 3040 007a 4369     		ldr	r3, [r0, #20]
 3041 007c 4B45     		cmp	r3, r9
 3042 007e 16D9     		bls	.L329
 3043 0080 A9F1020A 		sub	r10, r9, #2
 3044              	.LVL302:
 3045              	.L330:
 3046              		.loc 1 1213 5 is_stmt 1 view .LVU1006
 3047              		.loc 1 1213 15 is_stmt 0 view .LVU1007
 3048 0084 C4F80C90 		str	r9, [r4, #12]
 3049              		.loc 1 1214 5 is_stmt 1 view .LVU1008
 3050              	.LVL303:
 3051              	.LBB282:
 3052              	.LBI282:
 3053              		.loc 1 847 7 view .LVU1009
 3054              	.LBB283:
 3055              		.loc 1 852 2 view .LVU1010
 3056              		.loc 1 853 2 view .LVU1011
 3057              		.loc 1 853 28 is_stmt 0 view .LVU1012
 3058 0088 4369     		ldr	r3, [r0, #20]
 3059 008a 023B     		subs	r3, r3, #2
 3060              		.loc 1 853 5 view .LVU1013
 3061 008c 5345     		cmp	r3, r10
 3062 008e 04D9     		bls	.L338
 3063              		.loc 1 854 2 is_stmt 1 view .LVU1014
 3064              		.loc 1 854 18 is_stmt 0 view .LVU1015
 3065 0090 90F80280 		ldrb	r8, [r0, #2]	@ zero_extendqisi2
 3066              		.loc 1 854 26 view .LVU1016
 3067 0094 836A     		ldr	r3, [r0, #40]
 3068 0096 0AFB0838 		mla	r8, r10, r8, r3
 3069              	.L338:
 3070              	.LVL304:
 3071              		.loc 1 854 26 view .LVU1017
 3072              	.LBE283:
 3073              	.LBE282:
 3074              		.loc 1 1214 14 view .LVU1018
 3075 009a C4F81080 		str	r8, [r4, #16]
 3076 009e C4E7     		b	.L324
 3077              	.LVL305:
 3078              	.L365:
ARM GAS  /tmp/cceBSuz7.s 			page 55


 3079              		.loc 1 1182 4 is_stmt 1 view .LVU1019
 3080              		.loc 1 1182 19 is_stmt 0 view .LVU1020
 3081 00a0 0389     		ldrh	r3, [r0, #8]
 3082              		.loc 1 1182 7 view .LVU1021
 3083 00a2 AB42     		cmp	r3, r5
 3084 00a4 C1D8     		bhi	.L324
 3085              	.LVL306:
 3086              	.L322:
 3087              		.loc 1 1176 10 view .LVU1022
 3088 00a6 0420     		movs	r0, #4
 3089 00a8 C5E7     		b	.L321
 3090              	.LVL307:
 3091              	.L327:
 3092              		.loc 1 1188 27 view .LVU1023
 3093 00aa 0220     		movs	r0, #2
 3094 00ac C3E7     		b	.L321
 3095              	.LVL308:
 3096              	.L329:
 3097              	.LBB284:
 3098              		.loc 1 1192 6 is_stmt 1 view .LVU1024
 3099              		.loc 1 1193 6 view .LVU1025
 3100              		.loc 1 1193 9 is_stmt 0 view .LVU1026
 3101 00ae 002E     		cmp	r6, #0
 3102 00b0 F9D0     		beq	.L322
 3103              		.loc 1 1194 6 is_stmt 1 view .LVU1027
 3104              		.loc 1 1194 13 is_stmt 0 view .LVU1028
 3105 00b2 E168     		ldr	r1, [r4, #12]
 3106 00b4 FFF7FEFF 		bl	create_chain
 3107              	.LVL309:
 3108              		.loc 1 1195 6 is_stmt 1 view .LVU1029
 3109              		.loc 1 1195 9 is_stmt 0 view .LVU1030
 3110 00b8 8146     		mov	r9, r0
 3111 00ba 0028     		cmp	r0, #0
 3112 00bc 3FD0     		beq	.L340
 3113              		.loc 1 1196 6 is_stmt 1 view .LVU1031
 3114              		.loc 1 1196 9 is_stmt 0 view .LVU1032
 3115 00be 0128     		cmp	r0, #1
 3116 00c0 F3D0     		beq	.L327
 3117              		.loc 1 1197 6 is_stmt 1 view .LVU1033
 3118              		.loc 1 1197 9 is_stmt 0 view .LVU1034
 3119 00c2 B0F1FF3F 		cmp	r0, #-1
 3120 00c6 33D0     		beq	.L331
 3121              		.loc 1 1199 6 is_stmt 1 view .LVU1035
 3122              		.loc 1 1199 10 is_stmt 0 view .LVU1036
 3123 00c8 2068     		ldr	r0, [r4]
 3124              	.LVL310:
 3125              	.LBB285:
 3126              	.LBI285:
 3127              		.loc 1 755 9 is_stmt 1 view .LVU1037
 3128              	.LBB286:
 3129              		.loc 1 759 2 view .LVU1038
 3130              		.loc 1 760 2 view .LVU1039
 3131              		.loc 1 763 2 view .LVU1040
 3132              		.loc 1 763 5 is_stmt 0 view .LVU1041
 3133 00ca 0379     		ldrb	r3, [r0, #4]	@ zero_extendqisi2
 3134 00cc 002B     		cmp	r3, #0
 3135 00ce 38D1     		bne	.L366
ARM GAS  /tmp/cceBSuz7.s 			page 56


 3136              	.LVL311:
 3137              	.L332:
 3138              		.loc 1 763 5 view .LVU1042
 3139              	.LBE286:
 3140              	.LBE285:
 3141              		.loc 1 1200 6 is_stmt 1 view .LVU1043
 3142              		.loc 1 1200 20 is_stmt 0 view .LVU1044
 3143 00d0 00F13003 		add	r3, r0, #48
 3144              	.LVL312:
 3145              	.LBB288:
 3146              	.LBI288:
 3147              		.loc 1 579 6 is_stmt 1 view .LVU1045
 3148              	.LBB289:
 3149              		.loc 1 580 2 view .LVU1046
 3150              		.loc 1 582 2 view .LVU1047
 3151              		.loc 1 582 8 view .LVU1048
 3152              		.loc 1 582 8 is_stmt 0 view .LVU1049
 3153 00d4 00F50C72 		add	r2, r0, #560
 3154              		.loc 1 583 8 view .LVU1050
 3155 00d8 0021     		movs	r1, #0
 3156              	.LVL313:
 3157              	.L333:
 3158              		.loc 1 583 3 is_stmt 1 view .LVU1051
 3159              		.loc 1 583 8 is_stmt 0 view .LVU1052
 3160 00da 03F8011B 		strb	r1, [r3], #1
 3161              	.LVL314:
 3162              		.loc 1 582 8 is_stmt 1 view .LVU1053
 3163              		.loc 1 582 8 is_stmt 0 view .LVU1054
 3164 00de 9342     		cmp	r3, r2
 3165 00e0 FBD1     		bne	.L333
 3166              	.LVL315:
 3167              		.loc 1 582 8 view .LVU1055
 3168              	.LBE289:
 3169              	.LBE288:
 3170              		.loc 1 1201 6 is_stmt 1 view .LVU1056
 3171              		.loc 1 1201 24 is_stmt 0 view .LVU1057
 3172 00e2 2368     		ldr	r3, [r4]
 3173              	.LVL316:
 3174              	.LBB290:
 3175              	.LBI290:
 3176              		.loc 1 847 7 is_stmt 1 view .LVU1058
 3177              	.LBB291:
 3178              		.loc 1 852 2 view .LVU1059
 3179              		.loc 1 853 28 is_stmt 0 view .LVU1060
 3180 00e4 5A69     		ldr	r2, [r3, #20]
 3181              		.loc 1 852 7 view .LVU1061
 3182 00e6 A9F1020A 		sub	r10, r9, #2
 3183              	.LVL317:
 3184              		.loc 1 853 2 is_stmt 1 view .LVU1062
 3185              		.loc 1 854 2 view .LVU1063
 3186              		.loc 1 853 28 is_stmt 0 view .LVU1064
 3187 00ea 023A     		subs	r2, r2, #2
 3188              		.loc 1 853 5 view .LVU1065
 3189 00ec 9245     		cmp	r10, r2
 3190              		.loc 1 854 26 view .LVU1066
 3191 00ee 3BBF     		ittet	cc
 3192 00f0 9A6A     		ldrcc	r2, [r3, #40]
ARM GAS  /tmp/cceBSuz7.s 			page 57


 3193              		.loc 1 854 18 view .LVU1067
 3194 00f2 9978     		ldrbcc	r1, [r3, #2]	@ zero_extendqisi2
 3195              		.loc 1 853 41 view .LVU1068
 3196 00f4 0022     		movcs	r2, #0
 3197              		.loc 1 854 26 view .LVU1069
 3198 00f6 0AFB0122 		mlacc	r2, r10, r1, r2
 3199              	.LBE291:
 3200              	.LBE290:
 3201              		.loc 1 1201 22 view .LVU1070
 3202 00fa DA62     		str	r2, [r3, #44]
 3203              		.loc 1 1202 6 is_stmt 1 view .LVU1071
 3204              	.LVL318:
 3205              		.loc 1 1202 18 view .LVU1072
 3206              		.loc 1 1202 24 is_stmt 0 view .LVU1073
 3207 00fc 2268     		ldr	r2, [r4]
 3208              		.loc 1 1202 6 view .LVU1074
 3209 00fe 9678     		ldrb	r6, [r2, #2]	@ zero_extendqisi2
 3210              	.LVL319:
 3211              		.loc 1 1202 6 view .LVU1075
 3212 0100 C6B1     		cbz	r6, .L335
 3213              		.loc 1 1202 13 view .LVU1076
 3214 0102 0026     		movs	r6, #0
 3215              		.loc 1 1203 21 view .LVU1077
 3216 0104 4FF0010B 		mov	fp, #1
 3217 0108 07E0     		b	.L337
 3218              	.LVL320:
 3219              	.L336:
 3220              		.loc 1 1205 7 is_stmt 1 discriminator 2 view .LVU1078
 3221              		.loc 1 1205 22 is_stmt 0 discriminator 2 view .LVU1079
 3222 010a C36A     		ldr	r3, [r0, #44]
 3223 010c 0133     		adds	r3, r3, #1
 3224 010e C362     		str	r3, [r0, #44]
 3225              		.loc 1 1202 37 is_stmt 1 discriminator 2 view .LVU1080
 3226              		.loc 1 1202 24 is_stmt 0 discriminator 2 view .LVU1081
 3227 0110 2268     		ldr	r2, [r4]
 3228              		.loc 1 1202 28 discriminator 2 view .LVU1082
 3229 0112 9378     		ldrb	r3, [r2, #2]	@ zero_extendqisi2
 3230              		.loc 1 1202 38 discriminator 2 view .LVU1083
 3231 0114 0136     		adds	r6, r6, #1
 3232              	.LVL321:
 3233              		.loc 1 1202 18 is_stmt 1 discriminator 2 view .LVU1084
 3234              		.loc 1 1202 6 is_stmt 0 discriminator 2 view .LVU1085
 3235 0116 B342     		cmp	r3, r6
 3236 0118 0CD9     		bls	.L335
 3237              	.LVL322:
 3238              	.L337:
 3239              		.loc 1 1203 7 is_stmt 1 view .LVU1086
 3240              		.loc 1 1203 21 is_stmt 0 view .LVU1087
 3241 011a 82F804B0 		strb	fp, [r2, #4]
 3242              		.loc 1 1204 7 is_stmt 1 view .LVU1088
 3243              		.loc 1 1204 11 is_stmt 0 view .LVU1089
 3244 011e 2068     		ldr	r0, [r4]
 3245              	.LVL323:
 3246              	.LBB292:
 3247              	.LBI292:
 3248              		.loc 1 755 9 is_stmt 1 view .LVU1090
 3249              	.LBB293:
ARM GAS  /tmp/cceBSuz7.s 			page 58


 3250              		.loc 1 759 2 view .LVU1091
 3251              		.loc 1 760 2 view .LVU1092
 3252              		.loc 1 763 2 view .LVU1093
 3253              		.loc 1 763 5 is_stmt 0 view .LVU1094
 3254 0120 0379     		ldrb	r3, [r0, #4]	@ zero_extendqisi2
 3255 0122 002B     		cmp	r3, #0
 3256 0124 F1D0     		beq	.L336
 3257 0126 FFF7FEFF 		bl	sync_window.part.0
 3258              	.LVL324:
 3259              		.loc 1 763 5 view .LVU1095
 3260              	.LBE293:
 3261              	.LBE292:
 3262              		.loc 1 1204 10 view .LVU1096
 3263 012a 08B9     		cbnz	r0, .L331
 3264 012c 2068     		ldr	r0, [r4]
 3265 012e ECE7     		b	.L336
 3266              	.LVL325:
 3267              	.L331:
 3268              		.loc 1 1204 10 view .LVU1097
 3269              	.LBE284:
 3270              		.loc 1 1189 36 view .LVU1098
 3271 0130 0120     		movs	r0, #1
 3272 0132 80E7     		b	.L321
 3273              	.L335:
 3274              	.LBB295:
 3275              		.loc 1 1207 6 is_stmt 1 view .LVU1099
 3276              		.loc 1 1207 22 is_stmt 0 view .LVU1100
 3277 0134 D36A     		ldr	r3, [r2, #44]
 3278 0136 9B1B     		subs	r3, r3, r6
 3279 0138 D362     		str	r3, [r2, #44]
 3280 013a 2068     		ldr	r0, [r4]
 3281 013c A2E7     		b	.L330
 3282              	.LVL326:
 3283              	.L340:
 3284              		.loc 1 1195 28 view .LVU1101
 3285 013e 0720     		movs	r0, #7
 3286              	.LVL327:
 3287              		.loc 1 1195 28 view .LVU1102
 3288 0140 79E7     		b	.L321
 3289              	.LVL328:
 3290              	.L366:
 3291              	.LBB294:
 3292              	.LBB287:
 3293              		.loc 1 1195 28 view .LVU1103
 3294 0142 FFF7FEFF 		bl	sync_window.part.0
 3295              	.LVL329:
 3296              		.loc 1 1195 28 view .LVU1104
 3297              	.LBE287:
 3298              	.LBE294:
 3299              		.loc 1 1199 9 view .LVU1105
 3300 0146 0028     		cmp	r0, #0
 3301 0148 F2D1     		bne	.L331
 3302 014a 2068     		ldr	r0, [r4]
 3303 014c C0E7     		b	.L332
 3304              	.LVL330:
 3305              	.L364:
 3306              		.loc 1 1199 9 view .LVU1106
ARM GAS  /tmp/cceBSuz7.s 			page 59


 3307              	.LBE295:
 3308              		.loc 1 1223 1 view .LVU1107
 3309 014e FFF7FEFF 		bl	__stack_chk_fail
 3310              	.LVL331:
 3311              	.L368:
 3312 0152 00BF     		.align	2
 3313              	.L367:
 3314 0154 00000000 		.word	.LC12
 3315              		.cfi_endproc
 3316              	.LFE233:
 3317              		.size	dir_next, .-dir_next
 3318              		.section	.rodata.dir_alloc.cst4,"aM",%progbits,4
 3319              		.align	2
 3320              	.LC13:
 3321 0000 00000000 		.word	__stack_chk_guard
 3322              		.section	.text.dir_alloc,"ax",%progbits
 3323              		.align	1
 3324              		.p2align 4,,15
 3325              		.syntax unified
 3326              		.thumb
 3327              		.thumb_func
 3328              		.fpu fpv4-sp-d16
 3329              		.type	dir_alloc, %function
 3330              	dir_alloc:
 3331              	.LVL332:
 3332              	.LFB234:
 3333              		.loc 1 1238 1 is_stmt 1 view -0
 3334              		.cfi_startproc
 3335              		@ args = 0, pretend = 0, frame = 8
 3336              		@ frame_needed = 0, uses_anonymous_args = 0
 3337              		.loc 1 1238 1 is_stmt 0 view .LVU1109
 3338 0000 70B5     		push	{r4, r5, r6, lr}
 3339              		.cfi_def_cfa_offset 16
 3340              		.cfi_offset 4, -16
 3341              		.cfi_offset 5, -12
 3342              		.cfi_offset 6, -8
 3343              		.cfi_offset 14, -4
 3344 0002 174B     		ldr	r3, .L385
 3345 0004 82B0     		sub	sp, sp, #8
 3346              		.cfi_def_cfa_offset 24
 3347              		.loc 1 1238 1 view .LVU1110
 3348 0006 0D46     		mov	r5, r1
 3349              		.loc 1 1243 8 view .LVU1111
 3350 0008 0021     		movs	r1, #0
 3351              	.LVL333:
 3352              		.loc 1 1238 1 view .LVU1112
 3353 000a 1B68     		ldr	r3, [r3]
 3354 000c 0193     		str	r3, [sp, #4]
 3355 000e 4FF00003 		mov	r3,#0
 3356              		.loc 1 1239 2 is_stmt 1 view .LVU1113
 3357              		.loc 1 1240 2 view .LVU1114
 3358              		.loc 1 1243 2 view .LVU1115
 3359              		.loc 1 1238 1 is_stmt 0 view .LVU1116
 3360 0012 0446     		mov	r4, r0
 3361              		.loc 1 1243 8 view .LVU1117
 3362 0014 FFF7FEFF 		bl	dir_sdi
 3363              	.LVL334:
ARM GAS  /tmp/cceBSuz7.s 			page 60


 3364              		.loc 1 1244 2 is_stmt 1 view .LVU1118
 3365              		.loc 1 1244 5 is_stmt 0 view .LVU1119
 3366 0018 D8B9     		cbnz	r0, .L370
 3367              		.loc 1 1245 5 view .LVU1120
 3368 001a 0646     		mov	r6, r0
 3369 001c 06E0     		b	.L374
 3370              	.LVL335:
 3371              	.L383:
 3372              		.loc 1 1249 26 discriminator 1 view .LVU1121
 3373 001e 73B1     		cbz	r3, .L371
 3374              		.loc 1 1252 7 view .LVU1122
 3375 0020 0646     		mov	r6, r0
 3376              	.LVL336:
 3377              	.L372:
 3378              		.loc 1 1254 4 is_stmt 1 view .LVU1123
 3379              		.loc 1 1254 10 is_stmt 0 view .LVU1124
 3380 0022 0121     		movs	r1, #1
 3381 0024 2046     		mov	r0, r4
 3382              	.LVL337:
 3383              		.loc 1 1254 10 view .LVU1125
 3384 0026 FFF7FEFF 		bl	dir_next
 3385              	.LVL338:
 3386              		.loc 1 1255 11 is_stmt 1 view .LVU1126
 3387              		.loc 1 1255 3 is_stmt 0 view .LVU1127
 3388 002a 90B9     		cbnz	r0, .L370
 3389              	.LVL339:
 3390              	.L374:
 3391              		.loc 1 1246 3 is_stmt 1 view .LVU1128
 3392              		.loc 1 1247 4 view .LVU1129
 3393              		.loc 1 1247 10 is_stmt 0 view .LVU1130
 3394 002c 2169     		ldr	r1, [r4, #16]
 3395 002e 2068     		ldr	r0, [r4]
 3396              	.LVL340:
 3397              		.loc 1 1247 10 view .LVU1131
 3398 0030 FFF7FEFF 		bl	move_window
 3399              	.LVL341:
 3400              		.loc 1 1248 4 is_stmt 1 view .LVU1132
 3401              		.loc 1 1248 7 is_stmt 0 view .LVU1133
 3402 0034 68B9     		cbnz	r0, .L370
 3403              		.loc 1 1249 4 is_stmt 1 view .LVU1134
 3404              		.loc 1 1249 15 is_stmt 0 view .LVU1135
 3405 0036 6369     		ldr	r3, [r4, #20]
 3406 0038 1B78     		ldrb	r3, [r3]	@ zero_extendqisi2
 3407              		.loc 1 1249 7 view .LVU1136
 3408 003a E52B     		cmp	r3, #229
 3409 003c EFD1     		bne	.L383
 3410              	.L371:
 3411              		.loc 1 1250 5 is_stmt 1 view .LVU1137
 3412              		.loc 1 1250 8 is_stmt 0 view .LVU1138
 3413 003e 0136     		adds	r6, r6, #1
 3414              	.LVL342:
 3415              		.loc 1 1250 8 view .LVU1139
 3416 0040 AE42     		cmp	r6, r5
 3417 0042 EED1     		bne	.L372
 3418              	.LVL343:
 3419              	.L373:
 3420              		.loc 1 1258 2 is_stmt 1 view .LVU1140
ARM GAS  /tmp/cceBSuz7.s 			page 61


 3421              		.loc 1 1259 1 is_stmt 0 view .LVU1141
 3422 0044 064B     		ldr	r3, .L385
 3423 0046 1A68     		ldr	r2, [r3]
 3424 0048 019B     		ldr	r3, [sp, #4]
 3425 004a 5A40     		eors	r2, r3, r2
 3426 004c 05D1     		bne	.L384
 3427 004e 02B0     		add	sp, sp, #8
 3428              		.cfi_remember_state
 3429              		.cfi_def_cfa_offset 16
 3430              		@ sp needed
 3431 0050 70BD     		pop	{r4, r5, r6, pc}
 3432              	.LVL344:
 3433              	.L370:
 3434              		.cfi_restore_state
 3435              		.loc 1 1257 2 is_stmt 1 view .LVU1142
 3436              		.loc 1 1257 29 is_stmt 0 view .LVU1143
 3437 0052 0428     		cmp	r0, #4
 3438 0054 08BF     		it	eq
 3439 0056 0720     		moveq	r0, #7
 3440              	.LVL345:
 3441              		.loc 1 1257 29 view .LVU1144
 3442 0058 F4E7     		b	.L373
 3443              	.LVL346:
 3444              	.L384:
 3445              		.loc 1 1259 1 view .LVU1145
 3446 005a FFF7FEFF 		bl	__stack_chk_fail
 3447              	.LVL347:
 3448              	.L386:
 3449              		.loc 1 1259 1 view .LVU1146
 3450 005e 00BF     		.align	2
 3451              	.L385:
 3452 0060 00000000 		.word	.LC13
 3453              		.cfi_endproc
 3454              	.LFE234:
 3455              		.size	dir_alloc, .-dir_alloc
 3456              		.section	.rodata.dir_read.cst4,"aM",%progbits,4
 3457              		.align	2
 3458              	.LC14:
 3459 0000 00000000 		.word	__stack_chk_guard
 3460              		.section	.text.dir_read,"ax",%progbits
 3461              		.align	1
 3462              		.p2align 4,,15
 3463              		.syntax unified
 3464              		.thumb
 3465              		.thumb_func
 3466              		.fpu fpv4-sp-d16
 3467              		.type	dir_read, %function
 3468              	dir_read:
 3469              	.LVL348:
 3470              	.LFB243:
 3471              		.loc 1 1555 1 is_stmt 1 view -0
 3472              		.cfi_startproc
 3473              		@ args = 0, pretend = 0, frame = 8
 3474              		@ frame_needed = 0, uses_anonymous_args = 0
 3475              		.loc 1 1555 1 is_stmt 0 view .LVU1148
 3476 0000 2DE9F047 		push	{r4, r5, r6, r7, r8, r9, r10, lr}
 3477              		.cfi_def_cfa_offset 32
ARM GAS  /tmp/cceBSuz7.s 			page 62


 3478              		.cfi_offset 4, -32
 3479              		.cfi_offset 5, -28
 3480              		.cfi_offset 6, -24
 3481              		.cfi_offset 7, -20
 3482              		.cfi_offset 8, -16
 3483              		.cfi_offset 9, -12
 3484              		.cfi_offset 10, -8
 3485              		.cfi_offset 14, -4
 3486 0004 4A4B     		ldr	r3, .L428
 3487 0006 82B0     		sub	sp, sp, #8
 3488              		.cfi_def_cfa_offset 40
 3489              		.loc 1 1559 19 view .LVU1149
 3490 0008 FF25     		movs	r5, #255
 3491              		.loc 1 1555 1 view .LVU1150
 3492 000a 0746     		mov	r7, r0
 3493 000c 0E46     		mov	r6, r1
 3494 000e 1B68     		ldr	r3, [r3]
 3495 0010 0193     		str	r3, [sp, #4]
 3496 0012 4FF00003 		mov	r3,#0
 3497              		.loc 1 1556 2 is_stmt 1 view .LVU1151
 3498              		.loc 1 1557 2 view .LVU1152
 3499              		.loc 1 1559 2 view .LVU1153
 3500              	.LVL349:
 3501              		.loc 1 1562 2 view .LVU1154
 3502              		.loc 1 1563 2 view .LVU1155
 3503              		.loc 1 1559 7 is_stmt 0 view .LVU1156
 3504 0016 2C46     		mov	r4, r5
 3505              		.loc 1 1562 6 view .LVU1157
 3506 0018 0420     		movs	r0, #4
 3507              	.LVL350:
 3508              		.loc 1 1563 8 view .LVU1158
 3509 001a 06E0     		b	.L388
 3510              	.LVL351:
 3511              	.L414:
 3512              		.loc 1 1581 9 view .LVU1159
 3513 001c FF24     		movs	r4, #255
 3514              	.L390:
 3515              	.LVL352:
 3516              		.loc 1 1592 3 is_stmt 1 view .LVU1160
 3517              		.loc 1 1592 9 is_stmt 0 view .LVU1161
 3518 001e 0021     		movs	r1, #0
 3519 0020 3846     		mov	r0, r7
 3520 0022 FFF7FEFF 		bl	dir_next
 3521              	.LVL353:
 3522              		.loc 1 1593 3 is_stmt 1 view .LVU1162
 3523              		.loc 1 1593 6 is_stmt 0 view .LVU1163
 3524 0026 0028     		cmp	r0, #0
 3525 0028 53D1     		bne	.L389
 3526              	.LVL354:
 3527              	.L388:
 3528              		.loc 1 1563 8 is_stmt 1 view .LVU1164
 3529              		.loc 1 1563 11 is_stmt 0 view .LVU1165
 3530 002a 3969     		ldr	r1, [r7, #16]
 3531              		.loc 1 1563 8 view .LVU1166
 3532 002c 0029     		cmp	r1, #0
 3533 002e 5AD0     		beq	.L424
 3534              		.loc 1 1564 3 is_stmt 1 view .LVU1167
ARM GAS  /tmp/cceBSuz7.s 			page 63


 3535              		.loc 1 1564 9 is_stmt 0 view .LVU1168
 3536 0030 3868     		ldr	r0, [r7]
 3537 0032 FFF7FEFF 		bl	move_window
 3538              	.LVL355:
 3539              		.loc 1 1565 3 is_stmt 1 view .LVU1169
 3540              		.loc 1 1565 6 is_stmt 0 view .LVU1170
 3541 0036 0028     		cmp	r0, #0
 3542 0038 4BD1     		bne	.L389
 3543              		.loc 1 1566 3 is_stmt 1 view .LVU1171
 3544              		.loc 1 1566 7 is_stmt 0 view .LVU1172
 3545 003a 7B69     		ldr	r3, [r7, #20]
 3546              	.LVL356:
 3547              		.loc 1 1567 3 is_stmt 1 view .LVU1173
 3548              		.loc 1 1567 5 is_stmt 0 view .LVU1174
 3549 003c 1978     		ldrb	r1, [r3]	@ zero_extendqisi2
 3550              	.LVL357:
 3551              		.loc 1 1568 3 is_stmt 1 view .LVU1175
 3552              		.loc 1 1568 6 is_stmt 0 view .LVU1176
 3553 003e 0029     		cmp	r1, #0
 3554 0040 46D0     		beq	.L406
 3555              		.loc 1 1569 3 is_stmt 1 view .LVU1177
 3556              	.LVL358:
 3557              		.loc 1 1571 3 view .LVU1178
 3558              		.loc 1 1571 6 is_stmt 0 view .LVU1179
 3559 0042 E529     		cmp	r1, #229
 3560 0044 EAD0     		beq	.L414
 3561              		.loc 1 1571 16 discriminator 1 view .LVU1180
 3562 0046 2E29     		cmp	r1, #46
 3563 0048 E8D0     		beq	.L414
 3564              		.loc 1 1569 5 discriminator 2 view .LVU1181
 3565 004a DA7A     		ldrb	r2, [r3, #11]	@ zero_extendqisi2
 3566 004c 02F03F02 		and	r2, r2, #63
 3567              		.loc 1 1571 47 discriminator 2 view .LVU1182
 3568 0050 A2F1080C 		sub	ip, r2, #8
 3569 0054 BCFA8CFC 		clz	ip, ip
 3570 0058 4FEA5C1C 		lsr	ip, ip, #5
 3571              		.loc 1 1571 44 discriminator 2 view .LVU1183
 3572 005c B445     		cmp	ip, r6
 3573 005e DDD1     		bne	.L414
 3574              		.loc 1 1574 4 is_stmt 1 view .LVU1184
 3575              		.loc 1 1574 7 is_stmt 0 view .LVU1185
 3576 0060 0F2A     		cmp	r2, #15
 3577 0062 4FD1     		bne	.L391
 3578              		.loc 1 1575 5 is_stmt 1 view .LVU1186
 3579              		.loc 1 1575 8 is_stmt 0 view .LVU1187
 3580 0064 4A06     		lsls	r2, r1, #25
 3581 0066 30D5     		bpl	.L392
 3582              		.loc 1 1576 6 is_stmt 1 view .LVU1188
 3583              		.loc 1 1578 18 is_stmt 0 view .LVU1189
 3584 0068 FA88     		ldrh	r2, [r7, #6]
 3585              		.loc 1 1576 10 view .LVU1190
 3586 006a 5D7B     		ldrb	r5, [r3, #13]	@ zero_extendqisi2
 3587              	.LVL359:
 3588              		.loc 1 1577 6 is_stmt 1 view .LVU1191
 3589              		.loc 1 1578 18 is_stmt 0 view .LVU1192
 3590 006c 3A84     		strh	r2, [r7, #32]	@ movhi
 3591              	.LVL360:
ARM GAS  /tmp/cceBSuz7.s 			page 64


 3592              		.loc 1 1577 8 view .LVU1193
 3593 006e 01F0BF01 		and	r1, r1, #191
 3594              	.LVL361:
 3595              		.loc 1 1577 17 is_stmt 1 view .LVU1194
 3596              		.loc 1 1578 6 view .LVU1195
 3597              		.loc 1 1581 5 view .LVU1196
 3598              	.L393:
 3599              		.loc 1 1581 21 is_stmt 0 discriminator 1 view .LVU1197
 3600 0072 5A7B     		ldrb	r2, [r3, #13]	@ zero_extendqisi2
 3601 0074 AA42     		cmp	r2, r5
 3602 0076 D1D1     		bne	.L414
 3603              	.LBB300:
 3604              	.LBB301:
 3605              		.loc 1 1349 22 discriminator 3 view .LVU1198
 3606 0078 1878     		ldrb	r0, [r3]	@ zero_extendqisi2
 3607              	.LVL362:
 3608              		.loc 1 1349 22 discriminator 3 view .LVU1199
 3609 007a 2E4C     		ldr	r4, .L428+4
 3610              	.LBE301:
 3611              	.LBE300:
 3612              		.loc 1 1581 51 discriminator 3 view .LVU1200
 3613 007c D7F81C80 		ldr	r8, [r7, #28]
 3614              	.LVL363:
 3615              	.LBB304:
 3616              	.LBI300:
 3617              		.loc 1 1340 5 is_stmt 1 discriminator 3 view .LVU1201
 3618              	.LBB302:
 3619              		.loc 1 1345 2 discriminator 3 view .LVU1202
 3620              		.loc 1 1346 2 discriminator 3 view .LVU1203
 3621              		.loc 1 1349 2 discriminator 3 view .LVU1204
 3622              		.loc 1 1349 22 is_stmt 0 discriminator 3 view .LVU1205
 3623 0080 00F03F00 		and	r0, r0, #63
 3624              		.loc 1 1349 30 discriminator 3 view .LVU1206
 3625 0084 0138     		subs	r0, r0, #1
 3626              		.loc 1 1349 35 discriminator 3 view .LVU1207
 3627 0086 00EB400C 		add	ip, r0, r0, lsl #1
 3628              		.loc 1 1349 4 discriminator 3 view .LVU1208
 3629 008a 0122     		movs	r2, #1
 3630              		.loc 1 1349 35 discriminator 3 view .LVU1209
 3631 008c 00EB8C00 		add	r0, r0, ip, lsl #2
 3632              	.LVL364:
 3633              		.loc 1 1351 2 is_stmt 1 discriminator 3 view .LVU1210
 3634              		.loc 1 1351 9 discriminator 3 view .LVU1211
 3635              		.loc 1 1351 9 is_stmt 0 discriminator 3 view .LVU1212
 3636 0090 04F10C0E 		add	lr, r4, #12
 3637              		.loc 1 1351 12 discriminator 3 view .LVU1213
 3638 0094 9446     		mov	ip, r2
 3639              		.loc 1 1358 7 discriminator 3 view .LVU1214
 3640 0096 4FF6FF79 		movw	r9, #65535
 3641 009a 09E0     		b	.L397
 3642              	.LVL365:
 3643              	.L425:
 3644              		.loc 1 1355 4 is_stmt 1 view .LVU1215
 3645              		.loc 1 1355 7 is_stmt 0 view .LVU1216
 3646 009c FE28     		cmp	r0, #254
 3647 009e BDD8     		bhi	.L414
 3648              		.loc 1 1356 4 is_stmt 1 view .LVU1217
ARM GAS  /tmp/cceBSuz7.s 			page 65


 3649              	.LVL366:
 3650              		.loc 1 1356 16 is_stmt 0 view .LVU1218
 3651 00a0 28F81020 		strh	r2, [r8, r0, lsl #1]	@ movhi
 3652              		.loc 1 1353 6 view .LVU1219
 3653 00a4 9446     		mov	ip, r2
 3654              		.loc 1 1356 12 view .LVU1220
 3655 00a6 0130     		adds	r0, r0, #1
 3656              	.LVL367:
 3657              	.L395:
 3658              		.loc 1 1360 10 is_stmt 1 view .LVU1221
 3659              		.loc 1 1360 2 is_stmt 0 view .LVU1222
 3660 00a8 7445     		cmp	r4, lr
 3661 00aa 20D0     		beq	.L396
 3662              		.loc 1 1360 2 view .LVU1223
 3663 00ac 14F8012F 		ldrb	r2, [r4, #1]!	@ zero_extendqisi2
 3664              	.LVL368:
 3665              	.L397:
 3666              		.loc 1 1352 2 is_stmt 1 view .LVU1224
 3667              		.loc 1 1353 3 view .LVU1225
 3668              		.loc 1 1353 8 is_stmt 0 view .LVU1226
 3669 00b0 03EB020A 		add	r10, r3, r2
 3670 00b4 9A5C     		ldrb	r2, [r3, r2]	@ zero_extendqisi2
 3671 00b6 9AF801A0 		ldrb	r10, [r10, #1]	@ zero_extendqisi2
 3672              		.loc 1 1353 6 view .LVU1227
 3673 00ba 42EA0A22 		orr	r2, r2, r10, lsl #8
 3674              	.LVL369:
 3675              		.loc 1 1354 3 is_stmt 1 view .LVU1228
 3676              		.loc 1 1354 6 is_stmt 0 view .LVU1229
 3677 00be BCF1000F 		cmp	ip, #0
 3678 00c2 EBD1     		bne	.L425
 3679              		.loc 1 1358 4 is_stmt 1 view .LVU1230
 3680              		.loc 1 1358 7 is_stmt 0 view .LVU1231
 3681 00c4 4A45     		cmp	r2, r9
 3682 00c6 EFD0     		beq	.L395
 3683 00c8 A8E7     		b	.L414
 3684              	.LVL370:
 3685              	.L392:
 3686              		.loc 1 1358 7 view .LVU1232
 3687              	.LBE302:
 3688              	.LBE304:
 3689              		.loc 1 1581 5 is_stmt 1 view .LVU1233
 3690              		.loc 1 1581 9 is_stmt 0 view .LVU1234
 3691 00ca 8C42     		cmp	r4, r1
 3692 00cc A6D1     		bne	.L414
 3693 00ce D0E7     		b	.L393
 3694              	.LVL371:
 3695              	.L406:
 3696              		.loc 1 1568 21 view .LVU1235
 3697 00d0 0420     		movs	r0, #4
 3698              	.LVL372:
 3699              	.L389:
 3700              		.loc 1 1596 20 is_stmt 1 discriminator 1 view .LVU1236
 3701              		.loc 1 1596 29 is_stmt 0 discriminator 1 view .LVU1237
 3702 00d2 0023     		movs	r3, #0
 3703 00d4 3B61     		str	r3, [r7, #16]
 3704              	.LVL373:
 3705              	.L402:
ARM GAS  /tmp/cceBSuz7.s 			page 66


 3706              		.loc 1 1598 2 is_stmt 1 view .LVU1238
 3707              		.loc 1 1599 1 is_stmt 0 view .LVU1239
 3708 00d6 164B     		ldr	r3, .L428
 3709 00d8 1A68     		ldr	r2, [r3]
 3710 00da 019B     		ldr	r3, [sp, #4]
 3711 00dc 5A40     		eors	r2, r3, r2
 3712 00de 25D1     		bne	.L426
 3713 00e0 02B0     		add	sp, sp, #8
 3714              		.cfi_remember_state
 3715              		.cfi_def_cfa_offset 32
 3716              		@ sp needed
 3717 00e2 BDE8F087 		pop	{r4, r5, r6, r7, r8, r9, r10, pc}
 3718              	.LVL374:
 3719              	.L424:
 3720              		.cfi_restore_state
 3721              		.loc 1 1596 2 is_stmt 1 view .LVU1240
 3722              		.loc 1 1596 5 is_stmt 0 view .LVU1241
 3723 00e6 0028     		cmp	r0, #0
 3724 00e8 F3D1     		bne	.L389
 3725              	.LVL375:
 3726              	.L404:
 3727              		.loc 1 1564 9 view .LVU1242
 3728 00ea 0020     		movs	r0, #0
 3729              	.LVL376:
 3730              		.loc 1 1564 9 view .LVU1243
 3731 00ec F3E7     		b	.L402
 3732              	.LVL377:
 3733              	.L396:
 3734              	.LBB305:
 3735              	.LBB303:
 3736              		.loc 1 1362 2 is_stmt 1 view .LVU1244
 3737              		.loc 1 1362 5 is_stmt 0 view .LVU1245
 3738 00ee 1B78     		ldrb	r3, [r3]	@ zero_extendqisi2
 3739              	.LVL378:
 3740              		.loc 1 1362 5 view .LVU1246
 3741 00f0 5B06     		lsls	r3, r3, #25
 3742 00f2 04D5     		bpl	.L398
 3743              		.loc 1 1363 3 is_stmt 1 view .LVU1247
 3744              		.loc 1 1363 6 is_stmt 0 view .LVU1248
 3745 00f4 FE28     		cmp	r0, #254
 3746 00f6 91D8     		bhi	.L414
 3747              		.loc 1 1364 3 is_stmt 1 view .LVU1249
 3748              		.loc 1 1364 13 is_stmt 0 view .LVU1250
 3749 00f8 0023     		movs	r3, #0
 3750 00fa 28F81030 		strh	r3, [r8, r0, lsl #1]	@ movhi
 3751              	.LVL379:
 3752              	.L398:
 3753              		.loc 1 1364 13 view .LVU1251
 3754              	.LBE303:
 3755              	.LBE305:
 3756              		.loc 1 1581 9 discriminator 5 view .LVU1252
 3757 00fe 0139     		subs	r1, r1, #1
 3758              	.LVL380:
 3759              		.loc 1 1581 9 discriminator 5 view .LVU1253
 3760 0100 CCB2     		uxtb	r4, r1
 3761 0102 8CE7     		b	.L390
 3762              	.LVL381:
ARM GAS  /tmp/cceBSuz7.s 			page 67


 3763              	.L391:
 3764              		.loc 1 1583 5 is_stmt 1 view .LVU1254
 3765              		.loc 1 1583 8 is_stmt 0 view .LVU1255
 3766 0104 74B9     		cbnz	r4, .L399
 3767 0106 03F10A06 		add	r6, r3, #10
 3768              	.LVL382:
 3769              		.loc 1 1583 8 view .LVU1256
 3770 010a 01E0     		b	.L401
 3771              	.LVL383:
 3772              	.L427:
 3773              		.loc 1 1583 8 view .LVU1257
 3774 010c 13F8011F 		ldrb	r1, [r3, #1]!	@ zero_extendqisi2
 3775              	.LVL384:
 3776              	.L401:
 3777              	.LBB306:
 3778              	.LBB307:
 3779              		.loc 1 1477 2 is_stmt 1 view .LVU1258
 3780              		.loc 1 1477 5 view .LVU1259
 3781              		.loc 1 1477 22 is_stmt 0 view .LVU1260
 3782 0110 E201     		lsls	r2, r4, #7
 3783 0112 42EA5404 		orr	r4, r2, r4, lsr #1
 3784              	.LVL385:
 3785              		.loc 1 1477 9 view .LVU1261
 3786 0116 51FA84F4 		uxtab	r4, r1, r4
 3787              		.loc 1 1477 2 view .LVU1262
 3788 011a 9E42     		cmp	r6, r3
 3789              		.loc 1 1477 9 view .LVU1263
 3790 011c E4B2     		uxtb	r4, r4
 3791              	.LVL386:
 3792              		.loc 1 1477 51 is_stmt 1 view .LVU1264
 3793              		.loc 1 1477 2 is_stmt 0 view .LVU1265
 3794 011e F5D1     		bne	.L427
 3795              		.loc 1 1478 2 is_stmt 1 view .LVU1266
 3796              	.LVL387:
 3797              		.loc 1 1478 2 is_stmt 0 view .LVU1267
 3798              	.LBE307:
 3799              	.LBE306:
 3800              		.loc 1 1583 13 view .LVU1268
 3801 0120 A542     		cmp	r5, r4
 3802 0122 E2D0     		beq	.L404
 3803              	.L399:
 3804              		.loc 1 1584 6 is_stmt 1 view .LVU1269
 3805              		.loc 1 1584 18 is_stmt 0 view .LVU1270
 3806 0124 4FF6FF73 		movw	r3, #65535
 3807 0128 3B84     		strh	r3, [r7, #32]	@ movhi
 3808              	.LVL388:
 3809              		.loc 1 1596 2 is_stmt 1 view .LVU1271
 3810 012a D4E7     		b	.L402
 3811              	.LVL389:
 3812              	.L426:
 3813              		.loc 1 1599 1 is_stmt 0 view .LVU1272
 3814 012c FFF7FEFF 		bl	__stack_chk_fail
 3815              	.LVL390:
 3816              	.L429:
 3817              		.align	2
 3818              	.L428:
 3819 0130 00000000 		.word	.LC14
ARM GAS  /tmp/cceBSuz7.s 			page 68


 3820 0134 00000000 		.word	.LANCHOR2
 3821              		.cfi_endproc
 3822              	.LFE243:
 3823              		.size	dir_read, .-dir_read
 3824              		.section	.rodata.dir_remove.cst4,"aM",%progbits,4
 3825              		.align	2
 3826              	.LC15:
 3827 0000 00000000 		.word	__stack_chk_guard
 3828              		.section	.text.dir_remove,"ax",%progbits
 3829              		.align	1
 3830              		.p2align 4,,15
 3831              		.syntax unified
 3832              		.thumb
 3833              		.thumb_func
 3834              		.fpu fpv4-sp-d16
 3835              		.type	dir_remove, %function
 3836              	dir_remove:
 3837              	.LVL391:
 3838              	.LFB245:
 3839              		.loc 1 1691 1 is_stmt 1 view -0
 3840              		.cfi_startproc
 3841              		@ args = 0, pretend = 0, frame = 8
 3842              		@ frame_needed = 0, uses_anonymous_args = 0
 3843              		.loc 1 1691 1 is_stmt 0 view .LVU1274
 3844 0000 2DE9F041 		push	{r4, r5, r6, r7, r8, lr}
 3845              		.cfi_def_cfa_offset 24
 3846              		.cfi_offset 4, -24
 3847              		.cfi_offset 5, -20
 3848              		.cfi_offset 6, -16
 3849              		.cfi_offset 7, -12
 3850              		.cfi_offset 8, -8
 3851              		.cfi_offset 14, -4
 3852              		.loc 1 1696 8 view .LVU1275
 3853 0004 C488     		ldrh	r4, [r0, #6]
 3854              		.loc 1 1697 23 view .LVU1276
 3855 0006 018C     		ldrh	r1, [r0, #32]
 3856              		.loc 1 1691 1 view .LVU1277
 3857 0008 1B4A     		ldr	r2, .L443
 3858              		.loc 1 1697 8 view .LVU1278
 3859 000a 4FF6FF73 		movw	r3, #65535
 3860              		.loc 1 1691 1 view .LVU1279
 3861 000e 82B0     		sub	sp, sp, #8
 3862              		.cfi_def_cfa_offset 32
 3863              		.loc 1 1697 8 view .LVU1280
 3864 0010 9942     		cmp	r1, r3
 3865 0012 08BF     		it	eq
 3866 0014 2146     		moveq	r1, r4
 3867              		.loc 1 1691 1 view .LVU1281
 3868 0016 0746     		mov	r7, r0
 3869 0018 1268     		ldr	r2, [r2]
 3870 001a 0192     		str	r2, [sp, #4]
 3871 001c 4FF00002 		mov	r2,#0
 3872              		.loc 1 1692 2 is_stmt 1 view .LVU1282
 3873              		.loc 1 1694 2 view .LVU1283
 3874              		.loc 1 1696 2 view .LVU1284
 3875              	.LVL392:
 3876              		.loc 1 1697 2 view .LVU1285
ARM GAS  /tmp/cceBSuz7.s 			page 69


 3877              		.loc 1 1697 8 is_stmt 0 view .LVU1286
 3878 0020 FFF7FEFF 		bl	dir_sdi
 3879              	.LVL393:
 3880              		.loc 1 1698 2 is_stmt 1 view .LVU1287
 3881              		.loc 1 1698 5 is_stmt 0 view .LVU1288
 3882 0024 F0B9     		cbnz	r0, .L432
 3883              	.LBB308:
 3884              	.LBB309:
 3885              		.loc 1 583 8 view .LVU1289
 3886 0026 8046     		mov	r8, r0
 3887              	.LBE309:
 3888              	.LBE308:
 3889              		.loc 1 1703 13 view .LVU1290
 3890 0028 E526     		movs	r6, #229
 3891              		.loc 1 1704 18 view .LVU1291
 3892 002a 0125     		movs	r5, #1
 3893              	.L435:
 3894              		.loc 1 1699 3 is_stmt 1 view .LVU1292
 3895              		.loc 1 1700 4 view .LVU1293
 3896              		.loc 1 1700 10 is_stmt 0 view .LVU1294
 3897 002c 3969     		ldr	r1, [r7, #16]
 3898 002e 3868     		ldr	r0, [r7]
 3899              	.LVL394:
 3900              		.loc 1 1700 10 view .LVU1295
 3901 0030 FFF7FEFF 		bl	move_window
 3902              	.LVL395:
 3903              		.loc 1 1701 4 is_stmt 1 view .LVU1296
 3904              		.loc 1 1701 7 is_stmt 0 view .LVU1297
 3905 0034 98B9     		cbnz	r0, .L433
 3906              		.loc 1 1702 4 is_stmt 1 view .LVU1298
 3907              		.loc 1 1702 14 is_stmt 0 view .LVU1299
 3908 0036 7B69     		ldr	r3, [r7, #20]
 3909              	.LVL396:
 3910              	.LBB311:
 3911              	.LBI308:
 3912              		.loc 1 579 6 is_stmt 1 view .LVU1300
 3913              	.LBB310:
 3914              		.loc 1 580 2 view .LVU1301
 3915              		.loc 1 582 2 view .LVU1302
 3916              		.loc 1 582 8 view .LVU1303
 3917              		.loc 1 582 8 is_stmt 0 view .LVU1304
 3918 0038 03F12002 		add	r2, r3, #32
 3919              	.LVL397:
 3920              	.L434:
 3921              		.loc 1 583 3 is_stmt 1 view .LVU1305
 3922              		.loc 1 583 8 is_stmt 0 view .LVU1306
 3923 003c 03F8018B 		strb	r8, [r3], #1
 3924              	.LVL398:
 3925              		.loc 1 582 8 is_stmt 1 view .LVU1307
 3926              		.loc 1 582 8 is_stmt 0 view .LVU1308
 3927 0040 9342     		cmp	r3, r2
 3928 0042 FBD1     		bne	.L434
 3929              	.LVL399:
 3930              		.loc 1 582 8 view .LVU1309
 3931              	.LBE310:
 3932              	.LBE311:
 3933              		.loc 1 1703 4 is_stmt 1 view .LVU1310
ARM GAS  /tmp/cceBSuz7.s 			page 70


 3934              		.loc 1 1703 7 is_stmt 0 view .LVU1311
 3935 0044 7B69     		ldr	r3, [r7, #20]
 3936              		.loc 1 1703 13 view .LVU1312
 3937 0046 1E70     		strb	r6, [r3]
 3938              		.loc 1 1704 4 is_stmt 1 view .LVU1313
 3939              		.loc 1 1704 6 is_stmt 0 view .LVU1314
 3940 0048 3B68     		ldr	r3, [r7]
 3941              		.loc 1 1704 18 view .LVU1315
 3942 004a 1D71     		strb	r5, [r3, #4]
 3943              		.loc 1 1705 4 is_stmt 1 view .LVU1316
 3944              		.loc 1 1705 7 is_stmt 0 view .LVU1317
 3945 004c FB88     		ldrh	r3, [r7, #6]
 3946 004e A342     		cmp	r3, r4
 3947 0050 08D2     		bcs	.L432
 3948              		.loc 1 1706 4 is_stmt 1 view .LVU1318
 3949              		.loc 1 1706 10 is_stmt 0 view .LVU1319
 3950 0052 0021     		movs	r1, #0
 3951 0054 3846     		mov	r0, r7
 3952              	.LVL400:
 3953              		.loc 1 1706 10 view .LVU1320
 3954 0056 FFF7FEFF 		bl	dir_next
 3955              	.LVL401:
 3956              		.loc 1 1707 11 is_stmt 1 view .LVU1321
 3957              		.loc 1 1707 3 is_stmt 0 view .LVU1322
 3958 005a 0028     		cmp	r0, #0
 3959 005c E6D0     		beq	.L435
 3960              	.L433:
 3961              		.loc 1 1708 3 is_stmt 1 view .LVU1323
 3962              		.loc 1 1708 30 is_stmt 0 view .LVU1324
 3963 005e 0428     		cmp	r0, #4
 3964 0060 08BF     		it	eq
 3965 0062 0220     		moveq	r0, #2
 3966              	.LVL402:
 3967              	.L432:
 3968              		.loc 1 1723 2 is_stmt 1 view .LVU1325
 3969              		.loc 1 1724 1 is_stmt 0 view .LVU1326
 3970 0064 044B     		ldr	r3, .L443
 3971 0066 1A68     		ldr	r2, [r3]
 3972 0068 019B     		ldr	r3, [sp, #4]
 3973 006a 5A40     		eors	r2, r3, r2
 3974 006c 02D1     		bne	.L442
 3975 006e 02B0     		add	sp, sp, #8
 3976              		.cfi_remember_state
 3977              		.cfi_def_cfa_offset 24
 3978              		@ sp needed
 3979 0070 BDE8F081 		pop	{r4, r5, r6, r7, r8, pc}
 3980              	.LVL403:
 3981              	.L442:
 3982              		.cfi_restore_state
 3983              		.loc 1 1724 1 view .LVU1327
 3984 0074 FFF7FEFF 		bl	__stack_chk_fail
 3985              	.LVL404:
 3986              	.L444:
 3987              		.loc 1 1724 1 view .LVU1328
 3988              		.align	2
 3989              	.L443:
 3990 0078 00000000 		.word	.LC15
ARM GAS  /tmp/cceBSuz7.s 			page 71


 3991              		.cfi_endproc
 3992              	.LFE245:
 3993              		.size	dir_remove, .-dir_remove
 3994              		.section	.rodata.dir_find.part.0.cst4,"aM",%progbits,4
 3995              		.align	2
 3996              	.LC16:
 3997 0000 00000000 		.word	__stack_chk_guard
 3998              		.section	.text.dir_find.part.0,"ax",%progbits
 3999              		.align	1
 4000              		.p2align 4,,15
 4001              		.syntax unified
 4002              		.thumb
 4003              		.thumb_func
 4004              		.fpu fpv4-sp-d16
 4005              		.type	dir_find.part.0, %function
 4006              	dir_find.part.0:
 4007              	.LVL405:
 4008              	.LFB287:
 4009              		.loc 1 1490 9 is_stmt 1 view -0
 4010              		.cfi_startproc
 4011              		@ args = 0, pretend = 0, frame = 16
 4012              		@ frame_needed = 0, uses_anonymous_args = 0
 4013              		.loc 1 1490 9 is_stmt 0 view .LVU1330
 4014 0000 2DE9F04F 		push	{r4, r5, r6, r7, r8, r9, r10, fp, lr}
 4015              		.cfi_def_cfa_offset 36
 4016              		.cfi_offset 4, -36
 4017              		.cfi_offset 5, -32
 4018              		.cfi_offset 6, -28
 4019              		.cfi_offset 7, -24
 4020              		.cfi_offset 8, -20
 4021              		.cfi_offset 9, -16
 4022              		.cfi_offset 10, -12
 4023              		.cfi_offset 11, -8
 4024              		.cfi_offset 14, -4
 4025 0004 544B     		ldr	r3, .L502
 4026              		.loc 1 1504 32 view .LVU1331
 4027 0006 4FF6FF75 		movw	r5, #65535
 4028              		.loc 1 1490 9 view .LVU1332
 4029 000a 85B0     		sub	sp, sp, #20
 4030              		.cfi_def_cfa_offset 56
 4031              		.loc 1 1504 12 view .LVU1333
 4032 000c FF26     		movs	r6, #255
 4033              		.loc 1 1504 32 view .LVU1334
 4034 000e 0584     		strh	r5, [r0, #32]	@ movhi
 4035              		.loc 1 1490 9 view .LVU1335
 4036 0010 0446     		mov	r4, r0
 4037              		.loc 1 1504 6 view .LVU1336
 4038 0012 3746     		mov	r7, r6
 4039              		.loc 1 1490 9 view .LVU1337
 4040 0014 1B68     		ldr	r3, [r3]
 4041 0016 0393     		str	r3, [sp, #12]
 4042 0018 4FF00003 		mov	r3,#0
 4043              		.loc 1 1504 2 is_stmt 1 view .LVU1338
 4044              	.LVL406:
 4045              		.loc 1 1504 20 view .LVU1339
 4046 001c 08E0     		b	.L465
 4047              	.LVL407:
ARM GAS  /tmp/cceBSuz7.s 			page 72


 4048              	.L496:
 4049              		.loc 1 1514 33 is_stmt 0 view .LVU1340
 4050 001e 0F28     		cmp	r0, #15
 4051 0020 31D0     		beq	.L449
 4052              	.LVL408:
 4053              	.L462:
 4054              		.loc 1 1530 5 is_stmt 1 view .LVU1341
 4055              		.loc 1 1530 17 view .LVU1342
 4056              		.loc 1 1530 29 is_stmt 0 view .LVU1343
 4057 0022 2584     		strh	r5, [r4, #32]	@ movhi
 4058              	.LVL409:
 4059              		.loc 1 1530 9 view .LVU1344
 4060 0024 FF27     		movs	r7, #255
 4061              	.LVL410:
 4062              	.L450:
 4063              		.loc 1 1537 3 is_stmt 1 view .LVU1345
 4064              		.loc 1 1537 9 is_stmt 0 view .LVU1346
 4065 0026 0021     		movs	r1, #0
 4066 0028 2046     		mov	r0, r4
 4067 002a FFF7FEFF 		bl	dir_next
 4068              	.LVL411:
 4069              		.loc 1 1538 10 is_stmt 1 view .LVU1347
 4070              		.loc 1 1538 2 is_stmt 0 view .LVU1348
 4071 002e 10BB     		cbnz	r0, .L446
 4072              	.LVL412:
 4073              	.L465:
 4074              		.loc 1 1506 2 is_stmt 1 view .LVU1349
 4075              		.loc 1 1507 3 view .LVU1350
 4076              		.loc 1 1507 9 is_stmt 0 view .LVU1351
 4077 0030 2169     		ldr	r1, [r4, #16]
 4078 0032 2068     		ldr	r0, [r4]
 4079 0034 FFF7FEFF 		bl	move_window
 4080              	.LVL413:
 4081              		.loc 1 1508 3 is_stmt 1 view .LVU1352
 4082              		.loc 1 1508 6 is_stmt 0 view .LVU1353
 4083 0038 E8B9     		cbnz	r0, .L446
 4084              		.loc 1 1509 3 is_stmt 1 view .LVU1354
 4085              		.loc 1 1509 7 is_stmt 0 view .LVU1355
 4086 003a 6169     		ldr	r1, [r4, #20]
 4087              	.LVL414:
 4088              		.loc 1 1510 3 is_stmt 1 view .LVU1356
 4089              		.loc 1 1510 5 is_stmt 0 view .LVU1357
 4090 003c 0A78     		ldrb	r2, [r1]	@ zero_extendqisi2
 4091              	.LVL415:
 4092              		.loc 1 1511 3 is_stmt 1 view .LVU1358
 4093              		.loc 1 1511 6 is_stmt 0 view .LVU1359
 4094 003e 002A     		cmp	r2, #0
 4095 0040 7AD0     		beq	.L467
 4096              		.loc 1 1513 3 is_stmt 1 view .LVU1360
 4097              	.LVL416:
 4098              		.loc 1 1514 3 view .LVU1361
 4099              		.loc 1 1514 6 is_stmt 0 view .LVU1362
 4100 0042 E52A     		cmp	r2, #229
 4101 0044 EDD0     		beq	.L462
 4102              		.loc 1 1513 10 view .LVU1363
 4103 0046 CB7A     		ldrb	r3, [r1, #11]	@ zero_extendqisi2
 4104              		.loc 1 1513 5 view .LVU1364
ARM GAS  /tmp/cceBSuz7.s 			page 73


 4105 0048 03F03F00 		and	r0, r3, #63
 4106              	.LVL417:
 4107              		.loc 1 1514 16 view .LVU1365
 4108 004c 1B07     		lsls	r3, r3, #28
 4109 004e E6D4     		bmi	.L496
 4110              		.loc 1 1517 4 is_stmt 1 view .LVU1366
 4111              		.loc 1 1517 7 is_stmt 0 view .LVU1367
 4112 0050 0F28     		cmp	r0, #15
 4113 0052 18D0     		beq	.L449
 4114              		.loc 1 1528 5 is_stmt 1 view .LVU1368
 4115              		.loc 1 1528 8 is_stmt 0 view .LVU1369
 4116 0054 47B3     		cbz	r7, .L497
 4117              	.LVL418:
 4118              	.L459:
 4119              		.loc 1 1529 5 is_stmt 1 view .LVU1370
 4120              		.loc 1 1529 13 is_stmt 0 view .LVU1371
 4121 0056 A769     		ldr	r7, [r4, #24]
 4122 0058 FB7A     		ldrb	r3, [r7, #11]	@ zero_extendqisi2
 4123              		.loc 1 1529 8 view .LVU1372
 4124 005a 13F00100 		ands	r0, r3, #1
 4125 005e E0D1     		bne	.L462
 4126 0060 07F10B0C 		add	ip, r7, #11
 4127 0064 01E0     		b	.L463
 4128              	.LVL419:
 4129              	.L498:
 4130              		.loc 1 1529 8 view .LVU1373
 4131 0066 11F8012F 		ldrb	r2, [r1, #1]!	@ zero_extendqisi2
 4132              	.LVL420:
 4133              	.L463:
 4134              	.LBB318:
 4135              	.LBB319:
 4136              		.loc 1 592 15 view .LVU1374
 4137 006a 17F8013B 		ldrb	r3, [r7], #1	@ zero_extendqisi2
 4138              	.LVL421:
 4139              		.loc 1 592 15 view .LVU1375
 4140 006e 9342     		cmp	r3, r2
 4141 0070 D7D1     		bne	.L462
 4142              	.LVL422:
 4143              		.loc 1 592 42 is_stmt 1 view .LVU1376
 4144              		.loc 1 592 8 view .LVU1377
 4145              		.loc 1 592 8 is_stmt 0 view .LVU1378
 4146 0072 6745     		cmp	r7, ip
 4147 0074 F7D1     		bne	.L498
 4148              	.LVL423:
 4149              	.L446:
 4150              		.loc 1 592 8 view .LVU1379
 4151              	.LBE319:
 4152              	.LBE318:
 4153              		.loc 1 1541 1 view .LVU1380
 4154 0076 384B     		ldr	r3, .L502
 4155 0078 1A68     		ldr	r2, [r3]
 4156 007a 039B     		ldr	r3, [sp, #12]
 4157 007c 5A40     		eors	r2, r3, r2
 4158 007e 68D1     		bne	.L499
 4159 0080 05B0     		add	sp, sp, #20
 4160              		.cfi_remember_state
 4161              		.cfi_def_cfa_offset 36
ARM GAS  /tmp/cceBSuz7.s 			page 74


 4162              		@ sp needed
 4163 0082 BDE8F08F 		pop	{r4, r5, r6, r7, r8, r9, r10, fp, pc}
 4164              	.LVL424:
 4165              	.L449:
 4166              		.cfi_restore_state
 4167              		.loc 1 1518 5 is_stmt 1 view .LVU1381
 4168              		.loc 1 1518 11 is_stmt 0 view .LVU1382
 4169 0086 D4F81C80 		ldr	r8, [r4, #28]
 4170              		.loc 1 1518 8 view .LVU1383
 4171 008a B8F1000F 		cmp	r8, #0
 4172 008e CAD0     		beq	.L450
 4173              		.loc 1 1519 6 is_stmt 1 view .LVU1384
 4174              		.loc 1 1519 9 is_stmt 0 view .LVU1385
 4175 0090 5006     		lsls	r0, r2, #25
 4176 0092 1CD5     		bpl	.L452
 4177              		.loc 1 1520 7 is_stmt 1 view .LVU1386
 4178              		.loc 1 1522 19 is_stmt 0 view .LVU1387
 4179 0094 E388     		ldrh	r3, [r4, #6]
 4180              		.loc 1 1520 11 view .LVU1388
 4181 0096 4E7B     		ldrb	r6, [r1, #13]	@ zero_extendqisi2
 4182              	.LVL425:
 4183              		.loc 1 1521 7 is_stmt 1 view .LVU1389
 4184              		.loc 1 1522 19 is_stmt 0 view .LVU1390
 4185 0098 2384     		strh	r3, [r4, #32]	@ movhi
 4186              	.LVL426:
 4187              		.loc 1 1521 9 view .LVU1391
 4188 009a 02F0BF07 		and	r7, r2, #191
 4189              	.LVL427:
 4190              		.loc 1 1521 18 is_stmt 1 view .LVU1392
 4191              		.loc 1 1522 7 view .LVU1393
 4192              		.loc 1 1525 6 view .LVU1394
 4193              	.L453:
 4194              		.loc 1 1525 22 is_stmt 0 view .LVU1395
 4195 009e 4B7B     		ldrb	r3, [r1, #13]	@ zero_extendqisi2
 4196 00a0 B342     		cmp	r3, r6
 4197 00a2 18D0     		beq	.L500
 4198              	.LVL428:
 4199              	.L473:
 4200              		.loc 1 1525 10 view .LVU1396
 4201 00a4 FF27     		movs	r7, #255
 4202              	.LVL429:
 4203              		.loc 1 1525 10 view .LVU1397
 4204 00a6 BEE7     		b	.L450
 4205              	.LVL430:
 4206              	.L497:
 4207              		.loc 1 1525 10 view .LVU1398
 4208 00a8 0846     		mov	r0, r1
 4209 00aa 01F10A0E 		add	lr, r1, #10
 4210              		.loc 1 1528 8 view .LVU1399
 4211 00ae 9446     		mov	ip, r2
 4212 00b0 01E0     		b	.L461
 4213              	.LVL431:
 4214              	.L501:
 4215              		.loc 1 1528 8 view .LVU1400
 4216 00b2 10F801CF 		ldrb	ip, [r0, #1]!	@ zero_extendqisi2
 4217              	.LVL432:
 4218              	.L461:
ARM GAS  /tmp/cceBSuz7.s 			page 75


 4219              	.LBB320:
 4220              	.LBB321:
 4221              		.loc 1 1477 2 is_stmt 1 view .LVU1401
 4222              		.loc 1 1477 5 view .LVU1402
 4223              		.loc 1 1477 22 is_stmt 0 view .LVU1403
 4224 00b6 FB01     		lsls	r3, r7, #7
 4225 00b8 43EA5703 		orr	r3, r3, r7, lsr #1
 4226              		.loc 1 1477 9 view .LVU1404
 4227 00bc 5CFA83F3 		uxtab	r3, ip, r3
 4228              		.loc 1 1477 2 view .LVU1405
 4229 00c0 8645     		cmp	lr, r0
 4230              		.loc 1 1477 9 view .LVU1406
 4231 00c2 DFB2     		uxtb	r7, r3
 4232              	.LVL433:
 4233              		.loc 1 1477 51 is_stmt 1 view .LVU1407
 4234              		.loc 1 1477 2 is_stmt 0 view .LVU1408
 4235 00c4 F5D1     		bne	.L501
 4236              		.loc 1 1478 2 is_stmt 1 view .LVU1409
 4237              	.LVL434:
 4238              		.loc 1 1478 2 is_stmt 0 view .LVU1410
 4239              	.LBE321:
 4240              	.LBE320:
 4241              		.loc 1 1528 14 view .LVU1411
 4242 00c6 B742     		cmp	r7, r6
 4243 00c8 C5D1     		bne	.L459
 4244              		.loc 1 1507 9 view .LVU1412
 4245 00ca 0020     		movs	r0, #0
 4246 00cc D3E7     		b	.L446
 4247              	.LVL435:
 4248              	.L452:
 4249              		.loc 1 1525 6 is_stmt 1 view .LVU1413
 4250              		.loc 1 1525 10 is_stmt 0 view .LVU1414
 4251 00ce BA42     		cmp	r2, r7
 4252 00d0 E5D0     		beq	.L453
 4253 00d2 FF27     		movs	r7, #255
 4254              	.LVL436:
 4255              		.loc 1 1525 10 view .LVU1415
 4256 00d4 A7E7     		b	.L450
 4257              	.LVL437:
 4258              	.L500:
 4259              	.LBB322:
 4260              	.LBI322:
 4261              		.loc 1 1309 5 is_stmt 1 view .LVU1416
 4262              	.LBB323:
 4263              		.loc 1 1314 2 view .LVU1417
 4264              		.loc 1 1315 2 view .LVU1418
 4265              		.loc 1 1318 2 view .LVU1419
 4266              		.loc 1 1318 11 is_stmt 0 view .LVU1420
 4267 00d6 91F800B0 		ldrb	fp, [r1]	@ zero_extendqisi2
 4268 00da DFF880A0 		ldr	r10, .L502+4
 4269              		.loc 1 1318 22 view .LVU1421
 4270 00de 2BF0400B 		bic	fp, fp, #64
 4271              		.loc 1 1318 30 view .LVU1422
 4272 00e2 0BF1FF3B 		add	fp, fp, #-1
 4273              		.loc 1 1318 35 view .LVU1423
 4274 00e6 0BEB4B02 		add	r2, fp, fp, lsl #1
 4275              		.loc 1 1318 4 view .LVU1424
ARM GAS  /tmp/cceBSuz7.s 			page 76


 4276 00ea 0123     		movs	r3, #1
 4277              		.loc 1 1318 35 view .LVU1425
 4278 00ec 0BEB820B 		add	fp, fp, r2, lsl #2
 4279              	.LVL438:
 4280              		.loc 1 1319 2 is_stmt 1 view .LVU1426
 4281              		.loc 1 1319 9 view .LVU1427
 4282              		.loc 1 1319 9 is_stmt 0 view .LVU1428
 4283 00f0 0AF10C09 		add	r9, r10, #12
 4284              		.loc 1 1319 12 view .LVU1429
 4285 00f4 1A46     		mov	r2, r3
 4286 00f6 05E0     		b	.L457
 4287              	.LVL439:
 4288              	.L454:
 4289              		.loc 1 1327 4 is_stmt 1 view .LVU1430
 4290              		.loc 1 1327 7 is_stmt 0 view .LVU1431
 4291 00f8 A842     		cmp	r0, r5
 4292 00fa D3D1     		bne	.L473
 4293              	.LVL440:
 4294              	.L455:
 4295              		.loc 1 1329 10 is_stmt 1 view .LVU1432
 4296              		.loc 1 1329 2 is_stmt 0 view .LVU1433
 4297 00fc D145     		cmp	r9, r10
 4298 00fe 1DD0     		beq	.L456
 4299              		.loc 1 1329 2 view .LVU1434
 4300 0100 1AF8013F 		ldrb	r3, [r10, #1]!	@ zero_extendqisi2
 4301              	.LVL441:
 4302              	.L457:
 4303              		.loc 1 1320 2 is_stmt 1 view .LVU1435
 4304              		.loc 1 1321 3 view .LVU1436
 4305              		.loc 1 1321 8 is_stmt 0 view .LVU1437
 4306 0104 C818     		adds	r0, r1, r3
 4307 0106 CB5C     		ldrb	r3, [r1, r3]	@ zero_extendqisi2
 4308 0108 4078     		ldrb	r0, [r0, #1]	@ zero_extendqisi2
 4309              		.loc 1 1321 6 view .LVU1438
 4310 010a 43EA0020 		orr	r0, r3, r0, lsl #8
 4311              	.LVL442:
 4312              		.loc 1 1322 3 is_stmt 1 view .LVU1439
 4313              		.loc 1 1322 6 is_stmt 0 view .LVU1440
 4314 010e 002A     		cmp	r2, #0
 4315 0110 F2D0     		beq	.L454
 4316              		.loc 1 1322 6 view .LVU1441
 4317 0112 0191     		str	r1, [sp, #4]
 4318              		.loc 1 1323 4 is_stmt 1 view .LVU1442
 4319              		.loc 1 1323 9 is_stmt 0 view .LVU1443
 4320 0114 FFF7FEFF 		bl	ff_wtoupper
 4321              	.LVL443:
 4322              		.loc 1 1324 7 view .LVU1444
 4323 0118 BBF1FE0F 		cmp	fp, #254
 4324              		.loc 1 1323 9 view .LVU1445
 4325 011c 0090     		str	r0, [sp]
 4326              	.LVL444:
 4327              		.loc 1 1324 4 is_stmt 1 view .LVU1446
 4328              		.loc 1 1324 7 is_stmt 0 view .LVU1447
 4329 011e C1D8     		bhi	.L473
 4330              		.loc 1 1324 31 view .LVU1448
 4331 0120 38F81B00 		ldrh	r0, [r8, fp, lsl #1]
 4332 0124 FFF7FEFF 		bl	ff_wtoupper
ARM GAS  /tmp/cceBSuz7.s 			page 77


 4333              	.LVL445:
 4334              		.loc 1 1324 22 view .LVU1449
 4335 0128 009B     		ldr	r3, [sp]
 4336 012a 8342     		cmp	r3, r0
 4337              		.loc 1 1324 31 view .LVU1450
 4338 012c 0246     		mov	r2, r0
 4339              		.loc 1 1324 51 view .LVU1451
 4340 012e 0BF1010B 		add	fp, fp, #1
 4341              	.LVL446:
 4342              		.loc 1 1324 22 view .LVU1452
 4343 0132 B7D1     		bne	.L473
 4344 0134 0199     		ldr	r1, [sp, #4]
 4345 0136 E1E7     		b	.L455
 4346              	.LVL447:
 4347              	.L467:
 4348              		.loc 1 1324 22 view .LVU1453
 4349              	.LBE323:
 4350              	.LBE322:
 4351              		.loc 1 1511 21 view .LVU1454
 4352 0138 0420     		movs	r0, #4
 4353              	.LVL448:
 4354              		.loc 1 1511 21 view .LVU1455
 4355 013a 9CE7     		b	.L446
 4356              	.LVL449:
 4357              	.L456:
 4358              	.LBB325:
 4359              	.LBB324:
 4360              		.loc 1 1331 2 is_stmt 1 view .LVU1456
 4361              		.loc 1 1331 5 is_stmt 0 view .LVU1457
 4362 013c 0B78     		ldrb	r3, [r1]	@ zero_extendqisi2
 4363 013e 5B06     		lsls	r3, r3, #25
 4364 0140 04D5     		bpl	.L458
 4365              		.loc 1 1331 28 view .LVU1458
 4366 0142 1AB1     		cbz	r2, .L458
 4367              		.loc 1 1331 34 view .LVU1459
 4368 0144 38F81B30 		ldrh	r3, [r8, fp, lsl #1]
 4369 0148 002B     		cmp	r3, #0
 4370 014a ABD1     		bne	.L473
 4371              	.L458:
 4372              	.LVL450:
 4373              		.loc 1 1331 34 view .LVU1460
 4374              	.LBE324:
 4375              	.LBE325:
 4376              		.loc 1 1525 10 view .LVU1461
 4377 014c 013F     		subs	r7, r7, #1
 4378              	.LVL451:
 4379              		.loc 1 1525 10 view .LVU1462
 4380 014e FFB2     		uxtb	r7, r7
 4381 0150 69E7     		b	.L450
 4382              	.L499:
 4383              		.loc 1 1541 1 view .LVU1463
 4384 0152 FFF7FEFF 		bl	__stack_chk_fail
 4385              	.LVL452:
 4386              	.L503:
 4387 0156 00BF     		.align	2
 4388              	.L502:
 4389 0158 00000000 		.word	.LC16
ARM GAS  /tmp/cceBSuz7.s 			page 78


 4390 015c 00000000 		.word	.LANCHOR2
 4391              		.cfi_endproc
 4392              	.LFE287:
 4393              		.size	dir_find.part.0, .-dir_find.part.0
 4394              		.section	.rodata.dir_register.cst4,"aM",%progbits,4
 4395              		.align	2
 4396              	.LC17:
 4397 0000 00000000 		.word	__stack_chk_guard
 4398              		.section	.text.dir_register,"ax",%progbits
 4399              		.align	1
 4400              		.p2align 4,,15
 4401              		.syntax unified
 4402              		.thumb
 4403              		.thumb_func
 4404              		.fpu fpv4-sp-d16
 4405              		.type	dir_register, %function
 4406              	dir_register:
 4407              	.LVL453:
 4408              	.LFB244:
 4409              		.loc 1 1613 1 is_stmt 1 view -0
 4410              		.cfi_startproc
 4411              		@ args = 0, pretend = 0, frame = 32
 4412              		@ frame_needed = 0, uses_anonymous_args = 0
 4413              		.loc 1 1613 1 is_stmt 0 view .LVU1465
 4414 0000 2DE9F04F 		push	{r4, r5, r6, r7, r8, r9, r10, fp, lr}
 4415              		.cfi_def_cfa_offset 36
 4416              		.cfi_offset 4, -36
 4417              		.cfi_offset 5, -32
 4418              		.cfi_offset 6, -28
 4419              		.cfi_offset 7, -24
 4420              		.cfi_offset 8, -20
 4421              		.cfi_offset 9, -16
 4422              		.cfi_offset 10, -12
 4423              		.cfi_offset 11, -8
 4424              		.cfi_offset 14, -4
 4425              		.loc 1 1621 19 view .LVU1466
 4426 0004 D0E90646 		ldrd	r4, r6, [r0, #24]
 4427              		.loc 1 1613 1 view .LVU1467
 4428 0008 B34B     		ldr	r3, .L587
 4429 000a 89B0     		sub	sp, sp, #36
 4430              		.cfi_def_cfa_offset 72
 4431              		.loc 1 1613 1 view .LVU1468
 4432 000c 8346     		mov	fp, r0
 4433 000e 1B68     		ldr	r3, [r3]
 4434 0010 0793     		str	r3, [sp, #28]
 4435 0012 4FF00003 		mov	r3,#0
 4436              		.loc 1 1614 2 is_stmt 1 view .LVU1469
 4437              		.loc 1 1616 2 view .LVU1470
 4438              		.loc 1 1617 2 view .LVU1471
 4439              		.loc 1 1618 2 view .LVU1472
 4440              		.loc 1 1621 2 view .LVU1473
 4441              	.LVL454:
 4442              		.loc 1 1621 15 view .LVU1474
 4443              		.loc 1 1622 2 view .LVU1475
 4444              	.LBB343:
 4445              	.LBI343:
 4446              		.loc 1 562 6 view .LVU1476
ARM GAS  /tmp/cceBSuz7.s 			page 79


 4447              	.LBB344:
 4448              		.loc 1 563 2 view .LVU1477
 4449              		.loc 1 564 2 view .LVU1478
 4450              		.loc 1 573 2 view .LVU1479
 4451              		.loc 1 573 8 view .LVU1480
 4452              		.loc 1 573 8 is_stmt 0 view .LVU1481
 4453 0016 04F10C00 		add	r0, r4, #12
 4454              	.LVL455:
 4455              		.loc 1 573 8 view .LVU1482
 4456              	.LBE344:
 4457              	.LBE343:
 4458              		.loc 1 1621 5 view .LVU1483
 4459 001a 2346     		mov	r3, r4
 4460 001c 04AA     		add	r2, sp, #16
 4461              	.LVL456:
 4462              	.L505:
 4463              	.LBB346:
 4464              	.LBB345:
 4465              		.loc 1 574 3 is_stmt 1 view .LVU1484
 4466              		.loc 1 574 8 is_stmt 0 view .LVU1485
 4467 001e 13F8011B 		ldrb	r1, [r3], #1	@ zero_extendqisi2
 4468              	.LVL457:
 4469              		.loc 1 574 8 view .LVU1486
 4470 0022 02F8011B 		strb	r1, [r2], #1
 4471              		.loc 1 573 8 is_stmt 1 view .LVU1487
 4472              		.loc 1 573 8 is_stmt 0 view .LVU1488
 4473 0026 8342     		cmp	r3, r0
 4474 0028 F9D1     		bne	.L505
 4475              	.LVL458:
 4476              		.loc 1 573 8 view .LVU1489
 4477              	.LBE345:
 4478              	.LBE346:
 4479              		.loc 1 1624 2 is_stmt 1 view .LVU1490
 4480              		.loc 1 1627 2 view .LVU1491
 4481              		.loc 1 1627 8 is_stmt 0 view .LVU1492
 4482 002a 9DF81B90 		ldrb	r9, [sp, #27]	@ zero_extendqisi2
 4483              		.loc 1 1627 5 view .LVU1493
 4484 002e 19F0010F 		tst	r9, #1
 4485 0032 7DD0     		beq	.L506
 4486              		.loc 1 1628 3 is_stmt 1 view .LVU1494
 4487              		.loc 1 1628 10 is_stmt 0 view .LVU1495
 4488 0034 0023     		movs	r3, #0
 4489              	.LBB347:
 4490              	.LBB348:
 4491              	.LBB349:
 4492              		.loc 1 1433 26 view .LVU1496
 4493 0036 A94F     		ldr	r7, .L587+4
 4494              	.LBE349:
 4495              	.LBE348:
 4496              	.LBE347:
 4497              		.loc 1 1628 10 view .LVU1497
 4498 0038 E372     		strb	r3, [r4, #11]
 4499              		.loc 1 1628 15 is_stmt 1 view .LVU1498
 4500              		.loc 1 1629 10 is_stmt 0 view .LVU1499
 4501 003a 4FF0010A 		mov	r10, #1
 4502              		.loc 1 1628 23 view .LVU1500
 4503 003e CBF81C30 		str	r3, [fp, #28]
ARM GAS  /tmp/cceBSuz7.s 			page 80


 4504              		.loc 1 1629 3 is_stmt 1 view .LVU1501
 4505              	.LVL459:
 4506              		.loc 1 1629 15 view .LVU1502
 4507 0042 651E     		subs	r5, r4, #1
 4508 0044 04F10A08 		add	r8, r4, #10
 4509              	.LVL460:
 4510              	.L507:
 4511              	.LBB359:
 4512              	.LBB356:
 4513              	.LBB350:
 4514              	.LBB351:
 4515              		.loc 1 573 8 view .LVU1503
 4516              		.loc 1 573 8 is_stmt 0 view .LVU1504
 4517 0048 2846     		mov	r0, r5
 4518              	.LBE351:
 4519              	.LBE350:
 4520              	.LBE356:
 4521              	.LBE359:
 4522              		.loc 1 1621 5 view .LVU1505
 4523 004a 2B46     		mov	r3, r5
 4524              	.LBB360:
 4525              	.LBB357:
 4526              	.LBB353:
 4527              	.LBB352:
 4528              		.loc 1 564 14 view .LVU1506
 4529 004c 04AA     		add	r2, sp, #16
 4530              	.LVL461:
 4531              	.L508:
 4532              		.loc 1 574 3 is_stmt 1 view .LVU1507
 4533              		.loc 1 574 8 is_stmt 0 view .LVU1508
 4534 004e 12F8011B 		ldrb	r1, [r2], #1	@ zero_extendqisi2
 4535              	.LVL462:
 4536              		.loc 1 574 8 view .LVU1509
 4537 0052 03F8011F 		strb	r1, [r3, #1]!
 4538              		.loc 1 573 8 is_stmt 1 view .LVU1510
 4539              	.LVL463:
 4540              		.loc 1 573 8 is_stmt 0 view .LVU1511
 4541 0056 9845     		cmp	r8, r3
 4542 0058 F9D1     		bne	.L508
 4543              	.LVL464:
 4544              		.loc 1 573 8 view .LVU1512
 4545              	.LBE352:
 4546              	.LBE353:
 4547              		.loc 1 1424 2 is_stmt 1 view .LVU1513
 4548              		.loc 1 1424 5 is_stmt 0 view .LVU1514
 4549 005a BAF1050F 		cmp	r10, #5
 4550 005e 5FD9     		bls	.L544
 4551              	.LVL465:
 4552              	.LBB354:
 4553              		.loc 1 1428 9 is_stmt 1 view .LVU1515
 4554              		.loc 1 1428 10 is_stmt 0 view .LVU1516
 4555 0060 3288     		ldrh	r2, [r6]
 4556              		.loc 1 1428 9 view .LVU1517
 4557 0062 002A     		cmp	r2, #0
 4558 0064 5CD0     		beq	.L544
 4559 0066 B446     		mov	ip, r6
 4560 0068 5346     		mov	r3, r10
ARM GAS  /tmp/cceBSuz7.s 			page 81


 4561              	.LVL466:
 4562              	.L512:
 4563              		.loc 1 1429 4 is_stmt 1 view .LVU1518
 4564              		.loc 1 1430 4 view .LVU1519
 4565              		.loc 1 1430 16 view .LVU1520
 4566              		.loc 1 1428 9 is_stmt 0 view .LVU1521
 4567 006a 1021     		movs	r1, #16
 4568              	.LVL467:
 4569              	.L511:
 4570              		.loc 1 1431 5 is_stmt 1 view .LVU1522
 4571              		.loc 1 1431 26 is_stmt 0 view .LVU1523
 4572 006c 02F0010E 		and	lr, r2, #1
 4573              		.loc 1 1431 8 view .LVU1524
 4574 0070 0EEB4303 		add	r3, lr, r3, lsl #1
 4575              	.LVL468:
 4576              		.loc 1 1432 5 is_stmt 1 view .LVU1525
 4577              		.loc 1 1433 8 is_stmt 0 view .LVU1526
 4578 0074 13F4803F 		tst	r3, #65536
 4579              		.loc 1 1433 26 view .LVU1527
 4580 0078 18BF     		it	ne
 4581 007a 7B40     		eorne	r3, r3, r7
 4582              	.LVL469:
 4583              		.loc 1 1430 4 view .LVU1528
 4584 007c 0139     		subs	r1, r1, #1
 4585              	.LVL470:
 4586              		.loc 1 1432 8 view .LVU1529
 4587 007e 4FEA5202 		lsr	r2, r2, #1
 4588              	.LVL471:
 4589              		.loc 1 1433 5 is_stmt 1 view .LVU1530
 4590              		.loc 1 1433 23 view .LVU1531
 4591              		.loc 1 1430 24 view .LVU1532
 4592              		.loc 1 1430 16 view .LVU1533
 4593              		.loc 1 1430 4 is_stmt 0 view .LVU1534
 4594 0082 F3D1     		bne	.L511
 4595              		.loc 1 1428 9 is_stmt 1 view .LVU1535
 4596              		.loc 1 1428 10 is_stmt 0 view .LVU1536
 4597 0084 3CF8022F 		ldrh	r2, [ip, #2]!
 4598              	.LVL472:
 4599              		.loc 1 1428 9 view .LVU1537
 4600 0088 002A     		cmp	r2, #0
 4601 008a EED1     		bne	.L512
 4602              	.LVL473:
 4603              	.L509:
 4604              		.loc 1 1428 9 view .LVU1538
 4605 008c 0DF10F0E 		add	lr, sp, #15
 4606              	.LBE354:
 4607 0090 0722     		movs	r2, #7
 4608 0092 00E0     		b	.L514
 4609              	.LVL474:
 4610              	.L545:
 4611              		.loc 1 1445 7 view .LVU1539
 4612 0094 0B46     		mov	r3, r1
 4613              	.LVL475:
 4614              	.L514:
 4615              		.loc 1 1441 2 is_stmt 1 view .LVU1540
 4616              		.loc 1 1442 3 view .LVU1541
 4617              		.loc 1 1442 12 is_stmt 0 view .LVU1542
ARM GAS  /tmp/cceBSuz7.s 			page 82


 4618 0096 03F00F0C 		and	ip, r3, #15
 4619              		.loc 1 1442 5 view .LVU1543
 4620 009a 0CF13001 		add	r1, ip, #48
 4621              	.LVL476:
 4622              		.loc 1 1443 3 is_stmt 1 view .LVU1544
 4623              		.loc 1 1443 16 view .LVU1545
 4624              		.loc 1 1443 6 is_stmt 0 view .LVU1546
 4625 009e 3929     		cmp	r1, #57
 4626              		.loc 1 1443 18 view .LVU1547
 4627 00a0 88BF     		it	hi
 4628 00a2 0CF13701 		addhi	r1, ip, #55
 4629              	.LVL477:
 4630              		.loc 1 1444 3 is_stmt 1 view .LVU1548
 4631              		.loc 1 1446 2 is_stmt 0 view .LVU1549
 4632 00a6 0F2B     		cmp	r3, #15
 4633              		.loc 1 1444 11 view .LVU1550
 4634 00a8 0EF80119 		strb	r1, [lr], #-1
 4635              		.loc 1 1444 7 view .LVU1551
 4636 00ac 02F1FF32 		add	r2, r2, #-1
 4637              	.LVL478:
 4638              		.loc 1 1445 3 is_stmt 1 view .LVU1552
 4639              		.loc 1 1445 7 is_stmt 0 view .LVU1553
 4640 00b0 4FEA1311 		lsr	r1, r3, #4
 4641              	.LVL479:
 4642              		.loc 1 1446 10 is_stmt 1 view .LVU1554
 4643              		.loc 1 1446 2 is_stmt 0 view .LVU1555
 4644 00b4 EED8     		bhi	.L545
 4645              		.loc 1 1447 2 is_stmt 1 view .LVU1556
 4646              		.loc 1 1447 8 is_stmt 0 view .LVU1557
 4647 00b6 08AB     		add	r3, sp, #32
 4648 00b8 1344     		add	r3, r3, r2
 4649 00ba 7E21     		movs	r1, #126
 4650              	.LVL480:
 4651              		.loc 1 1447 8 view .LVU1558
 4652 00bc 03F8181C 		strb	r1, [r3, #-24]
 4653              	.LVL481:
 4654              		.loc 1 1450 2 is_stmt 1 view .LVU1559
 4655              		.loc 1 1450 14 view .LVU1560
 4656              		.loc 1 1450 9 is_stmt 0 view .LVU1561
 4657 00c0 1346     		mov	r3, r2
 4658              		.loc 1 1450 2 view .LVU1562
 4659 00c2 42B1     		cbz	r2, .L516
 4660              		.loc 1 1450 9 view .LVU1563
 4661 00c4 0023     		movs	r3, #0
 4662 00c6 02E0     		b	.L515
 4663              	.LVL482:
 4664              	.L517:
 4665              		.loc 1 1451 3 is_stmt 1 view .LVU1564
 4666              		.loc 1 1450 38 view .LVU1565
 4667              		.loc 1 1450 39 is_stmt 0 view .LVU1566
 4668 00c8 0133     		adds	r3, r3, #1
 4669              	.LVL483:
 4670              		.loc 1 1450 14 is_stmt 1 view .LVU1567
 4671              		.loc 1 1450 2 is_stmt 0 view .LVU1568
 4672 00ca 9A42     		cmp	r2, r3
 4673 00cc 03D0     		beq	.L516
 4674              	.LVL484:
ARM GAS  /tmp/cceBSuz7.s 			page 83


 4675              	.L515:
 4676              		.loc 1 1450 20 view .LVU1569
 4677 00ce 10F8011F 		ldrb	r1, [r0, #1]!	@ zero_extendqisi2
 4678 00d2 2029     		cmp	r1, #32
 4679 00d4 F8D1     		bne	.L517
 4680              	.LVL485:
 4681              	.L516:
 4682              		.loc 1 1450 20 view .LVU1570
 4683 00d6 013B     		subs	r3, r3, #1
 4684 00d8 2344     		add	r3, r3, r4
 4685 00da 0BE0     		b	.L519
 4686              	.L581:
 4687              	.LVL486:
 4688              		.loc 1 1457 12 view .LVU1571
 4689 00dc 08A9     		add	r1, sp, #32
 4690 00de 1144     		add	r1, r1, r2
 4691 00e0 0132     		adds	r2, r2, #1
 4692              	.LVL487:
 4693              		.loc 1 1457 12 view .LVU1572
 4694 00e2 11F8180C 		ldrb	r0, [r1, #-24]	@ zero_extendqisi2
 4695              	.L518:
 4696              	.LVL488:
 4697              		.loc 1 1457 12 view .LVU1573
 4698 00e6 5870     		strb	r0, [r3, #1]
 4699              		.loc 1 1458 10 is_stmt 1 view .LVU1574
 4700              		.loc 1 1458 2 is_stmt 0 view .LVU1575
 4701 00e8 991C     		adds	r1, r3, #2
 4702 00ea 091B     		subs	r1, r1, r4
 4703 00ec 0729     		cmp	r1, #7
 4704 00ee 03F10103 		add	r3, r3, #1
 4705              	.LVL489:
 4706              		.loc 1 1458 2 view .LVU1576
 4707 00f2 03D8     		bhi	.L580
 4708              	.LVL490:
 4709              	.L519:
 4710              		.loc 1 1456 2 is_stmt 1 view .LVU1577
 4711              		.loc 1 1457 3 view .LVU1578
 4712              		.loc 1 1457 12 is_stmt 0 view .LVU1579
 4713 00f4 072A     		cmp	r2, #7
 4714 00f6 F1D9     		bls	.L581
 4715              		.loc 1 1457 12 view .LVU1580
 4716 00f8 2020     		movs	r0, #32
 4717 00fa F4E7     		b	.L518
 4718              	.LVL491:
 4719              	.L580:
 4720              		.loc 1 1457 12 view .LVU1581
 4721              	.LBE357:
 4722              	.LBE360:
 4723              		.loc 1 1631 4 is_stmt 1 view .LVU1582
 4724              	.LBB361:
 4725              	.LBI361:
 4726              		.loc 1 1490 9 view .LVU1583
 4727              	.LBB362:
 4728              		.loc 1 1494 2 view .LVU1584
 4729              		.loc 1 1495 2 view .LVU1585
 4730              		.loc 1 1497 2 view .LVU1586
 4731              		.loc 1 1500 2 view .LVU1587
ARM GAS  /tmp/cceBSuz7.s 			page 84


 4732              		.loc 1 1500 8 is_stmt 0 view .LVU1588
 4733 00fc 0021     		movs	r1, #0
 4734 00fe 5846     		mov	r0, fp
 4735 0100 FFF7FEFF 		bl	dir_sdi
 4736              	.LVL492:
 4737              		.loc 1 1501 2 is_stmt 1 view .LVU1589
 4738              		.loc 1 1501 5 is_stmt 0 view .LVU1590
 4739 0104 0346     		mov	r3, r0
 4740 0106 68B9     		cbnz	r0, .L520
 4741 0108 5846     		mov	r0, fp
 4742              	.LVL493:
 4743              		.loc 1 1501 5 view .LVU1591
 4744 010a FFF7FEFF 		bl	dir_find.part.0
 4745              	.LVL494:
 4746              		.loc 1 1501 5 view .LVU1592
 4747              	.LBE362:
 4748              	.LBE361:
 4749              		.loc 1 1632 4 is_stmt 1 view .LVU1593
 4750              		.loc 1 1632 7 is_stmt 0 view .LVU1594
 4751 010e 0346     		mov	r3, r0
 4752 0110 40B9     		cbnz	r0, .L520
 4753              		.loc 1 1629 24 is_stmt 1 discriminator 2 view .LVU1595
 4754              		.loc 1 1629 25 is_stmt 0 discriminator 2 view .LVU1596
 4755 0112 0AF1010A 		add	r10, r10, #1
 4756              	.LVL495:
 4757              		.loc 1 1629 15 is_stmt 1 discriminator 2 view .LVU1597
 4758              		.loc 1 1629 3 is_stmt 0 discriminator 2 view .LVU1598
 4759 0116 BAF1640F 		cmp	r10, #100
 4760 011a 95D1     		bne	.L507
 4761              		.loc 1 1634 24 view .LVU1599
 4762 011c 0723     		movs	r3, #7
 4763 011e 1FE0     		b	.L521
 4764              	.L544:
 4765              	.LBB363:
 4766              	.LBB358:
 4767              	.LBB355:
 4768              		.loc 1 1428 9 view .LVU1600
 4769 0120 5346     		mov	r3, r10
 4770 0122 B3E7     		b	.L509
 4771              	.LVL496:
 4772              	.L520:
 4773              		.loc 1 1428 9 view .LVU1601
 4774              	.LBE355:
 4775              	.LBE358:
 4776              	.LBE363:
 4777              		.loc 1 1634 3 is_stmt 1 view .LVU1602
 4778              		.loc 1 1635 3 view .LVU1603
 4779              		.loc 1 1635 6 is_stmt 0 view .LVU1604
 4780 0124 042B     		cmp	r3, #4
 4781 0126 1BD1     		bne	.L521
 4782              		.loc 1 1636 3 is_stmt 1 view .LVU1605
 4783              		.loc 1 1636 10 is_stmt 0 view .LVU1606
 4784 0128 84F80B90 		strb	r9, [r4, #11]
 4785              		.loc 1 1636 20 is_stmt 1 view .LVU1607
 4786              		.loc 1 1636 28 is_stmt 0 view .LVU1608
 4787 012c CBF81C60 		str	r6, [fp, #28]
 4788              	.LVL497:
ARM GAS  /tmp/cceBSuz7.s 			page 85


 4789              	.L506:
 4790              		.loc 1 1639 2 is_stmt 1 view .LVU1609
 4791              		.loc 1 1639 5 is_stmt 0 view .LVU1610
 4792 0130 19F0020F 		tst	r9, #2
 4793 0134 1ED0     		beq	.L523
 4794              	.LVL498:
 4795              		.loc 1 1640 15 is_stmt 1 view .LVU1611
 4796              		.loc 1 1640 3 is_stmt 0 view .LVU1612
 4797 0136 3388     		ldrh	r3, [r6]
 4798 0138 E3B1     		cbz	r3, .L523
 4799              		.loc 1 1640 10 view .LVU1613
 4800 013a 0023     		movs	r3, #0
 4801              	.LVL499:
 4802              	.L524:
 4803              		.loc 1 1640 28 is_stmt 1 discriminator 3 view .LVU1614
 4804              		.loc 1 1640 23 discriminator 3 view .LVU1615
 4805              		.loc 1 1640 18 is_stmt 0 discriminator 3 view .LVU1616
 4806 013c 36F8021F 		ldrh	r1, [r6, #2]!
 4807 0140 1A46     		mov	r2, r3
 4808              		.loc 1 1640 24 discriminator 3 view .LVU1617
 4809 0142 0133     		adds	r3, r3, #1
 4810              	.LVL500:
 4811              		.loc 1 1640 15 is_stmt 1 discriminator 3 view .LVU1618
 4812              		.loc 1 1640 3 is_stmt 0 discriminator 3 view .LVU1619
 4813 0144 0029     		cmp	r1, #0
 4814 0146 F9D1     		bne	.L524
 4815              		.loc 1 1641 3 is_stmt 1 view .LVU1620
 4816              		.loc 1 1641 8 is_stmt 0 view .LVU1621
 4817 0148 6549     		ldr	r1, .L587+8
 4818              		.loc 1 1641 13 view .LVU1622
 4819 014a 02F11A05 		add	r5, r2, #26
 4820              		.loc 1 1641 8 view .LVU1623
 4821 014e A1FB0535 		umull	r3, r5, r1, r5
 4822              	.LVL501:
 4823              		.loc 1 1641 8 view .LVU1624
 4824 0152 AD08     		lsrs	r5, r5, #2
 4825              	.LVL502:
 4826              		.loc 1 1645 2 is_stmt 1 view .LVU1625
 4827              		.loc 1 1645 8 is_stmt 0 view .LVU1626
 4828 0154 2946     		mov	r1, r5
 4829 0156 5846     		mov	r0, fp
 4830 0158 FFF7FEFF 		bl	dir_alloc
 4831              	.LVL503:
 4832              		.loc 1 1647 2 is_stmt 1 view .LVU1627
 4833              		.loc 1 1647 5 is_stmt 0 view .LVU1628
 4834 015c 0346     		mov	r3, r0
 4835 015e B8B3     		cbz	r0, .L582
 4836              	.LVL504:
 4837              	.L521:
 4838              		.loc 1 1677 1 view .LVU1629
 4839 0160 5D4A     		ldr	r2, .L587
 4840 0162 1168     		ldr	r1, [r2]
 4841 0164 079A     		ldr	r2, [sp, #28]
 4842 0166 5140     		eors	r1, r2, r1
 4843 0168 40F0B380 		bne	.L583
 4844 016c 1846     		mov	r0, r3
 4845 016e 09B0     		add	sp, sp, #36
ARM GAS  /tmp/cceBSuz7.s 			page 86


 4846              		.cfi_remember_state
 4847              		.cfi_def_cfa_offset 36
 4848              		@ sp needed
 4849 0170 BDE8F08F 		pop	{r4, r5, r6, r7, r8, r9, r10, fp, pc}
 4850              	.LVL505:
 4851              	.L523:
 4852              		.cfi_restore_state
 4853              		.loc 1 1641 3 is_stmt 1 view .LVU1630
 4854              		.loc 1 1645 2 view .LVU1631
 4855              		.loc 1 1645 8 is_stmt 0 view .LVU1632
 4856 0174 0121     		movs	r1, #1
 4857 0176 5846     		mov	r0, fp
 4858 0178 FFF7FEFF 		bl	dir_alloc
 4859              	.LVL506:
 4860              		.loc 1 1647 2 is_stmt 1 view .LVU1633
 4861              		.loc 1 1647 5 is_stmt 0 view .LVU1634
 4862 017c 0346     		mov	r3, r0
 4863 017e 0028     		cmp	r0, #0
 4864 0180 EED1     		bne	.L521
 4865              	.LVL507:
 4866              	.L539:
 4867              		.loc 1 1665 3 is_stmt 1 view .LVU1635
 4868              		.loc 1 1665 9 is_stmt 0 view .LVU1636
 4869 0182 DBF81010 		ldr	r1, [fp, #16]
 4870 0186 DBF80000 		ldr	r0, [fp]
 4871 018a FFF7FEFF 		bl	move_window
 4872              	.LVL508:
 4873              		.loc 1 1666 3 is_stmt 1 view .LVU1637
 4874              		.loc 1 1666 6 is_stmt 0 view .LVU1638
 4875 018e 0346     		mov	r3, r0
 4876 0190 0028     		cmp	r0, #0
 4877 0192 E5D1     		bne	.L521
 4878              		.loc 1 1667 4 is_stmt 1 view .LVU1639
 4879              		.loc 1 1667 14 is_stmt 0 view .LVU1640
 4880 0194 DBF81420 		ldr	r2, [fp, #20]
 4881              	.LVL509:
 4882              	.LBB364:
 4883              	.LBI364:
 4884              		.loc 1 579 6 is_stmt 1 view .LVU1641
 4885              	.LBB365:
 4886              		.loc 1 580 2 view .LVU1642
 4887              		.loc 1 582 2 view .LVU1643
 4888              		.loc 1 582 8 view .LVU1644
 4889              		.loc 1 582 8 is_stmt 0 view .LVU1645
 4890 0198 02F12001 		add	r1, r2, #32
 4891              	.LVL510:
 4892              	.L536:
 4893              		.loc 1 583 3 is_stmt 1 view .LVU1646
 4894              		.loc 1 583 8 is_stmt 0 view .LVU1647
 4895 019c 02F8010B 		strb	r0, [r2], #1
 4896              	.LVL511:
 4897              		.loc 1 582 8 is_stmt 1 view .LVU1648
 4898              		.loc 1 582 8 is_stmt 0 view .LVU1649
 4899 01a0 8A42     		cmp	r2, r1
 4900 01a2 FBD1     		bne	.L536
 4901              	.LVL512:
 4902              		.loc 1 582 8 view .LVU1650
ARM GAS  /tmp/cceBSuz7.s 			page 87


 4903              	.LBE365:
 4904              	.LBE364:
 4905              		.loc 1 1668 4 is_stmt 1 view .LVU1651
 4906 01a4 DBE90512 		ldrd	r1, r2, [fp, #20]
 4907 01a8 02F10B04 		add	r4, r2, #11
 4908 01ac 0139     		subs	r1, r1, #1
 4909              	.LVL513:
 4910              	.L537:
 4911              	.LBB366:
 4912              	.LBB367:
 4913              		.loc 1 574 3 view .LVU1652
 4914              		.loc 1 574 10 is_stmt 0 view .LVU1653
 4915 01ae 12F8010B 		ldrb	r0, [r2], #1	@ zero_extendqisi2
 4916              	.LVL514:
 4917              		.loc 1 574 8 view .LVU1654
 4918 01b2 01F8010F 		strb	r0, [r1, #1]!
 4919              		.loc 1 573 8 is_stmt 1 view .LVU1655
 4920              		.loc 1 573 8 is_stmt 0 view .LVU1656
 4921 01b6 A242     		cmp	r2, r4
 4922 01b8 F9D1     		bne	.L537
 4923              	.LVL515:
 4924              		.loc 1 573 8 view .LVU1657
 4925              	.LBE367:
 4926              	.LBE366:
 4927              		.loc 1 1670 4 is_stmt 1 view .LVU1658
 4928              		.loc 1 1670 6 is_stmt 0 view .LVU1659
 4929 01ba DBE90512 		ldrd	r1, r2, [fp, #20]
 4930              		.loc 1 1670 36 view .LVU1660
 4931 01be D27A     		ldrb	r2, [r2, #11]	@ zero_extendqisi2
 4932 01c0 02F01802 		and	r2, r2, #24
 4933              		.loc 1 1670 23 view .LVU1661
 4934 01c4 0A73     		strb	r2, [r1, #12]
 4935              		.loc 1 1672 4 is_stmt 1 view .LVU1662
 4936              		.loc 1 1672 6 is_stmt 0 view .LVU1663
 4937 01c6 DBF80020 		ldr	r2, [fp]
 4938              		.loc 1 1672 18 view .LVU1664
 4939 01ca 0121     		movs	r1, #1
 4940 01cc 1171     		strb	r1, [r2, #4]
 4941 01ce C7E7     		b	.L521
 4942              	.LVL516:
 4943              	.L582:
 4944              		.loc 1 1648 23 view .LVU1665
 4945 01d0 BBF80610 		ldrh	r1, [fp, #6]
 4946              		.loc 1 1647 19 view .LVU1666
 4947 01d4 013D     		subs	r5, r5, #1
 4948              	.LVL517:
 4949              		.loc 1 1648 3 is_stmt 1 view .LVU1667
 4950              		.loc 1 1648 9 is_stmt 0 view .LVU1668
 4951 01d6 491B     		subs	r1, r1, r5
 4952 01d8 5846     		mov	r0, fp
 4953              	.LVL518:
 4954              		.loc 1 1648 9 view .LVU1669
 4955 01da FFF7FEFF 		bl	dir_sdi
 4956              	.LVL519:
 4957              		.loc 1 1649 3 is_stmt 1 view .LVU1670
 4958              		.loc 1 1649 6 is_stmt 0 view .LVU1671
 4959 01de 0346     		mov	r3, r0
ARM GAS  /tmp/cceBSuz7.s 			page 88


 4960 01e0 0028     		cmp	r0, #0
 4961 01e2 BDD1     		bne	.L521
 4962              		.loc 1 1650 4 is_stmt 1 view .LVU1672
 4963              		.loc 1 1650 20 is_stmt 0 view .LVU1673
 4964 01e4 DBF81820 		ldr	r2, [fp, #24]
 4965              	.LVL520:
 4966              	.LBB368:
 4967              	.LBI368:
 4968              		.loc 1 1470 6 is_stmt 1 view .LVU1674
 4969              	.LBB369:
 4970              		.loc 1 1474 2 view .LVU1675
 4971              		.loc 1 1475 2 view .LVU1676
 4972              		.loc 1 1475 2 is_stmt 0 view .LVU1677
 4973 01e8 02F10B04 		add	r4, r2, #11
 4974              	.LVL521:
 4975              	.L526:
 4976              		.loc 1 1477 2 is_stmt 1 view .LVU1678
 4977              		.loc 1 1477 5 view .LVU1679
 4978              		.loc 1 1477 9 is_stmt 0 view .LVU1680
 4979 01ec 12F8011B 		ldrb	r1, [r2], #1	@ zero_extendqisi2
 4980              	.LVL522:
 4981              		.loc 1 1477 22 view .LVU1681
 4982 01f0 D801     		lsls	r0, r3, #7
 4983 01f2 40EA5300 		orr	r0, r0, r3, lsr #1
 4984              		.loc 1 1477 9 view .LVU1682
 4985 01f6 51FA80F0 		uxtab	r0, r1, r0
 4986              		.loc 1 1477 2 view .LVU1683
 4987 01fa A242     		cmp	r2, r4
 4988              		.loc 1 1477 9 view .LVU1684
 4989 01fc C3B2     		uxtb	r3, r0
 4990              	.LVL523:
 4991              		.loc 1 1477 51 is_stmt 1 view .LVU1685
 4992              		.loc 1 1477 2 is_stmt 0 view .LVU1686
 4993 01fe F5D1     		bne	.L526
 4994 0200 384F     		ldr	r7, .L587+12
 4995              	.LVL524:
 4996              	.L535:
 4997              		.loc 1 1477 2 view .LVU1687
 4998              	.LBE369:
 4999              	.LBE368:
 5000              		.loc 1 1651 4 is_stmt 1 view .LVU1688
 5001              		.loc 1 1652 5 view .LVU1689
 5002              		.loc 1 1652 11 is_stmt 0 view .LVU1690
 5003 0202 DBF81010 		ldr	r1, [fp, #16]
 5004 0206 DBF80000 		ldr	r0, [fp]
 5005 020a 0193     		str	r3, [sp, #4]
 5006 020c FFF7FEFF 		bl	move_window
 5007              	.LVL525:
 5008              		.loc 1 1653 5 is_stmt 1 view .LVU1691
 5009              		.loc 1 1653 8 is_stmt 0 view .LVU1692
 5010 0210 0028     		cmp	r0, #0
 5011 0212 5CD1     		bne	.L551
 5012              		.loc 1 1654 5 is_stmt 1 view .LVU1693
 5013 0214 5FFA85F8 		uxtb	r8, r5
 5014              	.LBB370:
 5015              	.LBB371:
 5016              		.loc 1 1389 11 is_stmt 0 view .LVU1694
ARM GAS  /tmp/cceBSuz7.s 			page 89


 5017 0218 08F1FF36 		add	r6, r8, #-1
 5018              		.loc 1 1389 16 view .LVU1695
 5019 021c 06EB460E 		add	lr, r6, r6, lsl #1
 5020              	.LBE371:
 5021              	.LBE370:
 5022              		.loc 1 1654 5 view .LVU1696
 5023 0220 DBF81440 		ldr	r4, [fp, #20]
 5024              	.LBB374:
 5025              	.LBB372:
 5026              		.loc 1 1384 19 view .LVU1697
 5027 0224 019B     		ldr	r3, [sp, #4]
 5028              	.LBE372:
 5029              	.LBE374:
 5030              		.loc 1 1654 15 view .LVU1698
 5031 0226 DBF81CC0 		ldr	ip, [fp, #28]
 5032              	.LVL526:
 5033              	.LBB375:
 5034              	.LBI370:
 5035              		.loc 1 1373 6 is_stmt 1 view .LVU1699
 5036              	.LBB373:
 5037              		.loc 1 1380 2 view .LVU1700
 5038              		.loc 1 1381 2 view .LVU1701
 5039              		.loc 1 1384 2 view .LVU1702
 5040              		.loc 1 1384 19 is_stmt 0 view .LVU1703
 5041 022a 6373     		strb	r3, [r4, #13]
 5042              		.loc 1 1385 2 is_stmt 1 view .LVU1704
 5043              		.loc 1 1390 9 is_stmt 0 view .LVU1705
 5044 022c 0146     		mov	r1, r0
 5045              		.loc 1 1389 16 view .LVU1706
 5046 022e 06EB8E06 		add	r6, r6, lr, lsl #2
 5047              		.loc 1 1392 6 view .LVU1707
 5048 0232 4FF6FF7E 		movw	lr, #65535
 5049              		.loc 1 1385 17 view .LVU1708
 5050 0236 0F22     		movs	r2, #15
 5051              		.loc 1 1392 6 view .LVU1709
 5052 0238 7145     		cmp	r1, lr
 5053              		.loc 1 1385 17 view .LVU1710
 5054 023a E272     		strb	r2, [r4, #11]
 5055              		.loc 1 1386 2 is_stmt 1 view .LVU1711
 5056              		.loc 1 1386 17 is_stmt 0 view .LVU1712
 5057 023c 2073     		strb	r0, [r4, #12]
 5058              		.loc 1 1387 2 is_stmt 1 view .LVU1713
 5059 023e A076     		strb	r0, [r4, #26]
 5060              		.loc 1 1387 2 view .LVU1714
 5061 0240 E076     		strb	r0, [r4, #27]
 5062              		.loc 1 1389 2 view .LVU1715
 5063              	.LVL527:
 5064              		.loc 1 1390 2 view .LVU1716
 5065              		.loc 1 1389 4 is_stmt 0 view .LVU1717
 5066 0242 4FF00102 		mov	r2, #1
 5067              		.loc 1 1393 3 view .LVU1718
 5068 0246 4FF0FF09 		mov	r9, #255
 5069              	.LVL528:
 5070              		.loc 1 1391 2 is_stmt 1 view .LVU1719
 5071              		.loc 1 1392 3 view .LVU1720
 5072              		.loc 1 1392 6 is_stmt 0 view .LVU1721
 5073 024a 1ED0     		beq	.L527
ARM GAS  /tmp/cceBSuz7.s 			page 90


 5074              	.LVL529:
 5075              	.L585:
 5076              		.loc 1 1392 21 is_stmt 1 view .LVU1722
 5077              		.loc 1 1392 24 is_stmt 0 view .LVU1723
 5078 024c 3CF81610 		ldrh	r1, [ip, r6, lsl #1]
 5079              	.LVL530:
 5080              		.loc 1 1393 3 is_stmt 1 view .LVU1724
 5081 0250 A154     		strb	r1, [r4, r2]
 5082              		.loc 1 1393 3 view .LVU1725
 5083 0252 2244     		add	r2, r2, r4
 5084 0254 4FEA112A 		lsr	r10, r1, #8
 5085 0258 82F801A0 		strb	r10, [r2, #1]
 5086              		.loc 1 1394 3 view .LVU1726
 5087              		.loc 1 1394 6 is_stmt 0 view .LVU1727
 5088 025c 69B9     		cbnz	r1, .L528
 5089              	.LVL531:
 5090              	.L584:
 5091              		.loc 1 1394 12 is_stmt 1 view .LVU1728
 5092              		.loc 1 1395 10 view .LVU1729
 5093              		.loc 1 1395 2 is_stmt 0 view .LVU1730
 5094 025e 0130     		adds	r0, r0, #1
 5095              	.LVL532:
 5096              		.loc 1 1395 2 view .LVU1731
 5097 0260 0D28     		cmp	r0, #13
 5098 0262 22D0     		beq	.L534
 5099 0264 C25D     		ldrb	r2, [r0, r7]	@ zero_extendqisi2
 5100              		.loc 1 1394 15 view .LVU1732
 5101 0266 4FF6FF71 		movw	r1, #65535
 5102              	.LVL533:
 5103              		.loc 1 1393 3 is_stmt 1 view .LVU1733
 5104 026a A154     		strb	r1, [r4, r2]
 5105              		.loc 1 1393 3 view .LVU1734
 5106 026c 2244     		add	r2, r2, r4
 5107 026e 4FEA112A 		lsr	r10, r1, #8
 5108 0272 82F801A0 		strb	r10, [r2, #1]
 5109              		.loc 1 1394 3 view .LVU1735
 5110              		.loc 1 1394 6 is_stmt 0 view .LVU1736
 5111 0276 0029     		cmp	r1, #0
 5112 0278 F1D0     		beq	.L584
 5113              	.LVL534:
 5114              	.L528:
 5115              		.loc 1 1395 2 view .LVU1737
 5116 027a 0130     		adds	r0, r0, #1
 5117 027c 0D28     		cmp	r0, #13
 5118              		.loc 1 1392 34 view .LVU1738
 5119 027e 06F10106 		add	r6, r6, #1
 5120              	.LVL535:
 5121              		.loc 1 1395 10 is_stmt 1 view .LVU1739
 5122              		.loc 1 1395 2 is_stmt 0 view .LVU1740
 5123 0282 0BD0     		beq	.L532
 5124              	.L586:
 5125              		.loc 1 1392 6 view .LVU1741
 5126 0284 7145     		cmp	r1, lr
 5127 0286 3A5C     		ldrb	r2, [r7, r0]	@ zero_extendqisi2
 5128              		.loc 1 1391 2 is_stmt 1 view .LVU1742
 5129              		.loc 1 1392 3 view .LVU1743
 5130              		.loc 1 1392 6 is_stmt 0 view .LVU1744
ARM GAS  /tmp/cceBSuz7.s 			page 91


 5131 0288 E0D1     		bne	.L585
 5132              	.L527:
 5133              	.LVL536:
 5134              		.loc 1 1393 3 is_stmt 1 view .LVU1745
 5135 028a 04EB020A 		add	r10, r4, r2
 5136              		.loc 1 1395 2 is_stmt 0 view .LVU1746
 5137 028e 0130     		adds	r0, r0, #1
 5138              	.LVL537:
 5139              		.loc 1 1395 2 view .LVU1747
 5140 0290 0D28     		cmp	r0, #13
 5141              		.loc 1 1393 3 view .LVU1748
 5142 0292 04F80290 		strb	r9, [r4, r2]
 5143              		.loc 1 1393 3 is_stmt 1 view .LVU1749
 5144 0296 8AF80190 		strb	r9, [r10, #1]
 5145              		.loc 1 1394 3 view .LVU1750
 5146              	.LVL538:
 5147              		.loc 1 1395 10 view .LVU1751
 5148              		.loc 1 1395 2 is_stmt 0 view .LVU1752
 5149 029a F3D1     		bne	.L586
 5150              	.L532:
 5151              		.loc 1 1396 2 is_stmt 1 view .LVU1753
 5152              		.loc 1 1396 5 is_stmt 0 view .LVU1754
 5153 029c 4FF6FF72 		movw	r2, #65535
 5154 02a0 9142     		cmp	r1, r2
 5155 02a2 02D0     		beq	.L534
 5156              		.loc 1 1396 19 view .LVU1755
 5157 02a4 3CF81620 		ldrh	r2, [ip, r6, lsl #1]
 5158 02a8 0AB9     		cbnz	r2, .L530
 5159              	.LVL539:
 5160              	.L534:
 5161              		.loc 1 1396 34 is_stmt 1 view .LVU1756
 5162              		.loc 1 1396 38 is_stmt 0 view .LVU1757
 5163 02aa 48F04008 		orr	r8, r8, #64
 5164              	.LVL540:
 5165              	.L530:
 5166              		.loc 1 1397 2 is_stmt 1 view .LVU1758
 5167              		.loc 1 1397 16 is_stmt 0 view .LVU1759
 5168 02ae 84F80080 		strb	r8, [r4]
 5169              	.LVL541:
 5170              		.loc 1 1397 16 view .LVU1760
 5171              	.LBE373:
 5172              	.LBE375:
 5173              		.loc 1 1655 5 is_stmt 1 view .LVU1761
 5174              		.loc 1 1655 7 is_stmt 0 view .LVU1762
 5175 02b2 DBF80020 		ldr	r2, [fp]
 5176 02b6 0193     		str	r3, [sp, #4]
 5177              		.loc 1 1655 19 view .LVU1763
 5178 02b8 0121     		movs	r1, #1
 5179 02ba 1171     		strb	r1, [r2, #4]
 5180              		.loc 1 1656 5 is_stmt 1 view .LVU1764
 5181              		.loc 1 1656 11 is_stmt 0 view .LVU1765
 5182 02bc 5846     		mov	r0, fp
 5183 02be 0021     		movs	r1, #0
 5184 02c0 FFF7FEFF 		bl	dir_next
 5185              	.LVL542:
 5186              		.loc 1 1657 12 is_stmt 1 view .LVU1766
 5187              		.loc 1 1657 4 is_stmt 0 view .LVU1767
ARM GAS  /tmp/cceBSuz7.s 			page 92


 5188 02c4 18B9     		cbnz	r0, .L551
 5189              	.LVL543:
 5190              		.loc 1 1657 26 discriminator 1 view .LVU1768
 5191 02c6 013D     		subs	r5, r5, #1
 5192              	.LVL544:
 5193              		.loc 1 1657 26 discriminator 1 view .LVU1769
 5194 02c8 019B     		ldr	r3, [sp, #4]
 5195 02ca 9AD1     		bne	.L535
 5196 02cc 59E7     		b	.L539
 5197              	.L551:
 5198              		.loc 1 1656 11 view .LVU1770
 5199 02ce 0346     		mov	r3, r0
 5200 02d0 46E7     		b	.L521
 5201              	.LVL545:
 5202              	.L583:
 5203              		.loc 1 1677 1 view .LVU1771
 5204 02d2 FFF7FEFF 		bl	__stack_chk_fail
 5205              	.LVL546:
 5206              	.L588:
 5207 02d6 00BF     		.align	2
 5208              	.L587:
 5209 02d8 00000000 		.word	.LC17
 5210 02dc 21100100 		.word	69665
 5211 02e0 4FECC44E 		.word	1321528399
 5212 02e4 00000000 		.word	.LANCHOR2
 5213              		.cfi_endproc
 5214              	.LFE244:
 5215              		.size	dir_register, .-dir_register
 5216              		.section	.rodata.remove_chain.part.0.cst4,"aM",%progbits,4
 5217              		.align	2
 5218              	.LC18:
 5219 0000 00000000 		.word	__stack_chk_guard
 5220              		.section	.text.remove_chain.part.0,"ax",%progbits
 5221              		.align	1
 5222              		.p2align 4,,15
 5223              		.syntax unified
 5224              		.thumb
 5225              		.thumb_func
 5226              		.fpu fpv4-sp-d16
 5227              		.type	remove_chain.part.0, %function
 5228              	remove_chain.part.0:
 5229              	.LVL547:
 5230              	.LFB288:
 5231              		.loc 1 974 9 is_stmt 1 view -0
 5232              		.cfi_startproc
 5233              		@ args = 0, pretend = 0, frame = 16
 5234              		@ frame_needed = 0, uses_anonymous_args = 0
 5235              		.loc 1 974 9 is_stmt 0 view .LVU1773
 5236 0000 F0B5     		push	{r4, r5, r6, r7, lr}
 5237              		.cfi_def_cfa_offset 20
 5238              		.cfi_offset 4, -20
 5239              		.cfi_offset 5, -16
 5240              		.cfi_offset 6, -12
 5241              		.cfi_offset 7, -8
 5242              		.cfi_offset 14, -4
 5243              		.loc 1 990 9 view .LVU1774
 5244 0002 4369     		ldr	r3, [r0, #20]
ARM GAS  /tmp/cceBSuz7.s 			page 93


 5245              		.loc 1 974 9 view .LVU1775
 5246 0004 304A     		ldr	r2, .L618
 5247 0006 85B0     		sub	sp, sp, #20
 5248              		.cfi_def_cfa_offset 40
 5249              		.loc 1 990 9 view .LVU1776
 5250 0008 9942     		cmp	r1, r3
 5251              		.loc 1 974 9 view .LVU1777
 5252 000a 1268     		ldr	r2, [r2]
 5253 000c 0392     		str	r2, [sp, #12]
 5254 000e 4FF00002 		mov	r2,#0
 5255              	.LVL548:
 5256              		.loc 1 990 9 is_stmt 1 view .LVU1778
 5257 0012 4BD2     		bcs	.L593
 5258              	.LBB376:
 5259              	.LBB377:
 5260              		.loc 1 874 5 is_stmt 0 view .LVU1779
 5261 0014 0129     		cmp	r1, #1
 5262 0016 0C46     		mov	r4, r1
 5263              	.LBE377:
 5264              	.LBE376:
 5265              		.loc 1 991 4 is_stmt 1 view .LVU1780
 5266              	.LVL549:
 5267              	.LBB379:
 5268              	.LBI376:
 5269              		.loc 1 865 7 view .LVU1781
 5270              	.LBB378:
 5271              		.loc 1 870 2 view .LVU1782
 5272              		.loc 1 871 2 view .LVU1783
 5273              		.loc 1 874 2 view .LVU1784
 5274              		.loc 1 874 5 is_stmt 0 view .LVU1785
 5275 0018 50D9     		bls	.L594
 5276 001a 0546     		mov	r5, r0
 5277 001c 0F46     		mov	r7, r1
 5278              	.LVL550:
 5279              	.L592:
 5280              		.loc 1 874 5 view .LVU1786
 5281 001e 2146     		mov	r1, r4
 5282 0020 2846     		mov	r0, r5
 5283 0022 FFF7FEFF 		bl	get_fat.part.0
 5284              	.LVL551:
 5285              		.loc 1 874 5 view .LVU1787
 5286              	.LBE378:
 5287              	.LBE379:
 5288              		.loc 1 992 4 is_stmt 1 view .LVU1788
 5289              		.loc 1 992 7 is_stmt 0 view .LVU1789
 5290 0026 0646     		mov	r6, r0
 5291 0028 0028     		cmp	r0, #0
 5292 002a 3FD0     		beq	.L593
 5293              	.LVL552:
 5294              		.loc 1 993 4 is_stmt 1 view .LVU1790
 5295              		.loc 1 993 7 is_stmt 0 view .LVU1791
 5296 002c 0128     		cmp	r0, #1
 5297 002e 45D0     		beq	.L594
 5298              		.loc 1 994 4 is_stmt 1 view .LVU1792
 5299              		.loc 1 994 7 is_stmt 0 view .LVU1793
 5300 0030 411C     		adds	r1, r0, #1
 5301 0032 45D0     		beq	.L603
ARM GAS  /tmp/cceBSuz7.s 			page 94


 5302              		.loc 1 995 4 is_stmt 1 view .LVU1794
 5303              	.LVL553:
 5304              	.LBB380:
 5305              	.LBI380:
 5306              		.loc 1 911 9 view .LVU1795
 5307              	.LBB381:
 5308              		.loc 1 917 2 view .LVU1796
 5309              		.loc 1 918 2 view .LVU1797
 5310              		.loc 1 919 2 view .LVU1798
 5311              		.loc 1 922 2 view .LVU1799
 5312              		.loc 1 922 15 is_stmt 0 view .LVU1800
 5313 0034 6B69     		ldr	r3, [r5, #20]
 5314 0036 A342     		cmp	r3, r4
 5315 0038 40D9     		bls	.L594
 5316 003a 0022     		movs	r2, #0
 5317 003c 2146     		mov	r1, r4
 5318 003e 2846     		mov	r0, r5
 5319 0040 FFF7FEFF 		bl	put_fat.part.0
 5320              	.LVL554:
 5321              		.loc 1 962 2 is_stmt 1 view .LVU1801
 5322              		.loc 1 962 2 is_stmt 0 view .LVU1802
 5323              	.LBE381:
 5324              	.LBE380:
 5325              		.loc 1 996 4 is_stmt 1 view .LVU1803
 5326              		.loc 1 996 7 is_stmt 0 view .LVU1804
 5327 0044 0028     		cmp	r0, #0
 5328 0046 32D1     		bne	.L591
 5329              		.loc 1 997 4 is_stmt 1 view .LVU1805
 5330              		.loc 1 997 10 is_stmt 0 view .LVU1806
 5331 0048 2B69     		ldr	r3, [r5, #16]
 5332              		.loc 1 997 7 view .LVU1807
 5333 004a 5A1C     		adds	r2, r3, #1
 5334 004c 05D0     		beq	.L595
 5335              		.loc 1 998 5 is_stmt 1 view .LVU1808
 5336              		.loc 1 999 18 is_stmt 0 view .LVU1809
 5337 004e 6A79     		ldrb	r2, [r5, #5]	@ zero_extendqisi2
 5338              		.loc 1 998 19 view .LVU1810
 5339 0050 0133     		adds	r3, r3, #1
 5340              		.loc 1 999 18 view .LVU1811
 5341 0052 42F00102 		orr	r2, r2, #1
 5342              		.loc 1 998 19 view .LVU1812
 5343 0056 2B61     		str	r3, [r5, #16]
 5344              		.loc 1 999 5 is_stmt 1 view .LVU1813
 5345              		.loc 1 999 18 is_stmt 0 view .LVU1814
 5346 0058 6A71     		strb	r2, [r5, #5]
 5347              	.L595:
 5348              		.loc 1 1002 4 is_stmt 1 view .LVU1815
 5349              		.loc 1 1002 12 is_stmt 0 view .LVU1816
 5350 005a 631C     		adds	r3, r4, #1
 5351              		.loc 1 1002 7 view .LVU1817
 5352 005c 9E42     		cmp	r6, r3
 5353 005e 22D0     		beq	.L596
 5354              		.loc 1 1005 5 is_stmt 1 view .LVU1818
 5355              	.LVL555:
 5356              	.LBB382:
 5357              	.LBI382:
 5358              		.loc 1 847 7 view .LVU1819
ARM GAS  /tmp/cceBSuz7.s 			page 95


 5359              	.LBB383:
 5360              		.loc 1 852 2 view .LVU1820
 5361              		.loc 1 853 28 is_stmt 0 view .LVU1821
 5362 0060 6A69     		ldr	r2, [r5, #20]
 5363 0062 AB78     		ldrb	r3, [r5, #2]	@ zero_extendqisi2
 5364              	.LBE383:
 5365              	.LBE382:
 5366              		.loc 1 1007 5 view .LVU1822
 5367 0064 6878     		ldrb	r0, [r5, #1]	@ zero_extendqisi2
 5368              	.LVL556:
 5369              	.LBB386:
 5370              	.LBB384:
 5371              		.loc 1 852 7 view .LVU1823
 5372 0066 023F     		subs	r7, r7, #2
 5373              	.LVL557:
 5374              		.loc 1 853 2 is_stmt 1 view .LVU1824
 5375              		.loc 1 854 2 view .LVU1825
 5376              		.loc 1 853 28 is_stmt 0 view .LVU1826
 5377 0068 023A     		subs	r2, r2, #2
 5378              		.loc 1 853 5 view .LVU1827
 5379 006a 9742     		cmp	r7, r2
 5380              		.loc 1 854 26 view .LVU1828
 5381 006c 38BF     		it	cc
 5382 006e A96A     		ldrcc	r1, [r5, #40]
 5383              	.LBE384:
 5384              	.LBE386:
 5385              	.LBB387:
 5386              	.LBB388:
 5387              		.loc 1 852 7 view .LVU1829
 5388 0070 A4F10204 		sub	r4, r4, #2
 5389              	.LVL558:
 5390              		.loc 1 852 7 view .LVU1830
 5391              	.LBE388:
 5392              	.LBE387:
 5393              	.LBB391:
 5394              	.LBB385:
 5395              		.loc 1 854 26 view .LVU1831
 5396 0074 34BF     		ite	cc
 5397 0076 03FB0717 		mlacc	r7, r3, r7, r1
 5398              	.LVL559:
 5399              		.loc 1 853 41 view .LVU1832
 5400 007a 0027     		movcs	r7, #0
 5401              	.LBE385:
 5402              	.LBE391:
 5403              	.LBB392:
 5404              	.LBB389:
 5405              		.loc 1 853 5 view .LVU1833
 5406 007c A242     		cmp	r2, r4
 5407              		.loc 1 854 26 view .LVU1834
 5408 007e 88BF     		it	hi
 5409 0080 A96A     		ldrhi	r1, [r5, #40]
 5410              	.LBE389:
 5411              	.LBE392:
 5412              		.loc 1 1005 11 view .LVU1835
 5413 0082 0197     		str	r7, [sp, #4]
 5414              		.loc 1 1006 5 is_stmt 1 view .LVU1836
 5415              	.LVL560:
ARM GAS  /tmp/cceBSuz7.s 			page 96


 5416              	.LBB393:
 5417              	.LBI387:
 5418              		.loc 1 847 7 view .LVU1837
 5419              	.LBB390:
 5420              		.loc 1 852 2 view .LVU1838
 5421              		.loc 1 853 2 view .LVU1839
 5422              		.loc 1 854 2 view .LVU1840
 5423              		.loc 1 854 26 is_stmt 0 view .LVU1841
 5424 0084 8CBF     		ite	hi
 5425 0086 04FB0314 		mlahi	r4, r4, r3, r1
 5426              	.LVL561:
 5427              		.loc 1 853 41 view .LVU1842
 5428 008a 0024     		movls	r4, #0
 5429              	.LBE390:
 5430              	.LBE393:
 5431              		.loc 1 1006 45 view .LVU1843
 5432 008c 013B     		subs	r3, r3, #1
 5433 008e 2344     		add	r3, r3, r4
 5434              		.loc 1 1007 5 view .LVU1844
 5435 0090 01AA     		add	r2, sp, #4
 5436 0092 0421     		movs	r1, #4
 5437              		.loc 1 1006 11 view .LVU1845
 5438 0094 0293     		str	r3, [sp, #8]
 5439              		.loc 1 1007 5 is_stmt 1 view .LVU1846
 5440 0096 FFF7FEFF 		bl	disk_ioctl
 5441              	.LVL562:
 5442              		.loc 1 1008 5 view .LVU1847
 5443              		.loc 1 990 9 view .LVU1848
 5444 009a 6B69     		ldr	r3, [r5, #20]
 5445 009c 9E42     		cmp	r6, r3
 5446 009e 05D2     		bcs	.L593
 5447 00a0 3746     		mov	r7, r6
 5448              	.LVL563:
 5449              	.L600:
 5450              		.loc 1 990 9 is_stmt 0 view .LVU1849
 5451 00a2 3446     		mov	r4, r6
 5452 00a4 BBE7     		b	.L592
 5453              	.LVL564:
 5454              	.L596:
 5455              		.loc 1 990 9 is_stmt 1 view .LVU1850
 5456 00a6 6B69     		ldr	r3, [r5, #20]
 5457 00a8 9E42     		cmp	r6, r3
 5458 00aa FAD3     		bcc	.L600
 5459              	.LVL565:
 5460              	.L593:
 5461              		.loc 1 994 33 is_stmt 0 view .LVU1851
 5462 00ac 0020     		movs	r0, #0
 5463              	.LVL566:
 5464              	.L591:
 5465              		.loc 1 1015 2 is_stmt 1 view .LVU1852
 5466              		.loc 1 1016 1 is_stmt 0 view .LVU1853
 5467 00ae 064B     		ldr	r3, .L618
 5468 00b0 1A68     		ldr	r2, [r3]
 5469 00b2 039B     		ldr	r3, [sp, #12]
 5470 00b4 5A40     		eors	r2, r3, r2
 5471 00b6 05D1     		bne	.L617
 5472 00b8 05B0     		add	sp, sp, #20
ARM GAS  /tmp/cceBSuz7.s 			page 97


 5473              		.cfi_remember_state
 5474              		.cfi_def_cfa_offset 20
 5475              		@ sp needed
 5476 00ba F0BD     		pop	{r4, r5, r6, r7, pc}
 5477              	.LVL567:
 5478              	.L594:
 5479              		.cfi_restore_state
 5480              		.loc 1 993 24 view .LVU1854
 5481 00bc 0220     		movs	r0, #2
 5482 00be F6E7     		b	.L591
 5483              	.LVL568:
 5484              	.L603:
 5485              		.loc 1 994 33 view .LVU1855
 5486 00c0 0120     		movs	r0, #1
 5487 00c2 F4E7     		b	.L591
 5488              	.LVL569:
 5489              	.L617:
 5490              		.loc 1 1016 1 view .LVU1856
 5491 00c4 FFF7FEFF 		bl	__stack_chk_fail
 5492              	.LVL570:
 5493              	.L619:
 5494              		.loc 1 1016 1 view .LVU1857
 5495              		.align	2
 5496              	.L618:
 5497 00c8 00000000 		.word	.LC18
 5498              		.cfi_endproc
 5499              	.LFE288:
 5500              		.size	remove_chain.part.0, .-remove_chain.part.0
 5501              		.section	.rodata.follow_path.str1.4,"aMS",%progbits,1
 5502              		.align	2
 5503              	.LC19:
 5504 0000 222A3A3C 		.ascii	"\"*:<>?|\177\000"
 5504      3E3F7C7F 
 5504      00
 5505 0009 000000   		.align	2
 5506              	.LC20:
 5507 000c 2B2C3B3D 		.ascii	"+,;=[]\000"
 5507      5B5D00
 5508              		.section	.rodata.follow_path.cst4,"aM",%progbits,4
 5509              		.align	2
 5510              	.LC21:
 5511 0000 00000000 		.word	__stack_chk_guard
 5512              		.section	.text.follow_path,"ax",%progbits
 5513              		.align	1
 5514              		.p2align 4,,15
 5515              		.syntax unified
 5516              		.thumb
 5517              		.thumb_func
 5518              		.fpu fpv4-sp-d16
 5519              		.type	follow_path, %function
 5520              	follow_path:
 5521              	.LVL571:
 5522              	.LFB248:
 5523              		.loc 1 2019 1 is_stmt 1 view -0
 5524              		.cfi_startproc
 5525              		@ args = 0, pretend = 0, frame = 16
 5526              		@ frame_needed = 0, uses_anonymous_args = 0
ARM GAS  /tmp/cceBSuz7.s 			page 98


 5527              		.loc 1 2019 1 is_stmt 0 view .LVU1859
 5528 0000 2DE9F04F 		push	{r4, r5, r6, r7, r8, r9, r10, fp, lr}
 5529              		.cfi_def_cfa_offset 36
 5530              		.cfi_offset 4, -36
 5531              		.cfi_offset 5, -32
 5532              		.cfi_offset 6, -28
 5533              		.cfi_offset 7, -24
 5534              		.cfi_offset 8, -20
 5535              		.cfi_offset 9, -16
 5536              		.cfi_offset 10, -12
 5537              		.cfi_offset 11, -8
 5538              		.cfi_offset 14, -4
 5539              		.loc 1 2031 6 view .LVU1860
 5540 0004 0B78     		ldrb	r3, [r1]	@ zero_extendqisi2
 5541              		.loc 1 2019 1 view .LVU1861
 5542 0006 B94A     		ldr	r2, .L768
 5543 0008 85B0     		sub	sp, sp, #20
 5544              		.cfi_def_cfa_offset 56
 5545              		.loc 1 2031 5 view .LVU1862
 5546 000a 2F2B     		cmp	r3, #47
 5547              		.loc 1 2019 1 view .LVU1863
 5548 000c 8846     		mov	r8, r1
 5549 000e 1268     		ldr	r2, [r2]
 5550 0010 0392     		str	r2, [sp, #12]
 5551 0012 4FF00002 		mov	r2,#0
 5552              		.loc 1 2020 2 is_stmt 1 view .LVU1864
 5553              		.loc 1 2021 2 view .LVU1865
 5554              		.loc 1 2031 2 view .LVU1866
 5555              		.loc 1 2019 1 is_stmt 0 view .LVU1867
 5556 0016 0646     		mov	r6, r0
 5557              		.loc 1 2031 5 view .LVU1868
 5558 0018 45D0     		beq	.L621
 5559              		.loc 1 2031 19 discriminator 1 view .LVU1869
 5560 001a 5C2B     		cmp	r3, #92
 5561 001c 43D0     		beq	.L621
 5562              		.loc 1 2033 2 is_stmt 1 view .LVU1870
 5563              		.loc 1 2033 13 is_stmt 0 view .LVU1871
 5564 001e 0024     		movs	r4, #0
 5565 0020 B460     		str	r4, [r6, #8]
 5566              		.loc 1 2036 2 is_stmt 1 view .LVU1872
 5567              		.loc 1 2036 12 is_stmt 0 view .LVU1873
 5568 0022 98F80030 		ldrb	r3, [r8]	@ zero_extendqisi2
 5569              		.loc 1 2036 5 view .LVU1874
 5570 0026 1F2B     		cmp	r3, #31
 5571 0028 02D8     		bhi	.L625
 5572 002a 44E0     		b	.L759
 5573              	.LVL572:
 5574              	.L626:
 5575              	.LBB406:
 5576              	.LBB407:
 5577              		.loc 1 1817 48 is_stmt 1 view .LVU1875
 5578              		.loc 1 1817 43 view .LVU1876
 5579              		.loc 1 1817 43 is_stmt 0 view .LVU1877
 5580 002c 18F8013F 		ldrb	r3, [r8, #1]!	@ zero_extendqisi2
 5581              	.LVL573:
 5582              	.L625:
 5583              		.loc 1 1817 18 is_stmt 1 view .LVU1878
ARM GAS  /tmp/cceBSuz7.s 			page 99


 5584              		.loc 1 1817 2 is_stmt 0 view .LVU1879
 5585 0030 2F2B     		cmp	r3, #47
 5586 0032 FBD0     		beq	.L626
 5587              		.loc 1 1817 28 view .LVU1880
 5588 0034 5C2B     		cmp	r3, #92
 5589 0036 F9D0     		beq	.L626
 5590              		.loc 1 1818 2 is_stmt 1 view .LVU1881
 5591              		.loc 1 1822 6 is_stmt 0 view .LVU1882
 5592 0038 1F2B     		cmp	r3, #31
 5593              		.loc 1 1818 6 view .LVU1883
 5594 003a D6F81C90 		ldr	r9, [r6, #28]
 5595              	.LVL574:
 5596              		.loc 1 1819 2 is_stmt 1 view .LVU1884
 5597              		.loc 1 1820 2 view .LVU1885
 5598              		.loc 1 1821 3 view .LVU1886
 5599              		.loc 1 1821 5 is_stmt 0 view .LVU1887
 5600 003e 98B2     		uxth	r0, r3
 5601              	.LVL575:
 5602              		.loc 1 1822 3 is_stmt 1 view .LVU1888
 5603              		.loc 1 1822 6 is_stmt 0 view .LVU1889
 5604 0040 27D9     		bls	.L627
 5605 0042 A9F1020A 		sub	r10, r9, #2
 5606 0046 D346     		mov	fp, r10
 5607 0048 4746     		mov	r7, r8
 5608              		.loc 1 1821 11 view .LVU1890
 5609 004a 0125     		movs	r5, #1
 5610 004c 09E0     		b	.L633
 5611              	.LVL576:
 5612              	.L630:
 5613              		.loc 1 1838 3 is_stmt 1 view .LVU1891
 5614              		.loc 1 1838 13 is_stmt 0 view .LVU1892
 5615 004e 2BF8020F 		strh	r0, [fp, #2]!	@ movhi
 5616              		.loc 1 1820 8 is_stmt 1 view .LVU1893
 5617              		.loc 1 1820 2 view .LVU1894
 5618              		.loc 1 1821 3 view .LVU1895
 5619              		.loc 1 1821 5 is_stmt 0 view .LVU1896
 5620 0052 17F8010F 		ldrb	r0, [r7, #1]!	@ zero_extendqisi2
 5621              	.LVL577:
 5622              		.loc 1 1822 6 view .LVU1897
 5623 0056 1F28     		cmp	r0, #31
 5624              		.loc 1 1821 11 view .LVU1898
 5625 0058 05F10102 		add	r2, r5, #1
 5626              	.LVL578:
 5627              		.loc 1 1822 3 is_stmt 1 view .LVU1899
 5628              		.loc 1 1822 6 is_stmt 0 view .LVU1900
 5629 005c 40F20081 		bls	.L632
 5630              		.loc 1 1821 11 view .LVU1901
 5631 0060 1546     		mov	r5, r2
 5632              	.LVL579:
 5633              	.L633:
 5634              		.loc 1 1822 15 view .LVU1902
 5635 0062 2F28     		cmp	r0, #47
 5636 0064 05F1FF34 		add	r4, r5, #-1
 5637              	.LVL580:
 5638              		.loc 1 1822 15 view .LVU1903
 5639 0068 2BD0     		beq	.L628
 5640              		.loc 1 1822 27 view .LVU1904
ARM GAS  /tmp/cceBSuz7.s 			page 100


 5641 006a 5C28     		cmp	r0, #92
 5642 006c 29D0     		beq	.L628
 5643              		.loc 1 1823 3 is_stmt 1 view .LVU1905
 5644              		.loc 1 1823 6 is_stmt 0 view .LVU1906
 5645 006e B5F5807F 		cmp	r5, #256
 5646 0072 0ED0     		beq	.L627
 5647              		.loc 1 1826 3 is_stmt 1 view .LVU1907
 5648              		.loc 1 1827 3 view .LVU1908
 5649              		.loc 1 1833 3 view .LVU1909
 5650              		.loc 1 1833 7 is_stmt 0 view .LVU1910
 5651 0074 0121     		movs	r1, #1
 5652 0076 FFF7FEFF 		bl	ff_convert
 5653              	.LVL581:
 5654              		.loc 1 1834 3 is_stmt 1 view .LVU1911
 5655              		.loc 1 1834 6 is_stmt 0 view .LVU1912
 5656 007a 50B1     		cbz	r0, .L627
 5657              		.loc 1 1836 3 is_stmt 1 view .LVU1913
 5658              		.loc 1 1836 6 is_stmt 0 view .LVU1914
 5659 007c 7F28     		cmp	r0, #127
 5660 007e E6D8     		bhi	.L630
 5661 0080 9B49     		ldr	r1, .L768+4
 5662              	.LBB408:
 5663              	.LBB409:
 5664              		.loc 1 599 9 view .LVU1915
 5665 0082 2222     		movs	r2, #34
 5666 0084 03E0     		b	.L629
 5667              	.LVL582:
 5668              	.L631:
 5669              		.loc 1 599 30 is_stmt 1 view .LVU1916
 5670              		.loc 1 599 8 view .LVU1917
 5671              		.loc 1 599 9 is_stmt 0 view .LVU1918
 5672 0086 11F8012F 		ldrb	r2, [r1, #1]!	@ zero_extendqisi2
 5673              	.LVL583:
 5674              		.loc 1 599 8 view .LVU1919
 5675 008a 002A     		cmp	r2, #0
 5676 008c DFD0     		beq	.L630
 5677              	.LVL584:
 5678              	.L629:
 5679              		.loc 1 599 14 view .LVU1920
 5680 008e 9042     		cmp	r0, r2
 5681 0090 F9D1     		bne	.L631
 5682              	.LVL585:
 5683              	.L627:
 5684              		.loc 1 599 14 view .LVU1921
 5685              	.LBE409:
 5686              	.LBE408:
 5687              		.loc 1 1857 18 view .LVU1922
 5688 0092 0620     		movs	r0, #6
 5689              	.LVL586:
 5690              	.L624:
 5691              		.loc 1 1857 18 view .LVU1923
 5692              	.LBE407:
 5693              	.LBE406:
 5694              		.loc 1 2066 2 is_stmt 1 view .LVU1924
 5695              		.loc 1 2067 1 is_stmt 0 view .LVU1925
 5696 0094 954B     		ldr	r3, .L768
 5697 0096 1A68     		ldr	r2, [r3]
ARM GAS  /tmp/cceBSuz7.s 			page 101


 5698 0098 039B     		ldr	r3, [sp, #12]
 5699 009a 5A40     		eors	r2, r3, r2
 5700 009c 40F02381 		bne	.L760
 5701 00a0 05B0     		add	sp, sp, #20
 5702              		.cfi_remember_state
 5703              		.cfi_def_cfa_offset 36
 5704              		@ sp needed
 5705 00a2 BDE8F08F 		pop	{r4, r5, r6, r7, r8, r9, r10, fp, pc}
 5706              	.LVL587:
 5707              	.L621:
 5708              		.cfi_restore_state
 5709              		.loc 1 2032 3 is_stmt 1 view .LVU1926
 5710              		.loc 1 2032 7 is_stmt 0 view .LVU1927
 5711 00a6 08F10108 		add	r8, r8, #1
 5712              	.LVL588:
 5713              		.loc 1 2033 2 is_stmt 1 view .LVU1928
 5714              		.loc 1 2033 13 is_stmt 0 view .LVU1929
 5715 00aa 0024     		movs	r4, #0
 5716 00ac B460     		str	r4, [r6, #8]
 5717              		.loc 1 2036 2 is_stmt 1 view .LVU1930
 5718              		.loc 1 2036 12 is_stmt 0 view .LVU1931
 5719 00ae 98F80030 		ldrb	r3, [r8]	@ zero_extendqisi2
 5720              		.loc 1 2036 5 view .LVU1932
 5721 00b2 1F2B     		cmp	r3, #31
 5722 00b4 BCD8     		bhi	.L625
 5723              	.L759:
 5724              		.loc 1 2037 3 is_stmt 1 view .LVU1933
 5725              		.loc 1 2037 9 is_stmt 0 view .LVU1934
 5726 00b6 2146     		mov	r1, r4
 5727 00b8 3046     		mov	r0, r6
 5728              	.LVL589:
 5729              		.loc 1 2037 9 view .LVU1935
 5730 00ba FFF7FEFF 		bl	dir_sdi
 5731              	.LVL590:
 5732              		.loc 1 2038 3 is_stmt 1 view .LVU1936
 5733              		.loc 1 2038 11 is_stmt 0 view .LVU1937
 5734 00be 7461     		str	r4, [r6, #20]
 5735 00c0 E8E7     		b	.L624
 5736              	.LVL591:
 5737              	.L628:
 5738              	.LBB419:
 5739              	.LBB416:
 5740              		.loc 1 1840 2 is_stmt 1 view .LVU1938
 5741              		.loc 1 1840 10 is_stmt 0 view .LVU1939
 5742 00c2 A844     		add	r8, r8, r5
 5743              	.LVL592:
 5744              		.loc 1 1841 2 is_stmt 1 view .LVU1940
 5745              		.loc 1 1852 2 view .LVU1941
 5746              		.loc 1 1852 8 view .LVU1942
 5747 00c4 002C     		cmp	r4, #0
 5748 00c6 E4D0     		beq	.L627
 5749              		.loc 1 1841 5 is_stmt 0 view .LVU1943
 5750 00c8 0027     		movs	r7, #0
 5751              	.LVL593:
 5752              	.L679:
 5753              		.loc 1 1841 5 view .LVU1944
 5754 00ca 09EB4402 		add	r2, r9, r4, lsl #1
ARM GAS  /tmp/cceBSuz7.s 			page 102


 5755              	.LVL594:
 5756              	.L636:
 5757              		.loc 1 1853 3 is_stmt 1 view .LVU1945
 5758              		.loc 1 1853 5 is_stmt 0 view .LVU1946
 5759 00ce 32F8023D 		ldrh	r3, [r2, #-2]!
 5760              	.LVL595:
 5761              		.loc 1 1854 3 is_stmt 1 view .LVU1947
 5762              		.loc 1 1854 6 is_stmt 0 view .LVU1948
 5763 00d2 202B     		cmp	r3, #32
 5764 00d4 01D0     		beq	.L634
 5765              		.loc 1 1854 16 view .LVU1949
 5766 00d6 2E2B     		cmp	r3, #46
 5767 00d8 02D1     		bne	.L635
 5768              	.L634:
 5769              		.loc 1 1855 3 is_stmt 1 view .LVU1950
 5770              	.LVL596:
 5771              		.loc 1 1852 8 view .LVU1951
 5772 00da 013C     		subs	r4, r4, #1
 5773              	.LVL597:
 5774              		.loc 1 1852 8 is_stmt 0 view .LVU1952
 5775 00dc F7D1     		bne	.L636
 5776 00de D8E7     		b	.L627
 5777              	.L635:
 5778              		.loc 1 1857 2 is_stmt 1 view .LVU1953
 5779              		.loc 1 1859 2 view .LVU1954
 5780              		.loc 1 1859 10 is_stmt 0 view .LVU1955
 5781 00e0 0023     		movs	r3, #0
 5782              	.LVL598:
 5783              		.loc 1 1859 10 view .LVU1956
 5784 00e2 29F81430 		strh	r3, [r9, r4, lsl #1]	@ movhi
 5785              	.LVL599:
 5786              		.loc 1 1862 2 is_stmt 1 view .LVU1957
 5787              		.loc 1 1862 12 is_stmt 0 view .LVU1958
 5788 00e6 B369     		ldr	r3, [r6, #24]
 5789              	.LVL600:
 5790              	.LBB410:
 5791              	.LBI410:
 5792              		.loc 1 579 6 is_stmt 1 view .LVU1959
 5793              	.LBB411:
 5794              		.loc 1 580 2 view .LVU1960
 5795              		.loc 1 582 2 view .LVU1961
 5796              		.loc 1 582 8 view .LVU1962
 5797              		.loc 1 583 8 is_stmt 0 view .LVU1963
 5798 00e8 2021     		movs	r1, #32
 5799 00ea 03F10B02 		add	r2, r3, #11
 5800              	.LVL601:
 5801              	.L637:
 5802              		.loc 1 583 3 is_stmt 1 view .LVU1964
 5803              		.loc 1 583 8 is_stmt 0 view .LVU1965
 5804 00ee 03F8011B 		strb	r1, [r3], #1
 5805              	.LVL602:
 5806              		.loc 1 582 8 is_stmt 1 view .LVU1966
 5807              		.loc 1 582 8 is_stmt 0 view .LVU1967
 5808 00f2 9342     		cmp	r3, r2
 5809 00f4 FBD1     		bne	.L637
 5810              	.LBE411:
 5811              	.LBE410:
ARM GAS  /tmp/cceBSuz7.s 			page 103


 5812              		.loc 1 1863 10 view .LVU1968
 5813 00f6 0025     		movs	r5, #0
 5814 00f8 00E0     		b	.L638
 5815              	.LVL603:
 5816              	.L639:
 5817              		.loc 1 1863 55 is_stmt 1 view .LVU1969
 5818              		.loc 1 1863 49 view .LVU1970
 5819              		.loc 1 1863 51 is_stmt 0 view .LVU1971
 5820 00fa 0135     		adds	r5, r5, #1
 5821              	.LVL604:
 5822              	.L638:
 5823              		.loc 1 1863 15 is_stmt 1 view .LVU1972
 5824              		.loc 1 1863 18 is_stmt 0 view .LVU1973
 5825 00fc 3AF8020F 		ldrh	r0, [r10, #2]!
 5826              		.loc 1 1863 2 view .LVU1974
 5827 0100 2028     		cmp	r0, #32
 5828 0102 FAD0     		beq	.L639
 5829              		.loc 1 1863 30 view .LVU1975
 5830 0104 2E28     		cmp	r0, #46
 5831 0106 F8D0     		beq	.L639
 5832              		.loc 1 1864 2 is_stmt 1 view .LVU1976
 5833              		.loc 1 1864 5 is_stmt 0 view .LVU1977
 5834 0108 0DB1     		cbz	r5, .L640
 5835              		.loc 1 1864 10 is_stmt 1 view .LVU1978
 5836              		.loc 1 1864 13 is_stmt 0 view .LVU1979
 5837 010a 47F00307 		orr	r7, r7, #3
 5838              	.LVL605:
 5839              	.L640:
 5840              		.loc 1 1864 13 view .LVU1980
 5841 010e 09EB4403 		add	r3, r9, r4, lsl #1
 5842              	.L641:
 5843              		.loc 1 1865 12 view .LVU1981
 5844 0112 33F8022D 		ldrh	r2, [r3, #-2]!
 5845 0116 2E2A     		cmp	r2, #46
 5846 0118 01D0     		beq	.L645
 5847              		.loc 1 1865 35 is_stmt 1 view .LVU1982
 5848              	.LVL606:
 5849              		.loc 1 1865 8 view .LVU1983
 5850 011a 013C     		subs	r4, r4, #1
 5851              	.LVL607:
 5852              		.loc 1 1865 8 is_stmt 0 view .LVU1984
 5853 011c F9D1     		bne	.L641
 5854              	.L645:
 5855              	.LVL608:
 5856              		.loc 1 1868 2 is_stmt 1 view .LVU1985
 5857              		.loc 1 1869 3 view .LVU1986
 5858              		.loc 1 1869 13 is_stmt 0 view .LVU1987
 5859 011e 0135     		adds	r5, r5, #1
 5860              	.LVL609:
 5861              		.loc 1 1870 3 is_stmt 1 view .LVU1988
 5862              		.loc 1 1870 6 is_stmt 0 view .LVU1989
 5863 0120 0028     		cmp	r0, #0
 5864 0122 00F0D380 		beq	.L642
 5865 0126 4FF0000A 		mov	r10, #0
 5866 012a 5246     		mov	r2, r10
 5867 012c 0823     		movs	r3, #8
 5868              	.LVL610:
ARM GAS  /tmp/cceBSuz7.s 			page 104


 5869              	.L643:
 5870              		.loc 1 1871 3 is_stmt 1 view .LVU1990
 5871              		.loc 1 1871 6 is_stmt 0 view .LVU1991
 5872 012e 2028     		cmp	r0, #32
 5873 0130 64D0     		beq	.L647
 5874              		.loc 1 1871 16 view .LVU1992
 5875 0132 2E28     		cmp	r0, #46
 5876 0134 65D0     		beq	.L761
 5877              		.loc 1 1875 3 is_stmt 1 view .LVU1993
 5878              		.loc 1 1875 6 is_stmt 0 view .LVU1994
 5879 0136 9A42     		cmp	r2, r3
 5880 0138 6FD2     		bcs	.L651
 5881              		.loc 1 1875 15 view .LVU1995
 5882 013a AC42     		cmp	r4, r5
 5883 013c 63D0     		beq	.L678
 5884              		.loc 1 1885 3 is_stmt 1 view .LVU1996
 5885              		.loc 1 1885 6 is_stmt 0 view .LVU1997
 5886 013e 7F28     		cmp	r0, #127
 5887 0140 00F29280 		bhi	.L762
 5888              	.LVL611:
 5889              	.L657:
 5890              	.LBB412:
 5891              	.LBB413:
 5892              		.loc 1 599 8 is_stmt 1 view .LVU1998
 5893              		.loc 1 599 9 is_stmt 0 view .LVU1999
 5894 0144 DFF8B0C1 		ldr	ip, .L768+12
 5895 0148 2B21     		movs	r1, #43
 5896 014a 04E0     		b	.L660
 5897              	.LVL612:
 5898              	.L662:
 5899              		.loc 1 599 30 is_stmt 1 view .LVU2000
 5900              		.loc 1 599 8 view .LVU2001
 5901              		.loc 1 599 9 is_stmt 0 view .LVU2002
 5902 014c 1CF8011F 		ldrb	r1, [ip, #1]!	@ zero_extendqisi2
 5903              	.LVL613:
 5904              		.loc 1 599 8 view .LVU2003
 5905 0150 0029     		cmp	r1, #0
 5906 0152 00F09E80 		beq	.L661
 5907              	.LVL614:
 5908              	.L660:
 5909              		.loc 1 599 14 view .LVU2004
 5910 0156 8142     		cmp	r1, r0
 5911 0158 F8D1     		bne	.L662
 5912              	.LVL615:
 5913              	.L659:
 5914              		.loc 1 599 14 view .LVU2005
 5915              	.LBE413:
 5916              	.LBE412:
 5917              		.loc 1 1902 5 is_stmt 1 view .LVU2006
 5918              		.loc 1 1902 14 view .LVU2007
 5919              		.loc 1 1902 17 is_stmt 0 view .LVU2008
 5920 015a 47F00307 		orr	r7, r7, #3
 5921              	.LVL616:
 5922              		.loc 1 1902 17 view .LVU2009
 5923 015e 5F20     		movs	r0, #95
 5924              	.LVL617:
 5925              	.L663:
ARM GAS  /tmp/cceBSuz7.s 			page 105


