ARM GAS  /tmp/ccX0tJHP.s 			page 1


   1              		.cpu cortex-m4
   2              		.eabi_attribute 27, 1
   3              		.eabi_attribute 28, 1
   4              		.eabi_attribute 20, 1
   5              		.eabi_attribute 21, 1
   6              		.eabi_attribute 23, 3
   7              		.eabi_attribute 24, 1
   8              		.eabi_attribute 25, 1
   9              		.eabi_attribute 26, 1
  10              		.eabi_attribute 30, 2
  11              		.eabi_attribute 34, 1
  12              		.eabi_attribute 18, 4
  13              		.file	"flash.c"
  14              		.text
  15              	.Ltext0:
  16              		.cfi_sections	.debug_frame
  17              		.section	.rodata.flash_addr_to_sector.cst4,"aM",%progbits,4
  18              		.align	2
  19              	.LC0:
  20 0000 00000000 		.word	__stack_chk_guard
  21              		.section	.text.flash_addr_to_sector,"ax",%progbits
  22              		.align	1
  23              		.p2align 4,,15
  24              		.global	flash_addr_to_sector
  25              		.arch armv7e-m
  26              		.syntax unified
  27              		.thumb
  28              		.thumb_func
  29              		.fpu fpv4-sp-d16
  30              		.type	flash_addr_to_sector, %function
  31              	flash_addr_to_sector:
  32              	.LVL0:
  33              	.LFB0:
  34              		.file 1 ".//src/flash/flash.c"
  35              		.loc 1 28 1 view -0
  36              		.cfi_startproc
  37              		@ args = 0, pretend = 0, frame = 8
  38              		@ frame_needed = 0, uses_anonymous_args = 0
  39              		.loc 1 28 1 is_stmt 0 view .LVU1
  40 0000 00B5     		push	{lr}
  41              		.cfi_def_cfa_offset 4
  42              		.cfi_offset 14, -4
  43 0002 134B     		ldr	r3, .L10
  44 0004 83B0     		sub	sp, sp, #12
  45              		.cfi_def_cfa_offset 16
  46              		.loc 1 32 8 view .LVU2
  47 0006 10F47F0F 		tst	r0, #16711680
  48              		.loc 1 28 1 view .LVU3
  49 000a 1B68     		ldr	r3, [r3]
  50 000c 0193     		str	r3, [sp, #4]
  51 000e 4FF00003 		mov	r3,#0
  52              		.loc 1 29 5 is_stmt 1 view .LVU4
  53              	.LVL1:
  54              		.loc 1 30 5 view .LVU5
  55              		.loc 1 31 5 view .LVU6
  56              		.loc 1 28 1 is_stmt 0 view .LVU7
  57 0012 0246     		mov	r2, r0
ARM GAS  /tmp/ccX0tJHP.s 			page 2


  58              		.loc 1 31 14 view .LVU8
  59 0014 20F07F43 		bic	r3, r0, #-16777216
  60              	.LVL2:
  61              		.loc 1 32 5 is_stmt 1 view .LVU9
  62              		.loc 1 32 8 is_stmt 0 view .LVU10
  63 0018 0ED1     		bne	.L2
  64              		.loc 1 33 9 is_stmt 1 view .LVU11
  65              		.loc 1 33 16 is_stmt 0 view .LVU12
  66 001a C3F38730 		ubfx	r0, r3, #14, #8
  67              	.LVL3:
  68              	.L3:
  69              		.loc 1 39 5 is_stmt 1 view .LVU13
  70              		.loc 1 39 8 is_stmt 0 view .LVU14
  71 001e B2F1016F 		cmp	r2, #135266304
  72              		.loc 1 41 9 is_stmt 1 view .LVU15
  73              		.loc 1 44 1 is_stmt 0 view .LVU16
  74 0022 0B4B     		ldr	r3, .L10
  75              		.loc 1 41 16 view .LVU17
  76 0024 24BF     		itt	cs
  77 0026 0C30     		addcs	r0, r0, #12
  78              	.LVL4:
  79              		.loc 1 41 16 view .LVU18
  80 0028 C0B2     		uxtbcs	r0, r0
  81              	.LVL5:
  82              		.loc 1 43 5 is_stmt 1 view .LVU19
  83              		.loc 1 44 1 is_stmt 0 view .LVU20
  84 002a 1A68     		ldr	r2, [r3]
  85 002c 019B     		ldr	r3, [sp, #4]
  86 002e 5A40     		eors	r2, r3, r2
  87              	.LVL6:
  88              		.loc 1 44 1 view .LVU21
  89 0030 0CD1     		bne	.L9
  90 0032 03B0     		add	sp, sp, #12
  91              		.cfi_remember_state
  92              		.cfi_def_cfa_offset 4
  93              		@ sp needed
  94 0034 5DF804FB 		ldr	pc, [sp], #4
  95              	.LVL7:
  96              	.L2:
  97              		.cfi_restore_state
  98              		.loc 1 34 12 is_stmt 1 view .LVU22
  99              		.loc 1 34 15 is_stmt 0 view .LVU23
 100 0038 10F47E0F 		tst	r0, #16646144
 101 003c 03D1     		bne	.L4
 102              		.loc 1 35 9 is_stmt 1 view .LVU24
 103              		.loc 1 35 29 is_stmt 0 view .LVU25
 104 003e 1B0C     		lsrs	r3, r3, #16
 105              	.LVL8:
 106              		.loc 1 35 16 view .LVU26
 107 0040 0333     		adds	r3, r3, #3
 108 0042 D8B2     		uxtb	r0, r3
 109              	.LVL9:
 110              		.loc 1 35 16 view .LVU27
 111 0044 EBE7     		b	.L3
 112              	.LVL10:
 113              	.L4:
 114              		.loc 1 37 9 is_stmt 1 view .LVU28
ARM GAS  /tmp/ccX0tJHP.s 			page 3


 115              		.loc 1 37 29 is_stmt 0 view .LVU29
 116 0046 5B0C     		lsrs	r3, r3, #17
 117              	.LVL11:
 118              		.loc 1 37 16 view .LVU30
 119 0048 181D     		adds	r0, r3, #4
 120              	.LVL12:
 121              		.loc 1 37 16 view .LVU31
 122 004a E8E7     		b	.L3
 123              	.LVL13:
 124              	.L9:
 125              		.loc 1 44 1 view .LVU32
 126 004c FFF7FEFF 		bl	__stack_chk_fail
 127              	.LVL14:
 128              	.L11:
 129              		.loc 1 44 1 view .LVU33
 130              		.align	2
 131              	.L10:
 132 0050 00000000 		.word	.LC0
 133              		.cfi_endproc
 134              	.LFE0:
 135              		.size	flash_addr_to_sector, .-flash_addr_to_sector
 136              		.section	.rodata.flash_lock.cst4,"aM",%progbits,4
 137              		.align	2
 138              	.LC1:
 139 0000 00000000 		.word	__stack_chk_guard
 140              		.section	.text.flash_lock,"ax",%progbits
 141              		.align	1
 142              		.p2align 4,,15
 143              		.global	flash_lock
 144              		.syntax unified
 145              		.thumb
 146              		.thumb_func
 147              		.fpu fpv4-sp-d16
 148              		.type	flash_lock, %function
 149              	flash_lock:
 150              	.LFB1:
 151              		.loc 1 47 1 is_stmt 1 view -0
 152              		.cfi_startproc
 153              		@ args = 0, pretend = 0, frame = 8
 154              		@ frame_needed = 0, uses_anonymous_args = 0
 155 0000 00B5     		push	{lr}
 156              		.cfi_def_cfa_offset 4
 157              		.cfi_offset 14, -4
 158 0002 0A4B     		ldr	r3, .L16
 159              		.loc 1 48 14 is_stmt 0 view .LVU35
 160 0004 0A4A     		ldr	r2, .L16+4
 161              		.loc 1 47 1 view .LVU36
 162 0006 83B0     		sub	sp, sp, #12
 163              		.cfi_def_cfa_offset 16
 164              		.loc 1 47 1 view .LVU37
 165 0008 1B68     		ldr	r3, [r3]
 166 000a 0193     		str	r3, [sp, #4]
 167 000c 4FF00003 		mov	r3,#0
 168              		.loc 1 48 5 is_stmt 1 view .LVU38
 169              		.loc 1 48 14 is_stmt 0 view .LVU39
 170 0010 1368     		ldr	r3, [r2]
 171 0012 43F00043 		orr	r3, r3, #-2147483648
ARM GAS  /tmp/ccX0tJHP.s 			page 4


 172 0016 1360     		str	r3, [r2]
 173              		.loc 1 49 1 view .LVU40
 174 0018 044B     		ldr	r3, .L16
 175 001a 1A68     		ldr	r2, [r3]
 176 001c 019B     		ldr	r3, [sp, #4]
 177 001e 5A40     		eors	r2, r3, r2
 178 0020 02D1     		bne	.L15
 179 0022 03B0     		add	sp, sp, #12
 180              		.cfi_remember_state
 181              		.cfi_def_cfa_offset 4
 182              		@ sp needed
 183 0024 5DF804FB 		ldr	pc, [sp], #4
 184              	.L15:
 185              		.cfi_restore_state
 186 0028 FFF7FEFF 		bl	__stack_chk_fail
 187              	.LVL15:
 188              	.L17:
 189              		.align	2
 190              	.L16:
 191 002c 00000000 		.word	.LC1
 192 0030 103C0240 		.word	1073888272
 193              		.cfi_endproc
 194              	.LFE1:
 195              		.size	flash_lock, .-flash_lock
 196              		.section	.rodata.flash_unlock.cst4,"aM",%progbits,4
 197              		.align	2
 198              	.LC2:
 199 0000 00000000 		.word	__stack_chk_guard
 200              		.section	.text.flash_unlock,"ax",%progbits
 201              		.align	1
 202              		.p2align 4,,15
 203              		.global	flash_unlock
 204              		.syntax unified
 205              		.thumb
 206              		.thumb_func
 207              		.fpu fpv4-sp-d16
 208              		.type	flash_unlock, %function
 209              	flash_unlock:
 210              	.LFB2:
 211              		.loc 1 52 1 is_stmt 1 view -0
 212              		.cfi_startproc
 213              		@ args = 0, pretend = 0, frame = 8
 214              		@ frame_needed = 0, uses_anonymous_args = 0
 215 0000 10B5     		push	{r4, lr}
 216              		.cfi_def_cfa_offset 8
 217              		.cfi_offset 4, -8
 218              		.cfi_offset 14, -4
 219 0002 0C4B     		ldr	r3, .L22
 220              		.loc 1 54 14 is_stmt 0 view .LVU42
 221 0004 0C49     		ldr	r1, .L22+4
 222              		.loc 1 57 16 view .LVU43
 223 0006 0D4A     		ldr	r2, .L22+8
 224 0008 0D4C     		ldr	r4, .L22+12
 225              		.loc 1 58 16 view .LVU44
 226 000a 0E48     		ldr	r0, .L22+16
 227              		.loc 1 52 1 view .LVU45
 228 000c 82B0     		sub	sp, sp, #8
ARM GAS  /tmp/ccX0tJHP.s 			page 5


 229              		.cfi_def_cfa_offset 16
 230              		.loc 1 52 1 view .LVU46
 231 000e 1B68     		ldr	r3, [r3]
 232 0010 0193     		str	r3, [sp, #4]
 233 0012 4FF00003 		mov	r3,#0
 234              		.loc 1 54 5 is_stmt 1 view .LVU47
 235              		.loc 1 54 14 is_stmt 0 view .LVU48
 236 0016 0B68     		ldr	r3, [r1]
 237 0018 43F00043 		orr	r3, r3, #-2147483648
 238 001c 0B60     		str	r3, [r1]
 239              		.loc 1 57 5 is_stmt 1 view .LVU49
 240              		.loc 1 59 1 is_stmt 0 view .LVU50
 241 001e 054B     		ldr	r3, .L22
 242              		.loc 1 57 16 view .LVU51
 243 0020 1460     		str	r4, [r2]
 244              		.loc 1 58 5 is_stmt 1 view .LVU52
 245              		.loc 1 58 16 is_stmt 0 view .LVU53
 246 0022 1060     		str	r0, [r2]
 247              		.loc 1 59 1 view .LVU54
 248 0024 1A68     		ldr	r2, [r3]
 249 0026 019B     		ldr	r3, [sp, #4]
 250 0028 5A40     		eors	r2, r3, r2
 251 002a 01D1     		bne	.L21
 252 002c 02B0     		add	sp, sp, #8
 253              		.cfi_remember_state
 254              		.cfi_def_cfa_offset 8
 255              		@ sp needed
 256 002e 10BD     		pop	{r4, pc}
 257              	.L21:
 258              		.cfi_restore_state
 259 0030 FFF7FEFF 		bl	__stack_chk_fail
 260              	.LVL16:
 261              	.L23:
 262              		.align	2
 263              	.L22:
 264 0034 00000000 		.word	.LC2
 265 0038 103C0240 		.word	1073888272
 266 003c 043C0240 		.word	1073888260
 267 0040 23016745 		.word	1164378403
 268 0044 AB89EFCD 		.word	-839939669
 269              		.cfi_endproc
 270              	.LFE2:
 271              		.size	flash_unlock, .-flash_unlock
 272              		.section	.rodata.flash_write.cst4,"aM",%progbits,4
 273              		.align	2
 274              	.LC3:
 275 0000 00000000 		.word	__stack_chk_guard
 276              		.section	.text.flash_write,"ax",%progbits
 277              		.align	1
 278              		.p2align 4,,15
 279              		.global	flash_write
 280              		.syntax unified
 281              		.thumb
 282              		.thumb_func
 283              		.fpu fpv4-sp-d16
 284              		.type	flash_write, %function
 285              	flash_write:
ARM GAS  /tmp/ccX0tJHP.s 			page 6


 286              	.LVL17:
 287              	.LFB6:
 288              		.loc 1 85 1 is_stmt 1 view -0
 289              		.cfi_startproc
 290              		@ args = 0, pretend = 0, frame = 8
 291              		@ frame_needed = 0, uses_anonymous_args = 0
 292              		.loc 1 85 1 is_stmt 0 view .LVU56
 293 0000 70B5     		push	{r4, r5, r6, lr}
 294              		.cfi_def_cfa_offset 16
 295              		.cfi_offset 4, -16
 296              		.cfi_offset 5, -12
 297              		.cfi_offset 6, -8
 298              		.cfi_offset 14, -4
 299 0002 174B     		ldr	r3, .L38
 300              	.LBB20:
 301              	.LBB21:
 302              		.loc 1 69 13 view .LVU57
 303 0004 174C     		ldr	r4, .L38+4
 304              	.LBE21:
 305              	.LBE20:
 306              		.loc 1 85 1 view .LVU58
 307 0006 82B0     		sub	sp, sp, #8
 308              		.cfi_def_cfa_offset 24
 309              		.loc 1 85 1 view .LVU59
 310 0008 1B68     		ldr	r3, [r3]
 311 000a 0193     		str	r3, [sp, #4]
 312 000c 4FF00003 		mov	r3,#0
 313              		.loc 1 86 5 is_stmt 1 view .LVU60
 314              	.LBB23:
 315              	.LBI20:
 316              		.loc 1 67 13 view .LVU61
 317              	.LBB22:
 318              		.loc 1 69 5 view .LVU62
 319              	.L25:
 320              		.loc 1 70 9 view .LVU63
 321              		.loc 1 69 11 view .LVU64
 322              		.loc 1 69 13 is_stmt 0 view .LVU65
 323 0010 2368     		ldr	r3, [r4]
 324              		.loc 1 69 11 view .LVU66
 325 0012 DD03     		lsls	r5, r3, #15
 326 0014 FCD4     		bmi	.L25
 327              	.LBE22:
 328              	.LBE23:
 329              		.loc 1 92 5 is_stmt 1 view .LVU67
 330              	.LBB24:
 331              	.LBI24:
 332              		.loc 1 61 13 view .LVU68
 333              	.LBB25:
 334              		.loc 1 64 5 view .LVU69
 335              		.loc 1 64 14 is_stmt 0 view .LVU70
 336 0016 144B     		ldr	r3, .L38+8
 337 0018 1C68     		ldr	r4, [r3]
 338 001a 24F44074 		bic	r4, r4, #768
 339 001e 1C60     		str	r4, [r3]
 340              	.LBE25:
 341              	.LBE24:
 342              		.loc 1 94 5 is_stmt 1 view .LVU71
ARM GAS  /tmp/ccX0tJHP.s 			page 7


 343              	.LVL18:
 344              		.loc 1 95 5 view .LVU72
 345              		.loc 1 97 5 view .LVU73
 346              		.loc 1 97 11 view .LVU74
 347              		.loc 1 97 11 is_stmt 0 view .LVU75
 348 0020 82B1     		cbz	r2, .L26
 349              	.LBB26:
 350              	.LBB27:
 351              	.LBB28:
 352              	.LBB29:
 353              		.loc 1 69 13 view .LVU76
 354 0022 104C     		ldr	r4, .L38+4
 355 0024 8E18     		adds	r6, r1, r2
 356 0026 0138     		subs	r0, r0, #1
 357              	.LVL19:
 358              		.loc 1 69 13 view .LVU77
 359              	.LBE29:
 360              	.LBE28:
 361              		.loc 1 77 14 view .LVU78
 362 0028 1A46     		mov	r2, r3
 363              	.LVL20:
 364              	.L28:
 365              		.loc 1 77 14 view .LVU79
 366              	.LBE27:
 367              	.LBE26:
 368              		.loc 1 98 9 is_stmt 1 view .LVU80
 369              	.LBB34:
 370              	.LBB32:
 371              		.loc 1 77 14 is_stmt 0 view .LVU81
 372 002a 1368     		ldr	r3, [r2]
 373              	.LBE32:
 374              	.LBE34:
 375              		.loc 1 98 9 view .LVU82
 376 002c 11F8015B 		ldrb	r5, [r1], #1	@ zero_extendqisi2
 377              	.LVL21:
 378              	.LBB35:
 379              	.LBI26:
 380              		.loc 1 74 13 is_stmt 1 view .LVU83
 381              	.LBB33:
 382              		.loc 1 77 5 view .LVU84
 383              		.loc 1 77 14 is_stmt 0 view .LVU85
 384 0030 43F00103 		orr	r3, r3, #1
 385 0034 1360     		str	r3, [r2]
 386              		.loc 1 79 5 is_stmt 1 view .LVU86
 387              		.loc 1 79 12 is_stmt 0 view .LVU87
 388 0036 00F8015F 		strb	r5, [r0, #1]!
 389              		.loc 1 81 5 is_stmt 1 view .LVU88
 390              	.LBB31:
 391              	.LBI28:
 392              		.loc 1 67 13 view .LVU89
 393              	.LBB30:
 394              		.loc 1 69 5 view .LVU90
 395              	.L27:
 396              		.loc 1 70 9 view .LVU91
 397              		.loc 1 69 11 view .LVU92
 398              		.loc 1 69 13 is_stmt 0 view .LVU93
 399 003a 2368     		ldr	r3, [r4]
ARM GAS  /tmp/ccX0tJHP.s 			page 8


 400              		.loc 1 69 11 view .LVU94
 401 003c DB03     		lsls	r3, r3, #15
 402 003e FCD4     		bmi	.L27
 403              	.LVL22:
 404              		.loc 1 69 11 view .LVU95
 405              	.LBE30:
 406              	.LBE31:
 407              	.LBE33:
 408              	.LBE35:
 409              		.loc 1 97 11 is_stmt 1 view .LVU96
 410              		.loc 1 97 11 is_stmt 0 view .LVU97
 411 0040 B142     		cmp	r1, r6
 412 0042 F2D1     		bne	.L28
 413              	.LVL23:
 414              	.L26:
 415              		.loc 1 102 5 is_stmt 1 view .LVU98
 416              		.loc 1 102 14 is_stmt 0 view .LVU99
 417 0044 084A     		ldr	r2, .L38+8
 418 0046 1368     		ldr	r3, [r2]
 419 0048 23F00103 		bic	r3, r3, #1
 420 004c 1360     		str	r3, [r2]
 421              		.loc 1 103 1 view .LVU100
 422 004e 044B     		ldr	r3, .L38
 423 0050 1A68     		ldr	r2, [r3]
 424 0052 019B     		ldr	r3, [sp, #4]
 425 0054 5A40     		eors	r2, r3, r2
 426 0056 01D1     		bne	.L37
 427 0058 02B0     		add	sp, sp, #8
 428              		.cfi_remember_state
 429              		.cfi_def_cfa_offset 16
 430              		@ sp needed
 431 005a 70BD     		pop	{r4, r5, r6, pc}
 432              	.L37:
 433              		.cfi_restore_state
 434 005c FFF7FEFF 		bl	__stack_chk_fail
 435              	.LVL24:
 436              	.L39:
 437              		.loc 1 103 1 view .LVU101
 438              		.align	2
 439              	.L38:
 440 0060 00000000 		.word	.LC3
 441 0064 0C3C0240 		.word	1073888268
 442 0068 103C0240 		.word	1073888272
 443              		.cfi_endproc
 444              	.LFE6:
 445              		.size	flash_write, .-flash_write
 446              		.section	.rodata.flash_sector_erase_number.cst4,"aM",%progbits,4
 447              		.align	2
 448              	.LC4:
 449 0000 00000000 		.word	__stack_chk_guard
 450              		.section	.text.flash_sector_erase_number,"ax",%progbits
 451              		.align	1
 452              		.p2align 4,,15
 453              		.global	flash_sector_erase_number
 454              		.syntax unified
 455              		.thumb
 456              		.thumb_func
ARM GAS  /tmp/ccX0tJHP.s 			page 9


 457              		.fpu fpv4-sp-d16
 458              		.type	flash_sector_erase_number, %function
 459              	flash_sector_erase_number:
 460              	.LVL25:
 461              	.LFB8:
 462              		.loc 1 113 1 is_stmt 1 view -0
 463              		.cfi_startproc
 464              		@ args = 0, pretend = 0, frame = 8
 465              		@ frame_needed = 0, uses_anonymous_args = 0
 466              		.loc 1 113 1 is_stmt 0 view .LVU103
 467 0000 00B5     		push	{lr}
 468              		.cfi_def_cfa_offset 4
 469              		.cfi_offset 14, -4
 470 0002 174B     		ldr	r3, .L48
 471              	.LBB36:
 472              	.LBB37:
 473              		.loc 1 64 14 view .LVU104
 474 0004 1749     		ldr	r1, .L48+4
 475              	.LBE37:
 476              	.LBE36:
 477              	.LBB39:
 478              	.LBB40:
 479              		.loc 1 69 13 view .LVU105
 480 0006 184A     		ldr	r2, .L48+8
 481              	.LBE40:
 482              	.LBE39:
 483              		.loc 1 113 1 view .LVU106
 484 0008 83B0     		sub	sp, sp, #12
 485              		.cfi_def_cfa_offset 16
 486              		.loc 1 113 1 view .LVU107
 487 000a 1B68     		ldr	r3, [r3]
 488 000c 0193     		str	r3, [sp, #4]
 489 000e 4FF00003 		mov	r3,#0
 490              		.loc 1 114 5 is_stmt 1 view .LVU108
 491              	.LBB42:
 492              	.LBI36:
 493              		.loc 1 61 13 view .LVU109
 494              	.LBB38:
 495              		.loc 1 64 5 view .LVU110
 496              		.loc 1 64 14 is_stmt 0 view .LVU111
 497 0012 0B68     		ldr	r3, [r1]
 498 0014 23F44073 		bic	r3, r3, #768
 499 0018 0B60     		str	r3, [r1]
 500              	.L41:
 501              	.LBE38:
 502              	.LBE42:
 503              	.LBB43:
 504              	.LBB41:
 505              		.loc 1 70 9 is_stmt 1 view .LVU112
 506              		.loc 1 69 11 view .LVU113
 507              		.loc 1 69 13 is_stmt 0 view .LVU114
 508 001a 1368     		ldr	r3, [r2]
 509              		.loc 1 69 11 view .LVU115
 510 001c D903     		lsls	r1, r3, #15
 511 001e FCD4     		bmi	.L41
 512              	.LBE41:
 513              	.LBE43:
ARM GAS  /tmp/ccX0tJHP.s 			page 10


 514              		.loc 1 118 5 is_stmt 1 view .LVU116
 515              		.loc 1 118 14 is_stmt 0 view .LVU117
 516 0020 1049     		ldr	r1, .L48+4
 517              	.LBB44:
 518              	.LBB45:
 519              		.loc 1 69 13 view .LVU118
 520 0022 114A     		ldr	r2, .L48+8
 521              	.LBE45:
 522              	.LBE44:
 523              		.loc 1 118 14 view .LVU119
 524 0024 0B68     		ldr	r3, [r1]
 525 0026 23F0F803 		bic	r3, r3, #248
 526 002a 0B60     		str	r3, [r1]
 527              		.loc 1 119 5 is_stmt 1 view .LVU120
 528              		.loc 1 119 25 is_stmt 0 view .LVU121
 529 002c C300     		lsls	r3, r0, #3
 530              		.loc 1 119 14 view .LVU122
 531 002e 0868     		ldr	r0, [r1]
 532              	.LVL26:
 533              		.loc 1 119 46 view .LVU123
 534 0030 DBB2     		uxtb	r3, r3
 535              		.loc 1 119 14 view .LVU124
 536 0032 0343     		orrs	r3, r3, r0
 537 0034 0B60     		str	r3, [r1]
 538              		.loc 1 120 5 is_stmt 1 view .LVU125
 539              		.loc 1 120 14 is_stmt 0 view .LVU126
 540 0036 0B68     		ldr	r3, [r1]
 541 0038 43F00203 		orr	r3, r3, #2
 542 003c 0B60     		str	r3, [r1]
 543              		.loc 1 121 5 is_stmt 1 view .LVU127
 544              		.loc 1 121 14 is_stmt 0 view .LVU128
 545 003e 0B68     		ldr	r3, [r1]
 546 0040 43F48033 		orr	r3, r3, #65536
 547 0044 0B60     		str	r3, [r1]
 548              		.loc 1 123 5 is_stmt 1 view .LVU129
 549              	.LBB47:
 550              	.LBI44:
 551              		.loc 1 67 13 view .LVU130
 552              	.L42:
 553              	.LBB46:
 554              		.loc 1 70 9 view .LVU131
 555              		.loc 1 69 11 view .LVU132
 556              		.loc 1 69 13 is_stmt 0 view .LVU133
 557 0046 1368     		ldr	r3, [r2]
 558              		.loc 1 69 11 view .LVU134
 559 0048 DB03     		lsls	r3, r3, #15
 560 004a FCD4     		bmi	.L42
 561              	.LBE46:
 562              	.LBE47:
 563              		.loc 1 124 1 view .LVU135
 564 004c 044B     		ldr	r3, .L48
 565 004e 1A68     		ldr	r2, [r3]
 566 0050 019B     		ldr	r3, [sp, #4]
 567 0052 5A40     		eors	r2, r3, r2
 568 0054 02D1     		bne	.L47
 569 0056 03B0     		add	sp, sp, #12
 570              		.cfi_remember_state
ARM GAS  /tmp/ccX0tJHP.s 			page 11


 571              		.cfi_def_cfa_offset 4
 572              		@ sp needed
 573 0058 5DF804FB 		ldr	pc, [sp], #4
 574              	.L47:
 575              		.cfi_restore_state
 576 005c FFF7FEFF 		bl	__stack_chk_fail
 577              	.LVL27:
 578              	.L49:
 579              		.align	2
 580              	.L48:
 581 0060 00000000 		.word	.LC4
 582 0064 103C0240 		.word	1073888272
 583 0068 0C3C0240 		.word	1073888268
 584              		.cfi_endproc
 585              	.LFE8:
 586              		.size	flash_sector_erase_number, .-flash_sector_erase_number
 587              		.section	.rodata.flash_sector_erase.cst4,"aM",%progbits,4
 588              		.align	2
 589              	.LC5:
 590 0000 00000000 		.word	__stack_chk_guard
 591              		.section	.text.flash_sector_erase,"ax",%progbits
 592              		.align	1
 593              		.p2align 4,,15
 594              		.global	flash_sector_erase
 595              		.syntax unified
 596              		.thumb
 597              		.thumb_func
 598              		.fpu fpv4-sp-d16
 599              		.type	flash_sector_erase, %function
 600              	flash_sector_erase:
 601              	.LVL28:
 602              	.LFB7:
 603              		.loc 1 106 1 is_stmt 1 view -0
 604              		.cfi_startproc
 605              		@ args = 0, pretend = 0, frame = 8
 606              		@ frame_needed = 0, uses_anonymous_args = 0
 607              		.loc 1 106 1 is_stmt 0 view .LVU137
 608 0000 00B5     		push	{lr}
 609              		.cfi_def_cfa_offset 4
 610              		.cfi_offset 14, -4
 611 0002 144B     		ldr	r3, .L59
 612 0004 83B0     		sub	sp, sp, #12
 613              		.cfi_def_cfa_offset 16
 614              	.LBB48:
 615              	.LBB49:
 616              		.loc 1 32 8 view .LVU138
 617 0006 10F47F0F 		tst	r0, #16711680
 618              	.LBE49:
 619              	.LBE48:
 620              		.loc 1 106 1 view .LVU139
 621 000a 1B68     		ldr	r3, [r3]
 622 000c 0193     		str	r3, [sp, #4]
 623 000e 4FF00003 		mov	r3,#0
 624              		.loc 1 107 5 is_stmt 1 view .LVU140
 625              	.LVL29:
 626              	.LBB54:
 627              	.LBI48:
ARM GAS  /tmp/ccX0tJHP.s 			page 12


 628              		.loc 1 27 9 view .LVU141
 629              	.LBB50:
 630              		.loc 1 29 5 view .LVU142
 631              		.loc 1 30 5 view .LVU143
 632              		.loc 1 31 5 view .LVU144
 633              	.LBE50:
 634              	.LBE54:
 635              		.loc 1 106 1 is_stmt 0 view .LVU145
 636 0012 0246     		mov	r2, r0
 637              	.LBB55:
 638              	.LBB51:
 639              		.loc 1 31 14 view .LVU146
 640 0014 20F07F43 		bic	r3, r0, #-16777216
 641              	.LVL30:
 642              		.loc 1 32 5 is_stmt 1 view .LVU147
 643              		.loc 1 32 8 is_stmt 0 view .LVU148
 644 0018 10D1     		bne	.L51
 645              		.loc 1 33 9 is_stmt 1 view .LVU149
 646              		.loc 1 33 16 is_stmt 0 view .LVU150
 647 001a C3F38730 		ubfx	r0, r3, #14, #8
 648              	.LVL31:
 649              	.L52:
 650              		.loc 1 39 5 is_stmt 1 view .LVU151
 651              		.loc 1 39 8 is_stmt 0 view .LVU152
 652 001e B2F1016F 		cmp	r2, #135266304
 653              		.loc 1 41 9 is_stmt 1 view .LVU153
 654              	.LBE51:
 655              	.LBE55:
 656              		.loc 1 109 5 is_stmt 0 view .LVU154
 657 0022 0C4B     		ldr	r3, .L59
 658              	.LBB56:
 659              	.LBB52:
 660              		.loc 1 41 16 view .LVU155
 661 0024 24BF     		itt	cs
 662 0026 0C30     		addcs	r0, r0, #12
 663              	.LVL32:
 664              		.loc 1 41 16 view .LVU156
 665 0028 C0B2     		uxtbcs	r0, r0
 666              	.LVL33:
 667              		.loc 1 43 5 is_stmt 1 view .LVU157
 668              		.loc 1 43 5 is_stmt 0 view .LVU158
 669              	.LBE52:
 670              	.LBE56:
 671              		.loc 1 109 5 is_stmt 1 view .LVU159
 672 002a 1A68     		ldr	r2, [r3]
 673 002c 019B     		ldr	r3, [sp, #4]
 674 002e 5A40     		eors	r2, r3, r2
 675              	.LVL34:
 676              		.loc 1 109 5 is_stmt 0 view .LVU160
 677 0030 0ED1     		bne	.L58
 678              		.loc 1 110 1 view .LVU161
 679 0032 03B0     		add	sp, sp, #12
 680              		.cfi_remember_state
 681              		.cfi_def_cfa_offset 4
 682              		@ sp needed
 683 0034 5DF804EB 		ldr	lr, [sp], #4
 684              		.cfi_restore 14
ARM GAS  /tmp/ccX0tJHP.s 			page 13


 685              		.cfi_def_cfa_offset 0
 686              		.loc 1 109 5 view .LVU162
 687 0038 FFF7FEBF 		b	flash_sector_erase_number
 688              	.LVL35:
 689              	.L51:
 690              		.cfi_restore_state
 691              	.LBB57:
 692              	.LBB53:
 693              		.loc 1 34 12 is_stmt 1 view .LVU163
 694              		.loc 1 34 15 is_stmt 0 view .LVU164
 695 003c 10F47E0F 		tst	r0, #16646144
 696 0040 03D1     		bne	.L53
 697              		.loc 1 35 9 is_stmt 1 view .LVU165
 698              		.loc 1 35 29 is_stmt 0 view .LVU166
 699 0042 1B0C     		lsrs	r3, r3, #16
 700              	.LVL36:
 701              		.loc 1 35 16 view .LVU167
 702 0044 0333     		adds	r3, r3, #3
 703 0046 D8B2     		uxtb	r0, r3
 704              	.LVL37:
 705              		.loc 1 35 16 view .LVU168
 706 0048 E9E7     		b	.L52
 707              	.LVL38:
 708              	.L53:
 709              		.loc 1 37 9 is_stmt 1 view .LVU169
 710              		.loc 1 37 29 is_stmt 0 view .LVU170
 711 004a 5B0C     		lsrs	r3, r3, #17
 712              	.LVL39:
 713              		.loc 1 37 16 view .LVU171
 714 004c 181D     		adds	r0, r3, #4
 715              	.LVL40:
 716              		.loc 1 37 16 view .LVU172
 717 004e E6E7     		b	.L52
 718              	.LVL41:
 719              	.L58:
 720              		.loc 1 37 16 view .LVU173
 721              	.LBE53:
 722              	.LBE57:
 723              		.loc 1 109 5 view .LVU174
 724 0050 FFF7FEFF 		bl	__stack_chk_fail
 725              	.LVL42:
 726              	.L60:
 727              		.loc 1 109 5 view .LVU175
 728              		.align	2
 729              	.L59:
 730 0054 00000000 		.word	.LC5
 731              		.cfi_endproc
 732              	.LFE7:
 733              		.size	flash_sector_erase, .-flash_sector_erase
 734              		.text
 735              	.Letext0:
 736              		.file 2 "/usr/lib/gcc/arm-none-eabi/9.2.1/include/stdint.h"
 737              		.file 3 "/usr/lib/gcc/arm-none-eabi/9.2.1/include/stddef.h"