ARM GAS  /tmp/ccX0tJHP.s 			page 1


   1              		.cpu cortex-m4
   2              		.eabi_attribute 27, 1
   3              		.eabi_attribute 28, 1
   4              		.eabi_attribute 20, 1
   5              		.eabi_attribute 21, 1
   6              		.eabi_attribute 23, 3
   7              		.eabi_attribute 24, 1
   8              		.eabi_attribute 25, 1
   9              		.eabi_attribute 26, 1
  10              		.eabi_attribute 30, 2
  11              		.eabi_attribute 34, 1
  12              		.eabi_attribute 18, 4
  13              		.file	"flash.c"
  14              		.text
  15              	.Ltext0:
  16              		.cfi_sections	.debug_frame
  17              		.section	.rodata.flash_addr_to_sector.cst4,"aM",%progbits,4
  18              		.align	2
  19              	.LC0:
  20 0000 00000000 		.word	__stack_chk_guard
  21              		.section	.text.flash_addr_to_sector,"ax",%progbits
  22              		.align	1
  23              		.p2align 4,,15
  24              		.global	flash_addr_to_sector
  25              		.arch armv7e-m
  26              		.syntax unified
  27              		.thumb
  28              		.thumb_func
  29              		.fpu fpv4-sp-d16
  30              		.type	flash_addr_to_sector, %function
  31              	flash_addr_to_sector:
  32              	.LVL0:
  33              	.LFB0:
  34              		.file 1 ".//src/flash/flash.c"
  35              		.loc 1 28 1 view -0
  36              		.cfi_startproc
  37              		@ args = 0, pretend = 0, frame = 8
  38              		@ frame_needed = 0, uses_anonymous_args = 0
  39              		.loc 1 28 1 is_stmt 0 view .LVU1
  40 0000 00B5     		push	{lr}
  41              		.cfi_def_cfa_offset 4
  42              		.cfi_offset 14, -4
  43 0002 134B     		ldr	r3, .L10
  44 0004 83B0     		sub	sp, sp, #12
  45              		.cfi_def_cfa_offset 16
  46              		.loc 1 32 8 view .LVU2
  47 0006 10F47F0F 		tst	r0, #16711680
  48              		.loc 1 28 1 view .LVU3
  49 000a 1B68     		ldr	r3, [r3]
  50 000c 0193     		str	r3, [sp, #4]
  51 000e 4FF00003 		mov	r3,#0
  52              		.loc 1 29 5 is_stmt 1 view .LVU4
  53              	.LVL1:
  54              		.loc 1 30 5 view .LVU5
  55              		.loc 1 31 5 view .LVU6
  56              		.loc 1 28 1 is_stmt 0 view .LVU7
  57 0012 0246     		mov	r2, r0
ARM GAS  /tmp/ccX0tJHP.s 			page 2


  58              		.loc 1 31 14 view .LVU8
  59 0014 20F07F43 		bic	r3, r0, #-16777216
  60              	.LVL2:
  61              		.loc 1 32 5 is_stmt 1 view .LVU9
  62              		.loc 1 32 8 is_stmt 0 view .LVU10
  63 0018 0ED1     		bne	.L2
  64              		.loc 1 33 9 is_stmt 1 view .LVU11
  65              		.loc 1 33 16 is_stmt 0 view .LVU12
  66 001a C3F38730 		ubfx	r0, r3, #14, #8
  67              	.LVL3:
  68              	.L3:
  69              		.loc 1 39 5 is_stmt 1 view .LVU13
  70              		.loc 1 39 8 is_stmt 0 view .LVU14
  71 001e B2F1016F 		cmp	r2, #135266304
  72              		.loc 1 41 9 is_stmt 1 view .LVU15
  73              		.loc 1 44 1 is_stmt 0 view .LVU16
  74 0022 0B4B     		ldr	r3, .L10
  75              		.loc 1 41 16 view .LVU17
  76 0024 24BF     		itt	cs
  77 0026 0C30     		addcs	r0, r0, #12
  78              	.LVL4:
  79              		.loc 1 41 16 view .LVU18
  80 0028 C0B2     		uxtbcs	r0, r0
  81              	.LVL5:
  82              		.loc 1 43 5 is_stmt 1 view .LVU19
  83              		.loc 1 44 1 is_stmt 0 view .LVU20
  84 002a 1A68     		ldr	r2, [r3]
  85 002c 019B     		ldr	r3, [sp, #4]
  86 002e 5A40     		eors	r2, r3, r2
  87              	.LVL6:
  88              		.loc 1 44 1 view .LVU21
  89 0030 0CD1     		bne	.L9
  90 0032 03B0     		add	sp, sp, #12
  91              		.cfi_remember_state
  92              		.cfi_def_cfa_offset 4
  93              		@ sp needed
  94 0034 5DF804FB 		ldr	pc, [sp], #4
  95              	.LVL7:
  96              	.L2:
  97              		.cfi_restore_state
  98              		.loc 1 34 12 is_stmt 1 view .LVU22
  99              		.loc 1 34 15 is_stmt 0 view .LVU23
 100 0038 10F47E0F 		tst	r0, #16646144
 101 003c 03D1     		bne	.L4
 102              		.loc 1 35 9 is_stmt 1 view .LVU24
 103              		.loc 1 35 29 is_stmt 0 view .LVU25
 104 003e 1B0C     		lsrs	r3, r3, #16
 105              	.LVL8:
 106              		.loc 1 35 16 view .LVU26
 107 0040 0333     		adds	r3, r3, #3
 108 0042 D8B2     		uxtb	r0, r3
 109              	.LVL9:
 110              		.loc 1 35 16 view .LVU27
 111 0044 EBE7     		b	.L3
 112              	.LVL10:
 113              	.L4:
 114              		.loc 1 37 9 is_stmt 1 view .LVU28
ARM GAS  /tmp/ccX0tJHP.s 			page 3


 115              		.loc 1 37 29 is_stmt 0 view .LVU29
 116 0046 5B0C     		lsrs	r3, r3, #17
 117              	.LVL11:
 118              		.loc 1 37 16 view .LVU30
 119 0048 181D     		adds	r0, r3, #4
 120              	.LVL12:
 121              		.loc 1 37 16 view .LVU31
 122 004a E8E7     		b	.L3
 123              	.LVL13:
 124              	.L9:
 125              		.loc 1 44 1 view .LVU32
 126 004c FFF7FEFF 		bl	__stack_chk_fail
 127              	.LVL14:
 128              	.L11:
 129              		.loc 1 44 1 view .LVU33
 130              		.align	2
 131              	.L10:
 132 0050 00000000 		.word	.LC0
 133              		.cfi_endproc
 134              	.LFE0:
 135              		.size	flash_addr_to_sector, .-flash_addr_to_sector
 136              		.section	.rodata.flash_lock.cst4,"aM",%progbits,4
 137              		.align	2
 138              	.LC1:
 139 0000 00000000 		.word	__stack_chk_guard
 140              		.section	.text.flash_lock,"ax",%progbits
 141              		.align	1
 142              		.p2align 4,,15
 143              		.global	flash_lock
 144              		.syntax unified
 145              		.thumb
 146              		.thumb_func
 147              		.fpu fpv4-sp-d16
 148              		.type	flash_lock, %function
 149              	flash_lock:
 150              	.LFB1:
 151              		.loc 1 47 1 is_stmt 1 view -0
 152              		.cfi_startproc
 153              		@ args = 0, pretend = 0, frame = 8
 154              		@ frame_needed = 0, uses_anonymous_args = 0
 155 0000 00B5     		push	{lr}
 156              		.cfi_def_cfa_offset 4
 157              		.cfi_offset 14, -4
 158 0002 0A4B     		ldr	r3, .L16
 159              		.loc 1 48 14 is_stmt 0 view .LVU35
 160 0004 0A4A     		ldr	r2, .L16+4
 161              		.loc 1 47 1 view .LVU36
 162 0006 83B0     		sub	sp, sp, #12
 163              		.cfi_def_cfa_offset 16
 164              		.loc 1 47 1 view .LVU37
 165 0008 1B68     		ldr	r3, [r3]
 166 000a 0193     		str	r3, [sp, #4]
 167 000c 4FF00003 		mov	r3,#0
 168              		.loc 1 48 5 is_stmt 1 view .LVU38
 169              		.loc 1 48 14 is_stmt 0 view .LVU39
 170 0010 1368     		ldr	r3, [r2]
 171 0012 43F00043 		orr	r3, r3, #-2147483648
ARM GAS  /tmp/ccX0tJHP.s 			page 4


 172 0016 1360     		str	r3, [r2]
 173              		.loc 1 49 1 view .LVU40
 174 0018 044B     		ldr	r3, .L16
 175 001a 1A68     		ldr	r2, [r3]
 176 001c 019B     		ldr	r3, [sp, #4]
 177 001e 5A40     		eors	r2, r3, r2
 178 0020 02D1     		bne	.L15
 179 0022 03B0     		add	sp, sp, #12
 180              		.cfi_remember_state
 181              		.cfi_def_cfa_offset 4
 182              		@ sp needed
 183 0024 5DF804FB 		ldr	pc, [sp], #4
 184              	.L15:
 185              		.cfi_restore_state
 186 0028 FFF7FEFF 		bl	__stack_chk_fail
 187              	.LVL15:
 188              	.L17:
 189              		.align	2
 190              	.L16:
 191 002c 00000000 		.word	.LC1
 192 0030 103C0240 		.word	1073888272
 193              		.cfi_endproc
 194              	.LFE1:
 195              		.size	flash_lock, .-flash_lock
 196              		.section	.rodata.flash_unlock.cst4,"aM",%progbits,4
 197              		.align	2
 198              	.LC2:
 199 0000 00000000 		.word	__stack_chk_guard
 200              		.section	.text.flash_unlock,"ax",%progbits
 201              		.align	1
 202              		.p2align 4,,15
 203              		.global	flash_unlock
 204              		.syntax unified
 205              		.thumb
 206              		.thumb_func
 207              		.fpu fpv4-sp-d16
 208              		.type	flash_unlock, %function
 209              	flash_unlock:
 210              	.LFB2:
 211              		.loc 1 52 1 is_stmt 1 view -0
 212              		.cfi_startproc
 213              		@ args = 0, pretend = 0, frame = 8
 214              		@ frame_needed = 0, uses_anonymous_args = 0
 215 0000 10B5     		push	{r4, lr}
 216              		.cfi_def_cfa_offset 8
 217              		.cfi_offset 4, -8
 218              		.cfi_offset 14, -4
 219 0002 0C4B     		ldr	r3, .L22
 220              		.loc 1 54 14 is_stmt 0 view .LVU42
 221 0004 0C49     		ldr	r1, .L22+4
 222              		.loc 1 57 16 view .LVU43
 223 0006 0D4A     		ldr	r2, .L22+8
 224 0008 0D4C     		ldr	r4, .L22+12
 225              		.loc 1 58 16 view .LVU44
 226 000a 0E48     		ldr	r0, .L22+16
 227              		.loc 1 52 1 view .LVU45
 228 000c 82B0     		sub	sp, sp, #8
ARM GAS  /tmp/ccX0tJHP.s 			page 5


 229              		.cfi_def_cfa_offset 16
 230              		.loc 1 52 1 view .LVU46
 231 000e 1B68     		ldr	r3, [r3]
 232 0010 0193     		str	r3, [sp, #4]
 233 0012 4FF00003 		mov	r3,#0
 234              		.loc 1 54 5 is_stmt 1 view .LVU47
 235              		.loc 1 54 14 is_stmt 0 view .LVU48
 236 0016 0B68     		ldr	r3, [r1]
 237 0018 43F00043 		orr	r3, r3, #-2147483648
 238 001c 0B60     		str	r3, [r1]
 239              		.loc 1 57 5 is_stmt 1 view .LVU49
 240              		.loc 1 59 1 is_stmt 0 view .LVU50
 241 001e 054B     		ldr	r3, .L22
 242              		.loc 1 57 16 view .LVU51
 243 0020 1460     		str	r4, [r2]
 244              		.loc 1 58 5 is_stmt 1 view .LVU52
 245              		.loc 1 58 16 is_stmt 0 view .LVU53
 246 0022 1060     		str	r0, [r2]
 247              		.loc 1 59 1 view .LVU54
 248 0024 1A68     		ldr	r2, [r3]
 249 0026 019B     		ldr	r3, [sp, #4]
 250 0028 5A40     		eors	r2, r3, r2
 251 002a 01D1     		bne	.L21
 252 002c 02B0     		add	sp, sp, #8
 253              		.cfi_remember_state
 254              		.cfi_def_cfa_offset 8
 255              		@ sp needed
 256 002e 10BD     		pop	{r4, pc}
 257              	.L21:
 258              		.cfi_restore_state
 259 0030 FFF7FEFF 		bl	__stack_chk_fail
 260              	.LVL16:
 261              	.L23:
 262              		.align	2
 263              	.L22:
 264 0034 00000000 		.word	.LC2
 265 0038 103C0240 		.word	1073888272
 266 003c 043C0240 		.word	1073888260
 267 0040 23016745 		.word	1164378403
 268 0044 AB89EFCD 		.word	-839939669
 269              		.cfi_endproc
 270              	.LFE2:
 271              		.size	flash_unlock, .-flash_unlock
 272              		.section	.rodata.flash_write.cst4,"aM",%progbits,4
 273              		.align	2
 274              	.LC3:
 275 0000 00000000 		.word	__stack_chk_guard
 276              		.section	.text.flash_write,"ax",%progbits
 277              		.align	1
 278              		.p2align 4,,15
 279              		.global	flash_write
 280              		.syntax unified
 281              		.thumb
 282              		.thumb_func
 283              		.fpu fpv4-sp-d16
 284              		.type	flash_write, %function
 285              	flash_write:
ARM GAS  /tmp/ccX0tJHP.s 			page 6


 286              	.LVL17:
 287              	.LFB6:
 288              		.loc 1 85 1 is_stmt 1 view -0
 289              		.cfi_startproc
 290              		@ args = 0, pretend = 0, frame = 8
 291              		@ frame_needed = 0, uses_anonymous_args = 0
 292              		.loc 1 85 1 is_stmt 0 view .LVU56
 293 0000 70B5     		push	{r4, r5, r6, lr}
 294              		.cfi_def_cfa_offset 16
 295              		.cfi_offset 4, -16
 296              		.cfi_offset 5, -12
 297              		.cfi_offset 6, -8
 298              		.cfi_offset 14, -4
 299 0002 174B     		ldr	r3, .L38
 300              	.LBB20:
 301              	.LBB21:
 302              		.loc 1 69 13 view .LVU57
 303 0004 174C     		ldr	r4, .L38+4
 304              	.LBE21:
 305              	.LBE20:
 306              		.loc 1 85 1 view .LVU58
 307 0006 82B0     		sub	sp, sp, #8
 308              		.cfi_def_cfa_offset 24
 309              		.loc 1 85 1 view .LVU59
 310 0008 1B68     		ldr	r3, [r3]
 311 000a 0193     		str	r3, [sp, #4]
 312 000c 4FF00003 		mov	r3,#0
 313              		.loc 1 86 5 is_stmt 1 view .LVU60
 314              	.LBB23:
 315              	.LBI20:
 316              		.loc 1 67 13 view .LVU61
 317              	.LBB22:
 318              		.loc 1 69 5 view .LVU62
 319              	.L25:
 320              		.loc 1 70 9 view .LVU63
 321              		.loc 1 69 11 view .LVU64
 322              		.loc 1 69 13 is_stmt 0 view .LVU65
 323 0010 2368     		ldr	r3, [r4]
 324              		.loc 1 69 11 view .LVU66
 325 0012 DD03     		lsls	r5, r3, #15
 326 0014 FCD4     		bmi	.L25
 327              	.LBE22:
 328              	.LBE23:
 329              		.loc 1 92 5 is_stmt 1 view .LVU67
 330              	.LBB24:
 331              	.LBI24:
 332              		.loc 1 61 13 view .LVU68
 333              	.LBB25:
 334              		.loc 1 64 5 view .LVU69
 335              		.loc 1 64 14 is_stmt 0 view .LVU70
 336 0016 144B     		ldr	r3, .L38+8
 337 0018 1C68     		ldr	r4, [r3]
 338 001a 24F44074 		bic	r4, r4, #768
 339 001e 1C60     		str	r4, [r3]
 340              	.LBE25:
 341              	.LBE24:
 342              		.loc 1 94 5 is_stmt 1 view .LVU71
ARM GAS  /tmp/ccX0tJHP.s 			page 7


 343              	.LVL18:
 344              		.loc 1 95 5 view .LVU72
 345              		.loc 1 97 5 view .LVU73
 346              		.loc 1 97 11 view .LVU74
 347              		.loc 1 97 11 is_stmt 0 view .LVU75
 348 0020 82B1     		cbz	r2, .L26
 349              	.LBB26:
 350              	.LBB27:
 351              	.LBB28:
 352              	.LBB29:
 353              		.loc 1 69 13 view .LVU76
 354 0022 104C     		ldr	r4, .L38+4
 355 0024 8E18     		adds	r6, r1, r2
 356 0026 0138     		subs	r0, r0, #1
 357              	.LVL19:
 358              		.loc 1 69 13 view .LVU77
 359              	.LBE29:
 360              	.LBE28:
 361              		.loc 1 77 14 view .LVU78
 362 0028 1A46     		mov	r2, r3
 363              	.LVL20:
 364              	.L28:
 365              		.loc 1 77 14 view .LVU79
 366              	.LBE27:
 367              	.LBE26:
 368              		.loc 1 98 9 is_stmt 1 view .LVU80
 369              	.LBB34:
 370              	.LBB32:
 371              		.loc 1 77 14 is_stmt 0 view .LVU81
 372 002a 1368     		ldr	r3, [r2]
 373              	.LBE32:
 374              	.LBE34:
 375              		.loc 1 98 9 view .LVU82
 376 002c 11F8015B 		ldrb	r5, [r1], #1	@ zero_extendqisi2
 377              	.LVL21:
 378              	.LBB35:
 379              	.LBI26:
 380              		.loc 1 74 13 is_stmt 1 view .LVU83
 381              	.LBB33:
 382              		.loc 1 77 5 view .LVU84
 383              		.loc 1 77 14 is_stmt 0 view .LVU85
 384 0030 43F00103 		orr	r3, r3, #1
 385 0034 1360     		str	r3, [r2]
 386              		.loc 1 79 5 is_stmt 1 view .LVU86
 387              		.loc 1 79 12 is_stmt 0 view .LVU87
 388 0036 00F8015F 		strb	r5, [r0, #1]!
 389              		.loc 1 81 5 is_stmt 1 view .LVU88
 390              	.LBB31:
 391              	.LBI28:
 392              		.loc 1 67 13 view .LVU89
 393              	.LBB30:
 394              		.loc 1 69 5 view .LVU90
 395              	.L27:
 396              		.loc 1 70 9 view .LVU91
 397              		.loc 1 69 11 view .LVU92
 398              		.loc 1 69 13 is_stmt 0 view .LVU93
 399 003a 2368     		ldr	r3, [r4]
ARM GAS  /tmp/ccX0tJHP.s 			page 8


 400              		.loc 1 69 11 view .LVU94
 401 003c DB03     		lsls	r3, r3, #15
 402 003e FCD4     		bmi	.L27
 403              	.LVL22:
 404              		.loc 1 69 11 view .LVU95
 405              	.LBE30:
 406              	.LBE31:
 407              	.LBE33:
 408              	.LBE35:
 409              		.loc 1 97 11 is_stmt 1 view .LVU96
 410              		.loc 1 97 11 is_stmt 0 view .LVU97
 411 0040 B142     		cmp	r1, r6
 412 0042 F2D1     		bne	.L28
 413              	.LVL23:
 414              	.L26:
 415              		.loc 1 102 5 is_stmt 1 view .LVU98
 416              		.loc 1 102 14 is_stmt 0 view .LVU99
 417 0044 084A     		ldr	r2, .L38+8
 418 0046 1368     		ldr	r3, [r2]
 419 0048 23F00103 		bic	r3, r3, #1
 420 004c 1360     		str	r3, [r2]
 421              		.loc 1 103 1 view .LVU100
 422 004e 044B     		ldr	r3, .L38
 423 0050 1A68     		ldr	r2, [r3]
 424 0052 019B     		ldr	r3, [sp, #4]
 425 0054 5A40     		eors	r2, r3, r2
 426 0056 01D1     		bne	.L37
 427 0058 02B0     		add	sp, sp, #8
 428              		.cfi_remember_state
 429              		.cfi_def_cfa_offset 16
 430              		@ sp needed
 431 005a 70BD     		pop	{r4, r5, r6, pc}
 432              	.L37:
 433              		.cfi_restore_state
 434 005c FFF7FEFF 		bl	__stack_chk_fail
 435              	.LVL24:
 436              	.L39:
 437              		.loc 1 103 1 view .LVU101
 438              		.align	2
 439              	.L38:
 440 0060 00000000 		.word	.LC3
 441 0064 0C3C0240 		.word	1073888268
 442 0068 103C0240 		.word	1073888272
 443              		.cfi_endproc
 444              	.LFE6:
 445              		.size	flash_write, .-flash_write
 446              		.section	.rodata.flash_sector_erase_number.cst4,"aM",%progbits,4
 447              		.align	2
 448              	.LC4:
 449 0000 00000000 		.word	__stack_chk_guard
 450              		.section	.text.flash_sector_erase_number,"ax",%progbits
 451              		.align	1
 452              		.p2align 4,,15
 453              		.global	flash_sector_erase_number
 454              		.syntax unified
 455              		.thumb
 456              		.thumb_func
ARM GAS  /tmp/ccX0tJHP.s 			page 9


 457              		.fpu fpv4-sp-d16
 458              		.type	flash_sector_erase_number, %function
 459              	flash_sector_erase_number:
 460              	.LVL25:
 461              	.LFB8:
 462              		.loc 1 113 1 is_stmt 1 view -0
 463              		.cfi_startproc
 464              		@ args = 0, pretend = 0, frame = 8
 465              		@ frame_needed = 0, uses_anonymous_args = 0
 466              		.loc 1 113 1 is_stmt 0 view .LVU103
 467 0000 00B5     		push	{lr}
 468              		.cfi_def_cfa_offset 4
 469              		.cfi_offset 14, -4
 470 0002 174B     		ldr	r3, .L48
 471              	.LBB36:
 472              	.LBB37:
 473              		.loc 1 64 14 view .LVU104
 474 0004 1749     		ldr	r1, .L48+4
 475              	.LBE37:
 476              	.LBE36:
 477              	.LBB39:
 478              	.LBB40:
 479              		.loc 1 69 13 view .LVU105
 480 0006 184A     		ldr	r2, .L48+8
 481              	.LBE40:
 482              	.LBE39:
 483              		.loc 1 113 1 view .LVU106
 484 0008 83B0     		sub	sp, sp, #12
 485              		.cfi_def_cfa_offset 16
 486              		.loc 1 113 1 view .LVU107
 487 000a 1B68     		ldr	r3, [r3]
 488 000c 0193     		str	r3, [sp, #4]
 489 000e 4FF00003 		mov	r3,#0
 490              		.loc 1 114 5 is_stmt 1 view .LVU108
 491              	.LBB42:
 492              	.LBI36:
 493              		.loc 1 61 13 view .LVU109
 494              	.LBB38:
 495              		.loc 1 64 5 view .LVU110
 496              		.loc 1 64 14 is_stmt 0 view .LVU111
 497 0012 0B68     		ldr	r3, [r1]
 498 0014 23F44073 		bic	r3, r3, #768
 499 0018 0B60     		str	r3, [r1]
 500              	.L41:
 501              	.LBE38:
 502              	.LBE42:
 503              	.LBB43:
 504              	.LBB41:
 505              		.loc 1 70 9 is_stmt 1 view .LVU112
 506              		.loc 1 69 11 view .LVU113
 507              		.loc 1 69 13 is_stmt 0 view .LVU114
 508 001a 1368     		ldr	r3, [r2]
 509              		.loc 1 69 11 view .LVU115
 510 001c D903     		lsls	r1, r3, #15
 511 001e FCD4     		bmi	.L41
 512              	.LBE41:
 513              	.LBE43:
ARM GAS  /tmp/ccX0tJHP.s 			page 10


 514              		.loc 1 118 5 is_stmt 1 view .LVU116
 515              		.loc 1 118 14 is_stmt 0 view .LVU117
 516 0020 1049     		ldr	r1, .L48+4
 517              	.LBB44:
 518              	.LBB45:
 519              		.loc 1 69 13 view .LVU118
 520 0022 114A     		ldr	r2, .L48+8
 521              	.LBE45:
 522              	.LBE44:
 523              		.loc 1 118 14 view .LVU119
 524 0024 0B68     		ldr	r3, [r1]
 525 0026 23F0F803 		bic	r3, r3, #248
 526 002a 0B60     		str	r3, [r1]
 527              		.loc 1 119 5 is_stmt 1 view .LVU120
 528              		.loc 1 119 25 is_stmt 0 view .LVU121
 529 002c C300     		lsls	r3, r0, #3
 530              		.loc 1 119 14 view .LVU122
 531 002e 0868     		ldr	r0, [r1]
 532              	.LVL26:
 533              		.loc 1 119 46 view .LVU123
 534 0030 DBB2     		uxtb	r3, r3
 535              		.loc 1 119 14 view .LVU124
 536 0032 0343     		orrs	r3, r3, r0
 537 0034 0B60     		str	r3, [r1]
 538              		.loc 1 120 5 is_stmt 1 view .LVU125
 539              		.loc 1 120 14 is_stmt 0 view .LVU126
 540 0036 0B68     		ldr	r3, [r1]
 541 0038 43F00203 		orr	r3, r3, #2
 542 003c 0B60     		str	r3, [r1]
 543              		.loc 1 121 5 is_stmt 1 view .LVU127
 544              		.loc 1 121 14 is_stmt 0 view .LVU128
 545 003e 0B68     		ldr	r3, [r1]
 546 0040 43F48033 		orr	r3, r3, #65536
 547 0044 0B60     		str	r3, [r1]
 548              		.loc 1 123 5 is_stmt 1 view .LVU129
 549              	.LBB47:
 550              	.LBI44:
 551              		.loc 1 67 13 view .LVU130
 552              	.L42:
 553              	.LBB46:
 554              		.loc 1 70 9 view .LVU131
 555              		.loc 1 69 11 view .LVU132
 556              		.loc 1 69 13 is_stmt 0 view .LVU133
 557 0046 1368     		ldr	r3, [r2]
 558              		.loc 1 69 11 view .LVU134
 559 0048 DB03     		lsls	r3, r3, #15
 560 004a FCD4     		bmi	.L42
 561              	.LBE46:
 562              	.LBE47:
 563              		.loc 1 124 1 view .LVU135
 564 004c 044B     		ldr	r3, .L48
 565 004e 1A68     		ldr	r2, [r3]
 566 0050 019B     		ldr	r3, [sp, #4]
 567 0052 5A40     		eors	r2, r3, r2
 568 0054 02D1     		bne	.L47
 569 0056 03B0     		add	sp, sp, #12
 570              		.cfi_remember_state
ARM GAS  /tmp/ccX0tJHP.s 			page 11


 571              		.cfi_def_cfa_offset 4
 572              		@ sp needed
 573 0058 5DF804FB 		ldr	pc, [sp], #4
 574              	.L47:
 575              		.cfi_restore_state
 576 005c FFF7FEFF 		bl	__stack_chk_fail
 577              	.LVL27:
 578              	.L49:
 579              		.align	2
 580              	.L48:
 581 0060 00000000 		.word	.LC4
 582 0064 103C0240 		.word	1073888272
 583 0068 0C3C0240 		.word	1073888268
 584              		.cfi_endproc
 585              	.LFE8:
 586              		.size	flash_sector_erase_number, .-flash_sector_erase_number
 587              		.section	.rodata.flash_sector_erase.cst4,"aM",%progbits,4
 588              		.align	2
 589              	.LC5:
 590 0000 00000000 		.word	__stack_chk_guard
 591              		.section	.text.flash_sector_erase,"ax",%progbits
 592              		.align	1
 593              		.p2align 4,,15
 594              		.global	flash_sector_erase
 595              		.syntax unified
 596              		.thumb
 597              		.thumb_func
 598              		.fpu fpv4-sp-d16
 599              		.type	flash_sector_erase, %function
 600              	flash_sector_erase:
 601              	.LVL28:
 602              	.LFB7:
 603              		.loc 1 106 1 is_stmt 1 view -0
 604              		.cfi_startproc
 605              		@ args = 0, pretend = 0, frame = 8
 606              		@ frame_needed = 0, uses_anonymous_args = 0
 607              		.loc 1 106 1 is_stmt 0 view .LVU137
 608 0000 00B5     		push	{lr}
 609              		.cfi_def_cfa_offset 4
 610              		.cfi_offset 14, -4
 611 0002 144B     		ldr	r3, .L59
 612 0004 83B0     		sub	sp, sp, #12
 613              		.cfi_def_cfa_offset 16
 614              	.LBB48:
 615              	.LBB49:
 616              		.loc 1 32 8 view .LVU138
 617 0006 10F47F0F 		tst	r0, #16711680
 618              	.LBE49:
 619              	.LBE48:
 620              		.loc 1 106 1 view .LVU139
 621 000a 1B68     		ldr	r3, [r3]
 622 000c 0193     		str	r3, [sp, #4]
 623 000e 4FF00003 		mov	r3,#0
 624              		.loc 1 107 5 is_stmt 1 view .LVU140
 625              	.LVL29:
 626              	.LBB54:
 627              	.LBI48:
ARM GAS  /tmp/ccX0tJHP.s 			page 12


 628              		.loc 1 27 9 view .LVU141
 629              	.LBB50:
 630              		.loc 1 29 5 view .LVU142
 631              		.loc 1 30 5 view .LVU143
 632              		.loc 1 31 5 view .LVU144
 633              	.LBE50:
 634              	.LBE54:
 635              		.loc 1 106 1 is_stmt 0 view .LVU145
 636 0012 0246     		mov	r2, r0
 637              	.LBB55:
 638              	.LBB51:
 639              		.loc 1 31 14 view .LVU146
 640 0014 20F07F43 		bic	r3, r0, #-16777216
 641              	.LVL30:
 642              		.loc 1 32 5 is_stmt 1 view .LVU147
 643              		.loc 1 32 8 is_stmt 0 view .LVU148
 644 0018 10D1     		bne	.L51
 645              		.loc 1 33 9 is_stmt 1 view .LVU149
 646              		.loc 1 33 16 is_stmt 0 view .LVU150
 647 001a C3F38730 		ubfx	r0, r3, #14, #8
 648              	.LVL31:
 649              	.L52:
 650              		.loc 1 39 5 is_stmt 1 view .LVU151
 651              		.loc 1 39 8 is_stmt 0 view .LVU152
 652 001e B2F1016F 		cmp	r2, #135266304
 653              		.loc 1 41 9 is_stmt 1 view .LVU153
 654              	.LBE51:
 655              	.LBE55:
 656              		.loc 1 109 5 is_stmt 0 view .LVU154
 657 0022 0C4B     		ldr	r3, .L59
 658              	.LBB56:
 659              	.LBB52:
 660              		.loc 1 41 16 view .LVU155
 661 0024 24BF     		itt	cs
 662 0026 0C30     		addcs	r0, r0, #12
 663              	.LVL32:
 664              		.loc 1 41 16 view .LVU156
 665 0028 C0B2     		uxtbcs	r0, r0
 666              	.LVL33:
 667              		.loc 1 43 5 is_stmt 1 view .LVU157
 668              		.loc 1 43 5 is_stmt 0 view .LVU158
 669              	.LBE52:
 670              	.LBE56:
 671              		.loc 1 109 5 is_stmt 1 view .LVU159
 672 002a 1A68     		ldr	r2, [r3]
 673 002c 019B     		ldr	r3, [sp, #4]
 674 002e 5A40     		eors	r2, r3, r2
 675              	.LVL34:
 676              		.loc 1 109 5 is_stmt 0 view .LVU160
 677 0030 0ED1     		bne	.L58
 678              		.loc 1 110 1 view .LVU161
 679 0032 03B0     		add	sp, sp, #12
 680              		.cfi_remember_state
 681              		.cfi_def_cfa_offset 4
 682              		@ sp needed
 683 0034 5DF804EB 		ldr	lr, [sp], #4
 684              		.cfi_restore 14
ARM GAS  /tmp/ccX0tJHP.s 			page 13


 685              		.cfi_def_cfa_offset 0
 686              		.loc 1 109 5 view .LVU162
 687 0038 FFF7FEBF 		b	flash_sector_erase_number
 688              	.LVL35:
 689              	.L51:
 690              		.cfi_restore_state
 691              	.LBB57:
 692              	.LBB53:
 693              		.loc 1 34 12 is_stmt 1 view .LVU163
 694              		.loc 1 34 15 is_stmt 0 view .LVU164
 695 003c 10F47E0F 		tst	r0, #16646144
 696 0040 03D1     		bne	.L53
 697              		.loc 1 35 9 is_stmt 1 view .LVU165
 698              		.loc 1 35 29 is_stmt 0 view .LVU166
 699 0042 1B0C     		lsrs	r3, r3, #16
 700              	.LVL36:
 701              		.loc 1 35 16 view .LVU167
 702 0044 0333     		adds	r3, r3, #3
 703 0046 D8B2     		uxtb	r0, r3
 704              	.LVL37:
 705              		.loc 1 35 16 view .LVU168
 706 0048 E9E7     		b	.L52
 707              	.LVL38:
 708              	.L53:
 709              		.loc 1 37 9 is_stmt 1 view .LVU169
 710              		.loc 1 37 29 is_stmt 0 view .LVU170
 711 004a 5B0C     		lsrs	r3, r3, #17
 712              	.LVL39:
 713              		.loc 1 37 16 view .LVU171
 714 004c 181D     		adds	r0, r3, #4
 715              	.LVL40:
 716              		.loc 1 37 16 view .LVU172
 717 004e E6E7     		b	.L52
 718              	.LVL41:
 719              	.L58:
 720              		.loc 1 37 16 view .LVU173
 721              	.LBE53:
 722              	.LBE57:
 723              		.loc 1 109 5 view .LVU174
 724 0050 FFF7FEFF 		bl	__stack_chk_fail
 725              	.LVL42:
 726              	.L60:
 727              		.loc 1 109 5 view .LVU175
 728              		.align	2
 729              	.L59:
 730 0054 00000000 		.word	.LC5
 731              		.cfi_endproc
 732              	.LFE7:
 733              		.size	flash_sector_erase, .-flash_sector_erase
 734              		.text
 735              	.Letext0:
 736              		.file 2 "/usr/lib/gcc/arm-none-eabi/9.2.1/include/stdint.h"
 737              		.file 3 "/usr/lib/gcc/arm-none-eabi/9.2.1/include/stddef.h"
 738              		.section	.debug_info,"",%progbits
 739              	.Ldebug_info0:
 740 0000 9E030000 		.4byte	0x39e
 741 0004 0400     		.2byte	0x4
ARM GAS  /tmp/ccX0tJHP.s 			page 14


 742 0006 00000000 		.4byte	.Ldebug_abbrev0
 743 000a 04       		.byte	0x4
 744 000b 01       		.uleb128 0x1
 745 000c D2010000 		.4byte	.LASF26
 746 0010 0C       		.byte	0xc
 747 0011 0C010000 		.4byte	.LASF27
 748 0015 2F010000 		.4byte	.LASF28
 749 0019 C8000000 		.4byte	.Ldebug_ranges0+0xc8
 750 001d 00000000 		.4byte	0
 751 0021 00000000 		.4byte	.Ldebug_line0
 752 0025 02       		.uleb128 0x2
 753 0026 01       		.byte	0x1
 754 0027 06       		.byte	0x6
 755 0028 C6010000 		.4byte	.LASF0
 756 002c 02       		.uleb128 0x2
 757 002d 02       		.byte	0x2
 758 002e 05       		.byte	0x5
 759 002f 7E010000 		.4byte	.LASF1
 760 0033 02       		.uleb128 0x2
 761 0034 04       		.byte	0x4
 762 0035 05       		.byte	0x5
 763 0036 B1010000 		.4byte	.LASF2
 764 003a 02       		.uleb128 0x2
 765 003b 08       		.byte	0x8
 766 003c 05       		.byte	0x5
 767 003d 21010000 		.4byte	.LASF3
 768 0041 03       		.uleb128 0x3
 769 0042 48000000 		.4byte	.LASF6
 770 0046 02       		.byte	0x2
 771 0047 2E       		.byte	0x2e
 772 0048 18       		.byte	0x18
 773 0049 4D000000 		.4byte	0x4d
 774 004d 02       		.uleb128 0x2
 775 004e 01       		.byte	0x1
 776 004f 08       		.byte	0x8
 777 0050 74000000 		.4byte	.LASF4
 778 0054 02       		.uleb128 0x2
 779 0055 02       		.byte	0x2
 780 0056 07       		.byte	0x7
 781 0057 94000000 		.4byte	.LASF5
 782 005b 03       		.uleb128 0x3
 783 005c A8010000 		.4byte	.LASF7
 784 0060 02       		.byte	0x2
 785 0061 34       		.byte	0x34
 786 0062 19       		.byte	0x19
 787 0063 67000000 		.4byte	0x67
 788 0067 02       		.uleb128 0x2
 789 0068 04       		.byte	0x4
 790 0069 07       		.byte	0x7
 791 006a 82000000 		.4byte	.LASF8
 792 006e 02       		.uleb128 0x2
 793 006f 08       		.byte	0x8
 794 0070 07       		.byte	0x7
 795 0071 F5000000 		.4byte	.LASF9
 796 0075 04       		.uleb128 0x4
 797 0076 04       		.byte	0x4
 798 0077 05       		.byte	0x5
ARM GAS  /tmp/ccX0tJHP.s 			page 15


 799 0078 696E7400 		.ascii	"int\000"
 800 007c 02       		.uleb128 0x2
 801 007d 04       		.byte	0x4
 802 007e 07       		.byte	0x7
 803 007f E8000000 		.4byte	.LASF10
 804 0083 03       		.uleb128 0x3
 805 0084 00000000 		.4byte	.LASF11
 806 0088 03       		.byte	0x3
 807 0089 D1       		.byte	0xd1
 808 008a 17       		.byte	0x17
 809 008b 7C000000 		.4byte	0x7c
 810 008f 02       		.uleb128 0x2
 811 0090 08       		.byte	0x8
 812 0091 04       		.byte	0x4
 813 0092 BA010000 		.4byte	.LASF12
 814 0096 05       		.uleb128 0x5
 815 0097 8E010000 		.4byte	.LASF13
 816 009b 01       		.byte	0x1
 817 009c 70       		.byte	0x70
 818 009d 06       		.byte	0x6
 819 009e 00000000 		.4byte	.LFB8
 820 00a2 6C000000 		.4byte	.LFE8-.LFB8
 821 00a6 01       		.uleb128 0x1
 822 00a7 9C       		.byte	0x9c
 823 00a8 F8000000 		.4byte	0xf8
 824 00ac 06       		.uleb128 0x6
 825 00ad 2E000000 		.4byte	.LASF15
 826 00b1 01       		.byte	0x1
 827 00b2 70       		.byte	0x70
 828 00b3 28       		.byte	0x28
 829 00b4 41000000 		.4byte	0x41
 830 00b8 04000000 		.4byte	.LLST11
 831 00bc 00000000 		.4byte	.LVUS11
 832 00c0 07       		.uleb128 0x7
 833 00c1 BE020000 		.4byte	0x2be
 834 00c5 12000000 		.4byte	.LBI36
 835 00c9 01       		.byte	.LVU109
 836 00ca 50000000 		.4byte	.Ldebug_ranges0+0x50
 837 00ce 01       		.byte	0x1
 838 00cf 72       		.byte	0x72
 839 00d0 05       		.byte	0x5
 840 00d1 08       		.uleb128 0x8
 841 00d2 B5020000 		.4byte	0x2b5
 842 00d6 68000000 		.4byte	.Ldebug_ranges0+0x68
 843 00da 01       		.byte	0x1
 844 00db 74       		.byte	0x74
 845 00dc 05       		.byte	0x5
 846 00dd 07       		.uleb128 0x7
 847 00de B5020000 		.4byte	0x2b5
 848 00e2 46000000 		.4byte	.LBI44
 849 00e6 01       		.byte	.LVU130
 850 00e7 80000000 		.4byte	.Ldebug_ranges0+0x80
 851 00eb 01       		.byte	0x1
 852 00ec 7B       		.byte	0x7b
 853 00ed 05       		.byte	0x5
 854 00ee 09       		.uleb128 0x9
 855 00ef 60000000 		.4byte	.LVL27
ARM GAS  /tmp/ccX0tJHP.s 			page 16


 856 00f3 98030000 		.4byte	0x398
 857 00f7 00       		.byte	0
 858 00f8 05       		.uleb128 0x5
 859 00f9 35000000 		.4byte	.LASF14
 860 00fd 01       		.byte	0x1
 861 00fe 69       		.byte	0x69
 862 00ff 06       		.byte	0x6
 863 0100 00000000 		.4byte	.LFB7
 864 0104 58000000 		.4byte	.LFE7-.LFB7
 865 0108 01       		.uleb128 0x1
 866 0109 9C       		.byte	0x9c
 867 010a 99010000 		.4byte	0x199
 868 010e 06       		.uleb128 0x6
 869 010f 6A000000 		.4byte	.LASF16
 870 0113 01       		.byte	0x1
 871 0114 69       		.byte	0x69
 872 0115 1F       		.byte	0x1f
 873 0116 99010000 		.4byte	0x199
 874 011a 35000000 		.4byte	.LLST12
 875 011e 25000000 		.4byte	.LVUS12
 876 0122 0A       		.uleb128 0xa
 877 0123 2E000000 		.4byte	.LASF15
 878 0127 01       		.byte	0x1
 879 0128 6B       		.byte	0x6b
 880 0129 0E       		.byte	0xe
 881 012a 5B000000 		.4byte	0x5b
 882 012e 9F000000 		.4byte	.LLST13
 883 0132 9B000000 		.4byte	.LVUS13
 884 0136 0B       		.uleb128 0xb
 885 0137 07030000 		.4byte	0x307
 886 013b 12000000 		.4byte	.LBI48
 887 013f 01       		.byte	.LVU141
 888 0140 98000000 		.4byte	.Ldebug_ranges0+0x98
 889 0144 01       		.byte	0x1
 890 0145 6B       		.byte	0x6b
 891 0146 17       		.byte	0x17
 892 0147 86010000 		.4byte	0x186
 893 014b 0C       		.uleb128 0xc
 894 014c 18030000 		.4byte	0x318
 895 0150 D3000000 		.4byte	.LLST14
 896 0154 C7000000 		.4byte	.LVUS14
 897 0158 0D       		.uleb128 0xd
 898 0159 98000000 		.4byte	.Ldebug_ranges0+0x98
 899 015d 0E       		.uleb128 0xe
 900 015e 22030000 		.4byte	0x322
 901 0162 29010000 		.4byte	.LLST15
 902 0166 1D010000 		.4byte	.LVUS15
 903 016a 0E       		.uleb128 0xe
 904 016b 2E030000 		.4byte	0x32e
 905 016f 7B010000 		.4byte	.LLST16
 906 0173 73010000 		.4byte	.LVUS16
 907 0177 0E       		.uleb128 0xe
 908 0178 3A030000 		.4byte	0x33a
 909 017c BF010000 		.4byte	.LLST17
 910 0180 AF010000 		.4byte	.LVUS17
 911 0184 00       		.byte	0
 912 0185 00       		.byte	0
ARM GAS  /tmp/ccX0tJHP.s 			page 17


 913 0186 0F       		.uleb128 0xf
 914 0187 3C000000 		.4byte	.LVL35
 915 018b 96000000 		.4byte	0x96
 916 018f 09       		.uleb128 0x9
 917 0190 54000000 		.4byte	.LVL42
 918 0194 98030000 		.4byte	0x398
 919 0198 00       		.byte	0
 920 0199 10       		.uleb128 0x10
 921 019a 04       		.byte	0x4
 922 019b 05       		.uleb128 0x5
 923 019c DC000000 		.4byte	.LASF17
 924 01a0 01       		.byte	0x1
 925 01a1 54       		.byte	0x54
 926 01a2 06       		.byte	0x6
 927 01a3 00000000 		.4byte	.LFB6
 928 01a7 6C000000 		.4byte	.LFE6-.LFB6
 929 01ab 01       		.uleb128 0x1
 930 01ac 9C       		.byte	0x9c
 931 01ad 82020000 		.4byte	0x282
 932 01b1 06       		.uleb128 0x6
 933 01b2 6A000000 		.4byte	.LASF16
 934 01b6 01       		.byte	0x1
 935 01b7 54       		.byte	0x54
 936 01b8 18       		.byte	0x18
 937 01b9 99010000 		.4byte	0x199
 938 01bd 4D020000 		.4byte	.LLST4
 939 01c1 47020000 		.4byte	.LVUS4
 940 01c5 06       		.uleb128 0x6
 941 01c6 6F000000 		.4byte	.LASF18
 942 01ca 01       		.byte	0x1
 943 01cb 54       		.byte	0x54
 944 01cc 2A       		.byte	0x2a
 945 01cd 82020000 		.4byte	0x282
 946 01d1 7F020000 		.4byte	.LLST5
 947 01d5 7B020000 		.4byte	.LVUS5
 948 01d9 11       		.uleb128 0x11
 949 01da 6C656E00 		.ascii	"len\000"
 950 01de 01       		.byte	0x1
 951 01df 54       		.byte	0x54
 952 01e0 37       		.byte	0x37
 953 01e1 83000000 		.4byte	0x83
 954 01e5 A6020000 		.4byte	.LLST6
 955 01e9 A0020000 		.4byte	.LVUS6
 956 01ed 12       		.uleb128 0x12
 957 01ee 7200     		.ascii	"r\000"
 958 01f0 01       		.byte	0x1
 959 01f1 5E       		.byte	0x5e
 960 01f2 0E       		.byte	0xe
 961 01f3 89020000 		.4byte	0x289
 962 01f7 DC020000 		.4byte	.LLST7
 963 01fb D6020000 		.4byte	.LVUS7
 964 01ff 12       		.uleb128 0x12
 965 0200 7700     		.ascii	"w\000"
 966 0202 01       		.byte	0x1
 967 0203 5F       		.byte	0x5f
 968 0204 0E       		.byte	0xe
 969 0205 89020000 		.4byte	0x289
ARM GAS  /tmp/ccX0tJHP.s 			page 18


 970 0209 0F030000 		.4byte	.LLST8
 971 020d 07030000 		.4byte	.LVUS8
 972 0211 07       		.uleb128 0x7
 973 0212 B5020000 		.4byte	0x2b5
 974 0216 10000000 		.4byte	.LBI20
 975 021a 01       		.byte	.LVU61
 976 021b 00000000 		.4byte	.Ldebug_ranges0+0
 977 021f 01       		.byte	0x1
 978 0220 56       		.byte	0x56
 979 0221 05       		.byte	0x5
 980 0222 13       		.uleb128 0x13
 981 0223 BE020000 		.4byte	0x2be
 982 0227 16000000 		.4byte	.LBI24
 983 022b 01       		.byte	.LVU68
 984 022c 16000000 		.4byte	.LBB24
 985 0230 0A000000 		.4byte	.LBE24-.LBB24
 986 0234 01       		.byte	0x1
 987 0235 5C       		.byte	0x5c
 988 0236 05       		.byte	0x5
 989 0237 0B       		.uleb128 0xb
 990 0238 8F020000 		.4byte	0x28f
 991 023c 30000000 		.4byte	.LBI26
 992 0240 00       		.byte	.LVU83
 993 0241 18000000 		.4byte	.Ldebug_ranges0+0x18
 994 0245 01       		.byte	0x1
 995 0246 62       		.byte	0x62
 996 0247 09       		.byte	0x9
 997 0248 78020000 		.4byte	0x278
 998 024c 0C       		.uleb128 0xc
 999 024d A8020000 		.4byte	0x2a8
 1000 0251 4F030000 		.4byte	.LLST9
 1001 0255 4D030000 		.4byte	.LVUS9
 1002 0259 0C       		.uleb128 0xc
 1003 025a 9C020000 		.4byte	0x29c
 1004 025e 64030000 		.4byte	.LLST10
 1005 0262 62030000 		.4byte	.LVUS10
 1006 0266 07       		.uleb128 0x7
 1007 0267 B5020000 		.4byte	0x2b5
 1008 026b 3A000000 		.4byte	.LBI28
 1009 026f 01       		.byte	.LVU89
 1010 0270 38000000 		.4byte	.Ldebug_ranges0+0x38
 1011 0274 01       		.byte	0x1
 1012 0275 51       		.byte	0x51
 1013 0276 05       		.byte	0x5
 1014 0277 00       		.byte	0
 1015 0278 09       		.uleb128 0x9
 1016 0279 60000000 		.4byte	.LVL24
 1017 027d 98030000 		.4byte	0x398
 1018 0281 00       		.byte	0
 1019 0282 14       		.uleb128 0x14
 1020 0283 04       		.byte	0x4
 1021 0284 88020000 		.4byte	0x288
 1022 0288 15       		.uleb128 0x15
 1023 0289 14       		.uleb128 0x14
 1024 028a 04       		.byte	0x4
 1025 028b 41000000 		.4byte	0x41
 1026 028f 16       		.uleb128 0x16
ARM GAS  /tmp/ccX0tJHP.s 			page 19


 1027 0290 07000000 		.4byte	.LASF29
 1028 0294 01       		.byte	0x1
 1029 0295 4A       		.byte	0x4a
 1030 0296 0D       		.byte	0xd
 1031 0297 01       		.byte	0x1
 1032 0298 B5020000 		.4byte	0x2b5
 1033 029c 17       		.uleb128 0x17
 1034 029d 88010000 		.4byte	.LASF19
 1035 02a1 01       		.byte	0x1
 1036 02a2 4A       		.byte	0x4a
 1037 02a3 27       		.byte	0x27
 1038 02a4 89020000 		.4byte	0x289
 1039 02a8 17       		.uleb128 0x17
 1040 02a9 65000000 		.4byte	.LASF20
 1041 02ad 01       		.byte	0x1
 1042 02ae 4A       		.byte	0x4a
 1043 02af 36       		.byte	0x36
 1044 02b0 41000000 		.4byte	0x41
 1045 02b4 00       		.byte	0
 1046 02b5 18       		.uleb128 0x18
 1047 02b6 18000000 		.4byte	.LASF21
 1048 02ba 01       		.byte	0x1
 1049 02bb 43       		.byte	0x43
 1050 02bc 0D       		.byte	0xd
 1051 02bd 01       		.byte	0x1
 1052 02be 18       		.uleb128 0x18
 1053 02bf C3000000 		.4byte	.LASF22
 1054 02c3 01       		.byte	0x1
 1055 02c4 3D       		.byte	0x3d
 1056 02c5 0D       		.byte	0xd
 1057 02c6 01       		.byte	0x1
 1058 02c7 05       		.uleb128 0x5
 1059 02c8 24030000 		.4byte	.LASF23
 1060 02cc 01       		.byte	0x1
 1061 02cd 33       		.byte	0x33
 1062 02ce 06       		.byte	0x6
 1063 02cf 00000000 		.4byte	.LFB2
 1064 02d3 48000000 		.4byte	.LFE2-.LFB2
 1065 02d7 01       		.uleb128 0x1
 1066 02d8 9C       		.byte	0x9c
 1067 02d9 E7020000 		.4byte	0x2e7
 1068 02dd 09       		.uleb128 0x9
 1069 02de 34000000 		.4byte	.LVL16
 1070 02e2 98030000 		.4byte	0x398
 1071 02e6 00       		.byte	0
 1072 02e7 05       		.uleb128 0x5
 1073 02e8 A7000000 		.4byte	.LASF24
 1074 02ec 01       		.byte	0x1
 1075 02ed 2E       		.byte	0x2e
 1076 02ee 06       		.byte	0x6
 1077 02ef 00000000 		.4byte	.LFB1
 1078 02f3 34000000 		.4byte	.LFE1-.LFB1
 1079 02f7 01       		.uleb128 0x1
 1080 02f8 9C       		.byte	0x9c
 1081 02f9 07030000 		.4byte	0x307
 1082 02fd 09       		.uleb128 0x9
 1083 02fe 2C000000 		.4byte	.LVL15
ARM GAS  /tmp/ccX0tJHP.s 			page 20


 1084 0302 98030000 		.4byte	0x398
 1085 0306 00       		.byte	0
 1086 0307 19       		.uleb128 0x19
 1087 0308 50000000 		.4byte	.LASF30
 1088 030c 01       		.byte	0x1
 1089 030d 1B       		.byte	0x1b
 1090 030e 09       		.byte	0x9
 1091 030f 41000000 		.4byte	0x41
 1092 0313 01       		.byte	0x1
 1093 0314 47030000 		.4byte	0x347
 1094 0318 1A       		.uleb128 0x1a
 1095 0319 7000     		.ascii	"p\000"
 1096 031b 01       		.byte	0x1
 1097 031c 1B       		.byte	0x1b
 1098 031d 24       		.byte	0x24
 1099 031e 99010000 		.4byte	0x199
 1100 0322 1B       		.uleb128 0x1b
 1101 0323 6A000000 		.4byte	.LASF16
 1102 0327 01       		.byte	0x1
 1103 0328 1D       		.byte	0x1d
 1104 0329 0E       		.byte	0xe
 1105 032a 5B000000 		.4byte	0x5b
 1106 032e 1B       		.uleb128 0x1b
 1107 032f 2E000000 		.4byte	.LASF15
 1108 0333 01       		.byte	0x1
 1109 0334 1E       		.byte	0x1e
 1110 0335 0D       		.byte	0xd
 1111 0336 41000000 		.4byte	0x41
 1112 033a 1B       		.uleb128 0x1b
 1113 033b 77010000 		.4byte	.LASF25
 1114 033f 01       		.byte	0x1
 1115 0340 1F       		.byte	0x1f
 1116 0341 0E       		.byte	0xe
 1117 0342 5B000000 		.4byte	0x5b
 1118 0346 00       		.byte	0
 1119 0347 1C       		.uleb128 0x1c
 1120 0348 07030000 		.4byte	0x307
 1121 034c 00000000 		.4byte	.LFB0
 1122 0350 54000000 		.4byte	.LFE0-.LFB0
 1123 0354 01       		.uleb128 0x1
 1124 0355 9C       		.byte	0x9c
 1125 0356 98030000 		.4byte	0x398
 1126 035a 0C       		.uleb128 0xc
 1127 035b 18030000 		.4byte	0x318
 1128 035f 8A030000 		.4byte	.LLST0
 1129 0363 7A030000 		.4byte	.LVUS0
 1130 0367 0E       		.uleb128 0xe
 1131 0368 22030000 		.4byte	0x322
 1132 036c 00040000 		.4byte	.LLST1
 1133 0370 F0030000 		.4byte	.LVUS1
 1134 0374 0E       		.uleb128 0xe
 1135 0375 2E030000 		.4byte	0x32e
 1136 0379 6E040000 		.4byte	.LLST2
 1137 037d 66040000 		.4byte	.LVUS2
 1138 0381 0E       		.uleb128 0xe
 1139 0382 3A030000 		.4byte	0x33a
 1140 0386 B6040000 		.4byte	.LLST3
ARM GAS  /tmp/ccX0tJHP.s 			page 21


 1141 038a A2040000 		.4byte	.LVUS3
 1142 038e 09       		.uleb128 0x9
 1143 038f 50000000 		.4byte	.LVL14
 1144 0393 98030000 		.4byte	0x398
 1145 0397 00       		.byte	0
 1146 0398 1D       		.uleb128 0x1d
 1147 0399 B2000000 		.4byte	.LASF31
 1148 039d B2000000 		.4byte	.LASF31
 1149 03a1 00       		.byte	0
 1150              		.section	.debug_abbrev,"",%progbits
 1151              	.Ldebug_abbrev0:
 1152 0000 01       		.uleb128 0x1
 1153 0001 11       		.uleb128 0x11
 1154 0002 01       		.byte	0x1
 1155 0003 25       		.uleb128 0x25
 1156 0004 0E       		.uleb128 0xe
 1157 0005 13       		.uleb128 0x13
 1158 0006 0B       		.uleb128 0xb
 1159 0007 03       		.uleb128 0x3
 1160 0008 0E       		.uleb128 0xe
 1161 0009 1B       		.uleb128 0x1b
 1162 000a 0E       		.uleb128 0xe
 1163 000b 55       		.uleb128 0x55
 1164 000c 17       		.uleb128 0x17
 1165 000d 11       		.uleb128 0x11
 1166 000e 01       		.uleb128 0x1
 1167 000f 10       		.uleb128 0x10
 1168 0010 17       		.uleb128 0x17
 1169 0011 00       		.byte	0
 1170 0012 00       		.byte	0
 1171 0013 02       		.uleb128 0x2
 1172 0014 24       		.uleb128 0x24
 1173 0015 00       		.byte	0
 1174 0016 0B       		.uleb128 0xb
 1175 0017 0B       		.uleb128 0xb
 1176 0018 3E       		.uleb128 0x3e
 1177 0019 0B       		.uleb128 0xb
 1178 001a 03       		.uleb128 0x3
 1179 001b 0E       		.uleb128 0xe
 1180 001c 00       		.byte	0
 1181 001d 00       		.byte	0
 1182 001e 03       		.uleb128 0x3
 1183 001f 16       		.uleb128 0x16
 1184 0020 00       		.byte	0
 1185 0021 03       		.uleb128 0x3
 1186 0022 0E       		.uleb128 0xe
 1187 0023 3A       		.uleb128 0x3a
 1188 0024 0B       		.uleb128 0xb
 1189 0025 3B       		.uleb128 0x3b
 1190 0026 0B       		.uleb128 0xb
 1191 0027 39       		.uleb128 0x39
 1192 0028 0B       		.uleb128 0xb
 1193 0029 49       		.uleb128 0x49
 1194 002a 13       		.uleb128 0x13
 1195 002b 00       		.byte	0
 1196 002c 00       		.byte	0
 1197 002d 04       		.uleb128 0x4
ARM GAS  /tmp/ccX0tJHP.s 			page 22


 1198 002e 24       		.uleb128 0x24
 1199 002f 00       		.byte	0
 1200 0030 0B       		.uleb128 0xb
 1201 0031 0B       		.uleb128 0xb
 1202 0032 3E       		.uleb128 0x3e
 1203 0033 0B       		.uleb128 0xb
 1204 0034 03       		.uleb128 0x3
 1205 0035 08       		.uleb128 0x8
 1206 0036 00       		.byte	0
 1207 0037 00       		.byte	0
 1208 0038 05       		.uleb128 0x5
 1209 0039 2E       		.uleb128 0x2e
 1210 003a 01       		.byte	0x1
 1211 003b 3F       		.uleb128 0x3f
 1212 003c 19       		.uleb128 0x19
 1213 003d 03       		.uleb128 0x3
 1214 003e 0E       		.uleb128 0xe
 1215 003f 3A       		.uleb128 0x3a
 1216 0040 0B       		.uleb128 0xb
 1217 0041 3B       		.uleb128 0x3b
 1218 0042 0B       		.uleb128 0xb
 1219 0043 39       		.uleb128 0x39
 1220 0044 0B       		.uleb128 0xb
 1221 0045 27       		.uleb128 0x27
 1222 0046 19       		.uleb128 0x19
 1223 0047 11       		.uleb128 0x11
 1224 0048 01       		.uleb128 0x1
 1225 0049 12       		.uleb128 0x12
 1226 004a 06       		.uleb128 0x6
 1227 004b 40       		.uleb128 0x40
 1228 004c 18       		.uleb128 0x18
 1229 004d 9742     		.uleb128 0x2117
 1230 004f 19       		.uleb128 0x19
 1231 0050 01       		.uleb128 0x1
 1232 0051 13       		.uleb128 0x13
 1233 0052 00       		.byte	0
 1234 0053 00       		.byte	0
 1235 0054 06       		.uleb128 0x6
 1236 0055 05       		.uleb128 0x5
 1237 0056 00       		.byte	0
 1238 0057 03       		.uleb128 0x3
 1239 0058 0E       		.uleb128 0xe
 1240 0059 3A       		.uleb128 0x3a
 1241 005a 0B       		.uleb128 0xb
 1242 005b 3B       		.uleb128 0x3b
 1243 005c 0B       		.uleb128 0xb
 1244 005d 39       		.uleb128 0x39
 1245 005e 0B       		.uleb128 0xb
 1246 005f 49       		.uleb128 0x49
 1247 0060 13       		.uleb128 0x13
 1248 0061 02       		.uleb128 0x2
 1249 0062 17       		.uleb128 0x17
 1250 0063 B742     		.uleb128 0x2137
 1251 0065 17       		.uleb128 0x17
 1252 0066 00       		.byte	0
 1253 0067 00       		.byte	0
 1254 0068 07       		.uleb128 0x7
ARM GAS  /tmp/ccX0tJHP.s 			page 23


 1255 0069 1D       		.uleb128 0x1d
 1256 006a 00       		.byte	0
 1257 006b 31       		.uleb128 0x31
 1258 006c 13       		.uleb128 0x13
 1259 006d 52       		.uleb128 0x52
 1260 006e 01       		.uleb128 0x1
 1261 006f B842     		.uleb128 0x2138
 1262 0071 0B       		.uleb128 0xb
 1263 0072 55       		.uleb128 0x55
 1264 0073 17       		.uleb128 0x17
 1265 0074 58       		.uleb128 0x58
 1266 0075 0B       		.uleb128 0xb
 1267 0076 59       		.uleb128 0x59
 1268 0077 0B       		.uleb128 0xb
 1269 0078 57       		.uleb128 0x57
 1270 0079 0B       		.uleb128 0xb
 1271 007a 00       		.byte	0
 1272 007b 00       		.byte	0
 1273 007c 08       		.uleb128 0x8
 1274 007d 1D       		.uleb128 0x1d
 1275 007e 00       		.byte	0
 1276 007f 31       		.uleb128 0x31
 1277 0080 13       		.uleb128 0x13
 1278 0081 55       		.uleb128 0x55
 1279 0082 17       		.uleb128 0x17
 1280 0083 58       		.uleb128 0x58
 1281 0084 0B       		.uleb128 0xb
 1282 0085 59       		.uleb128 0x59
 1283 0086 0B       		.uleb128 0xb
 1284 0087 57       		.uleb128 0x57
 1285 0088 0B       		.uleb128 0xb
 1286 0089 00       		.byte	0
 1287 008a 00       		.byte	0
 1288 008b 09       		.uleb128 0x9
 1289 008c 898201   		.uleb128 0x4109
 1290 008f 00       		.byte	0
 1291 0090 11       		.uleb128 0x11
 1292 0091 01       		.uleb128 0x1
 1293 0092 31       		.uleb128 0x31
 1294 0093 13       		.uleb128 0x13
 1295 0094 00       		.byte	0
 1296 0095 00       		.byte	0
 1297 0096 0A       		.uleb128 0xa
 1298 0097 34       		.uleb128 0x34
 1299 0098 00       		.byte	0
 1300 0099 03       		.uleb128 0x3
 1301 009a 0E       		.uleb128 0xe
 1302 009b 3A       		.uleb128 0x3a
 1303 009c 0B       		.uleb128 0xb
 1304 009d 3B       		.uleb128 0x3b
 1305 009e 0B       		.uleb128 0xb
 1306 009f 39       		.uleb128 0x39
 1307 00a0 0B       		.uleb128 0xb
 1308 00a1 49       		.uleb128 0x49
 1309 00a2 13       		.uleb128 0x13
 1310 00a3 02       		.uleb128 0x2
 1311 00a4 17       		.uleb128 0x17
ARM GAS  /tmp/ccX0tJHP.s 			page 24


 1312 00a5 B742     		.uleb128 0x2137
 1313 00a7 17       		.uleb128 0x17
 1314 00a8 00       		.byte	0
 1315 00a9 00       		.byte	0
 1316 00aa 0B       		.uleb128 0xb
 1317 00ab 1D       		.uleb128 0x1d
 1318 00ac 01       		.byte	0x1
 1319 00ad 31       		.uleb128 0x31
 1320 00ae 13       		.uleb128 0x13
 1321 00af 52       		.uleb128 0x52
 1322 00b0 01       		.uleb128 0x1
 1323 00b1 B842     		.uleb128 0x2138
 1324 00b3 0B       		.uleb128 0xb
 1325 00b4 55       		.uleb128 0x55
 1326 00b5 17       		.uleb128 0x17
 1327 00b6 58       		.uleb128 0x58
 1328 00b7 0B       		.uleb128 0xb
 1329 00b8 59       		.uleb128 0x59
 1330 00b9 0B       		.uleb128 0xb
 1331 00ba 57       		.uleb128 0x57
 1332 00bb 0B       		.uleb128 0xb
 1333 00bc 01       		.uleb128 0x1
 1334 00bd 13       		.uleb128 0x13
 1335 00be 00       		.byte	0
 1336 00bf 00       		.byte	0
 1337 00c0 0C       		.uleb128 0xc
 1338 00c1 05       		.uleb128 0x5
 1339 00c2 00       		.byte	0
 1340 00c3 31       		.uleb128 0x31
 1341 00c4 13       		.uleb128 0x13
 1342 00c5 02       		.uleb128 0x2
 1343 00c6 17       		.uleb128 0x17
 1344 00c7 B742     		.uleb128 0x2137
 1345 00c9 17       		.uleb128 0x17
 1346 00ca 00       		.byte	0
 1347 00cb 00       		.byte	0
 1348 00cc 0D       		.uleb128 0xd
 1349 00cd 0B       		.uleb128 0xb
 1350 00ce 01       		.byte	0x1
 1351 00cf 55       		.uleb128 0x55
 1352 00d0 17       		.uleb128 0x17
 1353 00d1 00       		.byte	0
 1354 00d2 00       		.byte	0
 1355 00d3 0E       		.uleb128 0xe
 1356 00d4 34       		.uleb128 0x34
 1357 00d5 00       		.byte	0
 1358 00d6 31       		.uleb128 0x31
 1359 00d7 13       		.uleb128 0x13
 1360 00d8 02       		.uleb128 0x2
 1361 00d9 17       		.uleb128 0x17
 1362 00da B742     		.uleb128 0x2137
 1363 00dc 17       		.uleb128 0x17
 1364 00dd 00       		.byte	0
 1365 00de 00       		.byte	0
 1366 00df 0F       		.uleb128 0xf
 1367 00e0 898201   		.uleb128 0x4109
 1368 00e3 00       		.byte	0
ARM GAS  /tmp/ccX0tJHP.s 			page 25


 1369 00e4 11       		.uleb128 0x11
 1370 00e5 01       		.uleb128 0x1
 1371 00e6 9542     		.uleb128 0x2115
 1372 00e8 19       		.uleb128 0x19
 1373 00e9 31       		.uleb128 0x31
 1374 00ea 13       		.uleb128 0x13
 1375 00eb 00       		.byte	0
 1376 00ec 00       		.byte	0
 1377 00ed 10       		.uleb128 0x10
 1378 00ee 0F       		.uleb128 0xf
 1379 00ef 00       		.byte	0
 1380 00f0 0B       		.uleb128 0xb
 1381 00f1 0B       		.uleb128 0xb
 1382 00f2 00       		.byte	0
 1383 00f3 00       		.byte	0
 1384 00f4 11       		.uleb128 0x11
 1385 00f5 05       		.uleb128 0x5
 1386 00f6 00       		.byte	0
 1387 00f7 03       		.uleb128 0x3
 1388 00f8 08       		.uleb128 0x8
 1389 00f9 3A       		.uleb128 0x3a
 1390 00fa 0B       		.uleb128 0xb
 1391 00fb 3B       		.uleb128 0x3b
 1392 00fc 0B       		.uleb128 0xb
 1393 00fd 39       		.uleb128 0x39
 1394 00fe 0B       		.uleb128 0xb
 1395 00ff 49       		.uleb128 0x49
 1396 0100 13       		.uleb128 0x13
 1397 0101 02       		.uleb128 0x2
 1398 0102 17       		.uleb128 0x17
 1399 0103 B742     		.uleb128 0x2137
 1400 0105 17       		.uleb128 0x17
 1401 0106 00       		.byte	0
 1402 0107 00       		.byte	0
 1403 0108 12       		.uleb128 0x12
 1404 0109 34       		.uleb128 0x34
 1405 010a 00       		.byte	0
 1406 010b 03       		.uleb128 0x3
 1407 010c 08       		.uleb128 0x8
 1408 010d 3A       		.uleb128 0x3a
 1409 010e 0B       		.uleb128 0xb
 1410 010f 3B       		.uleb128 0x3b
 1411 0110 0B       		.uleb128 0xb
 1412 0111 39       		.uleb128 0x39
 1413 0112 0B       		.uleb128 0xb
 1414 0113 49       		.uleb128 0x49
 1415 0114 13       		.uleb128 0x13
 1416 0115 02       		.uleb128 0x2
 1417 0116 17       		.uleb128 0x17
 1418 0117 B742     		.uleb128 0x2137
 1419 0119 17       		.uleb128 0x17
 1420 011a 00       		.byte	0
 1421 011b 00       		.byte	0
 1422 011c 13       		.uleb128 0x13
 1423 011d 1D       		.uleb128 0x1d
 1424 011e 00       		.byte	0
 1425 011f 31       		.uleb128 0x31
ARM GAS  /tmp/ccX0tJHP.s 			page 26


 1426 0120 13       		.uleb128 0x13
 1427 0121 52       		.uleb128 0x52
 1428 0122 01       		.uleb128 0x1
 1429 0123 B842     		.uleb128 0x2138
 1430 0125 0B       		.uleb128 0xb
 1431 0126 11       		.uleb128 0x11
 1432 0127 01       		.uleb128 0x1
 1433 0128 12       		.uleb128 0x12
 1434 0129 06       		.uleb128 0x6
 1435 012a 58       		.uleb128 0x58
 1436 012b 0B       		.uleb128 0xb
 1437 012c 59       		.uleb128 0x59
 1438 012d 0B       		.uleb128 0xb
 1439 012e 57       		.uleb128 0x57
 1440 012f 0B       		.uleb128 0xb
 1441 0130 00       		.byte	0
 1442 0131 00       		.byte	0
 1443 0132 14       		.uleb128 0x14
 1444 0133 0F       		.uleb128 0xf
 1445 0134 00       		.byte	0
 1446 0135 0B       		.uleb128 0xb
 1447 0136 0B       		.uleb128 0xb
 1448 0137 49       		.uleb128 0x49
 1449 0138 13       		.uleb128 0x13
 1450 0139 00       		.byte	0
 1451 013a 00       		.byte	0
 1452 013b 15       		.uleb128 0x15
 1453 013c 26       		.uleb128 0x26
 1454 013d 00       		.byte	0
 1455 013e 00       		.byte	0
 1456 013f 00       		.byte	0
 1457 0140 16       		.uleb128 0x16
 1458 0141 2E       		.uleb128 0x2e
 1459 0142 01       		.byte	0x1
 1460 0143 03       		.uleb128 0x3
 1461 0144 0E       		.uleb128 0xe
 1462 0145 3A       		.uleb128 0x3a
 1463 0146 0B       		.uleb128 0xb
 1464 0147 3B       		.uleb128 0x3b
 1465 0148 0B       		.uleb128 0xb
 1466 0149 39       		.uleb128 0x39
 1467 014a 0B       		.uleb128 0xb
 1468 014b 27       		.uleb128 0x27
 1469 014c 19       		.uleb128 0x19
 1470 014d 20       		.uleb128 0x20
 1471 014e 0B       		.uleb128 0xb
 1472 014f 01       		.uleb128 0x1
 1473 0150 13       		.uleb128 0x13
 1474 0151 00       		.byte	0
 1475 0152 00       		.byte	0
 1476 0153 17       		.uleb128 0x17
 1477 0154 05       		.uleb128 0x5
 1478 0155 00       		.byte	0
 1479 0156 03       		.uleb128 0x3
 1480 0157 0E       		.uleb128 0xe
 1481 0158 3A       		.uleb128 0x3a
 1482 0159 0B       		.uleb128 0xb
ARM GAS  /tmp/ccX0tJHP.s 			page 27


 1483 015a 3B       		.uleb128 0x3b
 1484 015b 0B       		.uleb128 0xb
 1485 015c 39       		.uleb128 0x39
 1486 015d 0B       		.uleb128 0xb
 1487 015e 49       		.uleb128 0x49
 1488 015f 13       		.uleb128 0x13
 1489 0160 00       		.byte	0
 1490 0161 00       		.byte	0
 1491 0162 18       		.uleb128 0x18
 1492 0163 2E       		.uleb128 0x2e
 1493 0164 00       		.byte	0
 1494 0165 03       		.uleb128 0x3
 1495 0166 0E       		.uleb128 0xe
 1496 0167 3A       		.uleb128 0x3a
 1497 0168 0B       		.uleb128 0xb
 1498 0169 3B       		.uleb128 0x3b
 1499 016a 0B       		.uleb128 0xb
 1500 016b 39       		.uleb128 0x39
 1501 016c 0B       		.uleb128 0xb
 1502 016d 27       		.uleb128 0x27
 1503 016e 19       		.uleb128 0x19
 1504 016f 20       		.uleb128 0x20
 1505 0170 0B       		.uleb128 0xb
 1506 0171 00       		.byte	0
 1507 0172 00       		.byte	0
 1508 0173 19       		.uleb128 0x19
 1509 0174 2E       		.uleb128 0x2e
 1510 0175 01       		.byte	0x1
 1511 0176 3F       		.uleb128 0x3f
 1512 0177 19       		.uleb128 0x19
 1513 0178 03       		.uleb128 0x3
 1514 0179 0E       		.uleb128 0xe
 1515 017a 3A       		.uleb128 0x3a
 1516 017b 0B       		.uleb128 0xb
 1517 017c 3B       		.uleb128 0x3b
 1518 017d 0B       		.uleb128 0xb
 1519 017e 39       		.uleb128 0x39
 1520 017f 0B       		.uleb128 0xb
 1521 0180 27       		.uleb128 0x27
 1522 0181 19       		.uleb128 0x19
 1523 0182 49       		.uleb128 0x49
 1524 0183 13       		.uleb128 0x13
 1525 0184 20       		.uleb128 0x20
 1526 0185 0B       		.uleb128 0xb
 1527 0186 01       		.uleb128 0x1
 1528 0187 13       		.uleb128 0x13
 1529 0188 00       		.byte	0
 1530 0189 00       		.byte	0
 1531 018a 1A       		.uleb128 0x1a
 1532 018b 05       		.uleb128 0x5
 1533 018c 00       		.byte	0
 1534 018d 03       		.uleb128 0x3
 1535 018e 08       		.uleb128 0x8
 1536 018f 3A       		.uleb128 0x3a
 1537 0190 0B       		.uleb128 0xb
 1538 0191 3B       		.uleb128 0x3b
 1539 0192 0B       		.uleb128 0xb
ARM GAS  /tmp/ccX0tJHP.s 			page 28


 1540 0193 39       		.uleb128 0x39
 1541 0194 0B       		.uleb128 0xb
 1542 0195 49       		.uleb128 0x49
 1543 0196 13       		.uleb128 0x13
 1544 0197 00       		.byte	0
 1545 0198 00       		.byte	0
 1546 0199 1B       		.uleb128 0x1b
 1547 019a 34       		.uleb128 0x34
 1548 019b 00       		.byte	0
 1549 019c 03       		.uleb128 0x3
 1550 019d 0E       		.uleb128 0xe
 1551 019e 3A       		.uleb128 0x3a
 1552 019f 0B       		.uleb128 0xb
 1553 01a0 3B       		.uleb128 0x3b
 1554 01a1 0B       		.uleb128 0xb
 1555 01a2 39       		.uleb128 0x39
 1556 01a3 0B       		.uleb128 0xb
 1557 01a4 49       		.uleb128 0x49
 1558 01a5 13       		.uleb128 0x13
 1559 01a6 00       		.byte	0
 1560 01a7 00       		.byte	0
 1561 01a8 1C       		.uleb128 0x1c
 1562 01a9 2E       		.uleb128 0x2e
 1563 01aa 01       		.byte	0x1
 1564 01ab 31       		.uleb128 0x31
 1565 01ac 13       		.uleb128 0x13
 1566 01ad 11       		.uleb128 0x11
 1567 01ae 01       		.uleb128 0x1
 1568 01af 12       		.uleb128 0x12
 1569 01b0 06       		.uleb128 0x6
 1570 01b1 40       		.uleb128 0x40
 1571 01b2 18       		.uleb128 0x18
 1572 01b3 9742     		.uleb128 0x2117
 1573 01b5 19       		.uleb128 0x19
 1574 01b6 01       		.uleb128 0x1
 1575 01b7 13       		.uleb128 0x13
 1576 01b8 00       		.byte	0
 1577 01b9 00       		.byte	0
 1578 01ba 1D       		.uleb128 0x1d
 1579 01bb 2E       		.uleb128 0x2e
 1580 01bc 00       		.byte	0
 1581 01bd 3F       		.uleb128 0x3f
 1582 01be 19       		.uleb128 0x19
 1583 01bf 3C       		.uleb128 0x3c
 1584 01c0 19       		.uleb128 0x19
 1585 01c1 6E       		.uleb128 0x6e
 1586 01c2 0E       		.uleb128 0xe
 1587 01c3 03       		.uleb128 0x3
 1588 01c4 0E       		.uleb128 0xe
 1589 01c5 00       		.byte	0
 1590 01c6 00       		.byte	0
 1591 01c7 00       		.byte	0
 1592              		.section	.debug_loc,"",%progbits
 1593              	.Ldebug_loc0:
 1594              	.LVUS11:
 1595 0000 00       		.uleb128 0
 1596 0001 00       		.uleb128 .LVU123
ARM GAS  /tmp/ccX0tJHP.s 			page 29


 1597 0002 00       		.uleb128 .LVU123
 1598 0003 00       		.uleb128 0
 1599              	.LLST11:
 1600 0004 00000000 		.4byte	.LVL25
 1601 0008 30000000 		.4byte	.LVL26
 1602 000c 0100     		.2byte	0x1
 1603 000e 50       		.byte	0x50
 1604 000f 30000000 		.4byte	.LVL26
 1605 0013 6C000000 		.4byte	.LFE8
 1606 0017 0400     		.2byte	0x4
 1607 0019 F3       		.byte	0xf3
 1608 001a 01       		.uleb128 0x1
 1609 001b 50       		.byte	0x50
 1610 001c 9F       		.byte	0x9f
 1611 001d 00000000 		.4byte	0
 1612 0021 00000000 		.4byte	0
 1613              	.LVUS12:
 1614 0025 00       		.uleb128 0
 1615 0026 00       		.uleb128 .LVU151
 1616 0027 00       		.uleb128 .LVU151
 1617 0028 00       		.uleb128 .LVU160
 1618 0029 00       		.uleb128 .LVU160
 1619 002a 00       		.uleb128 .LVU163
 1620 002b 00       		.uleb128 .LVU163
 1621 002c 00       		.uleb128 .LVU168
 1622 002d 00       		.uleb128 .LVU168
 1623 002e 00       		.uleb128 .LVU169
 1624 002f 00       		.uleb128 .LVU169
 1625 0030 00       		.uleb128 .LVU172
 1626 0031 00       		.uleb128 .LVU172
 1627 0032 00       		.uleb128 .LVU173
 1628 0033 00       		.uleb128 .LVU173
 1629 0034 00       		.uleb128 0
 1630              	.LLST12:
 1631 0035 00000000 		.4byte	.LVL28
 1632 0039 1E000000 		.4byte	.LVL31
 1633 003d 0100     		.2byte	0x1
 1634 003f 50       		.byte	0x50
 1635 0040 1E000000 		.4byte	.LVL31
 1636 0044 30000000 		.4byte	.LVL34
 1637 0048 0100     		.2byte	0x1
 1638 004a 52       		.byte	0x52
 1639 004b 30000000 		.4byte	.LVL34
 1640 004f 3C000000 		.4byte	.LVL35
 1641 0053 0400     		.2byte	0x4
 1642 0055 F3       		.byte	0xf3
 1643 0056 01       		.uleb128 0x1
 1644 0057 50       		.byte	0x50
 1645 0058 9F       		.byte	0x9f
 1646 0059 3C000000 		.4byte	.LVL35
 1647 005d 48000000 		.4byte	.LVL37
 1648 0061 0100     		.2byte	0x1
 1649 0063 50       		.byte	0x50
 1650 0064 48000000 		.4byte	.LVL37
 1651 0068 4A000000 		.4byte	.LVL38
 1652 006c 0100     		.2byte	0x1
 1653 006e 52       		.byte	0x52
ARM GAS  /tmp/ccX0tJHP.s 			page 30


 1654 006f 4A000000 		.4byte	.LVL38
 1655 0073 4E000000 		.4byte	.LVL40
 1656 0077 0100     		.2byte	0x1
 1657 0079 50       		.byte	0x50
 1658 007a 4E000000 		.4byte	.LVL40
 1659 007e 50000000 		.4byte	.LVL41
 1660 0082 0100     		.2byte	0x1
 1661 0084 52       		.byte	0x52
 1662 0085 50000000 		.4byte	.LVL41
 1663 0089 58000000 		.4byte	.LFE7
 1664 008d 0400     		.2byte	0x4
 1665 008f F3       		.byte	0xf3
 1666 0090 01       		.uleb128 0x1
 1667 0091 50       		.byte	0x50
 1668 0092 9F       		.byte	0x9f
 1669 0093 00000000 		.4byte	0
 1670 0097 00000000 		.4byte	0
 1671              	.LVUS13:
 1672 009b 01       		.uleb128 .LVU158
 1673 009c 00       		.uleb128 .LVU163
 1674 009d 00       		.uleb128 .LVU173
 1675 009e 00       		.uleb128 .LVU175
 1676              	.LLST13:
 1677 009f 2A000000 		.4byte	.LVL33
 1678 00a3 3B000000 		.4byte	.LVL35-1
 1679 00a7 0600     		.2byte	0x6
 1680 00a9 70       		.byte	0x70
 1681 00aa 00       		.sleb128 0
 1682 00ab 08       		.byte	0x8
 1683 00ac FF       		.byte	0xff
 1684 00ad 1A       		.byte	0x1a
 1685 00ae 9F       		.byte	0x9f
 1686 00af 50000000 		.4byte	.LVL41
 1687 00b3 53000000 		.4byte	.LVL42-1
 1688 00b7 0600     		.2byte	0x6
 1689 00b9 70       		.byte	0x70
 1690 00ba 00       		.sleb128 0
 1691 00bb 08       		.byte	0x8
 1692 00bc FF       		.byte	0xff
 1693 00bd 1A       		.byte	0x1a
 1694 00be 9F       		.byte	0x9f
 1695 00bf 00000000 		.4byte	0
 1696 00c3 00000000 		.4byte	0
 1697              	.LVUS14:
 1698 00c7 01       		.uleb128 .LVU141
 1699 00c8 00       		.uleb128 .LVU151
 1700 00c9 00       		.uleb128 .LVU151
 1701 00ca 01       		.uleb128 .LVU158
 1702 00cb 00       		.uleb128 .LVU163
 1703 00cc 00       		.uleb128 .LVU168
 1704 00cd 00       		.uleb128 .LVU168
 1705 00ce 00       		.uleb128 .LVU169
 1706 00cf 00       		.uleb128 .LVU169
 1707 00d0 00       		.uleb128 .LVU172
 1708 00d1 00       		.uleb128 .LVU172
 1709 00d2 00       		.uleb128 .LVU173
 1710              	.LLST14:
ARM GAS  /tmp/ccX0tJHP.s 			page 31


 1711 00d3 12000000 		.4byte	.LVL29
 1712 00d7 1E000000 		.4byte	.LVL31
 1713 00db 0100     		.2byte	0x1
 1714 00dd 50       		.byte	0x50
 1715 00de 1E000000 		.4byte	.LVL31
 1716 00e2 2A000000 		.4byte	.LVL33
 1717 00e6 0100     		.2byte	0x1
 1718 00e8 52       		.byte	0x52
 1719 00e9 3C000000 		.4byte	.LVL35
 1720 00ed 48000000 		.4byte	.LVL37
 1721 00f1 0100     		.2byte	0x1
 1722 00f3 50       		.byte	0x50
 1723 00f4 48000000 		.4byte	.LVL37
 1724 00f8 4A000000 		.4byte	.LVL38
 1725 00fc 0100     		.2byte	0x1
 1726 00fe 52       		.byte	0x52
 1727 00ff 4A000000 		.4byte	.LVL38
 1728 0103 4E000000 		.4byte	.LVL40
 1729 0107 0100     		.2byte	0x1
 1730 0109 50       		.byte	0x50
 1731 010a 4E000000 		.4byte	.LVL40
 1732 010e 50000000 		.4byte	.LVL41
 1733 0112 0100     		.2byte	0x1
 1734 0114 52       		.byte	0x52
 1735 0115 00000000 		.4byte	0
 1736 0119 00000000 		.4byte	0
 1737              	.LVUS15:
 1738 011d 03       		.uleb128 .LVU143
 1739 011e 00       		.uleb128 .LVU151
 1740 011f 00       		.uleb128 .LVU151
 1741 0120 01       		.uleb128 .LVU158
 1742 0121 00       		.uleb128 .LVU163
 1743 0122 00       		.uleb128 .LVU168
 1744 0123 00       		.uleb128 .LVU168
 1745 0124 00       		.uleb128 .LVU169
 1746 0125 00       		.uleb128 .LVU169
 1747 0126 00       		.uleb128 .LVU172
 1748 0127 00       		.uleb128 .LVU172
 1749 0128 00       		.uleb128 .LVU173
 1750              	.LLST15:
 1751 0129 12000000 		.4byte	.LVL29
 1752 012d 1E000000 		.4byte	.LVL31
 1753 0131 0100     		.2byte	0x1
 1754 0133 50       		.byte	0x50
 1755 0134 1E000000 		.4byte	.LVL31
 1756 0138 2A000000 		.4byte	.LVL33
 1757 013c 0100     		.2byte	0x1
 1758 013e 52       		.byte	0x52
 1759 013f 3C000000 		.4byte	.LVL35
 1760 0143 48000000 		.4byte	.LVL37
 1761 0147 0100     		.2byte	0x1
 1762 0149 50       		.byte	0x50
 1763 014a 48000000 		.4byte	.LVL37
 1764 014e 4A000000 		.4byte	.LVL38
 1765 0152 0100     		.2byte	0x1
 1766 0154 52       		.byte	0x52
 1767 0155 4A000000 		.4byte	.LVL38
ARM GAS  /tmp/ccX0tJHP.s 			page 32


 1768 0159 4E000000 		.4byte	.LVL40
 1769 015d 0100     		.2byte	0x1
 1770 015f 50       		.byte	0x50
 1771 0160 4E000000 		.4byte	.LVL40
 1772 0164 50000000 		.4byte	.LVL41
 1773 0168 0100     		.2byte	0x1
 1774 016a 52       		.byte	0x52
 1775 016b 00000000 		.4byte	0
 1776 016f 00000000 		.4byte	0
 1777              	.LVUS16:
 1778 0173 00       		.uleb128 .LVU151
 1779 0174 00       		.uleb128 .LVU156
 1780 0175 00       		.uleb128 .LVU157
 1781 0176 01       		.uleb128 .LVU158
 1782 0177 00       		.uleb128 .LVU168
 1783 0178 00       		.uleb128 .LVU169
 1784 0179 00       		.uleb128 .LVU172
 1785 017a 00       		.uleb128 .LVU173
 1786              	.LLST16:
 1787 017b 1E000000 		.4byte	.LVL31
 1788 017f 28000000 		.4byte	.LVL32
 1789 0183 0100     		.2byte	0x1
 1790 0185 50       		.byte	0x50
 1791 0186 2A000000 		.4byte	.LVL33
 1792 018a 2A000000 		.4byte	.LVL33
 1793 018e 0100     		.2byte	0x1
 1794 0190 50       		.byte	0x50
 1795 0191 48000000 		.4byte	.LVL37
 1796 0195 4A000000 		.4byte	.LVL38
 1797 0199 0100     		.2byte	0x1
 1798 019b 50       		.byte	0x50
 1799 019c 4E000000 		.4byte	.LVL40
 1800 01a0 50000000 		.4byte	.LVL41
 1801 01a4 0100     		.2byte	0x1
 1802 01a6 50       		.byte	0x50
 1803 01a7 00000000 		.4byte	0
 1804 01ab 00000000 		.4byte	0
 1805              	.LVUS17:
 1806 01af 00       		.uleb128 .LVU147
 1807 01b0 00       		.uleb128 .LVU151
 1808 01b1 00       		.uleb128 .LVU151
 1809 01b2 01       		.uleb128 .LVU158
 1810 01b3 00       		.uleb128 .LVU163
 1811 01b4 00       		.uleb128 .LVU167
 1812 01b5 00       		.uleb128 .LVU167
 1813 01b6 00       		.uleb128 .LVU168
 1814 01b7 00       		.uleb128 .LVU168
 1815 01b8 00       		.uleb128 .LVU169
 1816 01b9 00       		.uleb128 .LVU169
 1817 01ba 00       		.uleb128 .LVU171
 1818 01bb 00       		.uleb128 .LVU171
 1819 01bc 00       		.uleb128 .LVU172
 1820 01bd 00       		.uleb128 .LVU172
 1821 01be 00       		.uleb128 .LVU173
 1822              	.LLST17:
 1823 01bf 18000000 		.4byte	.LVL30
 1824 01c3 1E000000 		.4byte	.LVL31
ARM GAS  /tmp/ccX0tJHP.s 			page 33


 1825 01c7 0100     		.2byte	0x1
 1826 01c9 53       		.byte	0x53
 1827 01ca 1E000000 		.4byte	.LVL31
 1828 01ce 2A000000 		.4byte	.LVL33
 1829 01d2 0900     		.2byte	0x9
 1830 01d4 72       		.byte	0x72
 1831 01d5 00       		.sleb128 0
 1832 01d6 0C       		.byte	0xc
 1833 01d7 FFFFFF00 		.4byte	0xffffff
 1834 01db 1A       		.byte	0x1a
 1835 01dc 9F       		.byte	0x9f
 1836 01dd 3C000000 		.4byte	.LVL35
 1837 01e1 44000000 		.4byte	.LVL36
 1838 01e5 0100     		.2byte	0x1
 1839 01e7 53       		.byte	0x53
 1840 01e8 44000000 		.4byte	.LVL36
 1841 01ec 48000000 		.4byte	.LVL37
 1842 01f0 0900     		.2byte	0x9
 1843 01f2 70       		.byte	0x70
 1844 01f3 00       		.sleb128 0
 1845 01f4 0C       		.byte	0xc
 1846 01f5 FFFFFF00 		.4byte	0xffffff
 1847 01f9 1A       		.byte	0x1a
 1848 01fa 9F       		.byte	0x9f
 1849 01fb 48000000 		.4byte	.LVL37
 1850 01ff 4A000000 		.4byte	.LVL38
 1851 0203 0900     		.2byte	0x9
 1852 0205 72       		.byte	0x72
 1853 0206 00       		.sleb128 0
 1854 0207 0C       		.byte	0xc
 1855 0208 FFFFFF00 		.4byte	0xffffff
 1856 020c 1A       		.byte	0x1a
 1857 020d 9F       		.byte	0x9f
 1858 020e 4A000000 		.4byte	.LVL38
 1859 0212 4C000000 		.4byte	.LVL39
 1860 0216 0100     		.2byte	0x1
 1861 0218 53       		.byte	0x53
 1862 0219 4C000000 		.4byte	.LVL39
 1863 021d 4E000000 		.4byte	.LVL40
 1864 0221 0900     		.2byte	0x9
 1865 0223 70       		.byte	0x70
 1866 0224 00       		.sleb128 0
 1867 0225 0C       		.byte	0xc
 1868 0226 FFFFFF00 		.4byte	0xffffff
 1869 022a 1A       		.byte	0x1a
 1870 022b 9F       		.byte	0x9f
 1871 022c 4E000000 		.4byte	.LVL40
 1872 0230 50000000 		.4byte	.LVL41
 1873 0234 0900     		.2byte	0x9
 1874 0236 72       		.byte	0x72
 1875 0237 00       		.sleb128 0
 1876 0238 0C       		.byte	0xc
 1877 0239 FFFFFF00 		.4byte	0xffffff
 1878 023d 1A       		.byte	0x1a
 1879 023e 9F       		.byte	0x9f
 1880 023f 00000000 		.4byte	0
 1881 0243 00000000 		.4byte	0
ARM GAS  /tmp/ccX0tJHP.s 			page 34


 1882              	.LVUS4:
 1883 0247 00       		.uleb128 0
 1884 0248 00       		.uleb128 .LVU77
 1885 0249 00       		.uleb128 .LVU77
 1886 024a 00       		.uleb128 .LVU79
 1887 024b 00       		.uleb128 .LVU79
 1888 024c 00       		.uleb128 0
 1889              	.LLST4:
 1890 024d 00000000 		.4byte	.LVL17
 1891 0251 28000000 		.4byte	.LVL19
 1892 0255 0100     		.2byte	0x1
 1893 0257 50       		.byte	0x50
 1894 0258 28000000 		.4byte	.LVL19
 1895 025c 2A000000 		.4byte	.LVL20
 1896 0260 0300     		.2byte	0x3
 1897 0262 70       		.byte	0x70
 1898 0263 01       		.sleb128 1
 1899 0264 9F       		.byte	0x9f
 1900 0265 2A000000 		.4byte	.LVL20
 1901 0269 6C000000 		.4byte	.LFE6
 1902 026d 0400     		.2byte	0x4
 1903 026f F3       		.byte	0xf3
 1904 0270 01       		.uleb128 0x1
 1905 0271 50       		.byte	0x50
 1906 0272 9F       		.byte	0x9f
 1907 0273 00000000 		.4byte	0
 1908 0277 00000000 		.4byte	0
 1909              	.LVUS5:
 1910 027b 00       		.uleb128 0
 1911 027c 00       		.uleb128 .LVU79
 1912 027d 00       		.uleb128 .LVU79
 1913 027e 00       		.uleb128 0
 1914              	.LLST5:
 1915 027f 00000000 		.4byte	.LVL17
 1916 0283 2A000000 		.4byte	.LVL20
 1917 0287 0100     		.2byte	0x1
 1918 0289 51       		.byte	0x51
 1919 028a 2A000000 		.4byte	.LVL20
 1920 028e 6C000000 		.4byte	.LFE6
 1921 0292 0400     		.2byte	0x4
 1922 0294 F3       		.byte	0xf3
 1923 0295 01       		.uleb128 0x1
 1924 0296 51       		.byte	0x51
 1925 0297 9F       		.byte	0x9f
 1926 0298 00000000 		.4byte	0
 1927 029c 00000000 		.4byte	0
 1928              	.LVUS6:
 1929 02a0 00       		.uleb128 0
 1930 02a1 04       		.uleb128 .LVU75
 1931 02a2 04       		.uleb128 .LVU75
 1932 02a3 00       		.uleb128 .LVU79
 1933 02a4 00       		.uleb128 .LVU79
 1934 02a5 00       		.uleb128 .LVU98
 1935              	.LLST6:
 1936 02a6 00000000 		.4byte	.LVL17
 1937 02aa 20000000 		.4byte	.LVL18
 1938 02ae 0100     		.2byte	0x1
ARM GAS  /tmp/ccX0tJHP.s 			page 35


 1939 02b0 52       		.byte	0x52
 1940 02b1 20000000 		.4byte	.LVL18
 1941 02b5 2A000000 		.4byte	.LVL20
 1942 02b9 0300     		.2byte	0x3
 1943 02bb 72       		.byte	0x72
 1944 02bc 7F       		.sleb128 -1
 1945 02bd 9F       		.byte	0x9f
 1946 02be 2A000000 		.4byte	.LVL20
 1947 02c2 44000000 		.4byte	.LVL23
 1948 02c6 0600     		.2byte	0x6
 1949 02c8 F3       		.byte	0xf3
 1950 02c9 01       		.uleb128 0x1
 1951 02ca 52       		.byte	0x52
 1952 02cb 31       		.byte	0x31
 1953 02cc 1C       		.byte	0x1c
 1954 02cd 9F       		.byte	0x9f
 1955 02ce 00000000 		.4byte	0
 1956 02d2 00000000 		.4byte	0
 1957              	.LVUS7:
 1958 02d6 01       		.uleb128 .LVU72
 1959 02d7 02       		.uleb128 .LVU81
 1960 02d8 02       		.uleb128 .LVU81
 1961 02d9 00       		.uleb128 .LVU83
 1962 02da 00       		.uleb128 .LVU83
 1963 02db 00       		.uleb128 .LVU101
 1964              	.LLST7:
 1965 02dc 20000000 		.4byte	.LVL18
 1966 02e0 2A000000 		.4byte	.LVL20
 1967 02e4 0100     		.2byte	0x1
 1968 02e6 51       		.byte	0x51
 1969 02e7 2A000000 		.4byte	.LVL20
 1970 02eb 30000000 		.4byte	.LVL21
 1971 02ef 0300     		.2byte	0x3
 1972 02f1 71       		.byte	0x71
 1973 02f2 01       		.sleb128 1
 1974 02f3 9F       		.byte	0x9f
 1975 02f4 30000000 		.4byte	.LVL21
 1976 02f8 5F000000 		.4byte	.LVL24-1
 1977 02fc 0100     		.2byte	0x1
 1978 02fe 51       		.byte	0x51
 1979 02ff 00000000 		.4byte	0
 1980 0303 00000000 		.4byte	0
 1981              	.LVUS8:
 1982 0307 02       		.uleb128 .LVU73
 1983 0308 00       		.uleb128 .LVU77
 1984 0309 00       		.uleb128 .LVU77
 1985 030a 00       		.uleb128 .LVU79
 1986 030b 00       		.uleb128 .LVU79
 1987 030c 02       		.uleb128 .LVU81
 1988 030d 02       		.uleb128 .LVU81
 1989 030e 00       		.uleb128 .LVU98
 1990              	.LLST8:
 1991 030f 20000000 		.4byte	.LVL18
 1992 0313 28000000 		.4byte	.LVL19
 1993 0317 0100     		.2byte	0x1
 1994 0319 50       		.byte	0x50
 1995 031a 28000000 		.4byte	.LVL19
ARM GAS  /tmp/ccX0tJHP.s 			page 36


 1996 031e 2A000000 		.4byte	.LVL20
 1997 0322 0300     		.2byte	0x3
 1998 0324 70       		.byte	0x70
 1999 0325 01       		.sleb128 1
 2000 0326 9F       		.byte	0x9f
 2001 0327 2A000000 		.4byte	.LVL20
 2002 032b 2A000000 		.4byte	.LVL20
 2003 032f 0400     		.2byte	0x4
 2004 0331 F3       		.byte	0xf3
 2005 0332 01       		.uleb128 0x1
 2006 0333 50       		.byte	0x50
 2007 0334 9F       		.byte	0x9f
 2008 0335 2A000000 		.4byte	.LVL20
 2009 0339 44000000 		.4byte	.LVL23
 2010 033d 0600     		.2byte	0x6
 2011 033f F3       		.byte	0xf3
 2012 0340 01       		.uleb128 0x1
 2013 0341 50       		.byte	0x50
 2014 0342 23       		.byte	0x23
 2015 0343 01       		.uleb128 0x1
 2016 0344 9F       		.byte	0x9f
 2017 0345 00000000 		.4byte	0
 2018 0349 00000000 		.4byte	0
 2019              	.LVUS9:
 2020 034d 00       		.uleb128 .LVU83
 2021 034e 00       		.uleb128 .LVU95
 2022              	.LLST9:
 2023 034f 30000000 		.4byte	.LVL21
 2024 0353 40000000 		.4byte	.LVL22
 2025 0357 0100     		.2byte	0x1
 2026 0359 55       		.byte	0x55
 2027 035a 00000000 		.4byte	0
 2028 035e 00000000 		.4byte	0
 2029              	.LVUS10:
 2030 0362 00       		.uleb128 .LVU83
 2031 0363 00       		.uleb128 .LVU95
 2032              	.LLST10:
 2033 0364 30000000 		.4byte	.LVL21
 2034 0368 40000000 		.4byte	.LVL22
 2035 036c 0400     		.2byte	0x4
 2036 036e F3       		.byte	0xf3
 2037 036f 01       		.uleb128 0x1
 2038 0370 50       		.byte	0x50
 2039 0371 9F       		.byte	0x9f
 2040 0372 00000000 		.4byte	0
 2041 0376 00000000 		.4byte	0
 2042              	.LVUS0:
 2043 037a 00       		.uleb128 0
 2044 037b 00       		.uleb128 .LVU13
 2045 037c 00       		.uleb128 .LVU13
 2046 037d 00       		.uleb128 .LVU21
 2047 037e 00       		.uleb128 .LVU21
 2048 037f 00       		.uleb128 .LVU22
 2049 0380 00       		.uleb128 .LVU22
 2050 0381 00       		.uleb128 .LVU27
 2051 0382 00       		.uleb128 .LVU27
 2052 0383 00       		.uleb128 .LVU28
ARM GAS  /tmp/ccX0tJHP.s 			page 37


 2053 0384 00       		.uleb128 .LVU28
 2054 0385 00       		.uleb128 .LVU31
 2055 0386 00       		.uleb128 .LVU31
 2056 0387 00       		.uleb128 .LVU32
 2057 0388 00       		.uleb128 .LVU32
 2058 0389 00       		.uleb128 0
 2059              	.LLST0:
 2060 038a 00000000 		.4byte	.LVL0
 2061 038e 1E000000 		.4byte	.LVL3
 2062 0392 0100     		.2byte	0x1
 2063 0394 50       		.byte	0x50
 2064 0395 1E000000 		.4byte	.LVL3
 2065 0399 30000000 		.4byte	.LVL6
 2066 039d 0100     		.2byte	0x1
 2067 039f 52       		.byte	0x52
 2068 03a0 30000000 		.4byte	.LVL6
 2069 03a4 38000000 		.4byte	.LVL7
 2070 03a8 0400     		.2byte	0x4
 2071 03aa F3       		.byte	0xf3
 2072 03ab 01       		.uleb128 0x1
 2073 03ac 50       		.byte	0x50
 2074 03ad 9F       		.byte	0x9f
 2075 03ae 38000000 		.4byte	.LVL7
 2076 03b2 44000000 		.4byte	.LVL9
 2077 03b6 0100     		.2byte	0x1
 2078 03b8 50       		.byte	0x50
 2079 03b9 44000000 		.4byte	.LVL9
 2080 03bd 46000000 		.4byte	.LVL10
 2081 03c1 0100     		.2byte	0x1
 2082 03c3 52       		.byte	0x52
 2083 03c4 46000000 		.4byte	.LVL10
 2084 03c8 4A000000 		.4byte	.LVL12
 2085 03cc 0100     		.2byte	0x1
 2086 03ce 50       		.byte	0x50
 2087 03cf 4A000000 		.4byte	.LVL12
 2088 03d3 4C000000 		.4byte	.LVL13
 2089 03d7 0100     		.2byte	0x1
 2090 03d9 52       		.byte	0x52
 2091 03da 4C000000 		.4byte	.LVL13
 2092 03de 54000000 		.4byte	.LFE0
 2093 03e2 0400     		.2byte	0x4
 2094 03e4 F3       		.byte	0xf3
 2095 03e5 01       		.uleb128 0x1
 2096 03e6 50       		.byte	0x50
 2097 03e7 9F       		.byte	0x9f
 2098 03e8 00000000 		.4byte	0
 2099 03ec 00000000 		.4byte	0
 2100              	.LVUS1:
 2101 03f0 01       		.uleb128 .LVU5
 2102 03f1 00       		.uleb128 .LVU13
 2103 03f2 00       		.uleb128 .LVU13
 2104 03f3 00       		.uleb128 .LVU21
 2105 03f4 00       		.uleb128 .LVU21
 2106 03f5 00       		.uleb128 .LVU22
 2107 03f6 00       		.uleb128 .LVU22
 2108 03f7 00       		.uleb128 .LVU27
 2109 03f8 00       		.uleb128 .LVU27
ARM GAS  /tmp/ccX0tJHP.s 			page 38


 2110 03f9 00       		.uleb128 .LVU28
 2111 03fa 00       		.uleb128 .LVU28
 2112 03fb 00       		.uleb128 .LVU31
 2113 03fc 00       		.uleb128 .LVU31
 2114 03fd 00       		.uleb128 .LVU32
 2115 03fe 00       		.uleb128 .LVU32
 2116 03ff 00       		.uleb128 0
 2117              	.LLST1:
 2118 0400 12000000 		.4byte	.LVL1
 2119 0404 1E000000 		.4byte	.LVL3
 2120 0408 0100     		.2byte	0x1
 2121 040a 50       		.byte	0x50
 2122 040b 1E000000 		.4byte	.LVL3
 2123 040f 30000000 		.4byte	.LVL6
 2124 0413 0100     		.2byte	0x1
 2125 0415 52       		.byte	0x52
 2126 0416 30000000 		.4byte	.LVL6
 2127 041a 38000000 		.4byte	.LVL7
 2128 041e 0400     		.2byte	0x4
 2129 0420 F3       		.byte	0xf3
 2130 0421 01       		.uleb128 0x1
 2131 0422 50       		.byte	0x50
 2132 0423 9F       		.byte	0x9f
 2133 0424 38000000 		.4byte	.LVL7
 2134 0428 44000000 		.4byte	.LVL9
 2135 042c 0100     		.2byte	0x1
 2136 042e 50       		.byte	0x50
 2137 042f 44000000 		.4byte	.LVL9
 2138 0433 46000000 		.4byte	.LVL10
 2139 0437 0100     		.2byte	0x1
 2140 0439 52       		.byte	0x52
 2141 043a 46000000 		.4byte	.LVL10
 2142 043e 4A000000 		.4byte	.LVL12
 2143 0442 0100     		.2byte	0x1
 2144 0444 50       		.byte	0x50
 2145 0445 4A000000 		.4byte	.LVL12
 2146 0449 4C000000 		.4byte	.LVL13
 2147 044d 0100     		.2byte	0x1
 2148 044f 52       		.byte	0x52
 2149 0450 4C000000 		.4byte	.LVL13
 2150 0454 54000000 		.4byte	.LFE0
 2151 0458 0400     		.2byte	0x4
 2152 045a F3       		.byte	0xf3
 2153 045b 01       		.uleb128 0x1
 2154 045c 50       		.byte	0x50
 2155 045d 9F       		.byte	0x9f
 2156 045e 00000000 		.4byte	0
 2157 0462 00000000 		.4byte	0
 2158              	.LVUS2:
 2159 0466 00       		.uleb128 .LVU13
 2160 0467 00       		.uleb128 .LVU18
 2161 0468 00       		.uleb128 .LVU19
 2162 0469 00       		.uleb128 .LVU22
 2163 046a 00       		.uleb128 .LVU27
 2164 046b 00       		.uleb128 .LVU28
 2165 046c 00       		.uleb128 .LVU31
 2166 046d 00       		.uleb128 .LVU33
ARM GAS  /tmp/ccX0tJHP.s 			page 39


 2167              	.LLST2:
 2168 046e 1E000000 		.4byte	.LVL3
 2169 0472 28000000 		.4byte	.LVL4
 2170 0476 0100     		.2byte	0x1
 2171 0478 50       		.byte	0x50
 2172 0479 2A000000 		.4byte	.LVL5
 2173 047d 38000000 		.4byte	.LVL7
 2174 0481 0100     		.2byte	0x1
 2175 0483 50       		.byte	0x50
 2176 0484 44000000 		.4byte	.LVL9
 2177 0488 46000000 		.4byte	.LVL10
 2178 048c 0100     		.2byte	0x1
 2179 048e 50       		.byte	0x50
 2180 048f 4A000000 		.4byte	.LVL12
 2181 0493 4F000000 		.4byte	.LVL14-1
 2182 0497 0100     		.2byte	0x1
 2183 0499 50       		.byte	0x50
 2184 049a 00000000 		.4byte	0
 2185 049e 00000000 		.4byte	0
 2186              	.LVUS3:
 2187 04a2 00       		.uleb128 .LVU9
 2188 04a3 00       		.uleb128 .LVU13
 2189 04a4 00       		.uleb128 .LVU13
 2190 04a5 00       		.uleb128 .LVU21
 2191 04a6 00       		.uleb128 .LVU21
 2192 04a7 00       		.uleb128 .LVU22
 2193 04a8 00       		.uleb128 .LVU22
 2194 04a9 00       		.uleb128 .LVU26
 2195 04aa 00       		.uleb128 .LVU26
 2196 04ab 00       		.uleb128 .LVU27
 2197 04ac 00       		.uleb128 .LVU27
 2198 04ad 00       		.uleb128 .LVU28
 2199 04ae 00       		.uleb128 .LVU28
 2200 04af 00       		.uleb128 .LVU30
 2201 04b0 00       		.uleb128 .LVU30
 2202 04b1 00       		.uleb128 .LVU31
 2203 04b2 00       		.uleb128 .LVU31
 2204 04b3 00       		.uleb128 .LVU32
 2205 04b4 00       		.uleb128 .LVU32
 2206 04b5 00       		.uleb128 0
 2207              	.LLST3:
 2208 04b6 18000000 		.4byte	.LVL2
 2209 04ba 1E000000 		.4byte	.LVL3
 2210 04be 0100     		.2byte	0x1
 2211 04c0 53       		.byte	0x53
 2212 04c1 1E000000 		.4byte	.LVL3
 2213 04c5 30000000 		.4byte	.LVL6
 2214 04c9 0900     		.2byte	0x9
 2215 04cb 72       		.byte	0x72
 2216 04cc 00       		.sleb128 0
 2217 04cd 0C       		.byte	0xc
 2218 04ce FFFFFF00 		.4byte	0xffffff
 2219 04d2 1A       		.byte	0x1a
 2220 04d3 9F       		.byte	0x9f
 2221 04d4 30000000 		.4byte	.LVL6
 2222 04d8 38000000 		.4byte	.LVL7
 2223 04dc 0A00     		.2byte	0xa
ARM GAS  /tmp/ccX0tJHP.s 			page 40


 2224 04de F3       		.byte	0xf3
 2225 04df 01       		.uleb128 0x1
 2226 04e0 50       		.byte	0x50
 2227 04e1 0C       		.byte	0xc
 2228 04e2 FFFFFF00 		.4byte	0xffffff
 2229 04e6 1A       		.byte	0x1a
 2230 04e7 9F       		.byte	0x9f
 2231 04e8 38000000 		.4byte	.LVL7
 2232 04ec 40000000 		.4byte	.LVL8
 2233 04f0 0100     		.2byte	0x1
 2234 04f2 53       		.byte	0x53
 2235 04f3 40000000 		.4byte	.LVL8
 2236 04f7 44000000 		.4byte	.LVL9
 2237 04fb 0900     		.2byte	0x9
 2238 04fd 70       		.byte	0x70
 2239 04fe 00       		.sleb128 0
 2240 04ff 0C       		.byte	0xc
 2241 0500 FFFFFF00 		.4byte	0xffffff
 2242 0504 1A       		.byte	0x1a
 2243 0505 9F       		.byte	0x9f
 2244 0506 44000000 		.4byte	.LVL9
 2245 050a 46000000 		.4byte	.LVL10
 2246 050e 0900     		.2byte	0x9
 2247 0510 72       		.byte	0x72
 2248 0511 00       		.sleb128 0
 2249 0512 0C       		.byte	0xc
 2250 0513 FFFFFF00 		.4byte	0xffffff
 2251 0517 1A       		.byte	0x1a
 2252 0518 9F       		.byte	0x9f
 2253 0519 46000000 		.4byte	.LVL10
 2254 051d 48000000 		.4byte	.LVL11
 2255 0521 0100     		.2byte	0x1
 2256 0523 53       		.byte	0x53
 2257 0524 48000000 		.4byte	.LVL11
 2258 0528 4A000000 		.4byte	.LVL12
 2259 052c 0900     		.2byte	0x9
 2260 052e 70       		.byte	0x70
 2261 052f 00       		.sleb128 0
 2262 0530 0C       		.byte	0xc
 2263 0531 FFFFFF00 		.4byte	0xffffff
 2264 0535 1A       		.byte	0x1a
 2265 0536 9F       		.byte	0x9f
 2266 0537 4A000000 		.4byte	.LVL12
 2267 053b 4C000000 		.4byte	.LVL13
 2268 053f 0900     		.2byte	0x9
 2269 0541 72       		.byte	0x72
 2270 0542 00       		.sleb128 0
 2271 0543 0C       		.byte	0xc
 2272 0544 FFFFFF00 		.4byte	0xffffff
 2273 0548 1A       		.byte	0x1a
 2274 0549 9F       		.byte	0x9f
 2275 054a 4C000000 		.4byte	.LVL13
 2276 054e 54000000 		.4byte	.LFE0
 2277 0552 0A00     		.2byte	0xa
 2278 0554 F3       		.byte	0xf3
 2279 0555 01       		.uleb128 0x1
 2280 0556 50       		.byte	0x50
ARM GAS  /tmp/ccX0tJHP.s 			page 41


 2281 0557 0C       		.byte	0xc
 2282 0558 FFFFFF00 		.4byte	0xffffff
 2283 055c 1A       		.byte	0x1a
 2284 055d 9F       		.byte	0x9f
 2285 055e 00000000 		.4byte	0
 2286 0562 00000000 		.4byte	0
 2287              		.section	.debug_aranges,"",%progbits
 2288 0000 44000000 		.4byte	0x44
 2289 0004 0200     		.2byte	0x2
 2290 0006 00000000 		.4byte	.Ldebug_info0
 2291 000a 04       		.byte	0x4
 2292 000b 00       		.byte	0
 2293 000c 0000     		.2byte	0
 2294 000e 0000     		.2byte	0
 2295 0010 00000000 		.4byte	.LFB0
 2296 0014 54000000 		.4byte	.LFE0-.LFB0
 2297 0018 00000000 		.4byte	.LFB1
 2298 001c 34000000 		.4byte	.LFE1-.LFB1
 2299 0020 00000000 		.4byte	.LFB2
 2300 0024 48000000 		.4byte	.LFE2-.LFB2
 2301 0028 00000000 		.4byte	.LFB6
 2302 002c 6C000000 		.4byte	.LFE6-.LFB6
 2303 0030 00000000 		.4byte	.LFB8
 2304 0034 6C000000 		.4byte	.LFE8-.LFB8
 2305 0038 00000000 		.4byte	.LFB7
 2306 003c 58000000 		.4byte	.LFE7-.LFB7
 2307 0040 00000000 		.4byte	0
 2308 0044 00000000 		.4byte	0
 2309              		.section	.debug_ranges,"",%progbits
 2310              	.Ldebug_ranges0:
 2311 0000 04000000 		.4byte	.LBB20
 2312 0004 06000000 		.4byte	.LBE20
 2313 0008 10000000 		.4byte	.LBB23
 2314 000c 16000000 		.4byte	.LBE23
 2315 0010 00000000 		.4byte	0
 2316 0014 00000000 		.4byte	0
 2317 0018 22000000 		.4byte	.LBB26
 2318 001c 2A000000 		.4byte	.LBE26
 2319 0020 2A000000 		.4byte	.LBB34
 2320 0024 2C000000 		.4byte	.LBE34
 2321 0028 30000000 		.4byte	.LBB35
 2322 002c 40000000 		.4byte	.LBE35
 2323 0030 00000000 		.4byte	0
 2324 0034 00000000 		.4byte	0
 2325 0038 22000000 		.4byte	.LBB28
 2326 003c 28000000 		.4byte	.LBE28
 2327 0040 3A000000 		.4byte	.LBB31
 2328 0044 40000000 		.4byte	.LBE31
 2329 0048 00000000 		.4byte	0
 2330 004c 00000000 		.4byte	0
 2331 0050 04000000 		.4byte	.LBB36
 2332 0054 06000000 		.4byte	.LBE36
 2333 0058 12000000 		.4byte	.LBB42
 2334 005c 1A000000 		.4byte	.LBE42
 2335 0060 00000000 		.4byte	0
 2336 0064 00000000 		.4byte	0
 2337 0068 06000000 		.4byte	.LBB39
ARM GAS  /tmp/ccX0tJHP.s 			page 42


 2338 006c 08000000 		.4byte	.LBE39
 2339 0070 1A000000 		.4byte	.LBB43
 2340 0074 20000000 		.4byte	.LBE43
 2341 0078 00000000 		.4byte	0
 2342 007c 00000000 		.4byte	0
 2343 0080 22000000 		.4byte	.LBB44
 2344 0084 24000000 		.4byte	.LBE44
 2345 0088 46000000 		.4byte	.LBB47
 2346 008c 4C000000 		.4byte	.LBE47
 2347 0090 00000000 		.4byte	0
 2348 0094 00000000 		.4byte	0
 2349 0098 06000000 		.4byte	.LBB48
 2350 009c 0A000000 		.4byte	.LBE48
 2351 00a0 12000000 		.4byte	.LBB54
 2352 00a4 12000000 		.4byte	.LBE54
 2353 00a8 14000000 		.4byte	.LBB55
 2354 00ac 22000000 		.4byte	.LBE55
 2355 00b0 24000000 		.4byte	.LBB56
 2356 00b4 2A000000 		.4byte	.LBE56
 2357 00b8 3C000000 		.4byte	.LBB57
 2358 00bc 50000000 		.4byte	.LBE57
 2359 00c0 00000000 		.4byte	0
 2360 00c4 00000000 		.4byte	0
 2361 00c8 00000000 		.4byte	.LFB0
 2362 00cc 54000000 		.4byte	.LFE0
 2363 00d0 00000000 		.4byte	.LFB1
 2364 00d4 34000000 		.4byte	.LFE1
 2365 00d8 00000000 		.4byte	.LFB2
 2366 00dc 48000000 		.4byte	.LFE2
 2367 00e0 00000000 		.4byte	.LFB6
 2368 00e4 6C000000 		.4byte	.LFE6
 2369 00e8 00000000 		.4byte	.LFB8
 2370 00ec 6C000000 		.4byte	.LFE8
 2371 00f0 00000000 		.4byte	.LFB7
 2372 00f4 58000000 		.4byte	.LFE7
 2373 00f8 00000000 		.4byte	0
 2374 00fc 00000000 		.4byte	0
 2375              		.section	.debug_line,"",%progbits
 2376              	.Ldebug_line0:
 2377 0000 33030000 		.section	.debug_str,"MS",%progbits,1
 2377      03006C00 
 2377      00000201 
 2377      FB0E0D00 
 2377      01010101 
 2378              	.LASF11:
 2379 0000 73697A65 		.ascii	"size_t\000"
 2379      5F7400
 2380              	.LASF29:
 2381 0007 666C6173 		.ascii	"flash_write_byte\000"
 2381      685F7772 
 2381      6974655F 
 2381      62797465 
 2381      00
 2382              	.LASF21:
 2383 0018 666C6173 		.ascii	"flash_wait_while_busy\000"
 2383      685F7761 
 2383      69745F77 
ARM GAS  /tmp/ccX0tJHP.s 			page 43


 2383      68696C65 
 2383      5F627573 
 2384              	.LASF15:
 2385 002e 73656374 		.ascii	"sector\000"
 2385      6F7200
 2386              	.LASF14:
 2387 0035 666C6173 		.ascii	"flash_sector_erase\000"
 2387      685F7365 
 2387      63746F72 
 2387      5F657261 
 2387      736500
 2388              	.LASF6:
 2389 0048 75696E74 		.ascii	"uint8_t\000"
 2389      385F7400 
 2390              	.LASF30:
 2391 0050 666C6173 		.ascii	"flash_addr_to_sector\000"
 2391      685F6164 
 2391      64725F74 
 2391      6F5F7365 
 2391      63746F72 
 2392              	.LASF20:
 2393 0065 62797465 		.ascii	"byte\000"
 2393      00
 2394              	.LASF16:
 2395 006a 61646472 		.ascii	"addr\000"
 2395      00
 2396              	.LASF18:
 2397 006f 64617461 		.ascii	"data\000"
 2397      00
 2398              	.LASF4:
 2399 0074 756E7369 		.ascii	"unsigned char\000"
 2399      676E6564 
 2399      20636861 
 2399      7200
 2400              	.LASF8:
 2401 0082 6C6F6E67 		.ascii	"long unsigned int\000"
 2401      20756E73 
 2401      69676E65 
 2401      6420696E 
 2401      7400
 2402              	.LASF5:
 2403 0094 73686F72 		.ascii	"short unsigned int\000"
 2403      7420756E 
 2403      7369676E 
 2403      65642069 
 2403      6E7400
 2404              	.LASF24:
 2405 00a7 666C6173 		.ascii	"flash_lock\000"
 2405      685F6C6F 
 2405      636B00
 2406              	.LASF31:
 2407 00b2 5F5F7374 		.ascii	"__stack_chk_fail\000"
 2407      61636B5F 
 2407      63686B5F 
 2407      6661696C 
 2407      00
 2408              	.LASF22:
ARM GAS  /tmp/ccX0tJHP.s 			page 44


 2409 00c3 666C6173 		.ascii	"flash_set_parallelism_8x\000"
 2409      685F7365 
 2409      745F7061 
 2409      72616C6C 
 2409      656C6973 
 2410              	.LASF17:
 2411 00dc 666C6173 		.ascii	"flash_write\000"
 2411      685F7772 
 2411      69746500 
 2412              	.LASF10:
 2413 00e8 756E7369 		.ascii	"unsigned int\000"
 2413      676E6564 
 2413      20696E74 
 2413      00
 2414              	.LASF9:
 2415 00f5 6C6F6E67 		.ascii	"long long unsigned int\000"
 2415      206C6F6E 
 2415      6720756E 
 2415      7369676E 
 2415      65642069 
 2416              	.LASF27:
 2417 010c 2E2F2F73 		.ascii	".//src/flash/flash.c\000"
 2417      72632F66 
 2417      6C617368 
 2417      2F666C61 
 2417      73682E63 
 2418              	.LASF3:
 2419 0121 6C6F6E67 		.ascii	"long long int\000"
 2419      206C6F6E 
 2419      6720696E 
 2419      7400
 2420              	.LASF28:
 2421 012f 2F686F6D 		.ascii	"/home/olof/Documents/MICRO-315/micro-315/tp4/lib/e-"
 2421      652F6F6C 
 2421      6F662F44 
 2421      6F63756D 
 2421      656E7473 
 2422 0162 7075636B 		.ascii	"puck2_main-processor\000"
 2422      325F6D61 
 2422      696E2D70 
 2422      726F6365 
 2422      73736F72 
 2423              	.LASF25:
 2424 0177 6F666673 		.ascii	"offset\000"
 2424      657400
 2425              	.LASF1:
 2426 017e 73686F72 		.ascii	"short int\000"
 2426      7420696E 
 2426      7400
 2427              	.LASF19:
 2428 0188 666C6173 		.ascii	"flash\000"
 2428      6800
 2429              	.LASF13:
 2430 018e 666C6173 		.ascii	"flash_sector_erase_number\000"
 2430      685F7365 
 2430      63746F72 
 2430      5F657261 
ARM GAS  /tmp/ccX0tJHP.s 			page 45


 2430      73655F6E 
 2431              	.LASF7:
 2432 01a8 75696E74 		.ascii	"uint32_t\000"
 2432      33325F74 
 2432      00
 2433              	.LASF2:
 2434 01b1 6C6F6E67 		.ascii	"long int\000"
 2434      20696E74 
 2434      00
 2435              	.LASF12:
 2436 01ba 6C6F6E67 		.ascii	"long double\000"
 2436      20646F75 
 2436      626C6500 
 2437              	.LASF0:
 2438 01c6 7369676E 		.ascii	"signed char\000"
 2438      65642063 
 2438      68617200 
 2439              	.LASF26:
 2440 01d2 474E5520 		.ascii	"GNU C17 9.2.1 20191025 (release) [ARM/arm-9-branch "
 2440      43313720 
 2440      392E322E 
 2440      31203230 
 2440      31393130 
 2441 0205 72657669 		.ascii	"revision 277599] -mcpu=cortex-m4 -mfloat-abi=hard -"
 2441      73696F6E 
 2441      20323737 
 2441      3539395D 
 2441      202D6D63 
 2442 0238 6D667075 		.ascii	"mfpu=fpv4-sp-d16 -mno-thumb-interwork -mthumb -marc"
 2442      3D667076 
 2442      342D7370 
 2442      2D643136 
 2442      202D6D6E 
 2443 026b 683D6172 		.ascii	"h=armv7e-m+fp -ggdb -O2 -fomit-frame-pointer -falig"
 2443      6D763765 
 2443      2D6D2B66 
 2443      70202D67 
 2443      67646220 
 2444 029e 6E2D6675 		.ascii	"n-functions=16 -fno-strict-aliasing -fstack-protect"
 2444      6E637469 
 2444      6F6E733D 
 2444      3136202D 
 2444      666E6F2D 
 2445 02d1 6F722D61 		.ascii	"or-all -ffunction-sections -fdata-sections -fno-com"
 2445      6C6C202D 
 2445      6666756E 
 2445      6374696F 
 2445      6E2D7365 
 2446 0304 6D6F6E20 		.ascii	"mon -fsingle-precision-constant\000"
 2446      2D667369 
 2446      6E676C65 
 2446      2D707265 
 2446      63697369 
 2447              	.LASF23:
 2448 0324 666C6173 		.ascii	"flash_unlock\000"
 2448      685F756E 
 2448      6C6F636B 
ARM GAS  /tmp/ccX0tJHP.s 			page 46


 2448      00
 2449              		.ident	"GCC: (15:9-2019-q4-0ubuntu1) 9.2.1 20191025 (release) [ARM/arm-9-branch revision 277599]"
ARM GAS  /tmp/ccX0tJHP.s 			page 47


DEFINED SYMBOLS
                            *ABS*:0000000000000000 flash.c
     /tmp/ccX0tJHP.s:18     .rodata.flash_addr_to_sector.cst4:0000000000000000 $d
     /tmp/ccX0tJHP.s:22     .text.flash_addr_to_sector:0000000000000000 $t
     /tmp/ccX0tJHP.s:31     .text.flash_addr_to_sector:0000000000000000 flash_addr_to_sector
     /tmp/ccX0tJHP.s:132    .text.flash_addr_to_sector:0000000000000050 $d
     /tmp/ccX0tJHP.s:137    .rodata.flash_lock.cst4:0000000000000000 $d
     /tmp/ccX0tJHP.s:141    .text.flash_lock:0000000000000000 $t
     /tmp/ccX0tJHP.s:149    .text.flash_lock:0000000000000000 flash_lock
     /tmp/ccX0tJHP.s:191    .text.flash_lock:000000000000002c $d
     /tmp/ccX0tJHP.s:197    .rodata.flash_unlock.cst4:0000000000000000 $d
     /tmp/ccX0tJHP.s:201    .text.flash_unlock:0000000000000000 $t
     /tmp/ccX0tJHP.s:209    .text.flash_unlock:0000000000000000 flash_unlock
     /tmp/ccX0tJHP.s:264    .text.flash_unlock:0000000000000034 $d
     /tmp/ccX0tJHP.s:273    .rodata.flash_write.cst4:0000000000000000 $d
     /tmp/ccX0tJHP.s:277    .text.flash_write:0000000000000000 $t
     /tmp/ccX0tJHP.s:285    .text.flash_write:0000000000000000 flash_write
     /tmp/ccX0tJHP.s:440    .text.flash_write:0000000000000060 $d
     /tmp/ccX0tJHP.s:447    .rodata.flash_sector_erase_number.cst4:0000000000000000 $d
     /tmp/ccX0tJHP.s:451    .text.flash_sector_erase_number:0000000000000000 $t
     /tmp/ccX0tJHP.s:459    .text.flash_sector_erase_number:0000000000000000 flash_sector_erase_number
     /tmp/ccX0tJHP.s:581    .text.flash_sector_erase_number:0000000000000060 $d
     /tmp/ccX0tJHP.s:588    .rodata.flash_sector_erase.cst4:0000000000000000 $d
     /tmp/ccX0tJHP.s:592    .text.flash_sector_erase:0000000000000000 $t
     /tmp/ccX0tJHP.s:600    .text.flash_sector_erase:0000000000000000 flash_sector_erase
     /tmp/ccX0tJHP.s:730    .text.flash_sector_erase:0000000000000054 $d

UNDEFINED SYMBOLS
__stack_chk_guard
__stack_chk_fail
