ARM GAS  /tmp/ccG9euUV.s 			page 1


   1              		.cpu cortex-m4
   2              		.eabi_attribute 27, 1
   3              		.eabi_attribute 28, 1
   4              		.eabi_attribute 20, 1
   5              		.eabi_attribute 21, 1
   6              		.eabi_attribute 23, 3
   7              		.eabi_attribute 24, 1
   8              		.eabi_attribute 25, 1
   9              		.eabi_attribute 26, 1
  10              		.eabi_attribute 30, 2
  11              		.eabi_attribute 34, 1
  12              		.eabi_attribute 18, 4
  13              		.file	"gpt.c"
  14              		.text
  15              	.Ltext0:
  16              		.cfi_sections	.debug_frame
  17              		.section	.rodata.gptInit.cst4,"aM",%progbits,4
  18              		.align	2
  19              	.LC0:
  20 0000 00000000 		.word	__stack_chk_guard
  21              		.section	.text.gptInit,"ax",%progbits
  22              		.align	1
  23              		.p2align 4,,15
  24              		.global	gptInit
  25              		.arch armv7e-m
  26              		.syntax unified
  27              		.thumb
  28              		.thumb_func
  29              		.fpu fpv4-sp-d16
  30              		.type	gptInit, %function
  31              	gptInit:
  32              	.LFB256:
  33              		.file 1 ".//ChibiOS//os/hal/src/gpt.c"
  34              		.loc 1 56 20 view -0
  35              		.cfi_startproc
  36              		@ args = 0, pretend = 0, frame = 8
  37              		@ frame_needed = 0, uses_anonymous_args = 0
  38 0000 00B5     		push	{lr}
  39              		.cfi_def_cfa_offset 4
  40              		.cfi_offset 14, -4
  41 0002 094B     		ldr	r3, .L7
  42 0004 83B0     		sub	sp, sp, #12
  43              		.cfi_def_cfa_offset 16
  44              		.loc 1 56 20 is_stmt 0 view .LVU1
  45 0006 1B68     		ldr	r3, [r3]
  46 0008 0193     		str	r3, [sp, #4]
  47 000a 4FF00003 		mov	r3,#0
  48              		.loc 1 58 3 is_stmt 1 view .LVU2
  49 000e 064B     		ldr	r3, .L7
  50 0010 1A68     		ldr	r2, [r3]
  51 0012 019B     		ldr	r3, [sp, #4]
  52 0014 5A40     		eors	r2, r3, r2
  53 0016 04D1     		bne	.L6
  54              		.loc 1 59 1 is_stmt 0 view .LVU3
  55 0018 03B0     		add	sp, sp, #12
  56              		.cfi_remember_state
  57              		.cfi_def_cfa_offset 4
ARM GAS  /tmp/ccG9euUV.s 			page 2


  58              		@ sp needed
  59 001a 5DF804EB 		ldr	lr, [sp], #4
  60              		.cfi_restore 14
  61              		.cfi_def_cfa_offset 0
  62              		.loc 1 58 3 view .LVU4
  63 001e FFF7FEBF 		b	gpt_lld_init
  64              	.LVL0:
  65              	.L6:
  66              		.cfi_restore_state
  67 0022 FFF7FEFF 		bl	__stack_chk_fail
  68              	.LVL1:
  69              	.L8:
  70 0026 00BF     		.align	2
  71              	.L7:
  72 0028 00000000 		.word	.LC0
  73              		.cfi_endproc
  74              	.LFE256:
  75              		.size	gptInit, .-gptInit
  76              		.section	.rodata.gptObjectInit.cst4,"aM",%progbits,4
  77              		.align	2
  78              	.LC1:
  79 0000 00000000 		.word	__stack_chk_guard
  80              		.section	.text.gptObjectInit,"ax",%progbits
  81              		.align	1
  82              		.p2align 4,,15
  83              		.global	gptObjectInit
  84              		.syntax unified
  85              		.thumb
  86              		.thumb_func
  87              		.fpu fpv4-sp-d16
  88              		.type	gptObjectInit, %function
  89              	gptObjectInit:
  90              	.LVL2:
  91              	.LFB257:
  92              		.loc 1 68 37 is_stmt 1 view -0
  93              		.cfi_startproc
  94              		@ args = 0, pretend = 0, frame = 8
  95              		@ frame_needed = 0, uses_anonymous_args = 0
  96              		.loc 1 68 37 is_stmt 0 view .LVU6
  97 0000 00B5     		push	{lr}
  98              		.cfi_def_cfa_offset 4
  99              		.cfi_offset 14, -4
 100 0002 0A4B     		ldr	r3, .L13
 101 0004 83B0     		sub	sp, sp, #12
 102              		.cfi_def_cfa_offset 16
 103              		.loc 1 68 37 view .LVU7
 104 0006 1B68     		ldr	r3, [r3]
 105 0008 0193     		str	r3, [sp, #4]
 106 000a 4FF00003 		mov	r3,#0
 107              		.loc 1 70 3 is_stmt 1 view .LVU8
 108              		.loc 1 71 16 is_stmt 0 view .LVU9
 109 000e 0023     		movs	r3, #0
 110              		.loc 1 70 16 view .LVU10
 111 0010 0122     		movs	r2, #1
 112              		.loc 1 71 16 view .LVU11
 113 0012 4360     		str	r3, [r0, #4]
 114              		.loc 1 72 1 view .LVU12
ARM GAS  /tmp/ccG9euUV.s 			page 3


 115 0014 054B     		ldr	r3, .L13
 116              		.loc 1 70 16 view .LVU13
 117 0016 0270     		strb	r2, [r0]
 118              		.loc 1 71 3 is_stmt 1 view .LVU14
 119              		.loc 1 72 1 is_stmt 0 view .LVU15
 120 0018 1A68     		ldr	r2, [r3]
 121 001a 019B     		ldr	r3, [sp, #4]
 122 001c 5A40     		eors	r2, r3, r2
 123 001e 02D1     		bne	.L12
 124 0020 03B0     		add	sp, sp, #12
 125              		.cfi_remember_state
 126              		.cfi_def_cfa_offset 4
 127              		@ sp needed
 128 0022 5DF804FB 		ldr	pc, [sp], #4
 129              	.L12:
 130              		.cfi_restore_state
 131 0026 FFF7FEFF 		bl	__stack_chk_fail
 132              	.LVL3:
 133              	.L14:
 134              		.loc 1 72 1 view .LVU16
 135 002a 00BF     		.align	2
 136              	.L13:
 137 002c 00000000 		.word	.LC1
 138              		.cfi_endproc
 139              	.LFE257:
 140              		.size	gptObjectInit, .-gptObjectInit
 141              		.section	.rodata.gptStart.cst4,"aM",%progbits,4
 142              		.align	2
 143              	.LC2:
 144 0000 00000000 		.word	__stack_chk_guard
 145              		.section	.text.gptStart,"ax",%progbits
 146              		.align	1
 147              		.p2align 4,,15
 148              		.global	gptStart
 149              		.syntax unified
 150              		.thumb
 151              		.thumb_func
 152              		.fpu fpv4-sp-d16
 153              		.type	gptStart, %function
 154              	gptStart:
 155              	.LVL4:
 156              	.LFB258:
 157              		.loc 1 82 57 is_stmt 1 view -0
 158              		.cfi_startproc
 159              		@ args = 0, pretend = 0, frame = 8
 160              		@ frame_needed = 0, uses_anonymous_args = 0
 161              		.loc 1 82 57 is_stmt 0 view .LVU18
 162 0000 30B5     		push	{r4, r5, lr}
 163              		.cfi_def_cfa_offset 12
 164              		.cfi_offset 4, -12
 165              		.cfi_offset 5, -8
 166              		.cfi_offset 14, -4
 167 0002 1F4B     		ldr	r3, .L27
 168 0004 83B0     		sub	sp, sp, #12
 169              		.cfi_def_cfa_offset 24
 170              		.loc 1 82 57 view .LVU19
 171 0006 0D46     		mov	r5, r1
ARM GAS  /tmp/ccG9euUV.s 			page 4


 172 0008 1B68     		ldr	r3, [r3]
 173 000a 0193     		str	r3, [sp, #4]
 174 000c 4FF00003 		mov	r3,#0
 175              		.loc 1 84 3 is_stmt 1 view .LVU20
 176              		.loc 1 84 3 view .LVU21
 177              		.loc 1 84 3 view .LVU22
 178 0010 0446     		mov	r4, r0
 179 0012 78B3     		cbz	r0, .L16
 180              		.loc 1 84 3 is_stmt 0 discriminator 4 view .LVU23
 181 0014 71B3     		cbz	r1, .L16
 182              	.LVL5:
 183              	.L17:
 184              		.loc 1 84 3 is_stmt 1 discriminator 7 view .LVU24
 185              		.loc 1 86 3 discriminator 7 view .LVU25
 186              	.LBB86:
 187              	.LBI86:
 188              		.file 2 ".//ChibiOS//os/hal/osal/rt/osal.h"
 189              		.loc 2 445 20 discriminator 7 view .LVU26
 190              	.LBE86:
 191              		.loc 2 447 3 discriminator 7 view .LVU27
 192              	.LBB95:
 193              	.LBB87:
 194              	.LBI87:
 195              		.file 3 ".//ChibiOS//os/rt/include/chsys.h"
 196              		.loc 3 346 20 discriminator 7 view .LVU28
 197              	.LBB88:
 198              		.loc 3 348 3 discriminator 7 view .LVU29
 199              	.LBB89:
 200              	.LBI89:
 201              		.file 4 ".//ChibiOS//os/rt/ports/ARMCMx/chcore_v7m.h"
 202              		.loc 4 444 20 discriminator 7 view .LVU30
 203              	.LBE89:
 204              	.LBE88:
 205              	.LBE87:
 206              	.LBE95:
 207              		.loc 4 447 3 discriminator 7 view .LVU31
 208              	.LBB96:
 209              	.LBB94:
 210              	.LBB93:
 211              	.LBB92:
 212              	.LBB90:
 213              	.LBI90:
 214              		.file 5 ".//ChibiOS//os/ext/CMSIS/include/core_cmFunc.h"
 215              		.loc 5 544 57 discriminator 7 view .LVU32
 216              	.LBB91:
 217              		.loc 5 546 3 discriminator 7 view .LVU33
 218 0016 2023     		movs	r3, #32
 219              		.syntax unified
 220              	@ 546 ".//ChibiOS//os/ext/CMSIS/include/core_cmFunc.h" 1
 221 0018 83F31188 		MSR basepri, r3
 222              	@ 0 "" 2
 223              	.LVL6:
 224              		.loc 5 546 3 is_stmt 0 discriminator 7 view .LVU34
 225              		.thumb
 226              		.syntax unified
 227              	.LBE91:
 228              	.LBE90:
ARM GAS  /tmp/ccG9euUV.s 			page 5


 229              	.LBE92:
 230              		.loc 3 349 3 is_stmt 1 discriminator 7 view .LVU35
 231 001c FFF7FEFF 		bl	_stats_start_measure_crit_thd
 232              	.LVL7:
 233              		.loc 3 350 3 discriminator 7 view .LVU36
 234 0020 FFF7FEFF 		bl	_dbg_check_lock
 235              	.LVL8:
 236              	.LBE93:
 237              	.LBE94:
 238              	.LBE96:
 239              		.loc 1 87 3 discriminator 7 view .LVU37
 240              		.loc 1 87 3 discriminator 7 view .LVU38
 241              		.loc 1 87 3 discriminator 7 view .LVU39
 242 0024 2378     		ldrb	r3, [r4]	@ zero_extendqisi2
 243 0026 013B     		subs	r3, r3, #1
 244 0028 012B     		cmp	r3, #1
 245 002a 02D9     		bls	.L18
 246              		.loc 1 87 3 discriminator 3 view .LVU40
 247 002c 1548     		ldr	r0, .L27+4
 248 002e FFF7FEFF 		bl	chSysHalt
 249              	.LVL9:
 250              	.L18:
 251              		.loc 1 87 3 discriminator 5 view .LVU41
 252              		.loc 1 89 3 discriminator 5 view .LVU42
 253              		.loc 1 90 3 is_stmt 0 discriminator 5 view .LVU43
 254 0032 2046     		mov	r0, r4
 255              		.loc 1 89 16 discriminator 5 view .LVU44
 256 0034 6560     		str	r5, [r4, #4]
 257              		.loc 1 90 3 is_stmt 1 discriminator 5 view .LVU45
 258 0036 FFF7FEFF 		bl	gpt_lld_start
 259              	.LVL10:
 260              		.loc 1 91 3 discriminator 5 view .LVU46
 261              		.loc 1 91 15 is_stmt 0 discriminator 5 view .LVU47
 262 003a 0223     		movs	r3, #2
 263 003c 2370     		strb	r3, [r4]
 264              		.loc 1 92 3 is_stmt 1 discriminator 5 view .LVU48
 265              	.LBB97:
 266              	.LBI97:
 267              		.loc 2 456 20 discriminator 5 view .LVU49
 268              	.LBE97:
 269              		.loc 2 458 3 discriminator 5 view .LVU50
 270              	.LBB108:
 271              	.LBB98:
 272              	.LBI98:
 273              		.loc 3 358 20 discriminator 5 view .LVU51
 274              	.LBB99:
 275              		.loc 3 360 3 discriminator 5 view .LVU52
 276 003e FFF7FEFF 		bl	_dbg_check_unlock
 277              	.LVL11:
 278              		.loc 3 361 3 discriminator 5 view .LVU53
 279 0042 FFF7FEFF 		bl	_stats_stop_measure_crit_thd
 280              	.LVL12:
 281              		.loc 3 367 3 discriminator 5 view .LVU54
 282              		.loc 3 367 3 discriminator 5 view .LVU55
 283              		.loc 3 367 3 discriminator 5 view .LVU56
 284 0046 104B     		ldr	r3, .L27+8
 285 0048 1A68     		ldr	r2, [r3]
ARM GAS  /tmp/ccG9euUV.s 			page 6


 286 004a 9A42     		cmp	r2, r3
 287 004c 04D0     		beq	.L19
 288              		.loc 3 367 3 is_stmt 0 view .LVU57
 289 004e 9969     		ldr	r1, [r3, #24]
 290 0050 9368     		ldr	r3, [r2, #8]
 291 0052 8A68     		ldr	r2, [r1, #8]
 292 0054 9A42     		cmp	r2, r3
 293 0056 09D3     		bcc	.L25
 294              	.L19:
 295              		.loc 3 367 3 is_stmt 1 view .LVU58
 296              		.loc 3 371 3 view .LVU59
 297              	.LBB100:
 298              	.LBI100:
 299              		.loc 4 458 20 view .LVU60
 300              	.LBE100:
 301              	.LBE99:
 302              	.LBE98:
 303              	.LBE108:
 304              		.loc 4 461 3 view .LVU61
 305              	.LVL13:
 306              	.LBB109:
 307              	.LBB106:
 308              	.LBB104:
 309              	.LBB103:
 310              	.LBB101:
 311              	.LBI101:
 312              		.loc 5 544 57 view .LVU62
 313              	.LBB102:
 314              		.loc 5 546 3 view .LVU63
 315 0058 0023     		movs	r3, #0
 316              		.syntax unified
 317              	@ 546 ".//ChibiOS//os/ext/CMSIS/include/core_cmFunc.h" 1
 318 005a 83F31188 		MSR basepri, r3
 319              	@ 0 "" 2
 320              	.LVL14:
 321              		.loc 5 546 3 is_stmt 0 view .LVU64
 322              		.thumb
 323              		.syntax unified
 324              	.LBE102:
 325              	.LBE101:
 326              	.LBE103:
 327              	.LBE104:
 328              	.LBE106:
 329              	.LBE109:
 330              		.loc 1 93 1 view .LVU65
 331 005e 084B     		ldr	r3, .L27
 332 0060 1A68     		ldr	r2, [r3]
 333 0062 019B     		ldr	r3, [sp, #4]
 334 0064 5A40     		eors	r2, r3, r2
 335 0066 09D1     		bne	.L26
 336 0068 03B0     		add	sp, sp, #12
 337              		.cfi_remember_state
 338              		.cfi_def_cfa_offset 12
 339              		@ sp needed
 340 006a 30BD     		pop	{r4, r5, pc}
 341              	.LVL15:
 342              	.L25:
ARM GAS  /tmp/ccG9euUV.s 			page 7


 343              		.cfi_restore_state
 344              	.LBB110:
 345              	.LBB107:
 346              	.LBB105:
 347              		.loc 3 367 3 is_stmt 1 view .LVU66
 348 006c 0748     		ldr	r0, .L27+12
 349 006e FFF7FEFF 		bl	chSysHalt
 350              	.LVL16:
 351 0072 F1E7     		b	.L19
 352              	.LVL17:
 353              	.L16:
 354              		.loc 3 367 3 is_stmt 0 view .LVU67
 355              	.LBE105:
 356              	.LBE107:
 357              	.LBE110:
 358              		.loc 1 84 3 is_stmt 1 discriminator 5 view .LVU68
 359 0074 0348     		ldr	r0, .L27+4
 360              	.LVL18:
 361              		.loc 1 84 3 is_stmt 0 discriminator 5 view .LVU69
 362 0076 FFF7FEFF 		bl	chSysHalt
 363              	.LVL19:
 364              		.loc 1 84 3 discriminator 5 view .LVU70
 365 007a CCE7     		b	.L17
 366              	.L26:
 367              		.loc 1 93 1 view .LVU71
 368 007c FFF7FEFF 		bl	__stack_chk_fail
 369              	.LVL20:
 370              	.L28:
 371              		.align	2
 372              	.L27:
 373 0080 00000000 		.word	.LC2
 374 0084 00000000 		.word	.LANCHOR0
 375 0088 00000000 		.word	ch
 376 008c 00000000 		.word	.LANCHOR1
 377              		.cfi_endproc
 378              	.LFE258:
 379              		.size	gptStart, .-gptStart
 380              		.section	.rodata.gptStop.cst4,"aM",%progbits,4
 381              		.align	2
 382              	.LC3:
 383 0000 00000000 		.word	__stack_chk_guard
 384              		.section	.text.gptStop,"ax",%progbits
 385              		.align	1
 386              		.p2align 4,,15
 387              		.global	gptStop
 388              		.syntax unified
 389              		.thumb
 390              		.thumb_func
 391              		.fpu fpv4-sp-d16
 392              		.type	gptStop, %function
 393              	gptStop:
 394              	.LVL21:
 395              	.LFB259:
 396              		.loc 1 102 31 is_stmt 1 view -0
 397              		.cfi_startproc
 398              		@ args = 0, pretend = 0, frame = 8
 399              		@ frame_needed = 0, uses_anonymous_args = 0
ARM GAS  /tmp/ccG9euUV.s 			page 8


 400              		.loc 1 102 31 is_stmt 0 view .LVU73
 401 0000 10B5     		push	{r4, lr}
 402              		.cfi_def_cfa_offset 8
 403              		.cfi_offset 4, -8
 404              		.cfi_offset 14, -4
 405 0002 1E4B     		ldr	r3, .L38
 406 0004 82B0     		sub	sp, sp, #8
 407              		.cfi_def_cfa_offset 16
 408              		.loc 1 102 31 view .LVU74
 409 0006 1B68     		ldr	r3, [r3]
 410 0008 0193     		str	r3, [sp, #4]
 411 000a 4FF00003 		mov	r3,#0
 412              		.loc 1 104 3 is_stmt 1 view .LVU75
 413              		.loc 1 104 3 view .LVU76
 414              		.loc 1 104 3 view .LVU77
 415 000e 0446     		mov	r4, r0
 416 0010 68B3     		cbz	r0, .L35
 417              	.LVL22:
 418              	.L30:
 419              		.loc 1 104 3 discriminator 5 view .LVU78
 420              		.loc 1 106 3 discriminator 5 view .LVU79
 421              	.LBB124:
 422              	.LBI124:
 423              		.loc 2 445 20 discriminator 5 view .LVU80
 424              	.LBE124:
 425              		.loc 2 447 3 discriminator 5 view .LVU81
 426              	.LBB133:
 427              	.LBB125:
 428              	.LBI125:
 429              		.loc 3 346 20 discriminator 5 view .LVU82
 430              	.LBB126:
 431              		.loc 3 348 3 discriminator 5 view .LVU83
 432              	.LBB127:
 433              	.LBI127:
 434              		.loc 4 444 20 discriminator 5 view .LVU84
 435              	.LBE127:
 436              	.LBE126:
 437              	.LBE125:
 438              	.LBE133:
 439              		.loc 4 447 3 discriminator 5 view .LVU85
 440              	.LBB134:
 441              	.LBB132:
 442              	.LBB131:
 443              	.LBB130:
 444              	.LBB128:
 445              	.LBI128:
 446              		.loc 5 544 57 discriminator 5 view .LVU86
 447              	.LBB129:
 448              		.loc 5 546 3 discriminator 5 view .LVU87
 449 0012 2023     		movs	r3, #32
 450              		.syntax unified
 451              	@ 546 ".//ChibiOS//os/ext/CMSIS/include/core_cmFunc.h" 1
 452 0014 83F31188 		MSR basepri, r3
 453              	@ 0 "" 2
 454              	.LVL23:
 455              		.loc 5 546 3 is_stmt 0 discriminator 5 view .LVU88
 456              		.thumb
ARM GAS  /tmp/ccG9euUV.s 			page 9


 457              		.syntax unified
 458              	.LBE129:
 459              	.LBE128:
 460              	.LBE130:
 461              		.loc 3 349 3 is_stmt 1 discriminator 5 view .LVU89
 462 0018 FFF7FEFF 		bl	_stats_start_measure_crit_thd
 463              	.LVL24:
 464              		.loc 3 350 3 discriminator 5 view .LVU90
 465 001c FFF7FEFF 		bl	_dbg_check_lock
 466              	.LVL25:
 467              	.LBE131:
 468              	.LBE132:
 469              	.LBE134:
 470              		.loc 1 107 3 discriminator 5 view .LVU91
 471              		.loc 1 107 3 discriminator 5 view .LVU92
 472              		.loc 1 107 3 discriminator 5 view .LVU93
 473 0020 2378     		ldrb	r3, [r4]	@ zero_extendqisi2
 474 0022 013B     		subs	r3, r3, #1
 475 0024 012B     		cmp	r3, #1
 476 0026 02D9     		bls	.L31
 477              		.loc 1 107 3 discriminator 3 view .LVU94
 478 0028 1548     		ldr	r0, .L38+4
 479 002a FFF7FEFF 		bl	chSysHalt
 480              	.LVL26:
 481              	.L31:
 482              		.loc 1 107 3 discriminator 5 view .LVU95
 483              		.loc 1 109 3 discriminator 5 view .LVU96
 484 002e 2046     		mov	r0, r4
 485 0030 FFF7FEFF 		bl	gpt_lld_stop
 486              	.LVL27:
 487              		.loc 1 110 3 discriminator 5 view .LVU97
 488              		.loc 1 110 15 is_stmt 0 discriminator 5 view .LVU98
 489 0034 0123     		movs	r3, #1
 490 0036 2370     		strb	r3, [r4]
 491              		.loc 1 111 3 is_stmt 1 discriminator 5 view .LVU99
 492              	.LBB135:
 493              	.LBI135:
 494              		.loc 2 456 20 discriminator 5 view .LVU100
 495              	.LBE135:
 496              		.loc 2 458 3 discriminator 5 view .LVU101
 497              	.LBB146:
 498              	.LBB136:
 499              	.LBI136:
 500              		.loc 3 358 20 discriminator 5 view .LVU102
 501              	.LBB137:
 502              		.loc 3 360 3 discriminator 5 view .LVU103
 503 0038 FFF7FEFF 		bl	_dbg_check_unlock
 504              	.LVL28:
 505              		.loc 3 361 3 discriminator 5 view .LVU104
 506 003c FFF7FEFF 		bl	_stats_stop_measure_crit_thd
 507              	.LVL29:
 508              		.loc 3 367 3 discriminator 5 view .LVU105
 509              		.loc 3 367 3 discriminator 5 view .LVU106
 510              		.loc 3 367 3 discriminator 5 view .LVU107
 511 0040 104B     		ldr	r3, .L38+8
 512 0042 1A68     		ldr	r2, [r3]
 513 0044 9A42     		cmp	r2, r3
ARM GAS  /tmp/ccG9euUV.s 			page 10


 514 0046 04D0     		beq	.L32
 515              		.loc 3 367 3 is_stmt 0 view .LVU108
 516 0048 9969     		ldr	r1, [r3, #24]
 517 004a 9368     		ldr	r3, [r2, #8]
 518 004c 8A68     		ldr	r2, [r1, #8]
 519 004e 9A42     		cmp	r2, r3
 520 0050 09D3     		bcc	.L36
 521              	.L32:
 522              		.loc 3 367 3 is_stmt 1 view .LVU109
 523              		.loc 3 371 3 view .LVU110
 524              	.LBB138:
 525              	.LBI138:
 526              		.loc 4 458 20 view .LVU111
 527              	.LBE138:
 528              	.LBE137:
 529              	.LBE136:
 530              	.LBE146:
 531              		.loc 4 461 3 view .LVU112
 532              	.LVL30:
 533              	.LBB147:
 534              	.LBB144:
 535              	.LBB142:
 536              	.LBB141:
 537              	.LBB139:
 538              	.LBI139:
 539              		.loc 5 544 57 view .LVU113
 540              	.LBB140:
 541              		.loc 5 546 3 view .LVU114
 542 0052 0023     		movs	r3, #0
 543              		.syntax unified
 544              	@ 546 ".//ChibiOS//os/ext/CMSIS/include/core_cmFunc.h" 1
 545 0054 83F31188 		MSR basepri, r3
 546              	@ 0 "" 2
 547              	.LVL31:
 548              		.loc 5 546 3 is_stmt 0 view .LVU115
 549              		.thumb
 550              		.syntax unified
 551              	.LBE140:
 552              	.LBE139:
 553              	.LBE141:
 554              	.LBE142:
 555              	.LBE144:
 556              	.LBE147:
 557              		.loc 1 112 1 view .LVU116
 558 0058 084B     		ldr	r3, .L38
 559 005a 1A68     		ldr	r2, [r3]
 560 005c 019B     		ldr	r3, [sp, #4]
 561 005e 5A40     		eors	r2, r3, r2
 562 0060 09D1     		bne	.L37
 563 0062 02B0     		add	sp, sp, #8
 564              		.cfi_remember_state
 565              		.cfi_def_cfa_offset 8
 566              		@ sp needed
 567 0064 10BD     		pop	{r4, pc}
 568              	.LVL32:
 569              	.L36:
 570              		.cfi_restore_state
ARM GAS  /tmp/ccG9euUV.s 			page 11


 571              	.LBB148:
 572              	.LBB145:
 573              	.LBB143:
 574              		.loc 3 367 3 is_stmt 1 view .LVU117
 575 0066 0848     		ldr	r0, .L38+12
 576 0068 FFF7FEFF 		bl	chSysHalt
 577              	.LVL33:
 578 006c F1E7     		b	.L32
 579              	.LVL34:
 580              	.L35:
 581              		.loc 3 367 3 is_stmt 0 view .LVU118
 582              	.LBE143:
 583              	.LBE145:
 584              	.LBE148:
 585              		.loc 1 104 3 is_stmt 1 discriminator 3 view .LVU119
 586 006e 0448     		ldr	r0, .L38+4
 587              	.LVL35:
 588              		.loc 1 104 3 is_stmt 0 discriminator 3 view .LVU120
 589 0070 FFF7FEFF 		bl	chSysHalt
 590              	.LVL36:
 591 0074 CDE7     		b	.L30
 592              	.L37:
 593              		.loc 1 112 1 view .LVU121
 594 0076 FFF7FEFF 		bl	__stack_chk_fail
 595              	.LVL37:
 596              	.L39:
 597 007a 00BF     		.align	2
 598              	.L38:
 599 007c 00000000 		.word	.LC3
 600 0080 00000000 		.word	.LANCHOR2
 601 0084 00000000 		.word	ch
 602 0088 00000000 		.word	.LANCHOR1
 603              		.cfi_endproc
 604              	.LFE259:
 605              		.size	gptStop, .-gptStop
 606              		.section	.rodata.gptChangeInterval.cst4,"aM",%progbits,4
 607              		.align	2
 608              	.LC4:
 609 0000 00000000 		.word	__stack_chk_guard
 610              		.section	.text.gptChangeInterval,"ax",%progbits
 611              		.align	1
 612              		.p2align 4,,15
 613              		.global	gptChangeInterval
 614              		.syntax unified
 615              		.thumb
 616              		.thumb_func
 617              		.fpu fpv4-sp-d16
 618              		.type	gptChangeInterval, %function
 619              	gptChangeInterval:
 620              	.LVL38:
 621              	.LFB260:
 622              		.loc 1 125 60 is_stmt 1 view -0
 623              		.cfi_startproc
 624              		@ args = 0, pretend = 0, frame = 8
 625              		@ frame_needed = 0, uses_anonymous_args = 0
 626              		.loc 1 125 60 is_stmt 0 view .LVU123
 627 0000 30B5     		push	{r4, r5, lr}
ARM GAS  /tmp/ccG9euUV.s 			page 12


 628              		.cfi_def_cfa_offset 12
 629              		.cfi_offset 4, -12
 630              		.cfi_offset 5, -8
 631              		.cfi_offset 14, -4
 632 0002 1D4B     		ldr	r3, .L52
 633 0004 83B0     		sub	sp, sp, #12
 634              		.cfi_def_cfa_offset 24
 635              		.loc 1 125 60 view .LVU124
 636 0006 0C46     		mov	r4, r1
 637 0008 1B68     		ldr	r3, [r3]
 638 000a 0193     		str	r3, [sp, #4]
 639 000c 4FF00003 		mov	r3,#0
 640              		.loc 1 127 3 is_stmt 1 view .LVU125
 641              		.loc 1 127 3 view .LVU126
 642              		.loc 1 127 3 view .LVU127
 643 0010 0546     		mov	r5, r0
 644 0012 50B3     		cbz	r0, .L49
 645              	.LVL39:
 646              	.L41:
 647              		.loc 1 127 3 discriminator 5 view .LVU128
 648              		.loc 1 129 3 discriminator 5 view .LVU129
 649              	.LBB162:
 650              	.LBI162:
 651              		.loc 2 445 20 discriminator 5 view .LVU130
 652              	.LBE162:
 653              		.loc 2 447 3 discriminator 5 view .LVU131
 654              	.LBB171:
 655              	.LBB163:
 656              	.LBI163:
 657              		.loc 3 346 20 discriminator 5 view .LVU132
 658              	.LBB164:
 659              		.loc 3 348 3 discriminator 5 view .LVU133
 660              	.LBB165:
 661              	.LBI165:
 662              		.loc 4 444 20 discriminator 5 view .LVU134
 663              	.LBE165:
 664              	.LBE164:
 665              	.LBE163:
 666              	.LBE171:
 667              		.loc 4 447 3 discriminator 5 view .LVU135
 668              	.LBB172:
 669              	.LBB170:
 670              	.LBB169:
 671              	.LBB168:
 672              	.LBB166:
 673              	.LBI166:
 674              		.loc 5 544 57 discriminator 5 view .LVU136
 675              	.LBB167:
 676              		.loc 5 546 3 discriminator 5 view .LVU137
 677 0014 2023     		movs	r3, #32
 678              		.syntax unified
 679              	@ 546 ".//ChibiOS//os/ext/CMSIS/include/core_cmFunc.h" 1
 680 0016 83F31188 		MSR basepri, r3
 681              	@ 0 "" 2
 682              	.LVL40:
 683              		.loc 5 546 3 is_stmt 0 discriminator 5 view .LVU138
 684              		.thumb
ARM GAS  /tmp/ccG9euUV.s 			page 13


 685              		.syntax unified
 686              	.LBE167:
 687              	.LBE166:
 688              	.LBE168:
 689              		.loc 3 349 3 is_stmt 1 discriminator 5 view .LVU139
 690 001a FFF7FEFF 		bl	_stats_start_measure_crit_thd
 691              	.LVL41:
 692              		.loc 3 350 3 discriminator 5 view .LVU140
 693 001e FFF7FEFF 		bl	_dbg_check_lock
 694              	.LVL42:
 695              	.LBE169:
 696              	.LBE170:
 697              	.LBE172:
 698              		.loc 1 130 3 discriminator 5 view .LVU141
 699              		.loc 1 130 3 discriminator 5 view .LVU142
 700              		.loc 1 130 3 discriminator 5 view .LVU143
 701 0022 2B78     		ldrb	r3, [r5]	@ zero_extendqisi2
 702 0024 032B     		cmp	r3, #3
 703 0026 02D0     		beq	.L42
 704              		.loc 1 130 3 discriminator 3 view .LVU144
 705 0028 1448     		ldr	r0, .L52+4
 706 002a FFF7FEFF 		bl	chSysHalt
 707              	.LVL43:
 708              	.L42:
 709              		.loc 1 130 3 discriminator 5 view .LVU145
 710              		.loc 1 132 3 discriminator 5 view .LVU146
 711 002e EB68     		ldr	r3, [r5, #12]
 712 0030 013C     		subs	r4, r4, #1
 713              	.LVL44:
 714              		.loc 1 132 3 is_stmt 0 discriminator 5 view .LVU147
 715 0032 DC62     		str	r4, [r3, #44]
 716              		.loc 1 132 37 is_stmt 1 discriminator 5 view .LVU148
 717              		.loc 1 133 3 discriminator 5 view .LVU149
 718              	.LBB173:
 719              	.LBI173:
 720              		.loc 2 456 20 discriminator 5 view .LVU150
 721              	.LBE173:
 722              		.loc 2 458 3 discriminator 5 view .LVU151
 723              	.LBB184:
 724              	.LBB174:
 725              	.LBI174:
 726              		.loc 3 358 20 discriminator 5 view .LVU152
 727              	.LBB175:
 728              		.loc 3 360 3 discriminator 5 view .LVU153
 729 0034 FFF7FEFF 		bl	_dbg_check_unlock
 730              	.LVL45:
 731              		.loc 3 361 3 discriminator 5 view .LVU154
 732 0038 FFF7FEFF 		bl	_stats_stop_measure_crit_thd
 733              	.LVL46:
 734              		.loc 3 367 3 discriminator 5 view .LVU155
 735              		.loc 3 367 3 discriminator 5 view .LVU156
 736              		.loc 3 367 3 discriminator 5 view .LVU157
 737 003c 104B     		ldr	r3, .L52+8
 738 003e 1A68     		ldr	r2, [r3]
 739 0040 9A42     		cmp	r2, r3
 740 0042 04D0     		beq	.L43
 741              		.loc 3 367 3 is_stmt 0 view .LVU158
ARM GAS  /tmp/ccG9euUV.s 			page 14


 742 0044 9969     		ldr	r1, [r3, #24]
 743 0046 9368     		ldr	r3, [r2, #8]
 744 0048 8A68     		ldr	r2, [r1, #8]
 745 004a 9A42     		cmp	r2, r3
 746 004c 09D3     		bcc	.L50
 747              	.L43:
 748              		.loc 3 367 3 is_stmt 1 view .LVU159
 749              		.loc 3 371 3 view .LVU160
 750              	.LBB176:
 751              	.LBI176:
 752              		.loc 4 458 20 view .LVU161
 753              	.LBE176:
 754              	.LBE175:
 755              	.LBE174:
 756              	.LBE184:
 757              		.loc 4 461 3 view .LVU162
 758              	.LVL47:
 759              	.LBB185:
 760              	.LBB182:
 761              	.LBB180:
 762              	.LBB179:
 763              	.LBB177:
 764              	.LBI177:
 765              		.loc 5 544 57 view .LVU163
 766              	.LBB178:
 767              		.loc 5 546 3 view .LVU164
 768 004e 0023     		movs	r3, #0
 769              		.syntax unified
 770              	@ 546 ".//ChibiOS//os/ext/CMSIS/include/core_cmFunc.h" 1
 771 0050 83F31188 		MSR basepri, r3
 772              	@ 0 "" 2
 773              	.LVL48:
 774              		.loc 5 546 3 is_stmt 0 view .LVU165
 775              		.thumb
 776              		.syntax unified
 777              	.LBE178:
 778              	.LBE177:
 779              	.LBE179:
 780              	.LBE180:
 781              	.LBE182:
 782              	.LBE185:
 783              		.loc 1 134 1 view .LVU166
 784 0054 084B     		ldr	r3, .L52
 785 0056 1A68     		ldr	r2, [r3]
 786 0058 019B     		ldr	r3, [sp, #4]
 787 005a 5A40     		eors	r2, r3, r2
 788 005c 09D1     		bne	.L51
 789 005e 03B0     		add	sp, sp, #12
 790              		.cfi_remember_state
 791              		.cfi_def_cfa_offset 12
 792              		@ sp needed
 793 0060 30BD     		pop	{r4, r5, pc}
 794              	.LVL49:
 795              	.L50:
 796              		.cfi_restore_state
 797              	.LBB186:
 798              	.LBB183:
ARM GAS  /tmp/ccG9euUV.s 			page 15


 799              	.LBB181:
 800              		.loc 3 367 3 is_stmt 1 view .LVU167
 801 0062 0848     		ldr	r0, .L52+12
 802 0064 FFF7FEFF 		bl	chSysHalt
 803              	.LVL50:
 804 0068 F1E7     		b	.L43
 805              	.LVL51:
 806              	.L49:
 807              		.loc 3 367 3 is_stmt 0 view .LVU168
 808              	.LBE181:
 809              	.LBE183:
 810              	.LBE186:
 811              		.loc 1 127 3 is_stmt 1 discriminator 3 view .LVU169
 812 006a 0448     		ldr	r0, .L52+4
 813              	.LVL52:
 814              		.loc 1 127 3 is_stmt 0 discriminator 3 view .LVU170
 815 006c FFF7FEFF 		bl	chSysHalt
 816              	.LVL53:
 817              		.loc 1 127 3 discriminator 3 view .LVU171
 818 0070 D0E7     		b	.L41
 819              	.LVL54:
 820              	.L51:
 821              		.loc 1 134 1 view .LVU172
 822 0072 FFF7FEFF 		bl	__stack_chk_fail
 823              	.LVL55:
 824              	.L53:
 825 0076 00BF     		.align	2
 826              	.L52:
 827 0078 00000000 		.word	.LC4
 828 007c 00000000 		.word	.LANCHOR3
 829 0080 00000000 		.word	ch
 830 0084 00000000 		.word	.LANCHOR1
 831              		.cfi_endproc
 832              	.LFE260:
 833              		.size	gptChangeInterval, .-gptChangeInterval
 834              		.section	.rodata.gptStartContinuousI.cst4,"aM",%progbits,4
 835              		.align	2
 836              	.LC5:
 837 0000 00000000 		.word	__stack_chk_guard
 838              		.section	.text.gptStartContinuousI,"ax",%progbits
 839              		.align	1
 840              		.p2align 4,,15
 841              		.global	gptStartContinuousI
 842              		.syntax unified
 843              		.thumb
 844              		.thumb_func
 845              		.fpu fpv4-sp-d16
 846              		.type	gptStartContinuousI, %function
 847              	gptStartContinuousI:
 848              	.LVL56:
 849              	.LFB262:
 850              		.loc 1 159 62 is_stmt 1 view -0
 851              		.cfi_startproc
 852              		@ args = 0, pretend = 0, frame = 8
 853              		@ frame_needed = 0, uses_anonymous_args = 0
 854              		.loc 1 159 62 is_stmt 0 view .LVU174
 855 0000 30B5     		push	{r4, r5, lr}
ARM GAS  /tmp/ccG9euUV.s 			page 16


 856              		.cfi_def_cfa_offset 12
 857              		.cfi_offset 4, -12
 858              		.cfi_offset 5, -8
 859              		.cfi_offset 14, -4
 860 0002 124B     		ldr	r3, .L65
 861 0004 83B0     		sub	sp, sp, #12
 862              		.cfi_def_cfa_offset 24
 863              		.loc 1 159 62 view .LVU175
 864 0006 0446     		mov	r4, r0
 865 0008 0D46     		mov	r5, r1
 866 000a 1B68     		ldr	r3, [r3]
 867 000c 0193     		str	r3, [sp, #4]
 868 000e 4FF00003 		mov	r3,#0
 869              		.loc 1 161 3 is_stmt 1 view .LVU176
 870 0012 FFF7FEFF 		bl	chDbgCheckClassI
 871              	.LVL57:
 872              		.loc 1 162 3 view .LVU177
 873              		.loc 1 162 3 view .LVU178
 874              		.loc 1 162 3 view .LVU179
 875 0016 9CB1     		cbz	r4, .L63
 876              	.L55:
 877              		.loc 1 162 3 discriminator 1 view .LVU180
 878              		.loc 1 163 3 discriminator 1 view .LVU181
 879              		.loc 1 163 3 discriminator 1 view .LVU182
 880              		.loc 1 163 3 discriminator 1 view .LVU183
 881 0018 2378     		ldrb	r3, [r4]	@ zero_extendqisi2
 882 001a 022B     		cmp	r3, #2
 883 001c 02D0     		beq	.L56
 884              		.loc 1 163 3 discriminator 3 view .LVU184
 885 001e 0C48     		ldr	r0, .L65+4
 886 0020 FFF7FEFF 		bl	chSysHalt
 887              	.LVL58:
 888              	.L56:
 889              		.loc 1 163 3 discriminator 5 view .LVU185
 890              		.loc 1 166 3 discriminator 5 view .LVU186
 891              		.loc 1 166 15 is_stmt 0 discriminator 5 view .LVU187
 892 0024 0323     		movs	r3, #3
 893 0026 2370     		strb	r3, [r4]
 894              		.loc 1 167 3 is_stmt 1 discriminator 5 view .LVU188
 895 0028 084B     		ldr	r3, .L65
 896 002a 1A68     		ldr	r2, [r3]
 897 002c 019B     		ldr	r3, [sp, #4]
 898 002e 5A40     		eors	r2, r3, r2
 899 0030 0AD1     		bne	.L64
 900 0032 2946     		mov	r1, r5
 901 0034 2046     		mov	r0, r4
 902              		.loc 1 168 1 is_stmt 0 discriminator 5 view .LVU189
 903 0036 03B0     		add	sp, sp, #12
 904              		.cfi_remember_state
 905              		.cfi_def_cfa_offset 12
 906              		@ sp needed
 907 0038 BDE83040 		pop	{r4, r5, lr}
 908              		.cfi_restore 14
 909              		.cfi_restore 5
 910              		.cfi_restore 4
 911              		.cfi_def_cfa_offset 0
 912              	.LVL59:
ARM GAS  /tmp/ccG9euUV.s 			page 17


 913              		.loc 1 167 3 discriminator 5 view .LVU190
 914 003c FFF7FEBF 		b	gpt_lld_start_timer
 915              	.LVL60:
 916              	.L63:
 917              		.cfi_restore_state
 918              		.loc 1 162 3 is_stmt 1 discriminator 3 view .LVU191
 919 0040 0348     		ldr	r0, .L65+4
 920 0042 FFF7FEFF 		bl	chSysHalt
 921              	.LVL61:
 922 0046 E7E7     		b	.L55
 923              	.L64:
 924              		.loc 1 167 3 is_stmt 0 discriminator 5 view .LVU192
 925 0048 FFF7FEFF 		bl	__stack_chk_fail
 926              	.LVL62:
 927              	.L66:
 928              		.align	2
 929              	.L65:
 930 004c 00000000 		.word	.LC5
 931 0050 00000000 		.word	.LANCHOR4
 932              		.cfi_endproc
 933              	.LFE262:
 934              		.size	gptStartContinuousI, .-gptStartContinuousI
 935              		.section	.rodata.gptStartContinuous.cst4,"aM",%progbits,4
 936              		.align	2
 937              	.LC6:
 938 0000 00000000 		.word	__stack_chk_guard
 939              		.section	.text.gptStartContinuous,"ax",%progbits
 940              		.align	1
 941              		.p2align 4,,15
 942              		.global	gptStartContinuous
 943              		.syntax unified
 944              		.thumb
 945              		.thumb_func
 946              		.fpu fpv4-sp-d16
 947              		.type	gptStartContinuous, %function
 948              	gptStartContinuous:
 949              	.LVL63:
 950              	.LFB261:
 951              		.loc 1 144 61 is_stmt 1 view -0
 952              		.cfi_startproc
 953              		@ args = 0, pretend = 0, frame = 16
 954              		@ frame_needed = 0, uses_anonymous_args = 0
 955              		.loc 1 144 61 is_stmt 0 view .LVU194
 956 0000 00B5     		push	{lr}
 957              		.cfi_def_cfa_offset 4
 958              		.cfi_offset 14, -4
 959 0002 85B0     		sub	sp, sp, #20
 960              		.cfi_def_cfa_offset 24
 961              		.loc 1 144 61 view .LVU195
 962 0004 CDE90010 		strd	r1, r0, [sp]
 963 0008 164B     		ldr	r3, .L73
 964 000a 1B68     		ldr	r3, [r3]
 965 000c 0393     		str	r3, [sp, #12]
 966 000e 4FF00003 		mov	r3,#0
 967              		.loc 1 146 3 is_stmt 1 view .LVU196
 968              	.LBB200:
 969              	.LBI200:
ARM GAS  /tmp/ccG9euUV.s 			page 18


 970              		.loc 2 445 20 view .LVU197
 971              	.LBE200:
 972              		.loc 2 447 3 view .LVU198
 973              	.LBB209:
 974              	.LBB201:
 975              	.LBI201:
 976              		.loc 3 346 20 view .LVU199
 977              	.LBB202:
 978              		.loc 3 348 3 view .LVU200
 979              	.LBB203:
 980              	.LBI203:
 981              		.loc 4 444 20 view .LVU201
 982              	.LBE203:
 983              	.LBE202:
 984              	.LBE201:
 985              	.LBE209:
 986              		.loc 4 447 3 view .LVU202
 987              	.LVL64:
 988              	.LBB210:
 989              	.LBB208:
 990              	.LBB207:
 991              	.LBB206:
 992              	.LBB204:
 993              	.LBI204:
 994              		.loc 5 544 57 view .LVU203
 995              	.LBB205:
 996              		.loc 5 546 3 view .LVU204
 997 0012 2023     		movs	r3, #32
 998              		.syntax unified
 999              	@ 546 ".//ChibiOS//os/ext/CMSIS/include/core_cmFunc.h" 1
 1000 0014 83F31188 		MSR basepri, r3
 1001              	@ 0 "" 2
 1002              	.LVL65:
 1003              		.loc 5 546 3 is_stmt 0 view .LVU205
 1004              		.thumb
 1005              		.syntax unified
 1006              	.LBE205:
 1007              	.LBE204:
 1008              	.LBE206:
 1009              		.loc 3 349 3 is_stmt 1 view .LVU206
 1010 0018 FFF7FEFF 		bl	_stats_start_measure_crit_thd
 1011              	.LVL66:
 1012              		.loc 3 350 3 view .LVU207
 1013 001c FFF7FEFF 		bl	_dbg_check_lock
 1014              	.LVL67:
 1015              	.LBE207:
 1016              	.LBE208:
 1017              	.LBE210:
 1018              		.loc 1 147 3 view .LVU208
 1019 0020 DDE90010 		ldrd	r1, r0, [sp]
 1020 0024 FFF7FEFF 		bl	gptStartContinuousI
 1021              	.LVL68:
 1022              		.loc 1 148 3 view .LVU209
 1023              	.LBB211:
 1024              	.LBI211:
 1025              		.loc 2 456 20 view .LVU210
 1026              	.LBE211:
ARM GAS  /tmp/ccG9euUV.s 			page 19


 1027              		.loc 2 458 3 view .LVU211
 1028              	.LBB222:
 1029              	.LBB212:
 1030              	.LBI212:
 1031              		.loc 3 358 20 view .LVU212
 1032              	.LBB213:
 1033              		.loc 3 360 3 view .LVU213
 1034 0028 FFF7FEFF 		bl	_dbg_check_unlock
 1035              	.LVL69:
 1036              		.loc 3 361 3 view .LVU214
 1037 002c FFF7FEFF 		bl	_stats_stop_measure_crit_thd
 1038              	.LVL70:
 1039              		.loc 3 367 3 view .LVU215
 1040              		.loc 3 367 3 view .LVU216
 1041              		.loc 3 367 3 view .LVU217
 1042 0030 0D4B     		ldr	r3, .L73+4
 1043 0032 1A68     		ldr	r2, [r3]
 1044 0034 9A42     		cmp	r2, r3
 1045 0036 04D0     		beq	.L68
 1046 0038 9969     		ldr	r1, [r3, #24]
 1047 003a 9368     		ldr	r3, [r2, #8]
 1048 003c 8A68     		ldr	r2, [r1, #8]
 1049 003e 9A42     		cmp	r2, r3
 1050 0040 0AD3     		bcc	.L71
 1051              	.L68:
 1052              		.loc 3 367 3 view .LVU218
 1053              		.loc 3 371 3 view .LVU219
 1054              	.LBB214:
 1055              	.LBI214:
 1056              		.loc 4 458 20 view .LVU220
 1057              	.LBE214:
 1058              	.LBE213:
 1059              	.LBE212:
 1060              	.LBE222:
 1061              		.loc 4 461 3 view .LVU221
 1062              	.LVL71:
 1063              	.LBB223:
 1064              	.LBB220:
 1065              	.LBB218:
 1066              	.LBB217:
 1067              	.LBB215:
 1068              	.LBI215:
 1069              		.loc 5 544 57 view .LVU222
 1070              	.LBB216:
 1071              		.loc 5 546 3 view .LVU223
 1072 0042 0023     		movs	r3, #0
 1073              		.syntax unified
 1074              	@ 546 ".//ChibiOS//os/ext/CMSIS/include/core_cmFunc.h" 1
 1075 0044 83F31188 		MSR basepri, r3
 1076              	@ 0 "" 2
 1077              	.LVL72:
 1078              		.loc 5 546 3 is_stmt 0 view .LVU224
 1079              		.thumb
 1080              		.syntax unified
 1081              	.LBE216:
 1082              	.LBE215:
 1083              	.LBE217:
ARM GAS  /tmp/ccG9euUV.s 			page 20


 1084              	.LBE218:
 1085              	.LBE220:
 1086              	.LBE223:
 1087              		.loc 1 149 1 view .LVU225
 1088 0048 064B     		ldr	r3, .L73
 1089 004a 1A68     		ldr	r2, [r3]
 1090 004c 039B     		ldr	r3, [sp, #12]
 1091 004e 5A40     		eors	r2, r3, r2
 1092 0050 06D1     		bne	.L72
 1093 0052 05B0     		add	sp, sp, #20
 1094              		.cfi_remember_state
 1095              		.cfi_def_cfa_offset 4
 1096              	.LVL73:
 1097              		.loc 1 149 1 view .LVU226
 1098              		@ sp needed
 1099 0054 5DF804FB 		ldr	pc, [sp], #4
 1100              	.LVL74:
 1101              	.L71:
 1102              		.cfi_restore_state
 1103              	.LBB224:
 1104              	.LBB221:
 1105              	.LBB219:
 1106              		.loc 3 367 3 is_stmt 1 view .LVU227
 1107 0058 0448     		ldr	r0, .L73+8
 1108 005a FFF7FEFF 		bl	chSysHalt
 1109              	.LVL75:
 1110 005e F0E7     		b	.L68
 1111              	.L72:
 1112              	.LBE219:
 1113              	.LBE221:
 1114              	.LBE224:
 1115              		.loc 1 149 1 is_stmt 0 view .LVU228
 1116 0060 FFF7FEFF 		bl	__stack_chk_fail
 1117              	.LVL76:
 1118              	.L74:
 1119              		.align	2
 1120              	.L73:
 1121 0064 00000000 		.word	.LC6
 1122 0068 00000000 		.word	ch
 1123 006c 00000000 		.word	.LANCHOR1
 1124              		.cfi_endproc
 1125              	.LFE261:
 1126              		.size	gptStartContinuous, .-gptStartContinuous
 1127              		.section	.rodata.gptStartOneShotI.cst4,"aM",%progbits,4
 1128              		.align	2
 1129              	.LC7:
 1130 0000 00000000 		.word	__stack_chk_guard
 1131              		.section	.text.gptStartOneShotI,"ax",%progbits
 1132              		.align	1
 1133              		.p2align 4,,15
 1134              		.global	gptStartOneShotI
 1135              		.syntax unified
 1136              		.thumb
 1137              		.thumb_func
 1138              		.fpu fpv4-sp-d16
 1139              		.type	gptStartOneShotI, %function
 1140              	gptStartOneShotI:
ARM GAS  /tmp/ccG9euUV.s 			page 21


 1141              	.LVL77:
 1142              	.LFB264:
 1143              		.loc 1 193 59 is_stmt 1 view -0
 1144              		.cfi_startproc
 1145              		@ args = 0, pretend = 0, frame = 8
 1146              		@ frame_needed = 0, uses_anonymous_args = 0
 1147              		.loc 1 193 59 is_stmt 0 view .LVU230
 1148 0000 30B5     		push	{r4, r5, lr}
 1149              		.cfi_def_cfa_offset 12
 1150              		.cfi_offset 4, -12
 1151              		.cfi_offset 5, -8
 1152              		.cfi_offset 14, -4
 1153 0002 164B     		ldr	r3, .L88
 1154 0004 83B0     		sub	sp, sp, #12
 1155              		.cfi_def_cfa_offset 24
 1156              		.loc 1 193 59 view .LVU231
 1157 0006 0446     		mov	r4, r0
 1158 0008 0D46     		mov	r5, r1
 1159 000a 1B68     		ldr	r3, [r3]
 1160 000c 0193     		str	r3, [sp, #4]
 1161 000e 4FF00003 		mov	r3,#0
 1162              		.loc 1 195 3 is_stmt 1 view .LVU232
 1163 0012 FFF7FEFF 		bl	chDbgCheckClassI
 1164              	.LVL78:
 1165              		.loc 1 196 3 view .LVU233
 1166              		.loc 1 196 3 view .LVU234
 1167              		.loc 1 196 3 view .LVU235
 1168 0016 D4B1     		cbz	r4, .L85
 1169              	.L76:
 1170              		.loc 1 196 3 discriminator 1 view .LVU236
 1171              		.loc 1 197 3 discriminator 1 view .LVU237
 1172              		.loc 1 197 3 discriminator 1 view .LVU238
 1173              		.loc 1 197 3 discriminator 1 view .LVU239
 1174 0018 6368     		ldr	r3, [r4, #4]
 1175 001a 5B68     		ldr	r3, [r3, #4]
 1176 001c 9BB1     		cbz	r3, .L86
 1177              	.L77:
 1178              		.loc 1 197 3 discriminator 1 view .LVU240
 1179              		.loc 1 198 3 discriminator 1 view .LVU241
 1180              		.loc 1 198 3 discriminator 1 view .LVU242
 1181              		.loc 1 198 3 discriminator 1 view .LVU243
 1182 001e 2378     		ldrb	r3, [r4]	@ zero_extendqisi2
 1183 0020 022B     		cmp	r3, #2
 1184 0022 02D0     		beq	.L78
 1185              		.loc 1 198 3 discriminator 3 view .LVU244
 1186 0024 0E48     		ldr	r0, .L88+4
 1187 0026 FFF7FEFF 		bl	chSysHalt
 1188              	.LVL79:
 1189              	.L78:
 1190              		.loc 1 198 3 discriminator 5 view .LVU245
 1191              		.loc 1 201 3 discriminator 5 view .LVU246
 1192              		.loc 1 201 15 is_stmt 0 discriminator 5 view .LVU247
 1193 002a 0423     		movs	r3, #4
 1194 002c 2370     		strb	r3, [r4]
 1195              		.loc 1 202 3 is_stmt 1 discriminator 5 view .LVU248
 1196 002e 0B4B     		ldr	r3, .L88
 1197 0030 1A68     		ldr	r2, [r3]
ARM GAS  /tmp/ccG9euUV.s 			page 22


 1198 0032 019B     		ldr	r3, [sp, #4]
 1199 0034 5A40     		eors	r2, r3, r2
 1200 0036 0ED1     		bne	.L87
 1201 0038 2946     		mov	r1, r5
 1202 003a 2046     		mov	r0, r4
 1203              		.loc 1 203 1 is_stmt 0 discriminator 5 view .LVU249
 1204 003c 03B0     		add	sp, sp, #12
 1205              		.cfi_remember_state
 1206              		.cfi_def_cfa_offset 12
 1207              		@ sp needed
 1208 003e BDE83040 		pop	{r4, r5, lr}
 1209              		.cfi_restore 14
 1210              		.cfi_restore 5
 1211              		.cfi_restore 4
 1212              		.cfi_def_cfa_offset 0
 1213              	.LVL80:
 1214              		.loc 1 202 3 discriminator 5 view .LVU250
 1215 0042 FFF7FEBF 		b	gpt_lld_start_timer
 1216              	.LVL81:
 1217              	.L86:
 1218              		.cfi_restore_state
 1219              		.loc 1 197 3 is_stmt 1 discriminator 3 view .LVU251
 1220 0046 0648     		ldr	r0, .L88+4
 1221 0048 FFF7FEFF 		bl	chSysHalt
 1222              	.LVL82:
 1223 004c E7E7     		b	.L77
 1224              	.L85:
 1225              		.loc 1 196 3 discriminator 3 view .LVU252
 1226 004e 0448     		ldr	r0, .L88+4
 1227 0050 FFF7FEFF 		bl	chSysHalt
 1228              	.LVL83:
 1229 0054 E0E7     		b	.L76
 1230              	.L87:
 1231              		.loc 1 202 3 is_stmt 0 discriminator 5 view .LVU253
 1232 0056 FFF7FEFF 		bl	__stack_chk_fail
 1233              	.LVL84:
 1234              	.L89:
 1235 005a 00BF     		.align	2
 1236              	.L88:
 1237 005c 00000000 		.word	.LC7
 1238 0060 00000000 		.word	.LANCHOR5
 1239              		.cfi_endproc
 1240              	.LFE264:
 1241              		.size	gptStartOneShotI, .-gptStartOneShotI
 1242              		.section	.rodata.gptStartOneShot.cst4,"aM",%progbits,4
 1243              		.align	2
 1244              	.LC8:
 1245 0000 00000000 		.word	__stack_chk_guard
 1246              		.section	.text.gptStartOneShot,"ax",%progbits
 1247              		.align	1
 1248              		.p2align 4,,15
 1249              		.global	gptStartOneShot
 1250              		.syntax unified
 1251              		.thumb
 1252              		.thumb_func
 1253              		.fpu fpv4-sp-d16
 1254              		.type	gptStartOneShot, %function
ARM GAS  /tmp/ccG9euUV.s 			page 23


 1255              	gptStartOneShot:
 1256              	.LVL85:
 1257              	.LFB263:
 1258              		.loc 1 178 58 is_stmt 1 view -0
 1259              		.cfi_startproc
 1260              		@ args = 0, pretend = 0, frame = 16
 1261              		@ frame_needed = 0, uses_anonymous_args = 0
 1262              		.loc 1 178 58 is_stmt 0 view .LVU255
 1263 0000 00B5     		push	{lr}
 1264              		.cfi_def_cfa_offset 4
 1265              		.cfi_offset 14, -4
 1266 0002 85B0     		sub	sp, sp, #20
 1267              		.cfi_def_cfa_offset 24
 1268              		.loc 1 178 58 view .LVU256
 1269 0004 CDE90010 		strd	r1, r0, [sp]
 1270 0008 164B     		ldr	r3, .L96
 1271 000a 1B68     		ldr	r3, [r3]
 1272 000c 0393     		str	r3, [sp, #12]
 1273 000e 4FF00003 		mov	r3,#0
 1274              		.loc 1 180 3 is_stmt 1 view .LVU257
 1275              	.LBB238:
 1276              	.LBI238:
 1277              		.loc 2 445 20 view .LVU258
 1278              	.LBE238:
 1279              		.loc 2 447 3 view .LVU259
 1280              	.LBB247:
 1281              	.LBB239:
 1282              	.LBI239:
 1283              		.loc 3 346 20 view .LVU260
 1284              	.LBB240:
 1285              		.loc 3 348 3 view .LVU261
 1286              	.LBB241:
 1287              	.LBI241:
 1288              		.loc 4 444 20 view .LVU262
 1289              	.LBE241:
 1290              	.LBE240:
 1291              	.LBE239:
 1292              	.LBE247:
 1293              		.loc 4 447 3 view .LVU263
 1294              	.LVL86:
 1295              	.LBB248:
 1296              	.LBB246:
 1297              	.LBB245:
 1298              	.LBB244:
 1299              	.LBB242:
 1300              	.LBI242:
 1301              		.loc 5 544 57 view .LVU264
 1302              	.LBB243:
 1303              		.loc 5 546 3 view .LVU265
 1304 0012 2023     		movs	r3, #32
 1305              		.syntax unified
 1306              	@ 546 ".//ChibiOS//os/ext/CMSIS/include/core_cmFunc.h" 1
 1307 0014 83F31188 		MSR basepri, r3
 1308              	@ 0 "" 2
 1309              	.LVL87:
 1310              		.loc 5 546 3 is_stmt 0 view .LVU266
 1311              		.thumb
ARM GAS  /tmp/ccG9euUV.s 			page 24


 1312              		.syntax unified
 1313              	.LBE243:
 1314              	.LBE242:
 1315              	.LBE244:
 1316              		.loc 3 349 3 is_stmt 1 view .LVU267
 1317 0018 FFF7FEFF 		bl	_stats_start_measure_crit_thd
 1318              	.LVL88:
 1319              		.loc 3 350 3 view .LVU268
 1320 001c FFF7FEFF 		bl	_dbg_check_lock
 1321              	.LVL89:
 1322              	.LBE245:
 1323              	.LBE246:
 1324              	.LBE248:
 1325              		.loc 1 181 3 view .LVU269
 1326 0020 DDE90010 		ldrd	r1, r0, [sp]
 1327 0024 FFF7FEFF 		bl	gptStartOneShotI
 1328              	.LVL90:
 1329              		.loc 1 182 3 view .LVU270
 1330              	.LBB249:
 1331              	.LBI249:
 1332              		.loc 2 456 20 view .LVU271
 1333              	.LBE249:
 1334              		.loc 2 458 3 view .LVU272
 1335              	.LBB260:
 1336              	.LBB250:
 1337              	.LBI250:
 1338              		.loc 3 358 20 view .LVU273
 1339              	.LBB251:
 1340              		.loc 3 360 3 view .LVU274
 1341 0028 FFF7FEFF 		bl	_dbg_check_unlock
 1342              	.LVL91:
 1343              		.loc 3 361 3 view .LVU275
 1344 002c FFF7FEFF 		bl	_stats_stop_measure_crit_thd
 1345              	.LVL92:
 1346              		.loc 3 367 3 view .LVU276
 1347              		.loc 3 367 3 view .LVU277
 1348              		.loc 3 367 3 view .LVU278
 1349 0030 0D4B     		ldr	r3, .L96+4
 1350 0032 1A68     		ldr	r2, [r3]
 1351 0034 9A42     		cmp	r2, r3
 1352 0036 04D0     		beq	.L91
 1353 0038 9969     		ldr	r1, [r3, #24]
 1354 003a 9368     		ldr	r3, [r2, #8]
 1355 003c 8A68     		ldr	r2, [r1, #8]
 1356 003e 9A42     		cmp	r2, r3
 1357 0040 0AD3     		bcc	.L94
 1358              	.L91:
 1359              		.loc 3 367 3 view .LVU279
 1360              		.loc 3 371 3 view .LVU280
 1361              	.LBB252:
 1362              	.LBI252:
 1363              		.loc 4 458 20 view .LVU281
 1364              	.LBE252:
 1365              	.LBE251:
 1366              	.LBE250:
 1367              	.LBE260:
 1368              		.loc 4 461 3 view .LVU282
ARM GAS  /tmp/ccG9euUV.s 			page 25


 1369              	.LVL93:
 1370              	.LBB261:
 1371              	.LBB258:
 1372              	.LBB256:
 1373              	.LBB255:
 1374              	.LBB253:
 1375              	.LBI253:
 1376              		.loc 5 544 57 view .LVU283
 1377              	.LBB254:
 1378              		.loc 5 546 3 view .LVU284
 1379 0042 0023     		movs	r3, #0
 1380              		.syntax unified
 1381              	@ 546 ".//ChibiOS//os/ext/CMSIS/include/core_cmFunc.h" 1
 1382 0044 83F31188 		MSR basepri, r3
 1383              	@ 0 "" 2
 1384              	.LVL94:
 1385              		.loc 5 546 3 is_stmt 0 view .LVU285
 1386              		.thumb
 1387              		.syntax unified
 1388              	.LBE254:
 1389              	.LBE253:
 1390              	.LBE255:
 1391              	.LBE256:
 1392              	.LBE258:
 1393              	.LBE261:
 1394              		.loc 1 183 1 view .LVU286
 1395 0048 064B     		ldr	r3, .L96
 1396 004a 1A68     		ldr	r2, [r3]
 1397 004c 039B     		ldr	r3, [sp, #12]
 1398 004e 5A40     		eors	r2, r3, r2
 1399 0050 06D1     		bne	.L95
 1400 0052 05B0     		add	sp, sp, #20
 1401              		.cfi_remember_state
 1402              		.cfi_def_cfa_offset 4
 1403              	.LVL95:
 1404              		.loc 1 183 1 view .LVU287
 1405              		@ sp needed
 1406 0054 5DF804FB 		ldr	pc, [sp], #4
 1407              	.LVL96:
 1408              	.L94:
 1409              		.cfi_restore_state
 1410              	.LBB262:
 1411              	.LBB259:
 1412              	.LBB257:
 1413              		.loc 3 367 3 is_stmt 1 view .LVU288
 1414 0058 0448     		ldr	r0, .L96+8
 1415 005a FFF7FEFF 		bl	chSysHalt
 1416              	.LVL97:
 1417 005e F0E7     		b	.L91
 1418              	.L95:
 1419              	.LBE257:
 1420              	.LBE259:
 1421              	.LBE262:
 1422              		.loc 1 183 1 is_stmt 0 view .LVU289
 1423 0060 FFF7FEFF 		bl	__stack_chk_fail
 1424              	.LVL98:
 1425              	.L97:
ARM GAS  /tmp/ccG9euUV.s 			page 26


 1426              		.align	2
 1427              	.L96:
 1428 0064 00000000 		.word	.LC8
 1429 0068 00000000 		.word	ch
 1430 006c 00000000 		.word	.LANCHOR1
 1431              		.cfi_endproc
 1432              	.LFE263:
 1433              		.size	gptStartOneShot, .-gptStartOneShot
 1434              		.section	.rodata.gptStopTimerI.cst4,"aM",%progbits,4
 1435              		.align	2
 1436              	.LC9:
 1437 0000 00000000 		.word	__stack_chk_guard
 1438              		.section	.text.gptStopTimerI,"ax",%progbits
 1439              		.align	1
 1440              		.p2align 4,,15
 1441              		.global	gptStopTimerI
 1442              		.syntax unified
 1443              		.thumb
 1444              		.thumb_func
 1445              		.fpu fpv4-sp-d16
 1446              		.type	gptStopTimerI, %function
 1447              	gptStopTimerI:
 1448              	.LVL99:
 1449              	.LFB266:
 1450              		.loc 1 226 37 is_stmt 1 view -0
 1451              		.cfi_startproc
 1452              		@ args = 0, pretend = 0, frame = 8
 1453              		@ frame_needed = 0, uses_anonymous_args = 0
 1454              		.loc 1 226 37 is_stmt 0 view .LVU291
 1455 0000 10B5     		push	{r4, lr}
 1456              		.cfi_def_cfa_offset 8
 1457              		.cfi_offset 4, -8
 1458              		.cfi_offset 14, -4
 1459 0002 124B     		ldr	r3, .L107
 1460 0004 82B0     		sub	sp, sp, #8
 1461              		.cfi_def_cfa_offset 16
 1462              		.loc 1 226 37 view .LVU292
 1463 0006 0446     		mov	r4, r0
 1464 0008 1B68     		ldr	r3, [r3]
 1465 000a 0193     		str	r3, [sp, #4]
 1466 000c 4FF00003 		mov	r3,#0
 1467              		.loc 1 228 3 is_stmt 1 view .LVU293
 1468 0010 FFF7FEFF 		bl	chDbgCheckClassI
 1469              	.LVL100:
 1470              		.loc 1 229 3 view .LVU294
 1471              		.loc 1 229 3 view .LVU295
 1472              		.loc 1 229 3 view .LVU296
 1473 0014 A4B1     		cbz	r4, .L104
 1474              	.L99:
 1475              		.loc 1 229 3 discriminator 1 view .LVU297
 1476              		.loc 1 230 3 discriminator 1 view .LVU298
 1477              		.loc 1 230 3 discriminator 1 view .LVU299
 1478              		.loc 1 230 3 discriminator 1 view .LVU300
 1479 0016 2378     		ldrb	r3, [r4]	@ zero_extendqisi2
 1480 0018 023B     		subs	r3, r3, #2
 1481 001a 022B     		cmp	r3, #2
 1482 001c 0CD8     		bhi	.L105
ARM GAS  /tmp/ccG9euUV.s 			page 27


 1483              	.L100:
 1484              		.loc 1 230 3 discriminator 5 view .LVU301
 1485              		.loc 1 234 3 discriminator 5 view .LVU302
 1486              		.loc 1 234 15 is_stmt 0 discriminator 5 view .LVU303
 1487 001e 0223     		movs	r3, #2
 1488 0020 2370     		strb	r3, [r4]
 1489              		.loc 1 235 3 is_stmt 1 discriminator 5 view .LVU304
 1490 0022 0A4B     		ldr	r3, .L107
 1491 0024 1A68     		ldr	r2, [r3]
 1492 0026 019B     		ldr	r3, [sp, #4]
 1493 0028 5A40     		eors	r2, r3, r2
 1494 002a 0DD1     		bne	.L106
 1495 002c 2046     		mov	r0, r4
 1496              		.loc 1 236 1 is_stmt 0 discriminator 5 view .LVU305
 1497 002e 02B0     		add	sp, sp, #8
 1498              		.cfi_remember_state
 1499              		.cfi_def_cfa_offset 8
 1500              		@ sp needed
 1501 0030 BDE81040 		pop	{r4, lr}
 1502              		.cfi_restore 14
 1503              		.cfi_restore 4
 1504              		.cfi_def_cfa_offset 0
 1505              	.LVL101:
 1506              		.loc 1 235 3 discriminator 5 view .LVU306
 1507 0034 FFF7FEBF 		b	gpt_lld_stop_timer
 1508              	.LVL102:
 1509              	.L105:
 1510              		.cfi_restore_state
 1511              		.loc 1 230 3 is_stmt 1 discriminator 3 view .LVU307
 1512 0038 0548     		ldr	r0, .L107+4
 1513 003a FFF7FEFF 		bl	chSysHalt
 1514              	.LVL103:
 1515 003e EEE7     		b	.L100
 1516              	.L104:
 1517              		.loc 1 229 3 discriminator 3 view .LVU308
 1518 0040 0348     		ldr	r0, .L107+4
 1519 0042 FFF7FEFF 		bl	chSysHalt
 1520              	.LVL104:
 1521 0046 E6E7     		b	.L99
 1522              	.L106:
 1523              		.loc 1 235 3 is_stmt 0 discriminator 5 view .LVU309
 1524 0048 FFF7FEFF 		bl	__stack_chk_fail
 1525              	.LVL105:
 1526              	.L108:
 1527              		.align	2
 1528              	.L107:
 1529 004c 00000000 		.word	.LC9
 1530 0050 00000000 		.word	.LANCHOR6
 1531              		.cfi_endproc
 1532              	.LFE266:
 1533              		.size	gptStopTimerI, .-gptStopTimerI
 1534              		.section	.rodata.gptStopTimer.cst4,"aM",%progbits,4
 1535              		.align	2
 1536              	.LC10:
 1537 0000 00000000 		.word	__stack_chk_guard
 1538              		.section	.text.gptStopTimer,"ax",%progbits
 1539              		.align	1
ARM GAS  /tmp/ccG9euUV.s 			page 28


 1540              		.p2align 4,,15
 1541              		.global	gptStopTimer
 1542              		.syntax unified
 1543              		.thumb
 1544              		.thumb_func
 1545              		.fpu fpv4-sp-d16
 1546              		.type	gptStopTimer, %function
 1547              	gptStopTimer:
 1548              	.LVL106:
 1549              	.LFB265:
 1550              		.loc 1 212 36 is_stmt 1 view -0
 1551              		.cfi_startproc
 1552              		@ args = 0, pretend = 0, frame = 16
 1553              		@ frame_needed = 0, uses_anonymous_args = 0
 1554              		.loc 1 212 36 is_stmt 0 view .LVU311
 1555 0000 00B5     		push	{lr}
 1556              		.cfi_def_cfa_offset 4
 1557              		.cfi_offset 14, -4
 1558 0002 85B0     		sub	sp, sp, #20
 1559              		.cfi_def_cfa_offset 24
 1560              		.loc 1 212 36 view .LVU312
 1561 0004 164B     		ldr	r3, .L115
 1562 0006 0190     		str	r0, [sp, #4]
 1563 0008 1B68     		ldr	r3, [r3]
 1564 000a 0393     		str	r3, [sp, #12]
 1565 000c 4FF00003 		mov	r3,#0
 1566              		.loc 1 214 3 is_stmt 1 view .LVU313
 1567              	.LBB276:
 1568              	.LBI276:
 1569              		.loc 2 445 20 view .LVU314
 1570              	.LBE276:
 1571              		.loc 2 447 3 view .LVU315
 1572              	.LBB285:
 1573              	.LBB277:
 1574              	.LBI277:
 1575              		.loc 3 346 20 view .LVU316
 1576              	.LBB278:
 1577              		.loc 3 348 3 view .LVU317
 1578              	.LBB279:
 1579              	.LBI279:
 1580              		.loc 4 444 20 view .LVU318
 1581              	.LBE279:
 1582              	.LBE278:
 1583              	.LBE277:
 1584              	.LBE285:
 1585              		.loc 4 447 3 view .LVU319
 1586              	.LVL107:
 1587              	.LBB286:
 1588              	.LBB284:
 1589              	.LBB283:
 1590              	.LBB282:
 1591              	.LBB280:
 1592              	.LBI280:
 1593              		.loc 5 544 57 view .LVU320
 1594              	.LBB281:
 1595              		.loc 5 546 3 view .LVU321
 1596 0010 2023     		movs	r3, #32
ARM GAS  /tmp/ccG9euUV.s 			page 29


 1597              		.syntax unified
 1598              	@ 546 ".//ChibiOS//os/ext/CMSIS/include/core_cmFunc.h" 1
 1599 0012 83F31188 		MSR basepri, r3
 1600              	@ 0 "" 2
 1601              	.LVL108:
 1602              		.loc 5 546 3 is_stmt 0 view .LVU322
 1603              		.thumb
 1604              		.syntax unified
 1605              	.LBE281:
 1606              	.LBE280:
 1607              	.LBE282:
 1608              		.loc 3 349 3 is_stmt 1 view .LVU323
 1609 0016 FFF7FEFF 		bl	_stats_start_measure_crit_thd
 1610              	.LVL109:
 1611              		.loc 3 350 3 view .LVU324
 1612 001a FFF7FEFF 		bl	_dbg_check_lock
 1613              	.LVL110:
 1614              	.LBE283:
 1615              	.LBE284:
 1616              	.LBE286:
 1617              		.loc 1 215 3 view .LVU325
 1618 001e 0198     		ldr	r0, [sp, #4]
 1619 0020 FFF7FEFF 		bl	gptStopTimerI
 1620              	.LVL111:
 1621              		.loc 1 216 3 view .LVU326
 1622              	.LBB287:
 1623              	.LBI287:
 1624              		.loc 2 456 20 view .LVU327
 1625              	.LBE287:
 1626              		.loc 2 458 3 view .LVU328
 1627              	.LBB298:
 1628              	.LBB288:
 1629              	.LBI288:
 1630              		.loc 3 358 20 view .LVU329
 1631              	.LBB289:
 1632              		.loc 3 360 3 view .LVU330
 1633 0024 FFF7FEFF 		bl	_dbg_check_unlock
 1634              	.LVL112:
 1635              		.loc 3 361 3 view .LVU331
 1636 0028 FFF7FEFF 		bl	_stats_stop_measure_crit_thd
 1637              	.LVL113:
 1638              		.loc 3 367 3 view .LVU332
 1639              		.loc 3 367 3 view .LVU333
 1640              		.loc 3 367 3 view .LVU334
 1641 002c 0D4B     		ldr	r3, .L115+4
 1642 002e 1A68     		ldr	r2, [r3]
 1643 0030 9A42     		cmp	r2, r3
 1644 0032 04D0     		beq	.L110
 1645 0034 9969     		ldr	r1, [r3, #24]
 1646 0036 9368     		ldr	r3, [r2, #8]
 1647 0038 8A68     		ldr	r2, [r1, #8]
 1648 003a 9A42     		cmp	r2, r3
 1649 003c 0AD3     		bcc	.L113
 1650              	.L110:
 1651              		.loc 3 367 3 view .LVU335
 1652              		.loc 3 371 3 view .LVU336
 1653              	.LBB290:
ARM GAS  /tmp/ccG9euUV.s 			page 30


 1654              	.LBI290:
 1655              		.loc 4 458 20 view .LVU337
 1656              	.LBE290:
 1657              	.LBE289:
 1658              	.LBE288:
 1659              	.LBE298:
 1660              		.loc 4 461 3 view .LVU338
 1661              	.LVL114:
 1662              	.LBB299:
 1663              	.LBB296:
 1664              	.LBB294:
 1665              	.LBB293:
 1666              	.LBB291:
 1667              	.LBI291:
 1668              		.loc 5 544 57 view .LVU339
 1669              	.LBB292:
 1670              		.loc 5 546 3 view .LVU340
 1671 003e 0023     		movs	r3, #0
 1672              		.syntax unified
 1673              	@ 546 ".//ChibiOS//os/ext/CMSIS/include/core_cmFunc.h" 1
 1674 0040 83F31188 		MSR basepri, r3
 1675              	@ 0 "" 2
 1676              	.LVL115:
 1677              		.loc 5 546 3 is_stmt 0 view .LVU341
 1678              		.thumb
 1679              		.syntax unified
 1680              	.LBE292:
 1681              	.LBE291:
 1682              	.LBE293:
 1683              	.LBE294:
 1684              	.LBE296:
 1685              	.LBE299:
 1686              		.loc 1 217 1 view .LVU342
 1687 0044 064B     		ldr	r3, .L115
 1688 0046 1A68     		ldr	r2, [r3]
 1689 0048 039B     		ldr	r3, [sp, #12]
 1690 004a 5A40     		eors	r2, r3, r2
 1691 004c 06D1     		bne	.L114
 1692 004e 05B0     		add	sp, sp, #20
 1693              		.cfi_remember_state
 1694              		.cfi_def_cfa_offset 4
 1695              		@ sp needed
 1696 0050 5DF804FB 		ldr	pc, [sp], #4
 1697              	.LVL116:
 1698              	.L113:
 1699              		.cfi_restore_state
 1700              	.LBB300:
 1701              	.LBB297:
 1702              	.LBB295:
 1703              		.loc 3 367 3 is_stmt 1 view .LVU343
 1704 0054 0448     		ldr	r0, .L115+8
 1705 0056 FFF7FEFF 		bl	chSysHalt
 1706              	.LVL117:
 1707 005a F0E7     		b	.L110
 1708              	.L114:
 1709              	.LBE295:
 1710              	.LBE297:
ARM GAS  /tmp/ccG9euUV.s 			page 31


 1711              	.LBE300:
 1712              		.loc 1 217 1 is_stmt 0 view .LVU344
 1713 005c FFF7FEFF 		bl	__stack_chk_fail
 1714              	.LVL118:
 1715              	.L116:
 1716              		.align	2
 1717              	.L115:
 1718 0060 00000000 		.word	.LC10
 1719 0064 00000000 		.word	ch
 1720 0068 00000000 		.word	.LANCHOR1
 1721              		.cfi_endproc
 1722              	.LFE265:
 1723              		.size	gptStopTimer, .-gptStopTimer
 1724              		.section	.rodata.gptPolledDelay.cst4,"aM",%progbits,4
 1725              		.align	2
 1726              	.LC11:
 1727 0000 00000000 		.word	__stack_chk_guard
 1728              		.section	.text.gptPolledDelay,"ax",%progbits
 1729              		.align	1
 1730              		.p2align 4,,15
 1731              		.global	gptPolledDelay
 1732              		.syntax unified
 1733              		.thumb
 1734              		.thumb_func
 1735              		.fpu fpv4-sp-d16
 1736              		.type	gptPolledDelay, %function
 1737              	gptPolledDelay:
 1738              	.LVL119:
 1739              	.LFB267:
 1740              		.loc 1 250 57 is_stmt 1 view -0
 1741              		.cfi_startproc
 1742              		@ args = 0, pretend = 0, frame = 16
 1743              		@ frame_needed = 0, uses_anonymous_args = 0
 1744              		.loc 1 250 57 is_stmt 0 view .LVU346
 1745 0000 10B5     		push	{r4, lr}
 1746              		.cfi_def_cfa_offset 8
 1747              		.cfi_offset 4, -8
 1748              		.cfi_offset 14, -4
 1749              		.loc 1 252 3 view .LVU347
 1750 0002 0378     		ldrb	r3, [r0]	@ zero_extendqisi2
 1751              		.loc 1 250 57 view .LVU348
 1752 0004 0E4A     		ldr	r2, .L125
 1753 0006 84B0     		sub	sp, sp, #16
 1754              		.cfi_def_cfa_offset 24
 1755              		.loc 1 252 3 view .LVU349
 1756 0008 022B     		cmp	r3, #2
 1757              		.loc 1 250 57 view .LVU350
 1758 000a 0446     		mov	r4, r0
 1759 000c 1268     		ldr	r2, [r2]
 1760 000e 0392     		str	r2, [sp, #12]
 1761 0010 4FF00002 		mov	r2,#0
 1762              		.loc 1 252 3 is_stmt 1 view .LVU351
 1763              		.loc 1 252 3 view .LVU352
 1764              		.loc 1 252 3 view .LVU353
 1765 0014 04D0     		beq	.L118
 1766              		.loc 1 252 3 is_stmt 0 discriminator 3 view .LVU354
 1767 0016 0B48     		ldr	r0, .L125+4
ARM GAS  /tmp/ccG9euUV.s 			page 32


 1768              	.LVL120:
 1769              		.loc 1 252 3 discriminator 3 view .LVU355
 1770 0018 0191     		str	r1, [sp, #4]
 1771              		.loc 1 252 3 is_stmt 1 discriminator 3 view .LVU356
 1772 001a FFF7FEFF 		bl	chSysHalt
 1773              	.LVL121:
 1774              		.loc 1 252 3 is_stmt 0 discriminator 3 view .LVU357
 1775 001e 0199     		ldr	r1, [sp, #4]
 1776              	.LVL122:
 1777              	.L118:
 1778              		.loc 1 252 3 is_stmt 1 discriminator 5 view .LVU358
 1779              		.loc 1 255 3 discriminator 5 view .LVU359
 1780              		.loc 1 255 15 is_stmt 0 discriminator 5 view .LVU360
 1781 0020 0423     		movs	r3, #4
 1782 0022 2370     		strb	r3, [r4]
 1783              		.loc 1 256 3 is_stmt 1 discriminator 5 view .LVU361
 1784 0024 2046     		mov	r0, r4
 1785 0026 FFF7FEFF 		bl	gpt_lld_polled_delay
 1786              	.LVL123:
 1787              		.loc 1 257 3 discriminator 5 view .LVU362
 1788              		.loc 1 257 15 is_stmt 0 discriminator 5 view .LVU363
 1789 002a 0223     		movs	r3, #2
 1790 002c 2370     		strb	r3, [r4]
 1791              		.loc 1 258 1 discriminator 5 view .LVU364
 1792 002e 044B     		ldr	r3, .L125
 1793 0030 1A68     		ldr	r2, [r3]
 1794 0032 039B     		ldr	r3, [sp, #12]
 1795 0034 5A40     		eors	r2, r3, r2
 1796 0036 01D1     		bne	.L124
 1797              		.loc 1 258 1 view .LVU365
 1798 0038 04B0     		add	sp, sp, #16
 1799              		.cfi_remember_state
 1800              		.cfi_def_cfa_offset 8
 1801              		@ sp needed
 1802 003a 10BD     		pop	{r4, pc}
 1803              	.LVL124:
 1804              	.L124:
 1805              		.cfi_restore_state
 1806              		.loc 1 258 1 view .LVU366
 1807 003c FFF7FEFF 		bl	__stack_chk_fail
 1808              	.LVL125:
 1809              	.L126:
 1810              		.align	2
 1811              	.L125:
 1812 0040 00000000 		.word	.LC11
 1813 0044 00000000 		.word	.LANCHOR7
 1814              		.cfi_endproc
 1815              	.LFE267:
 1816              		.size	gptPolledDelay, .-gptPolledDelay
 1817              		.section	.rodata.__func__.7261,"a"
 1818              		.align	2
 1819              		.set	.LANCHOR1,. + 0
 1820              		.type	__func__.7261, %object
 1821              		.size	__func__.7261, 12
 1822              	__func__.7261:
 1823 0000 63685379 		.ascii	"chSysUnlock\000"
 1823      73556E6C 
ARM GAS  /tmp/ccG9euUV.s 			page 33


 1823      6F636B00 
 1824              		.section	.rodata.__func__.9956,"a"
 1825              		.align	2
 1826              		.set	.LANCHOR0,. + 0
 1827              		.type	__func__.9956, %object
 1828              		.size	__func__.9956, 9
 1829              	__func__.9956:
 1830 0000 67707453 		.ascii	"gptStart\000"
 1830      74617274 
 1830      00
 1831              		.section	.rodata.__func__.9960,"a"
 1832              		.align	2
 1833              		.set	.LANCHOR2,. + 0
 1834              		.type	__func__.9960, %object
 1835              		.size	__func__.9960, 8
 1836              	__func__.9960:
 1837 0000 67707453 		.ascii	"gptStop\000"
 1837      746F7000 
 1838              		.section	.rodata.__func__.9965,"a"
 1839              		.align	2
 1840              		.set	.LANCHOR3,. + 0
 1841              		.type	__func__.9965, %object
 1842              		.size	__func__.9965, 18
 1843              	__func__.9965:
 1844 0000 67707443 		.ascii	"gptChangeInterval\000"
 1844      68616E67 
 1844      65496E74 
 1844      65727661 
 1844      6C00
 1845              		.section	.rodata.__func__.9974,"a"
 1846              		.align	2
 1847              		.set	.LANCHOR4,. + 0
 1848              		.type	__func__.9974, %object
 1849              		.size	__func__.9974, 20
 1850              	__func__.9974:
 1851 0000 67707453 		.ascii	"gptStartContinuousI\000"
 1851      74617274 
 1851      436F6E74 
 1851      696E756F 
 1851      75734900 
 1852              		.section	.rodata.__func__.9983,"a"
 1853              		.align	2
 1854              		.set	.LANCHOR5,. + 0
 1855              		.type	__func__.9983, %object
 1856              		.size	__func__.9983, 17
 1857              	__func__.9983:
 1858 0000 67707453 		.ascii	"gptStartOneShotI\000"
 1858      74617274 
 1858      4F6E6553 
 1858      686F7449 
 1858      00
 1859              		.section	.rodata.__func__.9990,"a"
 1860              		.align	2
 1861              		.set	.LANCHOR6,. + 0
 1862              		.type	__func__.9990, %object
 1863              		.size	__func__.9990, 14
 1864              	__func__.9990:
ARM GAS  /tmp/ccG9euUV.s 			page 34


 1865 0000 67707453 		.ascii	"gptStopTimerI\000"
 1865      746F7054 
 1865      696D6572 
 1865      4900
 1866              		.section	.rodata.__func__.9995,"a"
 1867              		.align	2
 1868              		.set	.LANCHOR7,. + 0
 1869              		.type	__func__.9995, %object
 1870              		.size	__func__.9995, 15
 1871              	__func__.9995:
 1872 0000 67707450 		.ascii	"gptPolledDelay\000"
 1872      6F6C6C65 
 1872      6444656C 
 1872      617900
 1873              		.text
 1874              	.Letext0:
 1875              		.file 6 "/usr/lib/gcc/arm-none-eabi/9.2.1/include/stddef.h"
 1876              		.file 7 "/usr/lib/gcc/arm-none-eabi/9.2.1/include/stdint.h"
 1877              		.file 8 ".//ChibiOS//os/rt/ports/ARMCMx/compilers/GCC/chtypes.h"
 1878              		.file 9 ".//ChibiOS//os/rt/include/chsystypes.h"
 1879              		.file 10 ".//ChibiOS//os/rt/include/chschd.h"
 1880              		.file 11 ".//ChibiOS//os/ext/CMSIS/include/core_cm4.h"
 1881              		.file 12 ".//ChibiOS//os/ext/CMSIS/ST/system_stm32f4xx.h"
 1882              		.file 13 ".//ChibiOS//os/ext/CMSIS/ST/stm32f407xx.h"
 1883              		.file 14 ".//ChibiOS//os/rt/ports/ARMCMx/chcore.h"
 1884              		.file 15 ".//ChibiOS//os/rt/include/chdebug.h"
 1885              		.file 16 ".//ChibiOS//os/rt/include/chtm.h"
 1886              		.file 17 ".//ChibiOS//os/rt/include/chstats.h"
 1887              		.file 18 ".//ChibiOS//os/rt/include/chsem.h"
 1888              		.file 19 ".//ChibiOS//os/rt/include/chmtx.h"
 1889              		.file 20 ".//ChibiOS//os/rt/include/chregistry.h"
 1890              		.file 21 ".//ChibiOS//os/rt/include/chevents.h"
 1891              		.file 22 ".//ChibiOS//os/rt/include/chqueues.h"
 1892              		.file 23 ".//ChibiOS//os/hal/ports/STM32/STM32F4xx/stm32_dma.h"
 1893              		.file 24 ".//ChibiOS//os/hal/include/hal_ioblock.h"
 1894              		.file 25 ".//ChibiOS//os/hal/ports/STM32/LLD/GPIOv2/pal_lld.h"
 1895              		.file 26 ".//ChibiOS//os/hal/include/adc.h"
 1896              		.file 27 ".//ChibiOS//os/hal/ports/STM32/STM32F4xx/adc_lld.h"
 1897              		.file 28 ".//ChibiOS//os/hal/include/can.h"
 1898              		.file 29 ".//ChibiOS//os/hal/ports/STM32/LLD/can_lld.h"
 1899              		.file 30 ".//ChibiOS//os/hal/include/dac.h"
 1900              		.file 31 ".//ChibiOS//os/hal/ports/STM32/LLD/DACv1/dac_lld.h"
 1901              		.file 32 ".//ChibiOS//os/hal/include/ext.h"
 1902              		.file 33 ".//ChibiOS//os/hal/ports/STM32/LLD/ext_lld.h"
 1903              		.file 34 ".//ChibiOS//os/hal/include/gpt.h"
 1904              		.file 35 ".//ChibiOS//os/hal/ports/STM32/LLD/TIMv1/gpt_lld.h"
 1905              		.file 36 ".//ChibiOS//os/hal/ports/STM32/LLD/TIMv1/stm32_tim.h"
 1906              		.file 37 ".//ChibiOS//os/hal/include/i2c.h"
 1907              		.file 38 ".//ChibiOS//os/hal/ports/STM32/LLD/I2Cv1/i2c_lld.h"
 1908              		.file 39 ".//ChibiOS//os/hal/include/i2s.h"
 1909              		.file 40 ".//ChibiOS//os/hal/ports/STM32/LLD/SPIv1/i2s_lld.h"
 1910              		.file 41 ".//ChibiOS//os/hal/include/pwm.h"
 1911              		.file 42 ".//ChibiOS//os/hal/ports/STM32/LLD/TIMv1/pwm_lld.h"
 1912              		.file 43 ".//ChibiOS//os/hal/include/serial.h"
 1913              		.file 44 ".//ChibiOS//os/hal/ports/STM32/LLD/USARTv1/serial_lld.h"
 1914              		.file 45 ".//ChibiOS//os/hal/include/sdc.h"
 1915              		.file 46 ".//ChibiOS//os/hal/ports/STM32/LLD/sdc_lld.h"
ARM GAS  /tmp/ccG9euUV.s 			page 35


 1916              		.file 47 ".//ChibiOS//os/hal/include/spi.h"
 1917              		.file 48 ".//ChibiOS//os/hal/ports/STM32/LLD/SPIv1/spi_lld.h"
 1918              		.file 49 ".//ChibiOS//os/hal/include/usb.h"
 1919              		.file 50 ".//ChibiOS//os/hal/ports/STM32/LLD/OTGv1/usb_lld.h"
 1920              		.file 51 ".//ChibiOS//os/hal/ports/STM32/LLD/OTGv1/stm32_otg.h"