ARM GAS  /tmp/ccUeKWdA.s 			page 1


   1              		.cpu cortex-m4
   2              		.eabi_attribute 27, 1
   3              		.eabi_attribute 28, 1
   4              		.eabi_attribute 20, 1
   5              		.eabi_attribute 21, 1
   6              		.eabi_attribute 23, 3
   7              		.eabi_attribute 24, 1
   8              		.eabi_attribute 25, 1
   9              		.eabi_attribute 26, 1
  10              		.eabi_attribute 30, 2
  11              		.eabi_attribute 34, 1
  12              		.eabi_attribute 18, 4
  13              		.file	"gpt_lld.c"
  14              		.text
  15              	.Ltext0:
  16              		.cfi_sections	.debug_frame
  17              		.section	.rodata.gpt_lld_serve_interrupt.cst4,"aM",%progbits,4
  18              		.align	2
  19              	.LC0:
  20 0000 00000000 		.word	__stack_chk_guard
  21              		.section	.text.gpt_lld_serve_interrupt,"ax",%progbits
  22              		.align	1
  23              		.p2align 4,,15
  24              		.arch armv7e-m
  25              		.syntax unified
  26              		.thumb
  27              		.thumb_func
  28              		.fpu fpv4-sp-d16
  29              		.type	gpt_lld_serve_interrupt, %function
  30              	gpt_lld_serve_interrupt:
  31              	.LVL0:
  32              	.LFB256:
  33              		.file 1 ".//ChibiOS//os/hal/ports/STM32/LLD/TIMv1/gpt_lld.c"
  34              		.loc 1 146 54 view -0
  35              		.cfi_startproc
  36              		@ args = 0, pretend = 0, frame = 8
  37              		@ frame_needed = 0, uses_anonymous_args = 0
  38              		.loc 1 146 54 is_stmt 0 view .LVU1
  39 0000 00B5     		push	{lr}
  40              		.cfi_def_cfa_offset 4
  41              		.cfi_offset 14, -4
  42              		.loc 1 148 7 view .LVU2
  43 0002 C268     		ldr	r2, [r0, #12]
  44              		.loc 1 146 54 view .LVU3
  45 0004 1149     		ldr	r1, .L8
  46 0006 83B0     		sub	sp, sp, #12
  47              		.cfi_def_cfa_offset 16
  48              		.loc 1 148 17 view .LVU4
  49 0008 0023     		movs	r3, #0
  50              		.loc 1 146 54 view .LVU5
  51 000a 0968     		ldr	r1, [r1]
  52 000c 0191     		str	r1, [sp, #4]
  53 000e 4FF00001 		mov	r1,#0
  54              		.loc 1 148 3 is_stmt 1 view .LVU6
  55              		.loc 1 148 17 is_stmt 0 view .LVU7
  56 0012 1361     		str	r3, [r2, #16]
  57              		.loc 1 149 3 is_stmt 1 view .LVU8
ARM GAS  /tmp/ccUeKWdA.s 			page 2


  58              		.loc 1 149 6 is_stmt 0 view .LVU9
  59 0014 0278     		ldrb	r2, [r0]	@ zero_extendqisi2
  60 0016 042A     		cmp	r2, #4
  61 0018 0AD1     		bne	.L2
  62              		.loc 1 150 5 is_stmt 1 view .LVU10
  63              	.LBB4:
  64              	.LBB5:
  65              		.loc 1 733 7 is_stmt 0 view .LVU11
  66 001a C268     		ldr	r2, [r0, #12]
  67              	.LBE5:
  68              	.LBE4:
  69              		.loc 1 150 17 view .LVU12
  70 001c 0221     		movs	r1, #2
  71 001e 0170     		strb	r1, [r0]
  72              		.loc 1 151 5 is_stmt 1 view .LVU13
  73              	.LVL1:
  74              	.LBB7:
  75              	.LBI4:
  76              		.loc 1 731 6 view .LVU14
  77              	.LBB6:
  78              		.loc 1 733 3 view .LVU15
  79              		.loc 1 733 20 is_stmt 0 view .LVU16
  80 0020 1360     		str	r3, [r2]
  81              		.loc 1 734 3 is_stmt 1 view .LVU17
  82              		.loc 1 734 7 is_stmt 0 view .LVU18
  83 0022 C268     		ldr	r2, [r0, #12]
  84              		.loc 1 734 20 view .LVU19
  85 0024 1361     		str	r3, [r2, #16]
  86              		.loc 1 737 3 is_stmt 1 view .LVU20
  87              		.loc 1 737 7 is_stmt 0 view .LVU21
  88 0026 C268     		ldr	r2, [r0, #12]
  89              		.loc 1 737 19 view .LVU22
  90 0028 D368     		ldr	r3, [r2, #12]
  91 002a 23F0FF03 		bic	r3, r3, #255
  92 002e D360     		str	r3, [r2, #12]
  93              	.LVL2:
  94              	.L2:
  95              		.loc 1 737 19 view .LVU23
  96              	.LBE6:
  97              	.LBE7:
  98              		.loc 1 153 3 is_stmt 1 view .LVU24
  99 0030 064B     		ldr	r3, .L8
 100 0032 1A68     		ldr	r2, [r3]
 101 0034 019B     		ldr	r3, [sp, #4]
 102 0036 5A40     		eors	r2, r3, r2
 103 0038 05D1     		bne	.L7
 104              		.loc 1 153 15 is_stmt 0 view .LVU25
 105 003a 4368     		ldr	r3, [r0, #4]
 106              		.loc 1 153 3 view .LVU26
 107 003c 5B68     		ldr	r3, [r3, #4]
 108              		.loc 1 154 1 view .LVU27
 109 003e 03B0     		add	sp, sp, #12
 110              		.cfi_remember_state
 111              		.cfi_def_cfa_offset 4
 112              		@ sp needed
 113 0040 5DF804EB 		ldr	lr, [sp], #4
 114              		.cfi_restore 14
ARM GAS  /tmp/ccUeKWdA.s 			page 3


 115              		.cfi_def_cfa_offset 0
 116              		.loc 1 153 3 view .LVU28
 117 0044 1847     		bx	r3	@ indirect register sibling call
 118              	.LVL3:
 119              	.L7:
 120              		.cfi_restore_state
 121              		.loc 1 153 3 view .LVU29
 122 0046 FFF7FEFF 		bl	__stack_chk_fail
 123              	.LVL4:
 124              	.L9:
 125              		.loc 1 153 3 view .LVU30
 126 004a 00BF     		.align	2
 127              	.L8:
 128 004c 00000000 		.word	.LC0
 129              		.cfi_endproc
 130              	.LFE256:
 131              		.size	gpt_lld_serve_interrupt, .-gpt_lld_serve_interrupt
 132              		.section	.rodata.Vector118.cst4,"aM",%progbits,4
 133              		.align	2
 134              	.LC1:
 135 0000 00000000 		.word	__stack_chk_guard
 136              		.section	.text.Vector118,"ax",%progbits
 137              		.align	1
 138              		.p2align 4,,15
 139              		.global	Vector118
 140              		.syntax unified
 141              		.thumb
 142              		.thumb_func
 143              		.fpu fpv4-sp-d16
 144              		.type	Vector118, %function
 145              	Vector118:
 146              	.LFB257:
 147              		.loc 1 264 38 is_stmt 1 view -0
 148              		.cfi_startproc
 149              		@ args = 0, pretend = 0, frame = 8
 150              		@ frame_needed = 0, uses_anonymous_args = 0
 151 0000 00B5     		push	{lr}
 152              		.cfi_def_cfa_offset 4
 153              		.cfi_offset 14, -4
 154 0002 0D4B     		ldr	r3, .L15
 155 0004 83B0     		sub	sp, sp, #12
 156              		.cfi_def_cfa_offset 16
 157              		.loc 1 264 38 is_stmt 0 view .LVU32
 158 0006 1B68     		ldr	r3, [r3]
 159 0008 0193     		str	r3, [sp, #4]
 160 000a 4FF00003 		mov	r3,#0
 161              		.loc 1 266 3 is_stmt 1 view .LVU33
 162              		.loc 1 266 3 view .LVU34
 163 000e FFF7FEFF 		bl	_stats_increase_irq
 164              	.LVL5:
 165              		.loc 1 266 3 view .LVU35
 166 0012 FFF7FEFF 		bl	_dbg_check_enter_isr
 167              	.LVL6:
 168              		.loc 1 268 3 view .LVU36
 169 0016 0948     		ldr	r0, .L15+4
 170 0018 FFF7FEFF 		bl	gpt_lld_serve_interrupt
 171              	.LVL7:
ARM GAS  /tmp/ccUeKWdA.s 			page 4


 172              		.loc 1 270 3 view .LVU37
 173 001c FFF7FEFF 		bl	_dbg_check_leave_isr
 174              	.LVL8:
 175              		.loc 1 270 3 view .LVU38
 176 0020 054B     		ldr	r3, .L15
 177 0022 1A68     		ldr	r2, [r3]
 178 0024 019B     		ldr	r3, [sp, #4]
 179 0026 5A40     		eors	r2, r3, r2
 180 0028 04D1     		bne	.L14
 181              		.loc 1 271 1 is_stmt 0 view .LVU39
 182 002a 03B0     		add	sp, sp, #12
 183              		.cfi_remember_state
 184              		.cfi_def_cfa_offset 4
 185              		@ sp needed
 186 002c 5DF804EB 		ldr	lr, [sp], #4
 187              		.cfi_restore 14
 188              		.cfi_def_cfa_offset 0
 189              		.loc 1 270 3 view .LVU40
 190 0030 FFF7FEBF 		b	_port_irq_epilogue
 191              	.LVL9:
 192              	.L14:
 193              		.cfi_restore_state
 194 0034 FFF7FEFF 		bl	__stack_chk_fail
 195              	.LVL10:
 196              	.L16:
 197              		.align	2
 198              	.L15:
 199 0038 00000000 		.word	.LC1
 200 003c 00000000 		.word	.LANCHOR0
 201              		.cfi_endproc
 202              	.LFE257:
 203              		.size	Vector118, .-Vector118
 204              		.section	.rodata.VectorA8.cst4,"aM",%progbits,4
 205              		.align	2
 206              	.LC2:
 207 0000 00000000 		.word	__stack_chk_guard
 208              		.section	.text.VectorA8,"ax",%progbits
 209              		.align	1
 210              		.p2align 4,,15
 211              		.global	VectorA8
 212              		.syntax unified
 213              		.thumb
 214              		.thumb_func
 215              		.fpu fpv4-sp-d16
 216              		.type	VectorA8, %function
 217              	VectorA8:
 218              	.LFB258:
 219              		.loc 1 340 39 is_stmt 1 view -0
 220              		.cfi_startproc
 221              		@ args = 0, pretend = 0, frame = 8
 222              		@ frame_needed = 0, uses_anonymous_args = 0
 223 0000 00B5     		push	{lr}
 224              		.cfi_def_cfa_offset 4
 225              		.cfi_offset 14, -4
 226 0002 0D4B     		ldr	r3, .L22
 227 0004 83B0     		sub	sp, sp, #12
 228              		.cfi_def_cfa_offset 16
ARM GAS  /tmp/ccUeKWdA.s 			page 5


 229              		.loc 1 340 39 is_stmt 0 view .LVU42
 230 0006 1B68     		ldr	r3, [r3]
 231 0008 0193     		str	r3, [sp, #4]
 232 000a 4FF00003 		mov	r3,#0
 233              		.loc 1 342 3 is_stmt 1 view .LVU43
 234              		.loc 1 342 3 view .LVU44
 235 000e FFF7FEFF 		bl	_stats_increase_irq
 236              	.LVL11:
 237              		.loc 1 342 3 view .LVU45
 238 0012 FFF7FEFF 		bl	_dbg_check_enter_isr
 239              	.LVL12:
 240              		.loc 1 344 3 view .LVU46
 241 0016 0948     		ldr	r0, .L22+4
 242 0018 FFF7FEFF 		bl	gpt_lld_serve_interrupt
 243              	.LVL13:
 244              		.loc 1 346 3 view .LVU47
 245 001c FFF7FEFF 		bl	_dbg_check_leave_isr
 246              	.LVL14:
 247              		.loc 1 346 3 view .LVU48
 248 0020 054B     		ldr	r3, .L22
 249 0022 1A68     		ldr	r2, [r3]
 250 0024 019B     		ldr	r3, [sp, #4]
 251 0026 5A40     		eors	r2, r3, r2
 252 0028 04D1     		bne	.L21
 253              		.loc 1 347 1 is_stmt 0 view .LVU49
 254 002a 03B0     		add	sp, sp, #12
 255              		.cfi_remember_state
 256              		.cfi_def_cfa_offset 4
 257              		@ sp needed
 258 002c 5DF804EB 		ldr	lr, [sp], #4
 259              		.cfi_restore 14
 260              		.cfi_def_cfa_offset 0
 261              		.loc 1 346 3 view .LVU50
 262 0030 FFF7FEBF 		b	_port_irq_epilogue
 263              	.LVL15:
 264              	.L21:
 265              		.cfi_restore_state
 266 0034 FFF7FEFF 		bl	__stack_chk_fail
 267              	.LVL16:
 268              	.L23:
 269              		.align	2
 270              	.L22:
 271 0038 00000000 		.word	.LC2
 272 003c 00000000 		.word	.LANCHOR1
 273              		.cfi_endproc
 274              	.LFE258:
 275              		.size	VectorA8, .-VectorA8
 276              		.section	.rodata.gpt_lld_init.cst4,"aM",%progbits,4
 277              		.align	2
 278              	.LC3:
 279 0000 00000000 		.word	__stack_chk_guard
 280              		.section	.text.gpt_lld_init,"ax",%progbits
 281              		.align	1
 282              		.p2align 4,,15
 283              		.global	gpt_lld_init
 284              		.syntax unified
 285              		.thumb
ARM GAS  /tmp/ccUeKWdA.s 			page 6


 286              		.thumb_func
 287              		.fpu fpv4-sp-d16
 288              		.type	gpt_lld_init, %function
 289              	gpt_lld_init:
 290              	.LFB259:
 291              		.loc 1 397 25 is_stmt 1 view -0
 292              		.cfi_startproc
 293              		@ args = 0, pretend = 0, frame = 8
 294              		@ frame_needed = 0, uses_anonymous_args = 0
 295 0000 00B5     		push	{lr}
 296              		.cfi_def_cfa_offset 4
 297              		.cfi_offset 14, -4
 298              		.loc 1 431 13 is_stmt 0 view .LVU52
 299 0002 0D48     		ldr	r0, .L29
 300              		.loc 1 397 25 view .LVU53
 301 0004 0D4A     		ldr	r2, .L29+4
 302              		.loc 1 431 13 view .LVU54
 303 0006 0E4B     		ldr	r3, .L29+8
 304              		.loc 1 397 25 view .LVU55
 305 0008 83B0     		sub	sp, sp, #12
 306              		.cfi_def_cfa_offset 16
 307              		.loc 1 397 25 view .LVU56
 308 000a 1268     		ldr	r2, [r2]
 309 000c 0192     		str	r2, [sp, #4]
 310 000e 4FF00002 		mov	r2,#0
 311              		.loc 1 431 3 is_stmt 1 view .LVU57
 312              		.loc 1 431 13 is_stmt 0 view .LVU58
 313 0012 C360     		str	r3, [r0, #12]
 314              		.loc 1 432 3 is_stmt 1 view .LVU59
 315 0014 FFF7FEFF 		bl	gptObjectInit
 316              	.LVL17:
 317              		.loc 1 455 3 view .LVU60
 318              		.loc 1 455 14 is_stmt 0 view .LVU61
 319 0018 0A48     		ldr	r0, .L29+12
 320 001a 0B4B     		ldr	r3, .L29+16
 321 001c C360     		str	r3, [r0, #12]
 322              		.loc 1 456 3 is_stmt 1 view .LVU62
 323 001e 074B     		ldr	r3, .L29+4
 324 0020 1A68     		ldr	r2, [r3]
 325 0022 019B     		ldr	r3, [sp, #4]
 326 0024 5A40     		eors	r2, r3, r2
 327 0026 04D1     		bne	.L28
 328              		.loc 1 470 1 is_stmt 0 view .LVU63
 329 0028 03B0     		add	sp, sp, #12
 330              		.cfi_remember_state
 331              		.cfi_def_cfa_offset 4
 332              		@ sp needed
 333 002a 5DF804EB 		ldr	lr, [sp], #4
 334              		.cfi_restore 14
 335              		.cfi_def_cfa_offset 0
 336              		.loc 1 456 3 view .LVU64
 337 002e FFF7FEBF 		b	gptObjectInit
 338              	.LVL18:
 339              	.L28:
 340              		.cfi_restore_state
 341 0032 FFF7FEFF 		bl	__stack_chk_fail
 342              	.LVL19:
ARM GAS  /tmp/ccUeKWdA.s 			page 7


 343              	.L30:
 344 0036 00BF     		.align	2
 345              	.L29:
 346 0038 00000000 		.word	.LANCHOR0
 347 003c 00000000 		.word	.LC3
 348 0040 00100040 		.word	1073745920
 349 0044 00000000 		.word	.LANCHOR1
 350 0048 00480140 		.word	1073825792
 351              		.cfi_endproc
 352              	.LFE259:
 353              		.size	gpt_lld_init, .-gpt_lld_init
 354              		.section	.rodata.gpt_lld_start.cst4,"aM",%progbits,4
 355              		.align	2
 356              	.LC4:
 357 0000 00000000 		.word	__stack_chk_guard
 358              		.section	.text.gpt_lld_start,"ax",%progbits
 359              		.align	1
 360              		.p2align 4,,15
 361              		.global	gpt_lld_start
 362              		.syntax unified
 363              		.thumb
 364              		.thumb_func
 365              		.fpu fpv4-sp-d16
 366              		.type	gpt_lld_start, %function
 367              	gpt_lld_start:
 368              	.LVL20:
 369              	.LFB260:
 370              		.loc 1 479 37 is_stmt 1 view -0
 371              		.cfi_startproc
 372              		@ args = 0, pretend = 0, frame = 8
 373              		@ frame_needed = 0, uses_anonymous_args = 0
 374              		.loc 1 479 37 is_stmt 0 view .LVU66
 375 0000 30B5     		push	{r4, r5, lr}
 376              		.cfi_def_cfa_offset 12
 377              		.cfi_offset 4, -12
 378              		.cfi_offset 5, -8
 379              		.cfi_offset 14, -4
 380 0002 2E4B     		ldr	r3, .L40
 381 0004 83B0     		sub	sp, sp, #12
 382              		.cfi_def_cfa_offset 24
 383              		.loc 1 479 37 view .LVU67
 384 0006 1B68     		ldr	r3, [r3]
 385 0008 0193     		str	r3, [sp, #4]
 386 000a 4FF00003 		mov	r3,#0
 387              		.loc 1 480 3 is_stmt 1 view .LVU68
 388              		.loc 1 482 3 view .LVU69
 389              		.loc 1 482 6 is_stmt 0 view .LVU70
 390 000e 0378     		ldrb	r3, [r0]	@ zero_extendqisi2
 391 0010 012B     		cmp	r3, #1
 392              		.loc 1 479 37 view .LVU71
 393 0012 0446     		mov	r4, r0
 394              		.loc 1 482 6 view .LVU72
 395 0014 25D0     		beq	.L37
 396              	.LVL21:
 397              	.L32:
 398              		.loc 1 599 3 is_stmt 1 view .LVU73
 399              		.loc 1 599 25 is_stmt 0 view .LVU74
ARM GAS  /tmp/ccUeKWdA.s 			page 8


 400 0016 D4E90132 		ldrd	r3, r2, [r4, #4]
 401              		.loc 1 599 47 view .LVU75
 402 001a 1B68     		ldr	r3, [r3]
 403              		.loc 1 599 33 view .LVU76
 404 001c B2FBF3F5 		udiv	r5, r2, r3
 405              		.loc 1 599 7 view .LVU77
 406 0020 013D     		subs	r5, r5, #1
 407 0022 ADB2     		uxth	r5, r5
 408              	.LVL22:
 409              		.loc 1 600 3 is_stmt 1 view .LVU78
 410              		.loc 1 600 3 view .LVU79
 411              		.loc 1 600 3 view .LVU80
 412 0024 05FB0333 		mla	r3, r5, r3, r3
 413 0028 9A42     		cmp	r2, r3
 414 002a 02D0     		beq	.L34
 415              		.loc 1 600 3 discriminator 3 view .LVU81
 416 002c 2448     		ldr	r0, .L40+4
 417 002e FFF7FEFF 		bl	chSysHalt
 418              	.LVL23:
 419              	.L34:
 420              		.loc 1 600 3 discriminator 5 view .LVU82
 421              		.loc 1 604 3 discriminator 5 view .LVU83
 422              		.loc 1 604 7 is_stmt 0 discriminator 5 view .LVU84
 423 0032 E268     		ldr	r2, [r4, #12]
 424              		.loc 1 604 19 discriminator 5 view .LVU85
 425 0034 0023     		movs	r3, #0
 426 0036 1360     		str	r3, [r2]
 427              		.loc 1 605 3 is_stmt 1 discriminator 5 view .LVU86
 428              		.loc 1 605 33 is_stmt 0 discriminator 5 view .LVU87
 429 0038 6168     		ldr	r1, [r4, #4]
 430              		.loc 1 605 7 discriminator 5 view .LVU88
 431 003a E268     		ldr	r2, [r4, #12]
 432              		.loc 1 605 33 discriminator 5 view .LVU89
 433 003c 8968     		ldr	r1, [r1, #8]
 434              		.loc 1 605 19 discriminator 5 view .LVU90
 435 003e 5160     		str	r1, [r2, #4]
 436              		.loc 1 606 3 is_stmt 1 discriminator 5 view .LVU91
 437              		.loc 1 606 7 is_stmt 0 discriminator 5 view .LVU92
 438 0040 E268     		ldr	r2, [r4, #12]
 439              		.loc 1 606 19 discriminator 5 view .LVU93
 440 0042 9562     		str	r5, [r2, #40]
 441              		.loc 1 607 3 is_stmt 1 discriminator 5 view .LVU94
 442              		.loc 1 607 7 is_stmt 0 discriminator 5 view .LVU95
 443 0044 E268     		ldr	r2, [r4, #12]
 444              		.loc 1 607 19 discriminator 5 view .LVU96
 445 0046 1361     		str	r3, [r2, #16]
 446              		.loc 1 608 3 is_stmt 1 discriminator 5 view .LVU97
 447              		.loc 1 608 33 is_stmt 0 discriminator 5 view .LVU98
 448 0048 6368     		ldr	r3, [r4, #4]
 449              		.loc 1 608 7 discriminator 5 view .LVU99
 450 004a E268     		ldr	r2, [r4, #12]
 451              		.loc 1 608 40 discriminator 5 view .LVU100
 452 004c DB68     		ldr	r3, [r3, #12]
 453 004e 23F0FF03 		bic	r3, r3, #255
 454              		.loc 1 608 19 discriminator 5 view .LVU101
 455 0052 D360     		str	r3, [r2, #12]
 456              		.loc 1 610 1 discriminator 5 view .LVU102
ARM GAS  /tmp/ccUeKWdA.s 			page 9


 457 0054 194B     		ldr	r3, .L40
 458 0056 1A68     		ldr	r2, [r3]
 459 0058 019B     		ldr	r3, [sp, #4]
 460 005a 5A40     		eors	r2, r3, r2
 461 005c 2BD1     		bne	.L38
 462              		.loc 1 610 1 view .LVU103
 463 005e 03B0     		add	sp, sp, #12
 464              		.cfi_remember_state
 465              		.cfi_def_cfa_offset 12
 466              		@ sp needed
 467 0060 30BD     		pop	{r4, r5, pc}
 468              	.LVL24:
 469              	.L37:
 470              		.cfi_restore_state
 471              		.loc 1 531 5 is_stmt 1 view .LVU104
 472              		.loc 1 531 8 is_stmt 0 view .LVU105
 473 0062 184B     		ldr	r3, .L40+8
 474 0064 9842     		cmp	r0, r3
 475 0066 14D0     		beq	.L39
 476              		.loc 1 571 5 is_stmt 1 view .LVU106
 477              		.loc 1 571 8 is_stmt 0 view .LVU107
 478 0068 174B     		ldr	r3, .L40+12
 479 006a 9842     		cmp	r0, r3
 480 006c D3D1     		bne	.L32
 481              		.loc 1 572 7 is_stmt 1 view .LVU108
 482 006e 174B     		ldr	r3, .L40+16
 483 0070 5A6C     		ldr	r2, [r3, #68]
 484 0072 42F48022 		orr	r2, r2, #262144
 485 0076 5A64     		str	r2, [r3, #68]
 486              		.loc 1 572 7 view .LVU109
 487              		.loc 1 572 28 view .LVU110
 488              		.loc 1 573 7 view .LVU111
 489 0078 5A6A     		ldr	r2, [r3, #36]
 490 007a 0020     		movs	r0, #0
 491              	.LVL25:
 492              		.loc 1 573 7 is_stmt 0 view .LVU112
 493 007c 42F48022 		orr	r2, r2, #262144
 494 0080 5A62     		str	r2, [r3, #36]
 495              		.loc 1 573 7 is_stmt 1 view .LVU113
 496              		.loc 1 574 7 is_stmt 0 view .LVU114
 497 0082 0721     		movs	r1, #7
 498              		.loc 1 573 7 view .LVU115
 499 0084 5862     		str	r0, [r3, #36]
 500              		.loc 1 573 22 is_stmt 1 view .LVU116
 501              		.loc 1 574 7 view .LVU117
 502 0086 1A20     		movs	r0, #26
 503 0088 FFF7FEFF 		bl	nvicEnableVector
 504              	.LVL26:
 505              		.loc 1 575 7 view .LVU118
 506              		.loc 1 575 19 is_stmt 0 view .LVU119
 507 008c 104B     		ldr	r3, .L40+20
 508 008e A360     		str	r3, [r4, #8]
 509 0090 C1E7     		b	.L32
 510              	.LVL27:
 511              	.L39:
 512              		.loc 1 532 7 is_stmt 1 view .LVU120
 513 0092 0E4B     		ldr	r3, .L40+16
ARM GAS  /tmp/ccUeKWdA.s 			page 10


 514 0094 1A6C     		ldr	r2, [r3, #64]
 515 0096 42F01002 		orr	r2, r2, #16
 516 009a 1A64     		str	r2, [r3, #64]
 517              		.loc 1 532 7 view .LVU121
 518              		.loc 1 532 27 view .LVU122
 519              		.loc 1 533 7 view .LVU123
 520 009c 1A6A     		ldr	r2, [r3, #32]
 521 009e 0020     		movs	r0, #0
 522              	.LVL28:
 523              		.loc 1 533 7 is_stmt 0 view .LVU124
 524 00a0 42F01002 		orr	r2, r2, #16
 525 00a4 1A62     		str	r2, [r3, #32]
 526              		.loc 1 533 7 is_stmt 1 view .LVU125
 527              		.loc 1 534 7 is_stmt 0 view .LVU126
 528 00a6 0721     		movs	r1, #7
 529              		.loc 1 533 7 view .LVU127
 530 00a8 1862     		str	r0, [r3, #32]
 531              		.loc 1 533 21 is_stmt 1 view .LVU128
 532              		.loc 1 534 7 view .LVU129
 533 00aa 3620     		movs	r0, #54
 534 00ac FFF7FEFF 		bl	nvicEnableVector
 535              	.LVL29:
 536              		.loc 1 535 7 view .LVU130
 537              		.loc 1 535 19 is_stmt 0 view .LVU131
 538 00b0 084B     		ldr	r3, .L40+24
 539 00b2 A360     		str	r3, [r4, #8]
 540              		.loc 1 571 5 is_stmt 1 view .LVU132
 541 00b4 AFE7     		b	.L32
 542              	.LVL30:
 543              	.L38:
 544              		.loc 1 610 1 is_stmt 0 view .LVU133
 545 00b6 FFF7FEFF 		bl	__stack_chk_fail
 546              	.LVL31:
 547              	.L41:
 548 00ba 00BF     		.align	2
 549              	.L40:
 550 00bc 00000000 		.word	.LC4
 551 00c0 00000000 		.word	.LANCHOR2
 552 00c4 00000000 		.word	.LANCHOR0
 553 00c8 00000000 		.word	.LANCHOR1
 554 00cc 00380240 		.word	1073887232
 555 00d0 007A030A 		.word	168000000
 556 00d4 00BD0105 		.word	84000000
 557              		.cfi_endproc
 558              	.LFE260:
 559              		.size	gpt_lld_start, .-gpt_lld_start
 560              		.section	.rodata.gpt_lld_stop.cst4,"aM",%progbits,4
 561              		.align	2
 562              	.LC5:
 563 0000 00000000 		.word	__stack_chk_guard
 564              		.section	.text.gpt_lld_stop,"ax",%progbits
 565              		.align	1
 566              		.p2align 4,,15
 567              		.global	gpt_lld_stop
 568              		.syntax unified
 569              		.thumb
 570              		.thumb_func
ARM GAS  /tmp/ccUeKWdA.s 			page 11


 571              		.fpu fpv4-sp-d16
 572              		.type	gpt_lld_stop, %function
 573              	gpt_lld_stop:
 574              	.LVL32:
 575              	.LFB261:
 576              		.loc 1 619 36 is_stmt 1 view -0
 577              		.cfi_startproc
 578              		@ args = 0, pretend = 0, frame = 8
 579              		@ frame_needed = 0, uses_anonymous_args = 0
 580              		.loc 1 619 36 is_stmt 0 view .LVU135
 581 0000 00B5     		push	{lr}
 582              		.cfi_def_cfa_offset 4
 583              		.cfi_offset 14, -4
 584 0002 194B     		ldr	r3, .L52
 585 0004 83B0     		sub	sp, sp, #12
 586              		.cfi_def_cfa_offset 16
 587              		.loc 1 619 36 view .LVU136
 588 0006 1B68     		ldr	r3, [r3]
 589 0008 0193     		str	r3, [sp, #4]
 590 000a 4FF00003 		mov	r3,#0
 591              		.loc 1 621 3 is_stmt 1 view .LVU137
 592              		.loc 1 621 6 is_stmt 0 view .LVU138
 593 000e 0378     		ldrb	r3, [r0]	@ zero_extendqisi2
 594 0010 022B     		cmp	r3, #2
 595 0012 07D0     		beq	.L49
 596              	.LVL33:
 597              	.L42:
 598              		.loc 1 699 1 view .LVU139
 599 0014 144B     		ldr	r3, .L52
 600 0016 1A68     		ldr	r2, [r3]
 601 0018 019B     		ldr	r3, [sp, #4]
 602 001a 5A40     		eors	r2, r3, r2
 603 001c 21D1     		bne	.L50
 604 001e 03B0     		add	sp, sp, #12
 605              		.cfi_remember_state
 606              		.cfi_def_cfa_offset 4
 607              		@ sp needed
 608 0020 5DF804FB 		ldr	pc, [sp], #4
 609              	.LVL34:
 610              	.L49:
 611              		.cfi_restore_state
 612              		.loc 1 622 5 is_stmt 1 view .LVU140
 613              		.loc 1 622 9 is_stmt 0 view .LVU141
 614 0024 C168     		ldr	r1, [r0, #12]
 615              		.loc 1 657 8 view .LVU142
 616 0026 114A     		ldr	r2, .L52+4
 617              		.loc 1 622 21 view .LVU143
 618 0028 0023     		movs	r3, #0
 619 002a 0B60     		str	r3, [r1]
 620              		.loc 1 623 5 is_stmt 1 view .LVU144
 621              		.loc 1 623 9 is_stmt 0 view .LVU145
 622 002c C168     		ldr	r1, [r0, #12]
 623              		.loc 1 623 21 view .LVU146
 624 002e CB60     		str	r3, [r1, #12]
 625              		.loc 1 624 5 is_stmt 1 view .LVU147
 626              		.loc 1 624 9 is_stmt 0 view .LVU148
 627 0030 C168     		ldr	r1, [r0, #12]
ARM GAS  /tmp/ccUeKWdA.s 			page 12


 628              		.loc 1 657 8 view .LVU149
 629 0032 9042     		cmp	r0, r2
 630              		.loc 1 624 21 view .LVU150
 631 0034 0B61     		str	r3, [r1, #16]
 632              		.loc 1 657 5 is_stmt 1 view .LVU151
 633              		.loc 1 657 8 is_stmt 0 view .LVU152
 634 0036 0BD0     		beq	.L51
 635              		.loc 1 659 28 is_stmt 1 discriminator 3 view .LVU153
 636              		.loc 1 681 5 discriminator 3 view .LVU154
 637              		.loc 1 681 8 is_stmt 0 discriminator 3 view .LVU155
 638 0038 0D4B     		ldr	r3, .L52+8
 639 003a 9842     		cmp	r0, r3
 640 003c EAD1     		bne	.L42
 641              		.loc 1 682 7 is_stmt 1 view .LVU156
 642 003e 1A20     		movs	r0, #26
 643              	.LVL35:
 644              		.loc 1 682 7 is_stmt 0 view .LVU157
 645 0040 FFF7FEFF 		bl	nvicDisableVector
 646              	.LVL36:
 647              		.loc 1 683 7 is_stmt 1 view .LVU158
 648 0044 0B4A     		ldr	r2, .L52+12
 649 0046 536C     		ldr	r3, [r2, #68]
 650 0048 23F48023 		bic	r3, r3, #262144
 651 004c 5364     		str	r3, [r2, #68]
 652              		.loc 1 683 7 view .LVU159
 653              		.loc 1 683 29 view .LVU160
 654              		.loc 1 699 1 is_stmt 0 view .LVU161
 655 004e E1E7     		b	.L42
 656              	.LVL37:
 657              	.L51:
 658              		.loc 1 658 7 is_stmt 1 view .LVU162
 659 0050 3620     		movs	r0, #54
 660              	.LVL38:
 661              		.loc 1 658 7 is_stmt 0 view .LVU163
 662 0052 FFF7FEFF 		bl	nvicDisableVector
 663              	.LVL39:
 664              		.loc 1 659 7 is_stmt 1 view .LVU164
 665 0056 074A     		ldr	r2, .L52+12
 666 0058 136C     		ldr	r3, [r2, #64]
 667 005a 23F01003 		bic	r3, r3, #16
 668 005e 1364     		str	r3, [r2, #64]
 669              		.loc 1 659 7 view .LVU165
 670              		.loc 1 659 28 view .LVU166
 671              		.loc 1 681 5 view .LVU167
 672 0060 D8E7     		b	.L42
 673              	.L50:
 674              		.loc 1 699 1 is_stmt 0 view .LVU168
 675 0062 FFF7FEFF 		bl	__stack_chk_fail
 676              	.LVL40:
 677              	.L53:
 678 0066 00BF     		.align	2
 679              	.L52:
 680 0068 00000000 		.word	.LC5
 681 006c 00000000 		.word	.LANCHOR0
 682 0070 00000000 		.word	.LANCHOR1
 683 0074 00380240 		.word	1073887232
 684              		.cfi_endproc
ARM GAS  /tmp/ccUeKWdA.s 			page 13


 685              	.LFE261:
 686              		.size	gpt_lld_stop, .-gpt_lld_stop
 687              		.section	.rodata.gpt_lld_start_timer.cst4,"aM",%progbits,4
 688              		.align	2
 689              	.LC6:
 690 0000 00000000 		.word	__stack_chk_guard
 691              		.section	.text.gpt_lld_start_timer,"ax",%progbits
 692              		.align	1
 693              		.p2align 4,,15
 694              		.global	gpt_lld_start_timer
 695              		.syntax unified
 696              		.thumb
 697              		.thumb_func
 698              		.fpu fpv4-sp-d16
 699              		.type	gpt_lld_start_timer, %function
 700              	gpt_lld_start_timer:
 701              	.LVL41:
 702              	.LFB262:
 703              		.loc 1 709 62 is_stmt 1 view -0
 704              		.cfi_startproc
 705              		@ args = 0, pretend = 0, frame = 8
 706              		@ frame_needed = 0, uses_anonymous_args = 0
 707              		.loc 1 709 62 is_stmt 0 view .LVU170
 708 0000 00B5     		push	{lr}
 709              		.cfi_def_cfa_offset 4
 710              		.cfi_offset 14, -4
 711              		.loc 1 711 7 view .LVU171
 712 0002 C368     		ldr	r3, [r0, #12]
 713              		.loc 1 709 62 view .LVU172
 714 0004 124A     		ldr	r2, .L62
 715 0006 83B0     		sub	sp, sp, #12
 716              		.cfi_def_cfa_offset 16
 717              		.loc 1 711 22 view .LVU173
 718 0008 0139     		subs	r1, r1, #1
 719              	.LVL42:
 720              		.loc 1 709 62 view .LVU174
 721 000a 1268     		ldr	r2, [r2]
 722 000c 0192     		str	r2, [sp, #4]
 723 000e 4FF00002 		mov	r2,#0
 724              		.loc 1 711 3 is_stmt 1 view .LVU175
 725              		.loc 1 711 20 is_stmt 0 view .LVU176
 726 0012 D962     		str	r1, [r3, #44]
 727              		.loc 1 712 3 is_stmt 1 view .LVU177
 728              		.loc 1 712 7 is_stmt 0 view .LVU178
 729 0014 C368     		ldr	r3, [r0, #12]
 730              		.loc 1 712 20 view .LVU179
 731 0016 0122     		movs	r2, #1
 732 0018 5A61     		str	r2, [r3, #20]
 733              		.loc 1 713 3 is_stmt 1 view .LVU180
 734              		.loc 1 713 7 is_stmt 0 view .LVU181
 735 001a C268     		ldr	r2, [r0, #12]
 736              		.loc 1 713 20 view .LVU182
 737 001c 0023     		movs	r3, #0
 738 001e 5362     		str	r3, [r2, #36]
 739              		.loc 1 718 3 is_stmt 1 view .LVU183
 740              		.loc 1 718 7 is_stmt 0 view .LVU184
 741 0020 C268     		ldr	r2, [r0, #12]
ARM GAS  /tmp/ccUeKWdA.s 			page 14


 742              		.loc 1 718 20 view .LVU185
 743 0022 1361     		str	r3, [r2, #16]
 744              		.loc 1 719 3 is_stmt 1 view .LVU186
 745              		.loc 1 719 27 is_stmt 0 view .LVU187
 746 0024 4368     		ldr	r3, [r0, #4]
 747              		.loc 1 719 6 view .LVU188
 748 0026 5B68     		ldr	r3, [r3, #4]
 749 0028 23B1     		cbz	r3, .L55
 750              		.loc 1 720 5 is_stmt 1 view .LVU189
 751              		.loc 1 720 9 is_stmt 0 view .LVU190
 752 002a C268     		ldr	r2, [r0, #12]
 753              		.loc 1 720 21 view .LVU191
 754 002c D368     		ldr	r3, [r2, #12]
 755 002e 43F00103 		orr	r3, r3, #1
 756 0032 D360     		str	r3, [r2, #12]
 757              	.L55:
 758              		.loc 1 721 3 is_stmt 1 view .LVU192
 759              		.loc 1 721 7 is_stmt 0 view .LVU193
 760 0034 C368     		ldr	r3, [r0, #12]
 761              		.loc 1 721 20 view .LVU194
 762 0036 0522     		movs	r2, #5
 763 0038 1A60     		str	r2, [r3]
 764              		.loc 1 722 1 view .LVU195
 765 003a 054B     		ldr	r3, .L62
 766 003c 1A68     		ldr	r2, [r3]
 767 003e 019B     		ldr	r3, [sp, #4]
 768 0040 5A40     		eors	r2, r3, r2
 769 0042 02D1     		bne	.L61
 770 0044 03B0     		add	sp, sp, #12
 771              		.cfi_remember_state
 772              		.cfi_def_cfa_offset 4
 773              		@ sp needed
 774 0046 5DF804FB 		ldr	pc, [sp], #4
 775              	.L61:
 776              		.cfi_restore_state
 777 004a FFF7FEFF 		bl	__stack_chk_fail
 778              	.LVL43:
 779              	.L63:
 780              		.loc 1 722 1 view .LVU196
 781 004e 00BF     		.align	2
 782              	.L62:
 783 0050 00000000 		.word	.LC6
 784              		.cfi_endproc
 785              	.LFE262:
 786              		.size	gpt_lld_start_timer, .-gpt_lld_start_timer
 787              		.section	.rodata.gpt_lld_stop_timer.cst4,"aM",%progbits,4
 788              		.align	2
 789              	.LC7:
 790 0000 00000000 		.word	__stack_chk_guard
 791              		.section	.text.gpt_lld_stop_timer,"ax",%progbits
 792              		.align	1
 793              		.p2align 4,,15
 794              		.global	gpt_lld_stop_timer
 795              		.syntax unified
 796              		.thumb
 797              		.thumb_func
 798              		.fpu fpv4-sp-d16
ARM GAS  /tmp/ccUeKWdA.s 			page 15


 799              		.type	gpt_lld_stop_timer, %function
 800              	gpt_lld_stop_timer:
 801              	.LVL44:
 802              	.LFB263:
 803              		.loc 1 731 42 is_stmt 1 view -0
 804              		.cfi_startproc
 805              		@ args = 0, pretend = 0, frame = 8
 806              		@ frame_needed = 0, uses_anonymous_args = 0
 807              		.loc 1 731 42 is_stmt 0 view .LVU198
 808 0000 00B5     		push	{lr}
 809              		.cfi_def_cfa_offset 4
 810              		.cfi_offset 14, -4
 811              		.loc 1 733 7 view .LVU199
 812 0002 C268     		ldr	r2, [r0, #12]
 813              		.loc 1 731 42 view .LVU200
 814 0004 0C49     		ldr	r1, .L68
 815              		.loc 1 733 20 view .LVU201
 816 0006 0023     		movs	r3, #0
 817              		.loc 1 731 42 view .LVU202
 818 0008 83B0     		sub	sp, sp, #12
 819              		.cfi_def_cfa_offset 16
 820              		.loc 1 731 42 view .LVU203
 821 000a 0968     		ldr	r1, [r1]
 822 000c 0191     		str	r1, [sp, #4]
 823 000e 4FF00001 		mov	r1,#0
 824              		.loc 1 733 3 is_stmt 1 view .LVU204
 825              		.loc 1 733 20 is_stmt 0 view .LVU205
 826 0012 1360     		str	r3, [r2]
 827              		.loc 1 734 3 is_stmt 1 view .LVU206
 828              		.loc 1 734 7 is_stmt 0 view .LVU207
 829 0014 C268     		ldr	r2, [r0, #12]
 830              		.loc 1 734 20 view .LVU208
 831 0016 1361     		str	r3, [r2, #16]
 832              		.loc 1 737 3 is_stmt 1 view .LVU209
 833              		.loc 1 737 7 is_stmt 0 view .LVU210
 834 0018 C268     		ldr	r2, [r0, #12]
 835              		.loc 1 737 19 view .LVU211
 836 001a D368     		ldr	r3, [r2, #12]
 837 001c 23F0FF03 		bic	r3, r3, #255
 838 0020 D360     		str	r3, [r2, #12]
 839              		.loc 1 738 1 view .LVU212
 840 0022 054B     		ldr	r3, .L68
 841 0024 1A68     		ldr	r2, [r3]
 842 0026 019B     		ldr	r3, [sp, #4]
 843 0028 5A40     		eors	r2, r3, r2
 844 002a 02D1     		bne	.L67
 845 002c 03B0     		add	sp, sp, #12
 846              		.cfi_remember_state
 847              		.cfi_def_cfa_offset 4
 848              		@ sp needed
 849 002e 5DF804FB 		ldr	pc, [sp], #4
 850              	.L67:
 851              		.cfi_restore_state
 852 0032 FFF7FEFF 		bl	__stack_chk_fail
 853              	.LVL45:
 854              	.L69:
 855              		.loc 1 738 1 view .LVU213
ARM GAS  /tmp/ccUeKWdA.s 			page 16


 856 0036 00BF     		.align	2
 857              	.L68:
 858 0038 00000000 		.word	.LC7
 859              		.cfi_endproc
 860              	.LFE263:
 861              		.size	gpt_lld_stop_timer, .-gpt_lld_stop_timer
 862              		.section	.rodata.gpt_lld_polled_delay.cst4,"aM",%progbits,4
 863              		.align	2
 864              	.LC8:
 865 0000 00000000 		.word	__stack_chk_guard
 866              		.section	.text.gpt_lld_polled_delay,"ax",%progbits
 867              		.align	1
 868              		.p2align 4,,15
 869              		.global	gpt_lld_polled_delay
 870              		.syntax unified
 871              		.thumb
 872              		.thumb_func
 873              		.fpu fpv4-sp-d16
 874              		.type	gpt_lld_polled_delay, %function
 875              	gpt_lld_polled_delay:
 876              	.LVL46:
 877              	.LFB264:
 878              		.loc 1 751 63 is_stmt 1 view -0
 879              		.cfi_startproc
 880              		@ args = 0, pretend = 0, frame = 8
 881              		@ frame_needed = 0, uses_anonymous_args = 0
 882              		.loc 1 751 63 is_stmt 0 view .LVU215
 883 0000 00B5     		push	{lr}
 884              		.cfi_def_cfa_offset 4
 885              		.cfi_offset 14, -4
 886              		.loc 1 753 7 view .LVU216
 887 0002 C368     		ldr	r3, [r0, #12]
 888              		.loc 1 751 63 view .LVU217
 889 0004 0E4A     		ldr	r2, .L77
 890 0006 83B0     		sub	sp, sp, #12
 891              		.cfi_def_cfa_offset 16
 892              		.loc 1 753 21 view .LVU218
 893 0008 0139     		subs	r1, r1, #1
 894              	.LVL47:
 895              		.loc 1 751 63 view .LVU219
 896 000a 1268     		ldr	r2, [r2]
 897 000c 0192     		str	r2, [sp, #4]
 898 000e 4FF00002 		mov	r2,#0
 899              		.loc 1 753 3 is_stmt 1 view .LVU220
 900              		.loc 1 753 19 is_stmt 0 view .LVU221
 901 0012 D962     		str	r1, [r3, #44]
 902              		.loc 1 754 3 is_stmt 1 view .LVU222
 903              		.loc 1 754 7 is_stmt 0 view .LVU223
 904 0014 C368     		ldr	r3, [r0, #12]
 905              		.loc 1 754 19 view .LVU224
 906 0016 0122     		movs	r2, #1
 907 0018 5A61     		str	r2, [r3, #20]
 908              		.loc 1 755 3 is_stmt 1 view .LVU225
 909              		.loc 1 755 7 is_stmt 0 view .LVU226
 910 001a C368     		ldr	r3, [r0, #12]
 911              		.loc 1 755 19 view .LVU227
 912 001c 0D22     		movs	r2, #13
ARM GAS  /tmp/ccUeKWdA.s 			page 17


 913 001e 1A60     		str	r2, [r3]
 914              		.loc 1 756 3 is_stmt 1 view .LVU228
 915              		.loc 1 756 16 is_stmt 0 view .LVU229
 916 0020 C268     		ldr	r2, [r0, #12]
 917              	.L71:
 918              		.loc 1 757 5 is_stmt 1 discriminator 1 view .LVU230
 919              		.loc 1 756 9 discriminator 1 view .LVU231
 920              		.loc 1 756 21 is_stmt 0 discriminator 1 view .LVU232
 921 0022 1369     		ldr	r3, [r2, #16]
 922              		.loc 1 756 9 discriminator 1 view .LVU233
 923 0024 DB07     		lsls	r3, r3, #31
 924 0026 FCD5     		bpl	.L71
 925              		.loc 1 758 3 is_stmt 1 view .LVU234
 926              		.loc 1 758 19 is_stmt 0 view .LVU235
 927 0028 0023     		movs	r3, #0
 928 002a 1361     		str	r3, [r2, #16]
 929              		.loc 1 759 1 view .LVU236
 930 002c 044B     		ldr	r3, .L77
 931 002e 1A68     		ldr	r2, [r3]
 932 0030 019B     		ldr	r3, [sp, #4]
 933 0032 5A40     		eors	r2, r3, r2
 934 0034 02D1     		bne	.L76
 935 0036 03B0     		add	sp, sp, #12
 936              		.cfi_remember_state
 937              		.cfi_def_cfa_offset 4
 938              		@ sp needed
 939 0038 5DF804FB 		ldr	pc, [sp], #4
 940              	.L76:
 941              		.cfi_restore_state
 942 003c FFF7FEFF 		bl	__stack_chk_fail
 943              	.LVL48:
 944              	.L78:
 945              		.loc 1 759 1 view .LVU237
 946              		.align	2
 947              	.L77:
 948 0040 00000000 		.word	.LC8
 949              		.cfi_endproc
 950              	.LFE264:
 951              		.size	gpt_lld_polled_delay, .-gpt_lld_polled_delay
 952              		.global	GPTD11
 953              		.global	GPTD6
 954              		.section	.bss.GPTD11,"aw",%nobits
 955              		.align	2
 956              		.set	.LANCHOR1,. + 0
 957              		.type	GPTD11, %object
 958              		.size	GPTD11, 16
 959              	GPTD11:
 960 0000 00000000 		.space	16
 960      00000000 
 960      00000000 
 960      00000000 
 961              		.section	.bss.GPTD6,"aw",%nobits
 962              		.align	2
 963              		.set	.LANCHOR0,. + 0
 964              		.type	GPTD6, %object
 965              		.size	GPTD6, 16
 966              	GPTD6:
ARM GAS  /tmp/ccUeKWdA.s 			page 18


 967 0000 00000000 		.space	16
 967      00000000 
 967      00000000 
 967      00000000 
 968              		.section	.rodata.__func__.9964,"a"
 969              		.align	2
 970              		.set	.LANCHOR2,. + 0
 971              		.type	__func__.9964, %object
 972              		.size	__func__.9964, 14
 973              	__func__.9964:
 974 0000 6770745F 		.ascii	"gpt_lld_start\000"
 974      6C6C645F 
 974      73746172 
 974      7400
 975              		.text
 976              	.Letext0:
 977              		.file 2 "/usr/lib/gcc/arm-none-eabi/9.2.1/include/stddef.h"
 978              		.file 3 "/usr/lib/gcc/arm-none-eabi/9.2.1/include/stdint.h"
 979              		.file 4 ".//ChibiOS//os/rt/ports/ARMCMx/compilers/GCC/chtypes.h"
 980              		.file 5 ".//ChibiOS//os/rt/include/chsystypes.h"
 981              		.file 6 ".//ChibiOS//os/rt/include/chschd.h"
 982              		.file 7 ".//ChibiOS//os/ext/CMSIS/include/core_cm4.h"
 983              		.file 8 ".//ChibiOS//os/ext/CMSIS/ST/system_stm32f4xx.h"
 984              		.file 9 ".//ChibiOS//os/ext/CMSIS/ST/stm32f407xx.h"
 985              		.file 10 ".//ChibiOS//os/rt/ports/ARMCMx/chcore.h"
 986              		.file 11 ".//ChibiOS//os/rt/ports/ARMCMx/chcore_v7m.h"
 987              		.file 12 ".//ChibiOS//os/rt/include/chdebug.h"
 988              		.file 13 ".//ChibiOS//os/rt/include/chtm.h"
 989              		.file 14 ".//ChibiOS//os/rt/include/chstats.h"
 990              		.file 15 ".//ChibiOS//os/rt/include/chsem.h"
 991              		.file 16 ".//ChibiOS//os/rt/include/chmtx.h"
 992              		.file 17 ".//ChibiOS//os/rt/include/chregistry.h"
 993              		.file 18 ".//ChibiOS//os/rt/include/chevents.h"
 994              		.file 19 ".//ChibiOS//os/rt/include/chqueues.h"
 995              		.file 20 ".//ChibiOS//os/hal/ports/STM32/STM32F4xx/stm32_dma.h"
 996              		.file 21 ".//ChibiOS//os/hal/include/hal_ioblock.h"
 997              		.file 22 ".//ChibiOS//os/hal/ports/STM32/LLD/GPIOv2/pal_lld.h"
 998              		.file 23 ".//ChibiOS//os/hal/include/adc.h"
 999              		.file 24 ".//ChibiOS//os/hal/ports/STM32/STM32F4xx/adc_lld.h"
 1000              		.file 25 ".//ChibiOS//os/hal/include/can.h"
 1001              		.file 26 ".//ChibiOS//os/hal/ports/STM32/LLD/can_lld.h"
 1002              		.file 27 ".//ChibiOS//os/hal/include/dac.h"
 1003              		.file 28 ".//ChibiOS//os/hal/ports/STM32/LLD/DACv1/dac_lld.h"
 1004              		.file 29 ".//ChibiOS//os/hal/include/ext.h"
 1005              		.file 30 ".//ChibiOS//os/hal/ports/STM32/LLD/ext_lld.h"
 1006              		.file 31 ".//ChibiOS//os/hal/include/gpt.h"
 1007              		.file 32 ".//ChibiOS//os/hal/ports/STM32/LLD/TIMv1/gpt_lld.h"
 1008              		.file 33 ".//ChibiOS//os/hal/ports/STM32/LLD/TIMv1/stm32_tim.h"
 1009              		.file 34 ".//ChibiOS//os/hal/include/i2c.h"
 1010              		.file 35 ".//ChibiOS//os/hal/ports/STM32/LLD/I2Cv1/i2c_lld.h"
 1011              		.file 36 ".//ChibiOS//os/hal/include/i2s.h"
 1012              		.file 37 ".//ChibiOS//os/hal/ports/STM32/LLD/SPIv1/i2s_lld.h"
 1013              		.file 38 ".//ChibiOS//os/hal/include/pwm.h"
 1014              		.file 39 ".//ChibiOS//os/hal/ports/STM32/LLD/TIMv1/pwm_lld.h"
 1015              		.file 40 ".//ChibiOS//os/hal/include/serial.h"
 1016              		.file 41 ".//ChibiOS//os/hal/ports/STM32/LLD/USARTv1/serial_lld.h"
 1017              		.file 42 ".//ChibiOS//os/hal/include/sdc.h"
ARM GAS  /tmp/ccUeKWdA.s 			page 19


 1018              		.file 43 ".//ChibiOS//os/hal/ports/STM32/LLD/sdc_lld.h"
 1019              		.file 44 ".//ChibiOS//os/hal/include/spi.h"
 1020              		.file 45 ".//ChibiOS//os/hal/ports/STM32/LLD/SPIv1/spi_lld.h"
 1021              		.file 46 ".//ChibiOS//os/hal/include/usb.h"
 1022              		.file 47 ".//ChibiOS//os/hal/ports/STM32/LLD/OTGv1/usb_lld.h"
 1023              		.file 48 ".//ChibiOS//os/hal/ports/STM32/LLD/OTGv1/stm32_otg.h"
 1024              		.file 49 ".//ChibiOS//os/hal/ports/common/ARMCMx/nvic.h"
 1025              		.file 50 ".//ChibiOS//os/rt/include/chsys.h"