ARM GAS  /tmp/ccZkWdLI.s 			page 1


   1              		.cpu cortex-m4
   2              		.eabi_attribute 27, 1
   3              		.eabi_attribute 28, 1
   4              		.eabi_attribute 20, 1
   5              		.eabi_attribute 21, 1
   6              		.eabi_attribute 23, 3
   7              		.eabi_attribute 24, 1
   8              		.eabi_attribute 25, 1
   9              		.eabi_attribute 26, 1
  10              		.eabi_attribute 30, 2
  11              		.eabi_attribute 34, 1
  12              		.eabi_attribute 18, 4
  13              		.file	"hal.c"
  14              		.text
  15              	.Ltext0:
  16              		.cfi_sections	.debug_frame
  17              		.section	.rodata.halInit.cst4,"aM",%progbits,4
  18              		.align	2
  19              	.LC0:
  20 0000 00000000 		.word	__stack_chk_guard
  21              		.section	.text.halInit,"ax",%progbits
  22              		.align	1
  23              		.p2align 4,,15
  24              		.global	halInit
  25              		.arch armv7e-m
  26              		.syntax unified
  27              		.thumb
  28              		.thumb_func
  29              		.fpu fpv4-sp-d16
  30              		.type	halInit, %function
  31              	halInit:
  32              	.LFB256:
  33              		.file 1 ".//ChibiOS//os/hal/src/hal.c"
  34              		.loc 1 56 20 view -0
  35              		.cfi_startproc
  36              		@ args = 0, pretend = 0, frame = 8
  37              		@ frame_needed = 0, uses_anonymous_args = 0
  38 0000 00B5     		push	{lr}
  39              		.cfi_def_cfa_offset 4
  40              		.cfi_offset 14, -4
  41 0002 194B     		ldr	r3, .L7
  42 0004 83B0     		sub	sp, sp, #12
  43              		.cfi_def_cfa_offset 16
  44              		.loc 1 56 20 is_stmt 0 view .LVU1
  45 0006 1B68     		ldr	r3, [r3]
  46 0008 0193     		str	r3, [sp, #4]
  47 000a 4FF00003 		mov	r3,#0
  48              		.loc 1 59 3 is_stmt 1 view .LVU2
  49              		.file 2 ".//ChibiOS//os/hal/osal/rt/osal.h"
  50              		.loc 2 405 1 view .LVU3
  51              		.loc 1 62 3 view .LVU4
  52 000e FFF7FEFF 		bl	hal_lld_init
  53              	.LVL0:
  54              		.loc 1 65 3 view .LVU5
  55 0012 1648     		ldr	r0, .L7+4
  56 0014 FFF7FEFF 		bl	_pal_lld_init
  57              	.LVL1:
ARM GAS  /tmp/ccZkWdLI.s 			page 2


  58              		.loc 1 68 3 view .LVU6
  59 0018 FFF7FEFF 		bl	adcInit
  60              	.LVL2:
  61              		.loc 1 71 3 view .LVU7
  62 001c FFF7FEFF 		bl	canInit
  63              	.LVL3:
  64              		.loc 1 74 3 view .LVU8
  65 0020 FFF7FEFF 		bl	dacInit
  66              	.LVL4:
  67              		.loc 1 77 3 view .LVU9
  68 0024 FFF7FEFF 		bl	extInit
  69              	.LVL5:
  70              		.loc 1 80 3 view .LVU10
  71 0028 FFF7FEFF 		bl	gptInit
  72              	.LVL6:
  73              		.loc 1 83 3 view .LVU11
  74 002c FFF7FEFF 		bl	i2cInit
  75              	.LVL7:
  76              		.loc 1 86 3 view .LVU12
  77 0030 FFF7FEFF 		bl	i2sInit
  78              	.LVL8:
  79              		.loc 1 95 3 view .LVU13
  80 0034 FFF7FEFF 		bl	pwmInit
  81              	.LVL9:
  82              		.loc 1 98 3 view .LVU14
  83 0038 FFF7FEFF 		bl	sdInit
  84              	.LVL10:
  85              		.loc 1 101 3 view .LVU15
  86 003c FFF7FEFF 		bl	sdcInit
  87              	.LVL11:
  88              		.loc 1 104 3 view .LVU16
  89 0040 FFF7FEFF 		bl	spiInit
  90              	.LVL12:
  91              		.loc 1 110 3 view .LVU17
  92 0044 FFF7FEFF 		bl	usbInit
  93              	.LVL13:
  94              		.loc 1 116 3 view .LVU18
  95 0048 FFF7FEFF 		bl	sduInit
  96              	.LVL14:
  97              		.loc 1 130 3 view .LVU19
  98 004c FFF7FEFF 		bl	boardInit
  99              	.LVL15:
 100              		.loc 1 137 3 view .LVU20
 101 0050 054B     		ldr	r3, .L7
 102 0052 1A68     		ldr	r2, [r3]
 103 0054 019B     		ldr	r3, [sp, #4]
 104 0056 5A40     		eors	r2, r3, r2
 105 0058 04D1     		bne	.L6
 106              		.loc 1 139 1 is_stmt 0 view .LVU21
 107 005a 03B0     		add	sp, sp, #12
 108              		.cfi_remember_state
 109              		.cfi_def_cfa_offset 4
 110              		@ sp needed
 111 005c 5DF804EB 		ldr	lr, [sp], #4
 112              		.cfi_restore 14
 113              		.cfi_def_cfa_offset 0
 114              		.loc 1 137 3 view .LVU22
ARM GAS  /tmp/ccZkWdLI.s 			page 3


 115 0060 FFF7FEBF 		b	stInit
 116              	.LVL16:
 117              	.L6:
 118              		.cfi_restore_state
 119 0064 FFF7FEFF 		bl	__stack_chk_fail
 120              	.LVL17:
 121              	.L8:
 122              		.align	2
 123              	.L7:
 124 0068 00000000 		.word	.LC0
 125 006c 00000000 		.word	pal_default_config
 126              		.cfi_endproc
 127              	.LFE256:
 128              		.size	halInit, .-halInit
 129              		.text
 130              	.Letext0:
 131              		.file 3 "/usr/lib/gcc/arm-none-eabi/9.2.1/include/stddef.h"
 132              		.file 4 "/usr/lib/gcc/arm-none-eabi/9.2.1/include/stdint.h"
 133              		.file 5 ".//ChibiOS//os/rt/ports/ARMCMx/compilers/GCC/chtypes.h"
 134              		.file 6 ".//ChibiOS//os/rt/include/chsystypes.h"
 135              		.file 7 ".//ChibiOS//os/rt/include/chschd.h"
 136              		.file 8 ".//ChibiOS//os/ext/CMSIS/include/core_cm4.h"
 137              		.file 9 ".//ChibiOS//os/ext/CMSIS/ST/system_stm32f4xx.h"
 138              		.file 10 ".//ChibiOS//os/ext/CMSIS/ST/stm32f407xx.h"
 139              		.file 11 ".//ChibiOS//os/rt/ports/ARMCMx/chcore.h"
 140              		.file 12 ".//ChibiOS//os/rt/ports/ARMCMx/chcore_v7m.h"
 141              		.file 13 ".//ChibiOS//os/rt/include/chdebug.h"
 142              		.file 14 ".//ChibiOS//os/rt/include/chtm.h"
 143              		.file 15 ".//ChibiOS//os/rt/include/chstats.h"
 144              		.file 16 ".//ChibiOS//os/rt/include/chsem.h"
 145              		.file 17 ".//ChibiOS//os/rt/include/chmtx.h"
 146              		.file 18 ".//ChibiOS//os/rt/include/chregistry.h"
 147              		.file 19 ".//ChibiOS//os/rt/include/chevents.h"
 148              		.file 20 ".//ChibiOS//os/rt/include/chqueues.h"
 149              		.file 21 ".//ChibiOS//os/hal/ports/STM32/STM32F4xx/stm32_dma.h"
 150              		.file 22 ".//ChibiOS//os/hal/include/hal_ioblock.h"
 151              		.file 23 ".//ChibiOS//os/hal/ports/STM32/LLD/GPIOv2/pal_lld.h"
 152              		.file 24 ".//ChibiOS//os/hal/include/adc.h"
 153              		.file 25 ".//ChibiOS//os/hal/ports/STM32/STM32F4xx/adc_lld.h"
 154              		.file 26 ".//ChibiOS//os/hal/include/can.h"
 155              		.file 27 ".//ChibiOS//os/hal/ports/STM32/LLD/can_lld.h"
 156              		.file 28 ".//ChibiOS//os/hal/include/dac.h"
 157              		.file 29 ".//ChibiOS//os/hal/ports/STM32/LLD/DACv1/dac_lld.h"
 158              		.file 30 ".//ChibiOS//os/hal/include/ext.h"
 159              		.file 31 ".//ChibiOS//os/hal/ports/STM32/LLD/ext_lld.h"
 160              		.file 32 ".//ChibiOS//os/hal/include/gpt.h"
 161              		.file 33 ".//ChibiOS//os/hal/ports/STM32/LLD/TIMv1/gpt_lld.h"
 162              		.file 34 ".//ChibiOS//os/hal/ports/STM32/LLD/TIMv1/stm32_tim.h"
 163              		.file 35 ".//ChibiOS//os/hal/include/i2c.h"
 164              		.file 36 ".//ChibiOS//os/hal/ports/STM32/LLD/I2Cv1/i2c_lld.h"
 165              		.file 37 ".//ChibiOS//os/hal/include/i2s.h"
 166              		.file 38 ".//ChibiOS//os/hal/ports/STM32/LLD/SPIv1/i2s_lld.h"
 167              		.file 39 ".//ChibiOS//os/hal/include/pwm.h"
 168              		.file 40 ".//ChibiOS//os/hal/ports/STM32/LLD/TIMv1/pwm_lld.h"
 169              		.file 41 ".//ChibiOS//os/hal/include/serial.h"
 170              		.file 42 ".//ChibiOS//os/hal/ports/STM32/LLD/USARTv1/serial_lld.h"
 171              		.file 43 ".//ChibiOS//os/hal/include/sdc.h"
ARM GAS  /tmp/ccZkWdLI.s 			page 4


 172              		.file 44 ".//ChibiOS//os/hal/ports/STM32/LLD/sdc_lld.h"
 173              		.file 45 ".//ChibiOS//os/hal/include/spi.h"
 174              		.file 46 ".//ChibiOS//os/hal/ports/STM32/LLD/SPIv1/spi_lld.h"
 175              		.file 47 ".//ChibiOS//os/hal/include/usb.h"
 176              		.file 48 ".//ChibiOS//os/hal/ports/STM32/LLD/OTGv1/usb_lld.h"
 177              		.file 49 ".//ChibiOS//os/hal/ports/STM32/LLD/OTGv1/stm32_otg.h"
 178              		.file 50 ".//ChibiOS//os/hal/ports/STM32/STM32F4xx/hal_lld.h"
 179              		.file 51 ".//ChibiOS//os/hal/include/serial_usb.h"
 180              		.file 52 ".//ChibiOS_ext//os/hal/boards/epuck2/board.h"
 181              		.file 53 ".//ChibiOS//os/hal/include/st.h"