ARM GAS  /tmp/ccOYvuPl.s 			page 1


   1              		.cpu cortex-m4
   2              		.eabi_attribute 27, 1
   3              		.eabi_attribute 28, 1
   4              		.eabi_attribute 20, 1
   5              		.eabi_attribute 21, 1
   6              		.eabi_attribute 23, 3
   7              		.eabi_attribute 24, 1
   8              		.eabi_attribute 25, 1
   9              		.eabi_attribute 26, 1
  10              		.eabi_attribute 30, 2
  11              		.eabi_attribute 34, 1
  12              		.eabi_attribute 18, 4
  13              		.file	"hal_lld.c"
  14              		.text
  15              	.Ltext0:
  16              		.cfi_sections	.debug_frame
  17              		.section	.rodata.hal_lld_init.cst4,"aM",%progbits,4
  18              		.align	2
  19              	.LC0:
  20 0000 00000000 		.word	__stack_chk_guard
  21              		.section	.text.hal_lld_init,"ax",%progbits
  22              		.align	1
  23              		.p2align 4,,15
  24              		.global	hal_lld_init
  25              		.arch armv7e-m
  26              		.syntax unified
  27              		.thumb
  28              		.thumb_func
  29              		.fpu fpv4-sp-d16
  30              		.type	hal_lld_init, %function
  31              	hal_lld_init:
  32              	.LFB257:
  33              		.file 1 ".//ChibiOS//os/hal/ports/STM32/STM32F4xx/hal_lld.c"
  34              		.loc 1 114 25 view -0
  35              		.cfi_startproc
  36              		@ args = 0, pretend = 0, frame = 8
  37              		@ frame_needed = 0, uses_anonymous_args = 0
  38 0000 10B5     		push	{r4, lr}
  39              		.cfi_def_cfa_offset 8
  40              		.cfi_offset 4, -8
  41              		.cfi_offset 14, -4
  42 0002 1E4A     		ldr	r2, .L11
  43              		.loc 1 118 3 is_stmt 0 view .LVU1
  44 0004 1E4B     		ldr	r3, .L11+4
  45              	.LBB4:
  46              	.LBB5:
  47              		.loc 1 57 11 view .LVU2
  48 0006 1F4C     		ldr	r4, .L11+8
  49              	.LBE5:
  50              	.LBE4:
  51              		.loc 1 114 25 view .LVU3
  52 0008 82B0     		sub	sp, sp, #8
  53              		.cfi_def_cfa_offset 16
  54              		.loc 1 114 25 view .LVU4
  55 000a 1268     		ldr	r2, [r2]
  56 000c 0192     		str	r2, [sp, #4]
  57 000e 4FF00002 		mov	r2,#0
ARM GAS  /tmp/ccOYvuPl.s 			page 2


  58              		.loc 1 118 3 is_stmt 1 view .LVU5
  59 0012 4FF0FF31 		mov	r1, #-1
  60 0016 0022     		movs	r2, #0
  61 0018 1869     		ldr	r0, [r3, #16]
  62 001a 1961     		str	r1, [r3, #16]
  63              		.loc 1 118 3 view .LVU6
  64 001c 1A61     		str	r2, [r3, #16]
  65              		.loc 1 118 19 view .LVU7
  66              		.loc 1 119 3 view .LVU8
  67 001e 5869     		ldr	r0, [r3, #20]
  68 0020 5961     		str	r1, [r3, #20]
  69              		.loc 1 119 3 view .LVU9
  70 0022 5A61     		str	r2, [r3, #20]
  71              		.loc 1 119 19 view .LVU10
  72              		.loc 1 120 3 view .LVU11
  73 0024 186A     		ldr	r0, [r3, #32]
  74 0026 60F08050 		orn	r0, r0, #268435456
  75 002a 1862     		str	r0, [r3, #32]
  76              		.loc 1 120 3 view .LVU12
  77 002c 1A62     		str	r2, [r3, #32]
  78              		.loc 1 120 37 view .LVU13
  79              		.loc 1 121 3 view .LVU14
  80 002e 586A     		ldr	r0, [r3, #36]
  81 0030 5962     		str	r1, [r3, #36]
  82              		.loc 1 121 3 view .LVU15
  83 0032 5A62     		str	r2, [r3, #36]
  84              		.loc 1 121 19 view .LVU16
  85              		.loc 1 124 3 view .LVU17
  86 0034 196C     		ldr	r1, [r3, #64]
  87 0036 41F08051 		orr	r1, r1, #268435456
  88 003a 1964     		str	r1, [r3, #64]
  89              		.loc 1 124 3 view .LVU18
  90              		.loc 1 124 31 view .LVU19
  91              		.loc 1 127 3 view .LVU20
  92              	.LBB7:
  93              	.LBI4:
  94              		.loc 1 54 13 view .LVU21
  95              	.LBB6:
  96              		.loc 1 57 3 view .LVU22
  97              		.loc 1 57 11 is_stmt 0 view .LVU23
  98 003c 2168     		ldr	r1, [r4]
  99 003e 41F48071 		orr	r1, r1, #256
 100 0042 2160     		str	r1, [r4]
 101              		.loc 1 60 3 is_stmt 1 view .LVU24
 102              		.loc 1 60 11 is_stmt 0 view .LVU25
 103 0044 196F     		ldr	r1, [r3, #112]
 104              		.loc 1 60 18 view .LVU26
 105 0046 01F44071 		and	r1, r1, #768
 106              		.loc 1 60 6 view .LVU27
 107 004a B1F5007F 		cmp	r1, #512
 108 004e 03D0     		beq	.L2
 109              		.loc 1 62 5 is_stmt 1 view .LVU28
 110              		.loc 1 62 15 is_stmt 0 view .LVU29
 111 0050 4FF48031 		mov	r1, #65536
 112 0054 1967     		str	r1, [r3, #112]
 113              		.loc 1 63 5 is_stmt 1 view .LVU30
 114              		.loc 1 63 15 is_stmt 0 view .LVU31
ARM GAS  /tmp/ccOYvuPl.s 			page 3


 115 0056 1A67     		str	r2, [r3, #112]
 116              	.L2:
 117              		.loc 1 97 3 is_stmt 1 view .LVU32
 118              		.loc 1 97 12 is_stmt 0 view .LVU33
 119 0058 0A4A     		ldr	r2, .L11+8
 120 005a 5368     		ldr	r3, [r2, #4]
 121 005c 23F40073 		bic	r3, r3, #512
 122 0060 5360     		str	r3, [r2, #4]
 123              	.LBE6:
 124              	.LBE7:
 125              		.loc 1 130 3 is_stmt 1 view .LVU34
 126 0062 064B     		ldr	r3, .L11
 127 0064 1A68     		ldr	r2, [r3]
 128 0066 019B     		ldr	r3, [sp, #4]
 129 0068 5A40     		eors	r2, r3, r2
 130 006a 04D1     		bne	.L10
 131              		.loc 1 137 1 is_stmt 0 view .LVU35
 132 006c 02B0     		add	sp, sp, #8
 133              		.cfi_remember_state
 134              		.cfi_def_cfa_offset 8
 135              		@ sp needed
 136 006e BDE81040 		pop	{r4, lr}
 137              		.cfi_restore 14
 138              		.cfi_restore 4
 139              		.cfi_def_cfa_offset 0
 140              		.loc 1 130 3 view .LVU36
 141 0072 FFF7FEBF 		b	dmaInit
 142              	.LVL0:
 143              	.L10:
 144              		.cfi_restore_state
 145 0076 FFF7FEFF 		bl	__stack_chk_fail
 146              	.LVL1:
 147              	.L12:
 148 007a 00BF     		.align	2
 149              	.L11:
 150 007c 00000000 		.word	.LC0
 151 0080 00380240 		.word	1073887232
 152 0084 00700040 		.word	1073770496
 153              		.cfi_endproc
 154              	.LFE257:
 155              		.size	hal_lld_init, .-hal_lld_init
 156              		.section	.rodata.stm32_clock_init.cst4,"aM",%progbits,4
 157              		.align	2
 158              	.LC1:
 159 0000 00000000 		.word	__stack_chk_guard
 160              		.section	.text.stm32_clock_init,"ax",%progbits
 161              		.align	1
 162              		.p2align 4,,15
 163              		.global	stm32_clock_init
 164              		.syntax unified
 165              		.thumb
 166              		.thumb_func
 167              		.fpu fpv4-sp-d16
 168              		.type	stm32_clock_init, %function
 169              	stm32_clock_init:
 170              	.LFB258:
 171              		.loc 1 146 29 is_stmt 1 view -0
ARM GAS  /tmp/ccOYvuPl.s 			page 4


 172              		.cfi_startproc
 173              		@ args = 0, pretend = 0, frame = 8
 174              		@ frame_needed = 0, uses_anonymous_args = 0
 175 0000 00B5     		push	{lr}
 176              		.cfi_def_cfa_offset 4
 177              		.cfi_offset 14, -4
 178 0002 3849     		ldr	r1, .L39
 179              		.loc 1 150 16 is_stmt 0 view .LVU38
 180 0004 384B     		ldr	r3, .L39+4
 181              		.loc 1 154 11 view .LVU39
 182 0006 394A     		ldr	r2, .L39+8
 183              		.loc 1 146 29 view .LVU40
 184 0008 83B0     		sub	sp, sp, #12
 185              		.cfi_def_cfa_offset 16
 186              		.loc 1 146 29 view .LVU41
 187 000a 0968     		ldr	r1, [r1]
 188 000c 0191     		str	r1, [sp, #4]
 189 000e 4FF00001 		mov	r1,#0
 190              		.loc 1 150 3 is_stmt 1 view .LVU42
 191              		.loc 1 150 16 is_stmt 0 view .LVU43
 192 0012 4FF08050 		mov	r0, #268435456
 193              		.loc 1 154 11 view .LVU44
 194 0016 4FF44041 		mov	r1, #49152
 195              		.loc 1 150 16 view .LVU45
 196 001a 1864     		str	r0, [r3, #64]
 197              		.loc 1 154 3 is_stmt 1 view .LVU46
 198              		.loc 1 154 11 is_stmt 0 view .LVU47
 199 001c 1160     		str	r1, [r2]
 200              		.loc 1 161 3 is_stmt 1 view .LVU48
 201              		.loc 1 161 11 is_stmt 0 view .LVU49
 202 001e 1A68     		ldr	r2, [r3]
 203 0020 42F00102 		orr	r2, r2, #1
 204 0024 1A60     		str	r2, [r3]
 205              		.loc 1 162 3 is_stmt 1 view .LVU50
 206              	.L14:
 207              		.loc 1 163 5 discriminator 1 view .LVU51
 208              		.loc 1 162 9 discriminator 1 view .LVU52
 209              		.loc 1 162 15 is_stmt 0 discriminator 1 view .LVU53
 210 0026 1A68     		ldr	r2, [r3]
 211              		.loc 1 162 9 discriminator 1 view .LVU54
 212 0028 9107     		lsls	r1, r2, #30
 213 002a FCD5     		bpl	.L14
 214              		.loc 1 168 3 is_stmt 1 view .LVU55
 215              		.loc 1 168 13 is_stmt 0 view .LVU56
 216 002c 9968     		ldr	r1, [r3, #8]
 217              		.loc 1 170 14 view .LVU57
 218 002e 2E4A     		ldr	r2, .L39+4
 219              		.loc 1 168 13 view .LVU58
 220 0030 21F00301 		bic	r1, r1, #3
 221 0034 9960     		str	r1, [r3, #8]
 222              		.loc 1 169 3 is_stmt 1 view .LVU59
 223              		.loc 1 169 13 is_stmt 0 view .LVU60
 224 0036 9968     		ldr	r1, [r3, #8]
 225 0038 9960     		str	r1, [r3, #8]
 226              		.loc 1 170 3 is_stmt 1 view .LVU61
 227              	.L15:
 228              		.loc 1 171 5 discriminator 1 view .LVU62
ARM GAS  /tmp/ccOYvuPl.s 			page 5


 229              		.loc 1 170 9 discriminator 1 view .LVU63
 230              		.loc 1 170 14 is_stmt 0 discriminator 1 view .LVU64
 231 003a 9368     		ldr	r3, [r2, #8]
 232              		.loc 1 170 9 discriminator 1 view .LVU65
 233 003c 13F00C03 		ands	r3, r3, #12
 234 0040 FBD1     		bne	.L15
 235              		.loc 1 174 3 is_stmt 1 view .LVU66
 236              		.loc 1 174 11 is_stmt 0 view .LVU67
 237 0042 1068     		ldr	r0, [r2]
 238              		.loc 1 186 14 view .LVU68
 239 0044 2849     		ldr	r1, .L39+4
 240              		.loc 1 174 11 view .LVU69
 241 0046 00F0F900 		and	r0, r0, #249
 242 004a 1060     		str	r0, [r2]
 243              		.loc 1 175 3 is_stmt 1 view .LVU70
 244              		.loc 1 175 13 is_stmt 0 view .LVU71
 245 004c 9360     		str	r3, [r2, #8]
 246              		.loc 1 181 3 is_stmt 1 view .LVU72
 247              		.loc 1 181 11 is_stmt 0 view .LVU73
 248 004e 1368     		ldr	r3, [r2]
 249 0050 43F4A023 		orr	r3, r3, #327680
 250 0054 1360     		str	r3, [r2]
 251              		.loc 1 186 3 is_stmt 1 view .LVU74
 252              	.L16:
 253              		.loc 1 187 5 discriminator 1 view .LVU75
 254              		.loc 1 186 9 discriminator 1 view .LVU76
 255              		.loc 1 186 14 is_stmt 0 discriminator 1 view .LVU77
 256 0056 0B68     		ldr	r3, [r1]
 257              		.loc 1 186 9 discriminator 1 view .LVU78
 258 0058 9A03     		lsls	r2, r3, #14
 259 005a FCD5     		bpl	.L16
 260              		.loc 1 192 3 is_stmt 1 view .LVU79
 261              		.loc 1 192 12 is_stmt 0 view .LVU80
 262 005c 4B6F     		ldr	r3, [r1, #116]
 263              		.loc 1 193 14 view .LVU81
 264 005e 224A     		ldr	r2, .L39+4
 265              		.loc 1 192 12 view .LVU82
 266 0060 43F00103 		orr	r3, r3, #1
 267 0064 4B67     		str	r3, [r1, #116]
 268              		.loc 1 193 3 is_stmt 1 view .LVU83
 269              	.L17:
 270              		.loc 1 194 5 discriminator 1 view .LVU84
 271              		.loc 1 193 9 discriminator 1 view .LVU85
 272              		.loc 1 193 14 is_stmt 0 discriminator 1 view .LVU86
 273 0066 536F     		ldr	r3, [r2, #116]
 274              		.loc 1 193 9 discriminator 1 view .LVU87
 275 0068 9B07     		lsls	r3, r3, #30
 276 006a FCD5     		bpl	.L17
 277              		.loc 1 199 3 is_stmt 1 view .LVU88
 278              		.loc 1 199 16 is_stmt 0 view .LVU89
 279 006c 204B     		ldr	r3, .L39+12
 280 006e 5360     		str	r3, [r2, #4]
 281              		.loc 1 201 3 is_stmt 1 view .LVU90
 282              		.loc 1 201 11 is_stmt 0 view .LVU91
 283 0070 1368     		ldr	r3, [r2]
 284              		.loc 1 205 14 view .LVU92
 285 0072 1E49     		ldr	r1, .L39+8
ARM GAS  /tmp/ccOYvuPl.s 			page 6


 286              		.loc 1 201 11 view .LVU93
 287 0074 43F08073 		orr	r3, r3, #16777216
 288 0078 1360     		str	r3, [r2]
 289              		.loc 1 205 3 is_stmt 1 view .LVU94
 290              	.L18:
 291              		.loc 1 206 5 discriminator 1 view .LVU95
 292              		.loc 1 205 9 discriminator 1 view .LVU96
 293              		.loc 1 205 14 is_stmt 0 discriminator 1 view .LVU97
 294 007a 4B68     		ldr	r3, [r1, #4]
 295              		.loc 1 205 9 discriminator 1 view .LVU98
 296 007c 5804     		lsls	r0, r3, #17
 297 007e FCD5     		bpl	.L18
 298              		.loc 1 221 15 view .LVU99
 299 0080 194A     		ldr	r2, .L39+4
 300              	.L19:
 301              		.loc 1 222 5 is_stmt 1 discriminator 1 view .LVU100
 302              		.loc 1 221 9 discriminator 1 view .LVU101
 303              		.loc 1 221 15 is_stmt 0 discriminator 1 view .LVU102
 304 0082 1368     		ldr	r3, [r2]
 305              		.loc 1 221 9 discriminator 1 view .LVU103
 306 0084 9901     		lsls	r1, r3, #6
 307 0086 FCD5     		bpl	.L19
 308              		.loc 1 227 3 is_stmt 1 view .LVU104
 309              		.loc 1 227 19 is_stmt 0 view .LVU105
 310 0088 1A4B     		ldr	r3, .L39+16
 311 008a C2F88430 		str	r3, [r2, #132]
 312              		.loc 1 228 3 is_stmt 1 view .LVU106
 313              		.loc 1 228 11 is_stmt 0 view .LVU107
 314 008e 1368     		ldr	r3, [r2]
 315              		.loc 1 231 15 view .LVU108
 316 0090 1549     		ldr	r1, .L39+4
 317              		.loc 1 228 11 view .LVU109
 318 0092 43F08063 		orr	r3, r3, #67108864
 319 0096 1360     		str	r3, [r2]
 320              		.loc 1 231 3 is_stmt 1 view .LVU110
 321              	.L20:
 322              		.loc 1 232 5 discriminator 1 view .LVU111
 323              		.loc 1 231 9 discriminator 1 view .LVU112
 324              		.loc 1 231 15 is_stmt 0 discriminator 1 view .LVU113
 325 0098 0B68     		ldr	r3, [r1]
 326              		.loc 1 231 9 discriminator 1 view .LVU114
 327 009a 1B01     		lsls	r3, r3, #4
 328 009c FCD5     		bpl	.L20
 329              		.loc 1 247 3 is_stmt 1 view .LVU115
 330              		.loc 1 260 14 is_stmt 0 view .LVU116
 331 009e 164B     		ldr	r3, .L39+20
 332              		.loc 1 247 13 view .LVU117
 333 00a0 164A     		ldr	r2, .L39+24
 334 00a2 8A60     		str	r2, [r1, #8]
 335              		.loc 1 260 3 is_stmt 1 view .LVU118
 336              		.loc 1 260 14 is_stmt 0 view .LVU119
 337 00a4 40F20572 		movw	r2, #1797
 338 00a8 1A60     		str	r2, [r3]
 339              		.loc 1 266 3 is_stmt 1 view .LVU120
 340              		.loc 1 266 13 is_stmt 0 view .LVU121
 341 00aa 8B68     		ldr	r3, [r1, #8]
 342              		.loc 1 267 14 view .LVU122
ARM GAS  /tmp/ccOYvuPl.s 			page 7


 343 00ac 0E4A     		ldr	r2, .L39+4
 344              		.loc 1 266 13 view .LVU123
 345 00ae 43F00203 		orr	r3, r3, #2
 346 00b2 8B60     		str	r3, [r1, #8]
 347              		.loc 1 267 3 is_stmt 1 view .LVU124
 348              	.L21:
 349              		.loc 1 268 5 discriminator 1 view .LVU125
 350              		.loc 1 267 9 discriminator 1 view .LVU126
 351              		.loc 1 267 14 is_stmt 0 discriminator 1 view .LVU127
 352 00b4 9368     		ldr	r3, [r2, #8]
 353              		.loc 1 267 21 discriminator 1 view .LVU128
 354 00b6 03F00C03 		and	r3, r3, #12
 355              		.loc 1 267 9 discriminator 1 view .LVU129
 356 00ba 082B     		cmp	r3, #8
 357 00bc FAD1     		bne	.L21
 358              		.loc 1 274 3 is_stmt 1 view .LVU130
 359 00be 536C     		ldr	r3, [r2, #68]
 360 00c0 43F48043 		orr	r3, r3, #16384
 361 00c4 5364     		str	r3, [r2, #68]
 362              		.loc 1 274 3 view .LVU131
 363              		.loc 1 274 3 view .LVU132
 364 00c6 536E     		ldr	r3, [r2, #100]
 365 00c8 43F48043 		orr	r3, r3, #16384
 366 00cc 5366     		str	r3, [r2, #100]
 367              		.loc 1 274 44 view .LVU133
 368              		.loc 1 275 1 is_stmt 0 view .LVU134
 369 00ce 054B     		ldr	r3, .L39
 370 00d0 1A68     		ldr	r2, [r3]
 371 00d2 019B     		ldr	r3, [sp, #4]
 372 00d4 5A40     		eors	r2, r3, r2
 373 00d6 02D1     		bne	.L38
 374 00d8 03B0     		add	sp, sp, #12
 375              		.cfi_remember_state
 376              		.cfi_def_cfa_offset 4
 377              		@ sp needed
 378 00da 5DF804FB 		ldr	pc, [sp], #4
 379              	.L38:
 380              		.cfi_restore_state
 381 00de FFF7FEFF 		bl	__stack_chk_fail
 382              	.LVL2:
 383              	.L40:
 384 00e2 00BF     		.align	2
 385              	.L39:
 386 00e4 00000000 		.word	.LC1
 387 00e8 00380240 		.word	1073887232
 388 00ec 00700040 		.word	1073770496
 389 00f0 18544007 		.word	121656344
 390 00f4 00300060 		.word	1610625024
 391 00f8 003C0240 		.word	1073888256
 392 00fc 00940838 		.word	940086272
 393              		.cfi_endproc
 394              	.LFE258:
 395              		.size	stm32_clock_init, .-stm32_clock_init
 396              		.global	SystemCoreClock
 397              		.section	.data.SystemCoreClock,"aw"
 398              		.align	2
 399              		.type	SystemCoreClock, %object
ARM GAS  /tmp/ccOYvuPl.s 			page 8


 400              		.size	SystemCoreClock, 4
 401              	SystemCoreClock:
 402 0000 007A030A 		.word	168000000
 403              		.text
 404              	.Letext0:
 405              		.file 2 "/usr/lib/gcc/arm-none-eabi/9.2.1/include/stddef.h"
 406              		.file 3 "/usr/lib/gcc/arm-none-eabi/9.2.1/include/stdint.h"
 407              		.file 4 ".//ChibiOS//os/rt/ports/ARMCMx/compilers/GCC/chtypes.h"
 408              		.file 5 ".//ChibiOS//os/rt/include/chsystypes.h"
 409              		.file 6 ".//ChibiOS//os/rt/include/chschd.h"
 410              		.file 7 ".//ChibiOS//os/ext/CMSIS/include/core_cm4.h"
 411              		.file 8 ".//ChibiOS//os/ext/CMSIS/ST/system_stm32f4xx.h"
 412              		.file 9 ".//ChibiOS//os/ext/CMSIS/ST/stm32f407xx.h"
 413              		.file 10 ".//ChibiOS//os/rt/ports/ARMCMx/chcore.h"
 414              		.file 11 ".//ChibiOS//os/rt/ports/ARMCMx/chcore_v7m.h"
 415              		.file 12 ".//ChibiOS//os/rt/include/chdebug.h"
 416              		.file 13 ".//ChibiOS//os/rt/include/chtm.h"
 417              		.file 14 ".//ChibiOS//os/rt/include/chstats.h"
 418              		.file 15 ".//ChibiOS//os/rt/include/chsem.h"
 419              		.file 16 ".//ChibiOS//os/rt/include/chmtx.h"
 420              		.file 17 ".//ChibiOS//os/rt/include/chregistry.h"
 421              		.file 18 ".//ChibiOS//os/rt/include/chevents.h"
 422              		.file 19 ".//ChibiOS//os/rt/include/chqueues.h"
 423              		.file 20 ".//ChibiOS//os/hal/ports/STM32/STM32F4xx/stm32_dma.h"
 424              		.file 21 ".//ChibiOS//os/hal/include/hal_ioblock.h"
 425              		.file 22 ".//ChibiOS//os/hal/ports/STM32/LLD/GPIOv2/pal_lld.h"
 426              		.file 23 ".//ChibiOS//os/hal/include/adc.h"
 427              		.file 24 ".//ChibiOS//os/hal/ports/STM32/STM32F4xx/adc_lld.h"
 428              		.file 25 ".//ChibiOS//os/hal/include/can.h"
 429              		.file 26 ".//ChibiOS//os/hal/ports/STM32/LLD/can_lld.h"
 430              		.file 27 ".//ChibiOS//os/hal/include/dac.h"
 431              		.file 28 ".//ChibiOS//os/hal/ports/STM32/LLD/DACv1/dac_lld.h"
 432              		.file 29 ".//ChibiOS//os/hal/include/ext.h"
 433              		.file 30 ".//ChibiOS//os/hal/ports/STM32/LLD/ext_lld.h"
 434              		.file 31 ".//ChibiOS//os/hal/include/gpt.h"
 435              		.file 32 ".//ChibiOS//os/hal/ports/STM32/LLD/TIMv1/gpt_lld.h"
 436              		.file 33 ".//ChibiOS//os/hal/ports/STM32/LLD/TIMv1/stm32_tim.h"
 437              		.file 34 ".//ChibiOS//os/hal/include/i2c.h"
 438              		.file 35 ".//ChibiOS//os/hal/ports/STM32/LLD/I2Cv1/i2c_lld.h"
 439              		.file 36 ".//ChibiOS//os/hal/include/i2s.h"
 440              		.file 37 ".//ChibiOS//os/hal/ports/STM32/LLD/SPIv1/i2s_lld.h"
 441              		.file 38 ".//ChibiOS//os/hal/include/pwm.h"
 442              		.file 39 ".//ChibiOS//os/hal/ports/STM32/LLD/TIMv1/pwm_lld.h"
 443              		.file 40 ".//ChibiOS//os/hal/include/serial.h"
 444              		.file 41 ".//ChibiOS//os/hal/ports/STM32/LLD/USARTv1/serial_lld.h"
 445              		.file 42 ".//ChibiOS//os/hal/include/sdc.h"
 446              		.file 43 ".//ChibiOS//os/hal/ports/STM32/LLD/sdc_lld.h"
 447              		.file 44 ".//ChibiOS//os/hal/include/spi.h"
 448              		.file 45 ".//ChibiOS//os/hal/ports/STM32/LLD/SPIv1/spi_lld.h"
 449              		.file 46 ".//ChibiOS//os/hal/include/usb.h"
 450              		.file 47 ".//ChibiOS//os/hal/ports/STM32/LLD/OTGv1/usb_lld.h"
 451              		.file 48 ".//ChibiOS//os/hal/ports/STM32/LLD/OTGv1/stm32_otg.h"