ARM GAS  /tmp/ccMJKeTi.s 			page 1


   1              		.cpu cortex-m4
   2              		.eabi_attribute 27, 1
   3              		.eabi_attribute 28, 1
   4              		.eabi_attribute 20, 1
   5              		.eabi_attribute 21, 1
   6              		.eabi_attribute 23, 3
   7              		.eabi_attribute 24, 1
   8              		.eabi_attribute 25, 1
   9              		.eabi_attribute 26, 1
  10              		.eabi_attribute 30, 2
  11              		.eabi_attribute 34, 1
  12              		.eabi_attribute 18, 4
  13              		.file	"hal_mmcsd.c"
  14              		.text
  15              	.Ltext0:
  16              		.cfi_sections	.debug_frame
  17              		.section	.rodata._mmcsd_get_slice.cst4,"aM",%progbits,4
  18              		.align	2
  19              	.LC0:
  20 0000 00000000 		.word	__stack_chk_guard
  21              		.section	.text._mmcsd_get_slice,"ax",%progbits
  22              		.align	1
  23              		.p2align 4,,15
  24              		.global	_mmcsd_get_slice
  25              		.arch armv7e-m
  26              		.syntax unified
  27              		.thumb
  28              		.thumb_func
  29              		.fpu fpv4-sp-d16
  30              		.type	_mmcsd_get_slice, %function
  31              	_mmcsd_get_slice:
  32              	.LVL0:
  33              	.LFB256:
  34              		.file 1 ".//ChibiOS//os/hal/src/hal_mmcsd.c"
  35              		.loc 1 63 43 view -0
  36              		.cfi_startproc
  37              		@ args = 0, pretend = 0, frame = 8
  38              		@ frame_needed = 0, uses_anonymous_args = 0
  39              		.loc 1 63 43 is_stmt 0 view .LVU1
  40 0000 70B5     		push	{r4, r5, r6, lr}
  41              		.cfi_def_cfa_offset 16
  42              		.cfi_offset 4, -16
  43              		.cfi_offset 5, -12
  44              		.cfi_offset 6, -8
  45              		.cfi_offset 14, -4
  46 0002 1D4B     		ldr	r3, .L11
  47 0004 82B0     		sub	sp, sp, #8
  48              		.cfi_def_cfa_offset 24
  49              		.loc 1 67 3 view .LVU2
  50 0006 9142     		cmp	r1, r2
  51              		.loc 1 63 43 view .LVU3
  52 0008 0C46     		mov	r4, r1
  53 000a 1546     		mov	r5, r2
  54 000c 0646     		mov	r6, r0
  55 000e 1B68     		ldr	r3, [r3]
  56 0010 0193     		str	r3, [sp, #4]
  57 0012 4FF00003 		mov	r3,#0
ARM GAS  /tmp/ccMJKeTi.s 			page 2


  58              		.loc 1 64 3 is_stmt 1 view .LVU4
  59              		.loc 1 65 3 view .LVU5
  60              		.loc 1 67 3 view .LVU6
  61              		.loc 1 67 3 view .LVU7
  62              		.loc 1 67 3 view .LVU8
  63 0016 1DD3     		bcc	.L2
  64              		.loc 1 67 3 is_stmt 0 discriminator 4 view .LVU9
  65 0018 8B1A     		subs	r3, r1, r2
  66 001a 1F2B     		cmp	r3, #31
  67 001c 1AD8     		bhi	.L2
  68              	.LVL1:
  69              	.L3:
  70              		.loc 1 67 3 is_stmt 1 discriminator 7 view .LVU10
  71              		.loc 1 69 3 discriminator 7 view .LVU11
  72              		.loc 1 72 37 is_stmt 0 discriminator 7 view .LVU12
  73 001e 04F01F03 		and	r3, r4, #31
  74              		.loc 1 72 44 discriminator 7 view .LVU13
  75 0022 581C     		adds	r0, r3, #1
  76              		.loc 1 71 12 discriminator 7 view .LVU14
  77 0024 6409     		lsrs	r4, r4, #5
  78              	.LVL2:
  79              		.loc 1 72 28 discriminator 7 view .LVU15
  80 0026 0123     		movs	r3, #1
  81 0028 8340     		lsls	r3, r3, r0
  82              		.loc 1 75 6 discriminator 7 view .LVU16
  83 002a B4EB551F 		cmp	r4, r5, lsr #5
  84              		.loc 1 72 12 discriminator 7 view .LVU17
  85 002e 03F1FF33 		add	r3, r3, #-1
  86              		.loc 1 69 12 discriminator 7 view .LVU18
  87 0032 4FEA5512 		lsr	r2, r5, #5
  88              	.LVL3:
  89              		.loc 1 70 3 is_stmt 1 discriminator 7 view .LVU19
  90              		.loc 1 70 12 is_stmt 0 discriminator 7 view .LVU20
  91 0036 05F01F00 		and	r0, r5, #31
  92              	.LVL4:
  93              		.loc 1 71 3 is_stmt 1 discriminator 7 view .LVU21
  94              		.loc 1 72 3 discriminator 7 view .LVU22
  95              		.loc 1 75 3 discriminator 7 view .LVU23
  96              		.loc 1 75 6 is_stmt 0 discriminator 7 view .LVU24
  97 003a 0FD8     		bhi	.L9
  98              		.loc 1 79 3 is_stmt 1 view .LVU25
  99              		.loc 1 79 26 is_stmt 0 view .LVU26
 100 003c 56F82220 		ldr	r2, [r6, r2, lsl #2]
 101              	.LVL5:
 102              		.loc 1 79 26 view .LVU27
 103 0040 1340     		ands	r3, r3, r2
 104              	.LVL6:
 105              		.loc 1 79 37 view .LVU28
 106 0042 23FA00F0 		lsr	r0, r3, r0
 107              	.LVL7:
 108              	.L1:
 109              		.loc 1 80 1 view .LVU29
 110 0046 0C4B     		ldr	r3, .L11
 111 0048 1A68     		ldr	r2, [r3]
 112 004a 019B     		ldr	r3, [sp, #4]
 113 004c 5A40     		eors	r2, r3, r2
 114 004e 11D1     		bne	.L10
ARM GAS  /tmp/ccMJKeTi.s 			page 3


 115 0050 02B0     		add	sp, sp, #8
 116              		.cfi_remember_state
 117              		.cfi_def_cfa_offset 16
 118              		@ sp needed
 119 0052 70BD     		pop	{r4, r5, r6, pc}
 120              	.LVL8:
 121              	.L2:
 122              		.cfi_restore_state
 123              		.loc 1 67 3 is_stmt 1 discriminator 5 view .LVU30
 124 0054 0948     		ldr	r0, .L11+4
 125              	.LVL9:
 126              		.loc 1 67 3 is_stmt 0 discriminator 5 view .LVU31
 127 0056 FFF7FEFF 		bl	chSysHalt
 128              	.LVL10:
 129              		.loc 1 67 3 discriminator 5 view .LVU32
 130 005a E0E7     		b	.L3
 131              	.LVL11:
 132              	.L9:
 133              		.loc 1 76 5 is_stmt 1 view .LVU33
 134              		.loc 1 77 27 is_stmt 0 view .LVU34
 135 005c 56F82410 		ldr	r1, [r6, r4, lsl #2]
 136              		.loc 1 76 28 view .LVU35
 137 0060 56F82220 		ldr	r2, [r6, r2, lsl #2]
 138              	.LVL12:
 139              		.loc 1 77 27 view .LVU36
 140 0064 0B40     		ands	r3, r3, r1
 141              	.LVL13:
 142              		.loc 1 77 46 view .LVU37
 143 0066 C0F12001 		rsb	r1, r0, #32
 144              		.loc 1 76 28 view .LVU38
 145 006a C240     		lsrs	r2, r2, r0
 146              		.loc 1 77 38 view .LVU39
 147 006c 03FA01F0 		lsl	r0, r3, r1
 148              	.LVL14:
 149              		.loc 1 76 41 view .LVU40
 150 0070 1043     		orrs	r0, r0, r2
 151 0072 E8E7     		b	.L1
 152              	.L10:
 153              		.loc 1 80 1 view .LVU41
 154 0074 FFF7FEFF 		bl	__stack_chk_fail
 155              	.LVL15:
 156              	.L12:
 157              		.align	2
 158              	.L11:
 159 0078 00000000 		.word	.LC0
 160 007c 00000000 		.word	.LANCHOR0
 161              		.cfi_endproc
 162              	.LFE256:
 163              		.size	_mmcsd_get_slice, .-_mmcsd_get_slice
 164              		.section	.rodata._mmcsd_get_capacity.cst4,"aM",%progbits,4
 165              		.align	2
 166              	.LC1:
 167 0000 00000000 		.word	__stack_chk_guard
 168              		.section	.text._mmcsd_get_capacity,"ax",%progbits
 169              		.align	1
 170              		.p2align 4,,15
 171              		.global	_mmcsd_get_capacity
ARM GAS  /tmp/ccMJKeTi.s 			page 4


 172              		.syntax unified
 173              		.thumb
 174              		.thumb_func
 175              		.fpu fpv4-sp-d16
 176              		.type	_mmcsd_get_capacity, %function
 177              	_mmcsd_get_capacity:
 178              	.LVL16:
 179              	.LFB257:
 180              		.loc 1 93 51 is_stmt 1 view -0
 181              		.cfi_startproc
 182              		@ args = 0, pretend = 0, frame = 8
 183              		@ frame_needed = 0, uses_anonymous_args = 0
 184              		.loc 1 93 51 is_stmt 0 view .LVU43
 185 0000 70B5     		push	{r4, r5, r6, lr}
 186              		.cfi_def_cfa_offset 16
 187              		.cfi_offset 4, -16
 188              		.cfi_offset 5, -12
 189              		.cfi_offset 6, -8
 190              		.cfi_offset 14, -4
 191 0002 1F4B     		ldr	r3, .L23
 192 0004 82B0     		sub	sp, sp, #8
 193              		.cfi_def_cfa_offset 24
 194              		.loc 1 93 51 view .LVU44
 195 0006 1B68     		ldr	r3, [r3]
 196 0008 0193     		str	r3, [sp, #4]
 197 000a 4FF00003 		mov	r3,#0
 198              		.loc 1 94 3 is_stmt 1 view .LVU45
 199              		.loc 1 96 3 view .LVU46
 200              		.loc 1 96 3 view .LVU47
 201              		.loc 1 96 3 view .LVU48
 202 000e 0446     		mov	r4, r0
 203 0010 78B3     		cbz	r0, .L20
 204              	.LVL17:
 205              	.L14:
 206              		.loc 1 96 3 discriminator 5 view .LVU49
 207              		.loc 1 98 3 discriminator 5 view .LVU50
 208              		.loc 1 98 11 is_stmt 0 discriminator 5 view .LVU51
 209 0012 7E22     		movs	r2, #126
 210 0014 7F21     		movs	r1, #127
 211 0016 2046     		mov	r0, r4
 212 0018 FFF7FEFF 		bl	_mmcsd_get_slice
 213              	.LVL18:
 214              		.loc 1 98 3 discriminator 5 view .LVU52
 215 001c 88B1     		cbz	r0, .L15
 216              		.loc 1 98 3 view .LVU53
 217 001e 0128     		cmp	r0, #1
 218 0020 0DD1     		bne	.L21
 219              		.loc 1 107 5 is_stmt 1 view .LVU54
 220              		.loc 1 107 21 is_stmt 0 view .LVU55
 221 0022 2046     		mov	r0, r4
 222 0024 3022     		movs	r2, #48
 223 0026 4521     		movs	r1, #69
 224 0028 FFF7FEFF 		bl	_mmcsd_get_slice
 225              	.LVL19:
 226              		.loc 1 107 70 view .LVU56
 227 002c 0130     		adds	r0, r0, #1
 228              		.loc 1 107 18 view .LVU57
ARM GAS  /tmp/ccMJKeTi.s 			page 5


 229 002e 8002     		lsls	r0, r0, #10
 230              	.L13:
 231              		.loc 1 113 1 view .LVU58
 232 0030 134B     		ldr	r3, .L23
 233 0032 1A68     		ldr	r2, [r3]
 234 0034 019B     		ldr	r3, [sp, #4]
 235 0036 5A40     		eors	r2, r3, r2
 236 0038 1FD1     		bne	.L22
 237 003a 02B0     		add	sp, sp, #8
 238              		.cfi_remember_state
 239              		.cfi_def_cfa_offset 16
 240              		@ sp needed
 241 003c 70BD     		pop	{r4, r5, r6, pc}
 242              	.LVL20:
 243              	.L21:
 244              		.cfi_restore_state
 245              		.loc 1 98 3 view .LVU59
 246 003e 0020     		movs	r0, #0
 247 0040 F6E7     		b	.L13
 248              	.L15:
 249              		.loc 1 101 5 is_stmt 1 view .LVU60
 250              		.loc 1 101 9 is_stmt 0 view .LVU61
 251 0042 3E22     		movs	r2, #62
 252 0044 4921     		movs	r1, #73
 253 0046 2046     		mov	r0, r4
 254 0048 FFF7FEFF 		bl	_mmcsd_get_slice
 255              	.LVL21:
 256              		.loc 1 102 9 view .LVU62
 257 004c 2F22     		movs	r2, #47
 258              		.loc 1 101 9 view .LVU63
 259 004e 0546     		mov	r5, r0
 260              		.loc 1 102 9 view .LVU64
 261 0050 3121     		movs	r1, #49
 262 0052 2046     		mov	r0, r4
 263              	.LVL22:
 264              		.loc 1 102 5 is_stmt 1 view .LVU65
 265              		.loc 1 102 9 is_stmt 0 view .LVU66
 266 0054 FFF7FEFF 		bl	_mmcsd_get_slice
 267              	.LVL23:
 268              		.loc 1 103 9 view .LVU67
 269 0058 5022     		movs	r2, #80
 270              		.loc 1 102 9 view .LVU68
 271 005a 0646     		mov	r6, r0
 272              	.LVL24:
 273              		.loc 1 103 5 is_stmt 1 view .LVU69
 274              		.loc 1 103 9 is_stmt 0 view .LVU70
 275 005c 5321     		movs	r1, #83
 276 005e 2046     		mov	r0, r4
 277              	.LVL25:
 278              		.loc 1 103 9 view .LVU71
 279 0060 FFF7FEFF 		bl	_mmcsd_get_slice
 280              	.LVL26:
 281              		.loc 1 104 5 is_stmt 1 view .LVU72
 282              		.loc 1 104 16 is_stmt 0 view .LVU73
 283 0064 0135     		adds	r5, r5, #1
 284              	.LVL27:
 285              		.loc 1 104 28 view .LVU74
ARM GAS  /tmp/ccMJKeTi.s 			page 6


 286 0066 0236     		adds	r6, r6, #2
 287              	.LVL28:
 288              		.loc 1 104 22 view .LVU75
 289 0068 B540     		lsls	r5, r5, r6
 290              	.LVL29:
 291              		.loc 1 104 41 view .LVU76
 292 006a 0938     		subs	r0, r0, #9
 293              	.LVL30:
 294              		.loc 1 104 35 view .LVU77
 295 006c 05FA00F0 		lsl	r0, r5, r0
 296              	.LVL31:
 297              		.loc 1 104 35 view .LVU78
 298 0070 DEE7     		b	.L13
 299              	.LVL32:
 300              	.L20:
 301              		.loc 1 96 3 is_stmt 1 discriminator 3 view .LVU79
 302 0072 0448     		ldr	r0, .L23+4
 303              	.LVL33:
 304              		.loc 1 96 3 is_stmt 0 discriminator 3 view .LVU80
 305 0074 FFF7FEFF 		bl	chSysHalt
 306              	.LVL34:
 307 0078 CBE7     		b	.L14
 308              	.L22:
 309              		.loc 1 113 1 view .LVU81
 310 007a FFF7FEFF 		bl	__stack_chk_fail
 311              	.LVL35:
 312              	.L24:
 313 007e 00BF     		.align	2
 314              	.L23:
 315 0080 00000000 		.word	.LC1
 316 0084 00000000 		.word	.LANCHOR1
 317              		.cfi_endproc
 318              	.LFE257:
 319              		.size	_mmcsd_get_capacity, .-_mmcsd_get_capacity
 320              		.section	.rodata._mmcsd_get_capacity_ext.cst4,"aM",%progbits,4
 321              		.align	2
 322              	.LC2:
 323 0000 00000000 		.word	__stack_chk_guard
 324              		.section	.text._mmcsd_get_capacity_ext,"ax",%progbits
 325              		.align	1
 326              		.p2align 4,,15
 327              		.global	_mmcsd_get_capacity_ext
 328              		.syntax unified
 329              		.thumb
 330              		.thumb_func
 331              		.fpu fpv4-sp-d16
 332              		.type	_mmcsd_get_capacity_ext, %function
 333              	_mmcsd_get_capacity_ext:
 334              	.LVL36:
 335              	.LFB258:
 336              		.loc 1 125 58 is_stmt 1 view -0
 337              		.cfi_startproc
 338              		@ args = 0, pretend = 0, frame = 8
 339              		@ frame_needed = 0, uses_anonymous_args = 0
 340              		.loc 1 125 58 is_stmt 0 view .LVU83
 341 0000 30B5     		push	{r4, r5, lr}
 342              		.cfi_def_cfa_offset 12
ARM GAS  /tmp/ccMJKeTi.s 			page 7


 343              		.cfi_offset 4, -12
 344              		.cfi_offset 5, -8
 345              		.cfi_offset 14, -4
 346 0002 114B     		ldr	r3, .L31
 347 0004 83B0     		sub	sp, sp, #12
 348              		.cfi_def_cfa_offset 24
 349              		.loc 1 125 58 view .LVU84
 350 0006 1B68     		ldr	r3, [r3]
 351 0008 0193     		str	r3, [sp, #4]
 352 000a 4FF00003 		mov	r3,#0
 353              		.loc 1 127 3 is_stmt 1 view .LVU85
 354              		.loc 1 127 3 view .LVU86
 355              		.loc 1 127 3 view .LVU87
 356 000e 0446     		mov	r4, r0
 357 0010 A0B1     		cbz	r0, .L29
 358              	.LVL37:
 359              	.L26:
 360              		.loc 1 127 3 discriminator 5 view .LVU88
 361              		.loc 1 129 3 discriminator 5 view .LVU89
 362              		.loc 1 130 11 is_stmt 0 discriminator 5 view .LVU90
 363 0012 94F8D630 		ldrb	r3, [r4, #214]	@ zero_extendqisi2
 364              		.loc 1 129 11 discriminator 5 view .LVU91
 365 0016 94F8D750 		ldrb	r5, [r4, #215]	@ zero_extendqisi2
 366              		.loc 1 132 10 discriminator 5 view .LVU92
 367 001a 94F8D410 		ldrb	r1, [r4, #212]	@ zero_extendqisi2
 368              		.loc 1 131 11 discriminator 5 view .LVU93
 369 001e 94F8D520 		ldrb	r2, [r4, #213]	@ zero_extendqisi2
 370              		.loc 1 130 34 discriminator 5 view .LVU94
 371 0022 1804     		lsls	r0, r3, #16
 372              		.loc 1 129 42 discriminator 5 view .LVU95
 373 0024 00EB0560 		add	r0, r0, r5, lsl #24
 374              		.loc 1 133 1 discriminator 5 view .LVU96
 375 0028 074B     		ldr	r3, .L31
 376              		.loc 1 131 42 discriminator 5 view .LVU97
 377 002a 0844     		add	r0, r0, r1
 378 002c 00EB0220 		add	r0, r0, r2, lsl #8
 379              		.loc 1 133 1 discriminator 5 view .LVU98
 380 0030 1A68     		ldr	r2, [r3]
 381 0032 019B     		ldr	r3, [sp, #4]
 382 0034 5A40     		eors	r2, r3, r2
 383 0036 05D1     		bne	.L30
 384              		.loc 1 133 1 view .LVU99
 385 0038 03B0     		add	sp, sp, #12
 386              		.cfi_remember_state
 387              		.cfi_def_cfa_offset 12
 388              		@ sp needed
 389 003a 30BD     		pop	{r4, r5, pc}
 390              	.LVL38:
 391              	.L29:
 392              		.cfi_restore_state
 393              		.loc 1 127 3 is_stmt 1 discriminator 3 view .LVU100
 394 003c 0348     		ldr	r0, .L31+4
 395              	.LVL39:
 396              		.loc 1 127 3 is_stmt 0 discriminator 3 view .LVU101
 397 003e FFF7FEFF 		bl	chSysHalt
 398              	.LVL40:
 399 0042 E6E7     		b	.L26
ARM GAS  /tmp/ccMJKeTi.s 			page 8


 400              	.L30:
 401              		.loc 1 133 1 view .LVU102
 402 0044 FFF7FEFF 		bl	__stack_chk_fail
 403              	.LVL41:
 404              	.L32:
 405              		.align	2
 406              	.L31:
 407 0048 00000000 		.word	.LC2
 408 004c 00000000 		.word	.LANCHOR2
 409              		.cfi_endproc
 410              	.LFE258:
 411              		.size	_mmcsd_get_capacity_ext, .-_mmcsd_get_capacity_ext
 412              		.section	.rodata._mmcsd_unpack_sdc_cid.cst4,"aM",%progbits,4
 413              		.align	2
 414              	.LC3:
 415 0000 00000000 		.word	__stack_chk_guard
 416              		.section	.text._mmcsd_unpack_sdc_cid,"ax",%progbits
 417              		.align	1
 418              		.p2align 4,,15
 419              		.global	_mmcsd_unpack_sdc_cid
 420              		.syntax unified
 421              		.thumb
 422              		.thumb_func
 423              		.fpu fpv4-sp-d16
 424              		.type	_mmcsd_unpack_sdc_cid, %function
 425              	_mmcsd_unpack_sdc_cid:
 426              	.LVL42:
 427              	.LFB259:
 428              		.loc 1 144 56 is_stmt 1 view -0
 429              		.cfi_startproc
 430              		@ args = 0, pretend = 0, frame = 8
 431              		@ frame_needed = 0, uses_anonymous_args = 0
 432              		.loc 1 144 56 is_stmt 0 view .LVU104
 433 0000 30B5     		push	{r4, r5, lr}
 434              		.cfi_def_cfa_offset 12
 435              		.cfi_offset 4, -12
 436              		.cfi_offset 5, -8
 437              		.cfi_offset 14, -4
 438 0002 354B     		ldr	r3, .L42
 439 0004 83B0     		sub	sp, sp, #12
 440              		.cfi_def_cfa_offset 24
 441              		.loc 1 144 56 view .LVU105
 442 0006 0D46     		mov	r5, r1
 443 0008 1B68     		ldr	r3, [r3]
 444 000a 0193     		str	r3, [sp, #4]
 445 000c 4FF00003 		mov	r3,#0
 446              		.loc 1 145 3 is_stmt 1 view .LVU106
 447              		.loc 1 147 3 view .LVU107
 448              		.loc 1 147 3 view .LVU108
 449              		.loc 1 147 3 view .LVU109
 450 0010 0446     		mov	r4, r0
 451 0012 0028     		cmp	r0, #0
 452 0014 59D0     		beq	.L34
 453              		.loc 1 147 3 is_stmt 0 discriminator 4 view .LVU110
 454 0016 0029     		cmp	r1, #0
 455 0018 57D0     		beq	.L34
 456              	.LVL43:
ARM GAS  /tmp/ccMJKeTi.s 			page 9


 457              	.L35:
 458              		.loc 1 147 3 is_stmt 1 discriminator 7 view .LVU111
 459              		.loc 1 149 3 discriminator 7 view .LVU112
 460              		.loc 1 149 7 is_stmt 0 discriminator 7 view .LVU113
 461 001a 0834     		adds	r4, r4, #8
 462              	.LVL44:
 463              		.loc 1 150 3 is_stmt 1 discriminator 7 view .LVU114
 464              		.loc 1 150 30 is_stmt 0 discriminator 7 view .LVU115
 465 001c 0122     		movs	r2, #1
 466 001e 0721     		movs	r1, #7
 467 0020 2046     		mov	r0, r4
 468 0022 FFF7FEFF 		bl	_mmcsd_get_slice
 469              	.LVL45:
 470              		.loc 1 151 30 discriminator 7 view .LVU116
 471 0026 0C22     		movs	r2, #12
 472              		.loc 1 150 20 discriminator 7 view .LVU117
 473 0028 2875     		strb	r0, [r5, #20]
 474              		.loc 1 151 3 is_stmt 1 discriminator 7 view .LVU118
 475              		.loc 1 151 30 is_stmt 0 discriminator 7 view .LVU119
 476 002a 1321     		movs	r1, #19
 477 002c 2046     		mov	r0, r4
 478 002e FFF7FEFF 		bl	_mmcsd_get_slice
 479              	.LVL46:
 480              		.loc 1 151 79 discriminator 7 view .LVU120
 481 0032 00F5FA60 		add	r0, r0, #2000
 482              		.loc 1 151 18 discriminator 7 view .LVU121
 483 0036 6882     		strh	r0, [r5, #18]	@ movhi
 484              		.loc 1 153 3 is_stmt 1 discriminator 7 view .LVU122
 485              		.loc 1 153 30 is_stmt 0 discriminator 7 view .LVU123
 486 0038 0822     		movs	r2, #8
 487 003a 0B21     		movs	r1, #11
 488 003c 2046     		mov	r0, r4
 489 003e FFF7FEFF 		bl	_mmcsd_get_slice
 490              	.LVL47:
 491              		.loc 1 154 30 discriminator 7 view .LVU124
 492 0042 7822     		movs	r2, #120
 493              		.loc 1 153 20 discriminator 7 view .LVU125
 494 0044 2874     		strb	r0, [r5, #16]
 495              		.loc 1 154 3 is_stmt 1 discriminator 7 view .LVU126
 496              		.loc 1 154 30 is_stmt 0 discriminator 7 view .LVU127
 497 0046 7F21     		movs	r1, #127
 498 0048 2046     		mov	r0, r4
 499 004a FFF7FEFF 		bl	_mmcsd_get_slice
 500              	.LVL48:
 501              		.loc 1 155 30 discriminator 7 view .LVU128
 502 004e 6822     		movs	r2, #104
 503              		.loc 1 154 20 discriminator 7 view .LVU129
 504 0050 2870     		strb	r0, [r5]
 505              		.loc 1 155 3 is_stmt 1 discriminator 7 view .LVU130
 506              		.loc 1 155 30 is_stmt 0 discriminator 7 view .LVU131
 507 0052 7721     		movs	r1, #119
 508 0054 2046     		mov	r0, r4
 509 0056 FFF7FEFF 		bl	_mmcsd_get_slice
 510              	.LVL49:
 511              		.loc 1 156 30 discriminator 7 view .LVU132
 512 005a 4022     		movs	r2, #64
 513              		.loc 1 155 20 discriminator 7 view .LVU133
ARM GAS  /tmp/ccMJKeTi.s 			page 10


 514 005c 6880     		strh	r0, [r5, #2]	@ movhi
 515              		.loc 1 156 3 is_stmt 1 discriminator 7 view .LVU134
 516              		.loc 1 156 30 is_stmt 0 discriminator 7 view .LVU135
 517 005e 4721     		movs	r1, #71
 518 0060 2046     		mov	r0, r4
 519 0062 FFF7FEFF 		bl	_mmcsd_get_slice
 520              	.LVL50:
 521              		.loc 1 157 30 discriminator 7 view .LVU136
 522 0066 4822     		movs	r2, #72
 523              		.loc 1 156 20 discriminator 7 view .LVU137
 524 0068 2872     		strb	r0, [r5, #8]
 525              		.loc 1 157 3 is_stmt 1 discriminator 7 view .LVU138
 526              		.loc 1 157 30 is_stmt 0 discriminator 7 view .LVU139
 527 006a 4F21     		movs	r1, #79
 528 006c 2046     		mov	r0, r4
 529 006e FFF7FEFF 		bl	_mmcsd_get_slice
 530              	.LVL51:
 531              		.loc 1 158 30 discriminator 7 view .LVU140
 532 0072 5022     		movs	r2, #80
 533              		.loc 1 157 20 discriminator 7 view .LVU141
 534 0074 E871     		strb	r0, [r5, #7]
 535              		.loc 1 158 3 is_stmt 1 discriminator 7 view .LVU142
 536              		.loc 1 158 30 is_stmt 0 discriminator 7 view .LVU143
 537 0076 5721     		movs	r1, #87
 538 0078 2046     		mov	r0, r4
 539 007a FFF7FEFF 		bl	_mmcsd_get_slice
 540              	.LVL52:
 541              		.loc 1 159 30 discriminator 7 view .LVU144
 542 007e 5822     		movs	r2, #88
 543              		.loc 1 158 20 discriminator 7 view .LVU145
 544 0080 A871     		strb	r0, [r5, #6]
 545              		.loc 1 159 3 is_stmt 1 discriminator 7 view .LVU146
 546              		.loc 1 159 30 is_stmt 0 discriminator 7 view .LVU147
 547 0082 5F21     		movs	r1, #95
 548 0084 2046     		mov	r0, r4
 549 0086 FFF7FEFF 		bl	_mmcsd_get_slice
 550              	.LVL53:
 551              		.loc 1 160 30 discriminator 7 view .LVU148
 552 008a 6022     		movs	r2, #96
 553              		.loc 1 159 20 discriminator 7 view .LVU149
 554 008c 6871     		strb	r0, [r5, #5]
 555              		.loc 1 160 3 is_stmt 1 discriminator 7 view .LVU150
 556              		.loc 1 160 30 is_stmt 0 discriminator 7 view .LVU151
 557 008e 6721     		movs	r1, #103
 558 0090 2046     		mov	r0, r4
 559 0092 FFF7FEFF 		bl	_mmcsd_get_slice
 560              	.LVL54:
 561              		.loc 1 161 30 discriminator 7 view .LVU152
 562 0096 3C22     		movs	r2, #60
 563              		.loc 1 160 20 discriminator 7 view .LVU153
 564 0098 2871     		strb	r0, [r5, #4]
 565              		.loc 1 161 3 is_stmt 1 discriminator 7 view .LVU154
 566              		.loc 1 161 30 is_stmt 0 discriminator 7 view .LVU155
 567 009a 3F21     		movs	r1, #63
 568 009c 2046     		mov	r0, r4
 569 009e FFF7FEFF 		bl	_mmcsd_get_slice
 570              	.LVL55:
ARM GAS  /tmp/ccMJKeTi.s 			page 11


 571              		.loc 1 162 30 discriminator 7 view .LVU156
 572 00a2 3822     		movs	r2, #56
 573              		.loc 1 161 20 discriminator 7 view .LVU157
 574 00a4 6872     		strb	r0, [r5, #9]
 575              		.loc 1 162 3 is_stmt 1 discriminator 7 view .LVU158
 576              		.loc 1 162 30 is_stmt 0 discriminator 7 view .LVU159
 577 00a6 3B21     		movs	r1, #59
 578 00a8 2046     		mov	r0, r4
 579 00aa FFF7FEFF 		bl	_mmcsd_get_slice
 580              	.LVL56:
 581              		.loc 1 163 30 discriminator 7 view .LVU160
 582 00ae 1822     		movs	r2, #24
 583              		.loc 1 162 20 discriminator 7 view .LVU161
 584 00b0 A872     		strb	r0, [r5, #10]
 585              		.loc 1 163 3 is_stmt 1 discriminator 7 view .LVU162
 586              		.loc 1 163 30 is_stmt 0 discriminator 7 view .LVU163
 587 00b2 3721     		movs	r1, #55
 588 00b4 2046     		mov	r0, r4
 589 00b6 FFF7FEFF 		bl	_mmcsd_get_slice
 590              	.LVL57:
 591              		.loc 1 164 1 discriminator 7 view .LVU164
 592 00ba 074B     		ldr	r3, .L42
 593              		.loc 1 163 18 discriminator 7 view .LVU165
 594 00bc E860     		str	r0, [r5, #12]
 595              		.loc 1 164 1 discriminator 7 view .LVU166
 596 00be 1A68     		ldr	r2, [r3]
 597 00c0 019B     		ldr	r3, [sp, #4]
 598 00c2 5A40     		eors	r2, r3, r2
 599 00c4 05D1     		bne	.L41
 600              		.loc 1 164 1 view .LVU167
 601 00c6 03B0     		add	sp, sp, #12
 602              		.cfi_remember_state
 603              		.cfi_def_cfa_offset 12
 604              		@ sp needed
 605 00c8 30BD     		pop	{r4, r5, pc}
 606              	.LVL58:
 607              	.L34:
 608              		.cfi_restore_state
 609              		.loc 1 147 3 is_stmt 1 discriminator 5 view .LVU168
 610 00ca 0448     		ldr	r0, .L42+4
 611              	.LVL59:
 612              		.loc 1 147 3 is_stmt 0 discriminator 5 view .LVU169
 613 00cc FFF7FEFF 		bl	chSysHalt
 614              	.LVL60:
 615              		.loc 1 147 3 discriminator 5 view .LVU170
 616 00d0 A3E7     		b	.L35
 617              	.LVL61:
 618              	.L41:
 619              		.loc 1 164 1 view .LVU171
 620 00d2 FFF7FEFF 		bl	__stack_chk_fail
 621              	.LVL62:
 622              	.L43:
 623 00d6 00BF     		.align	2
 624              	.L42:
 625 00d8 00000000 		.word	.LC3
 626 00dc 00000000 		.word	.LANCHOR3
 627              		.cfi_endproc
ARM GAS  /tmp/ccMJKeTi.s 			page 12


 628              	.LFE259:
 629              		.size	_mmcsd_unpack_sdc_cid, .-_mmcsd_unpack_sdc_cid
 630              		.section	.rodata._mmcsd_unpack_mmc_cid.cst4,"aM",%progbits,4
 631              		.align	2
 632              	.LC4:
 633 0000 00000000 		.word	__stack_chk_guard
 634              		.section	.text._mmcsd_unpack_mmc_cid,"ax",%progbits
 635              		.align	1
 636              		.p2align 4,,15
 637              		.global	_mmcsd_unpack_mmc_cid
 638              		.syntax unified
 639              		.thumb
 640              		.thumb_func
 641              		.fpu fpv4-sp-d16
 642              		.type	_mmcsd_unpack_mmc_cid, %function
 643              	_mmcsd_unpack_mmc_cid:
 644              	.LVL63:
 645              	.LFB260:
 646              		.loc 1 175 56 is_stmt 1 view -0
 647              		.cfi_startproc
 648              		@ args = 0, pretend = 0, frame = 8
 649              		@ frame_needed = 0, uses_anonymous_args = 0
 650              		.loc 1 175 56 is_stmt 0 view .LVU173
 651 0000 30B5     		push	{r4, r5, lr}
 652              		.cfi_def_cfa_offset 12
 653              		.cfi_offset 4, -12
 654              		.cfi_offset 5, -8
 655              		.cfi_offset 14, -4
 656 0002 384B     		ldr	r3, .L53
 657 0004 83B0     		sub	sp, sp, #12
 658              		.cfi_def_cfa_offset 24
 659              		.loc 1 175 56 view .LVU174
 660 0006 0D46     		mov	r5, r1
 661 0008 1B68     		ldr	r3, [r3]
 662 000a 0193     		str	r3, [sp, #4]
 663 000c 4FF00003 		mov	r3,#0
 664              		.loc 1 176 3 is_stmt 1 view .LVU175
 665              		.loc 1 178 3 view .LVU176
 666              		.loc 1 178 3 view .LVU177
 667              		.loc 1 178 3 view .LVU178
 668 0010 0446     		mov	r4, r0
 669 0012 0028     		cmp	r0, #0
 670 0014 5FD0     		beq	.L45
 671              		.loc 1 178 3 is_stmt 0 discriminator 4 view .LVU179
 672 0016 0029     		cmp	r1, #0
 673 0018 5DD0     		beq	.L45
 674              	.LVL64:
 675              	.L46:
 676              		.loc 1 178 3 is_stmt 1 discriminator 7 view .LVU180
 677              		.loc 1 180 3 discriminator 7 view .LVU181
 678              		.loc 1 180 7 is_stmt 0 discriminator 7 view .LVU182
 679 001a 0834     		adds	r4, r4, #8
 680              	.LVL65:
 681              		.loc 1 181 3 is_stmt 1 discriminator 7 view .LVU183
 682              		.loc 1 181 30 is_stmt 0 discriminator 7 view .LVU184
 683 001c 0122     		movs	r2, #1
 684 001e 0721     		movs	r1, #7
ARM GAS  /tmp/ccMJKeTi.s 			page 13


 685 0020 2046     		mov	r0, r4
 686 0022 FFF7FEFF 		bl	_mmcsd_get_slice
 687              	.LVL66:
 688              		.loc 1 182 30 discriminator 7 view .LVU185
 689 0026 0822     		movs	r2, #8
 690              		.loc 1 181 20 discriminator 7 view .LVU186
 691 0028 2875     		strb	r0, [r5, #20]
 692              		.loc 1 182 3 is_stmt 1 discriminator 7 view .LVU187
 693              		.loc 1 182 30 is_stmt 0 discriminator 7 view .LVU188
 694 002a 0B21     		movs	r1, #11
 695 002c 2046     		mov	r0, r4
 696 002e FFF7FEFF 		bl	_mmcsd_get_slice
 697              	.LVL67:
 698              		.loc 1 182 79 discriminator 7 view .LVU189
 699 0032 00F2CD70 		addw	r0, r0, #1997
 700              		.loc 1 182 18 discriminator 7 view .LVU190
 701 0036 6882     		strh	r0, [r5, #18]	@ movhi
 702              		.loc 1 184 3 is_stmt 1 discriminator 7 view .LVU191
 703              		.loc 1 184 30 is_stmt 0 discriminator 7 view .LVU192
 704 0038 0C22     		movs	r2, #12
 705 003a 0F21     		movs	r1, #15
 706 003c 2046     		mov	r0, r4
 707 003e FFF7FEFF 		bl	_mmcsd_get_slice
 708              	.LVL68:
 709              		.loc 1 185 30 discriminator 7 view .LVU193
 710 0042 7822     		movs	r2, #120
 711              		.loc 1 184 20 discriminator 7 view .LVU194
 712 0044 2874     		strb	r0, [r5, #16]
 713              		.loc 1 185 3 is_stmt 1 discriminator 7 view .LVU195
 714              		.loc 1 185 30 is_stmt 0 discriminator 7 view .LVU196
 715 0046 7F21     		movs	r1, #127
 716 0048 2046     		mov	r0, r4
 717 004a FFF7FEFF 		bl	_mmcsd_get_slice
 718              	.LVL69:
 719              		.loc 1 186 30 discriminator 7 view .LVU197
 720 004e 6822     		movs	r2, #104
 721              		.loc 1 185 20 discriminator 7 view .LVU198
 722 0050 2870     		strb	r0, [r5]
 723              		.loc 1 186 3 is_stmt 1 discriminator 7 view .LVU199
 724              		.loc 1 186 30 is_stmt 0 discriminator 7 view .LVU200
 725 0052 7721     		movs	r1, #119
 726 0054 2046     		mov	r0, r4
 727 0056 FFF7FEFF 		bl	_mmcsd_get_slice
 728              	.LVL70:
 729              		.loc 1 187 30 discriminator 7 view .LVU201
 730 005a 3822     		movs	r2, #56
 731              		.loc 1 186 20 discriminator 7 view .LVU202
 732 005c 6880     		strh	r0, [r5, #2]	@ movhi
 733              		.loc 1 187 3 is_stmt 1 discriminator 7 view .LVU203
 734              		.loc 1 187 30 is_stmt 0 discriminator 7 view .LVU204
 735 005e 3F21     		movs	r1, #63
 736 0060 2046     		mov	r0, r4
 737 0062 FFF7FEFF 		bl	_mmcsd_get_slice
 738              	.LVL71:
 739              		.loc 1 188 30 discriminator 7 view .LVU205
 740 0066 4022     		movs	r2, #64
 741              		.loc 1 187 20 discriminator 7 view .LVU206
ARM GAS  /tmp/ccMJKeTi.s 			page 14


 742 0068 6872     		strb	r0, [r5, #9]
 743              		.loc 1 188 3 is_stmt 1 discriminator 7 view .LVU207
 744              		.loc 1 188 30 is_stmt 0 discriminator 7 view .LVU208
 745 006a 4721     		movs	r1, #71
 746 006c 2046     		mov	r0, r4
 747 006e FFF7FEFF 		bl	_mmcsd_get_slice
 748              	.LVL72:
 749              		.loc 1 189 30 discriminator 7 view .LVU209
 750 0072 4822     		movs	r2, #72
 751              		.loc 1 188 20 discriminator 7 view .LVU210
 752 0074 2872     		strb	r0, [r5, #8]
 753              		.loc 1 189 3 is_stmt 1 discriminator 7 view .LVU211
 754              		.loc 1 189 30 is_stmt 0 discriminator 7 view .LVU212
 755 0076 4F21     		movs	r1, #79
 756 0078 2046     		mov	r0, r4
 757 007a FFF7FEFF 		bl	_mmcsd_get_slice
 758              	.LVL73:
 759              		.loc 1 190 30 discriminator 7 view .LVU213
 760 007e 5022     		movs	r2, #80
 761              		.loc 1 189 20 discriminator 7 view .LVU214
 762 0080 E871     		strb	r0, [r5, #7]
 763              		.loc 1 190 3 is_stmt 1 discriminator 7 view .LVU215
 764              		.loc 1 190 30 is_stmt 0 discriminator 7 view .LVU216
 765 0082 5721     		movs	r1, #87
 766 0084 2046     		mov	r0, r4
 767 0086 FFF7FEFF 		bl	_mmcsd_get_slice
 768              	.LVL74:
 769              		.loc 1 191 30 discriminator 7 view .LVU217
 770 008a 5822     		movs	r2, #88
 771              		.loc 1 190 20 discriminator 7 view .LVU218
 772 008c A871     		strb	r0, [r5, #6]
 773              		.loc 1 191 3 is_stmt 1 discriminator 7 view .LVU219
 774              		.loc 1 191 30 is_stmt 0 discriminator 7 view .LVU220
 775 008e 5F21     		movs	r1, #95
 776 0090 2046     		mov	r0, r4
 777 0092 FFF7FEFF 		bl	_mmcsd_get_slice
 778              	.LVL75:
 779              		.loc 1 192 30 discriminator 7 view .LVU221
 780 0096 6022     		movs	r2, #96
 781              		.loc 1 191 20 discriminator 7 view .LVU222
 782 0098 6871     		strb	r0, [r5, #5]
 783              		.loc 1 192 3 is_stmt 1 discriminator 7 view .LVU223
 784              		.loc 1 192 30 is_stmt 0 discriminator 7 view .LVU224
 785 009a 6721     		movs	r1, #103
 786 009c 2046     		mov	r0, r4
 787 009e FFF7FEFF 		bl	_mmcsd_get_slice
 788              	.LVL76:
 789              		.loc 1 193 30 discriminator 7 view .LVU225
 790 00a2 3422     		movs	r2, #52
 791              		.loc 1 192 20 discriminator 7 view .LVU226
 792 00a4 2871     		strb	r0, [r5, #4]
 793              		.loc 1 193 3 is_stmt 1 discriminator 7 view .LVU227
 794              		.loc 1 193 30 is_stmt 0 discriminator 7 view .LVU228
 795 00a6 3721     		movs	r1, #55
 796 00a8 2046     		mov	r0, r4
 797 00aa FFF7FEFF 		bl	_mmcsd_get_slice
 798              	.LVL77:
ARM GAS  /tmp/ccMJKeTi.s 			page 15


 799              		.loc 1 194 30 discriminator 7 view .LVU229
 800 00ae 3022     		movs	r2, #48
 801              		.loc 1 193 20 discriminator 7 view .LVU230
 802 00b0 A872     		strb	r0, [r5, #10]
 803              		.loc 1 194 3 is_stmt 1 discriminator 7 view .LVU231
 804              		.loc 1 194 30 is_stmt 0 discriminator 7 view .LVU232
 805 00b2 3321     		movs	r1, #51
 806 00b4 2046     		mov	r0, r4
 807 00b6 FFF7FEFF 		bl	_mmcsd_get_slice
 808              	.LVL78:
 809              		.loc 1 195 30 discriminator 7 view .LVU233
 810 00ba 1022     		movs	r2, #16
 811              		.loc 1 194 20 discriminator 7 view .LVU234
 812 00bc E872     		strb	r0, [r5, #11]
 813              		.loc 1 195 3 is_stmt 1 discriminator 7 view .LVU235
 814              		.loc 1 195 30 is_stmt 0 discriminator 7 view .LVU236
 815 00be 2F21     		movs	r1, #47
 816 00c0 2046     		mov	r0, r4
 817 00c2 FFF7FEFF 		bl	_mmcsd_get_slice
 818              	.LVL79:
 819              		.loc 1 196 1 discriminator 7 view .LVU237
 820 00c6 074B     		ldr	r3, .L53
 821              		.loc 1 195 18 discriminator 7 view .LVU238
 822 00c8 E860     		str	r0, [r5, #12]
 823              		.loc 1 196 1 discriminator 7 view .LVU239
 824 00ca 1A68     		ldr	r2, [r3]
 825 00cc 019B     		ldr	r3, [sp, #4]
 826 00ce 5A40     		eors	r2, r3, r2
 827 00d0 05D1     		bne	.L52
 828              		.loc 1 196 1 view .LVU240
 829 00d2 03B0     		add	sp, sp, #12
 830              		.cfi_remember_state
 831              		.cfi_def_cfa_offset 12
 832              		@ sp needed
 833 00d4 30BD     		pop	{r4, r5, pc}
 834              	.LVL80:
 835              	.L45:
 836              		.cfi_restore_state
 837              		.loc 1 178 3 is_stmt 1 discriminator 5 view .LVU241
 838 00d6 0448     		ldr	r0, .L53+4
 839              	.LVL81:
 840              		.loc 1 178 3 is_stmt 0 discriminator 5 view .LVU242
 841 00d8 FFF7FEFF 		bl	chSysHalt
 842              	.LVL82:
 843              		.loc 1 178 3 discriminator 5 view .LVU243
 844 00dc 9DE7     		b	.L46
 845              	.LVL83:
 846              	.L52:
 847              		.loc 1 196 1 view .LVU244
 848 00de FFF7FEFF 		bl	__stack_chk_fail
 849              	.LVL84:
 850              	.L54:
 851 00e2 00BF     		.align	2
 852              	.L53:
 853 00e4 00000000 		.word	.LC4
 854 00e8 00000000 		.word	.LANCHOR4
 855              		.cfi_endproc
ARM GAS  /tmp/ccMJKeTi.s 			page 16


 856              	.LFE260:
 857              		.size	_mmcsd_unpack_mmc_cid, .-_mmcsd_unpack_mmc_cid
 858              		.section	.rodata._mmcsd_unpack_csd_mmc.cst4,"aM",%progbits,4
 859              		.align	2
 860              	.LC5:
 861 0000 00000000 		.word	__stack_chk_guard
 862              		.section	.text._mmcsd_unpack_csd_mmc,"ax",%progbits
 863              		.align	1
 864              		.p2align 4,,15
 865              		.global	_mmcsd_unpack_csd_mmc
 866              		.syntax unified
 867              		.thumb
 868              		.thumb_func
 869              		.fpu fpv4-sp-d16
 870              		.type	_mmcsd_unpack_csd_mmc, %function
 871              	_mmcsd_unpack_csd_mmc:
 872              	.LVL85:
 873              	.LFB261:
 874              		.loc 1 207 56 is_stmt 1 view -0
 875              		.cfi_startproc
 876              		@ args = 0, pretend = 0, frame = 8
 877              		@ frame_needed = 0, uses_anonymous_args = 0
 878              		.loc 1 207 56 is_stmt 0 view .LVU246
 879 0000 30B5     		push	{r4, r5, lr}
 880              		.cfi_def_cfa_offset 12
 881              		.cfi_offset 4, -12
 882              		.cfi_offset 5, -8
 883              		.cfi_offset 14, -4
 884 0002 6D4B     		ldr	r3, .L64
 885 0004 83B0     		sub	sp, sp, #12
 886              		.cfi_def_cfa_offset 24
 887              		.loc 1 207 56 view .LVU247
 888 0006 0D46     		mov	r5, r1
 889 0008 1B68     		ldr	r3, [r3]
 890 000a 0193     		str	r3, [sp, #4]
 891 000c 4FF00003 		mov	r3,#0
 892              		.loc 1 208 3 is_stmt 1 view .LVU248
 893              		.loc 1 210 3 view .LVU249
 894              		.loc 1 210 3 view .LVU250
 895              		.loc 1 210 3 view .LVU251
 896 0010 0446     		mov	r4, r0
 897 0012 0028     		cmp	r0, #0
 898 0014 00F0CA80 		beq	.L56
 899              		.loc 1 210 3 is_stmt 0 discriminator 4 view .LVU252
 900 0018 0029     		cmp	r1, #0
 901 001a 00F0C780 		beq	.L56
 902              	.LVL86:
 903              	.L57:
 904              		.loc 1 210 3 is_stmt 1 discriminator 7 view .LVU253
 905              		.loc 1 212 3 discriminator 7 view .LVU254
 906              		.loc 1 212 7 is_stmt 0 discriminator 7 view .LVU255
 907 001e 1834     		adds	r4, r4, #24
 908              	.LVL87:
 909              		.loc 1 213 3 is_stmt 1 discriminator 7 view .LVU256
 910              		.loc 1 213 42 is_stmt 0 discriminator 7 view .LVU257
 911 0020 3E22     		movs	r2, #62
 912 0022 4921     		movs	r1, #73
ARM GAS  /tmp/ccMJKeTi.s 			page 17


 913 0024 2046     		mov	r0, r4
 914 0026 FFF7FEFF 		bl	_mmcsd_get_slice
 915              	.LVL88:
 916              		.loc 1 214 42 discriminator 7 view .LVU258
 917 002a 2F22     		movs	r2, #47
 918              		.loc 1 213 32 discriminator 7 view .LVU259
 919 002c E881     		strh	r0, [r5, #14]	@ movhi
 920              		.loc 1 214 3 is_stmt 1 discriminator 7 view .LVU260
 921              		.loc 1 214 42 is_stmt 0 discriminator 7 view .LVU261
 922 002e 3121     		movs	r1, #49
 923 0030 2046     		mov	r0, r4
 924 0032 FFF7FEFF 		bl	_mmcsd_get_slice
 925              	.LVL89:
 926              		.loc 1 215 42 discriminator 7 view .LVU262
 927 0036 5422     		movs	r2, #84
 928              		.loc 1 214 32 discriminator 7 view .LVU263
 929 0038 2875     		strb	r0, [r5, #20]
 930              		.loc 1 215 3 is_stmt 1 discriminator 7 view .LVU264
 931              		.loc 1 215 42 is_stmt 0 discriminator 7 view .LVU265
 932 003a 5F21     		movs	r1, #95
 933 003c 2046     		mov	r0, r4
 934 003e FFF7FEFF 		bl	_mmcsd_get_slice
 935              	.LVL90:
 936              		.loc 1 216 42 discriminator 7 view .LVU266
 937 0042 0E22     		movs	r2, #14
 938 0044 1146     		mov	r1, r2
 939              		.loc 1 215 32 discriminator 7 view .LVU267
 940 0046 E880     		strh	r0, [r5, #6]	@ movhi
 941              		.loc 1 216 3 is_stmt 1 discriminator 7 view .LVU268
 942              		.loc 1 216 42 is_stmt 0 discriminator 7 view .LVU269
 943 0048 2046     		mov	r0, r4
 944 004a FFF7FEFF 		bl	_mmcsd_get_slice
 945              	.LVL91:
 946              		.loc 1 217 42 discriminator 7 view .LVU270
 947 004e 0122     		movs	r2, #1
 948              		.loc 1 216 32 discriminator 7 view .LVU271
 949 0050 E877     		strb	r0, [r5, #31]
 950              		.loc 1 217 3 is_stmt 1 discriminator 7 view .LVU272
 951              		.loc 1 217 42 is_stmt 0 discriminator 7 view .LVU273
 952 0052 0721     		movs	r1, #7
 953 0054 2046     		mov	r0, r4
 954 0056 FFF7FEFF 		bl	_mmcsd_get_slice
 955              	.LVL92:
 956              		.loc 1 218 42 discriminator 7 view .LVU274
 957 005a 7E22     		movs	r2, #126
 958              		.loc 1 217 32 discriminator 7 view .LVU275
 959 005c 85F82400 		strb	r0, [r5, #36]
 960              		.loc 1 218 3 is_stmt 1 discriminator 7 view .LVU276
 961              		.loc 1 218 42 is_stmt 0 discriminator 7 view .LVU277
 962 0060 7F21     		movs	r1, #127
 963 0062 2046     		mov	r0, r4
 964 0064 FFF7FEFF 		bl	_mmcsd_get_slice
 965              	.LVL93:
 966              		.loc 1 219 42 discriminator 7 view .LVU278
 967 0068 4C22     		movs	r2, #76
 968 006a 1146     		mov	r1, r2
 969              		.loc 1 218 32 discriminator 7 view .LVU279
ARM GAS  /tmp/ccMJKeTi.s 			page 18


 970 006c 2870     		strb	r0, [r5]
 971              		.loc 1 219 3 is_stmt 1 discriminator 7 view .LVU280
 972              		.loc 1 219 42 is_stmt 0 discriminator 7 view .LVU281
 973 006e 2046     		mov	r0, r4
 974 0070 FFF7FEFF 		bl	_mmcsd_get_slice
 975              	.LVL94:
 976              		.loc 1 220 42 discriminator 7 view .LVU282
 977 0074 0822     		movs	r2, #8
 978              		.loc 1 219 32 discriminator 7 view .LVU283
 979 0076 2873     		strb	r0, [r5, #12]
 980              		.loc 1 220 3 is_stmt 1 discriminator 7 view .LVU284
 981              		.loc 1 220 42 is_stmt 0 discriminator 7 view .LVU285
 982 0078 0921     		movs	r1, #9
 983 007a 2046     		mov	r0, r4
 984 007c FFF7FEFF 		bl	_mmcsd_get_slice
 985              	.LVL95:
 986              		.loc 1 221 42 discriminator 7 view .LVU286
 987 0080 2522     		movs	r2, #37
 988              		.loc 1 220 32 discriminator 7 view .LVU287
 989 0082 85F82300 		strb	r0, [r5, #35]
 990              		.loc 1 221 3 is_stmt 1 discriminator 7 view .LVU288
 991              		.loc 1 221 42 is_stmt 0 discriminator 7 view .LVU289
 992 0086 2921     		movs	r1, #41
 993 0088 2046     		mov	r0, r4
 994 008a FFF7FEFF 		bl	_mmcsd_get_slice
 995              	.LVL96:
 996              		.loc 1 222 42 discriminator 7 view .LVU290
 997 008e 2A22     		movs	r2, #42
 998              		.loc 1 221 32 discriminator 7 view .LVU291
 999 0090 A875     		strb	r0, [r5, #22]
 1000              		.loc 1 222 3 is_stmt 1 discriminator 7 view .LVU292
 1001              		.loc 1 222 42 is_stmt 0 discriminator 7 view .LVU293
 1002 0092 2E21     		movs	r1, #46
 1003 0094 2046     		mov	r0, r4
 1004 0096 FFF7FEFF 		bl	_mmcsd_get_slice
 1005              	.LVL97:
 1006              		.loc 1 223 42 discriminator 7 view .LVU294
 1007 009a 0A22     		movs	r2, #10
 1008              		.loc 1 222 32 discriminator 7 view .LVU295
 1009 009c 6875     		strb	r0, [r5, #21]
 1010              		.loc 1 223 3 is_stmt 1 discriminator 7 view .LVU296
 1011              		.loc 1 223 42 is_stmt 0 discriminator 7 view .LVU297
 1012 009e 0B21     		movs	r1, #11
 1013 00a0 2046     		mov	r0, r4
 1014 00a2 FFF7FEFF 		bl	_mmcsd_get_slice
 1015              	.LVL98:
 1016              		.loc 1 224 42 discriminator 7 view .LVU298
 1017 00a6 0F22     		movs	r2, #15
 1018 00a8 1146     		mov	r1, r2
 1019              		.loc 1 223 32 discriminator 7 view .LVU299
 1020 00aa 85F82200 		strb	r0, [r5, #34]
 1021              		.loc 1 224 3 is_stmt 1 discriminator 7 view .LVU300
 1022              		.loc 1 224 42 is_stmt 0 discriminator 7 view .LVU301
 1023 00ae 2046     		mov	r0, r4
 1024 00b0 FFF7FEFF 		bl	_mmcsd_get_slice
 1025              	.LVL99:
 1026              		.loc 1 225 42 discriminator 7 view .LVU302
ARM GAS  /tmp/ccMJKeTi.s 			page 19


 1027 00b4 6822     		movs	r2, #104
 1028              		.loc 1 224 32 discriminator 7 view .LVU303
 1029 00b6 A877     		strb	r0, [r5, #30]
 1030              		.loc 1 225 3 is_stmt 1 discriminator 7 view .LVU304
 1031              		.loc 1 225 42 is_stmt 0 discriminator 7 view .LVU305
 1032 00b8 6F21     		movs	r1, #111
 1033 00ba 2046     		mov	r0, r4
 1034 00bc FFF7FEFF 		bl	_mmcsd_get_slice
 1035              	.LVL100:
 1036              		.loc 1 226 42 discriminator 7 view .LVU306
 1037 00c0 0D22     		movs	r2, #13
 1038 00c2 1146     		mov	r1, r2
 1039              		.loc 1 225 32 discriminator 7 view .LVU307
 1040 00c4 E870     		strb	r0, [r5, #3]
 1041              		.loc 1 226 3 is_stmt 1 discriminator 7 view .LVU308
 1042              		.loc 1 226 42 is_stmt 0 discriminator 7 view .LVU309
 1043 00c6 2046     		mov	r0, r4
 1044 00c8 FFF7FEFF 		bl	_mmcsd_get_slice
 1045              	.LVL101:
 1046              		.loc 1 227 42 discriminator 7 view .LVU310
 1047 00cc 1A22     		movs	r2, #26
 1048              		.loc 1 226 32 discriminator 7 view .LVU311
 1049 00ce 85F82000 		strb	r0, [r5, #32]
 1050              		.loc 1 227 3 is_stmt 1 discriminator 7 view .LVU312
 1051              		.loc 1 227 42 is_stmt 0 discriminator 7 view .LVU313
 1052 00d2 1C21     		movs	r1, #28
 1053 00d4 2046     		mov	r0, r4
 1054 00d6 FFF7FEFF 		bl	_mmcsd_get_slice
 1055              	.LVL102:
 1056              		.loc 1 228 42 discriminator 7 view .LVU314
 1057 00da 5022     		movs	r2, #80
 1058              		.loc 1 227 32 discriminator 7 view .LVU315
 1059 00dc A876     		strb	r0, [r5, #26]
 1060              		.loc 1 228 3 is_stmt 1 discriminator 7 view .LVU316
 1061              		.loc 1 228 42 is_stmt 0 discriminator 7 view .LVU317
 1062 00de 5321     		movs	r1, #83
 1063 00e0 2046     		mov	r0, r4
 1064 00e2 FFF7FEFF 		bl	_mmcsd_get_slice
 1065              	.LVL103:
 1066              		.loc 1 229 42 discriminator 7 view .LVU318
 1067 00e6 4F22     		movs	r2, #79
 1068 00e8 1146     		mov	r1, r2
 1069              		.loc 1 228 32 discriminator 7 view .LVU319
 1070 00ea 2872     		strb	r0, [r5, #8]
 1071              		.loc 1 229 3 is_stmt 1 discriminator 7 view .LVU320
 1072              		.loc 1 229 42 is_stmt 0 discriminator 7 view .LVU321
 1073 00ec 2046     		mov	r0, r4
 1074 00ee FFF7FEFF 		bl	_mmcsd_get_slice
 1075              	.LVL104:
 1076              		.loc 1 230 42 discriminator 7 view .LVU322
 1077 00f2 4D22     		movs	r2, #77
 1078 00f4 1146     		mov	r1, r2
 1079              		.loc 1 229 32 discriminator 7 view .LVU323
 1080 00f6 6872     		strb	r0, [r5, #9]
 1081              		.loc 1 230 3 is_stmt 1 discriminator 7 view .LVU324
 1082              		.loc 1 230 42 is_stmt 0 discriminator 7 view .LVU325
 1083 00f8 2046     		mov	r0, r4
ARM GAS  /tmp/ccMJKeTi.s 			page 20


 1084 00fa FFF7FEFF 		bl	_mmcsd_get_slice
 1085              	.LVL105:
 1086              		.loc 1 231 42 discriminator 7 view .LVU326
 1087 00fe 7A22     		movs	r2, #122
 1088              		.loc 1 230 32 discriminator 7 view .LVU327
 1089 0100 E872     		strb	r0, [r5, #11]
 1090              		.loc 1 231 3 is_stmt 1 discriminator 7 view .LVU328
 1091              		.loc 1 231 42 is_stmt 0 discriminator 7 view .LVU329
 1092 0102 7D21     		movs	r1, #125
 1093 0104 2046     		mov	r0, r4
 1094 0106 FFF7FEFF 		bl	_mmcsd_get_slice
 1095              	.LVL106:
 1096              		.loc 1 232 42 discriminator 7 view .LVU330
 1097 010a 7022     		movs	r2, #112
 1098              		.loc 1 231 32 discriminator 7 view .LVU331
 1099 010c 6870     		strb	r0, [r5, #1]
 1100              		.loc 1 232 3 is_stmt 1 discriminator 7 view .LVU332
 1101              		.loc 1 232 42 is_stmt 0 discriminator 7 view .LVU333
 1102 010e 7721     		movs	r1, #119
 1103 0110 2046     		mov	r0, r4
 1104 0112 FFF7FEFF 		bl	_mmcsd_get_slice
 1105              	.LVL107:
 1106              		.loc 1 233 42 discriminator 7 view .LVU334
 1107 0116 0C22     		movs	r2, #12
 1108 0118 1146     		mov	r1, r2
 1109              		.loc 1 232 32 discriminator 7 view .LVU335
 1110 011a A870     		strb	r0, [r5, #2]
 1111              		.loc 1 233 3 is_stmt 1 discriminator 7 view .LVU336
 1112              		.loc 1 233 42 is_stmt 0 discriminator 7 view .LVU337
 1113 011c 2046     		mov	r0, r4
 1114 011e FFF7FEFF 		bl	_mmcsd_get_slice
 1115              	.LVL108:
 1116              		.loc 1 234 42 discriminator 7 view .LVU338
 1117 0122 6022     		movs	r2, #96
 1118              		.loc 1 233 32 discriminator 7 view .LVU339
 1119 0124 85F82100 		strb	r0, [r5, #33]
 1120              		.loc 1 234 3 is_stmt 1 discriminator 7 view .LVU340
 1121              		.loc 1 234 42 is_stmt 0 discriminator 7 view .LVU341
 1122 0128 6721     		movs	r1, #103
 1123 012a 2046     		mov	r0, r4
 1124 012c FFF7FEFF 		bl	_mmcsd_get_slice
 1125              	.LVL109:
 1126              		.loc 1 235 42 discriminator 7 view .LVU342
 1127 0130 3822     		movs	r2, #56
 1128              		.loc 1 234 32 discriminator 7 view .LVU343
 1129 0132 2871     		strb	r0, [r5, #4]
 1130              		.loc 1 235 3 is_stmt 1 discriminator 7 view .LVU344
 1131              		.loc 1 235 42 is_stmt 0 discriminator 7 view .LVU345
 1132 0134 3A21     		movs	r1, #58
 1133 0136 2046     		mov	r0, r4
 1134 0138 FFF7FEFF 		bl	_mmcsd_get_slice
 1135              	.LVL110:
 1136              		.loc 1 236 42 discriminator 7 view .LVU346
 1137 013c 3B22     		movs	r2, #59
 1138              		.loc 1 235 32 discriminator 7 view .LVU347
 1139 013e 6874     		strb	r0, [r5, #17]
 1140              		.loc 1 236 3 is_stmt 1 discriminator 7 view .LVU348
ARM GAS  /tmp/ccMJKeTi.s 			page 21


 1141              		.loc 1 236 42 is_stmt 0 discriminator 7 view .LVU349
 1142 0140 3D21     		movs	r1, #61
 1143 0142 2046     		mov	r0, r4
 1144 0144 FFF7FEFF 		bl	_mmcsd_get_slice
 1145              	.LVL111:
 1146              		.loc 1 237 42 discriminator 7 view .LVU350
 1147 0148 3222     		movs	r2, #50
 1148              		.loc 1 236 32 discriminator 7 view .LVU351
 1149 014a 2874     		strb	r0, [r5, #16]
 1150              		.loc 1 237 3 is_stmt 1 discriminator 7 view .LVU352
 1151              		.loc 1 237 42 is_stmt 0 discriminator 7 view .LVU353
 1152 014c 3421     		movs	r1, #52
 1153 014e 2046     		mov	r0, r4
 1154 0150 FFF7FEFF 		bl	_mmcsd_get_slice
 1155              	.LVL112:
 1156              		.loc 1 238 42 discriminator 7 view .LVU354
 1157 0154 3522     		movs	r2, #53
 1158              		.loc 1 237 32 discriminator 7 view .LVU355
 1159 0156 E874     		strb	r0, [r5, #19]
 1160              		.loc 1 238 3 is_stmt 1 discriminator 7 view .LVU356
 1161              		.loc 1 238 42 is_stmt 0 discriminator 7 view .LVU357
 1162 0158 3721     		movs	r1, #55
 1163 015a 2046     		mov	r0, r4
 1164 015c FFF7FEFF 		bl	_mmcsd_get_slice
 1165              	.LVL113:
 1166              		.loc 1 239 42 discriminator 7 view .LVU358
 1167 0160 1F22     		movs	r2, #31
 1168 0162 1146     		mov	r1, r2
 1169              		.loc 1 238 32 discriminator 7 view .LVU359
 1170 0164 A874     		strb	r0, [r5, #18]
 1171              		.loc 1 239 3 is_stmt 1 discriminator 7 view .LVU360
 1172              		.loc 1 239 42 is_stmt 0 discriminator 7 view .LVU361
 1173 0166 2046     		mov	r0, r4
 1174 0168 FFF7FEFF 		bl	_mmcsd_get_slice
 1175              	.LVL114:
 1176              		.loc 1 240 42 discriminator 7 view .LVU362
 1177 016c 2022     		movs	r2, #32
 1178              		.loc 1 239 32 discriminator 7 view .LVU363
 1179 016e 2876     		strb	r0, [r5, #24]
 1180              		.loc 1 240 3 is_stmt 1 discriminator 7 view .LVU364
 1181              		.loc 1 240 42 is_stmt 0 discriminator 7 view .LVU365
 1182 0170 2421     		movs	r1, #36
 1183 0172 2046     		mov	r0, r4
 1184 0174 FFF7FEFF 		bl	_mmcsd_get_slice
 1185              	.LVL115:
 1186              		.loc 1 241 42 discriminator 7 view .LVU366
 1187 0178 1622     		movs	r2, #22
 1188              		.loc 1 240 32 discriminator 7 view .LVU367
 1189 017a E875     		strb	r0, [r5, #23]
 1190              		.loc 1 241 3 is_stmt 1 discriminator 7 view .LVU368
 1191              		.loc 1 241 42 is_stmt 0 discriminator 7 view .LVU369
 1192 017c 1921     		movs	r1, #25
 1193 017e 2046     		mov	r0, r4
 1194 0180 FFF7FEFF 		bl	_mmcsd_get_slice
 1195              	.LVL116:
 1196              		.loc 1 242 42 discriminator 7 view .LVU370
 1197 0184 1522     		movs	r2, #21
ARM GAS  /tmp/ccMJKeTi.s 			page 22


 1198 0186 1146     		mov	r1, r2
 1199              		.loc 1 241 32 discriminator 7 view .LVU371
 1200 0188 E876     		strb	r0, [r5, #27]
 1201              		.loc 1 242 3 is_stmt 1 discriminator 7 view .LVU372
 1202              		.loc 1 242 42 is_stmt 0 discriminator 7 view .LVU373
 1203 018a 2046     		mov	r0, r4
 1204 018c FFF7FEFF 		bl	_mmcsd_get_slice
 1205              	.LVL117:
 1206              		.loc 1 243 42 discriminator 7 view .LVU374
 1207 0190 4E22     		movs	r2, #78
 1208              		.loc 1 242 32 discriminator 7 view .LVU375
 1209 0192 2877     		strb	r0, [r5, #28]
 1210              		.loc 1 243 3 is_stmt 1 discriminator 7 view .LVU376
 1211              		.loc 1 243 42 is_stmt 0 discriminator 7 view .LVU377
 1212 0194 1146     		mov	r1, r2
 1213 0196 2046     		mov	r0, r4
 1214 0198 FFF7FEFF 		bl	_mmcsd_get_slice
 1215              	.LVL118:
 1216              		.loc 1 244 1 discriminator 7 view .LVU378
 1217 019c 064B     		ldr	r3, .L64
 1218              		.loc 1 243 32 discriminator 7 view .LVU379
 1219 019e A872     		strb	r0, [r5, #10]
 1220              		.loc 1 244 1 discriminator 7 view .LVU380
 1221 01a0 1A68     		ldr	r2, [r3]
 1222 01a2 019B     		ldr	r3, [sp, #4]
 1223 01a4 5A40     		eors	r2, r3, r2
 1224 01a6 05D1     		bne	.L63
 1225              		.loc 1 244 1 view .LVU381
 1226 01a8 03B0     		add	sp, sp, #12
 1227              		.cfi_remember_state
 1228              		.cfi_def_cfa_offset 12
 1229              		@ sp needed
 1230 01aa 30BD     		pop	{r4, r5, pc}
 1231              	.LVL119:
 1232              	.L56:
 1233              		.cfi_restore_state
 1234              		.loc 1 210 3 is_stmt 1 discriminator 5 view .LVU382
 1235 01ac 0348     		ldr	r0, .L64+4
 1236              	.LVL120:
 1237              		.loc 1 210 3 is_stmt 0 discriminator 5 view .LVU383
 1238 01ae FFF7FEFF 		bl	chSysHalt
 1239              	.LVL121:
 1240              		.loc 1 210 3 discriminator 5 view .LVU384
 1241 01b2 34E7     		b	.L57
 1242              	.LVL122:
 1243              	.L63:
 1244              		.loc 1 244 1 view .LVU385
 1245 01b4 FFF7FEFF 		bl	__stack_chk_fail
 1246              	.LVL123:
 1247              	.L65:
 1248              		.align	2
 1249              	.L64:
 1250 01b8 00000000 		.word	.LC5
 1251 01bc 00000000 		.word	.LANCHOR5
 1252              		.cfi_endproc
 1253              	.LFE261:
 1254              		.size	_mmcsd_unpack_csd_mmc, .-_mmcsd_unpack_csd_mmc
ARM GAS  /tmp/ccMJKeTi.s 			page 23


 1255              		.section	.rodata._mmcsd_unpack_csd_v10.cst4,"aM",%progbits,4
 1256              		.align	2
 1257              	.LC6:
 1258 0000 00000000 		.word	__stack_chk_guard
 1259              		.section	.text._mmcsd_unpack_csd_v10,"ax",%progbits
 1260              		.align	1
 1261              		.p2align 4,,15
 1262              		.global	_mmcsd_unpack_csd_v10
 1263              		.syntax unified
 1264              		.thumb
 1265              		.thumb_func
 1266              		.fpu fpv4-sp-d16
 1267              		.type	_mmcsd_unpack_csd_v10, %function
 1268              	_mmcsd_unpack_csd_v10:
 1269              	.LVL124:
 1270              	.LFB262:
 1271              		.loc 1 255 58 is_stmt 1 view -0
 1272              		.cfi_startproc
 1273              		@ args = 0, pretend = 0, frame = 8
 1274              		@ frame_needed = 0, uses_anonymous_args = 0
 1275              		.loc 1 255 58 is_stmt 0 view .LVU387
 1276 0000 30B5     		push	{r4, r5, lr}
 1277              		.cfi_def_cfa_offset 12
 1278              		.cfi_offset 4, -12
 1279              		.cfi_offset 5, -8
 1280              		.cfi_offset 14, -4
 1281 0002 574B     		ldr	r3, .L72
 1282 0004 83B0     		sub	sp, sp, #12
 1283              		.cfi_def_cfa_offset 24
 1284              		.loc 1 255 58 view .LVU388
 1285 0006 0D46     		mov	r5, r1
 1286 0008 1B68     		ldr	r3, [r3]
 1287 000a 0193     		str	r3, [sp, #4]
 1288 000c 4FF00003 		mov	r3,#0
 1289              		.loc 1 256 3 is_stmt 1 view .LVU389
 1290              		.loc 1 258 3 view .LVU390
 1291              		.loc 1 258 3 view .LVU391
 1292              		.loc 1 258 3 view .LVU392
 1293 0010 0446     		mov	r4, r0
 1294 0012 0028     		cmp	r0, #0
 1295 0014 00F09E80 		beq	.L70
 1296              	.LVL125:
 1297              	.L67:
 1298              		.loc 1 258 3 discriminator 5 view .LVU393
 1299              		.loc 1 260 3 discriminator 5 view .LVU394
 1300              		.loc 1 260 7 is_stmt 0 discriminator 5 view .LVU395
 1301 0018 1834     		adds	r4, r4, #24
 1302              	.LVL126:
 1303              		.loc 1 261 3 is_stmt 1 discriminator 5 view .LVU396
 1304              		.loc 1 261 42 is_stmt 0 discriminator 5 view .LVU397
 1305 001a 3E22     		movs	r2, #62
 1306 001c 4921     		movs	r1, #73
 1307 001e 2046     		mov	r0, r4
 1308 0020 FFF7FEFF 		bl	_mmcsd_get_slice
 1309              	.LVL127:
 1310              		.loc 1 262 42 discriminator 5 view .LVU398
 1311 0024 2F22     		movs	r2, #47
ARM GAS  /tmp/ccMJKeTi.s 			page 24


 1312              		.loc 1 261 32 discriminator 5 view .LVU399
 1313 0026 A881     		strh	r0, [r5, #12]	@ movhi
 1314              		.loc 1 262 3 is_stmt 1 discriminator 5 view .LVU400
 1315              		.loc 1 262 42 is_stmt 0 discriminator 5 view .LVU401
 1316 0028 3121     		movs	r1, #49
 1317 002a 2046     		mov	r0, r4
 1318 002c FFF7FEFF 		bl	_mmcsd_get_slice
 1319              	.LVL128:
 1320              		.loc 1 263 42 discriminator 5 view .LVU402
 1321 0030 5422     		movs	r2, #84
 1322              		.loc 1 262 32 discriminator 5 view .LVU403
 1323 0032 A874     		strb	r0, [r5, #18]
 1324              		.loc 1 263 3 is_stmt 1 discriminator 5 view .LVU404
 1325              		.loc 1 263 42 is_stmt 0 discriminator 5 view .LVU405
 1326 0034 5F21     		movs	r1, #95
 1327 0036 2046     		mov	r0, r4
 1328 0038 FFF7FEFF 		bl	_mmcsd_get_slice
 1329              	.LVL129:
 1330              		.loc 1 264 42 discriminator 5 view .LVU406
 1331 003c 0E22     		movs	r2, #14
 1332 003e 1146     		mov	r1, r2
 1333              		.loc 1 263 32 discriminator 5 view .LVU407
 1334 0040 A880     		strh	r0, [r5, #4]	@ movhi
 1335              		.loc 1 264 3 is_stmt 1 discriminator 5 view .LVU408
 1336              		.loc 1 264 42 is_stmt 0 discriminator 5 view .LVU409
 1337 0042 2046     		mov	r0, r4
 1338 0044 FFF7FEFF 		bl	_mmcsd_get_slice
 1339              	.LVL130:
 1340              		.loc 1 265 42 discriminator 5 view .LVU410
 1341 0048 0122     		movs	r2, #1
 1342              		.loc 1 264 32 discriminator 5 view .LVU411
 1343 004a E876     		strb	r0, [r5, #27]
 1344              		.loc 1 265 3 is_stmt 1 discriminator 5 view .LVU412
 1345              		.loc 1 265 42 is_stmt 0 discriminator 5 view .LVU413
 1346 004c 0721     		movs	r1, #7
 1347 004e 2046     		mov	r0, r4
 1348 0050 FFF7FEFF 		bl	_mmcsd_get_slice
 1349              	.LVL131:
 1350              		.loc 1 266 42 discriminator 5 view .LVU414
 1351 0054 7E22     		movs	r2, #126
 1352              		.loc 1 265 32 discriminator 5 view .LVU415
 1353 0056 E877     		strb	r0, [r5, #31]
 1354              		.loc 1 266 3 is_stmt 1 discriminator 5 view .LVU416
 1355              		.loc 1 266 42 is_stmt 0 discriminator 5 view .LVU417
 1356 0058 7F21     		movs	r1, #127
 1357 005a 2046     		mov	r0, r4
 1358 005c FFF7FEFF 		bl	_mmcsd_get_slice
 1359              	.LVL132:
 1360              		.loc 1 267 42 discriminator 5 view .LVU418
 1361 0060 4C22     		movs	r2, #76
 1362 0062 1146     		mov	r1, r2
 1363              		.loc 1 266 32 discriminator 5 view .LVU419
 1364 0064 2870     		strb	r0, [r5]
 1365              		.loc 1 267 3 is_stmt 1 discriminator 5 view .LVU420
 1366              		.loc 1 267 42 is_stmt 0 discriminator 5 view .LVU421
 1367 0066 2046     		mov	r0, r4
 1368 0068 FFF7FEFF 		bl	_mmcsd_get_slice
ARM GAS  /tmp/ccMJKeTi.s 			page 25


 1369              	.LVL133:
 1370              		.loc 1 268 42 discriminator 5 view .LVU422
 1371 006c 2E22     		movs	r2, #46
 1372 006e 1146     		mov	r1, r2
 1373              		.loc 1 267 32 discriminator 5 view .LVU423
 1374 0070 A872     		strb	r0, [r5, #10]
 1375              		.loc 1 268 3 is_stmt 1 discriminator 5 view .LVU424
 1376              		.loc 1 268 42 is_stmt 0 discriminator 5 view .LVU425
 1377 0072 2046     		mov	r0, r4
 1378 0074 FFF7FEFF 		bl	_mmcsd_get_slice
 1379              	.LVL134:
 1380              		.loc 1 269 42 discriminator 5 view .LVU426
 1381 0078 2722     		movs	r2, #39
 1382              		.loc 1 268 32 discriminator 5 view .LVU427
 1383 007a E874     		strb	r0, [r5, #19]
 1384              		.loc 1 269 3 is_stmt 1 discriminator 5 view .LVU428
 1385              		.loc 1 269 42 is_stmt 0 discriminator 5 view .LVU429
 1386 007c 2D21     		movs	r1, #45
 1387 007e 2046     		mov	r0, r4
 1388 0080 FFF7FEFF 		bl	_mmcsd_get_slice
 1389              	.LVL135:
 1390              		.loc 1 270 42 discriminator 5 view .LVU430
 1391 0084 0A22     		movs	r2, #10
 1392              		.loc 1 269 32 discriminator 5 view .LVU431
 1393 0086 2875     		strb	r0, [r5, #20]
 1394              		.loc 1 270 3 is_stmt 1 discriminator 5 view .LVU432
 1395              		.loc 1 270 42 is_stmt 0 discriminator 5 view .LVU433
 1396 0088 0B21     		movs	r1, #11
 1397 008a 2046     		mov	r0, r4
 1398 008c FFF7FEFF 		bl	_mmcsd_get_slice
 1399              	.LVL136:
 1400              		.loc 1 271 42 discriminator 5 view .LVU434
 1401 0090 0F22     		movs	r2, #15
 1402 0092 1146     		mov	r1, r2
 1403              		.loc 1 270 32 discriminator 5 view .LVU435
 1404 0094 A877     		strb	r0, [r5, #30]
 1405              		.loc 1 271 3 is_stmt 1 discriminator 5 view .LVU436
 1406              		.loc 1 271 42 is_stmt 0 discriminator 5 view .LVU437
 1407 0096 2046     		mov	r0, r4
 1408 0098 FFF7FEFF 		bl	_mmcsd_get_slice
 1409              	.LVL137:
 1410              		.loc 1 272 42 discriminator 5 view .LVU438
 1411 009c 6822     		movs	r2, #104
 1412              		.loc 1 271 32 discriminator 5 view .LVU439
 1413 009e A876     		strb	r0, [r5, #26]
 1414              		.loc 1 272 3 is_stmt 1 discriminator 5 view .LVU440
 1415              		.loc 1 272 42 is_stmt 0 discriminator 5 view .LVU441
 1416 00a0 6F21     		movs	r1, #111
 1417 00a2 2046     		mov	r0, r4
 1418 00a4 FFF7FEFF 		bl	_mmcsd_get_slice
 1419              	.LVL138:
 1420              		.loc 1 273 42 discriminator 5 view .LVU442
 1421 00a8 0D22     		movs	r2, #13
 1422 00aa 1146     		mov	r1, r2
 1423              		.loc 1 272 32 discriminator 5 view .LVU443
 1424 00ac A870     		strb	r0, [r5, #2]
 1425              		.loc 1 273 3 is_stmt 1 discriminator 5 view .LVU444
ARM GAS  /tmp/ccMJKeTi.s 			page 26


 1426              		.loc 1 273 42 is_stmt 0 discriminator 5 view .LVU445
 1427 00ae 2046     		mov	r0, r4
 1428 00b0 FFF7FEFF 		bl	_mmcsd_get_slice
 1429              	.LVL139:
 1430              		.loc 1 274 42 discriminator 5 view .LVU446
 1431 00b4 1A22     		movs	r2, #26
 1432              		.loc 1 273 32 discriminator 5 view .LVU447
 1433 00b6 2877     		strb	r0, [r5, #28]
 1434              		.loc 1 274 3 is_stmt 1 discriminator 5 view .LVU448
 1435              		.loc 1 274 42 is_stmt 0 discriminator 5 view .LVU449
 1436 00b8 1C21     		movs	r1, #28
 1437 00ba 2046     		mov	r0, r4
 1438 00bc FFF7FEFF 		bl	_mmcsd_get_slice
 1439              	.LVL140:
 1440              		.loc 1 275 42 discriminator 5 view .LVU450
 1441 00c0 5022     		movs	r2, #80
 1442              		.loc 1 274 32 discriminator 5 view .LVU451
 1443 00c2 E875     		strb	r0, [r5, #23]
 1444              		.loc 1 275 3 is_stmt 1 discriminator 5 view .LVU452
 1445              		.loc 1 275 42 is_stmt 0 discriminator 5 view .LVU453
 1446 00c4 5321     		movs	r1, #83
 1447 00c6 2046     		mov	r0, r4
 1448 00c8 FFF7FEFF 		bl	_mmcsd_get_slice
 1449              	.LVL141:
 1450              		.loc 1 276 42 discriminator 5 view .LVU454
 1451 00cc 4F22     		movs	r2, #79
 1452 00ce 1146     		mov	r1, r2
 1453              		.loc 1 275 32 discriminator 5 view .LVU455
 1454 00d0 A871     		strb	r0, [r5, #6]
 1455              		.loc 1 276 3 is_stmt 1 discriminator 5 view .LVU456
 1456              		.loc 1 276 42 is_stmt 0 discriminator 5 view .LVU457
 1457 00d2 2046     		mov	r0, r4
 1458 00d4 FFF7FEFF 		bl	_mmcsd_get_slice
 1459              	.LVL142:
 1460              		.loc 1 277 42 discriminator 5 view .LVU458
 1461 00d8 4D22     		movs	r2, #77
 1462 00da 1146     		mov	r1, r2
 1463              		.loc 1 276 32 discriminator 5 view .LVU459
 1464 00dc E871     		strb	r0, [r5, #7]
 1465              		.loc 1 277 3 is_stmt 1 discriminator 5 view .LVU460
 1466              		.loc 1 277 42 is_stmt 0 discriminator 5 view .LVU461
 1467 00de 2046     		mov	r0, r4
 1468 00e0 FFF7FEFF 		bl	_mmcsd_get_slice
 1469              	.LVL143:
 1470              		.loc 1 278 42 discriminator 5 view .LVU462
 1471 00e4 7022     		movs	r2, #112
 1472              		.loc 1 277 32 discriminator 5 view .LVU463
 1473 00e6 6872     		strb	r0, [r5, #9]
 1474              		.loc 1 278 3 is_stmt 1 discriminator 5 view .LVU464
 1475              		.loc 1 278 42 is_stmt 0 discriminator 5 view .LVU465
 1476 00e8 7721     		movs	r1, #119
 1477 00ea 2046     		mov	r0, r4
 1478 00ec FFF7FEFF 		bl	_mmcsd_get_slice
 1479              	.LVL144:
 1480              		.loc 1 279 42 discriminator 5 view .LVU466
 1481 00f0 0C22     		movs	r2, #12
 1482 00f2 1146     		mov	r1, r2
ARM GAS  /tmp/ccMJKeTi.s 			page 27


 1483              		.loc 1 278 32 discriminator 5 view .LVU467
 1484 00f4 6870     		strb	r0, [r5, #1]
 1485              		.loc 1 279 3 is_stmt 1 discriminator 5 view .LVU468
 1486              		.loc 1 279 42 is_stmt 0 discriminator 5 view .LVU469
 1487 00f6 2046     		mov	r0, r4
 1488 00f8 FFF7FEFF 		bl	_mmcsd_get_slice
 1489              	.LVL145:
 1490              		.loc 1 280 42 discriminator 5 view .LVU470
 1491 00fc 6022     		movs	r2, #96
 1492              		.loc 1 279 32 discriminator 5 view .LVU471
 1493 00fe 6877     		strb	r0, [r5, #29]
 1494              		.loc 1 280 3 is_stmt 1 discriminator 5 view .LVU472
 1495              		.loc 1 280 42 is_stmt 0 discriminator 5 view .LVU473
 1496 0100 6721     		movs	r1, #103
 1497 0102 2046     		mov	r0, r4
 1498 0104 FFF7FEFF 		bl	_mmcsd_get_slice
 1499              	.LVL146:
 1500              		.loc 1 281 42 discriminator 5 view .LVU474
 1501 0108 1F22     		movs	r2, #31
 1502 010a 1146     		mov	r1, r2
 1503              		.loc 1 280 32 discriminator 5 view .LVU475
 1504 010c E870     		strb	r0, [r5, #3]
 1505              		.loc 1 281 3 is_stmt 1 discriminator 5 view .LVU476
 1506              		.loc 1 281 42 is_stmt 0 discriminator 5 view .LVU477
 1507 010e 2046     		mov	r0, r4
 1508 0110 FFF7FEFF 		bl	_mmcsd_get_slice
 1509              	.LVL147:
 1510              		.loc 1 282 42 discriminator 5 view .LVU478
 1511 0114 2022     		movs	r2, #32
 1512              		.loc 1 281 32 discriminator 5 view .LVU479
 1513 0116 A875     		strb	r0, [r5, #22]
 1514              		.loc 1 282 3 is_stmt 1 discriminator 5 view .LVU480
 1515              		.loc 1 282 42 is_stmt 0 discriminator 5 view .LVU481
 1516 0118 2621     		movs	r1, #38
 1517 011a 2046     		mov	r0, r4
 1518 011c FFF7FEFF 		bl	_mmcsd_get_slice
 1519              	.LVL148:
 1520              		.loc 1 283 42 discriminator 5 view .LVU482
 1521 0120 0C22     		movs	r2, #12
 1522              		.loc 1 282 32 discriminator 5 view .LVU483
 1523 0122 6875     		strb	r0, [r5, #21]
 1524              		.loc 1 283 3 is_stmt 1 discriminator 5 view .LVU484
 1525              		.loc 1 283 42 is_stmt 0 discriminator 5 view .LVU485
 1526 0124 1921     		movs	r1, #25
 1527 0126 2046     		mov	r0, r4
 1528 0128 FFF7FEFF 		bl	_mmcsd_get_slice
 1529              	.LVL149:
 1530              		.loc 1 284 42 discriminator 5 view .LVU486
 1531 012c 1522     		movs	r2, #21
 1532 012e 1146     		mov	r1, r2
 1533              		.loc 1 283 32 discriminator 5 view .LVU487
 1534 0130 2876     		strb	r0, [r5, #24]
 1535              		.loc 1 284 3 is_stmt 1 discriminator 5 view .LVU488
 1536              		.loc 1 284 42 is_stmt 0 discriminator 5 view .LVU489
 1537 0132 2046     		mov	r0, r4
 1538 0134 FFF7FEFF 		bl	_mmcsd_get_slice
 1539              	.LVL150:
ARM GAS  /tmp/ccMJKeTi.s 			page 28


 1540              		.loc 1 285 42 discriminator 5 view .LVU490
 1541 0138 4E22     		movs	r2, #78
 1542              		.loc 1 284 32 discriminator 5 view .LVU491
 1543 013a 6876     		strb	r0, [r5, #25]
 1544              		.loc 1 285 3 is_stmt 1 discriminator 5 view .LVU492
 1545              		.loc 1 285 42 is_stmt 0 discriminator 5 view .LVU493
 1546 013c 1146     		mov	r1, r2
 1547 013e 2046     		mov	r0, r4
 1548 0140 FFF7FEFF 		bl	_mmcsd_get_slice
 1549              	.LVL151:
 1550              		.loc 1 286 1 discriminator 5 view .LVU494
 1551 0144 064B     		ldr	r3, .L72
 1552              		.loc 1 285 32 discriminator 5 view .LVU495
 1553 0146 2872     		strb	r0, [r5, #8]
 1554              		.loc 1 286 1 discriminator 5 view .LVU496
 1555 0148 1A68     		ldr	r2, [r3]
 1556 014a 019B     		ldr	r3, [sp, #4]
 1557 014c 5A40     		eors	r2, r3, r2
 1558 014e 05D1     		bne	.L71
 1559              		.loc 1 286 1 view .LVU497
 1560 0150 03B0     		add	sp, sp, #12
 1561              		.cfi_remember_state
 1562              		.cfi_def_cfa_offset 12
 1563              		@ sp needed
 1564 0152 30BD     		pop	{r4, r5, pc}
 1565              	.LVL152:
 1566              	.L70:
 1567              		.cfi_restore_state
 1568              		.loc 1 258 3 is_stmt 1 discriminator 3 view .LVU498
 1569 0154 0348     		ldr	r0, .L72+4
 1570              	.LVL153:
 1571              		.loc 1 258 3 is_stmt 0 discriminator 3 view .LVU499
 1572 0156 FFF7FEFF 		bl	chSysHalt
 1573              	.LVL154:
 1574              		.loc 1 258 3 discriminator 3 view .LVU500
 1575 015a 5DE7     		b	.L67
 1576              	.LVL155:
 1577              	.L71:
 1578              		.loc 1 286 1 view .LVU501
 1579 015c FFF7FEFF 		bl	__stack_chk_fail
 1580              	.LVL156:
 1581              	.L73:
 1582              		.align	2
 1583              	.L72:
 1584 0160 00000000 		.word	.LC6
 1585 0164 00000000 		.word	.LANCHOR6
 1586              		.cfi_endproc
 1587              	.LFE262:
 1588              		.size	_mmcsd_unpack_csd_v10, .-_mmcsd_unpack_csd_v10
 1589              		.section	.rodata._mmcsd_unpack_csd_v20.cst4,"aM",%progbits,4
 1590              		.align	2
 1591              	.LC7:
 1592 0000 00000000 		.word	__stack_chk_guard
 1593              		.section	.text._mmcsd_unpack_csd_v20,"ax",%progbits
 1594              		.align	1
 1595              		.p2align 4,,15
 1596              		.global	_mmcsd_unpack_csd_v20
ARM GAS  /tmp/ccMJKeTi.s 			page 29


 1597              		.syntax unified
 1598              		.thumb
 1599              		.thumb_func
 1600              		.fpu fpv4-sp-d16
 1601              		.type	_mmcsd_unpack_csd_v20, %function
 1602              	_mmcsd_unpack_csd_v20:
 1603              	.LVL157:
 1604              	.LFB263:
 1605              		.loc 1 297 58 is_stmt 1 view -0
 1606              		.cfi_startproc
 1607              		@ args = 0, pretend = 0, frame = 8
 1608              		@ frame_needed = 0, uses_anonymous_args = 0
 1609              		.loc 1 297 58 is_stmt 0 view .LVU503
 1610 0000 30B5     		push	{r4, r5, lr}
 1611              		.cfi_def_cfa_offset 12
 1612              		.cfi_offset 4, -12
 1613              		.cfi_offset 5, -8
 1614              		.cfi_offset 14, -4
 1615 0002 544B     		ldr	r3, .L80
 1616 0004 83B0     		sub	sp, sp, #12
 1617              		.cfi_def_cfa_offset 24
 1618              		.loc 1 297 58 view .LVU504
 1619 0006 0D46     		mov	r5, r1
 1620 0008 1B68     		ldr	r3, [r3]
 1621 000a 0193     		str	r3, [sp, #4]
 1622 000c 4FF00003 		mov	r3,#0
 1623              		.loc 1 298 3 is_stmt 1 view .LVU505
 1624              		.loc 1 300 3 view .LVU506
 1625              		.loc 1 300 3 view .LVU507
 1626              		.loc 1 300 3 view .LVU508
 1627 0010 0446     		mov	r4, r0
 1628 0012 0028     		cmp	r0, #0
 1629 0014 00F09880 		beq	.L78
 1630              	.LVL158:
 1631              	.L75:
 1632              		.loc 1 300 3 discriminator 5 view .LVU509
 1633              		.loc 1 302 3 discriminator 5 view .LVU510
 1634              		.loc 1 302 7 is_stmt 0 discriminator 5 view .LVU511
 1635 0018 1834     		adds	r4, r4, #24
 1636              	.LVL159:
 1637              		.loc 1 303 3 is_stmt 1 discriminator 5 view .LVU512
 1638              		.loc 1 303 42 is_stmt 0 discriminator 5 view .LVU513
 1639 001a 3022     		movs	r2, #48
 1640 001c 4521     		movs	r1, #69
 1641 001e 2046     		mov	r0, r4
 1642 0020 FFF7FEFF 		bl	_mmcsd_get_slice
 1643              	.LVL160:
 1644              		.loc 1 304 42 discriminator 5 view .LVU514
 1645 0024 0122     		movs	r2, #1
 1646              		.loc 1 303 30 discriminator 5 view .LVU515
 1647 0026 E860     		str	r0, [r5, #12]
 1648              		.loc 1 304 3 is_stmt 1 discriminator 5 view .LVU516
 1649              		.loc 1 304 42 is_stmt 0 discriminator 5 view .LVU517
 1650 0028 0721     		movs	r1, #7
 1651 002a 2046     		mov	r0, r4
 1652 002c FFF7FEFF 		bl	_mmcsd_get_slice
 1653              	.LVL161:
ARM GAS  /tmp/ccMJKeTi.s 			page 30


 1654              		.loc 1 305 42 discriminator 5 view .LVU518
 1655 0030 5422     		movs	r2, #84
 1656              		.loc 1 304 32 discriminator 5 view .LVU519
 1657 0032 2877     		strb	r0, [r5, #28]
 1658              		.loc 1 305 3 is_stmt 1 discriminator 5 view .LVU520
 1659              		.loc 1 305 42 is_stmt 0 discriminator 5 view .LVU521
 1660 0034 5F21     		movs	r1, #95
 1661 0036 2046     		mov	r0, r4
 1662 0038 FFF7FEFF 		bl	_mmcsd_get_slice
 1663              	.LVL162:
 1664              		.loc 1 306 42 discriminator 5 view .LVU522
 1665 003c 0E22     		movs	r2, #14
 1666 003e 1146     		mov	r1, r2
 1667              		.loc 1 305 32 discriminator 5 view .LVU523
 1668 0040 A880     		strh	r0, [r5, #4]	@ movhi
 1669              		.loc 1 306 3 is_stmt 1 discriminator 5 view .LVU524
 1670              		.loc 1 306 42 is_stmt 0 discriminator 5 view .LVU525
 1671 0042 2046     		mov	r0, r4
 1672 0044 FFF7FEFF 		bl	_mmcsd_get_slice
 1673              	.LVL163:
 1674              		.loc 1 307 42 discriminator 5 view .LVU526
 1675 0048 7E22     		movs	r2, #126
 1676              		.loc 1 306 32 discriminator 5 view .LVU527
 1677 004a 2876     		strb	r0, [r5, #24]
 1678              		.loc 1 307 3 is_stmt 1 discriminator 5 view .LVU528
 1679              		.loc 1 307 42 is_stmt 0 discriminator 5 view .LVU529
 1680 004c 7F21     		movs	r1, #127
 1681 004e 2046     		mov	r0, r4
 1682 0050 FFF7FEFF 		bl	_mmcsd_get_slice
 1683              	.LVL164:
 1684              		.loc 1 308 42 discriminator 5 view .LVU530
 1685 0054 4C22     		movs	r2, #76
 1686 0056 1146     		mov	r1, r2
 1687              		.loc 1 307 32 discriminator 5 view .LVU531
 1688 0058 2870     		strb	r0, [r5]
 1689              		.loc 1 308 3 is_stmt 1 discriminator 5 view .LVU532
 1690              		.loc 1 308 42 is_stmt 0 discriminator 5 view .LVU533
 1691 005a 2046     		mov	r0, r4
 1692 005c FFF7FEFF 		bl	_mmcsd_get_slice
 1693              	.LVL165:
 1694              		.loc 1 309 42 discriminator 5 view .LVU534
 1695 0060 2E22     		movs	r2, #46
 1696 0062 1146     		mov	r1, r2
 1697              		.loc 1 308 32 discriminator 5 view .LVU535
 1698 0064 A872     		strb	r0, [r5, #10]
 1699              		.loc 1 309 3 is_stmt 1 discriminator 5 view .LVU536
 1700              		.loc 1 309 42 is_stmt 0 discriminator 5 view .LVU537
 1701 0066 2046     		mov	r0, r4
 1702 0068 FFF7FEFF 		bl	_mmcsd_get_slice
 1703              	.LVL166:
 1704              		.loc 1 310 42 discriminator 5 view .LVU538
 1705 006c 0A22     		movs	r2, #10
 1706              		.loc 1 309 32 discriminator 5 view .LVU539
 1707 006e 2874     		strb	r0, [r5, #16]
 1708              		.loc 1 310 3 is_stmt 1 discriminator 5 view .LVU540
 1709              		.loc 1 310 42 is_stmt 0 discriminator 5 view .LVU541
 1710 0070 0B21     		movs	r1, #11
ARM GAS  /tmp/ccMJKeTi.s 			page 31


 1711 0072 2046     		mov	r0, r4
 1712 0074 FFF7FEFF 		bl	_mmcsd_get_slice
 1713              	.LVL167:
 1714              		.loc 1 311 42 discriminator 5 view .LVU542
 1715 0078 0F22     		movs	r2, #15
 1716 007a 1146     		mov	r1, r2
 1717              		.loc 1 310 32 discriminator 5 view .LVU543
 1718 007c E876     		strb	r0, [r5, #27]
 1719              		.loc 1 311 3 is_stmt 1 discriminator 5 view .LVU544
 1720              		.loc 1 311 42 is_stmt 0 discriminator 5 view .LVU545
 1721 007e 2046     		mov	r0, r4
 1722 0080 FFF7FEFF 		bl	_mmcsd_get_slice
 1723              	.LVL168:
 1724              		.loc 1 312 42 discriminator 5 view .LVU546
 1725 0084 6822     		movs	r2, #104
 1726              		.loc 1 311 32 discriminator 5 view .LVU547
 1727 0086 E875     		strb	r0, [r5, #23]
 1728              		.loc 1 312 3 is_stmt 1 discriminator 5 view .LVU548
 1729              		.loc 1 312 42 is_stmt 0 discriminator 5 view .LVU549
 1730 0088 6F21     		movs	r1, #111
 1731 008a 2046     		mov	r0, r4
 1732 008c FFF7FEFF 		bl	_mmcsd_get_slice
 1733              	.LVL169:
 1734              		.loc 1 313 42 discriminator 5 view .LVU550
 1735 0090 0D22     		movs	r2, #13
 1736 0092 1146     		mov	r1, r2
 1737              		.loc 1 312 32 discriminator 5 view .LVU551
 1738 0094 A870     		strb	r0, [r5, #2]
 1739              		.loc 1 313 3 is_stmt 1 discriminator 5 view .LVU552
 1740              		.loc 1 313 42 is_stmt 0 discriminator 5 view .LVU553
 1741 0096 2046     		mov	r0, r4
 1742 0098 FFF7FEFF 		bl	_mmcsd_get_slice
 1743              	.LVL170:
 1744              		.loc 1 314 42 discriminator 5 view .LVU554
 1745 009c 1A22     		movs	r2, #26
 1746              		.loc 1 313 32 discriminator 5 view .LVU555
 1747 009e 6876     		strb	r0, [r5, #25]
 1748              		.loc 1 314 3 is_stmt 1 discriminator 5 view .LVU556
 1749              		.loc 1 314 42 is_stmt 0 discriminator 5 view .LVU557
 1750 00a0 1C21     		movs	r1, #28
 1751 00a2 2046     		mov	r0, r4
 1752 00a4 FFF7FEFF 		bl	_mmcsd_get_slice
 1753              	.LVL171:
 1754              		.loc 1 315 42 discriminator 5 view .LVU558
 1755 00a8 5022     		movs	r2, #80
 1756              		.loc 1 314 32 discriminator 5 view .LVU559
 1757 00aa 2875     		strb	r0, [r5, #20]
 1758              		.loc 1 315 3 is_stmt 1 discriminator 5 view .LVU560
 1759              		.loc 1 315 42 is_stmt 0 discriminator 5 view .LVU561
 1760 00ac 5321     		movs	r1, #83
 1761 00ae 2046     		mov	r0, r4
 1762 00b0 FFF7FEFF 		bl	_mmcsd_get_slice
 1763              	.LVL172:
 1764              		.loc 1 316 42 discriminator 5 view .LVU562
 1765 00b4 4F22     		movs	r2, #79
 1766 00b6 1146     		mov	r1, r2
 1767              		.loc 1 315 32 discriminator 5 view .LVU563
ARM GAS  /tmp/ccMJKeTi.s 			page 32


 1768 00b8 A871     		strb	r0, [r5, #6]
 1769              		.loc 1 316 3 is_stmt 1 discriminator 5 view .LVU564
 1770              		.loc 1 316 42 is_stmt 0 discriminator 5 view .LVU565
 1771 00ba 2046     		mov	r0, r4
 1772 00bc FFF7FEFF 		bl	_mmcsd_get_slice
 1773              	.LVL173:
 1774              		.loc 1 317 42 discriminator 5 view .LVU566
 1775 00c0 4D22     		movs	r2, #77
 1776 00c2 1146     		mov	r1, r2
 1777              		.loc 1 316 32 discriminator 5 view .LVU567
 1778 00c4 E871     		strb	r0, [r5, #7]
 1779              		.loc 1 317 3 is_stmt 1 discriminator 5 view .LVU568
 1780              		.loc 1 317 42 is_stmt 0 discriminator 5 view .LVU569
 1781 00c6 2046     		mov	r0, r4
 1782 00c8 FFF7FEFF 		bl	_mmcsd_get_slice
 1783              	.LVL174:
 1784              		.loc 1 318 42 discriminator 5 view .LVU570
 1785 00cc 2722     		movs	r2, #39
 1786              		.loc 1 317 32 discriminator 5 view .LVU571
 1787 00ce 6872     		strb	r0, [r5, #9]
 1788              		.loc 1 318 3 is_stmt 1 discriminator 5 view .LVU572
 1789              		.loc 1 318 42 is_stmt 0 discriminator 5 view .LVU573
 1790 00d0 2D21     		movs	r1, #45
 1791 00d2 2046     		mov	r0, r4
 1792 00d4 FFF7FEFF 		bl	_mmcsd_get_slice
 1793              	.LVL175:
 1794              		.loc 1 319 42 discriminator 5 view .LVU574
 1795 00d8 7022     		movs	r2, #112
 1796              		.loc 1 318 32 discriminator 5 view .LVU575
 1797 00da 6874     		strb	r0, [r5, #17]
 1798              		.loc 1 319 3 is_stmt 1 discriminator 5 view .LVU576
 1799              		.loc 1 319 42 is_stmt 0 discriminator 5 view .LVU577
 1800 00dc 7721     		movs	r1, #119
 1801 00de 2046     		mov	r0, r4
 1802 00e0 FFF7FEFF 		bl	_mmcsd_get_slice
 1803              	.LVL176:
 1804              		.loc 1 320 42 discriminator 5 view .LVU578
 1805 00e4 0C22     		movs	r2, #12
 1806 00e6 1146     		mov	r1, r2
 1807              		.loc 1 319 32 discriminator 5 view .LVU579
 1808 00e8 6870     		strb	r0, [r5, #1]
 1809              		.loc 1 320 3 is_stmt 1 discriminator 5 view .LVU580
 1810              		.loc 1 320 42 is_stmt 0 discriminator 5 view .LVU581
 1811 00ea 2046     		mov	r0, r4
 1812 00ec FFF7FEFF 		bl	_mmcsd_get_slice
 1813              	.LVL177:
 1814              		.loc 1 321 42 discriminator 5 view .LVU582
 1815 00f0 6022     		movs	r2, #96
 1816              		.loc 1 320 32 discriminator 5 view .LVU583
 1817 00f2 A876     		strb	r0, [r5, #26]
 1818              		.loc 1 321 3 is_stmt 1 discriminator 5 view .LVU584
 1819              		.loc 1 321 42 is_stmt 0 discriminator 5 view .LVU585
 1820 00f4 6721     		movs	r1, #103
 1821 00f6 2046     		mov	r0, r4
 1822 00f8 FFF7FEFF 		bl	_mmcsd_get_slice
 1823              	.LVL178:
 1824              		.loc 1 322 42 discriminator 5 view .LVU586
ARM GAS  /tmp/ccMJKeTi.s 			page 33


 1825 00fc 1F22     		movs	r2, #31
 1826 00fe 1146     		mov	r1, r2
 1827              		.loc 1 321 32 discriminator 5 view .LVU587
 1828 0100 E870     		strb	r0, [r5, #3]
 1829              		.loc 1 322 3 is_stmt 1 discriminator 5 view .LVU588
 1830              		.loc 1 322 42 is_stmt 0 discriminator 5 view .LVU589
 1831 0102 2046     		mov	r0, r4
 1832 0104 FFF7FEFF 		bl	_mmcsd_get_slice
 1833              	.LVL179:
 1834              		.loc 1 323 42 discriminator 5 view .LVU590
 1835 0108 2022     		movs	r2, #32
 1836              		.loc 1 322 32 discriminator 5 view .LVU591
 1837 010a E874     		strb	r0, [r5, #19]
 1838              		.loc 1 323 3 is_stmt 1 discriminator 5 view .LVU592
 1839              		.loc 1 323 42 is_stmt 0 discriminator 5 view .LVU593
 1840 010c 2621     		movs	r1, #38
 1841 010e 2046     		mov	r0, r4
 1842 0110 FFF7FEFF 		bl	_mmcsd_get_slice
 1843              	.LVL180:
 1844              		.loc 1 324 42 discriminator 5 view .LVU594
 1845 0114 0C22     		movs	r2, #12
 1846              		.loc 1 323 32 discriminator 5 view .LVU595
 1847 0116 A874     		strb	r0, [r5, #18]
 1848              		.loc 1 324 3 is_stmt 1 discriminator 5 view .LVU596
 1849              		.loc 1 324 42 is_stmt 0 discriminator 5 view .LVU597
 1850 0118 1921     		movs	r1, #25
 1851 011a 2046     		mov	r0, r4
 1852 011c FFF7FEFF 		bl	_mmcsd_get_slice
 1853              	.LVL181:
 1854              		.loc 1 325 42 discriminator 5 view .LVU598
 1855 0120 1522     		movs	r2, #21
 1856 0122 1146     		mov	r1, r2
 1857              		.loc 1 324 32 discriminator 5 view .LVU599
 1858 0124 6875     		strb	r0, [r5, #21]
 1859              		.loc 1 325 3 is_stmt 1 discriminator 5 view .LVU600
 1860              		.loc 1 325 42 is_stmt 0 discriminator 5 view .LVU601
 1861 0126 2046     		mov	r0, r4
 1862 0128 FFF7FEFF 		bl	_mmcsd_get_slice
 1863              	.LVL182:
 1864              		.loc 1 326 42 discriminator 5 view .LVU602
 1865 012c 4E22     		movs	r2, #78
 1866              		.loc 1 325 32 discriminator 5 view .LVU603
 1867 012e A875     		strb	r0, [r5, #22]
 1868              		.loc 1 326 3 is_stmt 1 discriminator 5 view .LVU604
 1869              		.loc 1 326 42 is_stmt 0 discriminator 5 view .LVU605
 1870 0130 1146     		mov	r1, r2
 1871 0132 2046     		mov	r0, r4
 1872 0134 FFF7FEFF 		bl	_mmcsd_get_slice
 1873              	.LVL183:
 1874              		.loc 1 327 1 discriminator 5 view .LVU606
 1875 0138 064B     		ldr	r3, .L80
 1876              		.loc 1 326 32 discriminator 5 view .LVU607
 1877 013a 2872     		strb	r0, [r5, #8]
 1878              		.loc 1 327 1 discriminator 5 view .LVU608
 1879 013c 1A68     		ldr	r2, [r3]
 1880 013e 019B     		ldr	r3, [sp, #4]
 1881 0140 5A40     		eors	r2, r3, r2
ARM GAS  /tmp/ccMJKeTi.s 			page 34


 1882 0142 05D1     		bne	.L79
 1883              		.loc 1 327 1 view .LVU609
 1884 0144 03B0     		add	sp, sp, #12
 1885              		.cfi_remember_state
 1886              		.cfi_def_cfa_offset 12
 1887              		@ sp needed
 1888 0146 30BD     		pop	{r4, r5, pc}
 1889              	.LVL184:
 1890              	.L78:
 1891              		.cfi_restore_state
 1892              		.loc 1 300 3 is_stmt 1 discriminator 3 view .LVU610
 1893 0148 0348     		ldr	r0, .L80+4
 1894              	.LVL185:
 1895              		.loc 1 300 3 is_stmt 0 discriminator 3 view .LVU611
 1896 014a FFF7FEFF 		bl	chSysHalt
 1897              	.LVL186:
 1898              		.loc 1 300 3 discriminator 3 view .LVU612
 1899 014e 63E7     		b	.L75
 1900              	.LVL187:
 1901              	.L79:
 1902              		.loc 1 327 1 view .LVU613
 1903 0150 FFF7FEFF 		bl	__stack_chk_fail
 1904              	.LVL188:
 1905              	.L81:
 1906              		.align	2
 1907              	.L80:
 1908 0154 00000000 		.word	.LC7
 1909 0158 00000000 		.word	.LANCHOR7
 1910              		.cfi_endproc
 1911              	.LFE263:
 1912              		.size	_mmcsd_unpack_csd_v20, .-_mmcsd_unpack_csd_v20
 1913              		.section	.rodata.__func__.10000,"a"
 1914              		.align	2
 1915              		.set	.LANCHOR7,. + 0
 1916              		.type	__func__.10000, %object
 1917              		.size	__func__.10000, 22
 1918              	__func__.10000:
 1919 0000 5F6D6D63 		.ascii	"_mmcsd_unpack_csd_v20\000"
 1919      73645F75 
 1919      6E706163 
 1919      6B5F6373 
 1919      645F7632 
 1920              		.section	.rodata.__func__.9955,"a"
 1921              		.align	2
 1922              		.set	.LANCHOR0,. + 0
 1923              		.type	__func__.9955, %object
 1924              		.size	__func__.9955, 17
 1925              	__func__.9955:
 1926 0000 5F6D6D63 		.ascii	"_mmcsd_get_slice\000"
 1926      73645F67 
 1926      65745F73 
 1926      6C696365 
 1926      00
 1927              		.section	.rodata.__func__.9962,"a"
 1928              		.align	2
 1929              		.set	.LANCHOR1,. + 0
 1930              		.type	__func__.9962, %object
ARM GAS  /tmp/ccMJKeTi.s 			page 35


 1931              		.size	__func__.9962, 20
 1932              	__func__.9962:
 1933 0000 5F6D6D63 		.ascii	"_mmcsd_get_capacity\000"
 1933      73645F67 
 1933      65745F63 
 1933      61706163 
 1933      69747900 
 1934              		.section	.rodata.__func__.9970,"a"
 1935              		.align	2
 1936              		.set	.LANCHOR2,. + 0
 1937              		.type	__func__.9970, %object
 1938              		.size	__func__.9970, 24
 1939              	__func__.9970:
 1940 0000 5F6D6D63 		.ascii	"_mmcsd_get_capacity_ext\000"
 1940      73645F67 
 1940      65745F63 
 1940      61706163 
 1940      6974795F 
 1941              		.section	.rodata.__func__.9976,"a"
 1942              		.align	2
 1943              		.set	.LANCHOR3,. + 0
 1944              		.type	__func__.9976, %object
 1945              		.size	__func__.9976, 22
 1946              	__func__.9976:
 1947 0000 5F6D6D63 		.ascii	"_mmcsd_unpack_sdc_cid\000"
 1947      73645F75 
 1947      6E706163 
 1947      6B5F7364 
 1947      635F6369 
 1948              		.section	.rodata.__func__.9982,"a"
 1949              		.align	2
 1950              		.set	.LANCHOR4,. + 0
 1951              		.type	__func__.9982, %object
 1952              		.size	__func__.9982, 22
 1953              	__func__.9982:
 1954 0000 5F6D6D63 		.ascii	"_mmcsd_unpack_mmc_cid\000"
 1954      73645F75 
 1954      6E706163 
 1954      6B5F6D6D 
 1954      635F6369 
 1955              		.section	.rodata.__func__.9988,"a"
 1956              		.align	2
 1957              		.set	.LANCHOR5,. + 0
 1958              		.type	__func__.9988, %object
 1959              		.size	__func__.9988, 22
 1960              	__func__.9988:
 1961 0000 5F6D6D63 		.ascii	"_mmcsd_unpack_csd_mmc\000"
 1961      73645F75 
 1961      6E706163 
 1961      6B5F6373 
 1961      645F6D6D 
 1962              		.section	.rodata.__func__.9994,"a"
 1963              		.align	2
 1964              		.set	.LANCHOR6,. + 0
 1965              		.type	__func__.9994, %object
 1966              		.size	__func__.9994, 22
 1967              	__func__.9994:
ARM GAS  /tmp/ccMJKeTi.s 			page 36


 1968 0000 5F6D6D63 		.ascii	"_mmcsd_unpack_csd_v10\000"
 1968      73645F75 
 1968      6E706163 
 1968      6B5F6373 
 1968      645F7631 
 1969              		.text
 1970              	.Letext0:
 1971              		.file 2 "/usr/lib/gcc/arm-none-eabi/9.2.1/include/stddef.h"
 1972              		.file 3 "/usr/lib/gcc/arm-none-eabi/9.2.1/include/stdint.h"
 1973              		.file 4 ".//ChibiOS//os/rt/ports/ARMCMx/compilers/GCC/chtypes.h"
 1974              		.file 5 ".//ChibiOS//os/rt/include/chsystypes.h"
 1975              		.file 6 ".//ChibiOS//os/rt/include/chschd.h"
 1976              		.file 7 ".//ChibiOS//os/ext/CMSIS/include/core_cm4.h"
 1977              		.file 8 ".//ChibiOS//os/ext/CMSIS/ST/system_stm32f4xx.h"
 1978              		.file 9 ".//ChibiOS//os/ext/CMSIS/ST/stm32f407xx.h"
 1979              		.file 10 ".//ChibiOS//os/rt/ports/ARMCMx/chcore.h"
 1980              		.file 11 ".//ChibiOS//os/rt/ports/ARMCMx/chcore_v7m.h"
 1981              		.file 12 ".//ChibiOS//os/rt/include/chdebug.h"
 1982              		.file 13 ".//ChibiOS//os/rt/include/chtm.h"
 1983              		.file 14 ".//ChibiOS//os/rt/include/chstats.h"
 1984              		.file 15 ".//ChibiOS//os/rt/include/chsem.h"
 1985              		.file 16 ".//ChibiOS//os/rt/include/chmtx.h"
 1986              		.file 17 ".//ChibiOS//os/rt/include/chregistry.h"
 1987              		.file 18 ".//ChibiOS//os/rt/include/chevents.h"
 1988              		.file 19 ".//ChibiOS//os/rt/include/chqueues.h"
 1989              		.file 20 ".//ChibiOS//os/hal/ports/STM32/STM32F4xx/stm32_dma.h"
 1990              		.file 21 ".//ChibiOS//os/hal/include/hal_ioblock.h"
 1991              		.file 22 ".//ChibiOS//os/hal/include/hal_mmcsd.h"
 1992              		.file 23 ".//ChibiOS//os/hal/ports/STM32/LLD/GPIOv2/pal_lld.h"
 1993              		.file 24 ".//ChibiOS//os/hal/include/adc.h"
 1994              		.file 25 ".//ChibiOS//os/hal/ports/STM32/STM32F4xx/adc_lld.h"
 1995              		.file 26 ".//ChibiOS//os/hal/include/can.h"
 1996              		.file 27 ".//ChibiOS//os/hal/ports/STM32/LLD/can_lld.h"
 1997              		.file 28 ".//ChibiOS//os/hal/include/dac.h"
 1998              		.file 29 ".//ChibiOS//os/hal/ports/STM32/LLD/DACv1/dac_lld.h"
 1999              		.file 30 ".//ChibiOS//os/hal/include/ext.h"
 2000              		.file 31 ".//ChibiOS//os/hal/ports/STM32/LLD/ext_lld.h"
 2001              		.file 32 ".//ChibiOS//os/hal/include/gpt.h"
 2002              		.file 33 ".//ChibiOS//os/hal/ports/STM32/LLD/TIMv1/gpt_lld.h"
 2003              		.file 34 ".//ChibiOS//os/hal/ports/STM32/LLD/TIMv1/stm32_tim.h"
 2004              		.file 35 ".//ChibiOS//os/hal/include/i2c.h"
 2005              		.file 36 ".//ChibiOS//os/hal/ports/STM32/LLD/I2Cv1/i2c_lld.h"
 2006              		.file 37 ".//ChibiOS//os/hal/include/i2s.h"
 2007              		.file 38 ".//ChibiOS//os/hal/ports/STM32/LLD/SPIv1/i2s_lld.h"
 2008              		.file 39 ".//ChibiOS//os/hal/include/pwm.h"
 2009              		.file 40 ".//ChibiOS//os/hal/ports/STM32/LLD/TIMv1/pwm_lld.h"
 2010              		.file 41 ".//ChibiOS//os/hal/include/serial.h"
 2011              		.file 42 ".//ChibiOS//os/hal/ports/STM32/LLD/USARTv1/serial_lld.h"
 2012              		.file 43 ".//ChibiOS//os/hal/include/sdc.h"
 2013              		.file 44 ".//ChibiOS//os/hal/ports/STM32/LLD/sdc_lld.h"
 2014              		.file 45 ".//ChibiOS//os/hal/include/spi.h"
 2015              		.file 46 ".//ChibiOS//os/hal/ports/STM32/LLD/SPIv1/spi_lld.h"
 2016              		.file 47 ".//ChibiOS//os/hal/include/usb.h"
 2017              		.file 48 ".//ChibiOS//os/hal/ports/STM32/LLD/OTGv1/usb_lld.h"
 2018              		.file 49 ".//ChibiOS//os/hal/ports/STM32/LLD/OTGv1/stm32_otg.h"
 2019              		.file 50 ".//ChibiOS//os/rt/include/chsys.h"