ARM GAS  /tmp/ccB8jtFc.s 			page 1


   1              		.cpu cortex-m4
   2              		.eabi_attribute 27, 1
   3              		.eabi_attribute 28, 1
   4              		.eabi_attribute 20, 1
   5              		.eabi_attribute 21, 1
   6              		.eabi_attribute 23, 3
   7              		.eabi_attribute 24, 1
   8              		.eabi_attribute 25, 1
   9              		.eabi_attribute 26, 1
  10              		.eabi_attribute 30, 2
  11              		.eabi_attribute 34, 1
  12              		.eabi_attribute 18, 4
  13              		.file	"i2c.c"
  14              		.text
  15              	.Ltext0:
  16              		.cfi_sections	.debug_frame
  17              		.section	.rodata.i2cInit.cst4,"aM",%progbits,4
  18              		.align	2
  19              	.LC0:
  20 0000 00000000 		.word	__stack_chk_guard
  21              		.section	.text.i2cInit,"ax",%progbits
  22              		.align	1
  23              		.p2align 4,,15
  24              		.global	i2cInit
  25              		.arch armv7e-m
  26              		.syntax unified
  27              		.thumb
  28              		.thumb_func
  29              		.fpu fpv4-sp-d16
  30              		.type	i2cInit, %function
  31              	i2cInit:
  32              	.LFB256:
  33              		.file 1 ".//ChibiOS//os/hal/src/i2c.c"
  34              		.loc 1 59 20 view -0
  35              		.cfi_startproc
  36              		@ args = 0, pretend = 0, frame = 8
  37              		@ frame_needed = 0, uses_anonymous_args = 0
  38 0000 00B5     		push	{lr}
  39              		.cfi_def_cfa_offset 4
  40              		.cfi_offset 14, -4
  41 0002 094B     		ldr	r3, .L7
  42 0004 83B0     		sub	sp, sp, #12
  43              		.cfi_def_cfa_offset 16
  44              		.loc 1 59 20 is_stmt 0 view .LVU1
  45 0006 1B68     		ldr	r3, [r3]
  46 0008 0193     		str	r3, [sp, #4]
  47 000a 4FF00003 		mov	r3,#0
  48              		.loc 1 61 3 is_stmt 1 view .LVU2
  49 000e 064B     		ldr	r3, .L7
  50 0010 1A68     		ldr	r2, [r3]
  51 0012 019B     		ldr	r3, [sp, #4]
  52 0014 5A40     		eors	r2, r3, r2
  53 0016 04D1     		bne	.L6
  54              		.loc 1 62 1 is_stmt 0 view .LVU3
  55 0018 03B0     		add	sp, sp, #12
  56              		.cfi_remember_state
  57              		.cfi_def_cfa_offset 4
ARM GAS  /tmp/ccB8jtFc.s 			page 2


  58              		@ sp needed
  59 001a 5DF804EB 		ldr	lr, [sp], #4
  60              		.cfi_restore 14
  61              		.cfi_def_cfa_offset 0
  62              		.loc 1 61 3 view .LVU4
  63 001e FFF7FEBF 		b	i2c_lld_init
  64              	.LVL0:
  65              	.L6:
  66              		.cfi_restore_state
  67 0022 FFF7FEFF 		bl	__stack_chk_fail
  68              	.LVL1:
  69              	.L8:
  70 0026 00BF     		.align	2
  71              	.L7:
  72 0028 00000000 		.word	.LC0
  73              		.cfi_endproc
  74              	.LFE256:
  75              		.size	i2cInit, .-i2cInit
  76              		.section	.rodata.i2cObjectInit.cst4,"aM",%progbits,4
  77              		.align	2
  78              	.LC1:
  79 0000 00000000 		.word	__stack_chk_guard
  80              		.section	.text.i2cObjectInit,"ax",%progbits
  81              		.align	1
  82              		.p2align 4,,15
  83              		.global	i2cObjectInit
  84              		.syntax unified
  85              		.thumb
  86              		.thumb_func
  87              		.fpu fpv4-sp-d16
  88              		.type	i2cObjectInit, %function
  89              	i2cObjectInit:
  90              	.LVL2:
  91              	.LFB257:
  92              		.loc 1 71 37 is_stmt 1 view -0
  93              		.cfi_startproc
  94              		@ args = 0, pretend = 0, frame = 8
  95              		@ frame_needed = 0, uses_anonymous_args = 0
  96              		.loc 1 71 37 is_stmt 0 view .LVU6
  97 0000 00B5     		push	{lr}
  98              		.cfi_def_cfa_offset 4
  99              		.cfi_offset 14, -4
 100 0002 0B4B     		ldr	r3, .L14
 101 0004 83B0     		sub	sp, sp, #12
 102              		.cfi_def_cfa_offset 16
 103              		.loc 1 71 37 view .LVU7
 104 0006 1B68     		ldr	r3, [r3]
 105 0008 0193     		str	r3, [sp, #4]
 106 000a 4FF00003 		mov	r3,#0
 107              		.loc 1 73 3 is_stmt 1 view .LVU8
 108              		.loc 1 74 16 is_stmt 0 view .LVU9
 109 000e 0023     		movs	r3, #0
 110              		.loc 1 73 16 view .LVU10
 111 0010 0122     		movs	r2, #1
 112              		.loc 1 74 16 view .LVU11
 113 0012 4360     		str	r3, [r0, #4]
 114              	.LBB61:
ARM GAS  /tmp/ccB8jtFc.s 			page 3


 115              	.LBB62:
 116              		.file 2 ".//ChibiOS//os/hal/osal/rt/osal.h"
 117              		.loc 2 841 3 view .LVU12
 118 0014 064B     		ldr	r3, .L14
 119              	.LBE62:
 120              	.LBE61:
 121              		.loc 1 73 16 view .LVU13
 122 0016 0270     		strb	r2, [r0]
 123              		.loc 1 74 3 is_stmt 1 view .LVU14
 124              		.loc 1 77 3 view .LVU15
 125              	.LVL3:
 126              	.LBB65:
 127              	.LBI61:
 128              		.loc 2 838 20 view .LVU16
 129              	.LBB63:
 130              		.loc 2 841 3 view .LVU17
 131 0018 1A68     		ldr	r2, [r3]
 132 001a 019B     		ldr	r3, [sp, #4]
 133 001c 5A40     		eors	r2, r3, r2
 134 001e 05D1     		bne	.L13
 135 0020 0C30     		adds	r0, r0, #12
 136              	.LVL4:
 137              		.loc 2 841 3 is_stmt 0 view .LVU18
 138              	.LBE63:
 139              	.LBE65:
 140              		.loc 1 83 1 view .LVU19
 141 0022 03B0     		add	sp, sp, #12
 142              		.cfi_remember_state
 143              		.cfi_def_cfa_offset 4
 144              		@ sp needed
 145 0024 5DF804EB 		ldr	lr, [sp], #4
 146              		.cfi_restore 14
 147              		.cfi_def_cfa_offset 0
 148              	.LBB66:
 149              	.LBB64:
 150              		.loc 2 841 3 view .LVU20
 151 0028 FFF7FEBF 		b	chMtxObjectInit
 152              	.LVL5:
 153              	.L13:
 154              		.cfi_restore_state
 155              		.loc 2 841 3 view .LVU21
 156 002c FFF7FEFF 		bl	__stack_chk_fail
 157              	.LVL6:
 158              	.L15:
 159              		.loc 2 841 3 view .LVU22
 160              		.align	2
 161              	.L14:
 162 0030 00000000 		.word	.LC1
 163              	.LBE64:
 164              	.LBE66:
 165              		.cfi_endproc
 166              	.LFE257:
 167              		.size	i2cObjectInit, .-i2cObjectInit
 168              		.section	.rodata.i2cStart.cst4,"aM",%progbits,4
 169              		.align	2
 170              	.LC2:
 171 0000 00000000 		.word	__stack_chk_guard
ARM GAS  /tmp/ccB8jtFc.s 			page 4


 172              		.section	.text.i2cStart,"ax",%progbits
 173              		.align	1
 174              		.p2align 4,,15
 175              		.global	i2cStart
 176              		.syntax unified
 177              		.thumb
 178              		.thumb_func
 179              		.fpu fpv4-sp-d16
 180              		.type	i2cStart, %function
 181              	i2cStart:
 182              	.LVL7:
 183              	.LFB258:
 184              		.loc 1 93 57 is_stmt 1 view -0
 185              		.cfi_startproc
 186              		@ args = 0, pretend = 0, frame = 8
 187              		@ frame_needed = 0, uses_anonymous_args = 0
 188              		.loc 1 93 57 is_stmt 0 view .LVU24
 189 0000 30B5     		push	{r4, r5, lr}
 190              		.cfi_def_cfa_offset 12
 191              		.cfi_offset 4, -12
 192              		.cfi_offset 5, -8
 193              		.cfi_offset 14, -4
 194 0002 214B     		ldr	r3, .L32
 195 0004 83B0     		sub	sp, sp, #12
 196              		.cfi_def_cfa_offset 24
 197              		.loc 1 93 57 view .LVU25
 198 0006 0D46     		mov	r5, r1
 199 0008 1B68     		ldr	r3, [r3]
 200 000a 0193     		str	r3, [sp, #4]
 201 000c 4FF00003 		mov	r3,#0
 202              		.loc 1 95 3 is_stmt 1 view .LVU26
 203              		.loc 1 95 3 view .LVU27
 204              		.loc 1 95 3 view .LVU28
 205 0010 0446     		mov	r4, r0
 206 0012 90B3     		cbz	r0, .L17
 207              		.loc 1 95 3 is_stmt 0 discriminator 4 view .LVU29
 208 0014 89B3     		cbz	r1, .L17
 209              	.LVL8:
 210              	.L18:
 211              		.loc 1 95 3 is_stmt 1 discriminator 1 view .LVU30
 212              		.loc 1 96 3 discriminator 1 view .LVU31
 213              		.loc 1 96 3 discriminator 1 view .LVU32
 214              		.loc 1 96 3 discriminator 1 view .LVU33
 215 0016 2378     		ldrb	r3, [r4]	@ zero_extendqisi2
 216 0018 5A1E     		subs	r2, r3, #1
 217 001a 012A     		cmp	r2, #1
 218 001c 01D9     		bls	.L19
 219              		.loc 1 96 3 is_stmt 0 discriminator 3 view .LVU34
 220 001e 052B     		cmp	r3, #5
 221 0020 23D1     		bne	.L29
 222              	.L19:
 223              		.loc 1 96 3 is_stmt 1 discriminator 7 view .LVU35
 224              		.loc 1 99 3 discriminator 7 view .LVU36
 225              	.LBB80:
 226              	.LBI80:
 227              		.loc 2 445 20 discriminator 7 view .LVU37
 228              	.LBE80:
ARM GAS  /tmp/ccB8jtFc.s 			page 5


 229              		.loc 2 447 3 discriminator 7 view .LVU38
 230              	.LBB89:
 231              	.LBB81:
 232              	.LBI81:
 233              		.file 3 ".//ChibiOS//os/rt/include/chsys.h"
 234              		.loc 3 346 20 discriminator 7 view .LVU39
 235              	.LBB82:
 236              		.loc 3 348 3 discriminator 7 view .LVU40
 237              	.LBB83:
 238              	.LBI83:
 239              		.file 4 ".//ChibiOS//os/rt/ports/ARMCMx/chcore_v7m.h"
 240              		.loc 4 444 20 discriminator 7 view .LVU41
 241              	.LBE83:
 242              	.LBE82:
 243              	.LBE81:
 244              	.LBE89:
 245              		.loc 4 447 3 discriminator 7 view .LVU42
 246              	.LVL9:
 247              	.LBB90:
 248              	.LBB88:
 249              	.LBB87:
 250              	.LBB86:
 251              	.LBB84:
 252              	.LBI84:
 253              		.file 5 ".//ChibiOS//os/ext/CMSIS/include/core_cmFunc.h"
 254              		.loc 5 544 57 discriminator 7 view .LVU43
 255              	.LBB85:
 256              		.loc 5 546 3 discriminator 7 view .LVU44
 257 0022 2023     		movs	r3, #32
 258              		.syntax unified
 259              	@ 546 ".//ChibiOS//os/ext/CMSIS/include/core_cmFunc.h" 1
 260 0024 83F31188 		MSR basepri, r3
 261              	@ 0 "" 2
 262              	.LVL10:
 263              		.loc 5 546 3 is_stmt 0 discriminator 7 view .LVU45
 264              		.thumb
 265              		.syntax unified
 266              	.LBE85:
 267              	.LBE84:
 268              	.LBE86:
 269              		.loc 3 349 3 is_stmt 1 discriminator 7 view .LVU46
 270 0028 FFF7FEFF 		bl	_stats_start_measure_crit_thd
 271              	.LVL11:
 272              		.loc 3 350 3 discriminator 7 view .LVU47
 273 002c FFF7FEFF 		bl	_dbg_check_lock
 274              	.LVL12:
 275              	.LBE87:
 276              	.LBE88:
 277              	.LBE90:
 278              		.loc 1 100 3 discriminator 7 view .LVU48
 279              		.loc 1 101 3 is_stmt 0 discriminator 7 view .LVU49
 280 0030 2046     		mov	r0, r4
 281              		.loc 1 100 16 discriminator 7 view .LVU50
 282 0032 6560     		str	r5, [r4, #4]
 283              		.loc 1 101 3 is_stmt 1 discriminator 7 view .LVU51
 284 0034 FFF7FEFF 		bl	i2c_lld_start
 285              	.LVL13:
ARM GAS  /tmp/ccB8jtFc.s 			page 6


 286              		.loc 1 102 3 discriminator 7 view .LVU52
 287              		.loc 1 102 15 is_stmt 0 discriminator 7 view .LVU53
 288 0038 0223     		movs	r3, #2
 289 003a 2370     		strb	r3, [r4]
 290              		.loc 1 103 3 is_stmt 1 discriminator 7 view .LVU54
 291              	.LBB91:
 292              	.LBI91:
 293              		.loc 2 456 20 discriminator 7 view .LVU55
 294              	.LBE91:
 295              		.loc 2 458 3 discriminator 7 view .LVU56
 296              	.LBB102:
 297              	.LBB92:
 298              	.LBI92:
 299              		.loc 3 358 20 discriminator 7 view .LVU57
 300              	.LBB93:
 301              		.loc 3 360 3 discriminator 7 view .LVU58
 302 003c FFF7FEFF 		bl	_dbg_check_unlock
 303              	.LVL14:
 304              		.loc 3 361 3 discriminator 7 view .LVU59
 305 0040 FFF7FEFF 		bl	_stats_stop_measure_crit_thd
 306              	.LVL15:
 307              		.loc 3 367 3 discriminator 7 view .LVU60
 308              		.loc 3 367 3 discriminator 7 view .LVU61
 309              		.loc 3 367 3 discriminator 7 view .LVU62
 310 0044 114B     		ldr	r3, .L32+4
 311 0046 1A68     		ldr	r2, [r3]
 312 0048 9A42     		cmp	r2, r3
 313 004a 04D0     		beq	.L20
 314              		.loc 3 367 3 is_stmt 0 view .LVU63
 315 004c 9969     		ldr	r1, [r3, #24]
 316 004e 9368     		ldr	r3, [r2, #8]
 317 0050 8A68     		ldr	r2, [r1, #8]
 318 0052 9A42     		cmp	r2, r3
 319 0054 0DD3     		bcc	.L30
 320              	.L20:
 321              		.loc 3 367 3 is_stmt 1 view .LVU64
 322              		.loc 3 371 3 view .LVU65
 323              	.LBB94:
 324              	.LBI94:
 325              		.loc 4 458 20 view .LVU66
 326              	.LBE94:
 327              	.LBE93:
 328              	.LBE92:
 329              	.LBE102:
 330              		.loc 4 461 3 view .LVU67
 331              	.LVL16:
 332              	.LBB103:
 333              	.LBB100:
 334              	.LBB98:
 335              	.LBB97:
 336              	.LBB95:
 337              	.LBI95:
 338              		.loc 5 544 57 view .LVU68
 339              	.LBB96:
 340              		.loc 5 546 3 view .LVU69
 341 0056 0023     		movs	r3, #0
 342              		.syntax unified
ARM GAS  /tmp/ccB8jtFc.s 			page 7


 343              	@ 546 ".//ChibiOS//os/ext/CMSIS/include/core_cmFunc.h" 1
 344 0058 83F31188 		MSR basepri, r3
 345              	@ 0 "" 2
 346              	.LVL17:
 347              		.loc 5 546 3 is_stmt 0 view .LVU70
 348              		.thumb
 349              		.syntax unified
 350              	.LBE96:
 351              	.LBE95:
 352              	.LBE97:
 353              	.LBE98:
 354              	.LBE100:
 355              	.LBE103:
 356              		.loc 1 104 1 view .LVU71
 357 005c 0A4B     		ldr	r3, .L32
 358 005e 1A68     		ldr	r2, [r3]
 359 0060 019B     		ldr	r3, [sp, #4]
 360 0062 5A40     		eors	r2, r3, r2
 361 0064 0DD1     		bne	.L31
 362 0066 03B0     		add	sp, sp, #12
 363              		.cfi_remember_state
 364              		.cfi_def_cfa_offset 12
 365              		@ sp needed
 366 0068 30BD     		pop	{r4, r5, pc}
 367              	.LVL18:
 368              	.L29:
 369              		.cfi_restore_state
 370              		.loc 1 96 3 is_stmt 1 discriminator 5 view .LVU72
 371 006a 0948     		ldr	r0, .L32+8
 372 006c FFF7FEFF 		bl	chSysHalt
 373              	.LVL19:
 374 0070 D7E7     		b	.L19
 375              	.L30:
 376              	.LBB104:
 377              	.LBB101:
 378              	.LBB99:
 379              		.loc 3 367 3 view .LVU73
 380 0072 0848     		ldr	r0, .L32+12
 381 0074 FFF7FEFF 		bl	chSysHalt
 382              	.LVL20:
 383 0078 EDE7     		b	.L20
 384              	.LVL21:
 385              	.L17:
 386              		.loc 3 367 3 is_stmt 0 view .LVU74
 387              	.LBE99:
 388              	.LBE101:
 389              	.LBE104:
 390              		.loc 1 95 3 is_stmt 1 discriminator 5 view .LVU75
 391 007a 0548     		ldr	r0, .L32+8
 392              	.LVL22:
 393              		.loc 1 95 3 is_stmt 0 discriminator 5 view .LVU76
 394 007c FFF7FEFF 		bl	chSysHalt
 395              	.LVL23:
 396              		.loc 1 95 3 discriminator 5 view .LVU77
 397 0080 C9E7     		b	.L18
 398              	.L31:
 399              		.loc 1 104 1 view .LVU78
ARM GAS  /tmp/ccB8jtFc.s 			page 8


 400 0082 FFF7FEFF 		bl	__stack_chk_fail
 401              	.LVL24:
 402              	.L33:
 403 0086 00BF     		.align	2
 404              	.L32:
 405 0088 00000000 		.word	.LC2
 406 008c 00000000 		.word	ch
 407 0090 00000000 		.word	.LANCHOR0
 408 0094 00000000 		.word	.LANCHOR1
 409              		.cfi_endproc
 410              	.LFE258:
 411              		.size	i2cStart, .-i2cStart
 412              		.section	.rodata.i2cStop.cst4,"aM",%progbits,4
 413              		.align	2
 414              	.LC3:
 415 0000 00000000 		.word	__stack_chk_guard
 416              		.section	.text.i2cStop,"ax",%progbits
 417              		.align	1
 418              		.p2align 4,,15
 419              		.global	i2cStop
 420              		.syntax unified
 421              		.thumb
 422              		.thumb_func
 423              		.fpu fpv4-sp-d16
 424              		.type	i2cStop, %function
 425              	i2cStop:
 426              	.LVL25:
 427              	.LFB259:
 428              		.loc 1 113 31 is_stmt 1 view -0
 429              		.cfi_startproc
 430              		@ args = 0, pretend = 0, frame = 8
 431              		@ frame_needed = 0, uses_anonymous_args = 0
 432              		.loc 1 113 31 is_stmt 0 view .LVU80
 433 0000 10B5     		push	{r4, lr}
 434              		.cfi_def_cfa_offset 8
 435              		.cfi_offset 4, -8
 436              		.cfi_offset 14, -4
 437 0002 1F4B     		ldr	r3, .L47
 438 0004 82B0     		sub	sp, sp, #8
 439              		.cfi_def_cfa_offset 16
 440              		.loc 1 113 31 view .LVU81
 441 0006 1B68     		ldr	r3, [r3]
 442 0008 0193     		str	r3, [sp, #4]
 443 000a 4FF00003 		mov	r3,#0
 444              		.loc 1 115 3 is_stmt 1 view .LVU82
 445              		.loc 1 115 3 view .LVU83
 446              		.loc 1 115 3 view .LVU84
 447 000e 0446     		mov	r4, r0
 448 0010 80B3     		cbz	r0, .L43
 449              	.LVL26:
 450              	.L35:
 451              		.loc 1 115 3 discriminator 1 view .LVU85
 452              		.loc 1 116 3 discriminator 1 view .LVU86
 453              		.loc 1 116 3 discriminator 1 view .LVU87
 454              		.loc 1 116 3 discriminator 1 view .LVU88
 455 0012 2378     		ldrb	r3, [r4]	@ zero_extendqisi2
 456 0014 5A1E     		subs	r2, r3, #1
ARM GAS  /tmp/ccB8jtFc.s 			page 9


 457 0016 012A     		cmp	r2, #1
 458 0018 01D9     		bls	.L36
 459              		.loc 1 116 3 is_stmt 0 discriminator 3 view .LVU89
 460 001a 052B     		cmp	r3, #5
 461 001c 22D1     		bne	.L44
 462              	.L36:
 463              		.loc 1 116 3 is_stmt 1 discriminator 7 view .LVU90
 464              		.loc 1 119 3 discriminator 7 view .LVU91
 465              	.LBB118:
 466              	.LBI118:
 467              		.loc 2 445 20 discriminator 7 view .LVU92
 468              	.LBE118:
 469              		.loc 2 447 3 discriminator 7 view .LVU93
 470              	.LBB127:
 471              	.LBB119:
 472              	.LBI119:
 473              		.loc 3 346 20 discriminator 7 view .LVU94
 474              	.LBB120:
 475              		.loc 3 348 3 discriminator 7 view .LVU95
 476              	.LBB121:
 477              	.LBI121:
 478              		.loc 4 444 20 discriminator 7 view .LVU96
 479              	.LBE121:
 480              	.LBE120:
 481              	.LBE119:
 482              	.LBE127:
 483              		.loc 4 447 3 discriminator 7 view .LVU97
 484              	.LVL27:
 485              	.LBB128:
 486              	.LBB126:
 487              	.LBB125:
 488              	.LBB124:
 489              	.LBB122:
 490              	.LBI122:
 491              		.loc 5 544 57 discriminator 7 view .LVU98
 492              	.LBB123:
 493              		.loc 5 546 3 discriminator 7 view .LVU99
 494 001e 2023     		movs	r3, #32
 495              		.syntax unified
 496              	@ 546 ".//ChibiOS//os/ext/CMSIS/include/core_cmFunc.h" 1
 497 0020 83F31188 		MSR basepri, r3
 498              	@ 0 "" 2
 499              	.LVL28:
 500              		.loc 5 546 3 is_stmt 0 discriminator 7 view .LVU100
 501              		.thumb
 502              		.syntax unified
 503              	.LBE123:
 504              	.LBE122:
 505              	.LBE124:
 506              		.loc 3 349 3 is_stmt 1 discriminator 7 view .LVU101
 507 0024 FFF7FEFF 		bl	_stats_start_measure_crit_thd
 508              	.LVL29:
 509              		.loc 3 350 3 discriminator 7 view .LVU102
 510 0028 FFF7FEFF 		bl	_dbg_check_lock
 511              	.LVL30:
 512              	.LBE125:
 513              	.LBE126:
ARM GAS  /tmp/ccB8jtFc.s 			page 10


 514              	.LBE128:
 515              		.loc 1 120 3 discriminator 7 view .LVU103
 516 002c 2046     		mov	r0, r4
 517 002e FFF7FEFF 		bl	i2c_lld_stop
 518              	.LVL31:
 519              		.loc 1 121 3 discriminator 7 view .LVU104
 520              		.loc 1 121 15 is_stmt 0 discriminator 7 view .LVU105
 521 0032 0123     		movs	r3, #1
 522 0034 2370     		strb	r3, [r4]
 523              		.loc 1 122 3 is_stmt 1 discriminator 7 view .LVU106
 524              	.LBB129:
 525              	.LBI129:
 526              		.loc 2 456 20 discriminator 7 view .LVU107
 527              	.LBE129:
 528              		.loc 2 458 3 discriminator 7 view .LVU108
 529              	.LBB140:
 530              	.LBB130:
 531              	.LBI130:
 532              		.loc 3 358 20 discriminator 7 view .LVU109
 533              	.LBB131:
 534              		.loc 3 360 3 discriminator 7 view .LVU110
 535 0036 FFF7FEFF 		bl	_dbg_check_unlock
 536              	.LVL32:
 537              		.loc 3 361 3 discriminator 7 view .LVU111
 538 003a FFF7FEFF 		bl	_stats_stop_measure_crit_thd
 539              	.LVL33:
 540              		.loc 3 367 3 discriminator 7 view .LVU112
 541              		.loc 3 367 3 discriminator 7 view .LVU113
 542              		.loc 3 367 3 discriminator 7 view .LVU114
 543 003e 114B     		ldr	r3, .L47+4
 544 0040 1A68     		ldr	r2, [r3]
 545 0042 9A42     		cmp	r2, r3
 546 0044 04D0     		beq	.L37
 547              		.loc 3 367 3 is_stmt 0 view .LVU115
 548 0046 9969     		ldr	r1, [r3, #24]
 549 0048 9368     		ldr	r3, [r2, #8]
 550 004a 8A68     		ldr	r2, [r1, #8]
 551 004c 9A42     		cmp	r2, r3
 552 004e 0DD3     		bcc	.L45
 553              	.L37:
 554              		.loc 3 367 3 is_stmt 1 view .LVU116
 555              		.loc 3 371 3 view .LVU117
 556              	.LBB132:
 557              	.LBI132:
 558              		.loc 4 458 20 view .LVU118
 559              	.LBE132:
 560              	.LBE131:
 561              	.LBE130:
 562              	.LBE140:
 563              		.loc 4 461 3 view .LVU119
 564              	.LVL34:
 565              	.LBB141:
 566              	.LBB138:
 567              	.LBB136:
 568              	.LBB135:
 569              	.LBB133:
 570              	.LBI133:
ARM GAS  /tmp/ccB8jtFc.s 			page 11


 571              		.loc 5 544 57 view .LVU120
 572              	.LBB134:
 573              		.loc 5 546 3 view .LVU121
 574 0050 0023     		movs	r3, #0
 575              		.syntax unified
 576              	@ 546 ".//ChibiOS//os/ext/CMSIS/include/core_cmFunc.h" 1
 577 0052 83F31188 		MSR basepri, r3
 578              	@ 0 "" 2
 579              	.LVL35:
 580              		.loc 5 546 3 is_stmt 0 view .LVU122
 581              		.thumb
 582              		.syntax unified
 583              	.LBE134:
 584              	.LBE133:
 585              	.LBE135:
 586              	.LBE136:
 587              	.LBE138:
 588              	.LBE141:
 589              		.loc 1 123 1 view .LVU123
 590 0056 0A4B     		ldr	r3, .L47
 591 0058 1A68     		ldr	r2, [r3]
 592 005a 019B     		ldr	r3, [sp, #4]
 593 005c 5A40     		eors	r2, r3, r2
 594 005e 0DD1     		bne	.L46
 595 0060 02B0     		add	sp, sp, #8
 596              		.cfi_remember_state
 597              		.cfi_def_cfa_offset 8
 598              		@ sp needed
 599 0062 10BD     		pop	{r4, pc}
 600              	.LVL36:
 601              	.L44:
 602              		.cfi_restore_state
 603              		.loc 1 116 3 is_stmt 1 discriminator 5 view .LVU124
 604 0064 0848     		ldr	r0, .L47+8
 605 0066 FFF7FEFF 		bl	chSysHalt
 606              	.LVL37:
 607 006a D8E7     		b	.L36
 608              	.L45:
 609              	.LBB142:
 610              	.LBB139:
 611              	.LBB137:
 612              		.loc 3 367 3 view .LVU125
 613 006c 0748     		ldr	r0, .L47+12
 614 006e FFF7FEFF 		bl	chSysHalt
 615              	.LVL38:
 616 0072 EDE7     		b	.L37
 617              	.LVL39:
 618              	.L43:
 619              		.loc 3 367 3 is_stmt 0 view .LVU126
 620              	.LBE137:
 621              	.LBE139:
 622              	.LBE142:
 623              		.loc 1 115 3 is_stmt 1 discriminator 3 view .LVU127
 624 0074 0448     		ldr	r0, .L47+8
 625              	.LVL40:
 626              		.loc 1 115 3 is_stmt 0 discriminator 3 view .LVU128
 627 0076 FFF7FEFF 		bl	chSysHalt
ARM GAS  /tmp/ccB8jtFc.s 			page 12


 628              	.LVL41:
 629 007a CAE7     		b	.L35
 630              	.L46:
 631              		.loc 1 123 1 view .LVU129
 632 007c FFF7FEFF 		bl	__stack_chk_fail
 633              	.LVL42:
 634              	.L48:
 635              		.align	2
 636              	.L47:
 637 0080 00000000 		.word	.LC3
 638 0084 00000000 		.word	ch
 639 0088 00000000 		.word	.LANCHOR2
 640 008c 00000000 		.word	.LANCHOR1
 641              		.cfi_endproc
 642              	.LFE259:
 643              		.size	i2cStop, .-i2cStop
 644              		.section	.rodata.i2cGetErrors.cst4,"aM",%progbits,4
 645              		.align	2
 646              	.LC4:
 647 0000 00000000 		.word	__stack_chk_guard
 648              		.section	.text.i2cGetErrors,"ax",%progbits
 649              		.align	1
 650              		.p2align 4,,15
 651              		.global	i2cGetErrors
 652              		.syntax unified
 653              		.thumb
 654              		.thumb_func
 655              		.fpu fpv4-sp-d16
 656              		.type	i2cGetErrors, %function
 657              	i2cGetErrors:
 658              	.LVL43:
 659              	.LFB260:
 660              		.loc 1 133 42 is_stmt 1 view -0
 661              		.cfi_startproc
 662              		@ args = 0, pretend = 0, frame = 8
 663              		@ frame_needed = 0, uses_anonymous_args = 0
 664              		.loc 1 133 42 is_stmt 0 view .LVU131
 665 0000 10B5     		push	{r4, lr}
 666              		.cfi_def_cfa_offset 8
 667              		.cfi_offset 4, -8
 668              		.cfi_offset 14, -4
 669 0002 0B4B     		ldr	r3, .L55
 670 0004 82B0     		sub	sp, sp, #8
 671              		.cfi_def_cfa_offset 16
 672              		.loc 1 133 42 view .LVU132
 673 0006 1B68     		ldr	r3, [r3]
 674 0008 0193     		str	r3, [sp, #4]
 675 000a 4FF00003 		mov	r3,#0
 676              		.loc 1 135 3 is_stmt 1 view .LVU133
 677              		.loc 1 135 3 view .LVU134
 678              		.loc 1 135 3 view .LVU135
 679 000e 0446     		mov	r4, r0
 680 0010 38B1     		cbz	r0, .L53
 681              	.LVL44:
 682              	.L50:
 683              		.loc 1 135 3 discriminator 5 view .LVU136
 684              		.loc 1 137 3 discriminator 5 view .LVU137
ARM GAS  /tmp/ccB8jtFc.s 			page 13


 685              		.loc 1 138 1 is_stmt 0 discriminator 5 view .LVU138
 686 0012 074B     		ldr	r3, .L55
 687              		.loc 1 137 10 discriminator 5 view .LVU139
 688 0014 A068     		ldr	r0, [r4, #8]
 689              		.loc 1 138 1 discriminator 5 view .LVU140
 690 0016 1A68     		ldr	r2, [r3]
 691 0018 019B     		ldr	r3, [sp, #4]
 692 001a 5A40     		eors	r2, r3, r2
 693 001c 05D1     		bne	.L54
 694              		.loc 1 138 1 view .LVU141
 695 001e 02B0     		add	sp, sp, #8
 696              		.cfi_remember_state
 697              		.cfi_def_cfa_offset 8
 698              		@ sp needed
 699 0020 10BD     		pop	{r4, pc}
 700              	.LVL45:
 701              	.L53:
 702              		.cfi_restore_state
 703              		.loc 1 135 3 is_stmt 1 discriminator 3 view .LVU142
 704 0022 0448     		ldr	r0, .L55+4
 705              	.LVL46:
 706              		.loc 1 135 3 is_stmt 0 discriminator 3 view .LVU143
 707 0024 FFF7FEFF 		bl	chSysHalt
 708              	.LVL47:
 709 0028 F3E7     		b	.L50
 710              	.L54:
 711              		.loc 1 138 1 view .LVU144
 712 002a FFF7FEFF 		bl	__stack_chk_fail
 713              	.LVL48:
 714              	.L56:
 715 002e 00BF     		.align	2
 716              	.L55:
 717 0030 00000000 		.word	.LC4
 718 0034 00000000 		.word	.LANCHOR3
 719              		.cfi_endproc
 720              	.LFE260:
 721              		.size	i2cGetErrors, .-i2cGetErrors
 722              		.section	.rodata.i2cMasterTransmitTimeout.cst4,"aM",%progbits,4
 723              		.align	2
 724              	.LC5:
 725 0000 00000000 		.word	__stack_chk_guard
 726              		.section	.text.i2cMasterTransmitTimeout,"ax",%progbits
 727              		.align	1
 728              		.p2align 4,,15
 729              		.global	i2cMasterTransmitTimeout
 730              		.syntax unified
 731              		.thumb
 732              		.thumb_func
 733              		.fpu fpv4-sp-d16
 734              		.type	i2cMasterTransmitTimeout, %function
 735              	i2cMasterTransmitTimeout:
 736              	.LVL49:
 737              	.LFB261:
 738              		.loc 1 172 51 is_stmt 1 view -0
 739              		.cfi_startproc
 740              		@ args = 12, pretend = 0, frame = 8
 741              		@ frame_needed = 0, uses_anonymous_args = 0
ARM GAS  /tmp/ccB8jtFc.s 			page 14


 742              		.loc 1 172 51 is_stmt 0 view .LVU146
 743 0000 2DE9F047 		push	{r4, r5, r6, r7, r8, r9, r10, lr}
 744              		.cfi_def_cfa_offset 32
 745              		.cfi_offset 4, -32
 746              		.cfi_offset 5, -28
 747              		.cfi_offset 6, -24
 748              		.cfi_offset 7, -20
 749              		.cfi_offset 8, -16
 750              		.cfi_offset 9, -12
 751              		.cfi_offset 10, -8
 752              		.cfi_offset 14, -4
 753 0004 1E46     		mov	r6, r3
 754 0006 86B0     		sub	sp, sp, #24
 755              		.cfi_def_cfa_offset 56
 756              		.loc 1 172 51 view .LVU147
 757 0008 304B     		ldr	r3, .L91
 758              	.LVL50:
 759              		.loc 1 172 51 view .LVU148
 760 000a DDF84090 		ldr	r9, [sp, #64]
 761 000e DDE90EA8 		ldrd	r10, r8, [sp, #56]
 762 0012 0D46     		mov	r5, r1
 763 0014 1746     		mov	r7, r2
 764 0016 1B68     		ldr	r3, [r3]
 765 0018 0593     		str	r3, [sp, #20]
 766 001a 4FF00003 		mov	r3,#0
 767              		.loc 1 173 3 is_stmt 1 view .LVU149
 768              		.loc 1 175 3 view .LVU150
 769              		.loc 1 175 3 view .LVU151
 770              		.loc 1 175 3 view .LVU152
 771 001e 0446     		mov	r4, r0
 772 0020 08B1     		cbz	r0, .L58
 773              		.loc 1 175 3 is_stmt 0 discriminator 4 view .LVU153
 774 0022 0029     		cmp	r1, #0
 775 0024 3ED1     		bne	.L88
 776              	.L58:
 777              		.loc 1 175 3 is_stmt 1 discriminator 15 view .LVU154
 778 0026 2A48     		ldr	r0, .L91+4
 779              	.LVL51:
 780              		.loc 1 175 3 is_stmt 0 discriminator 15 view .LVU155
 781 0028 FFF7FEFF 		bl	chSysHalt
 782              	.LVL52:
 783              	.L60:
 784              		.loc 1 175 3 is_stmt 1 discriminator 1 view .LVU156
 785              		.loc 1 180 3 discriminator 1 view .LVU157
 786              		.loc 1 180 3 discriminator 1 view .LVU158
 787              		.loc 1 180 3 discriminator 1 view .LVU159
 788 002c 2378     		ldrb	r3, [r4]	@ zero_extendqisi2
 789 002e 022B     		cmp	r3, #2
 790 0030 02D0     		beq	.L61
 791              		.loc 1 180 3 discriminator 3 view .LVU160
 792 0032 2748     		ldr	r0, .L91+4
 793 0034 FFF7FEFF 		bl	chSysHalt
 794              	.LVL53:
 795              	.L61:
 796              		.loc 1 180 3 discriminator 5 view .LVU161
 797              		.loc 1 182 3 discriminator 5 view .LVU162
 798              	.LBB156:
ARM GAS  /tmp/ccB8jtFc.s 			page 15


 799              	.LBI156:
 800              		.loc 2 445 20 discriminator 5 view .LVU163
 801              	.LBE156:
 802              		.loc 2 447 3 discriminator 5 view .LVU164
 803              	.LBB165:
 804              	.LBB157:
 805              	.LBI157:
 806              		.loc 3 346 20 discriminator 5 view .LVU165
 807              	.LBB158:
 808              		.loc 3 348 3 discriminator 5 view .LVU166
 809              	.LBB159:
 810              	.LBI159:
 811              		.loc 4 444 20 discriminator 5 view .LVU167
 812              	.LBE159:
 813              	.LBE158:
 814              	.LBE157:
 815              	.LBE165:
 816              		.loc 4 447 3 discriminator 5 view .LVU168
 817              	.LBB166:
 818              	.LBB164:
 819              	.LBB163:
 820              	.LBB162:
 821              	.LBB160:
 822              	.LBI160:
 823              		.loc 5 544 57 discriminator 5 view .LVU169
 824              	.LBB161:
 825              		.loc 5 546 3 discriminator 5 view .LVU170
 826 0038 2023     		movs	r3, #32
 827              		.syntax unified
 828              	@ 546 ".//ChibiOS//os/ext/CMSIS/include/core_cmFunc.h" 1
 829 003a 83F31188 		MSR basepri, r3
 830              	@ 0 "" 2
 831              	.LVL54:
 832              		.loc 5 546 3 is_stmt 0 discriminator 5 view .LVU171
 833              		.thumb
 834              		.syntax unified
 835              	.LBE161:
 836              	.LBE160:
 837              	.LBE162:
 838              		.loc 3 349 3 is_stmt 1 discriminator 5 view .LVU172
 839 003e FFF7FEFF 		bl	_stats_start_measure_crit_thd
 840              	.LVL55:
 841              		.loc 3 350 3 discriminator 5 view .LVU173
 842 0042 FFF7FEFF 		bl	_dbg_check_lock
 843              	.LVL56:
 844              	.LBE163:
 845              	.LBE164:
 846              	.LBE166:
 847              		.loc 1 183 3 discriminator 5 view .LVU174
 848              		.loc 1 183 16 is_stmt 0 discriminator 5 view .LVU175
 849 0046 4FF0000C 		mov	ip, #0
 850              		.loc 1 184 15 discriminator 5 view .LVU176
 851 004a 0320     		movs	r0, #3
 852              		.loc 1 185 12 discriminator 5 view .LVU177
 853 004c 3A46     		mov	r2, r7
 854 004e 2946     		mov	r1, r5
 855 0050 CDE90189 		strd	r8, r9, [sp, #4]
ARM GAS  /tmp/ccB8jtFc.s 			page 16


 856 0054 CDF800A0 		str	r10, [sp]
 857 0058 3346     		mov	r3, r6
 858              		.loc 1 183 16 discriminator 5 view .LVU178
 859 005a C4F808C0 		str	ip, [r4, #8]
 860              		.loc 1 184 3 is_stmt 1 discriminator 5 view .LVU179
 861              		.loc 1 184 15 is_stmt 0 discriminator 5 view .LVU180
 862 005e 2070     		strb	r0, [r4]
 863              		.loc 1 185 3 is_stmt 1 discriminator 5 view .LVU181
 864              		.loc 1 185 12 is_stmt 0 discriminator 5 view .LVU182
 865 0060 2046     		mov	r0, r4
 866 0062 FFF7FEFF 		bl	i2c_lld_master_transmit_timeout
 867              	.LVL57:
 868              		.loc 1 188 17 discriminator 5 view .LVU183
 869 0066 431C     		adds	r3, r0, #1
 870 0068 14BF     		ite	ne
 871 006a 0223     		movne	r3, #2
 872 006c 0523     		moveq	r3, #5
 873 006e 2370     		strb	r3, [r4]
 874              		.loc 1 185 12 discriminator 5 view .LVU184
 875 0070 0546     		mov	r5, r0
 876              	.LVL58:
 877              		.loc 1 187 3 is_stmt 1 discriminator 5 view .LVU185
 878              		.loc 1 193 3 discriminator 5 view .LVU186
 879              	.LBB167:
 880              	.LBI167:
 881              		.loc 2 456 20 discriminator 5 view .LVU187
 882              	.LBE167:
 883              		.loc 2 458 3 discriminator 5 view .LVU188
 884              	.LBB178:
 885              	.LBB168:
 886              	.LBI168:
 887              		.loc 3 358 20 discriminator 5 view .LVU189
 888              	.LBB169:
 889              		.loc 3 360 3 discriminator 5 view .LVU190
 890 0072 FFF7FEFF 		bl	_dbg_check_unlock
 891              	.LVL59:
 892              		.loc 3 361 3 discriminator 5 view .LVU191
 893 0076 FFF7FEFF 		bl	_stats_stop_measure_crit_thd
 894              	.LVL60:
 895              		.loc 3 367 3 discriminator 5 view .LVU192
 896              		.loc 3 367 3 discriminator 5 view .LVU193
 897              		.loc 3 367 3 discriminator 5 view .LVU194
 898 007a 164B     		ldr	r3, .L91+8
 899 007c 1A68     		ldr	r2, [r3]
 900 007e 9A42     		cmp	r2, r3
 901 0080 04D0     		beq	.L63
 902              		.loc 3 367 3 is_stmt 0 view .LVU195
 903 0082 9969     		ldr	r1, [r3, #24]
 904 0084 9368     		ldr	r3, [r2, #8]
 905 0086 8A68     		ldr	r2, [r1, #8]
 906 0088 9A42     		cmp	r2, r3
 907 008a 19D3     		bcc	.L89
 908              	.L63:
 909              		.loc 3 367 3 is_stmt 1 view .LVU196
 910              		.loc 3 371 3 view .LVU197
 911              	.LBB170:
 912              	.LBI170:
ARM GAS  /tmp/ccB8jtFc.s 			page 17


 913              		.loc 4 458 20 view .LVU198
 914              	.LBE170:
 915              	.LBE169:
 916              	.LBE168:
 917              	.LBE178:
 918              		.loc 4 461 3 view .LVU199
 919              	.LVL61:
 920              	.LBB179:
 921              	.LBB176:
 922              	.LBB174:
 923              	.LBB173:
 924              	.LBB171:
 925              	.LBI171:
 926              		.loc 5 544 57 view .LVU200
 927              	.LBB172:
 928              		.loc 5 546 3 view .LVU201
 929 008c 0023     		movs	r3, #0
 930              		.syntax unified
 931              	@ 546 ".//ChibiOS//os/ext/CMSIS/include/core_cmFunc.h" 1
 932 008e 83F31188 		MSR basepri, r3
 933              	@ 0 "" 2
 934              	.LVL62:
 935              		.loc 5 546 3 is_stmt 0 view .LVU202
 936              		.thumb
 937              		.syntax unified
 938              	.LBE172:
 939              	.LBE171:
 940              	.LBE173:
 941              	.LBE174:
 942              	.LBE176:
 943              	.LBE179:
 944              		.loc 1 194 3 is_stmt 1 view .LVU203
 945              		.loc 1 195 1 is_stmt 0 view .LVU204
 946 0092 0E4B     		ldr	r3, .L91
 947 0094 1A68     		ldr	r2, [r3]
 948 0096 059B     		ldr	r3, [sp, #20]
 949 0098 5A40     		eors	r2, r3, r2
 950 009a 15D1     		bne	.L90
 951 009c 2846     		mov	r0, r5
 952 009e 06B0     		add	sp, sp, #24
 953              		.cfi_remember_state
 954              		.cfi_def_cfa_offset 32
 955              		@ sp needed
 956 00a0 BDE8F087 		pop	{r4, r5, r6, r7, r8, r9, r10, pc}
 957              	.LVL63:
 958              	.L88:
 959              		.cfi_restore_state
 960              		.loc 1 175 3 discriminator 6 view .LVU205
 961 00a4 002E     		cmp	r6, #0
 962 00a6 BED0     		beq	.L58
 963              		.loc 1 175 3 discriminator 8 view .LVU206
 964 00a8 002A     		cmp	r2, #0
 965 00aa BCD0     		beq	.L58
 966              		.loc 1 175 3 discriminator 10 view .LVU207
 967 00ac B8F1000F 		cmp	r8, #0
 968 00b0 02D0     		beq	.L59
 969              		.loc 1 175 3 discriminator 11 view .LVU208
ARM GAS  /tmp/ccB8jtFc.s 			page 18


 970 00b2 BAF1000F 		cmp	r10, #0
 971 00b6 B6D0     		beq	.L58
 972              	.L59:
 973              		.loc 1 175 3 discriminator 14 view .LVU209
 974 00b8 B9F1000F 		cmp	r9, #0
 975 00bc B6D1     		bne	.L60
 976 00be B2E7     		b	.L58
 977              	.LVL64:
 978              	.L89:
 979              	.LBB180:
 980              	.LBB177:
 981              	.LBB175:
 982              		.loc 3 367 3 is_stmt 1 view .LVU210
 983 00c0 0548     		ldr	r0, .L91+12
 984 00c2 FFF7FEFF 		bl	chSysHalt
 985              	.LVL65:
 986 00c6 E1E7     		b	.L63
 987              	.L90:
 988              	.LBE175:
 989              	.LBE177:
 990              	.LBE180:
 991              		.loc 1 195 1 is_stmt 0 view .LVU211
 992 00c8 FFF7FEFF 		bl	__stack_chk_fail
 993              	.LVL66:
 994              	.L92:
 995              		.align	2
 996              	.L91:
 997 00cc 00000000 		.word	.LC5
 998 00d0 00000000 		.word	.LANCHOR4
 999 00d4 00000000 		.word	ch
 1000 00d8 00000000 		.word	.LANCHOR1
 1001              		.cfi_endproc
 1002              	.LFE261:
 1003              		.size	i2cMasterTransmitTimeout, .-i2cMasterTransmitTimeout
 1004              		.section	.rodata.i2cMasterReceiveTimeout.cst4,"aM",%progbits,4
 1005              		.align	2
 1006              	.LC6:
 1007 0000 00000000 		.word	__stack_chk_guard
 1008              		.section	.text.i2cMasterReceiveTimeout,"ax",%progbits
 1009              		.align	1
 1010              		.p2align 4,,15
 1011              		.global	i2cMasterReceiveTimeout
 1012              		.syntax unified
 1013              		.thumb
 1014              		.thumb_func
 1015              		.fpu fpv4-sp-d16
 1016              		.type	i2cMasterReceiveTimeout, %function
 1017              	i2cMasterReceiveTimeout:
 1018              	.LVL67:
 1019              	.LFB262:
 1020              		.loc 1 221 49 is_stmt 1 view -0
 1021              		.cfi_startproc
 1022              		@ args = 4, pretend = 0, frame = 8
 1023              		@ frame_needed = 0, uses_anonymous_args = 0
 1024              		.loc 1 221 49 is_stmt 0 view .LVU213
 1025 0000 2DE9F041 		push	{r4, r5, r6, r7, r8, lr}
 1026              		.cfi_def_cfa_offset 24
ARM GAS  /tmp/ccB8jtFc.s 			page 19


 1027              		.cfi_offset 4, -24
 1028              		.cfi_offset 5, -20
 1029              		.cfi_offset 6, -16
 1030              		.cfi_offset 7, -12
 1031              		.cfi_offset 8, -8
 1032              		.cfi_offset 14, -4
 1033 0004 1E46     		mov	r6, r3
 1034 0006 84B0     		sub	sp, sp, #16
 1035              		.cfi_def_cfa_offset 40
 1036              		.loc 1 221 49 view .LVU214
 1037 0008 2B4B     		ldr	r3, .L120
 1038              	.LVL68:
 1039              		.loc 1 221 49 view .LVU215
 1040 000a DDF82880 		ldr	r8, [sp, #40]
 1041 000e 0D46     		mov	r5, r1
 1042 0010 1746     		mov	r7, r2
 1043 0012 1B68     		ldr	r3, [r3]
 1044 0014 0393     		str	r3, [sp, #12]
 1045 0016 4FF00003 		mov	r3,#0
 1046              		.loc 1 223 3 is_stmt 1 view .LVU216
 1047              		.loc 1 225 3 view .LVU217
 1048              		.loc 1 225 3 view .LVU218
 1049              		.loc 1 225 3 view .LVU219
 1050 001a 0446     		mov	r4, r0
 1051 001c 08B1     		cbz	r0, .L94
 1052              		.loc 1 225 3 is_stmt 0 discriminator 4 view .LVU220
 1053 001e 0029     		cmp	r1, #0
 1054 0020 3CD1     		bne	.L117
 1055              	.L94:
 1056              		.loc 1 225 3 is_stmt 1 discriminator 11 view .LVU221
 1057 0022 2648     		ldr	r0, .L120+4
 1058              	.LVL69:
 1059              		.loc 1 225 3 is_stmt 0 discriminator 11 view .LVU222
 1060 0024 FFF7FEFF 		bl	chSysHalt
 1061              	.LVL70:
 1062              	.L95:
 1063              		.loc 1 225 3 is_stmt 1 discriminator 1 view .LVU223
 1064              		.loc 1 229 3 discriminator 1 view .LVU224
 1065              		.loc 1 229 3 discriminator 1 view .LVU225
 1066              		.loc 1 229 3 discriminator 1 view .LVU226
 1067 0028 2378     		ldrb	r3, [r4]	@ zero_extendqisi2
 1068 002a 022B     		cmp	r3, #2
 1069 002c 02D0     		beq	.L96
 1070              		.loc 1 229 3 discriminator 3 view .LVU227
 1071 002e 2348     		ldr	r0, .L120+4
 1072 0030 FFF7FEFF 		bl	chSysHalt
 1073              	.LVL71:
 1074              	.L96:
 1075              		.loc 1 229 3 discriminator 5 view .LVU228
 1076              		.loc 1 231 3 discriminator 5 view .LVU229
 1077              	.LBB194:
 1078              	.LBI194:
 1079              		.loc 2 445 20 discriminator 5 view .LVU230
 1080              	.LBE194:
 1081              		.loc 2 447 3 discriminator 5 view .LVU231
 1082              	.LBB203:
 1083              	.LBB195:
ARM GAS  /tmp/ccB8jtFc.s 			page 20


 1084              	.LBI195:
 1085              		.loc 3 346 20 discriminator 5 view .LVU232
 1086              	.LBB196:
 1087              		.loc 3 348 3 discriminator 5 view .LVU233
 1088              	.LBB197:
 1089              	.LBI197:
 1090              		.loc 4 444 20 discriminator 5 view .LVU234
 1091              	.LBE197:
 1092              	.LBE196:
 1093              	.LBE195:
 1094              	.LBE203:
 1095              		.loc 4 447 3 discriminator 5 view .LVU235
 1096              	.LBB204:
 1097              	.LBB202:
 1098              	.LBB201:
 1099              	.LBB200:
 1100              	.LBB198:
 1101              	.LBI198:
 1102              		.loc 5 544 57 discriminator 5 view .LVU236
 1103              	.LBB199:
 1104              		.loc 5 546 3 discriminator 5 view .LVU237
 1105 0034 2023     		movs	r3, #32
 1106              		.syntax unified
 1107              	@ 546 ".//ChibiOS//os/ext/CMSIS/include/core_cmFunc.h" 1
 1108 0036 83F31188 		MSR basepri, r3
 1109              	@ 0 "" 2
 1110              	.LVL72:
 1111              		.loc 5 546 3 is_stmt 0 discriminator 5 view .LVU238
 1112              		.thumb
 1113              		.syntax unified
 1114              	.LBE199:
 1115              	.LBE198:
 1116              	.LBE200:
 1117              		.loc 3 349 3 is_stmt 1 discriminator 5 view .LVU239
 1118 003a FFF7FEFF 		bl	_stats_start_measure_crit_thd
 1119              	.LVL73:
 1120              		.loc 3 350 3 discriminator 5 view .LVU240
 1121 003e FFF7FEFF 		bl	_dbg_check_lock
 1122              	.LVL74:
 1123              	.LBE201:
 1124              	.LBE202:
 1125              	.LBE204:
 1126              		.loc 1 232 3 discriminator 5 view .LVU241
 1127              		.loc 1 232 16 is_stmt 0 discriminator 5 view .LVU242
 1128 0042 4FF0000C 		mov	ip, #0
 1129              		.loc 1 233 15 discriminator 5 view .LVU243
 1130 0046 0420     		movs	r0, #4
 1131              		.loc 1 234 12 discriminator 5 view .LVU244
 1132 0048 3A46     		mov	r2, r7
 1133 004a 2946     		mov	r1, r5
 1134 004c CDF80080 		str	r8, [sp]
 1135 0050 3346     		mov	r3, r6
 1136              		.loc 1 232 16 discriminator 5 view .LVU245
 1137 0052 C4F808C0 		str	ip, [r4, #8]
 1138              		.loc 1 233 3 is_stmt 1 discriminator 5 view .LVU246
 1139              		.loc 1 233 15 is_stmt 0 discriminator 5 view .LVU247
 1140 0056 2070     		strb	r0, [r4]
ARM GAS  /tmp/ccB8jtFc.s 			page 21


 1141              		.loc 1 234 3 is_stmt 1 discriminator 5 view .LVU248
 1142              		.loc 1 234 12 is_stmt 0 discriminator 5 view .LVU249
 1143 0058 2046     		mov	r0, r4
 1144 005a FFF7FEFF 		bl	i2c_lld_master_receive_timeout
 1145              	.LVL75:
 1146              		.loc 1 236 17 discriminator 5 view .LVU250
 1147 005e 431C     		adds	r3, r0, #1
 1148 0060 14BF     		ite	ne
 1149 0062 0223     		movne	r3, #2
 1150 0064 0523     		moveq	r3, #5
 1151 0066 2370     		strb	r3, [r4]
 1152              		.loc 1 234 12 discriminator 5 view .LVU251
 1153 0068 0546     		mov	r5, r0
 1154              	.LVL76:
 1155              		.loc 1 235 3 is_stmt 1 discriminator 5 view .LVU252
 1156              		.loc 1 241 3 discriminator 5 view .LVU253
 1157              	.LBB205:
 1158              	.LBI205:
 1159              		.loc 2 456 20 discriminator 5 view .LVU254
 1160              	.LBE205:
 1161              		.loc 2 458 3 discriminator 5 view .LVU255
 1162              	.LBB216:
 1163              	.LBB206:
 1164              	.LBI206:
 1165              		.loc 3 358 20 discriminator 5 view .LVU256
 1166              	.LBB207:
 1167              		.loc 3 360 3 discriminator 5 view .LVU257
 1168 006a FFF7FEFF 		bl	_dbg_check_unlock
 1169              	.LVL77:
 1170              		.loc 3 361 3 discriminator 5 view .LVU258
 1171 006e FFF7FEFF 		bl	_stats_stop_measure_crit_thd
 1172              	.LVL78:
 1173              		.loc 3 367 3 discriminator 5 view .LVU259
 1174              		.loc 3 367 3 discriminator 5 view .LVU260
 1175              		.loc 3 367 3 discriminator 5 view .LVU261
 1176 0072 134B     		ldr	r3, .L120+8
 1177 0074 1A68     		ldr	r2, [r3]
 1178 0076 9A42     		cmp	r2, r3
 1179 0078 04D0     		beq	.L98
 1180              		.loc 3 367 3 is_stmt 0 view .LVU262
 1181 007a 9969     		ldr	r1, [r3, #24]
 1182 007c 9368     		ldr	r3, [r2, #8]
 1183 007e 8A68     		ldr	r2, [r1, #8]
 1184 0080 9A42     		cmp	r2, r3
 1185 0082 13D3     		bcc	.L118
 1186              	.L98:
 1187              		.loc 3 367 3 is_stmt 1 view .LVU263
 1188              		.loc 3 371 3 view .LVU264
 1189              	.LBB208:
 1190              	.LBI208:
 1191              		.loc 4 458 20 view .LVU265
 1192              	.LBE208:
 1193              	.LBE207:
 1194              	.LBE206:
 1195              	.LBE216:
 1196              		.loc 4 461 3 view .LVU266
 1197              	.LVL79:
ARM GAS  /tmp/ccB8jtFc.s 			page 22


 1198              	.LBB217:
 1199              	.LBB214:
 1200              	.LBB212:
 1201              	.LBB211:
 1202              	.LBB209:
 1203              	.LBI209:
 1204              		.loc 5 544 57 view .LVU267
 1205              	.LBB210:
 1206              		.loc 5 546 3 view .LVU268
 1207 0084 0023     		movs	r3, #0
 1208              		.syntax unified
 1209              	@ 546 ".//ChibiOS//os/ext/CMSIS/include/core_cmFunc.h" 1
 1210 0086 83F31188 		MSR basepri, r3
 1211              	@ 0 "" 2
 1212              	.LVL80:
 1213              		.loc 5 546 3 is_stmt 0 view .LVU269
 1214              		.thumb
 1215              		.syntax unified
 1216              	.LBE210:
 1217              	.LBE209:
 1218              	.LBE211:
 1219              	.LBE212:
 1220              	.LBE214:
 1221              	.LBE217:
 1222              		.loc 1 242 3 is_stmt 1 view .LVU270
 1223              		.loc 1 243 1 is_stmt 0 view .LVU271
 1224 008a 0B4B     		ldr	r3, .L120
 1225 008c 1A68     		ldr	r2, [r3]
 1226 008e 039B     		ldr	r3, [sp, #12]
 1227 0090 5A40     		eors	r2, r3, r2
 1228 0092 0FD1     		bne	.L119
 1229 0094 2846     		mov	r0, r5
 1230 0096 04B0     		add	sp, sp, #16
 1231              		.cfi_remember_state
 1232              		.cfi_def_cfa_offset 24
 1233              		@ sp needed
 1234 0098 BDE8F081 		pop	{r4, r5, r6, r7, r8, pc}
 1235              	.LVL81:
 1236              	.L117:
 1237              		.cfi_restore_state
 1238              		.loc 1 225 3 discriminator 6 view .LVU272
 1239 009c 002E     		cmp	r6, #0
 1240 009e C0D0     		beq	.L94
 1241              		.loc 1 225 3 discriminator 8 view .LVU273
 1242 00a0 002A     		cmp	r2, #0
 1243 00a2 BED0     		beq	.L94
 1244              		.loc 1 225 3 discriminator 10 view .LVU274
 1245 00a4 B8F1000F 		cmp	r8, #0
 1246 00a8 BED1     		bne	.L95
 1247 00aa BAE7     		b	.L94
 1248              	.LVL82:
 1249              	.L118:
 1250              	.LBB218:
 1251              	.LBB215:
 1252              	.LBB213:
 1253              		.loc 3 367 3 is_stmt 1 view .LVU275
 1254 00ac 0548     		ldr	r0, .L120+12
ARM GAS  /tmp/ccB8jtFc.s 			page 23


 1255 00ae FFF7FEFF 		bl	chSysHalt
 1256              	.LVL83:
 1257 00b2 E7E7     		b	.L98
 1258              	.L119:
 1259              	.LBE213:
 1260              	.LBE215:
 1261              	.LBE218:
 1262              		.loc 1 243 1 is_stmt 0 view .LVU276
 1263 00b4 FFF7FEFF 		bl	__stack_chk_fail
 1264              	.LVL84:
 1265              	.L121:
 1266              		.align	2
 1267              	.L120:
 1268 00b8 00000000 		.word	.LC6
 1269 00bc 00000000 		.word	.LANCHOR5
 1270 00c0 00000000 		.word	ch
 1271 00c4 00000000 		.word	.LANCHOR1
 1272              		.cfi_endproc
 1273              	.LFE262:
 1274              		.size	i2cMasterReceiveTimeout, .-i2cMasterReceiveTimeout
 1275              		.section	.rodata.i2cAcquireBus.cst4,"aM",%progbits,4
 1276              		.align	2
 1277              	.LC7:
 1278 0000 00000000 		.word	__stack_chk_guard
 1279              		.section	.text.i2cAcquireBus,"ax",%progbits
 1280              		.align	1
 1281              		.p2align 4,,15
 1282              		.global	i2cAcquireBus
 1283              		.syntax unified
 1284              		.thumb
 1285              		.thumb_func
 1286              		.fpu fpv4-sp-d16
 1287              		.type	i2cAcquireBus, %function
 1288              	i2cAcquireBus:
 1289              	.LVL85:
 1290              	.LFB263:
 1291              		.loc 1 257 37 is_stmt 1 view -0
 1292              		.cfi_startproc
 1293              		@ args = 0, pretend = 0, frame = 8
 1294              		@ frame_needed = 0, uses_anonymous_args = 0
 1295              		.loc 1 257 37 is_stmt 0 view .LVU278
 1296 0000 10B5     		push	{r4, lr}
 1297              		.cfi_def_cfa_offset 8
 1298              		.cfi_offset 4, -8
 1299              		.cfi_offset 14, -4
 1300 0002 0D4B     		ldr	r3, .L129
 1301 0004 82B0     		sub	sp, sp, #8
 1302              		.cfi_def_cfa_offset 16
 1303              		.loc 1 257 37 view .LVU279
 1304 0006 1B68     		ldr	r3, [r3]
 1305 0008 0193     		str	r3, [sp, #4]
 1306 000a 4FF00003 		mov	r3,#0
 1307              		.loc 1 259 3 is_stmt 1 view .LVU280
 1308              		.loc 1 259 3 view .LVU281
 1309              		.loc 1 259 3 view .LVU282
 1310 000e 0446     		mov	r4, r0
 1311 0010 58B1     		cbz	r0, .L127
ARM GAS  /tmp/ccB8jtFc.s 			page 24


 1312              	.LVL86:
 1313              	.L123:
 1314              		.loc 1 259 3 discriminator 5 view .LVU283
 1315              		.loc 1 261 3 discriminator 5 view .LVU284
 1316              	.LBB219:
 1317              	.LBI219:
 1318              		.loc 2 858 20 discriminator 5 view .LVU285
 1319              	.LBB220:
 1320              		.loc 2 861 3 discriminator 5 view .LVU286
 1321 0012 094B     		ldr	r3, .L129
 1322 0014 1A68     		ldr	r2, [r3]
 1323 0016 019B     		ldr	r3, [sp, #4]
 1324 0018 5A40     		eors	r2, r3, r2
 1325 001a 0AD1     		bne	.L128
 1326 001c 04F10C00 		add	r0, r4, #12
 1327              	.LVL87:
 1328              		.loc 2 861 3 is_stmt 0 discriminator 5 view .LVU287
 1329              	.LBE220:
 1330              	.LBE219:
 1331              		.loc 1 262 1 discriminator 5 view .LVU288
 1332 0020 02B0     		add	sp, sp, #8
 1333              		.cfi_remember_state
 1334              		.cfi_def_cfa_offset 8
 1335              		@ sp needed
 1336 0022 BDE81040 		pop	{r4, lr}
 1337              		.cfi_restore 14
 1338              		.cfi_restore 4
 1339              		.cfi_def_cfa_offset 0
 1340              	.LVL88:
 1341              	.LBB223:
 1342              	.LBB221:
 1343              		.loc 2 861 3 discriminator 5 view .LVU289
 1344 0026 FFF7FEBF 		b	chMtxLock
 1345              	.LVL89:
 1346              	.L127:
 1347              		.cfi_restore_state
 1348              		.loc 2 861 3 discriminator 5 view .LVU290
 1349              	.LBE221:
 1350              	.LBE223:
 1351              		.loc 1 259 3 is_stmt 1 discriminator 3 view .LVU291
 1352 002a 0448     		ldr	r0, .L129+4
 1353              	.LVL90:
 1354              		.loc 1 259 3 is_stmt 0 discriminator 3 view .LVU292
 1355 002c FFF7FEFF 		bl	chSysHalt
 1356              	.LVL91:
 1357 0030 EFE7     		b	.L123
 1358              	.LVL92:
 1359              	.L128:
 1360              	.LBB224:
 1361              	.LBB222:
 1362              		.loc 2 861 3 discriminator 5 view .LVU293
 1363 0032 FFF7FEFF 		bl	__stack_chk_fail
 1364              	.LVL93:
 1365              	.L130:
 1366 0036 00BF     		.align	2
 1367              	.L129:
 1368 0038 00000000 		.word	.LC7
ARM GAS  /tmp/ccB8jtFc.s 			page 25


 1369 003c 00000000 		.word	.LANCHOR6
 1370              	.LBE222:
 1371              	.LBE224:
 1372              		.cfi_endproc
 1373              	.LFE263:
 1374              		.size	i2cAcquireBus, .-i2cAcquireBus
 1375              		.section	.rodata.i2cReleaseBus.cst4,"aM",%progbits,4
 1376              		.align	2
 1377              	.LC8:
 1378 0000 00000000 		.word	__stack_chk_guard
 1379              		.section	.text.i2cReleaseBus,"ax",%progbits
 1380              		.align	1
 1381              		.p2align 4,,15
 1382              		.global	i2cReleaseBus
 1383              		.syntax unified
 1384              		.thumb
 1385              		.thumb_func
 1386              		.fpu fpv4-sp-d16
 1387              		.type	i2cReleaseBus, %function
 1388              	i2cReleaseBus:
 1389              	.LVL94:
 1390              	.LFB264:
 1391              		.loc 1 273 37 is_stmt 1 view -0
 1392              		.cfi_startproc
 1393              		@ args = 0, pretend = 0, frame = 8
 1394              		@ frame_needed = 0, uses_anonymous_args = 0
 1395              		.loc 1 273 37 is_stmt 0 view .LVU295
 1396 0000 10B5     		push	{r4, lr}
 1397              		.cfi_def_cfa_offset 8
 1398              		.cfi_offset 4, -8
 1399              		.cfi_offset 14, -4
 1400 0002 0D4B     		ldr	r3, .L138
 1401 0004 82B0     		sub	sp, sp, #8
 1402              		.cfi_def_cfa_offset 16
 1403              		.loc 1 273 37 view .LVU296
 1404 0006 1B68     		ldr	r3, [r3]
 1405 0008 0193     		str	r3, [sp, #4]
 1406 000a 4FF00003 		mov	r3,#0
 1407              		.loc 1 275 3 is_stmt 1 view .LVU297
 1408              		.loc 1 275 3 view .LVU298
 1409              		.loc 1 275 3 view .LVU299
 1410 000e 0446     		mov	r4, r0
 1411 0010 58B1     		cbz	r0, .L136
 1412              	.LVL95:
 1413              	.L132:
 1414              		.loc 1 275 3 discriminator 5 view .LVU300
 1415              		.loc 1 277 3 discriminator 5 view .LVU301
 1416              	.LBB225:
 1417              	.LBI225:
 1418              		.loc 2 882 20 discriminator 5 view .LVU302
 1419              	.LBB226:
 1420              		.loc 2 885 3 discriminator 5 view .LVU303
 1421 0012 094B     		ldr	r3, .L138
 1422 0014 1A68     		ldr	r2, [r3]
 1423 0016 019B     		ldr	r3, [sp, #4]
 1424 0018 5A40     		eors	r2, r3, r2
 1425 001a 0AD1     		bne	.L137
ARM GAS  /tmp/ccB8jtFc.s 			page 26


 1426 001c 04F10C00 		add	r0, r4, #12
 1427              	.LVL96:
 1428              		.loc 2 885 3 is_stmt 0 discriminator 5 view .LVU304
 1429              	.LBE226:
 1430              	.LBE225:
 1431              		.loc 1 278 1 discriminator 5 view .LVU305
 1432 0020 02B0     		add	sp, sp, #8
 1433              		.cfi_remember_state
 1434              		.cfi_def_cfa_offset 8
 1435              		@ sp needed
 1436 0022 BDE81040 		pop	{r4, lr}
 1437              		.cfi_restore 14
 1438              		.cfi_restore 4
 1439              		.cfi_def_cfa_offset 0
 1440              	.LVL97:
 1441              	.LBB229:
 1442              	.LBB227:
 1443              		.loc 2 885 3 discriminator 5 view .LVU306
 1444 0026 FFF7FEBF 		b	chMtxUnlock
 1445              	.LVL98:
 1446              	.L136:
 1447              		.cfi_restore_state
 1448              		.loc 2 885 3 discriminator 5 view .LVU307
 1449              	.LBE227:
 1450              	.LBE229:
 1451              		.loc 1 275 3 is_stmt 1 discriminator 3 view .LVU308
 1452 002a 0448     		ldr	r0, .L138+4
 1453              	.LVL99:
 1454              		.loc 1 275 3 is_stmt 0 discriminator 3 view .LVU309
 1455 002c FFF7FEFF 		bl	chSysHalt
 1456              	.LVL100:
 1457 0030 EFE7     		b	.L132
 1458              	.LVL101:
 1459              	.L137:
 1460              	.LBB230:
 1461              	.LBB228:
 1462              		.loc 2 885 3 discriminator 5 view .LVU310
 1463 0032 FFF7FEFF 		bl	__stack_chk_fail
 1464              	.LVL102:
 1465              	.L139:
 1466 0036 00BF     		.align	2
 1467              	.L138:
 1468 0038 00000000 		.word	.LC8
 1469 003c 00000000 		.word	.LANCHOR7
 1470              	.LBE228:
 1471              	.LBE230:
 1472              		.cfi_endproc
 1473              	.LFE264:
 1474              		.size	i2cReleaseBus, .-i2cReleaseBus
 1475              		.section	.rodata.__func__.7261,"a"
 1476              		.align	2
 1477              		.set	.LANCHOR1,. + 0
 1478              		.type	__func__.7261, %object
 1479              		.size	__func__.7261, 12
 1480              	__func__.7261:
 1481 0000 63685379 		.ascii	"chSysUnlock\000"
 1481      73556E6C 
ARM GAS  /tmp/ccB8jtFc.s 			page 27


 1481      6F636B00 
 1482              		.section	.rodata.__func__.9956,"a"
 1483              		.align	2
 1484              		.set	.LANCHOR0,. + 0
 1485              		.type	__func__.9956, %object
 1486              		.size	__func__.9956, 9
 1487              	__func__.9956:
 1488 0000 69326353 		.ascii	"i2cStart\000"
 1488      74617274 
 1488      00
 1489              		.section	.rodata.__func__.9960,"a"
 1490              		.align	2
 1491              		.set	.LANCHOR2,. + 0
 1492              		.type	__func__.9960, %object
 1493              		.size	__func__.9960, 8
 1494              	__func__.9960:
 1495 0000 69326353 		.ascii	"i2cStop\000"
 1495      746F7000 
 1496              		.section	.rodata.__func__.9964,"a"
 1497              		.align	2
 1498              		.set	.LANCHOR3,. + 0
 1499              		.type	__func__.9964, %object
 1500              		.size	__func__.9964, 13
 1501              	__func__.9964:
 1502 0000 69326347 		.ascii	"i2cGetErrors\000"
 1502      65744572 
 1502      726F7273 
 1502      00
 1503              		.section	.rodata.__func__.9975,"a"
 1504              		.align	2
 1505              		.set	.LANCHOR4,. + 0
 1506              		.type	__func__.9975, %object
 1507              		.size	__func__.9975, 25
 1508              	__func__.9975:
 1509 0000 6932634D 		.ascii	"i2cMasterTransmitTimeout\000"
 1509      61737465 
 1509      72547261 
 1509      6E736D69 
 1509      7454696D 
 1510              		.section	.rodata.__func__.9984,"a"
 1511              		.align	2
 1512              		.set	.LANCHOR5,. + 0
 1513              		.type	__func__.9984, %object
 1514              		.size	__func__.9984, 24
 1515              	__func__.9984:
 1516 0000 6932634D 		.ascii	"i2cMasterReceiveTimeout\000"
 1516      61737465 
 1516      72526563 
 1516      65697665 
 1516      54696D65 
 1517              		.section	.rodata.__func__.9988,"a"
 1518              		.align	2
 1519              		.set	.LANCHOR6,. + 0
 1520              		.type	__func__.9988, %object
 1521              		.size	__func__.9988, 14
 1522              	__func__.9988:
 1523 0000 69326341 		.ascii	"i2cAcquireBus\000"
ARM GAS  /tmp/ccB8jtFc.s 			page 28


 1523      63717569 
 1523      72654275 
 1523      7300
 1524              		.section	.rodata.__func__.9992,"a"
 1525              		.align	2
 1526              		.set	.LANCHOR7,. + 0
 1527              		.type	__func__.9992, %object
 1528              		.size	__func__.9992, 14
 1529              	__func__.9992:
 1530 0000 69326352 		.ascii	"i2cReleaseBus\000"
 1530      656C6561 
 1530      73654275 
 1530      7300
 1531              		.text
 1532              	.Letext0:
 1533              		.file 6 "/usr/lib/gcc/arm-none-eabi/9.2.1/include/stddef.h"
 1534              		.file 7 "/usr/lib/gcc/arm-none-eabi/9.2.1/include/stdint.h"
 1535              		.file 8 ".//ChibiOS//os/rt/ports/ARMCMx/compilers/GCC/chtypes.h"
 1536              		.file 9 ".//ChibiOS//os/rt/include/chsystypes.h"
 1537              		.file 10 ".//ChibiOS//os/rt/include/chschd.h"
 1538              		.file 11 ".//ChibiOS//os/ext/CMSIS/include/core_cm4.h"
 1539              		.file 12 ".//ChibiOS//os/ext/CMSIS/ST/system_stm32f4xx.h"
 1540              		.file 13 ".//ChibiOS//os/ext/CMSIS/ST/stm32f407xx.h"
 1541              		.file 14 ".//ChibiOS//os/rt/ports/ARMCMx/chcore.h"
 1542              		.file 15 ".//ChibiOS//os/rt/include/chdebug.h"
 1543              		.file 16 ".//ChibiOS//os/rt/include/chtm.h"
 1544              		.file 17 ".//ChibiOS//os/rt/include/chstats.h"
 1545              		.file 18 ".//ChibiOS//os/rt/include/chsem.h"
 1546              		.file 19 ".//ChibiOS//os/rt/include/chmtx.h"
 1547              		.file 20 ".//ChibiOS//os/rt/include/chregistry.h"
 1548              		.file 21 ".//ChibiOS//os/rt/include/chevents.h"
 1549              		.file 22 ".//ChibiOS//os/rt/include/chqueues.h"
 1550              		.file 23 ".//ChibiOS//os/hal/ports/STM32/STM32F4xx/stm32_dma.h"
 1551              		.file 24 ".//ChibiOS//os/hal/include/hal_ioblock.h"
 1552              		.file 25 ".//ChibiOS//os/hal/ports/STM32/LLD/GPIOv2/pal_lld.h"
 1553              		.file 26 ".//ChibiOS//os/hal/include/adc.h"
 1554              		.file 27 ".//ChibiOS//os/hal/ports/STM32/STM32F4xx/adc_lld.h"
 1555              		.file 28 ".//ChibiOS//os/hal/include/can.h"
 1556              		.file 29 ".//ChibiOS//os/hal/ports/STM32/LLD/can_lld.h"
 1557              		.file 30 ".//ChibiOS//os/hal/include/dac.h"
 1558              		.file 31 ".//ChibiOS//os/hal/ports/STM32/LLD/DACv1/dac_lld.h"
 1559              		.file 32 ".//ChibiOS//os/hal/include/ext.h"
 1560              		.file 33 ".//ChibiOS//os/hal/ports/STM32/LLD/ext_lld.h"
 1561              		.file 34 ".//ChibiOS//os/hal/include/gpt.h"
 1562              		.file 35 ".//ChibiOS//os/hal/ports/STM32/LLD/TIMv1/gpt_lld.h"
 1563              		.file 36 ".//ChibiOS//os/hal/ports/STM32/LLD/TIMv1/stm32_tim.h"
 1564              		.file 37 ".//ChibiOS//os/hal/include/i2c.h"
 1565              		.file 38 ".//ChibiOS//os/hal/ports/STM32/LLD/I2Cv1/i2c_lld.h"
 1566              		.file 39 ".//ChibiOS//os/hal/include/i2s.h"
 1567              		.file 40 ".//ChibiOS//os/hal/ports/STM32/LLD/SPIv1/i2s_lld.h"
 1568              		.file 41 ".//ChibiOS//os/hal/include/pwm.h"
 1569              		.file 42 ".//ChibiOS//os/hal/ports/STM32/LLD/TIMv1/pwm_lld.h"
 1570              		.file 43 ".//ChibiOS//os/hal/include/serial.h"
 1571              		.file 44 ".//ChibiOS//os/hal/ports/STM32/LLD/USARTv1/serial_lld.h"
 1572              		.file 45 ".//ChibiOS//os/hal/include/sdc.h"
 1573              		.file 46 ".//ChibiOS//os/hal/ports/STM32/LLD/sdc_lld.h"
 1574              		.file 47 ".//ChibiOS//os/hal/include/spi.h"
ARM GAS  /tmp/ccB8jtFc.s 			page 29


 1575              		.file 48 ".//ChibiOS//os/hal/ports/STM32/LLD/SPIv1/spi_lld.h"
 1576              		.file 49 ".//ChibiOS//os/hal/include/usb.h"
 1577              		.file 50 ".//ChibiOS//os/hal/ports/STM32/LLD/OTGv1/usb_lld.h"
 1578              		.file 51 ".//ChibiOS//os/hal/ports/STM32/LLD/OTGv1/stm32_otg.h"