ARM GAS  /tmp/ccyhZpmv.s 			page 1


   1              		.cpu cortex-m4
   2              		.eabi_attribute 27, 1
   3              		.eabi_attribute 28, 1
   4              		.eabi_attribute 20, 1
   5              		.eabi_attribute 21, 1
   6              		.eabi_attribute 23, 3
   7              		.eabi_attribute 24, 1
   8              		.eabi_attribute 25, 1
   9              		.eabi_attribute 26, 1
  10              		.eabi_attribute 30, 2
  11              		.eabi_attribute 34, 1
  12              		.eabi_attribute 18, 4
  13              		.file	"i2s.c"
  14              		.text
  15              	.Ltext0:
  16              		.cfi_sections	.debug_frame
  17              		.section	.rodata.i2sInit.cst4,"aM",%progbits,4
  18              		.align	2
  19              	.LC0:
  20 0000 00000000 		.word	__stack_chk_guard
  21              		.section	.text.i2sInit,"ax",%progbits
  22              		.align	1
  23              		.p2align 4,,15
  24              		.global	i2sInit
  25              		.arch armv7e-m
  26              		.syntax unified
  27              		.thumb
  28              		.thumb_func
  29              		.fpu fpv4-sp-d16
  30              		.type	i2sInit, %function
  31              	i2sInit:
  32              	.LFB256:
  33              		.file 1 ".//ChibiOS//os/hal/src/i2s.c"
  34              		.loc 1 56 20 view -0
  35              		.cfi_startproc
  36              		@ args = 0, pretend = 0, frame = 8
  37              		@ frame_needed = 0, uses_anonymous_args = 0
  38 0000 00B5     		push	{lr}
  39              		.cfi_def_cfa_offset 4
  40              		.cfi_offset 14, -4
  41 0002 094B     		ldr	r3, .L7
  42 0004 83B0     		sub	sp, sp, #12
  43              		.cfi_def_cfa_offset 16
  44              		.loc 1 56 20 is_stmt 0 view .LVU1
  45 0006 1B68     		ldr	r3, [r3]
  46 0008 0193     		str	r3, [sp, #4]
  47 000a 4FF00003 		mov	r3,#0
  48              		.loc 1 58 3 is_stmt 1 view .LVU2
  49 000e 064B     		ldr	r3, .L7
  50 0010 1A68     		ldr	r2, [r3]
  51 0012 019B     		ldr	r3, [sp, #4]
  52 0014 5A40     		eors	r2, r3, r2
  53 0016 04D1     		bne	.L6
  54              		.loc 1 59 1 is_stmt 0 view .LVU3
  55 0018 03B0     		add	sp, sp, #12
  56              		.cfi_remember_state
  57              		.cfi_def_cfa_offset 4
ARM GAS  /tmp/ccyhZpmv.s 			page 2


  58              		@ sp needed
  59 001a 5DF804EB 		ldr	lr, [sp], #4
  60              		.cfi_restore 14
  61              		.cfi_def_cfa_offset 0
  62              		.loc 1 58 3 view .LVU4
  63 001e FFF7FEBF 		b	i2s_lld_init
  64              	.LVL0:
  65              	.L6:
  66              		.cfi_restore_state
  67 0022 FFF7FEFF 		bl	__stack_chk_fail
  68              	.LVL1:
  69              	.L8:
  70 0026 00BF     		.align	2
  71              	.L7:
  72 0028 00000000 		.word	.LC0
  73              		.cfi_endproc
  74              	.LFE256:
  75              		.size	i2sInit, .-i2sInit
  76              		.section	.rodata.i2sObjectInit.cst4,"aM",%progbits,4
  77              		.align	2
  78              	.LC1:
  79 0000 00000000 		.word	__stack_chk_guard
  80              		.section	.text.i2sObjectInit,"ax",%progbits
  81              		.align	1
  82              		.p2align 4,,15
  83              		.global	i2sObjectInit
  84              		.syntax unified
  85              		.thumb
  86              		.thumb_func
  87              		.fpu fpv4-sp-d16
  88              		.type	i2sObjectInit, %function
  89              	i2sObjectInit:
  90              	.LVL2:
  91              	.LFB257:
  92              		.loc 1 68 37 is_stmt 1 view -0
  93              		.cfi_startproc
  94              		@ args = 0, pretend = 0, frame = 8
  95              		@ frame_needed = 0, uses_anonymous_args = 0
  96              		.loc 1 68 37 is_stmt 0 view .LVU6
  97 0000 00B5     		push	{lr}
  98              		.cfi_def_cfa_offset 4
  99              		.cfi_offset 14, -4
 100 0002 0A4B     		ldr	r3, .L13
 101 0004 83B0     		sub	sp, sp, #12
 102              		.cfi_def_cfa_offset 16
 103              		.loc 1 68 37 view .LVU7
 104 0006 1B68     		ldr	r3, [r3]
 105 0008 0193     		str	r3, [sp, #4]
 106 000a 4FF00003 		mov	r3,#0
 107              		.loc 1 70 3 is_stmt 1 view .LVU8
 108              		.loc 1 71 16 is_stmt 0 view .LVU9
 109 000e 0023     		movs	r3, #0
 110              		.loc 1 70 16 view .LVU10
 111 0010 0122     		movs	r2, #1
 112              		.loc 1 71 16 view .LVU11
 113 0012 4360     		str	r3, [r0, #4]
 114              		.loc 1 72 1 view .LVU12
ARM GAS  /tmp/ccyhZpmv.s 			page 3


 115 0014 054B     		ldr	r3, .L13
 116              		.loc 1 70 16 view .LVU13
 117 0016 0270     		strb	r2, [r0]
 118              		.loc 1 71 3 is_stmt 1 view .LVU14
 119              		.loc 1 72 1 is_stmt 0 view .LVU15
 120 0018 1A68     		ldr	r2, [r3]
 121 001a 019B     		ldr	r3, [sp, #4]
 122 001c 5A40     		eors	r2, r3, r2
 123 001e 02D1     		bne	.L12
 124 0020 03B0     		add	sp, sp, #12
 125              		.cfi_remember_state
 126              		.cfi_def_cfa_offset 4
 127              		@ sp needed
 128 0022 5DF804FB 		ldr	pc, [sp], #4
 129              	.L12:
 130              		.cfi_restore_state
 131 0026 FFF7FEFF 		bl	__stack_chk_fail
 132              	.LVL3:
 133              	.L14:
 134              		.loc 1 72 1 view .LVU16
 135 002a 00BF     		.align	2
 136              	.L13:
 137 002c 00000000 		.word	.LC1
 138              		.cfi_endproc
 139              	.LFE257:
 140              		.size	i2sObjectInit, .-i2sObjectInit
 141              		.section	.rodata.i2sStart.cst4,"aM",%progbits,4
 142              		.align	2
 143              	.LC2:
 144 0000 00000000 		.word	__stack_chk_guard
 145              		.section	.text.i2sStart,"ax",%progbits
 146              		.align	1
 147              		.p2align 4,,15
 148              		.global	i2sStart
 149              		.syntax unified
 150              		.thumb
 151              		.thumb_func
 152              		.fpu fpv4-sp-d16
 153              		.type	i2sStart, %function
 154              	i2sStart:
 155              	.LVL4:
 156              	.LFB258:
 157              		.loc 1 82 57 is_stmt 1 view -0
 158              		.cfi_startproc
 159              		@ args = 0, pretend = 0, frame = 8
 160              		@ frame_needed = 0, uses_anonymous_args = 0
 161              		.loc 1 82 57 is_stmt 0 view .LVU18
 162 0000 30B5     		push	{r4, r5, lr}
 163              		.cfi_def_cfa_offset 12
 164              		.cfi_offset 4, -12
 165              		.cfi_offset 5, -8
 166              		.cfi_offset 14, -4
 167 0002 1F4B     		ldr	r3, .L27
 168 0004 83B0     		sub	sp, sp, #12
 169              		.cfi_def_cfa_offset 24
 170              		.loc 1 82 57 view .LVU19
 171 0006 0D46     		mov	r5, r1
ARM GAS  /tmp/ccyhZpmv.s 			page 4


 172 0008 1B68     		ldr	r3, [r3]
 173 000a 0193     		str	r3, [sp, #4]
 174 000c 4FF00003 		mov	r3,#0
 175              		.loc 1 84 3 is_stmt 1 view .LVU20
 176              		.loc 1 84 3 view .LVU21
 177              		.loc 1 84 3 view .LVU22
 178 0010 0446     		mov	r4, r0
 179 0012 78B3     		cbz	r0, .L16
 180              		.loc 1 84 3 is_stmt 0 discriminator 4 view .LVU23
 181 0014 71B3     		cbz	r1, .L16
 182              	.LVL5:
 183              	.L17:
 184              		.loc 1 84 3 is_stmt 1 discriminator 7 view .LVU24
 185              		.loc 1 86 3 discriminator 7 view .LVU25
 186              	.LBB68:
 187              	.LBI68:
 188              		.file 2 ".//ChibiOS//os/hal/osal/rt/osal.h"
 189              		.loc 2 445 20 discriminator 7 view .LVU26
 190              	.LBE68:
 191              		.loc 2 447 3 discriminator 7 view .LVU27
 192              	.LBB77:
 193              	.LBB69:
 194              	.LBI69:
 195              		.file 3 ".//ChibiOS//os/rt/include/chsys.h"
 196              		.loc 3 346 20 discriminator 7 view .LVU28
 197              	.LBB70:
 198              		.loc 3 348 3 discriminator 7 view .LVU29
 199              	.LBB71:
 200              	.LBI71:
 201              		.file 4 ".//ChibiOS//os/rt/ports/ARMCMx/chcore_v7m.h"
 202              		.loc 4 444 20 discriminator 7 view .LVU30
 203              	.LBE71:
 204              	.LBE70:
 205              	.LBE69:
 206              	.LBE77:
 207              		.loc 4 447 3 discriminator 7 view .LVU31
 208              	.LBB78:
 209              	.LBB76:
 210              	.LBB75:
 211              	.LBB74:
 212              	.LBB72:
 213              	.LBI72:
 214              		.file 5 ".//ChibiOS//os/ext/CMSIS/include/core_cmFunc.h"
 215              		.loc 5 544 57 discriminator 7 view .LVU32
 216              	.LBB73:
 217              		.loc 5 546 3 discriminator 7 view .LVU33
 218 0016 2023     		movs	r3, #32
 219              		.syntax unified
 220              	@ 546 ".//ChibiOS//os/ext/CMSIS/include/core_cmFunc.h" 1
 221 0018 83F31188 		MSR basepri, r3
 222              	@ 0 "" 2
 223              	.LVL6:
 224              		.loc 5 546 3 is_stmt 0 discriminator 7 view .LVU34
 225              		.thumb
 226              		.syntax unified
 227              	.LBE73:
 228              	.LBE72:
ARM GAS  /tmp/ccyhZpmv.s 			page 5


 229              	.LBE74:
 230              		.loc 3 349 3 is_stmt 1 discriminator 7 view .LVU35
 231 001c FFF7FEFF 		bl	_stats_start_measure_crit_thd
 232              	.LVL7:
 233              		.loc 3 350 3 discriminator 7 view .LVU36
 234 0020 FFF7FEFF 		bl	_dbg_check_lock
 235              	.LVL8:
 236              	.LBE75:
 237              	.LBE76:
 238              	.LBE78:
 239              		.loc 1 87 3 discriminator 7 view .LVU37
 240              		.loc 1 87 3 discriminator 7 view .LVU38
 241              		.loc 1 87 3 discriminator 7 view .LVU39
 242 0024 2378     		ldrb	r3, [r4]	@ zero_extendqisi2
 243 0026 013B     		subs	r3, r3, #1
 244 0028 012B     		cmp	r3, #1
 245 002a 02D9     		bls	.L18
 246              		.loc 1 87 3 discriminator 3 view .LVU40
 247 002c 1548     		ldr	r0, .L27+4
 248 002e FFF7FEFF 		bl	chSysHalt
 249              	.LVL9:
 250              	.L18:
 251              		.loc 1 87 3 discriminator 5 view .LVU41
 252              		.loc 1 89 3 discriminator 5 view .LVU42
 253              		.loc 1 90 3 is_stmt 0 discriminator 5 view .LVU43
 254 0032 2046     		mov	r0, r4
 255              		.loc 1 89 16 discriminator 5 view .LVU44
 256 0034 6560     		str	r5, [r4, #4]
 257              		.loc 1 90 3 is_stmt 1 discriminator 5 view .LVU45
 258 0036 FFF7FEFF 		bl	i2s_lld_start
 259              	.LVL10:
 260              		.loc 1 91 3 discriminator 5 view .LVU46
 261              		.loc 1 91 15 is_stmt 0 discriminator 5 view .LVU47
 262 003a 0223     		movs	r3, #2
 263 003c 2370     		strb	r3, [r4]
 264              		.loc 1 92 3 is_stmt 1 discriminator 5 view .LVU48
 265              	.LBB79:
 266              	.LBI79:
 267              		.loc 2 456 20 discriminator 5 view .LVU49
 268              	.LBE79:
 269              		.loc 2 458 3 discriminator 5 view .LVU50
 270              	.LBB90:
 271              	.LBB80:
 272              	.LBI80:
 273              		.loc 3 358 20 discriminator 5 view .LVU51
 274              	.LBB81:
 275              		.loc 3 360 3 discriminator 5 view .LVU52
 276 003e FFF7FEFF 		bl	_dbg_check_unlock
 277              	.LVL11:
 278              		.loc 3 361 3 discriminator 5 view .LVU53
 279 0042 FFF7FEFF 		bl	_stats_stop_measure_crit_thd
 280              	.LVL12:
 281              		.loc 3 367 3 discriminator 5 view .LVU54
 282              		.loc 3 367 3 discriminator 5 view .LVU55
 283              		.loc 3 367 3 discriminator 5 view .LVU56
 284 0046 104B     		ldr	r3, .L27+8
 285 0048 1A68     		ldr	r2, [r3]
ARM GAS  /tmp/ccyhZpmv.s 			page 6


 286 004a 9A42     		cmp	r2, r3
 287 004c 04D0     		beq	.L19
 288              		.loc 3 367 3 is_stmt 0 view .LVU57
 289 004e 9969     		ldr	r1, [r3, #24]
 290 0050 9368     		ldr	r3, [r2, #8]
 291 0052 8A68     		ldr	r2, [r1, #8]
 292 0054 9A42     		cmp	r2, r3
 293 0056 09D3     		bcc	.L25
 294              	.L19:
 295              		.loc 3 367 3 is_stmt 1 view .LVU58
 296              		.loc 3 371 3 view .LVU59
 297              	.LBB82:
 298              	.LBI82:
 299              		.loc 4 458 20 view .LVU60
 300              	.LBE82:
 301              	.LBE81:
 302              	.LBE80:
 303              	.LBE90:
 304              		.loc 4 461 3 view .LVU61
 305              	.LVL13:
 306              	.LBB91:
 307              	.LBB88:
 308              	.LBB86:
 309              	.LBB85:
 310              	.LBB83:
 311              	.LBI83:
 312              		.loc 5 544 57 view .LVU62
 313              	.LBB84:
 314              		.loc 5 546 3 view .LVU63
 315 0058 0023     		movs	r3, #0
 316              		.syntax unified
 317              	@ 546 ".//ChibiOS//os/ext/CMSIS/include/core_cmFunc.h" 1
 318 005a 83F31188 		MSR basepri, r3
 319              	@ 0 "" 2
 320              	.LVL14:
 321              		.loc 5 546 3 is_stmt 0 view .LVU64
 322              		.thumb
 323              		.syntax unified
 324              	.LBE84:
 325              	.LBE83:
 326              	.LBE85:
 327              	.LBE86:
 328              	.LBE88:
 329              	.LBE91:
 330              		.loc 1 93 1 view .LVU65
 331 005e 084B     		ldr	r3, .L27
 332 0060 1A68     		ldr	r2, [r3]
 333 0062 019B     		ldr	r3, [sp, #4]
 334 0064 5A40     		eors	r2, r3, r2
 335 0066 09D1     		bne	.L26
 336 0068 03B0     		add	sp, sp, #12
 337              		.cfi_remember_state
 338              		.cfi_def_cfa_offset 12
 339              		@ sp needed
 340 006a 30BD     		pop	{r4, r5, pc}
 341              	.LVL15:
 342              	.L25:
ARM GAS  /tmp/ccyhZpmv.s 			page 7


 343              		.cfi_restore_state
 344              	.LBB92:
 345              	.LBB89:
 346              	.LBB87:
 347              		.loc 3 367 3 is_stmt 1 view .LVU66
 348 006c 0748     		ldr	r0, .L27+12
 349 006e FFF7FEFF 		bl	chSysHalt
 350              	.LVL16:
 351 0072 F1E7     		b	.L19
 352              	.LVL17:
 353              	.L16:
 354              		.loc 3 367 3 is_stmt 0 view .LVU67
 355              	.LBE87:
 356              	.LBE89:
 357              	.LBE92:
 358              		.loc 1 84 3 is_stmt 1 discriminator 5 view .LVU68
 359 0074 0348     		ldr	r0, .L27+4
 360              	.LVL18:
 361              		.loc 1 84 3 is_stmt 0 discriminator 5 view .LVU69
 362 0076 FFF7FEFF 		bl	chSysHalt
 363              	.LVL19:
 364              		.loc 1 84 3 discriminator 5 view .LVU70
 365 007a CCE7     		b	.L17
 366              	.L26:
 367              		.loc 1 93 1 view .LVU71
 368 007c FFF7FEFF 		bl	__stack_chk_fail
 369              	.LVL20:
 370              	.L28:
 371              		.align	2
 372              	.L27:
 373 0080 00000000 		.word	.LC2
 374 0084 00000000 		.word	.LANCHOR0
 375 0088 00000000 		.word	ch
 376 008c 00000000 		.word	.LANCHOR1
 377              		.cfi_endproc
 378              	.LFE258:
 379              		.size	i2sStart, .-i2sStart
 380              		.section	.rodata.i2sStop.cst4,"aM",%progbits,4
 381              		.align	2
 382              	.LC3:
 383 0000 00000000 		.word	__stack_chk_guard
 384              		.section	.text.i2sStop,"ax",%progbits
 385              		.align	1
 386              		.p2align 4,,15
 387              		.global	i2sStop
 388              		.syntax unified
 389              		.thumb
 390              		.thumb_func
 391              		.fpu fpv4-sp-d16
 392              		.type	i2sStop, %function
 393              	i2sStop:
 394              	.LVL21:
 395              	.LFB259:
 396              		.loc 1 102 31 is_stmt 1 view -0
 397              		.cfi_startproc
 398              		@ args = 0, pretend = 0, frame = 8
 399              		@ frame_needed = 0, uses_anonymous_args = 0
ARM GAS  /tmp/ccyhZpmv.s 			page 8


 400              		.loc 1 102 31 is_stmt 0 view .LVU73
 401 0000 10B5     		push	{r4, lr}
 402              		.cfi_def_cfa_offset 8
 403              		.cfi_offset 4, -8
 404              		.cfi_offset 14, -4
 405 0002 1E4B     		ldr	r3, .L38
 406 0004 82B0     		sub	sp, sp, #8
 407              		.cfi_def_cfa_offset 16
 408              		.loc 1 102 31 view .LVU74
 409 0006 1B68     		ldr	r3, [r3]
 410 0008 0193     		str	r3, [sp, #4]
 411 000a 4FF00003 		mov	r3,#0
 412              		.loc 1 104 3 is_stmt 1 view .LVU75
 413              		.loc 1 104 3 view .LVU76
 414              		.loc 1 104 3 view .LVU77
 415 000e 0446     		mov	r4, r0
 416 0010 68B3     		cbz	r0, .L35
 417              	.LVL22:
 418              	.L30:
 419              		.loc 1 104 3 discriminator 5 view .LVU78
 420              		.loc 1 106 3 discriminator 5 view .LVU79
 421              	.LBB106:
 422              	.LBI106:
 423              		.loc 2 445 20 discriminator 5 view .LVU80
 424              	.LBE106:
 425              		.loc 2 447 3 discriminator 5 view .LVU81
 426              	.LBB115:
 427              	.LBB107:
 428              	.LBI107:
 429              		.loc 3 346 20 discriminator 5 view .LVU82
 430              	.LBB108:
 431              		.loc 3 348 3 discriminator 5 view .LVU83
 432              	.LBB109:
 433              	.LBI109:
 434              		.loc 4 444 20 discriminator 5 view .LVU84
 435              	.LBE109:
 436              	.LBE108:
 437              	.LBE107:
 438              	.LBE115:
 439              		.loc 4 447 3 discriminator 5 view .LVU85
 440              	.LBB116:
 441              	.LBB114:
 442              	.LBB113:
 443              	.LBB112:
 444              	.LBB110:
 445              	.LBI110:
 446              		.loc 5 544 57 discriminator 5 view .LVU86
 447              	.LBB111:
 448              		.loc 5 546 3 discriminator 5 view .LVU87
 449 0012 2023     		movs	r3, #32
 450              		.syntax unified
 451              	@ 546 ".//ChibiOS//os/ext/CMSIS/include/core_cmFunc.h" 1
 452 0014 83F31188 		MSR basepri, r3
 453              	@ 0 "" 2
 454              	.LVL23:
 455              		.loc 5 546 3 is_stmt 0 discriminator 5 view .LVU88
 456              		.thumb
ARM GAS  /tmp/ccyhZpmv.s 			page 9


 457              		.syntax unified
 458              	.LBE111:
 459              	.LBE110:
 460              	.LBE112:
 461              		.loc 3 349 3 is_stmt 1 discriminator 5 view .LVU89
 462 0018 FFF7FEFF 		bl	_stats_start_measure_crit_thd
 463              	.LVL24:
 464              		.loc 3 350 3 discriminator 5 view .LVU90
 465 001c FFF7FEFF 		bl	_dbg_check_lock
 466              	.LVL25:
 467              	.LBE113:
 468              	.LBE114:
 469              	.LBE116:
 470              		.loc 1 107 3 discriminator 5 view .LVU91
 471              		.loc 1 107 3 discriminator 5 view .LVU92
 472              		.loc 1 107 3 discriminator 5 view .LVU93
 473 0020 2378     		ldrb	r3, [r4]	@ zero_extendqisi2
 474 0022 013B     		subs	r3, r3, #1
 475 0024 012B     		cmp	r3, #1
 476 0026 02D9     		bls	.L31
 477              		.loc 1 107 3 discriminator 3 view .LVU94
 478 0028 1548     		ldr	r0, .L38+4
 479 002a FFF7FEFF 		bl	chSysHalt
 480              	.LVL26:
 481              	.L31:
 482              		.loc 1 107 3 discriminator 5 view .LVU95
 483              		.loc 1 109 3 discriminator 5 view .LVU96
 484 002e 2046     		mov	r0, r4
 485 0030 FFF7FEFF 		bl	i2s_lld_stop
 486              	.LVL27:
 487              		.loc 1 110 3 discriminator 5 view .LVU97
 488              		.loc 1 110 15 is_stmt 0 discriminator 5 view .LVU98
 489 0034 0123     		movs	r3, #1
 490 0036 2370     		strb	r3, [r4]
 491              		.loc 1 111 3 is_stmt 1 discriminator 5 view .LVU99
 492              	.LBB117:
 493              	.LBI117:
 494              		.loc 2 456 20 discriminator 5 view .LVU100
 495              	.LBE117:
 496              		.loc 2 458 3 discriminator 5 view .LVU101
 497              	.LBB128:
 498              	.LBB118:
 499              	.LBI118:
 500              		.loc 3 358 20 discriminator 5 view .LVU102
 501              	.LBB119:
 502              		.loc 3 360 3 discriminator 5 view .LVU103
 503 0038 FFF7FEFF 		bl	_dbg_check_unlock
 504              	.LVL28:
 505              		.loc 3 361 3 discriminator 5 view .LVU104
 506 003c FFF7FEFF 		bl	_stats_stop_measure_crit_thd
 507              	.LVL29:
 508              		.loc 3 367 3 discriminator 5 view .LVU105
 509              		.loc 3 367 3 discriminator 5 view .LVU106
 510              		.loc 3 367 3 discriminator 5 view .LVU107
 511 0040 104B     		ldr	r3, .L38+8
 512 0042 1A68     		ldr	r2, [r3]
 513 0044 9A42     		cmp	r2, r3
ARM GAS  /tmp/ccyhZpmv.s 			page 10


 514 0046 04D0     		beq	.L32
 515              		.loc 3 367 3 is_stmt 0 view .LVU108
 516 0048 9969     		ldr	r1, [r3, #24]
 517 004a 9368     		ldr	r3, [r2, #8]
 518 004c 8A68     		ldr	r2, [r1, #8]
 519 004e 9A42     		cmp	r2, r3
 520 0050 09D3     		bcc	.L36
 521              	.L32:
 522              		.loc 3 367 3 is_stmt 1 view .LVU109
 523              		.loc 3 371 3 view .LVU110
 524              	.LBB120:
 525              	.LBI120:
 526              		.loc 4 458 20 view .LVU111
 527              	.LBE120:
 528              	.LBE119:
 529              	.LBE118:
 530              	.LBE128:
 531              		.loc 4 461 3 view .LVU112
 532              	.LVL30:
 533              	.LBB129:
 534              	.LBB126:
 535              	.LBB124:
 536              	.LBB123:
 537              	.LBB121:
 538              	.LBI121:
 539              		.loc 5 544 57 view .LVU113
 540              	.LBB122:
 541              		.loc 5 546 3 view .LVU114
 542 0052 0023     		movs	r3, #0
 543              		.syntax unified
 544              	@ 546 ".//ChibiOS//os/ext/CMSIS/include/core_cmFunc.h" 1
 545 0054 83F31188 		MSR basepri, r3
 546              	@ 0 "" 2
 547              	.LVL31:
 548              		.loc 5 546 3 is_stmt 0 view .LVU115
 549              		.thumb
 550              		.syntax unified
 551              	.LBE122:
 552              	.LBE121:
 553              	.LBE123:
 554              	.LBE124:
 555              	.LBE126:
 556              	.LBE129:
 557              		.loc 1 112 1 view .LVU116
 558 0058 084B     		ldr	r3, .L38
 559 005a 1A68     		ldr	r2, [r3]
 560 005c 019B     		ldr	r3, [sp, #4]
 561 005e 5A40     		eors	r2, r3, r2
 562 0060 09D1     		bne	.L37
 563 0062 02B0     		add	sp, sp, #8
 564              		.cfi_remember_state
 565              		.cfi_def_cfa_offset 8
 566              		@ sp needed
 567 0064 10BD     		pop	{r4, pc}
 568              	.LVL32:
 569              	.L36:
 570              		.cfi_restore_state
ARM GAS  /tmp/ccyhZpmv.s 			page 11


 571              	.LBB130:
 572              	.LBB127:
 573              	.LBB125:
 574              		.loc 3 367 3 is_stmt 1 view .LVU117
 575 0066 0848     		ldr	r0, .L38+12
 576 0068 FFF7FEFF 		bl	chSysHalt
 577              	.LVL33:
 578 006c F1E7     		b	.L32
 579              	.LVL34:
 580              	.L35:
 581              		.loc 3 367 3 is_stmt 0 view .LVU118
 582              	.LBE125:
 583              	.LBE127:
 584              	.LBE130:
 585              		.loc 1 104 3 is_stmt 1 discriminator 3 view .LVU119
 586 006e 0448     		ldr	r0, .L38+4
 587              	.LVL35:
 588              		.loc 1 104 3 is_stmt 0 discriminator 3 view .LVU120
 589 0070 FFF7FEFF 		bl	chSysHalt
 590              	.LVL36:
 591 0074 CDE7     		b	.L30
 592              	.L37:
 593              		.loc 1 112 1 view .LVU121
 594 0076 FFF7FEFF 		bl	__stack_chk_fail
 595              	.LVL37:
 596              	.L39:
 597 007a 00BF     		.align	2
 598              	.L38:
 599 007c 00000000 		.word	.LC3
 600 0080 00000000 		.word	.LANCHOR2
 601 0084 00000000 		.word	ch
 602 0088 00000000 		.word	.LANCHOR1
 603              		.cfi_endproc
 604              	.LFE259:
 605              		.size	i2sStop, .-i2sStop
 606              		.section	.rodata.i2sStartExchange.cst4,"aM",%progbits,4
 607              		.align	2
 608              	.LC4:
 609 0000 00000000 		.word	__stack_chk_guard
 610              		.section	.text.i2sStartExchange,"ax",%progbits
 611              		.align	1
 612              		.p2align 4,,15
 613              		.global	i2sStartExchange
 614              		.syntax unified
 615              		.thumb
 616              		.thumb_func
 617              		.fpu fpv4-sp-d16
 618              		.type	i2sStartExchange, %function
 619              	i2sStartExchange:
 620              	.LVL38:
 621              	.LFB260:
 622              		.loc 1 121 40 is_stmt 1 view -0
 623              		.cfi_startproc
 624              		@ args = 0, pretend = 0, frame = 8
 625              		@ frame_needed = 0, uses_anonymous_args = 0
 626              		.loc 1 121 40 is_stmt 0 view .LVU123
 627 0000 10B5     		push	{r4, lr}
ARM GAS  /tmp/ccyhZpmv.s 			page 12


 628              		.cfi_def_cfa_offset 8
 629              		.cfi_offset 4, -8
 630              		.cfi_offset 14, -4
 631 0002 1D4B     		ldr	r3, .L52
 632 0004 82B0     		sub	sp, sp, #8
 633              		.cfi_def_cfa_offset 16
 634              		.loc 1 121 40 view .LVU124
 635 0006 1B68     		ldr	r3, [r3]
 636 0008 0193     		str	r3, [sp, #4]
 637 000a 4FF00003 		mov	r3,#0
 638              		.loc 1 123 3 is_stmt 1 view .LVU125
 639              		.loc 1 123 3 view .LVU126
 640              		.loc 1 123 3 view .LVU127
 641 000e 0446     		mov	r4, r0
 642 0010 60B3     		cbz	r0, .L49
 643              	.LVL39:
 644              	.L41:
 645              		.loc 1 123 3 discriminator 5 view .LVU128
 646              		.loc 1 125 3 discriminator 5 view .LVU129
 647              	.LBB144:
 648              	.LBI144:
 649              		.loc 2 445 20 discriminator 5 view .LVU130
 650              	.LBE144:
 651              		.loc 2 447 3 discriminator 5 view .LVU131
 652              	.LBB153:
 653              	.LBB145:
 654              	.LBI145:
 655              		.loc 3 346 20 discriminator 5 view .LVU132
 656              	.LBB146:
 657              		.loc 3 348 3 discriminator 5 view .LVU133
 658              	.LBB147:
 659              	.LBI147:
 660              		.loc 4 444 20 discriminator 5 view .LVU134
 661              	.LBE147:
 662              	.LBE146:
 663              	.LBE145:
 664              	.LBE153:
 665              		.loc 4 447 3 discriminator 5 view .LVU135
 666              	.LBB154:
 667              	.LBB152:
 668              	.LBB151:
 669              	.LBB150:
 670              	.LBB148:
 671              	.LBI148:
 672              		.loc 5 544 57 discriminator 5 view .LVU136
 673              	.LBB149:
 674              		.loc 5 546 3 discriminator 5 view .LVU137
 675 0012 2023     		movs	r3, #32
 676              		.syntax unified
 677              	@ 546 ".//ChibiOS//os/ext/CMSIS/include/core_cmFunc.h" 1
 678 0014 83F31188 		MSR basepri, r3
 679              	@ 0 "" 2
 680              	.LVL40:
 681              		.loc 5 546 3 is_stmt 0 discriminator 5 view .LVU138
 682              		.thumb
 683              		.syntax unified
 684              	.LBE149:
ARM GAS  /tmp/ccyhZpmv.s 			page 13


 685              	.LBE148:
 686              	.LBE150:
 687              		.loc 3 349 3 is_stmt 1 discriminator 5 view .LVU139
 688 0018 FFF7FEFF 		bl	_stats_start_measure_crit_thd
 689              	.LVL41:
 690              		.loc 3 350 3 discriminator 5 view .LVU140
 691 001c FFF7FEFF 		bl	_dbg_check_lock
 692              	.LVL42:
 693              	.LBE151:
 694              	.LBE152:
 695              	.LBE154:
 696              		.loc 1 126 3 discriminator 5 view .LVU141
 697              		.loc 1 126 3 discriminator 5 view .LVU142
 698              		.loc 1 126 3 discriminator 5 view .LVU143
 699 0020 2378     		ldrb	r3, [r4]	@ zero_extendqisi2
 700 0022 022B     		cmp	r3, #2
 701 0024 02D0     		beq	.L42
 702              		.loc 1 126 3 discriminator 3 view .LVU144
 703 0026 1548     		ldr	r0, .L52+4
 704 0028 FFF7FEFF 		bl	chSysHalt
 705              	.LVL43:
 706              	.L42:
 707              		.loc 1 126 3 discriminator 5 view .LVU145
 708              		.loc 1 127 3 discriminator 5 view .LVU146
 709 002c 2046     		mov	r0, r4
 710 002e FFF7FEFF 		bl	i2s_lld_start_exchange
 711              	.LVL44:
 712              		.loc 1 127 3 discriminator 5 view .LVU147
 713 0032 0323     		movs	r3, #3
 714 0034 2370     		strb	r3, [r4]
 715              		.loc 1 127 26 discriminator 5 view .LVU148
 716              		.loc 1 128 3 discriminator 5 view .LVU149
 717              	.LBB155:
 718              	.LBI155:
 719              		.loc 2 456 20 discriminator 5 view .LVU150
 720              	.LBE155:
 721              		.loc 2 458 3 discriminator 5 view .LVU151
 722              	.LBB166:
 723              	.LBB156:
 724              	.LBI156:
 725              		.loc 3 358 20 discriminator 5 view .LVU152
 726              	.LBB157:
 727              		.loc 3 360 3 discriminator 5 view .LVU153
 728 0036 FFF7FEFF 		bl	_dbg_check_unlock
 729              	.LVL45:
 730              		.loc 3 361 3 discriminator 5 view .LVU154
 731 003a FFF7FEFF 		bl	_stats_stop_measure_crit_thd
 732              	.LVL46:
 733              		.loc 3 367 3 discriminator 5 view .LVU155
 734              		.loc 3 367 3 discriminator 5 view .LVU156
 735              		.loc 3 367 3 discriminator 5 view .LVU157
 736 003e 104B     		ldr	r3, .L52+8
 737 0040 1A68     		ldr	r2, [r3]
 738 0042 9A42     		cmp	r2, r3
 739 0044 04D0     		beq	.L43
 740              		.loc 3 367 3 is_stmt 0 view .LVU158
 741 0046 9969     		ldr	r1, [r3, #24]
ARM GAS  /tmp/ccyhZpmv.s 			page 14


 742 0048 9368     		ldr	r3, [r2, #8]
 743 004a 8A68     		ldr	r2, [r1, #8]
 744 004c 9A42     		cmp	r2, r3
 745 004e 09D3     		bcc	.L50
 746              	.L43:
 747              		.loc 3 367 3 is_stmt 1 view .LVU159
 748              		.loc 3 371 3 view .LVU160
 749              	.LBB158:
 750              	.LBI158:
 751              		.loc 4 458 20 view .LVU161
 752              	.LBE158:
 753              	.LBE157:
 754              	.LBE156:
 755              	.LBE166:
 756              		.loc 4 461 3 view .LVU162
 757              	.LVL47:
 758              	.LBB167:
 759              	.LBB164:
 760              	.LBB162:
 761              	.LBB161:
 762              	.LBB159:
 763              	.LBI159:
 764              		.loc 5 544 57 view .LVU163
 765              	.LBB160:
 766              		.loc 5 546 3 view .LVU164
 767 0050 0023     		movs	r3, #0
 768              		.syntax unified
 769              	@ 546 ".//ChibiOS//os/ext/CMSIS/include/core_cmFunc.h" 1
 770 0052 83F31188 		MSR basepri, r3
 771              	@ 0 "" 2
 772              	.LVL48:
 773              		.loc 5 546 3 is_stmt 0 view .LVU165
 774              		.thumb
 775              		.syntax unified
 776              	.LBE160:
 777              	.LBE159:
 778              	.LBE161:
 779              	.LBE162:
 780              	.LBE164:
 781              	.LBE167:
 782              		.loc 1 129 1 view .LVU166
 783 0056 084B     		ldr	r3, .L52
 784 0058 1A68     		ldr	r2, [r3]
 785 005a 019B     		ldr	r3, [sp, #4]
 786 005c 5A40     		eors	r2, r3, r2
 787 005e 09D1     		bne	.L51
 788 0060 02B0     		add	sp, sp, #8
 789              		.cfi_remember_state
 790              		.cfi_def_cfa_offset 8
 791              		@ sp needed
 792 0062 10BD     		pop	{r4, pc}
 793              	.LVL49:
 794              	.L50:
 795              		.cfi_restore_state
 796              	.LBB168:
 797              	.LBB165:
 798              	.LBB163:
ARM GAS  /tmp/ccyhZpmv.s 			page 15


 799              		.loc 3 367 3 is_stmt 1 view .LVU167
 800 0064 0748     		ldr	r0, .L52+12
 801 0066 FFF7FEFF 		bl	chSysHalt
 802              	.LVL50:
 803 006a F1E7     		b	.L43
 804              	.LVL51:
 805              	.L49:
 806              		.loc 3 367 3 is_stmt 0 view .LVU168
 807              	.LBE163:
 808              	.LBE165:
 809              	.LBE168:
 810              		.loc 1 123 3 is_stmt 1 discriminator 3 view .LVU169
 811 006c 0348     		ldr	r0, .L52+4
 812              	.LVL52:
 813              		.loc 1 123 3 is_stmt 0 discriminator 3 view .LVU170
 814 006e FFF7FEFF 		bl	chSysHalt
 815              	.LVL53:
 816 0072 CEE7     		b	.L41
 817              	.L51:
 818              		.loc 1 129 1 view .LVU171
 819 0074 FFF7FEFF 		bl	__stack_chk_fail
 820              	.LVL54:
 821              	.L53:
 822              		.align	2
 823              	.L52:
 824 0078 00000000 		.word	.LC4
 825 007c 00000000 		.word	.LANCHOR3
 826 0080 00000000 		.word	ch
 827 0084 00000000 		.word	.LANCHOR1
 828              		.cfi_endproc
 829              	.LFE260:
 830              		.size	i2sStartExchange, .-i2sStartExchange
 831              		.section	.rodata.i2sStopExchange.cst4,"aM",%progbits,4
 832              		.align	2
 833              	.LC5:
 834 0000 00000000 		.word	__stack_chk_guard
 835              		.section	.text.i2sStopExchange,"ax",%progbits
 836              		.align	1
 837              		.p2align 4,,15
 838              		.global	i2sStopExchange
 839              		.syntax unified
 840              		.thumb
 841              		.thumb_func
 842              		.fpu fpv4-sp-d16
 843              		.type	i2sStopExchange, %function
 844              	i2sStopExchange:
 845              	.LVL55:
 846              	.LFB261:
 847              		.loc 1 140 39 is_stmt 1 view -0
 848              		.cfi_startproc
 849              		@ args = 0, pretend = 0, frame = 8
 850              		@ frame_needed = 0, uses_anonymous_args = 0
 851              		.loc 1 140 39 is_stmt 0 view .LVU173
 852 0000 10B5     		push	{r4, lr}
 853              		.cfi_def_cfa_offset 8
 854              		.cfi_offset 4, -8
 855              		.cfi_offset 14, -4
ARM GAS  /tmp/ccyhZpmv.s 			page 16


 856 0002 1E4B     		ldr	r3, .L64
 857 0004 82B0     		sub	sp, sp, #8
 858              		.cfi_def_cfa_offset 16
 859              		.loc 1 140 39 view .LVU174
 860 0006 1B68     		ldr	r3, [r3]
 861 0008 0193     		str	r3, [sp, #4]
 862 000a 4FF00003 		mov	r3,#0
 863              		.loc 1 142 3 is_stmt 1 view .LVU175
 864              		.loc 1 142 3 view .LVU176
 865              		.loc 1 142 3 view .LVU177
 866 000e 0446     		mov	r4, r0
 867 0010 70B3     		cbz	r0, .L60
 868              	.LVL56:
 869              	.L55:
 870              		.loc 1 142 3 discriminator 5 view .LVU178
 871              		.loc 1 144 3 discriminator 5 view .LVU179
 872              	.LBB182:
 873              	.LBI182:
 874              		.loc 2 445 20 discriminator 5 view .LVU180
 875              	.LBE182:
 876              		.loc 2 447 3 discriminator 5 view .LVU181
 877              	.LBB191:
 878              	.LBB183:
 879              	.LBI183:
 880              		.loc 3 346 20 discriminator 5 view .LVU182
 881              	.LBB184:
 882              		.loc 3 348 3 discriminator 5 view .LVU183
 883              	.LBB185:
 884              	.LBI185:
 885              		.loc 4 444 20 discriminator 5 view .LVU184
 886              	.LBE185:
 887              	.LBE184:
 888              	.LBE183:
 889              	.LBE191:
 890              		.loc 4 447 3 discriminator 5 view .LVU185
 891              	.LBB192:
 892              	.LBB190:
 893              	.LBB189:
 894              	.LBB188:
 895              	.LBB186:
 896              	.LBI186:
 897              		.loc 5 544 57 discriminator 5 view .LVU186
 898              	.LBB187:
 899              		.loc 5 546 3 discriminator 5 view .LVU187
 900 0012 2023     		movs	r3, #32
 901              		.syntax unified
 902              	@ 546 ".//ChibiOS//os/ext/CMSIS/include/core_cmFunc.h" 1
 903 0014 83F31188 		MSR basepri, r3
 904              	@ 0 "" 2
 905              	.LVL57:
 906              		.loc 5 546 3 is_stmt 0 discriminator 5 view .LVU188
 907              		.thumb
 908              		.syntax unified
 909              	.LBE187:
 910              	.LBE186:
 911              	.LBE188:
 912              		.loc 3 349 3 is_stmt 1 discriminator 5 view .LVU189
ARM GAS  /tmp/ccyhZpmv.s 			page 17


 913 0018 FFF7FEFF 		bl	_stats_start_measure_crit_thd
 914              	.LVL58:
 915              		.loc 3 350 3 discriminator 5 view .LVU190
 916 001c FFF7FEFF 		bl	_dbg_check_lock
 917              	.LVL59:
 918              	.LBE189:
 919              	.LBE190:
 920              	.LBE192:
 921              		.loc 1 145 3 discriminator 5 view .LVU191
 922              		.loc 1 145 3 discriminator 5 view .LVU192
 923              		.loc 1 145 3 discriminator 5 view .LVU193
 924 0020 2378     		ldrb	r3, [r4]	@ zero_extendqisi2
 925 0022 023B     		subs	r3, r3, #2
 926 0024 022B     		cmp	r3, #2
 927 0026 1FD8     		bhi	.L61
 928              	.L56:
 929              		.loc 1 145 3 discriminator 5 view .LVU194
 930              		.loc 1 149 3 discriminator 5 view .LVU195
 931 0028 2046     		mov	r0, r4
 932 002a FFF7FEFF 		bl	i2s_lld_stop_exchange
 933              	.LVL60:
 934              		.loc 1 149 3 discriminator 5 view .LVU196
 935 002e 0223     		movs	r3, #2
 936 0030 2370     		strb	r3, [r4]
 937              		.loc 1 149 25 discriminator 5 view .LVU197
 938              		.loc 1 150 3 discriminator 5 view .LVU198
 939              	.LBB193:
 940              	.LBI193:
 941              		.loc 2 456 20 discriminator 5 view .LVU199
 942              	.LBE193:
 943              		.loc 2 458 3 discriminator 5 view .LVU200
 944              	.LBB204:
 945              	.LBB194:
 946              	.LBI194:
 947              		.loc 3 358 20 discriminator 5 view .LVU201
 948              	.LBB195:
 949              		.loc 3 360 3 discriminator 5 view .LVU202
 950 0032 FFF7FEFF 		bl	_dbg_check_unlock
 951              	.LVL61:
 952              		.loc 3 361 3 discriminator 5 view .LVU203
 953 0036 FFF7FEFF 		bl	_stats_stop_measure_crit_thd
 954              	.LVL62:
 955              		.loc 3 367 3 discriminator 5 view .LVU204
 956              		.loc 3 367 3 discriminator 5 view .LVU205
 957              		.loc 3 367 3 discriminator 5 view .LVU206
 958 003a 114B     		ldr	r3, .L64+4
 959 003c 1A68     		ldr	r2, [r3]
 960 003e 9A42     		cmp	r2, r3
 961 0040 04D0     		beq	.L57
 962              		.loc 3 367 3 is_stmt 0 view .LVU207
 963 0042 9969     		ldr	r1, [r3, #24]
 964 0044 9368     		ldr	r3, [r2, #8]
 965 0046 8A68     		ldr	r2, [r1, #8]
 966 0048 9A42     		cmp	r2, r3
 967 004a 09D3     		bcc	.L62
 968              	.L57:
 969              		.loc 3 367 3 is_stmt 1 view .LVU208
ARM GAS  /tmp/ccyhZpmv.s 			page 18


 970              		.loc 3 371 3 view .LVU209
 971              	.LBB196:
 972              	.LBI196:
 973              		.loc 4 458 20 view .LVU210
 974              	.LBE196:
 975              	.LBE195:
 976              	.LBE194:
 977              	.LBE204:
 978              		.loc 4 461 3 view .LVU211
 979              	.LVL63:
 980              	.LBB205:
 981              	.LBB202:
 982              	.LBB200:
 983              	.LBB199:
 984              	.LBB197:
 985              	.LBI197:
 986              		.loc 5 544 57 view .LVU212
 987              	.LBB198:
 988              		.loc 5 546 3 view .LVU213
 989 004c 0023     		movs	r3, #0
 990              		.syntax unified
 991              	@ 546 ".//ChibiOS//os/ext/CMSIS/include/core_cmFunc.h" 1
 992 004e 83F31188 		MSR basepri, r3
 993              	@ 0 "" 2
 994              	.LVL64:
 995              		.loc 5 546 3 is_stmt 0 view .LVU214
 996              		.thumb
 997              		.syntax unified
 998              	.LBE198:
 999              	.LBE197:
 1000              	.LBE199:
 1001              	.LBE200:
 1002              	.LBE202:
 1003              	.LBE205:
 1004              		.loc 1 151 1 view .LVU215
 1005 0052 0A4B     		ldr	r3, .L64
 1006 0054 1A68     		ldr	r2, [r3]
 1007 0056 019B     		ldr	r3, [sp, #4]
 1008 0058 5A40     		eors	r2, r3, r2
 1009 005a 0DD1     		bne	.L63
 1010 005c 02B0     		add	sp, sp, #8
 1011              		.cfi_remember_state
 1012              		.cfi_def_cfa_offset 8
 1013              		@ sp needed
 1014 005e 10BD     		pop	{r4, pc}
 1015              	.LVL65:
 1016              	.L62:
 1017              		.cfi_restore_state
 1018              	.LBB206:
 1019              	.LBB203:
 1020              	.LBB201:
 1021              		.loc 3 367 3 is_stmt 1 view .LVU216
 1022 0060 0848     		ldr	r0, .L64+8
 1023 0062 FFF7FEFF 		bl	chSysHalt
 1024              	.LVL66:
 1025 0066 F1E7     		b	.L57
 1026              	.L61:
ARM GAS  /tmp/ccyhZpmv.s 			page 19


 1027              		.loc 3 367 3 is_stmt 0 view .LVU217
 1028              	.LBE201:
 1029              	.LBE203:
 1030              	.LBE206:
 1031              		.loc 1 145 3 is_stmt 1 discriminator 3 view .LVU218
 1032 0068 0748     		ldr	r0, .L64+12
 1033 006a FFF7FEFF 		bl	chSysHalt
 1034              	.LVL67:
 1035 006e DBE7     		b	.L56
 1036              	.LVL68:
 1037              	.L60:
 1038              		.loc 1 142 3 discriminator 3 view .LVU219
 1039 0070 0548     		ldr	r0, .L64+12
 1040              	.LVL69:
 1041              		.loc 1 142 3 is_stmt 0 discriminator 3 view .LVU220
 1042 0072 FFF7FEFF 		bl	chSysHalt
 1043              	.LVL70:
 1044 0076 CCE7     		b	.L55
 1045              	.L63:
 1046              		.loc 1 151 1 view .LVU221
 1047 0078 FFF7FEFF 		bl	__stack_chk_fail
 1048              	.LVL71:
 1049              	.L65:
 1050              		.align	2
 1051              	.L64:
 1052 007c 00000000 		.word	.LC5
 1053 0080 00000000 		.word	ch
 1054 0084 00000000 		.word	.LANCHOR1
 1055 0088 00000000 		.word	.LANCHOR4
 1056              		.cfi_endproc
 1057              	.LFE261:
 1058              		.size	i2sStopExchange, .-i2sStopExchange
 1059              		.section	.rodata.__func__.7261,"a"
 1060              		.align	2
 1061              		.set	.LANCHOR1,. + 0
 1062              		.type	__func__.7261, %object
 1063              		.size	__func__.7261, 12
 1064              	__func__.7261:
 1065 0000 63685379 		.ascii	"chSysUnlock\000"
 1065      73556E6C 
 1065      6F636B00 
 1066              		.section	.rodata.__func__.9956,"a"
 1067              		.align	2
 1068              		.set	.LANCHOR0,. + 0
 1069              		.type	__func__.9956, %object
 1070              		.size	__func__.9956, 9
 1071              	__func__.9956:
 1072 0000 69327353 		.ascii	"i2sStart\000"
 1072      74617274 
 1072      00
 1073              		.section	.rodata.__func__.9960,"a"
 1074              		.align	2
 1075              		.set	.LANCHOR2,. + 0
 1076              		.type	__func__.9960, %object
 1077              		.size	__func__.9960, 8
 1078              	__func__.9960:
 1079 0000 69327353 		.ascii	"i2sStop\000"
ARM GAS  /tmp/ccyhZpmv.s 			page 20


 1079      746F7000 
 1080              		.section	.rodata.__func__.9964,"a"
 1081              		.align	2
 1082              		.set	.LANCHOR3,. + 0
 1083              		.type	__func__.9964, %object
 1084              		.size	__func__.9964, 17
 1085              	__func__.9964:
 1086 0000 69327353 		.ascii	"i2sStartExchange\000"
 1086      74617274 
 1086      45786368 
 1086      616E6765 
 1086      00
 1087              		.section	.rodata.__func__.9968,"a"
 1088              		.align	2
 1089              		.set	.LANCHOR4,. + 0
 1090              		.type	__func__.9968, %object
 1091              		.size	__func__.9968, 16
 1092              	__func__.9968:
 1093 0000 69327353 		.ascii	"i2sStopExchange\000"
 1093      746F7045 
 1093      78636861 
 1093      6E676500 
 1094              		.text
 1095              	.Letext0:
 1096              		.file 6 "/usr/lib/gcc/arm-none-eabi/9.2.1/include/stddef.h"
 1097              		.file 7 "/usr/lib/gcc/arm-none-eabi/9.2.1/include/stdint.h"
 1098              		.file 8 ".//ChibiOS//os/rt/ports/ARMCMx/compilers/GCC/chtypes.h"
 1099              		.file 9 ".//ChibiOS//os/rt/include/chsystypes.h"
 1100              		.file 10 ".//ChibiOS//os/rt/include/chschd.h"
 1101              		.file 11 ".//ChibiOS//os/ext/CMSIS/include/core_cm4.h"
 1102              		.file 12 ".//ChibiOS//os/ext/CMSIS/ST/system_stm32f4xx.h"
 1103              		.file 13 ".//ChibiOS//os/ext/CMSIS/ST/stm32f407xx.h"
 1104              		.file 14 ".//ChibiOS//os/rt/ports/ARMCMx/chcore.h"
 1105              		.file 15 ".//ChibiOS//os/rt/include/chdebug.h"
 1106              		.file 16 ".//ChibiOS//os/rt/include/chtm.h"
 1107              		.file 17 ".//ChibiOS//os/rt/include/chstats.h"
 1108              		.file 18 ".//ChibiOS//os/rt/include/chsem.h"
 1109              		.file 19 ".//ChibiOS//os/rt/include/chmtx.h"
 1110              		.file 20 ".//ChibiOS//os/rt/include/chregistry.h"
 1111              		.file 21 ".//ChibiOS//os/rt/include/chevents.h"
 1112              		.file 22 ".//ChibiOS//os/rt/include/chqueues.h"
 1113              		.file 23 ".//ChibiOS//os/hal/ports/STM32/STM32F4xx/stm32_dma.h"
 1114              		.file 24 ".//ChibiOS//os/hal/include/hal_ioblock.h"
 1115              		.file 25 ".//ChibiOS//os/hal/ports/STM32/LLD/GPIOv2/pal_lld.h"
 1116              		.file 26 ".//ChibiOS//os/hal/include/adc.h"
 1117              		.file 27 ".//ChibiOS//os/hal/ports/STM32/STM32F4xx/adc_lld.h"
 1118              		.file 28 ".//ChibiOS//os/hal/include/can.h"
 1119              		.file 29 ".//ChibiOS//os/hal/ports/STM32/LLD/can_lld.h"
 1120              		.file 30 ".//ChibiOS//os/hal/include/dac.h"
 1121              		.file 31 ".//ChibiOS//os/hal/ports/STM32/LLD/DACv1/dac_lld.h"
 1122              		.file 32 ".//ChibiOS//os/hal/include/ext.h"
 1123              		.file 33 ".//ChibiOS//os/hal/ports/STM32/LLD/ext_lld.h"
 1124              		.file 34 ".//ChibiOS//os/hal/include/gpt.h"
 1125              		.file 35 ".//ChibiOS//os/hal/ports/STM32/LLD/TIMv1/gpt_lld.h"
 1126              		.file 36 ".//ChibiOS//os/hal/ports/STM32/LLD/TIMv1/stm32_tim.h"
 1127              		.file 37 ".//ChibiOS//os/hal/include/i2c.h"
 1128              		.file 38 ".//ChibiOS//os/hal/ports/STM32/LLD/I2Cv1/i2c_lld.h"
ARM GAS  /tmp/ccyhZpmv.s 			page 21


 1129              		.file 39 ".//ChibiOS//os/hal/include/i2s.h"
 1130              		.file 40 ".//ChibiOS//os/hal/ports/STM32/LLD/SPIv1/i2s_lld.h"
 1131              		.file 41 ".//ChibiOS//os/hal/include/pwm.h"
 1132              		.file 42 ".//ChibiOS//os/hal/ports/STM32/LLD/TIMv1/pwm_lld.h"
 1133              		.file 43 ".//ChibiOS//os/hal/include/serial.h"
 1134              		.file 44 ".//ChibiOS//os/hal/ports/STM32/LLD/USARTv1/serial_lld.h"
 1135              		.file 45 ".//ChibiOS//os/hal/include/sdc.h"
 1136              		.file 46 ".//ChibiOS//os/hal/ports/STM32/LLD/sdc_lld.h"
 1137              		.file 47 ".//ChibiOS//os/hal/include/spi.h"
 1138              		.file 48 ".//ChibiOS//os/hal/ports/STM32/LLD/SPIv1/spi_lld.h"
 1139              		.file 49 ".//ChibiOS//os/hal/include/usb.h"
 1140              		.file 50 ".//ChibiOS//os/hal/ports/STM32/LLD/OTGv1/usb_lld.h"
 1141              		.file 51 ".//ChibiOS//os/hal/ports/STM32/LLD/OTGv1/stm32_otg.h"