ARM GAS  /tmp/ccWY0dwB.s 			page 1


   1              		.cpu cortex-m4
   2              		.eabi_attribute 27, 1
   3              		.eabi_attribute 28, 1
   4              		.eabi_attribute 20, 1
   5              		.eabi_attribute 21, 1
   6              		.eabi_attribute 23, 3
   7              		.eabi_attribute 24, 1
   8              		.eabi_attribute 25, 1
   9              		.eabi_attribute 26, 1
  10              		.eabi_attribute 30, 2
  11              		.eabi_attribute 34, 1
  12              		.eabi_attribute 18, 4
  13              		.file	"imu.c"
  14              		.text
  15              	.Ltext0:
  16              		.cfi_sections	.debug_frame
  17              		.section	.rodata.imu_reader_thd.str1.4,"aMS",%progbits,1
  18              		.align	2
  19              	.LC0:
  20 0000 2F696D75 		.ascii	"/imu\000"
  20      00
  21              		.section	.rodata.imu_reader_thd.cst4,"aM",%progbits,4
  22              		.align	2
  23              	.LC1:
  24 0000 00000000 		.word	__stack_chk_guard
  25              		.section	.text.imu_reader_thd,"ax",%progbits
  26              		.align	1
  27              		.p2align 4,,15
  28              		.arch armv7e-m
  29              		.syntax unified
  30              		.thumb
  31              		.thumb_func
  32              		.fpu fpv4-sp-d16
  33              		.type	imu_reader_thd, %function
  34              	imu_reader_thd:
  35              	.LVL0:
  36              	.LFB257:
  37              		.file 1 ".//src/sensors/imu.c"
  38              		.loc 1 33 42 view -0
  39              		.cfi_startproc
  40              		@ args = 0, pretend = 0, frame = 160
  41              		@ frame_needed = 0, uses_anonymous_args = 0
  42              		.loc 1 33 42 is_stmt 0 view .LVU1
  43 0000 2DE9F04F 		push	{r4, r5, r6, r7, r8, r9, r10, fp, lr}
  44              		.cfi_def_cfa_offset 36
  45              		.cfi_offset 4, -36
  46              		.cfi_offset 5, -32
  47              		.cfi_offset 6, -28
  48              		.cfi_offset 7, -24
  49              		.cfi_offset 8, -20
  50              		.cfi_offset 9, -16
  51              		.cfi_offset 10, -12
  52              		.cfi_offset 11, -8
  53              		.cfi_offset 14, -4
  54              	.LBB70:
  55              	.LBB71:
  56              		.file 2 ".//ChibiOS//os/rt/include/chregistry.h"
ARM GAS  /tmp/ccWY0dwB.s 			page 2


  57              		.loc 2 135 11 view .LVU2
  58 0004 7D4C     		ldr	r4, .L30
  59              		.loc 2 135 30 view .LVU3
  60 0006 7E4A     		ldr	r2, .L30+4
  61              		.loc 2 135 11 view .LVU4
  62 0008 A369     		ldr	r3, [r4, #24]
  63              	.LBE71:
  64              	.LBE70:
  65              		.loc 1 33 42 view .LVU5
  66 000a 7E4D     		ldr	r5, .L30+8
  67              	.LBB74:
  68              	.LBB72:
  69              		.loc 2 135 30 view .LVU6
  70 000c 9A61     		str	r2, [r3, #24]
  71              	.LBE72:
  72              	.LBE74:
  73              		.loc 1 33 42 view .LVU7
  74 000e AFB0     		sub	sp, sp, #188
  75              		.cfi_def_cfa_offset 224
  76              		.loc 1 40 6 view .LVU8
  77 0010 0123     		movs	r3, #1
  78 0012 1A46     		mov	r2, r3
  79 0014 7C48     		ldr	r0, .L30+12
  80              	.LVL1:
  81              		.loc 1 40 6 view .LVU9
  82 0016 0CA9     		add	r1, sp, #48
  83              		.loc 1 33 42 view .LVU10
  84 0018 2D68     		ldr	r5, [r5]
  85 001a 2D95     		str	r5, [sp, #180]
  86 001c 4FF00005 		mov	r5,#0
  87              		.loc 1 34 6 is_stmt 1 view .LVU11
  88              		.loc 1 35 6 view .LVU12
  89              	.LVL2:
  90              	.LBB75:
  91              	.LBI70:
  92              		.loc 2 132 20 view .LVU13
  93              	.LBB73:
  94              		.loc 2 135 3 view .LVU14
  95              		.loc 2 135 3 is_stmt 0 view .LVU15
  96              	.LBE73:
  97              	.LBE75:
  98              		.loc 1 37 6 is_stmt 1 view .LVU16
  99              		.loc 1 40 6 view .LVU17
 100 0020 FFF7FEFF 		bl	chEvtRegisterMaskWithFlags
 101              	.LVL3:
 102              		.loc 1 45 6 view .LVU18
 103              		.loc 1 46 6 view .LVU19
 104              		.loc 1 48 6 is_stmt 0 view .LVU20
 105 0024 5023     		movs	r3, #80
 106              		.loc 1 46 6 view .LVU21
 107 0026 11A9     		add	r1, sp, #68
 108              		.loc 1 47 6 view .LVU22
 109 0028 0AAA     		add	r2, sp, #40
 110              		.loc 1 48 6 view .LVU23
 111 002a 0093     		str	r3, [sp]
 112 002c 16A8     		add	r0, sp, #88
 113 002e 774B     		ldr	r3, .L30+16
ARM GAS  /tmp/ccWY0dwB.s 			page 3


 114              		.loc 1 46 6 view .LVU24
 115 0030 0025     		movs	r5, #0
 116 0032 CDE91111 		strd	r1, r1, [sp, #68]
 117              		.loc 1 47 6 view .LVU25
 118 0036 CDE90A22 		strd	r2, r2, [sp, #40]
 119              		.loc 1 46 6 view .LVU26
 120 003a CDE91355 		strd	r5, r5, [sp, #76]
 121 003e 1595     		str	r5, [sp, #84]
 122              		.loc 1 47 6 is_stmt 1 view .LVU27
 123              		.loc 1 48 6 view .LVU28
 124 0040 FFF7FEFF 		bl	messagebus_topic_init
 125              	.LVL4:
 126              		.loc 1 49 6 view .LVU29
 127 0044 724A     		ldr	r2, .L30+20
 128 0046 7348     		ldr	r0, .L30+24
 129 0048 16A9     		add	r1, sp, #88
 130 004a FFF7FEFF 		bl	messagebus_advertise_topic
 131              	.LVL5:
 132              		.loc 1 51 6 view .LVU30
 133              		.loc 1 52 6 view .LVU31
 134              		.loc 1 53 6 view .LVU32
 135              		.loc 1 54 6 view .LVU33
 136              		.loc 1 55 6 view .LVU34
 137              		.loc 1 57 6 view .LVU35
 138              		.loc 1 57 12 view .LVU36
 139              	.LBB76:
 140              	.LBI76:
 141              		.file 3 ".//ChibiOS//os/rt/include/chthreads.h"
 142              		.loc 3 231 20 view .LVU37
 143              	.LBB77:
 144              		.loc 3 233 3 view .LVU38
 145              	.LBB78:
 146              	.LBI78:
 147              		.loc 3 174 25 view .LVU39
 148              	.LBB79:
 149              		.loc 3 176 3 view .LVU40
 150              	.LBE79:
 151              	.LBE78:
 152              		.loc 3 233 33 is_stmt 0 view .LVU41
 153 004e A369     		ldr	r3, [r4, #24]
 154 0050 93F82160 		ldrb	r6, [r3, #33]	@ zero_extendqisi2
 155              	.LBE77:
 156              	.LBE76:
 157              		.loc 1 57 12 view .LVU42
 158 0054 16F00406 		ands	r6, r6, #4
 159 0058 40F09780 		bne	.L1
 160 005c DFF8ACA1 		ldr	r10, .L30+16
 161 0060 DFF8DCB1 		ldr	fp, .L30+68
 162 0064 DFF8DC91 		ldr	r9, .L30+72
 163 0068 DFF8DC81 		ldr	r8, .L30+76
 164              		.loc 1 67 4 view .LVU43
 165 006c 0AF13403 		add	r3, r10, #52
 166              		.loc 1 52 14 view .LVU44
 167 0070 CDE90766 		strd	r6, r6, [sp, #28]
 168              		.loc 1 67 4 view .LVU45
 169 0074 0993     		str	r3, [sp, #36]
 170              		.loc 1 53 14 view .LVU46
ARM GAS  /tmp/ccWY0dwB.s 			page 4


 171 0076 3746     		mov	r7, r6
 172 0078 3DE0     		b	.L11
 173              	.LVL6:
 174              	.L4:
 175              		.loc 1 74 10 is_stmt 1 view .LVU47
 176 007a 6449     		ldr	r1, .L30+16
 177 007c 5022     		movs	r2, #80
 178 007e 16A8     		add	r0, sp, #88
 179 0080 FFF7FEFF 		bl	messagebus_topic_publish
 180              	.LVL7:
 181              		.loc 1 76 10 view .LVU48
 182              		.loc 1 76 12 is_stmt 0 view .LVU49
 183 0084 99F80030 		ldrb	r3, [r9]	@ zero_extendqisi2
 184 0088 A3B1     		cbz	r3, .L5
 185              		.loc 1 77 11 is_stmt 1 view .LVU50
 186 008a 634A     		ldr	r2, .L30+28
 187 008c 1378     		ldrb	r3, [r2]	@ zero_extendqisi2
 188 008e 002B     		cmp	r3, #0
 189 0090 71D0     		beq	.L6
 190 0092 012B     		cmp	r3, #1
 191 0094 0ED1     		bne	.L5
 192              		.loc 1 86 7 view .LVU51
 193              		.loc 1 86 46 is_stmt 0 view .LVU52
 194 0096 614B     		ldr	r3, .L30+32
 195              		.loc 1 88 35 view .LVU53
 196 0098 614A     		ldr	r2, .L30+36
 197              		.loc 1 86 46 view .LVU54
 198 009a 1B78     		ldrb	r3, [r3]	@ zero_extendqisi2
 199              		.loc 1 86 25 view .LVU55
 200 009c 0798     		ldr	r0, [sp, #28]
 201              		.loc 1 88 35 view .LVU56
 202 009e 1278     		ldrb	r2, [r2]	@ zero_extendqisi2
 203              		.loc 1 86 46 view .LVU57
 204 00a0 03F11401 		add	r1, r3, #20
 205              		.loc 1 87 31 view .LVU58
 206 00a4 0136     		adds	r6, r6, #1
 207              	.LVL8:
 208              		.loc 1 86 46 view .LVU59
 209 00a6 3AF91110 		ldrsh	r1, [r10, r1, lsl #1]
 210              		.loc 1 87 31 view .LVU60
 211 00aa F6B2     		uxtb	r6, r6
 212              		.loc 1 86 25 view .LVU61
 213 00ac 0844     		add	r0, r0, r1
 214              		.loc 1 88 9 view .LVU62
 215 00ae B242     		cmp	r2, r6
 216              		.loc 1 86 25 view .LVU63
 217 00b0 0790     		str	r0, [sp, #28]
 218              	.LVL9:
 219              		.loc 1 87 7 is_stmt 1 view .LVU64
 220              		.loc 1 88 7 view .LVU65
 221              		.loc 1 88 9 is_stmt 0 view .LVU66
 222 00b2 72D0     		beq	.L26
 223              	.LVL10:
 224              	.L5:
 225              		.loc 1 100 10 is_stmt 1 view .LVU67
 226              		.loc 1 100 12 is_stmt 0 view .LVU68
 227 00b4 98F80030 		ldrb	r3, [r8]	@ zero_extendqisi2
ARM GAS  /tmp/ccWY0dwB.s 			page 5


 228 00b8 A3B1     		cbz	r3, .L8
 229              		.loc 1 101 11 is_stmt 1 view .LVU69
 230 00ba 5A4A     		ldr	r2, .L30+40
 231 00bc 1378     		ldrb	r3, [r2]	@ zero_extendqisi2
 232 00be 002B     		cmp	r3, #0
 233 00c0 4FD0     		beq	.L9
 234 00c2 012B     		cmp	r3, #1
 235 00c4 0ED1     		bne	.L8
 236              		.loc 1 110 7 view .LVU70
 237              		.loc 1 110 48 is_stmt 0 view .LVU71
 238 00c6 584B     		ldr	r3, .L30+44
 239              		.loc 1 112 36 view .LVU72
 240 00c8 584A     		ldr	r2, .L30+48
 241              		.loc 1 110 48 view .LVU73
 242 00ca 1B78     		ldrb	r3, [r3]	@ zero_extendqisi2
 243              		.loc 1 110 26 view .LVU74
 244 00cc 0898     		ldr	r0, [sp, #32]
 245              		.loc 1 112 36 view .LVU75
 246 00ce 1278     		ldrb	r2, [r2]	@ zero_extendqisi2
 247              		.loc 1 110 48 view .LVU76
 248 00d0 0AEB4301 		add	r1, r10, r3, lsl #1
 249              		.loc 1 111 32 view .LVU77
 250 00d4 0137     		adds	r7, r7, #1
 251              	.LVL11:
 252              		.loc 1 110 48 view .LVU78
 253 00d6 B1F92E10 		ldrsh	r1, [r1, #46]
 254              		.loc 1 111 32 view .LVU79
 255 00da FFB2     		uxtb	r7, r7
 256              		.loc 1 110 26 view .LVU80
 257 00dc 0844     		add	r0, r0, r1
 258              		.loc 1 112 9 view .LVU81
 259 00de BA42     		cmp	r2, r7
 260              		.loc 1 110 26 view .LVU82
 261 00e0 0890     		str	r0, [sp, #32]
 262              	.LVL12:
 263              		.loc 1 111 7 is_stmt 1 view .LVU83
 264              		.loc 1 112 7 view .LVU84
 265              		.loc 1 112 9 is_stmt 0 view .LVU85
 266 00e2 72D0     		beq	.L27
 267              	.LVL13:
 268              	.L8:
 269              		.loc 1 124 10 is_stmt 1 view .LVU86
 270 00e4 291D     		adds	r1, r5, #4
 271 00e6 2846     		mov	r0, r5
 272 00e8 FFF7FEFF 		bl	chThdSleepUntilWindowed
 273              	.LVL14:
 274              		.loc 1 57 12 view .LVU87
 275              	.LBB83:
 276              		.loc 3 231 20 view .LVU88
 277              	.LBB82:
 278              		.loc 3 233 3 view .LVU89
 279              	.LBB81:
 280              		.loc 3 174 25 view .LVU90
 281              	.LBB80:
 282              		.loc 3 176 3 view .LVU91
 283              	.LBE80:
 284              	.LBE81:
ARM GAS  /tmp/ccWY0dwB.s 			page 6


 285              		.loc 3 233 33 is_stmt 0 view .LVU92
 286 00ec A369     		ldr	r3, [r4, #24]
 287              	.LBE82:
 288              	.LBE83:
 289              		.loc 1 57 12 view .LVU93
 290 00ee 93F82130 		ldrb	r3, [r3, #33]	@ zero_extendqisi2
 291 00f2 5B07     		lsls	r3, r3, #29
 292 00f4 49D4     		bmi	.L1
 293              	.LVL15:
 294              	.L11:
 295              		.loc 1 58 7 is_stmt 1 view .LVU94
 296              	.LBB84:
 297              	.LBI84:
 298              		.file 4 ".//ChibiOS//os/rt/include/chvt.h"
 299              		.loc 4 247 25 view .LVU95
 300              	.LBB85:
 301              		.loc 4 248 3 view .LVU96
 302              		.loc 4 250 3 view .LVU97
 303              	.LBB86:
 304              	.LBI86:
 305              		.file 5 ".//ChibiOS//os/rt/include/chsys.h"
 306              		.loc 5 346 20 view .LVU98
 307              	.LBB87:
 308              		.loc 5 348 3 view .LVU99
 309              	.LBB88:
 310              	.LBI88:
 311              		.file 6 ".//ChibiOS//os/rt/ports/ARMCMx/chcore_v7m.h"
 312              		.loc 6 444 20 view .LVU100
 313              	.LBE88:
 314              	.LBE87:
 315              	.LBE86:
 316              	.LBE85:
 317              	.LBE84:
 318              		.loc 6 447 3 view .LVU101
 319              	.LBB109:
 320              	.LBB106:
 321              	.LBB93:
 322              	.LBB92:
 323              	.LBB91:
 324              	.LBB89:
 325              	.LBI89:
 326              		.file 7 ".//ChibiOS//os/ext/CMSIS/include/core_cmFunc.h"
 327              		.loc 7 544 57 view .LVU102
 328              	.LBB90:
 329              		.loc 7 546 3 view .LVU103
 330 00f6 2023     		movs	r3, #32
 331              		.syntax unified
 332              	@ 546 ".//ChibiOS//os/ext/CMSIS/include/core_cmFunc.h" 1
 333 00f8 83F31188 		MSR basepri, r3
 334              	@ 0 "" 2
 335              	.LVL16:
 336              		.loc 7 546 3 is_stmt 0 view .LVU104
 337              		.thumb
 338              		.syntax unified
 339              	.LBE90:
 340              	.LBE89:
 341              	.LBE91:
ARM GAS  /tmp/ccWY0dwB.s 			page 7


 342              		.loc 5 349 3 is_stmt 1 view .LVU105
 343 00fc FFF7FEFF 		bl	_stats_start_measure_crit_thd
 344              	.LVL17:
 345              		.loc 5 350 3 view .LVU106
 346 0100 FFF7FEFF 		bl	_dbg_check_lock
 347              	.LVL18:
 348              	.LBE92:
 349              	.LBE93:
 350              		.loc 4 251 3 view .LVU107
 351              	.LBB94:
 352              	.LBI94:
 353              		.loc 4 228 25 view .LVU108
 354              	.LBB95:
 355              		.loc 4 231 3 view .LVU109
 356              		.loc 4 231 19 is_stmt 0 view .LVU110
 357 0104 A56A     		ldr	r5, [r4, #40]
 358              	.LVL19:
 359              		.loc 4 231 19 view .LVU111
 360              	.LBE95:
 361              	.LBE94:
 362              		.loc 4 252 3 is_stmt 1 view .LVU112
 363              	.LBB96:
 364              	.LBI96:
 365              		.loc 5 358 20 view .LVU113
 366              	.LBB97:
 367              		.loc 5 360 3 view .LVU114
 368 0106 FFF7FEFF 		bl	_dbg_check_unlock
 369              	.LVL20:
 370              		.loc 5 361 3 view .LVU115
 371 010a FFF7FEFF 		bl	_stats_stop_measure_crit_thd
 372              	.LVL21:
 373              		.loc 5 367 3 view .LVU116
 374              		.loc 5 367 3 view .LVU117
 375              		.loc 5 367 3 view .LVU118
 376 010e 2368     		ldr	r3, [r4]
 377 0110 A342     		cmp	r3, r4
 378 0112 04D0     		beq	.L3
 379 0114 A269     		ldr	r2, [r4, #24]
 380 0116 9B68     		ldr	r3, [r3, #8]
 381 0118 9268     		ldr	r2, [r2, #8]
 382 011a 9A42     		cmp	r2, r3
 383 011c 1DD3     		bcc	.L28
 384              	.L3:
 385              		.loc 5 367 3 view .LVU119
 386              		.loc 5 371 3 view .LVU120
 387              	.LBB98:
 388              	.LBI98:
 389              		.loc 6 458 20 view .LVU121
 390              	.LBE98:
 391              	.LBE97:
 392              	.LBE96:
 393              	.LBE106:
 394              	.LBE109:
 395              		.loc 6 461 3 view .LVU122
 396              	.LVL22:
 397              	.LBB110:
 398              	.LBB107:
ARM GAS  /tmp/ccWY0dwB.s 			page 8


 399              	.LBB104:
 400              	.LBB102:
 401              	.LBB101:
 402              	.LBB99:
 403              	.LBI99:
 404              		.loc 7 544 57 view .LVU123
 405              	.LBB100:
 406              		.loc 7 546 3 view .LVU124
 407 011e 0023     		movs	r3, #0
 408              		.syntax unified
 409              	@ 546 ".//ChibiOS//os/ext/CMSIS/include/core_cmFunc.h" 1
 410 0120 83F31188 		MSR basepri, r3
 411              	@ 0 "" 2
 412              	.LVL23:
 413              		.loc 7 546 3 is_stmt 0 view .LVU125
 414              		.thumb
 415              		.syntax unified
 416              	.LBE100:
 417              	.LBE99:
 418              	.LBE101:
 419              	.LBE102:
 420              	.LBE104:
 421              		.loc 4 254 3 is_stmt 1 view .LVU126
 422              		.loc 4 254 3 is_stmt 0 view .LVU127
 423              	.LBE107:
 424              	.LBE110:
 425              		.loc 1 65 6 is_stmt 1 view .LVU128
 426              		.loc 1 65 8 is_stmt 0 view .LVU129
 427 0124 9BF80030 		ldrb	r3, [fp]	@ zero_extendqisi2
 428 0128 002B     		cmp	r3, #0
 429 012a A6D0     		beq	.L4
 430              		.loc 1 67 4 is_stmt 1 view .LVU130
 431 012c 4048     		ldr	r0, .L30+52
 432 012e 0999     		ldr	r1, [sp, #36]
 433 0130 00F11203 		add	r3, r0, #18
 434 0134 A0F11202 		sub	r2, r0, #18
 435 0138 0493     		str	r3, [sp, #16]
 436 013a A0F10C03 		sub	r3, r0, #12
 437 013e CDE90201 		strd	r0, r1, [sp, #8]
 438 0142 CDE90032 		strd	r3, r2, [sp]
 439 0146 A0F13A01 		sub	r1, r0, #58
 440 014a A0F11E03 		sub	r3, r0, #30
 441 014e A0F12202 		sub	r2, r0, #34
 442 0152 2E38     		subs	r0, r0, #46
 443 0154 FFF7FEFF 		bl	mpu9250_read
 444              	.LVL24:
 445 0158 8FE7     		b	.L4
 446              	.LVL25:
 447              	.L28:
 448              	.LBB111:
 449              	.LBB108:
 450              	.LBB105:
 451              	.LBB103:
 452              		.loc 5 367 3 view .LVU131
 453 015a 3648     		ldr	r0, .L30+56
 454 015c FFF7FEFF 		bl	chSysHalt
 455              	.LVL26:
ARM GAS  /tmp/ccWY0dwB.s 			page 9


 456 0160 DDE7     		b	.L3
 457              	.LVL27:
 458              	.L9:
 459              		.loc 5 367 3 is_stmt 0 view .LVU132
 460              	.LBE103:
 461              	.LBE105:
 462              	.LBE108:
 463              	.LBE111:
 464              		.loc 1 103 7 is_stmt 1 view .LVU133
 465              		.loc 1 103 29 is_stmt 0 view .LVU134
 466 0162 3149     		ldr	r1, .L30+44
 467              		.loc 1 104 26 view .LVU135
 468 0164 0893     		str	r3, [sp, #32]
 469              	.LVL28:
 470              		.loc 1 103 29 view .LVU136
 471 0166 0978     		ldrb	r1, [r1]	@ zero_extendqisi2
 472              		.loc 1 103 48 view .LVU137
 473 0168 0AEB4101 		add	r1, r10, r1, lsl #1
 474              		.loc 1 106 30 view .LVU138
 475 016c 0120     		movs	r0, #1
 476              		.loc 1 105 33 view .LVU139
 477 016e 1F46     		mov	r7, r3
 478              	.LVL29:
 479              		.loc 1 103 48 view .LVU140
 480 0170 4B87     		strh	r3, [r1, #58]	@ movhi
 481              		.loc 1 104 7 is_stmt 1 view .LVU141
 482              	.LVL30:
 483              		.loc 1 105 7 view .LVU142
 484              		.loc 1 106 7 view .LVU143
 485              		.loc 1 106 30 is_stmt 0 view .LVU144
 486 0172 1070     		strb	r0, [r2]
 487              		.loc 1 107 7 is_stmt 1 view .LVU145
 488 0174 B6E7     		b	.L8
 489              	.LVL31:
 490              	.L6:
 491              		.loc 1 79 7 view .LVU146
 492              		.loc 1 79 28 is_stmt 0 view .LVU147
 493 0176 2949     		ldr	r1, .L30+32
 494              		.loc 1 80 25 view .LVU148
 495 0178 0793     		str	r3, [sp, #28]
 496              	.LVL32:
 497              		.loc 1 79 28 view .LVU149
 498 017a 0978     		ldrb	r1, [r1]	@ zero_extendqisi2
 499              		.loc 1 79 46 view .LVU150
 500 017c 0AEB4101 		add	r1, r10, r1, lsl #1
 501              		.loc 1 82 29 view .LVU151
 502 0180 0120     		movs	r0, #1
 503              		.loc 1 81 32 view .LVU152
 504 0182 1E46     		mov	r6, r3
 505              	.LVL33:
 506              		.loc 1 79 46 view .LVU153
 507 0184 8B86     		strh	r3, [r1, #52]	@ movhi
 508              		.loc 1 80 7 is_stmt 1 view .LVU154
 509              	.LVL34:
 510              		.loc 1 81 7 view .LVU155
 511              		.loc 1 82 7 view .LVU156
 512              		.loc 1 82 29 is_stmt 0 view .LVU157
ARM GAS  /tmp/ccWY0dwB.s 			page 10


 513 0186 1070     		strb	r0, [r2]
 514              		.loc 1 83 7 is_stmt 1 view .LVU158
 515 0188 94E7     		b	.L5
 516              	.LVL35:
 517              	.L1:
 518              		.loc 1 127 1 is_stmt 0 view .LVU159
 519 018a 1E4B     		ldr	r3, .L30+8
 520 018c 1A68     		ldr	r2, [r3]
 521 018e 2D9B     		ldr	r3, [sp, #180]
 522 0190 5A40     		eors	r2, r3, r2
 523 0192 30D1     		bne	.L29
 524 0194 2FB0     		add	sp, sp, #188
 525              		.cfi_remember_state
 526              		.cfi_def_cfa_offset 36
 527              		@ sp needed
 528 0196 BDE8F08F 		pop	{r4, r5, r6, r7, r8, r9, r10, fp, pc}
 529              	.LVL36:
 530              	.L26:
 531              		.cfi_restore_state
 532              		.loc 1 89 8 is_stmt 1 view .LVU160
 533              		.loc 1 89 68 is_stmt 0 view .LVU161
 534 019a 90FBF6F2 		sdiv	r2, r0, r6
 535              		.loc 1 91 36 view .LVU162
 536 019e 2648     		ldr	r0, .L30+60
 537              	.LVL37:
 538              		.loc 1 91 10 view .LVU163
 539 01a0 90F800E0 		ldrb	lr, [r0]	@ zero_extendqisi2
 540              		.loc 1 89 49 view .LVU164
 541 01a4 03F12001 		add	r1, r3, #32
 542 01a8 12B2     		sxth	r2, r2
 543              		.loc 1 90 35 view .LVU165
 544 01aa 4FF0000C 		mov	ip, #0
 545              		.loc 1 91 10 view .LVU166
 546 01ae BEF1010F 		cmp	lr, #1
 547              		.loc 1 89 49 view .LVU167
 548 01b2 2AF81120 		strh	r2, [r10, r1, lsl #1]	@ movhi
 549              		.loc 1 90 8 is_stmt 1 view .LVU168
 550              		.loc 1 90 35 is_stmt 0 view .LVU169
 551 01b6 89F800C0 		strb	ip, [r9]
 552              		.loc 1 91 8 is_stmt 1 view .LVU170
 553              		.loc 1 91 10 is_stmt 0 view .LVU171
 554 01ba 7FF47BAF 		bne	.L5
 555              		.loc 1 92 9 is_stmt 1 view .LVU172
 556              		.loc 1 92 48 is_stmt 0 view .LVU173
 557 01be 0AEB4303 		add	r3, r10, r3, lsl #1
 558              		.loc 1 93 34 view .LVU174
 559 01c2 80F800C0 		strb	ip, [r0]
 560              		.loc 1 92 48 view .LVU175
 561 01c6 9A86     		strh	r2, [r3, #52]	@ movhi
 562              		.loc 1 93 9 is_stmt 1 view .LVU176
 563 01c8 74E7     		b	.L5
 564              	.LVL38:
 565              	.L27:
 566              		.loc 1 113 8 view .LVU177
 567              		.loc 1 113 71 is_stmt 0 view .LVU178
 568 01ca 90FBF7F2 		sdiv	r2, r0, r7
 569              		.loc 1 115 37 view .LVU179
ARM GAS  /tmp/ccWY0dwB.s 			page 11


 570 01ce 1B48     		ldr	r0, .L30+64
 571              	.LVL39:
 572              		.loc 1 115 10 view .LVU180
 573 01d0 90F800E0 		ldrb	lr, [r0]	@ zero_extendqisi2
 574              		.loc 1 113 51 view .LVU181
 575 01d4 0AEB4301 		add	r1, r10, r3, lsl #1
 576 01d8 12B2     		sxth	r2, r2
 577              		.loc 1 114 36 view .LVU182
 578 01da 4FF0000C 		mov	ip, #0
 579              		.loc 1 115 10 view .LVU183
 580 01de BEF1010F 		cmp	lr, #1
 581              		.loc 1 113 51 view .LVU184
 582 01e2 A1F84620 		strh	r2, [r1, #70]	@ movhi
 583              		.loc 1 114 8 is_stmt 1 view .LVU185
 584              		.loc 1 114 36 is_stmt 0 view .LVU186
 585 01e6 88F800C0 		strb	ip, [r8]
 586              		.loc 1 115 8 is_stmt 1 view .LVU187
 587              		.loc 1 115 10 is_stmt 0 view .LVU188
 588 01ea 7FF47BAF 		bne	.L8
 589              		.loc 1 116 9 is_stmt 1 view .LVU189
 590              		.loc 1 117 35 is_stmt 0 view .LVU190
 591 01ee 80F800C0 		strb	ip, [r0]
 592              		.loc 1 116 50 view .LVU191
 593 01f2 4A87     		strh	r2, [r1, #58]	@ movhi
 594              		.loc 1 117 9 is_stmt 1 view .LVU192
 595 01f4 76E7     		b	.L8
 596              	.LVL40:
 597              	.L29:
 598              		.loc 1 127 1 is_stmt 0 view .LVU193
 599 01f6 FFF7FEFF 		bl	__stack_chk_fail
 600              	.LVL41:
 601              	.L31:
 602 01fa 00BF     		.align	2
 603              	.L30:
 604 01fc 00000000 		.word	ch
 605 0200 00000000 		.word	.LANCHOR0
 606 0204 00000000 		.word	.LC1
 607 0208 00000000 		.word	exti_events
 608 020c 00000000 		.word	.LANCHOR1
 609 0210 00000000 		.word	.LC0
 610 0214 00000000 		.word	bus
 611 0218 00000000 		.word	.LANCHOR5
 612 021c 00000000 		.word	.LANCHOR6
 613 0220 00000000 		.word	.LANCHOR7
 614 0224 00000000 		.word	.LANCHOR10
 615 0228 00000000 		.word	.LANCHOR11
 616 022c 00000000 		.word	.LANCHOR12
 617 0230 3A000000 		.word	.LANCHOR1+58
 618 0234 00000000 		.word	.LANCHOR2
 619 0238 00000000 		.word	.LANCHOR8
 620 023c 00000000 		.word	.LANCHOR13
 621 0240 00000000 		.word	.LANCHOR3
 622 0244 00000000 		.word	.LANCHOR4
 623 0248 00000000 		.word	.LANCHOR9
 624              		.cfi_endproc
 625              	.LFE257:
 626              		.size	imu_reader_thd, .-imu_reader_thd
ARM GAS  /tmp/ccWY0dwB.s 			page 12


 627              		.section	.rodata.get_acc_filtered.part.0.cst4,"aM",%progbits,4
 628              		.align	2
 629              	.LC2:
 630 0000 00000000 		.word	__stack_chk_guard
 631              		.section	.text.get_acc_filtered.part.0,"ax",%progbits
 632              		.align	1
 633              		.p2align 4,,15
 634              		.syntax unified
 635              		.thumb
 636              		.thumb_func
 637              		.fpu fpv4-sp-d16
 638              		.type	get_acc_filtered.part.0, %function
 639              	get_acc_filtered.part.0:
 640              	.LVL42:
 641              	.LFB273:
 642              		.loc 1 184 9 is_stmt 1 view -0
 643              		.cfi_startproc
 644              		@ args = 0, pretend = 0, frame = 8
 645              		@ frame_needed = 0, uses_anonymous_args = 0
 646              		.loc 1 184 9 is_stmt 0 view .LVU195
 647 0000 30B5     		push	{r4, r5, lr}
 648              		.cfi_def_cfa_offset 12
 649              		.cfi_offset 4, -12
 650              		.cfi_offset 5, -8
 651              		.cfi_offset 14, -4
 652              		.loc 1 186 21 view .LVU196
 653 0002 134B     		ldr	r3, .L42
 654              		.loc 1 184 9 view .LVU197
 655 0004 134A     		ldr	r2, .L42+4
 656              		.loc 1 186 5 view .LVU198
 657 0006 1B78     		ldrb	r3, [r3]	@ zero_extendqisi2
 658              		.loc 1 184 9 view .LVU199
 659 0008 83B0     		sub	sp, sp, #12
 660              		.cfi_def_cfa_offset 24
 661              		.loc 1 184 9 view .LVU200
 662 000a 1268     		ldr	r2, [r2]
 663 000c 0192     		str	r2, [sp, #4]
 664 000e 4FF00002 		mov	r2,#0
 665              		.loc 1 186 3 is_stmt 1 view .LVU201
 666              		.loc 1 184 9 is_stmt 0 view .LVU202
 667 0012 0446     		mov	r4, r0
 668              		.loc 1 186 5 view .LVU203
 669 0014 7BB1     		cbz	r3, .L33
 670              		.loc 1 187 4 is_stmt 1 view .LVU204
 671              		.loc 1 189 20 is_stmt 0 view .LVU205
 672 0016 1048     		ldr	r0, .L42+8
 673              	.LVL43:
 674              		.loc 1 187 26 view .LVU206
 675 0018 104A     		ldr	r2, .L42+12
 676              		.loc 1 188 31 view .LVU207
 677 001a 114D     		ldr	r5, .L42+16
 678              		.loc 1 190 18 view .LVU208
 679 001c 114B     		ldr	r3, .L42+20
 680              		.loc 1 189 20 view .LVU209
 681 001e 0470     		strb	r4, [r0]
 682              		.loc 1 187 26 view .LVU210
 683 0020 0020     		movs	r0, #0
ARM GAS  /tmp/ccWY0dwB.s 			page 13


 684 0022 1070     		strb	r0, [r2]
 685              		.loc 1 188 4 is_stmt 1 view .LVU211
 686              		.loc 1 188 31 is_stmt 0 view .LVU212
 687 0024 0122     		movs	r2, #1
 688 0026 2A70     		strb	r2, [r5]
 689              		.loc 1 189 4 is_stmt 1 view .LVU213
 690              		.loc 1 190 4 view .LVU214
 691              		.loc 1 190 18 is_stmt 0 view .LVU215
 692 0028 1970     		strb	r1, [r3]
 693              		.loc 1 191 4 is_stmt 1 view .LVU216
 694              		.loc 1 191 9 view .LVU217
 695              	.LVL44:
 696              	.L34:
 697              		.loc 1 192 5 view .LVU218
 698 002a 1420     		movs	r0, #20
 699 002c FFF7FEFF 		bl	chThdSleep
 700              	.LVL45:
 701              		.loc 1 191 9 view .LVU219
 702 0030 2B78     		ldrb	r3, [r5]	@ zero_extendqisi2
 703 0032 002B     		cmp	r3, #0
 704 0034 F9D1     		bne	.L34
 705              	.L33:
 706              		.loc 1 195 3 view .LVU220
 707              		.loc 1 195 33 is_stmt 0 view .LVU221
 708 0036 0C4B     		ldr	r3, .L42+24
 709 0038 2034     		adds	r4, r4, #32
 710 003a 33F91400 		ldrsh	r0, [r3, r4, lsl #1]
 711              		.loc 1 198 1 view .LVU222
 712 003e 054B     		ldr	r3, .L42+4
 713 0040 1A68     		ldr	r2, [r3]
 714 0042 019B     		ldr	r3, [sp, #4]
 715 0044 5A40     		eors	r2, r3, r2
 716 0046 01D1     		bne	.L41
 717 0048 03B0     		add	sp, sp, #12
 718              		.cfi_remember_state
 719              		.cfi_def_cfa_offset 12
 720              		@ sp needed
 721 004a 30BD     		pop	{r4, r5, pc}
 722              	.L41:
 723              		.cfi_restore_state
 724 004c FFF7FEFF 		bl	__stack_chk_fail
 725              	.LVL46:
 726              	.L43:
 727              		.align	2
 728              	.L42:
 729 0050 00000000 		.word	.LANCHOR3
 730 0054 00000000 		.word	.LC2
 731 0058 00000000 		.word	.LANCHOR6
 732 005c 00000000 		.word	.LANCHOR5
 733 0060 00000000 		.word	.LANCHOR4
 734 0064 00000000 		.word	.LANCHOR7
 735 0068 00000000 		.word	.LANCHOR1
 736              		.cfi_endproc
 737              	.LFE273:
 738              		.size	get_acc_filtered.part.0, .-get_acc_filtered.part.0
 739              		.section	.rodata.get_gyro_filtered.part.0.cst4,"aM",%progbits,4
 740              		.align	2
ARM GAS  /tmp/ccWY0dwB.s 			page 14


 741              	.LC3:
 742 0000 00000000 		.word	__stack_chk_guard
 743              		.section	.text.get_gyro_filtered.part.0,"ax",%progbits
 744              		.align	1
 745              		.p2align 4,,15
 746              		.syntax unified
 747              		.thumb
 748              		.thumb_func
 749              		.fpu fpv4-sp-d16
 750              		.type	get_gyro_filtered.part.0, %function
 751              	get_gyro_filtered.part.0:
 752              	.LVL47:
 753              	.LFB274:
 754              		.loc 1 241 9 is_stmt 1 view -0
 755              		.cfi_startproc
 756              		@ args = 0, pretend = 0, frame = 8
 757              		@ frame_needed = 0, uses_anonymous_args = 0
 758              		.loc 1 241 9 is_stmt 0 view .LVU224
 759 0000 30B5     		push	{r4, r5, lr}
 760              		.cfi_def_cfa_offset 12
 761              		.cfi_offset 4, -12
 762              		.cfi_offset 5, -8
 763              		.cfi_offset 14, -4
 764              		.loc 1 243 21 view .LVU225
 765 0002 144B     		ldr	r3, .L54
 766              		.loc 1 241 9 view .LVU226
 767 0004 144A     		ldr	r2, .L54+4
 768              		.loc 1 243 5 view .LVU227
 769 0006 1B78     		ldrb	r3, [r3]	@ zero_extendqisi2
 770              		.loc 1 241 9 view .LVU228
 771 0008 83B0     		sub	sp, sp, #12
 772              		.cfi_def_cfa_offset 24
 773              		.loc 1 241 9 view .LVU229
 774 000a 1268     		ldr	r2, [r2]
 775 000c 0192     		str	r2, [sp, #4]
 776 000e 4FF00002 		mov	r2,#0
 777              		.loc 1 243 3 is_stmt 1 view .LVU230
 778              		.loc 1 241 9 is_stmt 0 view .LVU231
 779 0012 0546     		mov	r5, r0
 780              		.loc 1 243 5 view .LVU232
 781 0014 7BB1     		cbz	r3, .L45
 782              		.loc 1 244 4 is_stmt 1 view .LVU233
 783              		.loc 1 246 21 is_stmt 0 view .LVU234
 784 0016 1148     		ldr	r0, .L54+8
 785              	.LVL48:
 786              		.loc 1 244 27 view .LVU235
 787 0018 114A     		ldr	r2, .L54+12
 788              		.loc 1 245 32 view .LVU236
 789 001a 124C     		ldr	r4, .L54+16
 790              		.loc 1 247 19 view .LVU237
 791 001c 124B     		ldr	r3, .L54+20
 792              		.loc 1 246 21 view .LVU238
 793 001e 0570     		strb	r5, [r0]
 794              		.loc 1 244 27 view .LVU239
 795 0020 0020     		movs	r0, #0
 796 0022 1070     		strb	r0, [r2]
 797              		.loc 1 245 4 is_stmt 1 view .LVU240
ARM GAS  /tmp/ccWY0dwB.s 			page 15


 798              		.loc 1 245 32 is_stmt 0 view .LVU241
 799 0024 0122     		movs	r2, #1
 800 0026 2270     		strb	r2, [r4]
 801              		.loc 1 246 4 is_stmt 1 view .LVU242
 802              		.loc 1 247 4 view .LVU243
 803              		.loc 1 247 19 is_stmt 0 view .LVU244
 804 0028 1970     		strb	r1, [r3]
 805              		.loc 1 248 4 is_stmt 1 view .LVU245
 806              		.loc 1 248 9 view .LVU246
 807              	.LVL49:
 808              	.L46:
 809              		.loc 1 249 5 view .LVU247
 810 002a 1420     		movs	r0, #20
 811 002c FFF7FEFF 		bl	chThdSleep
 812              	.LVL50:
 813              		.loc 1 248 9 view .LVU248
 814 0030 2378     		ldrb	r3, [r4]	@ zero_extendqisi2
 815 0032 002B     		cmp	r3, #0
 816 0034 F9D1     		bne	.L46
 817              	.L45:
 818              		.loc 1 252 3 view .LVU249
 819              		.loc 1 252 34 is_stmt 0 view .LVU250
 820 0036 0D48     		ldr	r0, .L54+24
 821              		.loc 1 255 1 view .LVU251
 822 0038 074B     		ldr	r3, .L54+4
 823              		.loc 1 252 34 view .LVU252
 824 003a 00EB4505 		add	r5, r0, r5, lsl #1
 825              		.loc 1 255 1 view .LVU253
 826 003e 1A68     		ldr	r2, [r3]
 827 0040 019B     		ldr	r3, [sp, #4]
 828 0042 5A40     		eors	r2, r3, r2
 829 0044 B5F94600 		ldrsh	r0, [r5, #70]
 830 0048 01D1     		bne	.L53
 831 004a 03B0     		add	sp, sp, #12
 832              		.cfi_remember_state
 833              		.cfi_def_cfa_offset 12
 834              		@ sp needed
 835 004c 30BD     		pop	{r4, r5, pc}
 836              	.L53:
 837              		.cfi_restore_state
 838 004e FFF7FEFF 		bl	__stack_chk_fail
 839              	.LVL51:
 840              	.L55:
 841 0052 00BF     		.align	2
 842              	.L54:
 843 0054 00000000 		.word	.LANCHOR3
 844 0058 00000000 		.word	.LC3
 845 005c 00000000 		.word	.LANCHOR11
 846 0060 00000000 		.word	.LANCHOR10
 847 0064 00000000 		.word	.LANCHOR9
 848 0068 00000000 		.word	.LANCHOR12
 849 006c 00000000 		.word	.LANCHOR1
 850              		.cfi_endproc
 851              	.LFE274:
 852              		.size	get_gyro_filtered.part.0, .-get_gyro_filtered.part.0
 853              		.section	.rodata.imu_start.cst4,"aM",%progbits,4
 854              		.align	2
ARM GAS  /tmp/ccWY0dwB.s 			page 16


 855              	.LC4:
 856 0000 00000000 		.word	__stack_chk_guard
 857              		.section	.text.imu_start,"ax",%progbits
 858              		.align	1
 859              		.p2align 4,,15
 860              		.global	imu_start
 861              		.syntax unified
 862              		.thumb
 863              		.thumb_func
 864              		.fpu fpv4-sp-d16
 865              		.type	imu_start, %function
 866              	imu_start:
 867              	.LFB258:
 868              		.loc 1 135 1 is_stmt 1 view -0
 869              		.cfi_startproc
 870              		@ args = 0, pretend = 0, frame = 8
 871              		@ frame_needed = 0, uses_anonymous_args = 0
 872 0000 10B5     		push	{r4, lr}
 873              		.cfi_def_cfa_offset 8
 874              		.cfi_offset 4, -8
 875              		.cfi_offset 14, -4
 876 0002 134B     		ldr	r3, .L63
 877              		.loc 1 138 5 is_stmt 0 view .LVU255
 878 0004 134C     		ldr	r4, .L63+4
 879              		.loc 1 135 1 view .LVU256
 880 0006 84B0     		sub	sp, sp, #16
 881              		.cfi_def_cfa_offset 24
 882              		.loc 1 135 1 view .LVU257
 883 0008 1B68     		ldr	r3, [r3]
 884 000a 0393     		str	r3, [sp, #12]
 885 000c 4FF00003 		mov	r3,#0
 886              		.loc 1 136 2 is_stmt 1 view .LVU258
 887              	.LVL52:
 888              		.loc 1 138 2 view .LVU259
 889              		.loc 1 138 4 is_stmt 0 view .LVU260
 890 0010 2378     		ldrb	r3, [r4]	@ zero_extendqisi2
 891 0012 33B1     		cbz	r3, .L61
 892              	.LVL53:
 893              	.L56:
 894              		.loc 1 160 1 view .LVU261
 895 0014 0E4B     		ldr	r3, .L63
 896 0016 1A68     		ldr	r2, [r3]
 897 0018 039B     		ldr	r3, [sp, #12]
 898 001a 5A40     		eors	r2, r3, r2
 899 001c 16D1     		bne	.L62
 900 001e 04B0     		add	sp, sp, #16
 901              		.cfi_remember_state
 902              		.cfi_def_cfa_offset 8
 903              		@ sp needed
 904 0020 10BD     		pop	{r4, pc}
 905              	.LVL54:
 906              	.L61:
 907              		.cfi_restore_state
 908              		.loc 1 142 2 is_stmt 1 view .LVU262
 909 0022 FFF7FEFF 		bl	i2c_start
 910              	.LVL55:
 911              		.loc 1 144 5 view .LVU263
ARM GAS  /tmp/ccWY0dwB.s 			page 17


 912              		.loc 1 144 14 is_stmt 0 view .LVU264
 913 0026 4FF4C840 		mov	r0, #25600
 914 002a FFF7FEFF 		bl	mpu9250_setup
 915              	.LVL56:
 916              		.loc 1 155 5 is_stmt 1 view .LVU265
 917              		.loc 1 155 7 is_stmt 0 view .LVU266
 918 002e 08B9     		cbnz	r0, .L58
 919              		.loc 1 156 6 is_stmt 1 view .LVU267
 920              		.loc 1 156 21 is_stmt 0 view .LVU268
 921 0030 0123     		movs	r3, #1
 922 0032 2370     		strb	r3, [r4]
 923              	.L58:
 924              		.loc 1 159 5 is_stmt 1 view .LVU269
 925              		.loc 1 159 14 is_stmt 0 view .LVU270
 926 0034 0023     		movs	r3, #0
 927 0036 0093     		str	r3, [sp]
 928 0038 0748     		ldr	r0, .L63+8
 929              	.LVL57:
 930              		.loc 1 159 14 view .LVU271
 931 003a 084B     		ldr	r3, .L63+12
 932 003c 4022     		movs	r2, #64
 933 003e 4FF45E71 		mov	r1, #888
 934 0042 FFF7FEFF 		bl	chThdCreateStatic
 935              	.LVL58:
 936              		.loc 1 159 12 view .LVU272
 937 0046 064B     		ldr	r3, .L63+16
 938 0048 1860     		str	r0, [r3]
 939 004a E3E7     		b	.L56
 940              	.L62:
 941              		.loc 1 160 1 view .LVU273
 942 004c FFF7FEFF 		bl	__stack_chk_fail
 943              	.LVL59:
 944              	.L64:
 945              		.align	2
 946              	.L63:
 947 0050 00000000 		.word	.LC4
 948 0054 00000000 		.word	.LANCHOR3
 949 0058 00000000 		.word	.LANCHOR14
 950 005c 00000000 		.word	imu_reader_thd
 951 0060 00000000 		.word	.LANCHOR15
 952              		.cfi_endproc
 953              	.LFE258:
 954              		.size	imu_start, .-imu_start
 955              		.section	.rodata.imu_stop.cst4,"aM",%progbits,4
 956              		.align	2
 957              	.LC5:
 958 0000 00000000 		.word	__stack_chk_guard
 959              		.section	.text.imu_stop,"ax",%progbits
 960              		.align	1
 961              		.p2align 4,,15
 962              		.global	imu_stop
 963              		.syntax unified
 964              		.thumb
 965              		.thumb_func
 966              		.fpu fpv4-sp-d16
 967              		.type	imu_stop, %function
 968              	imu_stop:
ARM GAS  /tmp/ccWY0dwB.s 			page 18


 969              	.LFB259:
 970              		.loc 1 162 21 is_stmt 1 view -0
 971              		.cfi_startproc
 972              		@ args = 0, pretend = 0, frame = 8
 973              		@ frame_needed = 0, uses_anonymous_args = 0
 974 0000 10B5     		push	{r4, lr}
 975              		.cfi_def_cfa_offset 8
 976              		.cfi_offset 4, -8
 977              		.cfi_offset 14, -4
 978              		.loc 1 163 5 is_stmt 0 view .LVU275
 979 0002 0D4C     		ldr	r4, .L69
 980              		.loc 1 162 21 view .LVU276
 981 0004 0D4B     		ldr	r3, .L69+4
 982              		.loc 1 163 5 view .LVU277
 983 0006 2068     		ldr	r0, [r4]
 984              		.loc 1 162 21 view .LVU278
 985 0008 82B0     		sub	sp, sp, #8
 986              		.cfi_def_cfa_offset 16
 987              		.loc 1 162 21 view .LVU279
 988 000a 1B68     		ldr	r3, [r3]
 989 000c 0193     		str	r3, [sp, #4]
 990 000e 4FF00003 		mov	r3,#0
 991              		.loc 1 163 5 is_stmt 1 view .LVU280
 992 0012 FFF7FEFF 		bl	chThdTerminate
 993              	.LVL60:
 994              		.loc 1 164 5 view .LVU281
 995 0016 2068     		ldr	r0, [r4]
 996 0018 FFF7FEFF 		bl	chThdWait
 997              	.LVL61:
 998              		.loc 1 165 5 view .LVU282
 999              		.loc 1 166 20 is_stmt 0 view .LVU283
 1000 001c 084A     		ldr	r2, .L69+8
 1001              		.loc 1 165 12 view .LVU284
 1002 001e 0023     		movs	r3, #0
 1003 0020 2360     		str	r3, [r4]
 1004              		.loc 1 166 5 is_stmt 1 view .LVU285
 1005              		.loc 1 166 20 is_stmt 0 view .LVU286
 1006 0022 1370     		strb	r3, [r2]
 1007              		.loc 1 167 1 view .LVU287
 1008 0024 054B     		ldr	r3, .L69+4
 1009 0026 1A68     		ldr	r2, [r3]
 1010 0028 019B     		ldr	r3, [sp, #4]
 1011 002a 5A40     		eors	r2, r3, r2
 1012 002c 01D1     		bne	.L68
 1013 002e 02B0     		add	sp, sp, #8
 1014              		.cfi_remember_state
 1015              		.cfi_def_cfa_offset 8
 1016              		@ sp needed
 1017 0030 10BD     		pop	{r4, pc}
 1018              	.L68:
 1019              		.cfi_restore_state
 1020 0032 FFF7FEFF 		bl	__stack_chk_fail
 1021              	.LVL62:
 1022              	.L70:
 1023 0036 00BF     		.align	2
 1024              	.L69:
 1025 0038 00000000 		.word	.LANCHOR15
ARM GAS  /tmp/ccWY0dwB.s 			page 19


 1026 003c 00000000 		.word	.LC5
 1027 0040 00000000 		.word	.LANCHOR3
 1028              		.cfi_endproc
 1029              	.LFE259:
 1030              		.size	imu_stop, .-imu_stop
 1031              		.section	.rodata.get_acc.cst4,"aM",%progbits,4
 1032              		.align	2
 1033              	.LC6:
 1034 0000 00000000 		.word	__stack_chk_guard
 1035              		.section	.text.get_acc,"ax",%progbits
 1036              		.align	1
 1037              		.p2align 4,,15
 1038              		.global	get_acc
 1039              		.syntax unified
 1040              		.thumb
 1041              		.thumb_func
 1042              		.fpu fpv4-sp-d16
 1043              		.type	get_acc, %function
 1044              	get_acc:
 1045              	.LVL63:
 1046              	.LFB260:
 1047              		.loc 1 170 31 is_stmt 1 view -0
 1048              		.cfi_startproc
 1049              		@ args = 0, pretend = 0, frame = 8
 1050              		@ frame_needed = 0, uses_anonymous_args = 0
 1051              		.loc 1 170 31 is_stmt 0 view .LVU289
 1052 0000 00B5     		push	{lr}
 1053              		.cfi_def_cfa_offset 4
 1054              		.cfi_offset 14, -4
 1055 0002 0C4B     		ldr	r3, .L77
 1056              		.loc 1 171 4 view .LVU290
 1057 0004 0228     		cmp	r0, #2
 1058              		.loc 1 170 31 view .LVU291
 1059 0006 83B0     		sub	sp, sp, #12
 1060              		.cfi_def_cfa_offset 16
 1061              		.loc 1 170 31 view .LVU292
 1062 0008 1B68     		ldr	r3, [r3]
 1063 000a 0193     		str	r3, [sp, #4]
 1064 000c 4FF00003 		mov	r3,#0
 1065              		.loc 1 171 2 is_stmt 1 view .LVU293
 1066              		.loc 1 172 3 view .LVU294
 1067              		.loc 1 172 28 is_stmt 0 view .LVU295
 1068 0010 9EBF     		ittt	ls
 1069 0012 1430     		addls	r0, r0, #20
 1070              	.LVL64:
 1071              		.loc 1 172 28 view .LVU296
 1072 0014 084B     		ldrls	r3, .L77+4
 1073 0016 33F91000 		ldrshls	r0, [r3, r0, lsl #1]
 1074              		.loc 1 175 1 view .LVU297
 1075 001a 064B     		ldr	r3, .L77
 1076              		.loc 1 174 9 view .LVU298
 1077 001c 88BF     		it	hi
 1078 001e 0020     		movhi	r0, #0
 1079              		.loc 1 175 1 view .LVU299
 1080 0020 1A68     		ldr	r2, [r3]
 1081 0022 019B     		ldr	r3, [sp, #4]
 1082 0024 5A40     		eors	r2, r3, r2
ARM GAS  /tmp/ccWY0dwB.s 			page 20


 1083 0026 02D1     		bne	.L76
 1084 0028 03B0     		add	sp, sp, #12
 1085              		.cfi_remember_state
 1086              		.cfi_def_cfa_offset 4
 1087              		@ sp needed
 1088 002a 5DF804FB 		ldr	pc, [sp], #4
 1089              	.L76:
 1090              		.cfi_restore_state
 1091 002e FFF7FEFF 		bl	__stack_chk_fail
 1092              	.LVL65:
 1093              	.L78:
 1094 0032 00BF     		.align	2
 1095              	.L77:
 1096 0034 00000000 		.word	.LC6
 1097 0038 00000000 		.word	.LANCHOR1
 1098              		.cfi_endproc
 1099              	.LFE260:
 1100              		.size	get_acc, .-get_acc
 1101              		.section	.rodata.get_acc_all.cst4,"aM",%progbits,4
 1102              		.align	2
 1103              	.LC7:
 1104 0000 00000000 		.word	__stack_chk_guard
 1105              		.section	.text.get_acc_all,"ax",%progbits
 1106              		.align	1
 1107              		.p2align 4,,15
 1108              		.global	get_acc_all
 1109              		.syntax unified
 1110              		.thumb
 1111              		.thumb_func
 1112              		.fpu fpv4-sp-d16
 1113              		.type	get_acc_all, %function
 1114              	get_acc_all:
 1115              	.LVL66:
 1116              	.LFB261:
 1117              		.loc 1 177 35 is_stmt 1 view -0
 1118              		.cfi_startproc
 1119              		@ args = 0, pretend = 0, frame = 8
 1120              		@ frame_needed = 0, uses_anonymous_args = 0
 1121              		.loc 1 177 35 is_stmt 0 view .LVU301
 1122 0000 00B5     		push	{lr}
 1123              		.cfi_def_cfa_offset 4
 1124              		.cfi_offset 14, -4
 1125              		.loc 1 178 32 view .LVU302
 1126 0002 0D4B     		ldr	r3, .L83
 1127              		.loc 1 177 35 view .LVU303
 1128 0004 0D4A     		ldr	r2, .L83+4
 1129 0006 83B0     		sub	sp, sp, #12
 1130              		.cfi_def_cfa_offset 16
 1131              		.loc 1 177 35 view .LVU304
 1132 0008 1268     		ldr	r2, [r2]
 1133 000a 0192     		str	r2, [sp, #4]
 1134 000c 4FF00002 		mov	r2,#0
 1135              		.loc 1 178 2 is_stmt 1 view .LVU305
 1136              		.loc 1 178 32 is_stmt 0 view .LVU306
 1137 0010 B3F92820 		ldrsh	r2, [r3, #40]
 1138              		.loc 1 178 12 view .LVU307
 1139 0014 0280     		strh	r2, [r0]	@ movhi
ARM GAS  /tmp/ccWY0dwB.s 			page 21


 1140              		.loc 1 179 2 is_stmt 1 view .LVU308
 1141              		.loc 1 179 32 is_stmt 0 view .LVU309
 1142 0016 B3F92A20 		ldrsh	r2, [r3, #42]
 1143              		.loc 1 179 12 view .LVU310
 1144 001a 4280     		strh	r2, [r0, #2]	@ movhi
 1145              		.loc 1 180 2 is_stmt 1 view .LVU311
 1146              		.loc 1 180 32 is_stmt 0 view .LVU312
 1147 001c B3F92C30 		ldrsh	r3, [r3, #44]
 1148              		.loc 1 180 12 view .LVU313
 1149 0020 8380     		strh	r3, [r0, #4]	@ movhi
 1150              		.loc 1 181 1 view .LVU314
 1151 0022 064B     		ldr	r3, .L83+4
 1152 0024 1A68     		ldr	r2, [r3]
 1153 0026 019B     		ldr	r3, [sp, #4]
 1154 0028 5A40     		eors	r2, r3, r2
 1155 002a 02D1     		bne	.L82
 1156 002c 03B0     		add	sp, sp, #12
 1157              		.cfi_remember_state
 1158              		.cfi_def_cfa_offset 4
 1159              		@ sp needed
 1160 002e 5DF804FB 		ldr	pc, [sp], #4
 1161              	.L82:
 1162              		.cfi_restore_state
 1163 0032 FFF7FEFF 		bl	__stack_chk_fail
 1164              	.LVL67:
 1165              	.L84:
 1166              		.loc 1 181 1 view .LVU315
 1167 0036 00BF     		.align	2
 1168              	.L83:
 1169 0038 00000000 		.word	.LANCHOR1
 1170 003c 00000000 		.word	.LC7
 1171              		.cfi_endproc
 1172              	.LFE261:
 1173              		.size	get_acc_all, .-get_acc_all
 1174              		.section	.rodata.get_acc_filtered.cst4,"aM",%progbits,4
 1175              		.align	2
 1176              	.LC8:
 1177 0000 00000000 		.word	__stack_chk_guard
 1178              		.section	.text.get_acc_filtered,"ax",%progbits
 1179              		.align	1
 1180              		.p2align 4,,15
 1181              		.global	get_acc_filtered
 1182              		.syntax unified
 1183              		.thumb
 1184              		.thumb_func
 1185              		.fpu fpv4-sp-d16
 1186              		.type	get_acc_filtered, %function
 1187              	get_acc_filtered:
 1188              	.LVL68:
 1189              	.LFB262:
 1190              		.loc 1 184 61 is_stmt 1 view -0
 1191              		.cfi_startproc
 1192              		@ args = 0, pretend = 0, frame = 8
 1193              		@ frame_needed = 0, uses_anonymous_args = 0
 1194              		.loc 1 184 61 is_stmt 0 view .LVU317
 1195 0000 00B5     		push	{lr}
 1196              		.cfi_def_cfa_offset 4
ARM GAS  /tmp/ccWY0dwB.s 			page 22


 1197              		.cfi_offset 14, -4
 1198 0002 0E4B     		ldr	r3, .L92
 1199 0004 83B0     		sub	sp, sp, #12
 1200              		.cfi_def_cfa_offset 16
 1201              		.loc 1 185 4 view .LVU318
 1202 0006 0228     		cmp	r0, #2
 1203              		.loc 1 184 61 view .LVU319
 1204 0008 1B68     		ldr	r3, [r3]
 1205 000a 0193     		str	r3, [sp, #4]
 1206 000c 4FF00003 		mov	r3,#0
 1207              		.loc 1 185 2 is_stmt 1 view .LVU320
 1208 0010 0A4B     		ldr	r3, .L92
 1209              		.loc 1 185 4 is_stmt 0 view .LVU321
 1210 0012 07D9     		bls	.L91
 1211              		.loc 1 198 1 view .LVU322
 1212 0014 1A68     		ldr	r2, [r3]
 1213 0016 019B     		ldr	r3, [sp, #4]
 1214 0018 5A40     		eors	r2, r3, r2
 1215 001a 0CD1     		bne	.L90
 1216 001c 0020     		movs	r0, #0
 1217              	.LVL69:
 1218              		.loc 1 198 1 view .LVU323
 1219 001e 03B0     		add	sp, sp, #12
 1220              		.cfi_remember_state
 1221              		.cfi_def_cfa_offset 4
 1222              		@ sp needed
 1223 0020 5DF804FB 		ldr	pc, [sp], #4
 1224              	.LVL70:
 1225              	.L91:
 1226              		.cfi_restore_state
 1227              		.loc 1 198 1 view .LVU324
 1228 0024 1A68     		ldr	r2, [r3]
 1229 0026 019B     		ldr	r3, [sp, #4]
 1230 0028 5A40     		eors	r2, r3, r2
 1231 002a 04D1     		bne	.L90
 1232 002c 03B0     		add	sp, sp, #12
 1233              		.cfi_remember_state
 1234              		.cfi_def_cfa_offset 4
 1235              		@ sp needed
 1236 002e 5DF804EB 		ldr	lr, [sp], #4
 1237              		.cfi_restore 14
 1238              		.cfi_def_cfa_offset 0
 1239 0032 FFF7FEBF 		b	get_acc_filtered.part.0
 1240              	.LVL71:
 1241              	.L90:
 1242              		.cfi_restore_state
 1243              		.loc 1 198 1 view .LVU325
 1244 0036 FFF7FEFF 		bl	__stack_chk_fail
 1245              	.LVL72:
 1246              	.L93:
 1247              		.loc 1 198 1 view .LVU326
 1248 003a 00BF     		.align	2
 1249              	.L92:
 1250 003c 00000000 		.word	.LC8
 1251              		.cfi_endproc
 1252              	.LFE262:
 1253              		.size	get_acc_filtered, .-get_acc_filtered
ARM GAS  /tmp/ccWY0dwB.s 			page 23


 1254              		.section	.rodata.calibrate_acc.cst4,"aM",%progbits,4
 1255              		.align	2
 1256              	.LC9:
 1257 0000 00000000 		.word	__stack_chk_guard
 1258              		.section	.text.calibrate_acc,"ax",%progbits
 1259              		.align	1
 1260              		.p2align 4,,15
 1261              		.global	calibrate_acc
 1262              		.syntax unified
 1263              		.thumb
 1264              		.thumb_func
 1265              		.fpu fpv4-sp-d16
 1266              		.type	calibrate_acc, %function
 1267              	calibrate_acc:
 1268              	.LFB263:
 1269              		.loc 1 201 26 is_stmt 1 view -0
 1270              		.cfi_startproc
 1271              		@ args = 0, pretend = 0, frame = 8
 1272              		@ frame_needed = 0, uses_anonymous_args = 0
 1273 0000 30B5     		push	{r4, r5, lr}
 1274              		.cfi_def_cfa_offset 12
 1275              		.cfi_offset 4, -12
 1276              		.cfi_offset 5, -8
 1277              		.cfi_offset 14, -4
 1278              		.loc 1 202 20 is_stmt 0 view .LVU328
 1279 0002 134B     		ldr	r3, .L103
 1280              		.loc 1 201 26 view .LVU329
 1281 0004 134A     		ldr	r2, .L103+4
 1282              		.loc 1 202 4 view .LVU330
 1283 0006 1B78     		ldrb	r3, [r3]	@ zero_extendqisi2
 1284              		.loc 1 201 26 view .LVU331
 1285 0008 83B0     		sub	sp, sp, #12
 1286              		.cfi_def_cfa_offset 24
 1287              		.loc 1 201 26 view .LVU332
 1288 000a 1268     		ldr	r2, [r2]
 1289 000c 0192     		str	r2, [sp, #4]
 1290 000e 4FF00002 		mov	r2,#0
 1291              		.loc 1 202 2 is_stmt 1 view .LVU333
 1292              		.loc 1 202 4 is_stmt 0 view .LVU334
 1293 0012 33B9     		cbnz	r3, .L101
 1294              	.L94:
 1295              		.loc 1 211 1 view .LVU335
 1296 0014 0F4B     		ldr	r3, .L103+4
 1297 0016 1A68     		ldr	r2, [r3]
 1298 0018 019B     		ldr	r3, [sp, #4]
 1299 001a 5A40     		eors	r2, r3, r2
 1300 001c 15D1     		bne	.L102
 1301 001e 03B0     		add	sp, sp, #12
 1302              		.cfi_remember_state
 1303              		.cfi_def_cfa_offset 12
 1304              		@ sp needed
 1305 0020 30BD     		pop	{r4, r5, pc}
 1306              	.L101:
 1307              		.cfi_restore_state
 1308              		.loc 1 203 3 is_stmt 1 view .LVU336
 1309              		.loc 1 203 28 is_stmt 0 view .LVU337
 1310 0022 0D4C     		ldr	r4, .L103+8
ARM GAS  /tmp/ccWY0dwB.s 			page 24


 1311 0024 0125     		movs	r5, #1
 1312              	.LBB112:
 1313              	.LBB113:
 1314 0026 3221     		movs	r1, #50
 1315 0028 0020     		movs	r0, #0
 1316              	.LBE113:
 1317              	.LBE112:
 1318 002a 2570     		strb	r5, [r4]
 1319              		.loc 1 204 3 is_stmt 1 view .LVU338
 1320              	.LVL73:
 1321              	.LBB115:
 1322              	.LBI112:
 1323              		.loc 1 184 9 view .LVU339
 1324              	.LBB114:
 1325              		.loc 1 185 2 view .LVU340
 1326 002c FFF7FEFF 		bl	get_acc_filtered.part.0
 1327              	.LVL74:
 1328              		.loc 1 185 2 is_stmt 0 view .LVU341
 1329              	.LBE114:
 1330              	.LBE115:
 1331              		.loc 1 205 3 is_stmt 1 view .LVU342
 1332              	.LBB116:
 1333              	.LBB117:
 1334 0030 3221     		movs	r1, #50
 1335 0032 2846     		mov	r0, r5
 1336              	.LBE117:
 1337              	.LBE116:
 1338              		.loc 1 205 28 is_stmt 0 view .LVU343
 1339 0034 2570     		strb	r5, [r4]
 1340              		.loc 1 206 3 is_stmt 1 view .LVU344
 1341              	.LVL75:
 1342              	.LBB119:
 1343              	.LBI116:
 1344              		.loc 1 184 9 view .LVU345
 1345              	.LBB118:
 1346              		.loc 1 185 2 view .LVU346
 1347 0036 FFF7FEFF 		bl	get_acc_filtered.part.0
 1348              	.LVL76:
 1349              		.loc 1 185 2 is_stmt 0 view .LVU347
 1350              	.LBE118:
 1351              	.LBE119:
 1352              		.loc 1 207 3 is_stmt 1 view .LVU348
 1353              	.LBB120:
 1354              	.LBB121:
 1355 003a 3221     		movs	r1, #50
 1356 003c 0220     		movs	r0, #2
 1357              	.LBE121:
 1358              	.LBE120:
 1359              		.loc 1 207 28 is_stmt 0 view .LVU349
 1360 003e 2570     		strb	r5, [r4]
 1361              		.loc 1 208 3 is_stmt 1 view .LVU350
 1362              	.LVL77:
 1363              	.LBB123:
 1364              	.LBI120:
 1365              		.loc 1 184 9 view .LVU351
 1366              	.LBB122:
 1367              		.loc 1 185 2 view .LVU352
ARM GAS  /tmp/ccWY0dwB.s 			page 25


 1368 0040 FFF7FEFF 		bl	get_acc_filtered.part.0
 1369              	.LVL78:
 1370              		.loc 1 185 2 is_stmt 0 view .LVU353
 1371              	.LBE122:
 1372              	.LBE123:
 1373              		.loc 1 209 3 is_stmt 1 view .LVU354
 1374              		.loc 1 209 28 is_stmt 0 view .LVU355
 1375 0044 0023     		movs	r3, #0
 1376 0046 2370     		strb	r3, [r4]
 1377              		.loc 1 211 1 view .LVU356
 1378 0048 E4E7     		b	.L94
 1379              	.L102:
 1380 004a FFF7FEFF 		bl	__stack_chk_fail
 1381              	.LVL79:
 1382              	.L104:
 1383 004e 00BF     		.align	2
 1384              	.L103:
 1385 0050 00000000 		.word	.LANCHOR3
 1386 0054 00000000 		.word	.LC9
 1387 0058 00000000 		.word	.LANCHOR8
 1388              		.cfi_endproc
 1389              	.LFE263:
 1390              		.size	calibrate_acc, .-calibrate_acc
 1391              		.section	.rodata.get_acc_offset.cst4,"aM",%progbits,4
 1392              		.align	2
 1393              	.LC10:
 1394 0000 00000000 		.word	__stack_chk_guard
 1395              		.section	.text.get_acc_offset,"ax",%progbits
 1396              		.align	1
 1397              		.p2align 4,,15
 1398              		.global	get_acc_offset
 1399              		.syntax unified
 1400              		.thumb
 1401              		.thumb_func
 1402              		.fpu fpv4-sp-d16
 1403              		.type	get_acc_offset, %function
 1404              	get_acc_offset:
 1405              	.LVL80:
 1406              	.LFB264:
 1407              		.loc 1 214 38 is_stmt 1 view -0
 1408              		.cfi_startproc
 1409              		@ args = 0, pretend = 0, frame = 8
 1410              		@ frame_needed = 0, uses_anonymous_args = 0
 1411              		.loc 1 214 38 is_stmt 0 view .LVU358
 1412 0000 00B5     		push	{lr}
 1413              		.cfi_def_cfa_offset 4
 1414              		.cfi_offset 14, -4
 1415 0002 0C4B     		ldr	r3, .L111
 1416              		.loc 1 215 4 view .LVU359
 1417 0004 0228     		cmp	r0, #2
 1418              		.loc 1 214 38 view .LVU360
 1419 0006 83B0     		sub	sp, sp, #12
 1420              		.cfi_def_cfa_offset 16
 1421              		.loc 1 214 38 view .LVU361
 1422 0008 1B68     		ldr	r3, [r3]
 1423 000a 0193     		str	r3, [sp, #4]
 1424 000c 4FF00003 		mov	r3,#0
ARM GAS  /tmp/ccWY0dwB.s 			page 26


 1425              		.loc 1 215 2 is_stmt 1 view .LVU362
 1426              		.loc 1 216 3 view .LVU363
 1427              		.loc 1 216 31 is_stmt 0 view .LVU364
 1428 0010 9CBF     		itt	ls
 1429 0012 094B     		ldrls	r3, .L111+4
 1430 0014 03EB4000 		addls	r0, r3, r0, lsl #1
 1431              	.LVL81:
 1432              		.loc 1 219 1 view .LVU365
 1433 0018 064B     		ldr	r3, .L111
 1434              		.loc 1 216 31 view .LVU366
 1435 001a 94BF     		ite	ls
 1436 001c B0F93400 		ldrshls	r0, [r0, #52]
 1437              		.loc 1 218 9 view .LVU367
 1438 0020 0020     		movhi	r0, #0
 1439              		.loc 1 219 1 view .LVU368
 1440 0022 1A68     		ldr	r2, [r3]
 1441 0024 019B     		ldr	r3, [sp, #4]
 1442 0026 5A40     		eors	r2, r3, r2
 1443 0028 02D1     		bne	.L110
 1444 002a 03B0     		add	sp, sp, #12
 1445              		.cfi_remember_state
 1446              		.cfi_def_cfa_offset 4
 1447              		@ sp needed
 1448 002c 5DF804FB 		ldr	pc, [sp], #4
 1449              	.L110:
 1450              		.cfi_restore_state
 1451 0030 FFF7FEFF 		bl	__stack_chk_fail
 1452              	.LVL82:
 1453              	.L112:
 1454              		.align	2
 1455              	.L111:
 1456 0034 00000000 		.word	.LC10
 1457 0038 00000000 		.word	.LANCHOR1
 1458              		.cfi_endproc
 1459              	.LFE264:
 1460              		.size	get_acc_offset, .-get_acc_offset
 1461              		.section	.rodata.get_acceleration.cst4,"aM",%progbits,4
 1462              		.align	2
 1463              	.LC11:
 1464 0000 00000000 		.word	__stack_chk_guard
 1465              		.section	.text.get_acceleration,"ax",%progbits
 1466              		.align	1
 1467              		.p2align 4,,15
 1468              		.global	get_acceleration
 1469              		.syntax unified
 1470              		.thumb
 1471              		.thumb_func
 1472              		.fpu fpv4-sp-d16
 1473              		.type	get_acceleration, %function
 1474              	get_acceleration:
 1475              	.LVL83:
 1476              	.LFB265:
 1477              		.loc 1 221 38 is_stmt 1 view -0
 1478              		.cfi_startproc
 1479              		@ args = 0, pretend = 0, frame = 8
 1480              		@ frame_needed = 0, uses_anonymous_args = 0
 1481              		.loc 1 221 38 is_stmt 0 view .LVU370
ARM GAS  /tmp/ccWY0dwB.s 			page 27


 1482 0000 00B5     		push	{lr}
 1483              		.cfi_def_cfa_offset 4
 1484              		.cfi_offset 14, -4
 1485 0002 0D4B     		ldr	r3, .L119
 1486              		.loc 1 222 4 view .LVU371
 1487 0004 0228     		cmp	r0, #2
 1488              		.loc 1 221 38 view .LVU372
 1489 0006 83B0     		sub	sp, sp, #12
 1490              		.cfi_def_cfa_offset 16
 1491              		.loc 1 221 38 view .LVU373
 1492 0008 1B68     		ldr	r3, [r3]
 1493 000a 0193     		str	r3, [sp, #4]
 1494 000c 4FF00003 		mov	r3,#0
 1495              		.loc 1 222 2 is_stmt 1 view .LVU374
 1496              		.loc 1 223 3 view .LVU375
 1497              		.loc 1 223 33 is_stmt 0 view .LVU376
 1498 0010 96BF     		itet	ls
 1499 0012 0A4B     		ldrls	r3, .L119+4
 1500              		.loc 1 225 9 view .LVU377
 1501 0014 9FED0A0A 		vldrhi.32	s0, .L119+8
 1502              		.loc 1 223 33 view .LVU378
 1503 0018 03EB8000 		addls	r0, r3, r0, lsl #2
 1504              	.LVL84:
 1505              		.loc 1 226 1 view .LVU379
 1506 001c 064B     		ldr	r3, .L119
 1507              		.loc 1 223 33 view .LVU380
 1508 001e 98BF     		it	ls
 1509 0020 90ED000A 		vldrls.32	s0, [r0]
 1510              		.loc 1 226 1 view .LVU381
 1511 0024 1A68     		ldr	r2, [r3]
 1512 0026 019B     		ldr	r3, [sp, #4]
 1513 0028 5A40     		eors	r2, r3, r2
 1514 002a 02D1     		bne	.L118
 1515 002c 03B0     		add	sp, sp, #12
 1516              		.cfi_remember_state
 1517              		.cfi_def_cfa_offset 4
 1518              		@ sp needed
 1519 002e 5DF804FB 		ldr	pc, [sp], #4
 1520              	.L118:
 1521              		.cfi_restore_state
 1522 0032 FFF7FEFF 		bl	__stack_chk_fail
 1523              	.LVL85:
 1524              	.L120:
 1525 0036 00BF     		.align	2
 1526              	.L119:
 1527 0038 00000000 		.word	.LC11
 1528 003c 00000000 		.word	.LANCHOR1
 1529 0040 00000000 		.word	0
 1530              		.cfi_endproc
 1531              	.LFE265:
 1532              		.size	get_acceleration, .-get_acceleration
 1533              		.section	.rodata.get_gyro.cst4,"aM",%progbits,4
 1534              		.align	2
 1535              	.LC12:
 1536 0000 00000000 		.word	__stack_chk_guard
 1537              		.section	.text.get_gyro,"ax",%progbits
 1538              		.align	1
ARM GAS  /tmp/ccWY0dwB.s 			page 28


 1539              		.p2align 4,,15
 1540              		.global	get_gyro
 1541              		.syntax unified
 1542              		.thumb
 1543              		.thumb_func
 1544              		.fpu fpv4-sp-d16
 1545              		.type	get_gyro, %function
 1546              	get_gyro:
 1547              	.LVL86:
 1548              	.LFB266:
 1549              		.loc 1 228 32 is_stmt 1 view -0
 1550              		.cfi_startproc
 1551              		@ args = 0, pretend = 0, frame = 8
 1552              		@ frame_needed = 0, uses_anonymous_args = 0
 1553              		.loc 1 228 32 is_stmt 0 view .LVU383
 1554 0000 00B5     		push	{lr}
 1555              		.cfi_def_cfa_offset 4
 1556              		.cfi_offset 14, -4
 1557 0002 0C4B     		ldr	r3, .L127
 1558              		.loc 1 229 4 view .LVU384
 1559 0004 0228     		cmp	r0, #2
 1560              		.loc 1 228 32 view .LVU385
 1561 0006 83B0     		sub	sp, sp, #12
 1562              		.cfi_def_cfa_offset 16
 1563              		.loc 1 228 32 view .LVU386
 1564 0008 1B68     		ldr	r3, [r3]
 1565 000a 0193     		str	r3, [sp, #4]
 1566 000c 4FF00003 		mov	r3,#0
 1567              		.loc 1 229 2 is_stmt 1 view .LVU387
 1568              		.loc 1 230 3 view .LVU388
 1569              		.loc 1 230 29 is_stmt 0 view .LVU389
 1570 0010 9CBF     		itt	ls
 1571 0012 094B     		ldrls	r3, .L127+4
 1572 0014 03EB4000 		addls	r0, r3, r0, lsl #1
 1573              	.LVL87:
 1574              		.loc 1 233 1 view .LVU390
 1575 0018 064B     		ldr	r3, .L127
 1576              		.loc 1 230 29 view .LVU391
 1577 001a 94BF     		ite	ls
 1578 001c B0F92E00 		ldrshls	r0, [r0, #46]
 1579              		.loc 1 232 9 view .LVU392
 1580 0020 0020     		movhi	r0, #0
 1581              		.loc 1 233 1 view .LVU393
 1582 0022 1A68     		ldr	r2, [r3]
 1583 0024 019B     		ldr	r3, [sp, #4]
 1584 0026 5A40     		eors	r2, r3, r2
 1585 0028 02D1     		bne	.L126
 1586 002a 03B0     		add	sp, sp, #12
 1587              		.cfi_remember_state
 1588              		.cfi_def_cfa_offset 4
 1589              		@ sp needed
 1590 002c 5DF804FB 		ldr	pc, [sp], #4
 1591              	.L126:
 1592              		.cfi_restore_state
 1593 0030 FFF7FEFF 		bl	__stack_chk_fail
 1594              	.LVL88:
 1595              	.L128:
ARM GAS  /tmp/ccWY0dwB.s 			page 29


 1596              		.align	2
 1597              	.L127:
 1598 0034 00000000 		.word	.LC12
 1599 0038 00000000 		.word	.LANCHOR1
 1600              		.cfi_endproc
 1601              	.LFE266:
 1602              		.size	get_gyro, .-get_gyro
 1603              		.section	.rodata.get_gyro_all.cst4,"aM",%progbits,4
 1604              		.align	2
 1605              	.LC13:
 1606 0000 00000000 		.word	__stack_chk_guard
 1607              		.section	.text.get_gyro_all,"ax",%progbits
 1608              		.align	1
 1609              		.p2align 4,,15
 1610              		.global	get_gyro_all
 1611              		.syntax unified
 1612              		.thumb
 1613              		.thumb_func
 1614              		.fpu fpv4-sp-d16
 1615              		.type	get_gyro_all, %function
 1616              	get_gyro_all:
 1617              	.LVL89:
 1618              	.LFB267:
 1619              		.loc 1 235 36 is_stmt 1 view -0
 1620              		.cfi_startproc
 1621              		@ args = 0, pretend = 0, frame = 8
 1622              		@ frame_needed = 0, uses_anonymous_args = 0
 1623              		.loc 1 235 36 is_stmt 0 view .LVU395
 1624 0000 00B5     		push	{lr}
 1625              		.cfi_def_cfa_offset 4
 1626              		.cfi_offset 14, -4
 1627              		.loc 1 236 33 view .LVU396
 1628 0002 0D4B     		ldr	r3, .L133
 1629              		.loc 1 235 36 view .LVU397
 1630 0004 0D4A     		ldr	r2, .L133+4
 1631 0006 83B0     		sub	sp, sp, #12
 1632              		.cfi_def_cfa_offset 16
 1633              		.loc 1 235 36 view .LVU398
 1634 0008 1268     		ldr	r2, [r2]
 1635 000a 0192     		str	r2, [sp, #4]
 1636 000c 4FF00002 		mov	r2,#0
 1637              		.loc 1 236 2 is_stmt 1 view .LVU399
 1638              		.loc 1 236 33 is_stmt 0 view .LVU400
 1639 0010 B3F92E20 		ldrsh	r2, [r3, #46]
 1640              		.loc 1 236 12 view .LVU401
 1641 0014 0280     		strh	r2, [r0]	@ movhi
 1642              		.loc 1 237 2 is_stmt 1 view .LVU402
 1643              		.loc 1 237 33 is_stmt 0 view .LVU403
 1644 0016 B3F93020 		ldrsh	r2, [r3, #48]
 1645              		.loc 1 237 12 view .LVU404
 1646 001a 4280     		strh	r2, [r0, #2]	@ movhi
 1647              		.loc 1 238 2 is_stmt 1 view .LVU405
 1648              		.loc 1 238 33 is_stmt 0 view .LVU406
 1649 001c B3F93230 		ldrsh	r3, [r3, #50]
 1650              		.loc 1 238 12 view .LVU407
 1651 0020 8380     		strh	r3, [r0, #4]	@ movhi
 1652              		.loc 1 239 1 view .LVU408
ARM GAS  /tmp/ccWY0dwB.s 			page 30


 1653 0022 064B     		ldr	r3, .L133+4
 1654 0024 1A68     		ldr	r2, [r3]
 1655 0026 019B     		ldr	r3, [sp, #4]
 1656 0028 5A40     		eors	r2, r3, r2
 1657 002a 02D1     		bne	.L132
 1658 002c 03B0     		add	sp, sp, #12
 1659              		.cfi_remember_state
 1660              		.cfi_def_cfa_offset 4
 1661              		@ sp needed
 1662 002e 5DF804FB 		ldr	pc, [sp], #4
 1663              	.L132:
 1664              		.cfi_restore_state
 1665 0032 FFF7FEFF 		bl	__stack_chk_fail
 1666              	.LVL90:
 1667              	.L134:
 1668              		.loc 1 239 1 view .LVU409
 1669 0036 00BF     		.align	2
 1670              	.L133:
 1671 0038 00000000 		.word	.LANCHOR1
 1672 003c 00000000 		.word	.LC13
 1673              		.cfi_endproc
 1674              	.LFE267:
 1675              		.size	get_gyro_all, .-get_gyro_all
 1676              		.section	.rodata.get_gyro_filtered.cst4,"aM",%progbits,4
 1677              		.align	2
 1678              	.LC14:
 1679 0000 00000000 		.word	__stack_chk_guard
 1680              		.section	.text.get_gyro_filtered,"ax",%progbits
 1681              		.align	1
 1682              		.p2align 4,,15
 1683              		.global	get_gyro_filtered
 1684              		.syntax unified
 1685              		.thumb
 1686              		.thumb_func
 1687              		.fpu fpv4-sp-d16
 1688              		.type	get_gyro_filtered, %function
 1689              	get_gyro_filtered:
 1690              	.LVL91:
 1691              	.LFB268:
 1692              		.loc 1 241 62 is_stmt 1 view -0
 1693              		.cfi_startproc
 1694              		@ args = 0, pretend = 0, frame = 8
 1695              		@ frame_needed = 0, uses_anonymous_args = 0
 1696              		.loc 1 241 62 is_stmt 0 view .LVU411
 1697 0000 00B5     		push	{lr}
 1698              		.cfi_def_cfa_offset 4
 1699              		.cfi_offset 14, -4
 1700 0002 0E4B     		ldr	r3, .L142
 1701 0004 83B0     		sub	sp, sp, #12
 1702              		.cfi_def_cfa_offset 16
 1703              		.loc 1 242 4 view .LVU412
 1704 0006 0228     		cmp	r0, #2
 1705              		.loc 1 241 62 view .LVU413
 1706 0008 1B68     		ldr	r3, [r3]
 1707 000a 0193     		str	r3, [sp, #4]
 1708 000c 4FF00003 		mov	r3,#0
 1709              		.loc 1 242 2 is_stmt 1 view .LVU414
ARM GAS  /tmp/ccWY0dwB.s 			page 31


 1710 0010 0A4B     		ldr	r3, .L142
 1711              		.loc 1 242 4 is_stmt 0 view .LVU415
 1712 0012 07D9     		bls	.L141
 1713              		.loc 1 255 1 view .LVU416
 1714 0014 1A68     		ldr	r2, [r3]
 1715 0016 019B     		ldr	r3, [sp, #4]
 1716 0018 5A40     		eors	r2, r3, r2
 1717 001a 0CD1     		bne	.L140
 1718 001c 0020     		movs	r0, #0
 1719              	.LVL92:
 1720              		.loc 1 255 1 view .LVU417
 1721 001e 03B0     		add	sp, sp, #12
 1722              		.cfi_remember_state
 1723              		.cfi_def_cfa_offset 4
 1724              		@ sp needed
 1725 0020 5DF804FB 		ldr	pc, [sp], #4
 1726              	.LVL93:
 1727              	.L141:
 1728              		.cfi_restore_state
 1729              		.loc 1 255 1 view .LVU418
 1730 0024 1A68     		ldr	r2, [r3]
 1731 0026 019B     		ldr	r3, [sp, #4]
 1732 0028 5A40     		eors	r2, r3, r2
 1733 002a 04D1     		bne	.L140
 1734 002c 03B0     		add	sp, sp, #12
 1735              		.cfi_remember_state
 1736              		.cfi_def_cfa_offset 4
 1737              		@ sp needed
 1738 002e 5DF804EB 		ldr	lr, [sp], #4
 1739              		.cfi_restore 14
 1740              		.cfi_def_cfa_offset 0
 1741 0032 FFF7FEBF 		b	get_gyro_filtered.part.0
 1742              	.LVL94:
 1743              	.L140:
 1744              		.cfi_restore_state
 1745              		.loc 1 255 1 view .LVU419
 1746 0036 FFF7FEFF 		bl	__stack_chk_fail
 1747              	.LVL95:
 1748              	.L143:
 1749              		.loc 1 255 1 view .LVU420
 1750 003a 00BF     		.align	2
 1751              	.L142:
 1752 003c 00000000 		.word	.LC14
 1753              		.cfi_endproc
 1754              	.LFE268:
 1755              		.size	get_gyro_filtered, .-get_gyro_filtered
 1756              		.section	.rodata.get_gyro_offset.cst4,"aM",%progbits,4
 1757              		.align	2
 1758              	.LC15:
 1759 0000 00000000 		.word	__stack_chk_guard
 1760              		.section	.text.get_gyro_offset,"ax",%progbits
 1761              		.align	1
 1762              		.p2align 4,,15
 1763              		.global	get_gyro_offset
 1764              		.syntax unified
 1765              		.thumb
 1766              		.thumb_func
ARM GAS  /tmp/ccWY0dwB.s 			page 32


 1767              		.fpu fpv4-sp-d16
 1768              		.type	get_gyro_offset, %function
 1769              	get_gyro_offset:
 1770              	.LVL96:
 1771              	.LFB269:
 1772              		.loc 1 257 39 is_stmt 1 view -0
 1773              		.cfi_startproc
 1774              		@ args = 0, pretend = 0, frame = 8
 1775              		@ frame_needed = 0, uses_anonymous_args = 0
 1776              		.loc 1 257 39 is_stmt 0 view .LVU422
 1777 0000 00B5     		push	{lr}
 1778              		.cfi_def_cfa_offset 4
 1779              		.cfi_offset 14, -4
 1780 0002 0C4B     		ldr	r3, .L150
 1781              		.loc 1 258 4 view .LVU423
 1782 0004 0228     		cmp	r0, #2
 1783              		.loc 1 257 39 view .LVU424
 1784 0006 83B0     		sub	sp, sp, #12
 1785              		.cfi_def_cfa_offset 16
 1786              		.loc 1 257 39 view .LVU425
 1787 0008 1B68     		ldr	r3, [r3]
 1788 000a 0193     		str	r3, [sp, #4]
 1789 000c 4FF00003 		mov	r3,#0
 1790              		.loc 1 258 2 is_stmt 1 view .LVU426
 1791              		.loc 1 259 3 view .LVU427
 1792              		.loc 1 259 32 is_stmt 0 view .LVU428
 1793 0010 9CBF     		itt	ls
 1794 0012 094B     		ldrls	r3, .L150+4
 1795 0014 03EB4000 		addls	r0, r3, r0, lsl #1
 1796              	.LVL97:
 1797              		.loc 1 262 1 view .LVU429
 1798 0018 064B     		ldr	r3, .L150
 1799              		.loc 1 259 32 view .LVU430
 1800 001a 94BF     		ite	ls
 1801 001c B0F93A00 		ldrshls	r0, [r0, #58]
 1802              		.loc 1 261 9 view .LVU431
 1803 0020 0020     		movhi	r0, #0
 1804              		.loc 1 262 1 view .LVU432
 1805 0022 1A68     		ldr	r2, [r3]
 1806 0024 019B     		ldr	r3, [sp, #4]
 1807 0026 5A40     		eors	r2, r3, r2
 1808 0028 02D1     		bne	.L149
 1809 002a 03B0     		add	sp, sp, #12
 1810              		.cfi_remember_state
 1811              		.cfi_def_cfa_offset 4
 1812              		@ sp needed
 1813 002c 5DF804FB 		ldr	pc, [sp], #4
 1814              	.L149:
 1815              		.cfi_restore_state
 1816 0030 FFF7FEFF 		bl	__stack_chk_fail
 1817              	.LVL98:
 1818              	.L151:
 1819              		.align	2
 1820              	.L150:
 1821 0034 00000000 		.word	.LC15
 1822 0038 00000000 		.word	.LANCHOR1
 1823              		.cfi_endproc
ARM GAS  /tmp/ccWY0dwB.s 			page 33


 1824              	.LFE269:
 1825              		.size	get_gyro_offset, .-get_gyro_offset
 1826              		.section	.rodata.calibrate_gyro.cst4,"aM",%progbits,4
 1827              		.align	2
 1828              	.LC16:
 1829 0000 00000000 		.word	__stack_chk_guard
 1830              		.section	.text.calibrate_gyro,"ax",%progbits
 1831              		.align	1
 1832              		.p2align 4,,15
 1833              		.global	calibrate_gyro
 1834              		.syntax unified
 1835              		.thumb
 1836              		.thumb_func
 1837              		.fpu fpv4-sp-d16
 1838              		.type	calibrate_gyro, %function
 1839              	calibrate_gyro:
 1840              	.LFB270:
 1841              		.loc 1 265 27 is_stmt 1 view -0
 1842              		.cfi_startproc
 1843              		@ args = 0, pretend = 0, frame = 8
 1844              		@ frame_needed = 0, uses_anonymous_args = 0
 1845 0000 30B5     		push	{r4, r5, lr}
 1846              		.cfi_def_cfa_offset 12
 1847              		.cfi_offset 4, -12
 1848              		.cfi_offset 5, -8
 1849              		.cfi_offset 14, -4
 1850              		.loc 1 266 20 is_stmt 0 view .LVU434
 1851 0002 134B     		ldr	r3, .L161
 1852              		.loc 1 265 27 view .LVU435
 1853 0004 134A     		ldr	r2, .L161+4
 1854              		.loc 1 266 4 view .LVU436
 1855 0006 1B78     		ldrb	r3, [r3]	@ zero_extendqisi2
 1856              		.loc 1 265 27 view .LVU437
 1857 0008 83B0     		sub	sp, sp, #12
 1858              		.cfi_def_cfa_offset 24
 1859              		.loc 1 265 27 view .LVU438
 1860 000a 1268     		ldr	r2, [r2]
 1861 000c 0192     		str	r2, [sp, #4]
 1862 000e 4FF00002 		mov	r2,#0
 1863              		.loc 1 266 2 is_stmt 1 view .LVU439
 1864              		.loc 1 266 4 is_stmt 0 view .LVU440
 1865 0012 33B9     		cbnz	r3, .L159
 1866              	.L152:
 1867              		.loc 1 276 1 view .LVU441
 1868 0014 0F4B     		ldr	r3, .L161+4
 1869 0016 1A68     		ldr	r2, [r3]
 1870 0018 019B     		ldr	r3, [sp, #4]
 1871 001a 5A40     		eors	r2, r3, r2
 1872 001c 15D1     		bne	.L160
 1873 001e 03B0     		add	sp, sp, #12
 1874              		.cfi_remember_state
 1875              		.cfi_def_cfa_offset 12
 1876              		@ sp needed
 1877 0020 30BD     		pop	{r4, r5, pc}
 1878              	.L159:
 1879              		.cfi_restore_state
 1880              		.loc 1 267 3 is_stmt 1 view .LVU442
ARM GAS  /tmp/ccWY0dwB.s 			page 34


 1881              		.loc 1 267 29 is_stmt 0 view .LVU443
 1882 0022 0D4C     		ldr	r4, .L161+8
 1883 0024 0125     		movs	r5, #1
 1884              	.LBB124:
 1885              	.LBB125:
 1886 0026 3221     		movs	r1, #50
 1887 0028 0020     		movs	r0, #0
 1888              	.LBE125:
 1889              	.LBE124:
 1890 002a 2570     		strb	r5, [r4]
 1891              		.loc 1 268 3 is_stmt 1 view .LVU444
 1892              	.LVL99:
 1893              	.LBB127:
 1894              	.LBI124:
 1895              		.loc 1 241 9 view .LVU445
 1896              	.LBB126:
 1897              		.loc 1 242 2 view .LVU446
 1898 002c FFF7FEFF 		bl	get_gyro_filtered.part.0
 1899              	.LVL100:
 1900              		.loc 1 242 2 is_stmt 0 view .LVU447
 1901              	.LBE126:
 1902              	.LBE127:
 1903              		.loc 1 269 3 is_stmt 1 view .LVU448
 1904              	.LBB128:
 1905              	.LBB129:
 1906 0030 3221     		movs	r1, #50
 1907 0032 2846     		mov	r0, r5
 1908              	.LBE129:
 1909              	.LBE128:
 1910              		.loc 1 269 29 is_stmt 0 view .LVU449
 1911 0034 2570     		strb	r5, [r4]
 1912              		.loc 1 270 3 is_stmt 1 view .LVU450
 1913              	.LVL101:
 1914              	.LBB131:
 1915              	.LBI128:
 1916              		.loc 1 241 9 view .LVU451
 1917              	.LBB130:
 1918              		.loc 1 242 2 view .LVU452
 1919 0036 FFF7FEFF 		bl	get_gyro_filtered.part.0
 1920              	.LVL102:
 1921              		.loc 1 242 2 is_stmt 0 view .LVU453
 1922              	.LBE130:
 1923              	.LBE131:
 1924              		.loc 1 271 3 is_stmt 1 view .LVU454
 1925              	.LBB132:
 1926              	.LBB133:
 1927 003a 3221     		movs	r1, #50
 1928 003c 0220     		movs	r0, #2
 1929              	.LBE133:
 1930              	.LBE132:
 1931              		.loc 1 271 29 is_stmt 0 view .LVU455
 1932 003e 2570     		strb	r5, [r4]
 1933              		.loc 1 272 3 is_stmt 1 view .LVU456
 1934              	.LVL103:
 1935              	.LBB135:
 1936              	.LBI132:
 1937              		.loc 1 241 9 view .LVU457
ARM GAS  /tmp/ccWY0dwB.s 			page 35


 1938              	.LBB134:
 1939              		.loc 1 242 2 view .LVU458
 1940 0040 FFF7FEFF 		bl	get_gyro_filtered.part.0
 1941              	.LVL104:
 1942              		.loc 1 242 2 is_stmt 0 view .LVU459
 1943              	.LBE134:
 1944              	.LBE135:
 1945              		.loc 1 273 3 is_stmt 1 view .LVU460
 1946              		.loc 1 273 29 is_stmt 0 view .LVU461
 1947 0044 0023     		movs	r3, #0
 1948 0046 2370     		strb	r3, [r4]
 1949              		.loc 1 276 1 view .LVU462
 1950 0048 E4E7     		b	.L152
 1951              	.L160:
 1952 004a FFF7FEFF 		bl	__stack_chk_fail
 1953              	.LVL105:
 1954              	.L162:
 1955 004e 00BF     		.align	2
 1956              	.L161:
 1957 0050 00000000 		.word	.LANCHOR3
 1958 0054 00000000 		.word	.LC16
 1959 0058 00000000 		.word	.LANCHOR13
 1960              		.cfi_endproc
 1961              	.LFE270:
 1962              		.size	calibrate_gyro, .-calibrate_gyro
 1963              		.section	.rodata.get_gyro_rate.cst4,"aM",%progbits,4
 1964              		.align	2
 1965              	.LC17:
 1966 0000 00000000 		.word	__stack_chk_guard
 1967              		.section	.text.get_gyro_rate,"ax",%progbits
 1968              		.align	1
 1969              		.p2align 4,,15
 1970              		.global	get_gyro_rate
 1971              		.syntax unified
 1972              		.thumb
 1973              		.thumb_func
 1974              		.fpu fpv4-sp-d16
 1975              		.type	get_gyro_rate, %function
 1976              	get_gyro_rate:
 1977              	.LVL106:
 1978              	.LFB271:
 1979              		.loc 1 278 35 is_stmt 1 view -0
 1980              		.cfi_startproc
 1981              		@ args = 0, pretend = 0, frame = 8
 1982              		@ frame_needed = 0, uses_anonymous_args = 0
 1983              		.loc 1 278 35 is_stmt 0 view .LVU464
 1984 0000 00B5     		push	{lr}
 1985              		.cfi_def_cfa_offset 4
 1986              		.cfi_offset 14, -4
 1987 0002 0D4B     		ldr	r3, .L169
 1988              		.loc 1 279 4 view .LVU465
 1989 0004 0228     		cmp	r0, #2
 1990              		.loc 1 278 35 view .LVU466
 1991 0006 83B0     		sub	sp, sp, #12
 1992              		.cfi_def_cfa_offset 16
 1993              		.loc 1 278 35 view .LVU467
 1994 0008 1B68     		ldr	r3, [r3]
ARM GAS  /tmp/ccWY0dwB.s 			page 36


 1995 000a 0193     		str	r3, [sp, #4]
 1996 000c 4FF00003 		mov	r3,#0
 1997              		.loc 1 279 2 is_stmt 1 view .LVU468
 1998              		.loc 1 280 3 view .LVU469
 1999              		.loc 1 280 30 is_stmt 0 view .LVU470
 2000 0010 96BF     		itet	ls
 2001 0012 0A4B     		ldrls	r3, .L169+4
 2002              		.loc 1 282 9 view .LVU471
 2003 0014 9FED0A0A 		vldrhi.32	s0, .L169+8
 2004              		.loc 1 280 30 view .LVU472
 2005 0018 03EB8000 		addls	r0, r3, r0, lsl #2
 2006              	.LVL107:
 2007              		.loc 1 283 1 view .LVU473
 2008 001c 064B     		ldr	r3, .L169
 2009              		.loc 1 280 30 view .LVU474
 2010 001e 98BF     		it	ls
 2011 0020 90ED030A 		vldrls.32	s0, [r0, #12]
 2012              		.loc 1 283 1 view .LVU475
 2013 0024 1A68     		ldr	r2, [r3]
 2014 0026 019B     		ldr	r3, [sp, #4]
 2015 0028 5A40     		eors	r2, r3, r2
 2016 002a 02D1     		bne	.L168
 2017 002c 03B0     		add	sp, sp, #12
 2018              		.cfi_remember_state
 2019              		.cfi_def_cfa_offset 4
 2020              		@ sp needed
 2021 002e 5DF804FB 		ldr	pc, [sp], #4
 2022              	.L168:
 2023              		.cfi_restore_state
 2024 0032 FFF7FEFF 		bl	__stack_chk_fail
 2025              	.LVL108:
 2026              	.L170:
 2027 0036 00BF     		.align	2
 2028              	.L169:
 2029 0038 00000000 		.word	.LC17
 2030 003c 00000000 		.word	.LANCHOR1
 2031 0040 00000000 		.word	0
 2032              		.cfi_endproc
 2033              	.LFE271:
 2034              		.size	get_gyro_rate, .-get_gyro_rate
 2035              		.section	.rodata.get_temperature.cst4,"aM",%progbits,4
 2036              		.align	2
 2037              	.LC18:
 2038 0000 00000000 		.word	__stack_chk_guard
 2039              		.section	.text.get_temperature,"ax",%progbits
 2040              		.align	1
 2041              		.p2align 4,,15
 2042              		.global	get_temperature
 2043              		.syntax unified
 2044              		.thumb
 2045              		.thumb_func
 2046              		.fpu fpv4-sp-d16
 2047              		.type	get_temperature, %function
 2048              	get_temperature:
 2049              	.LFB272:
 2050              		.loc 1 285 29 is_stmt 1 view -0
 2051              		.cfi_startproc
ARM GAS  /tmp/ccWY0dwB.s 			page 37


 2052              		@ args = 0, pretend = 0, frame = 8
 2053              		@ frame_needed = 0, uses_anonymous_args = 0
 2054 0000 00B5     		push	{lr}
 2055              		.cfi_def_cfa_offset 4
 2056              		.cfi_offset 14, -4
 2057              		.loc 1 286 19 is_stmt 0 view .LVU477
 2058 0002 094B     		ldr	r3, .L175
 2059              		.loc 1 285 29 view .LVU478
 2060 0004 094A     		ldr	r2, .L175+4
 2061              		.loc 1 286 19 view .LVU479
 2062 0006 93ED060A 		vldr.32	s0, [r3, #24]
 2063              		.loc 1 287 1 view .LVU480
 2064 000a 084B     		ldr	r3, .L175+4
 2065              		.loc 1 285 29 view .LVU481
 2066 000c 83B0     		sub	sp, sp, #12
 2067              		.cfi_def_cfa_offset 16
 2068              		.loc 1 285 29 view .LVU482
 2069 000e 1268     		ldr	r2, [r2]
 2070 0010 0192     		str	r2, [sp, #4]
 2071 0012 4FF00002 		mov	r2,#0
 2072              		.loc 1 286 2 is_stmt 1 view .LVU483
 2073              		.loc 1 287 1 is_stmt 0 view .LVU484
 2074 0016 1A68     		ldr	r2, [r3]
 2075 0018 019B     		ldr	r3, [sp, #4]
 2076 001a 5A40     		eors	r2, r3, r2
 2077 001c 02D1     		bne	.L174
 2078 001e 03B0     		add	sp, sp, #12
 2079              		.cfi_remember_state
 2080              		.cfi_def_cfa_offset 4
 2081              		@ sp needed
 2082 0020 5DF804FB 		ldr	pc, [sp], #4
 2083              	.L174:
 2084              		.cfi_restore_state
 2085 0024 FFF7FEFF 		bl	__stack_chk_fail
 2086              	.LVL109:
 2087              	.L176:
 2088              		.align	2
 2089              	.L175:
 2090 0028 00000000 		.word	.LANCHOR1
 2091 002c 00000000 		.word	.LC18
 2092              		.cfi_endproc
 2093              	.LFE272:
 2094              		.size	get_temperature, .-get_temperature
 2095              		.section	.bss.accAxisFilteringInProgress,"aw",%nobits
 2096              		.set	.LANCHOR4,. + 0
 2097              		.type	accAxisFilteringInProgress, %object
 2098              		.size	accAxisFilteringInProgress, 1
 2099              	accAxisFilteringInProgress:
 2100 0000 00       		.space	1
 2101              		.section	.bss.accAxisFilteringState,"aw",%nobits
 2102              		.set	.LANCHOR5,. + 0
 2103              		.type	accAxisFilteringState, %object
 2104              		.size	accAxisFilteringState, 1
 2105              	accAxisFilteringState:
 2106 0000 00       		.space	1
 2107              		.section	.bss.accAxisSelected,"aw",%nobits
 2108              		.set	.LANCHOR6,. + 0
ARM GAS  /tmp/ccWY0dwB.s 			page 38


 2109              		.type	accAxisSelected, %object
 2110              		.size	accAxisSelected, 1
 2111              	accAxisSelected:
 2112 0000 00       		.space	1
 2113              		.section	.bss.accCalibrationInProgress,"aw",%nobits
 2114              		.set	.LANCHOR8,. + 0
 2115              		.type	accCalibrationInProgress, %object
 2116              		.size	accCalibrationInProgress, 1
 2117              	accCalibrationInProgress:
 2118 0000 00       		.space	1
 2119              		.section	.bss.accFilterSize,"aw",%nobits
 2120              		.set	.LANCHOR7,. + 0
 2121              		.type	accFilterSize, %object
 2122              		.size	accFilterSize, 1
 2123              	accFilterSize:
 2124 0000 00       		.space	1
 2125              		.section	.bss.gyroAxisFilteringInProgress,"aw",%nobits
 2126              		.set	.LANCHOR9,. + 0
 2127              		.type	gyroAxisFilteringInProgress, %object
 2128              		.size	gyroAxisFilteringInProgress, 1
 2129              	gyroAxisFilteringInProgress:
 2130 0000 00       		.space	1
 2131              		.section	.bss.gyroAxisFilteringState,"aw",%nobits
 2132              		.set	.LANCHOR10,. + 0
 2133              		.type	gyroAxisFilteringState, %object
 2134              		.size	gyroAxisFilteringState, 1
 2135              	gyroAxisFilteringState:
 2136 0000 00       		.space	1
 2137              		.section	.bss.gyroAxisSelected,"aw",%nobits
 2138              		.set	.LANCHOR11,. + 0
 2139              		.type	gyroAxisSelected, %object
 2140              		.size	gyroAxisSelected, 1
 2141              	gyroAxisSelected:
 2142 0000 00       		.space	1
 2143              		.section	.bss.gyroCalibrationInProgress,"aw",%nobits
 2144              		.set	.LANCHOR13,. + 0
 2145              		.type	gyroCalibrationInProgress, %object
 2146              		.size	gyroCalibrationInProgress, 1
 2147              	gyroCalibrationInProgress:
 2148 0000 00       		.space	1
 2149              		.section	.bss.gyroFilterSize,"aw",%nobits
 2150              		.set	.LANCHOR12,. + 0
 2151              		.type	gyroFilterSize, %object
 2152              		.size	gyroFilterSize, 1
 2153              	gyroFilterSize:
 2154 0000 00       		.space	1
 2155              		.section	.bss.imuThd,"aw",%nobits
 2156              		.align	2
 2157              		.set	.LANCHOR15,. + 0
 2158              		.type	imuThd, %object
 2159              		.size	imuThd, 4
 2160              	imuThd:
 2161 0000 00000000 		.space	4
 2162              		.section	.bss.imu_configured,"aw",%nobits
 2163              		.set	.LANCHOR3,. + 0
 2164              		.type	imu_configured, %object
 2165              		.size	imu_configured, 1
ARM GAS  /tmp/ccWY0dwB.s 			page 39


 2166              	imu_configured:
 2167 0000 00       		.space	1
 2168              		.section	.bss.imu_reader_thd_wa,"aw",%nobits
 2169              		.align	3
 2170              		.set	.LANCHOR14,. + 0
 2171              		.type	imu_reader_thd_wa, %object
 2172              		.size	imu_reader_thd_wa, 888
 2173              	imu_reader_thd_wa:
 2174 0000 00000000 		.space	888
 2174      00000000 
 2174      00000000 
 2174      00000000 
 2174      00000000 
 2175              		.section	.bss.imu_values,"aw",%nobits
 2176              		.align	2
 2177              		.set	.LANCHOR1,. + 0
 2178              		.type	imu_values, %object
 2179              		.size	imu_values, 80
 2180              	imu_values:
 2181 0000 00000000 		.space	80
 2181      00000000 
 2181      00000000 
 2181      00000000 
 2181      00000000 
 2182              		.section	.rodata.__FUNCTION__.11548,"a"
 2183              		.align	2
 2184              		.set	.LANCHOR0,. + 0
 2185              		.type	__FUNCTION__.11548, %object
 2186              		.size	__FUNCTION__.11548, 15
 2187              	__FUNCTION__.11548:
 2188 0000 696D755F 		.ascii	"imu_reader_thd\000"
 2188      72656164 
 2188      65725F74 
 2188      686400
 2189              		.section	.rodata.__func__.7261,"a"
 2190              		.align	2
 2191              		.set	.LANCHOR2,. + 0
 2192              		.type	__func__.7261, %object
 2193              		.size	__func__.7261, 12
 2194              	__func__.7261:
 2195 0000 63685379 		.ascii	"chSysUnlock\000"
 2195      73556E6C 
 2195      6F636B00 
 2196              		.text
 2197              	.Letext0:
 2198              		.file 8 "/usr/lib/gcc/arm-none-eabi/9.2.1/include/stddef.h"
 2199              		.file 9 "/usr/lib/gcc/arm-none-eabi/9.2.1/include/stdint.h"
 2200              		.file 10 ".//ChibiOS//os/rt/ports/ARMCMx/compilers/GCC/chtypes.h"
 2201              		.file 11 ".//ChibiOS//os/rt/include/chsystypes.h"
 2202              		.file 12 ".//ChibiOS//os/rt/include/chschd.h"
 2203              		.file 13 ".//ChibiOS//os/ext/CMSIS/include/core_cm4.h"
 2204              		.file 14 ".//ChibiOS//os/ext/CMSIS/ST/system_stm32f4xx.h"
 2205              		.file 15 ".//ChibiOS//os/ext/CMSIS/ST/stm32f407xx.h"
 2206              		.file 16 ".//ChibiOS//os/rt/ports/ARMCMx/chcore.h"
 2207              		.file 17 ".//ChibiOS//os/rt/include/chdebug.h"
 2208              		.file 18 ".//ChibiOS//os/rt/include/chtm.h"
 2209              		.file 19 ".//ChibiOS//os/rt/include/chstats.h"
ARM GAS  /tmp/ccWY0dwB.s 			page 40


 2210              		.file 20 ".//ChibiOS//os/rt/include/chsem.h"
 2211              		.file 21 ".//ChibiOS//os/rt/include/chmtx.h"
 2212              		.file 22 ".//ChibiOS//os/rt/include/chcond.h"
 2213              		.file 23 ".//ChibiOS//os/rt/include/chevents.h"
 2214              		.file 24 ".//ChibiOS//os/rt/include/chqueues.h"
 2215              		.file 25 ".//ChibiOS//os/hal/ports/STM32/STM32F4xx/stm32_dma.h"
 2216              		.file 26 ".//ChibiOS//os/hal/include/hal_ioblock.h"
 2217              		.file 27 ".//ChibiOS//os/hal/ports/STM32/LLD/GPIOv2/pal_lld.h"
 2218              		.file 28 ".//ChibiOS//os/hal/include/adc.h"
 2219              		.file 29 ".//ChibiOS//os/hal/ports/STM32/STM32F4xx/adc_lld.h"
 2220              		.file 30 ".//ChibiOS//os/hal/include/can.h"
 2221              		.file 31 ".//ChibiOS//os/hal/ports/STM32/LLD/can_lld.h"
 2222              		.file 32 ".//ChibiOS//os/hal/include/dac.h"
 2223              		.file 33 ".//ChibiOS//os/hal/ports/STM32/LLD/DACv1/dac_lld.h"
 2224              		.file 34 ".//ChibiOS//os/hal/include/ext.h"
 2225              		.file 35 ".//ChibiOS//os/hal/ports/STM32/LLD/ext_lld.h"
 2226              		.file 36 ".//ChibiOS//os/hal/include/gpt.h"
 2227              		.file 37 ".//ChibiOS//os/hal/ports/STM32/LLD/TIMv1/gpt_lld.h"
 2228              		.file 38 ".//ChibiOS//os/hal/ports/STM32/LLD/TIMv1/stm32_tim.h"
 2229              		.file 39 ".//ChibiOS//os/hal/include/i2c.h"
 2230              		.file 40 ".//ChibiOS//os/hal/ports/STM32/LLD/I2Cv1/i2c_lld.h"
 2231              		.file 41 ".//ChibiOS//os/hal/include/i2s.h"
 2232              		.file 42 ".//ChibiOS//os/hal/ports/STM32/LLD/SPIv1/i2s_lld.h"
 2233              		.file 43 ".//ChibiOS//os/hal/include/pwm.h"
 2234              		.file 44 ".//ChibiOS//os/hal/ports/STM32/LLD/TIMv1/pwm_lld.h"
 2235              		.file 45 ".//ChibiOS//os/hal/include/serial.h"
 2236              		.file 46 ".//ChibiOS//os/hal/ports/STM32/LLD/USARTv1/serial_lld.h"
 2237              		.file 47 ".//ChibiOS//os/hal/include/sdc.h"
 2238              		.file 48 ".//ChibiOS//os/hal/ports/STM32/LLD/sdc_lld.h"
 2239              		.file 49 ".//ChibiOS//os/hal/include/spi.h"
 2240              		.file 50 ".//ChibiOS//os/hal/ports/STM32/LLD/SPIv1/spi_lld.h"
 2241              		.file 51 ".//ChibiOS//os/hal/include/usb.h"
 2242              		.file 52 ".//ChibiOS//os/hal/ports/STM32/LLD/OTGv1/usb_lld.h"
 2243              		.file 53 ".//ChibiOS//os/hal/ports/STM32/LLD/OTGv1/stm32_otg.h"
 2244              		.file 54 ".//ChibiOS//os/hal/include/serial_usb.h"
 2245              		.file 55 ".//ChibiOS_ext/os/hal/include/../ports/STM32/STM32F4xx/dcmi_lld.h"
 2246              		.file 56 "/usr/include/newlib/sys/_types.h"
 2247              		.file 57 "/usr/include/newlib/sys/unistd.h"
 2248              		.file 58 ".//src/msgbus/messagebus.h"
 2249              		.file 59 "/usr/include/newlib/sys/reent.h"
 2250              		.file 60 "/usr/include/newlib/sys/lock.h"
 2251              		.file 61 "/usr/include/newlib/stdlib.h"
 2252              		.file 62 ".//src/parameter/parameter.h"
 2253              		.file 63 ".//src/main.h"
 2254              		.file 64 ".//src/usbcfg.h"
 2255              		.file 65 ".//src/sensors/imu.h"
 2256              		.file 66 ".//src/exti.h"
 2257              		.file 67 ".//src/i2c_bus.h"
 2258              		.file 68 ".//src/sensors/mpu9250.h"