ARM GAS  /tmp/ccOCNcnq.s 			page 1


   1              		.cpu cortex-m4
   2              		.eabi_attribute 27, 1
   3              		.eabi_attribute 28, 1
   4              		.eabi_attribute 20, 1
   5              		.eabi_attribute 21, 1
   6              		.eabi_attribute 23, 3
   7              		.eabi_attribute 24, 1
   8              		.eabi_attribute 25, 1
   9              		.eabi_attribute 26, 1
  10              		.eabi_attribute 30, 2
  11              		.eabi_attribute 34, 1
  12              		.eabi_attribute 18, 4
  13              		.file	"ir_remote.c"
  14              		.text
  15              	.Ltext0:
  16              		.cfi_sections	.debug_frame
  17              		.section	.rodata.remote_motion_thd.str1.4,"aMS",%progbits,1
  18              		.align	2
  19              	.LC0:
  20 0000 2F69725F 		.ascii	"/ir_remote\000"
  20      72656D6F 
  20      746500
  21              		.section	.rodata.remote_motion_thd.cst4,"aM",%progbits,4
  22              		.align	2
  23              	.LC1:
  24 0000 00000000 		.word	__stack_chk_guard
  25              		.section	.text.remote_motion_thd,"ax",%progbits
  26              		.align	1
  27              		.p2align 4,,15
  28              		.arch armv7e-m
  29              		.syntax unified
  30              		.thumb
  31              		.thumb_func
  32              		.fpu fpv4-sp-d16
  33              		.type	remote_motion_thd, %function
  34              	remote_motion_thd:
  35              	.LVL0:
  36              	.LFB263:
  37              		.file 1 ".//src/ir_remote.c"
  38              		.loc 1 248 1 view -0
  39              		.cfi_startproc
  40              		@ args = 0, pretend = 0, frame = 8
  41              		@ frame_needed = 0, uses_anonymous_args = 0
  42              		.loc 1 248 1 is_stmt 0 view .LVU1
  43 0000 2DE9F043 		push	{r4, r5, r6, r7, r8, r9, lr}
  44              		.cfi_def_cfa_offset 28
  45              		.cfi_offset 4, -28
  46              		.cfi_offset 5, -24
  47              		.cfi_offset 6, -20
  48              		.cfi_offset 7, -16
  49              		.cfi_offset 8, -12
  50              		.cfi_offset 9, -8
  51              		.cfi_offset 14, -4
  52              	.LBB62:
  53              	.LBB63:
  54              		.file 2 ".//ChibiOS//os/rt/include/chregistry.h"
  55              		.loc 2 135 11 view .LVU2
ARM GAS  /tmp/ccOCNcnq.s 			page 2


  56 0004 5E4C     		ldr	r4, .L19
  57              		.loc 2 135 30 view .LVU3
  58 0006 5F4A     		ldr	r2, .L19+4
  59              		.loc 2 135 11 view .LVU4
  60 0008 A369     		ldr	r3, [r4, #24]
  61              	.LBE63:
  62              	.LBE62:
  63              		.loc 1 252 43 view .LVU5
  64 000a 5F49     		ldr	r1, .L19+8
  65              	.LBB66:
  66              	.LBB64:
  67              		.loc 2 135 30 view .LVU6
  68 000c 9A61     		str	r2, [r3, #24]
  69              	.LBE64:
  70              	.LBE66:
  71              		.loc 1 248 1 view .LVU7
  72 000e 5F4B     		ldr	r3, .L19+12
  73              		.loc 1 252 43 view .LVU8
  74 0010 5F48     		ldr	r0, .L19+16
  75              	.LVL1:
  76              	.LBB67:
  77              	.LBB68:
  78              	.LBB69:
  79              	.LBB70:
  80              		.file 3 ".//ChibiOS//os/rt/include/chsys.h"
  81              		.loc 3 367 3 view .LVU9
  82 0012 DFF88091 		ldr	r9, .L19+20
  83              	.LBE70:
  84              	.LBE69:
  85              	.LBE68:
  86              	.LBE67:
  87              		.loc 1 311 5 view .LVU10
  88 0016 DFF88081 		ldr	r8, .L19+24
  89              		.loc 1 248 1 view .LVU11
  90 001a 83B0     		sub	sp, sp, #12
  91              		.cfi_def_cfa_offset 40
  92              		.loc 1 248 1 view .LVU12
  93 001c 1B68     		ldr	r3, [r3]
  94 001e 0193     		str	r3, [sp, #4]
  95 0020 4FF00003 		mov	r3,#0
  96              		.loc 1 249 5 is_stmt 1 view .LVU13
  97              		.loc 1 250 5 view .LVU14
  98              	.LVL2:
  99              	.LBB101:
 100              	.LBI62:
 101              		.loc 2 132 20 view .LVU15
 102              	.LBB65:
 103              		.loc 2 135 3 view .LVU16
 104              		.loc 2 135 3 is_stmt 0 view .LVU17
 105              	.LBE65:
 106              	.LBE101:
 107              		.loc 1 251 5 is_stmt 1 view .LVU18
 108              		.loc 1 252 5 view .LVU19
 109              		.loc 1 252 43 is_stmt 0 view .LVU20
 110 0024 FFF7FEFF 		bl	messagebus_find_topic_blocking
 111              	.LVL3:
 112              	.LBB102:
ARM GAS  /tmp/ccOCNcnq.s 			page 3


 113              	.LBB96:
 114              	.LBB78:
 115              	.LBB79:
 116              	.LBB80:
 117              	.LBB81:
 118              	.LBB82:
 119              		.file 4 ".//ChibiOS//os/ext/CMSIS/include/core_cmFunc.h"
 120              		.loc 4 546 3 view .LVU21
 121 0028 2027     		movs	r7, #32
 122              	.LBE82:
 123              	.LBE81:
 124              	.LBE80:
 125              	.LBE79:
 126              	.LBE78:
 127              	.LBE96:
 128              	.LBE102:
 129              		.loc 1 252 43 view .LVU22
 130 002a 0646     		mov	r6, r0
 131              	.LVL4:
 132              	.L14:
 133              		.loc 1 253 5 is_stmt 1 view .LVU23
 134              		.loc 1 255 5 view .LVU24
 135              		.loc 1 257 6 view .LVU25
 136              	.LBB103:
 137              	.LBI67:
 138              		.file 5 ".//ChibiOS//os/rt/include/chvt.h"
 139              		.loc 5 247 25 view .LVU26
 140              	.LBB97:
 141              		.loc 5 248 3 view .LVU27
 142              		.loc 5 250 3 view .LVU28
 143              	.LBB89:
 144              	.LBI78:
 145              		.loc 3 346 20 view .LVU29
 146              	.LBB87:
 147              		.loc 3 348 3 view .LVU30
 148              	.LBB85:
 149              	.LBI80:
 150              		.file 6 ".//ChibiOS//os/rt/ports/ARMCMx/chcore_v7m.h"
 151              		.loc 6 444 20 view .LVU31
 152              	.LBE85:
 153              	.LBE87:
 154              	.LBE89:
 155              	.LBE97:
 156              	.LBE103:
 157              		.loc 6 447 3 view .LVU32
 158              	.LBB104:
 159              	.LBB98:
 160              	.LBB90:
 161              	.LBB88:
 162              	.LBB86:
 163              	.LBB84:
 164              	.LBI81:
 165              		.loc 4 544 57 view .LVU33
 166              	.LBB83:
 167              		.loc 4 546 3 view .LVU34
 168              		.syntax unified
 169              	@ 546 ".//ChibiOS//os/ext/CMSIS/include/core_cmFunc.h" 1
ARM GAS  /tmp/ccOCNcnq.s 			page 4


 170 002c 87F31188 		MSR basepri, r7
 171              	@ 0 "" 2
 172              	.LVL5:
 173              		.loc 4 546 3 is_stmt 0 view .LVU35
 174              		.thumb
 175              		.syntax unified
 176              	.LBE83:
 177              	.LBE84:
 178              	.LBE86:
 179              		.loc 3 349 3 is_stmt 1 view .LVU36
 180 0030 FFF7FEFF 		bl	_stats_start_measure_crit_thd
 181              	.LVL6:
 182              		.loc 3 350 3 view .LVU37
 183 0034 FFF7FEFF 		bl	_dbg_check_lock
 184              	.LVL7:
 185              	.LBE88:
 186              	.LBE90:
 187              		.loc 5 251 3 view .LVU38
 188              	.LBB91:
 189              	.LBI91:
 190              		.loc 5 228 25 view .LVU39
 191              	.LBB92:
 192              		.loc 5 231 3 view .LVU40
 193              		.loc 5 231 19 is_stmt 0 view .LVU41
 194 0038 A56A     		ldr	r5, [r4, #40]
 195              	.LVL8:
 196              		.loc 5 231 19 view .LVU42
 197              	.LBE92:
 198              	.LBE91:
 199              		.loc 5 252 3 is_stmt 1 view .LVU43
 200              	.LBB93:
 201              	.LBI69:
 202              		.loc 3 358 20 view .LVU44
 203              	.LBB75:
 204              		.loc 3 360 3 view .LVU45
 205 003a FFF7FEFF 		bl	_dbg_check_unlock
 206              	.LVL9:
 207              		.loc 3 361 3 view .LVU46
 208 003e FFF7FEFF 		bl	_stats_stop_measure_crit_thd
 209              	.LVL10:
 210              		.loc 3 367 3 view .LVU47
 211              		.loc 3 367 3 view .LVU48
 212              		.loc 3 367 3 view .LVU49
 213 0042 2368     		ldr	r3, [r4]
 214 0044 A342     		cmp	r3, r4
 215 0046 05D0     		beq	.L2
 216 0048 A269     		ldr	r2, [r4, #24]
 217 004a 9B68     		ldr	r3, [r3, #8]
 218 004c 9268     		ldr	r2, [r2, #8]
 219 004e 9A42     		cmp	r2, r3
 220 0050 C0F09280 		bcc	.L18
 221              	.L2:
 222              		.loc 3 367 3 view .LVU50
 223              		.loc 3 371 3 view .LVU51
 224              	.LBB71:
 225              	.LBI71:
 226              		.loc 6 458 20 view .LVU52
ARM GAS  /tmp/ccOCNcnq.s 			page 5


 227              	.LBE71:
 228              	.LBE75:
 229              	.LBE93:
 230              	.LBE98:
 231              	.LBE104:
 232              		.loc 6 461 3 view .LVU53
 233              	.LVL11:
 234              	.LBB105:
 235              	.LBB99:
 236              	.LBB94:
 237              	.LBB76:
 238              	.LBB74:
 239              	.LBB72:
 240              	.LBI72:
 241              		.loc 4 544 57 view .LVU54
 242              	.LBB73:
 243              		.loc 4 546 3 view .LVU55
 244 0054 0023     		movs	r3, #0
 245              		.syntax unified
 246              	@ 546 ".//ChibiOS//os/ext/CMSIS/include/core_cmFunc.h" 1
 247 0056 83F31188 		MSR basepri, r3
 248              	@ 0 "" 2
 249              	.LVL12:
 250              		.loc 4 546 3 is_stmt 0 view .LVU56
 251              		.thumb
 252              		.syntax unified
 253              	.LBE73:
 254              	.LBE72:
 255              	.LBE74:
 256              	.LBE76:
 257              	.LBE94:
 258              		.loc 5 254 3 is_stmt 1 view .LVU57
 259              		.loc 5 254 3 is_stmt 0 view .LVU58
 260              	.LBE99:
 261              	.LBE105:
 262              		.loc 1 259 6 is_stmt 1 view .LVU59
 263 005a 0322     		movs	r2, #3
 264 005c 6946     		mov	r1, sp
 265 005e 3046     		mov	r0, r6
 266 0060 FFF7FEFF 		bl	messagebus_topic_wait
 267              	.LVL13:
 268              		.loc 1 261 3 view .LVU60
 269 0064 9DF80230 		ldrb	r3, [sp, #2]	@ zero_extendqisi2
 270 0068 013B     		subs	r3, r3, #1
 271 006a 202B     		cmp	r3, #32
 272 006c 18D8     		bhi	.L3
 273 006e DFE803F0 		tbb	[pc, r3]
 274              	.L5:
 275 0072 5D       		.byte	(.L13-.L5)/2
 276 0073 4F       		.byte	(.L6-.L5)/2
 277 0074 76       		.byte	(.L12-.L5)/2
 278 0075 42       		.byte	(.L7-.L5)/2
 279 0076 36       		.byte	(.L9-.L5)/2
 280 0077 29       		.byte	(.L8-.L5)/2
 281 0078 11       		.byte	(.L11-.L5)/2
 282 0079 1D       		.byte	(.L4-.L5)/2
 283 007a 6A       		.byte	(.L10-.L5)/2
ARM GAS  /tmp/ccOCNcnq.s 			page 6


 284 007b 17       		.byte	(.L3-.L5)/2
 285 007c 17       		.byte	(.L3-.L5)/2
 286 007d 36       		.byte	(.L9-.L5)/2
 287 007e 17       		.byte	(.L3-.L5)/2
 288 007f 17       		.byte	(.L3-.L5)/2
 289 0080 17       		.byte	(.L3-.L5)/2
 290 0081 29       		.byte	(.L8-.L5)/2
 291 0082 42       		.byte	(.L7-.L5)/2
 292 0083 17       		.byte	(.L3-.L5)/2
 293 0084 17       		.byte	(.L3-.L5)/2
 294 0085 17       		.byte	(.L3-.L5)/2
 295 0086 17       		.byte	(.L3-.L5)/2
 296 0087 17       		.byte	(.L3-.L5)/2
 297 0088 17       		.byte	(.L3-.L5)/2
 298 0089 17       		.byte	(.L3-.L5)/2
 299 008a 17       		.byte	(.L3-.L5)/2
 300 008b 17       		.byte	(.L3-.L5)/2
 301 008c 17       		.byte	(.L3-.L5)/2
 302 008d 17       		.byte	(.L3-.L5)/2
 303 008e 17       		.byte	(.L3-.L5)/2
 304 008f 17       		.byte	(.L3-.L5)/2
 305 0090 17       		.byte	(.L3-.L5)/2
 306 0091 4F       		.byte	(.L6-.L5)/2
 307 0092 1D       		.byte	(.L4-.L5)/2
 308 0093 00       		.p2align 1
 309              	.L11:
 310              		.loc 1 310 17 view .LVU61
 311 0094 0020     		movs	r0, #0
 312 0096 FFF7FEFF 		bl	left_motor_set_speed
 313              	.LVL14:
 314              		.loc 1 311 5 view .LVU62
 315 009a 4046     		mov	r0, r8
 316 009c FFF7FEFF 		bl	right_motor_set_speed
 317              	.LVL15:
 318              		.loc 1 312 5 view .LVU63
 319              	.L3:
 320              		.loc 1 316 3 view .LVU64
 321 00a0 05F1C801 		add	r1, r5, #200
 322 00a4 2846     		mov	r0, r5
 323 00a6 FFF7FEFF 		bl	chThdSleepUntilWindowed
 324              	.LVL16:
 325              		.loc 1 255 10 view .LVU65
 326              		.loc 1 257 11 is_stmt 0 view .LVU66
 327 00aa BFE7     		b	.L14
 328              	.L4:
 329              		.loc 1 278 5 is_stmt 1 view .LVU67
 330 00ac 4046     		mov	r0, r8
 331 00ae FFF7FEFF 		bl	left_motor_set_speed
 332              	.LVL17:
 333              		.loc 1 279 5 view .LVU68
 334 00b2 4046     		mov	r0, r8
 335 00b4 FFF7FEFF 		bl	right_motor_set_speed
 336              	.LVL18:
 337              		.loc 1 280 5 view .LVU69
 338              		.loc 1 316 3 view .LVU70
 339 00b8 05F1C801 		add	r1, r5, #200
 340 00bc 2846     		mov	r0, r5
ARM GAS  /tmp/ccOCNcnq.s 			page 7


 341 00be FFF7FEFF 		bl	chThdSleepUntilWindowed
 342              	.LVL19:
 343              		.loc 1 255 10 view .LVU71
 344 00c2 B3E7     		b	.L14
 345              	.L8:
 346              		.loc 1 284 5 view .LVU72
 347 00c4 4FF41670 		mov	r0, #600
 348 00c8 FFF7FEFF 		bl	left_motor_set_speed
 349              	.LVL20:
 350              		.loc 1 285 5 view .LVU73
 351 00cc 4046     		mov	r0, r8
 352 00ce FFF7FEFF 		bl	right_motor_set_speed
 353              	.LVL21:
 354              		.loc 1 286 5 view .LVU74
 355              		.loc 1 316 3 view .LVU75
 356 00d2 05F1C801 		add	r1, r5, #200
 357 00d6 2846     		mov	r0, r5
 358 00d8 FFF7FEFF 		bl	chThdSleepUntilWindowed
 359              	.LVL22:
 360              		.loc 1 255 10 view .LVU76
 361 00dc A6E7     		b	.L14
 362              	.L9:
 363              		.loc 1 266 5 view .LVU77
 364 00de 0020     		movs	r0, #0
 365 00e0 FFF7FEFF 		bl	left_motor_set_speed
 366              	.LVL23:
 367              		.loc 1 267 5 view .LVU78
 368 00e4 0020     		movs	r0, #0
 369 00e6 FFF7FEFF 		bl	right_motor_set_speed
 370              	.LVL24:
 371              		.loc 1 268 5 view .LVU79
 372              		.loc 1 316 3 view .LVU80
 373 00ea 05F1C801 		add	r1, r5, #200
 374 00ee 2846     		mov	r0, r5
 375 00f0 FFF7FEFF 		bl	chThdSleepUntilWindowed
 376              	.LVL25:
 377              		.loc 1 255 10 view .LVU81
 378 00f4 9AE7     		b	.L14
 379              	.L7:
 380              		.loc 1 290 5 view .LVU82
 381 00f6 4046     		mov	r0, r8
 382 00f8 FFF7FEFF 		bl	left_motor_set_speed
 383              	.LVL26:
 384              		.loc 1 291 5 view .LVU83
 385 00fc 4FF41670 		mov	r0, #600
 386 0100 FFF7FEFF 		bl	right_motor_set_speed
 387              	.LVL27:
 388              		.loc 1 292 5 view .LVU84
 389              		.loc 1 316 3 view .LVU85
 390 0104 05F1C801 		add	r1, r5, #200
 391 0108 2846     		mov	r0, r5
 392 010a FFF7FEFF 		bl	chThdSleepUntilWindowed
 393              	.LVL28:
 394              		.loc 1 255 10 view .LVU86
 395 010e 8DE7     		b	.L14
 396              	.L6:
 397              		.loc 1 272 5 view .LVU87
ARM GAS  /tmp/ccOCNcnq.s 			page 8


 398 0110 4FF41670 		mov	r0, #600
 399 0114 FFF7FEFF 		bl	left_motor_set_speed
 400              	.LVL29:
 401              		.loc 1 273 5 view .LVU88
 402 0118 4FF41670 		mov	r0, #600
 403 011c FFF7FEFF 		bl	right_motor_set_speed
 404              	.LVL30:
 405              		.loc 1 274 5 view .LVU89
 406              		.loc 1 316 3 view .LVU90
 407 0120 05F1C801 		add	r1, r5, #200
 408 0124 2846     		mov	r0, r5
 409 0126 FFF7FEFF 		bl	chThdSleepUntilWindowed
 410              	.LVL31:
 411              		.loc 1 255 10 view .LVU91
 412 012a 7FE7     		b	.L14
 413              	.L13:
 414              		.loc 1 300 17 view .LVU92
 415 012c 0020     		movs	r0, #0
 416 012e FFF7FEFF 		bl	left_motor_set_speed
 417              	.LVL32:
 418              		.loc 1 301 5 view .LVU93
 419 0132 4FF41670 		mov	r0, #600
 420 0136 FFF7FEFF 		bl	right_motor_set_speed
 421              	.LVL33:
 422              		.loc 1 302 5 view .LVU94
 423              		.loc 1 316 3 view .LVU95
 424 013a 05F1C801 		add	r1, r5, #200
 425 013e 2846     		mov	r0, r5
 426 0140 FFF7FEFF 		bl	chThdSleepUntilWindowed
 427              	.LVL34:
 428              		.loc 1 255 10 view .LVU96
 429 0144 72E7     		b	.L14
 430              	.L10:
 431              		.loc 1 305 5 view .LVU97
 432 0146 4046     		mov	r0, r8
 433 0148 FFF7FEFF 		bl	left_motor_set_speed
 434              	.LVL35:
 435              		.loc 1 306 17 view .LVU98
 436 014c 0020     		movs	r0, #0
 437 014e FFF7FEFF 		bl	right_motor_set_speed
 438              	.LVL36:
 439              		.loc 1 307 5 view .LVU99
 440              		.loc 1 316 3 view .LVU100
 441 0152 05F1C801 		add	r1, r5, #200
 442 0156 2846     		mov	r0, r5
 443 0158 FFF7FEFF 		bl	chThdSleepUntilWindowed
 444              	.LVL37:
 445              		.loc 1 255 10 view .LVU101
 446 015c 66E7     		b	.L14
 447              	.L12:
 448              		.loc 1 295 5 view .LVU102
 449 015e 4FF41670 		mov	r0, #600
 450 0162 FFF7FEFF 		bl	left_motor_set_speed
 451              	.LVL38:
 452              		.loc 1 296 17 view .LVU103
 453 0166 0020     		movs	r0, #0
 454 0168 FFF7FEFF 		bl	right_motor_set_speed
ARM GAS  /tmp/ccOCNcnq.s 			page 9


 455              	.LVL39:
 456              		.loc 1 297 5 view .LVU104
 457              		.loc 1 316 3 view .LVU105
 458 016c 05F1C801 		add	r1, r5, #200
 459 0170 2846     		mov	r0, r5
 460 0172 FFF7FEFF 		bl	chThdSleepUntilWindowed
 461              	.LVL40:
 462              		.loc 1 255 10 view .LVU106
 463 0176 59E7     		b	.L14
 464              	.LVL41:
 465              	.L18:
 466              	.LBB106:
 467              	.LBB100:
 468              	.LBB95:
 469              	.LBB77:
 470              		.loc 3 367 3 view .LVU107
 471 0178 4846     		mov	r0, r9
 472 017a FFF7FEFF 		bl	chSysHalt
 473              	.LVL42:
 474 017e 69E7     		b	.L2
 475              	.L20:
 476              		.align	2
 477              	.L19:
 478 0180 00000000 		.word	ch
 479 0184 00000000 		.word	.LANCHOR0
 480 0188 00000000 		.word	.LC0
 481 018c 00000000 		.word	.LC1
 482 0190 00000000 		.word	bus
 483 0194 00000000 		.word	.LANCHOR1
 484 0198 A8FDFFFF 		.word	-600
 485              	.LBE77:
 486              	.LBE95:
 487              	.LBE100:
 488              	.LBE106:
 489              		.cfi_endproc
 490              	.LFE263:
 491              		.size	remote_motion_thd, .-remote_motion_thd
 492              		.section	.rodata.RC5_decodeEvent.cst4,"aM",%progbits,4
 493              		.align	2
 494              	.LC2:
 495 0000 00000000 		.word	__stack_chk_guard
 496              		.section	.text.RC5_decodeEvent,"ax",%progbits
 497              		.align	1
 498              		.p2align 4,,15
 499              		.syntax unified
 500              		.thumb
 501              		.thumb_func
 502              		.fpu fpv4-sp-d16
 503              		.type	RC5_decodeEvent, %function
 504              	RC5_decodeEvent:
 505              	.LVL43:
 506              	.LFB259:
 507              		.loc 1 127 1 view -0
 508              		.cfi_startproc
 509              		@ args = 0, pretend = 0, frame = 8
 510              		@ frame_needed = 0, uses_anonymous_args = 0
 511              		.loc 1 129 39 is_stmt 0 view .LVU109
ARM GAS  /tmp/ccOCNcnq.s 			page 10


 512 0000 4278     		ldrb	r2, [r0, #1]	@ zero_extendqisi2
 513              		.loc 1 129 36 view .LVU110
 514 0002 1B4B     		ldr	r3, .L30
 515              		.loc 1 127 1 view .LVU111
 516 0004 DFF86CC0 		ldr	ip, .L30+4
 517              		.loc 1 129 36 view .LVU112
 518 0008 9B5C     		ldrb	r3, [r3, r2]	@ zero_extendqisi2
 519              		.loc 1 127 1 view .LVU113
 520 000a 00B5     		push	{lr}
 521              		.cfi_def_cfa_offset 4
 522              		.cfi_offset 14, -4
 523              		.loc 1 129 47 view .LVU114
 524 000c 43FA01F1 		asr	r1, r3, r1
 525              	.LVL44:
 526              		.loc 1 129 19 view .LVU115
 527 0010 01F00301 		and	r1, r1, #3
 528              		.loc 1 127 1 view .LVU116
 529 0014 83B0     		sub	sp, sp, #12
 530              		.cfi_def_cfa_offset 16
 531              		.loc 1 130 8 view .LVU117
 532 0016 8A42     		cmp	r2, r1
 533              		.loc 1 127 1 view .LVU118
 534 0018 DCF800C0 		ldr	ip, [ip]
 535 001c CDF804C0 		str	ip, [sp, #4]
 536 0020 4FF0000C 		mov	ip,#0
 537              		.loc 1 129 5 is_stmt 1 view .LVU119
 538              	.LVL45:
 539              		.loc 1 130 5 view .LVU120
 540              		.loc 1 130 8 is_stmt 0 view .LVU121
 541 0024 1AD0     		beq	.L27
 542              		.loc 1 134 9 is_stmt 1 view .LVU122
 543              		.loc 1 135 12 is_stmt 0 view .LVU123
 544 0026 0229     		cmp	r1, #2
 545              		.loc 1 134 19 view .LVU124
 546 0028 4170     		strb	r1, [r0, #1]
 547              		.loc 1 135 9 is_stmt 1 view .LVU125
 548              		.loc 1 135 12 is_stmt 0 view .LVU126
 549 002a 09D0     		beq	.L28
 550              		.loc 1 139 16 is_stmt 1 view .LVU127
 551              		.loc 1 139 19 is_stmt 0 view .LVU128
 552 002c 0129     		cmp	r1, #1
 553 002e 0DD1     		bne	.L21
 554              	.LVL46:
 555              	.LBB113:
 556              	.LBI113:
 557              		.loc 1 126 13 is_stmt 1 view .LVU129
 558              	.LBB114:
 559              		.loc 1 141 13 view .LVU130
 560              		.loc 1 142 21 is_stmt 0 view .LVU131
 561 0030 D0E90323 		ldrd	r2, r3, [r0, #12]
 562              		.loc 1 141 39 view .LVU132
 563 0034 5B00     		lsls	r3, r3, #1
 564              		.loc 1 141 43 view .LVU133
 565 0036 0133     		adds	r3, r3, #1
 566              		.loc 1 142 21 view .LVU134
 567 0038 0132     		adds	r2, r2, #1
 568 003a C0E90323 		strd	r2, r3, [r0, #12]
ARM GAS  /tmp/ccOCNcnq.s 			page 11


 569              	.LVL47:
 570              		.loc 1 142 21 view .LVU135
 571              	.LBE114:
 572              	.LBE113:
 573              		.loc 1 145 1 view .LVU136
 574 003e 05E0     		b	.L21
 575              	.L28:
 576              		.loc 1 137 13 is_stmt 1 view .LVU137
 577              		.loc 1 138 21 is_stmt 0 view .LVU138
 578 0040 D0E90332 		ldrd	r3, r2, [r0, #12]
 579              		.loc 1 137 43 view .LVU139
 580 0044 5200     		lsls	r2, r2, #1
 581              		.loc 1 138 21 view .LVU140
 582 0046 0133     		adds	r3, r3, #1
 583 0048 C0E90332 		strd	r3, r2, [r0, #12]
 584              	.L21:
 585              		.loc 1 145 1 view .LVU141
 586 004c 094B     		ldr	r3, .L30+4
 587 004e 1A68     		ldr	r2, [r3]
 588 0050 019B     		ldr	r3, [sp, #4]
 589 0052 5A40     		eors	r2, r3, r2
 590 0054 09D1     		bne	.L29
 591 0056 03B0     		add	sp, sp, #12
 592              		.cfi_remember_state
 593              		.cfi_def_cfa_offset 4
 594              		@ sp needed
 595 0058 5DF804FB 		ldr	pc, [sp], #4
 596              	.L27:
 597              		.cfi_restore_state
 598              		.loc 1 132 9 is_stmt 1 view .LVU142
 599              	.LVL48:
 600              	.LBB115:
 601              	.LBI115:
 602              		.loc 1 111 13 view .LVU143
 603              	.LBB116:
 604              		.loc 1 113 5 view .LVU144
 605              		.loc 1 113 15 is_stmt 0 view .LVU145
 606 005c 0123     		movs	r3, #1
 607              		.loc 1 116 15 view .LVU146
 608 005e 0022     		movs	r2, #0
 609              		.loc 1 115 17 view .LVU147
 610 0060 C0E90333 		strd	r3, r3, [r0, #12]
 611              		.loc 1 113 15 view .LVU148
 612 0064 4370     		strb	r3, [r0, #1]
 613              		.loc 1 114 5 is_stmt 1 view .LVU149
 614              		.loc 1 116 5 view .LVU150
 615              		.loc 1 116 15 is_stmt 0 view .LVU151
 616 0066 4260     		str	r2, [r0, #4]
 617              		.loc 1 117 1 view .LVU152
 618 0068 F0E7     		b	.L21
 619              	.LVL49:
 620              	.L29:
 621              		.loc 1 117 1 view .LVU153
 622              	.LBE116:
 623              	.LBE115:
 624              		.loc 1 145 1 view .LVU154
 625 006a FFF7FEFF 		bl	__stack_chk_fail
ARM GAS  /tmp/ccOCNcnq.s 			page 12


 626              	.LVL50:
 627              	.L31:
 628              		.loc 1 145 1 view .LVU155
 629 006e 00BF     		.align	2
 630              	.L30:
 631 0070 00000000 		.word	.LANCHOR2
 632 0074 00000000 		.word	.LC2
 633              		.cfi_endproc
 634              	.LFE259:
 635              		.size	RC5_decodeEvent, .-RC5_decodeEvent
 636              		.section	.rodata.remote_cmd_recv_thd.cst4,"aM",%progbits,4
 637              		.align	2
 638              	.LC3:
 639 0000 00000000 		.word	__stack_chk_guard
 640              		.section	.text.remote_cmd_recv_thd,"ax",%progbits
 641              		.align	1
 642              		.p2align 4,,15
 643              		.syntax unified
 644              		.thumb
 645              		.thumb_func
 646              		.fpu fpv4-sp-d16
 647              		.type	remote_cmd_recv_thd, %function
 648              	remote_cmd_recv_thd:
 649              	.LVL51:
 650              	.LFB264:
 651              		.loc 1 327 1 is_stmt 1 view -0
 652              		.cfi_startproc
 653              		@ Volatile: function does not return.
 654              		@ args = 0, pretend = 0, frame = 168
 655              		@ frame_needed = 0, uses_anonymous_args = 0
 656              		.loc 1 327 1 is_stmt 0 view .LVU157
 657 0000 80B5     		push	{r7, lr}
 658              		.cfi_def_cfa_offset 8
 659              		.cfi_offset 7, -8
 660              		.cfi_offset 14, -4
 661              	.LBB133:
 662              	.LBB134:
 663              		.loc 2 135 11 view .LVU158
 664 0002 3F4B     		ldr	r3, .L47
 665              		.loc 2 135 30 view .LVU159
 666 0004 3F4A     		ldr	r2, .L47+4
 667              		.loc 2 135 11 view .LVU160
 668 0006 9B69     		ldr	r3, [r3, #24]
 669              	.LBE134:
 670              	.LBE133:
 671              		.loc 1 327 1 view .LVU161
 672 0008 3F4C     		ldr	r4, .L47+8
 673              	.LBB137:
 674              	.LBB135:
 675              		.loc 2 135 30 view .LVU162
 676 000a 9A61     		str	r2, [r3, #24]
 677              	.LBE135:
 678              	.LBE137:
 679              		.loc 1 327 1 view .LVU163
 680 000c ACB0     		sub	sp, sp, #176
 681              		.cfi_def_cfa_offset 184
 682              		.loc 1 333 5 view .LVU164
ARM GAS  /tmp/ccOCNcnq.s 			page 13


 683 000e 0223     		movs	r3, #2
 684 0010 1A46     		mov	r2, r3
 685 0012 3E48     		ldr	r0, .L47+12
 686              	.LVL52:
 687              		.loc 1 333 5 view .LVU165
 688 0014 DFF80881 		ldr	r8, .L47+32
 689              	.LBB138:
 690              	.LBB139:
 691              	.LBB140:
 692              	.LBB141:
 693              		.loc 1 185 27 view .LVU166
 694 0018 3D4E     		ldr	r6, .L47+16
 695              	.LBE141:
 696              	.LBE140:
 697              	.LBE139:
 698              	.LBE138:
 699              		.loc 1 333 5 view .LVU167
 700 001a 05A9     		add	r1, sp, #20
 701              		.loc 1 327 1 view .LVU168
 702 001c 2468     		ldr	r4, [r4]
 703 001e 2B94     		str	r4, [sp, #172]
 704 0020 4FF00004 		mov	r4,#0
 705              		.loc 1 328 5 is_stmt 1 view .LVU169
 706              		.loc 1 329 5 view .LVU170
 707              	.LVL53:
 708              	.LBB187:
 709              	.LBI133:
 710              		.loc 2 132 20 view .LVU171
 711              	.LBB136:
 712              		.loc 2 135 3 view .LVU172
 713              		.loc 2 135 3 is_stmt 0 view .LVU173
 714              	.LBE136:
 715              	.LBE187:
 716              		.loc 1 331 5 is_stmt 1 view .LVU174
 717              		.loc 1 333 5 view .LVU175
 718 0024 FFF7FEFF 		bl	chEvtRegisterMaskWithFlags
 719              	.LVL54:
 720              		.loc 1 337 5 view .LVU176
 721              		.loc 1 338 5 view .LVU177
 722              	.LBB188:
 723              	.LBI188:
 724              		.loc 1 111 13 view .LVU178
 725              	.LBB189:
 726              		.loc 1 113 5 view .LVU179
 727              	.LBE189:
 728              	.LBE188:
 729              		.loc 1 344 5 is_stmt 0 view .LVU180
 730 0028 0323     		movs	r3, #3
 731              	.LBB195:
 732              	.LBB190:
 733              		.loc 1 116 15 view .LVU181
 734 002a 0027     		movs	r7, #0
 735              	.LBE190:
 736              	.LBE195:
 737              		.loc 1 342 5 view .LVU182
 738 002c 0FA9     		add	r1, sp, #60
 739              		.loc 1 343 5 view .LVU183
ARM GAS  /tmp/ccOCNcnq.s 			page 14


 740 002e 03AA     		add	r2, sp, #12
 741              	.LBB196:
 742              	.LBB191:
 743              		.loc 1 113 15 view .LVU184
 744 0030 0124     		movs	r4, #1
 745              	.LBE191:
 746              	.LBE196:
 747              		.loc 1 344 5 view .LVU185
 748 0032 14A8     		add	r0, sp, #80
 749 0034 0093     		str	r3, [sp]
 750 0036 374B     		ldr	r3, .L47+20
 751              	.LBB197:
 752              	.LBB192:
 753              		.loc 1 113 15 view .LVU186
 754 0038 8DF82940 		strb	r4, [sp, #41]
 755              		.loc 1 114 5 is_stmt 1 view .LVU187
 756              	.LBE192:
 757              	.LBE197:
 758              		.loc 1 342 5 is_stmt 0 view .LVU188
 759 003c CDE90F11 		strd	r1, r1, [sp, #60]
 760              		.loc 1 343 5 view .LVU189
 761 0040 CDE90322 		strd	r2, r2, [sp, #12]
 762              	.LBB198:
 763              	.LBB193:
 764              		.loc 1 115 17 view .LVU190
 765 0044 CDE90D44 		strd	r4, r4, [sp, #52]
 766              		.loc 1 116 5 is_stmt 1 view .LVU191
 767              	.LBE193:
 768              	.LBE198:
 769              		.loc 1 342 5 is_stmt 0 view .LVU192
 770 0048 CDE91177 		strd	r7, r7, [sp, #68]
 771              	.LBB199:
 772              	.LBB194:
 773              		.loc 1 116 15 view .LVU193
 774 004c 0B97     		str	r7, [sp, #44]
 775              	.LVL55:
 776              		.loc 1 116 15 view .LVU194
 777              	.LBE194:
 778              	.LBE199:
 779              		.loc 1 341 5 is_stmt 1 view .LVU195
 780              		.loc 1 342 5 view .LVU196
 781 004e 1397     		str	r7, [sp, #76]
 782              		.loc 1 343 5 view .LVU197
 783              		.loc 1 344 5 view .LVU198
 784 0050 FFF7FEFF 		bl	messagebus_topic_init
 785              	.LVL56:
 786              		.loc 1 345 5 view .LVU199
 787 0054 304A     		ldr	r2, .L47+24
 788 0056 3148     		ldr	r0, .L47+28
 789 0058 2E4C     		ldr	r4, .L47+20
 790 005a 14A9     		add	r1, sp, #80
 791 005c FFF7FEFF 		bl	messagebus_advertise_topic
 792              	.LVL57:
 793              	.LBB200:
 794              	.LBB182:
 795              	.LBB174:
 796              	.LBB169:
ARM GAS  /tmp/ccOCNcnq.s 			page 15


 797              	.LBB142:
 798              	.LBB143:
 799              	.LBB144:
 800              		.loc 1 102 17 is_stmt 0 view .LVU200
 801 0060 3D46     		mov	r5, r7
 802              	.L40:
 803              	.LBE144:
 804              	.LBE143:
 805              	.LBE142:
 806              	.LBE169:
 807              	.LBE174:
 808              	.LBE182:
 809              	.LBE200:
 810              		.loc 1 347 5 is_stmt 1 view .LVU201
 811              		.loc 1 349 6 view .LVU202
 812 0062 0220     		movs	r0, #2
 813 0064 FFF7FEFF 		bl	chEvtWaitAny
 814              	.LVL58:
 815              		.loc 1 351 6 view .LVU203
 816 0068 05A8     		add	r0, sp, #20
 817 006a FFF7FEFF 		bl	chEvtGetAndClearFlags
 818              	.LVL59:
 819              		.loc 1 354 6 view .LVU204
 820              	.LBB201:
 821              	.LBI138:
 822              		.loc 1 217 13 view .LVU205
 823              	.LBB183:
 824              		.loc 1 219 5 view .LVU206
 825              		.loc 1 220 5 view .LVU207
 826              	.LBB175:
 827              	.LBI140:
 828              		.loc 1 177 13 view .LVU208
 829              	.LBB170:
 830              		.loc 1 185 5 view .LVU209
 831              	.LBB165:
 832              		.loc 1 188 9 view .LVU210
 833              	.LBE165:
 834              		.loc 1 185 27 is_stmt 0 view .LVU211
 835 006e 3369     		ldr	r3, [r6, #16]
 836              		.loc 1 187 8 view .LVU212
 837 0070 0C9A     		ldr	r2, [sp, #48]
 838              		.loc 1 185 19 view .LVU213
 839 0072 C3F3C003 		ubfx	r3, r3, #3, #1
 840              	.LVL60:
 841              		.loc 1 187 5 is_stmt 1 view .LVU214
 842              		.loc 1 187 8 is_stmt 0 view .LVU215
 843 0076 9342     		cmp	r3, r2
 844              	.LBB166:
 845              	.LBB147:
 846              	.LBB148:
 847              		.loc 1 157 8 view .LVU216
 848 0078 40F27930 		movw	r0, #889
 849              	.LBE148:
 850              	.LBE147:
 851              		.loc 1 193 9 view .LVU217
 852 007c 5FFA83FC 		uxtb	ip, r3
 853              	.LBE166:
ARM GAS  /tmp/ccOCNcnq.s 			page 16


 854              		.loc 1 187 8 view .LVU218
 855 0080 1CD0     		beq	.L33
 856              	.LBB167:
 857              	.LBB159:
 858              	.LBB155:
 859              		.loc 1 158 9 is_stmt 1 view .LVU219
 860              		.loc 1 159 12 view .LVU220
 861              	.LBE155:
 862              	.LBE159:
 863              		.loc 1 188 31 is_stmt 0 view .LVU221
 864 0082 D8F80C10 		ldr	r1, [r8, #12]
 865              		.loc 1 191 23 view .LVU222
 866 0086 0C93     		str	r3, [sp, #48]
 867              		.loc 1 188 23 view .LVU223
 868 0088 4A6A     		ldr	r2, [r1, #36]
 869              	.LVL61:
 870              		.loc 1 189 9 is_stmt 1 view .LVU224
 871              		.loc 1 189 23 is_stmt 0 view .LVU225
 872 008a 0B9B     		ldr	r3, [sp, #44]
 873              	.LVL62:
 874              	.LBB160:
 875              	.LBB145:
 876              		.loc 1 102 17 view .LVU226
 877 008c 4F62     		str	r7, [r1, #36]
 878              	.LBE145:
 879              	.LBE160:
 880              		.loc 1 189 23 view .LVU227
 881 008e D31A     		subs	r3, r2, r3
 882              	.LVL63:
 883              		.loc 1 191 9 is_stmt 1 view .LVU228
 884              		.loc 1 192 9 view .LVU229
 885              	.LBB161:
 886              	.LBI143:
 887              		.loc 1 101 13 view .LVU230
 888              	.LBB146:
 889              		.loc 1 102 2 view .LVU231
 890              	.LBE146:
 891              	.LBE161:
 892              	.LBB162:
 893              	.LBB156:
 894              		.loc 1 157 29 is_stmt 0 view .LVU232
 895 0090 A3F5DE72 		sub	r2, r3, #444
 896              	.LVL64:
 897              		.loc 1 157 29 view .LVU233
 898              	.LBE156:
 899              	.LBE162:
 900              		.loc 1 193 9 is_stmt 1 view .LVU234
 901              	.LBB163:
 902              	.LBI147:
 903              		.loc 1 155 13 view .LVU235
 904              	.LBB157:
 905              		.loc 1 157 5 view .LVU236
 906              		.loc 1 157 8 is_stmt 0 view .LVU237
 907 0094 8242     		cmp	r2, r0
 908              		.loc 1 159 35 view .LVU238
 909 0096 A3F23653 		subw	r3, r3, #1334
 910              	.LVL65:
ARM GAS  /tmp/ccOCNcnq.s 			page 17


 911              		.loc 1 158 9 view .LVU239
 912 009a 4FEA4C01 		lsl	r1, ip, #1
 913 009e 0AA8     		add	r0, sp, #40
 914              	.LVL66:
 915              		.loc 1 157 8 view .LVU240
 916 00a0 0AD9     		bls	.L46
 917              		.loc 1 160 9 is_stmt 1 view .LVU241
 918              		.loc 1 163 9 view .LVU242
 919              	.LVL67:
 920              	.LBB149:
 921              	.LBI149:
 922              		.loc 1 111 13 view .LVU243
 923              	.LBB150:
 924              		.loc 1 113 5 view .LVU244
 925              	.LBE150:
 926              	.LBE149:
 927              		.loc 1 159 15 is_stmt 0 view .LVU245
 928 00a2 B3F55E7F 		cmp	r3, #888
 929              		.loc 1 160 9 view .LVU246
 930 00a6 0AA8     		add	r0, sp, #40
 931              	.LBB153:
 932              	.LBB151:
 933              		.loc 1 113 15 view .LVU247
 934 00a8 4FF00103 		mov	r3, #1
 935              	.LVL68:
 936              		.loc 1 113 15 view .LVU248
 937              	.LBE151:
 938              	.LBE153:
 939              		.loc 1 159 15 view .LVU249
 940 00ac 22D8     		bhi	.L36
 941              		.loc 1 160 9 view .LVU250
 942 00ae BCF1000F 		cmp	ip, #0
 943 00b2 14BF     		ite	ne
 944 00b4 0621     		movne	r1, #6
 945 00b6 0421     		moveq	r1, #4
 946              	.LVL69:
 947              	.L46:
 948              		.loc 1 160 9 view .LVU251
 949 00b8 FFF7FEFF 		bl	RC5_decodeEvent
 950              	.LVL70:
 951              	.L33:
 952              		.loc 1 160 9 view .LVU252
 953              	.LBE157:
 954              	.LBE163:
 955              	.LBE167:
 956              		.loc 1 196 5 is_stmt 1 view .LVU253
 957              		.loc 1 196 8 is_stmt 0 view .LVU254
 958 00bc 0D9B     		ldr	r3, [sp, #52]
 959 00be 0E2B     		cmp	r3, #14
 960 00c0 CFD1     		bne	.L40
 961              		.loc 1 197 9 is_stmt 1 view .LVU255
 962              		.loc 1 197 22 is_stmt 0 view .LVU256
 963 00c2 0E9A     		ldr	r2, [sp, #56]
 964              	.LVL71:
 965              		.loc 1 198 9 is_stmt 1 view .LVU257
 966              	.LBE170:
 967              	.LBE175:
ARM GAS  /tmp/ccOCNcnq.s 			page 18


 968              	.LBE183:
 969              	.LBE201:
 970              		.loc 1 356 10 is_stmt 0 view .LVU258
 971 00c4 1349     		ldr	r1, .L47+20
 972              	.LBB202:
 973              	.LBB184:
 974              	.LBB176:
 975              	.LBB171:
 976              		.loc 1 199 18 view .LVU259
 977 00c6 0D95     		str	r5, [sp, #52]
 978              	.LBE171:
 979              	.LBE176:
 980              	.LBB177:
 981              		.loc 1 227 21 view .LVU260
 982 00c8 D343     		mvns	r3, r2
 983              		.loc 1 227 41 view .LVU261
 984 00ca 5B09     		lsrs	r3, r3, #5
 985              		.loc 1 228 46 view .LVU262
 986 00cc 02F03F00 		and	r0, r2, #63
 987              		.loc 1 227 18 view .LVU263
 988 00d0 23F07F03 		bic	r3, r3, #127
 989              		.loc 1 228 64 view .LVU264
 990 00d4 0343     		orrs	r3, r3, r0
 991              		.loc 1 221 45 view .LVU265
 992 00d6 C2F3C02E 		ubfx	lr, r2, #11, #1
 993              		.loc 1 222 45 view .LVU266
 994 00da C2F3841C 		ubfx	ip, r2, #6, #5
 995              	.LBE177:
 996              	.LBE184:
 997              	.LBE202:
 998              		.loc 1 356 10 view .LVU267
 999 00de 14A8     		add	r0, sp, #80
 1000 00e0 0322     		movs	r2, #3
 1001              	.LVL72:
 1002              	.LBB203:
 1003              	.LBB185:
 1004              	.LBB178:
 1005              		.loc 1 228 18 view .LVU268
 1006 00e2 A370     		strb	r3, [r4, #2]
 1007              		.loc 1 221 18 view .LVU269
 1008 00e4 84F800E0 		strb	lr, [r4]
 1009              		.loc 1 222 18 view .LVU270
 1010 00e8 84F801C0 		strb	ip, [r4, #1]
 1011              	.LBE178:
 1012              	.LBB179:
 1013              	.LBB172:
 1014              		.loc 1 198 21 view .LVU271
 1015 00ec 0E95     		str	r5, [sp, #56]
 1016              	.LVL73:
 1017              		.loc 1 199 9 is_stmt 1 view .LVU272
 1018              		.loc 1 200 9 view .LVU273
 1019              		.loc 1 200 9 is_stmt 0 view .LVU274
 1020              	.LBE172:
 1021              	.LBE179:
 1022              	.LBB180:
 1023              		.loc 1 221 9 is_stmt 1 view .LVU275
 1024              		.loc 1 222 9 view .LVU276
ARM GAS  /tmp/ccOCNcnq.s 			page 19


 1025              		.loc 1 226 9 view .LVU277
 1026              		.loc 1 227 9 view .LVU278
 1027              		.loc 1 228 9 view .LVU279
 1028              		.loc 1 230 9 view .LVU280
 1029              		.loc 1 230 9 is_stmt 0 view .LVU281
 1030              	.LBE180:
 1031              	.LBE185:
 1032              	.LBE203:
 1033              		.loc 1 356 10 is_stmt 1 view .LVU282
 1034 00ee FFF7FEFF 		bl	messagebus_topic_publish
 1035              	.LVL74:
 1036 00f2 B6E7     		b	.L40
 1037              	.LVL75:
 1038              	.L36:
 1039              	.LBB204:
 1040              	.LBB186:
 1041              	.LBB181:
 1042              	.LBB173:
 1043              	.LBB168:
 1044              	.LBB164:
 1045              	.LBB158:
 1046              	.LBB154:
 1047              	.LBB152:
 1048              		.loc 1 115 17 is_stmt 0 view .LVU283
 1049 00f4 CDE90D33 		strd	r3, r3, [sp, #52]
 1050              		.loc 1 113 15 view .LVU284
 1051 00f8 8DF82930 		strb	r3, [sp, #41]
 1052              		.loc 1 114 5 is_stmt 1 view .LVU285
 1053              		.loc 1 116 5 view .LVU286
 1054              		.loc 1 116 15 is_stmt 0 view .LVU287
 1055 00fc 0B95     		str	r5, [sp, #44]
 1056              	.LVL76:
 1057              		.loc 1 116 15 view .LVU288
 1058              	.LBE152:
 1059              	.LBE154:
 1060              	.LBE158:
 1061              	.LBE164:
 1062              	.LBE168:
 1063              		.loc 1 196 5 is_stmt 1 view .LVU289
 1064 00fe B0E7     		b	.L40
 1065              	.L48:
 1066              		.align	2
 1067              	.L47:
 1068 0100 00000000 		.word	ch
 1069 0104 00000000 		.word	.LANCHOR3
 1070 0108 00000000 		.word	.LC3
 1071 010c 00000000 		.word	exti_events
 1072 0110 000C0240 		.word	1073875968
 1073 0114 00000000 		.word	.LANCHOR4
 1074 0118 00000000 		.word	.LC0
 1075 011c 00000000 		.word	bus
 1076 0120 00000000 		.word	GPTD11
 1077              	.LBE173:
 1078              	.LBE181:
 1079              	.LBE186:
 1080              	.LBE204:
 1081              		.cfi_endproc
ARM GAS  /tmp/ccOCNcnq.s 			page 20


 1082              	.LFE264:
 1083              		.size	remote_cmd_recv_thd, .-remote_cmd_recv_thd
 1084              		.section	.rodata.ir_remote_start.cst4,"aM",%progbits,4
 1085              		.align	2
 1086              	.LC4:
 1087 0000 00000000 		.word	__stack_chk_guard
 1088              		.section	.text.ir_remote_start,"ax",%progbits
 1089              		.align	1
 1090              		.p2align 4,,15
 1091              		.global	ir_remote_start
 1092              		.syntax unified
 1093              		.thumb
 1094              		.thumb_func
 1095              		.fpu fpv4-sp-d16
 1096              		.type	ir_remote_start, %function
 1097              	ir_remote_start:
 1098              	.LFB265:
 1099              		.loc 1 367 28 view -0
 1100              		.cfi_startproc
 1101              		@ args = 0, pretend = 0, frame = 8
 1102              		@ frame_needed = 0, uses_anonymous_args = 0
 1103 0000 10B5     		push	{r4, lr}
 1104              		.cfi_def_cfa_offset 8
 1105              		.cfi_offset 4, -8
 1106              		.cfi_offset 14, -4
 1107 0002 144B     		ldr	r3, .L53
 1108              		.loc 1 368 2 is_stmt 0 view .LVU291
 1109 0004 1449     		ldr	r1, .L53+4
 1110 0006 1548     		ldr	r0, .L53+8
 1111              		.loc 1 367 28 view .LVU292
 1112 0008 84B0     		sub	sp, sp, #16
 1113              		.cfi_def_cfa_offset 24
 1114              		.loc 1 367 28 view .LVU293
 1115 000a 1B68     		ldr	r3, [r3]
 1116 000c 0393     		str	r3, [sp, #12]
 1117 000e 4FF00003 		mov	r3,#0
 1118              		.loc 1 368 2 is_stmt 1 view .LVU294
 1119              		.loc 1 372 2 is_stmt 0 view .LVU295
 1120 0012 0024     		movs	r4, #0
 1121              		.loc 1 368 2 view .LVU296
 1122 0014 FFF7FEFF 		bl	gptStart
 1123              	.LVL77:
 1124              		.loc 1 369 2 is_stmt 1 view .LVU297
 1125 0018 1048     		ldr	r0, .L53+8
 1126 001a 4FF6FF71 		movw	r1, #65535
 1127 001e FFF7FEFF 		bl	gptStartContinuous
 1128              	.LVL78:
 1129              		.loc 1 371 2 view .LVU298
 1130              		.loc 1 372 2 view .LVU299
 1131 0022 0F4B     		ldr	r3, .L53+12
 1132 0024 0F48     		ldr	r0, .L53+16
 1133 0026 0094     		str	r4, [sp]
 1134 0028 4022     		movs	r2, #64
 1135 002a 4FF4FC71 		mov	r1, #504
 1136 002e FFF7FEFF 		bl	chThdCreateStatic
 1137              	.LVL79:
 1138              		.loc 1 374 2 view .LVU300
ARM GAS  /tmp/ccOCNcnq.s 			page 21


 1139              		.loc 1 375 2 view .LVU301
 1140 0032 0D4B     		ldr	r3, .L53+20
 1141 0034 0D48     		ldr	r0, .L53+24
 1142 0036 0094     		str	r4, [sp]
 1143 0038 4022     		movs	r2, #64
 1144 003a 4FF41E71 		mov	r1, #632
 1145 003e FFF7FEFF 		bl	chThdCreateStatic
 1146              	.LVL80:
 1147              		.loc 1 376 1 is_stmt 0 view .LVU302
 1148 0042 044B     		ldr	r3, .L53
 1149 0044 1A68     		ldr	r2, [r3]
 1150 0046 039B     		ldr	r3, [sp, #12]
 1151 0048 5A40     		eors	r2, r3, r2
 1152 004a 01D1     		bne	.L52
 1153 004c 04B0     		add	sp, sp, #16
 1154              		.cfi_remember_state
 1155              		.cfi_def_cfa_offset 8
 1156              		@ sp needed
 1157 004e 10BD     		pop	{r4, pc}
 1158              	.L52:
 1159              		.cfi_restore_state
 1160 0050 FFF7FEFF 		bl	__stack_chk_fail
 1161              	.LVL81:
 1162              	.L54:
 1163              		.align	2
 1164              	.L53:
 1165 0054 00000000 		.word	.LC4
 1166 0058 00000000 		.word	.LANCHOR5
 1167 005c 00000000 		.word	GPTD11
 1168 0060 00000000 		.word	remote_motion_thd
 1169 0064 00000000 		.word	.LANCHOR6
 1170 0068 00000000 		.word	remote_cmd_recv_thd
 1171 006c 00000000 		.word	.LANCHOR7
 1172              		.cfi_endproc
 1173              	.LFE265:
 1174              		.size	ir_remote_start, .-ir_remote_start
 1175              		.section	.rodata.ir_remote_get_toggle.cst4,"aM",%progbits,4
 1176              		.align	2
 1177              	.LC5:
 1178 0000 00000000 		.word	__stack_chk_guard
 1179              		.section	.text.ir_remote_get_toggle,"ax",%progbits
 1180              		.align	1
 1181              		.p2align 4,,15
 1182              		.global	ir_remote_get_toggle
 1183              		.syntax unified
 1184              		.thumb
 1185              		.thumb_func
 1186              		.fpu fpv4-sp-d16
 1187              		.type	ir_remote_get_toggle, %function
 1188              	ir_remote_get_toggle:
 1189              	.LFB266:
 1190              		.loc 1 378 36 is_stmt 1 view -0
 1191              		.cfi_startproc
 1192              		@ args = 0, pretend = 0, frame = 8
 1193              		@ frame_needed = 0, uses_anonymous_args = 0
 1194 0000 00B5     		push	{lr}
 1195              		.cfi_def_cfa_offset 4
ARM GAS  /tmp/ccOCNcnq.s 			page 22


 1196              		.cfi_offset 14, -4
 1197              		.loc 1 379 25 is_stmt 0 view .LVU304
 1198 0002 094B     		ldr	r3, .L59
 1199              		.loc 1 378 36 view .LVU305
 1200 0004 094A     		ldr	r2, .L59+4
 1201              		.loc 1 379 25 view .LVU306
 1202 0006 1878     		ldrb	r0, [r3]	@ zero_extendqisi2
 1203              		.loc 1 380 1 view .LVU307
 1204 0008 084B     		ldr	r3, .L59+4
 1205              		.loc 1 378 36 view .LVU308
 1206 000a 83B0     		sub	sp, sp, #12
 1207              		.cfi_def_cfa_offset 16
 1208              		.loc 1 378 36 view .LVU309
 1209 000c 1268     		ldr	r2, [r2]
 1210 000e 0192     		str	r2, [sp, #4]
 1211 0010 4FF00002 		mov	r2,#0
 1212              		.loc 1 379 2 is_stmt 1 view .LVU310
 1213              		.loc 1 380 1 is_stmt 0 view .LVU311
 1214 0014 1A68     		ldr	r2, [r3]
 1215 0016 019B     		ldr	r3, [sp, #4]
 1216 0018 5A40     		eors	r2, r3, r2
 1217 001a 02D1     		bne	.L58
 1218 001c 03B0     		add	sp, sp, #12
 1219              		.cfi_remember_state
 1220              		.cfi_def_cfa_offset 4
 1221              		@ sp needed
 1222 001e 5DF804FB 		ldr	pc, [sp], #4
 1223              	.L58:
 1224              		.cfi_restore_state
 1225 0022 FFF7FEFF 		bl	__stack_chk_fail
 1226              	.LVL82:
 1227              	.L60:
 1228 0026 00BF     		.align	2
 1229              	.L59:
 1230 0028 00000000 		.word	.LANCHOR4
 1231 002c 00000000 		.word	.LC5
 1232              		.cfi_endproc
 1233              	.LFE266:
 1234              		.size	ir_remote_get_toggle, .-ir_remote_get_toggle
 1235              		.section	.rodata.ir_remote_get_address.cst4,"aM",%progbits,4
 1236              		.align	2
 1237              	.LC6:
 1238 0000 00000000 		.word	__stack_chk_guard
 1239              		.section	.text.ir_remote_get_address,"ax",%progbits
 1240              		.align	1
 1241              		.p2align 4,,15
 1242              		.global	ir_remote_get_address
 1243              		.syntax unified
 1244              		.thumb
 1245              		.thumb_func
 1246              		.fpu fpv4-sp-d16
 1247              		.type	ir_remote_get_address, %function
 1248              	ir_remote_get_address:
 1249              	.LFB267:
 1250              		.loc 1 382 37 is_stmt 1 view -0
 1251              		.cfi_startproc
 1252              		@ args = 0, pretend = 0, frame = 8
ARM GAS  /tmp/ccOCNcnq.s 			page 23


 1253              		@ frame_needed = 0, uses_anonymous_args = 0
 1254 0000 00B5     		push	{lr}
 1255              		.cfi_def_cfa_offset 4
 1256              		.cfi_offset 14, -4
 1257              		.loc 1 383 25 is_stmt 0 view .LVU313
 1258 0002 094B     		ldr	r3, .L65
 1259              		.loc 1 382 37 view .LVU314
 1260 0004 094A     		ldr	r2, .L65+4
 1261              		.loc 1 383 25 view .LVU315
 1262 0006 5878     		ldrb	r0, [r3, #1]	@ zero_extendqisi2
 1263              		.loc 1 384 1 view .LVU316
 1264 0008 084B     		ldr	r3, .L65+4
 1265              		.loc 1 382 37 view .LVU317
 1266 000a 83B0     		sub	sp, sp, #12
 1267              		.cfi_def_cfa_offset 16
 1268              		.loc 1 382 37 view .LVU318
 1269 000c 1268     		ldr	r2, [r2]
 1270 000e 0192     		str	r2, [sp, #4]
 1271 0010 4FF00002 		mov	r2,#0
 1272              		.loc 1 383 2 is_stmt 1 view .LVU319
 1273              		.loc 1 384 1 is_stmt 0 view .LVU320
 1274 0014 1A68     		ldr	r2, [r3]
 1275 0016 019B     		ldr	r3, [sp, #4]
 1276 0018 5A40     		eors	r2, r3, r2
 1277 001a 02D1     		bne	.L64
 1278 001c 03B0     		add	sp, sp, #12
 1279              		.cfi_remember_state
 1280              		.cfi_def_cfa_offset 4
 1281              		@ sp needed
 1282 001e 5DF804FB 		ldr	pc, [sp], #4
 1283              	.L64:
 1284              		.cfi_restore_state
 1285 0022 FFF7FEFF 		bl	__stack_chk_fail
 1286              	.LVL83:
 1287              	.L66:
 1288 0026 00BF     		.align	2
 1289              	.L65:
 1290 0028 00000000 		.word	.LANCHOR4
 1291 002c 00000000 		.word	.LC6
 1292              		.cfi_endproc
 1293              	.LFE267:
 1294              		.size	ir_remote_get_address, .-ir_remote_get_address
 1295              		.section	.rodata.ir_remote_get_data.cst4,"aM",%progbits,4
 1296              		.align	2
 1297              	.LC7:
 1298 0000 00000000 		.word	__stack_chk_guard
 1299              		.section	.text.ir_remote_get_data,"ax",%progbits
 1300              		.align	1
 1301              		.p2align 4,,15
 1302              		.global	ir_remote_get_data
 1303              		.syntax unified
 1304              		.thumb
 1305              		.thumb_func
 1306              		.fpu fpv4-sp-d16
 1307              		.type	ir_remote_get_data, %function
 1308              	ir_remote_get_data:
 1309              	.LFB268:
ARM GAS  /tmp/ccOCNcnq.s 			page 24


 1310              		.loc 1 386 34 is_stmt 1 view -0
 1311              		.cfi_startproc
 1312              		@ args = 0, pretend = 0, frame = 8
 1313              		@ frame_needed = 0, uses_anonymous_args = 0
 1314 0000 00B5     		push	{lr}
 1315              		.cfi_def_cfa_offset 4
 1316              		.cfi_offset 14, -4
 1317              		.loc 1 387 25 is_stmt 0 view .LVU322
 1318 0002 094B     		ldr	r3, .L71
 1319              		.loc 1 386 34 view .LVU323
 1320 0004 094A     		ldr	r2, .L71+4
 1321              		.loc 1 387 25 view .LVU324
 1322 0006 9878     		ldrb	r0, [r3, #2]	@ zero_extendqisi2
 1323              		.loc 1 388 1 view .LVU325
 1324 0008 084B     		ldr	r3, .L71+4
 1325              		.loc 1 386 34 view .LVU326
 1326 000a 83B0     		sub	sp, sp, #12
 1327              		.cfi_def_cfa_offset 16
 1328              		.loc 1 386 34 view .LVU327
 1329 000c 1268     		ldr	r2, [r2]
 1330 000e 0192     		str	r2, [sp, #4]
 1331 0010 4FF00002 		mov	r2,#0
 1332              		.loc 1 387 2 is_stmt 1 view .LVU328
 1333              		.loc 1 388 1 is_stmt 0 view .LVU329
 1334 0014 1A68     		ldr	r2, [r3]
 1335 0016 019B     		ldr	r3, [sp, #4]
 1336 0018 5A40     		eors	r2, r3, r2
 1337 001a 02D1     		bne	.L70
 1338 001c 03B0     		add	sp, sp, #12
 1339              		.cfi_remember_state
 1340              		.cfi_def_cfa_offset 4
 1341              		@ sp needed
 1342 001e 5DF804FB 		ldr	pc, [sp], #4
 1343              	.L70:
 1344              		.cfi_restore_state
 1345 0022 FFF7FEFF 		bl	__stack_chk_fail
 1346              	.LVL84:
 1347              	.L72:
 1348 0026 00BF     		.align	2
 1349              	.L71:
 1350 0028 00000000 		.word	.LANCHOR4
 1351 002c 00000000 		.word	.LC7
 1352              		.cfi_endproc
 1353              	.LFE268:
 1354              		.size	ir_remote_get_data, .-ir_remote_get_data
 1355              		.global	trans
 1356              		.section	.bss.ir_remote_values,"aw",%nobits
 1357              		.align	2
 1358              		.set	.LANCHOR4,. + 0
 1359              		.type	ir_remote_values, %object
 1360              		.size	ir_remote_values, 3
 1361              	ir_remote_values:
 1362 0000 000000   		.space	3
 1363              		.section	.bss.remote_cmd_recv_thd_wa.11581,"aw",%nobits
 1364              		.align	3
 1365              		.set	.LANCHOR7,. + 0
 1366              		.type	remote_cmd_recv_thd_wa.11581, %object
ARM GAS  /tmp/ccOCNcnq.s 			page 25


 1367              		.size	remote_cmd_recv_thd_wa.11581, 632
 1368              	remote_cmd_recv_thd_wa.11581:
 1369 0000 00000000 		.space	632
 1369      00000000 
 1369      00000000 
 1369      00000000 
 1369      00000000 
 1370              		.section	.bss.remote_motion_thd_wa.11580,"aw",%nobits
 1371              		.align	3
 1372              		.set	.LANCHOR6,. + 0
 1373              		.type	remote_motion_thd_wa.11580, %object
 1374              		.size	remote_motion_thd_wa.11580, 504
 1375              	remote_motion_thd_wa.11580:
 1376 0000 00000000 		.space	504
 1376      00000000 
 1376      00000000 
 1376      00000000 
 1376      00000000 
 1377              		.section	.rodata.__FUNCTION__.11547,"a"
 1378              		.align	2
 1379              		.set	.LANCHOR0,. + 0
 1380              		.type	__FUNCTION__.11547, %object
 1381              		.size	__FUNCTION__.11547, 18
 1382              	__FUNCTION__.11547:
 1383 0000 72656D6F 		.ascii	"remote_motion_thd\000"
 1383      74655F6D 
 1383      6F74696F 
 1383      6E5F7468 
 1383      6400
 1384              		.section	.rodata.__FUNCTION__.11570,"a"
 1385              		.align	2
 1386              		.set	.LANCHOR3,. + 0
 1387              		.type	__FUNCTION__.11570, %object
 1388              		.size	__FUNCTION__.11570, 20
 1389              	__FUNCTION__.11570:
 1390 0000 72656D6F 		.ascii	"remote_cmd_recv_thd\000"
 1390      74655F63 
 1390      6D645F72 
 1390      6563765F 
 1390      74686400 
 1391              		.section	.rodata.__func__.7261,"a"
 1392              		.align	2
 1393              		.set	.LANCHOR1,. + 0
 1394              		.type	__func__.7261, %object
 1395              		.size	__func__.7261, 12
 1396              	__func__.7261:
 1397 0000 63685379 		.ascii	"chSysUnlock\000"
 1397      73556E6C 
 1397      6F636B00 
 1398              		.section	.rodata.gpt11cfg,"a"
 1399              		.align	2
 1400              		.set	.LANCHOR5,. + 0
 1401              		.type	gpt11cfg, %object
 1402              		.size	gpt11cfg, 16
 1403              	gpt11cfg:
 1404 0000 40420F00 		.word	1000000
 1405 0004 00000000 		.word	0
ARM GAS  /tmp/ccOCNcnq.s 			page 26


 1406 0008 00000000 		.word	0
 1407 000c 00000000 		.word	0
 1408              		.section	.rodata.trans,"a"
 1409              		.align	2
 1410              		.set	.LANCHOR2,. + 0
 1411              		.type	trans, %object
 1412              		.size	trans, 4
 1413              	trans:
 1414 0000 01919BFB 		.ascii	"\001\221\233\373"
 1415              		.text
 1416              	.Letext0:
 1417              		.file 7 "/usr/lib/gcc/arm-none-eabi/9.2.1/include/stddef.h"
 1418              		.file 8 "/usr/lib/gcc/arm-none-eabi/9.2.1/include/stdint.h"
 1419              		.file 9 ".//ChibiOS//os/rt/ports/ARMCMx/compilers/GCC/chtypes.h"
 1420              		.file 10 ".//ChibiOS//os/rt/include/chsystypes.h"
 1421              		.file 11 ".//ChibiOS//os/rt/include/chschd.h"
 1422              		.file 12 ".//ChibiOS//os/ext/CMSIS/include/core_cm4.h"
 1423              		.file 13 ".//ChibiOS//os/ext/CMSIS/ST/system_stm32f4xx.h"
 1424              		.file 14 ".//ChibiOS//os/ext/CMSIS/ST/stm32f407xx.h"
 1425              		.file 15 ".//ChibiOS//os/rt/ports/ARMCMx/chcore.h"
 1426              		.file 16 ".//ChibiOS//os/rt/include/chdebug.h"
 1427              		.file 17 ".//ChibiOS//os/rt/include/chtm.h"
 1428              		.file 18 ".//ChibiOS//os/rt/include/chstats.h"
 1429              		.file 19 ".//ChibiOS//os/rt/include/chsem.h"
 1430              		.file 20 ".//ChibiOS//os/rt/include/chmtx.h"
 1431              		.file 21 ".//ChibiOS//os/rt/include/chcond.h"
 1432              		.file 22 ".//ChibiOS//os/rt/include/chevents.h"
 1433              		.file 23 ".//ChibiOS//os/rt/include/chqueues.h"
 1434              		.file 24 ".//ChibiOS//os/hal/ports/STM32/STM32F4xx/stm32_dma.h"
 1435              		.file 25 ".//ChibiOS//os/hal/include/hal_ioblock.h"
 1436              		.file 26 ".//ChibiOS//os/hal/ports/STM32/LLD/GPIOv2/pal_lld.h"
 1437              		.file 27 ".//ChibiOS//os/hal/include/adc.h"
 1438              		.file 28 ".//ChibiOS//os/hal/ports/STM32/STM32F4xx/adc_lld.h"
 1439              		.file 29 ".//ChibiOS//os/hal/include/can.h"
 1440              		.file 30 ".//ChibiOS//os/hal/ports/STM32/LLD/can_lld.h"
 1441              		.file 31 ".//ChibiOS//os/hal/include/dac.h"
 1442              		.file 32 ".//ChibiOS//os/hal/ports/STM32/LLD/DACv1/dac_lld.h"
 1443              		.file 33 ".//ChibiOS//os/hal/include/ext.h"
 1444              		.file 34 ".//ChibiOS//os/hal/ports/STM32/LLD/ext_lld.h"
 1445              		.file 35 ".//ChibiOS//os/hal/include/gpt.h"
 1446              		.file 36 ".//ChibiOS//os/hal/ports/STM32/LLD/TIMv1/gpt_lld.h"
 1447              		.file 37 ".//ChibiOS//os/hal/ports/STM32/LLD/TIMv1/stm32_tim.h"
 1448              		.file 38 ".//ChibiOS//os/hal/include/i2c.h"
 1449              		.file 39 ".//ChibiOS//os/hal/ports/STM32/LLD/I2Cv1/i2c_lld.h"
 1450              		.file 40 ".//ChibiOS//os/hal/include/i2s.h"
 1451              		.file 41 ".//ChibiOS//os/hal/ports/STM32/LLD/SPIv1/i2s_lld.h"
 1452              		.file 42 ".//ChibiOS//os/hal/include/pwm.h"
 1453              		.file 43 ".//ChibiOS//os/hal/ports/STM32/LLD/TIMv1/pwm_lld.h"
 1454              		.file 44 ".//ChibiOS//os/hal/include/serial.h"
 1455              		.file 45 ".//ChibiOS//os/hal/ports/STM32/LLD/USARTv1/serial_lld.h"
 1456              		.file 46 ".//ChibiOS//os/hal/include/sdc.h"
 1457              		.file 47 ".//ChibiOS//os/hal/ports/STM32/LLD/sdc_lld.h"
 1458              		.file 48 ".//ChibiOS//os/hal/include/spi.h"
 1459              		.file 49 ".//ChibiOS//os/hal/ports/STM32/LLD/SPIv1/spi_lld.h"
 1460              		.file 50 ".//ChibiOS//os/hal/include/usb.h"
 1461              		.file 51 ".//ChibiOS//os/hal/ports/STM32/LLD/OTGv1/usb_lld.h"
 1462              		.file 52 ".//ChibiOS//os/hal/ports/STM32/LLD/OTGv1/stm32_otg.h"
ARM GAS  /tmp/ccOCNcnq.s 			page 27


 1463              		.file 53 ".//ChibiOS//os/hal/include/serial_usb.h"
 1464              		.file 54 ".//src/ir_remote.h"
 1465              		.file 55 ".//src/exti.h"
 1466              		.file 56 ".//ChibiOS_ext/os/hal/include/../ports/STM32/STM32F4xx/dcmi_lld.h"
 1467              		.file 57 "/usr/include/newlib/sys/_types.h"
 1468              		.file 58 "/usr/include/newlib/sys/unistd.h"
 1469              		.file 59 ".//src/msgbus/messagebus.h"
 1470              		.file 60 "/usr/include/newlib/sys/reent.h"
 1471              		.file 61 "/usr/include/newlib/sys/lock.h"
 1472              		.file 62 "/usr/include/newlib/stdlib.h"
 1473              		.file 63 ".//src/parameter/parameter.h"
 1474              		.file 64 ".//src/main.h"
 1475              		.file 65 ".//ChibiOS//os/various/shell.h"
 1476              		.file 66 ".//src/usbcfg.h"
 1477              		.file 67 ".//ChibiOS//os/rt/include/chthreads.h"
 1478              		.file 68 ".//src/motors.h"