ARM GAS  /tmp/ccawpEV3.s 			page 1


   1              		.cpu cortex-m4
   2              		.eabi_attribute 27, 1
   3              		.eabi_attribute 28, 1
   4              		.eabi_attribute 20, 1
   5              		.eabi_attribute 21, 1
   6              		.eabi_attribute 23, 3
   7              		.eabi_attribute 24, 1
   8              		.eabi_attribute 25, 1
   9              		.eabi_attribute 26, 1
  10              		.eabi_attribute 30, 2
  11              		.eabi_attribute 34, 1
  12              		.eabi_attribute 18, 4
  13              		.file	"main.c"
  14              		.text
  15              	.Ltext0:
  16              		.cfi_sections	.debug_frame
  17              		.section	.rodata.chprintf.cst4,"aM",%progbits,4
  18              		.align	2
  19              	.LC0:
  20 0000 00000000 		.word	__stack_chk_guard
  21              		.section	.text.chprintf,"ax",%progbits
  22              		.align	1
  23              		.p2align 4,,15
  24              		.arch armv7e-m
  25              		.syntax unified
  26              		.thumb
  27              		.thumb_func
  28              		.fpu fpv4-sp-d16
  29              		.type	chprintf, %function
  30              	chprintf:
  31              	.LVL0:
  32              	.LFB222:
  33              		.file 1 ".//ChibiOS//os/hal/lib/streams/chprintf.h"
  34              		.loc 1 69 77 view -0
  35              		.cfi_startproc
  36              		@ args = 4, pretend = 12, frame = 8
  37              		@ frame_needed = 0, uses_anonymous_args = 1
  38              		.loc 1 69 77 is_stmt 0 view .LVU1
  39 0000 0EB4     		push	{r1, r2, r3}
  40              		.cfi_def_cfa_offset 12
  41              		.cfi_offset 1, -12
  42              		.cfi_offset 2, -8
  43              		.cfi_offset 3, -4
  44 0002 00B5     		push	{lr}
  45              		.cfi_def_cfa_offset 16
  46              		.cfi_offset 14, -16
  47 0004 82B0     		sub	sp, sp, #8
  48              		.cfi_def_cfa_offset 24
  49              		.loc 1 69 77 view .LVU2
  50 0006 03AA     		add	r2, sp, #12
  51 0008 0A4B     		ldr	r3, .L6
  52 000a 52F8041B 		ldr	r1, [r2], #4
  53 000e 1B68     		ldr	r3, [r3]
  54 0010 0193     		str	r3, [sp, #4]
  55 0012 4FF00003 		mov	r3,#0
  56              		.loc 1 70 3 is_stmt 1 view .LVU3
  57              		.loc 1 71 3 view .LVU4
ARM GAS  /tmp/ccawpEV3.s 			page 2


  58              		.loc 1 73 3 view .LVU5
  59 0016 0092     		str	r2, [sp]
  60              		.loc 1 74 3 view .LVU6
  61              		.loc 1 74 21 is_stmt 0 view .LVU7
  62 0018 FFF7FEFF 		bl	chvprintf
  63              	.LVL1:
  64              		.loc 1 75 3 is_stmt 1 view .LVU8
  65              		.loc 1 77 3 view .LVU9
  66              		.loc 1 78 1 is_stmt 0 view .LVU10
  67 001c 054B     		ldr	r3, .L6
  68 001e 1A68     		ldr	r2, [r3]
  69 0020 019B     		ldr	r3, [sp, #4]
  70 0022 5A40     		eors	r2, r3, r2
  71 0024 04D1     		bne	.L5
  72 0026 02B0     		add	sp, sp, #8
  73              		.cfi_remember_state
  74              		.cfi_def_cfa_offset 16
  75              		@ sp needed
  76 0028 5DF804EB 		ldr	lr, [sp], #4
  77              		.cfi_restore 14
  78              		.cfi_def_cfa_offset 12
  79 002c 03B0     		add	sp, sp, #12
  80              		.cfi_restore 3
  81              		.cfi_restore 2
  82              		.cfi_restore 1
  83              		.cfi_def_cfa_offset 0
  84 002e 7047     		bx	lr
  85              	.L5:
  86              		.cfi_restore_state
  87 0030 FFF7FEFF 		bl	__stack_chk_fail
  88              	.LVL2:
  89              	.L7:
  90              		.loc 1 78 1 view .LVU11
  91              		.align	2
  92              	.L6:
  93 0034 00000000 		.word	.LC0
  94              		.cfi_endproc
  95              	.LFE222:
  96              		.size	chprintf, .-chprintf
  97              		.section	.rodata.selector_thd.str1.4,"aMS",%progbits,1
  98              		.align	2
  99              	.LC1:
 100 0000 2F70726F 		.ascii	"/proximity\000"
 100      78696D69 
 100      747900
 101 000b 00       		.align	2
 102              	.LC2:
 103 000c 2F696D75 		.ascii	"/imu\000"
 103      00
 104 0011 000000   		.align	2
 105              	.LC3:
 106 0014 2534642C 		.ascii	"%4d,\000"
 106      00
 107 0019 000000   		.align	2
 108              	.LC4:
 109 001c 25346400 		.ascii	"%4d\000"
 110              		.align	2
ARM GAS  /tmp/ccawpEV3.s 			page 3


 111              	.LC5:
 112 0020 0D0A00   		.ascii	"\015\012\000"
 113 0023 00       		.align	2
 114              	.LC6:
 115 0024 6572720D 		.ascii	"err\015\012\000"
 115      0A00
 116 002a 0000     		.align	2
 117              	.LC7:
 118 002c 25642025 		.ascii	"%d %3.2f %d %d\015\012\000"
 118      332E3266 
 118      20256420 
 118      25640D0A 
 118      00
 119              		.global	__aeabi_i2d
 120              		.global	__aeabi_dmul
 121              		.global	__aeabi_ddiv
 122 003d 000000   		.align	2
 123              	.LC8:
 124 0040 73657420 		.ascii	"set range to %d\015\012\000"
 124      72616E67 
 124      6520746F 
 124      2025640D 
 124      0A00
 125 0052 0000     		.align	2
 126              	.LC9:
 127 0054 6F6E626F 		.ascii	"onboard calculation enabled = %d\015\012\000"
 127      61726420 
 127      63616C63 
 127      756C6174 
 127      696F6E20 
 128 0077 00       		.align	2
 129              	.LC10:
 130 0078 494D550D 		.ascii	"IMU\015\012\000"
 130      0A00
 131 007e 0000     		.align	2
 132              	.LC11:
 133 0080 2541783D 		.ascii	"%Ax=%-7d Ay=%-7d Az=%-7d Gx=%-7d Gy=%-7d Gz=%-7d\015"
 133      252D3764 
 133      2041793D 
 133      252D3764 
 133      20417A3D 
 134 00b1 0A0A00   		.ascii	"\012\012\000"
 135              		.align	2
 136              	.LC12:
 137 00b4 53454C45 		.ascii	"SELECTOR\015\012\000"
 137      43544F52 
 137      0D0A00
 138 00bf 00       		.align	2
 139              	.LC13:
 140 00c0 25640D0A 		.ascii	"%d\015\012\012\000"
 140      0A00
 141 00c6 0000     		.align	2
 142              	.LC14:
 143 00c8 49522052 		.ascii	"IR RECEIVER\015\012\000"
 143      45434549 
 143      5645520D 
 143      0A00
ARM GAS  /tmp/ccawpEV3.s 			page 4


 144 00d6 0000     		.align	2
 145              	.LC15:
 146 00d8 63686563 		.ascii	"check : 0x%x, address : 0x%x, data : 0x%x\015\012\012"
 146      6B203A20 
 146      30782578 
 146      2C206164 
 146      64726573 
 147 0104 00       		.ascii	"\000"
 148 0105 000000   		.align	2
 149              	.LC16:
 150 0108 50524F58 		.ascii	"PROXIMITY\015\012\000"
 150      494D4954 
 150      590D0A00 
 151              		.align	2
 152              	.LC17:
 153 0114 2534642C 		.ascii	"%4d,%4d,%4d,%4d,%4d,%4d,%4d,%4d\015\012\012\000"
 153      2534642C 
 153      2534642C 
 153      2534642C 
 153      2534642C 
 154 0137 00       		.align	2
 155              	.LC18:
 156 0138 414D4249 		.ascii	"AMBIENT\015\012\000"
 156      454E540D 
 156      0A00
 157 0142 0000     		.align	2
 158              	.LC19:
 159 0144 4D494352 		.ascii	"MICROPHONES\015\012\000"
 159      4F50484F 
 159      4E45530D 
 159      0A00
 160 0152 0000     		.align	2
 161              	.LC20:
 162 0154 2534642C 		.ascii	"%4d,%4d,%4d,%4d\015\012\012\000"
 162      2534642C 
 162      2534642C 
 162      2534640D 
 162      0A0A00
 163 0167 00       		.align	2
 164              	.LC21:
 165 0168 44495354 		.ascii	"DISTANCE SENSOR\015\012\000"
 165      414E4345 
 165      2053454E 
 165      534F520D 
 165      0A00
 166 017a 0000     		.align	2
 167              	.LC22:
 168 017c 43414D45 		.ascii	"CAMERA\015\012\000"
 168      52410D0A 
 168      00
 169 0185 000000   		.align	2
 170              	.LC23:
 171 0188 523D2533 		.ascii	"R=%3d, G=%3d, B=%3d\015\012\012\000"
 171      642C2047 
 171      3D253364 
 171      2C20423D 
 171      2533640D 
ARM GAS  /tmp/ccawpEV3.s 			page 5


 172              		.global	__aeabi_f2d
 173 019f 00       		.align	2
 174              	.LC24:
 175 01a0 254D783D 		.ascii	"%Mx=%f My=%f Mz=%f\015\012\000"
 175      2566204D 
 175      793D2566 
 175      204D7A3D 
 175      25660D0A 
 176 01b5 000000   		.align	2
 177              	.LC25:
 178 01b8 62617474 		.ascii	"battery=%d, %f V \015\012\000"
 178      6572793D 
 178      25642C20 
 178      25662056 
 178      200D0A00 
 179              		.section	.rodata.selector_thd.cst4,"aM",%progbits,4
 180              		.align	2
 181              	.LC26:
 182 0000 00000000 		.word	__stack_chk_guard
 183              		.section	.text.selector_thd,"ax",%progbits
 184              		.align	1
 185              		.p2align 4,,15
 186              		.syntax unified
 187              		.thumb
 188              		.thumb_func
 189              		.fpu fpv4-sp-d16
 190              		.type	selector_thd, %function
 191              	selector_thd:
 192              	.LVL3:
 193              	.LFB263:
 194              		.file 2 ".//src/main.c"
 195              		.loc 2 74 1 is_stmt 1 view -0
 196              		.cfi_startproc
 197              		@ args = 0, pretend = 0, frame = 256
 198              		@ frame_needed = 0, uses_anonymous_args = 0
 199              		.loc 2 74 1 is_stmt 0 view .LVU13
 200 0000 2DE9F04F 		push	{r4, r5, r6, r7, r8, r9, r10, fp, lr}
 201              		.cfi_def_cfa_offset 36
 202              		.cfi_offset 4, -36
 203              		.cfi_offset 5, -32
 204              		.cfi_offset 6, -28
 205              		.cfi_offset 7, -24
 206              		.cfi_offset 8, -20
 207              		.cfi_offset 9, -16
 208              		.cfi_offset 10, -12
 209              		.cfi_offset 11, -8
 210              		.cfi_offset 14, -4
 211              	.LBB62:
 212              	.LBB63:
 213              		.file 3 ".//ChibiOS//os/rt/include/chregistry.h"
 214              		.loc 3 135 11 view .LVU14
 215 0004 DFF810A2 		ldr	r10, .L96+44
 216              		.loc 3 135 30 view .LVU15
 217 0008 784A     		ldr	r2, .L96
 218              		.loc 3 135 11 view .LVU16
 219 000a DAF81830 		ldr	r3, [r10, #24]
 220              	.LBE63:
ARM GAS  /tmp/ccawpEV3.s 			page 6


 221              	.LBE62:
 222              		.loc 2 81 38 view .LVU17
 223 000e 7849     		ldr	r1, .L96+4
 224 0010 7848     		ldr	r0, .L96+8
 225              	.LVL4:
 226              		.loc 2 74 1 view .LVU18
 227 0012 2DED028B 		vpush.64	{d8}
 228              		.cfi_def_cfa_offset 44
 229              		.cfi_offset 80, -44
 230              		.cfi_offset 81, -40
 231              	.LBB66:
 232              	.LBB64:
 233              		.loc 3 135 30 view .LVU19
 234 0016 9A61     		str	r2, [r3, #24]
 235              	.LBE64:
 236              	.LBE66:
 237              		.loc 2 74 1 view .LVU20
 238 0018 774B     		ldr	r3, .L96+12
 239 001a C7B0     		sub	sp, sp, #284
 240              		.cfi_def_cfa_offset 328
 241              		.loc 2 74 1 view .LVU21
 242 001c 1B68     		ldr	r3, [r3]
 243 001e 4593     		str	r3, [sp, #276]
 244 0020 4FF00003 		mov	r3,#0
 245              		.loc 2 75 5 is_stmt 1 view .LVU22
 246              		.loc 2 76 5 view .LVU23
 247              	.LVL5:
 248              	.LBB67:
 249              	.LBI62:
 250              		.loc 3 132 20 view .LVU24
 251              	.LBB65:
 252              		.loc 3 135 3 view .LVU25
 253              		.loc 3 135 3 is_stmt 0 view .LVU26
 254              	.LBE65:
 255              	.LBE67:
 256              		.loc 2 78 5 is_stmt 1 view .LVU27
 257              		.loc 2 79 5 view .LVU28
 258              		.loc 2 81 5 view .LVU29
 259              		.loc 2 81 38 is_stmt 0 view .LVU30
 260 0024 FFF7FEFF 		bl	messagebus_find_topic_blocking
 261              	.LVL6:
 262              		.loc 2 85 37 view .LVU31
 263 0028 7449     		ldr	r1, .L96+16
 264              		.loc 2 81 38 view .LVU32
 265 002a 0346     		mov	r3, r0
 266              		.loc 2 85 37 view .LVU33
 267 002c 7148     		ldr	r0, .L96+8
 268              		.loc 2 81 38 view .LVU34
 269 002e 08EE103A 		vmov	s16, r3	@ int
 270              	.LVL7:
 271              		.loc 2 82 5 is_stmt 1 view .LVU35
 272              		.loc 2 83 5 view .LVU36
 273              		.loc 2 85 5 view .LVU37
 274              		.loc 2 85 37 is_stmt 0 view .LVU38
 275 0032 FFF7FEFF 		bl	messagebus_find_topic_blocking
 276              	.LVL8:
 277              		.loc 2 88 28 view .LVU39
ARM GAS  /tmp/ccawpEV3.s 			page 7


 278 0036 0024     		movs	r4, #0
 279              		.loc 2 85 37 view .LVU40
 280 0038 08EE900A 		vmov	s17, r0	@ int
 281              	.LVL9:
 282              		.loc 2 86 5 is_stmt 1 view .LVU41
 283              		.loc 2 88 5 view .LVU42
 284              		.loc 2 88 28 is_stmt 0 view .LVU43
 285 003c 8DF83F40 		strb	r4, [sp, #63]
 286              		.loc 2 89 5 is_stmt 1 view .LVU44
 287              	.LVL10:
 288              		.loc 2 91 5 view .LVU45
 289              		.loc 2 92 5 view .LVU46
 290              		.loc 2 93 5 view .LVU47
 291              		.loc 2 94 5 view .LVU48
 292              		.loc 2 95 5 view .LVU49
 293              		.loc 2 97 5 view .LVU50
 294              		.loc 2 99 2 view .LVU51
 295              		.loc 2 100 2 view .LVU52
 296              		.loc 2 101 2 view .LVU53
 297              		.loc 2 102 2 view .LVU54
 298              		.loc 2 102 10 is_stmt 0 view .LVU55
 299 0040 ADF81041 		strh	r4, [sp, #272]	@ movhi
 300              		.loc 2 103 2 is_stmt 1 view .LVU56
 301              	.LVL11:
 302              		.loc 2 104 2 view .LVU57
 303              		.loc 2 105 2 view .LVU58
 304              		.loc 2 106 2 view .LVU59
 305              		.loc 2 108 2 view .LVU60
 306              		.loc 2 97 13 is_stmt 0 view .LVU61
 307 0044 0994     		str	r4, [sp, #36]
 308              		.loc 2 100 10 view .LVU62
 309 0046 2646     		mov	r6, r4
 310              		.loc 2 108 2 view .LVU63
 311 0048 FFF7FEFF 		bl	calibrate_acc
 312              	.LVL12:
 313              		.loc 2 109 2 is_stmt 1 view .LVU64
 314              		.loc 2 91 13 is_stmt 0 view .LVU65
 315 004c A346     		mov	fp, r4
 316              		.loc 2 95 32 view .LVU66
 317 004e 0794     		str	r4, [sp, #28]
 318              		.loc 2 109 2 view .LVU67
 319 0050 FFF7FEFF 		bl	calibrate_gyro
 320              	.LVL13:
 321              		.loc 2 111 5 is_stmt 1 view .LVU68
 322              		.loc 2 111 10 view .LVU69
 323              		.loc 2 95 14 is_stmt 0 view .LVU70
 324 0054 0894     		str	r4, [sp, #32]
 325              		.loc 2 94 28 view .LVU71
 326 0056 0694     		str	r4, [sp, #24]
 327              	.LVL14:
 328              	.L9:
 329              		.loc 2 112 6 is_stmt 1 view .LVU72
 330              	.LBB68:
 331              	.LBI68:
 332              		.file 4 ".//ChibiOS//os/rt/include/chvt.h"
 333              		.loc 4 247 25 view .LVU73
 334              	.LBB69:
ARM GAS  /tmp/ccawpEV3.s 			page 8


 335              		.loc 4 248 3 view .LVU74
 336              		.loc 4 250 3 view .LVU75
 337              	.LBB70:
 338              	.LBI70:
 339              		.file 5 ".//ChibiOS//os/rt/include/chsys.h"
 340              		.loc 5 346 20 view .LVU76
 341              	.LBB71:
 342              		.loc 5 348 3 view .LVU77
 343              	.LBB72:
 344              	.LBI72:
 345              		.file 6 ".//ChibiOS//os/rt/ports/ARMCMx/chcore_v7m.h"
 346              		.loc 6 444 20 view .LVU78
 347              	.LBE72:
 348              	.LBE71:
 349              	.LBE70:
 350              	.LBE69:
 351              	.LBE68:
 352              		.loc 6 447 3 view .LVU79
 353              	.LBB120:
 354              	.LBB113:
 355              	.LBB83:
 356              	.LBB80:
 357              	.LBB77:
 358              	.LBB73:
 359              	.LBI73:
 360              		.file 7 ".//ChibiOS//os/ext/CMSIS/include/core_cmFunc.h"
 361              		.loc 7 544 57 view .LVU80
 362              	.LBB74:
 363              		.loc 7 546 3 view .LVU81
 364 0058 2023     		movs	r3, #32
 365              		.syntax unified
 366              	@ 546 ".//ChibiOS//os/ext/CMSIS/include/core_cmFunc.h" 1
 367 005a 83F31188 		MSR basepri, r3
 368              	@ 0 "" 2
 369              	.LVL15:
 370              		.loc 7 546 3 is_stmt 0 view .LVU82
 371              		.thumb
 372              		.syntax unified
 373              	.LBE74:
 374              	.LBE73:
 375              	.LBE77:
 376              		.loc 5 349 3 is_stmt 1 view .LVU83
 377 005e FFF7FEFF 		bl	_stats_start_measure_crit_thd
 378              	.LVL16:
 379              		.loc 5 350 3 view .LVU84
 380 0062 FFF7FEFF 		bl	_dbg_check_lock
 381              	.LVL17:
 382              	.LBE80:
 383              	.LBE83:
 384              		.loc 4 251 3 view .LVU85
 385              	.LBB84:
 386              	.LBI84:
 387              		.loc 4 228 25 view .LVU86
 388              	.LBB85:
 389              		.loc 4 231 3 view .LVU87
 390              		.loc 4 231 19 is_stmt 0 view .LVU88
 391 0066 DAF82850 		ldr	r5, [r10, #40]
ARM GAS  /tmp/ccawpEV3.s 			page 9


 392              	.LVL18:
 393              		.loc 4 231 19 view .LVU89
 394              	.LBE85:
 395              	.LBE84:
 396              		.loc 4 252 3 is_stmt 1 view .LVU90
 397              	.LBB87:
 398              	.LBI87:
 399              		.loc 5 358 20 view .LVU91
 400              	.LBB88:
 401              		.loc 5 360 3 view .LVU92
 402 006a FFF7FEFF 		bl	_dbg_check_unlock
 403              	.LVL19:
 404              		.loc 5 361 3 view .LVU93
 405 006e FFF7FEFF 		bl	_stats_stop_measure_crit_thd
 406              	.LVL20:
 407              		.loc 5 367 3 view .LVU94
 408              		.loc 5 367 3 view .LVU95
 409              		.loc 5 367 3 view .LVU96
 410 0072 DAF80030 		ldr	r3, [r10]
 411 0076 5345     		cmp	r3, r10
 412 0078 06D0     		beq	.L11
 413 007a DAF81820 		ldr	r2, [r10, #24]
 414 007e 9B68     		ldr	r3, [r3, #8]
 415 0080 9268     		ldr	r2, [r2, #8]
 416 0082 9A42     		cmp	r2, r3
 417 0084 C0F01E82 		bcc	.L83
 418              	.L11:
 419              	.LBB89:
 420              	.LBB90:
 421              	.LBB91:
 422              		.loc 7 546 3 is_stmt 0 view .LVU97
 423 0088 0027     		movs	r7, #0
 424              	.L12:
 425              		.loc 7 546 3 view .LVU98
 426              	.LBE91:
 427              	.LBE90:
 428              	.LBE89:
 429              		.loc 5 367 3 is_stmt 1 view .LVU99
 430              		.loc 5 371 3 view .LVU100
 431              	.LBB96:
 432              	.LBI89:
 433              		.loc 6 458 20 view .LVU101
 434              	.LBE96:
 435              	.LBE88:
 436              	.LBE87:
 437              	.LBE113:
 438              	.LBE120:
 439              		.loc 6 461 3 view .LVU102
 440              	.LVL21:
 441              	.LBB121:
 442              	.LBB114:
 443              	.LBB105:
 444              	.LBB100:
 445              	.LBB97:
 446              	.LBB94:
 447              	.LBI90:
 448              		.loc 7 544 57 view .LVU103
ARM GAS  /tmp/ccawpEV3.s 			page 10


 449              	.LBB92:
 450              		.loc 7 546 3 view .LVU104
 451              		.syntax unified
 452              	@ 546 ".//ChibiOS//os/ext/CMSIS/include/core_cmFunc.h" 1
 453 008a 87F31188 		MSR basepri, r7
 454              	@ 0 "" 2
 455              	.LVL22:
 456              		.loc 7 546 3 is_stmt 0 view .LVU105
 457              		.thumb
 458              		.syntax unified
 459              	.LBE92:
 460              	.LBE94:
 461              	.LBE97:
 462              	.LBE100:
 463              	.LBE105:
 464              		.loc 4 254 3 is_stmt 1 view .LVU106
 465              		.loc 4 254 3 is_stmt 0 view .LVU107
 466              	.LBE114:
 467              	.LBE121:
 468              		.loc 2 114 3 is_stmt 1 view .LVU108
 469              		.loc 2 114 10 is_stmt 0 view .LVU109
 470 008e FFF7FEFF 		bl	get_selector
 471              	.LVL23:
 472 0092 0F28     		cmp	r0, #15
 473 0094 E0D8     		bhi	.L9
 474 0096 DFE810F0 		tbh	[pc, r0, lsl #1]
 475              	.L14:
 476 009a 5500     		.2byte	(.L28-.L14)/2
 477 009c 5200     		.2byte	(.L27-.L14)/2
 478 009e 1E00     		.2byte	(.L26-.L14)/2
 479 00a0 1000     		.2byte	(.L21-.L14)/2
 480 00a2 3C02     		.2byte	(.L25-.L14)/2
 481 00a4 1902     		.2byte	(.L24-.L14)/2
 482 00a6 F801     		.2byte	(.L23-.L14)/2
 483 00a8 EF01     		.2byte	(.L22-.L14)/2
 484 00aa 1000     		.2byte	(.L21-.L14)/2
 485 00ac EC01     		.2byte	(.L20-.L14)/2
 486 00ae E501     		.2byte	(.L19-.L14)/2
 487 00b0 AE01     		.2byte	(.L18-.L14)/2
 488 00b2 C400     		.2byte	(.L17-.L14)/2
 489 00b4 A200     		.2byte	(.L16-.L14)/2
 490 00b6 7000     		.2byte	(.L15-.L14)/2
 491 00b8 5900     		.2byte	(.L13-.L14)/2
 492              		.p2align 1
 493              	.L21:
 494              		.loc 2 146 5 is_stmt 1 view .LVU110
 495 00ba FFF7FEFF 		bl	run_asercom2
 496              	.LVL24:
 497              		.loc 2 147 5 view .LVU111
 498              		.loc 2 148 5 view .LVU112
 499              		.loc 2 111 10 view .LVU113
 500              	.L8:
 501              		.loc 2 435 1 is_stmt 0 view .LVU114
 502 00be 4E4B     		ldr	r3, .L96+12
 503 00c0 1A68     		ldr	r2, [r3]
 504 00c2 459B     		ldr	r3, [sp, #276]
 505 00c4 5A40     		eors	r2, r3, r2
ARM GAS  /tmp/ccawpEV3.s 			page 11


 506 00c6 40F04D84 		bne	.L84
 507 00ca 47B0     		add	sp, sp, #284
 508              		.cfi_remember_state
 509              		.cfi_def_cfa_offset 44
 510              		@ sp needed
 511 00cc BDEC028B 		vldm	sp!, {d8}
 512              		.cfi_restore 80
 513              		.cfi_restore 81
 514              		.cfi_def_cfa_offset 36
 515              	.LVL25:
 516              		.loc 2 435 1 view .LVU115
 517 00d0 BDE8F08F 		pop	{r4, r5, r6, r7, r8, r9, r10, fp, pc}
 518              	.LVL26:
 519              	.L59:
 520              		.cfi_restore_state
 521              		.loc 2 114 10 view .LVU116
 522 00d4 0126     		movs	r6, #1
 523              	.LVL27:
 524              	.L26:
 525              		.loc 2 126 5 is_stmt 1 view .LVU117
 526              		.loc 2 128 13 is_stmt 0 view .LVU118
 527 00d6 4A4F     		ldr	r7, .L96+20
 528              		.loc 2 126 5 view .LVU119
 529 00d8 18EE100A 		vmov	r0, s16	@ int
 530 00dc 8022     		movs	r2, #128
 531 00de 24A9     		add	r1, sp, #144
 532 00e0 FFF7FEFF 		bl	messagebus_topic_wait
 533              	.LVL28:
 534              		.loc 2 128 5 is_stmt 1 view .LVU120
 535              		.loc 2 128 20 is_stmt 0 view .LVU121
 536 00e4 D7F85432 		ldr	r3, [r7, #596]
 537              		.loc 2 128 26 view .LVU122
 538 00e8 1B68     		ldr	r3, [r3]
 539              		.loc 2 128 8 view .LVU123
 540 00ea 1B78     		ldrb	r3, [r3]	@ zero_extendqisi2
 541 00ec 042B     		cmp	r3, #4
 542 00ee B3D1     		bne	.L9
 543              	.LBB122:
 544              		.loc 2 135 12 view .LVU124
 545 00f0 DFF82891 		ldr	r9, .L96+48
 546 00f4 0DF18C08 		add	r8, sp, #140
 547              	.L30:
 548              		.loc 2 135 12 is_stmt 1 discriminator 3 view .LVU125
 549 00f8 58F8042F 		ldr	r2, [r8, #4]!
 550 00fc 4946     		mov	r1, r9
 551 00fe 3846     		mov	r0, r7
 552 0100 FFF7FEFF 		bl	chprintf
 553              	.LVL29:
 554              		.loc 2 136 12 discriminator 3 view .LVU126
 555 0104 D8F82020 		ldr	r2, [r8, #32]
 556 0108 4946     		mov	r1, r9
 557 010a 3846     		mov	r0, r7
 558 010c FFF7FEFF 		bl	chprintf
 559              	.LVL30:
 560              		.loc 2 137 12 discriminator 3 view .LVU127
 561 0110 D8F84020 		ldr	r2, [r8, #64]
 562 0114 3B49     		ldr	r1, .L96+24
ARM GAS  /tmp/ccawpEV3.s 			page 12


 563 0116 3846     		mov	r0, r7
 564 0118 FFF7FEFF 		bl	chprintf
 565              	.LVL31:
 566              		.loc 2 138 12 discriminator 3 view .LVU128
 567 011c 3A49     		ldr	r1, .L96+28
 568 011e 3846     		mov	r0, r7
 569 0120 FFF7FEFF 		bl	chprintf
 570              	.LVL32:
 571              		.loc 2 133 95 discriminator 3 view .LVU129
 572              		.loc 2 133 31 discriminator 3 view .LVU130
 573              		.loc 2 133 11 is_stmt 0 discriminator 3 view .LVU131
 574 0124 2BAB     		add	r3, sp, #172
 575 0126 4345     		cmp	r3, r8
 576 0128 E6D1     		bne	.L30
 577              	.LBE122:
 578              		.loc 2 140 11 is_stmt 1 view .LVU132
 579 012a 3749     		ldr	r1, .L96+28
 580 012c 3448     		ldr	r0, .L96+20
 581 012e FFF7FEFF 		bl	chprintf
 582              	.LVL33:
 583              		.loc 2 142 5 view .LVU133
 584 0132 05F16401 		add	r1, r5, #100
 585 0136 2846     		mov	r0, r5
 586 0138 FFF7FEFF 		bl	chThdSleepUntilWindowed
 587              	.LVL34:
 588              		.loc 2 143 5 view .LVU134
 589              		.loc 2 111 10 view .LVU135
 590 013c 8CE7     		b	.L9
 591              	.LVL35:
 592              	.L27:
 593              		.loc 2 121 5 view .LVU136
 594 013e FFF7FEFF 		bl	shell_start
 595              	.LVL36:
 596              		.loc 2 122 5 view .LVU137
 597              		.loc 2 123 5 view .LVU138
 598              		.loc 2 111 10 view .LVU139
 599 0142 BCE7     		b	.L8
 600              	.LVL37:
 601              	.L28:
 602              		.loc 2 116 5 view .LVU140
 603 0144 FFF7FEFF 		bl	aseba_vm_start
 604              	.LVL38:
 605              		.loc 2 117 5 view .LVU141
 606              		.loc 2 118 5 view .LVU142
 607              		.loc 2 111 10 view .LVU143
 608 0148 B9E7     		b	.L8
 609              	.LVL39:
 610              	.L65:
 611              		.loc 2 114 10 is_stmt 0 view .LVU144
 612 014a 0126     		movs	r6, #1
 613              	.LVL40:
 614              	.L13:
 615              		.loc 2 430 5 is_stmt 1 view .LVU145
 616              		.loc 2 430 69 is_stmt 0 view .LVU146
 617 014c FFF7FEFF 		bl	get_battery_raw
 618              	.LVL41:
 619 0150 0A90     		str	r0, [sp, #40]
ARM GAS  /tmp/ccawpEV3.s 			page 13


 620              		.loc 2 430 88 view .LVU147
 621 0152 FFF7FEFF 		bl	get_battery_voltage
 622              	.LVL42:
 623 0156 10EE100A 		vmov	r0, s0
 624              		.loc 2 430 5 view .LVU148
 625 015a FFF7FEFF 		bl	__aeabi_f2d
 626              	.LVL43:
 627 015e 0A9A     		ldr	r2, [sp, #40]
 628 0160 CDE90001 		strd	r0, [sp]
 629 0164 2949     		ldr	r1, .L96+32
 630 0166 2A48     		ldr	r0, .L96+36
 631 0168 FFF7FEFF 		bl	chprintf
 632              	.LVL44:
 633              		.loc 2 431 5 is_stmt 1 view .LVU149
 634 016c 05F5FA71 		add	r1, r5, #500
 635 0170 2846     		mov	r0, r5
 636 0172 FFF7FEFF 		bl	chThdSleepUntilWindowed
 637              	.LVL45:
 638              		.loc 2 432 5 view .LVU150
 639              		.loc 2 111 10 view .LVU151
 640 0176 6FE7     		b	.L9
 641              	.LVL46:
 642              	.L64:
 643              		.loc 2 114 10 is_stmt 0 view .LVU152
 644 0178 0126     		movs	r6, #1
 645              	.LVL47:
 646              	.L15:
 647              		.loc 2 412 5 is_stmt 1 view .LVU153
 648 017a 099B     		ldr	r3, [sp, #36]
 649 017c 002B     		cmp	r3, #0
 650 017e 00F0B482 		beq	.L85
 651              		.loc 2 419 10 view .LVU154
 652              		.loc 2 420 18 is_stmt 0 view .LVU155
 653 0182 1F4F     		ldr	r7, .L96+20
 654              		.loc 2 419 10 view .LVU156
 655 0184 18EE900A 		vmov	r0, s17	@ int
 656 0188 5022     		movs	r2, #80
 657 018a 10A9     		add	r1, sp, #64
 658 018c FFF7FEFF 		bl	messagebus_topic_wait
 659              	.LVL48:
 660              		.loc 2 420 10 is_stmt 1 view .LVU157
 661              		.loc 2 420 25 is_stmt 0 view .LVU158
 662 0190 D7F85432 		ldr	r3, [r7, #596]
 663              		.loc 2 420 31 view .LVU159
 664 0194 1B68     		ldr	r3, [r3]
 665              		.loc 2 420 13 view .LVU160
 666 0196 1B78     		ldrb	r3, [r3]	@ zero_extendqisi2
 667 0198 042B     		cmp	r3, #4
 668 019a 7FF45DAF 		bne	.L9
 669              		.loc 2 423 10 is_stmt 1 view .LVU161
 670 019e 1798     		ldr	r0, [sp, #92]	@ float
 671 01a0 FFF7FEFF 		bl	__aeabi_f2d
 672              	.LVL49:
 673 01a4 0246     		mov	r2, r0
 674 01a6 0B46     		mov	r3, r1
 675 01a8 1998     		ldr	r0, [sp, #100]	@ float
 676 01aa CDE90A23 		strd	r2, [sp, #40]
ARM GAS  /tmp/ccawpEV3.s 			page 14


 677 01ae FFF7FEFF 		bl	__aeabi_f2d
 678              	.LVL50:
 679 01b2 8046     		mov	r8, r0
 680 01b4 8946     		mov	r9, r1
 681 01b6 1898     		ldr	r0, [sp, #96]	@ float
 682 01b8 CDE90289 		strd	r8, [sp, #8]
 683 01bc FFF7FEFF 		bl	__aeabi_f2d
 684              	.LVL51:
 685 01c0 DDE90A23 		ldrd	r2, [sp, #40]
 686 01c4 CDE90001 		strd	r0, [sp]
 687 01c8 1249     		ldr	r1, .L96+40
 688 01ca 3846     		mov	r0, r7
 689 01cc FFF7FEFF 		bl	chprintf
 690              	.LVL52:
 691              		.loc 2 424 10 view .LVU162
 692 01d0 05F16401 		add	r1, r5, #100
 693 01d4 2846     		mov	r0, r5
 694 01d6 FFF7FEFF 		bl	chThdSleepUntilWindowed
 695              	.LVL53:
 696              		.loc 2 425 7 view .LVU163
 697              		.loc 2 111 10 view .LVU164
 698 01da 3DE7     		b	.L9
 699              	.LVL54:
 700              	.L63:
 701              		.loc 2 114 10 is_stmt 0 view .LVU165
 702 01dc 0126     		movs	r6, #1
 703              	.LVL55:
 704              	.L16:
 705              		.loc 2 407 5 is_stmt 1 view .LVU166
 706 01de FFF7FEFF 		bl	e_display_angle
 707              	.LVL56:
 708              		.loc 2 408 5 view .LVU167
 709 01e2 3220     		movs	r0, #50
 710 01e4 FFF7FEFF 		bl	chThdSleep
 711              	.LVL57:
 712              		.loc 2 409 5 view .LVU168
 713              		.loc 2 111 10 view .LVU169
 714 01e8 36E7     		b	.L9
 715              	.L97:
 716 01ea 00BF     		.align	2
 717              	.L96:
 718 01ec 00000000 		.word	.LANCHOR0
 719 01f0 00000000 		.word	.LC1
 720 01f4 00000000 		.word	.LANCHOR1
 721 01f8 00000000 		.word	.LC26
 722 01fc 0C000000 		.word	.LC2
 723 0200 00000000 		.word	SDU1
 724 0204 1C000000 		.word	.LC4
 725 0208 20000000 		.word	.LC5
 726 020c B8010000 		.word	.LC25
 727 0210 00000000 		.word	SD3
 728 0214 A0010000 		.word	.LC24
 729 0218 00000000 		.word	ch
 730 021c 14000000 		.word	.LC3
 731              	.LVL58:
 732              	.L62:
 733              		.loc 2 114 10 is_stmt 0 view .LVU170
ARM GAS  /tmp/ccawpEV3.s 			page 15


 734 0220 0126     		movs	r6, #1
 735              	.LVL59:
 736              	.L17:
 737              		.loc 2 293 5 is_stmt 1 view .LVU171
 738 0222 BBF1000F 		cmp	fp, #0
 739 0226 00F0E681 		beq	.L86
 740              		.loc 2 328 7 discriminator 1 view .LVU172
 741 022a 05F13201 		add	r1, r5, #50
 742 022e 2846     		mov	r0, r5
 743 0230 FFF7FEFF 		bl	chThdSleepUntilWindowed
 744              	.LVL60:
 745              		.loc 2 330 16 discriminator 1 view .LVU173
 746 0234 012C     		cmp	r4, #1
 747 0236 00F0B982 		beq	.L50
 748              		.loc 2 330 16 is_stmt 0 discriminator 1 view .LVU174
 749 023a 022C     		cmp	r4, #2
 750 023c 00F06083 		beq	.L51
 751 0240 002C     		cmp	r4, #0
 752 0242 00F07683 		beq	.L87
 753              	.L52:
 754              		.loc 2 350 7 is_stmt 1 view .LVU175
 755              		.loc 2 350 18 is_stmt 0 view .LVU176
 756 0246 069B     		ldr	r3, [sp, #24]
 757 0248 0133     		adds	r3, r3, #1
 758 024a DBB2     		uxtb	r3, r3
 759              		.loc 2 351 9 view .LVU177
 760 024c 142B     		cmp	r3, #20
 761              		.loc 2 350 18 view .LVU178
 762 024e 0693     		str	r3, [sp, #24]
 763              	.LVL61:
 764              		.loc 2 351 7 is_stmt 1 view .LVU179
 765              		.loc 2 351 9 is_stmt 0 view .LVU180
 766 0250 0BD1     		bne	.L53
 767              		.loc 2 352 8 is_stmt 1 view .LVU181
 768              	.LVL62:
 769              		.loc 2 353 8 view .LVU182
 770              		.loc 2 353 33 is_stmt 0 view .LVU183
 771 0252 C84B     		ldr	r3, .L98
 772              		.loc 2 353 30 view .LVU184
 773 0254 0134     		adds	r4, r4, #1
 774              		.loc 2 353 33 view .LVU185
 775 0256 A3FB0423 		umull	r2, r3, r3, r4
 776 025a 23F00102 		bic	r2, r3, #1
 777 025e 02EB5303 		add	r3, r2, r3, lsr #1
 778 0262 E41A     		subs	r4, r4, r3
 779              		.loc 2 352 20 view .LVU186
 780 0264 0023     		movs	r3, #0
 781              		.loc 2 353 18 view .LVU187
 782 0266 E4B2     		uxtb	r4, r4
 783              	.LVL63:
 784              		.loc 2 352 20 view .LVU188
 785 0268 0693     		str	r3, [sp, #24]
 786              	.LVL64:
 787              	.L53:
 788              		.loc 2 356 7 is_stmt 1 view .LVU189
 789              		.loc 2 356 15 is_stmt 0 view .LVU190
 790 026a C34D     		ldr	r5, .L98+4
ARM GAS  /tmp/ccawpEV3.s 			page 16


 791              	.LVL65:
 792              		.loc 2 356 22 view .LVU191
 793 026c D5F85432 		ldr	r3, [r5, #596]
 794              		.loc 2 356 28 view .LVU192
 795 0270 1B68     		ldr	r3, [r3]
 796              		.loc 2 356 10 view .LVU193
 797 0272 1B78     		ldrb	r3, [r3]	@ zero_extendqisi2
 798 0274 042B     		cmp	r3, #4
 799 0276 7FF4EFAE 		bne	.L9
 800              		.loc 2 360 7 is_stmt 1 view .LVU194
 801 027a 18EE100A 		vmov	r0, s16	@ int
 802 027e 24A9     		add	r1, sp, #144
 803 0280 8022     		movs	r2, #128
 804 0282 FFF7FEFF 		bl	messagebus_topic_wait
 805              	.LVL66:
 806              		.loc 2 361 7 view .LVU195
 807 0286 18EE900A 		vmov	r0, s17	@ int
 808 028a 5022     		movs	r2, #80
 809 028c 10A9     		add	r1, sp, #64
 810 028e FFF7FEFF 		bl	messagebus_topic_wait
 811              	.LVL67:
 812              		.loc 2 364 7 view .LVU196
 813 0292 BA49     		ldr	r1, .L98+8
 814 0294 2846     		mov	r0, r5
 815 0296 FFF7FEFF 		bl	chprintf
 816              	.LVL68:
 817              		.loc 2 365 10 view .LVU197
 818 029a BDF97200 		ldrsh	r0, [sp, #114]
 819 029e BDF97010 		ldrsh	r1, [sp, #112]
 820 02a2 BDF96E20 		ldrsh	r2, [sp, #110]
 821 02a6 BDF96C30 		ldrsh	r3, [sp, #108]
 822 02aa CDE90210 		strd	r1, r0, [sp, #8]
 823 02ae CDE90032 		strd	r3, r2, [sp]
 824 02b2 B349     		ldr	r1, .L98+12
 825 02b4 BDF96A30 		ldrsh	r3, [sp, #106]
 826 02b8 BDF96820 		ldrsh	r2, [sp, #104]
 827 02bc 2846     		mov	r0, r5
 828 02be FFF7FEFF 		bl	chprintf
 829              	.LVL69:
 830              		.loc 2 368 10 view .LVU198
 831 02c2 B049     		ldr	r1, .L98+16
 832 02c4 2846     		mov	r0, r5
 833 02c6 FFF7FEFF 		bl	chprintf
 834              	.LVL70:
 835              		.loc 2 369 10 view .LVU199
 836 02ca FFF7FEFF 		bl	get_selector
 837              	.LVL71:
 838 02ce AE49     		ldr	r1, .L98+20
 839 02d0 0246     		mov	r2, r0
 840 02d2 2846     		mov	r0, r5
 841 02d4 FFF7FEFF 		bl	chprintf
 842              	.LVL72:
 843              		.loc 2 372 10 view .LVU200
 844 02d8 AC49     		ldr	r1, .L98+24
 845 02da 2846     		mov	r0, r5
 846 02dc FFF7FEFF 		bl	chprintf
 847              	.LVL73:
ARM GAS  /tmp/ccawpEV3.s 			page 17


 848              		.loc 2 373 10 view .LVU201
 849              		.loc 2 373 101 is_stmt 0 view .LVU202
 850 02e0 FFF7FEFF 		bl	ir_remote_get_toggle
 851              	.LVL74:
 852 02e4 0C90     		str	r0, [sp, #48]
 853              		.loc 2 373 125 view .LVU203
 854 02e6 FFF7FEFF 		bl	ir_remote_get_address
 855              	.LVL75:
 856 02ea 0A90     		str	r0, [sp, #40]
 857              		.loc 2 373 150 view .LVU204
 858 02ec FFF7FEFF 		bl	ir_remote_get_data
 859              	.LVL76:
 860              		.loc 2 373 10 view .LVU205
 861 02f0 0A9B     		ldr	r3, [sp, #40]
 862 02f2 0C9A     		ldr	r2, [sp, #48]
 863 02f4 0090     		str	r0, [sp]
 864 02f6 A649     		ldr	r1, .L98+28
 865 02f8 2846     		mov	r0, r5
 866 02fa FFF7FEFF 		bl	chprintf
 867              	.LVL77:
 868              		.loc 2 376 10 is_stmt 1 view .LVU206
 869 02fe A549     		ldr	r1, .L98+32
 870 0300 2846     		mov	r0, r5
 871 0302 FFF7FEFF 		bl	chprintf
 872              	.LVL78:
 873              		.loc 2 377 10 view .LVU207
 874 0306 DDE93832 		ldrd	r3, r2, [sp, #224]
 875 030a DDE93A10 		ldrd	r1, r0, [sp, #232]
 876 030e CDE90232 		strd	r3, r2, [sp, #8]
 877 0312 379F     		ldr	r7, [sp, #220]
 878 0314 369B     		ldr	r3, [sp, #216]
 879 0316 0197     		str	r7, [sp, #4]
 880 0318 CDE90410 		strd	r1, r0, [sp, #16]
 881 031c 0093     		str	r3, [sp]
 882 031e 9E49     		ldr	r1, .L98+36
 883 0320 DDE93423 		ldrd	r2, r3, [sp, #208]
 884 0324 2846     		mov	r0, r5
 885 0326 FFF7FEFF 		bl	chprintf
 886              	.LVL79:
 887              		.loc 2 378 10 view .LVU208
 888 032a 9C49     		ldr	r1, .L98+40
 889 032c 2846     		mov	r0, r5
 890 032e FFF7FEFF 		bl	chprintf
 891              	.LVL80:
 892              		.loc 2 379 10 view .LVU209
 893 0332 DDE92832 		ldrd	r3, r2, [sp, #160]
 894 0336 DDE92A10 		ldrd	r1, r0, [sp, #168]
 895 033a CDE90232 		strd	r3, r2, [sp, #8]
 896 033e 279F     		ldr	r7, [sp, #156]
 897 0340 269B     		ldr	r3, [sp, #152]
 898 0342 0197     		str	r7, [sp, #4]
 899 0344 CDE90410 		strd	r1, r0, [sp, #16]
 900 0348 0093     		str	r3, [sp]
 901 034a 9349     		ldr	r1, .L98+36
 902 034c DDE92423 		ldrd	r2, r3, [sp, #144]
 903 0350 2846     		mov	r0, r5
 904 0352 FFF7FEFF 		bl	chprintf
ARM GAS  /tmp/ccawpEV3.s 			page 18


 905              	.LVL81:
 906              		.loc 2 382 10 view .LVU210
 907 0356 9249     		ldr	r1, .L98+44
 908 0358 2846     		mov	r0, r5
 909 035a FFF7FEFF 		bl	chprintf
 910              	.LVL82:
 911              		.loc 2 383 10 view .LVU211
 912              		.loc 2 383 75 is_stmt 0 view .LVU212
 913 035e 0020     		movs	r0, #0
 914 0360 FFF7FEFF 		bl	mic_get_volume
 915              	.LVL83:
 916 0364 0246     		mov	r2, r0
 917              		.loc 2 383 94 view .LVU213
 918 0366 0120     		movs	r0, #1
 919              		.loc 2 383 75 view .LVU214
 920 0368 0C92     		str	r2, [sp, #48]
 921              		.loc 2 383 94 view .LVU215
 922 036a FFF7FEFF 		bl	mic_get_volume
 923              	.LVL84:
 924 036e 0346     		mov	r3, r0
 925              		.loc 2 383 113 view .LVU216
 926 0370 0220     		movs	r0, #2
 927              		.loc 2 383 94 view .LVU217
 928 0372 0A93     		str	r3, [sp, #40]
 929              		.loc 2 383 113 view .LVU218
 930 0374 FFF7FEFF 		bl	mic_get_volume
 931              	.LVL85:
 932 0378 0746     		mov	r7, r0
 933              		.loc 2 383 132 view .LVU219
 934 037a 0320     		movs	r0, #3
 935 037c FFF7FEFF 		bl	mic_get_volume
 936              	.LVL86:
 937              		.loc 2 383 10 view .LVU220
 938 0380 0A9B     		ldr	r3, [sp, #40]
 939 0382 0C9A     		ldr	r2, [sp, #48]
 940 0384 0097     		str	r7, [sp]
 941 0386 0190     		str	r0, [sp, #4]
 942 0388 8649     		ldr	r1, .L98+48
 943 038a 2846     		mov	r0, r5
 944 038c FFF7FEFF 		bl	chprintf
 945              	.LVL87:
 946              		.loc 2 386 10 is_stmt 1 view .LVU221
 947 0390 8549     		ldr	r1, .L98+52
 948 0392 2846     		mov	r0, r5
 949 0394 FFF7FEFF 		bl	chprintf
 950              	.LVL88:
 951              		.loc 2 387 10 view .LVU222
 952              		.loc 2 387 62 is_stmt 0 view .LVU223
 953 0398 FFF7FEFF 		bl	VL53L0X_get_dist_mm
 954              	.LVL89:
 955              		.loc 2 387 10 view .LVU224
 956 039c 7A49     		ldr	r1, .L98+20
 957              		.loc 2 387 62 view .LVU225
 958 039e 0246     		mov	r2, r0
 959              		.loc 2 387 10 view .LVU226
 960 03a0 2846     		mov	r0, r5
 961 03a2 FFF7FEFF 		bl	chprintf
ARM GAS  /tmp/ccawpEV3.s 			page 19


 962              	.LVL90:
 963              		.loc 2 390 10 is_stmt 1 view .LVU227
 964 03a6 FFF7FEFF 		bl	dcmi_capture_start
 965              	.LVL91:
 966              		.loc 2 391 7 view .LVU228
 967 03aa FFF7FEFF 		bl	wait_image_ready
 968              	.LVL92:
 969              		.loc 2 392 7 view .LVU229
 970              		.loc 2 392 22 is_stmt 0 view .LVU230
 971 03ae FFF7FEFF 		bl	dcmi_get_last_image_ptr
 972              	.LVL93:
 973              		.loc 2 393 7 is_stmt 1 view .LVU231
 974              		.loc 2 393 28 is_stmt 0 view .LVU232
 975 03b2 90F80080 		ldrb	r8, [r0]	@ zero_extendqisi2
 976              	.LVL94:
 977              		.loc 2 394 16 is_stmt 1 view .LVU233
 978              		.loc 2 394 75 is_stmt 0 view .LVU234
 979 03b6 4778     		ldrb	r7, [r0, #1]	@ zero_extendqisi2
 980              		.loc 2 396 16 view .LVU235
 981 03b8 7C49     		ldr	r1, .L98+56
 982              		.loc 2 394 47 view .LVU236
 983 03ba 4FEA4812 		lsl	r2, r8, #5
 984              		.loc 2 394 75 view .LVU237
 985 03be FB10     		asrs	r3, r7, #3
 986              		.loc 2 394 47 view .LVU238
 987 03c0 D2B2     		uxtb	r2, r2
 988              		.loc 2 394 75 view .LVU239
 989 03c2 03F01C03 		and	r3, r3, #28
 990              		.loc 2 394 51 view .LVU240
 991 03c6 1343     		orrs	r3, r3, r2
 992              		.loc 2 396 16 view .LVU241
 993 03c8 2846     		mov	r0, r5
 994              	.LVL95:
 995              		.loc 2 394 51 view .LVU242
 996 03ca 0A93     		str	r3, [sp, #40]
 997              	.LVL96:
 998              		.loc 2 395 16 is_stmt 1 view .LVU243
 999              		.loc 2 396 16 view .LVU244
 1000 03cc FFF7FEFF 		bl	chprintf
 1001              	.LVL97:
 1002              		.loc 2 397 16 view .LVU245
 1003              		.loc 2 395 47 is_stmt 0 view .LVU246
 1004 03d0 FA00     		lsls	r2, r7, #3
 1005              		.loc 2 397 16 view .LVU247
 1006 03d2 02F0F802 		and	r2, r2, #248
 1007 03d6 0A9B     		ldr	r3, [sp, #40]
 1008 03d8 7549     		ldr	r1, .L98+60
 1009 03da 0092     		str	r2, [sp]
 1010 03dc 2846     		mov	r0, r5
 1011 03de 08F0F802 		and	r2, r8, #248
 1012 03e2 FFF7FEFF 		bl	chprintf
 1013              	.LVL98:
 1014              		.loc 2 399 16 is_stmt 1 view .LVU248
 1015 03e6 2846     		mov	r0, r5
 1016 03e8 FFF7FEFF 		bl	printUcUsage
 1017              	.LVL99:
 1018              		.loc 2 401 16 view .LVU249
ARM GAS  /tmp/ccawpEV3.s 			page 20


 1019 03ec 6420     		movs	r0, #100
 1020 03ee FFF7FEFF 		bl	chThdSleep
 1021              	.LVL100:
 1022              		.loc 2 402 7 view .LVU250
 1023              		.loc 2 111 10 view .LVU251
 1024 03f2 31E6     		b	.L9
 1025              	.LVL101:
 1026              	.L61:
 1027              		.loc 2 114 10 is_stmt 0 view .LVU252
 1028 03f4 0126     		movs	r6, #1
 1029              	.LVL102:
 1030              	.L18:
 1031              		.loc 2 248 5 is_stmt 1 view .LVU253
 1032 03f6 18EE100A 		vmov	r0, s16	@ int
 1033 03fa 8022     		movs	r2, #128
 1034 03fc 24A9     		add	r1, sp, #144
 1035 03fe FFF7FEFF 		bl	messagebus_topic_wait
 1036              	.LVL103:
 1037              		.loc 2 249 5 view .LVU254
 1038              		.loc 2 249 35 is_stmt 0 view .LVU255
 1039 0402 3499     		ldr	r1, [sp, #208]
 1040              		.loc 2 250 36 view .LVU256
 1041 0404 3B98     		ldr	r0, [sp, #236]
 1042              		.loc 2 250 61 view .LVU257
 1043 0406 3A9A     		ldr	r2, [sp, #232]
 1044              		.loc 2 249 60 view .LVU258
 1045 0408 359B     		ldr	r3, [sp, #212]
 1046              		.loc 2 249 35 view .LVU259
 1047 040a 40F22627 		movw	r7, #550
 1048 040e 791A     		subs	r1, r7, r1
 1049              		.loc 2 250 36 view .LVU260
 1050 0410 381A     		subs	r0, r7, r0
 1051              		.loc 2 249 60 view .LVU261
 1052 0412 C3EB4103 		rsb	r3, r3, r1, lsl #1
 1053              		.loc 2 250 61 view .LVU262
 1054 0416 C2EB4000 		rsb	r0, r2, r0, lsl #1
 1055              		.loc 2 249 15 view .LVU263
 1056 041a 1FB2     		sxth	r7, r3
 1057              	.LVL104:
 1058              		.loc 2 250 5 is_stmt 1 view .LVU264
 1059              		.loc 2 251 5 view .LVU265
 1060 041c 00B2     		sxth	r0, r0
 1061 041e FFF7FEFF 		bl	right_motor_set_speed
 1062              	.LVL105:
 1063              		.loc 2 252 5 view .LVU266
 1064 0422 3846     		mov	r0, r7
 1065 0424 FFF7FEFF 		bl	left_motor_set_speed
 1066              	.LVL106:
 1067              		.loc 2 254 14 view .LVU267
 1068 0428 012C     		cmp	r4, #1
 1069 042a 00F02B81 		beq	.L44
 1070 042e 022C     		cmp	r4, #2
 1071 0430 00F0C880 		beq	.L45
 1072 0434 002C     		cmp	r4, #0
 1073 0436 00F06F81 		beq	.L88
 1074              	.L46:
 1075              		.loc 2 274 5 view .LVU268
ARM GAS  /tmp/ccawpEV3.s 			page 21


 1076              		.loc 2 274 16 is_stmt 0 view .LVU269
 1077 043a 069B     		ldr	r3, [sp, #24]
 1078 043c 0133     		adds	r3, r3, #1
 1079 043e DBB2     		uxtb	r3, r3
 1080              		.loc 2 275 7 view .LVU270
 1081 0440 642B     		cmp	r3, #100
 1082              		.loc 2 274 16 view .LVU271
 1083 0442 0693     		str	r3, [sp, #24]
 1084              	.LVL107:
 1085              		.loc 2 275 5 is_stmt 1 view .LVU272
 1086              		.loc 2 275 7 is_stmt 0 view .LVU273
 1087 0444 00F08181 		beq	.L89
 1088              	.LVL108:
 1089              	.L47:
 1090              		.loc 2 282 5 is_stmt 1 view .LVU274
 1091              		.loc 2 282 19 is_stmt 0 view .LVU275
 1092 0448 079B     		ldr	r3, [sp, #28]
 1093 044a 0133     		adds	r3, r3, #1
 1094 044c 9BB2     		uxth	r3, r3
 1095              		.loc 2 283 7 view .LVU276
 1096 044e B3F5FA6F 		cmp	r3, #2000
 1097              		.loc 2 282 19 view .LVU277
 1098 0452 0793     		str	r3, [sp, #28]
 1099              	.LVL109:
 1100              		.loc 2 283 5 is_stmt 1 view .LVU278
 1101              		.loc 2 283 7 is_stmt 0 view .LVU279
 1102 0454 00F02F81 		beq	.L90
 1103              	.LVL110:
 1104              	.L48:
 1105              		.loc 2 289 5 is_stmt 1 view .LVU280
 1106 0458 05F10A01 		add	r1, r5, #10
 1107 045c 2846     		mov	r0, r5
 1108 045e FFF7FEFF 		bl	chThdSleepUntilWindowed
 1109              	.LVL111:
 1110              		.loc 2 290 5 view .LVU281
 1111              		.loc 2 111 10 view .LVU282
 1112 0462 F9E5     		b	.L9
 1113              	.LVL112:
 1114              	.L19:
 1115              		.loc 2 241 5 view .LVU283
 1116 0464 FFF7FEFF 		bl	imu_stop
 1117              	.LVL113:
 1118              		.loc 2 242 5 view .LVU284
 1119 0468 FFF7FEFF 		bl	VL53L0X_stop
 1120              	.LVL114:
 1121              		.loc 2 243 5 view .LVU285
 1122 046c FFF7FEFF 		bl	i2c_stop
 1123              	.LVL115:
 1124              		.loc 2 244 5 view .LVU286
 1125              		.loc 2 245 5 view .LVU287
 1126              		.loc 2 111 10 view .LVU288
 1127 0470 25E6     		b	.L8
 1128              	.LVL116:
 1129              	.L20:
 1130              		.loc 2 236 5 view .LVU289
 1131 0472 FFF7FEFF 		bl	run_asercom
 1132              	.LVL117:
ARM GAS  /tmp/ccawpEV3.s 			page 22


 1133              		.loc 2 237 5 view .LVU290
 1134              		.loc 2 238 5 view .LVU291
 1135              		.loc 2 111 10 view .LVU292
 1136 0476 22E6     		b	.L8
 1137              	.LVL118:
 1138              	.L22:
 1139              		.loc 2 224 5 view .LVU293
 1140 0478 3F48     		ldr	r0, .L98+4
 1141 047a FFF7FEFF 		bl	communication_start
 1142              	.LVL119:
 1143              	.L43:
 1144              		.loc 2 225 6 discriminator 1 view .LVU294
 1145              		.loc 2 226 12 discriminator 1 view .LVU295
 1146 047e 4FF47A70 		mov	r0, #1000
 1147 0482 FFF7FEFF 		bl	chThdSleep
 1148              	.LVL120:
 1149              		.loc 2 225 12 discriminator 1 view .LVU296
 1150 0486 FAE7     		b	.L43
 1151              	.LVL121:
 1152              	.L60:
 1153              		.loc 2 114 10 is_stmt 0 view .LVU297
 1154 0488 0126     		movs	r6, #1
 1155              	.LVL122:
 1156              	.L23:
 1157              		.loc 2 215 5 is_stmt 1 view .LVU298
 1158              	.LBB123:
 1159              	.LBI123:
 1160              		.file 8 ".//ChibiOS//os/rt/include/chqueues.h"
 1161              		.loc 8 424 21 view .LVU299
 1162              	.LBB124:
 1163              		.loc 8 426 3 view .LVU300
 1164              		.loc 8 426 10 is_stmt 0 view .LVU301
 1165 048a 4FF0FF32 		mov	r2, #-1
 1166 048e 6321     		movs	r1, #99
 1167 0490 4848     		ldr	r0, .L98+64
 1168              	.LVL123:
 1169              		.loc 8 426 10 view .LVU302
 1170 0492 FFF7FEFF 		bl	chOQPutTimeout
 1171              	.LVL124:
 1172              		.loc 8 426 10 view .LVU303
 1173              	.LBE124:
 1174              	.LBE123:
 1175              		.loc 2 216 5 is_stmt 1 view .LVU304
 1176              		.loc 2 216 11 is_stmt 0 view .LVU305
 1177 0496 4848     		ldr	r0, .L98+68
 1178 0498 3223     		movs	r3, #50
 1179 049a 0122     		movs	r2, #1
 1180 049c 0DF13F01 		add	r1, sp, #63
 1181 04a0 FFF7FEFF 		bl	chIQReadTimeout
 1182              	.LVL125:
 1183              		.loc 2 217 5 is_stmt 1 view .LVU306
 1184              		.loc 2 217 7 is_stmt 0 view .LVU307
 1185 04a4 00B2     		sxth	r0, r0
 1186              		.loc 2 217 7 view .LVU308
 1187 04a6 0028     		cmp	r0, #0
 1188 04a8 D6DD     		ble	.L48
 1189              		.loc 2 218 6 is_stmt 1 view .LVU309
ARM GAS  /tmp/ccawpEV3.s 			page 23


 1190              	.LVL126:
 1191              	.LBB125:
 1192              	.LBI125:
 1193              		.loc 8 424 21 view .LVU310
 1194              	.LBB126:
 1195              		.loc 8 426 3 view .LVU311
 1196              		.loc 8 426 10 is_stmt 0 view .LVU312
 1197 04aa 9DF83F10 		ldrb	r1, [sp, #63]	@ zero_extendqisi2
 1198 04ae 4348     		ldr	r0, .L98+72
 1199              	.LVL127:
 1200              		.loc 8 426 10 view .LVU313
 1201 04b0 4FF0FF32 		mov	r2, #-1
 1202 04b4 FFF7FEFF 		bl	chOQPutTimeout
 1203              	.LVL128:
 1204              		.loc 8 426 10 view .LVU314
 1205              	.LBE126:
 1206              	.LBE125:
 1207              		.loc 2 289 5 is_stmt 1 view .LVU315
 1208 04b8 05F10A01 		add	r1, r5, #10
 1209 04bc 2846     		mov	r0, r5
 1210 04be FFF7FEFF 		bl	chThdSleepUntilWindowed
 1211              	.LVL129:
 1212              		.loc 2 290 5 view .LVU316
 1213              		.loc 2 111 10 view .LVU317
 1214 04c2 C9E5     		b	.L9
 1215              	.LVL130:
 1216              	.L83:
 1217              	.LBB127:
 1218              	.LBB115:
 1219              	.LBB106:
 1220              	.LBB101:
 1221              		.loc 5 367 3 view .LVU318
 1222 04c4 3E48     		ldr	r0, .L98+76
 1223 04c6 FFF7FEFF 		bl	chSysHalt
 1224              	.LVL131:
 1225 04ca DDE5     		b	.L11
 1226              	.LVL132:
 1227              	.L24:
 1228              		.loc 5 367 3 is_stmt 0 view .LVU319
 1229              	.LBE101:
 1230              	.LBE106:
 1231              	.LBE115:
 1232              	.LBE127:
 1233              		.loc 2 192 5 is_stmt 1 view .LVU320
 1234 04cc 002E     		cmp	r6, #0
 1235 04ce 40F04F81 		bne	.L34
 1236              		.loc 2 194 7 view .LVU321
 1237 04d2 9622     		movs	r2, #150
 1238 04d4 0C21     		movs	r1, #12
 1239 04d6 2020     		movs	r0, #32
 1240 04d8 FFF7FEFF 		bl	write_reg
 1241              	.LVL133:
 1242              		.loc 2 195 7 view .LVU322
 1243              		.loc 2 195 21 is_stmt 0 view .LVU323
 1244 04dc 44AA     		add	r2, sp, #272
 1245 04de 0C21     		movs	r1, #12
 1246 04e0 2020     		movs	r0, #32
ARM GAS  /tmp/ccawpEV3.s 			page 24


 1247 04e2 FFF7FEFF 		bl	read_reg
 1248              	.LVL134:
 1249              		.loc 2 195 9 view .LVU324
 1250 04e6 0028     		cmp	r0, #0
 1251 04e8 00F05981 		beq	.L91
 1252              	.LVL135:
 1253              	.L39:
 1254              		.loc 2 198 7 is_stmt 1 view .LVU325
 1255 04ec 0022     		movs	r2, #0
 1256 04ee 1121     		movs	r1, #17
 1257 04f0 2020     		movs	r0, #32
 1258 04f2 FFF7FEFF 		bl	write_reg
 1259              	.LVL136:
 1260              		.loc 2 199 7 view .LVU326
 1261              		.loc 2 199 21 is_stmt 0 view .LVU327
 1262 04f6 44AA     		add	r2, sp, #272
 1263 04f8 0C21     		movs	r1, #12
 1264 04fa 2020     		movs	r0, #32
 1265 04fc FFF7FEFF 		bl	read_reg
 1266              	.LVL137:
 1267              		.loc 2 199 9 view .LVU328
 1268 0500 0028     		cmp	r0, #0
 1269 0502 00F04581 		beq	.L92
 1270              	.LVL138:
 1271              	.L40:
 1272              		.loc 2 202 7 is_stmt 1 view .LVU329
 1273 0506 0022     		movs	r2, #0
 1274 0508 1021     		movs	r1, #16
 1275 050a 2020     		movs	r0, #32
 1276 050c FFF7FEFF 		bl	write_reg
 1277              	.LVL139:
 1278              		.loc 2 203 7 view .LVU330
 1279              		.loc 2 204 7 view .LVU331
 1280 0510 FBE0     		b	.L41
 1281              	.LVL140:
 1282              	.L25:
 1283              		.loc 2 151 5 view .LVU332
 1284 0512 002E     		cmp	r6, #0
 1285 0514 40F0EE80 		bne	.L31
 1286              		.loc 2 153 7 view .LVU333
 1287 0518 9622     		movs	r2, #150
 1288 051a 0C21     		movs	r1, #12
 1289 051c 2020     		movs	r0, #32
 1290 051e FFF7FEFF 		bl	write_reg
 1291              	.LVL141:
 1292              		.loc 2 154 7 view .LVU334
 1293 0522 0022     		movs	r2, #0
 1294 0524 1121     		movs	r1, #17
 1295 0526 2020     		movs	r0, #32
 1296 0528 FFF7FEFF 		bl	write_reg
 1297              	.LVL142:
 1298              		.loc 2 155 7 view .LVU335
 1299 052c 0022     		movs	r2, #0
 1300 052e 1021     		movs	r1, #16
 1301 0530 2020     		movs	r0, #32
 1302 0532 FFF7FEFF 		bl	write_reg
 1303              	.LVL143:
ARM GAS  /tmp/ccawpEV3.s 			page 25


 1304              		.loc 2 156 7 view .LVU336
 1305              		.loc 2 157 7 view .LVU337
 1306              		.loc 2 188 5 view .LVU338
 1307 0536 05F11401 		add	r1, r5, #20
 1308 053a 2846     		mov	r0, r5
 1309 053c FFF7FEFF 		bl	chThdSleepUntilWindowed
 1310              	.LVL144:
 1311              		.loc 2 189 5 view .LVU339
 1312              		.loc 2 111 10 view .LVU340
 1313              		.loc 2 112 6 view .LVU341
 1314              	.LBB128:
 1315              		.loc 4 247 25 view .LVU342
 1316              	.LBB116:
 1317              		.loc 4 248 3 view .LVU343
 1318              		.loc 4 250 3 view .LVU344
 1319              	.LBB107:
 1320              		.loc 5 346 20 view .LVU345
 1321              	.LBB81:
 1322              		.loc 5 348 3 view .LVU346
 1323              	.LBB78:
 1324              		.loc 6 444 20 view .LVU347
 1325              	.LBE78:
 1326              	.LBE81:
 1327              	.LBE107:
 1328              	.LBE116:
 1329              	.LBE128:
 1330              		.loc 6 447 3 view .LVU348
 1331              	.LBB129:
 1332              	.LBB117:
 1333              	.LBB108:
 1334              	.LBB82:
 1335              	.LBB79:
 1336              	.LBB76:
 1337              		.loc 7 544 57 view .LVU349
 1338              	.LBB75:
 1339              		.loc 7 546 3 view .LVU350
 1340 0540 2023     		movs	r3, #32
 1341              		.syntax unified
 1342              	@ 546 ".//ChibiOS//os/ext/CMSIS/include/core_cmFunc.h" 1
 1343 0542 83F31188 		MSR basepri, r3
 1344              	@ 0 "" 2
 1345              	.LVL145:
 1346              		.loc 7 546 3 is_stmt 0 view .LVU351
 1347              		.thumb
 1348              		.syntax unified
 1349              	.LBE75:
 1350              	.LBE76:
 1351              	.LBE79:
 1352              		.loc 5 349 3 is_stmt 1 view .LVU352
 1353 0546 FFF7FEFF 		bl	_stats_start_measure_crit_thd
 1354              	.LVL146:
 1355              		.loc 5 350 3 view .LVU353
 1356 054a FFF7FEFF 		bl	_dbg_check_lock
 1357              	.LVL147:
 1358              	.LBE82:
 1359              	.LBE108:
 1360              		.loc 4 251 3 view .LVU354
ARM GAS  /tmp/ccawpEV3.s 			page 26


 1361              	.LBB109:
 1362              		.loc 4 228 25 view .LVU355
 1363              	.LBB86:
 1364              		.loc 4 231 3 view .LVU356
 1365              		.loc 4 231 19 is_stmt 0 view .LVU357
 1366 054e DAF82850 		ldr	r5, [r10, #40]
 1367              	.LVL148:
 1368              		.loc 4 231 19 view .LVU358
 1369              	.LBE86:
 1370              	.LBE109:
 1371              		.loc 4 252 3 is_stmt 1 view .LVU359
 1372              	.LBB110:
 1373              		.loc 5 358 20 view .LVU360
 1374              	.LBB102:
 1375              		.loc 5 360 3 view .LVU361
 1376 0552 FFF7FEFF 		bl	_dbg_check_unlock
 1377              	.LVL149:
 1378              		.loc 5 361 3 view .LVU362
 1379 0556 FFF7FEFF 		bl	_stats_stop_measure_crit_thd
 1380              	.LVL150:
 1381              		.loc 5 367 3 view .LVU363
 1382              		.loc 5 367 3 view .LVU364
 1383              		.loc 5 367 3 view .LVU365
 1384 055a DAF80030 		ldr	r3, [r10]
 1385 055e 5345     		cmp	r3, r10
 1386 0560 06D0     		beq	.L57
 1387 0562 DAF81820 		ldr	r2, [r10, #24]
 1388 0566 9B68     		ldr	r3, [r3, #8]
 1389 0568 9268     		ldr	r2, [r2, #8]
 1390 056a 9A42     		cmp	r2, r3
 1391 056c C0F09B81 		bcc	.L93
 1392              	.L57:
 1393 0570 0126     		movs	r6, #1
 1394 0572 8AE5     		b	.L12
 1395              	.L99:
 1396              		.align	2
 1397              	.L98:
 1398 0574 ABAAAAAA 		.word	-1431655765
 1399 0578 00000000 		.word	SDU1
 1400 057c 78000000 		.word	.LC10
 1401 0580 80000000 		.word	.LC11
 1402 0584 B4000000 		.word	.LC12
 1403 0588 C0000000 		.word	.LC13
 1404 058c C8000000 		.word	.LC14
 1405 0590 D8000000 		.word	.LC15
 1406 0594 08010000 		.word	.LC16
 1407 0598 14010000 		.word	.LC17
 1408 059c 38010000 		.word	.LC18
 1409 05a0 44010000 		.word	.LC19
 1410 05a4 54010000 		.word	.LC20
 1411 05a8 68010000 		.word	.LC21
 1412 05ac 7C010000 		.word	.LC22
 1413 05b0 88010000 		.word	.LC23
 1414 05b4 30000000 		.word	SD3+48
 1415 05b8 0C000000 		.word	SD3+12
 1416 05bc 30000000 		.word	SDU1+48
 1417 05c0 00000000 		.word	.LANCHOR2
ARM GAS  /tmp/ccawpEV3.s 			page 27


 1418              	.LVL151:
 1419              	.L45:
 1420              		.loc 5 367 3 is_stmt 0 view .LVU366
 1421              	.LBE102:
 1422              	.LBE110:
 1423              	.LBE117:
 1424              	.LBE129:
 1425              		.loc 2 268 7 is_stmt 1 view .LVU367
 1426 05c4 0022     		movs	r2, #0
 1427 05c6 1146     		mov	r1, r2
 1428 05c8 1046     		mov	r0, r2
 1429 05ca 0A23     		movs	r3, #10
 1430 05cc FFF7FEFF 		bl	set_rgb_led
 1431              	.LVL152:
 1432              		.loc 2 269 7 view .LVU368
 1433 05d0 0022     		movs	r2, #0
 1434 05d2 1146     		mov	r1, r2
 1435 05d4 0A23     		movs	r3, #10
 1436 05d6 0120     		movs	r0, #1
 1437 05d8 FFF7FEFF 		bl	set_rgb_led
 1438              	.LVL153:
 1439              		.loc 2 270 7 view .LVU369
 1440 05dc 0022     		movs	r2, #0
 1441 05de 1146     		mov	r1, r2
 1442 05e0 2046     		mov	r0, r4
 1443 05e2 0A23     		movs	r3, #10
 1444 05e4 FFF7FEFF 		bl	set_rgb_led
 1445              	.LVL154:
 1446              		.loc 2 271 7 view .LVU370
 1447 05e8 0022     		movs	r2, #0
 1448 05ea 1146     		mov	r1, r2
 1449 05ec 0A23     		movs	r3, #10
 1450 05ee 0320     		movs	r0, #3
 1451 05f0 FFF7FEFF 		bl	set_rgb_led
 1452              	.LVL155:
 1453              		.loc 2 272 7 view .LVU371
 1454 05f4 21E7     		b	.L46
 1455              	.LVL156:
 1456              	.L86:
 1457              		.loc 2 296 7 view .LVU372
 1458 05f6 FFF7FEFF 		bl	calibrate_ir
 1459              	.LVL157:
 1460              		.loc 2 299 7 view .LVU373
 1461 05fa 5A46     		mov	r2, fp
 1462 05fc 5946     		mov	r1, fp
 1463 05fe 0320     		movs	r0, #3
 1464 0600 FFF7FEFF 		bl	playMelody
 1465              	.LVL158:
 1466              		.loc 2 302 7 view .LVU374
 1467 0604 9620     		movs	r0, #150
 1468 0606 FFF7FEFF 		bl	left_motor_set_speed
 1469              	.LVL159:
 1470              		.loc 2 303 7 view .LVU375
 1471 060a 9620     		movs	r0, #150
 1472 060c FFF7FEFF 		bl	right_motor_set_speed
 1473              	.LVL160:
 1474              		.loc 2 306 7 view .LVU376
ARM GAS  /tmp/ccawpEV3.s 			page 28


 1475 0610 A023     		movs	r3, #160
 1476 0612 8022     		movs	r2, #128
 1477 0614 0093     		str	r3, [sp]
 1478 0616 F021     		movs	r1, #240
 1479 0618 CDE90122 		strd	r2, r2, [sp, #4]
 1480 061c 3020     		movs	r0, #48
 1481 061e 1A46     		mov	r2, r3
 1482 0620 FFF7FEFF 		bl	po8030_advanced_config
 1483              	.LVL161:
 1484              		.loc 2 307 7 view .LVU377
 1485 0624 FFF7FEFF 		bl	dcmi_disable_double_buffering
 1486              	.LVL162:
 1487              		.loc 2 308 7 view .LVU378
 1488 0628 5846     		mov	r0, fp
 1489 062a FFF7FEFF 		bl	dcmi_set_capture_mode
 1490              	.LVL163:
 1491              		.loc 2 309 7 view .LVU379
 1492 062e FFF7FEFF 		bl	dcmi_prepare
 1493              	.LVL164:
 1494              		.loc 2 312 7 view .LVU380
 1495 0632 FFF7FEFF 		bl	calibrate_acc
 1496              	.LVL165:
 1497              		.loc 2 313 7 view .LVU381
 1498 0636 FFF7FEFF 		bl	calibrate_gyro
 1499              	.LVL166:
 1500              		.loc 2 316 7 view .LVU382
 1501 063a 0120     		movs	r0, #1
 1502 063c FFF7FEFF 		bl	set_body_led
 1503              	.LVL167:
 1504              		.loc 2 317 7 view .LVU383
 1505 0640 0120     		movs	r0, #1
 1506 0642 FFF7FEFF 		bl	set_front_led
 1507              	.LVL168:
 1508              		.loc 2 318 7 view .LVU384
 1509 0646 0121     		movs	r1, #1
 1510 0648 0420     		movs	r0, #4
 1511 064a FFF7FEFF 		bl	set_led
 1512              	.LVL169:
 1513              		.loc 2 319 7 view .LVU385
 1514 064e 5B46     		mov	r3, fp
 1515 0650 5A46     		mov	r2, fp
 1516 0652 5846     		mov	r0, fp
 1517 0654 0A21     		movs	r1, #10
 1518 0656 FFF7FEFF 		bl	set_rgb_led
 1519              	.LVL170:
 1520              		.loc 2 320 7 view .LVU386
 1521 065a 5B46     		mov	r3, fp
 1522 065c 5A46     		mov	r2, fp
 1523 065e 0A21     		movs	r1, #10
 1524 0660 0120     		movs	r0, #1
 1525 0662 FFF7FEFF 		bl	set_rgb_led
 1526              	.LVL171:
 1527              		.loc 2 321 7 view .LVU387
 1528 0666 5B46     		mov	r3, fp
 1529 0668 5A46     		mov	r2, fp
 1530 066a 0A21     		movs	r1, #10
 1531 066c 0220     		movs	r0, #2
ARM GAS  /tmp/ccawpEV3.s 			page 29


 1532 066e FFF7FEFF 		bl	set_rgb_led
 1533              	.LVL172:
 1534              		.loc 2 322 7 view .LVU388
 1535 0672 5B46     		mov	r3, fp
 1536 0674 5A46     		mov	r2, fp
 1537 0676 0A21     		movs	r1, #10
 1538 0678 0320     		movs	r0, #3
 1539 067a FFF7FEFF 		bl	set_rgb_led
 1540              	.LVL173:
 1541              		.loc 2 324 7 view .LVU389
 1542              		.loc 2 325 7 view .LVU390
 1543              		.loc 2 111 10 view .LVU391
 1544              		.loc 2 324 21 is_stmt 0 view .LVU392
 1545 067e 4FF0010B 		mov	fp, #1
 1546 0682 E9E4     		b	.L9
 1547              	.LVL174:
 1548              	.L44:
 1549              		.loc 2 262 7 is_stmt 1 view .LVU393
 1550 0684 0023     		movs	r3, #0
 1551 0686 1946     		mov	r1, r3
 1552 0688 1846     		mov	r0, r3
 1553 068a 0A22     		movs	r2, #10
 1554 068c FFF7FEFF 		bl	set_rgb_led
 1555              	.LVL175:
 1556              		.loc 2 263 7 view .LVU394
 1557 0690 0023     		movs	r3, #0
 1558 0692 1946     		mov	r1, r3
 1559 0694 2046     		mov	r0, r4
 1560 0696 0A22     		movs	r2, #10
 1561 0698 FFF7FEFF 		bl	set_rgb_led
 1562              	.LVL176:
 1563              		.loc 2 264 7 view .LVU395
 1564 069c 0023     		movs	r3, #0
 1565 069e 1946     		mov	r1, r3
 1566 06a0 0A22     		movs	r2, #10
 1567 06a2 0220     		movs	r0, #2
 1568 06a4 FFF7FEFF 		bl	set_rgb_led
 1569              	.LVL177:
 1570              		.loc 2 265 7 view .LVU396
 1571 06a8 0023     		movs	r3, #0
 1572 06aa 1946     		mov	r1, r3
 1573 06ac 0A22     		movs	r2, #10
 1574 06ae 0320     		movs	r0, #3
 1575 06b0 FFF7FEFF 		bl	set_rgb_led
 1576              	.LVL178:
 1577              		.loc 2 266 7 view .LVU397
 1578 06b4 C1E6     		b	.L46
 1579              	.LVL179:
 1580              	.L90:
 1581              		.loc 2 284 6 view .LVU398
 1582              		.loc 2 285 6 view .LVU399
 1583              		.loc 2 285 34 is_stmt 0 view .LVU400
 1584 06b6 089A     		ldr	r2, [sp, #32]
 1585              		.loc 2 285 37 view .LVU401
 1586 06b8 B149     		ldr	r1, .L100+16
 1587              		.loc 2 285 34 view .LVU402
 1588 06ba 0132     		adds	r2, r2, #1
ARM GAS  /tmp/ccawpEV3.s 			page 30


 1589              		.loc 2 285 37 view .LVU403
 1590 06bc 5308     		lsrs	r3, r2, #1
 1591 06be A1FB0313 		umull	r1, r3, r1, r3
 1592 06c2 9B08     		lsrs	r3, r3, #2
 1593 06c4 C3EBC303 		rsb	r3, r3, r3, lsl #3
 1594 06c8 A2EB4303 		sub	r3, r2, r3, lsl #1
 1595              		.loc 2 286 6 view .LVU404
 1596 06cc 0022     		movs	r2, #0
 1597 06ce D8B2     		uxtb	r0, r3
 1598 06d0 1146     		mov	r1, r2
 1599              		.loc 2 285 19 view .LVU405
 1600 06d2 9BB2     		uxth	r3, r3
 1601 06d4 0893     		str	r3, [sp, #32]
 1602              	.LVL180:
 1603              		.loc 2 286 6 is_stmt 1 view .LVU406
 1604 06d6 FFF7FEFF 		bl	playMelody
 1605              	.LVL181:
 1606              		.loc 2 284 21 is_stmt 0 view .LVU407
 1607 06da 0023     		movs	r3, #0
 1608              		.loc 2 289 5 view .LVU408
 1609 06dc 05F10A01 		add	r1, r5, #10
 1610 06e0 2846     		mov	r0, r5
 1611              		.loc 2 284 21 view .LVU409
 1612 06e2 0793     		str	r3, [sp, #28]
 1613              	.LVL182:
 1614              		.loc 2 289 5 is_stmt 1 view .LVU410
 1615 06e4 FFF7FEFF 		bl	chThdSleepUntilWindowed
 1616              	.LVL183:
 1617              		.loc 2 290 5 view .LVU411
 1618              		.loc 2 111 10 view .LVU412
 1619 06e8 B6E4     		b	.L9
 1620              	.LVL184:
 1621              	.L85:
 1622              		.loc 2 414 7 view .LVU413
 1623 06ea FFF7FEFF 		bl	mpu9250_magnetometer_setup
 1624              	.LVL185:
 1625              		.loc 2 415 7 view .LVU414
 1626              		.loc 2 416 7 view .LVU415
 1627              		.loc 2 111 10 view .LVU416
 1628              		.loc 2 415 21 is_stmt 0 view .LVU417
 1629 06ee 0123     		movs	r3, #1
 1630 06f0 0993     		str	r3, [sp, #36]
 1631 06f2 B1E4     		b	.L9
 1632              	.LVL186:
 1633              	.L31:
 1634              		.loc 2 160 10 is_stmt 1 view .LVU418
 1635              		.loc 2 160 24 is_stmt 0 view .LVU419
 1636 06f4 44AA     		add	r2, sp, #272
 1637 06f6 0021     		movs	r1, #0
 1638 06f8 2020     		movs	r0, #32
 1639 06fa FFF7FEFF 		bl	read_reg
 1640              	.LVL187:
 1641              		.loc 2 160 12 view .LVU420
 1642 06fe 0028     		cmp	r0, #0
 1643 0700 41D1     		bne	.L94
 1644              		.loc 2 164 10 is_stmt 1 view .LVU421
 1645              		.loc 2 164 12 is_stmt 0 view .LVU422
ARM GAS  /tmp/ccawpEV3.s 			page 31


 1646 0702 9DF81031 		ldrb	r3, [sp, #272]	@ zero_extendqisi2
 1647 0706 002B     		cmp	r3, #0
 1648 0708 69D1     		bne	.L95
 1649              	.LVL188:
 1650              	.L41:
 1651              		.loc 2 211 5 is_stmt 1 view .LVU423
 1652 070a 05F11401 		add	r1, r5, #20
 1653 070e 2846     		mov	r0, r5
 1654 0710 FFF7FEFF 		bl	chThdSleepUntilWindowed
 1655              	.LVL189:
 1656              		.loc 2 212 5 view .LVU424
 1657              		.loc 2 111 10 view .LVU425
 1658              		.loc 2 211 5 is_stmt 0 view .LVU426
 1659 0714 0126     		movs	r6, #1
 1660 0716 9FE4     		b	.L9
 1661              	.LVL190:
 1662              	.L88:
 1663              		.loc 2 256 7 is_stmt 1 view .LVU427
 1664 0718 2346     		mov	r3, r4
 1665 071a 2246     		mov	r2, r4
 1666 071c 2046     		mov	r0, r4
 1667 071e 0A21     		movs	r1, #10
 1668 0720 FFF7FEFF 		bl	set_rgb_led
 1669              	.LVL191:
 1670              		.loc 2 257 7 view .LVU428
 1671 0724 2346     		mov	r3, r4
 1672 0726 2246     		mov	r2, r4
 1673 0728 0A21     		movs	r1, #10
 1674 072a 0120     		movs	r0, #1
 1675 072c FFF7FEFF 		bl	set_rgb_led
 1676              	.LVL192:
 1677              		.loc 2 258 7 view .LVU429
 1678 0730 2346     		mov	r3, r4
 1679 0732 2246     		mov	r2, r4
 1680 0734 0A21     		movs	r1, #10
 1681 0736 0220     		movs	r0, #2
 1682 0738 FFF7FEFF 		bl	set_rgb_led
 1683              	.LVL193:
 1684              		.loc 2 259 7 view .LVU430
 1685 073c 2346     		mov	r3, r4
 1686 073e 2246     		mov	r2, r4
 1687 0740 0A21     		movs	r1, #10
 1688 0742 0320     		movs	r0, #3
 1689 0744 FFF7FEFF 		bl	set_rgb_led
 1690              	.LVL194:
 1691              		.loc 2 260 7 view .LVU431
 1692 0748 77E6     		b	.L46
 1693              	.LVL195:
 1694              	.L89:
 1695              		.loc 2 276 6 view .LVU432
 1696              		.loc 2 277 6 view .LVU433
 1697              		.loc 2 277 31 is_stmt 0 view .LVU434
 1698 074a 8E4B     		ldr	r3, .L100+20
 1699              		.loc 2 277 28 view .LVU435
 1700 074c 0134     		adds	r4, r4, #1
 1701              		.loc 2 277 31 view .LVU436
 1702 074e A3FB0423 		umull	r2, r3, r3, r4
ARM GAS  /tmp/ccawpEV3.s 			page 32


 1703 0752 23F00102 		bic	r2, r3, #1
 1704 0756 02EB5303 		add	r3, r2, r3, lsr #1
 1705              		.loc 2 278 6 view .LVU437
 1706 075a 0220     		movs	r0, #2
 1707              		.loc 2 277 31 view .LVU438
 1708 075c E41A     		subs	r4, r4, r3
 1709              		.loc 2 278 6 view .LVU439
 1710 075e FFF7FEFF 		bl	set_body_led
 1711              	.LVL196:
 1712              		.loc 2 279 6 view .LVU440
 1713 0762 0220     		movs	r0, #2
 1714 0764 FFF7FEFF 		bl	set_front_led
 1715              	.LVL197:
 1716              		.loc 2 276 18 view .LVU441
 1717 0768 0023     		movs	r3, #0
 1718              		.loc 2 277 16 view .LVU442
 1719 076a E4B2     		uxtb	r4, r4
 1720              	.LVL198:
 1721              		.loc 2 278 6 is_stmt 1 view .LVU443
 1722              		.loc 2 279 6 view .LVU444
 1723              		.loc 2 276 18 is_stmt 0 view .LVU445
 1724 076c 0693     		str	r3, [sp, #24]
 1725 076e 6BE6     		b	.L47
 1726              	.LVL199:
 1727              	.L34:
 1728              		.loc 2 207 7 is_stmt 1 view .LVU446
 1729 0770 AA22     		movs	r2, #170
 1730 0772 0D21     		movs	r1, #13
 1731 0774 2020     		movs	r0, #32
 1732 0776 FFF7FEFF 		bl	write_reg
 1733              	.LVL200:
 1734              		.loc 2 208 7 view .LVU447
 1735 077a FF22     		movs	r2, #255
 1736 077c 0E21     		movs	r1, #14
 1737 077e 2020     		movs	r0, #32
 1738 0780 FFF7FEFF 		bl	write_reg
 1739              	.LVL201:
 1740              		.loc 2 209 7 view .LVU448
 1741 0784 C1E7     		b	.L41
 1742              	.LVL202:
 1743              	.L94:
 1744              		.loc 2 161 11 view .LVU449
 1745 0786 8049     		ldr	r1, .L100+24
 1746 0788 8048     		ldr	r0, .L100+28
 1747              	.LVL203:
 1748              		.loc 2 161 11 is_stmt 0 view .LVU450
 1749 078a FFF7FEFF 		bl	chprintf
 1750              	.LVL204:
 1751              		.loc 2 162 14 is_stmt 1 view .LVU451
 1752 078e BCE7     		b	.L41
 1753              	.LVL205:
 1754              	.L92:
 1755              		.loc 2 200 8 view .LVU452
 1756 0790 9DF81021 		ldrb	r2, [sp, #272]	@ zero_extendqisi2
 1757 0794 7E49     		ldr	r1, .L100+32
 1758 0796 7D48     		ldr	r0, .L100+28
 1759              	.LVL206:
ARM GAS  /tmp/ccawpEV3.s 			page 33


 1760              		.loc 2 200 8 is_stmt 0 view .LVU453
 1761 0798 FFF7FEFF 		bl	chprintf
 1762              	.LVL207:
 1763 079c B3E6     		b	.L40
 1764              	.LVL208:
 1765              	.L91:
 1766              		.loc 2 196 8 is_stmt 1 view .LVU454
 1767 079e 9DF81021 		ldrb	r2, [sp, #272]	@ zero_extendqisi2
 1768 07a2 7C49     		ldr	r1, .L100+36
 1769 07a4 7948     		ldr	r0, .L100+28
 1770              	.LVL209:
 1771              		.loc 2 196 8 is_stmt 0 view .LVU455
 1772 07a6 FFF7FEFF 		bl	chprintf
 1773              	.LVL210:
 1774 07aa 9FE6     		b	.L39
 1775              	.L50:
 1776              		.loc 2 338 9 is_stmt 1 view .LVU456
 1777 07ac 0023     		movs	r3, #0
 1778 07ae 1946     		mov	r1, r3
 1779 07b0 1846     		mov	r0, r3
 1780 07b2 0A22     		movs	r2, #10
 1781 07b4 FFF7FEFF 		bl	set_rgb_led
 1782              	.LVL211:
 1783              		.loc 2 339 9 view .LVU457
 1784 07b8 0023     		movs	r3, #0
 1785 07ba 1946     		mov	r1, r3
 1786 07bc 2046     		mov	r0, r4
 1787 07be 0A22     		movs	r2, #10
 1788 07c0 FFF7FEFF 		bl	set_rgb_led
 1789              	.LVL212:
 1790              		.loc 2 340 9 view .LVU458
 1791 07c4 0023     		movs	r3, #0
 1792 07c6 1946     		mov	r1, r3
 1793 07c8 0A22     		movs	r2, #10
 1794 07ca 0220     		movs	r0, #2
 1795 07cc FFF7FEFF 		bl	set_rgb_led
 1796              	.LVL213:
 1797              		.loc 2 341 9 view .LVU459
 1798 07d0 0023     		movs	r3, #0
 1799 07d2 1946     		mov	r1, r3
 1800 07d4 0A22     		movs	r2, #10
 1801 07d6 0320     		movs	r0, #3
 1802 07d8 FFF7FEFF 		bl	set_rgb_led
 1803              	.LVL214:
 1804              		.loc 2 342 9 view .LVU460
 1805 07dc 33E5     		b	.L52
 1806              	.LVL215:
 1807              	.L95:
 1808              		.loc 2 165 11 view .LVU461
 1809 07de 44AA     		add	r2, sp, #272
 1810 07e0 0121     		movs	r1, #1
 1811 07e2 2020     		movs	r0, #32
 1812              	.LVL216:
 1813              		.loc 2 165 11 is_stmt 0 view .LVU462
 1814 07e4 FFF7FEFF 		bl	read_reg
 1815              	.LVL217:
 1816              		.loc 2 166 8 is_stmt 1 view .LVU463
ARM GAS  /tmp/ccawpEV3.s 			page 34


 1817 07e8 0DF21112 		addw	r2, sp, #273
 1818 07ec 0221     		movs	r1, #2
 1819 07ee 2020     		movs	r0, #32
 1820 07f0 FFF7FEFF 		bl	read_reg
 1821              	.LVL218:
 1822              		.loc 2 167 8 view .LVU464
 1823              		.loc 2 167 39 is_stmt 0 view .LVU465
 1824 07f4 9DF81031 		ldrb	r3, [sp, #272]	@ zero_extendqisi2
 1825 07f8 0A93     		str	r3, [sp, #40]
 1826              		.loc 2 169 11 view .LVU466
 1827 07fa 44AA     		add	r2, sp, #272
 1828 07fc 0321     		movs	r1, #3
 1829 07fe 2020     		movs	r0, #32
 1830              		.loc 2 167 58 view .LVU467
 1831 0800 9DF81161 		ldrb	r6, [sp, #273]	@ zero_extendqisi2
 1832              	.LVL219:
 1833              		.loc 2 169 11 is_stmt 1 view .LVU468
 1834              		.loc 2 180 16 is_stmt 0 view .LVU469
 1835 0804 614F     		ldr	r7, .L100+28
 1836              		.loc 2 169 11 view .LVU470
 1837 0806 FFF7FEFF 		bl	read_reg
 1838              	.LVL220:
 1839              		.loc 2 170 8 is_stmt 1 view .LVU471
 1840 080a 0DF21112 		addw	r2, sp, #273
 1841 080e 0421     		movs	r1, #4
 1842 0810 2020     		movs	r0, #32
 1843 0812 FFF7FEFF 		bl	read_reg
 1844              	.LVL221:
 1845              		.loc 2 171 8 view .LVU472
 1846              		.loc 2 171 71 is_stmt 0 view .LVU473
 1847 0816 9DF81131 		ldrb	r3, [sp, #273]	@ zero_extendqisi2
 1848 081a 0D93     		str	r3, [sp, #52]
 1849              		.loc 2 173 11 view .LVU474
 1850 081c 44AA     		add	r2, sp, #272
 1851 081e 0521     		movs	r1, #5
 1852 0820 2020     		movs	r0, #32
 1853              		.loc 2 171 52 view .LVU475
 1854 0822 9DF81081 		ldrb	r8, [sp, #272]	@ zero_extendqisi2
 1855              	.LVL222:
 1856              		.loc 2 173 11 is_stmt 1 view .LVU476
 1857 0826 FFF7FEFF 		bl	read_reg
 1858              	.LVL223:
 1859              		.loc 2 174 8 view .LVU477
 1860 082a 0DF21112 		addw	r2, sp, #273
 1861 082e 0621     		movs	r1, #6
 1862 0830 2020     		movs	r0, #32
 1863 0832 FFF7FEFF 		bl	read_reg
 1864              	.LVL224:
 1865              		.loc 2 175 8 view .LVU478
 1866              		.loc 2 175 59 is_stmt 0 view .LVU479
 1867 0836 9DF81131 		ldrb	r3, [sp, #273]	@ zero_extendqisi2
 1868 083a 0C93     		str	r3, [sp, #48]
 1869              		.loc 2 177 8 view .LVU480
 1870 083c 44AA     		add	r2, sp, #272
 1871 083e 0921     		movs	r1, #9
 1872 0840 2020     		movs	r0, #32
 1873              		.loc 2 175 40 view .LVU481
ARM GAS  /tmp/ccawpEV3.s 			page 35


 1874 0842 9DF81091 		ldrb	r9, [sp, #272]	@ zero_extendqisi2
 1875              	.LVL225:
 1876              		.loc 2 177 8 is_stmt 1 view .LVU482
 1877 0846 FFF7FEFF 		bl	read_reg
 1878              	.LVL226:
 1879              		.loc 2 178 8 view .LVU483
 1880              		.loc 2 180 8 view .LVU484
 1881              		.loc 2 180 23 is_stmt 0 view .LVU485
 1882 084a D7F85422 		ldr	r2, [r7, #596]
 1883              		.loc 2 180 11 view .LVU486
 1884 084e 0D9B     		ldr	r3, [sp, #52]
 1885              		.loc 2 180 29 view .LVU487
 1886 0850 1268     		ldr	r2, [r2]
 1887              		.loc 2 180 11 view .LVU488
 1888 0852 1278     		ldrb	r2, [r2]	@ zero_extendqisi2
 1889 0854 042A     		cmp	r2, #4
 1890 0856 7FF458AF 		bne	.L41
 1891              		.loc 2 184 8 is_stmt 1 view .LVU489
 1892              		.loc 2 175 18 is_stmt 0 view .LVU490
 1893 085a 0C9A     		ldr	r2, [sp, #48]
 1894              		.loc 2 167 17 view .LVU491
 1895 085c 0A99     		ldr	r1, [sp, #40]
 1896              		.loc 2 175 18 view .LVU492
 1897 085e 02EB0922 		add	r2, r2, r9, lsl #8
 1898              		.loc 2 184 8 view .LVU493
 1899 0862 92B2     		uxth	r2, r2
 1900              		.loc 2 171 23 view .LVU494
 1901 0864 03EB0820 		add	r0, r3, r8, lsl #8
 1902              		.loc 2 184 8 view .LVU495
 1903 0868 9DF81031 		ldrb	r3, [sp, #272]	@ zero_extendqisi2
 1904 086c 0292     		str	r2, [sp, #8]
 1905 086e 0393     		str	r3, [sp, #12]
 1906              		.loc 2 167 17 view .LVU496
 1907 0870 06EB0126 		add	r6, r6, r1, lsl #8
 1908              	.LVL227:
 1909              		.loc 2 171 23 view .LVU497
 1910 0874 FFF7FEFF 		bl	__aeabi_i2d
 1911              	.LVL228:
 1912              		.loc 2 171 20 view .LVU498
 1913 0878 3DA3     		adr	r3, .L100
 1914 087a D3E90023 		ldrd	r2, [r3]
 1915 087e FFF7FEFF 		bl	__aeabi_dmul
 1916              	.LVL229:
 1917              		.loc 2 184 92 view .LVU499
 1918 0882 454B     		ldr	r3, .L100+40
 1919 0884 0022     		movs	r2, #0
 1920 0886 FFF7FEFF 		bl	__aeabi_dmul
 1921              	.LVL230:
 1922              		.loc 2 184 8 view .LVU500
 1923 088a 3BA3     		adr	r3, .L100+8
 1924 088c D3E90023 		ldrd	r2, [r3]
 1925 0890 FFF7FEFF 		bl	__aeabi_ddiv
 1926              	.LVL231:
 1927 0894 B6B2     		uxth	r6, r6
 1928 0896 CDE90001 		strd	r0, [sp]
 1929 089a 3246     		mov	r2, r6
 1930 089c 3F49     		ldr	r1, .L100+44
ARM GAS  /tmp/ccawpEV3.s 			page 36


 1931 089e 3846     		mov	r0, r7
 1932 08a0 FFF7FEFF 		bl	chprintf
 1933              	.LVL232:
 1934 08a4 31E7     		b	.L41
 1935              	.LVL233:
 1936              	.L93:
 1937              	.LBB130:
 1938              	.LBB118:
 1939              	.LBB111:
 1940              	.LBB103:
 1941              		.loc 5 367 3 is_stmt 1 view .LVU501
 1942 08a6 3E48     		ldr	r0, .L100+48
 1943 08a8 FFF7FEFF 		bl	chSysHalt
 1944              	.LVL234:
 1945              		.loc 5 367 3 view .LVU502
 1946              		.loc 5 371 3 view .LVU503
 1947              	.LBB98:
 1948              		.loc 6 458 20 view .LVU504
 1949              	.LBE98:
 1950              	.LBE103:
 1951              	.LBE111:
 1952              	.LBE118:
 1953              	.LBE130:
 1954              		.loc 6 461 3 view .LVU505
 1955              	.LBB131:
 1956              	.LBB119:
 1957              	.LBB112:
 1958              	.LBB104:
 1959              	.LBB99:
 1960              	.LBB95:
 1961              		.loc 7 544 57 view .LVU506
 1962              	.LBB93:
 1963              		.loc 7 546 3 view .LVU507
 1964 08ac 0023     		movs	r3, #0
 1965              		.syntax unified
 1966              	@ 546 ".//ChibiOS//os/ext/CMSIS/include/core_cmFunc.h" 1
 1967 08ae 83F31188 		MSR basepri, r3
 1968              	@ 0 "" 2
 1969              	.LVL235:
 1970              		.loc 7 546 3 is_stmt 0 view .LVU508
 1971              		.thumb
 1972              		.syntax unified
 1973              	.LBE93:
 1974              	.LBE95:
 1975              	.LBE99:
 1976              	.LBE104:
 1977              	.LBE112:
 1978              		.loc 4 254 3 is_stmt 1 view .LVU509
 1979              		.loc 4 254 3 is_stmt 0 view .LVU510
 1980              	.LBE119:
 1981              	.LBE131:
 1982              		.loc 2 114 3 is_stmt 1 view .LVU511
 1983              		.loc 2 114 10 is_stmt 0 view .LVU512
 1984 08b2 FFF7FEFF 		bl	get_selector
 1985              	.LVL236:
 1986 08b6 0F28     		cmp	r0, #15
 1987 08b8 56D8     		bhi	.L58
ARM GAS  /tmp/ccawpEV3.s 			page 37


 1988 08ba 01A3     		adr	r3, .L33
 1989 08bc 53F820F0 		ldr	pc, [r3, r0, lsl #2]
 1990              		.p2align 2
 1991              	.L33:
 1992 08c0 45010000 		.word	.L28+1
 1993 08c4 3F010000 		.word	.L27+1
 1994 08c8 D5000000 		.word	.L59+1
 1995 08cc BB000000 		.word	.L21+1
 1996 08d0 F5060000 		.word	.L31+1
 1997 08d4 71070000 		.word	.L34+1
 1998 08d8 89040000 		.word	.L60+1
 1999 08dc 79040000 		.word	.L22+1
 2000 08e0 BB000000 		.word	.L21+1
 2001 08e4 73040000 		.word	.L20+1
 2002 08e8 65040000 		.word	.L19+1
 2003 08ec F5030000 		.word	.L61+1
 2004 08f0 21020000 		.word	.L62+1
 2005 08f4 DD010000 		.word	.L63+1
 2006 08f8 79010000 		.word	.L64+1
 2007 08fc 4B010000 		.word	.L65+1
 2008              	.LVL237:
 2009              		.p2align 1
 2010              	.L51:
 2011              		.loc 2 344 9 is_stmt 1 view .LVU513
 2012 0900 0022     		movs	r2, #0
 2013 0902 1146     		mov	r1, r2
 2014 0904 1046     		mov	r0, r2
 2015 0906 0A23     		movs	r3, #10
 2016 0908 FFF7FEFF 		bl	set_rgb_led
 2017              	.LVL238:
 2018              		.loc 2 345 9 view .LVU514
 2019 090c 0022     		movs	r2, #0
 2020 090e 1146     		mov	r1, r2
 2021 0910 0A23     		movs	r3, #10
 2022 0912 0120     		movs	r0, #1
 2023 0914 FFF7FEFF 		bl	set_rgb_led
 2024              	.LVL239:
 2025              		.loc 2 346 9 view .LVU515
 2026 0918 0022     		movs	r2, #0
 2027 091a 1146     		mov	r1, r2
 2028 091c 2046     		mov	r0, r4
 2029 091e 0A23     		movs	r3, #10
 2030 0920 FFF7FEFF 		bl	set_rgb_led
 2031              	.LVL240:
 2032              		.loc 2 347 9 view .LVU516
 2033 0924 0022     		movs	r2, #0
 2034 0926 1146     		mov	r1, r2
 2035 0928 0A23     		movs	r3, #10
 2036 092a 0320     		movs	r0, #3
 2037 092c FFF7FEFF 		bl	set_rgb_led
 2038              	.LVL241:
 2039              		.loc 2 348 9 view .LVU517
 2040 0930 89E4     		b	.L52
 2041              	.L87:
 2042              		.loc 2 332 9 view .LVU518
 2043 0932 2346     		mov	r3, r4
 2044 0934 2246     		mov	r2, r4
ARM GAS  /tmp/ccawpEV3.s 			page 38


 2045 0936 2046     		mov	r0, r4
 2046 0938 0A21     		movs	r1, #10
 2047 093a FFF7FEFF 		bl	set_rgb_led
 2048              	.LVL242:
 2049              		.loc 2 333 9 view .LVU519
 2050 093e 2346     		mov	r3, r4
 2051 0940 2246     		mov	r2, r4
 2052 0942 0A21     		movs	r1, #10
 2053 0944 0120     		movs	r0, #1
 2054 0946 FFF7FEFF 		bl	set_rgb_led
 2055              	.LVL243:
 2056              		.loc 2 334 9 view .LVU520
 2057 094a 2346     		mov	r3, r4
 2058 094c 2246     		mov	r2, r4
 2059 094e 0A21     		movs	r1, #10
 2060 0950 0220     		movs	r0, #2
 2061 0952 FFF7FEFF 		bl	set_rgb_led
 2062              	.LVL244:
 2063              		.loc 2 335 9 view .LVU521
 2064 0956 2346     		mov	r3, r4
 2065 0958 2246     		mov	r2, r4
 2066 095a 0A21     		movs	r1, #10
 2067 095c 0320     		movs	r0, #3
 2068 095e FFF7FEFF 		bl	set_rgb_led
 2069              	.LVL245:
 2070              		.loc 2 336 9 view .LVU522
 2071 0962 70E4     		b	.L52
 2072              	.LVL246:
 2073              	.L84:
 2074              		.loc 2 435 1 is_stmt 0 view .LVU523
 2075 0964 FFF7FEFF 		bl	__stack_chk_fail
 2076              	.LVL247:
 2077              	.L58:
 2078              		.loc 2 114 10 view .LVU524
 2079 0968 0126     		movs	r6, #1
 2080 096a FFF775BB 		b	.L9
 2081              	.L101:
 2082 096e 00BF     		.align	3
 2083              	.L100:
 2084 0970 000000E0 		.word	3758096384
 2085 0974 E2361A3F 		.word	1058682594
 2086 0978 00000060 		.word	1610612736
 2087 097c FB210940 		.word	1074340347
 2088 0980 93244992 		.word	-1840700269
 2089 0984 ABAAAAAA 		.word	-1431655765
 2090 0988 24000000 		.word	.LC6
 2091 098c 00000000 		.word	SDU1
 2092 0990 54000000 		.word	.LC9
 2093 0994 40000000 		.word	.LC8
 2094 0998 00806640 		.word	1080459264
 2095 099c 2C000000 		.word	.LC7
 2096 09a0 00000000 		.word	.LANCHOR2
 2097              		.cfi_endproc
 2098              	.LFE263:
 2099              		.size	selector_thd, .-selector_thd
 2100              		.section	.rodata.main.str1.4,"aMS",%progbits,1
 2101              		.align	2
ARM GAS  /tmp/ccawpEV3.s 			page 39


 2102              	.LC27:
 2103 0000 61736562 		.ascii	"aseba\000"
 2103      6100
 2104              		.section	.rodata.main.cst4,"aM",%progbits,4
 2105              		.align	2
 2106              	.LC28:
 2107 0000 00000000 		.word	__stack_chk_guard
 2108              		.section	.text.startup.main,"ax",%progbits
 2109              		.align	1
 2110              		.p2align 4,,15
 2111              		.global	main
 2112              		.syntax unified
 2113              		.thumb
 2114              		.thumb_func
 2115              		.fpu fpv4-sp-d16
 2116              		.type	main, %function
 2117              	main:
 2118              	.LFB264:
 2119              		.loc 2 438 1 is_stmt 1 view -0
 2120              		.cfi_startproc
 2121              		@ Volatile: function does not return.
 2122              		@ args = 0, pretend = 0, frame = 8
 2123              		@ frame_needed = 0, uses_anonymous_args = 0
 2124 0000 00B5     		push	{lr}
 2125              		.cfi_def_cfa_offset 4
 2126              		.cfi_offset 14, -4
 2127 0002 314B     		ldr	r3, .L106
 2128 0004 85B0     		sub	sp, sp, #20
 2129              		.cfi_def_cfa_offset 24
 2130              		.loc 2 438 1 is_stmt 0 view .LVU526
 2131 0006 1B68     		ldr	r3, [r3]
 2132 0008 0393     		str	r3, [sp, #12]
 2133 000a 4FF00003 		mov	r3,#0
 2134              		.loc 2 440 5 is_stmt 1 view .LVU527
 2135 000e FFF7FEFF 		bl	halInit
 2136              	.LVL248:
 2137              		.loc 2 441 5 view .LVU528
 2138 0012 FFF7FEFF 		bl	chSysInit
 2139              	.LVL249:
 2140              		.loc 2 442 5 view .LVU529
 2141 0016 FFF7FEFF 		bl	mpu_init
 2142              	.LVL250:
 2143              		.loc 2 445 5 view .LVU530
 2144 001a 2C4A     		ldr	r2, .L106+4
 2145 001c 2C49     		ldr	r1, .L106+8
 2146 001e 2D48     		ldr	r0, .L106+12
 2147 0020 FFF7FEFF 		bl	messagebus_init
 2148              	.LVL251:
 2149              		.loc 2 447 5 view .LVU531
 2150 0024 0022     		movs	r2, #0
 2151 0026 1146     		mov	r1, r2
 2152 0028 2B48     		ldr	r0, .L106+16
 2153 002a FFF7FEFF 		bl	parameter_namespace_declare
 2154              	.LVL252:
 2155              		.loc 2 450 2 view .LVU532
 2156 002e FFF7FEFF 		bl	clear_leds
 2157              	.LVL253:
ARM GAS  /tmp/ccawpEV3.s 			page 40


 2158              		.loc 2 451 2 view .LVU533
 2159 0032 0020     		movs	r0, #0
 2160 0034 FFF7FEFF 		bl	set_body_led
 2161              	.LVL254:
 2162              		.loc 2 452 2 view .LVU534
 2163 0038 0020     		movs	r0, #0
 2164 003a FFF7FEFF 		bl	set_front_led
 2165              	.LVL255:
 2166              		.loc 2 453 2 view .LVU535
 2167 003e FFF7FEFF 		bl	usb_start
 2168              	.LVL256:
 2169              		.loc 2 454 2 view .LVU536
 2170 0042 FFF7FEFF 		bl	dcmi_start
 2171              	.LVL257:
 2172              		.loc 2 455 2 view .LVU537
 2173 0046 FFF7FEFF 		bl	po8030_start
 2174              	.LVL258:
 2175              		.loc 2 456 2 view .LVU538
 2176 004a FFF7FEFF 		bl	motors_init
 2177              	.LVL259:
 2178              		.loc 2 457 2 view .LVU539
 2179 004e FFF7FEFF 		bl	proximity_start
 2180              	.LVL260:
 2181              		.loc 2 458 2 view .LVU540
 2182 0052 FFF7FEFF 		bl	battery_level_start
 2183              	.LVL261:
 2184              		.loc 2 459 2 view .LVU541
 2185 0056 FFF7FEFF 		bl	dac_start
 2186              	.LVL262:
 2187              		.loc 2 460 2 view .LVU542
 2188 005a FFF7FEFF 		bl	exti_start
 2189              	.LVL263:
 2190              		.loc 2 461 2 view .LVU543
 2191 005e FFF7FEFF 		bl	imu_start
 2192              	.LVL264:
 2193              		.loc 2 462 2 view .LVU544
 2194 0062 FFF7FEFF 		bl	ir_remote_start
 2195              	.LVL265:
 2196              		.loc 2 463 2 view .LVU545
 2197 0066 FFF7FEFF 		bl	spi_comm_start
 2198              	.LVL266:
 2199              		.loc 2 464 2 view .LVU546
 2200 006a FFF7FEFF 		bl	VL53L0X_start
 2201              	.LVL267:
 2202              		.loc 2 465 2 view .LVU547
 2203              	.LBB132:
 2204              	.LBI132:
 2205              		.loc 2 61 13 view .LVU548
 2206              	.LBB133:
 2207              		.loc 2 63 2 view .LVU549
 2208              		.loc 2 70 2 view .LVU550
 2209 006e 1B49     		ldr	r1, .L106+20
 2210 0070 1B48     		ldr	r0, .L106+24
 2211 0072 FFF7FEFF 		bl	sdStart
 2212              	.LVL268:
 2213              	.LBE133:
 2214              	.LBE132:
ARM GAS  /tmp/ccawpEV3.s 			page 41


 2215              		.loc 2 466 2 view .LVU551
 2216 0076 0020     		movs	r0, #0
 2217 0078 FFF7FEFF 		bl	mic_start
 2218              	.LVL269:
 2219              		.loc 2 467 2 view .LVU552
 2220 007c FFF7FEFF 		bl	sdio_start
 2221              	.LVL270:
 2222              		.loc 2 468 2 view .LVU553
 2223 0080 FFF7FEFF 		bl	playMelodyStart
 2224              	.LVL271:
 2225              		.loc 2 469 2 view .LVU554
 2226 0084 FFF7FEFF 		bl	playSoundFileStart
 2227              	.LVL272:
 2228              		.loc 2 472 5 view .LVU555
 2229 0088 164A     		ldr	r2, .L106+28
 2230 008a 1349     		ldr	r1, .L106+16
 2231 008c 1648     		ldr	r0, .L106+32
 2232 008e FFF7FEFF 		bl	parameter_namespace_declare
 2233              	.LVL273:
 2234              		.loc 2 473 5 view .LVU556
 2235 0092 1548     		ldr	r0, .L106+32
 2236 0094 FFF7FEFF 		bl	aseba_declare_parameters
 2237              	.LVL274:
 2238              		.loc 2 476 5 view .LVU557
 2239              	.LBB134:
 2240              	.LBI134:
 2241              		.loc 2 54 13 view .LVU558
 2242              	.LBB135:
 2243              		.loc 2 56 5 view .LVU559
 2244              		.loc 2 58 5 view .LVU560
 2245              		.loc 2 58 12 is_stmt 0 view .LVU561
 2246 0098 1449     		ldr	r1, .L106+36
 2247 009a 0F48     		ldr	r0, .L106+16
 2248 009c FFF7FEFF 		bl	config_load
 2249              	.LVL275:
 2250              	.LBE135:
 2251              	.LBE134:
 2252              		.loc 2 480 5 is_stmt 1 view .LVU562
 2253 00a0 FFF7FEFF 		bl	aseba_vm_init
 2254              	.LVL276:
 2255              		.loc 2 481 5 view .LVU563
 2256 00a4 1248     		ldr	r0, .L106+40
 2257 00a6 FFF7FEFF 		bl	aseba_can_start
 2258              	.LVL277:
 2259              		.loc 2 483 5 view .LVU564
 2260 00aa 0023     		movs	r3, #0
 2261 00ac 0093     		str	r3, [sp]
 2262 00ae 1148     		ldr	r0, .L106+44
 2263 00b0 114B     		ldr	r3, .L106+48
 2264 00b2 4022     		movs	r2, #64
 2265 00b4 40F67811 		movw	r1, #2424
 2266 00b8 FFF7FEFF 		bl	chThdCreateStatic
 2267              	.LVL278:
 2268              	.L103:
 2269              		.loc 2 486 5 discriminator 1 view .LVU565
 2270              		.loc 2 487 9 discriminator 1 view .LVU566
 2271 00bc 4FF47A70 		mov	r0, #1000
ARM GAS  /tmp/ccawpEV3.s 			page 42


 2272 00c0 FFF7FEFF 		bl	chThdSleep
 2273              	.LVL279:
 2274              		.loc 2 486 11 discriminator 1 view .LVU567
 2275 00c4 FAE7     		b	.L103
 2276              	.L107:
 2277 00c6 00BF     		.align	2
 2278              	.L106:
 2279 00c8 00000000 		.word	.LC28
 2280 00cc 00000000 		.word	.LANCHOR3
 2281 00d0 00000000 		.word	.LANCHOR4
 2282 00d4 00000000 		.word	.LANCHOR1
 2283 00d8 00000000 		.word	.LANCHOR5
 2284 00dc 00000000 		.word	.LANCHOR6
 2285 00e0 00000000 		.word	SD3
 2286 00e4 00000000 		.word	.LC27
 2287 00e8 00000000 		.word	.LANCHOR7
 2288 00ec 00000000 		.word	_config_start
 2289 00f0 00000000 		.word	vmState
 2290 00f4 00000000 		.word	.LANCHOR8
 2291 00f8 00000000 		.word	selector_thd
 2292              		.cfi_endproc
 2293              	.LFE264:
 2294              		.size	main, .-main
 2295              		.section	.rodata.__stack_chk_fail.str1.4,"aMS",%progbits,1
 2296              		.align	2
 2297              	.LC29:
 2298 0000 53746163 		.ascii	"Stack smashing detected\000"
 2298      6B20736D 
 2298      61736869 
 2298      6E672064 
 2298      65746563 
 2299              		.section	.rodata.__stack_chk_fail.cst4,"aM",%progbits,4
 2300              		.align	2
 2301              	.LC30:
 2302 0000 00000000 		.word	__stack_chk_guard
 2303              		.section	.text.__stack_chk_fail,"ax",%progbits
 2304              		.align	1
 2305              		.p2align 4,,15
 2306              		.global	__stack_chk_fail
 2307              		.syntax unified
 2308              		.thumb
 2309              		.thumb_func
 2310              		.fpu fpv4-sp-d16
 2311              		.type	__stack_chk_fail, %function
 2312              	__stack_chk_fail:
 2313              	.LFB265:
 2314              		.loc 2 495 1 view -0
 2315              		.cfi_startproc
 2316              		@ args = 0, pretend = 0, frame = 8
 2317              		@ frame_needed = 0, uses_anonymous_args = 0
 2318 0000 00B5     		push	{lr}
 2319              		.cfi_def_cfa_offset 4
 2320              		.cfi_offset 14, -4
 2321 0002 094B     		ldr	r3, .L113
 2322 0004 83B0     		sub	sp, sp, #12
 2323              		.cfi_def_cfa_offset 16
 2324              		.loc 2 495 1 is_stmt 0 view .LVU569
ARM GAS  /tmp/ccawpEV3.s 			page 43


 2325 0006 1B68     		ldr	r3, [r3]
 2326 0008 0193     		str	r3, [sp, #4]
 2327 000a 4FF00003 		mov	r3,#0
 2328              		.loc 2 496 5 is_stmt 1 view .LVU570
 2329 000e 064B     		ldr	r3, .L113
 2330 0010 1A68     		ldr	r2, [r3]
 2331 0012 019B     		ldr	r3, [sp, #4]
 2332 0014 5A40     		eors	r2, r3, r2
 2333 0016 05D1     		bne	.L112
 2334 0018 0448     		ldr	r0, .L113+4
 2335              		.loc 2 497 1 is_stmt 0 view .LVU571
 2336 001a 03B0     		add	sp, sp, #12
 2337              		.cfi_remember_state
 2338              		.cfi_def_cfa_offset 4
 2339              		@ sp needed
 2340 001c 5DF804EB 		ldr	lr, [sp], #4
 2341              		.cfi_restore 14
 2342              		.cfi_def_cfa_offset 0
 2343              		.loc 2 496 5 view .LVU572
 2344 0020 FFF7FEBF 		b	chSysHalt
 2345              	.LVL280:
 2346              	.L112:
 2347              		.cfi_restore_state
 2348 0024 FFF7FEFF 		bl	__stack_chk_fail
 2349              	.LVL281:
 2350              	.L114:
 2351              		.align	2
 2352              	.L113:
 2353 0028 00000000 		.word	.LC30
 2354 002c 00000000 		.word	.LC29
 2355              		.cfi_endproc
 2356              	.LFE265:
 2357              		.size	__stack_chk_fail, .-__stack_chk_fail
 2358              		.global	__stack_chk_guard
 2359              		.global	aseba_ns
 2360              		.global	parameter_root
 2361              		.global	bus_condvar
 2362              		.global	bus_lock
 2363              		.global	bus
 2364              		.section	.bss.aseba_ns,"aw",%nobits
 2365              		.align	2
 2366              		.set	.LANCHOR7,. + 0
 2367              		.type	aseba_ns, %object
 2368              		.size	aseba_ns, 24
 2369              	aseba_ns:
 2370 0000 00000000 		.space	24
 2370      00000000 
 2370      00000000 
 2370      00000000 
 2370      00000000 
 2371              		.section	.bss.bus,"aw",%nobits
 2372              		.align	2
 2373              		.set	.LANCHOR1,. + 0
 2374              		.type	bus, %object
 2375              		.size	bus, 12
 2376              	bus:
 2377 0000 00000000 		.space	12
ARM GAS  /tmp/ccawpEV3.s 			page 44


 2377      00000000 
 2377      00000000 
 2378              		.section	.bss.parameter_root,"aw",%nobits
 2379              		.align	2
 2380              		.set	.LANCHOR5,. + 0
 2381              		.type	parameter_root, %object
 2382              		.size	parameter_root, 24
 2383              	parameter_root:
 2384 0000 00000000 		.space	24
 2384      00000000 
 2384      00000000 
 2384      00000000 
 2384      00000000 
 2385              		.section	.bss.selector_thd_wa,"aw",%nobits
 2386              		.align	3
 2387              		.set	.LANCHOR8,. + 0
 2388              		.type	selector_thd_wa, %object
 2389              		.size	selector_thd_wa, 2424
 2390              	selector_thd_wa:
 2391 0000 00000000 		.space	2424
 2391      00000000 
 2391      00000000 
 2391      00000000 
 2391      00000000 
 2392              		.section	.data.__stack_chk_guard,"aw"
 2393              		.align	2
 2394              		.type	__stack_chk_guard, %object
 2395              		.size	__stack_chk_guard, 4
 2396              	__stack_chk_guard:
 2397 0000 96E3DEE2 		.word	-488709226
 2398              		.section	.data.bus_condvar,"aw"
 2399              		.align	2
 2400              		.set	.LANCHOR3,. + 0
 2401              		.type	bus_condvar, %object
 2402              		.size	bus_condvar, 8
 2403              	bus_condvar:
 2404 0000 00000000 		.word	bus_condvar
 2405 0004 00000000 		.word	bus_condvar
 2406              		.section	.data.bus_lock,"aw"
 2407              		.align	2
 2408              		.set	.LANCHOR4,. + 0
 2409              		.type	bus_lock, %object
 2410              		.size	bus_lock, 20
 2411              	bus_lock:
 2412 0000 00000000 		.word	bus_lock
 2413 0004 00000000 		.word	bus_lock
 2414 0008 00000000 		.word	0
 2415 000c 00000000 		.word	0
 2416 0010 00000000 		.word	0
 2417              		.section	.data.ser_cfg.14710,"aw"
 2418              		.align	2
 2419              		.set	.LANCHOR6,. + 0
 2420              		.type	ser_cfg.14710, %object
 2421              		.size	ser_cfg.14710, 12
 2422              	ser_cfg.14710:
 2423 0000 00C20100 		.word	115200
 2424 0004 0000     		.short	0
ARM GAS  /tmp/ccawpEV3.s 			page 45


 2425 0006 0000     		.short	0
 2426 0008 0000     		.short	0
 2427 000a 0000     		.space	2
 2428              		.section	.rodata.__FUNCTION__.14714,"a"
 2429              		.align	2
 2430              		.set	.LANCHOR0,. + 0
 2431              		.type	__FUNCTION__.14714, %object
 2432              		.size	__FUNCTION__.14714, 13
 2433              	__FUNCTION__.14714:
 2434 0000 73656C65 		.ascii	"selector_thd\000"
 2434      63746F72 
 2434      5F746864 
 2434      00
 2435              		.section	.rodata.__func__.9400,"a"
 2436              		.align	2
 2437              		.set	.LANCHOR2,. + 0
 2438              		.type	__func__.9400, %object
 2439              		.size	__func__.9400, 12
 2440              	__func__.9400:
 2441 0000 63685379 		.ascii	"chSysUnlock\000"
 2441      73556E6C 
 2441      6F636B00 
 2442              		.text
 2443              	.Letext0:
 2444              		.file 9 "/usr/include/newlib/machine/_default_types.h"
 2445              		.file 10 "/usr/lib/gcc/arm-none-eabi/9.2.1/include/stddef.h"
 2446              		.file 11 "/usr/lib/gcc/arm-none-eabi/9.2.1/include/stdarg.h"
 2447              		.file 12 "/usr/include/newlib/stdio.h"
 2448              		.file 13 "/usr/include/newlib/sys/_types.h"
 2449              		.file 14 "/usr/include/newlib/sys/reent.h"
 2450              		.file 15 "/usr/include/newlib/sys/lock.h"
 2451              		.file 16 "/usr/include/newlib/sys/_stdint.h"
 2452              		.file 17 "/usr/include/newlib/stdlib.h"
 2453              		.file 18 "/usr/include/newlib/math.h"
 2454              		.file 19 ".//ChibiOS//os/rt/ports/ARMCMx/compilers/GCC/chtypes.h"
 2455              		.file 20 ".//ChibiOS//os/rt/include/chsystypes.h"
 2456              		.file 21 ".//ChibiOS//os/rt/include/chschd.h"
 2457              		.file 22 ".//ChibiOS//os/ext/CMSIS/include/core_cm4.h"
 2458              		.file 23 ".//ChibiOS//os/ext/CMSIS/ST/system_stm32f4xx.h"
 2459              		.file 24 ".//ChibiOS//os/ext/CMSIS/ST/stm32f407xx.h"
 2460              		.file 25 ".//ChibiOS//os/rt/ports/ARMCMx/chcore.h"
 2461              		.file 26 ".//ChibiOS//os/rt/include/chdebug.h"
 2462              		.file 27 ".//ChibiOS//os/rt/include/chtm.h"
 2463              		.file 28 ".//ChibiOS//os/rt/include/chstats.h"
 2464              		.file 29 ".//ChibiOS//os/rt/include/chsem.h"
 2465              		.file 30 ".//ChibiOS//os/rt/include/chmtx.h"
 2466              		.file 31 ".//ChibiOS//os/rt/include/chcond.h"
 2467              		.file 32 ".//ChibiOS//os/rt/include/chevents.h"
 2468              		.file 33 ".//ChibiOS//os/rt/include/chstreams.h"
 2469              		.file 34 ".//ChibiOS//os/hal/ports/STM32/STM32F4xx/stm32_dma.h"
 2470              		.file 35 ".//ChibiOS//os/hal/include/hal_ioblock.h"
 2471              		.file 36 ".//ChibiOS//os/hal/ports/STM32/LLD/GPIOv2/pal_lld.h"
 2472              		.file 37 ".//ChibiOS//os/hal/include/adc.h"
 2473              		.file 38 ".//ChibiOS//os/hal/ports/STM32/STM32F4xx/adc_lld.h"
 2474              		.file 39 ".//ChibiOS//os/hal/include/can.h"
 2475              		.file 40 ".//ChibiOS//os/hal/ports/STM32/LLD/can_lld.h"
 2476              		.file 41 ".//ChibiOS//os/hal/include/dac.h"
ARM GAS  /tmp/ccawpEV3.s 			page 46


 2477              		.file 42 ".//ChibiOS//os/hal/ports/STM32/LLD/DACv1/dac_lld.h"
 2478              		.file 43 ".//ChibiOS//os/hal/include/ext.h"
 2479              		.file 44 ".//ChibiOS//os/hal/ports/STM32/LLD/ext_lld.h"
 2480              		.file 45 ".//ChibiOS//os/hal/include/gpt.h"
 2481              		.file 46 ".//ChibiOS//os/hal/ports/STM32/LLD/TIMv1/gpt_lld.h"
 2482              		.file 47 ".//ChibiOS//os/hal/ports/STM32/LLD/TIMv1/stm32_tim.h"
 2483              		.file 48 ".//ChibiOS//os/hal/include/i2c.h"
 2484              		.file 49 ".//ChibiOS//os/hal/ports/STM32/LLD/I2Cv1/i2c_lld.h"
 2485              		.file 50 ".//ChibiOS//os/hal/include/i2s.h"
 2486              		.file 51 ".//ChibiOS//os/hal/ports/STM32/LLD/SPIv1/i2s_lld.h"
 2487              		.file 52 ".//ChibiOS//os/hal/include/pwm.h"
 2488              		.file 53 ".//ChibiOS//os/hal/ports/STM32/LLD/TIMv1/pwm_lld.h"
 2489              		.file 54 ".//ChibiOS//os/hal/include/serial.h"
 2490              		.file 55 ".//ChibiOS//os/hal/ports/STM32/LLD/USARTv1/serial_lld.h"
 2491              		.file 56 ".//ChibiOS//os/hal/include/sdc.h"
 2492              		.file 57 ".//ChibiOS//os/hal/ports/STM32/LLD/sdc_lld.h"
 2493              		.file 58 ".//ChibiOS//os/hal/include/spi.h"
 2494              		.file 59 ".//ChibiOS//os/hal/ports/STM32/LLD/SPIv1/spi_lld.h"
 2495              		.file 60 ".//ChibiOS//os/hal/include/usb.h"
 2496              		.file 61 ".//ChibiOS//os/hal/ports/STM32/LLD/OTGv1/usb_lld.h"
 2497              		.file 62 ".//ChibiOS//os/hal/ports/STM32/LLD/OTGv1/stm32_otg.h"
 2498              		.file 63 ".//ChibiOS//os/hal/include/serial_usb.h"
 2499              		.file 64 ".//ChibiOS//os/various/shell.h"
 2500              		.file 65 ".//aseba/common/types.h"
 2501              		.file 66 ".//aseba/vm/vm.h"
 2502              		.file 67 ".//src/parameter/parameter.h"
 2503              		.file 68 ".//src/aseba_vm/aseba_node.h"
 2504              		.file 69 ".//aseba/vm/natives.h"
 2505              		.file 70 ".//src/sensors/mpu9250.h"
 2506              		.file 71 ".//src/sensors/imu.h"
 2507              		.file 72 ".//src/leds.h"
 2508              		.file 73 ".//src/aseba_vm/skel_user.h"
 2509              		.file 74 ".//src/audio/play_melody.h"
 2510              		.file 75 ".//src/camera/po8030.h"
 2511              		.file 76 ".//src/sensors/proximity.h"
 2512              		.file 77 ".//src/exti.h"
 2513              		.file 78 ".//ChibiOS_ext/os/hal/include/../ports/STM32/STM32F4xx/dcmi_lld.h"
 2514              		.file 79 ".//src/camera/dcmi_camera.h"
 2515              		.file 80 "/usr/include/newlib/sys/unistd.h"
 2516              		.file 81 ".//src/msgbus/messagebus.h"
 2517              		.file 82 ".//src/main.h"
 2518              		.file 83 ".//src/usbcfg.h"
 2519              		.file 84 ".//src/config_flash_storage.h"
 2520              		.file 85 ".//ChibiOS//os/hal/include/hal.h"
 2521              		.file 86 ".//src/memory_protection.h"
 2522              		.file 87 ".//src/motors.h"
 2523              		.file 88 ".//src/sensors/battery_level.h"
 2524              		.file 89 ".//src/audio/audio_thread.h"
 2525              		.file 90 ".//src/ir_remote.h"
 2526              		.file 91 ".//src/spi_comm.h"
 2527              		.file 92 ".//src/sensors/VL53L0X/VL53L0X.h"
 2528              		.file 93 ".//src/audio/microphone.h"
 2529              		.file 94 ".//src/sdio.h"
 2530              		.file 95 ".//src/audio/play_sound_file.h"
 2531              		.file 96 ".//src/aseba_vm/aseba_can_interface.h"
 2532              		.file 97 ".//ChibiOS//os/rt/include/chthreads.h"
 2533              		.file 98 ".//src/selector.h"
ARM GAS  /tmp/ccawpEV3.s 			page 47


 2534              		.file 99 ".//src/epuck1x/Asercom2.h"
 2535              		.file 100 ".//src/cmd.h"
 2536              		.file 101 ".//src/epuck1x/a_d/advance_ad_scan/e_acc.h"
 2537              		.file 102 ".//src/uc_usage.h"
 2538              		.file 103 ".//src/i2c_bus.h"
 2539              		.file 104 ".//src/epuck1x/Asercom.h"
 2540              		.file 105 ".//src/communication.h"
 2541              		.file 106 "<built-in>"