ARM GAS  /tmp/ccjw355H.s 			page 1


   1              		.cpu cortex-m4
   2              		.eabi_attribute 27, 1
   3              		.eabi_attribute 28, 1
   4              		.eabi_attribute 20, 1
   5              		.eabi_attribute 21, 1
   6              		.eabi_attribute 23, 3
   7              		.eabi_attribute 24, 1
   8              		.eabi_attribute 25, 1
   9              		.eabi_attribute 26, 1
  10              		.eabi_attribute 30, 2
  11              		.eabi_attribute 34, 1
  12              		.eabi_attribute 18, 4
  13              		.file	"malloc_lock.c"
  14              		.text
  15              	.Ltext0:
  16              		.cfi_sections	.debug_frame
  17              		.section	.rodata.__malloc_lock.cst4,"aM",%progbits,4
  18              		.align	2
  19              	.LC0:
  20 0000 00000000 		.word	__stack_chk_guard
  21              		.section	.text.__malloc_lock,"ax",%progbits
  22              		.align	1
  23              		.p2align 4,,15
  24              		.global	__malloc_lock
  25              		.arch armv7e-m
  26              		.syntax unified
  27              		.thumb
  28              		.thumb_func
  29              		.fpu fpv4-sp-d16
  30              		.type	__malloc_lock, %function
  31              	__malloc_lock:
  32              	.LVL0:
  33              	.LFB219:
  34              		.file 1 ".//src/chibios-syscalls/malloc_lock.c"
  35              		.loc 1 11 1 view -0
  36              		.cfi_startproc
  37              		@ args = 0, pretend = 0, frame = 8
  38              		@ frame_needed = 0, uses_anonymous_args = 0
  39              		.loc 1 11 1 is_stmt 0 view .LVU1
  40 0000 00B5     		push	{lr}
  41              		.cfi_def_cfa_offset 4
  42              		.cfi_offset 14, -4
  43 0002 094B     		ldr	r3, .L7
  44 0004 83B0     		sub	sp, sp, #12
  45              		.cfi_def_cfa_offset 16
  46              		.loc 1 11 1 view .LVU2
  47 0006 1B68     		ldr	r3, [r3]
  48 0008 0193     		str	r3, [sp, #4]
  49 000a 4FF00003 		mov	r3,#0
  50              		.loc 1 12 5 is_stmt 1 view .LVU3
  51              		.loc 1 13 5 view .LVU4
  52 000e 064B     		ldr	r3, .L7
  53 0010 1A68     		ldr	r2, [r3]
  54 0012 019B     		ldr	r3, [sp, #4]
  55 0014 5A40     		eors	r2, r3, r2
  56 0016 05D1     		bne	.L6
  57 0018 0448     		ldr	r0, .L7+4
ARM GAS  /tmp/ccjw355H.s 			page 2


  58              	.LVL1:
  59              		.loc 1 14 1 is_stmt 0 view .LVU5
  60 001a 03B0     		add	sp, sp, #12
  61              		.cfi_remember_state
  62              		.cfi_def_cfa_offset 4
  63              		@ sp needed
  64 001c 5DF804EB 		ldr	lr, [sp], #4
  65              		.cfi_restore 14
  66              		.cfi_def_cfa_offset 0
  67              		.loc 1 13 5 view .LVU6
  68 0020 FFF7FEBF 		b	chMtxLock
  69              	.LVL2:
  70              	.L6:
  71              		.cfi_restore_state
  72              		.loc 1 13 5 view .LVU7
  73 0024 FFF7FEFF 		bl	__stack_chk_fail
  74              	.LVL3:
  75              	.L8:
  76              		.loc 1 13 5 view .LVU8
  77              		.align	2
  78              	.L7:
  79 0028 00000000 		.word	.LC0
  80 002c 00000000 		.word	.LANCHOR0
  81              		.cfi_endproc
  82              	.LFE219:
  83              		.size	__malloc_lock, .-__malloc_lock
  84              		.section	.rodata.__malloc_unlock.cst4,"aM",%progbits,4
  85              		.align	2
  86              	.LC1:
  87 0000 00000000 		.word	__stack_chk_guard
  88              		.section	.text.__malloc_unlock,"ax",%progbits
  89              		.align	1
  90              		.p2align 4,,15
  91              		.global	__malloc_unlock
  92              		.syntax unified
  93              		.thumb
  94              		.thumb_func
  95              		.fpu fpv4-sp-d16
  96              		.type	__malloc_unlock, %function
  97              	__malloc_unlock:
  98              	.LVL4:
  99              	.LFB220:
 100              		.loc 1 17 1 is_stmt 1 view -0
 101              		.cfi_startproc
 102              		@ args = 0, pretend = 0, frame = 8
 103              		@ frame_needed = 0, uses_anonymous_args = 0
 104              		.loc 1 17 1 is_stmt 0 view .LVU10
 105 0000 00B5     		push	{lr}
 106              		.cfi_def_cfa_offset 4
 107              		.cfi_offset 14, -4
 108 0002 094B     		ldr	r3, .L14
 109 0004 83B0     		sub	sp, sp, #12
 110              		.cfi_def_cfa_offset 16
 111              		.loc 1 17 1 view .LVU11
 112 0006 1B68     		ldr	r3, [r3]
 113 0008 0193     		str	r3, [sp, #4]
 114 000a 4FF00003 		mov	r3,#0
ARM GAS  /tmp/ccjw355H.s 			page 3


 115              		.loc 1 18 5 is_stmt 1 view .LVU12
 116              		.loc 1 19 5 view .LVU13
 117 000e 064B     		ldr	r3, .L14
 118 0010 1A68     		ldr	r2, [r3]
 119 0012 019B     		ldr	r3, [sp, #4]
 120 0014 5A40     		eors	r2, r3, r2
 121 0016 05D1     		bne	.L13
 122 0018 0448     		ldr	r0, .L14+4
 123              	.LVL5:
 124              		.loc 1 20 1 is_stmt 0 view .LVU14
 125 001a 03B0     		add	sp, sp, #12
 126              		.cfi_remember_state
 127              		.cfi_def_cfa_offset 4
 128              		@ sp needed
 129 001c 5DF804EB 		ldr	lr, [sp], #4
 130              		.cfi_restore 14
 131              		.cfi_def_cfa_offset 0
 132              		.loc 1 19 5 view .LVU15
 133 0020 FFF7FEBF 		b	chMtxUnlock
 134              	.LVL6:
 135              	.L13:
 136              		.cfi_restore_state
 137              		.loc 1 19 5 view .LVU16
 138 0024 FFF7FEFF 		bl	__stack_chk_fail
 139              	.LVL7:
 140              	.L15:
 141              		.loc 1 19 5 view .LVU17
 142              		.align	2
 143              	.L14:
 144 0028 00000000 		.word	.LC1
 145 002c 00000000 		.word	.LANCHOR0
 146              		.cfi_endproc
 147              	.LFE220:
 148              		.size	__malloc_unlock, .-__malloc_unlock
 149              		.section	.data.lock,"aw"
 150              		.align	2
 151              		.set	.LANCHOR0,. + 0
 152              		.type	lock, %object
 153              		.size	lock, 20
 154              	lock:
 155 0000 00000000 		.word	lock
 156 0004 00000000 		.word	lock
 157 0008 00000000 		.word	0
 158 000c 00000000 		.word	0
 159 0010 00000000 		.word	0
 160              		.text
 161              	.Letext0:
 162              		.file 2 "/usr/lib/gcc/arm-none-eabi/9.2.1/include/stddef.h"
 163              		.file 3 "/usr/lib/gcc/arm-none-eabi/9.2.1/include/stdint.h"
 164              		.file 4 ".//ChibiOS//os/rt/ports/ARMCMx/compilers/GCC/chtypes.h"
 165              		.file 5 ".//ChibiOS//os/rt/include/chsystypes.h"
 166              		.file 6 ".//ChibiOS//os/rt/include/chschd.h"
 167              		.file 7 ".//ChibiOS//os/ext/CMSIS/include/core_cm4.h"
 168              		.file 8 ".//ChibiOS//os/ext/CMSIS/ST/system_stm32f4xx.h"
 169              		.file 9 ".//ChibiOS//os/rt/ports/ARMCMx/chcore.h"
 170              		.file 10 ".//ChibiOS//os/rt/ports/ARMCMx/chcore_v7m.h"
 171              		.file 11 ".//ChibiOS//os/rt/include/chdebug.h"
ARM GAS  /tmp/ccjw355H.s 			page 4


 172              		.file 12 ".//ChibiOS//os/rt/include/chtm.h"
 173              		.file 13 ".//ChibiOS//os/rt/include/chstats.h"
 174              		.file 14 ".//ChibiOS//os/rt/include/chsem.h"
 175              		.file 15 ".//ChibiOS//os/rt/include/chmtx.h"
 176              		.file 16 ".//ChibiOS//os/rt/include/chregistry.h"
 177              		.file 17 "/usr/include/newlib/sys/_types.h"
 178              		.file 18 "/usr/include/newlib/sys/reent.h"
 179              		.file 19 "/usr/include/newlib/sys/lock.h"
 180              		.file 20 "/usr/include/newlib/malloc.h"