ARM GAS  /tmp/ccjw355H.s 			page 1


   1              		.cpu cortex-m4
   2              		.eabi_attribute 27, 1
   3              		.eabi_attribute 28, 1
   4              		.eabi_attribute 20, 1
   5              		.eabi_attribute 21, 1
   6              		.eabi_attribute 23, 3
   7              		.eabi_attribute 24, 1
   8              		.eabi_attribute 25, 1
   9              		.eabi_attribute 26, 1
  10              		.eabi_attribute 30, 2
  11              		.eabi_attribute 34, 1
  12              		.eabi_attribute 18, 4
  13              		.file	"malloc_lock.c"
  14              		.text
  15              	.Ltext0:
  16              		.cfi_sections	.debug_frame
  17              		.section	.rodata.__malloc_lock.cst4,"aM",%progbits,4
  18              		.align	2
  19              	.LC0:
  20 0000 00000000 		.word	__stack_chk_guard
  21              		.section	.text.__malloc_lock,"ax",%progbits
  22              		.align	1
  23              		.p2align 4,,15
  24              		.global	__malloc_lock
  25              		.arch armv7e-m
  26              		.syntax unified
  27              		.thumb
  28              		.thumb_func
  29              		.fpu fpv4-sp-d16
  30              		.type	__malloc_lock, %function
  31              	__malloc_lock:
  32              	.LVL0:
  33              	.LFB219:
  34              		.file 1 ".//src/chibios-syscalls/malloc_lock.c"
  35              		.loc 1 11 1 view -0
  36              		.cfi_startproc
  37              		@ args = 0, pretend = 0, frame = 8
  38              		@ frame_needed = 0, uses_anonymous_args = 0
  39              		.loc 1 11 1 is_stmt 0 view .LVU1
  40 0000 00B5     		push	{lr}
  41              		.cfi_def_cfa_offset 4
  42              		.cfi_offset 14, -4
  43 0002 094B     		ldr	r3, .L7
  44 0004 83B0     		sub	sp, sp, #12
  45              		.cfi_def_cfa_offset 16
  46              		.loc 1 11 1 view .LVU2
  47 0006 1B68     		ldr	r3, [r3]
  48 0008 0193     		str	r3, [sp, #4]
  49 000a 4FF00003 		mov	r3,#0
  50              		.loc 1 12 5 is_stmt 1 view .LVU3
  51              		.loc 1 13 5 view .LVU4
  52 000e 064B     		ldr	r3, .L7
  53 0010 1A68     		ldr	r2, [r3]
  54 0012 019B     		ldr	r3, [sp, #4]
  55 0014 5A40     		eors	r2, r3, r2
  56 0016 05D1     		bne	.L6
  57 0018 0448     		ldr	r0, .L7+4
ARM GAS  /tmp/ccjw355H.s 			page 2


  58              	.LVL1:
  59              		.loc 1 14 1 is_stmt 0 view .LVU5
  60 001a 03B0     		add	sp, sp, #12
  61              		.cfi_remember_state
  62              		.cfi_def_cfa_offset 4
  63              		@ sp needed
  64 001c 5DF804EB 		ldr	lr, [sp], #4
  65              		.cfi_restore 14
  66              		.cfi_def_cfa_offset 0
  67              		.loc 1 13 5 view .LVU6
  68 0020 FFF7FEBF 		b	chMtxLock
  69              	.LVL2:
  70              	.L6:
  71              		.cfi_restore_state
  72              		.loc 1 13 5 view .LVU7
  73 0024 FFF7FEFF 		bl	__stack_chk_fail
  74              	.LVL3:
  75              	.L8:
  76              		.loc 1 13 5 view .LVU8
  77              		.align	2
  78              	.L7:
  79 0028 00000000 		.word	.LC0
  80 002c 00000000 		.word	.LANCHOR0
  81              		.cfi_endproc
  82              	.LFE219:
  83              		.size	__malloc_lock, .-__malloc_lock
  84              		.section	.rodata.__malloc_unlock.cst4,"aM",%progbits,4
  85              		.align	2
  86              	.LC1:
  87 0000 00000000 		.word	__stack_chk_guard
  88              		.section	.text.__malloc_unlock,"ax",%progbits
  89              		.align	1
  90              		.p2align 4,,15
  91              		.global	__malloc_unlock
  92              		.syntax unified
  93              		.thumb
  94              		.thumb_func
  95              		.fpu fpv4-sp-d16
  96              		.type	__malloc_unlock, %function
  97              	__malloc_unlock:
  98              	.LVL4:
  99              	.LFB220:
 100              		.loc 1 17 1 is_stmt 1 view -0
 101              		.cfi_startproc
 102              		@ args = 0, pretend = 0, frame = 8
 103              		@ frame_needed = 0, uses_anonymous_args = 0
 104              		.loc 1 17 1 is_stmt 0 view .LVU10
 105 0000 00B5     		push	{lr}
 106              		.cfi_def_cfa_offset 4
 107              		.cfi_offset 14, -4
 108 0002 094B     		ldr	r3, .L14
 109 0004 83B0     		sub	sp, sp, #12
 110              		.cfi_def_cfa_offset 16
 111              		.loc 1 17 1 view .LVU11
 112 0006 1B68     		ldr	r3, [r3]
 113 0008 0193     		str	r3, [sp, #4]
 114 000a 4FF00003 		mov	r3,#0
ARM GAS  /tmp/ccjw355H.s 			page 3


 115              		.loc 1 18 5 is_stmt 1 view .LVU12
 116              		.loc 1 19 5 view .LVU13
 117 000e 064B     		ldr	r3, .L14
 118 0010 1A68     		ldr	r2, [r3]
 119 0012 019B     		ldr	r3, [sp, #4]
 120 0014 5A40     		eors	r2, r3, r2
 121 0016 05D1     		bne	.L13
 122 0018 0448     		ldr	r0, .L14+4
 123              	.LVL5:
 124              		.loc 1 20 1 is_stmt 0 view .LVU14
 125 001a 03B0     		add	sp, sp, #12
 126              		.cfi_remember_state
 127              		.cfi_def_cfa_offset 4
 128              		@ sp needed
 129 001c 5DF804EB 		ldr	lr, [sp], #4
 130              		.cfi_restore 14
 131              		.cfi_def_cfa_offset 0
 132              		.loc 1 19 5 view .LVU15
 133 0020 FFF7FEBF 		b	chMtxUnlock
 134              	.LVL6:
 135              	.L13:
 136              		.cfi_restore_state
 137              		.loc 1 19 5 view .LVU16
 138 0024 FFF7FEFF 		bl	__stack_chk_fail
 139              	.LVL7:
 140              	.L15:
 141              		.loc 1 19 5 view .LVU17
 142              		.align	2
 143              	.L14:
 144 0028 00000000 		.word	.LC1
 145 002c 00000000 		.word	.LANCHOR0
 146              		.cfi_endproc
 147              	.LFE220:
 148              		.size	__malloc_unlock, .-__malloc_unlock
 149              		.section	.data.lock,"aw"
 150              		.align	2
 151              		.set	.LANCHOR0,. + 0
 152              		.type	lock, %object
 153              		.size	lock, 20
 154              	lock:
 155 0000 00000000 		.word	lock
 156 0004 00000000 		.word	lock
 157 0008 00000000 		.word	0
 158 000c 00000000 		.word	0
 159 0010 00000000 		.word	0
 160              		.text
 161              	.Letext0:
 162              		.file 2 "/usr/lib/gcc/arm-none-eabi/9.2.1/include/stddef.h"
 163              		.file 3 "/usr/lib/gcc/arm-none-eabi/9.2.1/include/stdint.h"
 164              		.file 4 ".//ChibiOS//os/rt/ports/ARMCMx/compilers/GCC/chtypes.h"
 165              		.file 5 ".//ChibiOS//os/rt/include/chsystypes.h"
 166              		.file 6 ".//ChibiOS//os/rt/include/chschd.h"
 167              		.file 7 ".//ChibiOS//os/ext/CMSIS/include/core_cm4.h"
 168              		.file 8 ".//ChibiOS//os/ext/CMSIS/ST/system_stm32f4xx.h"
 169              		.file 9 ".//ChibiOS//os/rt/ports/ARMCMx/chcore.h"
 170              		.file 10 ".//ChibiOS//os/rt/ports/ARMCMx/chcore_v7m.h"
 171              		.file 11 ".//ChibiOS//os/rt/include/chdebug.h"
ARM GAS  /tmp/ccjw355H.s 			page 4


 172              		.file 12 ".//ChibiOS//os/rt/include/chtm.h"
 173              		.file 13 ".//ChibiOS//os/rt/include/chstats.h"
 174              		.file 14 ".//ChibiOS//os/rt/include/chsem.h"
 175              		.file 15 ".//ChibiOS//os/rt/include/chmtx.h"
 176              		.file 16 ".//ChibiOS//os/rt/include/chregistry.h"
 177              		.file 17 "/usr/include/newlib/sys/_types.h"
 178              		.file 18 "/usr/include/newlib/sys/reent.h"
 179              		.file 19 "/usr/include/newlib/sys/lock.h"
 180              		.file 20 "/usr/include/newlib/malloc.h"
 181              		.section	.debug_info,"",%progbits
 182              	.Ldebug_info0:
 183 0000 C2130000 		.4byte	0x13c2
 184 0004 0400     		.2byte	0x4
 185 0006 00000000 		.4byte	.Ldebug_abbrev0
 186 000a 04       		.byte	0x4
 187 000b 01       		.uleb128 0x1
 188 000c 67090000 		.4byte	.LASF265
 189 0010 0C       		.byte	0xc
 190 0011 330B0000 		.4byte	.LASF266
 191 0015 B90A0000 		.4byte	.LASF267
 192 0019 00000000 		.4byte	.Ldebug_ranges0+0
 193 001d 00000000 		.4byte	0
 194 0021 00000000 		.4byte	.Ldebug_line0
 195 0025 02       		.uleb128 0x2
 196 0026 04       		.byte	0x4
 197 0027 05       		.byte	0x5
 198 0028 696E7400 		.ascii	"int\000"
 199 002c 03       		.uleb128 0x3
 200 002d 08000000 		.4byte	.LASF5
 201 0031 02       		.byte	0x2
 202 0032 D1       		.byte	0xd1
 203 0033 17       		.byte	0x17
 204 0034 38000000 		.4byte	0x38
 205 0038 04       		.uleb128 0x4
 206 0039 04       		.byte	0x4
 207 003a 07       		.byte	0x7
 208 003b F2050000 		.4byte	.LASF0
 209 003f 04       		.uleb128 0x4
 210 0040 08       		.byte	0x8
 211 0041 05       		.byte	0x5
 212 0042 2B050000 		.4byte	.LASF1
 213 0046 04       		.uleb128 0x4
 214 0047 08       		.byte	0x8
 215 0048 04       		.byte	0x4
 216 0049 D6060000 		.4byte	.LASF2
 217 004d 04       		.uleb128 0x4
 218 004e 01       		.byte	0x1
 219 004f 06       		.byte	0x6
 220 0050 4A020000 		.4byte	.LASF3
 221 0054 04       		.uleb128 0x4
 222 0055 02       		.byte	0x2
 223 0056 05       		.byte	0x5
 224 0057 B5080000 		.4byte	.LASF4
 225 005b 03       		.uleb128 0x3
 226 005c 7F000000 		.4byte	.LASF6
 227 0060 03       		.byte	0x3
 228 0061 28       		.byte	0x28
ARM GAS  /tmp/ccjw355H.s 			page 5


 229 0062 18       		.byte	0x18
 230 0063 6C000000 		.4byte	0x6c
 231 0067 05       		.uleb128 0x5
 232 0068 5B000000 		.4byte	0x5b
 233 006c 04       		.uleb128 0x4
 234 006d 04       		.byte	0x4
 235 006e 05       		.byte	0x5
 236 006f A6010000 		.4byte	.LASF7
 237 0073 03       		.uleb128 0x3
 238 0074 60020000 		.4byte	.LASF8
 239 0078 03       		.byte	0x3
 240 0079 2E       		.byte	0x2e
 241 007a 18       		.byte	0x18
 242 007b 7F000000 		.4byte	0x7f
 243 007f 04       		.uleb128 0x4
 244 0080 01       		.byte	0x1
 245 0081 08       		.byte	0x8
 246 0082 82020000 		.4byte	.LASF9
 247 0086 03       		.uleb128 0x3
 248 0087 94070000 		.4byte	.LASF10
 249 008b 03       		.byte	0x3
 250 008c 31       		.byte	0x31
 251 008d 19       		.byte	0x19
 252 008e 92000000 		.4byte	0x92
 253 0092 04       		.uleb128 0x4
 254 0093 02       		.byte	0x2
 255 0094 07       		.byte	0x7
 256 0095 650B0000 		.4byte	.LASF11
 257 0099 03       		.uleb128 0x3
 258 009a 1B0B0000 		.4byte	.LASF12
 259 009e 03       		.byte	0x3
 260 009f 34       		.byte	0x34
 261 00a0 19       		.byte	0x19
 262 00a1 A5000000 		.4byte	0xa5
 263 00a5 04       		.uleb128 0x4
 264 00a6 04       		.byte	0x4
 265 00a7 07       		.byte	0x7
 266 00a8 E9030000 		.4byte	.LASF13
 267 00ac 03       		.uleb128 0x3
 268 00ad BF080000 		.4byte	.LASF14
 269 00b1 03       		.byte	0x3
 270 00b2 37       		.byte	0x37
 271 00b3 19       		.byte	0x19
 272 00b4 B8000000 		.4byte	0xb8
 273 00b8 04       		.uleb128 0x4
 274 00b9 08       		.byte	0x8
 275 00ba 07       		.byte	0x7
 276 00bb 75070000 		.4byte	.LASF15
 277 00bf 03       		.uleb128 0x3
 278 00c0 FF050000 		.4byte	.LASF16
 279 00c4 04       		.byte	0x4
 280 00c5 45       		.byte	0x45
 281 00c6 1D       		.byte	0x1d
 282 00c7 99000000 		.4byte	0x99
 283 00cb 03       		.uleb128 0x3
 284 00cc 0A020000 		.4byte	.LASF17
 285 00d0 04       		.byte	0x4
ARM GAS  /tmp/ccjw355H.s 			page 6


 286 00d1 46       		.byte	0x46
 287 00d2 1D       		.byte	0x1d
 288 00d3 AC000000 		.4byte	0xac
 289 00d7 03       		.uleb128 0x3
 290 00d8 64080000 		.4byte	.LASF18
 291 00dc 04       		.byte	0x4
 292 00dd 48       		.byte	0x48
 293 00de 1D       		.byte	0x1d
 294 00df 73000000 		.4byte	0x73
 295 00e3 03       		.uleb128 0x3
 296 00e4 01020000 		.4byte	.LASF19
 297 00e8 04       		.byte	0x4
 298 00e9 49       		.byte	0x49
 299 00ea 1D       		.byte	0x1d
 300 00eb 73000000 		.4byte	0x73
 301 00ef 03       		.uleb128 0x3
 302 00f0 39090000 		.4byte	.LASF20
 303 00f4 04       		.byte	0x4
 304 00f5 4A       		.byte	0x4a
 305 00f6 1D       		.byte	0x1d
 306 00f7 73000000 		.4byte	0x73
 307 00fb 03       		.uleb128 0x3
 308 00fc DD070000 		.4byte	.LASF21
 309 0100 04       		.byte	0x4
 310 0101 4B       		.byte	0x4b
 311 0102 1D       		.byte	0x1d
 312 0103 73000000 		.4byte	0x73
 313 0107 03       		.uleb128 0x3
 314 0108 56000000 		.4byte	.LASF22
 315 010c 04       		.byte	0x4
 316 010d 4C       		.byte	0x4c
 317 010e 1D       		.byte	0x1d
 318 010f 99000000 		.4byte	0x99
 319 0113 03       		.uleb128 0x3
 320 0114 A9070000 		.4byte	.LASF23
 321 0118 04       		.byte	0x4
 322 0119 4D       		.byte	0x4d
 323 011a 1D       		.byte	0x1d
 324 011b 5B000000 		.4byte	0x5b
 325 011f 03       		.uleb128 0x3
 326 0120 68020000 		.4byte	.LASF24
 327 0124 04       		.byte	0x4
 328 0125 4F       		.byte	0x4f
 329 0126 1D       		.byte	0x1d
 330 0127 99000000 		.4byte	0x99
 331 012b 03       		.uleb128 0x3
 332 012c 4E030000 		.4byte	.LASF25
 333 0130 04       		.byte	0x4
 334 0131 51       		.byte	0x51
 335 0132 1D       		.byte	0x1d
 336 0133 5B000000 		.4byte	0x5b
 337 0137 03       		.uleb128 0x3
 338 0138 9D040000 		.4byte	.LASF26
 339 013c 04       		.byte	0x4
 340 013d 52       		.byte	0x52
 341 013e 1D       		.byte	0x1d
 342 013f 99000000 		.4byte	0x99
ARM GAS  /tmp/ccjw355H.s 			page 7


 343 0143 03       		.uleb128 0x3
 344 0144 2D000000 		.4byte	.LASF27
 345 0148 05       		.byte	0x5
 346 0149 33       		.byte	0x33
 347 014a 12       		.byte	0x12
 348 014b 99000000 		.4byte	0x99
 349 014f 05       		.uleb128 0x5
 350 0150 43010000 		.4byte	0x143
 351 0154 03       		.uleb128 0x3
 352 0155 CD060000 		.4byte	.LASF28
 353 0159 05       		.byte	0x5
 354 015a 3F       		.byte	0x3f
 355 015b 1A       		.byte	0x1a
 356 015c 60010000 		.4byte	0x160
 357 0160 06       		.uleb128 0x6
 358 0161 3B040000 		.4byte	.LASF52
 359 0165 68       		.byte	0x68
 360 0166 06       		.byte	0x6
 361 0167 C2       		.byte	0xc2
 362 0168 08       		.byte	0x8
 363 0169 95020000 		.4byte	0x295
 364 016d 07       		.uleb128 0x7
 365 016e AF010000 		.4byte	.LASF29
 366 0172 06       		.byte	0x6
 367 0173 C3       		.byte	0xc3
 368 0174 1A       		.byte	0x1a
 369 0175 A1020000 		.4byte	0x2a1
 370 0179 00       		.byte	0
 371 017a 07       		.uleb128 0x7
 372 017b EB010000 		.4byte	.LASF30
 373 017f 06       		.byte	0x6
 374 0180 C5       		.byte	0xc5
 375 0181 1A       		.byte	0x1a
 376 0182 A1020000 		.4byte	0x2a1
 377 0186 04       		.byte	0x4
 378 0187 07       		.uleb128 0x7
 379 0188 00030000 		.4byte	.LASF31
 380 018c 06       		.byte	0x6
 381 018d C7       		.byte	0xc7
 382 018e 19       		.byte	0x19
 383 018f 07010000 		.4byte	0x107
 384 0193 08       		.byte	0x8
 385 0194 07       		.uleb128 0x7
 386 0195 4A000000 		.4byte	.LASF32
 387 0199 06       		.byte	0x6
 388 019a C8       		.byte	0xc8
 389 019b 19       		.byte	0x19
 390 019c 4A050000 		.4byte	0x54a
 391 01a0 0C       		.byte	0xc
 392 01a1 07       		.uleb128 0x7
 393 01a2 90010000 		.4byte	.LASF33
 394 01a6 06       		.byte	0x6
 395 01a7 CA       		.byte	0xca
 396 01a8 1A       		.byte	0x1a
 397 01a9 A1020000 		.4byte	0x2a1
 398 01ad 10       		.byte	0x10
 399 01ae 07       		.uleb128 0x7
ARM GAS  /tmp/ccjw355H.s 			page 8


 400 01af 8C070000 		.4byte	.LASF34
 401 01b3 06       		.byte	0x6
 402 01b4 CB       		.byte	0xcb
 403 01b5 1A       		.byte	0x1a
 404 01b6 A1020000 		.4byte	0x2a1
 405 01ba 14       		.byte	0x14
 406 01bb 07       		.uleb128 0x7
 407 01bc D70B0000 		.4byte	.LASF35
 408 01c0 06       		.byte	0x6
 409 01c1 D2       		.byte	0xd2
 410 01c2 1A       		.byte	0x1a
 411 01c3 07090000 		.4byte	0x907
 412 01c7 18       		.byte	0x18
 413 01c8 07       		.uleb128 0x7
 414 01c9 B10B0000 		.4byte	.LASF36
 415 01cd 06       		.byte	0x6
 416 01ce D8       		.byte	0xd8
 417 01cf 1A       		.byte	0x1a
 418 01d0 1E090000 		.4byte	0x91e
 419 01d4 1C       		.byte	0x1c
 420 01d5 07       		.uleb128 0x7
 421 01d6 120C0000 		.4byte	.LASF37
 422 01da 06       		.byte	0x6
 423 01db DD       		.byte	0xdd
 424 01dc 19       		.byte	0x19
 425 01dd E3000000 		.4byte	0xe3
 426 01e1 20       		.byte	0x20
 427 01e2 07       		.uleb128 0x7
 428 01e3 DB050000 		.4byte	.LASF38
 429 01e7 06       		.byte	0x6
 430 01e8 E1       		.byte	0xe1
 431 01e9 19       		.byte	0x19
 432 01ea D7000000 		.4byte	0xd7
 433 01ee 21       		.byte	0x21
 434 01ef 07       		.uleb128 0x7
 435 01f0 18060000 		.4byte	.LASF39
 436 01f4 06       		.byte	0x6
 437 01f5 E6       		.byte	0xe6
 438 01f6 19       		.byte	0x19
 439 01f7 EF000000 		.4byte	0xef
 440 01fb 22       		.byte	0x22
 441 01fc 07       		.uleb128 0x7
 442 01fd 56020000 		.4byte	.LASF40
 443 0201 06       		.byte	0x6
 444 0202 EC       		.byte	0xec
 445 0203 19       		.byte	0x19
 446 0204 FB000000 		.4byte	0xfb
 447 0208 23       		.byte	0x23
 448 0209 07       		.uleb128 0x7
 449 020a A8060000 		.4byte	.LASF41
 450 020e 06       		.byte	0x6
 451 020f F3       		.byte	0xf3
 452 0210 19       		.byte	0x19
 453 0211 4F010000 		.4byte	0x14f
 454 0215 24       		.byte	0x24
 455 0216 08       		.uleb128 0x8
 456 0217 705F7500 		.ascii	"p_u\000"
ARM GAS  /tmp/ccjw355H.s 			page 9


 457 021b 06       		.byte	0x6
 458 021c 3101     		.2byte	0x131
 459 021e 19       		.byte	0x19
 460 021f 26080000 		.4byte	0x826
 461 0223 28       		.byte	0x28
 462 0224 09       		.uleb128 0x9
 463 0225 C7050000 		.4byte	.LASF42
 464 0229 06       		.byte	0x6
 465 022a 3601     		.2byte	0x136
 466 022c 19       		.byte	0x19
 467 022d A7020000 		.4byte	0x2a7
 468 0231 2C       		.byte	0x2c
 469 0232 09       		.uleb128 0x9
 470 0233 67000000 		.4byte	.LASF43
 471 0237 06       		.byte	0x6
 472 0238 3C01     		.2byte	0x13c
 473 023a 19       		.byte	0x19
 474 023b CE020000 		.4byte	0x2ce
 475 023f 30       		.byte	0x30
 476 0240 09       		.uleb128 0x9
 477 0241 0C0C0000 		.4byte	.LASF44
 478 0245 06       		.byte	0x6
 479 0246 4001     		.2byte	0x140
 480 0248 19       		.byte	0x19
 481 0249 13010000 		.4byte	0x113
 482 024d 38       		.byte	0x38
 483 024e 09       		.uleb128 0x9
 484 024f 7B030000 		.4byte	.LASF45
 485 0253 06       		.byte	0x6
 486 0254 4601     		.2byte	0x146
 487 0256 19       		.byte	0x19
 488 0257 1F010000 		.4byte	0x11f
 489 025b 3C       		.byte	0x3c
 490 025c 09       		.uleb128 0x9
 491 025d 23020000 		.4byte	.LASF46
 492 0261 06       		.byte	0x6
 493 0262 4D01     		.2byte	0x14d
 494 0264 1A       		.byte	0x1a
 495 0265 01090000 		.4byte	0x901
 496 0269 40       		.byte	0x40
 497 026a 09       		.uleb128 0x9
 498 026b F5060000 		.4byte	.LASF47
 499 026f 06       		.byte	0x6
 500 0270 5101     		.2byte	0x151
 501 0272 19       		.byte	0x19
 502 0273 07010000 		.4byte	0x107
 503 0277 44       		.byte	0x44
 504 0278 09       		.uleb128 0x9
 505 0279 07060000 		.4byte	.LASF48
 506 027d 06       		.byte	0x6
 507 027e 5801     		.2byte	0x158
 508 0280 1A       		.byte	0x1a
 509 0281 8E030000 		.4byte	0x38e
 510 0285 48       		.byte	0x48
 511 0286 09       		.uleb128 0x9
 512 0287 00000000 		.4byte	.LASF49
 513 028b 06       		.byte	0x6
ARM GAS  /tmp/ccjw355H.s 			page 10


 514 028c 5E01     		.2byte	0x15e
 515 028e 19       		.byte	0x19
 516 028f D0070000 		.4byte	0x7d0
 517 0293 50       		.byte	0x50
 518 0294 00       		.byte	0
 519 0295 03       		.uleb128 0x3
 520 0296 E2060000 		.4byte	.LASF50
 521 029a 05       		.byte	0x5
 522 029b 44       		.byte	0x44
 523 029c 14       		.byte	0x14
 524 029d A1020000 		.4byte	0x2a1
 525 02a1 0A       		.uleb128 0xa
 526 02a2 04       		.byte	0x4
 527 02a3 54010000 		.4byte	0x154
 528 02a7 03       		.uleb128 0x3
 529 02a8 58090000 		.4byte	.LASF51
 530 02ac 05       		.byte	0x5
 531 02ad 49       		.byte	0x49
 532 02ae 20       		.byte	0x20
 533 02af B3020000 		.4byte	0x2b3
 534 02b3 06       		.uleb128 0x6
 535 02b4 AC040000 		.4byte	.LASF53
 536 02b8 04       		.byte	0x4
 537 02b9 06       		.byte	0x6
 538 02ba B0       		.byte	0xb0
 539 02bb 08       		.byte	0x8
 540 02bc CE020000 		.4byte	0x2ce
 541 02c0 07       		.uleb128 0x7
 542 02c1 AF010000 		.4byte	.LASF29
 543 02c5 06       		.byte	0x6
 544 02c6 B1       		.byte	0xb1
 545 02c7 1A       		.byte	0x1a
 546 02c8 A1020000 		.4byte	0x2a1
 547 02cc 00       		.byte	0
 548 02cd 00       		.byte	0
 549 02ce 03       		.uleb128 0x3
 550 02cf 13020000 		.4byte	.LASF54
 551 02d3 05       		.byte	0x5
 552 02d4 50       		.byte	0x50
 553 02d5 21       		.byte	0x21
 554 02d6 DA020000 		.4byte	0x2da
 555 02da 06       		.uleb128 0x6
 556 02db AF070000 		.4byte	.LASF55
 557 02df 08       		.byte	0x8
 558 02e0 06       		.byte	0x6
 559 02e1 B7       		.byte	0xb7
 560 02e2 08       		.byte	0x8
 561 02e3 02030000 		.4byte	0x302
 562 02e7 07       		.uleb128 0x7
 563 02e8 AF010000 		.4byte	.LASF29
 564 02ec 06       		.byte	0x6
 565 02ed B8       		.byte	0xb8
 566 02ee 1A       		.byte	0x1a
 567 02ef A1020000 		.4byte	0x2a1
 568 02f3 00       		.byte	0
 569 02f4 07       		.uleb128 0x7
 570 02f5 EB010000 		.4byte	.LASF30
ARM GAS  /tmp/ccjw355H.s 			page 11


 571 02f9 06       		.byte	0x6
 572 02fa B9       		.byte	0xb9
 573 02fb 1A       		.byte	0x1a
 574 02fc A1020000 		.4byte	0x2a1
 575 0300 04       		.byte	0x4
 576 0301 00       		.byte	0
 577 0302 03       		.uleb128 0x3
 578 0303 84040000 		.4byte	.LASF56
 579 0307 05       		.byte	0x5
 580 0308 57       		.byte	0x57
 581 0309 1E       		.byte	0x1e
 582 030a 0E030000 		.4byte	0x30e
 583 030e 0B       		.uleb128 0xb
 584 030f 92030000 		.4byte	.LASF57
 585 0313 1C       		.byte	0x1c
 586 0314 06       		.byte	0x6
 587 0315 9001     		.2byte	0x190
 588 0317 08       		.byte	0x8
 589 0318 71030000 		.4byte	0x371
 590 031c 09       		.uleb128 0x9
 591 031d 3E080000 		.4byte	.LASF58
 592 0321 06       		.byte	0x6
 593 0322 9101     		.2byte	0x191
 594 0324 19       		.byte	0x19
 595 0325 CE020000 		.4byte	0x2ce
 596 0329 00       		.byte	0
 597 032a 09       		.uleb128 0x9
 598 032b DA080000 		.4byte	.LASF59
 599 032f 06       		.byte	0x6
 600 0330 9201     		.2byte	0x192
 601 0332 19       		.byte	0x19
 602 0333 07010000 		.4byte	0x107
 603 0337 08       		.byte	0x8
 604 0338 09       		.uleb128 0x9
 605 0339 79000000 		.4byte	.LASF60
 606 033d 06       		.byte	0x6
 607 033e 9401     		.2byte	0x194
 608 0340 19       		.byte	0x19
 609 0341 4A050000 		.4byte	0x54a
 610 0345 0C       		.byte	0xc
 611 0346 09       		.uleb128 0x9
 612 0347 C0020000 		.4byte	.LASF61
 613 034b 06       		.byte	0x6
 614 034c 9701     		.2byte	0x197
 615 034e 1A       		.byte	0x1a
 616 034f A1020000 		.4byte	0x2a1
 617 0353 10       		.byte	0x10
 618 0354 09       		.uleb128 0x9
 619 0355 87080000 		.4byte	.LASF62
 620 0359 06       		.byte	0x6
 621 035a 9801     		.2byte	0x198
 622 035c 1A       		.byte	0x1a
 623 035d A1020000 		.4byte	0x2a1
 624 0361 14       		.byte	0x14
 625 0362 09       		.uleb128 0x9
 626 0363 E7070000 		.4byte	.LASF63
 627 0367 06       		.byte	0x6
ARM GAS  /tmp/ccjw355H.s 			page 12


 628 0368 9B01     		.2byte	0x19b
 629 036a 1A       		.byte	0x1a
 630 036b A1020000 		.4byte	0x2a1
 631 036f 18       		.byte	0x18
 632 0370 00       		.byte	0
 633 0371 03       		.uleb128 0x3
 634 0372 A7000000 		.4byte	.LASF64
 635 0376 05       		.byte	0x5
 636 0377 5C       		.byte	0x5c
 637 0378 10       		.byte	0x10
 638 0379 7D030000 		.4byte	0x37d
 639 037d 0A       		.uleb128 0xa
 640 037e 04       		.byte	0x4
 641 037f 83030000 		.4byte	0x383
 642 0383 0C       		.uleb128 0xc
 643 0384 8E030000 		.4byte	0x38e
 644 0388 0D       		.uleb128 0xd
 645 0389 8E030000 		.4byte	0x38e
 646 038d 00       		.byte	0
 647 038e 0E       		.uleb128 0xe
 648 038f 04       		.byte	0x4
 649 0390 03       		.uleb128 0x3
 650 0391 74040000 		.4byte	.LASF65
 651 0395 05       		.byte	0x5
 652 0396 61       		.byte	0x61
 653 0397 21       		.byte	0x21
 654 0398 9C030000 		.4byte	0x39c
 655 039c 0B       		.uleb128 0xb
 656 039d 36070000 		.4byte	.LASF66
 657 03a1 14       		.byte	0x14
 658 03a2 06       		.byte	0x6
 659 03a3 6B01     		.2byte	0x16b
 660 03a5 08       		.byte	0x8
 661 03a6 F1030000 		.4byte	0x3f1
 662 03aa 09       		.uleb128 0x9
 663 03ab 53050000 		.4byte	.LASF67
 664 03af 06       		.byte	0x6
 665 03b0 6C01     		.2byte	0x16c
 666 03b2 1A       		.byte	0x1a
 667 03b3 24090000 		.4byte	0x924
 668 03b7 00       		.byte	0
 669 03b8 09       		.uleb128 0x9
 670 03b9 6C050000 		.4byte	.LASF68
 671 03bd 06       		.byte	0x6
 672 03be 6D01     		.2byte	0x16d
 673 03c0 1A       		.byte	0x1a
 674 03c1 24090000 		.4byte	0x924
 675 03c5 04       		.byte	0x4
 676 03c6 09       		.uleb128 0x9
 677 03c7 1E070000 		.4byte	.LASF69
 678 03cb 06       		.byte	0x6
 679 03cc 6E01     		.2byte	0x16e
 680 03ce 19       		.byte	0x19
 681 03cf 43010000 		.4byte	0x143
 682 03d3 08       		.byte	0x8
 683 03d4 09       		.uleb128 0x9
 684 03d5 54030000 		.4byte	.LASF70
ARM GAS  /tmp/ccjw355H.s 			page 13


 685 03d9 06       		.byte	0x6
 686 03da 6F01     		.2byte	0x16f
 687 03dc 19       		.byte	0x19
 688 03dd 71030000 		.4byte	0x371
 689 03e1 0C       		.byte	0xc
 690 03e2 09       		.uleb128 0x9
 691 03e3 51010000 		.4byte	.LASF71
 692 03e7 06       		.byte	0x6
 693 03e8 7101     		.2byte	0x171
 694 03ea 1A       		.byte	0x1a
 695 03eb 8E030000 		.4byte	0x38e
 696 03ef 10       		.byte	0x10
 697 03f0 00       		.byte	0
 698 03f1 03       		.uleb128 0x3
 699 03f2 45040000 		.4byte	.LASF72
 700 03f6 05       		.byte	0x5
 701 03f7 66       		.byte	0x66
 702 03f8 28       		.byte	0x28
 703 03f9 FD030000 		.4byte	0x3fd
 704 03fd 0B       		.uleb128 0xb
 705 03fe B0000000 		.4byte	.LASF73
 706 0402 10       		.byte	0x10
 707 0403 06       		.byte	0x6
 708 0404 7B01     		.2byte	0x17b
 709 0406 08       		.byte	0x8
 710 0407 44040000 		.4byte	0x444
 711 040b 09       		.uleb128 0x9
 712 040c 53050000 		.4byte	.LASF67
 713 0410 06       		.byte	0x6
 714 0411 7C01     		.2byte	0x17c
 715 0413 1A       		.byte	0x1a
 716 0414 24090000 		.4byte	0x924
 717 0418 00       		.byte	0
 718 0419 09       		.uleb128 0x9
 719 041a 6C050000 		.4byte	.LASF68
 720 041e 06       		.byte	0x6
 721 041f 7E01     		.2byte	0x17e
 722 0421 1A       		.byte	0x1a
 723 0422 24090000 		.4byte	0x924
 724 0426 04       		.byte	0x4
 725 0427 09       		.uleb128 0x9
 726 0428 1E070000 		.4byte	.LASF69
 727 042c 06       		.byte	0x6
 728 042d 8001     		.2byte	0x180
 729 042f 19       		.byte	0x19
 730 0430 43010000 		.4byte	0x143
 731 0434 08       		.byte	0x8
 732 0435 09       		.uleb128 0x9
 733 0436 7C080000 		.4byte	.LASF74
 734 043a 06       		.byte	0x6
 735 043b 8201     		.2byte	0x182
 736 043d 19       		.byte	0x19
 737 043e 4F010000 		.4byte	0x14f
 738 0442 0C       		.byte	0xc
 739 0443 00       		.byte	0
 740 0444 03       		.uleb128 0x3
 741 0445 E5020000 		.4byte	.LASF75
ARM GAS  /tmp/ccjw355H.s 			page 14


 742 0449 05       		.byte	0x5
 743 044a 6B       		.byte	0x6b
 744 044b 20       		.byte	0x20
 745 044c 50040000 		.4byte	0x450
 746 0450 0F       		.uleb128 0xf
 747 0451 E1080000 		.4byte	.LASF76
 748 0455 1404     		.2byte	0x414
 749 0457 06       		.byte	0x6
 750 0458 A201     		.2byte	0x1a2
 751 045a 08       		.byte	0x8
 752 045b 98040000 		.4byte	0x498
 753 045f 09       		.uleb128 0x9
 754 0460 90020000 		.4byte	.LASF77
 755 0464 06       		.byte	0x6
 756 0465 AA01     		.2byte	0x1aa
 757 0467 24       		.byte	0x24
 758 0468 0D090000 		.4byte	0x90d
 759 046c 00       		.byte	0
 760 046d 09       		.uleb128 0x9
 761 046e BA030000 		.4byte	.LASF78
 762 0472 06       		.byte	0x6
 763 0473 AF01     		.2byte	0x1af
 764 0475 19       		.byte	0x19
 765 0476 2B010000 		.4byte	0x12b
 766 047a 04       		.byte	0x4
 767 047b 09       		.uleb128 0x9
 768 047c 0F010000 		.4byte	.LASF79
 769 0480 06       		.byte	0x6
 770 0481 B301     		.2byte	0x1b3
 771 0483 19       		.byte	0x19
 772 0484 2B010000 		.4byte	0x12b
 773 0488 08       		.byte	0x8
 774 0489 09       		.uleb128 0x9
 775 048a B3020000 		.4byte	.LASF80
 776 048e 06       		.byte	0x6
 777 048f B901     		.2byte	0x1b9
 778 0491 19       		.byte	0x19
 779 0492 58070000 		.4byte	0x758
 780 0496 0C       		.byte	0xc
 781 0497 00       		.byte	0
 782 0498 03       		.uleb128 0x3
 783 0499 820B0000 		.4byte	.LASF81
 784 049d 05       		.byte	0x5
 785 049e 70       		.byte	0x70
 786 049f 1A       		.byte	0x1a
 787 04a0 A4040000 		.4byte	0x4a4
 788 04a4 0F       		.uleb128 0xf
 789 04a5 010B0000 		.4byte	.LASF82
 790 04a9 7006     		.2byte	0x670
 791 04ab 06       		.byte	0x6
 792 04ac C201     		.2byte	0x1c2
 793 04ae 08       		.byte	0x8
 794 04af 19050000 		.4byte	0x519
 795 04b3 09       		.uleb128 0x9
 796 04b4 5E080000 		.4byte	.LASF83
 797 04b8 06       		.byte	0x6
 798 04b9 C601     		.2byte	0x1c6
ARM GAS  /tmp/ccjw355H.s 			page 15


 799 04bb 19       		.byte	0x19
 800 04bc 02030000 		.4byte	0x302
 801 04c0 00       		.byte	0
 802 04c1 09       		.uleb128 0x9
 803 04c2 11090000 		.4byte	.LASF84
 804 04c6 06       		.byte	0x6
 805 04c7 CA01     		.2byte	0x1ca
 806 04c9 19       		.byte	0x19
 807 04ca F1030000 		.4byte	0x3f1
 808 04ce 1C       		.byte	0x1c
 809 04cf 08       		.uleb128 0x8
 810 04d0 64626700 		.ascii	"dbg\000"
 811 04d4 06       		.byte	0x6
 812 04d5 CE01     		.2byte	0x1ce
 813 04d7 19       		.byte	0x19
 814 04d8 44040000 		.4byte	0x444
 815 04dc 2C       		.byte	0x2c
 816 04dd 10       		.uleb128 0x10
 817 04de 13080000 		.4byte	.LASF85
 818 04e2 06       		.byte	0x6
 819 04e3 D201     		.2byte	0x1d2
 820 04e5 19       		.byte	0x19
 821 04e6 54010000 		.4byte	0x154
 822 04ea 4004     		.2byte	0x440
 823 04ec 11       		.uleb128 0x11
 824 04ed 746D00   		.ascii	"tm\000"
 825 04f0 06       		.byte	0x6
 826 04f1 D701     		.2byte	0x1d7
 827 04f3 19       		.byte	0x19
 828 04f4 7B070000 		.4byte	0x77b
 829 04f8 A804     		.2byte	0x4a8
 830 04fa 10       		.uleb128 0x10
 831 04fb 5B070000 		.4byte	.LASF86
 832 04ff 06       		.byte	0x6
 833 0500 DD01     		.2byte	0x1dd
 834 0502 19       		.byte	0x19
 835 0503 1A080000 		.4byte	0x81a
 836 0507 B004     		.2byte	0x4b0
 837 0509 10       		.uleb128 0x10
 838 050a E3050000 		.4byte	.LASF87
 839 050e 06       		.byte	0x6
 840 050f E301     		.2byte	0x1e3
 841 0511 03       		.byte	0x3
 842 0512 2A090000 		.4byte	0x92a
 843 0516 E804     		.2byte	0x4e8
 844 0518 00       		.byte	0
 845 0519 12       		.uleb128 0x12
 846 051a AB050000 		.4byte	.LASF88
 847 051e 07       		.byte	0x7
 848 051f A706     		.2byte	0x6a7
 849 0521 19       		.byte	0x19
 850 0522 67000000 		.4byte	0x67
 851 0526 13       		.uleb128 0x13
 852 0527 1E040000 		.4byte	.LASF89
 853 052b 08       		.byte	0x8
 854 052c 4C       		.byte	0x4c
 855 052d 11       		.byte	0x11
ARM GAS  /tmp/ccjw355H.s 			page 16


 856 052e 99000000 		.4byte	0x99
 857 0532 03       		.uleb128 0x3
 858 0533 2D020000 		.4byte	.LASF90
 859 0537 09       		.byte	0x9
 860 0538 65       		.byte	0x65
 861 0539 0F       		.byte	0xf
 862 053a 8E030000 		.4byte	0x38e
 863 053e 03       		.uleb128 0x3
 864 053f 31030000 		.4byte	.LASF91
 865 0543 09       		.byte	0x9
 866 0544 6D       		.byte	0x6d
 867 0545 12       		.byte	0x12
 868 0546 AC000000 		.4byte	0xac
 869 054a 06       		.uleb128 0x6
 870 054b 74020000 		.4byte	.LASF92
 871 054f 04       		.byte	0x4
 872 0550 09       		.byte	0x9
 873 0551 89       		.byte	0x89
 874 0552 08       		.byte	0x8
 875 0553 65050000 		.4byte	0x565
 876 0557 14       		.uleb128 0x14
 877 0558 72313300 		.ascii	"r13\000"
 878 055c 09       		.byte	0x9
 879 055d 8A       		.byte	0x8a
 880 055e 17       		.byte	0x17
 881 055f C0060000 		.4byte	0x6c0
 882 0563 00       		.byte	0
 883 0564 00       		.byte	0
 884 0565 06       		.uleb128 0x6
 885 0566 00070000 		.4byte	.LASF93
 886 056a 64       		.byte	0x64
 887 056b 0A       		.byte	0xa
 888 056c F4       		.byte	0xf4
 889 056d 08       		.byte	0x8
 890 056e C0060000 		.4byte	0x6c0
 891 0572 14       		.uleb128 0x14
 892 0573 73313600 		.ascii	"s16\000"
 893 0577 0A       		.byte	0xa
 894 0578 F6       		.byte	0xf6
 895 0579 11       		.byte	0x11
 896 057a 32050000 		.4byte	0x532
 897 057e 00       		.byte	0
 898 057f 14       		.uleb128 0x14
 899 0580 73313700 		.ascii	"s17\000"
 900 0584 0A       		.byte	0xa
 901 0585 F7       		.byte	0xf7
 902 0586 11       		.byte	0x11
 903 0587 32050000 		.4byte	0x532
 904 058b 04       		.byte	0x4
 905 058c 14       		.uleb128 0x14
 906 058d 73313800 		.ascii	"s18\000"
 907 0591 0A       		.byte	0xa
 908 0592 F8       		.byte	0xf8
 909 0593 11       		.byte	0x11
 910 0594 32050000 		.4byte	0x532
 911 0598 08       		.byte	0x8
 912 0599 14       		.uleb128 0x14
ARM GAS  /tmp/ccjw355H.s 			page 17


 913 059a 73313900 		.ascii	"s19\000"
 914 059e 0A       		.byte	0xa
 915 059f F9       		.byte	0xf9
 916 05a0 11       		.byte	0x11
 917 05a1 32050000 		.4byte	0x532
 918 05a5 0C       		.byte	0xc
 919 05a6 14       		.uleb128 0x14
 920 05a7 73323000 		.ascii	"s20\000"
 921 05ab 0A       		.byte	0xa
 922 05ac FA       		.byte	0xfa
 923 05ad 11       		.byte	0x11
 924 05ae 32050000 		.4byte	0x532
 925 05b2 10       		.byte	0x10
 926 05b3 14       		.uleb128 0x14
 927 05b4 73323100 		.ascii	"s21\000"
 928 05b8 0A       		.byte	0xa
 929 05b9 FB       		.byte	0xfb
 930 05ba 11       		.byte	0x11
 931 05bb 32050000 		.4byte	0x532
 932 05bf 14       		.byte	0x14
 933 05c0 14       		.uleb128 0x14
 934 05c1 73323200 		.ascii	"s22\000"
 935 05c5 0A       		.byte	0xa
 936 05c6 FC       		.byte	0xfc
 937 05c7 11       		.byte	0x11
 938 05c8 32050000 		.4byte	0x532
 939 05cc 18       		.byte	0x18
 940 05cd 14       		.uleb128 0x14
 941 05ce 73323300 		.ascii	"s23\000"
 942 05d2 0A       		.byte	0xa
 943 05d3 FD       		.byte	0xfd
 944 05d4 11       		.byte	0x11
 945 05d5 32050000 		.4byte	0x532
 946 05d9 1C       		.byte	0x1c
 947 05da 14       		.uleb128 0x14
 948 05db 73323400 		.ascii	"s24\000"
 949 05df 0A       		.byte	0xa
 950 05e0 FE       		.byte	0xfe
 951 05e1 11       		.byte	0x11
 952 05e2 32050000 		.4byte	0x532
 953 05e6 20       		.byte	0x20
 954 05e7 14       		.uleb128 0x14
 955 05e8 73323500 		.ascii	"s25\000"
 956 05ec 0A       		.byte	0xa
 957 05ed FF       		.byte	0xff
 958 05ee 11       		.byte	0x11
 959 05ef 32050000 		.4byte	0x532
 960 05f3 24       		.byte	0x24
 961 05f4 08       		.uleb128 0x8
 962 05f5 73323600 		.ascii	"s26\000"
 963 05f9 0A       		.byte	0xa
 964 05fa 0001     		.2byte	0x100
 965 05fc 11       		.byte	0x11
 966 05fd 32050000 		.4byte	0x532
 967 0601 28       		.byte	0x28
 968 0602 08       		.uleb128 0x8
 969 0603 73323700 		.ascii	"s27\000"
ARM GAS  /tmp/ccjw355H.s 			page 18


 970 0607 0A       		.byte	0xa
 971 0608 0101     		.2byte	0x101
 972 060a 11       		.byte	0x11
 973 060b 32050000 		.4byte	0x532
 974 060f 2C       		.byte	0x2c
 975 0610 08       		.uleb128 0x8
 976 0611 73323800 		.ascii	"s28\000"
 977 0615 0A       		.byte	0xa
 978 0616 0201     		.2byte	0x102
 979 0618 11       		.byte	0x11
 980 0619 32050000 		.4byte	0x532
 981 061d 30       		.byte	0x30
 982 061e 08       		.uleb128 0x8
 983 061f 73323900 		.ascii	"s29\000"
 984 0623 0A       		.byte	0xa
 985 0624 0301     		.2byte	0x103
 986 0626 11       		.byte	0x11
 987 0627 32050000 		.4byte	0x532
 988 062b 34       		.byte	0x34
 989 062c 08       		.uleb128 0x8
 990 062d 73333000 		.ascii	"s30\000"
 991 0631 0A       		.byte	0xa
 992 0632 0401     		.2byte	0x104
 993 0634 11       		.byte	0x11
 994 0635 32050000 		.4byte	0x532
 995 0639 38       		.byte	0x38
 996 063a 08       		.uleb128 0x8
 997 063b 73333100 		.ascii	"s31\000"
 998 063f 0A       		.byte	0xa
 999 0640 0501     		.2byte	0x105
 1000 0642 11       		.byte	0x11
 1001 0643 32050000 		.4byte	0x532
 1002 0647 3C       		.byte	0x3c
 1003 0648 08       		.uleb128 0x8
 1004 0649 723400   		.ascii	"r4\000"
 1005 064c 0A       		.byte	0xa
 1006 064d 0701     		.2byte	0x107
 1007 064f 11       		.byte	0x11
 1008 0650 32050000 		.4byte	0x532
 1009 0654 40       		.byte	0x40
 1010 0655 08       		.uleb128 0x8
 1011 0656 723500   		.ascii	"r5\000"
 1012 0659 0A       		.byte	0xa
 1013 065a 0801     		.2byte	0x108
 1014 065c 11       		.byte	0x11
 1015 065d 32050000 		.4byte	0x532
 1016 0661 44       		.byte	0x44
 1017 0662 08       		.uleb128 0x8
 1018 0663 723600   		.ascii	"r6\000"
 1019 0666 0A       		.byte	0xa
 1020 0667 0901     		.2byte	0x109
 1021 0669 11       		.byte	0x11
 1022 066a 32050000 		.4byte	0x532
 1023 066e 48       		.byte	0x48
 1024 066f 08       		.uleb128 0x8
 1025 0670 723700   		.ascii	"r7\000"
 1026 0673 0A       		.byte	0xa
ARM GAS  /tmp/ccjw355H.s 			page 19


 1027 0674 0A01     		.2byte	0x10a
 1028 0676 11       		.byte	0x11
 1029 0677 32050000 		.4byte	0x532
 1030 067b 4C       		.byte	0x4c
 1031 067c 08       		.uleb128 0x8
 1032 067d 723800   		.ascii	"r8\000"
 1033 0680 0A       		.byte	0xa
 1034 0681 0B01     		.2byte	0x10b
 1035 0683 11       		.byte	0x11
 1036 0684 32050000 		.4byte	0x532
 1037 0688 50       		.byte	0x50
 1038 0689 08       		.uleb128 0x8
 1039 068a 723900   		.ascii	"r9\000"
 1040 068d 0A       		.byte	0xa
 1041 068e 0C01     		.2byte	0x10c
 1042 0690 11       		.byte	0x11
 1043 0691 32050000 		.4byte	0x532
 1044 0695 54       		.byte	0x54
 1045 0696 08       		.uleb128 0x8
 1046 0697 72313000 		.ascii	"r10\000"
 1047 069b 0A       		.byte	0xa
 1048 069c 0D01     		.2byte	0x10d
 1049 069e 11       		.byte	0x11
 1050 069f 32050000 		.4byte	0x532
 1051 06a3 58       		.byte	0x58
 1052 06a4 08       		.uleb128 0x8
 1053 06a5 72313100 		.ascii	"r11\000"
 1054 06a9 0A       		.byte	0xa
 1055 06aa 0E01     		.2byte	0x10e
 1056 06ac 11       		.byte	0x11
 1057 06ad 32050000 		.4byte	0x532
 1058 06b1 5C       		.byte	0x5c
 1059 06b2 08       		.uleb128 0x8
 1060 06b3 6C7200   		.ascii	"lr\000"
 1061 06b6 0A       		.byte	0xa
 1062 06b7 0F01     		.2byte	0x10f
 1063 06b9 11       		.byte	0x11
 1064 06ba 32050000 		.4byte	0x532
 1065 06be 60       		.byte	0x60
 1066 06bf 00       		.byte	0
 1067 06c0 0A       		.uleb128 0xa
 1068 06c1 04       		.byte	0x4
 1069 06c2 65050000 		.4byte	0x565
 1070 06c6 15       		.uleb128 0x15
 1071 06c7 10       		.byte	0x10
 1072 06c8 0B       		.byte	0xb
 1073 06c9 51       		.byte	0x51
 1074 06ca 09       		.byte	0x9
 1075 06cb 04070000 		.4byte	0x704
 1076 06cf 07       		.uleb128 0x7
 1077 06d0 CF0B0000 		.4byte	.LASF94
 1078 06d4 0B       		.byte	0xb
 1079 06d5 55       		.byte	0x55
 1080 06d6 19       		.byte	0x19
 1081 06d7 43010000 		.4byte	0x143
 1082 06db 00       		.byte	0
 1083 06dc 07       		.uleb128 0x7
ARM GAS  /tmp/ccjw355H.s 			page 20


 1084 06dd 30010000 		.4byte	.LASF95
 1085 06e1 0B       		.byte	0xb
 1086 06e2 59       		.byte	0x59
 1087 06e3 1A       		.byte	0x1a
 1088 06e4 A1020000 		.4byte	0x2a1
 1089 06e8 04       		.byte	0x4
 1090 06e9 07       		.uleb128 0x7
 1091 06ea D1050000 		.4byte	.LASF96
 1092 06ee 0B       		.byte	0xb
 1093 06ef 5D       		.byte	0x5d
 1094 06f0 1A       		.byte	0x1a
 1095 06f1 8E030000 		.4byte	0x38e
 1096 06f5 08       		.byte	0x8
 1097 06f6 07       		.uleb128 0x7
 1098 06f7 CD030000 		.4byte	.LASF97
 1099 06fb 0B       		.byte	0xb
 1100 06fc 61       		.byte	0x61
 1101 06fd 19       		.byte	0x19
 1102 06fe 73000000 		.4byte	0x73
 1103 0702 0C       		.byte	0xc
 1104 0703 00       		.byte	0
 1105 0704 03       		.uleb128 0x3
 1106 0705 CA040000 		.4byte	.LASF98
 1107 0709 0B       		.byte	0xb
 1108 070a 62       		.byte	0x62
 1109 070b 03       		.byte	0x3
 1110 070c C6060000 		.4byte	0x6c6
 1111 0710 16       		.uleb128 0x16
 1112 0711 0804     		.2byte	0x408
 1113 0713 0B       		.byte	0xb
 1114 0714 67       		.byte	0x67
 1115 0715 09       		.byte	0x9
 1116 0716 42070000 		.4byte	0x742
 1117 071a 07       		.uleb128 0x7
 1118 071b 83050000 		.4byte	.LASF99
 1119 071f 0B       		.byte	0xb
 1120 0720 6B       		.byte	0x6b
 1121 0721 19       		.byte	0x19
 1122 0722 38000000 		.4byte	0x38
 1123 0726 00       		.byte	0
 1124 0727 07       		.uleb128 0x7
 1125 0728 E50B0000 		.4byte	.LASF100
 1126 072c 0B       		.byte	0xb
 1127 072d 6F       		.byte	0x6f
 1128 072e 1A       		.byte	0x1a
 1129 072f 42070000 		.4byte	0x742
 1130 0733 04       		.byte	0x4
 1131 0734 07       		.uleb128 0x7
 1132 0735 96060000 		.4byte	.LASF101
 1133 0739 0B       		.byte	0xb
 1134 073a 73       		.byte	0x73
 1135 073b 19       		.byte	0x19
 1136 073c 48070000 		.4byte	0x748
 1137 0740 08       		.byte	0x8
 1138 0741 00       		.byte	0
 1139 0742 0A       		.uleb128 0xa
 1140 0743 04       		.byte	0x4
ARM GAS  /tmp/ccjw355H.s 			page 21


 1141 0744 04070000 		.4byte	0x704
 1142 0748 17       		.uleb128 0x17
 1143 0749 04070000 		.4byte	0x704
 1144 074d 58070000 		.4byte	0x758
 1145 0751 18       		.uleb128 0x18
 1146 0752 38000000 		.4byte	0x38
 1147 0756 3F       		.byte	0x3f
 1148 0757 00       		.byte	0
 1149 0758 03       		.uleb128 0x3
 1150 0759 69030000 		.4byte	.LASF102
 1151 075d 0B       		.byte	0xb
 1152 075e 74       		.byte	0x74
 1153 075f 03       		.byte	0x3
 1154 0760 10070000 		.4byte	0x710
 1155 0764 15       		.uleb128 0x15
 1156 0765 04       		.byte	0x4
 1157 0766 0C       		.byte	0xc
 1158 0767 38       		.byte	0x38
 1159 0768 09       		.byte	0x9
 1160 0769 7B070000 		.4byte	0x77b
 1161 076d 07       		.uleb128 0x7
 1162 076e 8F060000 		.4byte	.LASF103
 1163 0772 0C       		.byte	0xc
 1164 0773 3C       		.byte	0x3c
 1165 0774 19       		.byte	0x19
 1166 0775 BF000000 		.4byte	0xbf
 1167 0779 00       		.byte	0
 1168 077a 00       		.byte	0
 1169 077b 03       		.uleb128 0x3
 1170 077c 8F080000 		.4byte	.LASF104
 1171 0780 0C       		.byte	0xc
 1172 0781 3D       		.byte	0x3d
 1173 0782 03       		.byte	0x3
 1174 0783 64070000 		.4byte	0x764
 1175 0787 15       		.uleb128 0x15
 1176 0788 18       		.byte	0x18
 1177 0789 0C       		.byte	0xc
 1178 078a 48       		.byte	0x48
 1179 078b 09       		.byte	0x9
 1180 078c D0070000 		.4byte	0x7d0
 1181 0790 07       		.uleb128 0x7
 1182 0791 2E080000 		.4byte	.LASF105
 1183 0795 0C       		.byte	0xc
 1184 0796 49       		.byte	0x49
 1185 0797 19       		.byte	0x19
 1186 0798 BF000000 		.4byte	0xbf
 1187 079c 00       		.byte	0
 1188 079d 07       		.uleb128 0x7
 1189 079e 48030000 		.4byte	.LASF106
 1190 07a2 0C       		.byte	0xc
 1191 07a3 4A       		.byte	0x4a
 1192 07a4 19       		.byte	0x19
 1193 07a5 BF000000 		.4byte	0xbf
 1194 07a9 04       		.byte	0x4
 1195 07aa 07       		.uleb128 0x7
 1196 07ab 070C0000 		.4byte	.LASF107
 1197 07af 0C       		.byte	0xc
ARM GAS  /tmp/ccjw355H.s 			page 22


 1198 07b0 4B       		.byte	0x4b
 1199 07b1 19       		.byte	0x19
 1200 07b2 BF000000 		.4byte	0xbf
 1201 07b6 08       		.byte	0x8
 1202 07b7 14       		.uleb128 0x14
 1203 07b8 6E00     		.ascii	"n\000"
 1204 07ba 0C       		.byte	0xc
 1205 07bb 4C       		.byte	0x4c
 1206 07bc 19       		.byte	0x19
 1207 07bd 37010000 		.4byte	0x137
 1208 07c1 0C       		.byte	0xc
 1209 07c2 07       		.uleb128 0x7
 1210 07c3 3F020000 		.4byte	.LASF108
 1211 07c7 0C       		.byte	0xc
 1212 07c8 4D       		.byte	0x4d
 1213 07c9 19       		.byte	0x19
 1214 07ca CB000000 		.4byte	0xcb
 1215 07ce 10       		.byte	0x10
 1216 07cf 00       		.byte	0
 1217 07d0 03       		.uleb128 0x3
 1218 07d1 36010000 		.4byte	.LASF109
 1219 07d5 0C       		.byte	0xc
 1220 07d6 4E       		.byte	0x4e
 1221 07d7 03       		.byte	0x3
 1222 07d8 87070000 		.4byte	0x787
 1223 07dc 15       		.uleb128 0x15
 1224 07dd 38       		.byte	0x38
 1225 07de 0D       		.byte	0xd
 1226 07df 38       		.byte	0x38
 1227 07e0 09       		.byte	0x9
 1228 07e1 1A080000 		.4byte	0x81a
 1229 07e5 07       		.uleb128 0x7
 1230 07e6 E1040000 		.4byte	.LASF110
 1231 07ea 0D       		.byte	0xd
 1232 07eb 39       		.byte	0x39
 1233 07ec 19       		.byte	0x19
 1234 07ed 37010000 		.4byte	0x137
 1235 07f1 00       		.byte	0
 1236 07f2 07       		.uleb128 0x7
 1237 07f3 14030000 		.4byte	.LASF111
 1238 07f7 0D       		.byte	0xd
 1239 07f8 3A       		.byte	0x3a
 1240 07f9 19       		.byte	0x19
 1241 07fa 37010000 		.4byte	0x137
 1242 07fe 04       		.byte	0x4
 1243 07ff 07       		.uleb128 0x7
 1244 0800 D6030000 		.4byte	.LASF112
 1245 0804 0D       		.byte	0xd
 1246 0805 3B       		.byte	0x3b
 1247 0806 19       		.byte	0x19
 1248 0807 D0070000 		.4byte	0x7d0
 1249 080b 08       		.byte	0x8
 1250 080c 07       		.uleb128 0x7
 1251 080d C2030000 		.4byte	.LASF113
 1252 0811 0D       		.byte	0xd
 1253 0812 3D       		.byte	0x3d
 1254 0813 19       		.byte	0x19
ARM GAS  /tmp/ccjw355H.s 			page 23


 1255 0814 D0070000 		.4byte	0x7d0
 1256 0818 20       		.byte	0x20
 1257 0819 00       		.byte	0
 1258 081a 03       		.uleb128 0x3
 1259 081b 44060000 		.4byte	.LASF114
 1260 081f 0D       		.byte	0xd
 1261 0820 3F       		.byte	0x3f
 1262 0821 03       		.byte	0x3
 1263 0822 DC070000 		.4byte	0x7dc
 1264 0826 19       		.uleb128 0x19
 1265 0827 04       		.byte	0x4
 1266 0828 06       		.byte	0x6
 1267 0829 FA       		.byte	0xfa
 1268 082a 03       		.byte	0x3
 1269 082b 8B080000 		.4byte	0x88b
 1270 082f 1A       		.uleb128 0x1a
 1271 0830 590B0000 		.4byte	.LASF115
 1272 0834 06       		.byte	0x6
 1273 0835 0101     		.2byte	0x101
 1274 0837 19       		.byte	0x19
 1275 0838 13010000 		.4byte	0x113
 1276 083c 1A       		.uleb128 0x1a
 1277 083d 5E010000 		.4byte	.LASF116
 1278 0841 06       		.byte	0x6
 1279 0842 0801     		.2byte	0x108
 1280 0844 19       		.byte	0x19
 1281 0845 13010000 		.4byte	0x113
 1282 0849 1A       		.uleb128 0x1a
 1283 084a 0D030000 		.4byte	.LASF117
 1284 084e 06       		.byte	0x6
 1285 084f 0F01     		.2byte	0x10f
 1286 0851 1A       		.byte	0x1a
 1287 0852 8E030000 		.4byte	0x38e
 1288 0856 1A       		.uleb128 0x1a
 1289 0857 7C020000 		.4byte	.LASF118
 1290 085b 06       		.byte	0x6
 1291 085c 1601     		.2byte	0x116
 1292 085e 1A       		.byte	0x1a
 1293 085f 8B080000 		.4byte	0x88b
 1294 0863 1A       		.uleb128 0x1a
 1295 0864 1A000000 		.4byte	.LASF119
 1296 0868 06       		.byte	0x6
 1297 0869 1E01     		.2byte	0x11e
 1298 086b 1A       		.byte	0x1a
 1299 086c B9080000 		.4byte	0x8b9
 1300 0870 1A       		.uleb128 0x1a
 1301 0871 86030000 		.4byte	.LASF120
 1302 0875 06       		.byte	0x6
 1303 0876 2701     		.2byte	0x127
 1304 0878 1A       		.byte	0x1a
 1305 0879 01090000 		.4byte	0x901
 1306 087d 1A       		.uleb128 0x1a
 1307 087e 67010000 		.4byte	.LASF121
 1308 0882 06       		.byte	0x6
 1309 0883 2F01     		.2byte	0x12f
 1310 0885 19       		.byte	0x19
 1311 0886 1F010000 		.4byte	0x11f
ARM GAS  /tmp/ccjw355H.s 			page 24


 1312 088a 00       		.byte	0
 1313 088b 0A       		.uleb128 0xa
 1314 088c 04       		.byte	0x4
 1315 088d 95020000 		.4byte	0x295
 1316 0891 06       		.uleb128 0x6
 1317 0892 2E040000 		.4byte	.LASF122
 1318 0896 0C       		.byte	0xc
 1319 0897 0E       		.byte	0xe
 1320 0898 34       		.byte	0x34
 1321 0899 10       		.byte	0x10
 1322 089a B9080000 		.4byte	0x8b9
 1323 089e 07       		.uleb128 0x7
 1324 089f A0080000 		.4byte	.LASF123
 1325 08a3 0E       		.byte	0xe
 1326 08a4 35       		.byte	0x35
 1327 08a5 19       		.byte	0x19
 1328 08a6 CE020000 		.4byte	0x2ce
 1329 08aa 00       		.byte	0
 1330 08ab 07       		.uleb128 0x7
 1331 08ac 47070000 		.4byte	.LASF124
 1332 08b0 0E       		.byte	0xe
 1333 08b1 37       		.byte	0x37
 1334 08b2 19       		.byte	0x19
 1335 08b3 2B010000 		.4byte	0x12b
 1336 08b7 08       		.byte	0x8
 1337 08b8 00       		.byte	0
 1338 08b9 0A       		.uleb128 0xa
 1339 08ba 04       		.byte	0x4
 1340 08bb 91080000 		.4byte	0x891
 1341 08bf 06       		.uleb128 0x6
 1342 08c0 C8080000 		.4byte	.LASF125
 1343 08c4 14       		.byte	0x14
 1344 08c5 0F       		.byte	0xf
 1345 08c6 39       		.byte	0x39
 1346 08c7 08       		.byte	0x8
 1347 08c8 01090000 		.4byte	0x901
 1348 08cc 07       		.uleb128 0x7
 1349 08cd 44050000 		.4byte	.LASF126
 1350 08d1 0F       		.byte	0xf
 1351 08d2 3A       		.byte	0x3a
 1352 08d3 19       		.byte	0x19
 1353 08d4 CE020000 		.4byte	0x2ce
 1354 08d8 00       		.byte	0
 1355 08d9 07       		.uleb128 0x7
 1356 08da 49010000 		.4byte	.LASF127
 1357 08de 0F       		.byte	0xf
 1358 08df 3C       		.byte	0x3c
 1359 08e0 1A       		.byte	0x1a
 1360 08e1 A1020000 		.4byte	0x2a1
 1361 08e5 08       		.byte	0x8
 1362 08e6 07       		.uleb128 0x7
 1363 08e7 DE0B0000 		.4byte	.LASF128
 1364 08eb 0F       		.byte	0xf
 1365 08ec 3E       		.byte	0x3e
 1366 08ed 1A       		.byte	0x1a
 1367 08ee 730A0000 		.4byte	0xa73
 1368 08f2 0C       		.byte	0xc
ARM GAS  /tmp/ccjw355H.s 			page 25


 1369 08f3 07       		.uleb128 0x7
 1370 08f4 07030000 		.4byte	.LASF129
 1371 08f8 0F       		.byte	0xf
 1372 08f9 41       		.byte	0x41
 1373 08fa 19       		.byte	0x19
 1374 08fb 2B010000 		.4byte	0x12b
 1375 08ff 10       		.byte	0x10
 1376 0900 00       		.byte	0
 1377 0901 0A       		.uleb128 0xa
 1378 0902 04       		.byte	0x4
 1379 0903 BF080000 		.4byte	0x8bf
 1380 0907 0A       		.uleb128 0xa
 1381 0908 04       		.byte	0x4
 1382 0909 19090000 		.4byte	0x919
 1383 090d 05       		.uleb128 0x5
 1384 090e 07090000 		.4byte	0x907
 1385 0912 04       		.uleb128 0x4
 1386 0913 01       		.byte	0x1
 1387 0914 08       		.byte	0x8
 1388 0915 F4020000 		.4byte	.LASF130
 1389 0919 1B       		.uleb128 0x1b
 1390 091a 12090000 		.4byte	0x912
 1391 091e 0A       		.uleb128 0xa
 1392 091f 04       		.byte	0x4
 1393 0920 3E050000 		.4byte	0x53e
 1394 0924 0A       		.uleb128 0xa
 1395 0925 04       		.byte	0x4
 1396 0926 90030000 		.4byte	0x390
 1397 092a 17       		.uleb128 0x17
 1398 092b 3E050000 		.4byte	0x53e
 1399 092f 3A090000 		.4byte	0x93a
 1400 0933 18       		.uleb128 0x18
 1401 0934 38000000 		.4byte	0x38
 1402 0938 30       		.byte	0x30
 1403 0939 00       		.byte	0
 1404 093a 1C       		.uleb128 0x1c
 1405 093b 636800   		.ascii	"ch\000"
 1406 093e 06       		.byte	0x6
 1407 093f 0902     		.2byte	0x209
 1408 0941 14       		.byte	0x14
 1409 0942 98040000 		.4byte	0x498
 1410 0946 15       		.uleb128 0x15
 1411 0947 16       		.byte	0x16
 1412 0948 10       		.byte	0x10
 1413 0949 34       		.byte	0x34
 1414 094a 09       		.byte	0x9
 1415 094b 3A0A0000 		.4byte	0xa3a
 1416 094f 07       		.uleb128 0x7
 1417 0950 3C000000 		.4byte	.LASF131
 1418 0954 10       		.byte	0x10
 1419 0955 35       		.byte	0x35
 1420 0956 0D       		.byte	0xd
 1421 0957 3A0A0000 		.4byte	0xa3a
 1422 095b 00       		.byte	0
 1423 095c 07       		.uleb128 0x7
 1424 095d FB030000 		.4byte	.LASF132
 1425 0961 10       		.byte	0x10
ARM GAS  /tmp/ccjw355H.s 			page 26


 1426 0962 36       		.byte	0x36
 1427 0963 0D       		.byte	0xd
 1428 0964 73000000 		.4byte	0x73
 1429 0968 04       		.byte	0x4
 1430 0969 07       		.uleb128 0x7
 1431 096a 980B0000 		.4byte	.LASF133
 1432 096e 10       		.byte	0x10
 1433 096f 37       		.byte	0x37
 1434 0970 0D       		.byte	0xd
 1435 0971 73000000 		.4byte	0x73
 1436 0975 05       		.byte	0x5
 1437 0976 07       		.uleb128 0x7
 1438 0977 39050000 		.4byte	.LASF134
 1439 097b 10       		.byte	0x10
 1440 097c 38       		.byte	0x38
 1441 097d 0D       		.byte	0xd
 1442 097e 86000000 		.4byte	0x86
 1443 0982 06       		.byte	0x6
 1444 0983 07       		.uleb128 0x7
 1445 0984 18010000 		.4byte	.LASF135
 1446 0988 10       		.byte	0x10
 1447 0989 39       		.byte	0x39
 1448 098a 0D       		.byte	0xd
 1449 098b 73000000 		.4byte	0x73
 1450 098f 08       		.byte	0x8
 1451 0990 07       		.uleb128 0x7
 1452 0991 1F060000 		.4byte	.LASF136
 1453 0995 10       		.byte	0x10
 1454 0996 3A       		.byte	0x3a
 1455 0997 0D       		.byte	0xd
 1456 0998 73000000 		.4byte	0x73
 1457 099c 09       		.byte	0x9
 1458 099d 07       		.uleb128 0x7
 1459 099e 74010000 		.4byte	.LASF137
 1460 09a2 10       		.byte	0x10
 1461 09a3 3B       		.byte	0x3b
 1462 09a4 0D       		.byte	0xd
 1463 09a5 73000000 		.4byte	0x73
 1464 09a9 0A       		.byte	0xa
 1465 09aa 07       		.uleb128 0x7
 1466 09ab 3C030000 		.4byte	.LASF138
 1467 09af 10       		.byte	0x10
 1468 09b0 3C       		.byte	0x3c
 1469 09b1 0D       		.byte	0xd
 1470 09b2 73000000 		.4byte	0x73
 1471 09b6 0B       		.byte	0xb
 1472 09b7 07       		.uleb128 0x7
 1473 09b8 9C000000 		.4byte	.LASF139
 1474 09bc 10       		.byte	0x10
 1475 09bd 3D       		.byte	0x3d
 1476 09be 0D       		.byte	0xd
 1477 09bf 73000000 		.4byte	0x73
 1478 09c3 0C       		.byte	0xc
 1479 09c4 07       		.uleb128 0x7
 1480 09c5 24030000 		.4byte	.LASF140
 1481 09c9 10       		.byte	0x10
 1482 09ca 3E       		.byte	0x3e
ARM GAS  /tmp/ccjw355H.s 			page 27


 1483 09cb 0D       		.byte	0xd
 1484 09cc 73000000 		.4byte	0x73
 1485 09d0 0D       		.byte	0xd
 1486 09d1 07       		.uleb128 0x7
 1487 09d2 FB080000 		.4byte	.LASF141
 1488 09d6 10       		.byte	0x10
 1489 09d7 3F       		.byte	0x3f
 1490 09d8 0D       		.byte	0xd
 1491 09d9 73000000 		.4byte	0x73
 1492 09dd 0E       		.byte	0xe
 1493 09de 07       		.uleb128 0x7
 1494 09df 21000000 		.4byte	.LASF142
 1495 09e3 10       		.byte	0x10
 1496 09e4 40       		.byte	0x40
 1497 09e5 0D       		.byte	0xd
 1498 09e6 73000000 		.4byte	0x73
 1499 09ea 0F       		.byte	0xf
 1500 09eb 07       		.uleb128 0x7
 1501 09ec 48090000 		.4byte	.LASF143
 1502 09f0 10       		.byte	0x10
 1503 09f1 41       		.byte	0x41
 1504 09f2 0D       		.byte	0xd
 1505 09f3 73000000 		.4byte	0x73
 1506 09f7 10       		.byte	0x10
 1507 09f8 07       		.uleb128 0x7
 1508 09f9 D8010000 		.4byte	.LASF144
 1509 09fd 10       		.byte	0x10
 1510 09fe 43       		.byte	0x43
 1511 09ff 0D       		.byte	0xd
 1512 0a00 73000000 		.4byte	0x73
 1513 0a04 11       		.byte	0x11
 1514 0a05 07       		.uleb128 0x7
 1515 0a06 C8070000 		.4byte	.LASF145
 1516 0a0a 10       		.byte	0x10
 1517 0a0b 44       		.byte	0x44
 1518 0a0c 0D       		.byte	0xd
 1519 0a0d 73000000 		.4byte	0x73
 1520 0a11 12       		.byte	0x12
 1521 0a12 07       		.uleb128 0x7
 1522 0a13 AF060000 		.4byte	.LASF146
 1523 0a17 10       		.byte	0x10
 1524 0a18 45       		.byte	0x45
 1525 0a19 0D       		.byte	0xd
 1526 0a1a 73000000 		.4byte	0x73
 1527 0a1e 13       		.byte	0x13
 1528 0a1f 07       		.uleb128 0x7
 1529 0a20 00050000 		.4byte	.LASF147
 1530 0a24 10       		.byte	0x10
 1531 0a25 46       		.byte	0x46
 1532 0a26 0D       		.byte	0xd
 1533 0a27 73000000 		.4byte	0x73
 1534 0a2b 14       		.byte	0x14
 1535 0a2c 07       		.uleb128 0x7
 1536 0a2d 0C070000 		.4byte	.LASF148
 1537 0a31 10       		.byte	0x10
 1538 0a32 48       		.byte	0x48
 1539 0a33 0D       		.byte	0xd
ARM GAS  /tmp/ccjw355H.s 			page 28


 1540 0a34 73000000 		.4byte	0x73
 1541 0a38 15       		.byte	0x15
 1542 0a39 00       		.byte	0
 1543 0a3a 17       		.uleb128 0x17
 1544 0a3b 12090000 		.4byte	0x912
 1545 0a3f 4A0A0000 		.4byte	0xa4a
 1546 0a43 18       		.uleb128 0x18
 1547 0a44 38000000 		.4byte	0x38
 1548 0a48 03       		.byte	0x3
 1549 0a49 00       		.byte	0
 1550 0a4a 03       		.uleb128 0x3
 1551 0a4b 8E0B0000 		.4byte	.LASF149
 1552 0a4f 10       		.byte	0x10
 1553 0a50 49       		.byte	0x49
 1554 0a51 03       		.byte	0x3
 1555 0a52 46090000 		.4byte	0x946
 1556 0a56 1B       		.uleb128 0x1b
 1557 0a57 4A0A0000 		.4byte	0xa4a
 1558 0a5b 13       		.uleb128 0x13
 1559 0a5c 5E000000 		.4byte	.LASF150
 1560 0a60 10       		.byte	0x10
 1561 0a61 6E       		.byte	0x6e
 1562 0a62 1D       		.byte	0x1d
 1563 0a63 560A0000 		.4byte	0xa56
 1564 0a67 03       		.uleb128 0x3
 1565 0a68 31090000 		.4byte	.LASF151
 1566 0a6c 0F       		.byte	0xf
 1567 0a6d 34       		.byte	0x34
 1568 0a6e 19       		.byte	0x19
 1569 0a6f BF080000 		.4byte	0x8bf
 1570 0a73 0A       		.uleb128 0xa
 1571 0a74 04       		.byte	0x4
 1572 0a75 670A0000 		.4byte	0xa67
 1573 0a79 1D       		.uleb128 0x1d
 1574 0a7a 4B080000 		.4byte	.LASF152
 1575 0a7e 02       		.byte	0x2
 1576 0a7f 5E01     		.2byte	0x15e
 1577 0a81 17       		.byte	0x17
 1578 0a82 38000000 		.4byte	0x38
 1579 0a86 03       		.uleb128 0x3
 1580 0a87 2C0B0000 		.4byte	.LASF153
 1581 0a8b 11       		.byte	0x11
 1582 0a8c 2E       		.byte	0x2e
 1583 0a8d 0E       		.byte	0xe
 1584 0a8e 6C000000 		.4byte	0x6c
 1585 0a92 03       		.uleb128 0x3
 1586 0a93 27070000 		.4byte	.LASF154
 1587 0a97 11       		.byte	0x11
 1588 0a98 74       		.byte	0x74
 1589 0a99 0E       		.byte	0xe
 1590 0a9a 6C000000 		.4byte	0x6c
 1591 0a9e 19       		.uleb128 0x19
 1592 0a9f 04       		.byte	0x4
 1593 0aa0 11       		.byte	0x11
 1594 0aa1 A5       		.byte	0xa5
 1595 0aa2 03       		.byte	0x3
 1596 0aa3 C00A0000 		.4byte	0xac0
ARM GAS  /tmp/ccjw355H.s 			page 29


 1597 0aa7 1E       		.uleb128 0x1e
 1598 0aa8 58010000 		.4byte	.LASF155
 1599 0aac 11       		.byte	0x11
 1600 0aad A7       		.byte	0xa7
 1601 0aae 0C       		.byte	0xc
 1602 0aaf 790A0000 		.4byte	0xa79
 1603 0ab3 1E       		.uleb128 0x1e
 1604 0ab4 2F070000 		.4byte	.LASF156
 1605 0ab8 11       		.byte	0x11
 1606 0ab9 A8       		.byte	0xa8
 1607 0aba 13       		.byte	0x13
 1608 0abb C00A0000 		.4byte	0xac0
 1609 0abf 00       		.byte	0
 1610 0ac0 17       		.uleb128 0x17
 1611 0ac1 7F000000 		.4byte	0x7f
 1612 0ac5 D00A0000 		.4byte	0xad0
 1613 0ac9 18       		.uleb128 0x18
 1614 0aca 38000000 		.4byte	0x38
 1615 0ace 03       		.byte	0x3
 1616 0acf 00       		.byte	0
 1617 0ad0 15       		.uleb128 0x15
 1618 0ad1 08       		.byte	0x8
 1619 0ad2 11       		.byte	0x11
 1620 0ad3 A2       		.byte	0xa2
 1621 0ad4 09       		.byte	0x9
 1622 0ad5 F40A0000 		.4byte	0xaf4
 1623 0ad9 07       		.uleb128 0x7
 1624 0ada BB060000 		.4byte	.LASF157
 1625 0ade 11       		.byte	0x11
 1626 0adf A4       		.byte	0xa4
 1627 0ae0 07       		.byte	0x7
 1628 0ae1 25000000 		.4byte	0x25
 1629 0ae5 00       		.byte	0
 1630 0ae6 07       		.uleb128 0x7
 1631 0ae7 E1030000 		.4byte	.LASF158
 1632 0aeb 11       		.byte	0x11
 1633 0aec A9       		.byte	0xa9
 1634 0aed 05       		.byte	0x5
 1635 0aee 9E0A0000 		.4byte	0xa9e
 1636 0af2 04       		.byte	0x4
 1637 0af3 00       		.byte	0
 1638 0af4 03       		.uleb128 0x3
 1639 0af5 33080000 		.4byte	.LASF159
 1640 0af9 11       		.byte	0x11
 1641 0afa AA       		.byte	0xaa
 1642 0afb 03       		.byte	0x3
 1643 0afc D00A0000 		.4byte	0xad0
 1644 0b00 03       		.uleb128 0x3
 1645 0b01 130B0000 		.4byte	.LASF160
 1646 0b05 12       		.byte	0x12
 1647 0b06 16       		.byte	0x16
 1648 0b07 19       		.byte	0x19
 1649 0b08 A5000000 		.4byte	0xa5
 1650 0b0c 03       		.uleb128 0x3
 1651 0b0d 5B040000 		.4byte	.LASF161
 1652 0b11 13       		.byte	0x13
 1653 0b12 0C       		.byte	0xc
ARM GAS  /tmp/ccjw355H.s 			page 30


 1654 0b13 0D       		.byte	0xd
 1655 0b14 25000000 		.4byte	0x25
 1656 0b18 03       		.uleb128 0x3
 1657 0b19 1E080000 		.4byte	.LASF162
 1658 0b1d 12       		.byte	0x12
 1659 0b1e 23       		.byte	0x23
 1660 0b1f 1B       		.byte	0x1b
 1661 0b20 0C0B0000 		.4byte	0xb0c
 1662 0b24 06       		.uleb128 0x6
 1663 0b25 A4040000 		.4byte	.LASF163
 1664 0b29 18       		.byte	0x18
 1665 0b2a 12       		.byte	0x12
 1666 0b2b 34       		.byte	0x34
 1667 0b2c 08       		.byte	0x8
 1668 0b2d 7E0B0000 		.4byte	0xb7e
 1669 0b31 07       		.uleb128 0x7
 1670 0b32 52080000 		.4byte	.LASF164
 1671 0b36 12       		.byte	0x12
 1672 0b37 36       		.byte	0x36
 1673 0b38 13       		.byte	0x13
 1674 0b39 7E0B0000 		.4byte	0xb7e
 1675 0b3d 00       		.byte	0
 1676 0b3e 14       		.uleb128 0x14
 1677 0b3f 5F6B00   		.ascii	"_k\000"
 1678 0b42 12       		.byte	0x12
 1679 0b43 37       		.byte	0x37
 1680 0b44 07       		.byte	0x7
 1681 0b45 25000000 		.4byte	0x25
 1682 0b49 04       		.byte	0x4
 1683 0b4a 07       		.uleb128 0x7
 1684 0b4b D9040000 		.4byte	.LASF165
 1685 0b4f 12       		.byte	0x12
 1686 0b50 37       		.byte	0x37
 1687 0b51 0B       		.byte	0xb
 1688 0b52 25000000 		.4byte	0x25
 1689 0b56 08       		.byte	0x8
 1690 0b57 07       		.uleb128 0x7
 1691 0b58 B8050000 		.4byte	.LASF166
 1692 0b5c 12       		.byte	0x12
 1693 0b5d 37       		.byte	0x37
 1694 0b5e 14       		.byte	0x14
 1695 0b5f 25000000 		.4byte	0x25
 1696 0b63 0C       		.byte	0xc
 1697 0b64 07       		.uleb128 0x7
 1698 0b65 8D030000 		.4byte	.LASF167
 1699 0b69 12       		.byte	0x12
 1700 0b6a 37       		.byte	0x37
 1701 0b6b 1B       		.byte	0x1b
 1702 0b6c 25000000 		.4byte	0x25
 1703 0b70 10       		.byte	0x10
 1704 0b71 14       		.uleb128 0x14
 1705 0b72 5F7800   		.ascii	"_x\000"
 1706 0b75 12       		.byte	0x12
 1707 0b76 38       		.byte	0x38
 1708 0b77 0B       		.byte	0xb
 1709 0b78 840B0000 		.4byte	0xb84
 1710 0b7c 14       		.byte	0x14
ARM GAS  /tmp/ccjw355H.s 			page 31


 1711 0b7d 00       		.byte	0
 1712 0b7e 0A       		.uleb128 0xa
 1713 0b7f 04       		.byte	0x4
 1714 0b80 240B0000 		.4byte	0xb24
 1715 0b84 17       		.uleb128 0x17
 1716 0b85 000B0000 		.4byte	0xb00
 1717 0b89 940B0000 		.4byte	0xb94
 1718 0b8d 18       		.uleb128 0x18
 1719 0b8e 38000000 		.4byte	0x38
 1720 0b92 00       		.byte	0
 1721 0b93 00       		.byte	0
 1722 0b94 06       		.uleb128 0x6
 1723 0b95 CF000000 		.4byte	.LASF168
 1724 0b99 24       		.byte	0x24
 1725 0b9a 12       		.byte	0x12
 1726 0b9b 3C       		.byte	0x3c
 1727 0b9c 08       		.byte	0x8
 1728 0b9d 170C0000 		.4byte	0xc17
 1729 0ba1 07       		.uleb128 0x7
 1730 0ba2 EB000000 		.4byte	.LASF169
 1731 0ba6 12       		.byte	0x12
 1732 0ba7 3E       		.byte	0x3e
 1733 0ba8 09       		.byte	0x9
 1734 0ba9 25000000 		.4byte	0x25
 1735 0bad 00       		.byte	0
 1736 0bae 07       		.uleb128 0x7
 1737 0baf EC0B0000 		.4byte	.LASF170
 1738 0bb3 12       		.byte	0x12
 1739 0bb4 3F       		.byte	0x3f
 1740 0bb5 09       		.byte	0x9
 1741 0bb6 25000000 		.4byte	0x25
 1742 0bba 04       		.byte	0x4
 1743 0bbb 07       		.uleb128 0x7
 1744 0bbc 780B0000 		.4byte	.LASF171
 1745 0bc0 12       		.byte	0x12
 1746 0bc1 40       		.byte	0x40
 1747 0bc2 09       		.byte	0x9
 1748 0bc3 25000000 		.4byte	0x25
 1749 0bc7 08       		.byte	0x8
 1750 0bc8 07       		.uleb128 0x7
 1751 0bc9 3A060000 		.4byte	.LASF172
 1752 0bcd 12       		.byte	0x12
 1753 0bce 41       		.byte	0x41
 1754 0bcf 09       		.byte	0x9
 1755 0bd0 25000000 		.4byte	0x25
 1756 0bd4 0C       		.byte	0xc
 1757 0bd5 07       		.uleb128 0x7
 1758 0bd6 36020000 		.4byte	.LASF173
 1759 0bda 12       		.byte	0x12
 1760 0bdb 42       		.byte	0x42
 1761 0bdc 09       		.byte	0x9
 1762 0bdd 25000000 		.4byte	0x25
 1763 0be1 10       		.byte	0x10
 1764 0be2 07       		.uleb128 0x7
 1765 0be3 F1080000 		.4byte	.LASF174
 1766 0be7 12       		.byte	0x12
 1767 0be8 43       		.byte	0x43
ARM GAS  /tmp/ccjw355H.s 			page 32


 1768 0be9 09       		.byte	0x9
 1769 0bea 25000000 		.4byte	0x25
 1770 0bee 14       		.byte	0x14
 1771 0bef 07       		.uleb128 0x7
 1772 0bf0 C3060000 		.4byte	.LASF175
 1773 0bf4 12       		.byte	0x12
 1774 0bf5 44       		.byte	0x44
 1775 0bf6 09       		.byte	0x9
 1776 0bf7 25000000 		.4byte	0x25
 1777 0bfb 18       		.byte	0x18
 1778 0bfc 07       		.uleb128 0x7
 1779 0bfd DB020000 		.4byte	.LASF176
 1780 0c01 12       		.byte	0x12
 1781 0c02 45       		.byte	0x45
 1782 0c03 09       		.byte	0x9
 1783 0c04 25000000 		.4byte	0x25
 1784 0c08 1C       		.byte	0x1c
 1785 0c09 07       		.uleb128 0x7
 1786 0c0a C40B0000 		.4byte	.LASF177
 1787 0c0e 12       		.byte	0x12
 1788 0c0f 46       		.byte	0x46
 1789 0c10 09       		.byte	0x9
 1790 0c11 25000000 		.4byte	0x25
 1791 0c15 20       		.byte	0x20
 1792 0c16 00       		.byte	0
 1793 0c17 1F       		.uleb128 0x1f
 1794 0c18 82010000 		.4byte	.LASF178
 1795 0c1c 0801     		.2byte	0x108
 1796 0c1e 12       		.byte	0x12
 1797 0c1f 4F       		.byte	0x4f
 1798 0c20 08       		.byte	0x8
 1799 0c21 5C0C0000 		.4byte	0xc5c
 1800 0c25 07       		.uleb128 0x7
 1801 0c26 BC0B0000 		.4byte	.LASF179
 1802 0c2a 12       		.byte	0x12
 1803 0c2b 50       		.byte	0x50
 1804 0c2c 0A       		.byte	0xa
 1805 0c2d 5C0C0000 		.4byte	0xc5c
 1806 0c31 00       		.byte	0
 1807 0c32 07       		.uleb128 0x7
 1808 0c33 9D070000 		.4byte	.LASF180
 1809 0c37 12       		.byte	0x12
 1810 0c38 51       		.byte	0x51
 1811 0c39 09       		.byte	0x9
 1812 0c3a 5C0C0000 		.4byte	0xc5c
 1813 0c3e 80       		.byte	0x80
 1814 0c3f 20       		.uleb128 0x20
 1815 0c40 D1080000 		.4byte	.LASF181
 1816 0c44 12       		.byte	0x12
 1817 0c45 53       		.byte	0x53
 1818 0c46 0A       		.byte	0xa
 1819 0c47 000B0000 		.4byte	0xb00
 1820 0c4b 0001     		.2byte	0x100
 1821 0c4d 20       		.uleb128 0x20
 1822 0c4e 29090000 		.4byte	.LASF182
 1823 0c52 12       		.byte	0x12
 1824 0c53 56       		.byte	0x56
ARM GAS  /tmp/ccjw355H.s 			page 33


 1825 0c54 0A       		.byte	0xa
 1826 0c55 000B0000 		.4byte	0xb00
 1827 0c59 0401     		.2byte	0x104
 1828 0c5b 00       		.byte	0
 1829 0c5c 17       		.uleb128 0x17
 1830 0c5d 8E030000 		.4byte	0x38e
 1831 0c61 6C0C0000 		.4byte	0xc6c
 1832 0c65 18       		.uleb128 0x18
 1833 0c66 38000000 		.4byte	0x38
 1834 0c6a 1F       		.byte	0x1f
 1835 0c6b 00       		.byte	0
 1836 0c6c 1F       		.uleb128 0x1f
 1837 0c6d A0060000 		.4byte	.LASF183
 1838 0c71 9001     		.2byte	0x190
 1839 0c73 12       		.byte	0x12
 1840 0c74 62       		.byte	0x62
 1841 0c75 08       		.byte	0x8
 1842 0c76 AF0C0000 		.4byte	0xcaf
 1843 0c7a 07       		.uleb128 0x7
 1844 0c7b 52080000 		.4byte	.LASF164
 1845 0c7f 12       		.byte	0x12
 1846 0c80 63       		.byte	0x63
 1847 0c81 12       		.byte	0x12
 1848 0c82 AF0C0000 		.4byte	0xcaf
 1849 0c86 00       		.byte	0
 1850 0c87 07       		.uleb128 0x7
 1851 0c88 1D090000 		.4byte	.LASF184
 1852 0c8c 12       		.byte	0x12
 1853 0c8d 64       		.byte	0x64
 1854 0c8e 06       		.byte	0x6
 1855 0c8f 25000000 		.4byte	0x25
 1856 0c93 04       		.byte	0x4
 1857 0c94 07       		.uleb128 0x7
 1858 0c95 FE000000 		.4byte	.LASF185
 1859 0c99 12       		.byte	0x12
 1860 0c9a 66       		.byte	0x66
 1861 0c9b 09       		.byte	0x9
 1862 0c9c B50C0000 		.4byte	0xcb5
 1863 0ca0 08       		.byte	0x8
 1864 0ca1 07       		.uleb128 0x7
 1865 0ca2 82010000 		.4byte	.LASF178
 1866 0ca6 12       		.byte	0x12
 1867 0ca7 67       		.byte	0x67
 1868 0ca8 1E       		.byte	0x1e
 1869 0ca9 170C0000 		.4byte	0xc17
 1870 0cad 88       		.byte	0x88
 1871 0cae 00       		.byte	0
 1872 0caf 0A       		.uleb128 0xa
 1873 0cb0 04       		.byte	0x4
 1874 0cb1 6C0C0000 		.4byte	0xc6c
 1875 0cb5 17       		.uleb128 0x17
 1876 0cb6 C50C0000 		.4byte	0xcc5
 1877 0cba C50C0000 		.4byte	0xcc5
 1878 0cbe 18       		.uleb128 0x18
 1879 0cbf 38000000 		.4byte	0x38
 1880 0cc3 1F       		.byte	0x1f
 1881 0cc4 00       		.byte	0
ARM GAS  /tmp/ccjw355H.s 			page 34


 1882 0cc5 0A       		.uleb128 0xa
 1883 0cc6 04       		.byte	0x4
 1884 0cc7 CB0C0000 		.4byte	0xccb
 1885 0ccb 21       		.uleb128 0x21
 1886 0ccc 06       		.uleb128 0x6
 1887 0ccd 22090000 		.4byte	.LASF186
 1888 0cd1 08       		.byte	0x8
 1889 0cd2 12       		.byte	0x12
 1890 0cd3 7A       		.byte	0x7a
 1891 0cd4 08       		.byte	0x8
 1892 0cd5 F40C0000 		.4byte	0xcf4
 1893 0cd9 07       		.uleb128 0x7
 1894 0cda F1070000 		.4byte	.LASF187
 1895 0cde 12       		.byte	0x12
 1896 0cdf 7B       		.byte	0x7b
 1897 0ce0 11       		.byte	0x11
 1898 0ce1 F40C0000 		.4byte	0xcf4
 1899 0ce5 00       		.byte	0
 1900 0ce6 07       		.uleb128 0x7
 1901 0ce7 E5010000 		.4byte	.LASF188
 1902 0ceb 12       		.byte	0x12
 1903 0cec 7C       		.byte	0x7c
 1904 0ced 06       		.byte	0x6
 1905 0cee 25000000 		.4byte	0x25
 1906 0cf2 04       		.byte	0x4
 1907 0cf3 00       		.byte	0
 1908 0cf4 0A       		.uleb128 0xa
 1909 0cf5 04       		.byte	0x4
 1910 0cf6 7F000000 		.4byte	0x7f
 1911 0cfa 06       		.uleb128 0x6
 1912 0cfb 03040000 		.4byte	.LASF189
 1913 0cff 68       		.byte	0x68
 1914 0d00 12       		.byte	0x12
 1915 0d01 BA       		.byte	0xba
 1916 0d02 08       		.byte	0x8
 1917 0d03 3D0E0000 		.4byte	0xe3d
 1918 0d07 14       		.uleb128 0x14
 1919 0d08 5F7000   		.ascii	"_p\000"
 1920 0d0b 12       		.byte	0x12
 1921 0d0c BB       		.byte	0xbb
 1922 0d0d 12       		.byte	0x12
 1923 0d0e F40C0000 		.4byte	0xcf4
 1924 0d12 00       		.byte	0
 1925 0d13 14       		.uleb128 0x14
 1926 0d14 5F7200   		.ascii	"_r\000"
 1927 0d17 12       		.byte	0x12
 1928 0d18 BC       		.byte	0xbc
 1929 0d19 07       		.byte	0x7
 1930 0d1a 25000000 		.4byte	0x25
 1931 0d1e 04       		.byte	0x4
 1932 0d1f 14       		.uleb128 0x14
 1933 0d20 5F7700   		.ascii	"_w\000"
 1934 0d23 12       		.byte	0x12
 1935 0d24 BD       		.byte	0xbd
 1936 0d25 07       		.byte	0x7
 1937 0d26 25000000 		.4byte	0x25
 1938 0d2a 08       		.byte	0x8
ARM GAS  /tmp/ccjw355H.s 			page 35


 1939 0d2b 07       		.uleb128 0x7
 1940 0d2c 88060000 		.4byte	.LASF190
 1941 0d30 12       		.byte	0x12
 1942 0d31 BE       		.byte	0xbe
 1943 0d32 09       		.byte	0x9
 1944 0d33 54000000 		.4byte	0x54
 1945 0d37 0C       		.byte	0xc
 1946 0d38 07       		.uleb128 0x7
 1947 0d39 6E010000 		.4byte	.LASF191
 1948 0d3d 12       		.byte	0x12
 1949 0d3e BF       		.byte	0xbf
 1950 0d3f 09       		.byte	0x9
 1951 0d40 54000000 		.4byte	0x54
 1952 0d44 0E       		.byte	0xe
 1953 0d45 14       		.uleb128 0x14
 1954 0d46 5F626600 		.ascii	"_bf\000"
 1955 0d4a 12       		.byte	0x12
 1956 0d4b C0       		.byte	0xc0
 1957 0d4c 11       		.byte	0x11
 1958 0d4d CC0C0000 		.4byte	0xccc
 1959 0d51 10       		.byte	0x10
 1960 0d52 07       		.uleb128 0x7
 1961 0d53 08090000 		.4byte	.LASF192
 1962 0d57 12       		.byte	0x12
 1963 0d58 C1       		.byte	0xc1
 1964 0d59 07       		.byte	0x7
 1965 0d5a 25000000 		.4byte	0x25
 1966 0d5e 18       		.byte	0x18
 1967 0d5f 07       		.uleb128 0x7
 1968 0d60 5C030000 		.4byte	.LASF193
 1969 0d64 12       		.byte	0x12
 1970 0d65 C8       		.byte	0xc8
 1971 0d66 0A       		.byte	0xa
 1972 0d67 8E030000 		.4byte	0x38e
 1973 0d6b 1C       		.byte	0x1c
 1974 0d6c 07       		.uleb128 0x7
 1975 0d6d 50000000 		.4byte	.LASF194
 1976 0d71 12       		.byte	0x12
 1977 0d72 CA       		.byte	0xca
 1978 0d73 1D       		.byte	0x1d
 1979 0d74 B50F0000 		.4byte	0xfb5
 1980 0d78 20       		.byte	0x20
 1981 0d79 07       		.uleb128 0x7
 1982 0d7a 72000000 		.4byte	.LASF195
 1983 0d7e 12       		.byte	0x12
 1984 0d7f CC       		.byte	0xcc
 1985 0d80 1D       		.byte	0x1d
 1986 0d81 D90F0000 		.4byte	0xfd9
 1987 0d85 24       		.byte	0x24
 1988 0d86 07       		.uleb128 0x7
 1989 0d87 18070000 		.4byte	.LASF196
 1990 0d8b 12       		.byte	0x12
 1991 0d8c CF       		.byte	0xcf
 1992 0d8d 0D       		.byte	0xd
 1993 0d8e FD0F0000 		.4byte	0xffd
 1994 0d92 28       		.byte	0x28
 1995 0d93 07       		.uleb128 0x7
ARM GAS  /tmp/ccjw355H.s 			page 36


 1996 0d94 F9020000 		.4byte	.LASF197
 1997 0d98 12       		.byte	0x12
 1998 0d99 D0       		.byte	0xd0
 1999 0d9a 09       		.byte	0x9
 2000 0d9b 17100000 		.4byte	0x1017
 2001 0d9f 2C       		.byte	0x2c
 2002 0da0 14       		.uleb128 0x14
 2003 0da1 5F756200 		.ascii	"_ub\000"
 2004 0da5 12       		.byte	0x12
 2005 0da6 D3       		.byte	0xd3
 2006 0da7 11       		.byte	0x11
 2007 0da8 CC0C0000 		.4byte	0xccc
 2008 0dac 30       		.byte	0x30
 2009 0dad 14       		.uleb128 0x14
 2010 0dae 5F757000 		.ascii	"_up\000"
 2011 0db2 12       		.byte	0x12
 2012 0db3 D4       		.byte	0xd4
 2013 0db4 12       		.byte	0x12
 2014 0db5 F40C0000 		.4byte	0xcf4
 2015 0db9 38       		.byte	0x38
 2016 0dba 14       		.uleb128 0x14
 2017 0dbb 5F757200 		.ascii	"_ur\000"
 2018 0dbf 12       		.byte	0x12
 2019 0dc0 D5       		.byte	0xd5
 2020 0dc1 07       		.byte	0x7
 2021 0dc2 25000000 		.4byte	0x25
 2022 0dc6 3C       		.byte	0x3c
 2023 0dc7 07       		.uleb128 0x7
 2024 0dc8 58060000 		.4byte	.LASF198
 2025 0dcc 12       		.byte	0x12
 2026 0dcd D8       		.byte	0xd8
 2027 0dce 11       		.byte	0x11
 2028 0dcf 1D100000 		.4byte	0x101d
 2029 0dd3 40       		.byte	0x40
 2030 0dd4 07       		.uleb128 0x7
 2031 0dd5 E5000000 		.4byte	.LASF199
 2032 0dd9 12       		.byte	0x12
 2033 0dda D9       		.byte	0xd9
 2034 0ddb 11       		.byte	0x11
 2035 0ddc 2D100000 		.4byte	0x102d
 2036 0de0 43       		.byte	0x43
 2037 0de1 14       		.uleb128 0x14
 2038 0de2 5F6C6200 		.ascii	"_lb\000"
 2039 0de6 12       		.byte	0x12
 2040 0de7 DC       		.byte	0xdc
 2041 0de8 11       		.byte	0x11
 2042 0de9 CC0C0000 		.4byte	0xccc
 2043 0ded 44       		.byte	0x44
 2044 0dee 07       		.uleb128 0x7
 2045 0def BE050000 		.4byte	.LASF200
 2046 0df3 12       		.byte	0x12
 2047 0df4 DF       		.byte	0xdf
 2048 0df5 07       		.byte	0x7
 2049 0df6 25000000 		.4byte	0x25
 2050 0dfa 4C       		.byte	0x4c
 2051 0dfb 07       		.uleb128 0x7
 2052 0dfc AA030000 		.4byte	.LASF201
ARM GAS  /tmp/ccjw355H.s 			page 37


 2053 0e00 12       		.byte	0x12
 2054 0e01 E0       		.byte	0xe0
 2055 0e02 0A       		.byte	0xa
 2056 0e03 860A0000 		.4byte	0xa86
 2057 0e07 50       		.byte	0x50
 2058 0e08 07       		.uleb128 0x7
 2059 0e09 58080000 		.4byte	.LASF202
 2060 0e0d 12       		.byte	0x12
 2061 0e0e E3       		.byte	0xe3
 2062 0e0f 12       		.byte	0x12
 2063 0e10 5B0E0000 		.4byte	0xe5b
 2064 0e14 54       		.byte	0x54
 2065 0e15 07       		.uleb128 0x7
 2066 0e16 09010000 		.4byte	.LASF203
 2067 0e1a 12       		.byte	0x12
 2068 0e1b E7       		.byte	0xe7
 2069 0e1c 0C       		.byte	0xc
 2070 0e1d 180B0000 		.4byte	0xb18
 2071 0e21 58       		.byte	0x58
 2072 0e22 07       		.uleb128 0x7
 2073 0e23 74060000 		.4byte	.LASF204
 2074 0e27 12       		.byte	0x12
 2075 0e28 E9       		.byte	0xe9
 2076 0e29 0E       		.byte	0xe
 2077 0e2a F40A0000 		.4byte	0xaf4
 2078 0e2e 5C       		.byte	0x5c
 2079 0e2f 07       		.uleb128 0x7
 2080 0e30 16040000 		.4byte	.LASF205
 2081 0e34 12       		.byte	0x12
 2082 0e35 EA       		.byte	0xea
 2083 0e36 09       		.byte	0x9
 2084 0e37 25000000 		.4byte	0x25
 2085 0e3b 64       		.byte	0x64
 2086 0e3c 00       		.byte	0
 2087 0e3d 22       		.uleb128 0x22
 2088 0e3e 25000000 		.4byte	0x25
 2089 0e42 5B0E0000 		.4byte	0xe5b
 2090 0e46 0D       		.uleb128 0xd
 2091 0e47 5B0E0000 		.4byte	0xe5b
 2092 0e4b 0D       		.uleb128 0xd
 2093 0e4c 8E030000 		.4byte	0x38e
 2094 0e50 0D       		.uleb128 0xd
 2095 0e51 AF0F0000 		.4byte	0xfaf
 2096 0e55 0D       		.uleb128 0xd
 2097 0e56 25000000 		.4byte	0x25
 2098 0e5a 00       		.byte	0
 2099 0e5b 0A       		.uleb128 0xa
 2100 0e5c 04       		.byte	0x4
 2101 0e5d 660E0000 		.4byte	0xe66
 2102 0e61 1B       		.uleb128 0x1b
 2103 0e62 5B0E0000 		.4byte	0xe5b
 2104 0e66 0F       		.uleb128 0xf
 2105 0e67 29010000 		.4byte	.LASF206
 2106 0e6b 2804     		.2byte	0x428
 2107 0e6d 12       		.byte	0x12
 2108 0e6e 6502     		.2byte	0x265
 2109 0e70 08       		.byte	0x8
ARM GAS  /tmp/ccjw355H.s 			page 38


 2110 0e71 AF0F0000 		.4byte	0xfaf
 2111 0e75 09       		.uleb128 0x9
 2112 0e76 6D040000 		.4byte	.LASF207
 2113 0e7a 12       		.byte	0x12
 2114 0e7b 6702     		.2byte	0x267
 2115 0e7d 07       		.byte	0x7
 2116 0e7e 25000000 		.4byte	0x25
 2117 0e82 00       		.byte	0
 2118 0e83 09       		.uleb128 0x9
 2119 0e84 1D030000 		.4byte	.LASF208
 2120 0e88 12       		.byte	0x12
 2121 0e89 6C02     		.2byte	0x26c
 2122 0e8b 0B       		.byte	0xb
 2123 0e8c 89100000 		.4byte	0x1089
 2124 0e90 04       		.byte	0x4
 2125 0e91 09       		.uleb128 0x9
 2126 0e92 D5070000 		.4byte	.LASF209
 2127 0e96 12       		.byte	0x12
 2128 0e97 6C02     		.2byte	0x26c
 2129 0e99 14       		.byte	0x14
 2130 0e9a 89100000 		.4byte	0x1089
 2131 0e9e 08       		.byte	0x8
 2132 0e9f 09       		.uleb128 0x9
 2133 0ea0 5E060000 		.4byte	.LASF210
 2134 0ea4 12       		.byte	0x12
 2135 0ea5 6C02     		.2byte	0x26c
 2136 0ea7 1E       		.byte	0x1e
 2137 0ea8 89100000 		.4byte	0x1089
 2138 0eac 0C       		.byte	0xc
 2139 0ead 09       		.uleb128 0x9
 2140 0eae 18090000 		.4byte	.LASF211
 2141 0eb2 12       		.byte	0x12
 2142 0eb3 6E02     		.2byte	0x26e
 2143 0eb5 08       		.byte	0x8
 2144 0eb6 25000000 		.4byte	0x25
 2145 0eba 10       		.byte	0x10
 2146 0ebb 09       		.uleb128 0x9
 2147 0ebc 0F050000 		.4byte	.LASF212
 2148 0ec0 12       		.byte	0x12
 2149 0ec1 6F02     		.2byte	0x26f
 2150 0ec3 08       		.byte	0x8
 2151 0ec4 89120000 		.4byte	0x1289
 2152 0ec8 14       		.byte	0x14
 2153 0ec9 09       		.uleb128 0x9
 2154 0eca 9A020000 		.4byte	.LASF213
 2155 0ece 12       		.byte	0x12
 2156 0ecf 7202     		.2byte	0x272
 2157 0ed1 07       		.byte	0x7
 2158 0ed2 25000000 		.4byte	0x25
 2159 0ed6 30       		.byte	0x30
 2160 0ed7 09       		.uleb128 0x9
 2161 0ed8 0B0B0000 		.4byte	.LASF214
 2162 0edc 12       		.byte	0x12
 2163 0edd 7302     		.2byte	0x273
 2164 0edf 16       		.byte	0x16
 2165 0ee0 9E120000 		.4byte	0x129e
 2166 0ee4 34       		.byte	0x34
ARM GAS  /tmp/ccjw355H.s 			page 39


 2167 0ee5 09       		.uleb128 0x9
 2168 0ee6 0B040000 		.4byte	.LASF215
 2169 0eea 12       		.byte	0x12
 2170 0eeb 7502     		.2byte	0x275
 2171 0eed 07       		.byte	0x7
 2172 0eee 25000000 		.4byte	0x25
 2173 0ef2 38       		.byte	0x38
 2174 0ef3 09       		.uleb128 0x9
 2175 0ef4 ED040000 		.4byte	.LASF216
 2176 0ef8 12       		.byte	0x12
 2177 0ef9 7702     		.2byte	0x277
 2178 0efb 0A       		.byte	0xa
 2179 0efc AF120000 		.4byte	0x12af
 2180 0f00 3C       		.byte	0x3c
 2181 0f01 09       		.uleb128 0x9
 2182 0f02 240B0000 		.4byte	.LASF217
 2183 0f06 12       		.byte	0x12
 2184 0f07 7A02     		.2byte	0x27a
 2185 0f09 13       		.byte	0x13
 2186 0f0a 7E0B0000 		.4byte	0xb7e
 2187 0f0e 40       		.byte	0x40
 2188 0f0f 09       		.uleb128 0x9
 2189 0f10 C2010000 		.4byte	.LASF218
 2190 0f14 12       		.byte	0x12
 2191 0f15 7B02     		.2byte	0x27b
 2192 0f17 07       		.byte	0x7
 2193 0f18 25000000 		.4byte	0x25
 2194 0f1c 44       		.byte	0x44
 2195 0f1d 09       		.uleb128 0x9
 2196 0f1e 64030000 		.4byte	.LASF219
 2197 0f22 12       		.byte	0x12
 2198 0f23 7C02     		.2byte	0x27c
 2199 0f25 13       		.byte	0x13
 2200 0f26 7E0B0000 		.4byte	0xb7e
 2201 0f2a 48       		.byte	0x48
 2202 0f2b 09       		.uleb128 0x9
 2203 0f2c 8B050000 		.4byte	.LASF220
 2204 0f30 12       		.byte	0x12
 2205 0f31 7D02     		.2byte	0x27d
 2206 0f33 14       		.byte	0x14
 2207 0f34 B5120000 		.4byte	0x12b5
 2208 0f38 4C       		.byte	0x4c
 2209 0f39 09       		.uleb128 0x9
 2210 0f3a 94000000 		.4byte	.LASF221
 2211 0f3e 12       		.byte	0x12
 2212 0f3f 8002     		.2byte	0x280
 2213 0f41 07       		.byte	0x7
 2214 0f42 25000000 		.4byte	0x25
 2215 0f46 50       		.byte	0x50
 2216 0f47 09       		.uleb128 0x9
 2217 0f48 B2030000 		.4byte	.LASF222
 2218 0f4c 12       		.byte	0x12
 2219 0f4d 8102     		.2byte	0x281
 2220 0f4f 09       		.byte	0x9
 2221 0f50 AF0F0000 		.4byte	0xfaf
 2222 0f54 54       		.byte	0x54
 2223 0f55 09       		.uleb128 0x9
ARM GAS  /tmp/ccjw355H.s 			page 40


 2224 0f56 53060000 		.4byte	.LASF223
 2225 0f5a 12       		.byte	0x12
 2226 0f5b A402     		.2byte	0x2a4
 2227 0f5d 07       		.byte	0x7
 2228 0f5e 64120000 		.4byte	0x1264
 2229 0f62 58       		.byte	0x58
 2230 0f63 10       		.uleb128 0x10
 2231 0f64 A0060000 		.4byte	.LASF183
 2232 0f68 12       		.byte	0x12
 2233 0f69 A802     		.2byte	0x2a8
 2234 0f6b 13       		.byte	0x13
 2235 0f6c AF0C0000 		.4byte	0xcaf
 2236 0f70 4801     		.2byte	0x148
 2237 0f72 10       		.uleb128 0x10
 2238 0f73 F7040000 		.4byte	.LASF224
 2239 0f77 12       		.byte	0x12
 2240 0f78 A902     		.2byte	0x2a9
 2241 0f7a 12       		.byte	0x12
 2242 0f7b 6C0C0000 		.4byte	0xc6c
 2243 0f7f 4C01     		.2byte	0x14c
 2244 0f81 10       		.uleb128 0x10
 2245 0f82 A0030000 		.4byte	.LASF225
 2246 0f86 12       		.byte	0x12
 2247 0f87 AD02     		.2byte	0x2ad
 2248 0f89 0C       		.byte	0xc
 2249 0f8a C6120000 		.4byte	0x12c6
 2250 0f8e DC02     		.2byte	0x2dc
 2251 0f90 10       		.uleb128 0x10
 2252 0f91 5B050000 		.4byte	.LASF226
 2253 0f95 12       		.byte	0x12
 2254 0f96 B202     		.2byte	0x2b2
 2255 0f98 10       		.byte	0x10
 2256 0f99 4A100000 		.4byte	0x104a
 2257 0f9d E002     		.2byte	0x2e0
 2258 0f9f 10       		.uleb128 0x10
 2259 0fa0 37000000 		.4byte	.LASF227
 2260 0fa4 12       		.byte	0x12
 2261 0fa5 B402     		.2byte	0x2b4
 2262 0fa7 0A       		.byte	0xa
 2263 0fa8 D2120000 		.4byte	0x12d2
 2264 0fac EC02     		.2byte	0x2ec
 2265 0fae 00       		.byte	0
 2266 0faf 0A       		.uleb128 0xa
 2267 0fb0 04       		.byte	0x4
 2268 0fb1 12090000 		.4byte	0x912
 2269 0fb5 0A       		.uleb128 0xa
 2270 0fb6 04       		.byte	0x4
 2271 0fb7 3D0E0000 		.4byte	0xe3d
 2272 0fbb 22       		.uleb128 0x22
 2273 0fbc 25000000 		.4byte	0x25
 2274 0fc0 D90F0000 		.4byte	0xfd9
 2275 0fc4 0D       		.uleb128 0xd
 2276 0fc5 5B0E0000 		.4byte	0xe5b
 2277 0fc9 0D       		.uleb128 0xd
 2278 0fca 8E030000 		.4byte	0x38e
 2279 0fce 0D       		.uleb128 0xd
 2280 0fcf 07090000 		.4byte	0x907
ARM GAS  /tmp/ccjw355H.s 			page 41


 2281 0fd3 0D       		.uleb128 0xd
 2282 0fd4 25000000 		.4byte	0x25
 2283 0fd8 00       		.byte	0
 2284 0fd9 0A       		.uleb128 0xa
 2285 0fda 04       		.byte	0x4
 2286 0fdb BB0F0000 		.4byte	0xfbb
 2287 0fdf 22       		.uleb128 0x22
 2288 0fe0 920A0000 		.4byte	0xa92
 2289 0fe4 FD0F0000 		.4byte	0xffd
 2290 0fe8 0D       		.uleb128 0xd
 2291 0fe9 5B0E0000 		.4byte	0xe5b
 2292 0fed 0D       		.uleb128 0xd
 2293 0fee 8E030000 		.4byte	0x38e
 2294 0ff2 0D       		.uleb128 0xd
 2295 0ff3 920A0000 		.4byte	0xa92
 2296 0ff7 0D       		.uleb128 0xd
 2297 0ff8 25000000 		.4byte	0x25
 2298 0ffc 00       		.byte	0
 2299 0ffd 0A       		.uleb128 0xa
 2300 0ffe 04       		.byte	0x4
 2301 0fff DF0F0000 		.4byte	0xfdf
 2302 1003 22       		.uleb128 0x22
 2303 1004 25000000 		.4byte	0x25
 2304 1008 17100000 		.4byte	0x1017
 2305 100c 0D       		.uleb128 0xd
 2306 100d 5B0E0000 		.4byte	0xe5b
 2307 1011 0D       		.uleb128 0xd
 2308 1012 8E030000 		.4byte	0x38e
 2309 1016 00       		.byte	0
 2310 1017 0A       		.uleb128 0xa
 2311 1018 04       		.byte	0x4
 2312 1019 03100000 		.4byte	0x1003
 2313 101d 17       		.uleb128 0x17
 2314 101e 7F000000 		.4byte	0x7f
 2315 1022 2D100000 		.4byte	0x102d
 2316 1026 18       		.uleb128 0x18
 2317 1027 38000000 		.4byte	0x38
 2318 102b 02       		.byte	0x2
 2319 102c 00       		.byte	0
 2320 102d 17       		.uleb128 0x17
 2321 102e 7F000000 		.4byte	0x7f
 2322 1032 3D100000 		.4byte	0x103d
 2323 1036 18       		.uleb128 0x18
 2324 1037 38000000 		.4byte	0x38
 2325 103b 00       		.byte	0
 2326 103c 00       		.byte	0
 2327 103d 1D       		.uleb128 0x1d
 2328 103e 27080000 		.4byte	.LASF228
 2329 1042 12       		.byte	0x12
 2330 1043 2401     		.2byte	0x124
 2331 1045 1A       		.byte	0x1a
 2332 1046 FA0C0000 		.4byte	0xcfa
 2333 104a 0B       		.uleb128 0xb
 2334 104b A5050000 		.4byte	.LASF229
 2335 104f 0C       		.byte	0xc
 2336 1050 12       		.byte	0x12
 2337 1051 2801     		.2byte	0x128
ARM GAS  /tmp/ccjw355H.s 			page 42


 2338 1053 08       		.byte	0x8
 2339 1054 83100000 		.4byte	0x1083
 2340 1058 09       		.uleb128 0x9
 2341 1059 52080000 		.4byte	.LASF164
 2342 105d 12       		.byte	0x12
 2343 105e 2A01     		.2byte	0x12a
 2344 1060 11       		.byte	0x11
 2345 1061 83100000 		.4byte	0x1083
 2346 1065 00       		.byte	0
 2347 1066 09       		.uleb128 0x9
 2348 1067 4C050000 		.4byte	.LASF230
 2349 106b 12       		.byte	0x12
 2350 106c 2B01     		.2byte	0x12b
 2351 106e 07       		.byte	0x7
 2352 106f 25000000 		.4byte	0x25
 2353 1073 04       		.byte	0x4
 2354 1074 09       		.uleb128 0x9
 2355 1075 9F050000 		.4byte	.LASF231
 2356 1079 12       		.byte	0x12
 2357 107a 2C01     		.2byte	0x12c
 2358 107c 0B       		.byte	0xb
 2359 107d 89100000 		.4byte	0x1089
 2360 1081 08       		.byte	0x8
 2361 1082 00       		.byte	0
 2362 1083 0A       		.uleb128 0xa
 2363 1084 04       		.byte	0x4
 2364 1085 4A100000 		.4byte	0x104a
 2365 1089 0A       		.uleb128 0xa
 2366 108a 04       		.byte	0x4
 2367 108b 3D100000 		.4byte	0x103d
 2368 108f 0B       		.uleb128 0xb
 2369 1090 C0070000 		.4byte	.LASF232
 2370 1094 0E       		.byte	0xe
 2371 1095 12       		.byte	0x12
 2372 1096 4401     		.2byte	0x144
 2373 1098 08       		.byte	0x8
 2374 1099 C8100000 		.4byte	0x10c8
 2375 109d 09       		.uleb128 0x9
 2376 109e 03010000 		.4byte	.LASF233
 2377 10a2 12       		.byte	0x12
 2378 10a3 4501     		.2byte	0x145
 2379 10a5 12       		.byte	0x12
 2380 10a6 C8100000 		.4byte	0x10c8
 2381 10aa 00       		.byte	0
 2382 10ab 09       		.uleb128 0x9
 2383 10ac 23010000 		.4byte	.LASF234
 2384 10b0 12       		.byte	0x12
 2385 10b1 4601     		.2byte	0x146
 2386 10b3 12       		.byte	0x12
 2387 10b4 C8100000 		.4byte	0x10c8
 2388 10b8 06       		.byte	0x6
 2389 10b9 09       		.uleb128 0x9
 2390 10ba 600B0000 		.4byte	.LASF235
 2391 10be 12       		.byte	0x12
 2392 10bf 4701     		.2byte	0x147
 2393 10c1 12       		.byte	0x12
 2394 10c2 92000000 		.4byte	0x92
ARM GAS  /tmp/ccjw355H.s 			page 43


 2395 10c6 0C       		.byte	0xc
 2396 10c7 00       		.byte	0
 2397 10c8 17       		.uleb128 0x17
 2398 10c9 92000000 		.4byte	0x92
 2399 10cd D8100000 		.4byte	0x10d8
 2400 10d1 18       		.uleb128 0x18
 2401 10d2 38000000 		.4byte	0x38
 2402 10d6 02       		.byte	0x2
 2403 10d7 00       		.byte	0
 2404 10d8 23       		.uleb128 0x23
 2405 10d9 D0       		.byte	0xd0
 2406 10da 12       		.byte	0x12
 2407 10db 8502     		.2byte	0x285
 2408 10dd 07       		.byte	0x7
 2409 10de ED110000 		.4byte	0x11ed
 2410 10e2 09       		.uleb128 0x9
 2411 10e3 68070000 		.4byte	.LASF236
 2412 10e7 12       		.byte	0x12
 2413 10e8 8702     		.2byte	0x287
 2414 10ea 18       		.byte	0x18
 2415 10eb 38000000 		.4byte	0x38
 2416 10ef 00       		.byte	0
 2417 10f0 09       		.uleb128 0x9
 2418 10f1 F7070000 		.4byte	.LASF237
 2419 10f5 12       		.byte	0x12
 2420 10f6 8802     		.2byte	0x288
 2421 10f8 12       		.byte	0x12
 2422 10f9 AF0F0000 		.4byte	0xfaf
 2423 10fd 04       		.byte	0x4
 2424 10fe 09       		.uleb128 0x9
 2425 10ff 87000000 		.4byte	.LASF238
 2426 1103 12       		.byte	0x12
 2427 1104 8902     		.2byte	0x289
 2428 1106 10       		.byte	0x10
 2429 1107 ED110000 		.4byte	0x11ed
 2430 110b 08       		.byte	0x8
 2431 110c 09       		.uleb128 0x9
 2432 110d F2010000 		.4byte	.LASF239
 2433 1111 12       		.byte	0x12
 2434 1112 8A02     		.2byte	0x28a
 2435 1114 17       		.byte	0x17
 2436 1115 940B0000 		.4byte	0xb94
 2437 1119 24       		.byte	0x24
 2438 111a 09       		.uleb128 0x9
 2439 111b 74050000 		.4byte	.LASF240
 2440 111f 12       		.byte	0x12
 2441 1120 8B02     		.2byte	0x28b
 2442 1122 0F       		.byte	0xf
 2443 1123 25000000 		.4byte	0x25
 2444 1127 48       		.byte	0x48
 2445 1128 09       		.uleb128 0x9
 2446 1129 7D060000 		.4byte	.LASF241
 2447 112d 12       		.byte	0x12
 2448 112e 8C02     		.2byte	0x28c
 2449 1130 2C       		.byte	0x2c
 2450 1131 B8000000 		.4byte	0xb8
 2451 1135 50       		.byte	0x50
ARM GAS  /tmp/ccjw355H.s 			page 44


 2452 1136 09       		.uleb128 0x9
 2453 1137 46080000 		.4byte	.LASF242
 2454 113b 12       		.byte	0x12
 2455 113c 8D02     		.2byte	0x28d
 2456 113e 1A       		.byte	0x1a
 2457 113f 8F100000 		.4byte	0x108f
 2458 1143 58       		.byte	0x58
 2459 1144 09       		.uleb128 0x9
 2460 1145 A8080000 		.4byte	.LASF243
 2461 1149 12       		.byte	0x12
 2462 114a 8E02     		.2byte	0x28e
 2463 114c 16       		.byte	0x16
 2464 114d F40A0000 		.4byte	0xaf4
 2465 1151 68       		.byte	0x68
 2466 1152 09       		.uleb128 0x9
 2467 1153 4D070000 		.4byte	.LASF244
 2468 1157 12       		.byte	0x12
 2469 1158 8F02     		.2byte	0x28f
 2470 115a 16       		.byte	0x16
 2471 115b F40A0000 		.4byte	0xaf4
 2472 115f 70       		.byte	0x70
 2473 1160 09       		.uleb128 0x9
 2474 1161 66060000 		.4byte	.LASF245
 2475 1165 12       		.byte	0x12
 2476 1166 9002     		.2byte	0x290
 2477 1168 16       		.byte	0x16
 2478 1169 F40A0000 		.4byte	0xaf4
 2479 116d 78       		.byte	0x78
 2480 116e 09       		.uleb128 0x9
 2481 116f F4000000 		.4byte	.LASF246
 2482 1173 12       		.byte	0x12
 2483 1174 9102     		.2byte	0x291
 2484 1176 10       		.byte	0x10
 2485 1177 FD110000 		.4byte	0x11fd
 2486 117b 80       		.byte	0x80
 2487 117c 09       		.uleb128 0x9
 2488 117d 91040000 		.4byte	.LASF247
 2489 1181 12       		.byte	0x12
 2490 1182 9202     		.2byte	0x292
 2491 1184 10       		.byte	0x10
 2492 1185 0D120000 		.4byte	0x120d
 2493 1189 88       		.byte	0x88
 2494 118a 09       		.uleb128 0x9
 2495 118b F50B0000 		.4byte	.LASF248
 2496 118f 12       		.byte	0x12
 2497 1190 9302     		.2byte	0x293
 2498 1192 0F       		.byte	0xf
 2499 1193 25000000 		.4byte	0x25
 2500 1197 A0       		.byte	0xa0
 2501 1198 09       		.uleb128 0x9
 2502 1199 98010000 		.4byte	.LASF249
 2503 119d 12       		.byte	0x12
 2504 119e 9402     		.2byte	0x294
 2505 11a0 16       		.byte	0x16
 2506 11a1 F40A0000 		.4byte	0xaf4
 2507 11a5 A4       		.byte	0xa4
 2508 11a6 09       		.uleb128 0x9
ARM GAS  /tmp/ccjw355H.s 			page 45


 2509 11a7 04080000 		.4byte	.LASF250
 2510 11ab 12       		.byte	0x12
 2511 11ac 9502     		.2byte	0x295
 2512 11ae 16       		.byte	0x16
 2513 11af F40A0000 		.4byte	0xaf4
 2514 11b3 AC       		.byte	0xac
 2515 11b4 09       		.uleb128 0x9
 2516 11b5 A00B0000 		.4byte	.LASF251
 2517 11b9 12       		.byte	0x12
 2518 11ba 9602     		.2byte	0x296
 2519 11bc 16       		.byte	0x16
 2520 11bd F40A0000 		.4byte	0xaf4
 2521 11c1 B4       		.byte	0xb4
 2522 11c2 09       		.uleb128 0x9
 2523 11c3 2B060000 		.4byte	.LASF252
 2524 11c7 12       		.byte	0x12
 2525 11c8 9702     		.2byte	0x297
 2526 11ca 16       		.byte	0x16
 2527 11cb F40A0000 		.4byte	0xaf4
 2528 11cf BC       		.byte	0xbc
 2529 11d0 09       		.uleb128 0x9
 2530 11d1 D4000000 		.4byte	.LASF253
 2531 11d5 12       		.byte	0x12
 2532 11d6 9802     		.2byte	0x298
 2533 11d8 16       		.byte	0x16
 2534 11d9 F40A0000 		.4byte	0xaf4
 2535 11dd C4       		.byte	0xc4
 2536 11de 09       		.uleb128 0x9
 2537 11df 0F060000 		.4byte	.LASF254
 2538 11e3 12       		.byte	0x12
 2539 11e4 9902     		.2byte	0x299
 2540 11e6 08       		.byte	0x8
 2541 11e7 25000000 		.4byte	0x25
 2542 11eb CC       		.byte	0xcc
 2543 11ec 00       		.byte	0
 2544 11ed 17       		.uleb128 0x17
 2545 11ee 12090000 		.4byte	0x912
 2546 11f2 FD110000 		.4byte	0x11fd
 2547 11f6 18       		.uleb128 0x18
 2548 11f7 38000000 		.4byte	0x38
 2549 11fb 19       		.byte	0x19
 2550 11fc 00       		.byte	0
 2551 11fd 17       		.uleb128 0x17
 2552 11fe 12090000 		.4byte	0x912
 2553 1202 0D120000 		.4byte	0x120d
 2554 1206 18       		.uleb128 0x18
 2555 1207 38000000 		.4byte	0x38
 2556 120b 07       		.byte	0x7
 2557 120c 00       		.byte	0
 2558 120d 17       		.uleb128 0x17
 2559 120e 12090000 		.4byte	0x912
 2560 1212 1D120000 		.4byte	0x121d
 2561 1216 18       		.uleb128 0x18
 2562 1217 38000000 		.4byte	0x38
 2563 121b 17       		.byte	0x17
 2564 121c 00       		.byte	0
 2565 121d 23       		.uleb128 0x23
ARM GAS  /tmp/ccjw355H.s 			page 46


 2566 121e F0       		.byte	0xf0
 2567 121f 12       		.byte	0x12
 2568 1220 9E02     		.2byte	0x29e
 2569 1222 07       		.byte	0x7
 2570 1223 44120000 		.4byte	0x1244
 2571 1227 09       		.uleb128 0x9
 2572 1228 41090000 		.4byte	.LASF255
 2573 122c 12       		.byte	0x12
 2574 122d A102     		.2byte	0x2a1
 2575 122f 1B       		.byte	0x1b
 2576 1230 44120000 		.4byte	0x1244
 2577 1234 00       		.byte	0
 2578 1235 09       		.uleb128 0x9
 2579 1236 63050000 		.4byte	.LASF256
 2580 123a 12       		.byte	0x12
 2581 123b A202     		.2byte	0x2a2
 2582 123d 18       		.byte	0x18
 2583 123e 54120000 		.4byte	0x1254
 2584 1242 78       		.byte	0x78
 2585 1243 00       		.byte	0
 2586 1244 17       		.uleb128 0x17
 2587 1245 F40C0000 		.4byte	0xcf4
 2588 1249 54120000 		.4byte	0x1254
 2589 124d 18       		.uleb128 0x18
 2590 124e 38000000 		.4byte	0x38
 2591 1252 1D       		.byte	0x1d
 2592 1253 00       		.byte	0
 2593 1254 17       		.uleb128 0x17
 2594 1255 38000000 		.4byte	0x38
 2595 1259 64120000 		.4byte	0x1264
 2596 125d 18       		.uleb128 0x18
 2597 125e 38000000 		.4byte	0x38
 2598 1262 1D       		.byte	0x1d
 2599 1263 00       		.byte	0
 2600 1264 24       		.uleb128 0x24
 2601 1265 F0       		.byte	0xf0
 2602 1266 12       		.byte	0x12
 2603 1267 8302     		.2byte	0x283
 2604 1269 03       		.byte	0x3
 2605 126a 89120000 		.4byte	0x1289
 2606 126e 1A       		.uleb128 0x1a
 2607 126f 29010000 		.4byte	.LASF206
 2608 1273 12       		.byte	0x12
 2609 1274 9A02     		.2byte	0x29a
 2610 1276 0B       		.byte	0xb
 2611 1277 D8100000 		.4byte	0x10d8
 2612 127b 1A       		.uleb128 0x1a
 2613 127c C7000000 		.4byte	.LASF257
 2614 1280 12       		.byte	0x12
 2615 1281 A302     		.2byte	0x2a3
 2616 1283 0B       		.byte	0xb
 2617 1284 1D120000 		.4byte	0x121d
 2618 1288 00       		.byte	0
 2619 1289 17       		.uleb128 0x17
 2620 128a 12090000 		.4byte	0x912
 2621 128e 99120000 		.4byte	0x1299
 2622 1292 18       		.uleb128 0x18
ARM GAS  /tmp/ccjw355H.s 			page 47


 2623 1293 38000000 		.4byte	0x38
 2624 1297 18       		.byte	0x18
 2625 1298 00       		.byte	0
 2626 1299 25       		.uleb128 0x25
 2627 129a 0F000000 		.4byte	.LASF268
 2628 129e 0A       		.uleb128 0xa
 2629 129f 04       		.byte	0x4
 2630 12a0 99120000 		.4byte	0x1299
 2631 12a4 0C       		.uleb128 0xc
 2632 12a5 AF120000 		.4byte	0x12af
 2633 12a9 0D       		.uleb128 0xd
 2634 12aa 5B0E0000 		.4byte	0xe5b
 2635 12ae 00       		.byte	0
 2636 12af 0A       		.uleb128 0xa
 2637 12b0 04       		.byte	0x4
 2638 12b1 A4120000 		.4byte	0x12a4
 2639 12b5 0A       		.uleb128 0xa
 2640 12b6 04       		.byte	0x4
 2641 12b7 7E0B0000 		.4byte	0xb7e
 2642 12bb 0C       		.uleb128 0xc
 2643 12bc C6120000 		.4byte	0x12c6
 2644 12c0 0D       		.uleb128 0xd
 2645 12c1 25000000 		.4byte	0x25
 2646 12c5 00       		.byte	0
 2647 12c6 0A       		.uleb128 0xa
 2648 12c7 04       		.byte	0x4
 2649 12c8 CC120000 		.4byte	0x12cc
 2650 12cc 0A       		.uleb128 0xa
 2651 12cd 04       		.byte	0x4
 2652 12ce BB120000 		.4byte	0x12bb
 2653 12d2 17       		.uleb128 0x17
 2654 12d3 3D100000 		.4byte	0x103d
 2655 12d7 E2120000 		.4byte	0x12e2
 2656 12db 18       		.uleb128 0x18
 2657 12dc 38000000 		.4byte	0x38
 2658 12e0 02       		.byte	0x2
 2659 12e1 00       		.byte	0
 2660 12e2 12       		.uleb128 0x12
 2661 12e3 B6010000 		.4byte	.LASF258
 2662 12e7 12       		.byte	0x12
 2663 12e8 3303     		.2byte	0x333
 2664 12ea 17       		.byte	0x17
 2665 12eb 5B0E0000 		.4byte	0xe5b
 2666 12ef 12       		.uleb128 0x12
 2667 12f0 C8020000 		.4byte	.LASF259
 2668 12f4 12       		.byte	0x12
 2669 12f5 3403     		.2byte	0x334
 2670 12f7 1D       		.byte	0x1d
 2671 12f8 610E0000 		.4byte	0xe61
 2672 12fc 26       		.uleb128 0x26
 2673 12fd 020C0000 		.4byte	.LASF269
 2674 1301 01       		.byte	0x1
 2675 1302 04       		.byte	0x4
 2676 1303 08       		.byte	0x8
 2677 1304 670A0000 		.4byte	0xa67
 2678 1308 05       		.uleb128 0x5
 2679 1309 03       		.byte	0x3
ARM GAS  /tmp/ccjw355H.s 			page 48


 2680 130a 00000000 		.4byte	lock
 2681 130e 27       		.uleb128 0x27
 2682 130f 6C080000 		.4byte	.LASF260
 2683 1313 14       		.byte	0x14
 2684 1314 8A       		.byte	0x8a
 2685 1315 0D       		.byte	0xd
 2686 1316 00000000 		.4byte	.LFB220
 2687 131a 30000000 		.4byte	.LFE220-.LFB220
 2688 131e 01       		.uleb128 0x1
 2689 131f 9C       		.byte	0x9c
 2690 1320 59130000 		.4byte	0x1359
 2691 1324 28       		.uleb128 0x28
 2692 1325 E7040000 		.4byte	.LASF262
 2693 1329 01       		.byte	0x1
 2694 132a 10       		.byte	0x10
 2695 132b 26       		.byte	0x26
 2696 132c 5B0E0000 		.4byte	0xe5b
 2697 1330 08000000 		.4byte	.LLST1
 2698 1334 00000000 		.4byte	.LVUS1
 2699 1338 29       		.uleb128 0x29
 2700 1339 24000000 		.4byte	.LVL6
 2701 133d A4130000 		.4byte	0x13a4
 2702 1341 4F130000 		.4byte	0x134f
 2703 1345 2A       		.uleb128 0x2a
 2704 1346 01       		.uleb128 0x1
 2705 1347 50       		.byte	0x50
 2706 1348 05       		.uleb128 0x5
 2707 1349 03       		.byte	0x3
 2708 134a 00000000 		.4byte	.LANCHOR0
 2709 134e 00       		.byte	0
 2710 134f 2B       		.uleb128 0x2b
 2711 1350 28000000 		.4byte	.LVL7
 2712 1354 B0130000 		.4byte	0x13b0
 2713 1358 00       		.byte	0
 2714 1359 27       		.uleb128 0x27
 2715 135a BC040000 		.4byte	.LASF261
 2716 135e 14       		.byte	0x14
 2717 135f 88       		.byte	0x88
 2718 1360 0D       		.byte	0xd
 2719 1361 00000000 		.4byte	.LFB219
 2720 1365 30000000 		.4byte	.LFE219-.LFB219
 2721 1369 01       		.uleb128 0x1
 2722 136a 9C       		.byte	0x9c
 2723 136b A4130000 		.4byte	0x13a4
 2724 136f 28       		.uleb128 0x28
 2725 1370 E7040000 		.4byte	.LASF262
 2726 1374 01       		.byte	0x1
 2727 1375 0A       		.byte	0xa
 2728 1376 24       		.byte	0x24
 2729 1377 5B0E0000 		.4byte	0xe5b
 2730 137b 4A000000 		.4byte	.LLST0
 2731 137f 42000000 		.4byte	.LVUS0
 2732 1383 29       		.uleb128 0x29
 2733 1384 24000000 		.4byte	.LVL2
 2734 1388 B9130000 		.4byte	0x13b9
 2735 138c 9A130000 		.4byte	0x139a
 2736 1390 2A       		.uleb128 0x2a
ARM GAS  /tmp/ccjw355H.s 			page 49


 2737 1391 01       		.uleb128 0x1
 2738 1392 50       		.byte	0x50
 2739 1393 05       		.uleb128 0x5
 2740 1394 03       		.byte	0x3
 2741 1395 00000000 		.4byte	.LANCHOR0
 2742 1399 00       		.byte	0
 2743 139a 2B       		.uleb128 0x2b
 2744 139b 28000000 		.4byte	.LVL3
 2745 139f B0130000 		.4byte	0x13b0
 2746 13a3 00       		.byte	0
 2747 13a4 2C       		.uleb128 0x2c
 2748 13a5 CC010000 		.4byte	.LASF263
 2749 13a9 CC010000 		.4byte	.LASF263
 2750 13ad 0F       		.byte	0xf
 2751 13ae 6C       		.byte	0x6c
 2752 13af 08       		.byte	0x8
 2753 13b0 2D       		.uleb128 0x2d
 2754 13b1 1A050000 		.4byte	.LASF270
 2755 13b5 1A050000 		.4byte	.LASF270
 2756 13b9 2C       		.uleb128 0x2c
 2757 13ba 95050000 		.4byte	.LASF264
 2758 13be 95050000 		.4byte	.LASF264
 2759 13c2 0F       		.byte	0xf
 2760 13c3 68       		.byte	0x68
 2761 13c4 08       		.byte	0x8
 2762 13c5 00       		.byte	0
 2763              		.section	.debug_abbrev,"",%progbits
 2764              	.Ldebug_abbrev0:
 2765 0000 01       		.uleb128 0x1
 2766 0001 11       		.uleb128 0x11
 2767 0002 01       		.byte	0x1
 2768 0003 25       		.uleb128 0x25
 2769 0004 0E       		.uleb128 0xe
 2770 0005 13       		.uleb128 0x13
 2771 0006 0B       		.uleb128 0xb
 2772 0007 03       		.uleb128 0x3
 2773 0008 0E       		.uleb128 0xe
 2774 0009 1B       		.uleb128 0x1b
 2775 000a 0E       		.uleb128 0xe
 2776 000b 55       		.uleb128 0x55
 2777 000c 17       		.uleb128 0x17
 2778 000d 11       		.uleb128 0x11
 2779 000e 01       		.uleb128 0x1
 2780 000f 10       		.uleb128 0x10
 2781 0010 17       		.uleb128 0x17
 2782 0011 00       		.byte	0
 2783 0012 00       		.byte	0
 2784 0013 02       		.uleb128 0x2
 2785 0014 24       		.uleb128 0x24
 2786 0015 00       		.byte	0
 2787 0016 0B       		.uleb128 0xb
 2788 0017 0B       		.uleb128 0xb
 2789 0018 3E       		.uleb128 0x3e
 2790 0019 0B       		.uleb128 0xb
 2791 001a 03       		.uleb128 0x3
 2792 001b 08       		.uleb128 0x8
 2793 001c 00       		.byte	0
ARM GAS  /tmp/ccjw355H.s 			page 50


 2794 001d 00       		.byte	0
 2795 001e 03       		.uleb128 0x3
 2796 001f 16       		.uleb128 0x16
 2797 0020 00       		.byte	0
 2798 0021 03       		.uleb128 0x3
 2799 0022 0E       		.uleb128 0xe
 2800 0023 3A       		.uleb128 0x3a
 2801 0024 0B       		.uleb128 0xb
 2802 0025 3B       		.uleb128 0x3b
 2803 0026 0B       		.uleb128 0xb
 2804 0027 39       		.uleb128 0x39
 2805 0028 0B       		.uleb128 0xb
 2806 0029 49       		.uleb128 0x49
 2807 002a 13       		.uleb128 0x13
 2808 002b 00       		.byte	0
 2809 002c 00       		.byte	0
 2810 002d 04       		.uleb128 0x4
 2811 002e 24       		.uleb128 0x24
 2812 002f 00       		.byte	0
 2813 0030 0B       		.uleb128 0xb
 2814 0031 0B       		.uleb128 0xb
 2815 0032 3E       		.uleb128 0x3e
 2816 0033 0B       		.uleb128 0xb
 2817 0034 03       		.uleb128 0x3
 2818 0035 0E       		.uleb128 0xe
 2819 0036 00       		.byte	0
 2820 0037 00       		.byte	0
 2821 0038 05       		.uleb128 0x5
 2822 0039 35       		.uleb128 0x35
 2823 003a 00       		.byte	0
 2824 003b 49       		.uleb128 0x49
 2825 003c 13       		.uleb128 0x13
 2826 003d 00       		.byte	0
 2827 003e 00       		.byte	0
 2828 003f 06       		.uleb128 0x6
 2829 0040 13       		.uleb128 0x13
 2830 0041 01       		.byte	0x1
 2831 0042 03       		.uleb128 0x3
 2832 0043 0E       		.uleb128 0xe
 2833 0044 0B       		.uleb128 0xb
 2834 0045 0B       		.uleb128 0xb
 2835 0046 3A       		.uleb128 0x3a
 2836 0047 0B       		.uleb128 0xb
 2837 0048 3B       		.uleb128 0x3b
 2838 0049 0B       		.uleb128 0xb
 2839 004a 39       		.uleb128 0x39
 2840 004b 0B       		.uleb128 0xb
 2841 004c 01       		.uleb128 0x1
 2842 004d 13       		.uleb128 0x13
 2843 004e 00       		.byte	0
 2844 004f 00       		.byte	0
 2845 0050 07       		.uleb128 0x7
 2846 0051 0D       		.uleb128 0xd
 2847 0052 00       		.byte	0
 2848 0053 03       		.uleb128 0x3
 2849 0054 0E       		.uleb128 0xe
 2850 0055 3A       		.uleb128 0x3a
ARM GAS  /tmp/ccjw355H.s 			page 51


 2851 0056 0B       		.uleb128 0xb
 2852 0057 3B       		.uleb128 0x3b
 2853 0058 0B       		.uleb128 0xb
 2854 0059 39       		.uleb128 0x39
 2855 005a 0B       		.uleb128 0xb
 2856 005b 49       		.uleb128 0x49
 2857 005c 13       		.uleb128 0x13
 2858 005d 38       		.uleb128 0x38
 2859 005e 0B       		.uleb128 0xb
 2860 005f 00       		.byte	0
 2861 0060 00       		.byte	0
 2862 0061 08       		.uleb128 0x8
 2863 0062 0D       		.uleb128 0xd
 2864 0063 00       		.byte	0
 2865 0064 03       		.uleb128 0x3
 2866 0065 08       		.uleb128 0x8
 2867 0066 3A       		.uleb128 0x3a
 2868 0067 0B       		.uleb128 0xb
 2869 0068 3B       		.uleb128 0x3b
 2870 0069 05       		.uleb128 0x5
 2871 006a 39       		.uleb128 0x39
 2872 006b 0B       		.uleb128 0xb
 2873 006c 49       		.uleb128 0x49
 2874 006d 13       		.uleb128 0x13
 2875 006e 38       		.uleb128 0x38
 2876 006f 0B       		.uleb128 0xb
 2877 0070 00       		.byte	0
 2878 0071 00       		.byte	0
 2879 0072 09       		.uleb128 0x9
 2880 0073 0D       		.uleb128 0xd
 2881 0074 00       		.byte	0
 2882 0075 03       		.uleb128 0x3
 2883 0076 0E       		.uleb128 0xe
 2884 0077 3A       		.uleb128 0x3a
 2885 0078 0B       		.uleb128 0xb
 2886 0079 3B       		.uleb128 0x3b
 2887 007a 05       		.uleb128 0x5
 2888 007b 39       		.uleb128 0x39
 2889 007c 0B       		.uleb128 0xb
 2890 007d 49       		.uleb128 0x49
 2891 007e 13       		.uleb128 0x13
 2892 007f 38       		.uleb128 0x38
 2893 0080 0B       		.uleb128 0xb
 2894 0081 00       		.byte	0
 2895 0082 00       		.byte	0
 2896 0083 0A       		.uleb128 0xa
 2897 0084 0F       		.uleb128 0xf
 2898 0085 00       		.byte	0
 2899 0086 0B       		.uleb128 0xb
 2900 0087 0B       		.uleb128 0xb
 2901 0088 49       		.uleb128 0x49
 2902 0089 13       		.uleb128 0x13
 2903 008a 00       		.byte	0
 2904 008b 00       		.byte	0
 2905 008c 0B       		.uleb128 0xb
 2906 008d 13       		.uleb128 0x13
 2907 008e 01       		.byte	0x1
ARM GAS  /tmp/ccjw355H.s 			page 52


 2908 008f 03       		.uleb128 0x3
 2909 0090 0E       		.uleb128 0xe
 2910 0091 0B       		.uleb128 0xb
 2911 0092 0B       		.uleb128 0xb
 2912 0093 3A       		.uleb128 0x3a
 2913 0094 0B       		.uleb128 0xb
 2914 0095 3B       		.uleb128 0x3b
 2915 0096 05       		.uleb128 0x5
 2916 0097 39       		.uleb128 0x39
 2917 0098 0B       		.uleb128 0xb
 2918 0099 01       		.uleb128 0x1
 2919 009a 13       		.uleb128 0x13
 2920 009b 00       		.byte	0
 2921 009c 00       		.byte	0
 2922 009d 0C       		.uleb128 0xc
 2923 009e 15       		.uleb128 0x15
 2924 009f 01       		.byte	0x1
 2925 00a0 27       		.uleb128 0x27
 2926 00a1 19       		.uleb128 0x19
 2927 00a2 01       		.uleb128 0x1
 2928 00a3 13       		.uleb128 0x13
 2929 00a4 00       		.byte	0
 2930 00a5 00       		.byte	0
 2931 00a6 0D       		.uleb128 0xd
 2932 00a7 05       		.uleb128 0x5
 2933 00a8 00       		.byte	0
 2934 00a9 49       		.uleb128 0x49
 2935 00aa 13       		.uleb128 0x13
 2936 00ab 00       		.byte	0
 2937 00ac 00       		.byte	0
 2938 00ad 0E       		.uleb128 0xe
 2939 00ae 0F       		.uleb128 0xf
 2940 00af 00       		.byte	0
 2941 00b0 0B       		.uleb128 0xb
 2942 00b1 0B       		.uleb128 0xb
 2943 00b2 00       		.byte	0
 2944 00b3 00       		.byte	0
 2945 00b4 0F       		.uleb128 0xf
 2946 00b5 13       		.uleb128 0x13
 2947 00b6 01       		.byte	0x1
 2948 00b7 03       		.uleb128 0x3
 2949 00b8 0E       		.uleb128 0xe
 2950 00b9 0B       		.uleb128 0xb
 2951 00ba 05       		.uleb128 0x5
 2952 00bb 3A       		.uleb128 0x3a
 2953 00bc 0B       		.uleb128 0xb
 2954 00bd 3B       		.uleb128 0x3b
 2955 00be 05       		.uleb128 0x5
 2956 00bf 39       		.uleb128 0x39
 2957 00c0 0B       		.uleb128 0xb
 2958 00c1 01       		.uleb128 0x1
 2959 00c2 13       		.uleb128 0x13
 2960 00c3 00       		.byte	0
 2961 00c4 00       		.byte	0
 2962 00c5 10       		.uleb128 0x10
 2963 00c6 0D       		.uleb128 0xd
 2964 00c7 00       		.byte	0
ARM GAS  /tmp/ccjw355H.s 			page 53


 2965 00c8 03       		.uleb128 0x3
 2966 00c9 0E       		.uleb128 0xe
 2967 00ca 3A       		.uleb128 0x3a
 2968 00cb 0B       		.uleb128 0xb
 2969 00cc 3B       		.uleb128 0x3b
 2970 00cd 05       		.uleb128 0x5
 2971 00ce 39       		.uleb128 0x39
 2972 00cf 0B       		.uleb128 0xb
 2973 00d0 49       		.uleb128 0x49
 2974 00d1 13       		.uleb128 0x13
 2975 00d2 38       		.uleb128 0x38
 2976 00d3 05       		.uleb128 0x5
 2977 00d4 00       		.byte	0
 2978 00d5 00       		.byte	0
 2979 00d6 11       		.uleb128 0x11
 2980 00d7 0D       		.uleb128 0xd
 2981 00d8 00       		.byte	0
 2982 00d9 03       		.uleb128 0x3
 2983 00da 08       		.uleb128 0x8
 2984 00db 3A       		.uleb128 0x3a
 2985 00dc 0B       		.uleb128 0xb
 2986 00dd 3B       		.uleb128 0x3b
 2987 00de 05       		.uleb128 0x5
 2988 00df 39       		.uleb128 0x39
 2989 00e0 0B       		.uleb128 0xb
 2990 00e1 49       		.uleb128 0x49
 2991 00e2 13       		.uleb128 0x13
 2992 00e3 38       		.uleb128 0x38
 2993 00e4 05       		.uleb128 0x5
 2994 00e5 00       		.byte	0
 2995 00e6 00       		.byte	0
 2996 00e7 12       		.uleb128 0x12
 2997 00e8 34       		.uleb128 0x34
 2998 00e9 00       		.byte	0
 2999 00ea 03       		.uleb128 0x3
 3000 00eb 0E       		.uleb128 0xe
 3001 00ec 3A       		.uleb128 0x3a
 3002 00ed 0B       		.uleb128 0xb
 3003 00ee 3B       		.uleb128 0x3b
 3004 00ef 05       		.uleb128 0x5
 3005 00f0 39       		.uleb128 0x39
 3006 00f1 0B       		.uleb128 0xb
 3007 00f2 49       		.uleb128 0x49
 3008 00f3 13       		.uleb128 0x13
 3009 00f4 3F       		.uleb128 0x3f
 3010 00f5 19       		.uleb128 0x19
 3011 00f6 3C       		.uleb128 0x3c
 3012 00f7 19       		.uleb128 0x19
 3013 00f8 00       		.byte	0
 3014 00f9 00       		.byte	0
 3015 00fa 13       		.uleb128 0x13
 3016 00fb 34       		.uleb128 0x34
 3017 00fc 00       		.byte	0
 3018 00fd 03       		.uleb128 0x3
 3019 00fe 0E       		.uleb128 0xe
 3020 00ff 3A       		.uleb128 0x3a
 3021 0100 0B       		.uleb128 0xb
ARM GAS  /tmp/ccjw355H.s 			page 54


 3022 0101 3B       		.uleb128 0x3b
 3023 0102 0B       		.uleb128 0xb
 3024 0103 39       		.uleb128 0x39
 3025 0104 0B       		.uleb128 0xb
 3026 0105 49       		.uleb128 0x49
 3027 0106 13       		.uleb128 0x13
 3028 0107 3F       		.uleb128 0x3f
 3029 0108 19       		.uleb128 0x19
 3030 0109 3C       		.uleb128 0x3c
 3031 010a 19       		.uleb128 0x19
 3032 010b 00       		.byte	0
 3033 010c 00       		.byte	0
 3034 010d 14       		.uleb128 0x14
 3035 010e 0D       		.uleb128 0xd
 3036 010f 00       		.byte	0
 3037 0110 03       		.uleb128 0x3
 3038 0111 08       		.uleb128 0x8
 3039 0112 3A       		.uleb128 0x3a
 3040 0113 0B       		.uleb128 0xb
 3041 0114 3B       		.uleb128 0x3b
 3042 0115 0B       		.uleb128 0xb
 3043 0116 39       		.uleb128 0x39
 3044 0117 0B       		.uleb128 0xb
 3045 0118 49       		.uleb128 0x49
 3046 0119 13       		.uleb128 0x13
 3047 011a 38       		.uleb128 0x38
 3048 011b 0B       		.uleb128 0xb
 3049 011c 00       		.byte	0
 3050 011d 00       		.byte	0
 3051 011e 15       		.uleb128 0x15
 3052 011f 13       		.uleb128 0x13
 3053 0120 01       		.byte	0x1
 3054 0121 0B       		.uleb128 0xb
 3055 0122 0B       		.uleb128 0xb
 3056 0123 3A       		.uleb128 0x3a
 3057 0124 0B       		.uleb128 0xb
 3058 0125 3B       		.uleb128 0x3b
 3059 0126 0B       		.uleb128 0xb
 3060 0127 39       		.uleb128 0x39
 3061 0128 0B       		.uleb128 0xb
 3062 0129 01       		.uleb128 0x1
 3063 012a 13       		.uleb128 0x13
 3064 012b 00       		.byte	0
 3065 012c 00       		.byte	0
 3066 012d 16       		.uleb128 0x16
 3067 012e 13       		.uleb128 0x13
 3068 012f 01       		.byte	0x1
 3069 0130 0B       		.uleb128 0xb
 3070 0131 05       		.uleb128 0x5
 3071 0132 3A       		.uleb128 0x3a
 3072 0133 0B       		.uleb128 0xb
 3073 0134 3B       		.uleb128 0x3b
 3074 0135 0B       		.uleb128 0xb
 3075 0136 39       		.uleb128 0x39
 3076 0137 0B       		.uleb128 0xb
 3077 0138 01       		.uleb128 0x1
 3078 0139 13       		.uleb128 0x13
ARM GAS  /tmp/ccjw355H.s 			page 55


 3079 013a 00       		.byte	0
 3080 013b 00       		.byte	0
 3081 013c 17       		.uleb128 0x17
 3082 013d 01       		.uleb128 0x1
 3083 013e 01       		.byte	0x1
 3084 013f 49       		.uleb128 0x49
 3085 0140 13       		.uleb128 0x13
 3086 0141 01       		.uleb128 0x1
 3087 0142 13       		.uleb128 0x13
 3088 0143 00       		.byte	0
 3089 0144 00       		.byte	0
 3090 0145 18       		.uleb128 0x18
 3091 0146 21       		.uleb128 0x21
 3092 0147 00       		.byte	0
 3093 0148 49       		.uleb128 0x49
 3094 0149 13       		.uleb128 0x13
 3095 014a 2F       		.uleb128 0x2f
 3096 014b 0B       		.uleb128 0xb
 3097 014c 00       		.byte	0
 3098 014d 00       		.byte	0
 3099 014e 19       		.uleb128 0x19
 3100 014f 17       		.uleb128 0x17
 3101 0150 01       		.byte	0x1
 3102 0151 0B       		.uleb128 0xb
 3103 0152 0B       		.uleb128 0xb
 3104 0153 3A       		.uleb128 0x3a
 3105 0154 0B       		.uleb128 0xb
 3106 0155 3B       		.uleb128 0x3b
 3107 0156 0B       		.uleb128 0xb
 3108 0157 39       		.uleb128 0x39
 3109 0158 0B       		.uleb128 0xb
 3110 0159 01       		.uleb128 0x1
 3111 015a 13       		.uleb128 0x13
 3112 015b 00       		.byte	0
 3113 015c 00       		.byte	0
 3114 015d 1A       		.uleb128 0x1a
 3115 015e 0D       		.uleb128 0xd
 3116 015f 00       		.byte	0
 3117 0160 03       		.uleb128 0x3
 3118 0161 0E       		.uleb128 0xe
 3119 0162 3A       		.uleb128 0x3a
 3120 0163 0B       		.uleb128 0xb
 3121 0164 3B       		.uleb128 0x3b
 3122 0165 05       		.uleb128 0x5
 3123 0166 39       		.uleb128 0x39
 3124 0167 0B       		.uleb128 0xb
 3125 0168 49       		.uleb128 0x49
 3126 0169 13       		.uleb128 0x13
 3127 016a 00       		.byte	0
 3128 016b 00       		.byte	0
 3129 016c 1B       		.uleb128 0x1b
 3130 016d 26       		.uleb128 0x26
 3131 016e 00       		.byte	0
 3132 016f 49       		.uleb128 0x49
 3133 0170 13       		.uleb128 0x13
 3134 0171 00       		.byte	0
 3135 0172 00       		.byte	0
ARM GAS  /tmp/ccjw355H.s 			page 56


 3136 0173 1C       		.uleb128 0x1c
 3137 0174 34       		.uleb128 0x34
 3138 0175 00       		.byte	0
 3139 0176 03       		.uleb128 0x3
 3140 0177 08       		.uleb128 0x8
 3141 0178 3A       		.uleb128 0x3a
 3142 0179 0B       		.uleb128 0xb
 3143 017a 3B       		.uleb128 0x3b
 3144 017b 05       		.uleb128 0x5
 3145 017c 39       		.uleb128 0x39
 3146 017d 0B       		.uleb128 0xb
 3147 017e 49       		.uleb128 0x49
 3148 017f 13       		.uleb128 0x13
 3149 0180 3F       		.uleb128 0x3f
 3150 0181 19       		.uleb128 0x19
 3151 0182 3C       		.uleb128 0x3c
 3152 0183 19       		.uleb128 0x19
 3153 0184 00       		.byte	0
 3154 0185 00       		.byte	0
 3155 0186 1D       		.uleb128 0x1d
 3156 0187 16       		.uleb128 0x16
 3157 0188 00       		.byte	0
 3158 0189 03       		.uleb128 0x3
 3159 018a 0E       		.uleb128 0xe
 3160 018b 3A       		.uleb128 0x3a
 3161 018c 0B       		.uleb128 0xb
 3162 018d 3B       		.uleb128 0x3b
 3163 018e 05       		.uleb128 0x5
 3164 018f 39       		.uleb128 0x39
 3165 0190 0B       		.uleb128 0xb
 3166 0191 49       		.uleb128 0x49
 3167 0192 13       		.uleb128 0x13
 3168 0193 00       		.byte	0
 3169 0194 00       		.byte	0
 3170 0195 1E       		.uleb128 0x1e
 3171 0196 0D       		.uleb128 0xd
 3172 0197 00       		.byte	0
 3173 0198 03       		.uleb128 0x3
 3174 0199 0E       		.uleb128 0xe
 3175 019a 3A       		.uleb128 0x3a
 3176 019b 0B       		.uleb128 0xb
 3177 019c 3B       		.uleb128 0x3b
 3178 019d 0B       		.uleb128 0xb
 3179 019e 39       		.uleb128 0x39
 3180 019f 0B       		.uleb128 0xb
 3181 01a0 49       		.uleb128 0x49
 3182 01a1 13       		.uleb128 0x13
 3183 01a2 00       		.byte	0
 3184 01a3 00       		.byte	0
 3185 01a4 1F       		.uleb128 0x1f
 3186 01a5 13       		.uleb128 0x13
 3187 01a6 01       		.byte	0x1
 3188 01a7 03       		.uleb128 0x3
 3189 01a8 0E       		.uleb128 0xe
 3190 01a9 0B       		.uleb128 0xb
 3191 01aa 05       		.uleb128 0x5
 3192 01ab 3A       		.uleb128 0x3a
ARM GAS  /tmp/ccjw355H.s 			page 57


 3193 01ac 0B       		.uleb128 0xb
 3194 01ad 3B       		.uleb128 0x3b
 3195 01ae 0B       		.uleb128 0xb
 3196 01af 39       		.uleb128 0x39
 3197 01b0 0B       		.uleb128 0xb
 3198 01b1 01       		.uleb128 0x1
 3199 01b2 13       		.uleb128 0x13
 3200 01b3 00       		.byte	0
 3201 01b4 00       		.byte	0
 3202 01b5 20       		.uleb128 0x20
 3203 01b6 0D       		.uleb128 0xd
 3204 01b7 00       		.byte	0
 3205 01b8 03       		.uleb128 0x3
 3206 01b9 0E       		.uleb128 0xe
 3207 01ba 3A       		.uleb128 0x3a
 3208 01bb 0B       		.uleb128 0xb
 3209 01bc 3B       		.uleb128 0x3b
 3210 01bd 0B       		.uleb128 0xb
 3211 01be 39       		.uleb128 0x39
 3212 01bf 0B       		.uleb128 0xb
 3213 01c0 49       		.uleb128 0x49
 3214 01c1 13       		.uleb128 0x13
 3215 01c2 38       		.uleb128 0x38
 3216 01c3 05       		.uleb128 0x5
 3217 01c4 00       		.byte	0
 3218 01c5 00       		.byte	0
 3219 01c6 21       		.uleb128 0x21
 3220 01c7 15       		.uleb128 0x15
 3221 01c8 00       		.byte	0
 3222 01c9 27       		.uleb128 0x27
 3223 01ca 19       		.uleb128 0x19
 3224 01cb 00       		.byte	0
 3225 01cc 00       		.byte	0
 3226 01cd 22       		.uleb128 0x22
 3227 01ce 15       		.uleb128 0x15
 3228 01cf 01       		.byte	0x1
 3229 01d0 27       		.uleb128 0x27
 3230 01d1 19       		.uleb128 0x19
 3231 01d2 49       		.uleb128 0x49
 3232 01d3 13       		.uleb128 0x13
 3233 01d4 01       		.uleb128 0x1
 3234 01d5 13       		.uleb128 0x13
 3235 01d6 00       		.byte	0
 3236 01d7 00       		.byte	0
 3237 01d8 23       		.uleb128 0x23
 3238 01d9 13       		.uleb128 0x13
 3239 01da 01       		.byte	0x1
 3240 01db 0B       		.uleb128 0xb
 3241 01dc 0B       		.uleb128 0xb
 3242 01dd 3A       		.uleb128 0x3a
 3243 01de 0B       		.uleb128 0xb
 3244 01df 3B       		.uleb128 0x3b
 3245 01e0 05       		.uleb128 0x5
 3246 01e1 39       		.uleb128 0x39
 3247 01e2 0B       		.uleb128 0xb
 3248 01e3 01       		.uleb128 0x1
 3249 01e4 13       		.uleb128 0x13
ARM GAS  /tmp/ccjw355H.s 			page 58


 3250 01e5 00       		.byte	0
 3251 01e6 00       		.byte	0
 3252 01e7 24       		.uleb128 0x24
 3253 01e8 17       		.uleb128 0x17
 3254 01e9 01       		.byte	0x1
 3255 01ea 0B       		.uleb128 0xb
 3256 01eb 0B       		.uleb128 0xb
 3257 01ec 3A       		.uleb128 0x3a
 3258 01ed 0B       		.uleb128 0xb
 3259 01ee 3B       		.uleb128 0x3b
 3260 01ef 05       		.uleb128 0x5
 3261 01f0 39       		.uleb128 0x39
 3262 01f1 0B       		.uleb128 0xb
 3263 01f2 01       		.uleb128 0x1
 3264 01f3 13       		.uleb128 0x13
 3265 01f4 00       		.byte	0
 3266 01f5 00       		.byte	0
 3267 01f6 25       		.uleb128 0x25
 3268 01f7 13       		.uleb128 0x13
 3269 01f8 00       		.byte	0
 3270 01f9 03       		.uleb128 0x3
 3271 01fa 0E       		.uleb128 0xe
 3272 01fb 3C       		.uleb128 0x3c
 3273 01fc 19       		.uleb128 0x19
 3274 01fd 00       		.byte	0
 3275 01fe 00       		.byte	0
 3276 01ff 26       		.uleb128 0x26
 3277 0200 34       		.uleb128 0x34
 3278 0201 00       		.byte	0
 3279 0202 03       		.uleb128 0x3
 3280 0203 0E       		.uleb128 0xe
 3281 0204 3A       		.uleb128 0x3a
 3282 0205 0B       		.uleb128 0xb
 3283 0206 3B       		.uleb128 0x3b
 3284 0207 0B       		.uleb128 0xb
 3285 0208 39       		.uleb128 0x39
 3286 0209 0B       		.uleb128 0xb
 3287 020a 49       		.uleb128 0x49
 3288 020b 13       		.uleb128 0x13
 3289 020c 02       		.uleb128 0x2
 3290 020d 18       		.uleb128 0x18
 3291 020e 00       		.byte	0
 3292 020f 00       		.byte	0
 3293 0210 27       		.uleb128 0x27
 3294 0211 2E       		.uleb128 0x2e
 3295 0212 01       		.byte	0x1
 3296 0213 3F       		.uleb128 0x3f
 3297 0214 19       		.uleb128 0x19
 3298 0215 03       		.uleb128 0x3
 3299 0216 0E       		.uleb128 0xe
 3300 0217 3A       		.uleb128 0x3a
 3301 0218 0B       		.uleb128 0xb
 3302 0219 3B       		.uleb128 0x3b
 3303 021a 0B       		.uleb128 0xb
 3304 021b 39       		.uleb128 0x39
 3305 021c 0B       		.uleb128 0xb
 3306 021d 27       		.uleb128 0x27
ARM GAS  /tmp/ccjw355H.s 			page 59


 3307 021e 19       		.uleb128 0x19
 3308 021f 11       		.uleb128 0x11
 3309 0220 01       		.uleb128 0x1
 3310 0221 12       		.uleb128 0x12
 3311 0222 06       		.uleb128 0x6
 3312 0223 40       		.uleb128 0x40
 3313 0224 18       		.uleb128 0x18
 3314 0225 9742     		.uleb128 0x2117
 3315 0227 19       		.uleb128 0x19
 3316 0228 01       		.uleb128 0x1
 3317 0229 13       		.uleb128 0x13
 3318 022a 00       		.byte	0
 3319 022b 00       		.byte	0
 3320 022c 28       		.uleb128 0x28
 3321 022d 05       		.uleb128 0x5
 3322 022e 00       		.byte	0
 3323 022f 03       		.uleb128 0x3
 3324 0230 0E       		.uleb128 0xe
 3325 0231 3A       		.uleb128 0x3a
 3326 0232 0B       		.uleb128 0xb
 3327 0233 3B       		.uleb128 0x3b
 3328 0234 0B       		.uleb128 0xb
 3329 0235 39       		.uleb128 0x39
 3330 0236 0B       		.uleb128 0xb
 3331 0237 49       		.uleb128 0x49
 3332 0238 13       		.uleb128 0x13
 3333 0239 02       		.uleb128 0x2
 3334 023a 17       		.uleb128 0x17
 3335 023b B742     		.uleb128 0x2137
 3336 023d 17       		.uleb128 0x17
 3337 023e 00       		.byte	0
 3338 023f 00       		.byte	0
 3339 0240 29       		.uleb128 0x29
 3340 0241 898201   		.uleb128 0x4109
 3341 0244 01       		.byte	0x1
 3342 0245 11       		.uleb128 0x11
 3343 0246 01       		.uleb128 0x1
 3344 0247 9542     		.uleb128 0x2115
 3345 0249 19       		.uleb128 0x19
 3346 024a 31       		.uleb128 0x31
 3347 024b 13       		.uleb128 0x13
 3348 024c 01       		.uleb128 0x1
 3349 024d 13       		.uleb128 0x13
 3350 024e 00       		.byte	0
 3351 024f 00       		.byte	0
 3352 0250 2A       		.uleb128 0x2a
 3353 0251 8A8201   		.uleb128 0x410a
 3354 0254 00       		.byte	0
 3355 0255 02       		.uleb128 0x2
 3356 0256 18       		.uleb128 0x18
 3357 0257 9142     		.uleb128 0x2111
 3358 0259 18       		.uleb128 0x18
 3359 025a 00       		.byte	0
 3360 025b 00       		.byte	0
 3361 025c 2B       		.uleb128 0x2b
 3362 025d 898201   		.uleb128 0x4109
 3363 0260 00       		.byte	0
ARM GAS  /tmp/ccjw355H.s 			page 60


 3364 0261 11       		.uleb128 0x11
 3365 0262 01       		.uleb128 0x1
 3366 0263 31       		.uleb128 0x31
 3367 0264 13       		.uleb128 0x13
 3368 0265 00       		.byte	0
 3369 0266 00       		.byte	0
 3370 0267 2C       		.uleb128 0x2c
 3371 0268 2E       		.uleb128 0x2e
 3372 0269 00       		.byte	0
 3373 026a 3F       		.uleb128 0x3f
 3374 026b 19       		.uleb128 0x19
 3375 026c 3C       		.uleb128 0x3c
 3376 026d 19       		.uleb128 0x19
 3377 026e 6E       		.uleb128 0x6e
 3378 026f 0E       		.uleb128 0xe
 3379 0270 03       		.uleb128 0x3
 3380 0271 0E       		.uleb128 0xe
 3381 0272 3A       		.uleb128 0x3a
 3382 0273 0B       		.uleb128 0xb
 3383 0274 3B       		.uleb128 0x3b
 3384 0275 0B       		.uleb128 0xb
 3385 0276 39       		.uleb128 0x39
 3386 0277 0B       		.uleb128 0xb
 3387 0278 00       		.byte	0
 3388 0279 00       		.byte	0
 3389 027a 2D       		.uleb128 0x2d
 3390 027b 2E       		.uleb128 0x2e
 3391 027c 00       		.byte	0
 3392 027d 3F       		.uleb128 0x3f
 3393 027e 19       		.uleb128 0x19
 3394 027f 3C       		.uleb128 0x3c
 3395 0280 19       		.uleb128 0x19
 3396 0281 6E       		.uleb128 0x6e
 3397 0282 0E       		.uleb128 0xe
 3398 0283 03       		.uleb128 0x3
 3399 0284 0E       		.uleb128 0xe
 3400 0285 00       		.byte	0
 3401 0286 00       		.byte	0
 3402 0287 00       		.byte	0
 3403              		.section	.debug_loc,"",%progbits
 3404              	.Ldebug_loc0:
 3405              	.LVUS1:
 3406 0000 00       		.uleb128 0
 3407 0001 00       		.uleb128 .LVU14
 3408 0002 00       		.uleb128 .LVU14
 3409 0003 00       		.uleb128 .LVU16
 3410 0004 00       		.uleb128 .LVU16
 3411 0005 00       		.uleb128 .LVU17
 3412 0006 00       		.uleb128 .LVU17
 3413 0007 00       		.uleb128 0
 3414              	.LLST1:
 3415 0008 00000000 		.4byte	.LVL4
 3416 000c 1A000000 		.4byte	.LVL5
 3417 0010 0100     		.2byte	0x1
 3418 0012 50       		.byte	0x50
 3419 0013 1A000000 		.4byte	.LVL5
 3420 0017 24000000 		.4byte	.LVL6
ARM GAS  /tmp/ccjw355H.s 			page 61


 3421 001b 0400     		.2byte	0x4
 3422 001d F3       		.byte	0xf3
 3423 001e 01       		.uleb128 0x1
 3424 001f 50       		.byte	0x50
 3425 0020 9F       		.byte	0x9f
 3426 0021 24000000 		.4byte	.LVL6
 3427 0025 27000000 		.4byte	.LVL7-1
 3428 0029 0100     		.2byte	0x1
 3429 002b 50       		.byte	0x50
 3430 002c 27000000 		.4byte	.LVL7-1
 3431 0030 30000000 		.4byte	.LFE220
 3432 0034 0400     		.2byte	0x4
 3433 0036 F3       		.byte	0xf3
 3434 0037 01       		.uleb128 0x1
 3435 0038 50       		.byte	0x50
 3436 0039 9F       		.byte	0x9f
 3437 003a 00000000 		.4byte	0
 3438 003e 00000000 		.4byte	0
 3439              	.LVUS0:
 3440 0042 00       		.uleb128 0
 3441 0043 00       		.uleb128 .LVU5
 3442 0044 00       		.uleb128 .LVU5
 3443 0045 00       		.uleb128 .LVU7
 3444 0046 00       		.uleb128 .LVU7
 3445 0047 00       		.uleb128 .LVU8
 3446 0048 00       		.uleb128 .LVU8
 3447 0049 00       		.uleb128 0
 3448              	.LLST0:
 3449 004a 00000000 		.4byte	.LVL0
 3450 004e 1A000000 		.4byte	.LVL1
 3451 0052 0100     		.2byte	0x1
 3452 0054 50       		.byte	0x50
 3453 0055 1A000000 		.4byte	.LVL1
 3454 0059 24000000 		.4byte	.LVL2
 3455 005d 0400     		.2byte	0x4
 3456 005f F3       		.byte	0xf3
 3457 0060 01       		.uleb128 0x1
 3458 0061 50       		.byte	0x50
 3459 0062 9F       		.byte	0x9f
 3460 0063 24000000 		.4byte	.LVL2
 3461 0067 27000000 		.4byte	.LVL3-1
 3462 006b 0100     		.2byte	0x1
 3463 006d 50       		.byte	0x50
 3464 006e 27000000 		.4byte	.LVL3-1
 3465 0072 30000000 		.4byte	.LFE219
 3466 0076 0400     		.2byte	0x4
 3467 0078 F3       		.byte	0xf3
 3468 0079 01       		.uleb128 0x1
 3469 007a 50       		.byte	0x50
 3470 007b 9F       		.byte	0x9f
 3471 007c 00000000 		.4byte	0
 3472 0080 00000000 		.4byte	0
 3473              		.section	.debug_aranges,"",%progbits
 3474 0000 24000000 		.4byte	0x24
 3475 0004 0200     		.2byte	0x2
 3476 0006 00000000 		.4byte	.Ldebug_info0
 3477 000a 04       		.byte	0x4
ARM GAS  /tmp/ccjw355H.s 			page 62


 3478 000b 00       		.byte	0
 3479 000c 0000     		.2byte	0
 3480 000e 0000     		.2byte	0
 3481 0010 00000000 		.4byte	.LFB219
 3482 0014 30000000 		.4byte	.LFE219-.LFB219
 3483 0018 00000000 		.4byte	.LFB220
 3484 001c 30000000 		.4byte	.LFE220-.LFB220
 3485 0020 00000000 		.4byte	0
 3486 0024 00000000 		.4byte	0
 3487              		.section	.debug_ranges,"",%progbits
 3488              	.Ldebug_ranges0:
 3489 0000 00000000 		.4byte	.LFB219
 3490 0004 30000000 		.4byte	.LFE219
 3491 0008 00000000 		.4byte	.LFB220
 3492 000c 30000000 		.4byte	.LFE220
 3493 0010 00000000 		.4byte	0
 3494 0014 00000000 		.4byte	0
 3495              		.section	.debug_line,"",%progbits
 3496              	.Ldebug_line0:
 3497 0000 76020000 		.section	.debug_str,"MS",%progbits,1
 3497      03002C02 
 3497      00000201 
 3497      FB0E0D00 
 3497      01010101 
 3498              	.LASF49:
 3499 0000 705F7374 		.ascii	"p_stats\000"
 3499      61747300 
 3500              	.LASF5:
 3501 0008 73697A65 		.ascii	"size_t\000"
 3501      5F7400
 3502              	.LASF268:
 3503 000f 5F5F6C6F 		.ascii	"__locale_t\000"
 3503      63616C65 
 3503      5F7400
 3504              	.LASF119:
 3505 001a 77747365 		.ascii	"wtsemp\000"
 3505      6D7000
 3506              	.LASF142:
 3507 0021 63665F6F 		.ascii	"cf_off_name\000"
 3507      66665F6E 
 3507      616D6500 
 3508              	.LASF27:
 3509 002d 73797374 		.ascii	"systime_t\000"
 3509      696D655F 
 3509      7400
 3510              	.LASF227:
 3511 0037 5F5F7366 		.ascii	"__sf\000"
 3511      00
 3512              	.LASF131:
 3513 003c 63685F69 		.ascii	"ch_identifier\000"
 3513      64656E74 
 3513      69666965 
 3513      7200
 3514              	.LASF32:
 3515 004a 705F6374 		.ascii	"p_ctx\000"
 3515      7800
 3516              	.LASF194:
ARM GAS  /tmp/ccjw355H.s 			page 63


 3517 0050 5F726561 		.ascii	"_read\000"
 3517      6400
 3518              	.LASF22:
 3519 0056 74707269 		.ascii	"tprio_t\000"
 3519      6F5F7400 
 3520              	.LASF150:
 3521 005e 63685F64 		.ascii	"ch_debug\000"
 3521      65627567 
 3521      00
 3522              	.LASF43:
 3523 0067 705F6D73 		.ascii	"p_msgqueue\000"
 3523      67717565 
 3523      756500
 3524              	.LASF195:
 3525 0072 5F777269 		.ascii	"_write\000"
 3525      746500
 3526              	.LASF60:
 3527 0079 725F6374 		.ascii	"r_ctx\000"
 3527      7800
 3528              	.LASF6:
 3529 007f 696E7433 		.ascii	"int32_t\000"
 3529      325F7400 
 3530              	.LASF238:
 3531 0087 5F617363 		.ascii	"_asctime_buf\000"
 3531      74696D65 
 3531      5F627566 
 3531      00
 3532              	.LASF221:
 3533 0094 5F637674 		.ascii	"_cvtlen\000"
 3533      6C656E00 
 3534              	.LASF139:
 3535 009c 63665F6F 		.ascii	"cf_off_ctx\000"
 3535      66665F63 
 3535      747800
 3536              	.LASF64:
 3537 00a7 76746675 		.ascii	"vtfunc_t\000"
 3537      6E635F74 
 3537      00
 3538              	.LASF73:
 3539 00b0 63685F76 		.ascii	"ch_virtual_timers_list\000"
 3539      69727475 
 3539      616C5F74 
 3539      696D6572 
 3539      735F6C69 
 3540              	.LASF257:
 3541 00c7 5F756E75 		.ascii	"_unused\000"
 3541      73656400 
 3542              	.LASF168:
 3543 00cf 5F5F746D 		.ascii	"__tm\000"
 3543      00
 3544              	.LASF253:
 3545 00d4 5F776373 		.ascii	"_wcsrtombs_state\000"
 3545      72746F6D 
 3545      62735F73 
 3545      74617465 
 3545      00
 3546              	.LASF199:
ARM GAS  /tmp/ccjw355H.s 			page 64


 3547 00e5 5F6E6275 		.ascii	"_nbuf\000"
 3547      6600
 3548              	.LASF169:
 3549 00eb 5F5F746D 		.ascii	"__tm_sec\000"
 3549      5F736563 
 3549      00
 3550              	.LASF246:
 3551 00f4 5F6C3634 		.ascii	"_l64a_buf\000"
 3551      615F6275 
 3551      6600
 3552              	.LASF185:
 3553 00fe 5F666E73 		.ascii	"_fns\000"
 3553      00
 3554              	.LASF233:
 3555 0103 5F736565 		.ascii	"_seed\000"
 3555      6400
 3556              	.LASF203:
 3557 0109 5F6C6F63 		.ascii	"_lock\000"
 3557      6B00
 3558              	.LASF79:
 3559 010f 6C6F636B 		.ascii	"lock_cnt\000"
 3559      5F636E74 
 3559      00
 3560              	.LASF135:
 3561 0118 63685F70 		.ascii	"ch_ptrsize\000"
 3561      74727369 
 3561      7A6500
 3562              	.LASF234:
 3563 0123 5F6D756C 		.ascii	"_mult\000"
 3563      7400
 3564              	.LASF206:
 3565 0129 5F726565 		.ascii	"_reent\000"
 3565      6E7400
 3566              	.LASF95:
 3567 0130 73655F74 		.ascii	"se_tp\000"
 3567      7000
 3568              	.LASF109:
 3569 0136 74696D65 		.ascii	"time_measurement_t\000"
 3569      5F6D6561 
 3569      73757265 
 3569      6D656E74 
 3569      5F7400
 3570              	.LASF127:
 3571 0149 6D5F6F77 		.ascii	"m_owner\000"
 3571      6E657200 
 3572              	.LASF71:
 3573 0151 76745F70 		.ascii	"vt_par\000"
 3573      617200
 3574              	.LASF155:
 3575 0158 5F5F7763 		.ascii	"__wch\000"
 3575      6800
 3576              	.LASF116:
 3577 015e 65786974 		.ascii	"exitcode\000"
 3577      636F6465 
 3577      00
 3578              	.LASF121:
 3579 0167 65776D61 		.ascii	"ewmask\000"
ARM GAS  /tmp/ccjw355H.s 			page 65


 3579      736B00
 3580              	.LASF191:
 3581 016e 5F66696C 		.ascii	"_file\000"
 3581      6500
 3582              	.LASF137:
 3583 0174 63685F74 		.ascii	"ch_threadsize\000"
 3583      68726561 
 3583      6473697A 
 3583      6500
 3584              	.LASF178:
 3585 0182 5F6F6E5F 		.ascii	"_on_exit_args\000"
 3585      65786974 
 3585      5F617267 
 3585      7300
 3586              	.LASF33:
 3587 0190 705F6E65 		.ascii	"p_newer\000"
 3587      77657200 
 3588              	.LASF249:
 3589 0198 5F6D6272 		.ascii	"_mbrlen_state\000"
 3589      6C656E5F 
 3589      73746174 
 3589      6500
 3590              	.LASF7:
 3591 01a6 6C6F6E67 		.ascii	"long int\000"
 3591      20696E74 
 3591      00
 3592              	.LASF29:
 3593 01af 705F6E65 		.ascii	"p_next\000"
 3593      787400
 3594              	.LASF258:
 3595 01b6 5F696D70 		.ascii	"_impure_ptr\000"
 3595      7572655F 
 3595      70747200 
 3596              	.LASF218:
 3597 01c2 5F726573 		.ascii	"_result_k\000"
 3597      756C745F 
 3597      6B00
 3598              	.LASF263:
 3599 01cc 63684D74 		.ascii	"chMtxUnlock\000"
 3599      78556E6C 
 3599      6F636B00 
 3600              	.LASF144:
 3601 01d8 63665F6F 		.ascii	"cf_off_state\000"
 3601      66665F73 
 3601      74617465 
 3601      00
 3602              	.LASF188:
 3603 01e5 5F73697A 		.ascii	"_size\000"
 3603      6500
 3604              	.LASF30:
 3605 01eb 705F7072 		.ascii	"p_prev\000"
 3605      657600
 3606              	.LASF239:
 3607 01f2 5F6C6F63 		.ascii	"_localtime_buf\000"
 3607      616C7469 
 3607      6D655F62 
 3607      756600
ARM GAS  /tmp/ccjw355H.s 			page 66


 3608              	.LASF19:
 3609 0201 74737461 		.ascii	"tstate_t\000"
 3609      74655F74 
 3609      00
 3610              	.LASF17:
 3611 020a 72747469 		.ascii	"rttime_t\000"
 3611      6D655F74 
 3611      00
 3612              	.LASF54:
 3613 0213 74687265 		.ascii	"threads_queue_t\000"
 3613      6164735F 
 3613      71756575 
 3613      655F7400 
 3614              	.LASF46:
 3615 0223 705F6D74 		.ascii	"p_mtxlist\000"
 3615      786C6973 
 3615      7400
 3616              	.LASF90:
 3617 022d 72656761 		.ascii	"regarm_t\000"
 3617      726D5F74 
 3617      00
 3618              	.LASF173:
 3619 0236 5F5F746D 		.ascii	"__tm_mon\000"
 3619      5F6D6F6E 
 3619      00
 3620              	.LASF108:
 3621 023f 63756D75 		.ascii	"cumulative\000"
 3621      6C617469 
 3621      766500
 3622              	.LASF3:
 3623 024a 7369676E 		.ascii	"signed char\000"
 3623      65642063 
 3623      68617200 
 3624              	.LASF40:
 3625 0256 705F7072 		.ascii	"p_preempt\000"
 3625      65656D70 
 3625      7400
 3626              	.LASF8:
 3627 0260 75696E74 		.ascii	"uint8_t\000"
 3627      385F7400 
 3628              	.LASF24:
 3629 0268 6576656E 		.ascii	"eventmask_t\000"
 3629      746D6173 
 3629      6B5F7400 
 3630              	.LASF92:
 3631 0274 636F6E74 		.ascii	"context\000"
 3631      65787400 
 3632              	.LASF118:
 3633 027c 77747472 		.ascii	"wttrp\000"
 3633      7000
 3634              	.LASF9:
 3635 0282 756E7369 		.ascii	"unsigned char\000"
 3635      676E6564 
 3635      20636861 
 3635      7200
 3636              	.LASF77:
 3637 0290 70616E69 		.ascii	"panic_msg\000"
ARM GAS  /tmp/ccjw355H.s 			page 67


 3637      635F6D73 
 3637      6700
 3638              	.LASF213:
 3639 029a 5F756E73 		.ascii	"_unspecified_locale_info\000"
 3639      70656369 
 3639      66696564 
 3639      5F6C6F63 
 3639      616C655F 
 3640              	.LASF80:
 3641 02b3 74726163 		.ascii	"trace_buffer\000"
 3641      655F6275 
 3641      66666572 
 3641      00
 3642              	.LASF61:
 3643 02c0 725F6E65 		.ascii	"r_newer\000"
 3643      77657200 
 3644              	.LASF259:
 3645 02c8 5F676C6F 		.ascii	"_global_impure_ptr\000"
 3645      62616C5F 
 3645      696D7075 
 3645      72655F70 
 3645      747200
 3646              	.LASF176:
 3647 02db 5F5F746D 		.ascii	"__tm_yday\000"
 3647      5F796461 
 3647      7900
 3648              	.LASF75:
 3649 02e5 73797374 		.ascii	"system_debug_t\000"
 3649      656D5F64 
 3649      65627567 
 3649      5F7400
 3650              	.LASF130:
 3651 02f4 63686172 		.ascii	"char\000"
 3651      00
 3652              	.LASF197:
 3653 02f9 5F636C6F 		.ascii	"_close\000"
 3653      736500
 3654              	.LASF31:
 3655 0300 705F7072 		.ascii	"p_prio\000"
 3655      696F00
 3656              	.LASF129:
 3657 0307 6D5F636E 		.ascii	"m_cnt\000"
 3657      7400
 3658              	.LASF117:
 3659 030d 77746F62 		.ascii	"wtobjp\000"
 3659      6A7000
 3660              	.LASF111:
 3661 0314 6E5F6374 		.ascii	"n_ctxswc\000"
 3661      78737763 
 3661      00
 3662              	.LASF208:
 3663 031d 5F737464 		.ascii	"_stdin\000"
 3663      696E00
 3664              	.LASF140:
 3665 0324 63665F6F 		.ascii	"cf_off_newer\000"
 3665      66665F6E 
 3665      65776572 
ARM GAS  /tmp/ccjw355H.s 			page 68


 3665      00
 3666              	.LASF91:
 3667 0331 73746B61 		.ascii	"stkalign_t\000"
 3667      6C69676E 
 3667      5F7400
 3668              	.LASF138:
 3669 033c 63665F6F 		.ascii	"cf_off_prio\000"
 3669      66665F70 
 3669      72696F00 
 3670              	.LASF106:
 3671 0348 776F7273 		.ascii	"worst\000"
 3671      7400
 3672              	.LASF25:
 3673 034e 636E745F 		.ascii	"cnt_t\000"
 3673      7400
 3674              	.LASF70:
 3675 0354 76745F66 		.ascii	"vt_func\000"
 3675      756E6300 
 3676              	.LASF193:
 3677 035c 5F636F6F 		.ascii	"_cookie\000"
 3677      6B696500 
 3678              	.LASF219:
 3679 0364 5F703573 		.ascii	"_p5s\000"
 3679      00
 3680              	.LASF102:
 3681 0369 63685F74 		.ascii	"ch_trace_buffer_t\000"
 3681      72616365 
 3681      5F627566 
 3681      6665725F 
 3681      7400
 3682              	.LASF45:
 3683 037b 705F6570 		.ascii	"p_epending\000"
 3683      656E6469 
 3683      6E6700
 3684              	.LASF120:
 3685 0386 77746D74 		.ascii	"wtmtxp\000"
 3685      787000
 3686              	.LASF167:
 3687 038d 5F776473 		.ascii	"_wds\000"
 3687      00
 3688              	.LASF57:
 3689 0392 63685F72 		.ascii	"ch_ready_list\000"
 3689      65616479 
 3689      5F6C6973 
 3689      7400
 3690              	.LASF225:
 3691 03a0 5F736967 		.ascii	"_sig_func\000"
 3691      5F66756E 
 3691      6300
 3692              	.LASF201:
 3693 03aa 5F6F6666 		.ascii	"_offset\000"
 3693      73657400 
 3694              	.LASF222:
 3695 03b2 5F637674 		.ascii	"_cvtbuf\000"
 3695      62756600 
 3696              	.LASF78:
 3697 03ba 6973725F 		.ascii	"isr_cnt\000"
ARM GAS  /tmp/ccjw355H.s 			page 69


 3697      636E7400 
 3698              	.LASF113:
 3699 03c2 6D5F6372 		.ascii	"m_crit_isr\000"
 3699      69745F69 
 3699      737200
 3700              	.LASF97:
 3701 03cd 73655F73 		.ascii	"se_state\000"
 3701      74617465 
 3701      00
 3702              	.LASF112:
 3703 03d6 6D5F6372 		.ascii	"m_crit_thd\000"
 3703      69745F74 
 3703      686400
 3704              	.LASF158:
 3705 03e1 5F5F7661 		.ascii	"__value\000"
 3705      6C756500 
 3706              	.LASF13:
 3707 03e9 6C6F6E67 		.ascii	"long unsigned int\000"
 3707      20756E73 
 3707      69676E65 
 3707      6420696E 
 3707      7400
 3708              	.LASF132:
 3709 03fb 63685F7A 		.ascii	"ch_zero\000"
 3709      65726F00 
 3710              	.LASF189:
 3711 0403 5F5F7346 		.ascii	"__sFILE\000"
 3711      494C4500 
 3712              	.LASF215:
 3713 040b 5F5F7364 		.ascii	"__sdidinit\000"
 3713      6964696E 
 3713      697400
 3714              	.LASF205:
 3715 0416 5F666C61 		.ascii	"_flags2\000"
 3715      67733200 
 3716              	.LASF89:
 3717 041e 53797374 		.ascii	"SystemCoreClock\000"
 3717      656D436F 
 3717      7265436C 
 3717      6F636B00 
 3718              	.LASF122:
 3719 042e 63685F73 		.ascii	"ch_semaphore\000"
 3719      656D6170 
 3719      686F7265 
 3719      00
 3720              	.LASF52:
 3721 043b 63685F74 		.ascii	"ch_thread\000"
 3721      68726561 
 3721      6400
 3722              	.LASF72:
 3723 0445 76697274 		.ascii	"virtual_timers_list_t\000"
 3723      75616C5F 
 3723      74696D65 
 3723      72735F6C 
 3723      6973745F 
 3724              	.LASF161:
 3725 045b 5F4C4F43 		.ascii	"_LOCK_RECURSIVE_T\000"
ARM GAS  /tmp/ccjw355H.s 			page 70


 3725      4B5F5245 
 3725      43555253 
 3725      4956455F 
 3725      5400
 3726              	.LASF207:
 3727 046d 5F657272 		.ascii	"_errno\000"
 3727      6E6F00
 3728              	.LASF65:
 3729 0474 76697274 		.ascii	"virtual_timer_t\000"
 3729      75616C5F 
 3729      74696D65 
 3729      725F7400 
 3730              	.LASF56:
 3731 0484 72656164 		.ascii	"ready_list_t\000"
 3731      795F6C69 
 3731      73745F74 
 3731      00
 3732              	.LASF247:
 3733 0491 5F736967 		.ascii	"_signal_buf\000"
 3733      6E616C5F 
 3733      62756600 
 3734              	.LASF26:
 3735 049d 75636E74 		.ascii	"ucnt_t\000"
 3735      5F7400
 3736              	.LASF163:
 3737 04a4 5F426967 		.ascii	"_Bigint\000"
 3737      696E7400 
 3738              	.LASF53:
 3739 04ac 63685F74 		.ascii	"ch_threads_list\000"
 3739      68726561 
 3739      64735F6C 
 3739      69737400 
 3740              	.LASF261:
 3741 04bc 5F5F6D61 		.ascii	"__malloc_lock\000"
 3741      6C6C6F63 
 3741      5F6C6F63 
 3741      6B00
 3742              	.LASF98:
 3743 04ca 63685F73 		.ascii	"ch_swc_event_t\000"
 3743      77635F65 
 3743      76656E74 
 3743      5F7400
 3744              	.LASF165:
 3745 04d9 5F6D6178 		.ascii	"_maxwds\000"
 3745      77647300 
 3746              	.LASF110:
 3747 04e1 6E5F6972 		.ascii	"n_irq\000"
 3747      7100
 3748              	.LASF262:
 3749 04e7 7265656E 		.ascii	"reent\000"
 3749      7400
 3750              	.LASF216:
 3751 04ed 5F5F636C 		.ascii	"__cleanup\000"
 3751      65616E75 
 3751      7000
 3752              	.LASF224:
 3753 04f7 5F617465 		.ascii	"_atexit0\000"
ARM GAS  /tmp/ccjw355H.s 			page 71


 3753      78697430 
 3753      00
 3754              	.LASF147:
 3755 0500 63665F6F 		.ascii	"cf_off_preempt\000"
 3755      66665F70 
 3755      7265656D 
 3755      707400
 3756              	.LASF212:
 3757 050f 5F656D65 		.ascii	"_emergency\000"
 3757      7267656E 
 3757      637900
 3758              	.LASF270:
 3759 051a 5F5F7374 		.ascii	"__stack_chk_fail\000"
 3759      61636B5F 
 3759      63686B5F 
 3759      6661696C 
 3759      00
 3760              	.LASF1:
 3761 052b 6C6F6E67 		.ascii	"long long int\000"
 3761      206C6F6E 
 3761      6720696E 
 3761      7400
 3762              	.LASF134:
 3763 0539 63685F76 		.ascii	"ch_version\000"
 3763      65727369 
 3763      6F6E00
 3764              	.LASF126:
 3765 0544 6D5F7175 		.ascii	"m_queue\000"
 3765      65756500 
 3766              	.LASF230:
 3767 054c 5F6E696F 		.ascii	"_niobs\000"
 3767      627300
 3768              	.LASF67:
 3769 0553 76745F6E 		.ascii	"vt_next\000"
 3769      65787400 
 3770              	.LASF226:
 3771 055b 5F5F7367 		.ascii	"__sglue\000"
 3771      6C756500 
 3772              	.LASF256:
 3773 0563 5F6E6D61 		.ascii	"_nmalloc\000"
 3773      6C6C6F63 
 3773      00
 3774              	.LASF68:
 3775 056c 76745F70 		.ascii	"vt_prev\000"
 3775      72657600 
 3776              	.LASF240:
 3777 0574 5F67616D 		.ascii	"_gamma_signgam\000"
 3777      6D615F73 
 3777      69676E67 
 3777      616D00
 3778              	.LASF99:
 3779 0583 74625F73 		.ascii	"tb_size\000"
 3779      697A6500 
 3780              	.LASF220:
 3781 058b 5F667265 		.ascii	"_freelist\000"
 3781      656C6973 
 3781      7400
ARM GAS  /tmp/ccjw355H.s 			page 72


 3782              	.LASF264:
 3783 0595 63684D74 		.ascii	"chMtxLock\000"
 3783      784C6F63 
 3783      6B00
 3784              	.LASF231:
 3785 059f 5F696F62 		.ascii	"_iobs\000"
 3785      7300
 3786              	.LASF229:
 3787 05a5 5F676C75 		.ascii	"_glue\000"
 3787      6500
 3788              	.LASF88:
 3789 05ab 49544D5F 		.ascii	"ITM_RxBuffer\000"
 3789      52784275 
 3789      66666572 
 3789      00
 3790              	.LASF166:
 3791 05b8 5F736967 		.ascii	"_sign\000"
 3791      6E00
 3792              	.LASF200:
 3793 05be 5F626C6B 		.ascii	"_blksize\000"
 3793      73697A65 
 3793      00
 3794              	.LASF42:
 3795 05c7 705F7761 		.ascii	"p_waiting\000"
 3795      6974696E 
 3795      6700
 3796              	.LASF96:
 3797 05d1 73655F77 		.ascii	"se_wtobjp\000"
 3797      746F626A 
 3797      7000
 3798              	.LASF38:
 3799 05db 705F666C 		.ascii	"p_flags\000"
 3799      61677300 
 3800              	.LASF87:
 3801 05e3 69646C65 		.ascii	"idle_thread_wa\000"
 3801      5F746872 
 3801      6561645F 
 3801      776100
 3802              	.LASF0:
 3803 05f2 756E7369 		.ascii	"unsigned int\000"
 3803      676E6564 
 3803      20696E74 
 3803      00
 3804              	.LASF16:
 3805 05ff 7274636E 		.ascii	"rtcnt_t\000"
 3805      745F7400 
 3806              	.LASF48:
 3807 0607 705F6D70 		.ascii	"p_mpool\000"
 3807      6F6F6C00 
 3808              	.LASF254:
 3809 060f 5F685F65 		.ascii	"_h_errno\000"
 3809      72726E6F 
 3809      00
 3810              	.LASF39:
 3811 0618 705F7265 		.ascii	"p_refs\000"
 3811      667300
 3812              	.LASF136:
ARM GAS  /tmp/ccjw355H.s 			page 73


 3813 061f 63685F74 		.ascii	"ch_timesize\000"
 3813      696D6573 
 3813      697A6500 
 3814              	.LASF252:
 3815 062b 5F776372 		.ascii	"_wcrtomb_state\000"
 3815      746F6D62 
 3815      5F737461 
 3815      746500
 3816              	.LASF172:
 3817 063a 5F5F746D 		.ascii	"__tm_mday\000"
 3817      5F6D6461 
 3817      7900
 3818              	.LASF114:
 3819 0644 6B65726E 		.ascii	"kernel_stats_t\000"
 3819      656C5F73 
 3819      74617473 
 3819      5F7400
 3820              	.LASF223:
 3821 0653 5F6E6577 		.ascii	"_new\000"
 3821      00
 3822              	.LASF198:
 3823 0658 5F756275 		.ascii	"_ubuf\000"
 3823      6600
 3824              	.LASF210:
 3825 065e 5F737464 		.ascii	"_stderr\000"
 3825      65727200 
 3826              	.LASF245:
 3827 0666 5F776374 		.ascii	"_wctomb_state\000"
 3827      6F6D625F 
 3827      73746174 
 3827      6500
 3828              	.LASF204:
 3829 0674 5F6D6273 		.ascii	"_mbstate\000"
 3829      74617465 
 3829      00
 3830              	.LASF241:
 3831 067d 5F72616E 		.ascii	"_rand_next\000"
 3831      645F6E65 
 3831      787400
 3832              	.LASF190:
 3833 0688 5F666C61 		.ascii	"_flags\000"
 3833      677300
 3834              	.LASF103:
 3835 068f 6F666673 		.ascii	"offset\000"
 3835      657400
 3836              	.LASF101:
 3837 0696 74625F62 		.ascii	"tb_buffer\000"
 3837      75666665 
 3837      7200
 3838              	.LASF183:
 3839 06a0 5F617465 		.ascii	"_atexit\000"
 3839      78697400 
 3840              	.LASF41:
 3841 06a8 705F7469 		.ascii	"p_time\000"
 3841      6D6500
 3842              	.LASF146:
 3843 06af 63665F6F 		.ascii	"cf_off_refs\000"
ARM GAS  /tmp/ccjw355H.s 			page 74


 3843      66665F72 
 3843      65667300 
 3844              	.LASF157:
 3845 06bb 5F5F636F 		.ascii	"__count\000"
 3845      756E7400 
 3846              	.LASF175:
 3847 06c3 5F5F746D 		.ascii	"__tm_wday\000"
 3847      5F776461 
 3847      7900
 3848              	.LASF28:
 3849 06cd 74687265 		.ascii	"thread_t\000"
 3849      61645F74 
 3849      00
 3850              	.LASF2:
 3851 06d6 6C6F6E67 		.ascii	"long double\000"
 3851      20646F75 
 3851      626C6500 
 3852              	.LASF50:
 3853 06e2 74687265 		.ascii	"thread_reference_t\000"
 3853      61645F72 
 3853      65666572 
 3853      656E6365 
 3853      5F7400
 3854              	.LASF47:
 3855 06f5 705F7265 		.ascii	"p_realprio\000"
 3855      616C7072 
 3855      696F00
 3856              	.LASF93:
 3857 0700 706F7274 		.ascii	"port_intctx\000"
 3857      5F696E74 
 3857      63747800 
 3858              	.LASF148:
 3859 070c 63665F6F 		.ascii	"cf_off_time\000"
 3859      66665F74 
 3859      696D6500 
 3860              	.LASF196:
 3861 0718 5F736565 		.ascii	"_seek\000"
 3861      6B00
 3862              	.LASF69:
 3863 071e 76745F64 		.ascii	"vt_delta\000"
 3863      656C7461 
 3863      00
 3864              	.LASF154:
 3865 0727 5F66706F 		.ascii	"_fpos_t\000"
 3865      735F7400 
 3866              	.LASF156:
 3867 072f 5F5F7763 		.ascii	"__wchb\000"
 3867      686200
 3868              	.LASF66:
 3869 0736 63685F76 		.ascii	"ch_virtual_timer\000"
 3869      69727475 
 3869      616C5F74 
 3869      696D6572 
 3869      00
 3870              	.LASF124:
 3871 0747 735F636E 		.ascii	"s_cnt\000"
 3871      7400
ARM GAS  /tmp/ccjw355H.s 			page 75


 3872              	.LASF244:
 3873 074d 5F6D6274 		.ascii	"_mbtowc_state\000"
 3873      6F77635F 
 3873      73746174 
 3873      6500
 3874              	.LASF86:
 3875 075b 6B65726E 		.ascii	"kernel_stats\000"
 3875      656C5F73 
 3875      74617473 
 3875      00
 3876              	.LASF236:
 3877 0768 5F756E75 		.ascii	"_unused_rand\000"
 3877      7365645F 
 3877      72616E64 
 3877      00
 3878              	.LASF15:
 3879 0775 6C6F6E67 		.ascii	"long long unsigned int\000"
 3879      206C6F6E 
 3879      6720756E 
 3879      7369676E 
 3879      65642069 
 3880              	.LASF34:
 3881 078c 705F6F6C 		.ascii	"p_older\000"
 3881      64657200 
 3882              	.LASF10:
 3883 0794 75696E74 		.ascii	"uint16_t\000"
 3883      31365F74 
 3883      00
 3884              	.LASF180:
 3885 079d 5F64736F 		.ascii	"_dso_handle\000"
 3885      5F68616E 
 3885      646C6500 
 3886              	.LASF23:
 3887 07a9 6D73675F 		.ascii	"msg_t\000"
 3887      7400
 3888              	.LASF55:
 3889 07af 63685F74 		.ascii	"ch_threads_queue\000"
 3889      68726561 
 3889      64735F71 
 3889      75657565 
 3889      00
 3890              	.LASF232:
 3891 07c0 5F72616E 		.ascii	"_rand48\000"
 3891      64343800 
 3892              	.LASF145:
 3893 07c8 63665F6F 		.ascii	"cf_off_flags\000"
 3893      66665F66 
 3893      6C616773 
 3893      00
 3894              	.LASF209:
 3895 07d5 5F737464 		.ascii	"_stdout\000"
 3895      6F757400 
 3896              	.LASF21:
 3897 07dd 74736C69 		.ascii	"tslices_t\000"
 3897      6365735F 
 3897      7400
 3898              	.LASF63:
ARM GAS  /tmp/ccjw355H.s 			page 76


 3899 07e7 725F6375 		.ascii	"r_current\000"
 3899      7272656E 
 3899      7400
 3900              	.LASF187:
 3901 07f1 5F626173 		.ascii	"_base\000"
 3901      6500
 3902              	.LASF237:
 3903 07f7 5F737472 		.ascii	"_strtok_last\000"
 3903      746F6B5F 
 3903      6C617374 
 3903      00
 3904              	.LASF250:
 3905 0804 5F6D6272 		.ascii	"_mbrtowc_state\000"
 3905      746F7763 
 3905      5F737461 
 3905      746500
 3906              	.LASF85:
 3907 0813 6D61696E 		.ascii	"mainthread\000"
 3907      74687265 
 3907      616400
 3908              	.LASF162:
 3909 081e 5F666C6F 		.ascii	"_flock_t\000"
 3909      636B5F74 
 3909      00
 3910              	.LASF228:
 3911 0827 5F5F4649 		.ascii	"__FILE\000"
 3911      4C4500
 3912              	.LASF105:
 3913 082e 62657374 		.ascii	"best\000"
 3913      00
 3914              	.LASF159:
 3915 0833 5F6D6273 		.ascii	"_mbstate_t\000"
 3915      74617465 
 3915      5F7400
 3916              	.LASF58:
 3917 083e 725F7175 		.ascii	"r_queue\000"
 3917      65756500 
 3918              	.LASF242:
 3919 0846 5F723438 		.ascii	"_r48\000"
 3919      00
 3920              	.LASF152:
 3921 084b 77696E74 		.ascii	"wint_t\000"
 3921      5F7400
 3922              	.LASF164:
 3923 0852 5F6E6578 		.ascii	"_next\000"
 3923      7400
 3924              	.LASF202:
 3925 0858 5F646174 		.ascii	"_data\000"
 3925      6100
 3926              	.LASF83:
 3927 085e 726C6973 		.ascii	"rlist\000"
 3927      7400
 3928              	.LASF18:
 3929 0864 746D6F64 		.ascii	"tmode_t\000"
 3929      655F7400 
 3930              	.LASF260:
 3931 086c 5F5F6D61 		.ascii	"__malloc_unlock\000"
ARM GAS  /tmp/ccjw355H.s 			page 77


 3931      6C6C6F63 
 3931      5F756E6C 
 3931      6F636B00 
 3932              	.LASF74:
 3933 087c 76745F73 		.ascii	"vt_systime\000"
 3933      79737469 
 3933      6D6500
 3934              	.LASF62:
 3935 0887 725F6F6C 		.ascii	"r_older\000"
 3935      64657200 
 3936              	.LASF104:
 3937 088f 746D5F63 		.ascii	"tm_calibration_t\000"
 3937      616C6962 
 3937      72617469 
 3937      6F6E5F74 
 3937      00
 3938              	.LASF123:
 3939 08a0 735F7175 		.ascii	"s_queue\000"
 3939      65756500 
 3940              	.LASF243:
 3941 08a8 5F6D626C 		.ascii	"_mblen_state\000"
 3941      656E5F73 
 3941      74617465 
 3941      00
 3942              	.LASF4:
 3943 08b5 73686F72 		.ascii	"short int\000"
 3943      7420696E 
 3943      7400
 3944              	.LASF14:
 3945 08bf 75696E74 		.ascii	"uint64_t\000"
 3945      36345F74 
 3945      00
 3946              	.LASF125:
 3947 08c8 63685F6D 		.ascii	"ch_mutex\000"
 3947      75746578 
 3947      00
 3948              	.LASF181:
 3949 08d1 5F666E74 		.ascii	"_fntypes\000"
 3949      79706573 
 3949      00
 3950              	.LASF59:
 3951 08da 725F7072 		.ascii	"r_prio\000"
 3951      696F00
 3952              	.LASF76:
 3953 08e1 63685F73 		.ascii	"ch_system_debug\000"
 3953      79737465 
 3953      6D5F6465 
 3953      62756700 
 3954              	.LASF174:
 3955 08f1 5F5F746D 		.ascii	"__tm_year\000"
 3955      5F796561 
 3955      7200
 3956              	.LASF141:
 3957 08fb 63665F6F 		.ascii	"cf_off_older\000"
 3957      66665F6F 
 3957      6C646572 
 3957      00
ARM GAS  /tmp/ccjw355H.s 			page 78


 3958              	.LASF192:
 3959 0908 5F6C6266 		.ascii	"_lbfsize\000"
 3959      73697A65 
 3959      00
 3960              	.LASF84:
 3961 0911 76746C69 		.ascii	"vtlist\000"
 3961      737400
 3962              	.LASF211:
 3963 0918 5F696E63 		.ascii	"_inc\000"
 3963      00
 3964              	.LASF184:
 3965 091d 5F696E64 		.ascii	"_ind\000"
 3965      00
 3966              	.LASF186:
 3967 0922 5F5F7362 		.ascii	"__sbuf\000"
 3967      756600
 3968              	.LASF182:
 3969 0929 5F69735F 		.ascii	"_is_cxa\000"
 3969      63786100 
 3970              	.LASF151:
 3971 0931 6D757465 		.ascii	"mutex_t\000"
 3971      785F7400 
 3972              	.LASF20:
 3973 0939 74726566 		.ascii	"trefs_t\000"
 3973      735F7400 
 3974              	.LASF255:
 3975 0941 5F6E6578 		.ascii	"_nextf\000"
 3975      746600
 3976              	.LASF143:
 3977 0948 63665F6F 		.ascii	"cf_off_stklimit\000"
 3977      66665F73 
 3977      746B6C69 
 3977      6D697400 
 3978              	.LASF51:
 3979 0958 74687265 		.ascii	"threads_list_t\000"
 3979      6164735F 
 3979      6C697374 
 3979      5F7400
 3980              	.LASF265:
 3981 0967 474E5520 		.ascii	"GNU C17 9.2.1 20191025 (release) [ARM/arm-9-branch "
 3981      43313720 
 3981      392E322E 
 3981      31203230 
 3981      31393130 
 3982 099a 72657669 		.ascii	"revision 277599] -mcpu=cortex-m4 -mfloat-abi=hard -"
 3982      73696F6E 
 3982      20323737 
 3982      3539395D 
 3982      202D6D63 
 3983 09cd 6D667075 		.ascii	"mfpu=fpv4-sp-d16 -mno-thumb-interwork -mthumb -marc"
 3983      3D667076 
 3983      342D7370 
 3983      2D643136 
 3983      202D6D6E 
 3984 0a00 683D6172 		.ascii	"h=armv7e-m+fp -ggdb -O2 -fomit-frame-pointer -falig"
 3984      6D763765 
 3984      2D6D2B66 
ARM GAS  /tmp/ccjw355H.s 			page 79


 3984      70202D67 
 3984      67646220 
 3985 0a33 6E2D6675 		.ascii	"n-functions=16 -fno-strict-aliasing -fstack-protect"
 3985      6E637469 
 3985      6F6E733D 
 3985      3136202D 
 3985      666E6F2D 
 3986 0a66 6F722D61 		.ascii	"or-all -ffunction-sections -fdata-sections -fno-com"
 3986      6C6C202D 
 3986      6666756E 
 3986      6374696F 
 3986      6E2D7365 
 3987 0a99 6D6F6E20 		.ascii	"mon -fsingle-precision-constant\000"
 3987      2D667369 
 3987      6E676C65 
 3987      2D707265 
 3987      63697369 
 3988              	.LASF267:
 3989 0ab9 2F686F6D 		.ascii	"/home/olof/Documents/MICRO-315/micro-315/tp4/lib/e-"
 3989      652F6F6C 
 3989      6F662F44 
 3989      6F63756D 
 3989      656E7473 
 3990 0aec 7075636B 		.ascii	"puck2_main-processor\000"
 3990      325F6D61 
 3990      696E2D70 
 3990      726F6365 
 3990      73736F72 
 3991              	.LASF82:
 3992 0b01 63685F73 		.ascii	"ch_system\000"
 3992      79737465 
 3992      6D00
 3993              	.LASF214:
 3994 0b0b 5F6C6F63 		.ascii	"_locale\000"
 3994      616C6500 
 3995              	.LASF160:
 3996 0b13 5F5F554C 		.ascii	"__ULong\000"
 3996      6F6E6700 
 3997              	.LASF12:
 3998 0b1b 75696E74 		.ascii	"uint32_t\000"
 3998      33325F74 
 3998      00
 3999              	.LASF217:
 4000 0b24 5F726573 		.ascii	"_result\000"
 4000      756C7400 
 4001              	.LASF153:
 4002 0b2c 5F6F6666 		.ascii	"_off_t\000"
 4002      5F7400
 4003              	.LASF266:
 4004 0b33 2E2F2F73 		.ascii	".//src/chibios-syscalls/malloc_lock.c\000"
 4004      72632F63 
 4004      68696269 
 4004      6F732D73 
 4004      79736361 
 4005              	.LASF115:
 4006 0b59 7264796D 		.ascii	"rdymsg\000"
 4006      736700
ARM GAS  /tmp/ccjw355H.s 			page 80


 4007              	.LASF235:
 4008 0b60 5F616464 		.ascii	"_add\000"
 4008      00
 4009              	.LASF11:
 4010 0b65 73686F72 		.ascii	"short unsigned int\000"
 4010      7420756E 
 4010      7369676E 
 4010      65642069 
 4010      6E7400
 4011              	.LASF171:
 4012 0b78 5F5F746D 		.ascii	"__tm_hour\000"
 4012      5F686F75 
 4012      7200
 4013              	.LASF81:
 4014 0b82 63685F73 		.ascii	"ch_system_t\000"
 4014      79737465 
 4014      6D5F7400 
 4015              	.LASF149:
 4016 0b8e 63686465 		.ascii	"chdebug_t\000"
 4016      6275675F 
 4016      7400
 4017              	.LASF133:
 4018 0b98 63685F73 		.ascii	"ch_size\000"
 4018      697A6500 
 4019              	.LASF251:
 4020 0ba0 5F6D6273 		.ascii	"_mbsrtowcs_state\000"
 4020      72746F77 
 4020      63735F73 
 4020      74617465 
 4020      00
 4021              	.LASF36:
 4022 0bb1 705F7374 		.ascii	"p_stklimit\000"
 4022      6B6C696D 
 4022      697400
 4023              	.LASF179:
 4024 0bbc 5F666E61 		.ascii	"_fnargs\000"
 4024      72677300 
 4025              	.LASF177:
 4026 0bc4 5F5F746D 		.ascii	"__tm_isdst\000"
 4026      5F697364 
 4026      737400
 4027              	.LASF94:
 4028 0bcf 73655F74 		.ascii	"se_time\000"
 4028      696D6500 
 4029              	.LASF35:
 4030 0bd7 705F6E61 		.ascii	"p_name\000"
 4030      6D6500
 4031              	.LASF128:
 4032 0bde 6D5F6E65 		.ascii	"m_next\000"
 4032      787400
 4033              	.LASF100:
 4034 0be5 74625F70 		.ascii	"tb_ptr\000"
 4034      747200
 4035              	.LASF170:
 4036 0bec 5F5F746D 		.ascii	"__tm_min\000"
 4036      5F6D696E 
 4036      00
ARM GAS  /tmp/ccjw355H.s 			page 81


 4037              	.LASF248:
 4038 0bf5 5F676574 		.ascii	"_getdate_err\000"
 4038      64617465 
 4038      5F657272 
 4038      00
 4039              	.LASF269:
 4040 0c02 6C6F636B 		.ascii	"lock\000"
 4040      00
 4041              	.LASF107:
 4042 0c07 6C617374 		.ascii	"last\000"
 4042      00
 4043              	.LASF44:
 4044 0c0c 705F6D73 		.ascii	"p_msg\000"
 4044      6700
 4045              	.LASF37:
 4046 0c12 705F7374 		.ascii	"p_state\000"
 4046      61746500 
 4047              		.ident	"GCC: (15:9-2019-q4-0ubuntu1) 9.2.1 20191025 (release) [ARM/arm-9-branch revision 277599]"
ARM GAS  /tmp/ccjw355H.s 			page 82


DEFINED SYMBOLS
                            *ABS*:0000000000000000 malloc_lock.c
     /tmp/ccjw355H.s:18     .rodata.__malloc_lock.cst4:0000000000000000 $d
     /tmp/ccjw355H.s:22     .text.__malloc_lock:0000000000000000 $t
     /tmp/ccjw355H.s:31     .text.__malloc_lock:0000000000000000 __malloc_lock
     /tmp/ccjw355H.s:79     .text.__malloc_lock:0000000000000028 $d
     /tmp/ccjw355H.s:85     .rodata.__malloc_unlock.cst4:0000000000000000 $d
     /tmp/ccjw355H.s:89     .text.__malloc_unlock:0000000000000000 $t
     /tmp/ccjw355H.s:97     .text.__malloc_unlock:0000000000000000 __malloc_unlock
     /tmp/ccjw355H.s:144    .text.__malloc_unlock:0000000000000028 $d
     /tmp/ccjw355H.s:150    .data.lock:0000000000000000 $d
     /tmp/ccjw355H.s:154    .data.lock:0000000000000000 lock

UNDEFINED SYMBOLS
__stack_chk_guard
chMtxLock
__stack_chk_fail
chMtxUnlock
