ARM GAS  /tmp/ccgDPzN2.s 			page 1


   1              		.cpu cortex-m4
   2              		.eabi_attribute 27, 1
   3              		.eabi_attribute 28, 1
   4              		.eabi_attribute 20, 1
   5              		.eabi_attribute 21, 1
   6              		.eabi_attribute 23, 3
   7              		.eabi_attribute 24, 1
   8              		.eabi_attribute 25, 1
   9              		.eabi_attribute 26, 1
  10              		.eabi_attribute 30, 2
  11              		.eabi_attribute 34, 1
  12              		.eabi_attribute 18, 4
  13              		.file	"memory_protection.c"
  14              		.text
  15              	.Ltext0:
  16              		.cfi_sections	.debug_frame
  17              		.section	.rodata.mpu_enable.cst4,"aM",%progbits,4
  18              		.align	2
  19              	.LC0:
  20 0000 00000000 		.word	__stack_chk_guard
  21              		.section	.text.mpu_enable,"ax",%progbits
  22              		.align	1
  23              		.p2align 4,,15
  24              		.global	mpu_enable
  25              		.arch armv7e-m
  26              		.syntax unified
  27              		.thumb
  28              		.thumb_func
  29              		.fpu fpv4-sp-d16
  30              		.type	mpu_enable, %function
  31              	mpu_enable:
  32              	.LFB259:
  33              		.file 1 ".//src/memory_protection.c"
  34              		.loc 1 35 1 view -0
  35              		.cfi_startproc
  36              		@ args = 0, pretend = 0, frame = 8
  37              		@ frame_needed = 0, uses_anonymous_args = 0
  38 0000 00B5     		push	{lr}
  39              		.cfi_def_cfa_offset 4
  40              		.cfi_offset 14, -4
  41 0002 0A4B     		ldr	r3, .L6
  42              		.loc 1 36 15 is_stmt 0 view .LVU1
  43 0004 0A4A     		ldr	r2, .L6+4
  44              		.loc 1 35 1 view .LVU2
  45 0006 83B0     		sub	sp, sp, #12
  46              		.cfi_def_cfa_offset 16
  47              		.loc 1 35 1 view .LVU3
  48 0008 1B68     		ldr	r3, [r3]
  49 000a 0193     		str	r3, [sp, #4]
  50 000c 4FF00003 		mov	r3,#0
  51              		.loc 1 36 5 is_stmt 1 view .LVU4
  52              		.loc 1 36 15 is_stmt 0 view .LVU5
  53 0010 5368     		ldr	r3, [r2, #4]
  54 0012 43F00103 		orr	r3, r3, #1
  55 0016 5360     		str	r3, [r2, #4]
  56              		.loc 1 37 1 view .LVU6
  57 0018 044B     		ldr	r3, .L6
ARM GAS  /tmp/ccgDPzN2.s 			page 2


  58 001a 1A68     		ldr	r2, [r3]
  59 001c 019B     		ldr	r3, [sp, #4]
  60 001e 5A40     		eors	r2, r3, r2
  61 0020 02D1     		bne	.L5
  62 0022 03B0     		add	sp, sp, #12
  63              		.cfi_remember_state
  64              		.cfi_def_cfa_offset 4
  65              		@ sp needed
  66 0024 5DF804FB 		ldr	pc, [sp], #4
  67              	.L5:
  68              		.cfi_restore_state
  69 0028 FFF7FEFF 		bl	__stack_chk_fail
  70              	.LVL0:
  71              	.L7:
  72              		.align	2
  73              	.L6:
  74 002c 00000000 		.word	.LC0
  75 0030 90ED00E0 		.word	-536810096
  76              		.cfi_endproc
  77              	.LFE259:
  78              		.size	mpu_enable, .-mpu_enable
  79              		.section	.rodata.mpu_disable.cst4,"aM",%progbits,4
  80              		.align	2
  81              	.LC1:
  82 0000 00000000 		.word	__stack_chk_guard
  83              		.section	.text.mpu_disable,"ax",%progbits
  84              		.align	1
  85              		.p2align 4,,15
  86              		.global	mpu_disable
  87              		.syntax unified
  88              		.thumb
  89              		.thumb_func
  90              		.fpu fpv4-sp-d16
  91              		.type	mpu_disable, %function
  92              	mpu_disable:
  93              	.LFB260:
  94              		.loc 1 40 1 is_stmt 1 view -0
  95              		.cfi_startproc
  96              		@ args = 0, pretend = 0, frame = 8
  97              		@ frame_needed = 0, uses_anonymous_args = 0
  98 0000 00B5     		push	{lr}
  99              		.cfi_def_cfa_offset 4
 100              		.cfi_offset 14, -4
 101 0002 0A4B     		ldr	r3, .L12
 102              		.loc 1 41 15 is_stmt 0 view .LVU8
 103 0004 0A4A     		ldr	r2, .L12+4
 104              		.loc 1 40 1 view .LVU9
 105 0006 83B0     		sub	sp, sp, #12
 106              		.cfi_def_cfa_offset 16
 107              		.loc 1 40 1 view .LVU10
 108 0008 1B68     		ldr	r3, [r3]
 109 000a 0193     		str	r3, [sp, #4]
 110 000c 4FF00003 		mov	r3,#0
 111              		.loc 1 41 5 is_stmt 1 view .LVU11
 112              		.loc 1 41 15 is_stmt 0 view .LVU12
 113 0010 5368     		ldr	r3, [r2, #4]
 114 0012 23F00103 		bic	r3, r3, #1
ARM GAS  /tmp/ccgDPzN2.s 			page 3


 115 0016 5360     		str	r3, [r2, #4]
 116              		.loc 1 42 1 view .LVU13
 117 0018 044B     		ldr	r3, .L12
 118 001a 1A68     		ldr	r2, [r3]
 119 001c 019B     		ldr	r3, [sp, #4]
 120 001e 5A40     		eors	r2, r3, r2
 121 0020 02D1     		bne	.L11
 122 0022 03B0     		add	sp, sp, #12
 123              		.cfi_remember_state
 124              		.cfi_def_cfa_offset 4
 125              		@ sp needed
 126 0024 5DF804FB 		ldr	pc, [sp], #4
 127              	.L11:
 128              		.cfi_restore_state
 129 0028 FFF7FEFF 		bl	__stack_chk_fail
 130              	.LVL1:
 131              	.L13:
 132              		.align	2
 133              	.L12:
 134 002c 00000000 		.word	.LC1
 135 0030 90ED00E0 		.word	-536810096
 136              		.cfi_endproc
 137              	.LFE260:
 138              		.size	mpu_disable, .-mpu_disable
 139              		.section	.rodata.mpu_configure_region.cst4,"aM",%progbits,4
 140              		.align	2
 141              	.LC2:
 142 0000 00000000 		.word	__stack_chk_guard
 143              		.section	.text.mpu_configure_region,"ax",%progbits
 144              		.align	1
 145              		.p2align 4,,15
 146              		.global	mpu_configure_region
 147              		.syntax unified
 148              		.thumb
 149              		.thumb_func
 150              		.fpu fpv4-sp-d16
 151              		.type	mpu_configure_region, %function
 152              	mpu_configure_region:
 153              	.LVL2:
 154              	.LFB261:
 155              		.loc 1 46 1 is_stmt 1 view -0
 156              		.cfi_startproc
 157              		@ args = 4, pretend = 0, frame = 8
 158              		@ frame_needed = 0, uses_anonymous_args = 0
 159              		.loc 1 46 1 is_stmt 0 view .LVU15
 160 0000 2DE9F041 		push	{r4, r5, r6, r7, r8, lr}
 161              		.cfi_def_cfa_offset 24
 162              		.cfi_offset 4, -24
 163              		.cfi_offset 5, -20
 164              		.cfi_offset 6, -16
 165              		.cfi_offset 7, -12
 166              		.cfi_offset 8, -8
 167              		.cfi_offset 14, -4
 168 0004 1F46     		mov	r7, r3
 169 0006 82B0     		sub	sp, sp, #8
 170              		.cfi_def_cfa_offset 32
 171              		.loc 1 46 1 view .LVU16
ARM GAS  /tmp/ccgDPzN2.s 			page 4


 172 0008 264B     		ldr	r3, .L24
 173              	.LVL3:
 174              		.loc 1 46 1 view .LVU17
 175 000a 9DF82080 		ldrb	r8, [sp, #32]	@ zero_extendqisi2
 176              		.loc 1 49 5 view .LVU18
 177 000e 042A     		cmp	r2, #4
 178              		.loc 1 46 1 view .LVU19
 179 0010 1446     		mov	r4, r2
 180 0012 0546     		mov	r5, r0
 181 0014 0E46     		mov	r6, r1
 182 0016 1B68     		ldr	r3, [r3]
 183 0018 0193     		str	r3, [sp, #4]
 184 001a 4FF00003 		mov	r3,#0
 185              		.loc 1 47 5 is_stmt 1 view .LVU20
 186              	.LVL4:
 187              		.loc 1 49 5 view .LVU21
 188              		.loc 1 49 5 view .LVU22
 189              		.loc 1 49 5 view .LVU23
 190 001e 3AD9     		bls	.L21
 191              	.LVL5:
 192              	.L15:
 193              		.loc 1 49 5 discriminator 5 view .LVU24
 194              		.loc 1 52 5 discriminator 5 view .LVU25
 195              		.loc 1 56 8 is_stmt 0 discriminator 5 view .LVU26
 196 0020 B8F1000F 		cmp	r8, #0
 197              		.loc 1 57 14 discriminator 5 view .LVU27
 198 0024 14BF     		ite	ne
 199 0026 0022     		movne	r2, #0
 200 0028 4FF08052 		moveq	r2, #268435456
 201              		.loc 1 62 24 discriminator 5 view .LVU28
 202 002c 6400     		lsls	r4, r4, #1
 203              	.LVL6:
 204              		.loc 1 61 10 discriminator 5 view .LVU29
 205 002e 02EB0763 		add	r3, r2, r7, lsl #24
 206              		.loc 1 63 10 discriminator 5 view .LVU30
 207 0032 013C     		subs	r4, r4, #1
 208 0034 1C44     		add	r4, r4, r3
 209              		.loc 1 52 12 discriminator 5 view .LVU31
 210 0036 05F00F05 		and	r5, r5, #15
 211              	.LVL7:
 212              		.loc 1 53 5 is_stmt 1 discriminator 5 view .LVU32
 213              		.loc 1 53 36 is_stmt 0 discriminator 5 view .LVU33
 214 003a 26F01F06 		bic	r6, r6, #31
 215              	.LVL8:
 216              		.loc 1 56 5 is_stmt 1 discriminator 5 view .LVU34
 217              		.loc 1 61 5 discriminator 5 view .LVU35
 218              		.loc 1 62 5 discriminator 5 view .LVU36
 219              		.loc 1 63 5 discriminator 5 view .LVU37
 220              		.loc 1 65 5 discriminator 5 view .LVU38
 221              	.LBB56:
 222              	.LBI56:
 223              		.file 2 ".//ChibiOS//os/rt/include/chsys.h"
 224              		.loc 2 346 20 discriminator 5 view .LVU39
 225              	.LBB57:
 226              		.loc 2 348 3 discriminator 5 view .LVU40
 227              	.LBB58:
 228              	.LBI58:
ARM GAS  /tmp/ccgDPzN2.s 			page 5


 229              		.file 3 ".//ChibiOS//os/rt/ports/ARMCMx/chcore_v7m.h"
 230              		.loc 3 444 20 discriminator 5 view .LVU41
 231              	.LBE58:
 232              	.LBE57:
 233              	.LBE56:
 234              		.loc 3 447 3 discriminator 5 view .LVU42
 235              	.LBB64:
 236              	.LBB62:
 237              	.LBB61:
 238              	.LBB59:
 239              	.LBI59:
 240              		.file 4 ".//ChibiOS//os/ext/CMSIS/include/core_cmFunc.h"
 241              		.loc 4 544 57 discriminator 5 view .LVU43
 242              	.LBB60:
 243              		.loc 4 546 3 discriminator 5 view .LVU44
 244 003e 2023     		movs	r3, #32
 245              		.syntax unified
 246              	@ 546 ".//ChibiOS//os/ext/CMSIS/include/core_cmFunc.h" 1
 247 0040 83F31188 		MSR basepri, r3
 248              	@ 0 "" 2
 249              	.LVL9:
 250              		.loc 4 546 3 is_stmt 0 discriminator 5 view .LVU45
 251              		.thumb
 252              		.syntax unified
 253              	.LBE60:
 254              	.LBE59:
 255              	.LBE61:
 256              		.loc 2 349 3 is_stmt 1 discriminator 5 view .LVU46
 257 0044 FFF7FEFF 		bl	_stats_start_measure_crit_thd
 258              	.LVL10:
 259              		.loc 2 350 3 discriminator 5 view .LVU47
 260              	.LBE62:
 261              	.LBE64:
 262              		.loc 1 68 33 is_stmt 0 discriminator 5 view .LVU48
 263 0048 3543     		orrs	r5, r5, r6
 264              	.LVL11:
 265              	.LBB65:
 266              	.LBB63:
 267              		.loc 2 350 3 discriminator 5 view .LVU49
 268 004a FFF7FEFF 		bl	_dbg_check_lock
 269              	.LVL12:
 270              	.LBE63:
 271              	.LBE65:
 272              		.loc 1 68 5 is_stmt 1 discriminator 5 view .LVU50
 273              		.loc 1 68 15 is_stmt 0 discriminator 5 view .LVU51
 274 004e 164B     		ldr	r3, .L24+4
 275              		.loc 1 68 42 discriminator 5 view .LVU52
 276 0050 1035     		adds	r5, r5, #16
 277              		.loc 1 68 15 discriminator 5 view .LVU53
 278 0052 DD60     		str	r5, [r3, #12]
 279              	.LVL13:
 280              		.loc 1 69 5 is_stmt 1 discriminator 5 view .LVU54
 281              		.loc 1 69 15 is_stmt 0 discriminator 5 view .LVU55
 282 0054 1C61     		str	r4, [r3, #16]
 283              		.loc 1 71 5 is_stmt 1 discriminator 5 view .LVU56
 284              	.LBB66:
 285              	.LBI66:
ARM GAS  /tmp/ccgDPzN2.s 			page 6


 286              		.loc 2 358 20 discriminator 5 view .LVU57
 287              	.LBB67:
 288              		.loc 2 360 3 discriminator 5 view .LVU58
 289 0056 FFF7FEFF 		bl	_dbg_check_unlock
 290              	.LVL14:
 291              		.loc 2 361 3 discriminator 5 view .LVU59
 292 005a FFF7FEFF 		bl	_stats_stop_measure_crit_thd
 293              	.LVL15:
 294              		.loc 2 367 3 discriminator 5 view .LVU60
 295              		.loc 2 367 3 discriminator 5 view .LVU61
 296              		.loc 2 367 3 discriminator 5 view .LVU62
 297 005e 134B     		ldr	r3, .L24+8
 298 0060 1A68     		ldr	r2, [r3]
 299 0062 9A42     		cmp	r2, r3
 300 0064 04D0     		beq	.L17
 301              		.loc 2 367 3 is_stmt 0 view .LVU63
 302 0066 9969     		ldr	r1, [r3, #24]
 303 0068 9368     		ldr	r3, [r2, #8]
 304 006a 8A68     		ldr	r2, [r1, #8]
 305 006c 9A42     		cmp	r2, r3
 306 006e 0ED3     		bcc	.L22
 307              	.L17:
 308              		.loc 2 367 3 is_stmt 1 view .LVU64
 309              		.loc 2 371 3 view .LVU65
 310              	.LBB68:
 311              	.LBI68:
 312              		.loc 3 458 20 view .LVU66
 313              	.LBE68:
 314              	.LBE67:
 315              	.LBE66:
 316              		.loc 3 461 3 view .LVU67
 317              	.LVL16:
 318              	.LBB74:
 319              	.LBB72:
 320              	.LBB71:
 321              	.LBB69:
 322              	.LBI69:
 323              		.loc 4 544 57 view .LVU68
 324              	.LBB70:
 325              		.loc 4 546 3 view .LVU69
 326 0070 0023     		movs	r3, #0
 327              		.syntax unified
 328              	@ 546 ".//ChibiOS//os/ext/CMSIS/include/core_cmFunc.h" 1
 329 0072 83F31188 		MSR basepri, r3
 330              	@ 0 "" 2
 331              	.LVL17:
 332              		.loc 4 546 3 is_stmt 0 view .LVU70
 333              		.thumb
 334              		.syntax unified
 335              	.LBE70:
 336              	.LBE69:
 337              	.LBE71:
 338              	.LBE72:
 339              	.LBE74:
 340              		.loc 1 74 5 is_stmt 1 view .LVU71
 341              	.LBB75:
 342              	.LBI75:
ARM GAS  /tmp/ccgDPzN2.s 			page 7


 343              		.file 5 ".//ChibiOS//os/ext/CMSIS/include/core_cmInstr.h"
 344              		.loc 5 369 57 view .LVU72
 345              	.LBB76:
 346              		.loc 5 371 3 view .LVU73
 347              		.syntax unified
 348              	@ 371 ".//ChibiOS//os/ext/CMSIS/include/core_cmInstr.h" 1
 349 0076 BFF36F8F 		isb
 350              	@ 0 "" 2
 351              		.thumb
 352              		.syntax unified
 353              	.LBE76:
 354              	.LBE75:
 355              		.loc 1 75 5 view .LVU74
 356              	.LBB77:
 357              	.LBI77:
 358              		.loc 5 380 57 view .LVU75
 359              	.LBB78:
 360              		.loc 5 382 3 view .LVU76
 361              		.syntax unified
 362              	@ 382 ".//ChibiOS//os/ext/CMSIS/include/core_cmInstr.h" 1
 363 007a BFF34F8F 		dsb
 364              	@ 0 "" 2
 365              		.thumb
 366              		.syntax unified
 367              	.LBE78:
 368              	.LBE77:
 369              		.loc 1 76 1 is_stmt 0 view .LVU77
 370 007e 094B     		ldr	r3, .L24
 371 0080 1A68     		ldr	r2, [r3]
 372 0082 019B     		ldr	r3, [sp, #4]
 373 0084 5A40     		eors	r2, r3, r2
 374 0086 0AD1     		bne	.L23
 375 0088 02B0     		add	sp, sp, #8
 376              		.cfi_remember_state
 377              		.cfi_def_cfa_offset 24
 378              		@ sp needed
 379 008a BDE8F081 		pop	{r4, r5, r6, r7, r8, pc}
 380              	.LVL18:
 381              	.L22:
 382              		.cfi_restore_state
 383              	.LBB79:
 384              	.LBB73:
 385              		.loc 2 367 3 is_stmt 1 view .LVU78
 386 008e 0848     		ldr	r0, .L24+12
 387 0090 FFF7FEFF 		bl	chSysHalt
 388              	.LVL19:
 389 0094 ECE7     		b	.L17
 390              	.LVL20:
 391              	.L21:
 392              		.loc 2 367 3 is_stmt 0 view .LVU79
 393              	.LBE73:
 394              	.LBE79:
 395              		.loc 1 49 5 is_stmt 1 discriminator 3 view .LVU80
 396 0096 0748     		ldr	r0, .L24+16
 397              	.LVL21:
 398              		.loc 1 49 5 is_stmt 0 discriminator 3 view .LVU81
 399 0098 FFF7FEFF 		bl	chSysHalt
ARM GAS  /tmp/ccgDPzN2.s 			page 8


 400              	.LVL22:
 401              		.loc 1 49 5 discriminator 3 view .LVU82
 402 009c C0E7     		b	.L15
 403              	.LVL23:
 404              	.L23:
 405              		.loc 1 76 1 view .LVU83
 406 009e FFF7FEFF 		bl	__stack_chk_fail
 407              	.LVL24:
 408              	.L25:
 409 00a2 00BF     		.align	2
 410              	.L24:
 411 00a4 00000000 		.word	.LC2
 412 00a8 90ED00E0 		.word	-536810096
 413 00ac 00000000 		.word	ch
 414 00b0 00000000 		.word	.LANCHOR1
 415 00b4 00000000 		.word	.LANCHOR0
 416              		.cfi_endproc
 417              	.LFE261:
 418              		.size	mpu_configure_region, .-mpu_configure_region
 419              		.section	.rodata.mpu_init.cst4,"aM",%progbits,4
 420              		.align	2
 421              	.LC3:
 422 0000 00000000 		.word	__stack_chk_guard
 423              		.section	.text.mpu_init,"ax",%progbits
 424              		.align	1
 425              		.p2align 4,,15
 426              		.global	mpu_init
 427              		.syntax unified
 428              		.thumb
 429              		.thumb_func
 430              		.fpu fpv4-sp-d16
 431              		.type	mpu_init, %function
 432              	mpu_init:
 433              	.LFB262:
 434              		.loc 1 79 1 is_stmt 1 view -0
 435              		.cfi_startproc
 436              		@ args = 0, pretend = 0, frame = 8
 437              		@ frame_needed = 0, uses_anonymous_args = 0
 438 0000 10B5     		push	{r4, lr}
 439              		.cfi_def_cfa_offset 8
 440              		.cfi_offset 4, -8
 441              		.cfi_offset 14, -4
 442 0002 244B     		ldr	r3, .L32
 443              		.loc 1 81 15 is_stmt 0 view .LVU85
 444 0004 244C     		ldr	r4, .L32+4
 445              		.loc 1 84 16 view .LVU86
 446 0006 254A     		ldr	r2, .L32+8
 447              		.loc 1 79 1 view .LVU87
 448 0008 84B0     		sub	sp, sp, #16
 449              		.cfi_def_cfa_offset 24
 450              		.loc 1 79 1 view .LVU88
 451 000a 1B68     		ldr	r3, [r3]
 452 000c 0393     		str	r3, [sp, #12]
 453 000e 4FF00003 		mov	r3,#0
 454              		.loc 1 81 5 is_stmt 1 view .LVU89
 455              		.loc 1 81 15 is_stmt 0 view .LVU90
 456 0012 6368     		ldr	r3, [r4, #4]
ARM GAS  /tmp/ccgDPzN2.s 			page 9


 457 0014 43F00403 		orr	r3, r3, #4
 458 0018 6360     		str	r3, [r4, #4]
 459              		.loc 1 84 5 is_stmt 1 view .LVU91
 460              		.loc 1 84 16 is_stmt 0 view .LVU92
 461 001a 536A     		ldr	r3, [r2, #36]
 462 001c 43F48033 		orr	r3, r3, #65536
 463 0020 5362     		str	r3, [r2, #36]
 464              		.loc 1 87 5 is_stmt 1 view .LVU93
 465              	.LVL25:
 466              	.LBB98:
 467              	.LBI98:
 468              		.loc 1 44 6 view .LVU94
 469              	.LBB99:
 470              		.loc 1 47 5 view .LVU95
 471              		.loc 1 49 5 view .LVU96
 472              		.loc 1 49 5 view .LVU97
 473              		.loc 1 49 5 view .LVU98
 474              		.loc 1 49 5 view .LVU99
 475              		.loc 1 52 5 view .LVU100
 476              		.loc 1 53 5 view .LVU101
 477              		.loc 1 56 5 view .LVU102
 478              		.loc 1 57 9 view .LVU103
 479              		.loc 1 61 5 view .LVU104
 480              		.loc 1 62 5 view .LVU105
 481              		.loc 1 63 5 view .LVU106
 482              		.loc 1 65 5 view .LVU107
 483              	.LBB100:
 484              	.LBI100:
 485              		.loc 2 346 20 view .LVU108
 486              	.LBB101:
 487              		.loc 2 348 3 view .LVU109
 488              	.LBB102:
 489              	.LBI102:
 490              		.loc 3 444 20 view .LVU110
 491              	.LBE102:
 492              	.LBE101:
 493              	.LBE100:
 494              	.LBE99:
 495              	.LBE98:
 496              		.loc 3 447 3 view .LVU111
 497              	.LBB125:
 498              	.LBB122:
 499              	.LBB107:
 500              	.LBB106:
 501              	.LBB105:
 502              	.LBB103:
 503              	.LBI103:
 504              		.loc 4 544 57 view .LVU112
 505              	.LBB104:
 506              		.loc 4 546 3 view .LVU113
 507 0022 2023     		movs	r3, #32
 508              		.syntax unified
 509              	@ 546 ".//ChibiOS//os/ext/CMSIS/include/core_cmFunc.h" 1
 510 0024 83F31188 		MSR basepri, r3
 511              	@ 0 "" 2
 512              	.LVL26:
 513              		.loc 4 546 3 is_stmt 0 view .LVU114
ARM GAS  /tmp/ccgDPzN2.s 			page 10


 514              		.thumb
 515              		.syntax unified
 516              	.LBE104:
 517              	.LBE103:
 518              	.LBE105:
 519              		.loc 2 349 3 is_stmt 1 view .LVU115
 520 0028 FFF7FEFF 		bl	_stats_start_measure_crit_thd
 521              	.LVL27:
 522              		.loc 2 350 3 view .LVU116
 523 002c FFF7FEFF 		bl	_dbg_check_lock
 524              	.LVL28:
 525              	.LBE106:
 526              	.LBE107:
 527              		.loc 1 68 5 view .LVU117
 528              		.loc 1 69 15 is_stmt 0 view .LVU118
 529 0030 1B4B     		ldr	r3, .L32+12
 530              		.loc 1 68 15 view .LVU119
 531 0032 1722     		movs	r2, #23
 532 0034 E260     		str	r2, [r4, #12]
 533              		.loc 1 69 5 is_stmt 1 view .LVU120
 534              		.loc 1 69 15 is_stmt 0 view .LVU121
 535 0036 2361     		str	r3, [r4, #16]
 536              		.loc 1 71 5 is_stmt 1 view .LVU122
 537              	.LBB108:
 538              	.LBI108:
 539              		.loc 2 358 20 view .LVU123
 540              	.LBB109:
 541              		.loc 2 360 3 view .LVU124
 542 0038 FFF7FEFF 		bl	_dbg_check_unlock
 543              	.LVL29:
 544              		.loc 2 361 3 view .LVU125
 545 003c FFF7FEFF 		bl	_stats_stop_measure_crit_thd
 546              	.LVL30:
 547              		.loc 2 367 3 view .LVU126
 548              		.loc 2 367 3 view .LVU127
 549              		.loc 2 367 3 view .LVU128
 550 0040 184B     		ldr	r3, .L32+16
 551 0042 1A68     		ldr	r2, [r3]
 552 0044 9A42     		cmp	r2, r3
 553 0046 04D0     		beq	.L27
 554 0048 9969     		ldr	r1, [r3, #24]
 555 004a 9368     		ldr	r3, [r2, #8]
 556 004c 8A68     		ldr	r2, [r1, #8]
 557 004e 9A42     		cmp	r2, r3
 558 0050 19D3     		bcc	.L30
 559              	.L27:
 560              		.loc 2 367 3 view .LVU129
 561              		.loc 2 371 3 view .LVU130
 562              	.LBB110:
 563              	.LBI110:
 564              		.loc 3 458 20 view .LVU131
 565              	.LBE110:
 566              	.LBE109:
 567              	.LBE108:
 568              	.LBE122:
 569              	.LBE125:
 570              		.loc 3 461 3 view .LVU132
ARM GAS  /tmp/ccgDPzN2.s 			page 11


 571              	.LVL31:
 572              	.LBB126:
 573              	.LBB123:
 574              	.LBB116:
 575              	.LBB114:
 576              	.LBB113:
 577              	.LBB111:
 578              	.LBI111:
 579              		.loc 4 544 57 view .LVU133
 580              	.LBB112:
 581              		.loc 4 546 3 view .LVU134
 582 0052 0020     		movs	r0, #0
 583              		.syntax unified
 584              	@ 546 ".//ChibiOS//os/ext/CMSIS/include/core_cmFunc.h" 1
 585 0054 80F31188 		MSR basepri, r0
 586              	@ 0 "" 2
 587              	.LVL32:
 588              		.loc 4 546 3 is_stmt 0 view .LVU135
 589              		.thumb
 590              		.syntax unified
 591              	.LBE112:
 592              	.LBE111:
 593              	.LBE113:
 594              	.LBE114:
 595              	.LBE116:
 596              		.loc 1 74 5 is_stmt 1 view .LVU136
 597              	.LBB117:
 598              	.LBI117:
 599              		.loc 5 369 57 view .LVU137
 600              	.LBB118:
 601              		.loc 5 371 3 view .LVU138
 602              		.syntax unified
 603              	@ 371 ".//ChibiOS//os/ext/CMSIS/include/core_cmInstr.h" 1
 604 0058 BFF36F8F 		isb
 605              	@ 0 "" 2
 606              		.thumb
 607              		.syntax unified
 608              	.LBE118:
 609              	.LBE117:
 610              		.loc 1 75 5 view .LVU139
 611              	.LBB119:
 612              	.LBI119:
 613              		.loc 5 380 57 view .LVU140
 614              	.LBB120:
 615              		.loc 5 382 3 view .LVU141
 616              		.syntax unified
 617              	@ 382 ".//ChibiOS//os/ext/CMSIS/include/core_cmInstr.h" 1
 618 005c BFF34F8F 		dsb
 619              	@ 0 "" 2
 620              	.LVL33:
 621              		.loc 5 382 3 is_stmt 0 view .LVU142
 622              		.thumb
 623              		.syntax unified
 624              	.LBE120:
 625              	.LBE119:
 626              	.LBE123:
 627              	.LBE126:
ARM GAS  /tmp/ccgDPzN2.s 			page 12


 628              		.loc 1 94 5 is_stmt 1 view .LVU143
 629              		.loc 1 95 5 view .LVU144
 630              		.loc 1 96 5 view .LVU145
 631 0060 0323     		movs	r3, #3
 632 0062 1D22     		movs	r2, #29
 633 0064 0090     		str	r0, [sp]
 634 0066 4FF00051 		mov	r1, #536870912
 635 006a FFF7FEFF 		bl	mpu_configure_region
 636              	.LVL34:
 637              		.loc 1 98 5 view .LVU146
 638              	.LBB127:
 639              	.LBI127:
 640              		.loc 1 34 6 view .LVU147
 641              	.LBB128:
 642              		.loc 1 36 5 view .LVU148
 643              		.loc 1 36 15 is_stmt 0 view .LVU149
 644 006e 0A4A     		ldr	r2, .L32+4
 645 0070 5368     		ldr	r3, [r2, #4]
 646 0072 43F00103 		orr	r3, r3, #1
 647 0076 5360     		str	r3, [r2, #4]
 648              	.LBE128:
 649              	.LBE127:
 650              		.loc 1 99 1 view .LVU150
 651 0078 064B     		ldr	r3, .L32
 652 007a 1A68     		ldr	r2, [r3]
 653 007c 039B     		ldr	r3, [sp, #12]
 654 007e 5A40     		eors	r2, r3, r2
 655 0080 05D1     		bne	.L31
 656 0082 04B0     		add	sp, sp, #16
 657              		.cfi_remember_state
 658              		.cfi_def_cfa_offset 8
 659              		@ sp needed
 660 0084 10BD     		pop	{r4, pc}
 661              	.LVL35:
 662              	.L30:
 663              		.cfi_restore_state
 664              	.LBB129:
 665              	.LBB124:
 666              	.LBB121:
 667              	.LBB115:
 668              		.loc 2 367 3 is_stmt 1 view .LVU151
 669 0086 0848     		ldr	r0, .L32+20
 670 0088 FFF7FEFF 		bl	chSysHalt
 671              	.LVL36:
 672 008c E1E7     		b	.L27
 673              	.LVL37:
 674              	.L31:
 675              		.loc 2 367 3 is_stmt 0 view .LVU152
 676              	.LBE115:
 677              	.LBE121:
 678              	.LBE124:
 679              	.LBE129:
 680              		.loc 1 99 1 view .LVU153
 681 008e FFF7FEFF 		bl	__stack_chk_fail
 682              	.LVL38:
 683              	.L33:
 684 0092 00BF     		.align	2
ARM GAS  /tmp/ccgDPzN2.s 			page 13


 685              	.L32:
 686 0094 00000000 		.word	.LC3
 687 0098 90ED00E0 		.word	-536810096
 688 009c 00ED00E0 		.word	-536810240
 689 00a0 09000010 		.word	268435465
 690 00a4 00000000 		.word	ch
 691 00a8 00000000 		.word	.LANCHOR1
 692              		.cfi_endproc
 693              	.LFE262:
 694              		.size	mpu_init, .-mpu_init
 695              		.section	.rodata.MemManage_Handler.str1.4,"aMS",%progbits,1
 696              		.align	2
 697              	.LC5:
 698 0000 496E7661 		.ascii	"Invalid access to %p (pc=%p)\000"
 698      6C696420 
 698      61636365 
 698      73732074 
 698      6F202570 
 699 001d 000000   		.align	2
 700              	.LC6:
 701 0020 4A756D70 		.ascii	"Jumped to XN region %p (lr_thd=%p)\000"
 701      65642074 
 701      6F20584E 
 701      20726567 
 701      696F6E20 
 702 0043 00       		.align	2
 703              	.LC4:
 704 0044 4D656D4D 		.ascii	"MemManage_Handler\000"
 704      616E6167 
 704      655F4861 
 704      6E646C65 
 704      7200
 705              		.section	.rodata.MemManage_Handler.cst4,"aM",%progbits,4
 706              		.align	2
 707              	.LC7:
 708 0000 00000000 		.word	__stack_chk_guard
 709              		.section	.text.MemManage_Handler,"ax",%progbits
 710              		.align	1
 711              		.p2align 4,,15
 712              		.global	MemManage_Handler
 713              		.syntax unified
 714              		.thumb
 715              		.thumb_func
 716              		.fpu fpv4-sp-d16
 717              		.type	MemManage_Handler, %function
 718              	MemManage_Handler:
 719              	.LFB263:
 720              		.loc 1 102 1 is_stmt 1 view -0
 721              		.cfi_startproc
 722              		@ args = 0, pretend = 0, frame = 112
 723              		@ frame_needed = 0, uses_anonymous_args = 0
 724 0000 30B5     		push	{r4, r5, lr}
 725              		.cfi_def_cfa_offset 12
 726              		.cfi_offset 4, -12
 727              		.cfi_offset 5, -8
 728              		.cfi_offset 14, -4
 729 0002 1D4B     		ldr	r3, .L49
ARM GAS  /tmp/ccgDPzN2.s 			page 14


 730              		.loc 1 106 5 is_stmt 0 view .LVU155
 731 0004 1D4D     		ldr	r5, .L49+4
 732 0006 1E4C     		ldr	r4, .L49+8
 733              		.loc 1 102 1 view .LVU156
 734 0008 9FB0     		sub	sp, sp, #124
 735              		.cfi_def_cfa_offset 136
 736              		.loc 1 102 1 view .LVU157
 737 000a 1B68     		ldr	r3, [r3]
 738 000c 1D93     		str	r3, [sp, #116]
 739 000e 4FF00003 		mov	r3,#0
 740              		.loc 1 103 5 is_stmt 1 view .LVU158
 741              		.loc 1 106 5 view .LVU159
 742 0012 0FCD     		ldmia	r5!, {r0, r1, r2, r3}
 743 0014 0FC4     		stmia	r4!, {r0, r1, r2, r3}
 744 0016 2B68     		ldr	r3, [r5]
 745 0018 2380     		strh	r3, [r4]	@ movhi
 746              		.loc 1 108 5 view .LVU160
 747              		.loc 1 109 5 view .LVU161
 748              		.loc 1 111 5 view .LVU162
 749              	.LBB130:
 750              	.LBI130:
 751              		.loc 4 424 61 view .LVU163
 752              	.LBB131:
 753              		.loc 4 426 3 view .LVU164
 754              		.loc 4 428 3 view .LVU165
 755              		.syntax unified
 756              	@ 428 ".//ChibiOS//os/ext/CMSIS/include/core_cmFunc.h" 1
 757 001a EFF30981 		MRS r1, psp
 758              	
 759              	@ 0 "" 2
 760              	.LVL39:
 761              		.loc 4 429 3 view .LVU166
 762              		.loc 4 429 3 is_stmt 0 view .LVU167
 763              		.thumb
 764              		.syntax unified
 765              	.LBE131:
 766              	.LBE130:
 767              		.loc 1 111 5 view .LVU168
 768 001e 6822     		movs	r2, #104
 769 0020 03A8     		add	r0, sp, #12
 770 0022 FFF7FEFF 		bl	memcpy
 771              	.LVL40:
 772              		.loc 1 114 5 is_stmt 1 view .LVU169
 773              		.loc 1 114 16 is_stmt 0 view .LVU170
 774 0026 174B     		ldr	r3, .L49+12
 775 0028 9D6A     		ldr	r5, [r3, #40]
 776              	.LVL41:
 777              		.loc 1 117 5 is_stmt 1 view .LVU171
 778              		.loc 1 117 8 is_stmt 0 view .LVU172
 779 002a AA07     		lsls	r2, r5, #30
 780 002c 0CD4     		bmi	.L46
 781              		.loc 1 123 5 is_stmt 1 view .LVU173
 782              		.loc 1 123 8 is_stmt 0 view .LVU174
 783 002e EB07     		lsls	r3, r5, #31
 784 0030 15D4     		bmi	.L47
 785              	.L36:
 786              		.loc 1 129 5 is_stmt 1 view .LVU175
ARM GAS  /tmp/ccgDPzN2.s 			page 15


 787 0032 114B     		ldr	r3, .L49
 788 0034 1A68     		ldr	r2, [r3]
 789 0036 1D9B     		ldr	r3, [sp, #116]
 790 0038 5A40     		eors	r2, r3, r2
 791 003a 1AD1     		bne	.L48
 792 003c 1048     		ldr	r0, .L49+8
 793              		.loc 1 130 1 is_stmt 0 view .LVU176
 794 003e 1FB0     		add	sp, sp, #124
 795              		.cfi_remember_state
 796              		.cfi_def_cfa_offset 12
 797              		@ sp needed
 798 0040 BDE83040 		pop	{r4, r5, lr}
 799              		.cfi_restore 14
 800              		.cfi_restore 5
 801              		.cfi_restore 4
 802              		.cfi_def_cfa_offset 0
 803              	.LVL42:
 804              		.loc 1 129 5 view .LVU177
 805 0044 FFF7FEBF 		b	chSysHalt
 806              	.LVL43:
 807              	.L46:
 808              		.cfi_restore_state
 809              		.loc 1 118 9 is_stmt 1 view .LVU178
 810 0048 099A     		ldr	r2, [sp, #36]
 811              		.loc 1 119 61 is_stmt 0 view .LVU179
 812 004a 5B6B     		ldr	r3, [r3, #52]
 813              		.loc 1 118 9 view .LVU180
 814 004c 0092     		str	r2, [sp]
 815 004e A4F11000 		sub	r0, r4, #16
 816 0052 0D4A     		ldr	r2, .L49+16
 817 0054 8021     		movs	r1, #128
 818 0056 FFF7FEFF 		bl	snprintf
 819              	.LVL44:
 820              		.loc 1 123 5 is_stmt 1 view .LVU181
 821              		.loc 1 123 8 is_stmt 0 view .LVU182
 822 005a EB07     		lsls	r3, r5, #31
 823 005c E9D5     		bpl	.L36
 824              	.L47:
 825              		.loc 1 124 9 is_stmt 1 view .LVU183
 826              		.loc 1 126 29 is_stmt 0 view .LVU184
 827 005e 094B     		ldr	r3, .L49+12
 828              		.loc 1 124 9 view .LVU185
 829 0060 0899     		ldr	r1, [sp, #32]
 830              		.loc 1 126 29 view .LVU186
 831 0062 5B6B     		ldr	r3, [r3, #52]
 832              		.loc 1 124 9 view .LVU187
 833 0064 094A     		ldr	r2, .L49+20
 834 0066 0091     		str	r1, [sp]
 835 0068 0548     		ldr	r0, .L49+8
 836 006a 8021     		movs	r1, #128
 837 006c FFF7FEFF 		bl	snprintf
 838              	.LVL45:
 839 0070 DFE7     		b	.L36
 840              	.L48:
 841              		.loc 1 129 5 view .LVU188
 842 0072 FFF7FEFF 		bl	__stack_chk_fail
 843              	.LVL46:
ARM GAS  /tmp/ccgDPzN2.s 			page 16


 844              	.L50:
 845 0076 00BF     		.align	2
 846              	.L49:
 847 0078 00000000 		.word	.LC7
 848 007c 44000000 		.word	.LC4
 849 0080 00000000 		.word	.LANCHOR2
 850 0084 00ED00E0 		.word	-536810240
 851 0088 00000000 		.word	.LC5
 852 008c 20000000 		.word	.LC6
 853              		.cfi_endproc
 854              	.LFE263:
 855              		.size	MemManage_Handler, .-MemManage_Handler
 856              		.section	.bss.msg.11715,"aw",%nobits
 857              		.align	2
 858              		.set	.LANCHOR2,. + 0
 859              		.type	msg.11715, %object
 860              		.size	msg.11715, 128
 861              	msg.11715:
 862 0000 00000000 		.space	128
 862      00000000 
 862      00000000 
 862      00000000 
 862      00000000 
 863              		.section	.rodata.__func__.11706,"a"
 864              		.align	2
 865              		.set	.LANCHOR0,. + 0
 866              		.type	__func__.11706, %object
 867              		.size	__func__.11706, 21
 868              	__func__.11706:
 869 0000 6D70755F 		.ascii	"mpu_configure_region\000"
 869      636F6E66 
 869      69677572 
 869      655F7265 
 869      67696F6E 
 870              		.section	.rodata.__func__.8986,"a"
 871              		.align	2
 872              		.set	.LANCHOR1,. + 0
 873              		.type	__func__.8986, %object
 874              		.size	__func__.8986, 12
 875              	__func__.8986:
 876 0000 63685379 		.ascii	"chSysUnlock\000"
 876      73556E6C 
 876      6F636B00 
 877              		.text
 878              	.Letext0:
 879              		.file 6 "/usr/lib/gcc/arm-none-eabi/9.2.1/include/stddef.h"
 880              		.file 7 "/usr/include/newlib/machine/_default_types.h"
 881              		.file 8 "/usr/include/newlib/sys/_types.h"
 882              		.file 9 "/usr/include/newlib/sys/reent.h"
 883              		.file 10 "/usr/include/newlib/sys/lock.h"
 884              		.file 11 "/usr/include/newlib/sys/_stdint.h"
 885              		.file 12 "/usr/include/newlib/math.h"
 886              		.file 13 ".//ChibiOS//os/rt/ports/ARMCMx/compilers/GCC/chtypes.h"
 887              		.file 14 ".//ChibiOS//os/rt/include/chsystypes.h"
 888              		.file 15 ".//ChibiOS//os/rt/include/chschd.h"
 889              		.file 16 ".//ChibiOS//os/ext/CMSIS/include/core_cm4.h"
 890              		.file 17 ".//ChibiOS//os/ext/CMSIS/ST/system_stm32f4xx.h"
ARM GAS  /tmp/ccgDPzN2.s 			page 17


 891              		.file 18 ".//ChibiOS//os/ext/CMSIS/ST/stm32f407xx.h"
 892              		.file 19 ".//ChibiOS//os/rt/ports/ARMCMx/chcore.h"
 893              		.file 20 ".//ChibiOS//os/rt/include/chdebug.h"
 894              		.file 21 ".//ChibiOS//os/rt/include/chtm.h"
 895              		.file 22 ".//ChibiOS//os/rt/include/chstats.h"
 896              		.file 23 ".//ChibiOS//os/rt/include/chsem.h"
 897              		.file 24 ".//ChibiOS//os/rt/include/chmtx.h"
 898              		.file 25 ".//ChibiOS//os/rt/include/chregistry.h"
 899              		.file 26 ".//ChibiOS//os/rt/include/chevents.h"
 900              		.file 27 ".//ChibiOS//os/rt/include/chqueues.h"
 901              		.file 28 ".//ChibiOS//os/hal/ports/STM32/STM32F4xx/stm32_dma.h"
 902              		.file 29 ".//ChibiOS//os/hal/include/hal_ioblock.h"
 903              		.file 30 ".//ChibiOS//os/hal/ports/STM32/LLD/GPIOv2/pal_lld.h"
 904              		.file 31 ".//ChibiOS//os/hal/include/adc.h"
 905              		.file 32 ".//ChibiOS//os/hal/ports/STM32/STM32F4xx/adc_lld.h"
 906              		.file 33 ".//ChibiOS//os/hal/include/can.h"
 907              		.file 34 ".//ChibiOS//os/hal/ports/STM32/LLD/can_lld.h"
 908              		.file 35 ".//ChibiOS//os/hal/include/dac.h"
 909              		.file 36 ".//ChibiOS//os/hal/ports/STM32/LLD/DACv1/dac_lld.h"
 910              		.file 37 ".//ChibiOS//os/hal/include/ext.h"
 911              		.file 38 ".//ChibiOS//os/hal/ports/STM32/LLD/ext_lld.h"
 912              		.file 39 ".//ChibiOS//os/hal/include/gpt.h"
 913              		.file 40 ".//ChibiOS//os/hal/ports/STM32/LLD/TIMv1/gpt_lld.h"
 914              		.file 41 ".//ChibiOS//os/hal/ports/STM32/LLD/TIMv1/stm32_tim.h"
 915              		.file 42 ".//ChibiOS//os/hal/include/i2c.h"
 916              		.file 43 ".//ChibiOS//os/hal/ports/STM32/LLD/I2Cv1/i2c_lld.h"
 917              		.file 44 ".//ChibiOS//os/hal/include/i2s.h"
 918              		.file 45 ".//ChibiOS//os/hal/ports/STM32/LLD/SPIv1/i2s_lld.h"
 919              		.file 46 ".//ChibiOS//os/hal/include/pwm.h"
 920              		.file 47 ".//ChibiOS//os/hal/ports/STM32/LLD/TIMv1/pwm_lld.h"
 921              		.file 48 ".//ChibiOS//os/hal/include/serial.h"
 922              		.file 49 ".//ChibiOS//os/hal/ports/STM32/LLD/USARTv1/serial_lld.h"
 923              		.file 50 ".//ChibiOS//os/hal/include/sdc.h"
 924              		.file 51 ".//ChibiOS//os/hal/ports/STM32/LLD/sdc_lld.h"
 925              		.file 52 ".//ChibiOS//os/hal/include/spi.h"
 926              		.file 53 ".//ChibiOS//os/hal/ports/STM32/LLD/SPIv1/spi_lld.h"
 927              		.file 54 ".//ChibiOS//os/hal/include/usb.h"
 928              		.file 55 ".//ChibiOS//os/hal/ports/STM32/LLD/OTGv1/usb_lld.h"
 929              		.file 56 ".//ChibiOS//os/hal/ports/STM32/LLD/OTGv1/stm32_otg.h"
 930              		.file 57 ".//src/memory_protection.h"
 931              		.file 58 "/usr/include/newlib/stdio.h"
 932              		.file 59 "<built-in>"