ARM GAS  /tmp/ccBtiEsW.s 			page 1


   1              		.cpu cortex-m4
   2              		.eabi_attribute 27, 1
   3              		.eabi_attribute 28, 1
   4              		.eabi_attribute 20, 1
   5              		.eabi_attribute 21, 1
   6              		.eabi_attribute 23, 3
   7              		.eabi_attribute 24, 1
   8              		.eabi_attribute 25, 1
   9              		.eabi_attribute 26, 1
  10              		.eabi_attribute 30, 2
  11              		.eabi_attribute 34, 1
  12              		.eabi_attribute 18, 4
  13              		.file	"memstreams.c"
  14              		.text
  15              	.Ltext0:
  16              		.cfi_sections	.debug_frame
  17              		.section	.rodata.put.cst4,"aM",%progbits,4
  18              		.align	2
  19              	.LC0:
  20 0000 00000000 		.word	__stack_chk_guard
  21              		.section	.text.put,"ax",%progbits
  22              		.align	1
  23              		.p2align 4,,15
  24              		.arch armv7e-m
  25              		.syntax unified
  26              		.thumb
  27              		.thumb_func
  28              		.fpu fpv4-sp-d16
  29              		.type	put, %function
  30              	put:
  31              	.LVL0:
  32              	.LFB258:
  33              		.file 1 ".//ChibiOS//os/hal/lib/streams/memstreams.c"
  34              		.loc 1 66 39 view -0
  35              		.cfi_startproc
  36              		@ args = 0, pretend = 0, frame = 8
  37              		@ frame_needed = 0, uses_anonymous_args = 0
  38              		.loc 1 66 39 is_stmt 0 view .LVU1
  39 0000 00B5     		push	{lr}
  40              		.cfi_def_cfa_offset 4
  41              		.cfi_offset 14, -4
  42              		.loc 1 69 6 view .LVU2
  43 0002 D0E90223 		ldrd	r2, r3, [r0, #8]
  44              		.loc 1 66 39 view .LVU3
  45 0006 DFF83CC0 		ldr	ip, .L8
  46 000a 83B0     		sub	sp, sp, #12
  47              		.cfi_def_cfa_offset 16
  48              		.loc 1 69 6 view .LVU4
  49 000c 9A42     		cmp	r2, r3
  50              		.loc 1 66 39 view .LVU5
  51 000e DCF800C0 		ldr	ip, [ip]
  52 0012 CDF804C0 		str	ip, [sp, #4]
  53 0016 4FF0000C 		mov	ip,#0
  54              		.loc 1 67 3 is_stmt 1 view .LVU6
  55              	.LVL1:
  56              		.loc 1 69 3 view .LVU7
  57              		.loc 1 69 6 is_stmt 0 view .LVU8
ARM GAS  /tmp/ccBtiEsW.s 			page 2


  58 001a 0DD0     		beq	.L4
  59              		.loc 1 71 3 is_stmt 1 view .LVU9
  60              		.loc 1 71 29 is_stmt 0 view .LVU10
  61 001c 4268     		ldr	r2, [r0, #4]
  62 001e D154     		strb	r1, [r2, r3]
  63              		.loc 1 72 3 is_stmt 1 view .LVU11
  64              		.loc 1 72 12 is_stmt 0 view .LVU12
  65 0020 C368     		ldr	r3, [r0, #12]
  66 0022 0133     		adds	r3, r3, #1
  67 0024 C360     		str	r3, [r0, #12]
  68              		.loc 1 73 3 is_stmt 1 view .LVU13
  69              		.loc 1 73 10 is_stmt 0 view .LVU14
  70 0026 0020     		movs	r0, #0
  71              	.LVL2:
  72              	.L1:
  73              		.loc 1 74 1 view .LVU15
  74 0028 064B     		ldr	r3, .L8
  75 002a 1A68     		ldr	r2, [r3]
  76 002c 019B     		ldr	r3, [sp, #4]
  77 002e 5A40     		eors	r2, r3, r2
  78 0030 05D1     		bne	.L7
  79 0032 03B0     		add	sp, sp, #12
  80              		.cfi_remember_state
  81              		.cfi_def_cfa_offset 4
  82              		@ sp needed
  83 0034 5DF804FB 		ldr	pc, [sp], #4
  84              	.LVL3:
  85              	.L4:
  86              		.cfi_restore_state
  87              		.loc 1 70 12 view .LVU16
  88 0038 6FF00100 		mvn	r0, #1
  89              	.LVL4:
  90              		.loc 1 70 12 view .LVU17
  91 003c F4E7     		b	.L1
  92              	.L7:
  93              		.loc 1 74 1 view .LVU18
  94 003e FFF7FEFF 		bl	__stack_chk_fail
  95              	.LVL5:
  96              	.L9:
  97              		.loc 1 74 1 view .LVU19
  98 0042 00BF     		.align	2
  99              	.L8:
 100 0044 00000000 		.word	.LC0
 101              		.cfi_endproc
 102              	.LFE258:
 103              		.size	put, .-put
 104              		.section	.rodata.get.cst4,"aM",%progbits,4
 105              		.align	2
 106              	.LC1:
 107 0000 00000000 		.word	__stack_chk_guard
 108              		.section	.text.get,"ax",%progbits
 109              		.align	1
 110              		.p2align 4,,15
 111              		.syntax unified
 112              		.thumb
 113              		.thumb_func
 114              		.fpu fpv4-sp-d16
ARM GAS  /tmp/ccBtiEsW.s 			page 3


 115              		.type	get, %function
 116              	get:
 117              	.LVL6:
 118              	.LFB259:
 119              		.loc 1 76 28 is_stmt 1 view -0
 120              		.cfi_startproc
 121              		@ args = 0, pretend = 0, frame = 8
 122              		@ frame_needed = 0, uses_anonymous_args = 0
 123              		.loc 1 76 28 is_stmt 0 view .LVU21
 124 0000 00B5     		push	{lr}
 125              		.cfi_def_cfa_offset 4
 126              		.cfi_offset 14, -4
 127 0002 0E4A     		ldr	r2, .L16
 128 0004 83B0     		sub	sp, sp, #12
 129              		.cfi_def_cfa_offset 16
 130              		.loc 1 76 28 view .LVU22
 131 0006 1268     		ldr	r2, [r2]
 132 0008 0192     		str	r2, [sp, #4]
 133 000a 4FF00002 		mov	r2,#0
 134              		.loc 1 77 3 is_stmt 1 view .LVU23
 135              		.loc 1 78 3 view .LVU24
 136              	.LVL7:
 137              		.loc 1 80 3 view .LVU25
 138              		.loc 1 80 6 is_stmt 0 view .LVU26
 139 000e D0E90312 		ldrd	r1, r2, [r0, #12]
 140 0012 9142     		cmp	r1, r2
 141 0014 0CD0     		beq	.L13
 142              		.loc 1 82 5 view .LVU27
 143 0016 4168     		ldr	r1, [r0, #4]
 144 0018 0346     		mov	r3, r0
 145              		.loc 1 82 3 is_stmt 1 view .LVU28
 146              		.loc 1 82 5 is_stmt 0 view .LVU29
 147 001a 885C     		ldrb	r0, [r1, r2]	@ zero_extendqisi2
 148              	.LVL8:
 149              		.loc 1 83 3 is_stmt 1 view .LVU30
 150              		.loc 1 83 15 is_stmt 0 view .LVU31
 151 001c 0132     		adds	r2, r2, #1
 152 001e 1A61     		str	r2, [r3, #16]
 153              		.loc 1 84 3 is_stmt 1 view .LVU32
 154              	.LVL9:
 155              	.L10:
 156              		.loc 1 85 1 is_stmt 0 view .LVU33
 157 0020 064B     		ldr	r3, .L16
 158 0022 1A68     		ldr	r2, [r3]
 159 0024 019B     		ldr	r3, [sp, #4]
 160 0026 5A40     		eors	r2, r3, r2
 161 0028 05D1     		bne	.L15
 162 002a 03B0     		add	sp, sp, #12
 163              		.cfi_remember_state
 164              		.cfi_def_cfa_offset 4
 165              		@ sp needed
 166 002c 5DF804FB 		ldr	pc, [sp], #4
 167              	.LVL10:
 168              	.L13:
 169              		.cfi_restore_state
 170              		.loc 1 81 12 view .LVU34
 171 0030 6FF00100 		mvn	r0, #1
ARM GAS  /tmp/ccBtiEsW.s 			page 4


 172              	.LVL11:
 173              		.loc 1 81 12 view .LVU35
 174 0034 F4E7     		b	.L10
 175              	.L15:
 176              		.loc 1 85 1 view .LVU36
 177 0036 FFF7FEFF 		bl	__stack_chk_fail
 178              	.LVL12:
 179              	.L17:
 180 003a 00BF     		.align	2
 181              	.L16:
 182 003c 00000000 		.word	.LC1
 183              		.cfi_endproc
 184              	.LFE259:
 185              		.size	get, .-get
 186              		.section	.rodata.reads.cst4,"aM",%progbits,4
 187              		.align	2
 188              	.LC2:
 189 0000 00000000 		.word	__stack_chk_guard
 190              		.section	.text.reads,"ax",%progbits
 191              		.align	1
 192              		.p2align 4,,15
 193              		.syntax unified
 194              		.thumb
 195              		.thumb_func
 196              		.fpu fpv4-sp-d16
 197              		.type	reads, %function
 198              	reads:
 199              	.LVL13:
 200              	.LFB257:
 201              		.loc 1 56 54 is_stmt 1 view -0
 202              		.cfi_startproc
 203              		@ args = 0, pretend = 0, frame = 8
 204              		@ frame_needed = 0, uses_anonymous_args = 0
 205              		.loc 1 56 54 is_stmt 0 view .LVU38
 206 0000 F0B5     		push	{r4, r5, r6, r7, lr}
 207              		.cfi_def_cfa_offset 20
 208              		.cfi_offset 4, -20
 209              		.cfi_offset 5, -16
 210              		.cfi_offset 6, -12
 211              		.cfi_offset 7, -8
 212              		.cfi_offset 14, -4
 213              		.loc 1 59 16 view .LVU39
 214 0002 D0E90336 		ldrd	r3, r6, [r0, #12]
 215 0006 9B1B     		subs	r3, r3, r6
 216 0008 9342     		cmp	r3, r2
 217              		.loc 1 61 26 view .LVU40
 218 000a 4768     		ldr	r7, [r0, #4]
 219              		.loc 1 56 54 view .LVU41
 220 000c 0446     		mov	r4, r0
 221 000e 0D48     		ldr	r0, .L22
 222              	.LVL14:
 223              		.loc 1 56 54 view .LVU42
 224 0010 28BF     		it	cs
 225 0012 1346     		movcs	r3, r2
 226 0014 83B0     		sub	sp, sp, #12
 227              		.cfi_def_cfa_offset 32
 228              		.loc 1 61 3 view .LVU43
ARM GAS  /tmp/ccBtiEsW.s 			page 5


 229 0016 1A46     		mov	r2, r3
 230              	.LVL15:
 231              		.loc 1 56 54 view .LVU44
 232 0018 0068     		ldr	r0, [r0]
 233 001a 0190     		str	r0, [sp, #4]
 234 001c 4FF00000 		mov	r0,#0
 235              		.loc 1 57 3 is_stmt 1 view .LVU45
 236              	.LVL16:
 237              		.loc 1 59 3 view .LVU46
 238              		.loc 1 61 3 is_stmt 0 view .LVU47
 239 0020 0846     		mov	r0, r1
 240 0022 B919     		adds	r1, r7, r6
 241              	.LVL17:
 242              		.loc 1 61 3 view .LVU48
 243 0024 1D46     		mov	r5, r3
 244              	.LVL18:
 245              		.loc 1 61 3 is_stmt 1 view .LVU49
 246 0026 FFF7FEFF 		bl	memcpy
 247              	.LVL19:
 248              		.loc 1 62 3 view .LVU50
 249              		.loc 1 62 15 is_stmt 0 view .LVU51
 250 002a 2369     		ldr	r3, [r4, #16]
 251 002c 2B44     		add	r3, r3, r5
 252 002e 2361     		str	r3, [r4, #16]
 253              		.loc 1 63 3 is_stmt 1 view .LVU52
 254              		.loc 1 64 1 is_stmt 0 view .LVU53
 255 0030 044B     		ldr	r3, .L22
 256 0032 1A68     		ldr	r2, [r3]
 257 0034 019B     		ldr	r3, [sp, #4]
 258 0036 5A40     		eors	r2, r3, r2
 259 0038 02D1     		bne	.L21
 260 003a 2846     		mov	r0, r5
 261 003c 03B0     		add	sp, sp, #12
 262              		.cfi_remember_state
 263              		.cfi_def_cfa_offset 20
 264              		@ sp needed
 265 003e F0BD     		pop	{r4, r5, r6, r7, pc}
 266              	.LVL20:
 267              	.L21:
 268              		.cfi_restore_state
 269              		.loc 1 64 1 view .LVU54
 270 0040 FFF7FEFF 		bl	__stack_chk_fail
 271              	.LVL21:
 272              	.L23:
 273              		.align	2
 274              	.L22:
 275 0044 00000000 		.word	.LC2
 276              		.cfi_endproc
 277              	.LFE257:
 278              		.size	reads, .-reads
 279              		.section	.rodata.writes.cst4,"aM",%progbits,4
 280              		.align	2
 281              	.LC3:
 282 0000 00000000 		.word	__stack_chk_guard
 283              		.section	.text.writes,"ax",%progbits
 284              		.align	1
 285              		.p2align 4,,15
ARM GAS  /tmp/ccBtiEsW.s 			page 6


 286              		.syntax unified
 287              		.thumb
 288              		.thumb_func
 289              		.fpu fpv4-sp-d16
 290              		.type	writes, %function
 291              	writes:
 292              	.LVL22:
 293              	.LFB256:
 294              		.loc 1 46 61 is_stmt 1 view -0
 295              		.cfi_startproc
 296              		@ args = 0, pretend = 0, frame = 8
 297              		@ frame_needed = 0, uses_anonymous_args = 0
 298              		.loc 1 46 61 is_stmt 0 view .LVU56
 299 0000 70B5     		push	{r4, r5, r6, lr}
 300              		.cfi_def_cfa_offset 16
 301              		.cfi_offset 4, -16
 302              		.cfi_offset 5, -12
 303              		.cfi_offset 6, -8
 304              		.cfi_offset 14, -4
 305 0002 0446     		mov	r4, r0
 306              		.loc 1 51 22 view .LVU57
 307 0004 D4E90163 		ldrd	r6, r3, [r4, #4]
 308              		.loc 1 49 22 view .LVU58
 309 0008 C068     		ldr	r0, [r0, #12]
 310              	.LVL23:
 311              		.loc 1 46 61 view .LVU59
 312 000a 0E4D     		ldr	r5, .L28
 313              		.loc 1 49 17 view .LVU60
 314 000c 1B1A     		subs	r3, r3, r0
 315 000e 9342     		cmp	r3, r2
 316 0010 28BF     		it	cs
 317 0012 1346     		movcs	r3, r2
 318              		.loc 1 46 61 view .LVU61
 319 0014 82B0     		sub	sp, sp, #8
 320              		.cfi_def_cfa_offset 24
 321              		.loc 1 51 3 view .LVU62
 322 0016 1A46     		mov	r2, r3
 323              	.LVL24:
 324              		.loc 1 51 3 view .LVU63
 325 0018 3044     		add	r0, r0, r6
 326              		.loc 1 46 61 view .LVU64
 327 001a 2D68     		ldr	r5, [r5]
 328 001c 0195     		str	r5, [sp, #4]
 329 001e 4FF00005 		mov	r5,#0
 330              		.loc 1 47 3 is_stmt 1 view .LVU65
 331              	.LVL25:
 332              		.loc 1 49 3 view .LVU66
 333 0022 1D46     		mov	r5, r3
 334              	.LVL26:
 335              		.loc 1 51 3 view .LVU67
 336 0024 FFF7FEFF 		bl	memcpy
 337              	.LVL27:
 338              		.loc 1 52 3 view .LVU68
 339              		.loc 1 52 12 is_stmt 0 view .LVU69
 340 0028 E368     		ldr	r3, [r4, #12]
 341 002a 2B44     		add	r3, r3, r5
 342 002c E360     		str	r3, [r4, #12]
ARM GAS  /tmp/ccBtiEsW.s 			page 7


 343              		.loc 1 53 3 is_stmt 1 view .LVU70
 344              		.loc 1 54 1 is_stmt 0 view .LVU71
 345 002e 054B     		ldr	r3, .L28
 346 0030 1A68     		ldr	r2, [r3]
 347 0032 019B     		ldr	r3, [sp, #4]
 348 0034 5A40     		eors	r2, r3, r2
 349 0036 02D1     		bne	.L27
 350 0038 2846     		mov	r0, r5
 351 003a 02B0     		add	sp, sp, #8
 352              		.cfi_remember_state
 353              		.cfi_def_cfa_offset 16
 354              		@ sp needed
 355 003c 70BD     		pop	{r4, r5, r6, pc}
 356              	.LVL28:
 357              	.L27:
 358              		.cfi_restore_state
 359              		.loc 1 54 1 view .LVU72
 360 003e FFF7FEFF 		bl	__stack_chk_fail
 361              	.LVL29:
 362              	.L29:
 363 0042 00BF     		.align	2
 364              	.L28:
 365 0044 00000000 		.word	.LC3
 366              		.cfi_endproc
 367              	.LFE256:
 368              		.size	writes, .-writes
 369              		.section	.rodata.msObjectInit.cst4,"aM",%progbits,4
 370              		.align	2
 371              	.LC4:
 372 0000 00000000 		.word	__stack_chk_guard
 373              		.section	.text.msObjectInit,"ax",%progbits
 374              		.align	1
 375              		.p2align 4,,15
 376              		.global	msObjectInit
 377              		.syntax unified
 378              		.thumb
 379              		.thumb_func
 380              		.fpu fpv4-sp-d16
 381              		.type	msObjectInit, %function
 382              	msObjectInit:
 383              	.LVL30:
 384              	.LFB260:
 385              		.loc 1 104 44 is_stmt 1 view -0
 386              		.cfi_startproc
 387              		@ args = 0, pretend = 0, frame = 8
 388              		@ frame_needed = 0, uses_anonymous_args = 0
 389              		.loc 1 104 44 is_stmt 0 view .LVU74
 390 0000 10B5     		push	{r4, lr}
 391              		.cfi_def_cfa_offset 8
 392              		.cfi_offset 4, -8
 393              		.cfi_offset 14, -4
 394 0002 DFF834C0 		ldr	ip, .L34+4
 395              		.loc 1 106 15 view .LVU75
 396 0006 0B4C     		ldr	r4, .L34
 397              		.loc 1 104 44 view .LVU76
 398 0008 82B0     		sub	sp, sp, #8
 399              		.cfi_def_cfa_offset 16
ARM GAS  /tmp/ccBtiEsW.s 			page 8


 400              		.loc 1 104 44 view .LVU77
 401 000a DCF800C0 		ldr	ip, [ip]
 402 000e CDF804C0 		str	ip, [sp, #4]
 403 0012 4FF0000C 		mov	ip,#0
 404              		.loc 1 106 3 is_stmt 1 view .LVU78
 405              		.loc 1 106 15 is_stmt 0 view .LVU79
 406 0016 0460     		str	r4, [r0]
 407              		.loc 1 107 3 is_stmt 1 view .LVU80
 408              		.loc 1 110 15 is_stmt 0 view .LVU81
 409 0018 0024     		movs	r4, #0
 410 001a C0E90334 		strd	r3, r4, [r0, #12]
 411              		.loc 1 108 15 view .LVU82
 412 001e C0E90112 		strd	r1, r2, [r0, #4]
 413              		.loc 1 109 3 is_stmt 1 view .LVU83
 414              		.loc 1 111 1 is_stmt 0 view .LVU84
 415 0022 054B     		ldr	r3, .L34+4
 416              	.LVL31:
 417              		.loc 1 111 1 view .LVU85
 418 0024 1A68     		ldr	r2, [r3]
 419 0026 019B     		ldr	r3, [sp, #4]
 420 0028 5A40     		eors	r2, r3, r2
 421              	.LVL32:
 422              		.loc 1 111 1 view .LVU86
 423 002a 01D1     		bne	.L33
 424 002c 02B0     		add	sp, sp, #8
 425              		.cfi_remember_state
 426              		.cfi_def_cfa_offset 8
 427              		@ sp needed
 428 002e 10BD     		pop	{r4, pc}
 429              	.L33:
 430              		.cfi_restore_state
 431 0030 FFF7FEFF 		bl	__stack_chk_fail
 432              	.LVL33:
 433              	.L35:
 434              		.loc 1 111 1 view .LVU87
 435              		.align	2
 436              	.L34:
 437 0034 00000000 		.word	.LANCHOR0
 438 0038 00000000 		.word	.LC4
 439              		.cfi_endproc
 440              	.LFE260:
 441              		.size	msObjectInit, .-msObjectInit
 442              		.section	.rodata.vmt,"a"
 443              		.align	2
 444              		.set	.LANCHOR0,. + 0
 445              		.type	vmt, %object
 446              		.size	vmt, 16
 447              	vmt:
 448 0000 00000000 		.word	writes
 449 0004 00000000 		.word	reads
 450 0008 00000000 		.word	put
 451 000c 00000000 		.word	get
 452              		.text
 453              	.Letext0:
 454              		.file 2 "/usr/lib/gcc/arm-none-eabi/9.2.1/include/stddef.h"
 455              		.file 3 "/usr/include/newlib/sys/_types.h"
 456              		.file 4 "/usr/include/newlib/sys/reent.h"
ARM GAS  /tmp/ccBtiEsW.s 			page 9


 457              		.file 5 "/usr/include/newlib/sys/lock.h"
 458              		.file 6 "/usr/lib/gcc/arm-none-eabi/9.2.1/include/stdint.h"
 459              		.file 7 ".//ChibiOS//os/rt/ports/ARMCMx/compilers/GCC/chtypes.h"
 460              		.file 8 ".//ChibiOS//os/rt/include/chsystypes.h"
 461              		.file 9 ".//ChibiOS//os/rt/include/chschd.h"
 462              		.file 10 ".//ChibiOS//os/ext/CMSIS/include/core_cm4.h"
 463              		.file 11 ".//ChibiOS//os/ext/CMSIS/ST/system_stm32f4xx.h"
 464              		.file 12 ".//ChibiOS//os/ext/CMSIS/ST/stm32f407xx.h"
 465              		.file 13 ".//ChibiOS//os/rt/ports/ARMCMx/chcore.h"
 466              		.file 14 ".//ChibiOS//os/rt/ports/ARMCMx/chcore_v7m.h"
 467              		.file 15 ".//ChibiOS//os/rt/include/chdebug.h"
 468              		.file 16 ".//ChibiOS//os/rt/include/chtm.h"
 469              		.file 17 ".//ChibiOS//os/rt/include/chstats.h"
 470              		.file 18 ".//ChibiOS//os/rt/include/chsem.h"
 471              		.file 19 ".//ChibiOS//os/rt/include/chmtx.h"
 472              		.file 20 ".//ChibiOS//os/rt/include/chregistry.h"
 473              		.file 21 ".//ChibiOS//os/rt/include/chevents.h"
 474              		.file 22 ".//ChibiOS//os/rt/include/chqueues.h"
 475              		.file 23 ".//ChibiOS//os/hal/ports/STM32/STM32F4xx/stm32_dma.h"
 476              		.file 24 ".//ChibiOS//os/hal/include/hal_ioblock.h"
 477              		.file 25 ".//ChibiOS//os/hal/ports/STM32/LLD/GPIOv2/pal_lld.h"
 478              		.file 26 ".//ChibiOS//os/hal/include/adc.h"
 479              		.file 27 ".//ChibiOS//os/hal/ports/STM32/STM32F4xx/adc_lld.h"
 480              		.file 28 ".//ChibiOS//os/hal/include/can.h"
 481              		.file 29 ".//ChibiOS//os/hal/ports/STM32/LLD/can_lld.h"
 482              		.file 30 ".//ChibiOS//os/hal/include/dac.h"
 483              		.file 31 ".//ChibiOS//os/hal/ports/STM32/LLD/DACv1/dac_lld.h"
 484              		.file 32 ".//ChibiOS//os/hal/include/ext.h"
 485              		.file 33 ".//ChibiOS//os/hal/ports/STM32/LLD/ext_lld.h"
 486              		.file 34 ".//ChibiOS//os/hal/include/gpt.h"
 487              		.file 35 ".//ChibiOS//os/hal/ports/STM32/LLD/TIMv1/gpt_lld.h"
 488              		.file 36 ".//ChibiOS//os/hal/ports/STM32/LLD/TIMv1/stm32_tim.h"
 489              		.file 37 ".//ChibiOS//os/hal/include/i2c.h"
 490              		.file 38 ".//ChibiOS//os/hal/ports/STM32/LLD/I2Cv1/i2c_lld.h"
 491              		.file 39 ".//ChibiOS//os/hal/include/i2s.h"
 492              		.file 40 ".//ChibiOS//os/hal/ports/STM32/LLD/SPIv1/i2s_lld.h"
 493              		.file 41 ".//ChibiOS//os/hal/include/pwm.h"
 494              		.file 42 ".//ChibiOS//os/hal/ports/STM32/LLD/TIMv1/pwm_lld.h"
 495              		.file 43 ".//ChibiOS//os/hal/include/serial.h"
 496              		.file 44 ".//ChibiOS//os/hal/ports/STM32/LLD/USARTv1/serial_lld.h"
 497              		.file 45 ".//ChibiOS//os/hal/include/sdc.h"
 498              		.file 46 ".//ChibiOS//os/hal/ports/STM32/LLD/sdc_lld.h"
 499              		.file 47 ".//ChibiOS//os/hal/include/spi.h"
 500              		.file 48 ".//ChibiOS//os/hal/ports/STM32/LLD/SPIv1/spi_lld.h"
 501              		.file 49 ".//ChibiOS//os/hal/include/usb.h"
 502              		.file 50 ".//ChibiOS//os/hal/ports/STM32/LLD/OTGv1/usb_lld.h"
 503              		.file 51 ".//ChibiOS//os/hal/ports/STM32/LLD/OTGv1/stm32_otg.h"
 504              		.file 52 ".//ChibiOS//os/hal/lib/streams/memstreams.h"
 505              		.file 53 "<built-in>"