ARM GAS  /tmp/cc6OqTFa.s 			page 1


   1              		.cpu cortex-m4
   2              		.eabi_attribute 27, 1
   3              		.eabi_attribute 28, 1
   4              		.eabi_attribute 20, 1
   5              		.eabi_attribute 21, 1
   6              		.eabi_attribute 23, 3
   7              		.eabi_attribute 24, 1
   8              		.eabi_attribute 25, 1
   9              		.eabi_attribute 26, 1
  10              		.eabi_attribute 30, 2
  11              		.eabi_attribute 34, 1
  12              		.eabi_attribute 18, 4
  13              		.file	"messagebus.c"
  14              		.text
  15              	.Ltext0:
  16              		.cfi_sections	.debug_frame
  17              		.section	.rodata.messagebus_init.cst4,"aM",%progbits,4
  18              		.align	2
  19              	.LC0:
  20 0000 00000000 		.word	__stack_chk_guard
  21              		.section	.text.messagebus_init,"ax",%progbits
  22              		.align	1
  23              		.p2align 4,,15
  24              		.global	messagebus_init
  25              		.arch armv7e-m
  26              		.syntax unified
  27              		.thumb
  28              		.thumb_func
  29              		.fpu fpv4-sp-d16
  30              		.type	messagebus_init, %function
  31              	messagebus_init:
  32              	.LVL0:
  33              	.LFB1:
  34              		.file 1 ".//src/msgbus/messagebus.c"
  35              		.loc 1 17 1 view -0
  36              		.cfi_startproc
  37              		@ args = 0, pretend = 0, frame = 8
  38              		@ frame_needed = 0, uses_anonymous_args = 0
  39              		.loc 1 17 1 is_stmt 0 view .LVU1
  40 0000 00B5     		push	{lr}
  41              		.cfi_def_cfa_offset 4
  42              		.cfi_offset 14, -4
  43 0002 DFF82CC0 		ldr	ip, .L6
  44 0006 83B0     		sub	sp, sp, #12
  45              		.cfi_def_cfa_offset 16
  46              		.loc 1 17 1 view .LVU2
  47 0008 DCF800C0 		ldr	ip, [ip]
  48 000c CDF804C0 		str	ip, [sp, #4]
  49 0010 4FF0000C 		mov	ip,#0
  50              		.loc 1 18 5 is_stmt 1 view .LVU3
  51 0014 0023     		movs	r3, #0
  52              		.loc 1 20 18 is_stmt 0 view .LVU4
  53 0016 C0E90112 		strd	r1, r2, [r0, #4]
  54              		.loc 1 18 5 view .LVU5
  55 001a 0360     		str	r3, [r0]	@ unaligned
  56              		.loc 1 19 5 is_stmt 1 view .LVU6
  57              		.loc 1 21 1 is_stmt 0 view .LVU7
ARM GAS  /tmp/cc6OqTFa.s 			page 2


  58 001c 044B     		ldr	r3, .L6
  59 001e 1A68     		ldr	r2, [r3]
  60 0020 019B     		ldr	r3, [sp, #4]
  61 0022 5A40     		eors	r2, r3, r2
  62              	.LVL1:
  63              		.loc 1 21 1 view .LVU8
  64 0024 02D1     		bne	.L5
  65 0026 03B0     		add	sp, sp, #12
  66              		.cfi_remember_state
  67              		.cfi_def_cfa_offset 4
  68              		@ sp needed
  69 0028 5DF804FB 		ldr	pc, [sp], #4
  70              	.L5:
  71              		.cfi_restore_state
  72 002c FFF7FEFF 		bl	__stack_chk_fail
  73              	.LVL2:
  74              	.L7:
  75              		.loc 1 21 1 view .LVU9
  76              		.align	2
  77              	.L6:
  78 0030 00000000 		.word	.LC0
  79              		.cfi_endproc
  80              	.LFE1:
  81              		.size	messagebus_init, .-messagebus_init
  82              		.section	.rodata.messagebus_topic_init.cst4,"aM",%progbits,4
  83              		.align	2
  84              	.LC1:
  85 0000 00000000 		.word	__stack_chk_guard
  86              		.section	.text.messagebus_topic_init,"ax",%progbits
  87              		.align	1
  88              		.p2align 4,,15
  89              		.global	messagebus_topic_init
  90              		.syntax unified
  91              		.thumb
  92              		.thumb_func
  93              		.fpu fpv4-sp-d16
  94              		.type	messagebus_topic_init, %function
  95              	messagebus_topic_init:
  96              	.LVL3:
  97              	.LFB2:
  98              		.loc 1 25 1 is_stmt 1 view -0
  99              		.cfi_startproc
 100              		@ args = 4, pretend = 0, frame = 8
 101              		@ frame_needed = 0, uses_anonymous_args = 0
 102              		.loc 1 25 1 is_stmt 0 view .LVU11
 103 0000 2DE9F041 		push	{r4, r5, r6, r7, r8, lr}
 104              		.cfi_def_cfa_offset 24
 105              		.cfi_offset 4, -24
 106              		.cfi_offset 5, -20
 107              		.cfi_offset 6, -16
 108              		.cfi_offset 7, -12
 109              		.cfi_offset 8, -8
 110              		.cfi_offset 14, -4
 111 0004 82B0     		sub	sp, sp, #8
 112              		.cfi_def_cfa_offset 32
 113              		.loc 1 25 1 view .LVU12
 114 0006 1F46     		mov	r7, r3
ARM GAS  /tmp/cc6OqTFa.s 			page 3


 115 0008 DDF82080 		ldr	r8, [sp, #32]
 116 000c 0D4B     		ldr	r3, .L12
 117              	.LVL4:
 118              		.loc 1 25 1 view .LVU13
 119 000e 0446     		mov	r4, r0
 120 0010 0E46     		mov	r6, r1
 121 0012 1546     		mov	r5, r2
 122              		.loc 1 26 5 view .LVU14
 123 0014 1030     		adds	r0, r0, #16
 124              	.LVL5:
 125              		.loc 1 26 5 view .LVU15
 126 0016 4C22     		movs	r2, #76
 127              	.LVL6:
 128              		.loc 1 26 5 view .LVU16
 129 0018 0021     		movs	r1, #0
 130              	.LVL7:
 131              		.loc 1 25 1 view .LVU17
 132 001a 1B68     		ldr	r3, [r3]
 133 001c 0193     		str	r3, [sp, #4]
 134 001e 4FF00003 		mov	r3,#0
 135              		.loc 1 26 5 is_stmt 1 view .LVU18
 136 0022 FFF7FEFF 		bl	memset
 137              	.LVL8:
 138              		.loc 1 27 5 view .LVU19
 139              		.loc 1 28 23 is_stmt 0 view .LVU20
 140 0026 C4E90078 		strd	r7, r8, [r4]
 141              		.loc 1 29 5 is_stmt 1 view .LVU21
 142              		.loc 1 30 20 is_stmt 0 view .LVU22
 143 002a C4E90265 		strd	r6, r5, [r4, #8]
 144              		.loc 1 31 1 view .LVU23
 145 002e 054B     		ldr	r3, .L12
 146 0030 1A68     		ldr	r2, [r3]
 147 0032 019B     		ldr	r3, [sp, #4]
 148 0034 5A40     		eors	r2, r3, r2
 149 0036 02D1     		bne	.L11
 150 0038 02B0     		add	sp, sp, #8
 151              		.cfi_remember_state
 152              		.cfi_def_cfa_offset 24
 153              		@ sp needed
 154 003a BDE8F081 		pop	{r4, r5, r6, r7, r8, pc}
 155              	.LVL9:
 156              	.L11:
 157              		.cfi_restore_state
 158              		.loc 1 31 1 view .LVU24
 159 003e FFF7FEFF 		bl	__stack_chk_fail
 160              	.LVL10:
 161              	.L13:
 162 0042 00BF     		.align	2
 163              	.L12:
 164 0044 00000000 		.word	.LC1
 165              		.cfi_endproc
 166              	.LFE2:
 167              		.size	messagebus_topic_init, .-messagebus_topic_init
 168              		.section	.rodata.messagebus_advertise_topic.cst4,"aM",%progbits,4
 169              		.align	2
 170              	.LC2:
 171 0000 00000000 		.word	__stack_chk_guard
ARM GAS  /tmp/cc6OqTFa.s 			page 4


 172              		.section	.text.messagebus_advertise_topic,"ax",%progbits
 173              		.align	1
 174              		.p2align 4,,15
 175              		.global	messagebus_advertise_topic
 176              		.syntax unified
 177              		.thumb
 178              		.thumb_func
 179              		.fpu fpv4-sp-d16
 180              		.type	messagebus_advertise_topic, %function
 181              	messagebus_advertise_topic:
 182              	.LVL11:
 183              	.LFB3:
 184              		.loc 1 34 1 is_stmt 1 view -0
 185              		.cfi_startproc
 186              		@ args = 0, pretend = 0, frame = 8
 187              		@ frame_needed = 0, uses_anonymous_args = 0
 188              		.loc 1 34 1 is_stmt 0 view .LVU26
 189 0000 70B5     		push	{r4, r5, r6, lr}
 190              		.cfi_def_cfa_offset 16
 191              		.cfi_offset 4, -16
 192              		.cfi_offset 5, -12
 193              		.cfi_offset 6, -8
 194              		.cfi_offset 14, -4
 195              		.loc 1 35 17 view .LVU27
 196 0002 01F11003 		add	r3, r1, #16
 197              		.loc 1 34 1 view .LVU28
 198 0006 0446     		mov	r4, r0
 199              		.loc 1 35 5 view .LVU29
 200 0008 1846     		mov	r0, r3
 201              	.LVL12:
 202              		.loc 1 34 1 view .LVU30
 203 000a 134B     		ldr	r3, .L23
 204 000c 82B0     		sub	sp, sp, #8
 205              		.cfi_def_cfa_offset 24
 206              		.loc 1 34 1 view .LVU31
 207 000e 1646     		mov	r6, r2
 208 0010 0D46     		mov	r5, r1
 209              		.loc 1 35 5 view .LVU32
 210 0012 4122     		movs	r2, #65
 211              	.LVL13:
 212              		.loc 1 35 5 view .LVU33
 213 0014 0021     		movs	r1, #0
 214              	.LVL14:
 215              		.loc 1 34 1 view .LVU34
 216 0016 1B68     		ldr	r3, [r3]
 217 0018 0193     		str	r3, [sp, #4]
 218 001a 4FF00003 		mov	r3,#0
 219              		.loc 1 35 5 is_stmt 1 view .LVU35
 220 001e FFF7FEFF 		bl	memset
 221              	.LVL15:
 222              		.loc 1 36 5 view .LVU36
 223 0022 3146     		mov	r1, r6
 224 0024 4022     		movs	r2, #64
 225 0026 FFF7FEFF 		bl	strncpy
 226              	.LVL16:
 227              		.loc 1 38 5 view .LVU37
 228 002a 6068     		ldr	r0, [r4, #4]
ARM GAS  /tmp/cc6OqTFa.s 			page 5


 229 002c FFF7FEFF 		bl	messagebus_lock_acquire
 230              	.LVL17:
 231              		.loc 1 40 5 view .LVU38
 232              		.loc 1 40 20 is_stmt 0 view .LVU39
 233 0030 2368     		ldr	r3, [r4]
 234              		.loc 1 40 8 view .LVU40
 235 0032 03B1     		cbz	r3, .L15
 236              		.loc 1 41 9 is_stmt 1 view .LVU41
 237              		.loc 1 41 21 is_stmt 0 view .LVU42
 238 0034 AB65     		str	r3, [r5, #88]
 239              	.L15:
 240              		.loc 1 43 5 is_stmt 1 view .LVU43
 241              		.loc 1 45 5 is_stmt 0 view .LVU44
 242 0036 A068     		ldr	r0, [r4, #8]
 243              		.loc 1 43 22 view .LVU45
 244 0038 2560     		str	r5, [r4]
 245              		.loc 1 45 5 is_stmt 1 view .LVU46
 246 003a FFF7FEFF 		bl	messagebus_condvar_broadcast
 247              	.LVL18:
 248              		.loc 1 47 5 view .LVU47
 249 003e 064B     		ldr	r3, .L23
 250 0040 1A68     		ldr	r2, [r3]
 251 0042 019B     		ldr	r3, [sp, #4]
 252 0044 5A40     		eors	r2, r3, r2
 253 0046 05D1     		bne	.L22
 254 0048 6068     		ldr	r0, [r4, #4]
 255              		.loc 1 48 1 is_stmt 0 view .LVU48
 256 004a 02B0     		add	sp, sp, #8
 257              		.cfi_remember_state
 258              		.cfi_def_cfa_offset 16
 259              		@ sp needed
 260 004c BDE87040 		pop	{r4, r5, r6, lr}
 261              		.cfi_restore 14
 262              		.cfi_restore 6
 263              		.cfi_restore 5
 264              		.cfi_restore 4
 265              		.cfi_def_cfa_offset 0
 266              	.LVL19:
 267              		.loc 1 47 5 view .LVU49
 268 0050 FFF7FEBF 		b	messagebus_lock_release
 269              	.LVL20:
 270              	.L22:
 271              		.cfi_restore_state
 272              		.loc 1 47 5 view .LVU50
 273 0054 FFF7FEFF 		bl	__stack_chk_fail
 274              	.LVL21:
 275              	.L24:
 276              		.align	2
 277              	.L23:
 278 0058 00000000 		.word	.LC2
 279              		.cfi_endproc
 280              	.LFE3:
 281              		.size	messagebus_advertise_topic, .-messagebus_advertise_topic
 282              		.section	.rodata.messagebus_find_topic.cst4,"aM",%progbits,4
 283              		.align	2
 284              	.LC3:
 285 0000 00000000 		.word	__stack_chk_guard
ARM GAS  /tmp/cc6OqTFa.s 			page 6


 286              		.section	.text.messagebus_find_topic,"ax",%progbits
 287              		.align	1
 288              		.p2align 4,,15
 289              		.global	messagebus_find_topic
 290              		.syntax unified
 291              		.thumb
 292              		.thumb_func
 293              		.fpu fpv4-sp-d16
 294              		.type	messagebus_find_topic, %function
 295              	messagebus_find_topic:
 296              	.LVL22:
 297              	.LFB4:
 298              		.loc 1 51 1 is_stmt 1 view -0
 299              		.cfi_startproc
 300              		@ args = 0, pretend = 0, frame = 8
 301              		@ frame_needed = 0, uses_anonymous_args = 0
 302              		.loc 1 51 1 is_stmt 0 view .LVU52
 303 0000 70B5     		push	{r4, r5, r6, lr}
 304              		.cfi_def_cfa_offset 16
 305              		.cfi_offset 4, -16
 306              		.cfi_offset 5, -12
 307              		.cfi_offset 6, -8
 308              		.cfi_offset 14, -4
 309 0002 124B     		ldr	r3, .L39
 310 0004 0646     		mov	r6, r0
 311 0006 82B0     		sub	sp, sp, #8
 312              		.cfi_def_cfa_offset 24
 313              		.loc 1 54 5 view .LVU53
 314 0008 4068     		ldr	r0, [r0, #4]
 315              	.LVL23:
 316              		.loc 1 51 1 view .LVU54
 317 000a 1B68     		ldr	r3, [r3]
 318 000c 0193     		str	r3, [sp, #4]
 319 000e 4FF00003 		mov	r3,#0
 320              		.loc 1 52 5 is_stmt 1 view .LVU55
 321              		.loc 1 54 5 view .LVU56
 322              		.loc 1 51 1 is_stmt 0 view .LVU57
 323 0012 0D46     		mov	r5, r1
 324              		.loc 1 54 5 view .LVU58
 325 0014 FFF7FEFF 		bl	messagebus_lock_acquire
 326              	.LVL24:
 327              		.loc 1 56 5 is_stmt 1 view .LVU59
 328              		.loc 1 56 11 is_stmt 0 view .LVU60
 329 0018 3468     		ldr	r4, [r6]
 330              	.LVL25:
 331              	.LBB6:
 332              	.LBI6:
 333              		.loc 1 4 28 is_stmt 1 view .LVU61
 334              	.LBB7:
 335              		.loc 1 6 5 view .LVU62
 336              		.loc 1 7 5 view .LVU63
 337              		.loc 1 7 32 view .LVU64
 338              		.loc 1 7 5 is_stmt 0 view .LVU65
 339 001a 14B9     		cbnz	r4, .L27
 340 001c 08E0     		b	.L26
 341              	.L37:
 342              		.loc 1 7 43 is_stmt 1 view .LVU66
ARM GAS  /tmp/cc6OqTFa.s 			page 7


 343              		.loc 1 7 45 is_stmt 0 view .LVU67
 344 001e A46D     		ldr	r4, [r4, #88]
 345              	.LVL26:
 346              		.loc 1 7 32 is_stmt 1 view .LVU68
 347              		.loc 1 7 5 is_stmt 0 view .LVU69
 348 0020 34B1     		cbz	r4, .L26
 349              	.L27:
 350              		.loc 1 8 9 is_stmt 1 view .LVU70
 351              		.loc 1 8 14 is_stmt 0 view .LVU71
 352 0022 04F11001 		add	r1, r4, #16
 353 0026 2846     		mov	r0, r5
 354 0028 FFF7FEFF 		bl	strcmp
 355              	.LVL27:
 356              		.loc 1 8 12 view .LVU72
 357 002c 0028     		cmp	r0, #0
 358 002e F6D1     		bne	.L37
 359              	.L26:
 360              	.LVL28:
 361              		.loc 1 8 12 view .LVU73
 362              	.LBE7:
 363              	.LBE6:
 364              		.loc 1 58 5 is_stmt 1 view .LVU74
 365 0030 7068     		ldr	r0, [r6, #4]
 366 0032 FFF7FEFF 		bl	messagebus_lock_release
 367              	.LVL29:
 368              		.loc 1 60 5 view .LVU75
 369              		.loc 1 61 1 is_stmt 0 view .LVU76
 370 0036 054B     		ldr	r3, .L39
 371 0038 1A68     		ldr	r2, [r3]
 372 003a 019B     		ldr	r3, [sp, #4]
 373 003c 5A40     		eors	r2, r3, r2
 374 003e 02D1     		bne	.L38
 375              		.loc 1 61 1 view .LVU77
 376 0040 2046     		mov	r0, r4
 377 0042 02B0     		add	sp, sp, #8
 378              		.cfi_remember_state
 379              		.cfi_def_cfa_offset 16
 380              		@ sp needed
 381 0044 70BD     		pop	{r4, r5, r6, pc}
 382              	.LVL30:
 383              	.L38:
 384              		.cfi_restore_state
 385              		.loc 1 61 1 view .LVU78
 386 0046 FFF7FEFF 		bl	__stack_chk_fail
 387              	.LVL31:
 388              	.L40:
 389 004a 00BF     		.align	2
 390              	.L39:
 391 004c 00000000 		.word	.LC3
 392              		.cfi_endproc
 393              	.LFE4:
 394              		.size	messagebus_find_topic, .-messagebus_find_topic
 395              		.section	.rodata.messagebus_find_topic_blocking.cst4,"aM",%progbits,4
 396              		.align	2
 397              	.LC4:
 398 0000 00000000 		.word	__stack_chk_guard
 399              		.section	.text.messagebus_find_topic_blocking,"ax",%progbits
ARM GAS  /tmp/cc6OqTFa.s 			page 8


 400              		.align	1
 401              		.p2align 4,,15
 402              		.global	messagebus_find_topic_blocking
 403              		.syntax unified
 404              		.thumb
 405              		.thumb_func
 406              		.fpu fpv4-sp-d16
 407              		.type	messagebus_find_topic_blocking, %function
 408              	messagebus_find_topic_blocking:
 409              	.LVL32:
 410              	.LFB5:
 411              		.loc 1 64 1 is_stmt 1 view -0
 412              		.cfi_startproc
 413              		@ args = 0, pretend = 0, frame = 8
 414              		@ frame_needed = 0, uses_anonymous_args = 0
 415              		.loc 1 64 1 is_stmt 0 view .LVU80
 416 0000 70B5     		push	{r4, r5, r6, lr}
 417              		.cfi_def_cfa_offset 16
 418              		.cfi_offset 4, -16
 419              		.cfi_offset 5, -12
 420              		.cfi_offset 6, -8
 421              		.cfi_offset 14, -4
 422 0002 144B     		ldr	r3, .L52
 423 0004 82B0     		sub	sp, sp, #8
 424              		.cfi_def_cfa_offset 24
 425              		.loc 1 64 1 view .LVU81
 426 0006 0646     		mov	r6, r0
 427              		.loc 1 67 5 view .LVU82
 428 0008 4068     		ldr	r0, [r0, #4]
 429              	.LVL33:
 430              		.loc 1 64 1 view .LVU83
 431 000a 1B68     		ldr	r3, [r3]
 432 000c 0193     		str	r3, [sp, #4]
 433 000e 4FF00003 		mov	r3,#0
 434              		.loc 1 65 5 is_stmt 1 view .LVU84
 435              	.LVL34:
 436              		.loc 1 67 5 view .LVU85
 437              		.loc 1 64 1 is_stmt 0 view .LVU86
 438 0012 0D46     		mov	r5, r1
 439              		.loc 1 67 5 view .LVU87
 440 0014 FFF7FEFF 		bl	messagebus_lock_acquire
 441              	.LVL35:
 442              		.loc 1 69 5 is_stmt 1 view .LVU88
 443              	.L42:
 444              		.loc 1 69 11 view .LVU89
 445              		.loc 1 70 15 is_stmt 0 view .LVU90
 446 0018 3468     		ldr	r4, [r6]
 447              		.loc 1 70 9 is_stmt 1 view .LVU91
 448              	.LBB8:
 449              	.LBI8:
 450              		.loc 1 4 28 view .LVU92
 451              	.LVL36:
 452              	.LBB9:
 453              		.loc 1 6 5 view .LVU93
 454              		.loc 1 7 5 view .LVU94
 455              		.loc 1 7 32 view .LVU95
 456              		.loc 1 7 5 is_stmt 0 view .LVU96
ARM GAS  /tmp/cc6OqTFa.s 			page 9


 457 001a 14B9     		cbnz	r4, .L44
 458 001c 13E0     		b	.L45
 459              	.LVL37:
 460              	.L50:
 461              		.loc 1 7 43 is_stmt 1 view .LVU97
 462              		.loc 1 7 45 is_stmt 0 view .LVU98
 463 001e A46D     		ldr	r4, [r4, #88]
 464              	.LVL38:
 465              		.loc 1 7 32 is_stmt 1 view .LVU99
 466              		.loc 1 7 5 is_stmt 0 view .LVU100
 467 0020 8CB1     		cbz	r4, .L45
 468              	.LVL39:
 469              	.L44:
 470              		.loc 1 8 9 is_stmt 1 view .LVU101
 471              		.loc 1 8 14 is_stmt 0 view .LVU102
 472 0022 04F11001 		add	r1, r4, #16
 473 0026 2846     		mov	r0, r5
 474 0028 FFF7FEFF 		bl	strcmp
 475              	.LVL40:
 476              		.loc 1 8 12 view .LVU103
 477 002c 0028     		cmp	r0, #0
 478 002e F6D1     		bne	.L50
 479              	.LVL41:
 480              		.loc 1 8 12 view .LVU104
 481              	.LBE9:
 482              	.LBE8:
 483              		.loc 1 72 9 is_stmt 1 view .LVU105
 484              		.loc 1 69 11 view .LVU106
 485              		.loc 1 77 5 view .LVU107
 486 0030 7068     		ldr	r0, [r6, #4]
 487 0032 FFF7FEFF 		bl	messagebus_lock_release
 488              	.LVL42:
 489              		.loc 1 79 5 view .LVU108
 490              		.loc 1 80 1 is_stmt 0 view .LVU109
 491 0036 074B     		ldr	r3, .L52
 492 0038 1A68     		ldr	r2, [r3]
 493 003a 019B     		ldr	r3, [sp, #4]
 494 003c 5A40     		eors	r2, r3, r2
 495 003e 06D1     		bne	.L51
 496 0040 2046     		mov	r0, r4
 497 0042 02B0     		add	sp, sp, #8
 498              		.cfi_remember_state
 499              		.cfi_def_cfa_offset 16
 500              		@ sp needed
 501 0044 70BD     		pop	{r4, r5, r6, pc}
 502              	.LVL43:
 503              	.L45:
 504              		.cfi_restore_state
 505              		.loc 1 72 9 is_stmt 1 view .LVU110
 506              		.loc 1 73 13 view .LVU111
 507 0046 B068     		ldr	r0, [r6, #8]
 508 0048 FFF7FEFF 		bl	messagebus_condvar_wait
 509              	.LVL44:
 510 004c E4E7     		b	.L42
 511              	.LVL45:
 512              	.L51:
 513              		.loc 1 80 1 is_stmt 0 view .LVU112
ARM GAS  /tmp/cc6OqTFa.s 			page 10


 514 004e FFF7FEFF 		bl	__stack_chk_fail
 515              	.LVL46:
 516              	.L53:
 517 0052 00BF     		.align	2
 518              	.L52:
 519 0054 00000000 		.word	.LC4
 520              		.cfi_endproc
 521              	.LFE5:
 522              		.size	messagebus_find_topic_blocking, .-messagebus_find_topic_blocking
 523              		.section	.rodata.messagebus_topic_publish.cst4,"aM",%progbits,4
 524              		.align	2
 525              	.LC5:
 526 0000 00000000 		.word	__stack_chk_guard
 527              		.section	.text.messagebus_topic_publish,"ax",%progbits
 528              		.align	1
 529              		.p2align 4,,15
 530              		.global	messagebus_topic_publish
 531              		.syntax unified
 532              		.thumb
 533              		.thumb_func
 534              		.fpu fpv4-sp-d16
 535              		.type	messagebus_topic_publish, %function
 536              	messagebus_topic_publish:
 537              	.LVL47:
 538              	.LFB6:
 539              		.loc 1 83 1 is_stmt 1 view -0
 540              		.cfi_startproc
 541              		@ args = 0, pretend = 0, frame = 8
 542              		@ frame_needed = 0, uses_anonymous_args = 0
 543              		.loc 1 83 1 is_stmt 0 view .LVU114
 544 0000 70B5     		push	{r4, r5, r6, lr}
 545              		.cfi_def_cfa_offset 16
 546              		.cfi_offset 4, -16
 547              		.cfi_offset 5, -12
 548              		.cfi_offset 6, -8
 549              		.cfi_offset 14, -4
 550              		.loc 1 84 8 view .LVU115
 551 0002 4368     		ldr	r3, [r0, #4]
 552              		.loc 1 83 1 view .LVU116
 553 0004 0546     		mov	r5, r0
 554 0006 1D48     		ldr	r0, .L67
 555              	.LVL48:
 556              		.loc 1 83 1 view .LVU117
 557 0008 82B0     		sub	sp, sp, #8
 558              		.cfi_def_cfa_offset 24
 559              		.loc 1 84 8 view .LVU118
 560 000a 9342     		cmp	r3, r2
 561              		.loc 1 83 1 view .LVU119
 562 000c 0068     		ldr	r0, [r0]
 563 000e 0190     		str	r0, [sp, #4]
 564 0010 4FF00000 		mov	r0,#0
 565              		.loc 1 84 5 is_stmt 1 view .LVU120
 566              		.loc 1 84 8 is_stmt 0 view .LVU121
 567 0014 07D2     		bcs	.L65
 568              		.loc 1 85 16 view .LVU122
 569 0016 0020     		movs	r0, #0
 570              	.LVL49:
ARM GAS  /tmp/cc6OqTFa.s 			page 11


 571              	.L55:
 572              		.loc 1 105 1 view .LVU123
 573 0018 184B     		ldr	r3, .L67
 574 001a 1A68     		ldr	r2, [r3]
 575 001c 019B     		ldr	r3, [sp, #4]
 576 001e 5A40     		eors	r2, r3, r2
 577 0020 29D1     		bne	.L66
 578 0022 02B0     		add	sp, sp, #8
 579              		.cfi_remember_state
 580              		.cfi_def_cfa_offset 16
 581              		@ sp needed
 582 0024 70BD     		pop	{r4, r5, r6, pc}
 583              	.LVL50:
 584              	.L65:
 585              		.cfi_restore_state
 586              		.loc 1 88 5 is_stmt 1 view .LVU124
 587 0026 1446     		mov	r4, r2
 588 0028 A868     		ldr	r0, [r5, #8]
 589 002a 0E46     		mov	r6, r1
 590 002c FFF7FEFF 		bl	messagebus_lock_acquire
 591              	.LVL51:
 592              		.loc 1 90 5 view .LVU125
 593 0030 2246     		mov	r2, r4
 594 0032 3146     		mov	r1, r6
 595 0034 2868     		ldr	r0, [r5]
 596 0036 FFF7FEFF 		bl	memcpy
 597              	.LVL52:
 598              		.loc 1 91 5 view .LVU126
 599              		.loc 1 91 22 is_stmt 0 view .LVU127
 600 003a 0123     		movs	r3, #1
 601              		.loc 1 92 5 view .LVU128
 602 003c E868     		ldr	r0, [r5, #12]
 603              		.loc 1 91 22 view .LVU129
 604 003e 85F85130 		strb	r3, [r5, #81]
 605              		.loc 1 92 5 is_stmt 1 view .LVU130
 606 0042 FFF7FEFF 		bl	messagebus_condvar_broadcast
 607              	.LVL53:
 608              		.loc 1 94 5 view .LVU131
 609              		.loc 1 95 5 view .LVU132
 610              		.loc 1 95 12 is_stmt 0 view .LVU133
 611 0046 6C6D     		ldr	r4, [r5, #84]
 612              	.LVL54:
 613              		.loc 1 95 31 is_stmt 1 view .LVU134
 614              		.loc 1 95 5 is_stmt 0 view .LVU135
 615 0048 84B1     		cbz	r4, .L56
 616              	.L57:
 617              		.loc 1 96 9 is_stmt 1 discriminator 3 view .LVU136
 618 004a 2368     		ldr	r3, [r4]
 619 004c 1868     		ldr	r0, [r3]
 620 004e FFF7FEFF 		bl	messagebus_lock_acquire
 621              	.LVL55:
 622              		.loc 1 97 9 discriminator 3 view .LVU137
 623              		.loc 1 97 10 is_stmt 0 discriminator 3 view .LVU138
 624 0052 2368     		ldr	r3, [r4]
 625              		.loc 1 97 35 discriminator 3 view .LVU139
 626 0054 9D60     		str	r5, [r3, #8]
 627              		.loc 1 98 9 is_stmt 1 discriminator 3 view .LVU140
ARM GAS  /tmp/cc6OqTFa.s 			page 12


 628 0056 2368     		ldr	r3, [r4]
 629 0058 5868     		ldr	r0, [r3, #4]
 630 005a FFF7FEFF 		bl	messagebus_condvar_broadcast
 631              	.LVL56:
 632              		.loc 1 99 9 discriminator 3 view .LVU141
 633 005e 2368     		ldr	r3, [r4]
 634 0060 1868     		ldr	r0, [r3]
 635 0062 FFF7FEFF 		bl	messagebus_lock_release
 636              	.LVL57:
 637              		.loc 1 95 42 discriminator 3 view .LVU142
 638              		.loc 1 95 44 is_stmt 0 discriminator 3 view .LVU143
 639 0066 6468     		ldr	r4, [r4, #4]
 640              	.LVL58:
 641              		.loc 1 95 31 is_stmt 1 discriminator 3 view .LVU144
 642              		.loc 1 95 5 is_stmt 0 discriminator 3 view .LVU145
 643 0068 002C     		cmp	r4, #0
 644 006a EED1     		bne	.L57
 645              	.L56:
 646              		.loc 1 102 5 is_stmt 1 view .LVU146
 647 006c A868     		ldr	r0, [r5, #8]
 648 006e FFF7FEFF 		bl	messagebus_lock_release
 649              	.LVL59:
 650              		.loc 1 104 5 view .LVU147
 651              		.loc 1 104 12 is_stmt 0 view .LVU148
 652 0072 0120     		movs	r0, #1
 653 0074 D0E7     		b	.L55
 654              	.LVL60:
 655              	.L66:
 656              		.loc 1 105 1 view .LVU149
 657 0076 FFF7FEFF 		bl	__stack_chk_fail
 658              	.LVL61:
 659              	.L68:
 660 007a 00BF     		.align	2
 661              	.L67:
 662 007c 00000000 		.word	.LC5
 663              		.cfi_endproc
 664              	.LFE6:
 665              		.size	messagebus_topic_publish, .-messagebus_topic_publish
 666              		.section	.rodata.messagebus_topic_read.cst4,"aM",%progbits,4
 667              		.align	2
 668              	.LC6:
 669 0000 00000000 		.word	__stack_chk_guard
 670              		.section	.text.messagebus_topic_read,"ax",%progbits
 671              		.align	1
 672              		.p2align 4,,15
 673              		.global	messagebus_topic_read
 674              		.syntax unified
 675              		.thumb
 676              		.thumb_func
 677              		.fpu fpv4-sp-d16
 678              		.type	messagebus_topic_read, %function
 679              	messagebus_topic_read:
 680              	.LVL62:
 681              	.LFB7:
 682              		.loc 1 108 1 is_stmt 1 view -0
 683              		.cfi_startproc
 684              		@ args = 0, pretend = 0, frame = 8
ARM GAS  /tmp/cc6OqTFa.s 			page 13


 685              		@ frame_needed = 0, uses_anonymous_args = 0
 686              		.loc 1 108 1 is_stmt 0 view .LVU151
 687 0000 F0B5     		push	{r4, r5, r6, r7, lr}
 688              		.cfi_def_cfa_offset 20
 689              		.cfi_offset 4, -20
 690              		.cfi_offset 5, -16
 691              		.cfi_offset 6, -12
 692              		.cfi_offset 7, -8
 693              		.cfi_offset 14, -4
 694 0002 114B     		ldr	r3, .L78
 695 0004 0446     		mov	r4, r0
 696 0006 83B0     		sub	sp, sp, #12
 697              		.cfi_def_cfa_offset 32
 698              		.loc 1 110 5 view .LVU152
 699 0008 8068     		ldr	r0, [r0, #8]
 700              	.LVL63:
 701              		.loc 1 108 1 view .LVU153
 702 000a 1B68     		ldr	r3, [r3]
 703 000c 0193     		str	r3, [sp, #4]
 704 000e 4FF00003 		mov	r3,#0
 705              		.loc 1 109 5 is_stmt 1 view .LVU154
 706              	.LVL64:
 707              		.loc 1 110 5 view .LVU155
 708              		.loc 1 108 1 is_stmt 0 view .LVU156
 709 0012 0D46     		mov	r5, r1
 710 0014 1646     		mov	r6, r2
 711              		.loc 1 110 5 view .LVU157
 712 0016 FFF7FEFF 		bl	messagebus_lock_acquire
 713              	.LVL65:
 714              		.loc 1 112 5 is_stmt 1 view .LVU158
 715              		.loc 1 112 14 is_stmt 0 view .LVU159
 716 001a 94F85170 		ldrb	r7, [r4, #81]	@ zero_extendqisi2
 717              		.loc 1 112 8 view .LVU160
 718 001e 57B9     		cbnz	r7, .L76
 719              	.LVL66:
 720              	.L70:
 721              		.loc 1 117 5 is_stmt 1 view .LVU161
 722 0020 A068     		ldr	r0, [r4, #8]
 723 0022 FFF7FEFF 		bl	messagebus_lock_release
 724              	.LVL67:
 725              		.loc 1 119 5 view .LVU162
 726              		.loc 1 120 1 is_stmt 0 view .LVU163
 727 0026 084B     		ldr	r3, .L78
 728 0028 1A68     		ldr	r2, [r3]
 729 002a 019B     		ldr	r3, [sp, #4]
 730 002c 5A40     		eors	r2, r3, r2
 731 002e 08D1     		bne	.L77
 732 0030 3846     		mov	r0, r7
 733 0032 03B0     		add	sp, sp, #12
 734              		.cfi_remember_state
 735              		.cfi_def_cfa_offset 20
 736              		@ sp needed
 737 0034 F0BD     		pop	{r4, r5, r6, r7, pc}
 738              	.LVL68:
 739              	.L76:
 740              		.cfi_restore_state
 741              		.loc 1 113 9 is_stmt 1 view .LVU164
ARM GAS  /tmp/cc6OqTFa.s 			page 14


 742              		.loc 1 114 9 view .LVU165
 743 0036 2168     		ldr	r1, [r4]
 744 0038 3246     		mov	r2, r6
 745 003a 2846     		mov	r0, r5
 746 003c FFF7FEFF 		bl	memcpy
 747              	.LVL69:
 748 0040 EEE7     		b	.L70
 749              	.LVL70:
 750              	.L77:
 751              		.loc 1 120 1 is_stmt 0 view .LVU166
 752 0042 FFF7FEFF 		bl	__stack_chk_fail
 753              	.LVL71:
 754              	.L79:
 755 0046 00BF     		.align	2
 756              	.L78:
 757 0048 00000000 		.word	.LC6
 758              		.cfi_endproc
 759              	.LFE7:
 760              		.size	messagebus_topic_read, .-messagebus_topic_read
 761              		.section	.rodata.messagebus_topic_wait.cst4,"aM",%progbits,4
 762              		.align	2
 763              	.LC7:
 764 0000 00000000 		.word	__stack_chk_guard
 765              		.section	.text.messagebus_topic_wait,"ax",%progbits
 766              		.align	1
 767              		.p2align 4,,15
 768              		.global	messagebus_topic_wait
 769              		.syntax unified
 770              		.thumb
 771              		.thumb_func
 772              		.fpu fpv4-sp-d16
 773              		.type	messagebus_topic_wait, %function
 774              	messagebus_topic_wait:
 775              	.LVL72:
 776              	.LFB8:
 777              		.loc 1 123 1 is_stmt 1 view -0
 778              		.cfi_startproc
 779              		@ args = 0, pretend = 0, frame = 16
 780              		@ frame_needed = 0, uses_anonymous_args = 0
 781              		.loc 1 123 1 is_stmt 0 view .LVU168
 782 0000 30B5     		push	{r4, r5, lr}
 783              		.cfi_def_cfa_offset 12
 784              		.cfi_offset 4, -12
 785              		.cfi_offset 5, -8
 786              		.cfi_offset 14, -4
 787 0002 104B     		ldr	r3, .L85
 788 0004 85B0     		sub	sp, sp, #20
 789              		.cfi_def_cfa_offset 32
 790              		.loc 1 123 1 view .LVU169
 791 0006 0446     		mov	r4, r0
 792              		.loc 1 124 5 view .LVU170
 793 0008 8068     		ldr	r0, [r0, #8]
 794              	.LVL73:
 795              		.loc 1 123 1 view .LVU171
 796 000a 1B68     		ldr	r3, [r3]
 797 000c 0393     		str	r3, [sp, #12]
 798 000e 4FF00003 		mov	r3,#0
ARM GAS  /tmp/cc6OqTFa.s 			page 15


 799              		.loc 1 124 5 is_stmt 1 view .LVU172
 800              		.loc 1 123 1 is_stmt 0 view .LVU173
 801 0012 0D46     		mov	r5, r1
 802 0014 0192     		str	r2, [sp, #4]
 803              		.loc 1 124 5 view .LVU174
 804 0016 FFF7FEFF 		bl	messagebus_lock_acquire
 805              	.LVL74:
 806              		.loc 1 125 5 is_stmt 1 view .LVU175
 807 001a E068     		ldr	r0, [r4, #12]
 808 001c FFF7FEFF 		bl	messagebus_condvar_wait
 809              	.LVL75:
 810              		.loc 1 127 5 view .LVU176
 811 0020 019A     		ldr	r2, [sp, #4]
 812 0022 2168     		ldr	r1, [r4]
 813 0024 2846     		mov	r0, r5
 814 0026 FFF7FEFF 		bl	memcpy
 815              	.LVL76:
 816              		.loc 1 129 5 view .LVU177
 817 002a 064B     		ldr	r3, .L85
 818 002c 1A68     		ldr	r2, [r3]
 819 002e 039B     		ldr	r3, [sp, #12]
 820 0030 5A40     		eors	r2, r3, r2
 821 0032 05D1     		bne	.L84
 822 0034 A068     		ldr	r0, [r4, #8]
 823              		.loc 1 130 1 is_stmt 0 view .LVU178
 824 0036 05B0     		add	sp, sp, #20
 825              		.cfi_remember_state
 826              		.cfi_def_cfa_offset 12
 827              		@ sp needed
 828 0038 BDE83040 		pop	{r4, r5, lr}
 829              		.cfi_restore 14
 830              		.cfi_restore 5
 831              		.cfi_restore 4
 832              		.cfi_def_cfa_offset 0
 833              	.LVL77:
 834              		.loc 1 129 5 view .LVU179
 835 003c FFF7FEBF 		b	messagebus_lock_release
 836              	.LVL78:
 837              	.L84:
 838              		.cfi_restore_state
 839              		.loc 1 129 5 view .LVU180
 840 0040 FFF7FEFF 		bl	__stack_chk_fail
 841              	.LVL79:
 842              	.L86:
 843              		.align	2
 844              	.L85:
 845 0044 00000000 		.word	.LC7
 846              		.cfi_endproc
 847              	.LFE8:
 848              		.size	messagebus_topic_wait, .-messagebus_topic_wait
 849              		.section	.rodata.messagebus_watchgroup_init.cst4,"aM",%progbits,4
 850              		.align	2
 851              	.LC8:
 852 0000 00000000 		.word	__stack_chk_guard
 853              		.section	.text.messagebus_watchgroup_init,"ax",%progbits
 854              		.align	1
 855              		.p2align 4,,15
ARM GAS  /tmp/cc6OqTFa.s 			page 16


 856              		.global	messagebus_watchgroup_init
 857              		.syntax unified
 858              		.thumb
 859              		.thumb_func
 860              		.fpu fpv4-sp-d16
 861              		.type	messagebus_watchgroup_init, %function
 862              	messagebus_watchgroup_init:
 863              	.LVL80:
 864              	.LFB9:
 865              		.loc 1 134 1 is_stmt 1 view -0
 866              		.cfi_startproc
 867              		@ args = 0, pretend = 0, frame = 8
 868              		@ frame_needed = 0, uses_anonymous_args = 0
 869              		.loc 1 134 1 is_stmt 0 view .LVU182
 870 0000 00B5     		push	{lr}
 871              		.cfi_def_cfa_offset 4
 872              		.cfi_offset 14, -4
 873 0002 094B     		ldr	r3, .L91
 874 0004 83B0     		sub	sp, sp, #12
 875              		.cfi_def_cfa_offset 16
 876              		.loc 1 134 1 view .LVU183
 877 0006 1B68     		ldr	r3, [r3]
 878 0008 0193     		str	r3, [sp, #4]
 879 000a 4FF00003 		mov	r3,#0
 880              		.loc 1 135 5 is_stmt 1 view .LVU184
 881              		.loc 1 136 20 is_stmt 0 view .LVU185
 882 000e C0E90012 		strd	r1, r2, [r0]
 883              		.loc 1 137 1 view .LVU186
 884 0012 054B     		ldr	r3, .L91
 885 0014 1A68     		ldr	r2, [r3]
 886 0016 019B     		ldr	r3, [sp, #4]
 887 0018 5A40     		eors	r2, r3, r2
 888              	.LVL81:
 889              		.loc 1 137 1 view .LVU187
 890 001a 02D1     		bne	.L90
 891 001c 03B0     		add	sp, sp, #12
 892              		.cfi_remember_state
 893              		.cfi_def_cfa_offset 4
 894              		@ sp needed
 895 001e 5DF804FB 		ldr	pc, [sp], #4
 896              	.L90:
 897              		.cfi_restore_state
 898 0022 FFF7FEFF 		bl	__stack_chk_fail
 899              	.LVL82:
 900              	.L92:
 901              		.loc 1 137 1 view .LVU188
 902 0026 00BF     		.align	2
 903              	.L91:
 904 0028 00000000 		.word	.LC8
 905              		.cfi_endproc
 906              	.LFE9:
 907              		.size	messagebus_watchgroup_init, .-messagebus_watchgroup_init
 908              		.section	.rodata.messagebus_watchgroup_watch.cst4,"aM",%progbits,4
 909              		.align	2
 910              	.LC9:
 911 0000 00000000 		.word	__stack_chk_guard
 912              		.section	.text.messagebus_watchgroup_watch,"ax",%progbits
ARM GAS  /tmp/cc6OqTFa.s 			page 17


 913              		.align	1
 914              		.p2align 4,,15
 915              		.global	messagebus_watchgroup_watch
 916              		.syntax unified
 917              		.thumb
 918              		.thumb_func
 919              		.fpu fpv4-sp-d16
 920              		.type	messagebus_watchgroup_watch, %function
 921              	messagebus_watchgroup_watch:
 922              	.LVL83:
 923              	.LFB10:
 924              		.loc 1 142 1 is_stmt 1 view -0
 925              		.cfi_startproc
 926              		@ args = 0, pretend = 0, frame = 8
 927              		@ frame_needed = 0, uses_anonymous_args = 0
 928              		.loc 1 142 1 is_stmt 0 view .LVU190
 929 0000 70B5     		push	{r4, r5, r6, lr}
 930              		.cfi_def_cfa_offset 16
 931              		.cfi_offset 4, -16
 932              		.cfi_offset 5, -12
 933              		.cfi_offset 6, -8
 934              		.cfi_offset 14, -4
 935 0002 124B     		ldr	r3, .L102
 936 0004 0D46     		mov	r5, r1
 937 0006 82B0     		sub	sp, sp, #8
 938              		.cfi_def_cfa_offset 24
 939              		.loc 1 142 1 view .LVU191
 940 0008 0646     		mov	r6, r0
 941              		.loc 1 143 5 view .LVU192
 942 000a 9068     		ldr	r0, [r2, #8]
 943              	.LVL84:
 944              		.loc 1 142 1 view .LVU193
 945 000c 1446     		mov	r4, r2
 946 000e 1B68     		ldr	r3, [r3]
 947 0010 0193     		str	r3, [sp, #4]
 948 0012 4FF00003 		mov	r3,#0
 949              		.loc 1 143 5 is_stmt 1 view .LVU194
 950 0016 FFF7FEFF 		bl	messagebus_lock_acquire
 951              	.LVL85:
 952              		.loc 1 144 5 view .LVU195
 953 001a 2868     		ldr	r0, [r5]
 954 001c FFF7FEFF 		bl	messagebus_lock_acquire
 955              	.LVL86:
 956              		.loc 1 146 5 view .LVU196
 957              		.loc 1 146 20 is_stmt 0 view .LVU197
 958 0020 3560     		str	r5, [r6]
 959              		.loc 1 148 5 is_stmt 1 view .LVU198
 960              		.loc 1 148 14 is_stmt 0 view .LVU199
 961 0022 636D     		ldr	r3, [r4, #84]
 962              		.loc 1 148 8 view .LVU200
 963 0024 03B1     		cbz	r3, .L94
 964              		.loc 1 149 9 is_stmt 1 view .LVU201
 965              		.loc 1 149 23 is_stmt 0 view .LVU202
 966 0026 7360     		str	r3, [r6, #4]
 967              	.L94:
 968              		.loc 1 151 5 is_stmt 1 view .LVU203
 969              		.loc 1 151 21 is_stmt 0 view .LVU204
ARM GAS  /tmp/cc6OqTFa.s 			page 18


 970 0028 6665     		str	r6, [r4, #84]
 971              		.loc 1 153 5 is_stmt 1 view .LVU205
 972 002a 2868     		ldr	r0, [r5]
 973 002c FFF7FEFF 		bl	messagebus_lock_release
 974              	.LVL87:
 975              		.loc 1 154 5 view .LVU206
 976 0030 064B     		ldr	r3, .L102
 977 0032 1A68     		ldr	r2, [r3]
 978 0034 019B     		ldr	r3, [sp, #4]
 979 0036 5A40     		eors	r2, r3, r2
 980 0038 05D1     		bne	.L101
 981 003a A068     		ldr	r0, [r4, #8]
 982              		.loc 1 155 1 is_stmt 0 view .LVU207
 983 003c 02B0     		add	sp, sp, #8
 984              		.cfi_remember_state
 985              		.cfi_def_cfa_offset 16
 986              		@ sp needed
 987 003e BDE87040 		pop	{r4, r5, r6, lr}
 988              		.cfi_restore 14
 989              		.cfi_restore 6
 990              		.cfi_restore 5
 991              		.cfi_restore 4
 992              		.cfi_def_cfa_offset 0
 993              	.LVL88:
 994              		.loc 1 154 5 view .LVU208
 995 0042 FFF7FEBF 		b	messagebus_lock_release
 996              	.LVL89:
 997              	.L101:
 998              		.cfi_restore_state
 999              		.loc 1 154 5 view .LVU209
 1000 0046 FFF7FEFF 		bl	__stack_chk_fail
 1001              	.LVL90:
 1002              	.L103:
 1003 004a 00BF     		.align	2
 1004              	.L102:
 1005 004c 00000000 		.word	.LC9
 1006              		.cfi_endproc
 1007              	.LFE10:
 1008              		.size	messagebus_watchgroup_watch, .-messagebus_watchgroup_watch
 1009              		.section	.rodata.messagebus_watchgroup_wait.cst4,"aM",%progbits,4
 1010              		.align	2
 1011              	.LC10:
 1012 0000 00000000 		.word	__stack_chk_guard
 1013              		.section	.text.messagebus_watchgroup_wait,"ax",%progbits
 1014              		.align	1
 1015              		.p2align 4,,15
 1016              		.global	messagebus_watchgroup_wait
 1017              		.syntax unified
 1018              		.thumb
 1019              		.thumb_func
 1020              		.fpu fpv4-sp-d16
 1021              		.type	messagebus_watchgroup_wait, %function
 1022              	messagebus_watchgroup_wait:
 1023              	.LVL91:
 1024              	.LFB11:
 1025              		.loc 1 158 1 is_stmt 1 view -0
 1026              		.cfi_startproc
ARM GAS  /tmp/cc6OqTFa.s 			page 19


 1027              		@ args = 0, pretend = 0, frame = 8
 1028              		@ frame_needed = 0, uses_anonymous_args = 0
 1029              		.loc 1 158 1 is_stmt 0 view .LVU211
 1030 0000 10B5     		push	{r4, lr}
 1031              		.cfi_def_cfa_offset 8
 1032              		.cfi_offset 4, -8
 1033              		.cfi_offset 14, -4
 1034 0002 0D4B     		ldr	r3, .L108
 1035 0004 0446     		mov	r4, r0
 1036 0006 82B0     		sub	sp, sp, #8
 1037              		.cfi_def_cfa_offset 16
 1038              		.loc 1 161 5 view .LVU212
 1039 0008 0068     		ldr	r0, [r0]
 1040              	.LVL92:
 1041              		.loc 1 158 1 view .LVU213
 1042 000a 1B68     		ldr	r3, [r3]
 1043 000c 0193     		str	r3, [sp, #4]
 1044 000e 4FF00003 		mov	r3,#0
 1045              		.loc 1 159 5 is_stmt 1 view .LVU214
 1046              		.loc 1 161 5 view .LVU215
 1047 0012 FFF7FEFF 		bl	messagebus_lock_acquire
 1048              	.LVL93:
 1049              		.loc 1 162 5 view .LVU216
 1050 0016 6068     		ldr	r0, [r4, #4]
 1051 0018 FFF7FEFF 		bl	messagebus_condvar_wait
 1052              	.LVL94:
 1053              		.loc 1 164 5 view .LVU217
 1054              		.loc 1 166 5 is_stmt 0 view .LVU218
 1055 001c 2068     		ldr	r0, [r4]
 1056              		.loc 1 164 9 view .LVU219
 1057 001e A468     		ldr	r4, [r4, #8]
 1058              	.LVL95:
 1059              		.loc 1 166 5 is_stmt 1 view .LVU220
 1060 0020 FFF7FEFF 		bl	messagebus_lock_release
 1061              	.LVL96:
 1062              		.loc 1 168 5 view .LVU221
 1063              		.loc 1 169 1 is_stmt 0 view .LVU222
 1064 0024 044B     		ldr	r3, .L108
 1065 0026 1A68     		ldr	r2, [r3]
 1066 0028 019B     		ldr	r3, [sp, #4]
 1067 002a 5A40     		eors	r2, r3, r2
 1068 002c 02D1     		bne	.L107
 1069 002e 2046     		mov	r0, r4
 1070 0030 02B0     		add	sp, sp, #8
 1071              		.cfi_remember_state
 1072              		.cfi_def_cfa_offset 8
 1073              		@ sp needed
 1074 0032 10BD     		pop	{r4, pc}
 1075              	.LVL97:
 1076              	.L107:
 1077              		.cfi_restore_state
 1078              		.loc 1 169 1 view .LVU223
 1079 0034 FFF7FEFF 		bl	__stack_chk_fail
 1080              	.LVL98:
 1081              	.L109:
 1082              		.align	2
 1083              	.L108:
ARM GAS  /tmp/cc6OqTFa.s 			page 20


 1084 0038 00000000 		.word	.LC10
 1085              		.cfi_endproc
 1086              	.LFE11:
 1087              		.size	messagebus_watchgroup_wait, .-messagebus_watchgroup_wait
 1088              		.text
 1089              	.Letext0:
 1090              		.file 2 "/usr/lib/gcc/arm-none-eabi/9.2.1/include/stddef.h"
 1091              		.file 3 "/usr/include/newlib/sys/_types.h"
 1092              		.file 4 "/usr/include/newlib/sys/unistd.h"
 1093              		.file 5 ".//src/msgbus/messagebus.h"
 1094              		.file 6 "/usr/include/newlib/sys/reent.h"
 1095              		.file 7 "/usr/include/newlib/sys/lock.h"
 1096              		.file 8 "/usr/include/newlib/string.h"
 1097              		.file 9 "<built-in>"