ARM GAS  /tmp/ccdaS0Ho.s 			page 1


   1              		.cpu cortex-m4
   2              		.eabi_attribute 27, 1
   3              		.eabi_attribute 28, 1
   4              		.eabi_attribute 20, 1
   5              		.eabi_attribute 21, 1
   6              		.eabi_attribute 23, 3
   7              		.eabi_attribute 24, 1
   8              		.eabi_attribute 25, 1
   9              		.eabi_attribute 26, 1
  10              		.eabi_attribute 30, 2
  11              		.eabi_attribute 34, 1
  12              		.eabi_attribute 18, 4
  13              		.file	"motors.c"
  14              		.text
  15              	.Ltext0:
  16              		.cfi_sections	.debug_frame
  17              		.section	.rodata.right_motor_update.cst4,"aM",%progbits,4
  18              		.align	2
  19              	.LC0:
  20 0000 00000000 		.word	__stack_chk_guard
  21              		.section	.text.right_motor_update,"ax",%progbits
  22              		.align	1
  23              		.p2align 4,,15
  24              		.arch armv7e-m
  25              		.syntax unified
  26              		.thumb
  27              		.thumb_func
  28              		.fpu fpv4-sp-d16
  29              		.type	right_motor_update, %function
  30              	right_motor_update:
  31              	.LVL0:
  32              	.LFB256:
  33              		.file 1 ".//src/motors.c"
  34              		.loc 1 50 1 view -0
  35              		.cfi_startproc
  36              		@ args = 0, pretend = 0, frame = 8
  37              		@ frame_needed = 0, uses_anonymous_args = 0
  38              		.loc 1 50 1 is_stmt 0 view .LVU1
  39 0000 00B5     		push	{lr}
  40              		.cfi_def_cfa_offset 4
  41              		.cfi_offset 14, -4
  42 0002 214B     		ldr	r3, .L17
  43 0004 83B0     		sub	sp, sp, #12
  44              		.cfi_def_cfa_offset 16
  45              		.loc 1 50 1 view .LVU2
  46 0006 1B68     		ldr	r3, [r3]
  47 0008 0193     		str	r3, [sp, #4]
  48 000a 4FF00003 		mov	r3,#0
  49              		.loc 1 52 5 is_stmt 1 view .LVU3
  50              		.loc 1 52 48 is_stmt 0 view .LVU4
  51 000e 0378     		ldrb	r3, [r0]	@ zero_extendqisi2
  52 0010 EBB1     		cbz	r3, .L2
  53              		.loc 1 53 5 is_stmt 1 discriminator 1 view .LVU5
  54              		.loc 1 52 14 is_stmt 0 discriminator 1 view .LVU6
  55 0012 1E4B     		ldr	r3, .L17+4
  56 0014 4FF40052 		mov	r2, #8192
  57 0018 1A83     		strh	r2, [r3, #24]	@ movhi
ARM GAS  /tmp/ccdaS0Ho.s 			page 2


  58              		.loc 1 53 48 discriminator 1 view .LVU7
  59 001a 4378     		ldrb	r3, [r0, #1]	@ zero_extendqisi2
  60 001c F3B1     		cbz	r3, .L4
  61              	.L14:
  62              		.loc 1 54 5 is_stmt 1 discriminator 1 view .LVU8
  63              		.loc 1 53 14 is_stmt 0 discriminator 1 view .LVU9
  64 001e 1B4B     		ldr	r3, .L17+4
  65 0020 4FF48052 		mov	r2, #4096
  66 0024 1A83     		strh	r2, [r3, #24]	@ movhi
  67              		.loc 1 54 48 discriminator 1 view .LVU10
  68 0026 8378     		ldrb	r3, [r0, #2]	@ zero_extendqisi2
  69 0028 FBB1     		cbz	r3, .L6
  70              	.L15:
  71              		.loc 1 55 5 is_stmt 1 discriminator 1 view .LVU11
  72              		.loc 1 54 14 is_stmt 0 discriminator 1 view .LVU12
  73 002a 184B     		ldr	r3, .L17+4
  74 002c 4FF48042 		mov	r2, #16384
  75 0030 1A83     		strh	r2, [r3, #24]	@ movhi
  76              		.loc 1 55 48 discriminator 1 view .LVU13
  77 0032 C378     		ldrb	r3, [r0, #3]	@ zero_extendqisi2
  78 0034 03B3     		cbz	r3, .L8
  79              	.L16:
  80              		.loc 1 55 14 discriminator 1 view .LVU14
  81 0036 154B     		ldr	r3, .L17+4
  82 0038 4FF40042 		mov	r2, #32768
  83 003c 1A83     		strh	r2, [r3, #24]	@ movhi
  84              	.L1:
  85              		.loc 1 56 1 view .LVU15
  86 003e 124B     		ldr	r3, .L17
  87 0040 1A68     		ldr	r2, [r3]
  88 0042 019B     		ldr	r3, [sp, #4]
  89 0044 5A40     		eors	r2, r3, r2
  90 0046 1CD1     		bne	.L13
  91 0048 03B0     		add	sp, sp, #12
  92              		.cfi_remember_state
  93              		.cfi_def_cfa_offset 4
  94              		@ sp needed
  95 004a 5DF804FB 		ldr	pc, [sp], #4
  96              	.L2:
  97              		.cfi_restore_state
  98              		.loc 1 52 50 discriminator 2 view .LVU16
  99 004e 0F4B     		ldr	r3, .L17+4
 100 0050 4FF40052 		mov	r2, #8192
 101 0054 5A83     		strh	r2, [r3, #26]	@ movhi
 102              		.loc 1 53 5 is_stmt 1 discriminator 2 view .LVU17
 103              		.loc 1 53 48 is_stmt 0 discriminator 2 view .LVU18
 104 0056 4378     		ldrb	r3, [r0, #1]	@ zero_extendqisi2
 105 0058 002B     		cmp	r3, #0
 106 005a E0D1     		bne	.L14
 107              	.L4:
 108              		.loc 1 53 50 discriminator 2 view .LVU19
 109 005c 0B4B     		ldr	r3, .L17+4
 110 005e 4FF48052 		mov	r2, #4096
 111 0062 5A83     		strh	r2, [r3, #26]	@ movhi
 112              		.loc 1 54 5 is_stmt 1 discriminator 2 view .LVU20
 113              		.loc 1 54 48 is_stmt 0 discriminator 2 view .LVU21
 114 0064 8378     		ldrb	r3, [r0, #2]	@ zero_extendqisi2
ARM GAS  /tmp/ccdaS0Ho.s 			page 3


 115 0066 002B     		cmp	r3, #0
 116 0068 DFD1     		bne	.L15
 117              	.L6:
 118              		.loc 1 54 50 discriminator 2 view .LVU22
 119 006a 084B     		ldr	r3, .L17+4
 120 006c 4FF48042 		mov	r2, #16384
 121 0070 5A83     		strh	r2, [r3, #26]	@ movhi
 122              		.loc 1 55 5 is_stmt 1 discriminator 2 view .LVU23
 123              		.loc 1 55 48 is_stmt 0 discriminator 2 view .LVU24
 124 0072 C378     		ldrb	r3, [r0, #3]	@ zero_extendqisi2
 125 0074 002B     		cmp	r3, #0
 126 0076 DED1     		bne	.L16
 127              	.L8:
 128              		.loc 1 55 50 discriminator 2 view .LVU25
 129 0078 044B     		ldr	r3, .L17+4
 130 007a 4FF40042 		mov	r2, #32768
 131 007e 5A83     		strh	r2, [r3, #26]	@ movhi
 132              		.loc 1 56 1 discriminator 2 view .LVU26
 133 0080 DDE7     		b	.L1
 134              	.L13:
 135              		.loc 1 56 1 view .LVU27
 136 0082 FFF7FEFF 		bl	__stack_chk_fail
 137              	.LVL1:
 138              	.L18:
 139              		.loc 1 56 1 view .LVU28
 140 0086 00BF     		.align	2
 141              	.L17:
 142 0088 00000000 		.word	.LC0
 143 008c 00100240 		.word	1073876992
 144              		.cfi_endproc
 145              	.LFE256:
 146              		.size	right_motor_update, .-right_motor_update
 147              		.section	.rodata.left_motor_update.cst4,"aM",%progbits,4
 148              		.align	2
 149              	.LC1:
 150 0000 00000000 		.word	__stack_chk_guard
 151              		.section	.text.left_motor_update,"ax",%progbits
 152              		.align	1
 153              		.p2align 4,,15
 154              		.syntax unified
 155              		.thumb
 156              		.thumb_func
 157              		.fpu fpv4-sp-d16
 158              		.type	left_motor_update, %function
 159              	left_motor_update:
 160              	.LVL2:
 161              	.LFB257:
 162              		.loc 1 65 1 is_stmt 1 view -0
 163              		.cfi_startproc
 164              		@ args = 0, pretend = 0, frame = 8
 165              		@ frame_needed = 0, uses_anonymous_args = 0
 166              		.loc 1 65 1 is_stmt 0 view .LVU30
 167 0000 00B5     		push	{lr}
 168              		.cfi_def_cfa_offset 4
 169              		.cfi_offset 14, -4
 170 0002 214B     		ldr	r3, .L34
 171 0004 83B0     		sub	sp, sp, #12
ARM GAS  /tmp/ccdaS0Ho.s 			page 4


 172              		.cfi_def_cfa_offset 16
 173              		.loc 1 65 1 view .LVU31
 174 0006 1B68     		ldr	r3, [r3]
 175 0008 0193     		str	r3, [sp, #4]
 176 000a 4FF00003 		mov	r3,#0
 177              		.loc 1 67 5 is_stmt 1 view .LVU32
 178              		.loc 1 67 48 is_stmt 0 view .LVU33
 179 000e 0378     		ldrb	r3, [r0]	@ zero_extendqisi2
 180 0010 EBB1     		cbz	r3, .L20
 181              		.loc 1 68 5 is_stmt 1 discriminator 1 view .LVU34
 182              		.loc 1 67 14 is_stmt 0 discriminator 1 view .LVU35
 183 0012 1E4B     		ldr	r3, .L34+4
 184 0014 4FF40072 		mov	r2, #512
 185 0018 1A83     		strh	r2, [r3, #24]	@ movhi
 186              		.loc 1 68 48 discriminator 1 view .LVU36
 187 001a 4378     		ldrb	r3, [r0, #1]	@ zero_extendqisi2
 188 001c F3B1     		cbz	r3, .L22
 189              	.L31:
 190              		.loc 1 69 5 is_stmt 1 discriminator 1 view .LVU37
 191              		.loc 1 68 14 is_stmt 0 discriminator 1 view .LVU38
 192 001e 1B4B     		ldr	r3, .L34+4
 193 0020 4FF48072 		mov	r2, #256
 194 0024 1A83     		strh	r2, [r3, #24]	@ movhi
 195              		.loc 1 69 48 discriminator 1 view .LVU39
 196 0026 8378     		ldrb	r3, [r0, #2]	@ zero_extendqisi2
 197 0028 FBB1     		cbz	r3, .L24
 198              	.L32:
 199              		.loc 1 70 5 is_stmt 1 discriminator 1 view .LVU40
 200              		.loc 1 69 14 is_stmt 0 discriminator 1 view .LVU41
 201 002a 184B     		ldr	r3, .L34+4
 202 002c 4FF40062 		mov	r2, #2048
 203 0030 1A83     		strh	r2, [r3, #24]	@ movhi
 204              		.loc 1 70 48 discriminator 1 view .LVU42
 205 0032 C378     		ldrb	r3, [r0, #3]	@ zero_extendqisi2
 206 0034 03B3     		cbz	r3, .L26
 207              	.L33:
 208              		.loc 1 70 14 discriminator 1 view .LVU43
 209 0036 154B     		ldr	r3, .L34+4
 210 0038 4FF48062 		mov	r2, #1024
 211 003c 1A83     		strh	r2, [r3, #24]	@ movhi
 212              	.L19:
 213              		.loc 1 71 1 view .LVU44
 214 003e 124B     		ldr	r3, .L34
 215 0040 1A68     		ldr	r2, [r3]
 216 0042 019B     		ldr	r3, [sp, #4]
 217 0044 5A40     		eors	r2, r3, r2
 218 0046 1CD1     		bne	.L30
 219 0048 03B0     		add	sp, sp, #12
 220              		.cfi_remember_state
 221              		.cfi_def_cfa_offset 4
 222              		@ sp needed
 223 004a 5DF804FB 		ldr	pc, [sp], #4
 224              	.L20:
 225              		.cfi_restore_state
 226              		.loc 1 67 50 discriminator 2 view .LVU45
 227 004e 0F4B     		ldr	r3, .L34+4
 228 0050 4FF40072 		mov	r2, #512
ARM GAS  /tmp/ccdaS0Ho.s 			page 5


 229 0054 5A83     		strh	r2, [r3, #26]	@ movhi
 230              		.loc 1 68 5 is_stmt 1 discriminator 2 view .LVU46
 231              		.loc 1 68 48 is_stmt 0 discriminator 2 view .LVU47
 232 0056 4378     		ldrb	r3, [r0, #1]	@ zero_extendqisi2
 233 0058 002B     		cmp	r3, #0
 234 005a E0D1     		bne	.L31
 235              	.L22:
 236              		.loc 1 68 50 discriminator 2 view .LVU48
 237 005c 0B4B     		ldr	r3, .L34+4
 238 005e 4FF48072 		mov	r2, #256
 239 0062 5A83     		strh	r2, [r3, #26]	@ movhi
 240              		.loc 1 69 5 is_stmt 1 discriminator 2 view .LVU49
 241              		.loc 1 69 48 is_stmt 0 discriminator 2 view .LVU50
 242 0064 8378     		ldrb	r3, [r0, #2]	@ zero_extendqisi2
 243 0066 002B     		cmp	r3, #0
 244 0068 DFD1     		bne	.L32
 245              	.L24:
 246              		.loc 1 69 50 discriminator 2 view .LVU51
 247 006a 084B     		ldr	r3, .L34+4
 248 006c 4FF40062 		mov	r2, #2048
 249 0070 5A83     		strh	r2, [r3, #26]	@ movhi
 250              		.loc 1 70 5 is_stmt 1 discriminator 2 view .LVU52
 251              		.loc 1 70 48 is_stmt 0 discriminator 2 view .LVU53
 252 0072 C378     		ldrb	r3, [r0, #3]	@ zero_extendqisi2
 253 0074 002B     		cmp	r3, #0
 254 0076 DED1     		bne	.L33
 255              	.L26:
 256              		.loc 1 70 50 discriminator 2 view .LVU54
 257 0078 044B     		ldr	r3, .L34+4
 258 007a 4FF48062 		mov	r2, #1024
 259 007e 5A83     		strh	r2, [r3, #26]	@ movhi
 260              		.loc 1 71 1 discriminator 2 view .LVU55
 261 0080 DDE7     		b	.L19
 262              	.L30:
 263              		.loc 1 71 1 view .LVU56
 264 0082 FFF7FEFF 		bl	__stack_chk_fail
 265              	.LVL3:
 266              	.L35:
 267              		.loc 1 71 1 view .LVU57
 268 0086 00BF     		.align	2
 269              	.L34:
 270 0088 00000000 		.word	.LC1
 271 008c 00100240 		.word	1073876992
 272              		.cfi_endproc
 273              	.LFE257:
 274              		.size	left_motor_update, .-left_motor_update
 275              		.section	.rodata.right_motor_pwm_ch1_cb.cst4,"aM",%progbits,4
 276              		.align	2
 277              	.LC2:
 278 0000 00000000 		.word	__stack_chk_guard
 279              		.section	.text.right_motor_pwm_ch1_cb,"ax",%progbits
 280              		.align	1
 281              		.p2align 4,,15
 282              		.syntax unified
 283              		.thumb
 284              		.thumb_func
 285              		.fpu fpv4-sp-d16
ARM GAS  /tmp/ccdaS0Ho.s 			page 6


 286              		.type	right_motor_pwm_ch1_cb, %function
 287              	right_motor_pwm_ch1_cb:
 288              	.LVL4:
 289              	.LFB260:
 290              		.loc 1 130 53 is_stmt 1 view -0
 291              		.cfi_startproc
 292              		@ args = 0, pretend = 0, frame = 8
 293              		@ frame_needed = 0, uses_anonymous_args = 0
 294              		.loc 1 130 53 is_stmt 0 view .LVU59
 295 0000 10B5     		push	{r4, lr}
 296              		.cfi_def_cfa_offset 8
 297              		.cfi_offset 4, -8
 298              		.cfi_offset 14, -4
 299 0002 0E4A     		ldr	r2, .L40
 300              		.loc 1 132 5 view .LVU60
 301 0004 0E4B     		ldr	r3, .L40+4
 302              		.loc 1 130 53 view .LVU61
 303 0006 82B0     		sub	sp, sp, #8
 304              		.cfi_def_cfa_offset 16
 305              		.loc 1 130 53 view .LVU62
 306 0008 1268     		ldr	r2, [r2]
 307 000a 0192     		str	r2, [sp, #4]
 308 000c 4FF00002 		mov	r2,#0
 309              		.loc 1 131 2 is_stmt 1 view .LVU63
 310              		.loc 1 132 5 view .LVU64
 311 0010 4FF40054 		mov	r4, #8192
 312              		.loc 1 135 5 is_stmt 0 view .LVU65
 313 0014 4FF40042 		mov	r2, #32768
 314              		.loc 1 133 5 view .LVU66
 315 0018 4FF48050 		mov	r0, #4096
 316              	.LVL5:
 317              		.loc 1 134 5 view .LVU67
 318 001c 4FF48041 		mov	r1, #16384
 319              		.loc 1 132 5 view .LVU68
 320 0020 5C83     		strh	r4, [r3, #26]	@ movhi
 321              		.loc 1 133 5 is_stmt 1 view .LVU69
 322 0022 5883     		strh	r0, [r3, #26]	@ movhi
 323              		.loc 1 134 5 view .LVU70
 324 0024 5983     		strh	r1, [r3, #26]	@ movhi
 325              		.loc 1 135 5 view .LVU71
 326 0026 5A83     		strh	r2, [r3, #26]	@ movhi
 327              		.loc 1 136 1 is_stmt 0 view .LVU72
 328 0028 044B     		ldr	r3, .L40
 329 002a 1A68     		ldr	r2, [r3]
 330 002c 019B     		ldr	r3, [sp, #4]
 331 002e 5A40     		eors	r2, r3, r2
 332 0030 01D1     		bne	.L39
 333 0032 02B0     		add	sp, sp, #8
 334              		.cfi_remember_state
 335              		.cfi_def_cfa_offset 8
 336              		@ sp needed
 337 0034 10BD     		pop	{r4, pc}
 338              	.L39:
 339              		.cfi_restore_state
 340 0036 FFF7FEFF 		bl	__stack_chk_fail
 341              	.LVL6:
 342              	.L41:
ARM GAS  /tmp/ccdaS0Ho.s 			page 7


 343 003a 00BF     		.align	2
 344              	.L40:
 345 003c 00000000 		.word	.LC2
 346 0040 00100240 		.word	1073876992
 347              		.cfi_endproc
 348              	.LFE260:
 349              		.size	right_motor_pwm_ch1_cb, .-right_motor_pwm_ch1_cb
 350              		.section	.rodata.left_motor_pwm_ch1_cb.cst4,"aM",%progbits,4
 351              		.align	2
 352              	.LC3:
 353 0000 00000000 		.word	__stack_chk_guard
 354              		.section	.text.left_motor_pwm_ch1_cb,"ax",%progbits
 355              		.align	1
 356              		.p2align 4,,15
 357              		.syntax unified
 358              		.thumb
 359              		.thumb_func
 360              		.fpu fpv4-sp-d16
 361              		.type	left_motor_pwm_ch1_cb, %function
 362              	left_motor_pwm_ch1_cb:
 363              	.LVL7:
 364              	.LFB261:
 365              		.loc 1 145 52 is_stmt 1 view -0
 366              		.cfi_startproc
 367              		@ args = 0, pretend = 0, frame = 8
 368              		@ frame_needed = 0, uses_anonymous_args = 0
 369              		.loc 1 145 52 is_stmt 0 view .LVU74
 370 0000 10B5     		push	{r4, lr}
 371              		.cfi_def_cfa_offset 8
 372              		.cfi_offset 4, -8
 373              		.cfi_offset 14, -4
 374 0002 0E4A     		ldr	r2, .L46
 375              		.loc 1 147 5 view .LVU75
 376 0004 0E4B     		ldr	r3, .L46+4
 377              		.loc 1 145 52 view .LVU76
 378 0006 82B0     		sub	sp, sp, #8
 379              		.cfi_def_cfa_offset 16
 380              		.loc 1 145 52 view .LVU77
 381 0008 1268     		ldr	r2, [r2]
 382 000a 0192     		str	r2, [sp, #4]
 383 000c 4FF00002 		mov	r2,#0
 384              		.loc 1 146 2 is_stmt 1 view .LVU78
 385              		.loc 1 147 5 view .LVU79
 386 0010 4FF40074 		mov	r4, #512
 387              		.loc 1 150 5 is_stmt 0 view .LVU80
 388 0014 4FF48062 		mov	r2, #1024
 389              		.loc 1 148 5 view .LVU81
 390 0018 4FF48070 		mov	r0, #256
 391              	.LVL8:
 392              		.loc 1 149 5 view .LVU82
 393 001c 4FF40061 		mov	r1, #2048
 394              		.loc 1 147 5 view .LVU83
 395 0020 5C83     		strh	r4, [r3, #26]	@ movhi
 396              		.loc 1 148 5 is_stmt 1 view .LVU84
 397 0022 5883     		strh	r0, [r3, #26]	@ movhi
 398              		.loc 1 149 5 view .LVU85
 399 0024 5983     		strh	r1, [r3, #26]	@ movhi
ARM GAS  /tmp/ccdaS0Ho.s 			page 8


 400              		.loc 1 150 5 view .LVU86
 401 0026 5A83     		strh	r2, [r3, #26]	@ movhi
 402              		.loc 1 151 1 is_stmt 0 view .LVU87
 403 0028 044B     		ldr	r3, .L46
 404 002a 1A68     		ldr	r2, [r3]
 405 002c 019B     		ldr	r3, [sp, #4]
 406 002e 5A40     		eors	r2, r3, r2
 407 0030 01D1     		bne	.L45
 408 0032 02B0     		add	sp, sp, #8
 409              		.cfi_remember_state
 410              		.cfi_def_cfa_offset 8
 411              		@ sp needed
 412 0034 10BD     		pop	{r4, pc}
 413              	.L45:
 414              		.cfi_restore_state
 415 0036 FFF7FEFF 		bl	__stack_chk_fail
 416              	.LVL9:
 417              	.L47:
 418 003a 00BF     		.align	2
 419              	.L46:
 420 003c 00000000 		.word	.LC3
 421 0040 00100240 		.word	1073876992
 422              		.cfi_endproc
 423              	.LFE261:
 424              		.size	left_motor_pwm_ch1_cb, .-left_motor_pwm_ch1_cb
 425              		.section	.rodata.right_motor_enable_power_save.cst4,"aM",%progbits,4
 426              		.align	2
 427              	.LC4:
 428 0000 00000000 		.word	__stack_chk_guard
 429              		.section	.text.right_motor_enable_power_save,"ax",%progbits
 430              		.align	1
 431              		.p2align 4,,15
 432              		.global	right_motor_enable_power_save
 433              		.syntax unified
 434              		.thumb
 435              		.thumb_func
 436              		.fpu fpv4-sp-d16
 437              		.type	right_motor_enable_power_save, %function
 438              	right_motor_enable_power_save:
 439              	.LFB262:
 440              		.loc 1 156 42 is_stmt 1 view -0
 441              		.cfi_startproc
 442              		@ args = 0, pretend = 0, frame = 8
 443              		@ frame_needed = 0, uses_anonymous_args = 0
 444 0000 00B5     		push	{lr}
 445              		.cfi_def_cfa_offset 4
 446              		.cfi_offset 14, -4
 447 0002 0C4B     		ldr	r3, .L53
 448              		.loc 1 158 5 is_stmt 0 view .LVU89
 449 0004 0C48     		ldr	r0, .L53+4
 450              		.loc 1 156 42 view .LVU90
 451 0006 83B0     		sub	sp, sp, #12
 452              		.cfi_def_cfa_offset 16
 453              		.loc 1 158 5 view .LVU91
 454 0008 9922     		movs	r2, #153
 455 000a 0021     		movs	r1, #0
 456              		.loc 1 156 42 view .LVU92
ARM GAS  /tmp/ccdaS0Ho.s 			page 9


 457 000c 1B68     		ldr	r3, [r3]
 458 000e 0193     		str	r3, [sp, #4]
 459 0010 4FF00003 		mov	r3,#0
 460              		.loc 1 158 5 is_stmt 1 view .LVU93
 461 0014 FFF7FEFF 		bl	pwmEnableChannel
 462              	.LVL10:
 463              		.loc 1 160 2 view .LVU94
 464 0018 064B     		ldr	r3, .L53
 465 001a 1A68     		ldr	r2, [r3]
 466 001c 019B     		ldr	r3, [sp, #4]
 467 001e 5A40     		eors	r2, r3, r2
 468 0020 06D1     		bne	.L52
 469 0022 0548     		ldr	r0, .L53+4
 470 0024 0021     		movs	r1, #0
 471              		.loc 1 161 1 is_stmt 0 view .LVU95
 472 0026 03B0     		add	sp, sp, #12
 473              		.cfi_remember_state
 474              		.cfi_def_cfa_offset 4
 475              		@ sp needed
 476 0028 5DF804EB 		ldr	lr, [sp], #4
 477              		.cfi_restore 14
 478              		.cfi_def_cfa_offset 0
 479              		.loc 1 160 2 view .LVU96
 480 002c FFF7FEBF 		b	pwmEnableChannelNotification
 481              	.LVL11:
 482              	.L52:
 483              		.cfi_restore_state
 484 0030 FFF7FEFF 		bl	__stack_chk_fail
 485              	.LVL12:
 486              	.L54:
 487              		.align	2
 488              	.L53:
 489 0034 00000000 		.word	.LC4
 490 0038 00000000 		.word	PWMD3
 491              		.cfi_endproc
 492              	.LFE262:
 493              		.size	right_motor_enable_power_save, .-right_motor_enable_power_save
 494              		.section	.rodata.left_motor_enable_power_save.cst4,"aM",%progbits,4
 495              		.align	2
 496              	.LC5:
 497 0000 00000000 		.word	__stack_chk_guard
 498              		.section	.text.left_motor_enable_power_save,"ax",%progbits
 499              		.align	1
 500              		.p2align 4,,15
 501              		.global	left_motor_enable_power_save
 502              		.syntax unified
 503              		.thumb
 504              		.thumb_func
 505              		.fpu fpv4-sp-d16
 506              		.type	left_motor_enable_power_save, %function
 507              	left_motor_enable_power_save:
 508              	.LFB263:
 509              		.loc 1 166 41 is_stmt 1 view -0
 510              		.cfi_startproc
 511              		@ args = 0, pretend = 0, frame = 8
 512              		@ frame_needed = 0, uses_anonymous_args = 0
 513 0000 00B5     		push	{lr}
ARM GAS  /tmp/ccdaS0Ho.s 			page 10


 514              		.cfi_def_cfa_offset 4
 515              		.cfi_offset 14, -4
 516 0002 0C4B     		ldr	r3, .L60
 517              		.loc 1 168 5 is_stmt 0 view .LVU98
 518 0004 0C48     		ldr	r0, .L60+4
 519              		.loc 1 166 41 view .LVU99
 520 0006 83B0     		sub	sp, sp, #12
 521              		.cfi_def_cfa_offset 16
 522              		.loc 1 168 5 view .LVU100
 523 0008 9922     		movs	r2, #153
 524 000a 0021     		movs	r1, #0
 525              		.loc 1 166 41 view .LVU101
 526 000c 1B68     		ldr	r3, [r3]
 527 000e 0193     		str	r3, [sp, #4]
 528 0010 4FF00003 		mov	r3,#0
 529              		.loc 1 168 5 is_stmt 1 view .LVU102
 530 0014 FFF7FEFF 		bl	pwmEnableChannel
 531              	.LVL13:
 532              		.loc 1 170 2 view .LVU103
 533 0018 064B     		ldr	r3, .L60
 534 001a 1A68     		ldr	r2, [r3]
 535 001c 019B     		ldr	r3, [sp, #4]
 536 001e 5A40     		eors	r2, r3, r2
 537 0020 06D1     		bne	.L59
 538 0022 0548     		ldr	r0, .L60+4
 539 0024 0021     		movs	r1, #0
 540              		.loc 1 171 1 is_stmt 0 view .LVU104
 541 0026 03B0     		add	sp, sp, #12
 542              		.cfi_remember_state
 543              		.cfi_def_cfa_offset 4
 544              		@ sp needed
 545 0028 5DF804EB 		ldr	lr, [sp], #4
 546              		.cfi_restore 14
 547              		.cfi_def_cfa_offset 0
 548              		.loc 1 170 2 view .LVU105
 549 002c FFF7FEBF 		b	pwmEnableChannelNotification
 550              	.LVL14:
 551              	.L59:
 552              		.cfi_restore_state
 553 0030 FFF7FEFF 		bl	__stack_chk_fail
 554              	.LVL15:
 555              	.L61:
 556              		.align	2
 557              	.L60:
 558 0034 00000000 		.word	.LC5
 559 0038 00000000 		.word	PWMD4
 560              		.cfi_endproc
 561              	.LFE263:
 562              		.size	left_motor_enable_power_save, .-left_motor_enable_power_save
 563              		.section	.rodata.right_motor_disable_power_save.cst4,"aM",%progbits,4
 564              		.align	2
 565              	.LC6:
 566 0000 00000000 		.word	__stack_chk_guard
 567              		.section	.text.right_motor_disable_power_save,"ax",%progbits
 568              		.align	1
 569              		.p2align 4,,15
 570              		.global	right_motor_disable_power_save
ARM GAS  /tmp/ccdaS0Ho.s 			page 11


 571              		.syntax unified
 572              		.thumb
 573              		.thumb_func
 574              		.fpu fpv4-sp-d16
 575              		.type	right_motor_disable_power_save, %function
 576              	right_motor_disable_power_save:
 577              	.LFB264:
 578              		.loc 1 176 43 is_stmt 1 view -0
 579              		.cfi_startproc
 580              		@ args = 0, pretend = 0, frame = 8
 581              		@ frame_needed = 0, uses_anonymous_args = 0
 582 0000 00B5     		push	{lr}
 583              		.cfi_def_cfa_offset 4
 584              		.cfi_offset 14, -4
 585 0002 0A4B     		ldr	r3, .L67
 586 0004 83B0     		sub	sp, sp, #12
 587              		.cfi_def_cfa_offset 16
 588              		.loc 1 176 43 is_stmt 0 view .LVU107
 589 0006 1B68     		ldr	r3, [r3]
 590 0008 0193     		str	r3, [sp, #4]
 591 000a 4FF00003 		mov	r3,#0
 592              		.loc 1 177 2 is_stmt 1 view .LVU108
 593 000e 074B     		ldr	r3, .L67
 594 0010 1A68     		ldr	r2, [r3]
 595 0012 019B     		ldr	r3, [sp, #4]
 596 0014 5A40     		eors	r2, r3, r2
 597 0016 06D1     		bne	.L66
 598 0018 0548     		ldr	r0, .L67+4
 599 001a 0021     		movs	r1, #0
 600              		.loc 1 178 1 is_stmt 0 view .LVU109
 601 001c 03B0     		add	sp, sp, #12
 602              		.cfi_remember_state
 603              		.cfi_def_cfa_offset 4
 604              		@ sp needed
 605 001e 5DF804EB 		ldr	lr, [sp], #4
 606              		.cfi_restore 14
 607              		.cfi_def_cfa_offset 0
 608              		.loc 1 177 2 view .LVU110
 609 0022 FFF7FEBF 		b	pwmDisableChannel
 610              	.LVL16:
 611              	.L66:
 612              		.cfi_restore_state
 613 0026 FFF7FEFF 		bl	__stack_chk_fail
 614              	.LVL17:
 615              	.L68:
 616 002a 00BF     		.align	2
 617              	.L67:
 618 002c 00000000 		.word	.LC6
 619 0030 00000000 		.word	PWMD3
 620              		.cfi_endproc
 621              	.LFE264:
 622              		.size	right_motor_disable_power_save, .-right_motor_disable_power_save
 623              		.section	.rodata.left_motor_disable_power_save.cst4,"aM",%progbits,4
 624              		.align	2
 625              	.LC7:
 626 0000 00000000 		.word	__stack_chk_guard
 627              		.section	.text.left_motor_disable_power_save,"ax",%progbits
ARM GAS  /tmp/ccdaS0Ho.s 			page 12


 628              		.align	1
 629              		.p2align 4,,15
 630              		.global	left_motor_disable_power_save
 631              		.syntax unified
 632              		.thumb
 633              		.thumb_func
 634              		.fpu fpv4-sp-d16
 635              		.type	left_motor_disable_power_save, %function
 636              	left_motor_disable_power_save:
 637              	.LFB265:
 638              		.loc 1 183 42 is_stmt 1 view -0
 639              		.cfi_startproc
 640              		@ args = 0, pretend = 0, frame = 8
 641              		@ frame_needed = 0, uses_anonymous_args = 0
 642 0000 00B5     		push	{lr}
 643              		.cfi_def_cfa_offset 4
 644              		.cfi_offset 14, -4
 645 0002 0A4B     		ldr	r3, .L74
 646 0004 83B0     		sub	sp, sp, #12
 647              		.cfi_def_cfa_offset 16
 648              		.loc 1 183 42 is_stmt 0 view .LVU112
 649 0006 1B68     		ldr	r3, [r3]
 650 0008 0193     		str	r3, [sp, #4]
 651 000a 4FF00003 		mov	r3,#0
 652              		.loc 1 184 2 is_stmt 1 view .LVU113
 653 000e 074B     		ldr	r3, .L74
 654 0010 1A68     		ldr	r2, [r3]
 655 0012 019B     		ldr	r3, [sp, #4]
 656 0014 5A40     		eors	r2, r3, r2
 657 0016 06D1     		bne	.L73
 658 0018 0548     		ldr	r0, .L74+4
 659 001a 0021     		movs	r1, #0
 660              		.loc 1 185 1 is_stmt 0 view .LVU114
 661 001c 03B0     		add	sp, sp, #12
 662              		.cfi_remember_state
 663              		.cfi_def_cfa_offset 4
 664              		@ sp needed
 665 001e 5DF804EB 		ldr	lr, [sp], #4
 666              		.cfi_restore 14
 667              		.cfi_def_cfa_offset 0
 668              		.loc 1 184 2 view .LVU115
 669 0022 FFF7FEBF 		b	pwmDisableChannel
 670              	.LVL18:
 671              	.L73:
 672              		.cfi_restore_state
 673 0026 FFF7FEFF 		bl	__stack_chk_fail
 674              	.LVL19:
 675              	.L75:
 676 002a 00BF     		.align	2
 677              	.L74:
 678 002c 00000000 		.word	.LC7
 679 0030 00000000 		.word	PWMD4
 680              		.cfi_endproc
 681              	.LFE265:
 682              		.size	left_motor_disable_power_save, .-left_motor_disable_power_save
 683              		.section	.rodata.right_motor_timer_callback.cst4,"aM",%progbits,4
 684              		.align	2
ARM GAS  /tmp/ccdaS0Ho.s 			page 13


 685              	.LC8:
 686 0000 00000000 		.word	__stack_chk_guard
 687              		.section	.text.right_motor_timer_callback,"ax",%progbits
 688              		.align	1
 689              		.p2align 4,,15
 690              		.syntax unified
 691              		.thumb
 692              		.thumb_func
 693              		.fpu fpv4-sp-d16
 694              		.type	right_motor_timer_callback, %function
 695              	right_motor_timer_callback:
 696              	.LVL20:
 697              	.LFB258:
 698              		.loc 1 80 1 is_stmt 1 view -0
 699              		.cfi_startproc
 700              		@ args = 0, pretend = 0, frame = 8
 701              		@ frame_needed = 0, uses_anonymous_args = 0
 702              		.loc 1 80 1 is_stmt 0 view .LVU117
 703 0000 30B5     		push	{r4, r5, lr}
 704              		.cfi_def_cfa_offset 12
 705              		.cfi_offset 4, -12
 706              		.cfi_offset 5, -8
 707              		.cfi_offset 14, -4
 708 0002 1F4B     		ldr	r3, .L86
 709              		.loc 1 83 20 view .LVU118
 710 0004 1F4C     		ldr	r4, .L86+4
 711              		.loc 1 80 1 view .LVU119
 712 0006 83B0     		sub	sp, sp, #12
 713              		.cfi_def_cfa_offset 24
 714              		.loc 1 80 1 view .LVU120
 715 0008 1B68     		ldr	r3, [r3]
 716 000a 0193     		str	r3, [sp, #4]
 717 000c 4FF00003 		mov	r3,#0
 718              		.loc 1 81 5 is_stmt 1 view .LVU121
 719              		.loc 1 82 5 view .LVU122
 720              		.loc 1 83 5 view .LVU123
 721              		.loc 1 83 20 is_stmt 0 view .LVU124
 722 0010 2378     		ldrb	r3, [r4]	@ zero_extendqisi2
 723              		.loc 1 83 8 view .LVU125
 724 0012 022B     		cmp	r3, #2
 725 0014 22D0     		beq	.L84
 726              		.loc 1 88 12 is_stmt 1 view .LVU126
 727              		.loc 1 88 15 is_stmt 0 view .LVU127
 728 0016 012B     		cmp	r3, #1
 729 0018 0AD0     		beq	.L85
 730              		.loc 1 94 9 is_stmt 1 view .LVU128
 731 001a 194B     		ldr	r3, .L86
 732 001c 1A68     		ldr	r2, [r3]
 733 001e 019B     		ldr	r3, [sp, #4]
 734 0020 5A40     		eors	r2, r3, r2
 735 0022 2BD1     		bne	.L83
 736 0024 A368     		ldr	r3, [r4, #8]
 737 0026 1848     		ldr	r0, .L86+8
 738              	.LVL21:
 739              		.loc 1 96 1 is_stmt 0 view .LVU129
 740 0028 03B0     		add	sp, sp, #12
 741              		.cfi_remember_state
ARM GAS  /tmp/ccdaS0Ho.s 			page 14


 742              		.cfi_def_cfa_offset 12
 743              		@ sp needed
 744 002a BDE83040 		pop	{r4, r5, lr}
 745              		.cfi_restore 14
 746              		.cfi_restore 5
 747              		.cfi_restore 4
 748              		.cfi_def_cfa_offset 0
 749              		.loc 1 94 9 view .LVU130
 750 002e 1847     		bx	r3	@ indirect register sibling call
 751              	.LVL22:
 752              	.L85:
 753              		.cfi_restore_state
 754              	.LBB4:
 755              	.LBI4:
 756              		.loc 1 79 13 is_stmt 1 view .LVU131
 757              	.LBB5:
 758              		.loc 1 89 9 view .LVU132
 759              		.loc 1 89 37 is_stmt 0 view .LVU133
 760 0030 6378     		ldrb	r3, [r4, #1]	@ zero_extendqisi2
 761              		.loc 1 90 38 view .LVU134
 762 0032 1649     		ldr	r1, .L86+12
 763              		.loc 1 90 9 view .LVU135
 764 0034 A268     		ldr	r2, [r4, #8]
 765              		.loc 1 89 37 view .LVU136
 766 0036 013B     		subs	r3, r3, #1
 767              		.loc 1 90 38 view .LVU137
 768 0038 03F00700 		and	r0, r3, #7
 769              	.LVL23:
 770              		.loc 1 90 9 view .LVU138
 771 003c 01EB8000 		add	r0, r1, r0, lsl #2
 772              		.loc 1 89 11 view .LVU139
 773 0040 03F00705 		and	r5, r3, #7
 774              	.LVL24:
 775              		.loc 1 90 9 is_stmt 1 view .LVU140
 776 0044 9047     		blx	r2
 777              	.LVL25:
 778              		.loc 1 91 9 view .LVU141
 779              		.loc 1 91 27 is_stmt 0 view .LVU142
 780 0046 6368     		ldr	r3, [r4, #4]
 781              		.loc 1 92 32 view .LVU143
 782 0048 6570     		strb	r5, [r4, #1]
 783              		.loc 1 91 27 view .LVU144
 784 004a 0133     		adds	r3, r3, #1
 785 004c 6360     		str	r3, [r4, #4]
 786              		.loc 1 92 9 is_stmt 1 view .LVU145
 787              	.LVL26:
 788              	.L76:
 789              		.loc 1 92 9 is_stmt 0 view .LVU146
 790              	.LBE5:
 791              	.LBE4:
 792              		.loc 1 96 1 view .LVU147
 793 004e 0C4B     		ldr	r3, .L86
 794 0050 1A68     		ldr	r2, [r3]
 795 0052 019B     		ldr	r3, [sp, #4]
 796 0054 5A40     		eors	r2, r3, r2
 797 0056 11D1     		bne	.L83
 798 0058 03B0     		add	sp, sp, #12
ARM GAS  /tmp/ccdaS0Ho.s 			page 15


 799              		.cfi_remember_state
 800              		.cfi_def_cfa_offset 12
 801              		@ sp needed
 802 005a 30BD     		pop	{r4, r5, pc}
 803              	.LVL27:
 804              	.L84:
 805              		.cfi_restore_state
 806              		.loc 1 84 9 is_stmt 1 view .LVU148
 807              		.loc 1 84 37 is_stmt 0 view .LVU149
 808 005c 6378     		ldrb	r3, [r4, #1]	@ zero_extendqisi2
 809              		.loc 1 85 38 view .LVU150
 810 005e 0B49     		ldr	r1, .L86+12
 811              		.loc 1 85 9 view .LVU151
 812 0060 A268     		ldr	r2, [r4, #8]
 813              		.loc 1 84 37 view .LVU152
 814 0062 0133     		adds	r3, r3, #1
 815              		.loc 1 85 38 view .LVU153
 816 0064 03F00700 		and	r0, r3, #7
 817              	.LVL28:
 818              		.loc 1 85 9 view .LVU154
 819 0068 01EB8000 		add	r0, r1, r0, lsl #2
 820              		.loc 1 84 11 view .LVU155
 821 006c 03F00705 		and	r5, r3, #7
 822              	.LVL29:
 823              		.loc 1 85 9 is_stmt 1 view .LVU156
 824 0070 9047     		blx	r2
 825              	.LVL30:
 826              		.loc 1 86 9 view .LVU157
 827              		.loc 1 86 27 is_stmt 0 view .LVU158
 828 0072 6368     		ldr	r3, [r4, #4]
 829              		.loc 1 87 32 view .LVU159
 830 0074 6570     		strb	r5, [r4, #1]
 831              		.loc 1 86 27 view .LVU160
 832 0076 013B     		subs	r3, r3, #1
 833 0078 6360     		str	r3, [r4, #4]
 834              		.loc 1 87 9 is_stmt 1 view .LVU161
 835 007a E8E7     		b	.L76
 836              	.LVL31:
 837              	.L83:
 838              		.loc 1 96 1 is_stmt 0 view .LVU162
 839 007c FFF7FEFF 		bl	__stack_chk_fail
 840              	.LVL32:
 841              	.L87:
 842              		.align	2
 843              	.L86:
 844 0080 00000000 		.word	.LC8
 845 0084 00000000 		.word	.LANCHOR0
 846 0088 00000000 		.word	.LANCHOR2
 847 008c 00000000 		.word	.LANCHOR1
 848              		.cfi_endproc
 849              	.LFE258:
 850              		.size	right_motor_timer_callback, .-right_motor_timer_callback
 851              		.section	.rodata.left_motor_timer_callback.cst4,"aM",%progbits,4
 852              		.align	2
 853              	.LC9:
 854 0000 00000000 		.word	__stack_chk_guard
 855              		.section	.text.left_motor_timer_callback,"ax",%progbits
ARM GAS  /tmp/ccdaS0Ho.s 			page 16


 856              		.align	1
 857              		.p2align 4,,15
 858              		.syntax unified
 859              		.thumb
 860              		.thumb_func
 861              		.fpu fpv4-sp-d16
 862              		.type	left_motor_timer_callback, %function
 863              	left_motor_timer_callback:
 864              	.LVL33:
 865              	.LFB259:
 866              		.loc 1 105 1 is_stmt 1 view -0
 867              		.cfi_startproc
 868              		@ args = 0, pretend = 0, frame = 8
 869              		@ frame_needed = 0, uses_anonymous_args = 0
 870              		.loc 1 105 1 is_stmt 0 view .LVU164
 871 0000 30B5     		push	{r4, r5, lr}
 872              		.cfi_def_cfa_offset 12
 873              		.cfi_offset 4, -12
 874              		.cfi_offset 5, -8
 875              		.cfi_offset 14, -4
 876 0002 1F4B     		ldr	r3, .L98
 877              		.loc 1 108 19 view .LVU165
 878 0004 1F4C     		ldr	r4, .L98+4
 879              		.loc 1 105 1 view .LVU166
 880 0006 83B0     		sub	sp, sp, #12
 881              		.cfi_def_cfa_offset 24
 882              		.loc 1 105 1 view .LVU167
 883 0008 1B68     		ldr	r3, [r3]
 884 000a 0193     		str	r3, [sp, #4]
 885 000c 4FF00003 		mov	r3,#0
 886              		.loc 1 106 5 is_stmt 1 view .LVU168
 887              		.loc 1 107 5 view .LVU169
 888              		.loc 1 108 5 view .LVU170
 889              		.loc 1 108 19 is_stmt 0 view .LVU171
 890 0010 2378     		ldrb	r3, [r4]	@ zero_extendqisi2
 891              		.loc 1 108 8 view .LVU172
 892 0012 012B     		cmp	r3, #1
 893 0014 22D0     		beq	.L96
 894              		.loc 1 113 12 is_stmt 1 view .LVU173
 895              		.loc 1 113 15 is_stmt 0 view .LVU174
 896 0016 022B     		cmp	r3, #2
 897 0018 0AD0     		beq	.L97
 898              		.loc 1 119 9 is_stmt 1 view .LVU175
 899 001a 194B     		ldr	r3, .L98
 900 001c 1A68     		ldr	r2, [r3]
 901 001e 019B     		ldr	r3, [sp, #4]
 902 0020 5A40     		eors	r2, r3, r2
 903 0022 2BD1     		bne	.L95
 904 0024 A368     		ldr	r3, [r4, #8]
 905 0026 1848     		ldr	r0, .L98+8
 906              	.LVL34:
 907              		.loc 1 121 1 is_stmt 0 view .LVU176
 908 0028 03B0     		add	sp, sp, #12
 909              		.cfi_remember_state
 910              		.cfi_def_cfa_offset 12
 911              		@ sp needed
 912 002a BDE83040 		pop	{r4, r5, lr}
ARM GAS  /tmp/ccdaS0Ho.s 			page 17


 913              		.cfi_restore 14
 914              		.cfi_restore 5
 915              		.cfi_restore 4
 916              		.cfi_def_cfa_offset 0
 917              		.loc 1 119 9 view .LVU177
 918 002e 1847     		bx	r3	@ indirect register sibling call
 919              	.LVL35:
 920              	.L97:
 921              		.cfi_restore_state
 922              	.LBB8:
 923              	.LBI8:
 924              		.loc 1 104 13 is_stmt 1 view .LVU178
 925              	.LBB9:
 926              		.loc 1 114 9 view .LVU179
 927              		.loc 1 114 36 is_stmt 0 view .LVU180
 928 0030 6378     		ldrb	r3, [r4, #1]	@ zero_extendqisi2
 929              		.loc 1 115 37 view .LVU181
 930 0032 1649     		ldr	r1, .L98+12
 931              		.loc 1 115 9 view .LVU182
 932 0034 A268     		ldr	r2, [r4, #8]
 933              		.loc 1 114 36 view .LVU183
 934 0036 013B     		subs	r3, r3, #1
 935              		.loc 1 115 37 view .LVU184
 936 0038 03F00700 		and	r0, r3, #7
 937              	.LVL36:
 938              		.loc 1 115 9 view .LVU185
 939 003c 01EB8000 		add	r0, r1, r0, lsl #2
 940              		.loc 1 114 11 view .LVU186
 941 0040 03F00705 		and	r5, r3, #7
 942              	.LVL37:
 943              		.loc 1 115 9 is_stmt 1 view .LVU187
 944 0044 9047     		blx	r2
 945              	.LVL38:
 946              		.loc 1 116 9 view .LVU188
 947              		.loc 1 116 26 is_stmt 0 view .LVU189
 948 0046 6368     		ldr	r3, [r4, #4]
 949              		.loc 1 117 31 view .LVU190
 950 0048 6570     		strb	r5, [r4, #1]
 951              		.loc 1 116 26 view .LVU191
 952 004a 013B     		subs	r3, r3, #1
 953 004c 6360     		str	r3, [r4, #4]
 954              		.loc 1 117 9 is_stmt 1 view .LVU192
 955              	.LVL39:
 956              	.L88:
 957              		.loc 1 117 9 is_stmt 0 view .LVU193
 958              	.LBE9:
 959              	.LBE8:
 960              		.loc 1 121 1 view .LVU194
 961 004e 0C4B     		ldr	r3, .L98
 962 0050 1A68     		ldr	r2, [r3]
 963 0052 019B     		ldr	r3, [sp, #4]
 964 0054 5A40     		eors	r2, r3, r2
 965 0056 11D1     		bne	.L95
 966 0058 03B0     		add	sp, sp, #12
 967              		.cfi_remember_state
 968              		.cfi_def_cfa_offset 12
 969              		@ sp needed
ARM GAS  /tmp/ccdaS0Ho.s 			page 18


 970 005a 30BD     		pop	{r4, r5, pc}
 971              	.LVL40:
 972              	.L96:
 973              		.cfi_restore_state
 974              		.loc 1 109 9 is_stmt 1 view .LVU195
 975              		.loc 1 109 36 is_stmt 0 view .LVU196
 976 005c 6378     		ldrb	r3, [r4, #1]	@ zero_extendqisi2
 977              		.loc 1 110 37 view .LVU197
 978 005e 0B49     		ldr	r1, .L98+12
 979              		.loc 1 110 9 view .LVU198
 980 0060 A268     		ldr	r2, [r4, #8]
 981              		.loc 1 109 36 view .LVU199
 982 0062 0133     		adds	r3, r3, #1
 983              		.loc 1 110 37 view .LVU200
 984 0064 03F00700 		and	r0, r3, #7
 985              	.LVL41:
 986              		.loc 1 110 9 view .LVU201
 987 0068 01EB8000 		add	r0, r1, r0, lsl #2
 988              		.loc 1 109 11 view .LVU202
 989 006c 03F00705 		and	r5, r3, #7
 990              	.LVL42:
 991              		.loc 1 110 9 is_stmt 1 view .LVU203
 992 0070 9047     		blx	r2
 993              	.LVL43:
 994              		.loc 1 111 9 view .LVU204
 995              		.loc 1 111 26 is_stmt 0 view .LVU205
 996 0072 6368     		ldr	r3, [r4, #4]
 997              		.loc 1 112 31 view .LVU206
 998 0074 6570     		strb	r5, [r4, #1]
 999              		.loc 1 111 26 view .LVU207
 1000 0076 0133     		adds	r3, r3, #1
 1001 0078 6360     		str	r3, [r4, #4]
 1002              		.loc 1 112 9 is_stmt 1 view .LVU208
 1003 007a E8E7     		b	.L88
 1004              	.LVL44:
 1005              	.L95:
 1006              		.loc 1 121 1 is_stmt 0 view .LVU209
 1007 007c FFF7FEFF 		bl	__stack_chk_fail
 1008              	.LVL45:
 1009              	.L99:
 1010              		.align	2
 1011              	.L98:
 1012 0080 00000000 		.word	.LC9
 1013 0084 00000000 		.word	.LANCHOR3
 1014 0088 00000000 		.word	.LANCHOR2
 1015 008c 00000000 		.word	.LANCHOR1
 1016              		.cfi_endproc
 1017              	.LFE259:
 1018              		.size	left_motor_timer_callback, .-left_motor_timer_callback
 1019              		.section	.rodata.motor_set_speed.cst4,"aM",%progbits,4
 1020              		.align	2
 1021              	.LC10:
 1022 0000 00000000 		.word	__stack_chk_guard
 1023              		.section	.text.motor_set_speed,"ax",%progbits
 1024              		.align	1
 1025              		.p2align 4,,15
 1026              		.global	motor_set_speed
ARM GAS  /tmp/ccdaS0Ho.s 			page 19


 1027              		.syntax unified
 1028              		.thumb
 1029              		.thumb_func
 1030              		.fpu fpv4-sp-d16
 1031              		.type	motor_set_speed, %function
 1032              	motor_set_speed:
 1033              	.LVL46:
 1034              	.LFB266:
 1035              		.loc 1 194 1 is_stmt 1 view -0
 1036              		.cfi_startproc
 1037              		@ args = 0, pretend = 0, frame = 8
 1038              		@ frame_needed = 0, uses_anonymous_args = 0
 1039              		.loc 1 194 1 is_stmt 0 view .LVU211
 1040 0000 1B4B     		ldr	r3, .L110
 1041 0002 1C4A     		ldr	r2, .L110+4
 1042 0004 9942     		cmp	r1, r3
 1043 0006 30B5     		push	{r4, r5, lr}
 1044              		.cfi_def_cfa_offset 12
 1045              		.cfi_offset 4, -12
 1046              		.cfi_offset 5, -8
 1047              		.cfi_offset 14, -4
 1048 0008 B8BF     		it	lt
 1049 000a 1946     		movlt	r1, r3
 1050              	.LVL47:
 1051              		.loc 1 194 1 view .LVU212
 1052 000c 40F24C43 		movw	r3, #1100
 1053 0010 9942     		cmp	r1, r3
 1054 0012 A8BF     		it	ge
 1055 0014 1946     		movge	r1, r3
 1056              		.loc 1 203 11 view .LVU213
 1057 0016 4B00     		lsls	r3, r1, #1
 1058              		.loc 1 194 1 view .LVU214
 1059 0018 83B0     		sub	sp, sp, #12
 1060              		.cfi_def_cfa_offset 24
 1061              		.loc 1 206 8 view .LVU215
 1062 001a 002B     		cmp	r3, #0
 1063              		.loc 1 194 1 view .LVU216
 1064 001c 1268     		ldr	r2, [r2]
 1065 001e 0192     		str	r2, [sp, #4]
 1066 0020 4FF00002 		mov	r2,#0
 1067              		.loc 1 196 5 is_stmt 1 view .LVU217
 1068              	.LVL48:
 1069              		.loc 1 203 5 view .LVU218
 1070              		.loc 1 205 5 view .LVU219
 1071              		.loc 1 206 5 view .LVU220
 1072              		.loc 1 194 1 is_stmt 0 view .LVU221
 1073 0024 0446     		mov	r4, r0
 1074              		.loc 1 206 8 view .LVU222
 1075 0026 0FD1     		bne	.L101
 1076              		.loc 1 207 9 is_stmt 1 view .LVU223
 1077              		.loc 1 207 22 is_stmt 0 view .LVU224
 1078 0028 0370     		strb	r3, [r0]
 1079              		.loc 1 209 9 is_stmt 1 view .LVU225
 1080              	.LVL49:
 1081              		.loc 1 210 9 view .LVU226
 1082 002a 0369     		ldr	r3, [r0, #16]
 1083              	.LVL50:
ARM GAS  /tmp/ccdaS0Ho.s 			page 20


 1084              		.loc 1 210 9 is_stmt 0 view .LVU227
 1085 002c 9847     		blx	r3
 1086              	.LVL51:
 1087              		.loc 1 210 9 view .LVU228
 1088 002e 4FF47A71 		mov	r1, #1000
 1089              	.LVL52:
 1090              	.L102:
 1091              		.loc 1 228 5 is_stmt 1 view .LVU229
 1092 0032 104B     		ldr	r3, .L110+4
 1093 0034 1A68     		ldr	r2, [r3]
 1094 0036 019B     		ldr	r3, [sp, #4]
 1095 0038 5A40     		eors	r2, r3, r2
 1096 003a 17D1     		bne	.L109
 1097 003c 6069     		ldr	r0, [r4, #20]
 1098              		.loc 1 229 1 is_stmt 0 view .LVU230
 1099 003e 03B0     		add	sp, sp, #12
 1100              		.cfi_remember_state
 1101              		.cfi_def_cfa_offset 12
 1102              		@ sp needed
 1103 0040 BDE83040 		pop	{r4, r5, lr}
 1104              		.cfi_restore 14
 1105              		.cfi_restore 5
 1106              		.cfi_restore 4
 1107              		.cfi_def_cfa_offset 0
 1108              	.LVL53:
 1109              		.loc 1 228 5 view .LVU231
 1110 0044 FFF7FEBF 		b	pwmChangePeriod
 1111              	.LVL54:
 1112              	.L101:
 1113              		.cfi_restore_state
 1114              		.loc 1 212 9 is_stmt 1 view .LVU232
 1115              		.loc 1 215 13 view .LVU233
 1116              		.loc 1 216 13 view .LVU234
 1117              		.loc 1 216 19 is_stmt 0 view .LVU235
 1118 0048 D8BF     		it	le
 1119 004a 5B42     		rsble	r3, r3, #0
 1120              	.LVL55:
 1121              		.loc 1 220 11 view .LVU236
 1122 004c 40F28922 		movw	r2, #649
 1123              		.loc 1 215 26 view .LVU237
 1124 0050 D4BF     		ite	le
 1125 0052 0221     		movle	r1, #2
 1126              		.loc 1 213 26 view .LVU238
 1127 0054 0121     		movgt	r1, #1
 1128              		.loc 1 220 11 view .LVU239
 1129 0056 9342     		cmp	r3, r2
 1130 0058 0170     		strb	r1, [r0]
 1131              		.loc 1 218 9 is_stmt 1 view .LVU240
 1132              		.loc 1 218 37 is_stmt 0 view .LVU241
 1133 005a 074D     		ldr	r5, .L110+8
 1134 005c B5FBF3F5 		udiv	r5, r5, r3
 1135              	.LVL56:
 1136              		.loc 1 220 9 is_stmt 1 view .LVU242
 1137              		.loc 1 221 10 view .LVU243
 1138 0060 D4BF     		ite	le
 1139 0062 C368     		ldrle	r3, [r0, #12]
 1140              	.LVL57:
ARM GAS  /tmp/ccdaS0Ho.s 			page 21


 1141              		.loc 1 223 10 view .LVU244
 1142 0064 0369     		ldrgt	r3, [r0, #16]
 1143 0066 9847     		blx	r3
 1144              	.LVL58:
 1145              		.loc 1 223 10 is_stmt 0 view .LVU245
 1146 0068 A9B2     		uxth	r1, r5
 1147 006a E2E7     		b	.L102
 1148              	.LVL59:
 1149              	.L109:
 1150              		.loc 1 228 5 view .LVU246
 1151 006c FFF7FEFF 		bl	__stack_chk_fail
 1152              	.LVL60:
 1153              	.L111:
 1154              		.align	2
 1155              	.L110:
 1156 0070 B4FBFFFF 		.word	-1100
 1157 0074 00000000 		.word	.LC10
 1158 0078 A0860100 		.word	100000
 1159              		.cfi_endproc
 1160              	.LFE266:
 1161              		.size	motor_set_speed, .-motor_set_speed
 1162              		.section	.rodata.left_motor_set_speed.cst4,"aM",%progbits,4
 1163              		.align	2
 1164              	.LC11:
 1165 0000 00000000 		.word	__stack_chk_guard
 1166              		.section	.text.left_motor_set_speed,"ax",%progbits
 1167              		.align	1
 1168              		.p2align 4,,15
 1169              		.global	left_motor_set_speed
 1170              		.syntax unified
 1171              		.thumb
 1172              		.thumb_func
 1173              		.fpu fpv4-sp-d16
 1174              		.type	left_motor_set_speed, %function
 1175              	left_motor_set_speed:
 1176              	.LVL61:
 1177              	.LFB267:
 1178              		.loc 1 236 38 is_stmt 1 view -0
 1179              		.cfi_startproc
 1180              		@ args = 0, pretend = 0, frame = 8
 1181              		@ frame_needed = 0, uses_anonymous_args = 0
 1182              		.loc 1 236 38 is_stmt 0 view .LVU248
 1183 0000 00B5     		push	{lr}
 1184              		.cfi_def_cfa_offset 4
 1185              		.cfi_offset 14, -4
 1186 0002 0A4B     		ldr	r3, .L117
 1187 0004 83B0     		sub	sp, sp, #12
 1188              		.cfi_def_cfa_offset 16
 1189              		.loc 1 236 38 view .LVU249
 1190 0006 1B68     		ldr	r3, [r3]
 1191 0008 0193     		str	r3, [sp, #4]
 1192 000a 4FF00003 		mov	r3,#0
 1193              		.loc 1 237 5 is_stmt 1 view .LVU250
 1194 000e 074B     		ldr	r3, .L117
 1195 0010 1A68     		ldr	r2, [r3]
 1196 0012 019B     		ldr	r3, [sp, #4]
 1197 0014 5A40     		eors	r2, r3, r2
ARM GAS  /tmp/ccdaS0Ho.s 			page 22


 1198 0016 06D1     		bne	.L116
 1199 0018 0146     		mov	r1, r0
 1200 001a 0548     		ldr	r0, .L117+4
 1201              	.LVL62:
 1202              		.loc 1 238 1 is_stmt 0 view .LVU251
 1203 001c 03B0     		add	sp, sp, #12
 1204              		.cfi_remember_state
 1205              		.cfi_def_cfa_offset 4
 1206              		@ sp needed
 1207 001e 5DF804EB 		ldr	lr, [sp], #4
 1208              		.cfi_restore 14
 1209              		.cfi_def_cfa_offset 0
 1210              		.loc 1 237 5 view .LVU252
 1211 0022 FFF7FEBF 		b	motor_set_speed
 1212              	.LVL63:
 1213              	.L116:
 1214              		.cfi_restore_state
 1215              		.loc 1 237 5 view .LVU253
 1216 0026 FFF7FEFF 		bl	__stack_chk_fail
 1217              	.LVL64:
 1218              	.L118:
 1219              		.loc 1 237 5 view .LVU254
 1220 002a 00BF     		.align	2
 1221              	.L117:
 1222 002c 00000000 		.word	.LC11
 1223 0030 00000000 		.word	.LANCHOR3
 1224              		.cfi_endproc
 1225              	.LFE267:
 1226              		.size	left_motor_set_speed, .-left_motor_set_speed
 1227              		.section	.rodata.right_motor_set_speed.cst4,"aM",%progbits,4
 1228              		.align	2
 1229              	.LC12:
 1230 0000 00000000 		.word	__stack_chk_guard
 1231              		.section	.text.right_motor_set_speed,"ax",%progbits
 1232              		.align	1
 1233              		.p2align 4,,15
 1234              		.global	right_motor_set_speed
 1235              		.syntax unified
 1236              		.thumb
 1237              		.thumb_func
 1238              		.fpu fpv4-sp-d16
 1239              		.type	right_motor_set_speed, %function
 1240              	right_motor_set_speed:
 1241              	.LVL65:
 1242              	.LFB268:
 1243              		.loc 1 240 39 is_stmt 1 view -0
 1244              		.cfi_startproc
 1245              		@ args = 0, pretend = 0, frame = 8
 1246              		@ frame_needed = 0, uses_anonymous_args = 0
 1247              		.loc 1 240 39 is_stmt 0 view .LVU256
 1248 0000 00B5     		push	{lr}
 1249              		.cfi_def_cfa_offset 4
 1250              		.cfi_offset 14, -4
 1251 0002 0A4B     		ldr	r3, .L124
 1252 0004 83B0     		sub	sp, sp, #12
 1253              		.cfi_def_cfa_offset 16
 1254              		.loc 1 240 39 view .LVU257
ARM GAS  /tmp/ccdaS0Ho.s 			page 23


 1255 0006 1B68     		ldr	r3, [r3]
 1256 0008 0193     		str	r3, [sp, #4]
 1257 000a 4FF00003 		mov	r3,#0
 1258              		.loc 1 241 2 is_stmt 1 view .LVU258
 1259 000e 074B     		ldr	r3, .L124
 1260 0010 1A68     		ldr	r2, [r3]
 1261 0012 019B     		ldr	r3, [sp, #4]
 1262 0014 5A40     		eors	r2, r3, r2
 1263 0016 06D1     		bne	.L123
 1264 0018 0146     		mov	r1, r0
 1265 001a 0548     		ldr	r0, .L124+4
 1266              	.LVL66:
 1267              		.loc 1 242 1 is_stmt 0 view .LVU259
 1268 001c 03B0     		add	sp, sp, #12
 1269              		.cfi_remember_state
 1270              		.cfi_def_cfa_offset 4
 1271              		@ sp needed
 1272 001e 5DF804EB 		ldr	lr, [sp], #4
 1273              		.cfi_restore 14
 1274              		.cfi_def_cfa_offset 0
 1275              		.loc 1 241 2 view .LVU260
 1276 0022 FFF7FEBF 		b	motor_set_speed
 1277              	.LVL67:
 1278              	.L123:
 1279              		.cfi_restore_state
 1280              		.loc 1 241 2 view .LVU261
 1281 0026 FFF7FEFF 		bl	__stack_chk_fail
 1282              	.LVL68:
 1283              	.L125:
 1284              		.loc 1 241 2 view .LVU262
 1285 002a 00BF     		.align	2
 1286              	.L124:
 1287 002c 00000000 		.word	.LC12
 1288 0030 00000000 		.word	.LANCHOR0
 1289              		.cfi_endproc
 1290              	.LFE268:
 1291              		.size	right_motor_set_speed, .-right_motor_set_speed
 1292              		.section	.rodata.left_motor_get_pos.cst4,"aM",%progbits,4
 1293              		.align	2
 1294              	.LC13:
 1295 0000 00000000 		.word	__stack_chk_guard
 1296              		.section	.text.left_motor_get_pos,"ax",%progbits
 1297              		.align	1
 1298              		.p2align 4,,15
 1299              		.global	left_motor_get_pos
 1300              		.syntax unified
 1301              		.thumb
 1302              		.thumb_func
 1303              		.fpu fpv4-sp-d16
 1304              		.type	left_motor_get_pos, %function
 1305              	left_motor_get_pos:
 1306              	.LFB269:
 1307              		.loc 1 244 34 is_stmt 1 view -0
 1308              		.cfi_startproc
 1309              		@ args = 0, pretend = 0, frame = 8
 1310              		@ frame_needed = 0, uses_anonymous_args = 0
 1311 0000 00B5     		push	{lr}
ARM GAS  /tmp/ccdaS0Ho.s 			page 24


 1312              		.cfi_def_cfa_offset 4
 1313              		.cfi_offset 14, -4
 1314              		.loc 1 245 22 is_stmt 0 view .LVU264
 1315 0002 0A4B     		ldr	r3, .L130
 1316              		.loc 1 244 34 view .LVU265
 1317 0004 0A4A     		ldr	r2, .L130+4
 1318              		.loc 1 245 28 view .LVU266
 1319 0006 5868     		ldr	r0, [r3, #4]
 1320              		.loc 1 246 1 view .LVU267
 1321 0008 094B     		ldr	r3, .L130+4
 1322              		.loc 1 244 34 view .LVU268
 1323 000a 83B0     		sub	sp, sp, #12
 1324              		.cfi_def_cfa_offset 16
 1325              		.loc 1 244 34 view .LVU269
 1326 000c 1268     		ldr	r2, [r2]
 1327 000e 0192     		str	r2, [sp, #4]
 1328 0010 4FF00002 		mov	r2,#0
 1329              		.loc 1 245 5 is_stmt 1 view .LVU270
 1330              		.loc 1 246 1 is_stmt 0 view .LVU271
 1331 0014 1A68     		ldr	r2, [r3]
 1332 0016 019B     		ldr	r3, [sp, #4]
 1333 0018 5A40     		eors	r2, r3, r2
 1334              		.loc 1 245 28 view .LVU272
 1335 001a 00EBD070 		add	r0, r0, r0, lsr #31
 1336              		.loc 1 246 1 view .LVU273
 1337 001e 03D1     		bne	.L129
 1338 0020 4010     		asrs	r0, r0, #1
 1339 0022 03B0     		add	sp, sp, #12
 1340              		.cfi_remember_state
 1341              		.cfi_def_cfa_offset 4
 1342              		@ sp needed
 1343 0024 5DF804FB 		ldr	pc, [sp], #4
 1344              	.L129:
 1345              		.cfi_restore_state
 1346 0028 FFF7FEFF 		bl	__stack_chk_fail
 1347              	.LVL69:
 1348              	.L131:
 1349              		.align	2
 1350              	.L130:
 1351 002c 00000000 		.word	.LANCHOR3
 1352 0030 00000000 		.word	.LC13
 1353              		.cfi_endproc
 1354              	.LFE269:
 1355              		.size	left_motor_get_pos, .-left_motor_get_pos
 1356              		.section	.rodata.right_motor_get_pos.cst4,"aM",%progbits,4
 1357              		.align	2
 1358              	.LC14:
 1359 0000 00000000 		.word	__stack_chk_guard
 1360              		.section	.text.right_motor_get_pos,"ax",%progbits
 1361              		.align	1
 1362              		.p2align 4,,15
 1363              		.global	right_motor_get_pos
 1364              		.syntax unified
 1365              		.thumb
 1366              		.thumb_func
 1367              		.fpu fpv4-sp-d16
 1368              		.type	right_motor_get_pos, %function
ARM GAS  /tmp/ccdaS0Ho.s 			page 25


 1369              	right_motor_get_pos:
 1370              	.LFB270:
 1371              		.loc 1 248 35 is_stmt 1 view -0
 1372              		.cfi_startproc
 1373              		@ args = 0, pretend = 0, frame = 8
 1374              		@ frame_needed = 0, uses_anonymous_args = 0
 1375 0000 00B5     		push	{lr}
 1376              		.cfi_def_cfa_offset 4
 1377              		.cfi_offset 14, -4
 1378              		.loc 1 249 20 is_stmt 0 view .LVU275
 1379 0002 0A4B     		ldr	r3, .L136
 1380              		.loc 1 248 35 view .LVU276
 1381 0004 0A4A     		ldr	r2, .L136+4
 1382              		.loc 1 249 26 view .LVU277
 1383 0006 5868     		ldr	r0, [r3, #4]
 1384              		.loc 1 250 1 view .LVU278
 1385 0008 094B     		ldr	r3, .L136+4
 1386              		.loc 1 248 35 view .LVU279
 1387 000a 83B0     		sub	sp, sp, #12
 1388              		.cfi_def_cfa_offset 16
 1389              		.loc 1 248 35 view .LVU280
 1390 000c 1268     		ldr	r2, [r2]
 1391 000e 0192     		str	r2, [sp, #4]
 1392 0010 4FF00002 		mov	r2,#0
 1393              		.loc 1 249 2 is_stmt 1 view .LVU281
 1394              		.loc 1 250 1 is_stmt 0 view .LVU282
 1395 0014 1A68     		ldr	r2, [r3]
 1396 0016 019B     		ldr	r3, [sp, #4]
 1397 0018 5A40     		eors	r2, r3, r2
 1398              		.loc 1 249 26 view .LVU283
 1399 001a 00EBD070 		add	r0, r0, r0, lsr #31
 1400              		.loc 1 250 1 view .LVU284
 1401 001e 03D1     		bne	.L135
 1402 0020 4010     		asrs	r0, r0, #1
 1403 0022 03B0     		add	sp, sp, #12
 1404              		.cfi_remember_state
 1405              		.cfi_def_cfa_offset 4
 1406              		@ sp needed
 1407 0024 5DF804FB 		ldr	pc, [sp], #4
 1408              	.L135:
 1409              		.cfi_restore_state
 1410 0028 FFF7FEFF 		bl	__stack_chk_fail
 1411              	.LVL70:
 1412              	.L137:
 1413              		.align	2
 1414              	.L136:
 1415 002c 00000000 		.word	.LANCHOR0
 1416 0030 00000000 		.word	.LC14
 1417              		.cfi_endproc
 1418              	.LFE270:
 1419              		.size	right_motor_get_pos, .-right_motor_get_pos
 1420              		.section	.rodata.left_motor_set_pos.cst4,"aM",%progbits,4
 1421              		.align	2
 1422              	.LC15:
 1423 0000 00000000 		.word	__stack_chk_guard
 1424              		.section	.text.left_motor_set_pos,"ax",%progbits
 1425              		.align	1
ARM GAS  /tmp/ccdaS0Ho.s 			page 26


 1426              		.p2align 4,,15
 1427              		.global	left_motor_set_pos
 1428              		.syntax unified
 1429              		.thumb
 1430              		.thumb_func
 1431              		.fpu fpv4-sp-d16
 1432              		.type	left_motor_set_pos, %function
 1433              	left_motor_set_pos:
 1434              	.LVL71:
 1435              	.LFB271:
 1436              		.loc 1 252 47 is_stmt 1 view -0
 1437              		.cfi_startproc
 1438              		@ args = 0, pretend = 0, frame = 8
 1439              		@ frame_needed = 0, uses_anonymous_args = 0
 1440              		.loc 1 252 47 is_stmt 0 view .LVU286
 1441 0000 00B5     		push	{lr}
 1442              		.cfi_def_cfa_offset 4
 1443              		.cfi_offset 14, -4
 1444              		.loc 1 253 22 view .LVU287
 1445 0002 094B     		ldr	r3, .L142
 1446              		.loc 1 252 47 view .LVU288
 1447 0004 094A     		ldr	r2, .L142+4
 1448 0006 83B0     		sub	sp, sp, #12
 1449              		.cfi_def_cfa_offset 16
 1450              		.loc 1 253 37 view .LVU289
 1451 0008 4000     		lsls	r0, r0, #1
 1452              	.LVL72:
 1453              		.loc 1 252 47 view .LVU290
 1454 000a 1268     		ldr	r2, [r2]
 1455 000c 0192     		str	r2, [sp, #4]
 1456 000e 4FF00002 		mov	r2,#0
 1457              		.loc 1 253 5 is_stmt 1 view .LVU291
 1458              		.loc 1 253 22 is_stmt 0 view .LVU292
 1459 0012 5860     		str	r0, [r3, #4]
 1460              		.loc 1 254 1 view .LVU293
 1461 0014 054B     		ldr	r3, .L142+4
 1462 0016 1A68     		ldr	r2, [r3]
 1463 0018 019B     		ldr	r3, [sp, #4]
 1464 001a 5A40     		eors	r2, r3, r2
 1465 001c 02D1     		bne	.L141
 1466 001e 03B0     		add	sp, sp, #12
 1467              		.cfi_remember_state
 1468              		.cfi_def_cfa_offset 4
 1469              		@ sp needed
 1470 0020 5DF804FB 		ldr	pc, [sp], #4
 1471              	.L141:
 1472              		.cfi_restore_state
 1473 0024 FFF7FEFF 		bl	__stack_chk_fail
 1474              	.LVL73:
 1475              	.L143:
 1476              		.align	2
 1477              	.L142:
 1478 0028 00000000 		.word	.LANCHOR3
 1479 002c 00000000 		.word	.LC15
 1480              		.cfi_endproc
 1481              	.LFE271:
 1482              		.size	left_motor_set_pos, .-left_motor_set_pos
ARM GAS  /tmp/ccdaS0Ho.s 			page 27


 1483              		.section	.rodata.right_motor_set_pos.cst4,"aM",%progbits,4
 1484              		.align	2
 1485              	.LC16:
 1486 0000 00000000 		.word	__stack_chk_guard
 1487              		.section	.text.right_motor_set_pos,"ax",%progbits
 1488              		.align	1
 1489              		.p2align 4,,15
 1490              		.global	right_motor_set_pos
 1491              		.syntax unified
 1492              		.thumb
 1493              		.thumb_func
 1494              		.fpu fpv4-sp-d16
 1495              		.type	right_motor_set_pos, %function
 1496              	right_motor_set_pos:
 1497              	.LVL74:
 1498              	.LFB272:
 1499              		.loc 1 256 48 is_stmt 1 view -0
 1500              		.cfi_startproc
 1501              		@ args = 0, pretend = 0, frame = 8
 1502              		@ frame_needed = 0, uses_anonymous_args = 0
 1503              		.loc 1 256 48 is_stmt 0 view .LVU295
 1504 0000 00B5     		push	{lr}
 1505              		.cfi_def_cfa_offset 4
 1506              		.cfi_offset 14, -4
 1507              		.loc 1 257 23 view .LVU296
 1508 0002 094B     		ldr	r3, .L148
 1509              		.loc 1 256 48 view .LVU297
 1510 0004 094A     		ldr	r2, .L148+4
 1511 0006 83B0     		sub	sp, sp, #12
 1512              		.cfi_def_cfa_offset 16
 1513              		.loc 1 257 38 view .LVU298
 1514 0008 4000     		lsls	r0, r0, #1
 1515              	.LVL75:
 1516              		.loc 1 256 48 view .LVU299
 1517 000a 1268     		ldr	r2, [r2]
 1518 000c 0192     		str	r2, [sp, #4]
 1519 000e 4FF00002 		mov	r2,#0
 1520              		.loc 1 257 5 is_stmt 1 view .LVU300
 1521              		.loc 1 257 23 is_stmt 0 view .LVU301
 1522 0012 5860     		str	r0, [r3, #4]
 1523              		.loc 1 258 1 view .LVU302
 1524 0014 054B     		ldr	r3, .L148+4
 1525 0016 1A68     		ldr	r2, [r3]
 1526 0018 019B     		ldr	r3, [sp, #4]
 1527 001a 5A40     		eors	r2, r3, r2
 1528 001c 02D1     		bne	.L147
 1529 001e 03B0     		add	sp, sp, #12
 1530              		.cfi_remember_state
 1531              		.cfi_def_cfa_offset 4
 1532              		@ sp needed
 1533 0020 5DF804FB 		ldr	pc, [sp], #4
 1534              	.L147:
 1535              		.cfi_restore_state
 1536 0024 FFF7FEFF 		bl	__stack_chk_fail
 1537              	.LVL76:
 1538              	.L149:
 1539              		.align	2
ARM GAS  /tmp/ccdaS0Ho.s 			page 28


 1540              	.L148:
 1541 0028 00000000 		.word	.LANCHOR0
 1542 002c 00000000 		.word	.LC16
 1543              		.cfi_endproc
 1544              	.LFE272:
 1545              		.size	right_motor_set_pos, .-right_motor_set_pos
 1546              		.section	.rodata.motors_init.cst4,"aM",%progbits,4
 1547              		.align	2
 1548              	.LC17:
 1549 0000 00000000 		.word	__stack_chk_guard
 1550              		.section	.text.motors_init,"ax",%progbits
 1551              		.align	1
 1552              		.p2align 4,,15
 1553              		.global	motors_init
 1554              		.syntax unified
 1555              		.thumb
 1556              		.thumb_func
 1557              		.fpu fpv4-sp-d16
 1558              		.type	motors_init, %function
 1559              	motors_init:
 1560              	.LFB273:
 1561              		.loc 1 261 1 is_stmt 1 view -0
 1562              		.cfi_startproc
 1563              		@ args = 0, pretend = 0, frame = 8
 1564              		@ frame_needed = 0, uses_anonymous_args = 0
 1565 0000 70B5     		push	{r4, r5, r6, lr}
 1566              		.cfi_def_cfa_offset 16
 1567              		.cfi_offset 4, -16
 1568              		.cfi_offset 5, -12
 1569              		.cfi_offset 6, -8
 1570              		.cfi_offset 14, -4
 1571              		.loc 1 263 27 is_stmt 0 view .LVU304
 1572 0002 1D4A     		ldr	r2, .L155
 1573              		.loc 1 261 1 view .LVU305
 1574 0004 1D4E     		ldr	r6, .L155+4
 1575              		.loc 1 266 24 view .LVU306
 1576 0006 1E49     		ldr	r1, .L155+8
 1577              		.loc 1 271 26 view .LVU307
 1578 0008 1E4B     		ldr	r3, .L155+12
 1579              		.loc 1 269 23 view .LVU308
 1580 000a 1F4C     		ldr	r4, .L155+16
 1581              		.loc 1 267 35 view .LVU309
 1582 000c 1F48     		ldr	r0, .L155+20
 1583              		.loc 1 268 36 view .LVU310
 1584 000e 204D     		ldr	r5, .L155+24
 1585              		.loc 1 261 1 view .LVU311
 1586 0010 82B0     		sub	sp, sp, #8
 1587              		.cfi_def_cfa_offset 24
 1588              		.loc 1 261 1 view .LVU312
 1589 0012 3668     		ldr	r6, [r6]
 1590 0014 0196     		str	r6, [sp, #4]
 1591 0016 4FF00006 		mov	r6,#0
 1592              		.loc 1 263 5 is_stmt 1 view .LVU313
 1593              		.loc 1 264 5 view .LVU314
 1594              		.loc 1 266 24 is_stmt 0 view .LVU315
 1595 001a 9160     		str	r1, [r2, #8]
 1596              		.loc 1 263 27 view .LVU316
ARM GAS  /tmp/ccdaS0Ho.s 			page 29


 1597 001c 0021     		movs	r1, #0
 1598 001e 1180     		strh	r1, [r2]	@ movhi
 1599              		.loc 1 265 5 is_stmt 1 view .LVU317
 1600              		.loc 1 265 23 is_stmt 0 view .LVU318
 1601 0020 5160     		str	r1, [r2, #4]
 1602              		.loc 1 266 5 is_stmt 1 view .LVU319
 1603              		.loc 1 267 5 view .LVU320
 1604              		.loc 1 268 5 view .LVU321
 1605              		.loc 1 269 5 view .LVU322
 1606              		.loc 1 267 35 is_stmt 0 view .LVU323
 1607 0022 D060     		str	r0, [r2, #12]
 1608              		.loc 1 268 36 view .LVU324
 1609 0024 1561     		str	r5, [r2, #16]
 1610              		.loc 1 274 23 view .LVU325
 1611 0026 1B48     		ldr	r0, .L155+28
 1612              		.loc 1 269 23 view .LVU326
 1613 0028 5461     		str	r4, [r2, #20]
 1614              		.loc 1 271 5 is_stmt 1 view .LVU327
 1615              		.loc 1 272 5 view .LVU328
 1616              		.loc 1 275 34 is_stmt 0 view .LVU329
 1617 002a 1B4E     		ldr	r6, .L155+32
 1618              		.loc 1 276 35 view .LVU330
 1619 002c 1B4A     		ldr	r2, .L155+36
 1620              		.loc 1 271 26 view .LVU331
 1621 002e 1980     		strh	r1, [r3]	@ movhi
 1622              		.loc 1 273 5 is_stmt 1 view .LVU332
 1623              		.loc 1 274 23 is_stmt 0 view .LVU333
 1624 0030 9860     		str	r0, [r3, #8]
 1625              		.loc 1 277 22 view .LVU334
 1626 0032 1B4D     		ldr	r5, .L155+40
 1627              		.loc 1 280 5 view .LVU335
 1628 0034 1B48     		ldr	r0, .L155+44
 1629              		.loc 1 273 22 view .LVU336
 1630 0036 5960     		str	r1, [r3, #4]
 1631              		.loc 1 274 5 is_stmt 1 view .LVU337
 1632              		.loc 1 275 5 view .LVU338
 1633              		.loc 1 276 35 is_stmt 0 view .LVU339
 1634 0038 C3E90362 		strd	r6, r2, [r3, #12]
 1635              		.loc 1 277 5 is_stmt 1 view .LVU340
 1636              		.loc 1 277 22 is_stmt 0 view .LVU341
 1637 003c 5D61     		str	r5, [r3, #20]
 1638              		.loc 1 280 5 is_stmt 1 view .LVU342
 1639 003e FFF7FEFF 		bl	right_motor_update
 1640              	.LVL77:
 1641              		.loc 1 281 5 view .LVU343
 1642 0042 1848     		ldr	r0, .L155+44
 1643 0044 FFF7FEFF 		bl	left_motor_update
 1644              	.LVL78:
 1645              		.loc 1 284 5 view .LVU344
 1646              		.loc 1 297 5 view .LVU345
 1647 0048 1749     		ldr	r1, .L155+48
 1648 004a 2046     		mov	r0, r4
 1649 004c FFF7FEFF 		bl	pwmStart
 1650              	.LVL79:
 1651              		.loc 1 298 5 view .LVU346
 1652 0050 2046     		mov	r0, r4
 1653 0052 FFF7FEFF 		bl	pwmEnablePeriodicNotification
ARM GAS  /tmp/ccdaS0Ho.s 			page 30


 1654              	.LVL80:
 1655              		.loc 1 300 5 view .LVU347
 1656              		.loc 1 313 5 view .LVU348
 1657 0056 1549     		ldr	r1, .L155+52
 1658 0058 2846     		mov	r0, r5
 1659 005a FFF7FEFF 		bl	pwmStart
 1660              	.LVL81:
 1661              		.loc 1 314 5 view .LVU349
 1662 005e 074B     		ldr	r3, .L155+4
 1663 0060 1A68     		ldr	r2, [r3]
 1664 0062 019B     		ldr	r3, [sp, #4]
 1665 0064 5A40     		eors	r2, r3, r2
 1666 0066 05D1     		bne	.L154
 1667 0068 2846     		mov	r0, r5
 1668              		.loc 1 316 1 is_stmt 0 view .LVU350
 1669 006a 02B0     		add	sp, sp, #8
 1670              		.cfi_remember_state
 1671              		.cfi_def_cfa_offset 16
 1672              		@ sp needed
 1673 006c BDE87040 		pop	{r4, r5, r6, lr}
 1674              		.cfi_restore 14
 1675              		.cfi_restore 6
 1676              		.cfi_restore 5
 1677              		.cfi_restore 4
 1678              		.cfi_def_cfa_offset 0
 1679              		.loc 1 314 5 view .LVU351
 1680 0070 FFF7FEBF 		b	pwmEnablePeriodicNotification
 1681              	.LVL82:
 1682              	.L154:
 1683              		.cfi_restore_state
 1684 0074 FFF7FEFF 		bl	__stack_chk_fail
 1685              	.LVL83:
 1686              	.L156:
 1687              		.align	2
 1688              	.L155:
 1689 0078 00000000 		.word	.LANCHOR0
 1690 007c 00000000 		.word	.LC17
 1691 0080 00000000 		.word	right_motor_update
 1692 0084 00000000 		.word	.LANCHOR3
 1693 0088 00000000 		.word	PWMD3
 1694 008c 00000000 		.word	right_motor_enable_power_save
 1695 0090 00000000 		.word	right_motor_disable_power_save
 1696 0094 00000000 		.word	left_motor_update
 1697 0098 00000000 		.word	left_motor_enable_power_save
 1698 009c 00000000 		.word	left_motor_disable_power_save
 1699 00a0 00000000 		.word	PWMD4
 1700 00a4 00000000 		.word	.LANCHOR2
 1701 00a8 00000000 		.word	.LANCHOR4
 1702 00ac 00000000 		.word	.LANCHOR5
 1703              		.cfi_endproc
 1704              	.LFE273:
 1705              		.size	motors_init, .-motors_init
 1706              		.global	left_motor
 1707              		.global	right_motor
 1708              		.section	.bss.left_motor,"aw",%nobits
 1709              		.align	2
 1710              		.set	.LANCHOR3,. + 0
ARM GAS  /tmp/ccdaS0Ho.s 			page 31


 1711              		.type	left_motor, %object
 1712              		.size	left_motor, 24
 1713              	left_motor:
 1714 0000 00000000 		.space	24
 1714      00000000 
 1714      00000000 
 1714      00000000 
 1714      00000000 
 1715              		.section	.bss.right_motor,"aw",%nobits
 1716              		.align	2
 1717              		.set	.LANCHOR0,. + 0
 1718              		.type	right_motor, %object
 1719              		.size	right_motor, 24
 1720              	right_motor:
 1721 0000 00000000 		.space	24
 1721      00000000 
 1721      00000000 
 1721      00000000 
 1721      00000000 
 1722              		.section	.rodata.pwmcfg_left_motor.10078,"a"
 1723              		.align	2
 1724              		.set	.LANCHOR5,. + 0
 1725              		.type	pwmcfg_left_motor.10078, %object
 1726              		.size	pwmcfg_left_motor.10078, 52
 1727              	pwmcfg_left_motor.10078:
 1728 0000 A0860100 		.word	100000
 1729 0004 FFFF0000 		.word	65535
 1730 0008 00000000 		.word	left_motor_timer_callback
 1731 000c 01000000 		.word	1
 1732 0010 00000000 		.word	left_motor_pwm_ch1_cb
 1733 0014 00000000 		.word	0
 1734 0018 00000000 		.word	0
 1735 001c 00000000 		.word	0
 1736 0020 00000000 		.word	0
 1737 0024 00000000 		.word	0
 1738 0028 00000000 		.word	0
 1739 002c 00000000 		.word	0
 1740 0030 00000000 		.space	4
 1741              		.section	.rodata.pwmcfg_right_motor.10077,"a"
 1742              		.align	2
 1743              		.set	.LANCHOR4,. + 0
 1744              		.type	pwmcfg_right_motor.10077, %object
 1745              		.size	pwmcfg_right_motor.10077, 52
 1746              	pwmcfg_right_motor.10077:
 1747 0000 A0860100 		.word	100000
 1748 0004 FFFF0000 		.word	65535
 1749 0008 00000000 		.word	right_motor_timer_callback
 1750 000c 01000000 		.word	1
 1751 0010 00000000 		.word	right_motor_pwm_ch1_cb
 1752 0014 00000000 		.word	0
 1753 0018 00000000 		.word	0
 1754 001c 00000000 		.word	0
 1755 0020 00000000 		.word	0
 1756 0024 00000000 		.word	0
 1757 0028 00000000 		.word	0
 1758 002c 00000000 		.word	0
 1759 0030 00000000 		.space	4
ARM GAS  /tmp/ccdaS0Ho.s 			page 32


 1760              		.section	.rodata.step_halt,"a"
 1761              		.align	2
 1762              		.set	.LANCHOR2,. + 0
 1763              		.type	step_halt, %object
 1764              		.size	step_halt, 4
 1765              	step_halt:
 1766 0000 00000000 		.space	4
 1767              		.section	.rodata.step_table,"a"
 1768              		.align	2
 1769              		.set	.LANCHOR1,. + 0
 1770              		.type	step_table, %object
 1771              		.size	step_table, 32
 1772              	step_table:
 1773 0000 01000100 		.ascii	"\001\000\001\000"
 1774 0004 00000100 		.ascii	"\000\000\001\000"
 1775 0008 00010100 		.ascii	"\000\001\001\000"
 1776 000c 00010000 		.ascii	"\000\001\000\000"
 1777 0010 00010001 		.ascii	"\000\001\000\001"
 1778 0014 00000001 		.ascii	"\000\000\000\001"
 1779 0018 01000001 		.ascii	"\001\000\000\001"
 1780 001c 01000000 		.ascii	"\001\000\000\000"
 1781              		.text
 1782              	.Letext0:
 1783              		.file 2 "/usr/lib/gcc/arm-none-eabi/9.2.1/include/stddef.h"
 1784              		.file 3 "/usr/lib/gcc/arm-none-eabi/9.2.1/include/stdint.h"
 1785              		.file 4 ".//ChibiOS//os/rt/ports/ARMCMx/compilers/GCC/chtypes.h"
 1786              		.file 5 ".//ChibiOS//os/rt/include/chsystypes.h"
 1787              		.file 6 ".//ChibiOS//os/rt/include/chschd.h"
 1788              		.file 7 ".//ChibiOS//os/ext/CMSIS/include/core_cm4.h"
 1789              		.file 8 ".//ChibiOS//os/ext/CMSIS/ST/system_stm32f4xx.h"
 1790              		.file 9 ".//ChibiOS//os/ext/CMSIS/ST/stm32f407xx.h"
 1791              		.file 10 ".//ChibiOS//os/rt/ports/ARMCMx/chcore.h"
 1792              		.file 11 ".//ChibiOS//os/rt/ports/ARMCMx/chcore_v7m.h"
 1793              		.file 12 ".//ChibiOS//os/rt/include/chdebug.h"
 1794              		.file 13 ".//ChibiOS//os/rt/include/chtm.h"
 1795              		.file 14 ".//ChibiOS//os/rt/include/chstats.h"
 1796              		.file 15 ".//ChibiOS//os/rt/include/chsem.h"
 1797              		.file 16 ".//ChibiOS//os/rt/include/chmtx.h"
 1798              		.file 17 ".//ChibiOS//os/rt/include/chregistry.h"
 1799              		.file 18 ".//ChibiOS//os/rt/include/chevents.h"
 1800              		.file 19 ".//ChibiOS//os/rt/include/chqueues.h"
 1801              		.file 20 ".//ChibiOS//os/hal/ports/STM32/STM32F4xx/stm32_dma.h"
 1802              		.file 21 ".//ChibiOS//os/hal/include/hal_ioblock.h"
 1803              		.file 22 ".//ChibiOS//os/hal/ports/STM32/LLD/GPIOv2/pal_lld.h"
 1804              		.file 23 ".//ChibiOS//os/hal/include/adc.h"
 1805              		.file 24 ".//ChibiOS//os/hal/ports/STM32/STM32F4xx/adc_lld.h"
 1806              		.file 25 ".//ChibiOS//os/hal/include/can.h"
 1807              		.file 26 ".//ChibiOS//os/hal/ports/STM32/LLD/can_lld.h"
 1808              		.file 27 ".//ChibiOS//os/hal/include/dac.h"
 1809              		.file 28 ".//ChibiOS//os/hal/ports/STM32/LLD/DACv1/dac_lld.h"
 1810              		.file 29 ".//ChibiOS//os/hal/include/ext.h"
 1811              		.file 30 ".//ChibiOS//os/hal/ports/STM32/LLD/ext_lld.h"
 1812              		.file 31 ".//ChibiOS//os/hal/include/gpt.h"
 1813              		.file 32 ".//ChibiOS//os/hal/ports/STM32/LLD/TIMv1/gpt_lld.h"
 1814              		.file 33 ".//ChibiOS//os/hal/ports/STM32/LLD/TIMv1/stm32_tim.h"
 1815              		.file 34 ".//ChibiOS//os/hal/include/i2c.h"
 1816              		.file 35 ".//ChibiOS//os/hal/ports/STM32/LLD/I2Cv1/i2c_lld.h"
ARM GAS  /tmp/ccdaS0Ho.s 			page 33


 1817              		.file 36 ".//ChibiOS//os/hal/include/i2s.h"
 1818              		.file 37 ".//ChibiOS//os/hal/ports/STM32/LLD/SPIv1/i2s_lld.h"
 1819              		.file 38 ".//ChibiOS//os/hal/include/pwm.h"
 1820              		.file 39 ".//ChibiOS//os/hal/ports/STM32/LLD/TIMv1/pwm_lld.h"
 1821              		.file 40 ".//ChibiOS//os/hal/include/serial.h"
 1822              		.file 41 ".//ChibiOS//os/hal/ports/STM32/LLD/USARTv1/serial_lld.h"
 1823              		.file 42 ".//ChibiOS//os/hal/include/sdc.h"
 1824              		.file 43 ".//ChibiOS//os/hal/ports/STM32/LLD/sdc_lld.h"
 1825              		.file 44 ".//ChibiOS//os/hal/include/spi.h"
 1826              		.file 45 ".//ChibiOS//os/hal/ports/STM32/LLD/SPIv1/spi_lld.h"
 1827              		.file 46 ".//ChibiOS//os/hal/include/usb.h"
 1828              		.file 47 ".//ChibiOS//os/hal/ports/STM32/LLD/OTGv1/usb_lld.h"
 1829              		.file 48 ".//ChibiOS//os/hal/ports/STM32/LLD/OTGv1/stm32_otg.h"