ARM GAS  /tmp/ccocil48.s 			page 1


   1              		.cpu cortex-m4
   2              		.eabi_attribute 27, 1
   3              		.eabi_attribute 28, 1
   4              		.eabi_attribute 20, 1
   5              		.eabi_attribute 21, 1
   6              		.eabi_attribute 23, 3
   7              		.eabi_attribute 24, 1
   8              		.eabi_attribute 25, 1
   9              		.eabi_attribute 26, 1
  10              		.eabi_attribute 30, 2
  11              		.eabi_attribute 34, 1
  12              		.eabi_attribute 18, 4
  13              		.file	"mp45dt02_processing.c"
  14              		.text
  15              	.Ltext0:
  16              		.cfi_sections	.debug_frame
  17              		.section	.rodata.mp45dt02SPICb.cst4,"aM",%progbits,4
  18              		.align	2
  19              	.LC0:
  20 0000 00000000 		.word	__stack_chk_guard
  21              		.section	.text.mp45dt02SPICb,"ax",%progbits
  22              		.align	1
  23              		.p2align 4,,15
  24              		.global	mp45dt02SPICb
  25              		.arch armv7e-m
  26              		.syntax unified
  27              		.thumb
  28              		.thumb_func
  29              		.fpu fpv4-sp-d16
  30              		.type	mp45dt02SPICb, %function
  31              	mp45dt02SPICb:
  32              	.LVL0:
  33              	.LFB259:
  34              		.file 1 ".//src/audio/mp45dt02_processing.c"
  35              		.loc 1 343 72 view -0
  36              		.cfi_startproc
  37              		@ args = 0, pretend = 0, frame = 8
  38              		@ frame_needed = 0, uses_anonymous_args = 0
  39              		.loc 1 343 72 is_stmt 0 view .LVU1
  40 0000 30B5     		push	{r4, r5, lr}
  41              		.cfi_def_cfa_offset 12
  42              		.cfi_offset 4, -12
  43              		.cfi_offset 5, -8
  44              		.cfi_offset 14, -4
  45 0002 124B     		ldr	r3, .L6
  46 0004 83B0     		sub	sp, sp, #12
  47              		.cfi_def_cfa_offset 24
  48              		.loc 1 343 72 view .LVU2
  49 0006 1B68     		ldr	r3, [r3]
  50 0008 0193     		str	r3, [sp, #4]
  51 000a 4FF00003 		mov	r3,#0
  52              		.loc 1 345 3 is_stmt 1 view .LVU3
  53              		.loc 1 346 3 view .LVU4
  54              	.LBB62:
  55              	.LBI62:
  56              		.file 2 ".//ChibiOS//os/rt/include/chsys.h"
  57              		.loc 2 386 20 view .LVU5
ARM GAS  /tmp/ccocil48.s 			page 2


  58              	.LBB63:
  59              		.loc 2 388 3 view .LVU6
  60              	.LBB64:
  61              	.LBI64:
  62              		.file 3 ".//ChibiOS//os/rt/ports/ARMCMx/chcore_v7m.h"
  63              		.loc 3 473 20 view .LVU7
  64              	.LBE64:
  65              	.LBE63:
  66              	.LBE62:
  67              		.loc 3 475 3 view .LVU8
  68              	.LBB78:
  69              	.LBB75:
  70              	.LBB72:
  71              	.LBB65:
  72              	.LBI65:
  73              		.loc 3 444 20 view .LVU9
  74              	.LBE65:
  75              	.LBE72:
  76              	.LBE75:
  77              	.LBE78:
  78              		.loc 3 447 3 view .LVU10
  79              	.LVL1:
  80              	.LBB79:
  81              	.LBB76:
  82              	.LBB73:
  83              	.LBB70:
  84              	.LBB66:
  85              	.LBI66:
  86              		.file 4 ".//ChibiOS//os/ext/CMSIS/include/core_cmFunc.h"
  87              		.loc 4 544 57 view .LVU11
  88              	.LBB67:
  89              		.loc 4 546 3 view .LVU12
  90              	.LBE67:
  91              	.LBE66:
  92              	.LBE70:
  93              	.LBE73:
  94              	.LBE76:
  95              	.LBE79:
  96              		.loc 1 343 72 is_stmt 0 view .LVU13
  97 000e 0D46     		mov	r5, r1
  98 0010 1446     		mov	r4, r2
  99              	.LBB80:
 100              	.LBB77:
 101              	.LBB74:
 102              	.LBB71:
 103              	.LBB69:
 104              	.LBB68:
 105              		.loc 4 546 3 view .LVU14
 106 0012 2023     		movs	r3, #32
 107              		.syntax unified
 108              	@ 546 ".//ChibiOS//os/ext/CMSIS/include/core_cmFunc.h" 1
 109 0014 83F31188 		MSR basepri, r3
 110              	@ 0 "" 2
 111              	.LVL2:
 112              		.loc 4 546 3 view .LVU15
 113              		.thumb
 114              		.syntax unified
ARM GAS  /tmp/ccocil48.s 			page 3


 115              	.LBE68:
 116              	.LBE69:
 117              	.LBE71:
 118              	.LBE74:
 119              		.loc 2 389 3 is_stmt 1 view .LVU16
 120 0018 FFF7FEFF 		bl	_stats_start_measure_crit_isr
 121              	.LVL3:
 122              		.loc 2 390 3 view .LVU17
 123 001c FFF7FEFF 		bl	_dbg_check_lock_from_isr
 124              	.LVL4:
 125              	.LBE77:
 126              	.LBE80:
 127              		.loc 1 347 3 view .LVU18
 128              		.loc 1 347 26 is_stmt 0 view .LVU19
 129 0020 0B4B     		ldr	r3, .L6+4
 130              		.loc 1 349 3 view .LVU20
 131 0022 0C48     		ldr	r0, .L6+8
 132              		.loc 1 348 26 view .LVU21
 133 0024 C3E90054 		strd	r5, r4, [r3]
 134              		.loc 1 349 3 is_stmt 1 view .LVU22
 135 0028 FFF7FEFF 		bl	chSemSignalI
 136              	.LVL5:
 137              		.loc 1 350 3 view .LVU23
 138              	.LBB81:
 139              	.LBI81:
 140              		.loc 2 406 20 view .LVU24
 141              	.LBB82:
 142              		.loc 2 408 3 view .LVU25
 143 002c FFF7FEFF 		bl	_dbg_check_unlock_from_isr
 144              	.LVL6:
 145              		.loc 2 409 3 view .LVU26
 146 0030 FFF7FEFF 		bl	_stats_stop_measure_crit_isr
 147              	.LVL7:
 148              		.loc 2 410 3 view .LVU27
 149              	.LBB83:
 150              	.LBI83:
 151              		.loc 3 484 20 view .LVU28
 152              	.LBE83:
 153              	.LBE82:
 154              	.LBE81:
 155              		.loc 3 486 3 view .LVU29
 156              	.LBB92:
 157              	.LBB90:
 158              	.LBB88:
 159              	.LBB84:
 160              	.LBI84:
 161              		.loc 3 458 20 view .LVU30
 162              	.LBE84:
 163              	.LBE88:
 164              	.LBE90:
 165              	.LBE92:
 166              		.loc 3 461 3 view .LVU31
 167              	.LBB93:
 168              	.LBB91:
 169              	.LBB89:
 170              	.LBB87:
 171              	.LBB85:
ARM GAS  /tmp/ccocil48.s 			page 4


 172              	.LBI85:
 173              		.loc 4 544 57 view .LVU32
 174              	.LBB86:
 175              		.loc 4 546 3 view .LVU33
 176 0034 0023     		movs	r3, #0
 177              		.syntax unified
 178              	@ 546 ".//ChibiOS//os/ext/CMSIS/include/core_cmFunc.h" 1
 179 0036 83F31188 		MSR basepri, r3
 180              	@ 0 "" 2
 181              	.LVL8:
 182              		.loc 4 546 3 is_stmt 0 view .LVU34
 183              		.thumb
 184              		.syntax unified
 185              	.LBE86:
 186              	.LBE85:
 187              	.LBE87:
 188              	.LBE89:
 189              	.LBE91:
 190              	.LBE93:
 191              		.loc 1 351 1 view .LVU35
 192 003a 044B     		ldr	r3, .L6
 193 003c 1A68     		ldr	r2, [r3]
 194 003e 019B     		ldr	r3, [sp, #4]
 195 0040 5A40     		eors	r2, r3, r2
 196 0042 01D1     		bne	.L5
 197 0044 03B0     		add	sp, sp, #12
 198              		.cfi_remember_state
 199              		.cfi_def_cfa_offset 12
 200              		@ sp needed
 201 0046 30BD     		pop	{r4, r5, pc}
 202              	.LVL9:
 203              	.L5:
 204              		.cfi_restore_state
 205              		.loc 1 351 1 view .LVU36
 206 0048 FFF7FEFF 		bl	__stack_chk_fail
 207              	.LVL10:
 208              	.L7:
 209              		.align	2
 210              	.L6:
 211 004c 00000000 		.word	.LC0
 212 0050 00000000 		.word	.LANCHOR0
 213 0054 00000000 		.word	.LANCHOR1
 214              		.cfi_endproc
 215              	.LFE259:
 216              		.size	mp45dt02SPICb, .-mp45dt02SPICb
 217              		.section	.rodata.mp45dt02I2SCb.cst4,"aM",%progbits,4
 218              		.align	2
 219              	.LC1:
 220 0000 00000000 		.word	__stack_chk_guard
 221              		.section	.text.mp45dt02I2SCb,"ax",%progbits
 222              		.align	1
 223              		.p2align 4,,15
 224              		.syntax unified
 225              		.thumb
 226              		.thumb_func
 227              		.fpu fpv4-sp-d16
 228              		.type	mp45dt02I2SCb, %function
ARM GAS  /tmp/ccocil48.s 			page 5


 229              	mp45dt02I2SCb:
 230              	.LVL11:
 231              	.LFB258:
 232              		.loc 1 334 1 is_stmt 1 view -0
 233              		.cfi_startproc
 234              		@ args = 0, pretend = 0, frame = 8
 235              		@ frame_needed = 0, uses_anonymous_args = 0
 236              		.loc 1 334 1 is_stmt 0 view .LVU38
 237 0000 30B5     		push	{r4, r5, lr}
 238              		.cfi_def_cfa_offset 12
 239              		.cfi_offset 4, -12
 240              		.cfi_offset 5, -8
 241              		.cfi_offset 14, -4
 242 0002 124B     		ldr	r3, .L12
 243 0004 83B0     		sub	sp, sp, #12
 244              		.cfi_def_cfa_offset 24
 245              		.loc 1 334 1 view .LVU39
 246 0006 1B68     		ldr	r3, [r3]
 247 0008 0193     		str	r3, [sp, #4]
 248 000a 4FF00003 		mov	r3,#0
 249              		.loc 1 335 5 is_stmt 1 view .LVU40
 250              		.loc 1 336 5 view .LVU41
 251              	.LBB94:
 252              	.LBI94:
 253              		.loc 2 386 20 view .LVU42
 254              	.LBB95:
 255              		.loc 2 388 3 view .LVU43
 256              	.LBB96:
 257              	.LBI96:
 258              		.loc 3 473 20 view .LVU44
 259              	.LBE96:
 260              	.LBE95:
 261              	.LBE94:
 262              		.loc 3 475 3 view .LVU45
 263              	.LBB110:
 264              	.LBB107:
 265              	.LBB104:
 266              	.LBB97:
 267              	.LBI97:
 268              		.loc 3 444 20 view .LVU46
 269              	.LBE97:
 270              	.LBE104:
 271              	.LBE107:
 272              	.LBE110:
 273              		.loc 3 447 3 view .LVU47
 274              	.LVL12:
 275              	.LBB111:
 276              	.LBB108:
 277              	.LBB105:
 278              	.LBB102:
 279              	.LBB98:
 280              	.LBI98:
 281              		.loc 4 544 57 view .LVU48
 282              	.LBB99:
 283              		.loc 4 546 3 view .LVU49
 284              	.LBE99:
 285              	.LBE98:
ARM GAS  /tmp/ccocil48.s 			page 6


 286              	.LBE102:
 287              	.LBE105:
 288              	.LBE108:
 289              	.LBE111:
 290              		.loc 1 334 1 is_stmt 0 view .LVU50
 291 000e 0D46     		mov	r5, r1
 292 0010 1446     		mov	r4, r2
 293              	.LBB112:
 294              	.LBB109:
 295              	.LBB106:
 296              	.LBB103:
 297              	.LBB101:
 298              	.LBB100:
 299              		.loc 4 546 3 view .LVU51
 300 0012 2023     		movs	r3, #32
 301              		.syntax unified
 302              	@ 546 ".//ChibiOS//os/ext/CMSIS/include/core_cmFunc.h" 1
 303 0014 83F31188 		MSR basepri, r3
 304              	@ 0 "" 2
 305              	.LVL13:
 306              		.loc 4 546 3 view .LVU52
 307              		.thumb
 308              		.syntax unified
 309              	.LBE100:
 310              	.LBE101:
 311              	.LBE103:
 312              	.LBE106:
 313              		.loc 2 389 3 is_stmt 1 view .LVU53
 314 0018 FFF7FEFF 		bl	_stats_start_measure_crit_isr
 315              	.LVL14:
 316              		.loc 2 390 3 view .LVU54
 317 001c FFF7FEFF 		bl	_dbg_check_lock_from_isr
 318              	.LVL15:
 319              	.LBE109:
 320              	.LBE112:
 321              		.loc 1 337 5 view .LVU55
 322              		.loc 1 337 28 is_stmt 0 view .LVU56
 323 0020 0B4B     		ldr	r3, .L12+4
 324              		.loc 1 339 5 view .LVU57
 325 0022 0C48     		ldr	r0, .L12+8
 326              		.loc 1 338 28 view .LVU58
 327 0024 C3E90054 		strd	r5, r4, [r3]
 328              		.loc 1 339 5 is_stmt 1 view .LVU59
 329 0028 FFF7FEFF 		bl	chSemSignalI
 330              	.LVL16:
 331              		.loc 1 340 5 view .LVU60
 332              	.LBB113:
 333              	.LBI113:
 334              		.loc 2 406 20 view .LVU61
 335              	.LBB114:
 336              		.loc 2 408 3 view .LVU62
 337 002c FFF7FEFF 		bl	_dbg_check_unlock_from_isr
 338              	.LVL17:
 339              		.loc 2 409 3 view .LVU63
 340 0030 FFF7FEFF 		bl	_stats_stop_measure_crit_isr
 341              	.LVL18:
 342              		.loc 2 410 3 view .LVU64
ARM GAS  /tmp/ccocil48.s 			page 7


 343              	.LBB115:
 344              	.LBI115:
 345              		.loc 3 484 20 view .LVU65
 346              	.LBE115:
 347              	.LBE114:
 348              	.LBE113:
 349              		.loc 3 486 3 view .LVU66
 350              	.LBB124:
 351              	.LBB122:
 352              	.LBB120:
 353              	.LBB116:
 354              	.LBI116:
 355              		.loc 3 458 20 view .LVU67
 356              	.LBE116:
 357              	.LBE120:
 358              	.LBE122:
 359              	.LBE124:
 360              		.loc 3 461 3 view .LVU68
 361              	.LBB125:
 362              	.LBB123:
 363              	.LBB121:
 364              	.LBB119:
 365              	.LBB117:
 366              	.LBI117:
 367              		.loc 4 544 57 view .LVU69
 368              	.LBB118:
 369              		.loc 4 546 3 view .LVU70
 370 0034 0023     		movs	r3, #0
 371              		.syntax unified
 372              	@ 546 ".//ChibiOS//os/ext/CMSIS/include/core_cmFunc.h" 1
 373 0036 83F31188 		MSR basepri, r3
 374              	@ 0 "" 2
 375              	.LVL19:
 376              		.loc 4 546 3 is_stmt 0 view .LVU71
 377              		.thumb
 378              		.syntax unified
 379              	.LBE118:
 380              	.LBE117:
 381              	.LBE119:
 382              	.LBE121:
 383              	.LBE123:
 384              	.LBE125:
 385              		.loc 1 341 1 view .LVU72
 386 003a 044B     		ldr	r3, .L12
 387 003c 1A68     		ldr	r2, [r3]
 388 003e 019B     		ldr	r3, [sp, #4]
 389 0040 5A40     		eors	r2, r3, r2
 390 0042 01D1     		bne	.L11
 391 0044 03B0     		add	sp, sp, #12
 392              		.cfi_remember_state
 393              		.cfi_def_cfa_offset 12
 394              		@ sp needed
 395 0046 30BD     		pop	{r4, r5, pc}
 396              	.LVL20:
 397              	.L11:
 398              		.cfi_restore_state
 399              		.loc 1 341 1 view .LVU73
ARM GAS  /tmp/ccocil48.s 			page 8


 400 0048 FFF7FEFF 		bl	__stack_chk_fail
 401              	.LVL21:
 402              	.L13:
 403              		.align	2
 404              	.L12:
 405 004c 00000000 		.word	.LC1
 406 0050 00000000 		.word	.LANCHOR2
 407 0054 00000000 		.word	.LANCHOR1
 408              		.cfi_endproc
 409              	.LFE258:
 410              		.size	mp45dt02I2SCb, .-mp45dt02I2SCb
 411              		.section	.rodata.DataProcessing.cst4,"aM",%progbits,4
 412              		.align	2
 413              	.LC2:
 414 0000 00000000 		.word	__stack_chk_guard
 415              		.section	.text.DataProcessing,"ax",%progbits
 416              		.align	1
 417              		.p2align 4,,15
 418              		.syntax unified
 419              		.thumb
 420              		.thumb_func
 421              		.fpu fpv4-sp-d16
 422              		.type	DataProcessing, %function
 423              	DataProcessing:
 424              	.LVL22:
 425              	.LFB257:
 426              		.loc 1 216 1 is_stmt 1 view -0
 427              		.cfi_startproc
 428              		@ args = 0, pretend = 0, frame = 16
 429              		@ frame_needed = 0, uses_anonymous_args = 0
 430              		.loc 1 216 1 is_stmt 0 view .LVU75
 431 0000 2DE9F04F 		push	{r4, r5, r6, r7, r8, r9, r10, fp, lr}
 432              		.cfi_def_cfa_offset 36
 433              		.cfi_offset 4, -36
 434              		.cfi_offset 5, -32
 435              		.cfi_offset 6, -28
 436              		.cfi_offset 7, -24
 437              		.cfi_offset 8, -20
 438              		.cfi_offset 9, -16
 439              		.cfi_offset 10, -12
 440              		.cfi_offset 11, -8
 441              		.cfi_offset 14, -4
 442              	.LBB126:
 443              	.LBB127:
 444              		.file 5 ".//ChibiOS//os/rt/include/chregistry.h"
 445              		.loc 5 135 11 view .LVU76
 446 0004 6C49     		ldr	r1, .L34
 447              	.LBE127:
 448              	.LBE126:
 449              		.loc 1 216 1 view .LVU77
 450 0006 6D48     		ldr	r0, .L34+4
 451              	.LVL23:
 452              	.LBB130:
 453              	.LBB128:
 454              		.loc 5 135 11 view .LVU78
 455 0008 8B69     		ldr	r3, [r1, #24]
 456              		.loc 5 135 30 view .LVU79
ARM GAS  /tmp/ccocil48.s 			page 9


 457 000a 6D4A     		ldr	r2, .L34+8
 458              	.LBE128:
 459              	.LBE130:
 460              		.loc 1 216 1 view .LVU80
 461 000c 85B0     		sub	sp, sp, #20
 462              		.cfi_def_cfa_offset 56
 463              		.loc 1 216 1 view .LVU81
 464 000e 0068     		ldr	r0, [r0]
 465 0010 0390     		str	r0, [sp, #12]
 466 0012 4FF00000 		mov	r0,#0
 467              		.loc 1 217 5 is_stmt 1 view .LVU82
 468              		.loc 1 219 5 view .LVU83
 469              	.LVL24:
 470              	.LBB131:
 471              	.LBI126:
 472              		.loc 5 132 20 view .LVU84
 473              	.LBB129:
 474              		.loc 5 135 3 view .LVU85
 475              		.loc 5 135 30 is_stmt 0 view .LVU86
 476 0016 9A61     		str	r2, [r3, #24]
 477              	.LVL25:
 478              		.loc 5 135 30 view .LVU87
 479              	.LBE129:
 480              	.LBE131:
 481              		.loc 1 221 2 is_stmt 1 view .LVU88
 482              		.loc 1 222 2 view .LVU89
 483              		.loc 1 223 2 view .LVU90
 484              		.loc 1 224 2 view .LVU91
 485              		.loc 1 226 5 view .LVU92
 486              		.loc 1 226 11 view .LVU93
 487              	.LBB132:
 488              	.LBI132:
 489              		.file 6 ".//ChibiOS//os/rt/include/chthreads.h"
 490              		.loc 6 231 20 view .LVU94
 491              	.LBB133:
 492              		.loc 6 233 3 view .LVU95
 493              	.LBB134:
 494              	.LBI134:
 495              		.loc 6 174 25 view .LVU96
 496              	.LBB135:
 497              		.loc 6 176 3 view .LVU97
 498              	.LBE135:
 499              	.LBE134:
 500              		.loc 6 233 33 is_stmt 0 view .LVU98
 501 0018 8B69     		ldr	r3, [r1, #24]
 502              	.LBE133:
 503              	.LBE132:
 504              		.loc 1 226 11 view .LVU99
 505 001a 93F82130 		ldrb	r3, [r3, #33]	@ zero_extendqisi2
 506 001e 5A07     		lsls	r2, r3, #29
 507 0020 00F1AD80 		bmi	.L14
 508              	.LVL26:
 509              	.L22:
 510              		.loc 1 229 9 is_stmt 1 view .LVU100
 511 0024 6748     		ldr	r0, .L34+12
 512 0026 FFF7FEFF 		bl	chSemWait
 513              	.LVL27:
ARM GAS  /tmp/ccocil48.s 			page 10


 514              		.loc 1 230 9 view .LVU101
 515 002a 6648     		ldr	r0, .L34+12
 516 002c FFF7FEFF 		bl	chSemWait
 517              	.LVL28:
 518              		.loc 1 232 9 view .LVU102
 519              	.LBB139:
 520              	.LBI139:
 521              		.loc 6 231 20 view .LVU103
 522              	.LBB140:
 523              		.loc 6 233 3 view .LVU104
 524              	.LBB141:
 525              	.LBI141:
 526              		.loc 6 174 25 view .LVU105
 527              	.LBB142:
 528              		.loc 6 176 3 view .LVU106
 529              	.LBE142:
 530              	.LBE141:
 531              		.loc 6 233 33 is_stmt 0 view .LVU107
 532 0030 614B     		ldr	r3, .L34
 533 0032 9B69     		ldr	r3, [r3, #24]
 534              	.LBE140:
 535              	.LBE139:
 536              		.loc 1 232 12 view .LVU108
 537 0034 93F82130 		ldrb	r3, [r3, #33]	@ zero_extendqisi2
 538 0038 13F00403 		ands	r3, r3, #4
 539 003c 40F09F80 		bne	.L14
 540              		.loc 1 239 6 is_stmt 1 view .LVU109
 541              		.loc 1 239 66 is_stmt 0 view .LVU110
 542 0040 6148     		ldr	r0, .L34+16
 543              		.loc 1 240 69 view .LVU111
 544 0042 624D     		ldr	r5, .L34+20
 545              		.loc 1 239 66 view .LVU112
 546 0044 0168     		ldr	r1, [r0]
 547              		.loc 1 240 69 view .LVU113
 548 0046 2A68     		ldr	r2, [r5]
 549              		.loc 1 247 52 view .LVU114
 550 0048 0446     		mov	r4, r0
 551 004a 4068     		ldr	r0, [r0, #4]
 552              		.loc 1 239 18 view .LVU115
 553 004c 04EB8101 		add	r1, r4, r1, lsl #2
 554              		.loc 1 240 18 view .LVU116
 555 0050 05EB8202 		add	r2, r5, r2, lsl #2
 556              		.loc 1 247 9 view .LVU117
 557 0054 5FEA400B 		lsls	fp, r0, #1
 558              		.loc 1 239 18 view .LVU118
 559 0058 01F1080A 		add	r10, r1, #8
 560              	.LVL29:
 561              		.loc 1 240 6 is_stmt 1 view .LVU119
 562              		.loc 1 240 18 is_stmt 0 view .LVU120
 563 005c 02F50279 		add	r9, r2, #520
 564              	.LVL30:
 565              		.loc 1 247 9 is_stmt 1 view .LVU121
 566              		.loc 1 247 22 view .LVU122
 567              		.loc 1 247 9 is_stmt 0 view .LVU123
 568 0060 49D0     		beq	.L16
 569 0062 0AF10101 		add	r1, r10, #1
 570 0066 0091     		str	r1, [sp]
ARM GAS  /tmp/ccocil48.s 			page 11


 571 0068 594F     		ldr	r7, .L34+24
 572 006a 5A4A     		ldr	r2, .L34+28
 573 006c 5A4E     		ldr	r6, .L34+32
 574 006e 09F10101 		add	r1, r9, #1
 575 0072 0191     		str	r1, [sp, #4]
 576              	.LVL31:
 577              	.L17:
 578              		.loc 1 248 4 is_stmt 1 discriminator 3 view .LVU124
 579              		.loc 1 249 6 is_stmt 0 discriminator 3 view .LVU125
 580 0074 0099     		ldr	r1, [sp]
 581              		.loc 1 248 6 discriminator 3 view .LVU126
 582 0076 1AF813C0 		ldrb	ip, [r10, r3, lsl #1]	@ zero_extendqisi2
 583              	.LVL32:
 584              		.loc 1 249 4 is_stmt 1 discriminator 3 view .LVU127
 585              		.loc 1 249 6 is_stmt 0 discriminator 3 view .LVU128
 586 007a 11F81350 		ldrb	r5, [r1, r3, lsl #1]	@ zero_extendqisi2
 587              	.LVL33:
 588              		.loc 1 250 4 is_stmt 1 discriminator 3 view .LVU129
 589              		.loc 1 254 6 is_stmt 0 discriminator 3 view .LVU130
 590 007e 0198     		ldr	r0, [sp, #4]
 591              		.loc 1 253 6 discriminator 3 view .LVU131
 592 0080 19F81310 		ldrb	r1, [r9, r3, lsl #1]	@ zero_extendqisi2
 593              		.loc 1 254 6 discriminator 3 view .LVU132
 594 0084 10F81300 		ldrb	r0, [r0, r3, lsl #1]	@ zero_extendqisi2
 595              		.loc 1 250 62 discriminator 3 view .LVU133
 596 0088 0CF0550E 		and	lr, ip, #85
 597              		.loc 1 251 113 discriminator 3 view .LVU134
 598 008c 6C08     		lsrs	r4, r5, #1
 599              		.loc 1 250 102 discriminator 3 view .LVU135
 600 008e 05F05505 		and	r5, r5, #85
 601              	.LVL34:
 602              		.loc 1 250 84 discriminator 3 view .LVU136
 603 0092 12F80EE0 		ldrb	lr, [r2, lr]	@ zero_extendqisi2
 604              		.loc 1 250 99 discriminator 3 view .LVU137
 605 0096 555D     		ldrb	r5, [r2, r5]	@ zero_extendqisi2
 606              		.loc 1 255 62 discriminator 3 view .LVU138
 607 0098 01F05508 		and	r8, r1, #85
 608              		.loc 1 250 84 discriminator 3 view .LVU139
 609 009c 4EEA0515 		orr	r5, lr, r5, lsl #4
 610              		.loc 1 256 113 discriminator 3 view .LVU140
 611 00a0 4FEA500E 		lsr	lr, r0, #1
 612              		.loc 1 255 102 discriminator 3 view .LVU141
 613 00a4 00F05500 		and	r0, r0, #85
 614              		.loc 1 251 69 discriminator 3 view .LVU142
 615 00a8 4FEA5C0C 		lsr	ip, ip, #1
 616              	.LVL35:
 617              		.loc 1 256 69 discriminator 3 view .LVU143
 618 00ac 4908     		lsrs	r1, r1, #1
 619              		.loc 1 255 99 discriminator 3 view .LVU144
 620 00ae 105C     		ldrb	r0, [r2, r0]	@ zero_extendqisi2
 621              		.loc 1 255 84 discriminator 3 view .LVU145
 622 00b0 12F80880 		ldrb	r8, [r2, r8]	@ zero_extendqisi2
 623              		.loc 1 250 44 discriminator 3 view .LVU146
 624 00b4 07F81350 		strb	r5, [r7, r3, lsl #1]
 625              		.loc 1 251 4 is_stmt 1 discriminator 3 view .LVU147
 626              		.loc 1 251 69 is_stmt 0 discriminator 3 view .LVU148
 627 00b8 0CF0550C 		and	ip, ip, #85
ARM GAS  /tmp/ccocil48.s 			page 12


 628              		.loc 1 251 113 discriminator 3 view .LVU149
 629 00bc 04F05504 		and	r4, r4, #85
 630              		.loc 1 256 69 discriminator 3 view .LVU150
 631 00c0 01F05501 		and	r1, r1, #85
 632              		.loc 1 256 113 discriminator 3 view .LVU151
 633 00c4 0EF0550E 		and	lr, lr, #85
 634              		.loc 1 255 84 discriminator 3 view .LVU152
 635 00c8 48EA0018 		orr	r8, r8, r0, lsl #4
 636              		.loc 1 251 91 discriminator 3 view .LVU153
 637 00cc 12F80CC0 		ldrb	ip, [r2, ip]	@ zero_extendqisi2
 638              		.loc 1 251 105 discriminator 3 view .LVU154
 639 00d0 145D     		ldrb	r4, [r2, r4]	@ zero_extendqisi2
 640              		.loc 1 256 91 discriminator 3 view .LVU155
 641 00d2 515C     		ldrb	r1, [r2, r1]	@ zero_extendqisi2
 642              		.loc 1 256 105 discriminator 3 view .LVU156
 643 00d4 12F80EE0 		ldrb	lr, [r2, lr]	@ zero_extendqisi2
 644              		.loc 1 255 44 discriminator 3 view .LVU157
 645 00d8 06F81380 		strb	r8, [r6, r3, lsl #1]
 646              		.loc 1 251 46 discriminator 3 view .LVU158
 647 00dc 07EB4300 		add	r0, r7, r3, lsl #1
 648              		.loc 1 256 46 discriminator 3 view .LVU159
 649 00e0 06EB4305 		add	r5, r6, r3, lsl #1
 650              		.loc 1 247 61 discriminator 3 view .LVU160
 651 00e4 0133     		adds	r3, r3, #1
 652              	.LVL36:
 653              		.loc 1 251 91 discriminator 3 view .LVU161
 654 00e6 4CEA0414 		orr	r4, ip, r4, lsl #4
 655              		.loc 1 256 91 discriminator 3 view .LVU162
 656 00ea 41EA0E11 		orr	r1, r1, lr, lsl #4
 657              		.loc 1 247 9 discriminator 3 view .LVU163
 658 00ee 9B45     		cmp	fp, r3
 659              		.loc 1 251 46 discriminator 3 view .LVU164
 660 00f0 4470     		strb	r4, [r0, #1]
 661              		.loc 1 253 4 is_stmt 1 discriminator 3 view .LVU165
 662              	.LVL37:
 663              		.loc 1 254 4 discriminator 3 view .LVU166
 664              		.loc 1 255 4 discriminator 3 view .LVU167
 665              		.loc 1 256 4 discriminator 3 view .LVU168
 666              		.loc 1 256 46 is_stmt 0 discriminator 3 view .LVU169
 667 00f2 6970     		strb	r1, [r5, #1]
 668              		.loc 1 247 56 is_stmt 1 discriminator 3 view .LVU170
 669              	.LVL38:
 670              		.loc 1 247 22 discriminator 3 view .LVU171
 671              		.loc 1 247 9 is_stmt 0 discriminator 3 view .LVU172
 672 00f4 BED1     		bne	.L17
 673              	.LVL39:
 674              	.L16:
 675              		.loc 1 300 24 is_stmt 1 view .LVU173
 676              		.loc 1 302 10 view .LVU174
 677 00f6 394B     		ldr	r3, .L34+36
 678 00f8 3949     		ldr	r1, .L34+40
 679 00fa 3548     		ldr	r0, .L34+24
 680              		.loc 1 309 29 is_stmt 0 view .LVU175
 681 00fc 394E     		ldr	r6, .L34+44
 682 00fe 384C     		ldr	r4, .L34+40
 683              		.loc 1 302 10 view .LVU176
 684 0100 0422     		movs	r2, #4
ARM GAS  /tmp/ccocil48.s 			page 13


 685 0102 FFF7FEFF 		bl	PDM_Filter_64_LSB
 686              	.LVL40:
 687              		.loc 1 304 10 is_stmt 1 view .LVU177
 688 0106 384B     		ldr	r3, .L34+48
 689 0108 3849     		ldr	r1, .L34+52
 690 010a 3348     		ldr	r0, .L34+32
 691 010c 0422     		movs	r2, #4
 692 010e FFF7FEFF 		bl	PDM_Filter_64_LSB
 693              	.LVL41:
 694              		.loc 1 300 55 view .LVU178
 695              		.loc 1 300 24 view .LVU179
 696              		.loc 1 302 10 view .LVU180
 697 0112 374B     		ldr	r3, .L34+56
 698 0114 3749     		ldr	r1, .L34+60
 699 0116 3848     		ldr	r0, .L34+64
 700 0118 0422     		movs	r2, #4
 701 011a FFF7FEFF 		bl	PDM_Filter_64_LSB
 702              	.LVL42:
 703              		.loc 1 304 10 view .LVU181
 704 011e 374B     		ldr	r3, .L34+68
 705 0120 3749     		ldr	r1, .L34+72
 706 0122 3848     		ldr	r0, .L34+76
 707 0124 0422     		movs	r2, #4
 708 0126 FFF7FEFF 		bl	PDM_Filter_64_LSB
 709              	.LVL43:
 710              		.loc 1 300 55 view .LVU182
 711              		.loc 1 300 24 view .LVU183
 712              		.loc 1 308 22 view .LVU184
 713              		.loc 1 309 29 is_stmt 0 view .LVU185
 714 012a DFF8ECC0 		ldr	ip, .L34+96
 715 012e 3068     		ldr	r0, [r6]
 716 0130 9CF800E0 		ldrb	lr, [ip]	@ zero_extendqisi2
 717 0134 2D49     		ldr	r1, .L34+52
 718 0136 00EBCE12 		add	r2, r0, lr, lsl #7
 719              		.loc 1 308 18 view .LVU186
 720 013a 0023     		movs	r3, #0
 721              	.LVL44:
 722              	.L18:
 723              		.loc 1 309 10 is_stmt 1 discriminator 3 view .LVU187
 724              		.loc 1 309 93 is_stmt 0 discriminator 3 view .LVU188
 725 013c 34F82350 		ldrh	r5, [r4, r3, lsl #2]
 726 0140 1580     		strh	r5, [r2]	@ movhi
 727              		.loc 1 310 10 is_stmt 1 discriminator 3 view .LVU189
 728              		.loc 1 310 112 is_stmt 0 discriminator 3 view .LVU190
 729 0142 04EB8307 		add	r7, r4, r3, lsl #2
 730              		.loc 1 311 112 discriminator 3 view .LVU191
 731 0146 01EB8305 		add	r5, r1, r3, lsl #2
 732              		.loc 1 310 95 discriminator 3 view .LVU192
 733 014a 7F88     		ldrh	r7, [r7, #2]
 734 014c 5780     		strh	r7, [r2, #2]	@ movhi
 735              		.loc 1 311 10 is_stmt 1 discriminator 3 view .LVU193
 736              		.loc 1 311 95 is_stmt 0 discriminator 3 view .LVU194
 737 014e 6D88     		ldrh	r5, [r5, #2]
 738 0150 9580     		strh	r5, [r2, #4]	@ movhi
 739              		.loc 1 312 10 is_stmt 1 discriminator 3 view .LVU195
 740              		.loc 1 312 95 is_stmt 0 discriminator 3 view .LVU196
 741 0152 31F82350 		ldrh	r5, [r1, r3, lsl #2]
ARM GAS  /tmp/ccocil48.s 			page 14


 742 0156 D580     		strh	r5, [r2, #6]	@ movhi
 743              		.loc 1 308 62 is_stmt 1 discriminator 3 view .LVU197
 744              		.loc 1 308 67 is_stmt 0 discriminator 3 view .LVU198
 745 0158 0133     		adds	r3, r3, #1
 746              	.LVL45:
 747              		.loc 1 308 22 is_stmt 1 discriminator 3 view .LVU199
 748              		.loc 1 308 9 is_stmt 0 discriminator 3 view .LVU200
 749 015a 102B     		cmp	r3, #16
 750 015c 02F10802 		add	r2, r2, #8
 751 0160 ECD1     		bne	.L18
 752              		.loc 1 315 9 is_stmt 1 view .LVU201
 753              		.loc 1 315 11 is_stmt 0 view .LVU202
 754 0162 BEF1090F 		cmp	lr, #9
 755 0166 12D0     		beq	.L32
 756              		.loc 1 327 10 is_stmt 1 view .LVU203
 757              		.loc 1 327 26 is_stmt 0 view .LVU204
 758 0168 0EF1010E 		add	lr, lr, #1
 759 016c 8CF800E0 		strb	lr, [ip]
 760              	.LVL46:
 761              	.L21:
 762              		.loc 1 226 11 is_stmt 1 view .LVU205
 763              	.LBB143:
 764              		.loc 6 231 20 view .LVU206
 765              	.LBB138:
 766              		.loc 6 233 3 view .LVU207
 767              	.LBB137:
 768              		.loc 6 174 25 view .LVU208
 769              	.LBB136:
 770              		.loc 6 176 3 view .LVU209
 771              	.LBE136:
 772              	.LBE137:
 773              		.loc 6 233 33 is_stmt 0 view .LVU210
 774 0170 114B     		ldr	r3, .L34
 775 0172 9B69     		ldr	r3, [r3, #24]
 776              	.LBE138:
 777              	.LBE143:
 778              		.loc 1 226 11 view .LVU211
 779 0174 93F82130 		ldrb	r3, [r3, #33]	@ zero_extendqisi2
 780 0178 5B07     		lsls	r3, r3, #29
 781 017a 7FF553AF 		bpl	.L22
 782              	.LVL47:
 783              	.L14:
 784              		.loc 1 330 1 view .LVU212
 785 017e 0F4B     		ldr	r3, .L34+4
 786 0180 1A68     		ldr	r2, [r3]
 787 0182 039B     		ldr	r3, [sp, #12]
 788 0184 5A40     		eors	r2, r3, r2
 789 0186 14D1     		bne	.L33
 790 0188 05B0     		add	sp, sp, #20
 791              		.cfi_remember_state
 792              		.cfi_def_cfa_offset 36
 793              		@ sp needed
 794 018a BDE8F08F 		pop	{r4, r5, r6, r7, r8, r9, r10, fp, pc}
 795              	.LVL48:
 796              	.L32:
 797              		.cfi_restore_state
 798              		.loc 1 316 10 is_stmt 1 view .LVU213
ARM GAS  /tmp/ccocil48.s 			page 15


 799              		.loc 1 318 20 is_stmt 0 view .LVU214
 800 018e 1E4B     		ldr	r3, .L34+80
 801              	.LVL49:
 802              		.loc 1 316 27 view .LVU215
 803 0190 0022     		movs	r2, #0
 804              		.loc 1 318 10 view .LVU216
 805 0192 1B68     		ldr	r3, [r3]
 806              		.loc 1 316 27 view .LVU217
 807 0194 8CF80020 		strb	r2, [ip]
 808              		.loc 1 318 10 is_stmt 1 view .LVU218
 809 0198 4FF42071 		mov	r1, #640
 810 019c 9847     		blx	r3
 811              	.LVL50:
 812              		.loc 1 320 10 view .LVU219
 813              		.loc 1 320 30 is_stmt 0 view .LVU220
 814 019e 3368     		ldr	r3, [r6]
 815              		.loc 1 321 12 view .LVU221
 816 01a0 1A4A     		ldr	r2, .L34+84
 817              		.loc 1 320 30 view .LVU222
 818 01a2 1B49     		ldr	r1, .L34+88
 819              		.loc 1 321 12 view .LVU223
 820 01a4 9342     		cmp	r3, r2
 821              		.loc 1 320 30 view .LVU224
 822 01a6 0B60     		str	r3, [r1]
 823              		.loc 1 321 10 is_stmt 1 view .LVU225
 824              		.loc 1 322 11 view .LVU226
 825              		.loc 1 322 31 is_stmt 0 view .LVU227
 826 01a8 06BF     		itte	eq
 827 01aa 1A4B     		ldreq	r3, .L34+92
 828 01ac 3360     		streq	r3, [r6]
 829              		.loc 1 324 11 is_stmt 1 view .LVU228
 830              		.loc 1 324 31 is_stmt 0 view .LVU229
 831 01ae 3260     		strne	r2, [r6]
 832 01b0 DEE7     		b	.L21
 833              	.LVL51:
 834              	.L33:
 835              		.loc 1 330 1 view .LVU230
 836 01b2 FFF7FEFF 		bl	__stack_chk_fail
 837              	.LVL52:
 838              	.L35:
 839 01b6 00BF     		.align	2
 840              	.L34:
 841 01b8 00000000 		.word	ch
 842 01bc 00000000 		.word	.LC2
 843 01c0 00000000 		.word	.LANCHOR3
 844 01c4 00000000 		.word	.LANCHOR1
 845 01c8 00000000 		.word	.LANCHOR2
 846 01cc 00000000 		.word	.LANCHOR0
 847 01d0 00000000 		.word	.LANCHOR4
 848 01d4 00000000 		.word	.LANCHOR5
 849 01d8 00000000 		.word	.LANCHOR6
 850 01dc 00000000 		.word	.LANCHOR7
 851 01e0 00000000 		.word	.LANCHOR8
 852 01e4 00000000 		.word	.LANCHOR11
 853 01e8 00000000 		.word	.LANCHOR9
 854 01ec 00000000 		.word	.LANCHOR10
 855 01f0 34000000 		.word	.LANCHOR7+52
ARM GAS  /tmp/ccocil48.s 			page 16


 856 01f4 02000000 		.word	.LANCHOR8+2
 857 01f8 01000000 		.word	.LANCHOR4+1
 858 01fc 34000000 		.word	.LANCHOR9+52
 859 0200 02000000 		.word	.LANCHOR10+2
 860 0204 01000000 		.word	.LANCHOR6+1
 861 0208 00000000 		.word	.LANCHOR13
 862 020c 00000000 		.word	.LANCHOR15
 863 0210 00000000 		.word	.LANCHOR14
 864 0214 00000000 		.word	.LANCHOR16
 865 0218 00000000 		.word	.LANCHOR12
 866              		.cfi_endproc
 867              	.LFE257:
 868              		.size	DataProcessing, .-DataProcessing
 869              		.section	.rodata.mp45dt02Init.cst4,"aM",%progbits,4
 870              		.align	2
 871              	.LC3:
 872 0000 00000000 		.word	__stack_chk_guard
 873              		.section	.text.mp45dt02Init,"ax",%progbits
 874              		.align	1
 875              		.p2align 4,,15
 876              		.global	mp45dt02Init
 877              		.syntax unified
 878              		.thumb
 879              		.thumb_func
 880              		.fpu fpv4-sp-d16
 881              		.type	mp45dt02Init, %function
 882              	mp45dt02Init:
 883              	.LVL53:
 884              	.LFB261:
 885              		.loc 1 373 1 is_stmt 1 view -0
 886              		.cfi_startproc
 887              		@ args = 0, pretend = 0, frame = 8
 888              		@ frame_needed = 0, uses_anonymous_args = 0
 889              		.loc 1 373 1 is_stmt 0 view .LVU232
 890 0000 2DE9F04F 		push	{r4, r5, r6, r7, r8, r9, r10, fp, lr}
 891              		.cfi_def_cfa_offset 36
 892              		.cfi_offset 4, -36
 893              		.cfi_offset 5, -32
 894              		.cfi_offset 6, -28
 895              		.cfi_offset 7, -24
 896              		.cfi_offset 8, -20
 897              		.cfi_offset 9, -16
 898              		.cfi_offset 10, -12
 899              		.cfi_offset 11, -8
 900              		.cfi_offset 14, -4
 901 0004 4D49     		ldr	r1, .L41
 902              		.loc 1 375 16 view .LVU233
 903 0006 4E4B     		ldr	r3, .L41+4
 904 0008 0268     		ldr	r2, [r0]
 905              		.loc 1 377 5 view .LVU234
 906 000a 4E48     		ldr	r0, .L41+8
 907              	.LVL54:
 908              	.LBB146:
 909              	.LBB147:
 910              		.loc 1 161 24 view .LVU235
 911 000c 4E4D     		ldr	r5, .L41+12
 912              		.loc 1 168 24 view .LVU236
ARM GAS  /tmp/ccocil48.s 			page 17


 913 000e 4F4C     		ldr	r4, .L41+16
 914              		.loc 1 160 27 view .LVU237
 915 0010 DFF87091 		ldr	r9, .L41+72
 916              		.loc 1 159 27 view .LVU238
 917 0014 DFF870A1 		ldr	r10, .L41+76
 918              	.LBE147:
 919              	.LBE146:
 920              		.loc 1 391 5 view .LVU239
 921 0018 4D4F     		ldr	r7, .L41+20
 922              		.loc 1 373 1 view .LVU240
 923 001a 85B0     		sub	sp, sp, #20
 924              		.cfi_def_cfa_offset 56
 925              		.loc 1 373 1 view .LVU241
 926 001c 0968     		ldr	r1, [r1]
 927 001e 0391     		str	r1, [sp, #12]
 928 0020 4FF00001 		mov	r1,#0
 929              		.loc 1 375 5 is_stmt 1 view .LVU242
 930              		.loc 1 377 5 is_stmt 0 view .LVU243
 931 0024 0021     		movs	r1, #0
 932              		.loc 1 379 25 view .LVU244
 933 0026 0E46     		mov	r6, r1
 934              		.loc 1 375 16 view .LVU245
 935 0028 1A60     		str	r2, [r3]
 936              		.loc 1 377 5 is_stmt 1 view .LVU246
 937 002a FFF7FEFF 		bl	chSemObjectInit
 938              	.LVL55:
 939              		.loc 1 379 5 view .LVU247
 940              		.loc 1 379 25 is_stmt 0 view .LVU248
 941 002e 4FF4AF61 		mov	r1, #1400
 942 0032 484B     		ldr	r3, .L41+24
 943 0034 4848     		ldr	r0, .L41+28
 944 0036 0096     		str	r6, [sp]
 945 0038 4122     		movs	r2, #65
 946 003a FFF7FEFF 		bl	chThdCreateStatic
 947              	.LVL56:
 948              		.loc 1 379 23 view .LVU249
 949 003e 474B     		ldr	r3, .L41+32
 950              	.LBB150:
 951              	.LBB148:
 952              		.loc 1 155 2 view .LVU250
 953 0040 474A     		ldr	r2, .L41+36
 954              	.LBE148:
 955              	.LBE150:
 956              		.loc 1 379 23 view .LVU251
 957 0042 1860     		str	r0, [r3]
 958              		.loc 1 384 5 is_stmt 1 view .LVU252
 959              		.loc 1 370 1 view .LVU253
 960              		.loc 1 386 5 view .LVU254
 961              	.LBB151:
 962              	.LBI146:
 963              		.loc 1 151 13 view .LVU255
 964              	.LBB149:
 965              		.loc 1 152 2 view .LVU256
 966              	.LVL57:
 967              		.loc 1 155 2 view .LVU257
 968 0044 136B     		ldr	r3, [r2, #48]
 969              		.loc 1 159 27 is_stmt 0 view .LVU258
ARM GAS  /tmp/ccocil48.s 			page 18


 970 0046 C5F804A0 		str	r10, [r5, #4]	@ float
 971              		.loc 1 155 2 view .LVU259
 972 004a 43F48053 		orr	r3, r3, #4096
 973              		.loc 1 163 36 view .LVU260
 974 004e 4FF00218 		mov	r8, #131074
 975              		.loc 1 161 24 view .LVU261
 976 0052 4FF47A5B 		mov	fp, #16000
 977              		.loc 1 155 2 view .LVU262
 978 0056 1363     		str	r3, [r2, #48]
 979              		.loc 1 155 2 is_stmt 1 view .LVU263
 980              		.loc 1 155 41 view .LVU264
 981              		.loc 1 157 2 view .LVU265
 982              		.loc 1 157 11 view .LVU266
 983              		.loc 1 159 3 view .LVU267
 984              		.loc 1 160 3 view .LVU268
 985              		.loc 1 161 3 view .LVU269
 986              		.loc 1 164 3 is_stmt 0 view .LVU270
 987 0058 2846     		mov	r0, r5
 988              		.loc 1 160 27 view .LVU271
 989 005a C5F80890 		str	r9, [r5, #8]	@ float
 990              		.loc 1 163 36 view .LVU272
 991 005e C5F80C80 		str	r8, [r5, #12]
 992              		.loc 1 161 24 view .LVU273
 993 0062 A5F800B0 		strh	fp, [r5]	@ movhi
 994              		.loc 1 162 3 is_stmt 1 view .LVU274
 995              		.loc 1 163 3 view .LVU275
 996              		.loc 1 164 3 view .LVU276
 997 0066 FFF7FEFF 		bl	PDM_Filter_Init
 998              	.LVL58:
 999              		.loc 1 166 3 view .LVU277
 1000              		.loc 1 167 3 view .LVU278
 1001              		.loc 1 168 3 view .LVU279
 1002              		.loc 1 171 3 is_stmt 0 view .LVU280
 1003 006a 2046     		mov	r0, r4
 1004              		.loc 1 167 27 view .LVU281
 1005 006c C4F80890 		str	r9, [r4, #8]	@ float
 1006              		.loc 1 170 36 view .LVU282
 1007 0070 C4F80C80 		str	r8, [r4, #12]
 1008              		.loc 1 168 24 view .LVU283
 1009 0074 A4F800B0 		strh	fp, [r4]	@ movhi
 1010              		.loc 1 169 3 is_stmt 1 view .LVU284
 1011              		.loc 1 170 3 view .LVU285
 1012              		.loc 1 171 3 view .LVU286
 1013              		.loc 1 166 27 is_stmt 0 view .LVU287
 1014 0078 C4F804A0 		str	r10, [r4, #4]	@ float
 1015              		.loc 1 171 3 view .LVU288
 1016 007c FFF7FEFF 		bl	PDM_Filter_Init
 1017              	.LVL59:
 1018              		.loc 1 157 36 is_stmt 1 view .LVU289
 1019              		.loc 1 157 11 view .LVU290
 1020              		.loc 1 159 3 view .LVU291
 1021              		.loc 1 160 3 view .LVU292
 1022              		.loc 1 161 3 view .LVU293
 1023              		.loc 1 164 3 is_stmt 0 view .LVU294
 1024 0080 05F13400 		add	r0, r5, #52
 1025              		.loc 1 160 27 view .LVU295
 1026 0084 C5F83C90 		str	r9, [r5, #60]	@ float
ARM GAS  /tmp/ccocil48.s 			page 19


 1027              		.loc 1 163 36 view .LVU296
 1028 0088 C5F84080 		str	r8, [r5, #64]
 1029              		.loc 1 161 24 view .LVU297
 1030 008c A5F834B0 		strh	fp, [r5, #52]	@ movhi
 1031              		.loc 1 162 3 is_stmt 1 view .LVU298
 1032              		.loc 1 163 3 view .LVU299
 1033              		.loc 1 164 3 view .LVU300
 1034              		.loc 1 159 27 is_stmt 0 view .LVU301
 1035 0090 C5F838A0 		str	r10, [r5, #56]	@ float
 1036              		.loc 1 164 3 view .LVU302
 1037 0094 FFF7FEFF 		bl	PDM_Filter_Init
 1038              	.LVL60:
 1039              		.loc 1 166 3 is_stmt 1 view .LVU303
 1040              		.loc 1 167 3 view .LVU304
 1041              		.loc 1 168 3 view .LVU305
 1042              		.loc 1 171 3 is_stmt 0 view .LVU306
 1043 0098 04F13400 		add	r0, r4, #52
 1044              		.loc 1 167 27 view .LVU307
 1045 009c C4F83C90 		str	r9, [r4, #60]	@ float
 1046              		.loc 1 170 36 view .LVU308
 1047 00a0 C4F84080 		str	r8, [r4, #64]
 1048              		.loc 1 168 24 view .LVU309
 1049 00a4 A4F834B0 		strh	fp, [r4, #52]	@ movhi
 1050              		.loc 1 169 3 is_stmt 1 view .LVU310
 1051              		.loc 1 170 3 view .LVU311
 1052              		.loc 1 171 3 view .LVU312
 1053              		.loc 1 166 27 is_stmt 0 view .LVU313
 1054 00a8 C4F838A0 		str	r10, [r4, #56]	@ float
 1055              		.loc 1 171 3 view .LVU314
 1056 00ac FFF7FEFF 		bl	PDM_Filter_Init
 1057              	.LVL61:
 1058              		.loc 1 157 36 is_stmt 1 view .LVU315
 1059              		.loc 1 157 11 view .LVU316
 1060              		.loc 1 157 11 is_stmt 0 view .LVU317
 1061              	.LBE149:
 1062              	.LBE151:
 1063              		.loc 1 391 5 is_stmt 1 view .LVU318
 1064              		.loc 1 395 30 is_stmt 0 view .LVU319
 1065 00b0 2C4D     		ldr	r5, .L41+40
 1066              		.loc 1 392 27 view .LVU320
 1067 00b2 DFF8D890 		ldr	r9, .L41+80
 1068              		.loc 1 408 5 view .LVU321
 1069 00b6 2C4C     		ldr	r4, .L41+44
 1070              		.loc 1 391 5 view .LVU322
 1071 00b8 3146     		mov	r1, r6
 1072 00ba 40F20C42 		movw	r2, #1036
 1073 00be 3846     		mov	r0, r7
 1074 00c0 FFF7FEFF 		bl	memset
 1075              	.LVL62:
 1076              		.loc 1 392 5 is_stmt 1 view .LVU323
 1077              		.loc 1 398 28 is_stmt 0 view .LVU324
 1078 00c4 4FF08008 		mov	r8, #128
 1079              		.loc 1 395 30 view .LVU325
 1080 00c8 284A     		ldr	r2, .L41+48
 1081              		.loc 1 392 27 view .LVU326
 1082 00ca C7F80894 		str	r9, [r7, #1032]
 1083              		.loc 1 394 5 is_stmt 1 view .LVU327
ARM GAS  /tmp/ccocil48.s 			page 20


 1084              		.loc 1 395 5 view .LVU328
 1085              		.loc 1 397 29 is_stmt 0 view .LVU329
 1086 00ce 4FF00063 		mov	r3, #134217728
 1087              		.loc 1 398 28 view .LVU330
 1088 00d2 C5E90238 		strd	r3, r8, [r5, #8]
 1089              		.loc 1 395 30 view .LVU331
 1090 00d6 C5E90026 		strd	r2, r6, [r5]
 1091              		.loc 1 396 5 is_stmt 1 view .LVU332
 1092              		.loc 1 397 5 view .LVU333
 1093              		.loc 1 398 5 view .LVU334
 1094              		.loc 1 399 5 view .LVU335
 1095              		.loc 1 401 5 view .LVU336
 1096 00da FFF7FEFF 		bl	spi3SlaveInit
 1097              	.LVL63:
 1098              		.loc 1 402 5 view .LVU337
 1099 00de 2448     		ldr	r0, .L41+52
 1100 00e0 2946     		mov	r1, r5
 1101 00e2 FFF7FEFF 		bl	spi3SlaveStart
 1102              	.LVL64:
 1103              		.loc 1 403 5 view .LVU338
 1104 00e6 07F50273 		add	r3, r7, #520
 1105 00ea 2148     		ldr	r0, .L41+52
 1106 00ec 07F10802 		add	r2, r7, #8
 1107 00f0 4FF48071 		mov	r1, #256
 1108 00f4 FFF7FEFF 		bl	spi3SlaveStartExchange
 1109              	.LVL65:
 1110              		.loc 1 408 5 view .LVU339
 1111 00f8 3146     		mov	r1, r6
 1112 00fa 2046     		mov	r0, r4
 1113 00fc 4FF40372 		mov	r2, #524
 1114 0100 FFF7FEFF 		bl	memset
 1115              	.LVL66:
 1116              		.loc 1 409 5 view .LVU340
 1117              		.loc 1 412 33 is_stmt 0 view .LVU341
 1118 0104 1B49     		ldr	r1, .L41+56
 1119              		.loc 1 415 33 view .LVU342
 1120 0106 1C4A     		ldr	r2, .L41+60
 1121              		.loc 1 417 33 view .LVU343
 1122 0108 1C4B     		ldr	r3, .L41+64
 1123              		.loc 1 409 27 view .LVU344
 1124 010a C4F80892 		str	r9, [r4, #520]
 1125              		.loc 1 411 5 is_stmt 1 view .LVU345
 1126              		.loc 1 412 5 view .LVU346
 1127              		.loc 1 417 33 is_stmt 0 view .LVU347
 1128 010e 0B61     		str	r3, [r1, #16]
 1129              		.loc 1 425 5 view .LVU348
 1130 0110 1B48     		ldr	r0, .L41+68
 1131              		.loc 1 413 33 view .LVU349
 1132 0112 0834     		adds	r4, r4, #8
 1133              		.loc 1 415 33 view .LVU350
 1134 0114 C1E90282 		strd	r8, r2, [r1, #8]
 1135              		.loc 1 412 33 view .LVU351
 1136 0118 C1E90064 		strd	r6, r4, [r1]
 1137              		.loc 1 413 5 is_stmt 1 view .LVU352
 1138              		.loc 1 414 5 view .LVU353
 1139              		.loc 1 417 5 view .LVU354
 1140              		.loc 1 422 5 view .LVU355
ARM GAS  /tmp/ccocil48.s 			page 21


 1141              		.loc 1 425 5 view .LVU356
 1142 011c FFF7FEFF 		bl	i2sStart
 1143              	.LVL67:
 1144              		.loc 1 426 5 view .LVU357
 1145 0120 064B     		ldr	r3, .L41
 1146 0122 1A68     		ldr	r2, [r3]
 1147 0124 039B     		ldr	r3, [sp, #12]
 1148 0126 5A40     		eors	r2, r3, r2
 1149 0128 05D1     		bne	.L40
 1150 012a 1548     		ldr	r0, .L41+68
 1151              		.loc 1 427 1 is_stmt 0 view .LVU358
 1152 012c 05B0     		add	sp, sp, #20
 1153              		.cfi_remember_state
 1154              		.cfi_def_cfa_offset 36
 1155              		@ sp needed
 1156 012e BDE8F04F 		pop	{r4, r5, r6, r7, r8, r9, r10, fp, lr}
 1157              		.cfi_restore 14
 1158              		.cfi_restore 11
 1159              		.cfi_restore 10
 1160              		.cfi_restore 9
 1161              		.cfi_restore 8
 1162              		.cfi_restore 7
 1163              		.cfi_restore 6
 1164              		.cfi_restore 5
 1165              		.cfi_restore 4
 1166              		.cfi_def_cfa_offset 0
 1167              		.loc 1 426 5 view .LVU359
 1168 0132 FFF7FEBF 		b	i2sStartExchange
 1169              	.LVL68:
 1170              	.L40:
 1171              		.cfi_restore_state
 1172 0136 FFF7FEFF 		bl	__stack_chk_fail
 1173              	.LVL69:
 1174              	.L42:
 1175 013a 00BF     		.align	2
 1176              	.L41:
 1177 013c 00000000 		.word	.LC3
 1178 0140 00000000 		.word	.LANCHOR13
 1179 0144 00000000 		.word	.LANCHOR1
 1180 0148 00000000 		.word	.LANCHOR7
 1181 014c 00000000 		.word	.LANCHOR9
 1182 0150 00000000 		.word	.LANCHOR0
 1183 0154 00000000 		.word	DataProcessing
 1184 0158 00000000 		.word	.LANCHOR17
 1185 015c 00000000 		.word	.LANCHOR18
 1186 0160 00380240 		.word	1073887232
 1187 0164 00000000 		.word	.LANCHOR19
 1188 0168 00000000 		.word	.LANCHOR2
 1189 016c 00000000 		.word	mp45dt02SPICb
 1190 0170 00000000 		.word	SPISLAVED3
 1191 0174 00000000 		.word	.LANCHOR20
 1192 0178 00000000 		.word	mp45dt02I2SCb
 1193 017c 2C030800 		.word	525100
 1194 0180 00000000 		.word	I2SD2
 1195 0184 00002041 		.word	1092616192
 1196 0188 0000FA45 		.word	1174011904
 1197 018c EFBEADDE 		.word	-559038737
ARM GAS  /tmp/ccocil48.s 			page 22


 1198              		.cfi_endproc
 1199              	.LFE261:
 1200              		.size	mp45dt02Init, .-mp45dt02Init
 1201              		.section	.rodata.mp45dt02Shutdown.cst4,"aM",%progbits,4
 1202              		.align	2
 1203              	.LC4:
 1204 0000 00000000 		.word	__stack_chk_guard
 1205              		.section	.text.mp45dt02Shutdown,"ax",%progbits
 1206              		.align	1
 1207              		.p2align 4,,15
 1208              		.global	mp45dt02Shutdown
 1209              		.syntax unified
 1210              		.thumb
 1211              		.thumb_func
 1212              		.fpu fpv4-sp-d16
 1213              		.type	mp45dt02Shutdown, %function
 1214              	mp45dt02Shutdown:
 1215              	.LFB262:
 1216              		.loc 1 430 1 is_stmt 1 view -0
 1217              		.cfi_startproc
 1218              		@ args = 0, pretend = 0, frame = 8
 1219              		@ frame_needed = 0, uses_anonymous_args = 0
 1220 0000 10B5     		push	{r4, lr}
 1221              		.cfi_def_cfa_offset 8
 1222              		.cfi_offset 4, -8
 1223              		.cfi_offset 14, -4
 1224 0002 144B     		ldr	r3, .L47
 1225              		.loc 1 431 5 is_stmt 0 view .LVU361
 1226 0004 1448     		ldr	r0, .L47+4
 1227              		.loc 1 437 5 view .LVU362
 1228 0006 154C     		ldr	r4, .L47+8
 1229              		.loc 1 430 1 view .LVU363
 1230 0008 82B0     		sub	sp, sp, #8
 1231              		.cfi_def_cfa_offset 16
 1232              		.loc 1 430 1 view .LVU364
 1233 000a 1B68     		ldr	r3, [r3]
 1234 000c 0193     		str	r3, [sp, #4]
 1235 000e 4FF00003 		mov	r3,#0
 1236              		.loc 1 431 5 is_stmt 1 view .LVU365
 1237 0012 FFF7FEFF 		bl	i2sStopExchange
 1238              	.LVL70:
 1239              		.loc 1 432 5 view .LVU366
 1240 0016 1048     		ldr	r0, .L47+4
 1241 0018 FFF7FEFF 		bl	i2sStop
 1242              	.LVL71:
 1243              		.loc 1 434 5 view .LVU367
 1244 001c 1048     		ldr	r0, .L47+12
 1245 001e FFF7FEFF 		bl	spi3SlaveStopExchange
 1246              	.LVL72:
 1247              		.loc 1 435 5 view .LVU368
 1248 0022 0F48     		ldr	r0, .L47+12
 1249 0024 FFF7FEFF 		bl	spi3SlaveStop
 1250              	.LVL73:
 1251              		.loc 1 437 5 view .LVU369
 1252 0028 2068     		ldr	r0, [r4]
 1253 002a FFF7FEFF 		bl	chThdTerminate
 1254              	.LVL74:
ARM GAS  /tmp/ccocil48.s 			page 23


 1255              		.loc 1 438 5 view .LVU370
 1256 002e 0D48     		ldr	r0, .L47+16
 1257 0030 0021     		movs	r1, #0
 1258 0032 FFF7FEFF 		bl	chSemReset
 1259              	.LVL75:
 1260              		.loc 1 439 5 view .LVU371
 1261 0036 2068     		ldr	r0, [r4]
 1262 0038 FFF7FEFF 		bl	chThdWait
 1263              	.LVL76:
 1264              		.loc 1 440 5 view .LVU372
 1265              		.loc 1 440 23 is_stmt 0 view .LVU373
 1266 003c 0023     		movs	r3, #0
 1267 003e 2360     		str	r3, [r4]
 1268              		.loc 1 441 1 view .LVU374
 1269 0040 044B     		ldr	r3, .L47
 1270 0042 1A68     		ldr	r2, [r3]
 1271 0044 019B     		ldr	r3, [sp, #4]
 1272 0046 5A40     		eors	r2, r3, r2
 1273 0048 01D1     		bne	.L46
 1274 004a 02B0     		add	sp, sp, #8
 1275              		.cfi_remember_state
 1276              		.cfi_def_cfa_offset 8
 1277              		@ sp needed
 1278 004c 10BD     		pop	{r4, pc}
 1279              	.L46:
 1280              		.cfi_restore_state
 1281 004e FFF7FEFF 		bl	__stack_chk_fail
 1282              	.LVL77:
 1283              	.L48:
 1284 0052 00BF     		.align	2
 1285              	.L47:
 1286 0054 00000000 		.word	.LC4
 1287 0058 00000000 		.word	I2SD2
 1288 005c 00000000 		.word	.LANCHOR18
 1289 0060 00000000 		.word	SPISLAVED3
 1290 0064 00000000 		.word	.LANCHOR1
 1291              		.cfi_endproc
 1292              	.LFE262:
 1293              		.size	mp45dt02Shutdown, .-mp45dt02Shutdown
 1294              		.section	.rodata.mp45dt02BufferPtr.cst4,"aM",%progbits,4
 1295              		.align	2
 1296              	.LC5:
 1297 0000 00000000 		.word	__stack_chk_guard
 1298              		.section	.text.mp45dt02BufferPtr,"ax",%progbits
 1299              		.align	1
 1300              		.p2align 4,,15
 1301              		.global	mp45dt02BufferPtr
 1302              		.syntax unified
 1303              		.thumb
 1304              		.thumb_func
 1305              		.fpu fpv4-sp-d16
 1306              		.type	mp45dt02BufferPtr, %function
 1307              	mp45dt02BufferPtr:
 1308              	.LFB263:
 1309              		.loc 1 443 34 is_stmt 1 view -0
 1310              		.cfi_startproc
 1311              		@ args = 0, pretend = 0, frame = 8
ARM GAS  /tmp/ccocil48.s 			page 24


 1312              		@ frame_needed = 0, uses_anonymous_args = 0
 1313 0000 00B5     		push	{lr}
 1314              		.cfi_def_cfa_offset 4
 1315              		.cfi_offset 14, -4
 1316              		.loc 1 444 9 is_stmt 0 view .LVU376
 1317 0002 094B     		ldr	r3, .L53
 1318              		.loc 1 443 34 view .LVU377
 1319 0004 094A     		ldr	r2, .L53+4
 1320              		.loc 1 444 9 view .LVU378
 1321 0006 1868     		ldr	r0, [r3]
 1322              		.loc 1 445 1 view .LVU379
 1323 0008 084B     		ldr	r3, .L53+4
 1324              		.loc 1 443 34 view .LVU380
 1325 000a 83B0     		sub	sp, sp, #12
 1326              		.cfi_def_cfa_offset 16
 1327              		.loc 1 443 34 view .LVU381
 1328 000c 1268     		ldr	r2, [r2]
 1329 000e 0192     		str	r2, [sp, #4]
 1330 0010 4FF00002 		mov	r2,#0
 1331              		.loc 1 444 2 is_stmt 1 view .LVU382
 1332              		.loc 1 445 1 is_stmt 0 view .LVU383
 1333 0014 1A68     		ldr	r2, [r3]
 1334 0016 019B     		ldr	r3, [sp, #4]
 1335 0018 5A40     		eors	r2, r3, r2
 1336 001a 02D1     		bne	.L52
 1337 001c 03B0     		add	sp, sp, #12
 1338              		.cfi_remember_state
 1339              		.cfi_def_cfa_offset 4
 1340              		@ sp needed
 1341 001e 5DF804FB 		ldr	pc, [sp], #4
 1342              	.L52:
 1343              		.cfi_restore_state
 1344 0022 FFF7FEFF 		bl	__stack_chk_fail
 1345              	.LVL78:
 1346              	.L54:
 1347 0026 00BF     		.align	2
 1348              	.L53:
 1349 0028 00000000 		.word	.LANCHOR14
 1350 002c 00000000 		.word	.LC5
 1351              		.cfi_endproc
 1352              	.LFE263:
 1353              		.size	mp45dt02BufferPtr, .-mp45dt02BufferPtr
 1354              		.global	PDM_filter_SPI
 1355              		.global	PDM_filter_I2S
 1356              		.global	Channel_Demux
 1357              		.section	.bss.DataProcessingSem,"aw",%nobits
 1358              		.align	2
 1359              		.set	.LANCHOR1,. + 0
 1360              		.type	DataProcessingSem, %object
 1361              		.size	DataProcessingSem, 12
 1362              	DataProcessingSem:
 1363 0000 00000000 		.space	12
 1363      00000000 
 1363      00000000 
 1364              		.section	.bss.DataProcessingThd,"aw",%nobits
 1365              		.align	2
 1366              		.set	.LANCHOR18,. + 0
ARM GAS  /tmp/ccocil48.s 			page 25


 1367              		.type	DataProcessingThd, %object
 1368              		.size	DataProcessingThd, 4
 1369              	DataProcessingThd:
 1370 0000 00000000 		.space	4
 1371              		.section	.bss.DataProcessingThdWA,"aw",%nobits
 1372              		.align	3
 1373              		.set	.LANCHOR17,. + 0
 1374              		.type	DataProcessingThdWA, %object
 1375              		.size	DataProcessingThdWA, 1400
 1376              	DataProcessingThdWA:
 1377 0000 00000000 		.space	1400
 1377      00000000 
 1377      00000000 
 1377      00000000 
 1377      00000000 
 1378              		.section	.bss.I2S_PCM_samples,"aw",%nobits
 1379              		.align	2
 1380              		.set	.LANCHOR8,. + 0
 1381              		.type	I2S_PCM_samples, %object
 1382              		.size	I2S_PCM_samples, 64
 1383              	I2S_PCM_samples:
 1384 0000 00000000 		.space	64
 1384      00000000 
 1384      00000000 
 1384      00000000 
 1384      00000000 
 1385              		.section	.bss.I2S_PDM_samples,"aw",%nobits
 1386              		.align	2
 1387              		.set	.LANCHOR4,. + 0
 1388              		.type	I2S_PDM_samples, %object
 1389              		.size	I2S_PDM_samples, 256
 1390              	I2S_PDM_samples:
 1391 0000 00000000 		.space	256
 1391      00000000 
 1391      00000000 
 1391      00000000 
 1391      00000000 
 1392              		.section	.bss.PCM_buffer1,"aw",%nobits
 1393              		.align	2
 1394              		.set	.LANCHOR15,. + 0
 1395              		.type	PCM_buffer1, %object
 1396              		.size	PCM_buffer1, 1280
 1397              	PCM_buffer1:
 1398 0000 00000000 		.space	1280
 1398      00000000 
 1398      00000000 
 1398      00000000 
 1398      00000000 
 1399              		.section	.bss.PCM_buffer2,"aw",%nobits
 1400              		.align	2
 1401              		.set	.LANCHOR16,. + 0
 1402              		.type	PCM_buffer2, %object
 1403              		.size	PCM_buffer2, 1280
 1404              	PCM_buffer2:
 1405 0000 00000000 		.space	1280
 1405      00000000 
 1405      00000000 
ARM GAS  /tmp/ccocil48.s 			page 26


 1405      00000000 
 1405      00000000 
 1406              		.section	.bss.PCM_buffer_index,"aw",%nobits
 1407              		.set	.LANCHOR12,. + 0
 1408              		.type	PCM_buffer_index, %object
 1409              		.size	PCM_buffer_index, 1
 1410              	PCM_buffer_index:
 1411 0000 00       		.space	1
 1412              		.section	.bss.PDM_filter_I2S,"aw",%nobits
 1413              		.align	2
 1414              		.set	.LANCHOR7,. + 0
 1415              		.type	PDM_filter_I2S, %object
 1416              		.size	PDM_filter_I2S, 104
 1417              	PDM_filter_I2S:
 1418 0000 00000000 		.space	104
 1418      00000000 
 1418      00000000 
 1418      00000000 
 1418      00000000 
 1419              		.section	.bss.PDM_filter_SPI,"aw",%nobits
 1420              		.align	2
 1421              		.set	.LANCHOR9,. + 0
 1422              		.type	PDM_filter_SPI, %object
 1423              		.size	PDM_filter_SPI, 104
 1424              	PDM_filter_SPI:
 1425 0000 00000000 		.space	104
 1425      00000000 
 1425      00000000 
 1425      00000000 
 1425      00000000 
 1426              		.section	.bss.SPI_PCM_samples,"aw",%nobits
 1427              		.align	2
 1428              		.set	.LANCHOR10,. + 0
 1429              		.type	SPI_PCM_samples, %object
 1430              		.size	SPI_PCM_samples, 64
 1431              	SPI_PCM_samples:
 1432 0000 00000000 		.space	64
 1432      00000000 
 1432      00000000 
 1432      00000000 
 1432      00000000 
 1433              		.section	.bss.SPI_PDM_samples,"aw",%nobits
 1434              		.align	2
 1435              		.set	.LANCHOR6,. + 0
 1436              		.type	SPI_PDM_samples, %object
 1437              		.size	SPI_PDM_samples, 256
 1438              	SPI_PDM_samples:
 1439 0000 00000000 		.space	256
 1439      00000000 
 1439      00000000 
 1439      00000000 
 1439      00000000 
 1440              		.section	.bss.initConfig,"aw",%nobits
 1441              		.align	2
 1442              		.set	.LANCHOR13,. + 0
 1443              		.type	initConfig, %object
 1444              		.size	initConfig, 4
ARM GAS  /tmp/ccocil48.s 			page 27


 1445              	initConfig:
 1446 0000 00000000 		.space	4
 1447              		.section	.bss.mp45dt02I2SConfig,"aw",%nobits
 1448              		.align	2
 1449              		.set	.LANCHOR20,. + 0
 1450              		.type	mp45dt02I2SConfig, %object
 1451              		.size	mp45dt02I2SConfig, 20
 1452              	mp45dt02I2SConfig:
 1453 0000 00000000 		.space	20
 1453      00000000 
 1453      00000000 
 1453      00000000 
 1453      00000000 
 1454              		.section	.bss.mp45dt02I2sData,"aw",%nobits
 1455              		.align	2
 1456              		.set	.LANCHOR2,. + 0
 1457              		.type	mp45dt02I2sData, %object
 1458              		.size	mp45dt02I2sData, 524
 1459              	mp45dt02I2sData:
 1460 0000 00000000 		.space	524
 1460      00000000 
 1460      00000000 
 1460      00000000 
 1460      00000000 
 1461              		.section	.bss.mp45dt02SPIConfig,"aw",%nobits
 1462              		.align	2
 1463              		.set	.LANCHOR19,. + 0
 1464              		.type	mp45dt02SPIConfig, %object
 1465              		.size	mp45dt02SPIConfig, 16
 1466              	mp45dt02SPIConfig:
 1467 0000 00000000 		.space	16
 1467      00000000 
 1467      00000000 
 1467      00000000 
 1468              		.section	.bss.mp45dt02SPIData,"aw",%nobits
 1469              		.align	2
 1470              		.set	.LANCHOR0,. + 0
 1471              		.type	mp45dt02SPIData, %object
 1472              		.size	mp45dt02SPIData, 1036
 1473              	mp45dt02SPIData:
 1474 0000 00000000 		.space	1036
 1474      00000000 
 1474      00000000 
 1474      00000000 
 1474      00000000 
 1475              		.section	.data.Channel_Demux,"aw"
 1476              		.align	2
 1477              		.set	.LANCHOR5,. + 0
 1478              		.type	Channel_Demux, %object
 1479              		.size	Channel_Demux, 128
 1480              	Channel_Demux:
 1481 0000 00010001 		.ascii	"\000\001\000\001\002\003\002\003\000\001\000\001\002"
 1481      02030203 
 1481      00010001 
 1481      02
 1482 000d 03020304 		.ascii	"\003\002\003\004\005\004\005\006\007\006\007\004\005"
 1482      05040506 
ARM GAS  /tmp/ccocil48.s 			page 28


 1482      07060704 
 1482      05
 1483 001a 04050607 		.ascii	"\004\005\006\007\006\007\000\001\000\001\002\003\002"
 1483      06070001 
 1483      00010203 
 1483      02
 1484 0027 03000100 		.ascii	"\003\000\001\000\001\002\003\002\003\004\005\004\005"
 1484      01020302 
 1484      03040504 
 1484      05
 1485 0034 06070607 		.ascii	"\006\007\006\007\004\005\004\005\006\007\006\007\010"
 1485      04050405 
 1485      06070607 
 1485      08
 1486 0041 0908090A 		.ascii	"\011\010\011\012\013\012\013\010\011\010\011\012\013"
 1486      0B0A0B08 
 1486      0908090A 
 1486      0B
 1487 004e 0A0B0C0D 		.ascii	"\012\013\014\015\014\015\016\017\016\017\014\015\014"
 1487      0C0D0E0F 
 1487      0E0F0C0D 
 1487      0C
 1488 005b 0D0E0F0E 		.ascii	"\015\016\017\016\017\010\011\010\011\012\013\012\013"
 1488      0F080908 
 1488      090A0B0A 
 1488      0B
 1489 0068 08090809 		.ascii	"\010\011\010\011\012\013\012\013\014\015\014\015\016"
 1489      0A0B0A0B 
 1489      0C0D0C0D 
 1489      0E
 1490 0075 0F0E0F0C 		.ascii	"\017\016\017\014\015\014\015\016\017\016\017"
 1490      0D0C0D0E 
 1490      0F0E0F
 1491              		.section	.data.PCM_buffer_ptr_curr,"aw"
 1492              		.align	2
 1493              		.set	.LANCHOR11,. + 0
 1494              		.type	PCM_buffer_ptr_curr, %object
 1495              		.size	PCM_buffer_ptr_curr, 4
 1496              	PCM_buffer_ptr_curr:
 1497 0000 00000000 		.word	PCM_buffer1
 1498              		.section	.data.PCM_buffer_ptr_last,"aw"
 1499              		.align	2
 1500              		.set	.LANCHOR14,. + 0
 1501              		.type	PCM_buffer_ptr_last, %object
 1502              		.size	PCM_buffer_ptr_last, 4
 1503              	PCM_buffer_ptr_last:
 1504 0000 00000000 		.word	PCM_buffer2
 1505              		.section	.rodata.__FUNCTION__.10518,"a"
 1506              		.align	2
 1507              		.set	.LANCHOR3,. + 0
 1508              		.type	__FUNCTION__.10518, %object
 1509              		.size	__FUNCTION__.10518, 15
 1510              	__FUNCTION__.10518:
 1511 0000 44617461 		.ascii	"DataProcessing\000"
 1511      50726F63 
 1511      65737369 
 1511      6E6700
ARM GAS  /tmp/ccocil48.s 			page 29


 1512              		.text
 1513              	.Letext0:
 1514              		.file 7 "/usr/lib/gcc/arm-none-eabi/9.2.1/include/stddef.h"
 1515              		.file 8 "/usr/include/newlib/sys/_types.h"
 1516              		.file 9 "/usr/include/newlib/sys/reent.h"
 1517              		.file 10 "/usr/include/newlib/sys/lock.h"
 1518              		.file 11 "/usr/lib/gcc/arm-none-eabi/9.2.1/include/stdint.h"
 1519              		.file 12 ".//ChibiOS//os/rt/ports/ARMCMx/compilers/GCC/chtypes.h"
 1520              		.file 13 ".//ChibiOS//os/rt/include/chsystypes.h"
 1521              		.file 14 ".//ChibiOS//os/rt/include/chschd.h"
 1522              		.file 15 ".//ChibiOS//os/ext/CMSIS/include/core_cm4.h"
 1523              		.file 16 ".//ChibiOS//os/ext/CMSIS/ST/system_stm32f4xx.h"
 1524              		.file 17 ".//ChibiOS//os/ext/CMSIS/ST/stm32f407xx.h"
 1525              		.file 18 ".//ChibiOS//os/rt/ports/ARMCMx/chcore.h"
 1526              		.file 19 ".//ChibiOS//os/rt/include/chdebug.h"
 1527              		.file 20 ".//ChibiOS//os/rt/include/chtm.h"
 1528              		.file 21 ".//ChibiOS//os/rt/include/chstats.h"
 1529              		.file 22 ".//ChibiOS//os/rt/include/chsem.h"
 1530              		.file 23 ".//ChibiOS//os/rt/include/chmtx.h"
 1531              		.file 24 ".//ChibiOS//os/rt/include/chevents.h"
 1532              		.file 25 ".//ChibiOS//os/rt/include/chqueues.h"
 1533              		.file 26 ".//ChibiOS//os/hal/ports/STM32/STM32F4xx/stm32_dma.h"
 1534              		.file 27 ".//ChibiOS//os/hal/include/hal_ioblock.h"
 1535              		.file 28 ".//ChibiOS//os/hal/ports/STM32/LLD/GPIOv2/pal_lld.h"
 1536              		.file 29 ".//ChibiOS//os/hal/include/adc.h"
 1537              		.file 30 ".//ChibiOS//os/hal/ports/STM32/STM32F4xx/adc_lld.h"
 1538              		.file 31 ".//ChibiOS//os/hal/include/can.h"
 1539              		.file 32 ".//ChibiOS//os/hal/ports/STM32/LLD/can_lld.h"
 1540              		.file 33 ".//ChibiOS//os/hal/include/dac.h"
 1541              		.file 34 ".//ChibiOS//os/hal/ports/STM32/LLD/DACv1/dac_lld.h"
 1542              		.file 35 ".//ChibiOS//os/hal/include/ext.h"
 1543              		.file 36 ".//ChibiOS//os/hal/ports/STM32/LLD/ext_lld.h"
 1544              		.file 37 ".//ChibiOS//os/hal/include/gpt.h"
 1545              		.file 38 ".//ChibiOS//os/hal/ports/STM32/LLD/TIMv1/gpt_lld.h"
 1546              		.file 39 ".//ChibiOS//os/hal/ports/STM32/LLD/TIMv1/stm32_tim.h"
 1547              		.file 40 ".//ChibiOS//os/hal/include/i2c.h"
 1548              		.file 41 ".//ChibiOS//os/hal/ports/STM32/LLD/I2Cv1/i2c_lld.h"
 1549              		.file 42 ".//ChibiOS//os/hal/include/i2s.h"
 1550              		.file 43 ".//ChibiOS//os/hal/ports/STM32/LLD/SPIv1/i2s_lld.h"
 1551              		.file 44 ".//ChibiOS//os/hal/include/pwm.h"
 1552              		.file 45 ".//ChibiOS//os/hal/ports/STM32/LLD/TIMv1/pwm_lld.h"
 1553              		.file 46 ".//ChibiOS//os/hal/include/serial.h"
 1554              		.file 47 ".//ChibiOS//os/hal/ports/STM32/LLD/USARTv1/serial_lld.h"
 1555              		.file 48 ".//ChibiOS//os/hal/include/sdc.h"
 1556              		.file 49 ".//ChibiOS//os/hal/ports/STM32/LLD/sdc_lld.h"
 1557              		.file 50 ".//ChibiOS//os/hal/include/spi.h"
 1558              		.file 51 ".//ChibiOS//os/hal/ports/STM32/LLD/SPIv1/spi_lld.h"
 1559              		.file 52 ".//ChibiOS//os/hal/include/usb.h"
 1560              		.file 53 ".//ChibiOS//os/hal/ports/STM32/LLD/OTGv1/usb_lld.h"
 1561              		.file 54 ".//ChibiOS//os/hal/ports/STM32/LLD/OTGv1/stm32_otg.h"
 1562              		.file 55 ".//ChibiOS_ext/os/hal/include/spi3_slave.h"
 1563              		.file 56 ".//src/audio/mp45dt02_processing.h"
 1564              		.file 57 ".//src/audio/pdm_filter.h"
 1565              		.file 58 "<built-in>"