ARM GAS  /tmp/ccNS9V2T.s 			page 1


   1              		.cpu cortex-m4
   2              		.eabi_attribute 27, 1
   3              		.eabi_attribute 28, 1
   4              		.eabi_attribute 20, 1
   5              		.eabi_attribute 21, 1
   6              		.eabi_attribute 23, 3
   7              		.eabi_attribute 24, 1
   8              		.eabi_attribute 25, 1
   9              		.eabi_attribute 26, 1
  10              		.eabi_attribute 30, 2
  11              		.eabi_attribute 34, 1
  12              		.eabi_attribute 18, 4
  13              		.file	"mpu9250.c"
  14              		.text
  15              	.Ltext0:
  16              		.cfi_sections	.debug_frame
  17              		.section	.rodata.mpu9250_change_addr.cst4,"aM",%progbits,4
  18              		.align	2
  19              	.LC0:
  20 0000 00000000 		.word	__stack_chk_guard
  21              		.section	.text.mpu9250_change_addr,"ax",%progbits
  22              		.align	1
  23              		.p2align 4,,15
  24              		.global	mpu9250_change_addr
  25              		.arch armv7e-m
  26              		.syntax unified
  27              		.thumb
  28              		.thumb_func
  29              		.fpu fpv4-sp-d16
  30              		.type	mpu9250_change_addr, %function
  31              	mpu9250_change_addr:
  32              	.LFB256:
  33              		.file 1 ".//src/sensors/mpu9250.c"
  34              		.loc 1 22 32 view -0
  35              		.cfi_startproc
  36              		@ args = 0, pretend = 0, frame = 8
  37              		@ frame_needed = 0, uses_anonymous_args = 0
  38 0000 00B5     		push	{lr}
  39              		.cfi_def_cfa_offset 4
  40              		.cfi_offset 14, -4
  41              		.loc 1 23 14 is_stmt 0 view .LVU1
  42 0002 0B4B     		ldr	r3, .L8
  43              		.loc 1 22 32 view .LVU2
  44 0004 0B4A     		ldr	r2, .L8+4
  45 0006 83B0     		sub	sp, sp, #12
  46              		.cfi_def_cfa_offset 16
  47              		.loc 1 22 32 view .LVU3
  48 0008 1268     		ldr	r2, [r2]
  49 000a 0192     		str	r2, [sp, #4]
  50 000c 4FF00002 		mov	r2,#0
  51              		.loc 1 23 2 is_stmt 1 view .LVU4
  52              		.loc 1 23 4 is_stmt 0 view .LVU5
  53 0010 1A78     		ldrb	r2, [r3]	@ zero_extendqisi2
  54 0012 682A     		cmp	r2, #104
  55              		.loc 1 26 12 view .LVU6
  56 0014 0CBF     		ite	eq
  57 0016 6922     		moveq	r2, #105
ARM GAS  /tmp/ccNS9V2T.s 			page 2


  58 0018 6822     		movne	r2, #104
  59 001a 1A70     		strb	r2, [r3]
  60              		.loc 1 28 1 view .LVU7
  61 001c 054B     		ldr	r3, .L8+4
  62 001e 1A68     		ldr	r2, [r3]
  63 0020 019B     		ldr	r3, [sp, #4]
  64 0022 5A40     		eors	r2, r3, r2
  65 0024 02D1     		bne	.L7
  66 0026 03B0     		add	sp, sp, #12
  67              		.cfi_remember_state
  68              		.cfi_def_cfa_offset 4
  69              		@ sp needed
  70 0028 5DF804FB 		ldr	pc, [sp], #4
  71              	.L7:
  72              		.cfi_restore_state
  73 002c FFF7FEFF 		bl	__stack_chk_fail
  74              	.LVL0:
  75              	.L9:
  76              		.align	2
  77              	.L8:
  78 0030 00000000 		.word	.LANCHOR0
  79 0034 00000000 		.word	.LC0
  80              		.cfi_endproc
  81              	.LFE256:
  82              		.size	mpu9250_change_addr, .-mpu9250_change_addr
  83              		.section	.rodata.mpu9250_read_id.cst4,"aM",%progbits,4
  84              		.align	2
  85              	.LC1:
  86 0000 00000000 		.word	__stack_chk_guard
  87              		.section	.text.mpu9250_read_id,"ax",%progbits
  88              		.align	1
  89              		.p2align 4,,15
  90              		.global	mpu9250_read_id
  91              		.syntax unified
  92              		.thumb
  93              		.thumb_func
  94              		.fpu fpv4-sp-d16
  95              		.type	mpu9250_read_id, %function
  96              	mpu9250_read_id:
  97              	.LVL1:
  98              	.LFB257:
  99              		.loc 1 39 37 is_stmt 1 view -0
 100              		.cfi_startproc
 101              		@ args = 0, pretend = 0, frame = 16
 102              		@ frame_needed = 0, uses_anonymous_args = 0
 103              		.loc 1 39 37 is_stmt 0 view .LVU9
 104 0000 10B5     		push	{r4, lr}
 105              		.cfi_def_cfa_offset 8
 106              		.cfi_offset 4, -8
 107              		.cfi_offset 14, -4
 108 0002 144B     		ldr	r3, .L18
 109              		.loc 1 41 15 view .LVU10
 110 0004 144C     		ldr	r4, .L18+4
 111              		.loc 1 39 37 view .LVU11
 112 0006 84B0     		sub	sp, sp, #16
 113              		.cfi_def_cfa_offset 24
 114              		.loc 1 39 37 view .LVU12
ARM GAS  /tmp/ccNS9V2T.s 			page 3


 115 0008 1B68     		ldr	r3, [r3]
 116 000a 0393     		str	r3, [sp, #12]
 117 000c 4FF00003 		mov	r3,#0
 118              		.loc 1 40 5 is_stmt 1 view .LVU13
 119              	.LVL2:
 120              		.loc 1 41 5 view .LVU14
 121              		.loc 1 39 37 is_stmt 0 view .LVU15
 122 0010 0246     		mov	r2, r0
 123              		.loc 1 41 15 view .LVU16
 124 0012 0190     		str	r0, [sp, #4]
 125 0014 7521     		movs	r1, #117
 126 0016 2078     		ldrb	r0, [r4]	@ zero_extendqisi2
 127              	.LVL3:
 128              		.loc 1 41 15 view .LVU17
 129 0018 FFF7FEFF 		bl	read_reg
 130              	.LVL4:
 131              		.loc 1 41 7 view .LVU18
 132 001c 88B1     		cbz	r0, .L11
 133              	.LVL5:
 134              	.LBB52:
 135              	.LBI52:
 136              		.loc 1 39 8 is_stmt 1 view .LVU19
 137              	.LBB53:
 138              		.loc 1 42 6 view .LVU20
 139              	.LBB54:
 140              	.LBI54:
 141              		.loc 1 22 6 view .LVU21
 142              	.LBB55:
 143              		.loc 1 23 2 view .LVU22
 144              		.loc 1 23 4 is_stmt 0 view .LVU23
 145 001e 2378     		ldrb	r3, [r4]	@ zero_extendqisi2
 146              	.LBE55:
 147              	.LBE54:
 148              		.loc 1 43 16 view .LVU24
 149 0020 019A     		ldr	r2, [sp, #4]
 150              	.LBB57:
 151              	.LBB56:
 152              		.loc 1 23 4 view .LVU25
 153 0022 682B     		cmp	r3, #104
 154              		.loc 1 26 12 view .LVU26
 155 0024 0CBF     		ite	eq
 156 0026 6920     		moveq	r0, #105
 157              	.LVL6:
 158              		.loc 1 26 12 view .LVU27
 159 0028 6820     		movne	r0, #104
 160              	.LBE56:
 161              	.LBE57:
 162              		.loc 1 43 16 view .LVU28
 163 002a 0A4B     		ldr	r3, .L18
 164 002c 2070     		strb	r0, [r4]
 165              		.loc 1 43 6 is_stmt 1 view .LVU29
 166              		.loc 1 43 16 is_stmt 0 view .LVU30
 167 002e 1968     		ldr	r1, [r3]
 168 0030 039B     		ldr	r3, [sp, #12]
 169 0032 5940     		eors	r1, r3, r1
 170 0034 0CD1     		bne	.L17
 171 0036 7521     		movs	r1, #117
ARM GAS  /tmp/ccNS9V2T.s 			page 4


 172              	.LBE53:
 173              	.LBE52:
 174              		.loc 1 48 1 view .LVU31
 175 0038 04B0     		add	sp, sp, #16
 176              		.cfi_remember_state
 177              		.cfi_def_cfa_offset 8
 178              		@ sp needed
 179 003a BDE81040 		pop	{r4, lr}
 180              		.cfi_restore 14
 181              		.cfi_restore 4
 182              		.cfi_def_cfa_offset 0
 183              	.LVL7:
 184              	.LBB59:
 185              	.LBB58:
 186              		.loc 1 43 16 view .LVU32
 187 003e FFF7FEBF 		b	read_reg
 188              	.LVL8:
 189              	.L11:
 190              		.cfi_restore_state
 191              		.loc 1 43 16 view .LVU33
 192              	.LBE58:
 193              	.LBE59:
 194              		.loc 1 48 1 view .LVU34
 195 0042 044B     		ldr	r3, .L18
 196 0044 1A68     		ldr	r2, [r3]
 197 0046 039B     		ldr	r3, [sp, #12]
 198 0048 5A40     		eors	r2, r3, r2
 199 004a 01D1     		bne	.L17
 200 004c 04B0     		add	sp, sp, #16
 201              		.cfi_remember_state
 202              		.cfi_def_cfa_offset 8
 203              		@ sp needed
 204 004e 10BD     		pop	{r4, pc}
 205              	.LVL9:
 206              	.L17:
 207              		.cfi_restore_state
 208              		.loc 1 48 1 view .LVU35
 209 0050 FFF7FEFF 		bl	__stack_chk_fail
 210              	.LVL10:
 211              	.L19:
 212              		.align	2
 213              	.L18:
 214 0054 00000000 		.word	.LC1
 215 0058 00000000 		.word	.LANCHOR0
 216              		.cfi_endproc
 217              	.LFE257:
 218              		.size	mpu9250_read_id, .-mpu9250_read_id
 219              		.section	.rodata.mpu9250_setup.cst4,"aM",%progbits,4
 220              		.align	2
 221              	.LC2:
 222 0000 00000000 		.word	__stack_chk_guard
 223              		.section	.text.mpu9250_setup,"ax",%progbits
 224              		.align	1
 225              		.p2align 4,,15
 226              		.global	mpu9250_setup
 227              		.syntax unified
 228              		.thumb
ARM GAS  /tmp/ccNS9V2T.s 			page 5


 229              		.thumb_func
 230              		.fpu fpv4-sp-d16
 231              		.type	mpu9250_setup, %function
 232              	mpu9250_setup:
 233              	.LVL11:
 234              	.LFB259:
 235              		.loc 1 67 34 is_stmt 1 view -0
 236              		.cfi_startproc
 237              		@ args = 0, pretend = 0, frame = 16
 238              		@ frame_needed = 0, uses_anonymous_args = 0
 239              		.loc 1 67 34 is_stmt 0 view .LVU37
 240 0000 30B5     		push	{r4, r5, lr}
 241              		.cfi_def_cfa_offset 12
 242              		.cfi_offset 4, -12
 243              		.cfi_offset 5, -8
 244              		.cfi_offset 14, -4
 245 0002 4D4B     		ldr	r3, .L56
 246              		.loc 1 72 15 view .LVU38
 247 0004 4D4C     		ldr	r4, .L56+4
 248              		.loc 1 67 34 view .LVU39
 249 0006 85B0     		sub	sp, sp, #20
 250              		.cfi_def_cfa_offset 32
 251              		.loc 1 67 34 view .LVU40
 252 0008 1B68     		ldr	r3, [r3]
 253 000a 0393     		str	r3, [sp, #12]
 254 000c 4FF00003 		mov	r3,#0
 255              		.loc 1 68 2 is_stmt 1 view .LVU41
 256              	.LVL12:
 257              		.loc 1 69 2 view .LVU42
 258              		.loc 1 67 34 is_stmt 0 view .LVU43
 259 0010 0546     		mov	r5, r0
 260              		.loc 1 69 10 view .LVU44
 261 0012 0023     		movs	r3, #0
 262              		.loc 1 72 15 view .LVU45
 263 0014 2078     		ldrb	r0, [r4]	@ zero_extendqisi2
 264              	.LVL13:
 265              		.loc 1 69 10 view .LVU46
 266 0016 8DF80B30 		strb	r3, [sp, #11]
 267              		.loc 1 72 5 is_stmt 1 view .LVU47
 268              		.loc 1 72 15 is_stmt 0 view .LVU48
 269 001a 8022     		movs	r2, #128
 270 001c 6B21     		movs	r1, #107
 271 001e FFF7FEFF 		bl	write_reg
 272              	.LVL14:
 273              		.loc 1 72 7 view .LVU49
 274 0022 58B1     		cbz	r0, .L53
 275              		.loc 1 73 6 is_stmt 1 view .LVU50
 276              	.LBB60:
 277              	.LBI60:
 278              		.loc 1 22 6 view .LVU51
 279              	.LBB61:
 280              		.loc 1 23 2 view .LVU52
 281              		.loc 1 23 4 is_stmt 0 view .LVU53
 282 0024 2378     		ldrb	r3, [r4]	@ zero_extendqisi2
 283              		.loc 1 26 12 view .LVU54
 284 0026 682B     		cmp	r3, #104
 285 0028 0CBF     		ite	eq
ARM GAS  /tmp/ccNS9V2T.s 			page 6


 286 002a 6920     		moveq	r0, #105
 287              	.LVL15:
 288              		.loc 1 26 12 view .LVU55
 289 002c 6820     		movne	r0, #104
 290              	.LBE61:
 291              	.LBE60:
 292              		.loc 1 74 16 view .LVU56
 293 002e 8022     		movs	r2, #128
 294 0030 6B21     		movs	r1, #107
 295 0032 2070     		strb	r0, [r4]
 296              		.loc 1 74 6 is_stmt 1 view .LVU57
 297              		.loc 1 74 16 is_stmt 0 view .LVU58
 298 0034 FFF7FEFF 		bl	write_reg
 299              	.LVL16:
 300              		.loc 1 74 8 view .LVU59
 301 0038 0028     		cmp	r0, #0
 302 003a 74D1     		bne	.L24
 303              	.L53:
 304              		.loc 1 89 9 is_stmt 1 view .LVU60
 305 003c 0120     		movs	r0, #1
 306              	.LVL17:
 307              		.loc 1 89 9 is_stmt 0 view .LVU61
 308 003e FFF7FEFF 		bl	chThdSleep
 309              	.LVL18:
 310              		.loc 1 79 10 is_stmt 1 view .LVU62
 311              		.loc 1 79 5 view .LVU63
 312              		.loc 1 80 3 view .LVU64
 313              		.loc 1 80 13 is_stmt 0 view .LVU65
 314 0042 2078     		ldrb	r0, [r4]	@ zero_extendqisi2
 315 0044 0DF10B02 		add	r2, sp, #11
 316 0048 6B21     		movs	r1, #107
 317 004a FFF7FEFF 		bl	read_reg
 318              	.LVL19:
 319              		.loc 1 80 5 view .LVU66
 320 004e 60B1     		cbz	r0, .L30
 321              		.loc 1 81 4 is_stmt 1 view .LVU67
 322              	.LBB62:
 323              	.LBI62:
 324              		.loc 1 22 6 view .LVU68
 325              	.LBB63:
 326              		.loc 1 23 2 view .LVU69
 327              		.loc 1 23 4 is_stmt 0 view .LVU70
 328 0050 2378     		ldrb	r3, [r4]	@ zero_extendqisi2
 329              		.loc 1 26 12 view .LVU71
 330 0052 682B     		cmp	r3, #104
 331 0054 0CBF     		ite	eq
 332 0056 6920     		moveq	r0, #105
 333              	.LVL20:
 334              		.loc 1 26 12 view .LVU72
 335 0058 6820     		movne	r0, #104
 336              	.LBE63:
 337              	.LBE62:
 338              		.loc 1 82 14 view .LVU73
 339 005a 0DF10B02 		add	r2, sp, #11
 340 005e 6B21     		movs	r1, #107
 341 0060 2070     		strb	r0, [r4]
 342              		.loc 1 82 4 is_stmt 1 view .LVU74
ARM GAS  /tmp/ccNS9V2T.s 			page 7


 343              		.loc 1 82 14 is_stmt 0 view .LVU75
 344 0062 FFF7FEFF 		bl	read_reg
 345              	.LVL21:
 346              		.loc 1 82 6 view .LVU76
 347 0066 0028     		cmp	r0, #0
 348 0068 5DD1     		bne	.L24
 349              	.L30:
 350              		.loc 1 86 3 is_stmt 1 view .LVU77
 351              		.loc 1 86 5 is_stmt 0 view .LVU78
 352 006a 9DF90B30 		ldrsb	r3, [sp, #11]
 353 006e 002B     		cmp	r3, #0
 354 0070 E4DB     		blt	.L53
 355              		.loc 1 93 5 is_stmt 1 view .LVU79
 356              		.loc 1 93 56 is_stmt 0 view .LVU80
 357 0072 6A00     		lsls	r2, r5, #1
 358              		.loc 1 93 15 view .LVU81
 359 0074 02F01802 		and	r2, r2, #24
 360 0078 2078     		ldrb	r0, [r4]	@ zero_extendqisi2
 361              	.LVL22:
 362              		.loc 1 93 15 view .LVU82
 363 007a 0192     		str	r2, [sp, #4]
 364 007c 1B21     		movs	r1, #27
 365 007e FFF7FEFF 		bl	write_reg
 366              	.LVL23:
 367              		.loc 1 93 7 view .LVU83
 368 0082 019A     		ldr	r2, [sp, #4]
 369 0084 50B1     		cbz	r0, .L35
 370              		.loc 1 94 6 is_stmt 1 view .LVU84
 371              	.LBB64:
 372              	.LBI64:
 373              		.loc 1 22 6 view .LVU85
 374              	.LBB65:
 375              		.loc 1 23 2 view .LVU86
 376              		.loc 1 23 4 is_stmt 0 view .LVU87
 377 0086 2378     		ldrb	r3, [r4]	@ zero_extendqisi2
 378              		.loc 1 26 12 view .LVU88
 379 0088 682B     		cmp	r3, #104
 380 008a 0CBF     		ite	eq
 381 008c 6920     		moveq	r0, #105
 382              	.LVL24:
 383              		.loc 1 26 12 view .LVU89
 384 008e 6820     		movne	r0, #104
 385              	.LBE65:
 386              	.LBE64:
 387              		.loc 1 95 16 view .LVU90
 388 0090 1B21     		movs	r1, #27
 389 0092 2070     		strb	r0, [r4]
 390              		.loc 1 95 6 is_stmt 1 view .LVU91
 391              		.loc 1 95 16 is_stmt 0 view .LVU92
 392 0094 FFF7FEFF 		bl	write_reg
 393              	.LVL25:
 394              		.loc 1 95 8 view .LVU93
 395 0098 0028     		cmp	r0, #0
 396 009a 44D1     		bne	.L24
 397              	.L35:
 398              		.loc 1 99 5 is_stmt 1 view .LVU94
 399 009c 0120     		movs	r0, #1
ARM GAS  /tmp/ccNS9V2T.s 			page 8


 400              	.LVL26:
 401              		.loc 1 99 5 is_stmt 0 view .LVU95
 402 009e FFF7FEFF 		bl	chThdSleep
 403              	.LVL27:
 404              		.loc 1 102 5 is_stmt 1 view .LVU96
 405              		.loc 1 102 57 is_stmt 0 view .LVU97
 406 00a2 EA00     		lsls	r2, r5, #3
 407              		.loc 1 102 15 view .LVU98
 408 00a4 02F01802 		and	r2, r2, #24
 409 00a8 2078     		ldrb	r0, [r4]	@ zero_extendqisi2
 410 00aa 0192     		str	r2, [sp, #4]
 411 00ac 1C21     		movs	r1, #28
 412 00ae FFF7FEFF 		bl	write_reg
 413              	.LVL28:
 414              		.loc 1 102 7 view .LVU99
 415 00b2 019A     		ldr	r2, [sp, #4]
 416 00b4 48B1     		cbz	r0, .L33
 417              		.loc 1 103 6 is_stmt 1 view .LVU100
 418              	.LBB66:
 419              	.LBI66:
 420              		.loc 1 22 6 view .LVU101
 421              	.LBB67:
 422              		.loc 1 23 2 view .LVU102
 423              		.loc 1 23 4 is_stmt 0 view .LVU103
 424 00b6 2378     		ldrb	r3, [r4]	@ zero_extendqisi2
 425              		.loc 1 26 12 view .LVU104
 426 00b8 682B     		cmp	r3, #104
 427 00ba 0CBF     		ite	eq
 428 00bc 6920     		moveq	r0, #105
 429              	.LVL29:
 430              		.loc 1 26 12 view .LVU105
 431 00be 6820     		movne	r0, #104
 432              	.LBE67:
 433              	.LBE66:
 434              		.loc 1 104 16 view .LVU106
 435 00c0 1C21     		movs	r1, #28
 436 00c2 2070     		strb	r0, [r4]
 437              		.loc 1 104 6 is_stmt 1 view .LVU107
 438              		.loc 1 104 16 is_stmt 0 view .LVU108
 439 00c4 FFF7FEFF 		bl	write_reg
 440              	.LVL30:
 441              		.loc 1 104 8 view .LVU109
 442 00c8 68BB     		cbnz	r0, .L24
 443              	.L33:
 444              		.loc 1 108 5 is_stmt 1 view .LVU110
 445 00ca 0120     		movs	r0, #1
 446              	.LVL31:
 447              		.loc 1 111 15 is_stmt 0 view .LVU111
 448 00cc C5F30725 		ubfx	r5, r5, #8, #8
 449              	.LVL32:
 450              		.loc 1 108 5 view .LVU112
 451 00d0 FFF7FEFF 		bl	chThdSleep
 452              	.LVL33:
 453              		.loc 1 111 5 is_stmt 1 view .LVU113
 454              		.loc 1 111 15 is_stmt 0 view .LVU114
 455 00d4 2078     		ldrb	r0, [r4]	@ zero_extendqisi2
 456 00d6 2A46     		mov	r2, r5
ARM GAS  /tmp/ccNS9V2T.s 			page 9


 457 00d8 1921     		movs	r1, #25
 458 00da FFF7FEFF 		bl	write_reg
 459              	.LVL34:
 460              		.loc 1 111 7 view .LVU115
 461 00de 50B1     		cbz	r0, .L37
 462              		.loc 1 112 6 is_stmt 1 view .LVU116
 463              	.LBB68:
 464              	.LBI68:
 465              		.loc 1 22 6 view .LVU117
 466              	.LBB69:
 467              		.loc 1 23 2 view .LVU118
 468              		.loc 1 23 4 is_stmt 0 view .LVU119
 469 00e0 2378     		ldrb	r3, [r4]	@ zero_extendqisi2
 470              		.loc 1 26 12 view .LVU120
 471 00e2 682B     		cmp	r3, #104
 472 00e4 0CBF     		ite	eq
 473 00e6 6920     		moveq	r0, #105
 474              	.LVL35:
 475              		.loc 1 26 12 view .LVU121
 476 00e8 6820     		movne	r0, #104
 477              	.LBE69:
 478              	.LBE68:
 479              		.loc 1 113 16 view .LVU122
 480 00ea 2A46     		mov	r2, r5
 481 00ec 1921     		movs	r1, #25
 482 00ee 2070     		strb	r0, [r4]
 483              		.loc 1 113 6 is_stmt 1 view .LVU123
 484              		.loc 1 113 16 is_stmt 0 view .LVU124
 485 00f0 FFF7FEFF 		bl	write_reg
 486              	.LVL36:
 487              		.loc 1 113 8 view .LVU125
 488 00f4 B8B9     		cbnz	r0, .L24
 489              	.L37:
 490              		.loc 1 117 5 is_stmt 1 view .LVU126
 491 00f6 0120     		movs	r0, #1
 492              	.LVL37:
 493              		.loc 1 117 5 is_stmt 0 view .LVU127
 494 00f8 FFF7FEFF 		bl	chThdSleep
 495              	.LVL38:
 496              		.loc 1 120 5 is_stmt 1 view .LVU128
 497              		.loc 1 120 15 is_stmt 0 view .LVU129
 498 00fc 2078     		ldrb	r0, [r4]	@ zero_extendqisi2
 499 00fe 0122     		movs	r2, #1
 500 0100 3821     		movs	r1, #56
 501 0102 FFF7FEFF 		bl	write_reg
 502              	.LVL39:
 503              		.loc 1 120 7 view .LVU130
 504 0106 50B1     		cbz	r0, .L40
 505              		.loc 1 121 6 is_stmt 1 view .LVU131
 506              	.LBB70:
 507              	.LBI70:
 508              		.loc 1 22 6 view .LVU132
 509              	.LBB71:
 510              		.loc 1 23 2 view .LVU133
 511              		.loc 1 23 4 is_stmt 0 view .LVU134
 512 0108 2378     		ldrb	r3, [r4]	@ zero_extendqisi2
 513              		.loc 1 26 12 view .LVU135
ARM GAS  /tmp/ccNS9V2T.s 			page 10


 514 010a 682B     		cmp	r3, #104
 515 010c 0CBF     		ite	eq
 516 010e 6920     		moveq	r0, #105
 517              	.LVL40:
 518              		.loc 1 26 12 view .LVU136
 519 0110 6820     		movne	r0, #104
 520              	.LBE71:
 521              	.LBE70:
 522              		.loc 1 122 16 view .LVU137
 523 0112 0122     		movs	r2, #1
 524 0114 3821     		movs	r1, #56
 525 0116 2070     		strb	r0, [r4]
 526              		.loc 1 122 6 is_stmt 1 view .LVU138
 527              		.loc 1 122 16 is_stmt 0 view .LVU139
 528 0118 FFF7FEFF 		bl	write_reg
 529              	.LVL41:
 530              		.loc 1 122 8 view .LVU140
 531 011c 18B9     		cbnz	r0, .L24
 532              	.L40:
 533              	.LVL42:
 534              		.loc 1 126 5 is_stmt 1 view .LVU141
 535 011e 0120     		movs	r0, #1
 536 0120 FFF7FEFF 		bl	chThdSleep
 537              	.LVL43:
 538              		.loc 1 132 5 view .LVU142
 539              		.loc 1 132 12 is_stmt 0 view .LVU143
 540 0124 0020     		movs	r0, #0
 541              	.LVL44:
 542              	.L24:
 543              		.loc 1 134 1 view .LVU144
 544 0126 044B     		ldr	r3, .L56
 545 0128 1A68     		ldr	r2, [r3]
 546 012a 039B     		ldr	r3, [sp, #12]
 547 012c 5A40     		eors	r2, r3, r2
 548 012e 01D1     		bne	.L55
 549 0130 05B0     		add	sp, sp, #20
 550              		.cfi_remember_state
 551              		.cfi_def_cfa_offset 12
 552              		@ sp needed
 553 0132 30BD     		pop	{r4, r5, pc}
 554              	.L55:
 555              		.cfi_restore_state
 556 0134 FFF7FEFF 		bl	__stack_chk_fail
 557              	.LVL45:
 558              	.L57:
 559              		.align	2
 560              	.L56:
 561 0138 00000000 		.word	.LC2
 562 013c 00000000 		.word	.LANCHOR0
 563              		.cfi_endproc
 564              	.LFE259:
 565              		.size	mpu9250_setup, .-mpu9250_setup
 566              		.section	.rodata.mpu9250_magnetometer_setup.cst4,"aM",%progbits,4
 567              		.align	2
 568              	.LC3:
 569 0000 00000000 		.word	__stack_chk_guard
 570              		.section	.text.mpu9250_magnetometer_setup,"ax",%progbits
ARM GAS  /tmp/ccNS9V2T.s 			page 11


 571              		.align	1
 572              		.p2align 4,,15
 573              		.global	mpu9250_magnetometer_setup
 574              		.syntax unified
 575              		.thumb
 576              		.thumb_func
 577              		.fpu fpv4-sp-d16
 578              		.type	mpu9250_magnetometer_setup, %function
 579              	mpu9250_magnetometer_setup:
 580              	.LFB260:
 581              		.loc 1 136 40 is_stmt 1 view -0
 582              		.cfi_startproc
 583              		@ args = 0, pretend = 0, frame = 8
 584              		@ frame_needed = 0, uses_anonymous_args = 0
 585 0000 30B5     		push	{r4, r5, lr}
 586              		.cfi_def_cfa_offset 12
 587              		.cfi_offset 4, -12
 588              		.cfi_offset 5, -8
 589              		.cfi_offset 14, -4
 590              		.loc 1 141 16 is_stmt 0 view .LVU146
 591 0002 524D     		ldr	r5, .L102
 592              		.loc 1 136 40 view .LVU147
 593 0004 524B     		ldr	r3, .L102+4
 594              		.loc 1 141 16 view .LVU148
 595 0006 2878     		ldrb	r0, [r5]	@ zero_extendqisi2
 596              		.loc 1 136 40 view .LVU149
 597 0008 83B0     		sub	sp, sp, #12
 598              		.cfi_def_cfa_offset 24
 599              		.loc 1 141 16 view .LVU150
 600 000a 0222     		movs	r2, #2
 601 000c 3721     		movs	r1, #55
 602              		.loc 1 136 40 view .LVU151
 603 000e 1B68     		ldr	r3, [r3]
 604 0010 0193     		str	r3, [sp, #4]
 605 0012 4FF00003 		mov	r3,#0
 606              		.loc 1 137 5 is_stmt 1 view .LVU152
 607              	.LVL46:
 608              		.loc 1 141 6 view .LVU153
 609              		.loc 1 141 16 is_stmt 0 view .LVU154
 610 0016 FFF7FEFF 		bl	write_reg
 611              	.LVL47:
 612              		.loc 1 141 8 view .LVU155
 613 001a 58B1     		cbz	r0, .L63
 614              		.loc 1 142 7 is_stmt 1 view .LVU156
 615              	.LBB72:
 616              	.LBI72:
 617              		.loc 1 22 6 view .LVU157
 618              	.LBB73:
 619              		.loc 1 23 2 view .LVU158
 620              		.loc 1 23 4 is_stmt 0 view .LVU159
 621 001c 2B78     		ldrb	r3, [r5]	@ zero_extendqisi2
 622              		.loc 1 26 12 view .LVU160
 623 001e 682B     		cmp	r3, #104
 624 0020 0CBF     		ite	eq
 625 0022 6920     		moveq	r0, #105
 626              	.LVL48:
 627              		.loc 1 26 12 view .LVU161
ARM GAS  /tmp/ccNS9V2T.s 			page 12


 628 0024 6820     		movne	r0, #104
 629              	.LBE73:
 630              	.LBE72:
 631              		.loc 1 143 17 view .LVU162
 632 0026 0222     		movs	r2, #2
 633 0028 3721     		movs	r1, #55
 634 002a 2870     		strb	r0, [r5]
 635              		.loc 1 143 7 is_stmt 1 view .LVU163
 636              		.loc 1 143 17 is_stmt 0 view .LVU164
 637 002c FFF7FEFF 		bl	write_reg
 638              	.LVL49:
 639              		.loc 1 143 9 view .LVU165
 640 0030 0446     		mov	r4, r0
 641 0032 30B9     		cbnz	r0, .L60
 642              	.L63:
 643              		.loc 1 149 6 is_stmt 1 view .LVU166
 644              		.loc 1 149 16 is_stmt 0 view .LVU167
 645 0034 1222     		movs	r2, #18
 646 0036 0A21     		movs	r1, #10
 647 0038 0C20     		movs	r0, #12
 648              	.LVL50:
 649              		.loc 1 149 16 view .LVU168
 650 003a FFF7FEFF 		bl	write_reg
 651              	.LVL51:
 652              		.loc 1 149 8 view .LVU169
 653 003e 0446     		mov	r4, r0
 654 0040 38B1     		cbz	r0, .L100
 655              	.LVL52:
 656              	.L60:
 657              		.loc 1 219 1 view .LVU170
 658 0042 434B     		ldr	r3, .L102+4
 659 0044 1A68     		ldr	r2, [r3]
 660 0046 019B     		ldr	r3, [sp, #4]
 661 0048 5A40     		eors	r2, r3, r2
 662 004a 7DD1     		bne	.L101
 663 004c 2046     		mov	r0, r4
 664 004e 03B0     		add	sp, sp, #12
 665              		.cfi_remember_state
 666              		.cfi_def_cfa_offset 12
 667              		@ sp needed
 668 0050 30BD     		pop	{r4, r5, pc}
 669              	.LVL53:
 670              	.L100:
 671              		.cfi_restore_state
 672              		.loc 1 155 6 is_stmt 1 view .LVU171
 673              		.loc 1 155 16 is_stmt 0 view .LVU172
 674 0052 0246     		mov	r2, r0
 675 0054 3721     		movs	r1, #55
 676 0056 2878     		ldrb	r0, [r5]	@ zero_extendqisi2
 677              	.LVL54:
 678              		.loc 1 155 16 view .LVU173
 679 0058 FFF7FEFF 		bl	write_reg
 680              	.LVL55:
 681              		.loc 1 155 8 view .LVU174
 682 005c 58B1     		cbz	r0, .L68
 683              		.loc 1 156 7 is_stmt 1 view .LVU175
 684              	.LBB74:
ARM GAS  /tmp/ccNS9V2T.s 			page 13


 685              	.LBI74:
 686              		.loc 1 22 6 view .LVU176
 687              	.LBB75:
 688              		.loc 1 23 2 view .LVU177
 689              		.loc 1 23 4 is_stmt 0 view .LVU178
 690 005e 2B78     		ldrb	r3, [r5]	@ zero_extendqisi2
 691              		.loc 1 26 12 view .LVU179
 692 0060 682B     		cmp	r3, #104
 693 0062 0CBF     		ite	eq
 694 0064 6920     		moveq	r0, #105
 695              	.LVL56:
 696              		.loc 1 26 12 view .LVU180
 697 0066 6820     		movne	r0, #104
 698              	.LBE75:
 699              	.LBE74:
 700              		.loc 1 157 17 view .LVU181
 701 0068 2246     		mov	r2, r4
 702 006a 3721     		movs	r1, #55
 703 006c 2870     		strb	r0, [r5]
 704              		.loc 1 157 7 is_stmt 1 view .LVU182
 705              		.loc 1 157 17 is_stmt 0 view .LVU183
 706 006e FFF7FEFF 		bl	write_reg
 707              	.LVL57:
 708              		.loc 1 157 9 view .LVU184
 709 0072 0028     		cmp	r0, #0
 710 0074 66D1     		bne	.L93
 711              	.L68:
 712              		.loc 1 170 5 is_stmt 1 view .LVU185
 713              		.loc 1 170 15 is_stmt 0 view .LVU186
 714 0076 2878     		ldrb	r0, [r5]	@ zero_extendqisi2
 715              	.LVL58:
 716              		.loc 1 170 15 view .LVU187
 717 0078 5D22     		movs	r2, #93
 718 007a 2421     		movs	r1, #36
 719 007c FFF7FEFF 		bl	write_reg
 720              	.LVL59:
 721              		.loc 1 170 7 view .LVU188
 722 0080 58B1     		cbz	r0, .L66
 723              		.loc 1 171 6 is_stmt 1 view .LVU189
 724              	.LBB76:
 725              	.LBI76:
 726              		.loc 1 22 6 view .LVU190
 727              	.LBB77:
 728              		.loc 1 23 2 view .LVU191
 729              		.loc 1 23 4 is_stmt 0 view .LVU192
 730 0082 2B78     		ldrb	r3, [r5]	@ zero_extendqisi2
 731              		.loc 1 26 12 view .LVU193
 732 0084 682B     		cmp	r3, #104
 733 0086 0CBF     		ite	eq
 734 0088 6920     		moveq	r0, #105
 735              	.LVL60:
 736              		.loc 1 26 12 view .LVU194
 737 008a 6820     		movne	r0, #104
 738              	.LBE77:
 739              	.LBE76:
 740              		.loc 1 172 16 view .LVU195
 741 008c 5D22     		movs	r2, #93
ARM GAS  /tmp/ccNS9V2T.s 			page 14


 742 008e 2421     		movs	r1, #36
 743 0090 2870     		strb	r0, [r5]
 744              		.loc 1 172 6 is_stmt 1 view .LVU196
 745              		.loc 1 172 16 is_stmt 0 view .LVU197
 746 0092 FFF7FEFF 		bl	write_reg
 747              	.LVL61:
 748              		.loc 1 172 8 view .LVU198
 749 0096 0028     		cmp	r0, #0
 750 0098 54D1     		bne	.L93
 751              	.L66:
 752              		.loc 1 176 5 is_stmt 1 view .LVU199
 753 009a 0120     		movs	r0, #1
 754              	.LVL62:
 755              		.loc 1 176 5 is_stmt 0 view .LVU200
 756 009c FFF7FEFF 		bl	chThdSleep
 757              	.LVL63:
 758              		.loc 1 179 5 is_stmt 1 view .LVU201
 759              		.loc 1 179 15 is_stmt 0 view .LVU202
 760 00a0 2878     		ldrb	r0, [r5]	@ zero_extendqisi2
 761 00a2 2022     		movs	r2, #32
 762 00a4 6A21     		movs	r1, #106
 763 00a6 FFF7FEFF 		bl	write_reg
 764              	.LVL64:
 765              		.loc 1 179 7 view .LVU203
 766 00aa 58B1     		cbz	r0, .L70
 767              		.loc 1 180 6 is_stmt 1 view .LVU204
 768              	.LBB78:
 769              	.LBI78:
 770              		.loc 1 22 6 view .LVU205
 771              	.LBB79:
 772              		.loc 1 23 2 view .LVU206
 773              		.loc 1 23 4 is_stmt 0 view .LVU207
 774 00ac 2B78     		ldrb	r3, [r5]	@ zero_extendqisi2
 775              		.loc 1 26 12 view .LVU208
 776 00ae 682B     		cmp	r3, #104
 777 00b0 0CBF     		ite	eq
 778 00b2 6920     		moveq	r0, #105
 779              	.LVL65:
 780              		.loc 1 26 12 view .LVU209
 781 00b4 6820     		movne	r0, #104
 782              	.LBE79:
 783              	.LBE78:
 784              		.loc 1 181 16 view .LVU210
 785 00b6 2022     		movs	r2, #32
 786 00b8 6A21     		movs	r1, #106
 787 00ba 2870     		strb	r0, [r5]
 788              		.loc 1 181 6 is_stmt 1 view .LVU211
 789              		.loc 1 181 16 is_stmt 0 view .LVU212
 790 00bc FFF7FEFF 		bl	write_reg
 791              	.LVL66:
 792              		.loc 1 181 8 view .LVU213
 793 00c0 0028     		cmp	r0, #0
 794 00c2 3FD1     		bne	.L93
 795              	.L70:
 796              		.loc 1 185 5 is_stmt 1 view .LVU214
 797 00c4 0120     		movs	r0, #1
 798              	.LVL67:
ARM GAS  /tmp/ccNS9V2T.s 			page 15


 799              		.loc 1 185 5 is_stmt 0 view .LVU215
 800 00c6 FFF7FEFF 		bl	chThdSleep
 801              	.LVL68:
 802              		.loc 1 188 5 is_stmt 1 view .LVU216
 803              		.loc 1 188 15 is_stmt 0 view .LVU217
 804 00ca 2878     		ldrb	r0, [r5]	@ zero_extendqisi2
 805 00cc 8C22     		movs	r2, #140
 806 00ce 2521     		movs	r1, #37
 807 00d0 FFF7FEFF 		bl	write_reg
 808              	.LVL69:
 809              		.loc 1 188 7 view .LVU218
 810 00d4 50B1     		cbz	r0, .L73
 811              		.loc 1 189 6 is_stmt 1 view .LVU219
 812              	.LBB80:
 813              	.LBI80:
 814              		.loc 1 22 6 view .LVU220
 815              	.LBB81:
 816              		.loc 1 23 2 view .LVU221
 817              		.loc 1 23 4 is_stmt 0 view .LVU222
 818 00d6 2B78     		ldrb	r3, [r5]	@ zero_extendqisi2
 819              		.loc 1 26 12 view .LVU223
 820 00d8 682B     		cmp	r3, #104
 821 00da 0CBF     		ite	eq
 822 00dc 6920     		moveq	r0, #105
 823              	.LVL70:
 824              		.loc 1 26 12 view .LVU224
 825 00de 6820     		movne	r0, #104
 826              	.LBE81:
 827              	.LBE80:
 828              		.loc 1 190 16 view .LVU225
 829 00e0 8C22     		movs	r2, #140
 830 00e2 2521     		movs	r1, #37
 831 00e4 2870     		strb	r0, [r5]
 832              		.loc 1 190 6 is_stmt 1 view .LVU226
 833              		.loc 1 190 16 is_stmt 0 view .LVU227
 834 00e6 FFF7FEFF 		bl	write_reg
 835              	.LVL71:
 836              		.loc 1 190 8 view .LVU228
 837 00ea 58BB     		cbnz	r0, .L93
 838              	.L73:
 839              		.loc 1 194 5 is_stmt 1 view .LVU229
 840 00ec 0120     		movs	r0, #1
 841              	.LVL72:
 842              		.loc 1 194 5 is_stmt 0 view .LVU230
 843 00ee FFF7FEFF 		bl	chThdSleep
 844              	.LVL73:
 845              		.loc 1 197 5 is_stmt 1 view .LVU231
 846              		.loc 1 197 15 is_stmt 0 view .LVU232
 847 00f2 2878     		ldrb	r0, [r5]	@ zero_extendqisi2
 848 00f4 0322     		movs	r2, #3
 849 00f6 2621     		movs	r1, #38
 850 00f8 FFF7FEFF 		bl	write_reg
 851              	.LVL74:
 852              		.loc 1 197 7 view .LVU233
 853 00fc 50B1     		cbz	r0, .L76
 854              		.loc 1 198 6 is_stmt 1 view .LVU234
 855              	.LBB82:
ARM GAS  /tmp/ccNS9V2T.s 			page 16


 856              	.LBI82:
 857              		.loc 1 22 6 view .LVU235
 858              	.LBB83:
 859              		.loc 1 23 2 view .LVU236
 860              		.loc 1 23 4 is_stmt 0 view .LVU237
 861 00fe 2B78     		ldrb	r3, [r5]	@ zero_extendqisi2
 862              		.loc 1 26 12 view .LVU238
 863 0100 682B     		cmp	r3, #104
 864 0102 0CBF     		ite	eq
 865 0104 6920     		moveq	r0, #105
 866              	.LVL75:
 867              		.loc 1 26 12 view .LVU239
 868 0106 6820     		movne	r0, #104
 869              	.LBE83:
 870              	.LBE82:
 871              		.loc 1 199 16 view .LVU240
 872 0108 0322     		movs	r2, #3
 873 010a 2621     		movs	r1, #38
 874 010c 2870     		strb	r0, [r5]
 875              		.loc 1 199 6 is_stmt 1 view .LVU241
 876              		.loc 1 199 16 is_stmt 0 view .LVU242
 877 010e FFF7FEFF 		bl	write_reg
 878              	.LVL76:
 879              		.loc 1 199 8 view .LVU243
 880 0112 B8B9     		cbnz	r0, .L93
 881              	.L76:
 882              		.loc 1 203 5 is_stmt 1 view .LVU244
 883 0114 0120     		movs	r0, #1
 884              	.LVL77:
 885              		.loc 1 203 5 is_stmt 0 view .LVU245
 886 0116 FFF7FEFF 		bl	chThdSleep
 887              	.LVL78:
 888              		.loc 1 210 5 is_stmt 1 view .LVU246
 889              		.loc 1 210 15 is_stmt 0 view .LVU247
 890 011a 2878     		ldrb	r0, [r5]	@ zero_extendqisi2
 891 011c 8722     		movs	r2, #135
 892 011e 2721     		movs	r1, #39
 893 0120 FFF7FEFF 		bl	write_reg
 894              	.LVL79:
 895              		.loc 1 210 7 view .LVU248
 896 0124 50B1     		cbz	r0, .L79
 897              		.loc 1 211 6 is_stmt 1 view .LVU249
 898              	.LBB84:
 899              	.LBI84:
 900              		.loc 1 22 6 view .LVU250
 901              	.LBB85:
 902              		.loc 1 23 2 view .LVU251
 903              		.loc 1 23 4 is_stmt 0 view .LVU252
 904 0126 2B78     		ldrb	r3, [r5]	@ zero_extendqisi2
 905              		.loc 1 26 12 view .LVU253
 906 0128 682B     		cmp	r3, #104
 907 012a 0CBF     		ite	eq
 908 012c 6920     		moveq	r0, #105
 909              	.LVL80:
 910              		.loc 1 26 12 view .LVU254
 911 012e 6820     		movne	r0, #104
 912              	.LBE85:
ARM GAS  /tmp/ccNS9V2T.s 			page 17


 913              	.LBE84:
 914              		.loc 1 212 16 view .LVU255
 915 0130 8722     		movs	r2, #135
 916 0132 2721     		movs	r1, #39
 917 0134 2870     		strb	r0, [r5]
 918              		.loc 1 212 6 is_stmt 1 view .LVU256
 919              		.loc 1 212 16 is_stmt 0 view .LVU257
 920 0136 FFF7FEFF 		bl	write_reg
 921              	.LVL81:
 922              		.loc 1 212 8 view .LVU258
 923 013a 18B9     		cbnz	r0, .L93
 924              	.L79:
 925              	.LVL82:
 926              		.loc 1 216 5 is_stmt 1 view .LVU259
 927 013c 0120     		movs	r0, #1
 928 013e FFF7FEFF 		bl	chThdSleep
 929              	.LVL83:
 930              		.loc 1 218 5 view .LVU260
 931              		.loc 1 218 12 is_stmt 0 view .LVU261
 932 0142 7EE7     		b	.L60
 933              	.LVL84:
 934              	.L93:
 935              		.loc 1 218 12 view .LVU262
 936 0144 0446     		mov	r4, r0
 937 0146 7CE7     		b	.L60
 938              	.LVL85:
 939              	.L101:
 940              		.loc 1 219 1 view .LVU263
 941 0148 FFF7FEFF 		bl	__stack_chk_fail
 942              	.LVL86:
 943              	.L103:
 944              		.align	2
 945              	.L102:
 946 014c 00000000 		.word	.LANCHOR0
 947 0150 00000000 		.word	.LC3
 948              		.cfi_endproc
 949              	.LFE260:
 950              		.size	mpu9250_magnetometer_setup, .-mpu9250_magnetometer_setup
 951              		.section	.rodata.mpu9250_ping.cst4,"aM",%progbits,4
 952              		.align	2
 953              	.LC4:
 954 0000 00000000 		.word	__stack_chk_guard
 955              		.section	.text.mpu9250_ping,"ax",%progbits
 956              		.align	1
 957              		.p2align 4,,15
 958              		.global	mpu9250_ping
 959              		.syntax unified
 960              		.thumb
 961              		.thumb_func
 962              		.fpu fpv4-sp-d16
 963              		.type	mpu9250_ping, %function
 964              	mpu9250_ping:
 965              	.LFB261:
 966              		.loc 1 221 25 is_stmt 1 view -0
 967              		.cfi_startproc
 968              		@ args = 0, pretend = 0, frame = 8
 969              		@ frame_needed = 0, uses_anonymous_args = 0
ARM GAS  /tmp/ccNS9V2T.s 			page 18


 970 0000 00B5     		push	{lr}
 971              		.cfi_def_cfa_offset 4
 972              		.cfi_offset 14, -4
 973 0002 0F4A     		ldr	r2, .L108
 974 0004 83B0     		sub	sp, sp, #12
 975              		.cfi_def_cfa_offset 16
 976              		.loc 1 222 10 is_stmt 0 view .LVU265
 977 0006 0023     		movs	r3, #0
 978              		.loc 1 223 2 view .LVU266
 979 0008 0DF10300 		add	r0, sp, #3
 980              		.loc 1 221 25 view .LVU267
 981 000c 1268     		ldr	r2, [r2]
 982 000e 0192     		str	r2, [sp, #4]
 983 0010 4FF00002 		mov	r2,#0
 984              		.loc 1 222 2 is_stmt 1 view .LVU268
 985              		.loc 1 222 10 is_stmt 0 view .LVU269
 986 0014 8DF80330 		strb	r3, [sp, #3]
 987              		.loc 1 223 2 is_stmt 1 view .LVU270
 988 0018 FFF7FEFF 		bl	mpu9250_read_id
 989              	.LVL87:
 990              		.loc 1 224 2 view .LVU271
 991              		.loc 1 224 12 is_stmt 0 view .LVU272
 992 001c 9DF80300 		ldrb	r0, [sp, #3]	@ zero_extendqisi2
 993              		.loc 1 225 1 view .LVU273
 994 0020 074B     		ldr	r3, .L108
 995              		.loc 1 224 12 view .LVU274
 996 0022 A0F16800 		sub	r0, #104
 997 0026 B0FA80F0 		clz	r0, r0
 998              		.loc 1 225 1 view .LVU275
 999 002a 1A68     		ldr	r2, [r3]
 1000 002c 019B     		ldr	r3, [sp, #4]
 1001 002e 5A40     		eors	r2, r3, r2
 1002              		.loc 1 224 12 view .LVU276
 1003 0030 4FEA5010 		lsr	r0, r0, #5
 1004              		.loc 1 225 1 view .LVU277
 1005 0034 02D1     		bne	.L107
 1006 0036 03B0     		add	sp, sp, #12
 1007              		.cfi_remember_state
 1008              		.cfi_def_cfa_offset 4
 1009              		@ sp needed
 1010 0038 5DF804FB 		ldr	pc, [sp], #4
 1011              	.L107:
 1012              		.cfi_restore_state
 1013 003c FFF7FEFF 		bl	__stack_chk_fail
 1014              	.LVL88:
 1015              	.L109:
 1016              		.align	2
 1017              	.L108:
 1018 0040 00000000 		.word	.LC4
 1019              		.cfi_endproc
 1020              	.LFE261:
 1021              		.size	mpu9250_ping, .-mpu9250_ping
 1022              		.section	.rodata.mpu9250_read.cst4,"aM",%progbits,4
 1023              		.align	2
 1024              	.LC5:
 1025 0000 00000000 		.word	__stack_chk_guard
 1026              		.section	.text.mpu9250_read,"ax",%progbits
ARM GAS  /tmp/ccNS9V2T.s 			page 19


 1027              		.align	1
 1028              		.p2align 4,,15
 1029              		.global	mpu9250_read
 1030              		.syntax unified
 1031              		.thumb
 1032              		.thumb_func
 1033              		.fpu fpv4-sp-d16
 1034              		.type	mpu9250_read, %function
 1035              	mpu9250_read:
 1036              	.LVL89:
 1037              	.LFB262:
 1038              		.loc 1 227 171 is_stmt 1 view -0
 1039              		.cfi_startproc
 1040              		@ args = 20, pretend = 0, frame = 16
 1041              		@ frame_needed = 0, uses_anonymous_args = 0
 1042              		.loc 1 227 171 is_stmt 0 view .LVU279
 1043 0000 2DE9F04F 		push	{r4, r5, r6, r7, r8, r9, r10, fp, lr}
 1044              		.cfi_def_cfa_offset 36
 1045              		.cfi_offset 4, -36
 1046              		.cfi_offset 5, -32
 1047              		.cfi_offset 6, -28
 1048              		.cfi_offset 7, -24
 1049              		.cfi_offset 8, -20
 1050              		.cfi_offset 9, -16
 1051              		.cfi_offset 10, -12
 1052              		.cfi_offset 11, -8
 1053              		.cfi_offset 14, -4
 1054 0004 864C     		ldr	r4, .L134
 1055              		.loc 1 231 15 view .LVU280
 1056 0006 DFF83892 		ldr	r9, .L134+32
 1057              		.loc 1 227 171 view .LVU281
 1058 000a 85B0     		sub	sp, sp, #20
 1059              		.cfi_def_cfa_offset 56
 1060              		.loc 1 227 171 view .LVU282
 1061 000c 2468     		ldr	r4, [r4]
 1062 000e 0394     		str	r4, [sp, #12]
 1063 0010 4FF00004 		mov	r4,#0
 1064              		.loc 1 228 2 is_stmt 1 view .LVU283
 1065              	.LVL90:
 1066              		.loc 1 230 5 view .LVU284
 1067              		.loc 1 231 5 view .LVU285
 1068              		.loc 1 227 171 is_stmt 0 view .LVU286
 1069 0014 1C46     		mov	r4, r3
 1070 0016 129B     		ldr	r3, [sp, #72]
 1071              	.LVL91:
 1072              		.loc 1 227 171 view .LVU287
 1073 0018 0093     		str	r3, [sp]
 1074 001a 9446     		mov	ip, r2
 1075 001c 0546     		mov	r5, r0
 1076 001e 0E46     		mov	r6, r1
 1077              		.loc 1 231 15 view .LVU288
 1078 0020 99F80000 		ldrb	r0, [r9]	@ zero_extendqisi2
 1079              	.LVL92:
 1080              		.loc 1 231 15 view .LVU289
 1081 0024 7F4A     		ldr	r2, .L134+4
 1082              	.LVL93:
 1083              		.loc 1 227 171 view .LVU290
ARM GAS  /tmp/ccNS9V2T.s 			page 20


 1084 0026 CDF804C0 		str	ip, [sp, #4]
 1085              		.loc 1 231 15 view .LVU291
 1086 002a 1623     		movs	r3, #22
 1087 002c 3A21     		movs	r1, #58
 1088              	.LVL94:
 1089              		.loc 1 227 171 view .LVU292
 1090 002e DDE90E78 		ldrd	r7, r8, [sp, #56]
 1091 0032 DDE910AB 		ldrd	r10, fp, [sp, #64]
 1092              		.loc 1 231 15 view .LVU293
 1093 0036 FFF7FEFF 		bl	read_reg_multi
 1094              	.LVL95:
 1095              		.loc 1 231 7 view .LVU294
 1096 003a 78B1     		cbz	r0, .L116
 1097              		.loc 1 232 6 is_stmt 1 view .LVU295
 1098              	.LBB86:
 1099              	.LBI86:
 1100              		.loc 1 22 6 view .LVU296
 1101              	.LBB87:
 1102              		.loc 1 23 2 view .LVU297
 1103              		.loc 1 23 4 is_stmt 0 view .LVU298
 1104 003c 99F80030 		ldrb	r3, [r9]	@ zero_extendqisi2
 1105              	.LBE87:
 1106              	.LBE86:
 1107              		.loc 1 233 16 view .LVU299
 1108 0040 784A     		ldr	r2, .L134+4
 1109              	.LBB89:
 1110              	.LBB88:
 1111              		.loc 1 26 12 view .LVU300
 1112 0042 682B     		cmp	r3, #104
 1113 0044 0CBF     		ite	eq
 1114 0046 6920     		moveq	r0, #105
 1115              	.LVL96:
 1116              		.loc 1 26 12 view .LVU301
 1117 0048 6820     		movne	r0, #104
 1118              	.LBE88:
 1119              	.LBE89:
 1120              		.loc 1 233 16 view .LVU302
 1121 004a 1623     		movs	r3, #22
 1122 004c 3A21     		movs	r1, #58
 1123 004e 89F80000 		strb	r0, [r9]
 1124              		.loc 1 233 6 is_stmt 1 view .LVU303
 1125              		.loc 1 233 16 is_stmt 0 view .LVU304
 1126 0052 FFF7FEFF 		bl	read_reg_multi
 1127              	.LVL97:
 1128              		.loc 1 233 8 view .LVU305
 1129 0056 0028     		cmp	r0, #0
 1130 0058 40F0D580 		bne	.L115
 1131              	.L116:
 1132              		.loc 1 238 5 is_stmt 1 view .LVU306
 1133              		.loc 1 238 7 is_stmt 0 view .LVU307
 1134 005c 009B     		ldr	r3, [sp]
 1135 005e 1BB1     		cbz	r3, .L113
 1136              		.loc 1 239 6 is_stmt 1 view .LVU308
 1137              		.loc 1 239 19 is_stmt 0 view .LVU309
 1138 0060 704B     		ldr	r3, .L134+4
 1139              		.loc 1 239 14 view .LVU310
 1140 0062 009A     		ldr	r2, [sp]
ARM GAS  /tmp/ccNS9V2T.s 			page 21


 1141              		.loc 1 239 19 view .LVU311
 1142 0064 1B78     		ldrb	r3, [r3]	@ zero_extendqisi2
 1143              		.loc 1 239 14 view .LVU312
 1144 0066 1370     		strb	r3, [r2]
 1145              	.L113:
 1146              		.loc 1 241 5 is_stmt 1 view .LVU313
 1147              		.loc 1 241 8 is_stmt 0 view .LVU314
 1148 0068 002E     		cmp	r6, #0
 1149 006a 4CD0     		beq	.L117
 1150              		.loc 1 243 6 is_stmt 1 view .LVU315
 1151              	.LVL98:
 1152              	.LBB90:
 1153              	.LBI90:
 1154              		.loc 1 57 16 view .LVU316
 1155              	.LBB91:
 1156              		.loc 1 59 5 view .LVU317
 1157              		.loc 1 59 33 is_stmt 0 view .LVU318
 1158 006c 6D4A     		ldr	r2, .L134+4
 1159              	.LBE91:
 1160              	.LBE90:
 1161              		.loc 1 246 62 view .LVU319
 1162 006e 9FED6E6A 		vldr.32	s12, .L134+8
 1163              	.LBB94:
 1164              	.LBB92:
 1165              		.loc 1 59 12 view .LVU320
 1166 0072 92F90110 		ldrsb	r1, [r2, #1]
 1167              		.loc 1 59 48 view .LVU321
 1168 0076 9378     		ldrb	r3, [r2, #2]	@ zero_extendqisi2
 1169              	.LBE92:
 1170              	.LBE94:
 1171              		.loc 1 246 81 view .LVU322
 1172 0078 DFED6C6A 		vldr.32	s13, .L134+12
 1173              		.loc 1 250 61 view .LVU323
 1174 007c DFED6C5A 		vldr.32	s11, .L134+16
 1175              	.LBB95:
 1176              	.LBB93:
 1177              		.loc 1 59 43 view .LVU324
 1178 0080 43EA0123 		orr	r3, r3, r1, lsl #8
 1179              	.LBE93:
 1180              	.LBE95:
 1181              		.loc 1 243 22 view .LVU325
 1182 0084 5B42     		rsbs	r3, r3, #0
 1183 0086 1BB2     		sxth	r3, r3
 1184 0088 A8F80030 		strh	r3, [r8]	@ movhi
 1185              		.loc 1 244 6 is_stmt 1 view .LVU326
 1186              	.LVL99:
 1187              	.LBB96:
 1188              	.LBI96:
 1189              		.loc 1 57 16 view .LVU327
 1190              	.LBB97:
 1191              		.loc 1 59 5 view .LVU328
 1192              		.loc 1 59 48 is_stmt 0 view .LVU329
 1193 008c 1179     		ldrb	r1, [r2, #4]	@ zero_extendqisi2
 1194              		.loc 1 59 12 view .LVU330
 1195 008e 92F90300 		ldrsb	r0, [r2, #3]
 1196              	.LVL100:
 1197              		.loc 1 59 43 view .LVU331
ARM GAS  /tmp/ccNS9V2T.s 			page 22


 1198 0092 41EA0021 		orr	r1, r1, r0, lsl #8
 1199              	.LBE97:
 1200              	.LBE96:
 1201              		.loc 1 244 22 view .LVU332
 1202 0096 4942     		rsbs	r1, r1, #0
 1203 0098 A8F80210 		strh	r1, [r8, #2]	@ movhi
 1204              		.loc 1 245 6 is_stmt 1 view .LVU333
 1205              	.LVL101:
 1206              	.LBB98:
 1207              	.LBI98:
 1208              		.loc 1 57 16 view .LVU334
 1209              	.LBB99:
 1210              		.loc 1 59 5 view .LVU335
 1211              		.loc 1 59 12 is_stmt 0 view .LVU336
 1212 009c 92F90510 		ldrsb	r1, [r2, #5]
 1213              		.loc 1 59 48 view .LVU337
 1214 00a0 9279     		ldrb	r2, [r2, #6]	@ zero_extendqisi2
 1215              		.loc 1 59 43 view .LVU338
 1216 00a2 42EA0122 		orr	r2, r2, r1, lsl #8
 1217              	.LBE99:
 1218              	.LBE98:
 1219              		.loc 1 245 22 view .LVU339
 1220 00a6 5242     		rsbs	r2, r2, #0
 1221 00a8 A8F80420 		strh	r2, [r8, #4]	@ movhi
 1222              		.loc 1 246 9 is_stmt 1 view .LVU340
 1223              		.loc 1 246 52 is_stmt 0 view .LVU341
 1224 00ac BBF90020 		ldrsh	r2, [fp]
 1225              		.loc 1 246 40 view .LVU342
 1226 00b0 9B1A     		subs	r3, r3, r2
 1227 00b2 07EE103A 		vmov	s14, r3	@ int
 1228              		.loc 1 246 62 view .LVU343
 1229 00b6 B8EEC77A 		vcvt.f32.s32	s14, s14
 1230 00ba 27EE067A 		vmul.f32	s14, s14, s12
 1231              		.loc 1 246 81 view .LVU344
 1232 00be 27EE267A 		vmul.f32	s14, s14, s13
 1233              		.loc 1 246 21 view .LVU345
 1234 00c2 86ED007A 		vstr.32	s14, [r6]
 1235              		.loc 1 247 9 is_stmt 1 view .LVU346
 1236              		.loc 1 247 52 is_stmt 0 view .LVU347
 1237 00c6 BBF90220 		ldrsh	r2, [fp, #2]
 1238              		.loc 1 247 31 view .LVU348
 1239 00ca B8F90230 		ldrsh	r3, [r8, #2]
 1240              		.loc 1 247 40 view .LVU349
 1241 00ce 9B1A     		subs	r3, r3, r2
 1242 00d0 07EE103A 		vmov	s14, r3	@ int
 1243              		.loc 1 247 62 view .LVU350
 1244 00d4 B8EEC77A 		vcvt.f32.s32	s14, s14
 1245 00d8 27EE067A 		vmul.f32	s14, s14, s12
 1246              		.loc 1 247 81 view .LVU351
 1247 00dc 27EE267A 		vmul.f32	s14, s14, s13
 1248              		.loc 1 247 21 view .LVU352
 1249 00e0 86ED017A 		vstr.32	s14, [r6, #4]
 1250              		.loc 1 250 9 is_stmt 1 view .LVU353
 1251              		.loc 1 250 31 is_stmt 0 view .LVU354
 1252 00e4 B8F90430 		ldrsh	r3, [r8, #4]
 1253              		.loc 1 250 52 view .LVU355
 1254 00e8 BBF90420 		ldrsh	r2, [fp, #4]
ARM GAS  /tmp/ccNS9V2T.s 			page 23


 1255              		.loc 1 250 40 view .LVU356
 1256 00ec 9B1A     		subs	r3, r3, r2
 1257 00ee 07EE903A 		vmov	s15, r3	@ int
 1258              		.loc 1 250 61 view .LVU357
 1259 00f2 F8EEE77A 		vcvt.f32.s32	s15, s15
 1260 00f6 77EEE57A 		vsub.f32	s15, s15, s11
 1261              		.loc 1 250 85 view .LVU358
 1262 00fa 67EE867A 		vmul.f32	s15, s15, s12
 1263              		.loc 1 250 104 view .LVU359
 1264 00fe 67EEA67A 		vmul.f32	s15, s15, s13
 1265              		.loc 1 250 21 view .LVU360
 1266 0102 C6ED027A 		vstr.32	s15, [r6, #8]
 1267              	.L117:
 1268              		.loc 1 252 5 is_stmt 1 view .LVU361
 1269              		.loc 1 252 8 is_stmt 0 view .LVU362
 1270 0106 0198     		ldr	r0, [sp, #4]
 1271 0108 A8B1     		cbz	r0, .L118
 1272              		.loc 1 253 9 is_stmt 1 view .LVU363
 1273              	.LVL102:
 1274              	.LBB100:
 1275              	.LBI100:
 1276              		.loc 1 57 16 view .LVU364
 1277              	.LBB101:
 1278              		.loc 1 59 5 view .LVU365
 1279              		.loc 1 59 33 is_stmt 0 view .LVU366
 1280 010a 464A     		ldr	r2, .L134+4
 1281              	.LBE101:
 1282              	.LBE100:
 1283              		.loc 1 253 17 view .LVU367
 1284 010c 9FED496A 		vldr.32	s12, .L134+20
 1285              	.LBB103:
 1286              	.LBB102:
 1287              		.loc 1 59 12 view .LVU368
 1288 0110 92F90710 		ldrsb	r1, [r2, #7]
 1289              		.loc 1 59 48 view .LVU369
 1290 0114 137A     		ldrb	r3, [r2, #8]	@ zero_extendqisi2
 1291              		.loc 1 59 43 view .LVU370
 1292 0116 43EA0123 		orr	r3, r3, r1, lsl #8
 1293 011a 07EE903A 		vmov	s15, r3	@ int
 1294              	.LBE102:
 1295              	.LBE103:
 1296              		.loc 1 253 45 view .LVU371
 1297 011e F8EEE77A 		vcvt.f32.s32	s15, s15
 1298 0122 F3EE056A 		vmov.f32	s13, #2.1e+1
 1299 0126 77EEE67A 		vsub.f32	s15, s15, s13
 1300              		.loc 1 253 17 view .LVU372
 1301 012a 87EE867A 		vdiv.f32	s14, s15, s12
 1302              		.loc 1 253 65 view .LVU373
 1303 012e 77EE267A 		vadd.f32	s15, s14, s13
 1304              		.loc 1 253 15 view .LVU374
 1305 0132 C0ED007A 		vstr.32	s15, [r0]
 1306              	.L118:
 1307              		.loc 1 255 5 is_stmt 1 view .LVU375
 1308              		.loc 1 255 8 is_stmt 0 view .LVU376
 1309 0136 002D     		cmp	r5, #0
 1310 0138 39D0     		beq	.L119
 1311              		.loc 1 256 6 is_stmt 1 view .LVU377
ARM GAS  /tmp/ccNS9V2T.s 			page 24


 1312              	.LVL103:
 1313              	.LBB104:
 1314              	.LBI104:
 1315              		.loc 1 57 16 view .LVU378
 1316              	.LBB105:
 1317              		.loc 1 59 5 view .LVU379
 1318              		.loc 1 59 33 is_stmt 0 view .LVU380
 1319 013a 3A4A     		ldr	r2, .L134+4
 1320              	.LBE105:
 1321              	.LBE104:
 1322              		.loc 1 259 65 view .LVU381
 1323 013c DFED3E6A 		vldr.32	s13, .L134+24
 1324              	.LBB107:
 1325              	.LBB106:
 1326              		.loc 1 59 12 view .LVU382
 1327 0140 92F90910 		ldrsb	r1, [r2, #9]
 1328              		.loc 1 59 48 view .LVU383
 1329 0144 937A     		ldrb	r3, [r2, #10]	@ zero_extendqisi2
 1330              	.LBE106:
 1331              	.LBE107:
 1332              		.loc 1 256 23 view .LVU384
 1333 0146 43EA0123 		orr	r3, r3, r1, lsl #8
 1334 014a 3B80     		strh	r3, [r7]	@ movhi
 1335              		.loc 1 257 6 is_stmt 1 view .LVU385
 1336              	.LVL104:
 1337              	.LBB108:
 1338              	.LBI108:
 1339              		.loc 1 57 16 view .LVU386
 1340              	.LBB109:
 1341              		.loc 1 59 5 view .LVU387
 1342              		.loc 1 59 12 is_stmt 0 view .LVU388
 1343 014c 92F90B00 		ldrsb	r0, [r2, #11]
 1344              		.loc 1 59 48 view .LVU389
 1345 0150 117B     		ldrb	r1, [r2, #12]	@ zero_extendqisi2
 1346              		.loc 1 59 43 view .LVU390
 1347 0152 41EA0021 		orr	r1, r1, r0, lsl #8
 1348              	.LBE109:
 1349              	.LBE108:
 1350              		.loc 1 257 23 view .LVU391
 1351 0156 7980     		strh	r1, [r7, #2]	@ movhi
 1352              		.loc 1 258 6 is_stmt 1 view .LVU392
 1353              	.LVL105:
 1354              	.LBB110:
 1355              	.LBI110:
 1356              		.loc 1 57 16 view .LVU393
 1357              	.LBB111:
 1358              		.loc 1 59 5 view .LVU394
 1359              		.loc 1 59 12 is_stmt 0 view .LVU395
 1360 0158 92F90D10 		ldrsb	r1, [r2, #13]
 1361              		.loc 1 59 48 view .LVU396
 1362 015c 927B     		ldrb	r2, [r2, #14]	@ zero_extendqisi2
 1363              		.loc 1 59 43 view .LVU397
 1364 015e 42EA0122 		orr	r2, r2, r1, lsl #8
 1365              	.LBE111:
 1366              	.LBE110:
 1367              		.loc 1 258 23 view .LVU398
 1368 0162 BA80     		strh	r2, [r7, #4]	@ movhi
ARM GAS  /tmp/ccNS9V2T.s 			page 25


 1369              		.loc 1 259 9 is_stmt 1 view .LVU399
 1370              		.loc 1 259 55 is_stmt 0 view .LVU400
 1371 0164 BAF90020 		ldrsh	r2, [r10]
 1372              		.loc 1 259 42 view .LVU401
 1373 0168 9B1A     		subs	r3, r3, r2
 1374 016a 07EE903A 		vmov	s15, r3	@ int
 1375              		.loc 1 259 65 view .LVU402
 1376 016e F8EEE77A 		vcvt.f32.s32	s15, s15
 1377 0172 67EEA67A 		vmul.f32	s15, s15, s13
 1378              		.loc 1 259 22 view .LVU403
 1379 0176 C5ED007A 		vstr.32	s15, [r5]
 1380              		.loc 1 260 9 is_stmt 1 view .LVU404
 1381              		.loc 1 260 55 is_stmt 0 view .LVU405
 1382 017a BAF90220 		ldrsh	r2, [r10, #2]
 1383              		.loc 1 260 33 view .LVU406
 1384 017e B7F90230 		ldrsh	r3, [r7, #2]
 1385              		.loc 1 260 42 view .LVU407
 1386 0182 9B1A     		subs	r3, r3, r2
 1387 0184 07EE103A 		vmov	s14, r3	@ int
 1388              		.loc 1 260 65 view .LVU408
 1389 0188 B8EEC77A 		vcvt.f32.s32	s14, s14
 1390 018c 27EE267A 		vmul.f32	s14, s14, s13
 1391              		.loc 1 260 22 view .LVU409
 1392 0190 85ED017A 		vstr.32	s14, [r5, #4]
 1393              		.loc 1 261 9 is_stmt 1 view .LVU410
 1394              		.loc 1 261 33 is_stmt 0 view .LVU411
 1395 0194 B7F90430 		ldrsh	r3, [r7, #4]
 1396              		.loc 1 261 55 view .LVU412
 1397 0198 BAF90420 		ldrsh	r2, [r10, #4]
 1398              		.loc 1 261 42 view .LVU413
 1399 019c 9B1A     		subs	r3, r3, r2
 1400 019e 07EE903A 		vmov	s15, r3	@ int
 1401              		.loc 1 261 65 view .LVU414
 1402 01a2 F8EEE77A 		vcvt.f32.s32	s15, s15
 1403 01a6 67EEA67A 		vmul.f32	s15, s15, s13
 1404              		.loc 1 261 22 view .LVU415
 1405 01aa C5ED027A 		vstr.32	s15, [r5, #8]
 1406              	.L119:
 1407              		.loc 1 264 5 is_stmt 1 view .LVU416
 1408              		.loc 1 264 7 is_stmt 0 view .LVU417
 1409 01ae 94B3     		cbz	r4, .L122
 1410              		.loc 1 265 9 is_stmt 1 view .LVU418
 1411              		.loc 1 265 48 is_stmt 0 view .LVU419
 1412 01b0 1C4A     		ldr	r2, .L134+4
 1413              		.loc 1 265 70 view .LVU420
 1414 01b2 DFED226A 		vldr.32	s13, .L134+28
 1415              		.loc 1 265 27 view .LVU421
 1416 01b6 92F91010 		ldrsb	r1, [r2, #16]
 1417              		.loc 1 265 64 view .LVU422
 1418 01ba D37B     		ldrb	r3, [r2, #15]	@ zero_extendqisi2
 1419              		.loc 1 265 59 view .LVU423
 1420 01bc 43EA0123 		orr	r3, r3, r1, lsl #8
 1421 01c0 07EE103A 		vmov	s14, r3	@ int
 1422              		.loc 1 265 70 view .LVU424
 1423 01c4 B8EEC77A 		vcvt.f32.s32	s14, s14
 1424              		.loc 1 270 12 view .LVU425
 1425 01c8 0020     		movs	r0, #0
ARM GAS  /tmp/ccNS9V2T.s 			page 26


 1426              		.loc 1 265 70 view .LVU426
 1427 01ca 27EE267A 		vmul.f32	s14, s14, s13
 1428              		.loc 1 265 24 view .LVU427
 1429 01ce 84ED007A 		vstr.32	s14, [r4]
 1430              		.loc 1 266 9 is_stmt 1 view .LVU428
 1431              		.loc 1 266 27 is_stmt 0 view .LVU429
 1432 01d2 92F91210 		ldrsb	r1, [r2, #18]
 1433              		.loc 1 266 64 view .LVU430
 1434 01d6 537C     		ldrb	r3, [r2, #17]	@ zero_extendqisi2
 1435              		.loc 1 266 59 view .LVU431
 1436 01d8 43EA0123 		orr	r3, r3, r1, lsl #8
 1437 01dc 07EE103A 		vmov	s14, r3	@ int
 1438              		.loc 1 266 70 view .LVU432
 1439 01e0 B8EEC77A 		vcvt.f32.s32	s14, s14
 1440 01e4 27EE267A 		vmul.f32	s14, s14, s13
 1441              		.loc 1 266 24 view .LVU433
 1442 01e8 84ED017A 		vstr.32	s14, [r4, #4]
 1443              		.loc 1 267 9 is_stmt 1 view .LVU434
 1444              		.loc 1 267 27 is_stmt 0 view .LVU435
 1445 01ec 92F91410 		ldrsb	r1, [r2, #20]
 1446              		.loc 1 267 64 view .LVU436
 1447 01f0 D37C     		ldrb	r3, [r2, #19]	@ zero_extendqisi2
 1448              		.loc 1 267 59 view .LVU437
 1449 01f2 43EA0123 		orr	r3, r3, r1, lsl #8
 1450 01f6 07EE903A 		vmov	s15, r3	@ int
 1451              		.loc 1 267 70 view .LVU438
 1452 01fa F8EEE77A 		vcvt.f32.s32	s15, s15
 1453 01fe 67EEA67A 		vmul.f32	s15, s15, s13
 1454              		.loc 1 267 24 view .LVU439
 1455 0202 C4ED027A 		vstr.32	s15, [r4, #8]
 1456              	.L115:
 1457              		.loc 1 271 1 view .LVU440
 1458 0206 064B     		ldr	r3, .L134
 1459 0208 1A68     		ldr	r2, [r3]
 1460 020a 039B     		ldr	r3, [sp, #12]
 1461 020c 5A40     		eors	r2, r3, r2
 1462 020e 04D1     		bne	.L133
 1463 0210 05B0     		add	sp, sp, #20
 1464              		.cfi_remember_state
 1465              		.cfi_def_cfa_offset 36
 1466              		@ sp needed
 1467 0212 BDE8F08F 		pop	{r4, r5, r6, r7, r8, r9, r10, fp, pc}
 1468              	.LVL106:
 1469              	.L122:
 1470              		.cfi_restore_state
 1471              		.loc 1 270 12 view .LVU441
 1472 0216 2046     		mov	r0, r4
 1473 0218 F5E7     		b	.L115
 1474              	.L133:
 1475              		.loc 1 271 1 view .LVU442
 1476 021a FFF7FEFF 		bl	__stack_chk_fail
 1477              	.LVL107:
 1478              	.L135:
 1479 021e 00BF     		.align	2
 1480              	.L134:
 1481 0220 00000000 		.word	.LC5
 1482 0224 00000000 		.word	.LANCHOR1
ARM GAS  /tmp/ccNS9V2T.s 			page 27


 1483 0228 0AE81C41 		.word	1092413450
 1484 022c 00008038 		.word	947912704
 1485 0230 00008046 		.word	1182793728
 1486 0234 5CEFA643 		.word	1135013724
 1487 0238 58A00B39 		.word	957063256
 1488 023c 0000163E 		.word	1041629184
 1489 0240 00000000 		.word	.LANCHOR0
 1490              		.cfi_endproc
 1491              	.LFE262:
 1492              		.size	mpu9250_read, .-mpu9250_read
 1493              		.section	.bss.buf.10718,"aw",%nobits
 1494              		.align	2
 1495              		.set	.LANCHOR1,. + 0
 1496              		.type	buf.10718, %object
 1497              		.size	buf.10718, 22
 1498              	buf.10718:
 1499 0000 00000000 		.space	22
 1499      00000000 
 1499      00000000 
 1499      00000000 
 1499      00000000 
 1500              		.section	.data.imu_addr,"aw"
 1501              		.set	.LANCHOR0,. + 0
 1502              		.type	imu_addr, %object
 1503              		.size	imu_addr, 1
 1504              	imu_addr:
 1505 0000 68       		.byte	104
 1506              		.text
 1507              	.Letext0:
 1508              		.file 2 "/usr/lib/gcc/arm-none-eabi/9.2.1/include/stdint.h"
 1509              		.file 3 "/usr/lib/gcc/arm-none-eabi/9.2.1/include/stddef.h"
 1510              		.file 4 "/usr/include/newlib/sys/_types.h"
 1511              		.file 5 "/usr/include/newlib/sys/reent.h"
 1512              		.file 6 "/usr/include/newlib/sys/lock.h"
 1513              		.file 7 "/usr/include/newlib/math.h"
 1514              		.file 8 ".//ChibiOS//os/rt/ports/ARMCMx/compilers/GCC/chtypes.h"
 1515              		.file 9 ".//ChibiOS//os/rt/include/chsystypes.h"
 1516              		.file 10 ".//ChibiOS//os/rt/include/chschd.h"
 1517              		.file 11 ".//ChibiOS//os/ext/CMSIS/include/core_cm4.h"
 1518              		.file 12 ".//ChibiOS//os/ext/CMSIS/ST/system_stm32f4xx.h"
 1519              		.file 13 ".//ChibiOS//os/ext/CMSIS/ST/stm32f407xx.h"
 1520              		.file 14 ".//ChibiOS//os/rt/ports/ARMCMx/chcore.h"
 1521              		.file 15 ".//ChibiOS//os/rt/ports/ARMCMx/chcore_v7m.h"
 1522              		.file 16 ".//ChibiOS//os/rt/include/chdebug.h"
 1523              		.file 17 ".//ChibiOS//os/rt/include/chtm.h"
 1524              		.file 18 ".//ChibiOS//os/rt/include/chstats.h"
 1525              		.file 19 ".//ChibiOS//os/rt/include/chsem.h"
 1526              		.file 20 ".//ChibiOS//os/rt/include/chmtx.h"
 1527              		.file 21 ".//ChibiOS//os/rt/include/chregistry.h"
 1528              		.file 22 ".//ChibiOS//os/rt/include/chevents.h"
 1529              		.file 23 ".//ChibiOS//os/rt/include/chqueues.h"
 1530              		.file 24 ".//ChibiOS//os/hal/ports/STM32/STM32F4xx/stm32_dma.h"
 1531              		.file 25 ".//ChibiOS//os/hal/include/hal_ioblock.h"
 1532              		.file 26 ".//ChibiOS//os/hal/ports/STM32/LLD/GPIOv2/pal_lld.h"
 1533              		.file 27 ".//ChibiOS//os/hal/include/adc.h"
 1534              		.file 28 ".//ChibiOS//os/hal/ports/STM32/STM32F4xx/adc_lld.h"
 1535              		.file 29 ".//ChibiOS//os/hal/include/can.h"
ARM GAS  /tmp/ccNS9V2T.s 			page 28


 1536              		.file 30 ".//ChibiOS//os/hal/ports/STM32/LLD/can_lld.h"
 1537              		.file 31 ".//ChibiOS//os/hal/include/dac.h"
 1538              		.file 32 ".//ChibiOS//os/hal/ports/STM32/LLD/DACv1/dac_lld.h"
 1539              		.file 33 ".//ChibiOS//os/hal/include/ext.h"
 1540              		.file 34 ".//ChibiOS//os/hal/ports/STM32/LLD/ext_lld.h"
 1541              		.file 35 ".//ChibiOS//os/hal/include/gpt.h"
 1542              		.file 36 ".//ChibiOS//os/hal/ports/STM32/LLD/TIMv1/gpt_lld.h"
 1543              		.file 37 ".//ChibiOS//os/hal/ports/STM32/LLD/TIMv1/stm32_tim.h"
 1544              		.file 38 ".//ChibiOS//os/hal/include/i2c.h"
 1545              		.file 39 ".//ChibiOS//os/hal/ports/STM32/LLD/I2Cv1/i2c_lld.h"
 1546              		.file 40 ".//ChibiOS//os/hal/include/i2s.h"
 1547              		.file 41 ".//ChibiOS//os/hal/ports/STM32/LLD/SPIv1/i2s_lld.h"
 1548              		.file 42 ".//ChibiOS//os/hal/include/pwm.h"
 1549              		.file 43 ".//ChibiOS//os/hal/ports/STM32/LLD/TIMv1/pwm_lld.h"
 1550              		.file 44 ".//ChibiOS//os/hal/include/serial.h"
 1551              		.file 45 ".//ChibiOS//os/hal/ports/STM32/LLD/USARTv1/serial_lld.h"
 1552              		.file 46 ".//ChibiOS//os/hal/include/sdc.h"
 1553              		.file 47 ".//ChibiOS//os/hal/ports/STM32/LLD/sdc_lld.h"
 1554              		.file 48 ".//ChibiOS//os/hal/include/spi.h"
 1555              		.file 49 ".//ChibiOS//os/hal/ports/STM32/LLD/SPIv1/spi_lld.h"
 1556              		.file 50 ".//ChibiOS//os/hal/include/usb.h"
 1557              		.file 51 ".//ChibiOS//os/hal/ports/STM32/LLD/OTGv1/usb_lld.h"
 1558              		.file 52 ".//ChibiOS//os/hal/ports/STM32/LLD/OTGv1/stm32_otg.h"
 1559              		.file 53 ".//src/sensors/mpu9250.h"
 1560              		.file 54 ".//src/sensors/../i2c_bus.h"
 1561              		.file 55 ".//ChibiOS//os/rt/include/chthreads.h"