ARM GAS  /tmp/cchqCFfA.s 			page 1


   1              		.cpu cortex-m4
   2              		.eabi_attribute 27, 1
   3              		.eabi_attribute 28, 1
   4              		.eabi_attribute 20, 1
   5              		.eabi_attribute 21, 1
   6              		.eabi_attribute 23, 3
   7              		.eabi_attribute 24, 1
   8              		.eabi_attribute 25, 1
   9              		.eabi_attribute 26, 1
  10              		.eabi_attribute 30, 2
  11              		.eabi_attribute 34, 1
  12              		.eabi_attribute 18, 4
  13              		.file	"natives.c"
  14              		.text
  15              	.Ltext0:
  16              		.cfi_sections	.debug_frame
  17              		.section	.rodata.aseba_atan2.part.0.cst4,"aM",%progbits,4
  18              		.align	2
  19              	.LC0:
  20 0000 00000000 		.word	__stack_chk_guard
  21              		.section	.text.aseba_atan2.part.0,"ax",%progbits
  22              		.align	1
  23              		.p2align 4,,15
  24              		.arch armv7e-m
  25              		.syntax unified
  26              		.thumb
  27              		.thumb_func
  28              		.fpu fpv4-sp-d16
  29              		.type	aseba_atan2.part.0, %function
  30              	aseba_atan2.part.0:
  31              	.LVL0:
  32              	.LFB31:
  33              		.file 1 ".//aseba/vm/natives.c"
  34              		.loc 1 69 8 view -0
  35              		.cfi_startproc
  36              		@ args = 0, pretend = 0, frame = 8
  37              		@ frame_needed = 0, uses_anonymous_args = 0
  38              		.loc 1 69 8 is_stmt 0 view .LVU1
  39 0000 70B5     		push	{r4, r5, r6, lr}
  40              		.cfi_def_cfa_offset 16
  41              		.cfi_offset 4, -16
  42              		.cfi_offset 5, -12
  43              		.cfi_offset 6, -8
  44              		.cfi_offset 14, -4
  45 0002 2E4B     		ldr	r3, .L17
  46 0004 82B0     		sub	sp, sp, #8
  47              		.cfi_def_cfa_offset 24
  48              		.loc 1 69 8 view .LVU2
  49 0006 0646     		mov	r6, r0
  50 0008 1B68     		ldr	r3, [r3]
  51 000a 0193     		str	r3, [sp, #4]
  52 000c 4FF00003 		mov	r3,#0
  53              	.LBB190:
  54              		.loc 1 80 3 is_stmt 1 view .LVU3
  55              		.loc 1 81 3 view .LVU4
  56              	.LVL1:
  57              		.loc 1 82 3 view .LVU5
ARM GAS  /tmp/cchqCFfA.s 			page 2


  58              		.loc 1 83 3 view .LVU6
  59              		.loc 1 83 6 is_stmt 0 view .LVU7
  60 0010 0029     		cmp	r1, #0
  61 0012 3CD0     		beq	.L9
  62              	.LBB191:
  63              		.loc 1 128 4 is_stmt 1 view .LVU8
  64              	.LBE191:
  65              		.loc 1 82 15 is_stmt 0 view .LVU9
  66 0014 80EAE075 		eor	r5, r0, r0, asr #31
  67 0018 A5EBE075 		sub	r5, r5, r0, asr #31
  68              	.LBB195:
  69              		.loc 1 128 11 view .LVU10
  70 001c 0023     		movs	r3, #0
  71              	.LBE195:
  72              		.loc 1 81 15 view .LVU11
  73 001e 81EAE170 		eor	r0, r1, r1, asr #31
  74              	.LVL2:
  75              		.loc 1 81 15 view .LVU12
  76 0022 A0EBE170 		sub	r0, r0, r1, asr #31
  77              	.LBB196:
  78              		.loc 1 129 11 view .LVU13
  79 0026 1A46     		mov	r2, r3
  80              		.loc 1 128 32 view .LVU14
  81 0028 2D04     		lsls	r5, r5, #16
  82              		.loc 1 128 39 view .LVU15
  83 002a 00B2     		sxth	r0, r0
  84              		.loc 1 128 11 view .LVU16
  85 002c 95FBF0F5 		sdiv	r5, r5, r0
  86              	.LVL3:
  87              		.loc 1 129 4 is_stmt 1 view .LVU17
  88              		.loc 1 131 4 view .LVU18
  89              		.loc 1 132 4 view .LVU19
  90              		.loc 1 132 26 view .LVU20
  91              	.L4:
  92              		.loc 1 133 8 is_stmt 0 view .LVU21
  93 0030 55FA03F0 		asrs	r0, r5, r3
  94 0034 1CB2     		sxth	r4, r3
  95              	.LVL4:
  96              		.loc 1 133 5 is_stmt 1 view .LVU22
  97 0036 03F10103 		add	r3, r3, #1
  98              		.loc 1 133 8 is_stmt 0 view .LVU23
  99 003a 18BF     		it	ne
 100 003c 2246     		movne	r2, r4
 101              	.LVL5:
 102              		.loc 1 132 44 is_stmt 1 view .LVU24
 103              		.loc 1 132 26 view .LVU25
 104              		.loc 1 132 4 is_stmt 0 view .LVU26
 105 003e 202B     		cmp	r3, #32
 106 0040 F6D1     		bne	.L4
 107              	.LBB192:
 108              		.loc 1 138 5 is_stmt 1 view .LVU27
 109              		.loc 1 138 24 is_stmt 0 view .LVU28
 110 0042 90B2     		uxth	r0, r2
 111 0044 A0F10C04 		sub	r4, r0, #12
 112              		.loc 1 138 12 view .LVU29
 113 0048 24B2     		sxth	r4, r4
 114              	.LVL6:
ARM GAS  /tmp/cchqCFfA.s 			page 3


 115              		.loc 1 139 5 is_stmt 1 view .LVU30
 116              		.loc 1 139 8 is_stmt 0 view .LVU31
 117 004a 002C     		cmp	r4, #0
 118 004c 2CDB     		blt	.L15
 119              	.LBB193:
 120              		.loc 1 146 6 is_stmt 1 view .LVU32
 121              	.LVL7:
 122              		.loc 1 147 6 view .LVU33
 123              		.loc 1 148 6 view .LVU34
 124              		.loc 1 146 55 is_stmt 0 view .LVU35
 125 004e 0123     		movs	r3, #1
 126 0050 9340     		lsls	r3, r3, r2
 127              		.loc 1 147 28 view .LVU36
 128 0052 0838     		subs	r0, r0, #8
 129              	.LVL8:
 130              		.loc 1 148 61 view .LVU37
 131 0054 00B2     		sxth	r0, r0
 132              	.LVL9:
 133              		.loc 1 146 13 view .LVU38
 134 0056 EB1A     		subs	r3, r5, r3
 135              		.loc 1 148 61 view .LVU39
 136 0058 0341     		asrs	r3, r3, r0
 137              	.LVL10:
 138              		.loc 1 149 6 is_stmt 1 view .LVU40
 139              		.loc 1 150 6 view .LVU41
 140              		.loc 1 151 55 is_stmt 0 view .LVU42
 141 005a 43F34A12 		sbfx	r2, r3, #5, #11
 142              	.LVL11:
 143              		.loc 1 151 55 view .LVU43
 144 005e 02EBC404 		add	r4, r2, r4, lsl #3
 145              	.LVL12:
 146              		.loc 1 151 46 view .LVU44
 147 0062 1748     		ldr	r0, .L17+4
 148              		.loc 1 151 111 view .LVU45
 149 0064 621C     		adds	r2, r4, #1
 150              		.loc 1 150 13 view .LVU46
 151 0066 03F01F03 		and	r3, r3, #31
 152              	.LVL13:
 153              		.loc 1 151 6 is_stmt 1 view .LVU47
 154              		.loc 1 151 131 is_stmt 0 view .LVU48
 155 006a 30F81220 		ldrh	r2, [r0, r2, lsl #1]
 156              		.loc 1 151 22 view .LVU49
 157 006e 30F91400 		ldrsh	r0, [r0, r4, lsl #1]
 158              		.loc 1 151 131 view .LVU50
 159 0072 12FB03F2 		smulbb	r2, r2, r3
 160              		.loc 1 151 76 view .LVU51
 161 0076 C3F12003 		rsb	r3, r3, #32
 162              	.LVL14:
 163              		.loc 1 151 85 view .LVU52
 164 007a 03FB0023 		mla	r3, r3, r0, r2
 165              		.loc 1 151 10 view .LVU53
 166 007e 43F34F10 		sbfx	r0, r3, #5, #16
 167              	.LVL15:
 168              	.L6:
 169              		.loc 1 151 10 view .LVU54
 170              	.LBE193:
 171              		.loc 1 155 5 is_stmt 1 view .LVU55
ARM GAS  /tmp/cchqCFfA.s 			page 4


 172              		.loc 1 155 8 is_stmt 0 view .LVU56
 173 0082 0029     		cmp	r1, #0
 174 0084 05DA     		bge	.L2
 175              		.loc 1 156 6 is_stmt 1 view .LVU57
 176              		.loc 1 156 18 is_stmt 0 view .LVU58
 177 0086 C0F50040 		rsb	r0, r0, #32768
 178              	.LVL16:
 179              		.loc 1 156 10 view .LVU59
 180 008a 00B2     		sxth	r0, r0
 181              	.LVL17:
 182              		.loc 1 156 10 view .LVU60
 183 008c 01E0     		b	.L2
 184              	.LVL18:
 185              	.L9:
 186              		.loc 1 156 10 view .LVU61
 187              	.LBE192:
 188              	.LBE196:
 189              		.loc 1 85 8 view .LVU62
 190 008e 4FF48040 		mov	r0, #16384
 191              	.LVL19:
 192              	.L2:
 193              		.loc 1 160 3 is_stmt 1 view .LVU63
 194              		.loc 1 160 6 is_stmt 0 view .LVU64
 195 0092 002E     		cmp	r6, #0
 196              		.loc 1 163 4 is_stmt 1 view .LVU65
 197              	.LBE190:
 198              		.loc 1 165 1 is_stmt 0 view .LVU66
 199 0094 094B     		ldr	r3, .L17
 200              	.LBB198:
 201              		.loc 1 163 11 view .LVU67
 202 0096 DCBF     		itt	le
 203 0098 4042     		rsble	r0, r0, #0
 204              	.LVL20:
 205              		.loc 1 163 11 view .LVU68
 206 009a 00B2     		sxthle	r0, r0
 207              	.LBE198:
 208              		.loc 1 165 1 view .LVU69
 209 009c 1A68     		ldr	r2, [r3]
 210 009e 019B     		ldr	r3, [sp, #4]
 211 00a0 5A40     		eors	r2, r3, r2
 212 00a2 08D1     		bne	.L16
 213 00a4 02B0     		add	sp, sp, #8
 214              		.cfi_remember_state
 215              		.cfi_def_cfa_offset 16
 216              		@ sp needed
 217 00a6 70BD     		pop	{r4, r5, r6, pc}
 218              	.LVL21:
 219              	.L15:
 220              		.cfi_restore_state
 221              	.LBB199:
 222              	.LBB197:
 223              	.LBB194:
 224              		.loc 1 142 6 is_stmt 1 view .LVU70
 225              		.loc 1 142 50 is_stmt 0 view .LVU71
 226 00a8 4FF42370 		mov	r0, #652
 227 00ac 00FB05F0 		mul	r0, r0, r5
 228              		.loc 1 142 10 view .LVU72
ARM GAS  /tmp/cchqCFfA.s 			page 5


 229 00b0 40F30F30 		sbfx	r0, r0, #12, #16
 230              	.LVL22:
 231              		.loc 1 142 10 view .LVU73
 232 00b4 E5E7     		b	.L6
 233              	.LVL23:
 234              	.L16:
 235              		.loc 1 142 10 view .LVU74
 236              	.LBE194:
 237              	.LBE197:
 238              	.LBE199:
 239              		.loc 1 165 1 view .LVU75
 240 00b6 FFF7FEFF 		bl	__stack_chk_fail
 241              	.LVL24:
 242              	.L18:
 243              		.loc 1 165 1 view .LVU76
 244 00ba 00BF     		.align	2
 245              	.L17:
 246 00bc 00000000 		.word	.LC0
 247 00c0 00000000 		.word	.LANCHOR0
 248              		.cfi_endproc
 249              	.LFE31:
 250              		.size	aseba_atan2.part.0, .-aseba_atan2.part.0
 251              		.section	.rodata.aseba_atan2.cst4,"aM",%progbits,4
 252              		.align	2
 253              	.LC1:
 254 0000 00000000 		.word	__stack_chk_guard
 255              		.section	.text.aseba_atan2,"ax",%progbits
 256              		.align	1
 257              		.p2align 4,,15
 258              		.global	aseba_atan2
 259              		.syntax unified
 260              		.thumb
 261              		.thumb_func
 262              		.fpu fpv4-sp-d16
 263              		.type	aseba_atan2, %function
 264              	aseba_atan2:
 265              	.LVL25:
 266              	.LFB1:
 267              		.loc 1 70 1 is_stmt 1 view -0
 268              		.cfi_startproc
 269              		@ args = 0, pretend = 0, frame = 8
 270              		@ frame_needed = 0, uses_anonymous_args = 0
 271              		.loc 1 70 1 is_stmt 0 view .LVU78
 272 0000 00B5     		push	{lr}
 273              		.cfi_def_cfa_offset 4
 274              		.cfi_offset 14, -4
 275 0002 104B     		ldr	r3, .L27
 276 0004 83B0     		sub	sp, sp, #12
 277              		.cfi_def_cfa_offset 16
 278              		.loc 1 70 1 view .LVU79
 279 0006 1B68     		ldr	r3, [r3]
 280 0008 0193     		str	r3, [sp, #4]
 281 000a 4FF00003 		mov	r3,#0
 282              		.loc 1 71 2 is_stmt 1 view .LVU80
 283              		.loc 1 71 5 is_stmt 0 view .LVU81
 284 000e 60B9     		cbnz	r0, .L20
 285              		.loc 1 73 3 is_stmt 1 view .LVU82
ARM GAS  /tmp/cchqCFfA.s 			page 6


 286              		.loc 1 165 1 is_stmt 0 view .LVU83
 287 0010 0C4B     		ldr	r3, .L27
 288              		.loc 1 73 6 view .LVU84
 289 0012 0029     		cmp	r1, #0
 290              		.loc 1 76 11 view .LVU85
 291 0014 A0F50040 		sub	r0, r0, #32768
 292              	.LVL26:
 293              		.loc 1 76 11 view .LVU86
 294 0018 A8BF     		it	ge
 295 001a 0020     		movge	r0, #0
 296              		.loc 1 165 1 view .LVU87
 297 001c 1A68     		ldr	r2, [r3]
 298 001e 019B     		ldr	r3, [sp, #4]
 299 0020 5A40     		eors	r2, r3, r2
 300 0022 0CD1     		bne	.L25
 301 0024 03B0     		add	sp, sp, #12
 302              		.cfi_remember_state
 303              		.cfi_def_cfa_offset 4
 304              		@ sp needed
 305 0026 5DF804FB 		ldr	pc, [sp], #4
 306              	.LVL27:
 307              	.L20:
 308              		.cfi_restore_state
 309              		.loc 1 165 1 view .LVU88
 310 002a 064B     		ldr	r3, .L27
 311 002c 1A68     		ldr	r2, [r3]
 312 002e 019B     		ldr	r3, [sp, #4]
 313 0030 5A40     		eors	r2, r3, r2
 314 0032 04D1     		bne	.L25
 315 0034 03B0     		add	sp, sp, #12
 316              		.cfi_remember_state
 317              		.cfi_def_cfa_offset 4
 318              		@ sp needed
 319 0036 5DF804EB 		ldr	lr, [sp], #4
 320              		.cfi_restore 14
 321              		.cfi_def_cfa_offset 0
 322 003a FFF7FEBF 		b	aseba_atan2.part.0
 323              	.LVL28:
 324              	.L25:
 325              		.cfi_restore_state
 326              		.loc 1 165 1 view .LVU89
 327 003e FFF7FEFF 		bl	__stack_chk_fail
 328              	.LVL29:
 329              	.L28:
 330              		.loc 1 165 1 view .LVU90
 331 0042 00BF     		.align	2
 332              	.L27:
 333 0044 00000000 		.word	.LC1
 334              		.cfi_endproc
 335              	.LFE1:
 336              		.size	aseba_atan2, .-aseba_atan2
 337              		.section	.rodata.aseba_sin.cst4,"aM",%progbits,4
 338              		.align	2
 339              	.LC2:
 340 0000 00000000 		.word	__stack_chk_guard
 341              		.section	.text.aseba_sin,"ax",%progbits
 342              		.align	1
ARM GAS  /tmp/cchqCFfA.s 			page 7


 343              		.p2align 4,,15
 344              		.global	aseba_sin
 345              		.syntax unified
 346              		.thumb
 347              		.thumb_func
 348              		.fpu fpv4-sp-d16
 349              		.type	aseba_sin, %function
 350              	aseba_sin:
 351              	.LVL30:
 352              	.LFB2:
 353              		.loc 1 181 1 is_stmt 1 view -0
 354              		.cfi_startproc
 355              		@ args = 0, pretend = 0, frame = 8
 356              		@ frame_needed = 0, uses_anonymous_args = 0
 357              		.loc 1 181 1 is_stmt 0 view .LVU92
 358 0000 00B5     		push	{lr}
 359              		.cfi_def_cfa_offset 4
 360              		.cfi_offset 14, -4
 361 0002 264B     		ldr	r3, .L44
 362 0004 83B0     		sub	sp, sp, #12
 363              		.cfi_def_cfa_offset 16
 364              		.loc 1 186 5 view .LVU93
 365 0006 0028     		cmp	r0, #0
 366              	.LVL31:
 367              		.loc 1 181 1 view .LVU94
 368 0008 1B68     		ldr	r3, [r3]
 369 000a 0193     		str	r3, [sp, #4]
 370 000c 4FF00003 		mov	r3,#0
 371              		.loc 1 182 2 is_stmt 1 view .LVU95
 372              		.loc 1 183 2 view .LVU96
 373              		.loc 1 184 2 view .LVU97
 374              		.loc 1 185 2 view .LVU98
 375              		.loc 1 186 2 view .LVU99
 376              		.loc 1 186 5 is_stmt 0 view .LVU100
 377 0010 20DB     		blt	.L40
 378              		.loc 1 198 3 is_stmt 1 view .LVU101
 379              		.loc 1 198 6 is_stmt 0 view .LVU102
 380 0012 B0F5804F 		cmp	r0, #16384
 381 0016 19DC     		bgt	.L41
 382              		.loc 1 200 8 is_stmt 1 view .LVU103
 383              		.loc 1 200 11 is_stmt 0 view .LVU104
 384 0018 39D0     		beq	.L42
 385              	.L35:
 386              	.LVL32:
 387              		.loc 1 207 2 is_stmt 1 view .LVU105
 388              		.loc 1 208 2 view .LVU106
 389              	.LBB200:
 390              		.loc 1 211 52 is_stmt 0 view .LVU107
 391 001a C211     		asrs	r2, r0, #7
 392              		.loc 1 211 110 view .LVU108
 393 001c 204B     		ldr	r3, .L44+4
 394 001e 511C     		adds	r1, r2, #1
 395              	.LBE200:
 396              		.loc 1 208 11 view .LVU109
 397 0020 00F07F00 		and	r0, r0, #127
 398              	.LVL33:
 399              	.LBB201:
ARM GAS  /tmp/cchqCFfA.s 			page 8


 400              		.loc 1 211 3 is_stmt 1 view .LVU110
 401              		.loc 1 213 3 view .LVU111
 402              		.loc 1 211 29 is_stmt 0 view .LVU112
 403 0024 33F91220 		ldrsh	r2, [r3, r2, lsl #1]
 404              	.LVL34:
 405              		.loc 1 211 85 view .LVU113
 406 0028 33F81130 		ldrh	r3, [r3, r1, lsl #1]
 407              		.loc 1 211 74 view .LVU114
 408 002c C0F18001 		rsb	r1, r0, #128
 409              	.LVL35:
 410              		.loc 1 211 60 view .LVU115
 411 0030 02FB01F2 		mul	r2, r2, r1
 412              		.loc 1 211 85 view .LVU116
 413 0034 13FB0020 		smlabb	r0, r3, r0, r2
 414              	.LVL36:
 415              		.loc 1 211 10 view .LVU117
 416 0038 40F3CF10 		sbfx	r0, r0, #7, #16
 417              	.LVL37:
 418              	.L33:
 419              		.loc 1 211 10 view .LVU118
 420              	.LBE201:
 421              		.loc 1 218 1 view .LVU119
 422 003c 174B     		ldr	r3, .L44
 423 003e 1A68     		ldr	r2, [r3]
 424 0040 019B     		ldr	r3, [sp, #4]
 425 0042 5A40     		eors	r2, r3, r2
 426 0044 28D1     		bne	.L43
 427 0046 03B0     		add	sp, sp, #12
 428              		.cfi_remember_state
 429              		.cfi_def_cfa_offset 4
 430              		@ sp needed
 431 0048 5DF804FB 		ldr	pc, [sp], #4
 432              	.L41:
 433              		.cfi_restore_state
 434              		.loc 1 199 4 is_stmt 1 view .LVU120
 435              		.loc 1 199 32 is_stmt 0 view .LVU121
 436 004c C0F50040 		rsb	r0, r0, #32768
 437              		.loc 1 199 16 view .LVU122
 438 0050 00B2     		sxth	r0, r0
 439              	.LVL38:
 440              		.loc 1 199 16 view .LVU123
 441 0052 E2E7     		b	.L35
 442              	.LVL39:
 443              	.L40:
 444              		.loc 1 188 3 is_stmt 1 view .LVU124
 445              		.loc 1 188 6 is_stmt 0 view .LVU125
 446 0054 10F5804F 		cmn	r0, #16384
 447 0058 15DA     		bge	.L31
 448              		.loc 1 189 4 is_stmt 1 view .LVU126
 449              		.loc 1 189 24 is_stmt 0 view .LVU127
 450 005a A0F50040 		sub	r0, r0, #32768
 451              		.loc 1 189 16 view .LVU128
 452 005e 00B2     		sxth	r0, r0
 453              	.LVL40:
 454              	.L32:
 455              		.loc 1 207 2 is_stmt 1 view .LVU129
 456              		.loc 1 208 2 view .LVU130
ARM GAS  /tmp/cchqCFfA.s 			page 9


 457              	.LBB202:
 458              		.loc 1 211 52 is_stmt 0 view .LVU131
 459 0060 C211     		asrs	r2, r0, #7
 460              		.loc 1 211 110 view .LVU132
 461 0062 0F4B     		ldr	r3, .L44+4
 462 0064 511C     		adds	r1, r2, #1
 463              	.LBE202:
 464              		.loc 1 208 11 view .LVU133
 465 0066 00F07F00 		and	r0, r0, #127
 466              	.LVL41:
 467              	.LBB203:
 468              		.loc 1 211 3 is_stmt 1 view .LVU134
 469              		.loc 1 213 3 view .LVU135
 470              		.loc 1 214 4 view .LVU136
 471              		.loc 1 211 29 is_stmt 0 view .LVU137
 472 006a 33F91220 		ldrsh	r2, [r3, r2, lsl #1]
 473              	.LVL42:
 474              		.loc 1 211 85 view .LVU138
 475 006e 33F81130 		ldrh	r3, [r3, r1, lsl #1]
 476              		.loc 1 211 74 view .LVU139
 477 0072 C0F18001 		rsb	r1, r0, #128
 478              	.LVL43:
 479              		.loc 1 211 60 view .LVU140
 480 0076 02FB01F2 		mul	r2, r2, r1
 481              		.loc 1 211 85 view .LVU141
 482 007a 13FB0020 		smlabb	r0, r3, r0, r2
 483              	.LVL44:
 484              		.loc 1 211 142 view .LVU142
 485 007e C011     		asrs	r0, r0, #7
 486              		.loc 1 214 11 view .LVU143
 487 0080 4042     		rsbs	r0, r0, #0
 488 0082 00B2     		sxth	r0, r0
 489 0084 DAE7     		b	.L33
 490              	.LVL45:
 491              	.L31:
 492              		.loc 1 214 11 view .LVU144
 493              	.LBE203:
 494              		.loc 1 190 8 is_stmt 1 view .LVU145
 495              		.loc 1 190 11 is_stmt 0 view .LVU146
 496 0086 05D0     		beq	.L37
 497              		.loc 1 191 4 is_stmt 1 view .LVU147
 498              		.loc 1 191 16 is_stmt 0 view .LVU148
 499 0088 4042     		rsbs	r0, r0, #0
 500 008a 00B2     		sxth	r0, r0
 501              	.LVL46:
 502              		.loc 1 191 16 view .LVU149
 503 008c E8E7     		b	.L32
 504              	.LVL47:
 505              	.L42:
 506              		.loc 1 203 11 view .LVU150
 507 008e 47F6FF70 		movw	r0, #32767
 508 0092 D3E7     		b	.L33
 509              	.L37:
 510              		.loc 1 193 11 view .LVU151
 511 0094 0348     		ldr	r0, .L44+8
 512 0096 D1E7     		b	.L33
 513              	.L43:
ARM GAS  /tmp/cchqCFfA.s 			page 10


 514              		.loc 1 218 1 view .LVU152
 515 0098 FFF7FEFF 		bl	__stack_chk_fail
 516              	.LVL48:
 517              	.L45:
 518              		.align	2
 519              	.L44:
 520 009c 00000000 		.word	.LC2
 521 00a0 00000000 		.word	.LANCHOR1
 522 00a4 0180FFFF 		.word	-32767
 523              		.cfi_endproc
 524              	.LFE2:
 525              		.size	aseba_sin, .-aseba_sin
 526              		.section	.rodata.aseba_cos.cst4,"aM",%progbits,4
 527              		.align	2
 528              	.LC3:
 529 0000 00000000 		.word	__stack_chk_guard
 530              		.section	.text.aseba_cos,"ax",%progbits
 531              		.align	1
 532              		.p2align 4,,15
 533              		.global	aseba_cos
 534              		.syntax unified
 535              		.thumb
 536              		.thumb_func
 537              		.fpu fpv4-sp-d16
 538              		.type	aseba_cos, %function
 539              	aseba_cos:
 540              	.LVL49:
 541              	.LFB3:
 542              		.loc 1 222 1 is_stmt 1 view -0
 543              		.cfi_startproc
 544              		@ args = 0, pretend = 0, frame = 8
 545              		@ frame_needed = 0, uses_anonymous_args = 0
 546              		.loc 1 222 1 is_stmt 0 view .LVU154
 547 0000 00B5     		push	{lr}
 548              		.cfi_def_cfa_offset 4
 549              		.cfi_offset 14, -4
 550 0002 0A4B     		ldr	r3, .L51
 551 0004 83B0     		sub	sp, sp, #12
 552              		.cfi_def_cfa_offset 16
 553              		.loc 1 222 1 view .LVU155
 554 0006 1B68     		ldr	r3, [r3]
 555 0008 0193     		str	r3, [sp, #4]
 556 000a 4FF00003 		mov	r3,#0
 557              		.loc 1 223 2 is_stmt 1 view .LVU156
 558              		.loc 1 223 9 is_stmt 0 view .LVU157
 559 000e 074B     		ldr	r3, .L51
 560 0010 1A68     		ldr	r2, [r3]
 561 0012 019B     		ldr	r3, [sp, #4]
 562 0014 5A40     		eors	r2, r3, r2
 563 0016 07D1     		bne	.L50
 564              		.loc 1 223 25 view .LVU158
 565 0018 00F58040 		add	r0, r0, #16384
 566              	.LVL50:
 567              		.loc 1 223 9 view .LVU159
 568 001c 00B2     		sxth	r0, r0
 569              		.loc 1 224 1 view .LVU160
 570 001e 03B0     		add	sp, sp, #12
ARM GAS  /tmp/cchqCFfA.s 			page 11


 571              		.cfi_remember_state
 572              		.cfi_def_cfa_offset 4
 573              		@ sp needed
 574 0020 5DF804EB 		ldr	lr, [sp], #4
 575              		.cfi_restore 14
 576              		.cfi_def_cfa_offset 0
 577              		.loc 1 223 9 view .LVU161
 578 0024 FFF7FEBF 		b	aseba_sin
 579              	.LVL51:
 580              	.L50:
 581              		.cfi_restore_state
 582              		.loc 1 223 9 view .LVU162
 583 0028 FFF7FEFF 		bl	__stack_chk_fail
 584              	.LVL52:
 585              	.L52:
 586              		.loc 1 223 9 view .LVU163
 587              		.align	2
 588              	.L51:
 589 002c 00000000 		.word	.LC3
 590              		.cfi_endproc
 591              	.LFE3:
 592              		.size	aseba_cos, .-aseba_cos
 593              		.section	.rodata.aseba_sqrt.cst4,"aM",%progbits,4
 594              		.align	2
 595              	.LC4:
 596 0000 00000000 		.word	__stack_chk_guard
 597              		.section	.text.aseba_sqrt,"ax",%progbits
 598              		.align	1
 599              		.p2align 4,,15
 600              		.global	aseba_sqrt
 601              		.syntax unified
 602              		.thumb
 603              		.thumb_func
 604              		.fpu fpv4-sp-d16
 605              		.type	aseba_sqrt, %function
 606              	aseba_sqrt:
 607              	.LVL53:
 608              	.LFB4:
 609              		.loc 1 228 1 is_stmt 1 view -0
 610              		.cfi_startproc
 611              		@ args = 0, pretend = 0, frame = 8
 612              		@ frame_needed = 0, uses_anonymous_args = 0
 613              		.loc 1 228 1 is_stmt 0 view .LVU165
 614 0000 10B5     		push	{r4, lr}
 615              		.cfi_def_cfa_offset 8
 616              		.cfi_offset 4, -8
 617              		.cfi_offset 14, -4
 618 0002 164B     		ldr	r3, .L69
 619 0004 82B0     		sub	sp, sp, #8
 620              		.cfi_def_cfa_offset 16
 621              		.loc 1 233 7 view .LVU166
 622 0006 B0F5804F 		cmp	r0, #16384
 623              		.loc 1 228 1 view .LVU167
 624 000a 1B68     		ldr	r3, [r3]
 625 000c 0193     		str	r3, [sp, #4]
 626 000e 4FF00003 		mov	r3,#0
 627              		.loc 1 229 2 is_stmt 1 view .LVU168
ARM GAS  /tmp/cchqCFfA.s 			page 12


 628              	.LVL54:
 629              		.loc 1 230 2 view .LVU169
 630              		.loc 1 231 2 view .LVU170
 631              		.loc 1 233 2 view .LVU171
 632              		.loc 1 233 7 view .LVU172
 633              		.loc 1 228 1 is_stmt 0 view .LVU173
 634 0012 0146     		mov	r1, r0
 635              		.loc 1 231 9 view .LVU174
 636 0014 4FF48043 		mov	r3, #16384
 637              		.loc 1 233 7 view .LVU175
 638 0018 03DA     		bge	.L54
 639              	.LVL55:
 640              	.L55:
 641              		.loc 1 234 3 is_stmt 1 view .LVU176
 642              		.loc 1 234 7 is_stmt 0 view .LVU177
 643 001a 9B10     		asrs	r3, r3, #2
 644              	.LVL56:
 645              		.loc 1 233 7 is_stmt 1 view .LVU178
 646 001c 9942     		cmp	r1, r3
 647 001e FCDB     		blt	.L55
 648              	.LVL57:
 649              		.loc 1 236 7 view .LVU179
 650 0020 C3B1     		cbz	r3, .L66
 651              	.LVL58:
 652              	.L54:
 653              		.loc 1 230 9 is_stmt 0 view .LVU180
 654 0022 0020     		movs	r0, #0
 655              	.LVL59:
 656              		.loc 1 230 9 view .LVU181
 657 0024 08E0     		b	.L59
 658              	.LVL60:
 659              	.L67:
 660              		.loc 1 240 4 is_stmt 1 view .LVU182
 661              		.loc 1 240 14 is_stmt 0 view .LVU183
 662 0026 9AB2     		uxth	r2, r3
 663              		.loc 1 240 7 view .LVU184
 664 0028 1418     		adds	r4, r2, r0
 665 002a 091B     		subs	r1, r1, r4
 666              	.LVL61:
 667              		.loc 1 241 21 view .LVU185
 668 002c 02EB6002 		add	r2, r2, r0, asr #1
 669              		.loc 1 236 7 view .LVU186
 670 0030 9B10     		asrs	r3, r3, #2
 671              	.LVL62:
 672              		.loc 1 240 7 view .LVU187
 673 0032 09B2     		sxth	r1, r1
 674              	.LVL63:
 675              		.loc 1 241 4 is_stmt 1 view .LVU188
 676              		.loc 1 241 8 is_stmt 0 view .LVU189
 677 0034 10B2     		sxth	r0, r2
 678              	.LVL64:
 679              		.loc 1 247 3 is_stmt 1 view .LVU190
 680              		.loc 1 236 7 view .LVU191
 681 0036 06D0     		beq	.L56
 682              	.LVL65:
 683              	.L59:
 684              		.loc 1 238 3 view .LVU192
ARM GAS  /tmp/cchqCFfA.s 			page 13


 685              		.loc 1 238 17 is_stmt 0 view .LVU193
 686 0038 C218     		adds	r2, r0, r3
 687              		.loc 1 238 6 view .LVU194
 688 003a 9142     		cmp	r1, r2
 689 003c F3DA     		bge	.L67
 690              		.loc 1 245 4 is_stmt 1 view .LVU195
 691              		.loc 1 236 7 is_stmt 0 view .LVU196
 692 003e 9B10     		asrs	r3, r3, #2
 693              	.LVL66:
 694              		.loc 1 245 8 view .LVU197
 695 0040 4FEA6000 		asr	r0, r0, #1
 696              	.LVL67:
 697              		.loc 1 247 3 is_stmt 1 view .LVU198
 698              		.loc 1 236 7 view .LVU199
 699 0044 F8D1     		bne	.L59
 700              	.LVL68:
 701              	.L56:
 702              		.loc 1 249 2 view .LVU200
 703              		.loc 1 250 1 is_stmt 0 view .LVU201
 704 0046 054B     		ldr	r3, .L69
 705 0048 1A68     		ldr	r2, [r3]
 706 004a 019B     		ldr	r3, [sp, #4]
 707 004c 5A40     		eors	r2, r3, r2
 708 004e 03D1     		bne	.L68
 709 0050 02B0     		add	sp, sp, #8
 710              		.cfi_remember_state
 711              		.cfi_def_cfa_offset 8
 712              		@ sp needed
 713 0052 10BD     		pop	{r4, pc}
 714              	.LVL69:
 715              	.L66:
 716              		.cfi_restore_state
 717              		.loc 1 230 9 view .LVU202
 718 0054 1846     		mov	r0, r3
 719              	.LVL70:
 720              		.loc 1 230 9 view .LVU203
 721 0056 F6E7     		b	.L56
 722              	.LVL71:
 723              	.L68:
 724              		.loc 1 250 1 view .LVU204
 725 0058 FFF7FEFF 		bl	__stack_chk_fail
 726              	.LVL72:
 727              	.L70:
 728              		.loc 1 250 1 view .LVU205
 729              		.align	2
 730              	.L69:
 731 005c 00000000 		.word	.LC4
 732              		.cfi_endproc
 733              	.LFE4:
 734              		.size	aseba_sqrt, .-aseba_sqrt
 735              		.section	.rodata.aseba_comb_sort.cst4,"aM",%progbits,4
 736              		.align	2
 737              	.LC5:
 738 0000 00000000 		.word	__stack_chk_guard
 739              		.section	.text.aseba_comb_sort,"ax",%progbits
 740              		.align	1
 741              		.p2align 4,,15
ARM GAS  /tmp/cchqCFfA.s 			page 14


 742              		.global	aseba_comb_sort
 743              		.syntax unified
 744              		.thumb
 745              		.thumb_func
 746              		.fpu fpv4-sp-d16
 747              		.type	aseba_comb_sort, %function
 748              	aseba_comb_sort:
 749              	.LVL73:
 750              	.LFB5:
 751              		.loc 1 254 1 is_stmt 1 view -0
 752              		.cfi_startproc
 753              		@ args = 0, pretend = 0, frame = 8
 754              		@ frame_needed = 0, uses_anonymous_args = 0
 755              		.loc 1 254 1 is_stmt 0 view .LVU207
 756 0000 2DE9F041 		push	{r4, r5, r6, r7, r8, lr}
 757              		.cfi_def_cfa_offset 24
 758              		.cfi_offset 4, -24
 759              		.cfi_offset 5, -20
 760              		.cfi_offset 6, -16
 761              		.cfi_offset 7, -12
 762              		.cfi_offset 8, -8
 763              		.cfi_offset 14, -4
 764 0004 214B     		ldr	r3, .L89
 765              		.loc 1 266 37 view .LVU208
 766 0006 DFF88880 		ldr	r8, .L89+4
 767              		.loc 1 255 9 view .LVU209
 768 000a 8C46     		mov	ip, r1
 769              		.loc 1 254 1 view .LVU210
 770 000c 82B0     		sub	sp, sp, #8
 771              		.cfi_def_cfa_offset 32
 772              		.loc 1 259 8 view .LVU211
 773 000e BCF1010F 		cmp	ip, #1
 774              		.loc 1 254 1 view .LVU212
 775 0012 1B68     		ldr	r3, [r3]
 776 0014 0193     		str	r3, [sp, #4]
 777 0016 4FF00003 		mov	r3,#0
 778              		.loc 1 255 2 is_stmt 1 view .LVU213
 779              	.LVL74:
 780              		.loc 1 256 2 view .LVU214
 781              		.loc 1 257 2 view .LVU215
 782              		.loc 1 259 2 view .LVU216
 783              		.loc 1 256 9 is_stmt 0 view .LVU217
 784 001a 4FF0000E 		mov	lr, #0
 785              	.LVL75:
 786              		.loc 1 259 8 is_stmt 1 view .LVU218
 787 001e 21D9     		bls	.L87
 788              	.LVL76:
 789              	.L76:
 790              		.loc 1 261 3 view .LVU219
 791              		.loc 1 266 4 view .LVU220
 792              		.loc 1 266 32 is_stmt 0 view .LVU221
 793 0020 4FEA8C0C 		lsl	ip, ip, #2
 794              		.loc 1 266 37 view .LVU222
 795 0024 A8FB0C3C 		umull	r3, ip, r8, ip
 796 0028 4FEA9C03 		lsr	r3, ip, #2
 797              		.loc 1 272 3 view .LVU223
 798 002c 8B42     		cmp	r3, r1
ARM GAS  /tmp/cchqCFfA.s 			page 15


 799              		.loc 1 266 8 view .LVU224
 800 002e 9C46     		mov	ip, r3
 801              	.LVL77:
 802              		.loc 1 270 3 is_stmt 1 view .LVU225
 803              		.loc 1 272 3 view .LVU226
 804              		.loc 1 272 15 view .LVU227
 805              		.loc 1 272 19 is_stmt 0 view .LVU228
 806 0030 1F46     		mov	r7, r3
 807              		.loc 1 272 3 view .LVU229
 808 0032 25DA     		bge	.L73
 809              	.LVL78:
 810              	.L79:
 811              		.loc 1 272 10 view .LVU230
 812 0034 0023     		movs	r3, #0
 813              		.loc 1 270 11 view .LVU231
 814 0036 9E46     		mov	lr, r3
 815              		.loc 1 254 1 view .LVU232
 816 0038 3A46     		mov	r2, r7
 817              	.LVL79:
 818              	.L75:
 819              		.loc 1 274 4 is_stmt 1 view .LVU233
 820              		.loc 1 274 13 is_stmt 0 view .LVU234
 821 003a 30F91340 		ldrsh	r4, [r0, r3, lsl #1]
 822              		.loc 1 274 24 view .LVU235
 823 003e 30F91250 		ldrsh	r5, [r0, r2, lsl #1]
 824              		.loc 1 274 17 view .LVU236
 825 0042 661B     		subs	r6, r4, r5
 826              		.loc 1 274 7 view .LVU237
 827 0044 002E     		cmp	r6, #0
 828 0046 05DD     		ble	.L74
 829              	.LBB204:
 830              		.loc 1 276 5 is_stmt 1 view .LVU238
 831              	.LVL80:
 832              		.loc 1 277 5 view .LVU239
 833              		.loc 1 277 14 is_stmt 0 view .LVU240
 834 0048 20F81350 		strh	r5, [r0, r3, lsl #1]	@ movhi
 835              		.loc 1 278 5 is_stmt 1 view .LVU241
 836              		.loc 1 278 20 is_stmt 0 view .LVU242
 837 004c 20F81240 		strh	r4, [r0, r2, lsl #1]	@ movhi
 838              		.loc 1 279 5 is_stmt 1 view .LVU243
 839              	.LVL81:
 840              		.loc 1 279 13 is_stmt 0 view .LVU244
 841 0050 4FF0010E 		mov	lr, #1
 842              	.LVL82:
 843              	.L74:
 844              		.loc 1 279 13 view .LVU245
 845              	.LBE204:
 846              		.loc 1 272 31 is_stmt 1 discriminator 2 view .LVU246
 847              		.loc 1 272 32 is_stmt 0 discriminator 2 view .LVU247
 848 0054 0133     		adds	r3, r3, #1
 849              	.LVL83:
 850              		.loc 1 272 32 discriminator 2 view .LVU248
 851 0056 9BB2     		uxth	r3, r3
 852              	.LVL84:
 853              		.loc 1 272 15 is_stmt 1 discriminator 2 view .LVU249
 854              		.loc 1 272 19 is_stmt 0 discriminator 2 view .LVU250
 855 0058 DA19     		adds	r2, r3, r7
ARM GAS  /tmp/cchqCFfA.s 			page 16


 856              		.loc 1 272 3 discriminator 2 view .LVU251
 857 005a 8A42     		cmp	r2, r1
 858 005c EDDB     		blt	.L75
 859              	.LVL85:
 860              		.loc 1 259 8 is_stmt 1 view .LVU252
 861 005e BCF1010F 		cmp	ip, #1
 862 0062 DDD8     		bhi	.L76
 863              	.LVL86:
 864              	.L87:
 865              		.loc 1 259 19 is_stmt 0 discriminator 1 view .LVU253
 866 0064 BEF1000F 		cmp	lr, #0
 867 0068 02D0     		beq	.L71
 868              		.loc 1 270 3 is_stmt 1 view .LVU254
 869              	.LVL87:
 870              		.loc 1 272 3 view .LVU255
 871              		.loc 1 272 15 view .LVU256
 872              		.loc 1 272 3 is_stmt 0 view .LVU257
 873 006a 8C45     		cmp	ip, r1
 874              		.loc 1 272 19 view .LVU258
 875 006c 6746     		mov	r7, ip
 876              		.loc 1 272 3 view .LVU259
 877 006e E1DB     		blt	.L79
 878              	.LVL88:
 879              	.L71:
 880              		.loc 1 283 1 view .LVU260
 881 0070 064B     		ldr	r3, .L89
 882 0072 1A68     		ldr	r2, [r3]
 883 0074 019B     		ldr	r3, [sp, #4]
 884 0076 5A40     		eors	r2, r3, r2
 885 0078 05D1     		bne	.L88
 886 007a 02B0     		add	sp, sp, #8
 887              		.cfi_remember_state
 888              		.cfi_def_cfa_offset 24
 889              		@ sp needed
 890 007c BDE8F081 		pop	{r4, r5, r6, r7, r8, pc}
 891              	.LVL89:
 892              	.L73:
 893              		.cfi_restore_state
 894              		.loc 1 259 8 is_stmt 1 view .LVU261
 895 0080 012B     		cmp	r3, #1
 896 0082 CDD1     		bne	.L76
 897 0084 F4E7     		b	.L71
 898              	.LVL90:
 899              	.L88:
 900              		.loc 1 283 1 is_stmt 0 view .LVU262
 901 0086 FFF7FEFF 		bl	__stack_chk_fail
 902              	.LVL91:
 903              	.L90:
 904              		.loc 1 283 1 view .LVU263
 905 008a 00BF     		.align	2
 906              	.L89:
 907 008c 00000000 		.word	.LC5
 908 0090 CDCCCCCC 		.word	-858993459
 909              		.cfi_endproc
 910              	.LFE5:
 911              		.size	aseba_comb_sort, .-aseba_comb_sort
 912              		.section	.rodata.AsebaNative_veccopy.cst4,"aM",%progbits,4
ARM GAS  /tmp/cchqCFfA.s 			page 17


 913              		.align	2
 914              	.LC6:
 915 0000 00000000 		.word	__stack_chk_guard
 916              		.section	.text.AsebaNative_veccopy,"ax",%progbits
 917              		.align	1
 918              		.p2align 4,,15
 919              		.global	AsebaNative_veccopy
 920              		.syntax unified
 921              		.thumb
 922              		.thumb_func
 923              		.fpu fpv4-sp-d16
 924              		.type	AsebaNative_veccopy, %function
 925              	AsebaNative_veccopy:
 926              	.LVL92:
 927              	.LFB6:
 928              		.loc 1 289 1 is_stmt 1 view -0
 929              		.cfi_startproc
 930              		@ args = 0, pretend = 0, frame = 8
 931              		@ frame_needed = 0, uses_anonymous_args = 0
 932              		.loc 1 289 1 is_stmt 0 view .LVU265
 933 0000 70B5     		push	{r4, r5, r6, lr}
 934              		.cfi_def_cfa_offset 16
 935              		.cfi_offset 4, -16
 936              		.cfi_offset 5, -12
 937              		.cfi_offset 6, -8
 938              		.cfi_offset 14, -4
 939              	.LBB205:
 940              	.LBB206:
 941              		.file 2 ".//aseba/vm/natives.h"
 942              		.loc 2 90 21 view .LVU266
 943 0002 B0F91C20 		ldrsh	r2, [r0, #28]
 944              	.LBE206:
 945              	.LBE205:
 946              		.loc 1 289 1 view .LVU267
 947 0006 174B     		ldr	r3, .L101
 948              		.loc 1 291 16 view .LVU268
 949 0008 4569     		ldr	r5, [r0, #20]
 950              		.loc 1 289 1 view .LVU269
 951 000a 82B0     		sub	sp, sp, #8
 952              		.cfi_def_cfa_offset 24
 953              		.loc 1 289 1 view .LVU270
 954 000c 1B68     		ldr	r3, [r3]
 955 000e 0193     		str	r3, [sp, #4]
 956 0010 4FF00003 		mov	r3,#0
 957              		.loc 1 291 2 is_stmt 1 view .LVU271
 958              	.LBB209:
 959              	.LBI205:
 960              		.loc 2 88 22 view .LVU272
 961              	.LVL93:
 962              	.LBB207:
 963              		.loc 2 90 2 view .LVU273
 964              		.loc 2 90 25 is_stmt 0 view .LVU274
 965 0014 93B2     		uxth	r3, r2
 966 0016 5C1E     		subs	r4, r3, #1
 967 0018 24B2     		sxth	r4, r4
 968              	.LBE207:
 969              	.LBE209:
ARM GAS  /tmp/cchqCFfA.s 			page 18


 970              	.LBB210:
 971              	.LBB211:
 972 001a 991E     		subs	r1, r3, #2
 973              	.LBE211:
 974              	.LBE210:
 975              	.LBB214:
 976              	.LBB208:
 977 001c 8483     		strh	r4, [r0, #28]	@ movhi
 978              	.LBE208:
 979              	.LBE214:
 980              	.LBB215:
 981              	.LBB212:
 982 001e 09B2     		sxth	r1, r1
 983              	.LBE212:
 984              	.LBE215:
 985              		.loc 1 291 9 view .LVU275
 986 0020 35F81260 		ldrh	r6, [r5, r2, lsl #1]
 987              	.LVL94:
 988              		.loc 1 292 2 is_stmt 1 view .LVU276
 989              	.LBB216:
 990              	.LBI210:
 991              		.loc 2 88 22 view .LVU277
 992              	.LBB213:
 993              		.loc 2 90 2 view .LVU278
 994              		.loc 2 90 25 is_stmt 0 view .LVU279
 995 0024 8183     		strh	r1, [r0, #28]	@ movhi
 996              	.LBE213:
 997              	.LBE216:
 998              	.LBB217:
 999              	.LBB218:
 1000 0026 DA1E     		subs	r2, r3, #3
 1001              	.LBE218:
 1002              	.LBE217:
 1003              		.loc 1 292 9 view .LVU280
 1004 0028 35F81430 		ldrh	r3, [r5, r4, lsl #1]
 1005              	.LVL95:
 1006              		.loc 1 295 2 is_stmt 1 view .LVU281
 1007              	.LBB220:
 1008              	.LBI217:
 1009              		.loc 2 88 22 view .LVU282
 1010              	.LBB219:
 1011              		.loc 2 90 2 view .LVU283
 1012              		.loc 2 90 25 is_stmt 0 view .LVU284
 1013 002c 8283     		strh	r2, [r0, #28]	@ movhi
 1014              	.LBE219:
 1015              	.LBE220:
 1016              		.loc 1 295 9 view .LVU285
 1017 002e 35F81150 		ldrh	r5, [r5, r1, lsl #1]
 1018              	.LVL96:
 1019              		.loc 1 297 2 is_stmt 1 view .LVU286
 1020              		.loc 1 299 2 view .LVU287
 1021              		.loc 1 299 14 view .LVU288
 1022              		.loc 1 299 2 is_stmt 0 view .LVU289
 1023 0032 6DB1     		cbz	r5, .L91
 1024 0034 1D44     		add	r5, r5, r3
 1025              	.LVL97:
 1026              		.loc 1 299 2 view .LVU290
ARM GAS  /tmp/cchqCFfA.s 			page 19


 1027 0036 ADB2     		uxth	r5, r5
 1028 0038 F61A     		subs	r6, r6, r3
 1029              	.LVL98:
 1030              	.L93:
 1031              		.loc 1 301 29 discriminator 3 view .LVU291
 1032 003a C168     		ldr	r1, [r0, #12]
 1033 003c 9A19     		adds	r2, r3, r6
 1034 003e 92B2     		uxth	r2, r2
 1035              	.LVL99:
 1036              		.loc 1 301 3 is_stmt 1 discriminator 3 view .LVU292
 1037              		.loc 1 301 44 is_stmt 0 discriminator 3 view .LVU293
 1038 0040 5C1C     		adds	r4, r3, #1
 1039              		.loc 1 301 40 discriminator 3 view .LVU294
 1040 0042 31F91330 		ldrsh	r3, [r1, r3, lsl #1]
 1041              	.LVL100:
 1042              		.loc 1 301 25 discriminator 3 view .LVU295
 1043 0046 21F81230 		strh	r3, [r1, r2, lsl #1]	@ movhi
 1044              		.loc 1 301 44 discriminator 3 view .LVU296
 1045 004a A3B2     		uxth	r3, r4
 1046              	.LVL101:
 1047              		.loc 1 299 26 is_stmt 1 discriminator 3 view .LVU297
 1048              		.loc 1 299 14 discriminator 3 view .LVU298
 1049              		.loc 1 299 2 is_stmt 0 discriminator 3 view .LVU299
 1050 004c AB42     		cmp	r3, r5
 1051 004e F4D1     		bne	.L93
 1052              	.L91:
 1053              		.loc 1 303 1 view .LVU300
 1054 0050 044B     		ldr	r3, .L101
 1055              	.LVL102:
 1056              		.loc 1 303 1 view .LVU301
 1057 0052 1A68     		ldr	r2, [r3]
 1058 0054 019B     		ldr	r3, [sp, #4]
 1059 0056 5A40     		eors	r2, r3, r2
 1060 0058 01D1     		bne	.L100
 1061 005a 02B0     		add	sp, sp, #8
 1062              		.cfi_remember_state
 1063              		.cfi_def_cfa_offset 16
 1064              		@ sp needed
 1065 005c 70BD     		pop	{r4, r5, r6, pc}
 1066              	.L100:
 1067              		.cfi_restore_state
 1068 005e FFF7FEFF 		bl	__stack_chk_fail
 1069              	.LVL103:
 1070              	.L102:
 1071              		.loc 1 303 1 view .LVU302
 1072 0062 00BF     		.align	2
 1073              	.L101:
 1074 0064 00000000 		.word	.LC6
 1075              		.cfi_endproc
 1076              	.LFE6:
 1077              		.size	AsebaNative_veccopy, .-AsebaNative_veccopy
 1078              		.section	.rodata.AsebaNative_vecfill.cst4,"aM",%progbits,4
 1079              		.align	2
 1080              	.LC7:
 1081 0000 00000000 		.word	__stack_chk_guard
 1082              		.section	.text.AsebaNative_vecfill,"ax",%progbits
 1083              		.align	1
ARM GAS  /tmp/cchqCFfA.s 			page 20


 1084              		.p2align 4,,15
 1085              		.global	AsebaNative_vecfill
 1086              		.syntax unified
 1087              		.thumb
 1088              		.thumb_func
 1089              		.fpu fpv4-sp-d16
 1090              		.type	AsebaNative_vecfill, %function
 1091              	AsebaNative_vecfill:
 1092              	.LVL104:
 1093              	.LFB7:
 1094              		.loc 1 318 1 is_stmt 1 view -0
 1095              		.cfi_startproc
 1096              		@ args = 0, pretend = 0, frame = 8
 1097              		@ frame_needed = 0, uses_anonymous_args = 0
 1098              		.loc 1 318 1 is_stmt 0 view .LVU304
 1099 0000 70B5     		push	{r4, r5, r6, lr}
 1100              		.cfi_def_cfa_offset 16
 1101              		.cfi_offset 4, -16
 1102              		.cfi_offset 5, -12
 1103              		.cfi_offset 6, -8
 1104              		.cfi_offset 14, -4
 1105 0002 164B     		ldr	r3, .L113
 1106              		.loc 1 320 16 view .LVU305
 1107 0004 4569     		ldr	r5, [r0, #20]
 1108              		.loc 1 318 1 view .LVU306
 1109 0006 82B0     		sub	sp, sp, #8
 1110              		.cfi_def_cfa_offset 24
 1111              		.loc 1 318 1 view .LVU307
 1112 0008 1B68     		ldr	r3, [r3]
 1113 000a 0193     		str	r3, [sp, #4]
 1114 000c 4FF00003 		mov	r3,#0
 1115              		.loc 1 320 2 is_stmt 1 view .LVU308
 1116              	.LBB221:
 1117              	.LBI221:
 1118              		.loc 2 88 22 view .LVU309
 1119              	.LVL105:
 1120              	.LBB222:
 1121              		.loc 2 90 2 view .LVU310
 1122              		.loc 2 90 21 is_stmt 0 view .LVU311
 1123 0010 B0F91C30 		ldrsh	r3, [r0, #28]
 1124              		.loc 2 90 25 view .LVU312
 1125 0014 9AB2     		uxth	r2, r3
 1126 0016 541E     		subs	r4, r2, #1
 1127 0018 24B2     		sxth	r4, r4
 1128              	.LBE222:
 1129              	.LBE221:
 1130              	.LBB224:
 1131              	.LBB225:
 1132 001a 911E     		subs	r1, r2, #2
 1133              	.LBE225:
 1134              	.LBE224:
 1135              	.LBB228:
 1136              	.LBB223:
 1137 001c 8483     		strh	r4, [r0, #28]	@ movhi
 1138              	.LBE223:
 1139              	.LBE228:
 1140              	.LBB229:
ARM GAS  /tmp/cchqCFfA.s 			page 21


 1141              	.LBB226:
 1142 001e 09B2     		sxth	r1, r1
 1143              	.LBE226:
 1144              	.LBE229:
 1145              		.loc 1 320 9 view .LVU313
 1146 0020 35F81330 		ldrh	r3, [r5, r3, lsl #1]
 1147              	.LVL106:
 1148              		.loc 1 321 2 is_stmt 1 view .LVU314
 1149              	.LBB230:
 1150              	.LBI224:
 1151              		.loc 2 88 22 view .LVU315
 1152              	.LBB227:
 1153              		.loc 2 90 2 view .LVU316
 1154              		.loc 2 90 25 is_stmt 0 view .LVU317
 1155 0024 8183     		strh	r1, [r0, #28]	@ movhi
 1156              	.LBE227:
 1157              	.LBE230:
 1158              	.LBB231:
 1159              	.LBB232:
 1160 0026 033A     		subs	r2, r2, #3
 1161              	.LBE232:
 1162              	.LBE231:
 1163              		.loc 1 321 9 view .LVU318
 1164 0028 35F81460 		ldrh	r6, [r5, r4, lsl #1]
 1165              	.LVL107:
 1166              		.loc 1 324 2 is_stmt 1 view .LVU319
 1167              	.LBB234:
 1168              	.LBI231:
 1169              		.loc 2 88 22 view .LVU320
 1170              	.LBB233:
 1171              		.loc 2 90 2 view .LVU321
 1172              		.loc 2 90 25 is_stmt 0 view .LVU322
 1173 002c 8283     		strh	r2, [r0, #28]	@ movhi
 1174              	.LBE233:
 1175              	.LBE234:
 1176              		.loc 1 324 9 view .LVU323
 1177 002e 35F81150 		ldrh	r5, [r5, r1, lsl #1]
 1178              	.LVL108:
 1179              		.loc 1 326 2 is_stmt 1 view .LVU324
 1180              		.loc 1 328 2 view .LVU325
 1181              		.loc 1 328 14 view .LVU326
 1182              		.loc 1 328 2 is_stmt 0 view .LVU327
 1183 0032 55B1     		cbz	r5, .L103
 1184 0034 1D44     		add	r5, r5, r3
 1185              	.LVL109:
 1186              		.loc 1 328 2 view .LVU328
 1187 0036 ADB2     		uxth	r5, r5
 1188              		.loc 1 330 40 view .LVU329
 1189 0038 7600     		lsls	r6, r6, #1
 1190              	.LVL110:
 1191              	.L105:
 1192              		.loc 1 330 3 is_stmt 1 discriminator 3 view .LVU330
 1193              		.loc 1 330 29 is_stmt 0 discriminator 3 view .LVU331
 1194 003a C268     		ldr	r2, [r0, #12]
 1195              		.loc 1 330 21 discriminator 3 view .LVU332
 1196 003c 591C     		adds	r1, r3, #1
 1197              		.loc 1 330 40 discriminator 3 view .LVU333
ARM GAS  /tmp/cchqCFfA.s 			page 22


 1198 003e 945F     		ldrsh	r4, [r2, r6]
 1199              		.loc 1 330 25 discriminator 3 view .LVU334
 1200 0040 22F81340 		strh	r4, [r2, r3, lsl #1]	@ movhi
 1201              		.loc 1 330 21 discriminator 3 view .LVU335
 1202 0044 8BB2     		uxth	r3, r1
 1203              	.LVL111:
 1204              		.loc 1 328 26 is_stmt 1 discriminator 3 view .LVU336
 1205              		.loc 1 328 14 discriminator 3 view .LVU337
 1206              		.loc 1 328 2 is_stmt 0 discriminator 3 view .LVU338
 1207 0046 AB42     		cmp	r3, r5
 1208 0048 F7D1     		bne	.L105
 1209              	.L103:
 1210              		.loc 1 332 1 view .LVU339
 1211 004a 044B     		ldr	r3, .L113
 1212              	.LVL112:
 1213              		.loc 1 332 1 view .LVU340
 1214 004c 1A68     		ldr	r2, [r3]
 1215 004e 019B     		ldr	r3, [sp, #4]
 1216 0050 5A40     		eors	r2, r3, r2
 1217 0052 01D1     		bne	.L112
 1218 0054 02B0     		add	sp, sp, #8
 1219              		.cfi_remember_state
 1220              		.cfi_def_cfa_offset 16
 1221              		@ sp needed
 1222 0056 70BD     		pop	{r4, r5, r6, pc}
 1223              	.L112:
 1224              		.cfi_restore_state
 1225 0058 FFF7FEFF 		bl	__stack_chk_fail
 1226              	.LVL113:
 1227              	.L114:
 1228              		.loc 1 332 1 view .LVU341
 1229              		.align	2
 1230              	.L113:
 1231 005c 00000000 		.word	.LC7
 1232              		.cfi_endproc
 1233              	.LFE7:
 1234              		.size	AsebaNative_vecfill, .-AsebaNative_vecfill
 1235              		.section	.rodata.AsebaNative_vecaddscalar.cst4,"aM",%progbits,4
 1236              		.align	2
 1237              	.LC8:
 1238 0000 00000000 		.word	__stack_chk_guard
 1239              		.section	.text.AsebaNative_vecaddscalar,"ax",%progbits
 1240              		.align	1
 1241              		.p2align 4,,15
 1242              		.global	AsebaNative_vecaddscalar
 1243              		.syntax unified
 1244              		.thumb
 1245              		.thumb_func
 1246              		.fpu fpv4-sp-d16
 1247              		.type	AsebaNative_vecaddscalar, %function
 1248              	AsebaNative_vecaddscalar:
 1249              	.LVL114:
 1250              	.LFB8:
 1251              		.loc 1 347 1 is_stmt 1 view -0
 1252              		.cfi_startproc
 1253              		@ args = 0, pretend = 0, frame = 8
 1254              		@ frame_needed = 0, uses_anonymous_args = 0
ARM GAS  /tmp/cchqCFfA.s 			page 23


 1255              		.loc 1 347 1 is_stmt 0 view .LVU343
 1256 0000 F0B5     		push	{r4, r5, r6, r7, lr}
 1257              		.cfi_def_cfa_offset 20
 1258              		.cfi_offset 4, -20
 1259              		.cfi_offset 5, -16
 1260              		.cfi_offset 6, -12
 1261              		.cfi_offset 7, -8
 1262              		.cfi_offset 14, -4
 1263              	.LBB235:
 1264              	.LBB236:
 1265              		.loc 2 90 21 view .LVU344
 1266 0002 B0F91C70 		ldrsh	r7, [r0, #28]
 1267              	.LBE236:
 1268              	.LBE235:
 1269              		.loc 1 347 1 view .LVU345
 1270 0006 1C4B     		ldr	r3, .L125
 1271              		.loc 1 349 16 view .LVU346
 1272 0008 4169     		ldr	r1, [r0, #20]
 1273              		.loc 1 356 31 view .LVU347
 1274 000a C468     		ldr	r4, [r0, #12]
 1275              	.LBB240:
 1276              	.LBB237:
 1277              		.loc 2 90 25 view .LVU348
 1278 000c BAB2     		uxth	r2, r7
 1279              	.LBE237:
 1280              	.LBE240:
 1281              		.loc 1 347 1 view .LVU349
 1282 000e 83B0     		sub	sp, sp, #12
 1283              		.cfi_def_cfa_offset 32
 1284              		.loc 1 347 1 view .LVU350
 1285 0010 1B68     		ldr	r3, [r3]
 1286 0012 0193     		str	r3, [sp, #4]
 1287 0014 4FF00003 		mov	r3,#0
 1288              		.loc 1 349 2 is_stmt 1 view .LVU351
 1289              	.LBB241:
 1290              	.LBI235:
 1291              		.loc 2 88 22 view .LVU352
 1292              	.LVL115:
 1293              	.LBB238:
 1294              		.loc 2 90 2 view .LVU353
 1295              		.loc 2 90 25 is_stmt 0 view .LVU354
 1296 0018 531E     		subs	r3, r2, #1
 1297 001a 1BB2     		sxth	r3, r3
 1298              	.LBE238:
 1299              	.LBE241:
 1300              	.LBB242:
 1301              	.LBB243:
 1302 001c 961E     		subs	r6, r2, #2
 1303              	.LBE243:
 1304              	.LBE242:
 1305              	.LBB246:
 1306              	.LBB239:
 1307 001e 8383     		strh	r3, [r0, #28]	@ movhi
 1308              	.LBE239:
 1309              	.LBE246:
 1310              	.LBB247:
 1311              	.LBB244:
ARM GAS  /tmp/cchqCFfA.s 			page 24


 1312 0020 36B2     		sxth	r6, r6
 1313              	.LBE244:
 1314              	.LBE247:
 1315              	.LBB248:
 1316              	.LBB249:
 1317 0022 D51E     		subs	r5, r2, #3
 1318              	.LBE249:
 1319              	.LBE248:
 1320              		.loc 1 349 9 view .LVU355
 1321 0024 31F81770 		ldrh	r7, [r1, r7, lsl #1]
 1322              	.LVL116:
 1323              		.loc 1 350 2 is_stmt 1 view .LVU356
 1324              	.LBB252:
 1325              	.LBI242:
 1326              		.loc 2 88 22 view .LVU357
 1327              	.LBB245:
 1328              		.loc 2 90 2 view .LVU358
 1329              		.loc 2 90 25 is_stmt 0 view .LVU359
 1330 0028 8683     		strh	r6, [r0, #28]	@ movhi
 1331              	.LBE245:
 1332              	.LBE252:
 1333              	.LBB253:
 1334              	.LBB250:
 1335 002a 2DB2     		sxth	r5, r5
 1336              	.LBE250:
 1337              	.LBE253:
 1338              		.loc 1 350 9 view .LVU360
 1339 002c 31F81330 		ldrh	r3, [r1, r3, lsl #1]
 1340              	.LVL117:
 1341              		.loc 1 351 2 is_stmt 1 view .LVU361
 1342              	.LBB254:
 1343              	.LBI248:
 1344              		.loc 2 88 22 view .LVU362
 1345              	.LBB251:
 1346              		.loc 2 90 2 view .LVU363
 1347              		.loc 2 90 25 is_stmt 0 view .LVU364
 1348 0030 8583     		strh	r5, [r0, #28]	@ movhi
 1349              	.LBE251:
 1350              	.LBE254:
 1351              	.LBB255:
 1352              	.LBB256:
 1353 0032 043A     		subs	r2, r2, #4
 1354              	.LBE256:
 1355              	.LBE255:
 1356              		.loc 1 351 9 view .LVU365
 1357 0034 31F81660 		ldrh	r6, [r1, r6, lsl #1]
 1358              	.LVL118:
 1359              		.loc 1 354 2 is_stmt 1 view .LVU366
 1360              	.LBB258:
 1361              	.LBI255:
 1362              		.loc 2 88 22 view .LVU367
 1363              	.LBB257:
 1364              		.loc 2 90 2 view .LVU368
 1365              		.loc 2 90 25 is_stmt 0 view .LVU369
 1366 0038 8283     		strh	r2, [r0, #28]	@ movhi
 1367              	.LBE257:
 1368              	.LBE258:
ARM GAS  /tmp/cchqCFfA.s 			page 25


 1369              		.loc 1 354 9 view .LVU370
 1370 003a 31F81550 		ldrh	r5, [r1, r5, lsl #1]
 1371              	.LVL119:
 1372              		.loc 1 356 2 is_stmt 1 view .LVU371
 1373              		.loc 1 356 15 is_stmt 0 view .LVU372
 1374 003e 34F91660 		ldrsh	r6, [r4, r6, lsl #1]
 1375              	.LVL120:
 1376              		.loc 1 357 2 is_stmt 1 view .LVU373
 1377              		.loc 1 358 2 view .LVU374
 1378              		.loc 1 358 14 view .LVU375
 1379              		.loc 1 358 2 is_stmt 0 view .LVU376
 1380 0042 85B1     		cbz	r5, .L115
 1381 0044 1D44     		add	r5, r5, r3
 1382              	.LVL121:
 1383              		.loc 1 358 2 view .LVU377
 1384 0046 ADB2     		uxth	r5, r5
 1385 0048 FF1A     		subs	r7, r7, r3
 1386              	.LVL122:
 1387              		.loc 1 358 2 view .LVU378
 1388 004a B6B2     		uxth	r6, r6
 1389              		.loc 1 358 2 view .LVU379
 1390 004c 00E0     		b	.L117
 1391              	.LVL123:
 1392              	.L123:
 1393              		.loc 1 358 2 view .LVU380
 1394 004e C468     		ldr	r4, [r0, #12]
 1395              	.LVL124:
 1396              	.L117:
 1397              		.loc 1 360 3 is_stmt 1 discriminator 3 view .LVU381
 1398              		.loc 1 360 48 is_stmt 0 discriminator 3 view .LVU382
 1399 0050 34F81310 		ldrh	r1, [r4, r3, lsl #1]
 1400              		.loc 1 360 21 discriminator 3 view .LVU383
 1401 0054 DA19     		adds	r2, r3, r7
 1402              		.loc 1 360 44 discriminator 3 view .LVU384
 1403 0056 0133     		adds	r3, r3, #1
 1404              	.LVL125:
 1405              		.loc 1 360 21 discriminator 3 view .LVU385
 1406 0058 92B2     		uxth	r2, r2
 1407              		.loc 1 360 44 discriminator 3 view .LVU386
 1408 005a 9BB2     		uxth	r3, r3
 1409              	.LVL126:
 1410              		.loc 1 360 48 discriminator 3 view .LVU387
 1411 005c 3144     		add	r1, r1, r6
 1412              		.loc 1 358 2 discriminator 3 view .LVU388
 1413 005e AB42     		cmp	r3, r5
 1414              		.loc 1 360 25 discriminator 3 view .LVU389
 1415 0060 24F81210 		strh	r1, [r4, r2, lsl #1]	@ movhi
 1416              		.loc 1 358 26 is_stmt 1 discriminator 3 view .LVU390
 1417              		.loc 1 358 14 discriminator 3 view .LVU391
 1418              		.loc 1 358 2 is_stmt 0 discriminator 3 view .LVU392
 1419 0064 F3D1     		bne	.L123
 1420              	.LVL127:
 1421              	.L115:
 1422              		.loc 1 362 1 view .LVU393
 1423 0066 044B     		ldr	r3, .L125
 1424 0068 1A68     		ldr	r2, [r3]
 1425 006a 019B     		ldr	r3, [sp, #4]
ARM GAS  /tmp/cchqCFfA.s 			page 26


 1426 006c 5A40     		eors	r2, r3, r2
 1427 006e 01D1     		bne	.L124
 1428 0070 03B0     		add	sp, sp, #12
 1429              		.cfi_remember_state
 1430              		.cfi_def_cfa_offset 20
 1431              		@ sp needed
 1432 0072 F0BD     		pop	{r4, r5, r6, r7, pc}
 1433              	.L124:
 1434              		.cfi_restore_state
 1435 0074 FFF7FEFF 		bl	__stack_chk_fail
 1436              	.LVL128:
 1437              	.L126:
 1438              		.loc 1 362 1 view .LVU394
 1439              		.align	2
 1440              	.L125:
 1441 0078 00000000 		.word	.LC8
 1442              		.cfi_endproc
 1443              	.LFE8:
 1444              		.size	AsebaNative_vecaddscalar, .-AsebaNative_vecaddscalar
 1445              		.section	.rodata.AsebaNative_vecadd.cst4,"aM",%progbits,4
 1446              		.align	2
 1447              	.LC9:
 1448 0000 00000000 		.word	__stack_chk_guard
 1449              		.section	.text.AsebaNative_vecadd,"ax",%progbits
 1450              		.align	1
 1451              		.p2align 4,,15
 1452              		.global	AsebaNative_vecadd
 1453              		.syntax unified
 1454              		.thumb
 1455              		.thumb_func
 1456              		.fpu fpv4-sp-d16
 1457              		.type	AsebaNative_vecadd, %function
 1458              	AsebaNative_vecadd:
 1459              	.LVL129:
 1460              	.LFB9:
 1461              		.loc 1 378 1 is_stmt 1 view -0
 1462              		.cfi_startproc
 1463              		@ args = 0, pretend = 0, frame = 8
 1464              		@ frame_needed = 0, uses_anonymous_args = 0
 1465              		.loc 1 378 1 is_stmt 0 view .LVU396
 1466 0000 F0B5     		push	{r4, r5, r6, r7, lr}
 1467              		.cfi_def_cfa_offset 20
 1468              		.cfi_offset 4, -20
 1469              		.cfi_offset 5, -16
 1470              		.cfi_offset 6, -12
 1471              		.cfi_offset 7, -8
 1472              		.cfi_offset 14, -4
 1473              	.LBB259:
 1474              	.LBB260:
 1475              		.loc 2 90 21 view .LVU397
 1476 0002 B0F91C60 		ldrsh	r6, [r0, #28]
 1477              	.LBE260:
 1478              	.LBE259:
 1479              		.loc 1 378 1 view .LVU398
 1480 0006 1C4B     		ldr	r3, .L137
 1481              		.loc 1 380 16 view .LVU399
 1482 0008 4169     		ldr	r1, [r0, #20]
ARM GAS  /tmp/cchqCFfA.s 			page 27


 1483              	.LBB264:
 1484              	.LBB261:
 1485              		.loc 2 90 25 view .LVU400
 1486 000a B2B2     		uxth	r2, r6
 1487              	.LBE261:
 1488              	.LBE264:
 1489              		.loc 1 378 1 view .LVU401
 1490 000c 83B0     		sub	sp, sp, #12
 1491              		.cfi_def_cfa_offset 32
 1492              		.loc 1 378 1 view .LVU402
 1493 000e 1B68     		ldr	r3, [r3]
 1494 0010 0193     		str	r3, [sp, #4]
 1495 0012 4FF00003 		mov	r3,#0
 1496              		.loc 1 380 2 is_stmt 1 view .LVU403
 1497              	.LBB265:
 1498              	.LBI259:
 1499              		.loc 2 88 22 view .LVU404
 1500              	.LVL130:
 1501              	.LBB262:
 1502              		.loc 2 90 2 view .LVU405
 1503              		.loc 2 90 25 is_stmt 0 view .LVU406
 1504 0016 531E     		subs	r3, r2, #1
 1505 0018 1BB2     		sxth	r3, r3
 1506              	.LBE262:
 1507              	.LBE265:
 1508              	.LBB266:
 1509              	.LBB267:
 1510 001a 951E     		subs	r5, r2, #2
 1511              	.LBE267:
 1512              	.LBE266:
 1513              	.LBB270:
 1514              	.LBB263:
 1515 001c 8383     		strh	r3, [r0, #28]	@ movhi
 1516              	.LBE263:
 1517              	.LBE270:
 1518              	.LBB271:
 1519              	.LBB268:
 1520 001e 2DB2     		sxth	r5, r5
 1521              	.LBE268:
 1522              	.LBE271:
 1523              	.LBB272:
 1524              	.LBB273:
 1525 0020 D41E     		subs	r4, r2, #3
 1526              	.LBE273:
 1527              	.LBE272:
 1528              		.loc 1 380 9 view .LVU407
 1529 0022 31F81670 		ldrh	r7, [r1, r6, lsl #1]
 1530              	.LVL131:
 1531              		.loc 1 381 2 is_stmt 1 view .LVU408
 1532              	.LBB276:
 1533              	.LBI266:
 1534              		.loc 2 88 22 view .LVU409
 1535              	.LBB269:
 1536              		.loc 2 90 2 view .LVU410
 1537              		.loc 2 90 25 is_stmt 0 view .LVU411
 1538 0026 8583     		strh	r5, [r0, #28]	@ movhi
 1539              	.LBE269:
ARM GAS  /tmp/cchqCFfA.s 			page 28


 1540              	.LBE276:
 1541              	.LBB277:
 1542              	.LBB274:
 1543 0028 24B2     		sxth	r4, r4
 1544              	.LBE274:
 1545              	.LBE277:
 1546              		.loc 1 381 9 view .LVU412
 1547 002a 31F81330 		ldrh	r3, [r1, r3, lsl #1]
 1548              	.LVL132:
 1549              		.loc 1 382 2 is_stmt 1 view .LVU413
 1550              	.LBB278:
 1551              	.LBI272:
 1552              		.loc 2 88 22 view .LVU414
 1553              	.LBB275:
 1554              		.loc 2 90 2 view .LVU415
 1555              		.loc 2 90 25 is_stmt 0 view .LVU416
 1556 002e 8483     		strh	r4, [r0, #28]	@ movhi
 1557              	.LBE275:
 1558              	.LBE278:
 1559              	.LBB279:
 1560              	.LBB280:
 1561 0030 043A     		subs	r2, r2, #4
 1562              	.LBE280:
 1563              	.LBE279:
 1564              		.loc 1 382 9 view .LVU417
 1565 0032 31F81560 		ldrh	r6, [r1, r5, lsl #1]
 1566              	.LVL133:
 1567              		.loc 1 385 2 is_stmt 1 view .LVU418
 1568              	.LBB282:
 1569              	.LBI279:
 1570              		.loc 2 88 22 view .LVU419
 1571              	.LBB281:
 1572              		.loc 2 90 2 view .LVU420
 1573              		.loc 2 90 25 is_stmt 0 view .LVU421
 1574 0036 8283     		strh	r2, [r0, #28]	@ movhi
 1575              	.LBE281:
 1576              	.LBE282:
 1577              		.loc 1 385 9 view .LVU422
 1578 0038 31F81450 		ldrh	r5, [r1, r4, lsl #1]
 1579              	.LVL134:
 1580              		.loc 1 387 2 is_stmt 1 view .LVU423
 1581              		.loc 1 388 2 view .LVU424
 1582              		.loc 1 388 14 view .LVU425
 1583              		.loc 1 388 2 is_stmt 0 view .LVU426
 1584 003c 9DB1     		cbz	r5, .L127
 1585 003e 1D44     		add	r5, r5, r3
 1586              	.LVL135:
 1587              		.loc 1 388 2 view .LVU427
 1588 0040 ADB2     		uxth	r5, r5
 1589 0042 FF1A     		subs	r7, r7, r3
 1590              	.LVL136:
 1591              		.loc 1 388 2 view .LVU428
 1592 0044 F61A     		subs	r6, r6, r3
 1593              	.LVL137:
 1594              	.L129:
 1595              		.loc 1 388 2 view .LVU429
 1596 0046 9919     		adds	r1, r3, r6
ARM GAS  /tmp/cchqCFfA.s 			page 29


 1597              		.loc 1 390 29 discriminator 3 view .LVU430
 1598 0048 C268     		ldr	r2, [r0, #12]
 1599 004a 89B2     		uxth	r1, r1
 1600              	.LVL138:
 1601              		.loc 1 390 49 discriminator 3 view .LVU431
 1602 004c 32F81340 		ldrh	r4, [r2, r3, lsl #1]
 1603 0050 32F811C0 		ldrh	ip, [r2, r1, lsl #1]
 1604 0054 D919     		adds	r1, r3, r7
 1605              	.LVL139:
 1606              		.loc 1 390 45 discriminator 3 view .LVU432
 1607 0056 0133     		adds	r3, r3, #1
 1608              	.LVL140:
 1609              		.loc 1 390 45 discriminator 3 view .LVU433
 1610 0058 89B2     		uxth	r1, r1
 1611              	.LVL141:
 1612              		.loc 1 390 3 is_stmt 1 discriminator 3 view .LVU434
 1613              		.loc 1 390 45 is_stmt 0 discriminator 3 view .LVU435
 1614 005a 9BB2     		uxth	r3, r3
 1615              	.LVL142:
 1616              		.loc 1 390 49 discriminator 3 view .LVU436
 1617 005c 6444     		add	r4, r4, ip
 1618              		.loc 1 388 2 discriminator 3 view .LVU437
 1619 005e AB42     		cmp	r3, r5
 1620              		.loc 1 390 25 discriminator 3 view .LVU438
 1621 0060 22F81140 		strh	r4, [r2, r1, lsl #1]	@ movhi
 1622              		.loc 1 388 26 is_stmt 1 discriminator 3 view .LVU439
 1623              		.loc 1 388 14 discriminator 3 view .LVU440
 1624              		.loc 1 388 2 is_stmt 0 discriminator 3 view .LVU441
 1625 0064 EFD1     		bne	.L129
 1626              	.L127:
 1627              		.loc 1 392 1 view .LVU442
 1628 0066 044B     		ldr	r3, .L137
 1629              	.LVL143:
 1630              		.loc 1 392 1 view .LVU443
 1631 0068 1A68     		ldr	r2, [r3]
 1632 006a 019B     		ldr	r3, [sp, #4]
 1633 006c 5A40     		eors	r2, r3, r2
 1634 006e 01D1     		bne	.L136
 1635 0070 03B0     		add	sp, sp, #12
 1636              		.cfi_remember_state
 1637              		.cfi_def_cfa_offset 20
 1638              		@ sp needed
 1639 0072 F0BD     		pop	{r4, r5, r6, r7, pc}
 1640              	.L136:
 1641              		.cfi_restore_state
 1642 0074 FFF7FEFF 		bl	__stack_chk_fail
 1643              	.LVL144:
 1644              	.L138:
 1645              		.loc 1 392 1 view .LVU444
 1646              		.align	2
 1647              	.L137:
 1648 0078 00000000 		.word	.LC9
 1649              		.cfi_endproc
 1650              	.LFE9:
 1651              		.size	AsebaNative_vecadd, .-AsebaNative_vecadd
 1652              		.section	.rodata.AsebaNative_vecsub.cst4,"aM",%progbits,4
 1653              		.align	2
ARM GAS  /tmp/cchqCFfA.s 			page 30


 1654              	.LC10:
 1655 0000 00000000 		.word	__stack_chk_guard
 1656              		.section	.text.AsebaNative_vecsub,"ax",%progbits
 1657              		.align	1
 1658              		.p2align 4,,15
 1659              		.global	AsebaNative_vecsub
 1660              		.syntax unified
 1661              		.thumb
 1662              		.thumb_func
 1663              		.fpu fpv4-sp-d16
 1664              		.type	AsebaNative_vecsub, %function
 1665              	AsebaNative_vecsub:
 1666              	.LVL145:
 1667              	.LFB10:
 1668              		.loc 1 408 1 is_stmt 1 view -0
 1669              		.cfi_startproc
 1670              		@ args = 0, pretend = 0, frame = 8
 1671              		@ frame_needed = 0, uses_anonymous_args = 0
 1672              		.loc 1 408 1 is_stmt 0 view .LVU446
 1673 0000 F0B5     		push	{r4, r5, r6, r7, lr}
 1674              		.cfi_def_cfa_offset 20
 1675              		.cfi_offset 4, -20
 1676              		.cfi_offset 5, -16
 1677              		.cfi_offset 6, -12
 1678              		.cfi_offset 7, -8
 1679              		.cfi_offset 14, -4
 1680              	.LBB283:
 1681              	.LBB284:
 1682              		.loc 2 90 21 view .LVU447
 1683 0002 B0F91C60 		ldrsh	r6, [r0, #28]
 1684              	.LBE284:
 1685              	.LBE283:
 1686              		.loc 1 408 1 view .LVU448
 1687 0006 1D4B     		ldr	r3, .L149
 1688              		.loc 1 410 16 view .LVU449
 1689 0008 4169     		ldr	r1, [r0, #20]
 1690              	.LBB288:
 1691              	.LBB285:
 1692              		.loc 2 90 25 view .LVU450
 1693 000a B2B2     		uxth	r2, r6
 1694              	.LBE285:
 1695              	.LBE288:
 1696              		.loc 1 408 1 view .LVU451
 1697 000c 83B0     		sub	sp, sp, #12
 1698              		.cfi_def_cfa_offset 32
 1699              		.loc 1 408 1 view .LVU452
 1700 000e 1B68     		ldr	r3, [r3]
 1701 0010 0193     		str	r3, [sp, #4]
 1702 0012 4FF00003 		mov	r3,#0
 1703              		.loc 1 410 2 is_stmt 1 view .LVU453
 1704              	.LBB289:
 1705              	.LBI283:
 1706              		.loc 2 88 22 view .LVU454
 1707              	.LVL146:
 1708              	.LBB286:
 1709              		.loc 2 90 2 view .LVU455
 1710              		.loc 2 90 25 is_stmt 0 view .LVU456
ARM GAS  /tmp/cchqCFfA.s 			page 31


 1711 0016 531E     		subs	r3, r2, #1
 1712 0018 1BB2     		sxth	r3, r3
 1713              	.LBE286:
 1714              	.LBE289:
 1715              	.LBB290:
 1716              	.LBB291:
 1717 001a 951E     		subs	r5, r2, #2
 1718              	.LBE291:
 1719              	.LBE290:
 1720              	.LBB294:
 1721              	.LBB287:
 1722 001c 8383     		strh	r3, [r0, #28]	@ movhi
 1723              	.LBE287:
 1724              	.LBE294:
 1725              	.LBB295:
 1726              	.LBB292:
 1727 001e 2DB2     		sxth	r5, r5
 1728              	.LBE292:
 1729              	.LBE295:
 1730              	.LBB296:
 1731              	.LBB297:
 1732 0020 D41E     		subs	r4, r2, #3
 1733              	.LBE297:
 1734              	.LBE296:
 1735              		.loc 1 410 9 view .LVU457
 1736 0022 31F81670 		ldrh	r7, [r1, r6, lsl #1]
 1737              	.LVL147:
 1738              		.loc 1 411 2 is_stmt 1 view .LVU458
 1739              	.LBB300:
 1740              	.LBI290:
 1741              		.loc 2 88 22 view .LVU459
 1742              	.LBB293:
 1743              		.loc 2 90 2 view .LVU460
 1744              		.loc 2 90 25 is_stmt 0 view .LVU461
 1745 0026 8583     		strh	r5, [r0, #28]	@ movhi
 1746              	.LBE293:
 1747              	.LBE300:
 1748              	.LBB301:
 1749              	.LBB298:
 1750 0028 24B2     		sxth	r4, r4
 1751              	.LBE298:
 1752              	.LBE301:
 1753              		.loc 1 411 9 view .LVU462
 1754 002a 31F81330 		ldrh	r3, [r1, r3, lsl #1]
 1755              	.LVL148:
 1756              		.loc 1 412 2 is_stmt 1 view .LVU463
 1757              	.LBB302:
 1758              	.LBI296:
 1759              		.loc 2 88 22 view .LVU464
 1760              	.LBB299:
 1761              		.loc 2 90 2 view .LVU465
 1762              		.loc 2 90 25 is_stmt 0 view .LVU466
 1763 002e 8483     		strh	r4, [r0, #28]	@ movhi
 1764              	.LBE299:
 1765              	.LBE302:
 1766              	.LBB303:
 1767              	.LBB304:
ARM GAS  /tmp/cchqCFfA.s 			page 32


 1768 0030 043A     		subs	r2, r2, #4
 1769              	.LBE304:
 1770              	.LBE303:
 1771              		.loc 1 412 9 view .LVU467
 1772 0032 31F81560 		ldrh	r6, [r1, r5, lsl #1]
 1773              	.LVL149:
 1774              		.loc 1 415 2 is_stmt 1 view .LVU468
 1775              	.LBB306:
 1776              	.LBI303:
 1777              		.loc 2 88 22 view .LVU469
 1778              	.LBB305:
 1779              		.loc 2 90 2 view .LVU470
 1780              		.loc 2 90 25 is_stmt 0 view .LVU471
 1781 0036 8283     		strh	r2, [r0, #28]	@ movhi
 1782              	.LBE305:
 1783              	.LBE306:
 1784              		.loc 1 415 9 view .LVU472
 1785 0038 31F81450 		ldrh	r5, [r1, r4, lsl #1]
 1786              	.LVL150:
 1787              		.loc 1 417 2 is_stmt 1 view .LVU473
 1788              		.loc 1 418 2 view .LVU474
 1789              		.loc 1 418 14 view .LVU475
 1790              		.loc 1 418 2 is_stmt 0 view .LVU476
 1791 003c A5B1     		cbz	r5, .L139
 1792 003e 1D44     		add	r5, r5, r3
 1793              	.LVL151:
 1794              		.loc 1 418 2 view .LVU477
 1795 0040 ADB2     		uxth	r5, r5
 1796 0042 FF1A     		subs	r7, r7, r3
 1797              	.LVL152:
 1798              		.loc 1 418 2 view .LVU478
 1799 0044 F61A     		subs	r6, r6, r3
 1800              	.LVL153:
 1801              	.L141:
 1802              		.loc 1 418 2 view .LVU479
 1803 0046 9919     		adds	r1, r3, r6
 1804              		.loc 1 420 29 discriminator 3 view .LVU480
 1805 0048 C268     		ldr	r2, [r0, #12]
 1806 004a 89B2     		uxth	r1, r1
 1807              	.LVL154:
 1808              		.loc 1 420 49 discriminator 3 view .LVU481
 1809 004c 32F81340 		ldrh	r4, [r2, r3, lsl #1]
 1810 0050 32F811C0 		ldrh	ip, [r2, r1, lsl #1]
 1811 0054 D919     		adds	r1, r3, r7
 1812              	.LVL155:
 1813              		.loc 1 420 45 discriminator 3 view .LVU482
 1814 0056 0133     		adds	r3, r3, #1
 1815              	.LVL156:
 1816              		.loc 1 420 45 discriminator 3 view .LVU483
 1817 0058 89B2     		uxth	r1, r1
 1818              	.LVL157:
 1819              		.loc 1 420 3 is_stmt 1 discriminator 3 view .LVU484
 1820              		.loc 1 420 45 is_stmt 0 discriminator 3 view .LVU485
 1821 005a 9BB2     		uxth	r3, r3
 1822              	.LVL158:
 1823              		.loc 1 420 49 discriminator 3 view .LVU486
 1824 005c A4EB0C04 		sub	r4, r4, ip
ARM GAS  /tmp/cchqCFfA.s 			page 33


 1825              		.loc 1 418 2 discriminator 3 view .LVU487
 1826 0060 AB42     		cmp	r3, r5
 1827              		.loc 1 420 25 discriminator 3 view .LVU488
 1828 0062 22F81140 		strh	r4, [r2, r1, lsl #1]	@ movhi
 1829              		.loc 1 418 26 is_stmt 1 discriminator 3 view .LVU489
 1830              		.loc 1 418 14 discriminator 3 view .LVU490
 1831              		.loc 1 418 2 is_stmt 0 discriminator 3 view .LVU491
 1832 0066 EED1     		bne	.L141
 1833              	.L139:
 1834              		.loc 1 422 1 view .LVU492
 1835 0068 044B     		ldr	r3, .L149
 1836              	.LVL159:
 1837              		.loc 1 422 1 view .LVU493
 1838 006a 1A68     		ldr	r2, [r3]
 1839 006c 019B     		ldr	r3, [sp, #4]
 1840 006e 5A40     		eors	r2, r3, r2
 1841 0070 01D1     		bne	.L148
 1842 0072 03B0     		add	sp, sp, #12
 1843              		.cfi_remember_state
 1844              		.cfi_def_cfa_offset 20
 1845              		@ sp needed
 1846 0074 F0BD     		pop	{r4, r5, r6, r7, pc}
 1847              	.L148:
 1848              		.cfi_restore_state
 1849 0076 FFF7FEFF 		bl	__stack_chk_fail
 1850              	.LVL160:
 1851              	.L150:
 1852              		.loc 1 422 1 view .LVU494
 1853 007a 00BF     		.align	2
 1854              	.L149:
 1855 007c 00000000 		.word	.LC10
 1856              		.cfi_endproc
 1857              	.LFE10:
 1858              		.size	AsebaNative_vecsub, .-AsebaNative_vecsub
 1859              		.section	.rodata.AsebaNative_vecmul.cst4,"aM",%progbits,4
 1860              		.align	2
 1861              	.LC11:
 1862 0000 00000000 		.word	__stack_chk_guard
 1863              		.section	.text.AsebaNative_vecmul,"ax",%progbits
 1864              		.align	1
 1865              		.p2align 4,,15
 1866              		.global	AsebaNative_vecmul
 1867              		.syntax unified
 1868              		.thumb
 1869              		.thumb_func
 1870              		.fpu fpv4-sp-d16
 1871              		.type	AsebaNative_vecmul, %function
 1872              	AsebaNative_vecmul:
 1873              	.LVL161:
 1874              	.LFB11:
 1875              		.loc 1 438 1 is_stmt 1 view -0
 1876              		.cfi_startproc
 1877              		@ args = 0, pretend = 0, frame = 8
 1878              		@ frame_needed = 0, uses_anonymous_args = 0
 1879              		.loc 1 438 1 is_stmt 0 view .LVU496
 1880 0000 F0B5     		push	{r4, r5, r6, r7, lr}
 1881              		.cfi_def_cfa_offset 20
ARM GAS  /tmp/cchqCFfA.s 			page 34


 1882              		.cfi_offset 4, -20
 1883              		.cfi_offset 5, -16
 1884              		.cfi_offset 6, -12
 1885              		.cfi_offset 7, -8
 1886              		.cfi_offset 14, -4
 1887              	.LBB307:
 1888              	.LBB308:
 1889              		.loc 2 90 21 view .LVU497
 1890 0002 B0F91C60 		ldrsh	r6, [r0, #28]
 1891              	.LBE308:
 1892              	.LBE307:
 1893              		.loc 1 438 1 view .LVU498
 1894 0006 1D4B     		ldr	r3, .L161
 1895              		.loc 1 440 16 view .LVU499
 1896 0008 4169     		ldr	r1, [r0, #20]
 1897              	.LBB312:
 1898              	.LBB309:
 1899              		.loc 2 90 25 view .LVU500
 1900 000a B2B2     		uxth	r2, r6
 1901              	.LBE309:
 1902              	.LBE312:
 1903              		.loc 1 438 1 view .LVU501
 1904 000c 83B0     		sub	sp, sp, #12
 1905              		.cfi_def_cfa_offset 32
 1906              		.loc 1 438 1 view .LVU502
 1907 000e 1B68     		ldr	r3, [r3]
 1908 0010 0193     		str	r3, [sp, #4]
 1909 0012 4FF00003 		mov	r3,#0
 1910              		.loc 1 440 2 is_stmt 1 view .LVU503
 1911              	.LBB313:
 1912              	.LBI307:
 1913              		.loc 2 88 22 view .LVU504
 1914              	.LVL162:
 1915              	.LBB310:
 1916              		.loc 2 90 2 view .LVU505
 1917              		.loc 2 90 25 is_stmt 0 view .LVU506
 1918 0016 531E     		subs	r3, r2, #1
 1919 0018 1BB2     		sxth	r3, r3
 1920              	.LBE310:
 1921              	.LBE313:
 1922              	.LBB314:
 1923              	.LBB315:
 1924 001a 951E     		subs	r5, r2, #2
 1925              	.LBE315:
 1926              	.LBE314:
 1927              	.LBB318:
 1928              	.LBB311:
 1929 001c 8383     		strh	r3, [r0, #28]	@ movhi
 1930              	.LBE311:
 1931              	.LBE318:
 1932              	.LBB319:
 1933              	.LBB316:
 1934 001e 2DB2     		sxth	r5, r5
 1935              	.LBE316:
 1936              	.LBE319:
 1937              	.LBB320:
 1938              	.LBB321:
ARM GAS  /tmp/cchqCFfA.s 			page 35


 1939 0020 D41E     		subs	r4, r2, #3
 1940              	.LBE321:
 1941              	.LBE320:
 1942              		.loc 1 440 9 view .LVU507
 1943 0022 31F81670 		ldrh	r7, [r1, r6, lsl #1]
 1944              	.LVL163:
 1945              		.loc 1 441 2 is_stmt 1 view .LVU508
 1946              	.LBB324:
 1947              	.LBI314:
 1948              		.loc 2 88 22 view .LVU509
 1949              	.LBB317:
 1950              		.loc 2 90 2 view .LVU510
 1951              		.loc 2 90 25 is_stmt 0 view .LVU511
 1952 0026 8583     		strh	r5, [r0, #28]	@ movhi
 1953              	.LBE317:
 1954              	.LBE324:
 1955              	.LBB325:
 1956              	.LBB322:
 1957 0028 24B2     		sxth	r4, r4
 1958              	.LBE322:
 1959              	.LBE325:
 1960              		.loc 1 441 9 view .LVU512
 1961 002a 31F81330 		ldrh	r3, [r1, r3, lsl #1]
 1962              	.LVL164:
 1963              		.loc 1 442 2 is_stmt 1 view .LVU513
 1964              	.LBB326:
 1965              	.LBI320:
 1966              		.loc 2 88 22 view .LVU514
 1967              	.LBB323:
 1968              		.loc 2 90 2 view .LVU515
 1969              		.loc 2 90 25 is_stmt 0 view .LVU516
 1970 002e 8483     		strh	r4, [r0, #28]	@ movhi
 1971              	.LBE323:
 1972              	.LBE326:
 1973              	.LBB327:
 1974              	.LBB328:
 1975 0030 043A     		subs	r2, r2, #4
 1976              	.LBE328:
 1977              	.LBE327:
 1978              		.loc 1 442 9 view .LVU517
 1979 0032 31F81560 		ldrh	r6, [r1, r5, lsl #1]
 1980              	.LVL165:
 1981              		.loc 1 445 2 is_stmt 1 view .LVU518
 1982              	.LBB330:
 1983              	.LBI327:
 1984              		.loc 2 88 22 view .LVU519
 1985              	.LBB329:
 1986              		.loc 2 90 2 view .LVU520
 1987              		.loc 2 90 25 is_stmt 0 view .LVU521
 1988 0036 8283     		strh	r2, [r0, #28]	@ movhi
 1989              	.LBE329:
 1990              	.LBE330:
 1991              		.loc 1 445 9 view .LVU522
 1992 0038 31F81450 		ldrh	r5, [r1, r4, lsl #1]
 1993              	.LVL166:
 1994              		.loc 1 447 2 is_stmt 1 view .LVU523
 1995              		.loc 1 448 2 view .LVU524
ARM GAS  /tmp/cchqCFfA.s 			page 36


 1996              		.loc 1 448 14 view .LVU525
 1997              		.loc 1 448 2 is_stmt 0 view .LVU526
 1998 003c A5B1     		cbz	r5, .L151
 1999 003e 1D44     		add	r5, r5, r3
 2000              	.LVL167:
 2001              		.loc 1 448 2 view .LVU527
 2002 0040 ADB2     		uxth	r5, r5
 2003 0042 FF1A     		subs	r7, r7, r3
 2004              	.LVL168:
 2005              		.loc 1 448 2 view .LVU528
 2006 0044 F61A     		subs	r6, r6, r3
 2007              	.LVL169:
 2008              	.L153:
 2009              		.loc 1 448 2 view .LVU529
 2010 0046 9919     		adds	r1, r3, r6
 2011              		.loc 1 450 29 discriminator 3 view .LVU530
 2012 0048 C268     		ldr	r2, [r0, #12]
 2013 004a 89B2     		uxth	r1, r1
 2014              	.LVL170:
 2015              		.loc 1 450 49 discriminator 3 view .LVU531
 2016 004c 32F81340 		ldrh	r4, [r2, r3, lsl #1]
 2017 0050 32F811C0 		ldrh	ip, [r2, r1, lsl #1]
 2018 0054 D919     		adds	r1, r3, r7
 2019              	.LVL171:
 2020              		.loc 1 450 45 discriminator 3 view .LVU532
 2021 0056 0133     		adds	r3, r3, #1
 2022              	.LVL172:
 2023              		.loc 1 450 45 discriminator 3 view .LVU533
 2024 0058 89B2     		uxth	r1, r1
 2025              	.LVL173:
 2026              		.loc 1 450 3 is_stmt 1 discriminator 3 view .LVU534
 2027              		.loc 1 450 45 is_stmt 0 discriminator 3 view .LVU535
 2028 005a 9BB2     		uxth	r3, r3
 2029              	.LVL174:
 2030              		.loc 1 450 49 discriminator 3 view .LVU536
 2031 005c 14FB0CF4 		smulbb	r4, r4, ip
 2032              		.loc 1 448 2 discriminator 3 view .LVU537
 2033 0060 AB42     		cmp	r3, r5
 2034              		.loc 1 450 25 discriminator 3 view .LVU538
 2035 0062 22F81140 		strh	r4, [r2, r1, lsl #1]	@ movhi
 2036              		.loc 1 448 26 is_stmt 1 discriminator 3 view .LVU539
 2037              		.loc 1 448 14 discriminator 3 view .LVU540
 2038              		.loc 1 448 2 is_stmt 0 discriminator 3 view .LVU541
 2039 0066 EED1     		bne	.L153
 2040              	.L151:
 2041              		.loc 1 452 1 view .LVU542
 2042 0068 044B     		ldr	r3, .L161
 2043              	.LVL175:
 2044              		.loc 1 452 1 view .LVU543
 2045 006a 1A68     		ldr	r2, [r3]
 2046 006c 019B     		ldr	r3, [sp, #4]
 2047 006e 5A40     		eors	r2, r3, r2
 2048 0070 01D1     		bne	.L160
 2049 0072 03B0     		add	sp, sp, #12
 2050              		.cfi_remember_state
 2051              		.cfi_def_cfa_offset 20
 2052              		@ sp needed
ARM GAS  /tmp/cchqCFfA.s 			page 37


 2053 0074 F0BD     		pop	{r4, r5, r6, r7, pc}
 2054              	.L160:
 2055              		.cfi_restore_state
 2056 0076 FFF7FEFF 		bl	__stack_chk_fail
 2057              	.LVL176:
 2058              	.L162:
 2059              		.loc 1 452 1 view .LVU544
 2060 007a 00BF     		.align	2
 2061              	.L161:
 2062 007c 00000000 		.word	.LC11
 2063              		.cfi_endproc
 2064              	.LFE11:
 2065              		.size	AsebaNative_vecmul, .-AsebaNative_vecmul
 2066              		.section	.rodata.AsebaNative_vecdiv.cst4,"aM",%progbits,4
 2067              		.align	2
 2068              	.LC12:
 2069 0000 00000000 		.word	__stack_chk_guard
 2070              		.section	.text.AsebaNative_vecdiv,"ax",%progbits
 2071              		.align	1
 2072              		.p2align 4,,15
 2073              		.global	AsebaNative_vecdiv
 2074              		.syntax unified
 2075              		.thumb
 2076              		.thumb_func
 2077              		.fpu fpv4-sp-d16
 2078              		.type	AsebaNative_vecdiv, %function
 2079              	AsebaNative_vecdiv:
 2080              	.LVL177:
 2081              	.LFB12:
 2082              		.loc 1 468 1 is_stmt 1 view -0
 2083              		.cfi_startproc
 2084              		@ args = 0, pretend = 0, frame = 8
 2085              		@ frame_needed = 0, uses_anonymous_args = 0
 2086              		.loc 1 468 1 is_stmt 0 view .LVU546
 2087 0000 F0B5     		push	{r4, r5, r6, r7, lr}
 2088              		.cfi_def_cfa_offset 20
 2089              		.cfi_offset 4, -20
 2090              		.cfi_offset 5, -16
 2091              		.cfi_offset 6, -12
 2092              		.cfi_offset 7, -8
 2093              		.cfi_offset 14, -4
 2094              	.LBB331:
 2095              	.LBB332:
 2096              		.loc 2 90 21 view .LVU547
 2097 0002 B0F91C60 		ldrsh	r6, [r0, #28]
 2098              	.LBE332:
 2099              	.LBE331:
 2100              		.loc 1 468 1 view .LVU548
 2101 0006 274B     		ldr	r3, .L175
 2102              		.loc 1 470 16 view .LVU549
 2103 0008 4169     		ldr	r1, [r0, #20]
 2104              	.LBB336:
 2105              	.LBB333:
 2106              		.loc 2 90 25 view .LVU550
 2107 000a B2B2     		uxth	r2, r6
 2108              	.LBE333:
 2109              	.LBE336:
ARM GAS  /tmp/cchqCFfA.s 			page 38


 2110              		.loc 1 468 1 view .LVU551
 2111 000c 83B0     		sub	sp, sp, #12
 2112              		.cfi_def_cfa_offset 32
 2113              		.loc 1 468 1 view .LVU552
 2114 000e 1B68     		ldr	r3, [r3]
 2115 0010 0193     		str	r3, [sp, #4]
 2116 0012 4FF00003 		mov	r3,#0
 2117              		.loc 1 470 2 is_stmt 1 view .LVU553
 2118              	.LBB337:
 2119              	.LBI331:
 2120              		.loc 2 88 22 view .LVU554
 2121              	.LVL178:
 2122              	.LBB334:
 2123              		.loc 2 90 2 view .LVU555
 2124              		.loc 2 90 25 is_stmt 0 view .LVU556
 2125 0016 531E     		subs	r3, r2, #1
 2126 0018 1BB2     		sxth	r3, r3
 2127              	.LBE334:
 2128              	.LBE337:
 2129              	.LBB338:
 2130              	.LBB339:
 2131 001a 951E     		subs	r5, r2, #2
 2132              	.LBE339:
 2133              	.LBE338:
 2134              	.LBB342:
 2135              	.LBB335:
 2136 001c 8383     		strh	r3, [r0, #28]	@ movhi
 2137              	.LBE335:
 2138              	.LBE342:
 2139              	.LBB343:
 2140              	.LBB340:
 2141 001e 2DB2     		sxth	r5, r5
 2142              	.LBE340:
 2143              	.LBE343:
 2144              	.LBB344:
 2145              	.LBB345:
 2146 0020 D41E     		subs	r4, r2, #3
 2147              	.LBE345:
 2148              	.LBE344:
 2149              		.loc 1 470 9 view .LVU557
 2150 0022 31F81670 		ldrh	r7, [r1, r6, lsl #1]
 2151              	.LVL179:
 2152              		.loc 1 471 2 is_stmt 1 view .LVU558
 2153              	.LBB348:
 2154              	.LBI338:
 2155              		.loc 2 88 22 view .LVU559
 2156              	.LBB341:
 2157              		.loc 2 90 2 view .LVU560
 2158              		.loc 2 90 25 is_stmt 0 view .LVU561
 2159 0026 8583     		strh	r5, [r0, #28]	@ movhi
 2160              	.LBE341:
 2161              	.LBE348:
 2162              	.LBB349:
 2163              	.LBB346:
 2164 0028 24B2     		sxth	r4, r4
 2165              	.LBE346:
 2166              	.LBE349:
ARM GAS  /tmp/cchqCFfA.s 			page 39


 2167              		.loc 1 471 9 view .LVU562
 2168 002a 31F81330 		ldrh	r3, [r1, r3, lsl #1]
 2169              	.LVL180:
 2170              		.loc 1 472 2 is_stmt 1 view .LVU563
 2171              	.LBB350:
 2172              	.LBI344:
 2173              		.loc 2 88 22 view .LVU564
 2174              	.LBB347:
 2175              		.loc 2 90 2 view .LVU565
 2176              		.loc 2 90 25 is_stmt 0 view .LVU566
 2177 002e 8483     		strh	r4, [r0, #28]	@ movhi
 2178              	.LBE347:
 2179              	.LBE350:
 2180              	.LBB351:
 2181              	.LBB352:
 2182 0030 043A     		subs	r2, r2, #4
 2183              	.LBE352:
 2184              	.LBE351:
 2185              		.loc 1 472 9 view .LVU567
 2186 0032 31F81560 		ldrh	r6, [r1, r5, lsl #1]
 2187              	.LVL181:
 2188              		.loc 1 475 2 is_stmt 1 view .LVU568
 2189              	.LBB354:
 2190              	.LBI351:
 2191              		.loc 2 88 22 view .LVU569
 2192              	.LBB353:
 2193              		.loc 2 90 2 view .LVU570
 2194              		.loc 2 90 25 is_stmt 0 view .LVU571
 2195 0036 8283     		strh	r2, [r0, #28]	@ movhi
 2196              	.LBE353:
 2197              	.LBE354:
 2198              		.loc 1 475 9 view .LVU572
 2199 0038 31F81450 		ldrh	r5, [r1, r4, lsl #1]
 2200              	.LVL182:
 2201              		.loc 1 477 2 is_stmt 1 view .LVU573
 2202              		.loc 1 478 2 view .LVU574
 2203              		.loc 1 478 14 view .LVU575
 2204              		.loc 1 478 2 is_stmt 0 view .LVU576
 2205 003c 45B3     		cbz	r5, .L163
 2206 003e 1D44     		add	r5, r5, r3
 2207              	.LVL183:
 2208              		.loc 1 478 2 view .LVU577
 2209 0040 ADB2     		uxth	r5, r5
 2210 0042 FF1A     		subs	r7, r7, r3
 2211              	.LVL184:
 2212              		.loc 1 478 2 view .LVU578
 2213 0044 F61A     		subs	r6, r6, r3
 2214              	.LVL185:
 2215              		.loc 1 478 2 view .LVU579
 2216 0046 05E0     		b	.L167
 2217              	.LVL186:
 2218              	.L174:
 2219              	.LBB355:
 2220              		.loc 1 485 4 is_stmt 1 view .LVU580
 2221              		.loc 1 485 4 is_stmt 0 view .LVU581
 2222              	.LBE355:
 2223              		.loc 1 478 2 view .LVU582
ARM GAS  /tmp/cchqCFfA.s 			page 40


 2224 0048 AB42     		cmp	r3, r5
 2225              	.LBB356:
 2226              		.loc 1 485 46 view .LVU583
 2227 004a 94FBFCF4 		sdiv	r4, r4, ip
 2228              	.LVL187:
 2229              		.loc 1 485 28 view .LVU584
 2230 004e 21F81240 		strh	r4, [r1, r2, lsl #1]	@ movhi
 2231              		.loc 1 485 28 view .LVU585
 2232              	.LBE356:
 2233              		.loc 1 478 26 is_stmt 1 view .LVU586
 2234              		.loc 1 478 14 view .LVU587
 2235              		.loc 1 478 2 is_stmt 0 view .LVU588
 2236 0052 1DD0     		beq	.L163
 2237              	.LVL188:
 2238              	.L167:
 2239              		.loc 1 478 2 view .LVU589
 2240 0054 9A19     		adds	r2, r3, r6
 2241              	.LBB357:
 2242              		.loc 1 480 31 view .LVU590
 2243 0056 C168     		ldr	r1, [r0, #12]
 2244 0058 92B2     		uxth	r2, r2
 2245              	.LVL189:
 2246              		.loc 1 480 10 view .LVU591
 2247 005a 31F91340 		ldrsh	r4, [r1, r3, lsl #1]
 2248              		.loc 1 481 10 view .LVU592
 2249 005e 31F912C0 		ldrsh	ip, [r1, r2, lsl #1]
 2250 0062 DA19     		adds	r2, r3, r7
 2251              	.LVL190:
 2252              		.loc 1 480 47 view .LVU593
 2253 0064 0133     		adds	r3, r3, #1
 2254              	.LVL191:
 2255              		.loc 1 480 47 view .LVU594
 2256 0066 92B2     		uxth	r2, r2
 2257              	.LVL192:
 2258              		.loc 1 480 3 is_stmt 1 view .LVU595
 2259              		.loc 1 480 47 is_stmt 0 view .LVU596
 2260 0068 9BB2     		uxth	r3, r3
 2261              	.LVL193:
 2262              		.loc 1 481 3 is_stmt 1 view .LVU597
 2263              		.loc 1 483 3 view .LVU598
 2264              		.loc 1 483 6 is_stmt 0 view .LVU599
 2265 006a BCF1000F 		cmp	ip, #0
 2266 006e EBD1     		bne	.L174
 2267              		.loc 1 489 4 is_stmt 1 view .LVU600
 2268              		.loc 1 490 4 is_stmt 0 view .LVU601
 2269 0070 0C4A     		ldr	r2, .L175
 2270              	.LVL194:
 2271              		.loc 1 489 14 view .LVU602
 2272 0072 0223     		movs	r3, #2
 2273              	.LVL195:
 2274              		.loc 1 489 14 view .LVU603
 2275 0074 0383     		strh	r3, [r0, #24]	@ movhi
 2276              		.loc 1 490 4 is_stmt 1 view .LVU604
 2277 0076 1168     		ldr	r1, [r2]
 2278 0078 019A     		ldr	r2, [sp, #4]
 2279 007a 5140     		eors	r1, r2, r1
 2280 007c 0FD1     		bne	.L173
ARM GAS  /tmp/cchqCFfA.s 			page 41


 2281 007e 00F11A02 		add	r2, r0, #26
 2282 0082 49F20701 		movw	r1, #36871
 2283              	.LBE357:
 2284              		.loc 1 494 1 is_stmt 0 view .LVU605
 2285 0086 03B0     		add	sp, sp, #12
 2286              		.cfi_remember_state
 2287              		.cfi_def_cfa_offset 20
 2288              		@ sp needed
 2289 0088 BDE8F040 		pop	{r4, r5, r6, r7, lr}
 2290              		.cfi_restore 14
 2291              		.cfi_restore 7
 2292              		.cfi_restore 6
 2293              		.cfi_restore 5
 2294              		.cfi_restore 4
 2295              		.cfi_def_cfa_offset 0
 2296              	.LVL196:
 2297              	.LBB358:
 2298              		.loc 1 490 4 view .LVU606
 2299 008c FFF7FEBF 		b	AsebaSendMessage
 2300              	.LVL197:
 2301              	.L163:
 2302              		.cfi_restore_state
 2303              		.loc 1 490 4 view .LVU607
 2304              	.LBE358:
 2305              		.loc 1 494 1 view .LVU608
 2306 0090 044B     		ldr	r3, .L175
 2307              	.LVL198:
 2308              		.loc 1 494 1 view .LVU609
 2309 0092 1A68     		ldr	r2, [r3]
 2310 0094 019B     		ldr	r3, [sp, #4]
 2311 0096 5A40     		eors	r2, r3, r2
 2312 0098 01D1     		bne	.L173
 2313 009a 03B0     		add	sp, sp, #12
 2314              		.cfi_remember_state
 2315              		.cfi_def_cfa_offset 20
 2316              		@ sp needed
 2317 009c F0BD     		pop	{r4, r5, r6, r7, pc}
 2318              	.L173:
 2319              		.cfi_restore_state
 2320              		.loc 1 494 1 view .LVU610
 2321 009e FFF7FEFF 		bl	__stack_chk_fail
 2322              	.LVL199:
 2323              	.L176:
 2324              		.loc 1 494 1 view .LVU611
 2325 00a2 00BF     		.align	2
 2326              	.L175:
 2327 00a4 00000000 		.word	.LC12
 2328              		.cfi_endproc
 2329              	.LFE12:
 2330              		.size	AsebaNative_vecdiv, .-AsebaNative_vecdiv
 2331              		.section	.rodata.AsebaNative_vecmin.cst4,"aM",%progbits,4
 2332              		.align	2
 2333              	.LC13:
 2334 0000 00000000 		.word	__stack_chk_guard
 2335              		.section	.text.AsebaNative_vecmin,"ax",%progbits
 2336              		.align	1
 2337              		.p2align 4,,15
ARM GAS  /tmp/cchqCFfA.s 			page 42


 2338              		.global	AsebaNative_vecmin
 2339              		.syntax unified
 2340              		.thumb
 2341              		.thumb_func
 2342              		.fpu fpv4-sp-d16
 2343              		.type	AsebaNative_vecmin, %function
 2344              	AsebaNative_vecmin:
 2345              	.LVL200:
 2346              	.LFB13:
 2347              		.loc 1 510 1 is_stmt 1 view -0
 2348              		.cfi_startproc
 2349              		@ args = 0, pretend = 0, frame = 8
 2350              		@ frame_needed = 0, uses_anonymous_args = 0
 2351              		.loc 1 510 1 is_stmt 0 view .LVU613
 2352 0000 F0B5     		push	{r4, r5, r6, r7, lr}
 2353              		.cfi_def_cfa_offset 20
 2354              		.cfi_offset 4, -20
 2355              		.cfi_offset 5, -16
 2356              		.cfi_offset 6, -12
 2357              		.cfi_offset 7, -8
 2358              		.cfi_offset 14, -4
 2359              	.LBB359:
 2360              	.LBB360:
 2361              		.loc 2 90 21 view .LVU614
 2362 0002 B0F91C60 		ldrsh	r6, [r0, #28]
 2363              	.LBE360:
 2364              	.LBE359:
 2365              		.loc 1 510 1 view .LVU615
 2366 0006 1D4B     		ldr	r3, .L187
 2367              		.loc 1 512 16 view .LVU616
 2368 0008 4169     		ldr	r1, [r0, #20]
 2369              	.LBB364:
 2370              	.LBB361:
 2371              		.loc 2 90 25 view .LVU617
 2372 000a B2B2     		uxth	r2, r6
 2373              	.LBE361:
 2374              	.LBE364:
 2375              		.loc 1 510 1 view .LVU618
 2376 000c 83B0     		sub	sp, sp, #12
 2377              		.cfi_def_cfa_offset 32
 2378              		.loc 1 510 1 view .LVU619
 2379 000e 1B68     		ldr	r3, [r3]
 2380 0010 0193     		str	r3, [sp, #4]
 2381 0012 4FF00003 		mov	r3,#0
 2382              		.loc 1 512 2 is_stmt 1 view .LVU620
 2383              	.LBB365:
 2384              	.LBI359:
 2385              		.loc 2 88 22 view .LVU621
 2386              	.LVL201:
 2387              	.LBB362:
 2388              		.loc 2 90 2 view .LVU622
 2389              		.loc 2 90 25 is_stmt 0 view .LVU623
 2390 0016 531E     		subs	r3, r2, #1
 2391 0018 1BB2     		sxth	r3, r3
 2392              	.LBE362:
 2393              	.LBE365:
 2394              	.LBB366:
ARM GAS  /tmp/cchqCFfA.s 			page 43


 2395              	.LBB367:
 2396 001a 951E     		subs	r5, r2, #2
 2397              	.LBE367:
 2398              	.LBE366:
 2399              	.LBB370:
 2400              	.LBB363:
 2401 001c 8383     		strh	r3, [r0, #28]	@ movhi
 2402              	.LBE363:
 2403              	.LBE370:
 2404              	.LBB371:
 2405              	.LBB368:
 2406 001e 2DB2     		sxth	r5, r5
 2407              	.LBE368:
 2408              	.LBE371:
 2409              	.LBB372:
 2410              	.LBB373:
 2411 0020 D41E     		subs	r4, r2, #3
 2412              	.LBE373:
 2413              	.LBE372:
 2414              		.loc 1 512 9 view .LVU624
 2415 0022 31F81670 		ldrh	r7, [r1, r6, lsl #1]
 2416              	.LVL202:
 2417              		.loc 1 513 2 is_stmt 1 view .LVU625
 2418              	.LBB376:
 2419              	.LBI366:
 2420              		.loc 2 88 22 view .LVU626
 2421              	.LBB369:
 2422              		.loc 2 90 2 view .LVU627
 2423              		.loc 2 90 25 is_stmt 0 view .LVU628
 2424 0026 8583     		strh	r5, [r0, #28]	@ movhi
 2425              	.LBE369:
 2426              	.LBE376:
 2427              	.LBB377:
 2428              	.LBB374:
 2429 0028 24B2     		sxth	r4, r4
 2430              	.LBE374:
 2431              	.LBE377:
 2432              		.loc 1 513 9 view .LVU629
 2433 002a 31F81330 		ldrh	r3, [r1, r3, lsl #1]
 2434              	.LVL203:
 2435              		.loc 1 514 2 is_stmt 1 view .LVU630
 2436              	.LBB378:
 2437              	.LBI372:
 2438              		.loc 2 88 22 view .LVU631
 2439              	.LBB375:
 2440              		.loc 2 90 2 view .LVU632
 2441              		.loc 2 90 25 is_stmt 0 view .LVU633
 2442 002e 8483     		strh	r4, [r0, #28]	@ movhi
 2443              	.LBE375:
 2444              	.LBE378:
 2445              	.LBB379:
 2446              	.LBB380:
 2447 0030 043A     		subs	r2, r2, #4
 2448              	.LBE380:
 2449              	.LBE379:
 2450              		.loc 1 514 9 view .LVU634
 2451 0032 31F81560 		ldrh	r6, [r1, r5, lsl #1]
ARM GAS  /tmp/cchqCFfA.s 			page 44


 2452              	.LVL204:
 2453              		.loc 1 517 2 is_stmt 1 view .LVU635
 2454              	.LBB382:
 2455              	.LBI379:
 2456              		.loc 2 88 22 view .LVU636
 2457              	.LBB381:
 2458              		.loc 2 90 2 view .LVU637
 2459              		.loc 2 90 25 is_stmt 0 view .LVU638
 2460 0036 8283     		strh	r2, [r0, #28]	@ movhi
 2461              	.LBE381:
 2462              	.LBE382:
 2463              		.loc 1 517 9 view .LVU639
 2464 0038 31F81450 		ldrh	r5, [r1, r4, lsl #1]
 2465              	.LVL205:
 2466              		.loc 1 519 2 is_stmt 1 view .LVU640
 2467              		.loc 1 520 2 view .LVU641
 2468              		.loc 1 520 14 view .LVU642
 2469              		.loc 1 520 2 is_stmt 0 view .LVU643
 2470 003c ADB1     		cbz	r5, .L177
 2471 003e 1D44     		add	r5, r5, r3
 2472              	.LVL206:
 2473              		.loc 1 520 2 view .LVU644
 2474 0040 ADB2     		uxth	r5, r5
 2475 0042 FF1A     		subs	r7, r7, r3
 2476              	.LVL207:
 2477              		.loc 1 520 2 view .LVU645
 2478 0044 F61A     		subs	r6, r6, r3
 2479              	.LVL208:
 2480              	.L179:
 2481              		.loc 1 520 2 view .LVU646
 2482 0046 9919     		adds	r1, r3, r6
 2483              	.LBB383:
 2484              		.loc 1 522 17 discriminator 3 view .LVU647
 2485 0048 C268     		ldr	r2, [r0, #12]
 2486 004a 89B2     		uxth	r1, r1
 2487              	.LVL209:
 2488              		.loc 1 524 10 discriminator 3 view .LVU648
 2489 004c 32F91340 		ldrsh	r4, [r2, r3, lsl #1]
 2490 0050 32F911C0 		ldrsh	ip, [r2, r1, lsl #1]
 2491 0054 D919     		adds	r1, r3, r7
 2492              	.LVL210:
 2493              		.loc 1 522 33 discriminator 3 view .LVU649
 2494 0056 0133     		adds	r3, r3, #1
 2495              	.LVL211:
 2496              		.loc 1 524 10 discriminator 3 view .LVU650
 2497 0058 6445     		cmp	r4, ip
 2498 005a 89B2     		uxth	r1, r1
 2499              	.LVL212:
 2500              		.loc 1 522 3 is_stmt 1 discriminator 3 view .LVU651
 2501              		.loc 1 522 33 is_stmt 0 discriminator 3 view .LVU652
 2502 005c 9BB2     		uxth	r3, r3
 2503              	.LVL213:
 2504              		.loc 1 523 3 is_stmt 1 discriminator 3 view .LVU653
 2505              		.loc 1 524 3 discriminator 3 view .LVU654
 2506              		.loc 1 525 3 discriminator 3 view .LVU655
 2507              		.loc 1 524 10 is_stmt 0 discriminator 3 view .LVU656
 2508 005e A8BF     		it	ge
ARM GAS  /tmp/cchqCFfA.s 			page 45


 2509 0060 6446     		movge	r4, ip
 2510              	.LBE383:
 2511              		.loc 1 520 2 discriminator 3 view .LVU657
 2512 0062 AB42     		cmp	r3, r5
 2513              	.LBB384:
 2514              		.loc 1 525 25 discriminator 3 view .LVU658
 2515 0064 22F81140 		strh	r4, [r2, r1, lsl #1]	@ movhi
 2516              		.loc 1 525 25 discriminator 3 view .LVU659
 2517              	.LBE384:
 2518              		.loc 1 520 26 is_stmt 1 discriminator 3 view .LVU660
 2519              		.loc 1 520 14 discriminator 3 view .LVU661
 2520              		.loc 1 520 2 is_stmt 0 discriminator 3 view .LVU662
 2521 0068 EDD1     		bne	.L179
 2522              	.L177:
 2523              		.loc 1 527 1 view .LVU663
 2524 006a 044B     		ldr	r3, .L187
 2525              	.LVL214:
 2526              		.loc 1 527 1 view .LVU664
 2527 006c 1A68     		ldr	r2, [r3]
 2528 006e 019B     		ldr	r3, [sp, #4]
 2529 0070 5A40     		eors	r2, r3, r2
 2530 0072 01D1     		bne	.L186
 2531 0074 03B0     		add	sp, sp, #12
 2532              		.cfi_remember_state
 2533              		.cfi_def_cfa_offset 20
 2534              		@ sp needed
 2535 0076 F0BD     		pop	{r4, r5, r6, r7, pc}
 2536              	.L186:
 2537              		.cfi_restore_state
 2538 0078 FFF7FEFF 		bl	__stack_chk_fail
 2539              	.LVL215:
 2540              	.L188:
 2541              		.loc 1 527 1 view .LVU665
 2542              		.align	2
 2543              	.L187:
 2544 007c 00000000 		.word	.LC13
 2545              		.cfi_endproc
 2546              	.LFE13:
 2547              		.size	AsebaNative_vecmin, .-AsebaNative_vecmin
 2548              		.section	.rodata.AsebaNative_vecmax.cst4,"aM",%progbits,4
 2549              		.align	2
 2550              	.LC14:
 2551 0000 00000000 		.word	__stack_chk_guard
 2552              		.section	.text.AsebaNative_vecmax,"ax",%progbits
 2553              		.align	1
 2554              		.p2align 4,,15
 2555              		.global	AsebaNative_vecmax
 2556              		.syntax unified
 2557              		.thumb
 2558              		.thumb_func
 2559              		.fpu fpv4-sp-d16
 2560              		.type	AsebaNative_vecmax, %function
 2561              	AsebaNative_vecmax:
 2562              	.LVL216:
 2563              	.LFB14:
 2564              		.loc 1 543 1 is_stmt 1 view -0
 2565              		.cfi_startproc
ARM GAS  /tmp/cchqCFfA.s 			page 46


 2566              		@ args = 0, pretend = 0, frame = 8
 2567              		@ frame_needed = 0, uses_anonymous_args = 0
 2568              		.loc 1 543 1 is_stmt 0 view .LVU667
 2569 0000 F0B5     		push	{r4, r5, r6, r7, lr}
 2570              		.cfi_def_cfa_offset 20
 2571              		.cfi_offset 4, -20
 2572              		.cfi_offset 5, -16
 2573              		.cfi_offset 6, -12
 2574              		.cfi_offset 7, -8
 2575              		.cfi_offset 14, -4
 2576              	.LBB385:
 2577              	.LBB386:
 2578              		.loc 2 90 21 view .LVU668
 2579 0002 B0F91C60 		ldrsh	r6, [r0, #28]
 2580              	.LBE386:
 2581              	.LBE385:
 2582              		.loc 1 543 1 view .LVU669
 2583 0006 1D4B     		ldr	r3, .L199
 2584              		.loc 1 545 16 view .LVU670
 2585 0008 4169     		ldr	r1, [r0, #20]
 2586              	.LBB390:
 2587              	.LBB387:
 2588              		.loc 2 90 25 view .LVU671
 2589 000a B2B2     		uxth	r2, r6
 2590              	.LBE387:
 2591              	.LBE390:
 2592              		.loc 1 543 1 view .LVU672
 2593 000c 83B0     		sub	sp, sp, #12
 2594              		.cfi_def_cfa_offset 32
 2595              		.loc 1 543 1 view .LVU673
 2596 000e 1B68     		ldr	r3, [r3]
 2597 0010 0193     		str	r3, [sp, #4]
 2598 0012 4FF00003 		mov	r3,#0
 2599              		.loc 1 545 2 is_stmt 1 view .LVU674
 2600              	.LBB391:
 2601              	.LBI385:
 2602              		.loc 2 88 22 view .LVU675
 2603              	.LVL217:
 2604              	.LBB388:
 2605              		.loc 2 90 2 view .LVU676
 2606              		.loc 2 90 25 is_stmt 0 view .LVU677
 2607 0016 531E     		subs	r3, r2, #1
 2608 0018 1BB2     		sxth	r3, r3
 2609              	.LBE388:
 2610              	.LBE391:
 2611              	.LBB392:
 2612              	.LBB393:
 2613 001a 951E     		subs	r5, r2, #2
 2614              	.LBE393:
 2615              	.LBE392:
 2616              	.LBB396:
 2617              	.LBB389:
 2618 001c 8383     		strh	r3, [r0, #28]	@ movhi
 2619              	.LBE389:
 2620              	.LBE396:
 2621              	.LBB397:
 2622              	.LBB394:
ARM GAS  /tmp/cchqCFfA.s 			page 47


 2623 001e 2DB2     		sxth	r5, r5
 2624              	.LBE394:
 2625              	.LBE397:
 2626              	.LBB398:
 2627              	.LBB399:
 2628 0020 D41E     		subs	r4, r2, #3
 2629              	.LBE399:
 2630              	.LBE398:
 2631              		.loc 1 545 9 view .LVU678
 2632 0022 31F81670 		ldrh	r7, [r1, r6, lsl #1]
 2633              	.LVL218:
 2634              		.loc 1 546 2 is_stmt 1 view .LVU679
 2635              	.LBB402:
 2636              	.LBI392:
 2637              		.loc 2 88 22 view .LVU680
 2638              	.LBB395:
 2639              		.loc 2 90 2 view .LVU681
 2640              		.loc 2 90 25 is_stmt 0 view .LVU682
 2641 0026 8583     		strh	r5, [r0, #28]	@ movhi
 2642              	.LBE395:
 2643              	.LBE402:
 2644              	.LBB403:
 2645              	.LBB400:
 2646 0028 24B2     		sxth	r4, r4
 2647              	.LBE400:
 2648              	.LBE403:
 2649              		.loc 1 546 9 view .LVU683
 2650 002a 31F81330 		ldrh	r3, [r1, r3, lsl #1]
 2651              	.LVL219:
 2652              		.loc 1 547 2 is_stmt 1 view .LVU684
 2653              	.LBB404:
 2654              	.LBI398:
 2655              		.loc 2 88 22 view .LVU685
 2656              	.LBB401:
 2657              		.loc 2 90 2 view .LVU686
 2658              		.loc 2 90 25 is_stmt 0 view .LVU687
 2659 002e 8483     		strh	r4, [r0, #28]	@ movhi
 2660              	.LBE401:
 2661              	.LBE404:
 2662              	.LBB405:
 2663              	.LBB406:
 2664 0030 043A     		subs	r2, r2, #4
 2665              	.LBE406:
 2666              	.LBE405:
 2667              		.loc 1 547 9 view .LVU688
 2668 0032 31F81560 		ldrh	r6, [r1, r5, lsl #1]
 2669              	.LVL220:
 2670              		.loc 1 550 2 is_stmt 1 view .LVU689
 2671              	.LBB408:
 2672              	.LBI405:
 2673              		.loc 2 88 22 view .LVU690
 2674              	.LBB407:
 2675              		.loc 2 90 2 view .LVU691
 2676              		.loc 2 90 25 is_stmt 0 view .LVU692
 2677 0036 8283     		strh	r2, [r0, #28]	@ movhi
 2678              	.LBE407:
 2679              	.LBE408:
ARM GAS  /tmp/cchqCFfA.s 			page 48


 2680              		.loc 1 550 9 view .LVU693
 2681 0038 31F81450 		ldrh	r5, [r1, r4, lsl #1]
 2682              	.LVL221:
 2683              		.loc 1 552 2 is_stmt 1 view .LVU694
 2684              		.loc 1 553 2 view .LVU695
 2685              		.loc 1 553 14 view .LVU696
 2686              		.loc 1 553 2 is_stmt 0 view .LVU697
 2687 003c ADB1     		cbz	r5, .L189
 2688 003e 1D44     		add	r5, r5, r3
 2689              	.LVL222:
 2690              		.loc 1 553 2 view .LVU698
 2691 0040 ADB2     		uxth	r5, r5
 2692 0042 FF1A     		subs	r7, r7, r3
 2693              	.LVL223:
 2694              		.loc 1 553 2 view .LVU699
 2695 0044 F61A     		subs	r6, r6, r3
 2696              	.LVL224:
 2697              	.L191:
 2698              		.loc 1 553 2 view .LVU700
 2699 0046 9919     		adds	r1, r3, r6
 2700              	.LBB409:
 2701              		.loc 1 555 17 discriminator 3 view .LVU701
 2702 0048 C268     		ldr	r2, [r0, #12]
 2703 004a 89B2     		uxth	r1, r1
 2704              	.LVL225:
 2705              		.loc 1 557 10 discriminator 3 view .LVU702
 2706 004c 32F91340 		ldrsh	r4, [r2, r3, lsl #1]
 2707 0050 32F911C0 		ldrsh	ip, [r2, r1, lsl #1]
 2708 0054 D919     		adds	r1, r3, r7
 2709              	.LVL226:
 2710              		.loc 1 555 33 discriminator 3 view .LVU703
 2711 0056 0133     		adds	r3, r3, #1
 2712              	.LVL227:
 2713              		.loc 1 557 10 discriminator 3 view .LVU704
 2714 0058 6445     		cmp	r4, ip
 2715 005a 89B2     		uxth	r1, r1
 2716              	.LVL228:
 2717              		.loc 1 555 3 is_stmt 1 discriminator 3 view .LVU705
 2718              		.loc 1 555 33 is_stmt 0 discriminator 3 view .LVU706
 2719 005c 9BB2     		uxth	r3, r3
 2720              	.LVL229:
 2721              		.loc 1 556 3 is_stmt 1 discriminator 3 view .LVU707
 2722              		.loc 1 557 3 discriminator 3 view .LVU708
 2723              		.loc 1 558 3 discriminator 3 view .LVU709
 2724              		.loc 1 557 10 is_stmt 0 discriminator 3 view .LVU710
 2725 005e B8BF     		it	lt
 2726 0060 6446     		movlt	r4, ip
 2727              	.LBE409:
 2728              		.loc 1 553 2 discriminator 3 view .LVU711
 2729 0062 AB42     		cmp	r3, r5
 2730              	.LBB410:
 2731              		.loc 1 558 25 discriminator 3 view .LVU712
 2732 0064 22F81140 		strh	r4, [r2, r1, lsl #1]	@ movhi
 2733              		.loc 1 558 25 discriminator 3 view .LVU713
 2734              	.LBE410:
 2735              		.loc 1 553 26 is_stmt 1 discriminator 3 view .LVU714
 2736              		.loc 1 553 14 discriminator 3 view .LVU715
ARM GAS  /tmp/cchqCFfA.s 			page 49


 2737              		.loc 1 553 2 is_stmt 0 discriminator 3 view .LVU716
 2738 0068 EDD1     		bne	.L191
 2739              	.L189:
 2740              		.loc 1 560 1 view .LVU717
 2741 006a 044B     		ldr	r3, .L199
 2742              	.LVL230:
 2743              		.loc 1 560 1 view .LVU718
 2744 006c 1A68     		ldr	r2, [r3]
 2745 006e 019B     		ldr	r3, [sp, #4]
 2746 0070 5A40     		eors	r2, r3, r2
 2747 0072 01D1     		bne	.L198
 2748 0074 03B0     		add	sp, sp, #12
 2749              		.cfi_remember_state
 2750              		.cfi_def_cfa_offset 20
 2751              		@ sp needed
 2752 0076 F0BD     		pop	{r4, r5, r6, r7, pc}
 2753              	.L198:
 2754              		.cfi_restore_state
 2755 0078 FFF7FEFF 		bl	__stack_chk_fail
 2756              	.LVL231:
 2757              	.L200:
 2758              		.loc 1 560 1 view .LVU719
 2759              		.align	2
 2760              	.L199:
 2761 007c 00000000 		.word	.LC14
 2762              		.cfi_endproc
 2763              	.LFE14:
 2764              		.size	AsebaNative_vecmax, .-AsebaNative_vecmax
 2765              		.section	.rodata.AsebaNative_vecclamp.cst4,"aM",%progbits,4
 2766              		.align	2
 2767              	.LC15:
 2768 0000 00000000 		.word	__stack_chk_guard
 2769              		.section	.text.AsebaNative_vecclamp,"ax",%progbits
 2770              		.align	1
 2771              		.p2align 4,,15
 2772              		.global	AsebaNative_vecclamp
 2773              		.syntax unified
 2774              		.thumb
 2775              		.thumb_func
 2776              		.fpu fpv4-sp-d16
 2777              		.type	AsebaNative_vecclamp, %function
 2778              	AsebaNative_vecclamp:
 2779              	.LVL232:
 2780              	.LFB15:
 2781              		.loc 1 575 1 is_stmt 1 view -0
 2782              		.cfi_startproc
 2783              		@ args = 0, pretend = 0, frame = 8
 2784              		@ frame_needed = 0, uses_anonymous_args = 0
 2785              		.loc 1 575 1 is_stmt 0 view .LVU721
 2786 0000 2DE9F041 		push	{r4, r5, r6, r7, r8, lr}
 2787              		.cfi_def_cfa_offset 24
 2788              		.cfi_offset 4, -24
 2789              		.cfi_offset 5, -20
 2790              		.cfi_offset 6, -16
 2791              		.cfi_offset 7, -12
 2792              		.cfi_offset 8, -8
 2793              		.cfi_offset 14, -4
ARM GAS  /tmp/cchqCFfA.s 			page 50


 2794              	.LBB411:
 2795              	.LBB412:
 2796              		.loc 2 90 21 view .LVU722
 2797 0004 B0F91C40 		ldrsh	r4, [r0, #28]
 2798              	.LBE412:
 2799              	.LBE411:
 2800              		.loc 1 575 1 view .LVU723
 2801 0008 274B     		ldr	r3, .L212
 2802              		.loc 1 577 16 view .LVU724
 2803 000a 4169     		ldr	r1, [r0, #20]
 2804              	.LBB416:
 2805              	.LBB413:
 2806              		.loc 2 90 25 view .LVU725
 2807 000c A2B2     		uxth	r2, r4
 2808              	.LBE413:
 2809              	.LBE416:
 2810              		.loc 1 575 1 view .LVU726
 2811 000e 82B0     		sub	sp, sp, #8
 2812              		.cfi_def_cfa_offset 32
 2813              		.loc 1 575 1 view .LVU727
 2814 0010 1B68     		ldr	r3, [r3]
 2815 0012 0193     		str	r3, [sp, #4]
 2816 0014 4FF00003 		mov	r3,#0
 2817              		.loc 1 577 2 is_stmt 1 view .LVU728
 2818              	.LBB417:
 2819              	.LBI411:
 2820              		.loc 2 88 22 view .LVU729
 2821              	.LVL233:
 2822              	.LBB414:
 2823              		.loc 2 90 2 view .LVU730
 2824              		.loc 2 90 25 is_stmt 0 view .LVU731
 2825 0018 531E     		subs	r3, r2, #1
 2826 001a 1BB2     		sxth	r3, r3
 2827              	.LBE414:
 2828              	.LBE417:
 2829              	.LBB418:
 2830              	.LBB419:
 2831 001c 961E     		subs	r6, r2, #2
 2832              	.LBE419:
 2833              	.LBE418:
 2834              	.LBB422:
 2835              	.LBB415:
 2836 001e 8383     		strh	r3, [r0, #28]	@ movhi
 2837              	.LBE415:
 2838              	.LBE422:
 2839              	.LBB423:
 2840              	.LBB420:
 2841 0020 36B2     		sxth	r6, r6
 2842              	.LBE420:
 2843              	.LBE423:
 2844              	.LBB424:
 2845              	.LBB425:
 2846 0022 D51E     		subs	r5, r2, #3
 2847              	.LBE425:
 2848              	.LBE424:
 2849              		.loc 1 577 9 view .LVU732
 2850 0024 31F81480 		ldrh	r8, [r1, r4, lsl #1]
ARM GAS  /tmp/cchqCFfA.s 			page 51


 2851              	.LVL234:
 2852              		.loc 1 578 2 is_stmt 1 view .LVU733
 2853              	.LBB428:
 2854              	.LBI418:
 2855              		.loc 2 88 22 view .LVU734
 2856              	.LBB421:
 2857              		.loc 2 90 2 view .LVU735
 2858              		.loc 2 90 25 is_stmt 0 view .LVU736
 2859 0028 8683     		strh	r6, [r0, #28]	@ movhi
 2860              	.LBE421:
 2861              	.LBE428:
 2862              	.LBB429:
 2863              	.LBB426:
 2864 002a 2DB2     		sxth	r5, r5
 2865              	.LBE426:
 2866              	.LBE429:
 2867              	.LBB430:
 2868              	.LBB431:
 2869 002c 141F     		subs	r4, r2, #4
 2870              	.LBE431:
 2871              	.LBE430:
 2872              		.loc 1 578 9 view .LVU737
 2873 002e 31F81330 		ldrh	r3, [r1, r3, lsl #1]
 2874              	.LVL235:
 2875              		.loc 1 579 2 is_stmt 1 view .LVU738
 2876              	.LBB434:
 2877              	.LBI424:
 2878              		.loc 2 88 22 view .LVU739
 2879              	.LBB427:
 2880              		.loc 2 90 2 view .LVU740
 2881              		.loc 2 90 25 is_stmt 0 view .LVU741
 2882 0032 8583     		strh	r5, [r0, #28]	@ movhi
 2883              	.LBE427:
 2884              	.LBE434:
 2885              	.LBB435:
 2886              	.LBB432:
 2887 0034 24B2     		sxth	r4, r4
 2888              	.LBE432:
 2889              	.LBE435:
 2890              		.loc 1 579 9 view .LVU742
 2891 0036 31F816C0 		ldrh	ip, [r1, r6, lsl #1]
 2892              	.LVL236:
 2893              		.loc 1 580 2 is_stmt 1 view .LVU743
 2894              	.LBB436:
 2895              	.LBI430:
 2896              		.loc 2 88 22 view .LVU744
 2897              	.LBB433:
 2898              		.loc 2 90 2 view .LVU745
 2899              		.loc 2 90 25 is_stmt 0 view .LVU746
 2900 003a 8483     		strh	r4, [r0, #28]	@ movhi
 2901              	.LBE433:
 2902              	.LBE436:
 2903              	.LBB437:
 2904              	.LBB438:
 2905 003c 053A     		subs	r2, r2, #5
 2906              	.LBE438:
 2907              	.LBE437:
ARM GAS  /tmp/cchqCFfA.s 			page 52


 2908              		.loc 1 580 9 view .LVU747
 2909 003e 31F815E0 		ldrh	lr, [r1, r5, lsl #1]
 2910              	.LVL237:
 2911              		.loc 1 583 2 is_stmt 1 view .LVU748
 2912              	.LBB440:
 2913              	.LBI437:
 2914              		.loc 2 88 22 view .LVU749
 2915              	.LBB439:
 2916              		.loc 2 90 2 view .LVU750
 2917              		.loc 2 90 25 is_stmt 0 view .LVU751
 2918 0042 8283     		strh	r2, [r0, #28]	@ movhi
 2919              	.LBE439:
 2920              	.LBE440:
 2921              		.loc 1 583 9 view .LVU752
 2922 0044 31F81470 		ldrh	r7, [r1, r4, lsl #1]
 2923              	.LVL238:
 2924              		.loc 1 585 2 is_stmt 1 view .LVU753
 2925              		.loc 1 586 2 view .LVU754
 2926              		.loc 1 586 14 view .LVU755
 2927              		.loc 1 586 2 is_stmt 0 view .LVU756
 2928 0048 27B3     		cbz	r7, .L201
 2929 004a 1F44     		add	r7, r7, r3
 2930              	.LVL239:
 2931              		.loc 1 586 2 view .LVU757
 2932 004c BFB2     		uxth	r7, r7
 2933 004e A8EB0308 		sub	r8, r8, r3
 2934              	.LVL240:
 2935              		.loc 1 586 2 view .LVU758
 2936 0052 AEEB030E 		sub	lr, lr, r3
 2937              	.LVL241:
 2938              		.loc 1 586 2 view .LVU759
 2939 0056 ACEB030C 		sub	ip, ip, r3
 2940              	.LVL242:
 2941              	.L204:
 2942              		.loc 1 586 2 view .LVU760
 2943 005a 03EB0E01 		add	r1, r3, lr
 2944              	.LBB441:
 2945              		.loc 1 588 16 view .LVU761
 2946 005e C268     		ldr	r2, [r0, #12]
 2947 0060 89B2     		uxth	r1, r1
 2948              		.loc 1 588 10 view .LVU762
 2949 0062 32F91360 		ldrsh	r6, [r2, r3, lsl #1]
 2950              		.loc 1 590 10 view .LVU763
 2951 0066 32F91150 		ldrsh	r5, [r2, r1, lsl #1]
 2952 006a 03EB0C04 		add	r4, r3, ip
 2953 006e A4B2     		uxth	r4, r4
 2954              	.LVL243:
 2955              		.loc 1 590 10 view .LVU764
 2956 0070 03EB0801 		add	r1, r3, r8
 2957              	.LVL244:
 2958              		.loc 1 591 10 view .LVU765
 2959 0074 AE42     		cmp	r6, r5
 2960              		.loc 1 588 31 view .LVU766
 2961 0076 03F10103 		add	r3, r3, #1
 2962              	.LVL245:
 2963              		.loc 1 589 10 view .LVU767
 2964 007a 32F91440 		ldrsh	r4, [r2, r4, lsl #1]
ARM GAS  /tmp/cchqCFfA.s 			page 53


 2965              	.LVL246:
 2966              		.loc 1 589 10 view .LVU768
 2967 007e 89B2     		uxth	r1, r1
 2968              	.LVL247:
 2969              		.loc 1 588 3 is_stmt 1 view .LVU769
 2970              		.loc 1 588 31 is_stmt 0 view .LVU770
 2971 0080 9BB2     		uxth	r3, r3
 2972              	.LVL248:
 2973              		.loc 1 589 3 is_stmt 1 view .LVU771
 2974              		.loc 1 590 3 view .LVU772
 2975              		.loc 1 591 3 view .LVU773
 2976              		.loc 1 591 10 is_stmt 0 view .LVU774
 2977 0082 03DC     		bgt	.L203
 2978              		.loc 1 591 10 discriminator 1 view .LVU775
 2979 0084 A642     		cmp	r6, r4
 2980 0086 3546     		mov	r5, r6
 2981              	.LVL249:
 2982              		.loc 1 591 10 discriminator 1 view .LVU776
 2983 0088 B8BF     		it	lt
 2984 008a 2546     		movlt	r5, r4
 2985              	.L203:
 2986              	.LVL250:
 2987              		.loc 1 592 3 is_stmt 1 discriminator 4 view .LVU777
 2988              		.loc 1 592 3 is_stmt 0 discriminator 4 view .LVU778
 2989              	.LBE441:
 2990              		.loc 1 586 2 discriminator 4 view .LVU779
 2991 008c BB42     		cmp	r3, r7
 2992              	.LBB442:
 2993              		.loc 1 592 25 discriminator 4 view .LVU780
 2994 008e 22F81150 		strh	r5, [r2, r1, lsl #1]	@ movhi
 2995              		.loc 1 592 25 discriminator 4 view .LVU781
 2996              	.LBE442:
 2997              		.loc 1 586 26 is_stmt 1 discriminator 4 view .LVU782
 2998              		.loc 1 586 14 discriminator 4 view .LVU783
 2999              		.loc 1 586 2 is_stmt 0 discriminator 4 view .LVU784
 3000 0092 E2D1     		bne	.L204
 3001              	.LVL251:
 3002              	.L201:
 3003              		.loc 1 594 1 view .LVU785
 3004 0094 044B     		ldr	r3, .L212
 3005              	.LVL252:
 3006              		.loc 1 594 1 view .LVU786
 3007 0096 1A68     		ldr	r2, [r3]
 3008 0098 019B     		ldr	r3, [sp, #4]
 3009 009a 5A40     		eors	r2, r3, r2
 3010 009c 02D1     		bne	.L211
 3011 009e 02B0     		add	sp, sp, #8
 3012              		.cfi_remember_state
 3013              		.cfi_def_cfa_offset 24
 3014              		@ sp needed
 3015 00a0 BDE8F081 		pop	{r4, r5, r6, r7, r8, pc}
 3016              	.L211:
 3017              		.cfi_restore_state
 3018 00a4 FFF7FEFF 		bl	__stack_chk_fail
 3019              	.LVL253:
 3020              	.L213:
 3021              		.loc 1 594 1 view .LVU787
ARM GAS  /tmp/cchqCFfA.s 			page 54


 3022              		.align	2
 3023              	.L212:
 3024 00a8 00000000 		.word	.LC15
 3025              		.cfi_endproc
 3026              	.LFE15:
 3027              		.size	AsebaNative_vecclamp, .-AsebaNative_vecclamp
 3028              		.section	.rodata.AsebaNative_vecdot.cst4,"aM",%progbits,4
 3029              		.align	2
 3030              	.LC16:
 3031 0000 00000000 		.word	__stack_chk_guard
 3032              		.section	.text.AsebaNative_vecdot,"ax",%progbits
 3033              		.align	1
 3034              		.p2align 4,,15
 3035              		.global	AsebaNative_vecdot
 3036              		.syntax unified
 3037              		.thumb
 3038              		.thumb_func
 3039              		.fpu fpv4-sp-d16
 3040              		.type	AsebaNative_vecdot, %function
 3041              	AsebaNative_vecdot:
 3042              	.LVL254:
 3043              	.LFB16:
 3044              		.loc 1 610 1 is_stmt 1 view -0
 3045              		.cfi_startproc
 3046              		@ args = 0, pretend = 0, frame = 8
 3047              		@ frame_needed = 0, uses_anonymous_args = 0
 3048              		.loc 1 610 1 is_stmt 0 view .LVU789
 3049 0000 F0B5     		push	{r4, r5, r6, r7, lr}
 3050              		.cfi_def_cfa_offset 20
 3051              		.cfi_offset 4, -20
 3052              		.cfi_offset 5, -16
 3053              		.cfi_offset 6, -12
 3054              		.cfi_offset 7, -8
 3055              		.cfi_offset 14, -4
 3056              	.LBB443:
 3057              	.LBB444:
 3058              		.loc 2 90 21 view .LVU790
 3059 0002 B0F91C50 		ldrsh	r5, [r0, #28]
 3060              	.LBE444:
 3061              	.LBE443:
 3062              		.loc 1 610 1 view .LVU791
 3063 0006 274B     		ldr	r3, .L224
 3064              		.loc 1 612 16 view .LVU792
 3065 0008 4169     		ldr	r1, [r0, #20]
 3066              		.loc 1 615 19 view .LVU793
 3067 000a C468     		ldr	r4, [r0, #12]
 3068              	.LBB448:
 3069              	.LBB445:
 3070              		.loc 2 90 25 view .LVU794
 3071 000c AAB2     		uxth	r2, r5
 3072              	.LBE445:
 3073              	.LBE448:
 3074              		.loc 1 610 1 view .LVU795
 3075 000e 83B0     		sub	sp, sp, #12
 3076              		.cfi_def_cfa_offset 32
 3077              		.loc 1 610 1 view .LVU796
 3078 0010 1B68     		ldr	r3, [r3]
ARM GAS  /tmp/cchqCFfA.s 			page 55


 3079 0012 0193     		str	r3, [sp, #4]
 3080 0014 4FF00003 		mov	r3,#0
 3081              		.loc 1 612 2 is_stmt 1 view .LVU797
 3082              	.LBB449:
 3083              	.LBI443:
 3084              		.loc 2 88 22 view .LVU798
 3085              	.LVL255:
 3086              	.LBB446:
 3087              		.loc 2 90 2 view .LVU799
 3088              		.loc 2 90 25 is_stmt 0 view .LVU800
 3089 0018 531E     		subs	r3, r2, #1
 3090 001a 1BB2     		sxth	r3, r3
 3091              	.LBE446:
 3092              	.LBE449:
 3093              	.LBB450:
 3094              	.LBB451:
 3095 001c 971E     		subs	r7, r2, #2
 3096              	.LBE451:
 3097              	.LBE450:
 3098              	.LBB455:
 3099              	.LBB447:
 3100 001e 8383     		strh	r3, [r0, #28]	@ movhi
 3101              	.LBE447:
 3102              	.LBE455:
 3103              	.LBB456:
 3104              	.LBB452:
 3105 0020 3FB2     		sxth	r7, r7
 3106              	.LBE452:
 3107              	.LBE456:
 3108              	.LBB457:
 3109              	.LBB458:
 3110 0022 D61E     		subs	r6, r2, #3
 3111              	.LBE458:
 3112              	.LBE457:
 3113              		.loc 1 612 9 view .LVU801
 3114 0024 31F81550 		ldrh	r5, [r1, r5, lsl #1]
 3115              	.LVL256:
 3116              		.loc 1 613 2 is_stmt 1 view .LVU802
 3117              	.LBB462:
 3118              	.LBI450:
 3119              		.loc 2 88 22 view .LVU803
 3120              	.LBB453:
 3121              		.loc 2 90 2 view .LVU804
 3122              		.loc 2 90 25 is_stmt 0 view .LVU805
 3123 0028 8783     		strh	r7, [r0, #28]	@ movhi
 3124              	.LBE453:
 3125              	.LBE462:
 3126              	.LBB463:
 3127              	.LBB459:
 3128 002a 36B2     		sxth	r6, r6
 3129              	.LBE459:
 3130              	.LBE463:
 3131              	.LBB464:
 3132              	.LBB465:
 3133 002c A2F1040E 		sub	lr, r2, #4
 3134              	.LBE465:
 3135              	.LBE464:
ARM GAS  /tmp/cchqCFfA.s 			page 56


 3136              	.LBB468:
 3137              	.LBB454:
 3138              		.loc 2 90 18 view .LVU806
 3139 0030 31F91330 		ldrsh	r3, [r1, r3, lsl #1]
 3140              	.LVL257:
 3141              		.loc 2 90 18 view .LVU807
 3142              	.LBE454:
 3143              	.LBE468:
 3144              		.loc 1 614 2 is_stmt 1 view .LVU808
 3145              	.LBB469:
 3146              	.LBI457:
 3147              		.loc 2 88 22 view .LVU809
 3148              	.LBB460:
 3149              		.loc 2 90 2 view .LVU810
 3150              		.loc 2 90 25 is_stmt 0 view .LVU811
 3151 0034 8683     		strh	r6, [r0, #28]	@ movhi
 3152              	.LBE460:
 3153              	.LBE469:
 3154              	.LBB470:
 3155              	.LBB466:
 3156 0036 0FFA8EFE 		sxth	lr, lr
 3157              	.LBE466:
 3158              	.LBE470:
 3159              	.LBB471:
 3160              	.LBB461:
 3161              		.loc 2 90 18 view .LVU812
 3162 003a 31F917C0 		ldrsh	ip, [r1, r7, lsl #1]
 3163              	.LVL258:
 3164              		.loc 2 90 18 view .LVU813
 3165              	.LBE461:
 3166              	.LBE471:
 3167              		.loc 1 615 2 is_stmt 1 view .LVU814
 3168              	.LBB472:
 3169              	.LBI464:
 3170              		.loc 2 88 22 view .LVU815
 3171              	.LBB467:
 3172              		.loc 2 90 2 view .LVU816
 3173              		.loc 2 90 25 is_stmt 0 view .LVU817
 3174 003e A0F81CE0 		strh	lr, [r0, #28]	@ movhi
 3175              	.LBE467:
 3176              	.LBE472:
 3177              		.loc 1 615 30 view .LVU818
 3178 0042 31F91660 		ldrsh	r6, [r1, r6, lsl #1]
 3179              		.loc 1 615 9 view .LVU819
 3180 0046 34F91660 		ldrsh	r6, [r4, r6, lsl #1]
 3181              	.LVL259:
 3182              		.loc 1 618 2 is_stmt 1 view .LVU820
 3183              	.LBB473:
 3184              	.LBI473:
 3185              		.loc 2 88 22 view .LVU821
 3186              	.LBB474:
 3187              		.loc 2 90 2 view .LVU822
 3188              		.loc 2 90 25 is_stmt 0 view .LVU823
 3189 004a 053A     		subs	r2, r2, #5
 3190              	.LBE474:
 3191              	.LBE473:
 3192              		.loc 1 622 4 view .LVU824
ARM GAS  /tmp/cchqCFfA.s 			page 57


 3193 004c 202E     		cmp	r6, #32
 3194              	.LBB476:
 3195              	.LBB475:
 3196              		.loc 2 90 25 view .LVU825
 3197 004e 8283     		strh	r2, [r0, #28]	@ movhi
 3198              	.LVL260:
 3199              		.loc 2 90 25 view .LVU826
 3200              	.LBE475:
 3201              	.LBE476:
 3202              		.loc 1 619 2 is_stmt 1 view .LVU827
 3203              		.loc 1 620 2 view .LVU828
 3204              		.loc 1 622 2 view .LVU829
 3205              		.loc 1 622 4 is_stmt 0 view .LVU830
 3206 0050 22DC     		bgt	.L215
 3207              		.loc 1 618 9 view .LVU831
 3208 0052 31F81E10 		ldrh	r1, [r1, lr, lsl #1]
 3209              	.LVL261:
 3210              		.loc 1 662 14 is_stmt 1 view .LVU832
 3211              		.loc 1 662 2 is_stmt 0 view .LVU833
 3212 0056 B1B1     		cbz	r1, .L217
 3213              		.loc 1 613 9 view .LVU834
 3214 0058 9BB2     		uxth	r3, r3
 3215              	.LVL262:
 3216              		.loc 1 613 9 view .LVU835
 3217 005a 1944     		add	r1, r1, r3
 3218              		.loc 1 614 9 view .LVU836
 3219 005c 1FFA8CFC 		uxth	ip, ip
 3220              	.LVL263:
 3221              		.loc 1 614 9 view .LVU837
 3222 0060 8FB2     		uxth	r7, r1
 3223 0062 ACEB030C 		sub	ip, ip, r3
 3224              		.loc 1 619 9 view .LVU838
 3225 0066 0021     		movs	r1, #0
 3226              	.LVL264:
 3227              	.L219:
 3228              		.loc 1 619 9 view .LVU839
 3229 0068 03EB0C02 		add	r2, r3, ip
 3230 006c 92B2     		uxth	r2, r2
 3231              	.LVL265:
 3232              		.loc 1 664 3 is_stmt 1 discriminator 3 view .LVU840
 3233              		.loc 1 664 7 is_stmt 0 discriminator 3 view .LVU841
 3234 006e 34F81300 		ldrh	r0, [r4, r3, lsl #1]
 3235 0072 34F81220 		ldrh	r2, [r4, r2, lsl #1]
 3236              	.LVL266:
 3237              		.loc 1 664 36 discriminator 3 view .LVU842
 3238 0076 0133     		adds	r3, r3, #1
 3239              	.LVL267:
 3240              		.loc 1 664 36 discriminator 3 view .LVU843
 3241 0078 9BB2     		uxth	r3, r3
 3242              	.LVL268:
 3243              		.loc 1 662 2 discriminator 3 view .LVU844
 3244 007a BB42     		cmp	r3, r7
 3245              		.loc 1 664 7 discriminator 3 view .LVU845
 3246 007c 10FB0211 		smlabb	r1, r0, r2, r1
 3247              	.LVL269:
 3248              		.loc 1 662 26 is_stmt 1 discriminator 3 view .LVU846
 3249              		.loc 1 662 14 discriminator 3 view .LVU847
ARM GAS  /tmp/cchqCFfA.s 			page 58


 3250              		.loc 1 662 2 is_stmt 0 discriminator 3 view .LVU848
 3251 0080 F2D1     		bne	.L219
 3252 0082 3141     		asrs	r1, r1, r6
 3253              	.LVL270:
 3254              		.loc 1 662 2 discriminator 3 view .LVU849
 3255 0084 09B2     		sxth	r1, r1
 3256              	.LVL271:
 3257              	.L217:
 3258              		.loc 1 666 2 is_stmt 1 view .LVU850
 3259              		.loc 1 667 2 view .LVU851
 3260              		.loc 1 667 22 is_stmt 0 view .LVU852
 3261 0086 24F81510 		strh	r1, [r4, r5, lsl #1]	@ movhi
 3262              	.LVL272:
 3263              	.L214:
 3264              		.loc 1 669 1 view .LVU853
 3265 008a 064B     		ldr	r3, .L224
 3266 008c 1A68     		ldr	r2, [r3]
 3267 008e 019B     		ldr	r3, [sp, #4]
 3268 0090 5A40     		eors	r2, r3, r2
 3269 0092 05D1     		bne	.L223
 3270 0094 03B0     		add	sp, sp, #12
 3271              		.cfi_remember_state
 3272              		.cfi_def_cfa_offset 20
 3273              		@ sp needed
 3274 0096 F0BD     		pop	{r4, r5, r6, r7, pc}
 3275              	.LVL273:
 3276              	.L215:
 3277              		.cfi_restore_state
 3278              		.loc 1 623 3 is_stmt 1 view .LVU854
 3279              		.loc 1 623 23 is_stmt 0 view .LVU855
 3280 0098 0023     		movs	r3, #0
 3281              	.LVL274:
 3282              		.loc 1 623 23 view .LVU856
 3283 009a 24F81530 		strh	r3, [r4, r5, lsl #1]	@ movhi
 3284              	.LVL275:
 3285              		.loc 1 624 3 is_stmt 1 view .LVU857
 3286 009e F4E7     		b	.L214
 3287              	.LVL276:
 3288              	.L223:
 3289              		.loc 1 669 1 is_stmt 0 view .LVU858
 3290 00a0 FFF7FEFF 		bl	__stack_chk_fail
 3291              	.LVL277:
 3292              	.L225:
 3293              		.align	2
 3294              	.L224:
 3295 00a4 00000000 		.word	.LC16
 3296              		.cfi_endproc
 3297              	.LFE16:
 3298              		.size	AsebaNative_vecdot, .-AsebaNative_vecdot
 3299              		.section	.rodata.AsebaNative_vecstat.cst4,"aM",%progbits,4
 3300              		.align	2
 3301              	.LC17:
 3302 0000 00000000 		.word	__stack_chk_guard
 3303              		.section	.text.AsebaNative_vecstat,"ax",%progbits
 3304              		.align	1
 3305              		.p2align 4,,15
 3306              		.global	AsebaNative_vecstat
ARM GAS  /tmp/cchqCFfA.s 			page 59


 3307              		.syntax unified
 3308              		.thumb
 3309              		.thumb_func
 3310              		.fpu fpv4-sp-d16
 3311              		.type	AsebaNative_vecstat, %function
 3312              	AsebaNative_vecstat:
 3313              	.LVL278:
 3314              	.LFB17:
 3315              		.loc 1 686 1 is_stmt 1 view -0
 3316              		.cfi_startproc
 3317              		@ args = 0, pretend = 0, frame = 8
 3318              		@ frame_needed = 0, uses_anonymous_args = 0
 3319              		.loc 1 686 1 is_stmt 0 view .LVU860
 3320 0000 2DE9F041 		push	{r4, r5, r6, r7, r8, lr}
 3321              		.cfi_def_cfa_offset 24
 3322              		.cfi_offset 4, -24
 3323              		.cfi_offset 5, -20
 3324              		.cfi_offset 6, -16
 3325              		.cfi_offset 7, -12
 3326              		.cfi_offset 8, -8
 3327              		.cfi_offset 14, -4
 3328              	.LBB477:
 3329              	.LBB478:
 3330              		.loc 2 90 21 view .LVU861
 3331 0004 B0F91C10 		ldrsh	r1, [r0, #28]
 3332              	.LBE478:
 3333              	.LBE477:
 3334              		.loc 1 686 1 view .LVU862
 3335 0008 304B     		ldr	r3, .L240
 3336              		.loc 1 688 15 view .LVU863
 3337 000a 4269     		ldr	r2, [r0, #20]
 3338              		.loc 1 686 1 view .LVU864
 3339 000c 82B0     		sub	sp, sp, #8
 3340              		.cfi_def_cfa_offset 32
 3341              		.loc 1 686 1 view .LVU865
 3342 000e 1B68     		ldr	r3, [r3]
 3343 0010 0193     		str	r3, [sp, #4]
 3344 0012 4FF00003 		mov	r3,#0
 3345              		.loc 1 688 2 is_stmt 1 view .LVU866
 3346              	.LBB482:
 3347              	.LBI477:
 3348              		.loc 2 88 22 view .LVU867
 3349              	.LVL279:
 3350              	.LBB479:
 3351              		.loc 2 90 2 view .LVU868
 3352              		.loc 2 90 25 is_stmt 0 view .LVU869
 3353 0016 8BB2     		uxth	r3, r1
 3354 0018 5D1E     		subs	r5, r3, #1
 3355 001a 2DB2     		sxth	r5, r5
 3356              	.LBE479:
 3357              	.LBE482:
 3358              	.LBB483:
 3359              	.LBB484:
 3360 001c 9E1E     		subs	r6, r3, #2
 3361              	.LBE484:
 3362              	.LBE483:
 3363              	.LBB488:
ARM GAS  /tmp/cchqCFfA.s 			page 60


 3364              	.LBB480:
 3365 001e 8583     		strh	r5, [r0, #28]	@ movhi
 3366              	.LBE480:
 3367              	.LBE488:
 3368              	.LBB489:
 3369              	.LBB485:
 3370 0020 36B2     		sxth	r6, r6
 3371              	.LBE485:
 3372              	.LBE489:
 3373              	.LBB490:
 3374              	.LBB491:
 3375 0022 DC1E     		subs	r4, r3, #3
 3376              	.LBE491:
 3377              	.LBE490:
 3378              	.LBB495:
 3379              	.LBB481:
 3380              		.loc 2 90 18 view .LVU870
 3381 0024 32F91180 		ldrsh	r8, [r2, r1, lsl #1]
 3382              	.LVL280:
 3383              		.loc 2 90 18 view .LVU871
 3384              	.LBE481:
 3385              	.LBE495:
 3386              		.loc 1 689 2 is_stmt 1 view .LVU872
 3387              	.LBB496:
 3388              	.LBI483:
 3389              		.loc 2 88 22 view .LVU873
 3390              	.LBB486:
 3391              		.loc 2 90 2 view .LVU874
 3392              		.loc 2 90 25 is_stmt 0 view .LVU875
 3393 0028 8683     		strh	r6, [r0, #28]	@ movhi
 3394              	.LBE486:
 3395              	.LBE496:
 3396              	.LBB497:
 3397              	.LBB492:
 3398 002a 24B2     		sxth	r4, r4
 3399              	.LBE492:
 3400              	.LBE497:
 3401              	.LBB498:
 3402              	.LBB499:
 3403 002c 191F     		subs	r1, r3, #4
 3404              	.LBE499:
 3405              	.LBE498:
 3406              	.LBB503:
 3407              	.LBB487:
 3408              		.loc 2 90 18 view .LVU876
 3409 002e 32F91550 		ldrsh	r5, [r2, r5, lsl #1]
 3410              	.LVL281:
 3411              		.loc 2 90 18 view .LVU877
 3412              	.LBE487:
 3413              	.LBE503:
 3414              		.loc 1 690 2 is_stmt 1 view .LVU878
 3415              	.LBB504:
 3416              	.LBI490:
 3417              		.loc 2 88 22 view .LVU879
 3418              	.LBB493:
 3419              		.loc 2 90 2 view .LVU880
 3420              		.loc 2 90 25 is_stmt 0 view .LVU881
ARM GAS  /tmp/cchqCFfA.s 			page 61


 3421 0032 8483     		strh	r4, [r0, #28]	@ movhi
 3422              	.LBE493:
 3423              	.LBE504:
 3424              	.LBB505:
 3425              	.LBB500:
 3426 0034 09B2     		sxth	r1, r1
 3427              	.LBE500:
 3428              	.LBE505:
 3429              	.LBB506:
 3430              	.LBB494:
 3431              		.loc 2 90 18 view .LVU882
 3432 0036 32F91660 		ldrsh	r6, [r2, r6, lsl #1]
 3433              	.LVL282:
 3434              		.loc 2 90 18 view .LVU883
 3435              	.LBE494:
 3436              	.LBE506:
 3437              		.loc 1 691 2 is_stmt 1 view .LVU884
 3438              	.LBB507:
 3439              	.LBI498:
 3440              		.loc 2 88 22 view .LVU885
 3441              	.LBB501:
 3442              		.loc 2 90 2 view .LVU886
 3443              		.loc 2 90 25 is_stmt 0 view .LVU887
 3444 003a 8183     		strh	r1, [r0, #28]	@ movhi
 3445              	.LBE501:
 3446              	.LBE507:
 3447              	.LBB508:
 3448              	.LBB509:
 3449 003c 053B     		subs	r3, r3, #5
 3450              	.LBE509:
 3451              	.LBE508:
 3452              	.LBB511:
 3453              	.LBB502:
 3454              		.loc 2 90 18 view .LVU888
 3455 003e 32F914C0 		ldrsh	ip, [r2, r4, lsl #1]
 3456              	.LVL283:
 3457              		.loc 2 90 18 view .LVU889
 3458              	.LBE502:
 3459              	.LBE511:
 3460              		.loc 1 694 2 is_stmt 1 view .LVU890
 3461              	.LBB512:
 3462              	.LBI508:
 3463              		.loc 2 88 22 view .LVU891
 3464              	.LBB510:
 3465              		.loc 2 90 2 view .LVU892
 3466              		.loc 2 90 25 is_stmt 0 view .LVU893
 3467 0042 8383     		strh	r3, [r0, #28]	@ movhi
 3468              	.LBE510:
 3469              	.LBE512:
 3470              		.loc 1 694 9 view .LVU894
 3471 0044 32F811E0 		ldrh	lr, [r2, r1, lsl #1]
 3472              	.LVL284:
 3473              		.loc 1 695 2 is_stmt 1 view .LVU895
 3474              		.loc 1 696 2 view .LVU896
 3475              		.loc 1 697 2 view .LVU897
 3476              		.loc 1 699 2 view .LVU898
 3477              		.loc 1 699 5 is_stmt 0 view .LVU899
ARM GAS  /tmp/cchqCFfA.s 			page 62


 3478 0048 BEF1000F 		cmp	lr, #0
 3479 004c 32D0     		beq	.L226
 3480              		.loc 1 701 11 view .LVU900
 3481 004e C368     		ldr	r3, [r0, #12]
 3482              		.loc 1 688 9 view .LVU901
 3483 0050 1FFA88F8 		uxth	r8, r8
 3484              	.LVL285:
 3485              		.loc 1 701 3 is_stmt 1 view .LVU902
 3486              		.loc 1 703 16 is_stmt 0 view .LVU903
 3487 0054 ADB2     		uxth	r5, r5
 3488              		.loc 1 701 7 view .LVU904
 3489 0056 33F91840 		ldrsh	r4, [r3, r8, lsl #1]
 3490              		.loc 1 703 22 view .LVU905
 3491 005a 23F81540 		strh	r4, [r3, r5, lsl #1]	@ movhi
 3492              		.loc 1 704 16 view .LVU906
 3493 005e B6B2     		uxth	r6, r6
 3494              		.loc 1 704 22 view .LVU907
 3495 0060 C268     		ldr	r2, [r0, #12]
 3496              		.loc 1 701 26 view .LVU908
 3497 0062 08F10103 		add	r3, r8, #1
 3498              		.loc 1 706 3 view .LVU909
 3499 0066 BEF1010F 		cmp	lr, #1
 3500              		.loc 1 704 22 view .LVU910
 3501 006a 22F81640 		strh	r4, [r2, r6, lsl #1]	@ movhi
 3502              		.loc 1 703 16 view .LVU911
 3503 006e 4FEA4505 		lsl	r5, r5, #1
 3504              	.LVL286:
 3505              		.loc 1 704 16 view .LVU912
 3506 0072 4FEA4606 		lsl	r6, r6, #1
 3507              	.LVL287:
 3508              		.loc 1 701 26 view .LVU913
 3509 0076 9BB2     		uxth	r3, r3
 3510              	.LVL288:
 3511              		.loc 1 702 3 is_stmt 1 view .LVU914
 3512              		.loc 1 703 3 view .LVU915
 3513              		.loc 1 704 3 view .LVU916
 3514              		.loc 1 706 3 view .LVU917
 3515              		.loc 1 706 15 view .LVU918
 3516              		.loc 1 706 3 is_stmt 0 view .LVU919
 3517 0078 24D0     		beq	.L228
 3518 007a F044     		add	r8, r8, lr
 3519 007c C268     		ldr	r2, [r0, #12]
 3520 007e 1FFA88F8 		uxth	r8, r8
 3521              	.LVL289:
 3522              	.L231:
 3523              		.loc 1 708 4 is_stmt 1 view .LVU920
 3524              		.loc 1 708 8 is_stmt 0 view .LVU921
 3525 0082 32F91310 		ldrsh	r1, [r2, r3, lsl #1]
 3526              		.loc 1 709 7 view .LVU922
 3527 0086 575F     		ldrsh	r7, [r2, r5]
 3528 0088 8F42     		cmp	r7, r1
 3529              		.loc 1 710 24 view .LVU923
 3530 008a C4BF     		itt	gt
 3531 008c 5153     		strhgt	r1, [r2, r5]	@ movhi
 3532 008e C268     		ldrgt	r2, [r0, #12]
 3533              		.loc 1 711 7 view .LVU924
 3534 0090 975F     		ldrsh	r7, [r2, r6]
ARM GAS  /tmp/cchqCFfA.s 			page 63


 3535 0092 8F42     		cmp	r7, r1
 3536              		.loc 1 712 24 view .LVU925
 3537 0094 B8BF     		it	lt
 3538 0096 9153     		strhlt	r1, [r2, r6]	@ movhi
 3539              		.loc 1 708 27 view .LVU926
 3540 0098 03F10103 		add	r3, r3, #1
 3541              	.LVL290:
 3542              		.loc 1 708 27 view .LVU927
 3543 009c 9BB2     		uxth	r3, r3
 3544              	.LVL291:
 3545              		.loc 1 709 4 is_stmt 1 view .LVU928
 3546              		.loc 1 710 5 view .LVU929
 3547              		.loc 1 711 4 view .LVU930
 3548              		.loc 1 712 5 view .LVU931
 3549 009e B8BF     		it	lt
 3550 00a0 C268     		ldrlt	r2, [r0, #12]
 3551              		.loc 1 713 4 view .LVU932
 3552              		.loc 1 706 3 is_stmt 0 view .LVU933
 3553 00a2 4345     		cmp	r3, r8
 3554              		.loc 1 713 8 view .LVU934
 3555 00a4 0C44     		add	r4, r4, r1
 3556              	.LVL292:
 3557              		.loc 1 706 27 is_stmt 1 view .LVU935
 3558              		.loc 1 706 15 view .LVU936
 3559              		.loc 1 706 3 is_stmt 0 view .LVU937
 3560 00a6 ECD1     		bne	.L231
 3561              	.LVL293:
 3562              	.L232:
 3563              		.loc 1 716 3 is_stmt 1 view .LVU938
 3564              		.loc 1 716 38 is_stmt 0 view .LVU939
 3565 00a8 94FBFEF4 		sdiv	r4, r4, lr
 3566              	.LVL294:
 3567              		.loc 1 716 16 view .LVU940
 3568 00ac 1FFA8CFC 		uxth	ip, ip
 3569              		.loc 1 716 25 view .LVU941
 3570 00b0 22F81C40 		strh	r4, [r2, ip, lsl #1]	@ movhi
 3571              	.LVL295:
 3572              	.L226:
 3573              		.loc 1 718 1 view .LVU942
 3574 00b4 054B     		ldr	r3, .L240
 3575 00b6 1A68     		ldr	r2, [r3]
 3576 00b8 019B     		ldr	r3, [sp, #4]
 3577 00ba 5A40     		eors	r2, r3, r2
 3578 00bc 04D1     		bne	.L239
 3579 00be 02B0     		add	sp, sp, #8
 3580              		.cfi_remember_state
 3581              		.cfi_def_cfa_offset 24
 3582              		@ sp needed
 3583 00c0 BDE8F081 		pop	{r4, r5, r6, r7, r8, pc}
 3584              	.LVL296:
 3585              	.L228:
 3586              		.cfi_restore_state
 3587              		.loc 1 718 1 view .LVU943
 3588 00c4 C268     		ldr	r2, [r0, #12]
 3589 00c6 EFE7     		b	.L232
 3590              	.LVL297:
 3591              	.L239:
ARM GAS  /tmp/cchqCFfA.s 			page 64


 3592              		.loc 1 718 1 view .LVU944
 3593 00c8 FFF7FEFF 		bl	__stack_chk_fail
 3594              	.LVL298:
 3595              	.L241:
 3596              		.loc 1 718 1 view .LVU945
 3597              		.align	2
 3598              	.L240:
 3599 00cc 00000000 		.word	.LC17
 3600              		.cfi_endproc
 3601              	.LFE17:
 3602              		.size	AsebaNative_vecstat, .-AsebaNative_vecstat
 3603              		.section	.rodata.AsebaNative_vecargbounds.cst4,"aM",%progbits,4
 3604              		.align	2
 3605              	.LC18:
 3606 0000 00000000 		.word	__stack_chk_guard
 3607              		.section	.text.AsebaNative_vecargbounds,"ax",%progbits
 3608              		.align	1
 3609              		.p2align 4,,15
 3610              		.global	AsebaNative_vecargbounds
 3611              		.syntax unified
 3612              		.thumb
 3613              		.thumb_func
 3614              		.fpu fpv4-sp-d16
 3615              		.type	AsebaNative_vecargbounds, %function
 3616              	AsebaNative_vecargbounds:
 3617              	.LVL299:
 3618              	.LFB18:
 3619              		.loc 1 735 1 is_stmt 1 view -0
 3620              		.cfi_startproc
 3621              		@ args = 0, pretend = 0, frame = 8
 3622              		@ frame_needed = 0, uses_anonymous_args = 0
 3623              		.loc 1 735 1 is_stmt 0 view .LVU947
 3624 0000 2DE9F041 		push	{r4, r5, r6, r7, r8, lr}
 3625              		.cfi_def_cfa_offset 24
 3626              		.cfi_offset 4, -24
 3627              		.cfi_offset 5, -20
 3628              		.cfi_offset 6, -16
 3629              		.cfi_offset 7, -12
 3630              		.cfi_offset 8, -8
 3631              		.cfi_offset 14, -4
 3632 0004 264B     		ldr	r3, .L254
 3633              		.loc 1 737 15 view .LVU948
 3634 0006 4169     		ldr	r1, [r0, #20]
 3635              		.loc 1 735 1 view .LVU949
 3636 0008 82B0     		sub	sp, sp, #8
 3637              		.cfi_def_cfa_offset 32
 3638              		.loc 1 735 1 view .LVU950
 3639 000a 1B68     		ldr	r3, [r3]
 3640 000c 0193     		str	r3, [sp, #4]
 3641 000e 4FF00003 		mov	r3,#0
 3642              		.loc 1 737 2 is_stmt 1 view .LVU951
 3643              	.LBB513:
 3644              	.LBI513:
 3645              		.loc 2 88 22 view .LVU952
 3646              	.LVL300:
 3647              	.LBB514:
 3648              		.loc 2 90 2 view .LVU953
ARM GAS  /tmp/cchqCFfA.s 			page 65


 3649              		.loc 2 90 21 is_stmt 0 view .LVU954
 3650 0012 B0F91C30 		ldrsh	r3, [r0, #28]
 3651              		.loc 2 90 25 view .LVU955
 3652 0016 9AB2     		uxth	r2, r3
 3653 0018 561E     		subs	r6, r2, #1
 3654 001a 36B2     		sxth	r6, r6
 3655              	.LBE514:
 3656              	.LBE513:
 3657              	.LBB517:
 3658              	.LBB518:
 3659 001c 951E     		subs	r5, r2, #2
 3660              	.LBE518:
 3661              	.LBE517:
 3662              	.LBB522:
 3663              	.LBB515:
 3664 001e 8683     		strh	r6, [r0, #28]	@ movhi
 3665              	.LBE515:
 3666              	.LBE522:
 3667              	.LBB523:
 3668              	.LBB519:
 3669 0020 2DB2     		sxth	r5, r5
 3670              	.LBE519:
 3671              	.LBE523:
 3672              	.LBB524:
 3673              	.LBB525:
 3674 0022 D41E     		subs	r4, r2, #3
 3675              	.LBE525:
 3676              	.LBE524:
 3677              	.LBB529:
 3678              	.LBB516:
 3679              		.loc 2 90 18 view .LVU956
 3680 0024 31F91330 		ldrsh	r3, [r1, r3, lsl #1]
 3681              	.LVL301:
 3682              		.loc 2 90 18 view .LVU957
 3683              	.LBE516:
 3684              	.LBE529:
 3685              		.loc 1 738 2 is_stmt 1 view .LVU958
 3686              	.LBB530:
 3687              	.LBI517:
 3688              		.loc 2 88 22 view .LVU959
 3689              	.LBB520:
 3690              		.loc 2 90 2 view .LVU960
 3691              		.loc 2 90 25 is_stmt 0 view .LVU961
 3692 0028 8583     		strh	r5, [r0, #28]	@ movhi
 3693              	.LBE520:
 3694              	.LBE530:
 3695              	.LBB531:
 3696              	.LBB526:
 3697 002a 24B2     		sxth	r4, r4
 3698              	.LBE526:
 3699              	.LBE531:
 3700              	.LBB532:
 3701              	.LBB521:
 3702              		.loc 2 90 18 view .LVU962
 3703 002c 31F916E0 		ldrsh	lr, [r1, r6, lsl #1]
 3704              	.LVL302:
 3705              		.loc 2 90 18 view .LVU963
ARM GAS  /tmp/cchqCFfA.s 			page 66


 3706              	.LBE521:
 3707              	.LBE532:
 3708              		.loc 1 739 2 is_stmt 1 view .LVU964
 3709              	.LBB533:
 3710              	.LBI524:
 3711              		.loc 2 88 22 view .LVU965
 3712              	.LBB527:
 3713              		.loc 2 90 2 view .LVU966
 3714              		.loc 2 90 25 is_stmt 0 view .LVU967
 3715 0030 8483     		strh	r4, [r0, #28]	@ movhi
 3716              	.LBE527:
 3717              	.LBE533:
 3718              	.LBB534:
 3719              	.LBB535:
 3720 0032 043A     		subs	r2, r2, #4
 3721              	.LBE535:
 3722              	.LBE534:
 3723              	.LBB537:
 3724              	.LBB528:
 3725              		.loc 2 90 18 view .LVU968
 3726 0034 31F915C0 		ldrsh	ip, [r1, r5, lsl #1]
 3727              	.LVL303:
 3728              		.loc 2 90 18 view .LVU969
 3729              	.LBE528:
 3730              	.LBE537:
 3731              		.loc 1 742 2 is_stmt 1 view .LVU970
 3732              	.LBB538:
 3733              	.LBI534:
 3734              		.loc 2 88 22 view .LVU971
 3735              	.LBB536:
 3736              		.loc 2 90 2 view .LVU972
 3737              		.loc 2 90 25 is_stmt 0 view .LVU973
 3738 0038 8283     		strh	r2, [r0, #28]	@ movhi
 3739              	.LBE536:
 3740              	.LBE538:
 3741              		.loc 1 742 9 view .LVU974
 3742 003a 31F81450 		ldrh	r5, [r1, r4, lsl #1]
 3743              	.LVL304:
 3744              		.loc 1 743 2 is_stmt 1 view .LVU975
 3745              		.loc 1 744 2 view .LVU976
 3746              		.loc 1 745 2 view .LVU977
 3747              		.loc 1 746 2 view .LVU978
 3748              		.loc 1 748 2 view .LVU979
 3749              		.loc 1 748 5 is_stmt 0 view .LVU980
 3750 003e 2DB3     		cbz	r5, .L242
 3751              		.loc 1 737 9 view .LVU981
 3752 0040 9BB2     		uxth	r3, r3
 3753              	.LVL305:
 3754              		.loc 1 737 9 view .LVU982
 3755 0042 1D44     		add	r5, r5, r3
 3756              	.LVL306:
 3757              		.loc 1 756 18 view .LVU983
 3758 0044 1FFA8EFE 		uxth	lr, lr
 3759              		.loc 1 761 18 view .LVU984
 3760 0048 1FFA8CFC 		uxth	ip, ip
 3761              		.loc 1 744 9 view .LVU985
 3762 004c 154F     		ldr	r7, .L254+4
ARM GAS  /tmp/cchqCFfA.s 			page 67


 3763 004e ADB2     		uxth	r5, r5
 3764              		.loc 1 756 18 view .LVU986
 3765 0050 4FEA4E0E 		lsl	lr, lr, #1
 3766              	.LVL307:
 3767              		.loc 1 761 18 view .LVU987
 3768 0054 4FEA4C0C 		lsl	ip, ip, #1
 3769              	.LVL308:
 3770              		.loc 1 756 27 view .LVU988
 3771 0058 6FEA0308 		mvn	r8, r3
 3772              		.loc 1 743 9 view .LVU989
 3773 005c 47F6FF76 		movw	r6, #32767
 3774              	.LVL309:
 3775              	.L246:
 3776              		.loc 1 752 4 is_stmt 1 view .LVU990
 3777              		.loc 1 752 12 is_stmt 0 view .LVU991
 3778 0060 C168     		ldr	r1, [r0, #12]
 3779              		.loc 1 752 8 view .LVU992
 3780 0062 31F91320 		ldrsh	r2, [r1, r3, lsl #1]
 3781              		.loc 1 752 27 view .LVU993
 3782 0066 5C1C     		adds	r4, r3, #1
 3783              		.loc 1 753 7 view .LVU994
 3784 0068 B242     		cmp	r2, r6
 3785              		.loc 1 752 27 view .LVU995
 3786 006a A3B2     		uxth	r3, r4
 3787              	.LVL310:
 3788              		.loc 1 753 4 is_stmt 1 view .LVU996
 3789              		.loc 1 753 7 is_stmt 0 view .LVU997
 3790 006c 04DA     		bge	.L244
 3791              		.loc 1 755 5 is_stmt 1 view .LVU998
 3792              	.LVL311:
 3793              		.loc 1 756 5 view .LVU999
 3794              		.loc 1 756 27 is_stmt 0 view .LVU1000
 3795 006e 03EB0804 		add	r4, r3, r8
 3796 0072 21F80E40 		strh	r4, [r1, lr]	@ movhi
 3797 0076 1646     		mov	r6, r2
 3798              	.LVL312:
 3799              	.L244:
 3800              		.loc 1 758 4 is_stmt 1 view .LVU1001
 3801              		.loc 1 758 7 is_stmt 0 view .LVU1002
 3802 0078 BA42     		cmp	r2, r7
 3803 007a 05DD     		ble	.L245
 3804              		.loc 1 760 5 is_stmt 1 view .LVU1003
 3805              	.LVL313:
 3806              		.loc 1 761 5 view .LVU1004
 3807              		.loc 1 761 27 is_stmt 0 view .LVU1005
 3808 007c C168     		ldr	r1, [r0, #12]
 3809 007e 03EB0804 		add	r4, r3, r8
 3810 0082 21F80C40 		strh	r4, [r1, ip]	@ movhi
 3811 0086 1746     		mov	r7, r2
 3812              	.LVL314:
 3813              	.L245:
 3814              		.loc 1 750 27 is_stmt 1 discriminator 2 view .LVU1006
 3815              		.loc 1 750 15 discriminator 2 view .LVU1007
 3816              		.loc 1 750 3 is_stmt 0 discriminator 2 view .LVU1008
 3817 0088 AB42     		cmp	r3, r5
 3818 008a E9D1     		bne	.L246
 3819              	.LVL315:
ARM GAS  /tmp/cchqCFfA.s 			page 68


 3820              	.L242:
 3821              		.loc 1 765 1 view .LVU1009
 3822 008c 044B     		ldr	r3, .L254
 3823 008e 1A68     		ldr	r2, [r3]
 3824 0090 019B     		ldr	r3, [sp, #4]
 3825 0092 5A40     		eors	r2, r3, r2
 3826 0094 02D1     		bne	.L253
 3827 0096 02B0     		add	sp, sp, #8
 3828              		.cfi_remember_state
 3829              		.cfi_def_cfa_offset 24
 3830              		@ sp needed
 3831 0098 BDE8F081 		pop	{r4, r5, r6, r7, r8, pc}
 3832              	.L253:
 3833              		.cfi_restore_state
 3834 009c FFF7FEFF 		bl	__stack_chk_fail
 3835              	.LVL316:
 3836              	.L255:
 3837              		.loc 1 765 1 view .LVU1010
 3838              		.align	2
 3839              	.L254:
 3840 00a0 00000000 		.word	.LC18
 3841 00a4 0080FFFF 		.word	-32768
 3842              		.cfi_endproc
 3843              	.LFE18:
 3844              		.size	AsebaNative_vecargbounds, .-AsebaNative_vecargbounds
 3845              		.section	.rodata.AsebaNative_vecsort.cst4,"aM",%progbits,4
 3846              		.align	2
 3847              	.LC19:
 3848 0000 00000000 		.word	__stack_chk_guard
 3849              		.section	.text.AsebaNative_vecsort,"ax",%progbits
 3850              		.align	1
 3851              		.p2align 4,,15
 3852              		.global	AsebaNative_vecsort
 3853              		.syntax unified
 3854              		.thumb
 3855              		.thumb_func
 3856              		.fpu fpv4-sp-d16
 3857              		.type	AsebaNative_vecsort, %function
 3858              	AsebaNative_vecsort:
 3859              	.LVL317:
 3860              	.LFB19:
 3861              		.loc 1 781 1 is_stmt 1 view -0
 3862              		.cfi_startproc
 3863              		@ args = 0, pretend = 0, frame = 8
 3864              		@ frame_needed = 0, uses_anonymous_args = 0
 3865              		.loc 1 781 1 is_stmt 0 view .LVU1012
 3866 0000 30B5     		push	{r4, r5, lr}
 3867              		.cfi_def_cfa_offset 12
 3868              		.cfi_offset 4, -12
 3869              		.cfi_offset 5, -8
 3870              		.cfi_offset 14, -4
 3871 0002 114B     		ldr	r3, .L261
 3872              	.LBB539:
 3873              	.LBB540:
 3874              		.loc 2 90 21 view .LVU1013
 3875 0004 B0F91C10 		ldrsh	r1, [r0, #28]
 3876              	.LBE540:
ARM GAS  /tmp/cchqCFfA.s 			page 69


 3877              	.LBE539:
 3878              		.loc 1 783 15 view .LVU1014
 3879 0008 4469     		ldr	r4, [r0, #20]
 3880              		.loc 1 781 1 view .LVU1015
 3881 000a 83B0     		sub	sp, sp, #12
 3882              		.cfi_def_cfa_offset 24
 3883              		.loc 1 781 1 view .LVU1016
 3884 000c 1B68     		ldr	r3, [r3]
 3885 000e 0193     		str	r3, [sp, #4]
 3886 0010 4FF00003 		mov	r3,#0
 3887              		.loc 1 783 2 is_stmt 1 view .LVU1017
 3888              	.LBB542:
 3889              	.LBI539:
 3890              		.loc 2 88 22 view .LVU1018
 3891              	.LVL318:
 3892              	.LBB541:
 3893              		.loc 2 90 2 view .LVU1019
 3894              		.loc 2 90 25 is_stmt 0 view .LVU1020
 3895 0014 8BB2     		uxth	r3, r1
 3896 0016 5A1E     		subs	r2, r3, #1
 3897 0018 12B2     		sxth	r2, r2
 3898 001a 8283     		strh	r2, [r0, #28]	@ movhi
 3899              	.LBE541:
 3900              	.LBE542:
 3901              	.LBB543:
 3902              	.LBB544:
 3903 001c 023B     		subs	r3, r3, #2
 3904              	.LBE544:
 3905              	.LBE543:
 3906              		.loc 1 783 9 view .LVU1021
 3907 001e 34F81150 		ldrh	r5, [r4, r1, lsl #1]
 3908              	.LVL319:
 3909              		.loc 1 786 2 is_stmt 1 view .LVU1022
 3910              	.LBB546:
 3911              	.LBI543:
 3912              		.loc 2 88 22 view .LVU1023
 3913              	.LBB545:
 3914              		.loc 2 90 2 view .LVU1024
 3915              		.loc 2 90 25 is_stmt 0 view .LVU1025
 3916 0022 8383     		strh	r3, [r0, #28]	@ movhi
 3917              	.LVL320:
 3918              		.loc 2 90 25 view .LVU1026
 3919              	.LBE545:
 3920              	.LBE546:
 3921              		.loc 1 788 2 is_stmt 1 view .LVU1027
 3922 0024 084B     		ldr	r3, .L261
 3923 0026 1968     		ldr	r1, [r3]
 3924 0028 019B     		ldr	r3, [sp, #4]
 3925 002a 5940     		eors	r1, r3, r1
 3926 002c 09D1     		bne	.L260
 3927 002e C068     		ldr	r0, [r0, #12]
 3928              	.LVL321:
 3929              		.loc 1 788 2 is_stmt 0 view .LVU1028
 3930 0030 34F81210 		ldrh	r1, [r4, r2, lsl #1]
 3931 0034 00EB4500 		add	r0, r0, r5, lsl #1
 3932              		.loc 1 789 1 view .LVU1029
 3933 0038 03B0     		add	sp, sp, #12
ARM GAS  /tmp/cchqCFfA.s 			page 70


 3934              		.cfi_remember_state
 3935              		.cfi_def_cfa_offset 12
 3936              		@ sp needed
 3937 003a BDE83040 		pop	{r4, r5, lr}
 3938              		.cfi_restore 14
 3939              		.cfi_restore 5
 3940              		.cfi_restore 4
 3941              		.cfi_def_cfa_offset 0
 3942              	.LVL322:
 3943              		.loc 1 788 2 view .LVU1030
 3944 003e FFF7FEBF 		b	aseba_comb_sort
 3945              	.LVL323:
 3946              	.L260:
 3947              		.cfi_restore_state
 3948              		.loc 1 788 2 view .LVU1031
 3949 0042 FFF7FEFF 		bl	__stack_chk_fail
 3950              	.LVL324:
 3951              	.L262:
 3952              		.loc 1 788 2 view .LVU1032
 3953 0046 00BF     		.align	2
 3954              	.L261:
 3955 0048 00000000 		.word	.LC19
 3956              		.cfi_endproc
 3957              	.LFE19:
 3958              		.size	AsebaNative_vecsort, .-AsebaNative_vecsort
 3959              		.section	.rodata.AsebaNative_mathmuldiv.cst4,"aM",%progbits,4
 3960              		.align	2
 3961              	.LC20:
 3962 0000 00000000 		.word	__stack_chk_guard
 3963              		.section	.text.AsebaNative_mathmuldiv,"ax",%progbits
 3964              		.align	1
 3965              		.p2align 4,,15
 3966              		.global	AsebaNative_mathmuldiv
 3967              		.syntax unified
 3968              		.thumb
 3969              		.thumb_func
 3970              		.fpu fpv4-sp-d16
 3971              		.type	AsebaNative_mathmuldiv, %function
 3972              	AsebaNative_mathmuldiv:
 3973              	.LVL325:
 3974              	.LFB20:
 3975              		.loc 1 803 1 is_stmt 1 view -0
 3976              		.cfi_startproc
 3977              		@ args = 0, pretend = 0, frame = 8
 3978              		@ frame_needed = 0, uses_anonymous_args = 0
 3979              		.loc 1 803 1 is_stmt 0 view .LVU1034
 3980 0000 2DE9F043 		push	{r4, r5, r6, r7, r8, r9, lr}
 3981              		.cfi_def_cfa_offset 28
 3982              		.cfi_offset 4, -28
 3983              		.cfi_offset 5, -24
 3984              		.cfi_offset 6, -20
 3985              		.cfi_offset 7, -16
 3986              		.cfi_offset 8, -12
 3987              		.cfi_offset 9, -8
 3988              		.cfi_offset 14, -4
 3989              	.LBB547:
 3990              	.LBB548:
ARM GAS  /tmp/cchqCFfA.s 			page 71


 3991              		.loc 2 90 21 view .LVU1035
 3992 0004 B0F91C40 		ldrsh	r4, [r0, #28]
 3993              	.LBE548:
 3994              	.LBE547:
 3995              		.loc 1 803 1 view .LVU1036
 3996 0008 2F4B     		ldr	r3, .L275
 3997              		.loc 1 805 21 view .LVU1037
 3998 000a 4169     		ldr	r1, [r0, #20]
 3999              	.LBB552:
 4000              	.LBB549:
 4001              		.loc 2 90 25 view .LVU1038
 4002 000c A2B2     		uxth	r2, r4
 4003              	.LBE549:
 4004              	.LBE552:
 4005              		.loc 1 803 1 view .LVU1039
 4006 000e 83B0     		sub	sp, sp, #12
 4007              		.cfi_def_cfa_offset 40
 4008              		.loc 1 803 1 view .LVU1040
 4009 0010 1B68     		ldr	r3, [r3]
 4010 0012 0193     		str	r3, [sp, #4]
 4011 0014 4FF00003 		mov	r3,#0
 4012              		.loc 1 805 2 is_stmt 1 view .LVU1041
 4013              	.LBB553:
 4014              	.LBI547:
 4015              		.loc 2 88 22 view .LVU1042
 4016              	.LVL326:
 4017              	.LBB550:
 4018              		.loc 2 90 2 view .LVU1043
 4019              		.loc 2 90 25 is_stmt 0 view .LVU1044
 4020 0018 531E     		subs	r3, r2, #1
 4021 001a 1BB2     		sxth	r3, r3
 4022              	.LBE550:
 4023              	.LBE553:
 4024              	.LBB554:
 4025              	.LBB555:
 4026 001c 961E     		subs	r6, r2, #2
 4027              	.LBE555:
 4028              	.LBE554:
 4029              	.LBB558:
 4030              	.LBB551:
 4031 001e 8383     		strh	r3, [r0, #28]	@ movhi
 4032              	.LBE551:
 4033              	.LBE558:
 4034              	.LBB559:
 4035              	.LBB556:
 4036 0020 36B2     		sxth	r6, r6
 4037              	.LBE556:
 4038              	.LBE559:
 4039              	.LBB560:
 4040              	.LBB561:
 4041 0022 D51E     		subs	r5, r2, #3
 4042              	.LBE561:
 4043              	.LBE560:
 4044              		.loc 1 805 9 view .LVU1045
 4045 0024 31F814C0 		ldrh	ip, [r1, r4, lsl #1]
 4046              	.LVL327:
 4047              		.loc 1 806 2 is_stmt 1 view .LVU1046
ARM GAS  /tmp/cchqCFfA.s 			page 72


 4048              	.LBB564:
 4049              	.LBI554:
 4050              		.loc 2 88 22 view .LVU1047
 4051              	.LBB557:
 4052              		.loc 2 90 2 view .LVU1048
 4053              		.loc 2 90 25 is_stmt 0 view .LVU1049
 4054 0028 8683     		strh	r6, [r0, #28]	@ movhi
 4055              	.LBE557:
 4056              	.LBE564:
 4057              	.LBB565:
 4058              	.LBB562:
 4059 002a 2DB2     		sxth	r5, r5
 4060              	.LBE562:
 4061              	.LBE565:
 4062              	.LBB566:
 4063              	.LBB567:
 4064 002c 141F     		subs	r4, r2, #4
 4065              	.LBE567:
 4066              	.LBE566:
 4067              		.loc 1 806 9 view .LVU1050
 4068 002e 31F81330 		ldrh	r3, [r1, r3, lsl #1]
 4069              	.LVL328:
 4070              		.loc 1 807 2 is_stmt 1 view .LVU1051
 4071              	.LBB570:
 4072              	.LBI560:
 4073              		.loc 2 88 22 view .LVU1052
 4074              	.LBB563:
 4075              		.loc 2 90 2 view .LVU1053
 4076              		.loc 2 90 25 is_stmt 0 view .LVU1054
 4077 0032 8583     		strh	r5, [r0, #28]	@ movhi
 4078              	.LBE563:
 4079              	.LBE570:
 4080              	.LBB571:
 4081              	.LBB568:
 4082 0034 24B2     		sxth	r4, r4
 4083              	.LBE568:
 4084              	.LBE571:
 4085              		.loc 1 807 9 view .LVU1055
 4086 0036 31F81660 		ldrh	r6, [r1, r6, lsl #1]
 4087              	.LVL329:
 4088              		.loc 1 808 2 is_stmt 1 view .LVU1056
 4089              	.LBB572:
 4090              	.LBI566:
 4091              		.loc 2 88 22 view .LVU1057
 4092              	.LBB569:
 4093              		.loc 2 90 2 view .LVU1058
 4094              		.loc 2 90 25 is_stmt 0 view .LVU1059
 4095 003a 8483     		strh	r4, [r0, #28]	@ movhi
 4096              	.LBE569:
 4097              	.LBE572:
 4098              	.LBB573:
 4099              	.LBB574:
 4100 003c 053A     		subs	r2, r2, #5
 4101              	.LBE574:
 4102              	.LBE573:
 4103              		.loc 1 808 9 view .LVU1060
 4104 003e 31F81570 		ldrh	r7, [r1, r5, lsl #1]
ARM GAS  /tmp/cchqCFfA.s 			page 73


 4105              	.LVL330:
 4106              		.loc 1 811 2 is_stmt 1 view .LVU1061
 4107              	.LBB576:
 4108              	.LBI573:
 4109              		.loc 2 88 22 view .LVU1062
 4110              	.LBB575:
 4111              		.loc 2 90 2 view .LVU1063
 4112              		.loc 2 90 25 is_stmt 0 view .LVU1064
 4113 0042 8283     		strh	r2, [r0, #28]	@ movhi
 4114              	.LBE575:
 4115              	.LBE576:
 4116              		.loc 1 811 9 view .LVU1065
 4117 0044 31F81450 		ldrh	r5, [r1, r4, lsl #1]
 4118              	.LVL331:
 4119              		.loc 1 813 2 is_stmt 1 view .LVU1066
 4120              		.loc 1 814 2 view .LVU1067
 4121              		.loc 1 814 14 view .LVU1068
 4122              		.loc 1 814 2 is_stmt 0 view .LVU1069
 4123 0048 A5B3     		cbz	r5, .L263
 4124 004a 1D44     		add	r5, r5, r3
 4125              	.LVL332:
 4126              		.loc 1 814 2 view .LVU1070
 4127 004c ADB2     		uxth	r5, r5
 4128 004e ACEB030C 		sub	ip, ip, r3
 4129              	.LVL333:
 4130              		.loc 1 814 2 view .LVU1071
 4131 0052 FF1A     		subs	r7, r7, r3
 4132              	.LVL334:
 4133              		.loc 1 814 2 view .LVU1072
 4134 0054 F61A     		subs	r6, r6, r3
 4135              	.LVL335:
 4136              		.loc 1 814 2 view .LVU1073
 4137 0056 07E0     		b	.L267
 4138              	.LVL336:
 4139              	.L274:
 4140              	.LBB577:
 4141              		.loc 1 821 4 is_stmt 1 view .LVU1074
 4142              		.loc 1 821 4 is_stmt 0 view .LVU1075
 4143              	.LBE577:
 4144              		.loc 1 814 2 view .LVU1076
 4145 0058 AB42     		cmp	r3, r5
 4146              	.LBB578:
 4147              		.loc 1 821 45 view .LVU1077
 4148 005a 02FB04F2 		mul	r2, r2, r4
 4149              	.LVL337:
 4150              		.loc 1 821 50 view .LVU1078
 4151 005e 92FBF8F2 		sdiv	r2, r2, r8
 4152              		.loc 1 821 33 view .LVU1079
 4153 0062 21F81E20 		strh	r2, [r1, lr, lsl #1]	@ movhi
 4154              	.LVL338:
 4155              		.loc 1 821 33 view .LVU1080
 4156              	.LBE578:
 4157              		.loc 1 814 26 is_stmt 1 view .LVU1081
 4158              		.loc 1 814 14 view .LVU1082
 4159              		.loc 1 814 2 is_stmt 0 view .LVU1083
 4160 0066 25D0     		beq	.L263
 4161              	.LVL339:
ARM GAS  /tmp/cchqCFfA.s 			page 74


 4162              	.L267:
 4163              		.loc 1 814 2 view .LVU1084
 4164 0068 DA19     		adds	r2, r3, r7
 4165              	.LBB579:
 4166              		.loc 1 816 24 view .LVU1085
 4167 006a C168     		ldr	r1, [r0, #12]
 4168 006c 92B2     		uxth	r2, r2
 4169 006e 9C19     		adds	r4, r3, r6
 4170              		.loc 1 818 10 view .LVU1086
 4171 0070 31F91280 		ldrsh	r8, [r1, r2, lsl #1]
 4172              		.loc 1 816 35 view .LVU1087
 4173 0074 31F91320 		ldrsh	r2, [r1, r3, lsl #1]
 4174 0078 A4B2     		uxth	r4, r4
 4175              	.LVL340:
 4176              		.loc 1 816 35 view .LVU1088
 4177 007a 03EB0C0E 		add	lr, r3, ip
 4178              		.loc 1 816 42 view .LVU1089
 4179 007e 03F10109 		add	r9, r3, #1
 4180              		.loc 1 817 35 view .LVU1090
 4181 0082 31F91440 		ldrsh	r4, [r1, r4, lsl #1]
 4182              	.LVL341:
 4183              		.loc 1 817 35 view .LVU1091
 4184 0086 1FFA8EFE 		uxth	lr, lr
 4185              	.LVL342:
 4186              		.loc 1 816 3 is_stmt 1 view .LVU1092
 4187              		.loc 1 816 42 is_stmt 0 view .LVU1093
 4188 008a 1FFA89F3 		uxth	r3, r9
 4189              	.LVL343:
 4190              		.loc 1 817 3 is_stmt 1 view .LVU1094
 4191              		.loc 1 818 3 view .LVU1095
 4192              		.loc 1 819 3 view .LVU1096
 4193              		.loc 1 819 6 is_stmt 0 view .LVU1097
 4194 008e B8F1000F 		cmp	r8, #0
 4195 0092 E1D1     		bne	.L274
 4196              		.loc 1 825 4 is_stmt 1 view .LVU1098
 4197              		.loc 1 826 4 is_stmt 0 view .LVU1099
 4198 0094 0C4A     		ldr	r2, .L275
 4199              	.LVL344:
 4200              		.loc 1 825 14 view .LVU1100
 4201 0096 0223     		movs	r3, #2
 4202              	.LVL345:
 4203              		.loc 1 825 14 view .LVU1101
 4204 0098 0383     		strh	r3, [r0, #24]	@ movhi
 4205              	.LVL346:
 4206              		.loc 1 826 4 is_stmt 1 view .LVU1102
 4207 009a 1168     		ldr	r1, [r2]
 4208 009c 019A     		ldr	r2, [sp, #4]
 4209 009e 5140     		eors	r1, r2, r1
 4210 00a0 10D1     		bne	.L273
 4211 00a2 00F11A02 		add	r2, r0, #26
 4212 00a6 49F20701 		movw	r1, #36871
 4213              	.LBE579:
 4214              		.loc 1 830 1 is_stmt 0 view .LVU1103
 4215 00aa 03B0     		add	sp, sp, #12
 4216              		.cfi_remember_state
 4217              		.cfi_def_cfa_offset 28
 4218              		@ sp needed
ARM GAS  /tmp/cchqCFfA.s 			page 75


 4219 00ac BDE8F043 		pop	{r4, r5, r6, r7, r8, r9, lr}
 4220              		.cfi_restore 14
 4221              		.cfi_restore 9
 4222              		.cfi_restore 8
 4223              		.cfi_restore 7
 4224              		.cfi_restore 6
 4225              		.cfi_restore 5
 4226              		.cfi_restore 4
 4227              		.cfi_def_cfa_offset 0
 4228              	.LVL347:
 4229              	.LBB580:
 4230              		.loc 1 826 4 view .LVU1104
 4231 00b0 FFF7FEBF 		b	AsebaSendMessage
 4232              	.LVL348:
 4233              	.L263:
 4234              		.cfi_restore_state
 4235              		.loc 1 826 4 view .LVU1105
 4236              	.LBE580:
 4237              		.loc 1 830 1 view .LVU1106
 4238 00b4 044B     		ldr	r3, .L275
 4239              	.LVL349:
 4240              		.loc 1 830 1 view .LVU1107
 4241 00b6 1A68     		ldr	r2, [r3]
 4242 00b8 019B     		ldr	r3, [sp, #4]
 4243 00ba 5A40     		eors	r2, r3, r2
 4244 00bc 02D1     		bne	.L273
 4245 00be 03B0     		add	sp, sp, #12
 4246              		.cfi_remember_state
 4247              		.cfi_def_cfa_offset 28
 4248              		@ sp needed
 4249 00c0 BDE8F083 		pop	{r4, r5, r6, r7, r8, r9, pc}
 4250              	.L273:
 4251              		.cfi_restore_state
 4252              		.loc 1 830 1 view .LVU1108
 4253 00c4 FFF7FEFF 		bl	__stack_chk_fail
 4254              	.LVL350:
 4255              	.L276:
 4256              		.loc 1 830 1 view .LVU1109
 4257              		.align	2
 4258              	.L275:
 4259 00c8 00000000 		.word	.LC20
 4260              		.cfi_endproc
 4261              	.LFE20:
 4262              		.size	AsebaNative_mathmuldiv, .-AsebaNative_mathmuldiv
 4263              		.section	.rodata.AsebaNative_mathatan2.cst4,"aM",%progbits,4
 4264              		.align	2
 4265              	.LC21:
 4266 0000 00000000 		.word	__stack_chk_guard
 4267              		.section	.text.AsebaNative_mathatan2,"ax",%progbits
 4268              		.align	1
 4269              		.p2align 4,,15
 4270              		.global	AsebaNative_mathatan2
 4271              		.syntax unified
 4272              		.thumb
 4273              		.thumb_func
 4274              		.fpu fpv4-sp-d16
 4275              		.type	AsebaNative_mathatan2, %function
ARM GAS  /tmp/cchqCFfA.s 			page 76


 4276              	AsebaNative_mathatan2:
 4277              	.LVL351:
 4278              	.LFB21:
 4279              		.loc 1 846 1 is_stmt 1 view -0
 4280              		.cfi_startproc
 4281              		@ args = 0, pretend = 0, frame = 8
 4282              		@ frame_needed = 0, uses_anonymous_args = 0
 4283              		.loc 1 846 1 is_stmt 0 view .LVU1111
 4284 0000 2DE9F04F 		push	{r4, r5, r6, r7, r8, r9, r10, fp, lr}
 4285              		.cfi_def_cfa_offset 36
 4286              		.cfi_offset 4, -36
 4287              		.cfi_offset 5, -32
 4288              		.cfi_offset 6, -28
 4289              		.cfi_offset 7, -24
 4290              		.cfi_offset 8, -20
 4291              		.cfi_offset 9, -16
 4292              		.cfi_offset 10, -12
 4293              		.cfi_offset 11, -8
 4294              		.cfi_offset 14, -4
 4295 0004 284B     		ldr	r3, .L291
 4296              	.LBB581:
 4297              	.LBB582:
 4298              		.loc 2 90 21 view .LVU1112
 4299 0006 B0F91C50 		ldrsh	r5, [r0, #28]
 4300              	.LBE582:
 4301              	.LBE581:
 4302              		.loc 1 848 21 view .LVU1113
 4303 000a 4269     		ldr	r2, [r0, #20]
 4304              		.loc 1 846 1 view .LVU1114
 4305 000c 83B0     		sub	sp, sp, #12
 4306              		.cfi_def_cfa_offset 48
 4307              		.loc 1 846 1 view .LVU1115
 4308 000e 1B68     		ldr	r3, [r3]
 4309 0010 0193     		str	r3, [sp, #4]
 4310 0012 4FF00003 		mov	r3,#0
 4311              		.loc 1 848 2 is_stmt 1 view .LVU1116
 4312              	.LBB586:
 4313              	.LBB583:
 4314              		.loc 2 90 25 is_stmt 0 view .LVU1117
 4315 0016 ABB2     		uxth	r3, r5
 4316              	.LBE583:
 4317              	.LBE586:
 4318              		.loc 1 846 1 view .LVU1118
 4319 0018 0746     		mov	r7, r0
 4320              	.LBB587:
 4321              	.LBI581:
 4322              		.loc 2 88 22 is_stmt 1 view .LVU1119
 4323              	.LVL352:
 4324              	.LBB584:
 4325              		.loc 2 90 2 view .LVU1120
 4326              		.loc 2 90 25 is_stmt 0 view .LVU1121
 4327 001a 5C1E     		subs	r4, r3, #1
 4328 001c 24B2     		sxth	r4, r4
 4329              	.LBE584:
 4330              	.LBE587:
 4331              	.LBB588:
 4332              	.LBB589:
ARM GAS  /tmp/cchqCFfA.s 			page 77


 4333 001e 981E     		subs	r0, r3, #2
 4334              	.LVL353:
 4335              		.loc 2 90 25 view .LVU1122
 4336              	.LBE589:
 4337              	.LBE588:
 4338              	.LBB593:
 4339              	.LBB585:
 4340 0020 BC83     		strh	r4, [r7, #28]	@ movhi
 4341              	.LBE585:
 4342              	.LBE593:
 4343              	.LBB594:
 4344              	.LBB590:
 4345 0022 00B2     		sxth	r0, r0
 4346              	.LBE590:
 4347              	.LBE594:
 4348              	.LBB595:
 4349              	.LBB596:
 4350 0024 D91E     		subs	r1, r3, #3
 4351              	.LBE596:
 4352              	.LBE595:
 4353              		.loc 1 848 9 view .LVU1123
 4354 0026 32F815A0 		ldrh	r10, [r2, r5, lsl #1]
 4355              	.LVL354:
 4356              		.loc 1 849 2 is_stmt 1 view .LVU1124
 4357              	.LBB600:
 4358              	.LBI588:
 4359              		.loc 2 88 22 view .LVU1125
 4360              	.LBB591:
 4361              		.loc 2 90 2 view .LVU1126
 4362              		.loc 2 90 25 is_stmt 0 view .LVU1127
 4363 002a B883     		strh	r0, [r7, #28]	@ movhi
 4364              	.LBE591:
 4365              	.LBE600:
 4366              	.LBB601:
 4367              	.LBB597:
 4368 002c 09B2     		sxth	r1, r1
 4369              	.LBE597:
 4370              	.LBE601:
 4371              	.LBB602:
 4372              	.LBB592:
 4373              		.loc 2 90 18 view .LVU1128
 4374 002e 32F91450 		ldrsh	r5, [r2, r4, lsl #1]
 4375              	.LVL355:
 4376              		.loc 2 90 18 view .LVU1129
 4377              	.LBE592:
 4378              	.LBE602:
 4379              		.loc 1 850 2 is_stmt 1 view .LVU1130
 4380              	.LBB603:
 4381              	.LBI595:
 4382              		.loc 2 88 22 view .LVU1131
 4383              	.LBB598:
 4384              		.loc 2 90 2 view .LVU1132
 4385              		.loc 2 90 25 is_stmt 0 view .LVU1133
 4386 0032 B983     		strh	r1, [r7, #28]	@ movhi
 4387              	.LBE598:
 4388              	.LBE603:
 4389              	.LBB604:
ARM GAS  /tmp/cchqCFfA.s 			page 78


 4390              	.LBB605:
 4391 0034 043B     		subs	r3, r3, #4
 4392              	.LBE605:
 4393              	.LBE604:
 4394              	.LBB607:
 4395              	.LBB599:
 4396              		.loc 2 90 18 view .LVU1134
 4397 0036 32F910B0 		ldrsh	fp, [r2, r0, lsl #1]
 4398              	.LVL356:
 4399              		.loc 2 90 18 view .LVU1135
 4400              	.LBE599:
 4401              	.LBE607:
 4402              		.loc 1 853 2 is_stmt 1 view .LVU1136
 4403              	.LBB608:
 4404              	.LBI604:
 4405              		.loc 2 88 22 view .LVU1137
 4406              	.LBB606:
 4407              		.loc 2 90 2 view .LVU1138
 4408              		.loc 2 90 25 is_stmt 0 view .LVU1139
 4409 003a BB83     		strh	r3, [r7, #28]	@ movhi
 4410              	.LBE606:
 4411              	.LBE608:
 4412              		.loc 1 853 9 view .LVU1140
 4413 003c 32F81120 		ldrh	r2, [r2, r1, lsl #1]
 4414              	.LVL357:
 4415              		.loc 1 855 2 is_stmt 1 view .LVU1141
 4416              		.loc 1 856 2 view .LVU1142
 4417              		.loc 1 856 14 view .LVU1143
 4418              		.loc 1 856 2 is_stmt 0 view .LVU1144
 4419 0040 42B3     		cbz	r2, .L277
 4420 0042 ABB2     		uxth	r3, r5
 4421 0044 02EB0308 		add	r8, r2, r3
 4422              	.LBB609:
 4423              	.LBB610:
 4424              	.LBB611:
 4425              		.loc 1 76 11 view .LVU1145
 4426 0048 DFF86090 		ldr	r9, .L291+4
 4427 004c 0FFA88F8 		sxth	r8, r8
 4428 0050 ABEB030B 		sub	fp, fp, r3
 4429              	.LVL358:
 4430              		.loc 1 76 11 view .LVU1146
 4431 0054 AAEB030A 		sub	r10, r10, r3
 4432              	.LVL359:
 4433              		.loc 1 76 11 view .LVU1147
 4434 0058 08E0     		b	.L281
 4435              	.LVL360:
 4436              	.L288:
 4437              		.loc 1 73 3 is_stmt 1 view .LVU1148
 4438              		.loc 1 76 11 is_stmt 0 view .LVU1149
 4439 005a 30EA2100 		bics	r0, r0, r1, asr #32
 4440 005e 28BF     		it	cs
 4441 0060 4846     		movcs	r0, r9
 4442              	.LVL361:
 4443              		.loc 1 76 11 view .LVU1150
 4444              	.LBE611:
 4445              	.LBE610:
 4446              	.LBE609:
ARM GAS  /tmp/cchqCFfA.s 			page 79


 4447              		.loc 1 856 2 view .LVU1151
 4448 0062 4545     		cmp	r5, r8
 4449              	.LBB614:
 4450              		.loc 1 860 30 view .LVU1152
 4451 0064 26F81400 		strh	r0, [r6, r4, lsl #1]	@ movhi
 4452              		.loc 1 860 30 view .LVU1153
 4453              	.LBE614:
 4454              		.loc 1 856 26 is_stmt 1 view .LVU1154
 4455              		.loc 1 856 14 view .LVU1155
 4456              		.loc 1 856 2 is_stmt 0 view .LVU1156
 4457 0068 14D0     		beq	.L277
 4458              	.LVL362:
 4459              	.L289:
 4460              		.loc 1 856 2 view .LVU1157
 4461 006a ABB2     		uxth	r3, r5
 4462              	.L281:
 4463              	.LBB615:
 4464              		.loc 1 858 3 is_stmt 1 discriminator 3 view .LVU1158
 4465              		.loc 1 858 16 is_stmt 0 discriminator 3 view .LVU1159
 4466 006c FE68     		ldr	r6, [r7, #12]
 4467              		.loc 1 859 27 discriminator 3 view .LVU1160
 4468 006e 03EB0B02 		add	r2, r3, fp
 4469              		.loc 1 858 10 discriminator 3 view .LVU1161
 4470 0072 36F91500 		ldrsh	r0, [r6, r5, lsl #1]
 4471              		.loc 1 859 27 discriminator 3 view .LVU1162
 4472 0076 12B2     		sxth	r2, r2
 4473 0078 5D1C     		adds	r5, r3, #1
 4474              	.LVL363:
 4475              		.loc 1 860 26 discriminator 3 view .LVU1163
 4476 007a 5344     		add	r3, r3, r10
 4477              		.loc 1 859 10 discriminator 3 view .LVU1164
 4478 007c 36F91210 		ldrsh	r1, [r6, r2, lsl #1]
 4479 0080 2DB2     		sxth	r5, r5
 4480              	.LVL364:
 4481              		.loc 1 859 3 is_stmt 1 discriminator 3 view .LVU1165
 4482              		.loc 1 860 3 discriminator 3 view .LVU1166
 4483              		.loc 1 860 26 is_stmt 0 discriminator 3 view .LVU1167
 4484 0082 9CB2     		uxth	r4, r3
 4485              	.LVL365:
 4486              	.LBB613:
 4487              	.LBI610:
 4488              		.loc 1 69 8 is_stmt 1 discriminator 3 view .LVU1168
 4489              	.LBB612:
 4490              		.loc 1 71 2 discriminator 3 view .LVU1169
 4491              		.loc 1 71 5 is_stmt 0 discriminator 3 view .LVU1170
 4492 0084 0028     		cmp	r0, #0
 4493 0086 E8D0     		beq	.L288
 4494 0088 FFF7FEFF 		bl	aseba_atan2.part.0
 4495              	.LVL366:
 4496              		.loc 1 71 5 discriminator 3 view .LVU1171
 4497              	.LBE612:
 4498              	.LBE613:
 4499              	.LBE615:
 4500              		.loc 1 856 2 view .LVU1172
 4501 008c 4545     		cmp	r5, r8
 4502              	.LBB616:
 4503              		.loc 1 860 30 view .LVU1173
ARM GAS  /tmp/cchqCFfA.s 			page 80


 4504 008e 26F81400 		strh	r0, [r6, r4, lsl #1]	@ movhi
 4505              	.LBE616:
 4506              		.loc 1 856 26 is_stmt 1 view .LVU1174
 4507              		.loc 1 856 14 view .LVU1175
 4508              		.loc 1 856 2 is_stmt 0 view .LVU1176
 4509 0092 EAD1     		bne	.L289
 4510              	.L277:
 4511              		.loc 1 862 1 view .LVU1177
 4512 0094 044B     		ldr	r3, .L291
 4513 0096 1A68     		ldr	r2, [r3]
 4514 0098 019B     		ldr	r3, [sp, #4]
 4515 009a 5A40     		eors	r2, r3, r2
 4516 009c 02D1     		bne	.L290
 4517 009e 03B0     		add	sp, sp, #12
 4518              		.cfi_remember_state
 4519              		.cfi_def_cfa_offset 36
 4520              		@ sp needed
 4521 00a0 BDE8F08F 		pop	{r4, r5, r6, r7, r8, r9, r10, fp, pc}
 4522              	.LVL367:
 4523              	.L290:
 4524              		.cfi_restore_state
 4525              		.loc 1 862 1 view .LVU1178
 4526 00a4 FFF7FEFF 		bl	__stack_chk_fail
 4527              	.LVL368:
 4528              	.L292:
 4529              		.align	2
 4530              	.L291:
 4531 00a8 00000000 		.word	.LC21
 4532 00ac 0080FFFF 		.word	-32768
 4533              		.cfi_endproc
 4534              	.LFE21:
 4535              		.size	AsebaNative_mathatan2, .-AsebaNative_mathatan2
 4536              		.section	.rodata.AsebaNative_mathsin.cst4,"aM",%progbits,4
 4537              		.align	2
 4538              	.LC22:
 4539 0000 00000000 		.word	__stack_chk_guard
 4540              		.section	.text.AsebaNative_mathsin,"ax",%progbits
 4541              		.align	1
 4542              		.p2align 4,,15
 4543              		.global	AsebaNative_mathsin
 4544              		.syntax unified
 4545              		.thumb
 4546              		.thumb_func
 4547              		.fpu fpv4-sp-d16
 4548              		.type	AsebaNative_mathsin, %function
 4549              	AsebaNative_mathsin:
 4550              	.LVL369:
 4551              	.LFB22:
 4552              		.loc 1 877 1 is_stmt 1 view -0
 4553              		.cfi_startproc
 4554              		@ args = 0, pretend = 0, frame = 8
 4555              		@ frame_needed = 0, uses_anonymous_args = 0
 4556              		.loc 1 877 1 is_stmt 0 view .LVU1180
 4557 0000 2DE9F043 		push	{r4, r5, r6, r7, r8, r9, lr}
 4558              		.cfi_def_cfa_offset 28
 4559              		.cfi_offset 4, -28
 4560              		.cfi_offset 5, -24
ARM GAS  /tmp/cchqCFfA.s 			page 81


 4561              		.cfi_offset 6, -20
 4562              		.cfi_offset 7, -16
 4563              		.cfi_offset 8, -12
 4564              		.cfi_offset 9, -8
 4565              		.cfi_offset 14, -4
 4566 0004 1C4B     		ldr	r3, .L304
 4567              	.LBB617:
 4568              	.LBB618:
 4569              		.loc 2 90 21 view .LVU1181
 4570 0006 B0F91C40 		ldrsh	r4, [r0, #28]
 4571              	.LBE618:
 4572              	.LBE617:
 4573              		.loc 1 877 1 view .LVU1182
 4574 000a 83B0     		sub	sp, sp, #12
 4575              		.cfi_def_cfa_offset 40
 4576              		.loc 1 877 1 view .LVU1183
 4577 000c 1B68     		ldr	r3, [r3]
 4578 000e 0193     		str	r3, [sp, #4]
 4579 0010 4FF00003 		mov	r3,#0
 4580              		.loc 1 879 2 is_stmt 1 view .LVU1184
 4581              	.LBB623:
 4582              	.LBB619:
 4583              		.loc 2 90 25 is_stmt 0 view .LVU1185
 4584 0014 A3B2     		uxth	r3, r4
 4585              	.LBE619:
 4586              	.LBE623:
 4587              		.loc 1 877 1 view .LVU1186
 4588 0016 0646     		mov	r6, r0
 4589              	.LBB624:
 4590              	.LBB620:
 4591              		.loc 2 90 25 view .LVU1187
 4592 0018 591E     		subs	r1, r3, #1
 4593              	.LBE620:
 4594              	.LBE624:
 4595              		.loc 1 879 21 view .LVU1188
 4596 001a 4069     		ldr	r0, [r0, #20]
 4597              	.LVL370:
 4598              	.LBB625:
 4599              	.LBI617:
 4600              		.loc 2 88 22 is_stmt 1 view .LVU1189
 4601              	.LBB621:
 4602              		.loc 2 90 2 view .LVU1190
 4603              		.loc 2 90 25 is_stmt 0 view .LVU1191
 4604 001c 09B2     		sxth	r1, r1
 4605              	.LBE621:
 4606              	.LBE625:
 4607              	.LBB626:
 4608              	.LBB627:
 4609 001e 9A1E     		subs	r2, r3, #2
 4610              	.LBE627:
 4611              	.LBE626:
 4612              	.LBB631:
 4613              	.LBB622:
 4614 0020 B183     		strh	r1, [r6, #28]	@ movhi
 4615              	.LBE622:
 4616              	.LBE631:
 4617              	.LBB632:
ARM GAS  /tmp/cchqCFfA.s 			page 82


 4618              	.LBB628:
 4619 0022 12B2     		sxth	r2, r2
 4620              	.LBE628:
 4621              	.LBE632:
 4622              		.loc 1 879 9 view .LVU1192
 4623 0024 30F81480 		ldrh	r8, [r0, r4, lsl #1]
 4624              	.LVL371:
 4625              		.loc 1 880 2 is_stmt 1 view .LVU1193
 4626              	.LBB633:
 4627              	.LBI626:
 4628              		.loc 2 88 22 view .LVU1194
 4629              	.LBB629:
 4630              		.loc 2 90 2 view .LVU1195
 4631              		.loc 2 90 25 is_stmt 0 view .LVU1196
 4632 0028 B283     		strh	r2, [r6, #28]	@ movhi
 4633              	.LBE629:
 4634              	.LBE633:
 4635              	.LBB634:
 4636              	.LBB635:
 4637 002a 033B     		subs	r3, r3, #3
 4638              	.LBE635:
 4639              	.LBE634:
 4640              	.LBB637:
 4641              	.LBB630:
 4642              		.loc 2 90 18 view .LVU1197
 4643 002c 30F91140 		ldrsh	r4, [r0, r1, lsl #1]
 4644              	.LVL372:
 4645              		.loc 2 90 18 view .LVU1198
 4646              	.LBE630:
 4647              	.LBE637:
 4648              		.loc 1 883 2 is_stmt 1 view .LVU1199
 4649              	.LBB638:
 4650              	.LBI634:
 4651              		.loc 2 88 22 view .LVU1200
 4652              	.LBB636:
 4653              		.loc 2 90 2 view .LVU1201
 4654              		.loc 2 90 25 is_stmt 0 view .LVU1202
 4655 0030 B383     		strh	r3, [r6, #28]	@ movhi
 4656              	.LBE636:
 4657              	.LBE638:
 4658              		.loc 1 883 9 view .LVU1203
 4659 0032 30F81270 		ldrh	r7, [r0, r2, lsl #1]
 4660              	.LVL373:
 4661              		.loc 1 885 2 is_stmt 1 view .LVU1204
 4662              		.loc 1 886 2 view .LVU1205
 4663              		.loc 1 886 14 view .LVU1206
 4664              		.loc 1 886 2 is_stmt 0 view .LVU1207
 4665 0036 AFB1     		cbz	r7, .L293
 4666 0038 A3B2     		uxth	r3, r4
 4667 003a 1F44     		add	r7, r7, r3
 4668              	.LVL374:
 4669              		.loc 1 886 2 view .LVU1208
 4670 003c 3FB2     		sxth	r7, r7
 4671 003e A8EB0308 		sub	r8, r8, r3
 4672              	.LVL375:
 4673              		.loc 1 886 2 view .LVU1209
 4674 0042 00E0     		b	.L295
ARM GAS  /tmp/cchqCFfA.s 			page 83


 4675              	.LVL376:
 4676              	.L302:
 4677              		.loc 1 886 2 view .LVU1210
 4678 0044 A3B2     		uxth	r3, r4
 4679              	.L295:
 4680              	.LBB639:
 4681              		.loc 1 888 3 is_stmt 1 discriminator 3 view .LVU1211
 4682              		.loc 1 888 16 is_stmt 0 discriminator 3 view .LVU1212
 4683 0046 D6F80C90 		ldr	r9, [r6, #12]
 4684              		.loc 1 889 32 discriminator 3 view .LVU1213
 4685 004a 39F91400 		ldrsh	r0, [r9, r4, lsl #1]
 4686              		.loc 1 889 26 discriminator 3 view .LVU1214
 4687 004e 03EB0805 		add	r5, r3, r8
 4688 0052 5C1C     		adds	r4, r3, #1
 4689              	.LVL377:
 4690              		.loc 1 889 32 discriminator 3 view .LVU1215
 4691 0054 FFF7FEFF 		bl	aseba_sin
 4692              	.LVL378:
 4693              		.loc 1 889 26 discriminator 3 view .LVU1216
 4694 0058 ADB2     		uxth	r5, r5
 4695 005a 24B2     		sxth	r4, r4
 4696              	.LVL379:
 4697              		.loc 1 889 3 is_stmt 1 discriminator 3 view .LVU1217
 4698              		.loc 1 889 3 is_stmt 0 discriminator 3 view .LVU1218
 4699              	.LBE639:
 4700              		.loc 1 886 2 discriminator 3 view .LVU1219
 4701 005c BC42     		cmp	r4, r7
 4702              	.LBB640:
 4703              		.loc 1 889 30 discriminator 3 view .LVU1220
 4704 005e 29F81500 		strh	r0, [r9, r5, lsl #1]	@ movhi
 4705              		.loc 1 889 30 discriminator 3 view .LVU1221
 4706              	.LBE640:
 4707              		.loc 1 886 26 is_stmt 1 discriminator 3 view .LVU1222
 4708              		.loc 1 886 14 discriminator 3 view .LVU1223
 4709              		.loc 1 886 2 is_stmt 0 discriminator 3 view .LVU1224
 4710 0062 EFD1     		bne	.L302
 4711              	.L293:
 4712              		.loc 1 891 1 view .LVU1225
 4713 0064 044B     		ldr	r3, .L304
 4714 0066 1A68     		ldr	r2, [r3]
 4715 0068 019B     		ldr	r3, [sp, #4]
 4716 006a 5A40     		eors	r2, r3, r2
 4717 006c 02D1     		bne	.L303
 4718 006e 03B0     		add	sp, sp, #12
 4719              		.cfi_remember_state
 4720              		.cfi_def_cfa_offset 28
 4721              		@ sp needed
 4722 0070 BDE8F083 		pop	{r4, r5, r6, r7, r8, r9, pc}
 4723              	.LVL380:
 4724              	.L303:
 4725              		.cfi_restore_state
 4726              		.loc 1 891 1 view .LVU1226
 4727 0074 FFF7FEFF 		bl	__stack_chk_fail
 4728              	.LVL381:
 4729              	.L305:
 4730              		.align	2
 4731              	.L304:
ARM GAS  /tmp/cchqCFfA.s 			page 84


 4732 0078 00000000 		.word	.LC22
 4733              		.cfi_endproc
 4734              	.LFE22:
 4735              		.size	AsebaNative_mathsin, .-AsebaNative_mathsin
 4736              		.section	.rodata.AsebaNative_mathcos.cst4,"aM",%progbits,4
 4737              		.align	2
 4738              	.LC23:
 4739 0000 00000000 		.word	__stack_chk_guard
 4740              		.section	.text.AsebaNative_mathcos,"ax",%progbits
 4741              		.align	1
 4742              		.p2align 4,,15
 4743              		.global	AsebaNative_mathcos
 4744              		.syntax unified
 4745              		.thumb
 4746              		.thumb_func
 4747              		.fpu fpv4-sp-d16
 4748              		.type	AsebaNative_mathcos, %function
 4749              	AsebaNative_mathcos:
 4750              	.LVL382:
 4751              	.LFB23:
 4752              		.loc 1 905 1 is_stmt 1 view -0
 4753              		.cfi_startproc
 4754              		@ args = 0, pretend = 0, frame = 8
 4755              		@ frame_needed = 0, uses_anonymous_args = 0
 4756              		.loc 1 905 1 is_stmt 0 view .LVU1228
 4757 0000 2DE9F043 		push	{r4, r5, r6, r7, r8, r9, lr}
 4758              		.cfi_def_cfa_offset 28
 4759              		.cfi_offset 4, -28
 4760              		.cfi_offset 5, -24
 4761              		.cfi_offset 6, -20
 4762              		.cfi_offset 7, -16
 4763              		.cfi_offset 8, -12
 4764              		.cfi_offset 9, -8
 4765              		.cfi_offset 14, -4
 4766 0004 1E4B     		ldr	r3, .L317
 4767              	.LBB641:
 4768              	.LBB642:
 4769              		.loc 2 90 21 view .LVU1229
 4770 0006 B0F91C40 		ldrsh	r4, [r0, #28]
 4771              	.LBE642:
 4772              	.LBE641:
 4773              		.loc 1 905 1 view .LVU1230
 4774 000a 83B0     		sub	sp, sp, #12
 4775              		.cfi_def_cfa_offset 40
 4776              		.loc 1 905 1 view .LVU1231
 4777 000c 1B68     		ldr	r3, [r3]
 4778 000e 0193     		str	r3, [sp, #4]
 4779 0010 4FF00003 		mov	r3,#0
 4780              		.loc 1 907 2 is_stmt 1 view .LVU1232
 4781              	.LBB647:
 4782              	.LBB643:
 4783              		.loc 2 90 25 is_stmt 0 view .LVU1233
 4784 0014 A3B2     		uxth	r3, r4
 4785              	.LBE643:
 4786              	.LBE647:
 4787              		.loc 1 905 1 view .LVU1234
 4788 0016 0646     		mov	r6, r0
ARM GAS  /tmp/cchqCFfA.s 			page 85


 4789              	.LBB648:
 4790              	.LBB644:
 4791              		.loc 2 90 25 view .LVU1235
 4792 0018 591E     		subs	r1, r3, #1
 4793              	.LBE644:
 4794              	.LBE648:
 4795              		.loc 1 907 21 view .LVU1236
 4796 001a 4069     		ldr	r0, [r0, #20]
 4797              	.LVL383:
 4798              	.LBB649:
 4799              	.LBI641:
 4800              		.loc 2 88 22 is_stmt 1 view .LVU1237
 4801              	.LBB645:
 4802              		.loc 2 90 2 view .LVU1238
 4803              		.loc 2 90 25 is_stmt 0 view .LVU1239
 4804 001c 09B2     		sxth	r1, r1
 4805              	.LBE645:
 4806              	.LBE649:
 4807              	.LBB650:
 4808              	.LBB651:
 4809 001e 9A1E     		subs	r2, r3, #2
 4810              	.LBE651:
 4811              	.LBE650:
 4812              	.LBB655:
 4813              	.LBB646:
 4814 0020 B183     		strh	r1, [r6, #28]	@ movhi
 4815              	.LBE646:
 4816              	.LBE655:
 4817              	.LBB656:
 4818              	.LBB652:
 4819 0022 12B2     		sxth	r2, r2
 4820              	.LBE652:
 4821              	.LBE656:
 4822              		.loc 1 907 9 view .LVU1240
 4823 0024 30F81480 		ldrh	r8, [r0, r4, lsl #1]
 4824              	.LVL384:
 4825              		.loc 1 908 2 is_stmt 1 view .LVU1241
 4826              	.LBB657:
 4827              	.LBI650:
 4828              		.loc 2 88 22 view .LVU1242
 4829              	.LBB653:
 4830              		.loc 2 90 2 view .LVU1243
 4831              		.loc 2 90 25 is_stmt 0 view .LVU1244
 4832 0028 B283     		strh	r2, [r6, #28]	@ movhi
 4833              	.LBE653:
 4834              	.LBE657:
 4835              	.LBB658:
 4836              	.LBB659:
 4837 002a 033B     		subs	r3, r3, #3
 4838              	.LBE659:
 4839              	.LBE658:
 4840              	.LBB661:
 4841              	.LBB654:
 4842              		.loc 2 90 18 view .LVU1245
 4843 002c 30F91140 		ldrsh	r4, [r0, r1, lsl #1]
 4844              	.LVL385:
 4845              		.loc 2 90 18 view .LVU1246
ARM GAS  /tmp/cchqCFfA.s 			page 86


 4846              	.LBE654:
 4847              	.LBE661:
 4848              		.loc 1 911 2 is_stmt 1 view .LVU1247
 4849              	.LBB662:
 4850              	.LBI658:
 4851              		.loc 2 88 22 view .LVU1248
 4852              	.LBB660:
 4853              		.loc 2 90 2 view .LVU1249
 4854              		.loc 2 90 25 is_stmt 0 view .LVU1250
 4855 0030 B383     		strh	r3, [r6, #28]	@ movhi
 4856              	.LBE660:
 4857              	.LBE662:
 4858              		.loc 1 911 9 view .LVU1251
 4859 0032 30F81270 		ldrh	r7, [r0, r2, lsl #1]
 4860              	.LVL386:
 4861              		.loc 1 913 2 is_stmt 1 view .LVU1252
 4862              		.loc 1 914 2 view .LVU1253
 4863              		.loc 1 914 14 view .LVU1254
 4864              		.loc 1 914 2 is_stmt 0 view .LVU1255
 4865 0036 C7B1     		cbz	r7, .L306
 4866 0038 A3B2     		uxth	r3, r4
 4867 003a 1F44     		add	r7, r7, r3
 4868              	.LVL387:
 4869              		.loc 1 914 2 view .LVU1256
 4870 003c 3FB2     		sxth	r7, r7
 4871 003e A8EB0308 		sub	r8, r8, r3
 4872              	.LVL388:
 4873              		.loc 1 914 2 view .LVU1257
 4874 0042 00E0     		b	.L308
 4875              	.LVL389:
 4876              	.L315:
 4877              		.loc 1 914 2 view .LVU1258
 4878 0044 A3B2     		uxth	r3, r4
 4879              	.L308:
 4880              	.LBB663:
 4881              		.loc 1 916 3 is_stmt 1 discriminator 3 view .LVU1259
 4882              		.loc 1 916 16 is_stmt 0 discriminator 3 view .LVU1260
 4883 0046 D6F80C90 		ldr	r9, [r6, #12]
 4884              	.LBB664:
 4885              	.LBB665:
 4886              		.loc 1 223 25 discriminator 3 view .LVU1261
 4887 004a 39F81420 		ldrh	r2, [r9, r4, lsl #1]
 4888 004e 02F58042 		add	r2, r2, #16384
 4889              		.loc 1 223 9 discriminator 3 view .LVU1262
 4890 0052 10B2     		sxth	r0, r2
 4891              	.LBE665:
 4892              	.LBE664:
 4893              		.loc 1 917 26 discriminator 3 view .LVU1263
 4894 0054 03EB0805 		add	r5, r3, r8
 4895 0058 5C1C     		adds	r4, r3, #1
 4896              	.LVL390:
 4897              	.LBB668:
 4898              	.LBB666:
 4899              		.loc 1 223 9 discriminator 3 view .LVU1264
 4900 005a FFF7FEFF 		bl	aseba_sin
 4901              	.LVL391:
 4902              	.LBE666:
ARM GAS  /tmp/cchqCFfA.s 			page 87


 4903              	.LBE668:
 4904              		.loc 1 917 26 discriminator 3 view .LVU1265
 4905 005e ADB2     		uxth	r5, r5
 4906 0060 24B2     		sxth	r4, r4
 4907              	.LVL392:
 4908              		.loc 1 917 3 is_stmt 1 discriminator 3 view .LVU1266
 4909              	.LBB669:
 4910              	.LBI664:
 4911              		.loc 1 221 8 discriminator 3 view .LVU1267
 4912              	.LBB667:
 4913              		.loc 1 223 2 discriminator 3 view .LVU1268
 4914              		.loc 1 223 2 is_stmt 0 discriminator 3 view .LVU1269
 4915              	.LBE667:
 4916              	.LBE669:
 4917              	.LBE663:
 4918              		.loc 1 914 2 discriminator 3 view .LVU1270
 4919 0062 BC42     		cmp	r4, r7
 4920              	.LBB670:
 4921              		.loc 1 917 30 discriminator 3 view .LVU1271
 4922 0064 29F81500 		strh	r0, [r9, r5, lsl #1]	@ movhi
 4923              		.loc 1 917 30 discriminator 3 view .LVU1272
 4924              	.LBE670:
 4925              		.loc 1 914 26 is_stmt 1 discriminator 3 view .LVU1273
 4926              		.loc 1 914 14 discriminator 3 view .LVU1274
 4927              		.loc 1 914 2 is_stmt 0 discriminator 3 view .LVU1275
 4928 0068 ECD1     		bne	.L315
 4929              	.L306:
 4930              		.loc 1 919 1 view .LVU1276
 4931 006a 054B     		ldr	r3, .L317
 4932 006c 1A68     		ldr	r2, [r3]
 4933 006e 019B     		ldr	r3, [sp, #4]
 4934 0070 5A40     		eors	r2, r3, r2
 4935 0072 02D1     		bne	.L316
 4936 0074 03B0     		add	sp, sp, #12
 4937              		.cfi_remember_state
 4938              		.cfi_def_cfa_offset 28
 4939              		@ sp needed
 4940 0076 BDE8F083 		pop	{r4, r5, r6, r7, r8, r9, pc}
 4941              	.LVL393:
 4942              	.L316:
 4943              		.cfi_restore_state
 4944              		.loc 1 919 1 view .LVU1277
 4945 007a FFF7FEFF 		bl	__stack_chk_fail
 4946              	.LVL394:
 4947              	.L318:
 4948 007e 00BF     		.align	2
 4949              	.L317:
 4950 0080 00000000 		.word	.LC23
 4951              		.cfi_endproc
 4952              	.LFE23:
 4953              		.size	AsebaNative_mathcos, .-AsebaNative_mathcos
 4954              		.section	.rodata.AsebaNative_mathrot2.cst4,"aM",%progbits,4
 4955              		.align	2
 4956              	.LC24:
 4957 0000 00000000 		.word	__stack_chk_guard
 4958              		.section	.text.AsebaNative_mathrot2,"ax",%progbits
 4959              		.align	1
ARM GAS  /tmp/cchqCFfA.s 			page 88


 4960              		.p2align 4,,15
 4961              		.global	AsebaNative_mathrot2
 4962              		.syntax unified
 4963              		.thumb
 4964              		.thumb_func
 4965              		.fpu fpv4-sp-d16
 4966              		.type	AsebaNative_mathrot2, %function
 4967              	AsebaNative_mathrot2:
 4968              	.LVL395:
 4969              	.LFB24:
 4970              		.loc 1 933 1 is_stmt 1 view -0
 4971              		.cfi_startproc
 4972              		@ args = 0, pretend = 0, frame = 8
 4973              		@ frame_needed = 0, uses_anonymous_args = 0
 4974              		.loc 1 933 1 is_stmt 0 view .LVU1279
 4975 0000 2DE9F047 		push	{r4, r5, r6, r7, r8, r9, r10, lr}
 4976              		.cfi_def_cfa_offset 32
 4977              		.cfi_offset 4, -32
 4978              		.cfi_offset 5, -28
 4979              		.cfi_offset 6, -24
 4980              		.cfi_offset 7, -20
 4981              		.cfi_offset 8, -16
 4982              		.cfi_offset 9, -12
 4983              		.cfi_offset 10, -8
 4984              		.cfi_offset 14, -4
 4985 0004 234B     		ldr	r3, .L323
 4986              	.LBB671:
 4987              	.LBB672:
 4988              		.loc 2 90 21 view .LVU1280
 4989 0006 B0F91C50 		ldrsh	r5, [r0, #28]
 4990              	.LBE672:
 4991              	.LBE671:
 4992              		.loc 1 933 1 view .LVU1281
 4993 000a 82B0     		sub	sp, sp, #8
 4994              		.cfi_def_cfa_offset 40
 4995              		.loc 1 933 1 view .LVU1282
 4996 000c 1B68     		ldr	r3, [r3]
 4997 000e 0193     		str	r3, [sp, #4]
 4998 0010 4FF00003 		mov	r3,#0
 4999              		.loc 1 935 2 is_stmt 1 view .LVU1283
 5000              	.LBB678:
 5001              	.LBB673:
 5002              		.loc 2 90 25 is_stmt 0 view .LVU1284
 5003 0014 ABB2     		uxth	r3, r5
 5004              	.LBE673:
 5005              	.LBE678:
 5006              		.loc 1 933 1 view .LVU1285
 5007 0016 0446     		mov	r4, r0
 5008              	.LBB679:
 5009              	.LBB674:
 5010              		.loc 2 90 25 view .LVU1286
 5011 0018 5A1E     		subs	r2, r3, #1
 5012              	.LBE674:
 5013              	.LBE679:
 5014              		.loc 1 935 24 view .LVU1287
 5015 001a 4069     		ldr	r0, [r0, #20]
 5016              	.LVL396:
ARM GAS  /tmp/cchqCFfA.s 			page 89


 5017              	.LBB680:
 5018              	.LBI671:
 5019              		.loc 2 88 22 is_stmt 1 view .LVU1288
 5020              	.LBB675:
 5021              		.loc 2 90 2 view .LVU1289
 5022              	.LBE675:
 5023              	.LBE680:
 5024              		.loc 1 940 15 is_stmt 0 view .LVU1290
 5025 001c D4F80C90 		ldr	r9, [r4, #12]
 5026              	.LBB681:
 5027              	.LBB676:
 5028              		.loc 2 90 25 view .LVU1291
 5029 0020 12B2     		sxth	r2, r2
 5030              	.LBE676:
 5031              	.LBE681:
 5032              	.LBB682:
 5033              	.LBB683:
 5034 0022 991E     		subs	r1, r3, #2
 5035              	.LBE683:
 5036              	.LBE682:
 5037              	.LBB686:
 5038              	.LBB677:
 5039 0024 A283     		strh	r2, [r4, #28]	@ movhi
 5040              	.LBE677:
 5041              	.LBE686:
 5042              	.LBB687:
 5043              	.LBB684:
 5044 0026 09B2     		sxth	r1, r1
 5045              	.LBE684:
 5046              	.LBE687:
 5047              		.loc 1 935 9 view .LVU1292
 5048 0028 30F81580 		ldrh	r8, [r0, r5, lsl #1]
 5049              	.LVL397:
 5050              		.loc 1 936 2 is_stmt 1 view .LVU1293
 5051              	.LBB688:
 5052              	.LBI682:
 5053              		.loc 2 88 22 view .LVU1294
 5054              	.LBB685:
 5055              		.loc 2 90 2 view .LVU1295
 5056              		.loc 2 90 25 is_stmt 0 view .LVU1296
 5057 002c A183     		strh	r1, [r4, #28]	@ movhi
 5058              	.LBE685:
 5059              	.LBE688:
 5060              	.LBB689:
 5061              	.LBB690:
 5062 002e 033B     		subs	r3, r3, #3
 5063              	.LBE690:
 5064              	.LBE689:
 5065              		.loc 1 936 9 view .LVU1297
 5066 0030 30F81220 		ldrh	r2, [r0, r2, lsl #1]
 5067              	.LVL398:
 5068              		.loc 1 937 2 is_stmt 1 view .LVU1298
 5069              	.LBB692:
 5070              	.LBI689:
 5071              		.loc 2 88 22 view .LVU1299
 5072              	.LBB691:
 5073              		.loc 2 90 2 view .LVU1300
ARM GAS  /tmp/cchqCFfA.s 			page 90


 5074              		.loc 2 90 25 is_stmt 0 view .LVU1301
 5075 0034 A383     		strh	r3, [r4, #28]	@ movhi
 5076              	.LVL399:
 5077              		.loc 2 90 25 view .LVU1302
 5078              	.LBE691:
 5079              	.LBE692:
 5080              		.loc 1 940 2 is_stmt 1 view .LVU1303
 5081              		.loc 1 942 26 is_stmt 0 view .LVU1304
 5082 0036 30F81130 		ldrh	r3, [r0, r1, lsl #1]
 5083              		.loc 1 940 9 view .LVU1305
 5084 003a 39F91260 		ldrsh	r6, [r9, r2, lsl #1]
 5085              	.LVL400:
 5086              		.loc 1 941 2 is_stmt 1 view .LVU1306
 5087              		.loc 1 942 9 is_stmt 0 view .LVU1307
 5088 003e 39F913A0 		ldrsh	r10, [r9, r3, lsl #1]
 5089              		.loc 1 941 9 view .LVU1308
 5090 0042 09EB4202 		add	r2, r9, r2, lsl #1
 5091              	.LVL401:
 5092              	.LBB693:
 5093              	.LBB694:
 5094              		.loc 1 223 25 view .LVU1309
 5095 0046 0AF58040 		add	r0, r10, #16384
 5096              	.LVL402:
 5097              		.loc 1 223 9 view .LVU1310
 5098 004a 00B2     		sxth	r0, r0
 5099              	.LBE694:
 5100              	.LBE693:
 5101              		.loc 1 941 9 view .LVU1311
 5102 004c B2F90250 		ldrsh	r5, [r2, #2]
 5103              	.LVL403:
 5104              		.loc 1 942 2 is_stmt 1 view .LVU1312
 5105              		.loc 1 944 2 view .LVU1313
 5106              	.LBB696:
 5107              	.LBI693:
 5108              		.loc 1 221 8 view .LVU1314
 5109              	.LBB695:
 5110              		.loc 1 223 2 view .LVU1315
 5111              		.loc 1 223 9 is_stmt 0 view .LVU1316
 5112 0050 FFF7FEFF 		bl	aseba_sin
 5113              	.LVL404:
 5114              		.loc 1 223 9 view .LVU1317
 5115 0054 0746     		mov	r7, r0
 5116              	.LBE695:
 5117              	.LBE696:
 5118              		.loc 1 945 17 view .LVU1318
 5119 0056 5046     		mov	r0, r10
 5120              	.LVL405:
 5121              		.loc 1 945 2 is_stmt 1 view .LVU1319
 5122              		.loc 1 945 17 is_stmt 0 view .LVU1320
 5123 0058 FFF7FEFF 		bl	aseba_sin
 5124              	.LVL406:
 5125              		.loc 1 947 2 is_stmt 1 view .LVU1321
 5126              		.loc 1 948 2 view .LVU1322
 5127              		.loc 1 950 2 view .LVU1323
 5128              		.loc 1 947 38 is_stmt 0 view .LVU1324
 5129 005c 07FB06F3 		mul	r3, r7, r6
 5130              		.loc 1 947 50 view .LVU1325
ARM GAS  /tmp/cchqCFfA.s 			page 91


 5131 0060 00FB1533 		mls	r3, r0, r5, r3
 5132              		.loc 1 947 79 view .LVU1326
 5133 0064 DB13     		asrs	r3, r3, #15
 5134              		.loc 1 947 9 view .LVU1327
 5135 0066 29F81830 		strh	r3, [r9, r8, lsl #1]	@ movhi
 5136              		.loc 1 951 2 is_stmt 1 view .LVU1328
 5137              		.loc 1 951 32 is_stmt 0 view .LVU1329
 5138 006a E368     		ldr	r3, [r4, #12]
 5139              		.loc 1 948 66 view .LVU1330
 5140 006c 06FB00F6 		mul	r6, r6, r0
 5141              	.LVL407:
 5142              		.loc 1 951 32 view .LVU1331
 5143 0070 03EB4808 		add	r8, r3, r8, lsl #1
 5144              	.LVL408:
 5145              		.loc 1 948 50 view .LVU1332
 5146 0074 07FB0565 		mla	r5, r7, r5, r6
 5147              	.LVL409:
 5148              		.loc 1 952 1 view .LVU1333
 5149 0078 064B     		ldr	r3, .L323
 5150              		.loc 1 948 79 view .LVU1334
 5151 007a ED13     		asrs	r5, r5, #15
 5152              		.loc 1 948 9 view .LVU1335
 5153 007c A8F80250 		strh	r5, [r8, #2]	@ movhi
 5154              		.loc 1 952 1 view .LVU1336
 5155 0080 1A68     		ldr	r2, [r3]
 5156 0082 019B     		ldr	r3, [sp, #4]
 5157 0084 5A40     		eors	r2, r3, r2
 5158 0086 02D1     		bne	.L322
 5159 0088 02B0     		add	sp, sp, #8
 5160              		.cfi_remember_state
 5161              		.cfi_def_cfa_offset 32
 5162              		@ sp needed
 5163 008a BDE8F087 		pop	{r4, r5, r6, r7, r8, r9, r10, pc}
 5164              	.LVL410:
 5165              	.L322:
 5166              		.cfi_restore_state
 5167              		.loc 1 952 1 view .LVU1337
 5168 008e FFF7FEFF 		bl	__stack_chk_fail
 5169              	.LVL411:
 5170              	.L324:
 5171              		.loc 1 952 1 view .LVU1338
 5172 0092 00BF     		.align	2
 5173              	.L323:
 5174 0094 00000000 		.word	.LC24
 5175              		.cfi_endproc
 5176              	.LFE24:
 5177              		.size	AsebaNative_mathrot2, .-AsebaNative_mathrot2
 5178              		.section	.rodata.AsebaNative_mathsqrt.cst4,"aM",%progbits,4
 5179              		.align	2
 5180              	.LC25:
 5181 0000 00000000 		.word	__stack_chk_guard
 5182              		.section	.text.AsebaNative_mathsqrt,"ax",%progbits
 5183              		.align	1
 5184              		.p2align 4,,15
 5185              		.global	AsebaNative_mathsqrt
 5186              		.syntax unified
 5187              		.thumb
ARM GAS  /tmp/cchqCFfA.s 			page 92


 5188              		.thumb_func
 5189              		.fpu fpv4-sp-d16
 5190              		.type	AsebaNative_mathsqrt, %function
 5191              	AsebaNative_mathsqrt:
 5192              	.LVL412:
 5193              	.LFB25:
 5194              		.loc 1 967 1 is_stmt 1 view -0
 5195              		.cfi_startproc
 5196              		@ args = 0, pretend = 0, frame = 8
 5197              		@ frame_needed = 0, uses_anonymous_args = 0
 5198              		.loc 1 967 1 is_stmt 0 view .LVU1340
 5199 0000 2DE9F041 		push	{r4, r5, r6, r7, r8, lr}
 5200              		.cfi_def_cfa_offset 24
 5201              		.cfi_offset 4, -24
 5202              		.cfi_offset 5, -20
 5203              		.cfi_offset 6, -16
 5204              		.cfi_offset 7, -12
 5205              		.cfi_offset 8, -8
 5206              		.cfi_offset 14, -4
 5207 0004 294B     		ldr	r3, .L347
 5208              	.LBB697:
 5209              	.LBB698:
 5210              		.loc 2 90 21 view .LVU1341
 5211 0006 B0F91C50 		ldrsh	r5, [r0, #28]
 5212              	.LBE698:
 5213              	.LBE697:
 5214              		.loc 1 969 21 view .LVU1342
 5215 000a 4469     		ldr	r4, [r0, #20]
 5216              		.loc 1 967 1 view .LVU1343
 5217 000c 82B0     		sub	sp, sp, #8
 5218              		.cfi_def_cfa_offset 32
 5219              		.loc 1 967 1 view .LVU1344
 5220 000e 1B68     		ldr	r3, [r3]
 5221 0010 0193     		str	r3, [sp, #4]
 5222 0012 4FF00003 		mov	r3,#0
 5223              		.loc 1 969 2 is_stmt 1 view .LVU1345
 5224              	.LBB701:
 5225              	.LBI697:
 5226              		.loc 2 88 22 view .LVU1346
 5227              	.LVL413:
 5228              	.LBB699:
 5229              		.loc 2 90 2 view .LVU1347
 5230              		.loc 2 90 25 is_stmt 0 view .LVU1348
 5231 0016 ABB2     		uxth	r3, r5
 5232 0018 591E     		subs	r1, r3, #1
 5233 001a 09B2     		sxth	r1, r1
 5234              	.LBE699:
 5235              	.LBE701:
 5236              	.LBB702:
 5237              	.LBB703:
 5238 001c 9A1E     		subs	r2, r3, #2
 5239              	.LBE703:
 5240              	.LBE702:
 5241              	.LBB707:
 5242              	.LBB700:
 5243 001e 8183     		strh	r1, [r0, #28]	@ movhi
 5244              	.LBE700:
ARM GAS  /tmp/cchqCFfA.s 			page 93


 5245              	.LBE707:
 5246              	.LBB708:
 5247              	.LBB704:
 5248 0020 12B2     		sxth	r2, r2
 5249              	.LBE704:
 5250              	.LBE708:
 5251              		.loc 1 969 9 view .LVU1349
 5252 0022 34F815E0 		ldrh	lr, [r4, r5, lsl #1]
 5253              	.LVL414:
 5254              		.loc 1 970 2 is_stmt 1 view .LVU1350
 5255              	.LBB709:
 5256              	.LBI702:
 5257              		.loc 2 88 22 view .LVU1351
 5258              	.LBB705:
 5259              		.loc 2 90 2 view .LVU1352
 5260              		.loc 2 90 25 is_stmt 0 view .LVU1353
 5261 0026 8283     		strh	r2, [r0, #28]	@ movhi
 5262              	.LBE705:
 5263              	.LBE709:
 5264              	.LBB710:
 5265              	.LBB711:
 5266 0028 033B     		subs	r3, r3, #3
 5267              	.LBE711:
 5268              	.LBE710:
 5269              	.LBB713:
 5270              	.LBB706:
 5271              		.loc 2 90 18 view .LVU1354
 5272 002a 34F91160 		ldrsh	r6, [r4, r1, lsl #1]
 5273              	.LVL415:
 5274              		.loc 2 90 18 view .LVU1355
 5275              	.LBE706:
 5276              	.LBE713:
 5277              		.loc 1 973 2 is_stmt 1 view .LVU1356
 5278              	.LBB714:
 5279              	.LBI710:
 5280              		.loc 2 88 22 view .LVU1357
 5281              	.LBB712:
 5282              		.loc 2 90 2 view .LVU1358
 5283              		.loc 2 90 25 is_stmt 0 view .LVU1359
 5284 002e 8383     		strh	r3, [r0, #28]	@ movhi
 5285              	.LBE712:
 5286              	.LBE714:
 5287              		.loc 1 973 9 view .LVU1360
 5288 0030 34F81220 		ldrh	r2, [r4, r2, lsl #1]
 5289              	.LVL416:
 5290              		.loc 1 975 2 is_stmt 1 view .LVU1361
 5291              		.loc 1 976 2 view .LVU1362
 5292              		.loc 1 976 14 view .LVU1363
 5293              		.loc 1 976 2 is_stmt 0 view .LVU1364
 5294 0034 72B3     		cbz	r2, .L325
 5295 0036 B3B2     		uxth	r3, r6
 5296 0038 1A44     		add	r2, r2, r3
 5297              	.LVL417:
 5298              		.loc 1 976 2 view .LVU1365
 5299 003a 0FFA82FC 		sxth	ip, r2
 5300 003e AEEB030E 		sub	lr, lr, r3
 5301              	.LVL418:
ARM GAS  /tmp/cchqCFfA.s 			page 94


 5302              	.L333:
 5303              	.LBB715:
 5304              		.loc 1 978 3 is_stmt 1 discriminator 3 view .LVU1366
 5305              		.loc 1 978 16 is_stmt 0 discriminator 3 view .LVU1367
 5306 0042 C768     		ldr	r7, [r0, #12]
 5307              		.loc 1 978 10 discriminator 3 view .LVU1368
 5308 0044 37F91610 		ldrsh	r1, [r7, r6, lsl #1]
 5309 0048 5E1C     		adds	r6, r3, #1
 5310              	.LVL419:
 5311              	.LBB716:
 5312              	.LBB717:
 5313              		.loc 1 233 7 discriminator 3 view .LVU1369
 5314 004a B1F5804F 		cmp	r1, #16384
 5315              	.LBE717:
 5316              	.LBE716:
 5317              		.loc 1 979 26 discriminator 3 view .LVU1370
 5318 004e 7344     		add	r3, r3, lr
 5319 0050 1FFA83F8 		uxth	r8, r3
 5320 0054 36B2     		sxth	r6, r6
 5321              	.LVL420:
 5322              		.loc 1 979 3 is_stmt 1 discriminator 3 view .LVU1371
 5323              	.LBB720:
 5324              	.LBI716:
 5325              		.loc 1 227 8 discriminator 3 view .LVU1372
 5326              	.LBB718:
 5327              		.loc 1 229 2 discriminator 3 view .LVU1373
 5328              		.loc 1 230 2 discriminator 3 view .LVU1374
 5329              		.loc 1 231 2 discriminator 3 view .LVU1375
 5330              		.loc 1 233 2 discriminator 3 view .LVU1376
 5331              		.loc 1 233 7 discriminator 3 view .LVU1377
 5332              		.loc 1 231 9 is_stmt 0 discriminator 3 view .LVU1378
 5333 0056 4FF48043 		mov	r3, #16384
 5334              		.loc 1 233 7 discriminator 3 view .LVU1379
 5335 005a 03DA     		bge	.L327
 5336              	.LVL421:
 5337              	.L328:
 5338              		.loc 1 234 3 is_stmt 1 view .LVU1380
 5339              		.loc 1 234 7 is_stmt 0 view .LVU1381
 5340 005c 9B10     		asrs	r3, r3, #2
 5341              	.LVL422:
 5342              		.loc 1 233 7 is_stmt 1 view .LVU1382
 5343 005e 9942     		cmp	r1, r3
 5344 0060 FCDB     		blt	.L328
 5345              		.loc 1 236 7 view .LVU1383
 5346 0062 FBB1     		cbz	r3, .L344
 5347              	.LVL423:
 5348              	.L327:
 5349              		.loc 1 230 9 is_stmt 0 view .LVU1384
 5350 0064 0022     		movs	r2, #0
 5351 0066 08E0     		b	.L332
 5352              	.LVL424:
 5353              	.L345:
 5354              		.loc 1 240 4 is_stmt 1 view .LVU1385
 5355              		.loc 1 240 14 is_stmt 0 view .LVU1386
 5356 0068 9DB2     		uxth	r5, r3
 5357              		.loc 1 240 7 view .LVU1387
 5358 006a AC18     		adds	r4, r5, r2
ARM GAS  /tmp/cchqCFfA.s 			page 95


 5359 006c 091B     		subs	r1, r1, r4
 5360              	.LVL425:
 5361              		.loc 1 241 21 view .LVU1388
 5362 006e 05EB6202 		add	r2, r5, r2, asr #1
 5363              	.LVL426:
 5364              		.loc 1 236 7 view .LVU1389
 5365 0072 9B10     		asrs	r3, r3, #2
 5366              	.LVL427:
 5367              		.loc 1 240 7 view .LVU1390
 5368 0074 09B2     		sxth	r1, r1
 5369              	.LVL428:
 5370              		.loc 1 241 4 is_stmt 1 view .LVU1391
 5371              		.loc 1 241 8 is_stmt 0 view .LVU1392
 5372 0076 12B2     		sxth	r2, r2
 5373              	.LVL429:
 5374              		.loc 1 247 3 is_stmt 1 view .LVU1393
 5375              		.loc 1 236 7 view .LVU1394
 5376 0078 06D0     		beq	.L329
 5377              	.LVL430:
 5378              	.L332:
 5379              		.loc 1 238 3 view .LVU1395
 5380              		.loc 1 238 17 is_stmt 0 view .LVU1396
 5381 007a D418     		adds	r4, r2, r3
 5382              		.loc 1 238 6 view .LVU1397
 5383 007c A142     		cmp	r1, r4
 5384 007e F3DA     		bge	.L345
 5385              		.loc 1 245 4 is_stmt 1 view .LVU1398
 5386              		.loc 1 236 7 is_stmt 0 view .LVU1399
 5387 0080 9B10     		asrs	r3, r3, #2
 5388              	.LVL431:
 5389              		.loc 1 245 8 view .LVU1400
 5390 0082 4FEA6202 		asr	r2, r2, #1
 5391              	.LVL432:
 5392              		.loc 1 247 3 is_stmt 1 view .LVU1401
 5393              		.loc 1 236 7 view .LVU1402
 5394 0086 F8D1     		bne	.L332
 5395              	.LVL433:
 5396              	.L329:
 5397              		.loc 1 249 2 view .LVU1403
 5398              		.loc 1 249 2 is_stmt 0 view .LVU1404
 5399              	.LBE718:
 5400              	.LBE720:
 5401              	.LBE715:
 5402              		.loc 1 976 2 view .LVU1405
 5403 0088 6645     		cmp	r6, ip
 5404              	.LBB722:
 5405              		.loc 1 979 30 view .LVU1406
 5406 008a 27F81820 		strh	r2, [r7, r8, lsl #1]	@ movhi
 5407              		.loc 1 979 30 view .LVU1407
 5408              	.LBE722:
 5409              		.loc 1 976 26 is_stmt 1 view .LVU1408
 5410              		.loc 1 976 14 view .LVU1409
 5411              		.loc 1 976 2 is_stmt 0 view .LVU1410
 5412 008e 01D0     		beq	.L325
 5413 0090 B3B2     		uxth	r3, r6
 5414 0092 D6E7     		b	.L333
 5415              	.L325:
ARM GAS  /tmp/cchqCFfA.s 			page 96


 5416              		.loc 1 981 1 view .LVU1411
 5417 0094 054B     		ldr	r3, .L347
 5418 0096 1A68     		ldr	r2, [r3]
 5419 0098 019B     		ldr	r3, [sp, #4]
 5420 009a 5A40     		eors	r2, r3, r2
 5421 009c 04D1     		bne	.L346
 5422 009e 02B0     		add	sp, sp, #8
 5423              		.cfi_remember_state
 5424              		.cfi_def_cfa_offset 24
 5425              		@ sp needed
 5426 00a0 BDE8F081 		pop	{r4, r5, r6, r7, r8, pc}
 5427              	.LVL434:
 5428              	.L344:
 5429              		.cfi_restore_state
 5430              	.LBB723:
 5431              	.LBB721:
 5432              	.LBB719:
 5433              		.loc 1 230 9 view .LVU1412
 5434 00a4 1A46     		mov	r2, r3
 5435 00a6 EFE7     		b	.L329
 5436              	.LVL435:
 5437              	.L346:
 5438              		.loc 1 230 9 view .LVU1413
 5439              	.LBE719:
 5440              	.LBE721:
 5441              	.LBE723:
 5442              		.loc 1 981 1 view .LVU1414
 5443 00a8 FFF7FEFF 		bl	__stack_chk_fail
 5444              	.LVL436:
 5445              	.L348:
 5446              		.loc 1 981 1 view .LVU1415
 5447              		.align	2
 5448              	.L347:
 5449 00ac 00000000 		.word	.LC25
 5450              		.cfi_endproc
 5451              	.LFE25:
 5452              		.size	AsebaNative_mathsqrt, .-AsebaNative_mathsqrt
 5453              		.section	.rodata.AsebaNative_vecnonzerosequence.cst4,"aM",%progbits,4
 5454              		.align	2
 5455              	.LC26:
 5456 0000 00000000 		.word	__stack_chk_guard
 5457              		.section	.text.AsebaNative_vecnonzerosequence,"ax",%progbits
 5458              		.align	1
 5459              		.p2align 4,,15
 5460              		.global	AsebaNative_vecnonzerosequence
 5461              		.syntax unified
 5462              		.thumb
 5463              		.thumb_func
 5464              		.fpu fpv4-sp-d16
 5465              		.type	AsebaNative_vecnonzerosequence, %function
 5466              	AsebaNative_vecnonzerosequence:
 5467              	.LVL437:
 5468              	.LFB26:
 5469              		.loc 1 995 1 is_stmt 1 view -0
 5470              		.cfi_startproc
 5471              		@ args = 0, pretend = 0, frame = 8
 5472              		@ frame_needed = 0, uses_anonymous_args = 0
ARM GAS  /tmp/cchqCFfA.s 			page 97


 5473              		.loc 1 995 1 is_stmt 0 view .LVU1417
 5474 0000 2DE9F043 		push	{r4, r5, r6, r7, r8, r9, lr}
 5475              		.cfi_def_cfa_offset 28
 5476              		.cfi_offset 4, -28
 5477              		.cfi_offset 5, -24
 5478              		.cfi_offset 6, -20
 5479              		.cfi_offset 7, -16
 5480              		.cfi_offset 8, -12
 5481              		.cfi_offset 9, -8
 5482              		.cfi_offset 14, -4
 5483 0004 504B     		ldr	r3, .L378
 5484              	.LBB724:
 5485              	.LBB725:
 5486              		.loc 2 90 21 view .LVU1418
 5487 0006 B0F91C70 		ldrsh	r7, [r0, #28]
 5488              	.LBE725:
 5489              	.LBE724:
 5490              		.loc 1 997 16 view .LVU1419
 5491 000a 4169     		ldr	r1, [r0, #20]
 5492              		.loc 1 1003 23 view .LVU1420
 5493 000c C468     		ldr	r4, [r0, #12]
 5494              		.loc 1 995 1 view .LVU1421
 5495 000e 83B0     		sub	sp, sp, #12
 5496              		.cfi_def_cfa_offset 40
 5497              		.loc 1 995 1 view .LVU1422
 5498 0010 1B68     		ldr	r3, [r3]
 5499 0012 0193     		str	r3, [sp, #4]
 5500 0014 4FF00003 		mov	r3,#0
 5501              		.loc 1 997 2 is_stmt 1 view .LVU1423
 5502              	.LBB728:
 5503              	.LBI724:
 5504              		.loc 2 88 22 view .LVU1424
 5505              	.LVL438:
 5506              	.LBB726:
 5507              		.loc 2 90 2 view .LVU1425
 5508              		.loc 2 90 25 is_stmt 0 view .LVU1426
 5509 0018 BBB2     		uxth	r3, r7
 5510 001a 5D1E     		subs	r5, r3, #1
 5511 001c 2DB2     		sxth	r5, r5
 5512              	.LBE726:
 5513              	.LBE728:
 5514              	.LBB729:
 5515              	.LBB730:
 5516 001e 9A1E     		subs	r2, r3, #2
 5517              	.LBE730:
 5518              	.LBE729:
 5519              	.LBB733:
 5520              	.LBB727:
 5521 0020 8583     		strh	r5, [r0, #28]	@ movhi
 5522              	.LBE727:
 5523              	.LBE733:
 5524              	.LBB734:
 5525              	.LBB731:
 5526 0022 12B2     		sxth	r2, r2
 5527              	.LBE731:
 5528              	.LBE734:
 5529              	.LBB735:
ARM GAS  /tmp/cchqCFfA.s 			page 98


 5530              	.LBB736:
 5531 0024 DE1E     		subs	r6, r3, #3
 5532              	.LBE736:
 5533              	.LBE735:
 5534              		.loc 1 997 9 view .LVU1427
 5535 0026 31F817C0 		ldrh	ip, [r1, r7, lsl #1]
 5536              	.LVL439:
 5537              		.loc 1 998 2 is_stmt 1 view .LVU1428
 5538              	.LBB740:
 5539              	.LBI729:
 5540              		.loc 2 88 22 view .LVU1429
 5541              	.LBB732:
 5542              		.loc 2 90 2 view .LVU1430
 5543              		.loc 2 90 25 is_stmt 0 view .LVU1431
 5544 002a 8283     		strh	r2, [r0, #28]	@ movhi
 5545              	.LBE732:
 5546              	.LBE740:
 5547              	.LBB741:
 5548              	.LBB737:
 5549 002c 36B2     		sxth	r6, r6
 5550              	.LBE737:
 5551              	.LBE741:
 5552              		.loc 1 998 9 view .LVU1432
 5553 002e 31F81550 		ldrh	r5, [r1, r5, lsl #1]
 5554              	.LVL440:
 5555              		.loc 1 999 2 is_stmt 1 view .LVU1433
 5556              	.LBB742:
 5557              	.LBI735:
 5558              		.loc 2 88 22 view .LVU1434
 5559              	.LBB738:
 5560              		.loc 2 90 2 view .LVU1435
 5561              		.loc 2 90 25 is_stmt 0 view .LVU1436
 5562 0032 8683     		strh	r6, [r0, #28]	@ movhi
 5563              	.LBE738:
 5564              	.LBE742:
 5565              	.LBB743:
 5566              	.LBB744:
 5567 0034 043B     		subs	r3, r3, #4
 5568              	.LBE744:
 5569              	.LBE743:
 5570              	.LBB746:
 5571              	.LBB739:
 5572              		.loc 2 90 18 view .LVU1437
 5573 0036 31F91270 		ldrsh	r7, [r1, r2, lsl #1]
 5574              	.LVL441:
 5575              		.loc 2 90 18 view .LVU1438
 5576              	.LBE739:
 5577              	.LBE746:
 5578              		.loc 1 1002 2 is_stmt 1 view .LVU1439
 5579              	.LBB747:
 5580              	.LBI743:
 5581              		.loc 2 88 22 view .LVU1440
 5582              	.LBB745:
 5583              		.loc 2 90 2 view .LVU1441
 5584              		.loc 2 90 25 is_stmt 0 view .LVU1442
 5585 003a 8383     		strh	r3, [r0, #28]	@ movhi
 5586              	.LBE745:
ARM GAS  /tmp/cchqCFfA.s 			page 99


 5587              	.LBE747:
 5588              		.loc 1 1015 8 view .LVU1443
 5589 003c 0022     		movs	r2, #0
 5590              		.loc 1 1002 9 view .LVU1444
 5591 003e 31F81630 		ldrh	r3, [r1, r6, lsl #1]
 5592              	.LVL442:
 5593              		.loc 1 1003 2 is_stmt 1 view .LVU1445
 5594              		.loc 1 1006 2 view .LVU1446
 5595              		.loc 1 1007 2 view .LVU1447
 5596              		.loc 1 1008 2 view .LVU1448
 5597              		.loc 1 1009 2 view .LVU1449
 5598              		.loc 1 1010 2 view .LVU1450
 5599              		.loc 1 1011 2 view .LVU1451
 5600              		.loc 1 1014 2 view .LVU1452
 5601              		.loc 1 1015 2 view .LVU1453
 5602 0042 1146     		mov	r1, r2
 5603              		.loc 1 1015 8 is_stmt 0 view .LVU1454
 5604 0044 03E0     		b	.L350
 5605              	.LVL443:
 5606              	.L352:
 5607              		.loc 1 1017 3 is_stmt 1 view .LVU1455
 5608              		.loc 1 1018 3 view .LVU1456
 5609 0046 0132     		adds	r2, r2, #1
 5610              	.LVL444:
 5611              		.loc 1 1018 6 is_stmt 0 view .LVU1457
 5612 0048 91B2     		uxth	r1, r2
 5613 004a 8B42     		cmp	r3, r1
 5614 004c 48D3     		bcc	.L374
 5615              	.LVL445:
 5616              	.L350:
 5617              		.loc 1 1015 8 is_stmt 1 view .LVU1458
 5618              		.loc 1 1015 27 is_stmt 0 view .LVU1459
 5619 004e 90B2     		uxth	r0, r2
 5620              		.loc 1 1015 22 view .LVU1460
 5621 0050 4619     		adds	r6, r0, r5
 5622 0052 34F91660 		ldrsh	r6, [r4, r6, lsl #1]
 5623              		.loc 1 1015 8 view .LVU1461
 5624 0056 002E     		cmp	r6, #0
 5625 0058 F5D1     		bne	.L352
 5626              		.loc 1 1003 34 view .LVU1462
 5627 005a BFB2     		uxth	r7, r7
 5628              		.loc 1 1003 9 view .LVU1463
 5629 005c 0A46     		mov	r2, r1
 5630 005e 34F917E0 		ldrsh	lr, [r4, r7, lsl #1]
 5631              	.LVL446:
 5632              	.L356:
 5633              		.loc 1 1027 3 is_stmt 1 view .LVU1464
 5634 0062 0132     		adds	r2, r2, #1
 5635              	.LVL447:
 5636              		.loc 1 1027 3 is_stmt 0 view .LVU1465
 5637 0064 92B2     		uxth	r2, r2
 5638              	.LVL448:
 5639              		.loc 1 1028 3 is_stmt 1 view .LVU1466
 5640              		.loc 1 1028 6 is_stmt 0 view .LVU1467
 5641 0066 9342     		cmp	r3, r2
 5642 0068 58D3     		bcc	.L375
 5643              		.loc 1 1025 8 is_stmt 1 view .LVU1468
ARM GAS  /tmp/cchqCFfA.s 			page 100


 5644              		.loc 1 1025 22 is_stmt 0 view .LVU1469
 5645 006a 5719     		adds	r7, r2, r5
 5646              		.loc 1 1025 8 view .LVU1470
 5647 006c 34F91770 		ldrsh	r7, [r4, r7, lsl #1]
 5648 0070 002F     		cmp	r7, #0
 5649 0072 F6D0     		beq	.L356
 5650 0074 B2FBF3F1 		udiv	r1, r2, r3
 5651 0078 03FB1121 		mls	r1, r3, r1, r2
 5652 007c 2944     		add	r1, r1, r5
 5653              		.loc 1 1048 15 view .LVU1471
 5654 007e 0027     		movs	r7, #0
 5655 0080 34F91100 		ldrsh	r0, [r4, r1, lsl #1]
 5656              		.loc 1 1046 8 view .LVU1472
 5657 0084 3946     		mov	r1, r7
 5658              	.L364:
 5659              	.LVL449:
 5660              		.loc 1 1050 2 is_stmt 1 view .LVU1473
 5661              		.loc 1 1053 3 view .LVU1474
 5662              		.loc 1 1054 3 view .LVU1475
 5663              		.loc 1 1054 9 is_stmt 0 view .LVU1476
 5664 0086 8846     		mov	r8, r1
 5665              	.LVL450:
 5666              		.loc 1 1054 9 is_stmt 1 view .LVU1477
 5667 0088 88B1     		cbz	r0, .L376
 5668              	.L359:
 5669              		.loc 1 1056 4 view .LVU1478
 5670 008a 08F10100 		add	r0, r8, #1
 5671 008e 0FFA80F8 		sxth	r8, r0
 5672              	.LVL451:
 5673              		.loc 1 1057 4 view .LVU1479
 5674              		.loc 1 1057 7 is_stmt 0 view .LVU1480
 5675 0092 9845     		cmp	r8, r3
 5676              		.loc 1 1056 4 view .LVU1481
 5677 0094 80B2     		uxth	r0, r0
 5678              		.loc 1 1057 7 view .LVU1482
 5679 0096 2EDA     		bge	.L358
 5680 0098 02EB0809 		add	r9, r2, r8
 5681 009c 99FBF3F0 		sdiv	r0, r9, r3
 5682 00a0 03FB1090 		mls	r0, r3, r0, r9
 5683 00a4 2844     		add	r0, r0, r5
 5684 00a6 34F91000 		ldrsh	r0, [r4, r0, lsl #1]
 5685              		.loc 1 1054 9 is_stmt 1 view .LVU1483
 5686 00aa 0028     		cmp	r0, #0
 5687 00ac EDD1     		bne	.L359
 5688              	.L376:
 5689              		.loc 1 1061 3 view .LVU1484
 5690              		.loc 1 1061 21 is_stmt 0 view .LVU1485
 5691 00ae A8EB0100 		sub	r0, r8, r1
 5692              		.loc 1 1061 13 view .LVU1486
 5693 00b2 00B2     		sxth	r0, r0
 5694              	.LVL452:
 5695              		.loc 1 1062 3 is_stmt 1 view .LVU1487
 5696              		.loc 1 1062 6 is_stmt 0 view .LVU1488
 5697 00b4 8642     		cmp	r6, r0
 5698 00b6 29DB     		blt	.L366
 5699              		.loc 1 1062 6 view .LVU1489
 5700 00b8 4146     		mov	r1, r8
ARM GAS  /tmp/cchqCFfA.s 			page 101


 5701              	.LVL453:
 5702              	.L360:
 5703              		.loc 1 1067 3 is_stmt 1 view .LVU1490
 5704              		.loc 1 1067 6 is_stmt 0 view .LVU1491
 5705 00ba 4345     		cmp	r3, r8
 5706 00bc 04DC     		bgt	.L362
 5707 00be 1EE0     		b	.L361
 5708              	.LVL454:
 5709              	.L363:
 5710              		.loc 1 1073 4 is_stmt 1 view .LVU1492
 5711 00c0 0131     		adds	r1, r1, #1
 5712              	.LVL455:
 5713              		.loc 1 1073 4 is_stmt 0 view .LVU1493
 5714 00c2 09B2     		sxth	r1, r1
 5715              	.LVL456:
 5716              		.loc 1 1074 4 is_stmt 1 view .LVU1494
 5717              		.loc 1 1074 7 is_stmt 0 view .LVU1495
 5718 00c4 9942     		cmp	r1, r3
 5719 00c6 1ADA     		bge	.L361
 5720              	.LVL457:
 5721              	.L362:
 5722              		.loc 1 1071 9 is_stmt 1 view .LVU1496
 5723              		.loc 1 1071 44 is_stmt 0 view .LVU1497
 5724 00c8 01EB0208 		add	r8, r1, r2
 5725              		.loc 1 1071 53 view .LVU1498
 5726 00cc 98FBF3F0 		sdiv	r0, r8, r3
 5727 00d0 03FB1080 		mls	r0, r3, r0, r8
 5728              		.loc 1 1071 23 view .LVU1499
 5729 00d4 2844     		add	r0, r0, r5
 5730 00d6 34F91000 		ldrsh	r0, [r4, r0, lsl #1]
 5731              		.loc 1 1071 9 view .LVU1500
 5732 00da 0028     		cmp	r0, #0
 5733 00dc F0D0     		beq	.L363
 5734 00de D2E7     		b	.L364
 5735              	.LVL458:
 5736              	.L374:
 5737              		.loc 1 1020 4 is_stmt 1 view .LVU1501
 5738              		.loc 1 1020 24 is_stmt 0 view .LVU1502
 5739 00e0 0023     		movs	r3, #0
 5740              	.LVL459:
 5741              		.loc 1 1020 24 view .LVU1503
 5742 00e2 24F81C30 		strh	r3, [r4, ip, lsl #1]	@ movhi
 5743              	.LVL460:
 5744              		.loc 1 1021 4 is_stmt 1 view .LVU1504
 5745              	.L349:
 5746              		.loc 1 1088 1 is_stmt 0 view .LVU1505
 5747 00e6 184B     		ldr	r3, .L378
 5748 00e8 1A68     		ldr	r2, [r3]
 5749 00ea 019B     		ldr	r3, [sp, #4]
 5750 00ec 5A40     		eors	r2, r3, r2
 5751 00ee 28D1     		bne	.L377
 5752 00f0 03B0     		add	sp, sp, #12
 5753              		.cfi_remember_state
 5754              		.cfi_def_cfa_offset 28
 5755              		@ sp needed
 5756 00f2 BDE8F083 		pop	{r4, r5, r6, r7, r8, r9, pc}
 5757              	.LVL461:
ARM GAS  /tmp/cchqCFfA.s 			page 102


 5758              	.L358:
 5759              		.cfi_restore_state
 5760              		.loc 1 1061 3 is_stmt 1 view .LVU1506
 5761              		.loc 1 1061 21 is_stmt 0 view .LVU1507
 5762 00f6 401A     		subs	r0, r0, r1
 5763              		.loc 1 1061 13 view .LVU1508
 5764 00f8 00B2     		sxth	r0, r0
 5765              	.LVL462:
 5766              		.loc 1 1062 3 is_stmt 1 view .LVU1509
 5767              		.loc 1 1062 6 is_stmt 0 view .LVU1510
 5768 00fa 8642     		cmp	r6, r0
 5769 00fc 06DB     		blt	.L366
 5770              	.LVL463:
 5771              	.L361:
 5772              		.loc 1 1080 2 is_stmt 1 view .LVU1511
 5773              		.loc 1 1080 5 is_stmt 0 view .LVU1512
 5774 00fe B645     		cmp	lr, r6
 5775 0100 17DD     		ble	.L365
 5776              	.LVL464:
 5777              	.L373:
 5778              		.loc 1 1082 3 is_stmt 1 view .LVU1513
 5779              		.loc 1 1082 23 is_stmt 0 view .LVU1514
 5780 0102 4FF6FF73 		movw	r3, #65535
 5781 0106 24F81C30 		strh	r3, [r4, ip, lsl #1]	@ movhi
 5782              		.loc 1 1082 23 view .LVU1515
 5783 010a ECE7     		b	.L349
 5784              	.LVL465:
 5785              	.L366:
 5786              		.loc 1 1064 4 is_stmt 1 view .LVU1516
 5787              		.loc 1 1065 4 view .LVU1517
 5788              		.loc 1 1065 26 is_stmt 0 view .LVU1518
 5789 010c 4144     		add	r1, r1, r8
 5790              	.LVL466:
 5791              		.loc 1 1065 38 view .LVU1519
 5792 010e 01EBD171 		add	r1, r1, r1, lsr #31
 5793              		.loc 1 1065 17 view .LVU1520
 5794 0112 41F34F07 		sbfx	r7, r1, #1, #16
 5795              	.LVL467:
 5796              		.loc 1 1065 17 view .LVU1521
 5797 0116 0646     		mov	r6, r0
 5798 0118 4146     		mov	r1, r8
 5799 011a CEE7     		b	.L360
 5800              	.LVL468:
 5801              	.L375:
 5802              		.loc 1 1030 4 is_stmt 1 view .LVU1522
 5803              		.loc 1 1030 7 is_stmt 0 view .LVU1523
 5804 011c 0029     		cmp	r1, #0
 5805 011e F0D0     		beq	.L373
 5806              	.LBB748:
 5807              		.loc 1 1036 5 is_stmt 1 view .LVU1524
 5808              	.LVL469:
 5809              		.loc 1 1037 5 view .LVU1525
 5810              		.loc 1 1036 12 is_stmt 0 view .LVU1526
 5811 0120 4B1E     		subs	r3, r1, #1
 5812              	.LVL470:
 5813              		.loc 1 1037 19 view .LVU1527
 5814 0122 9BB2     		uxth	r3, r3
ARM GAS  /tmp/cchqCFfA.s 			page 103


 5815              		.loc 1 1037 8 view .LVU1528
 5816 0124 7345     		cmp	r3, lr
 5817 0126 ECDB     		blt	.L373
 5818              		.loc 1 1040 6 is_stmt 1 view .LVU1529
 5819              		.loc 1 1040 41 is_stmt 0 view .LVU1530
 5820 0128 431E     		subs	r3, r0, #1
 5821              		.loc 1 1040 46 view .LVU1531
 5822 012a 5B10     		asrs	r3, r3, #1
 5823              		.loc 1 1040 26 view .LVU1532
 5824 012c 24F81C30 		strh	r3, [r4, ip, lsl #1]	@ movhi
 5825              		.loc 1 1040 26 view .LVU1533
 5826 0130 D9E7     		b	.L349
 5827              	.LVL471:
 5828              	.L365:
 5829              		.loc 1 1040 26 view .LVU1534
 5830              	.LBE748:
 5831              		.loc 1 1086 3 is_stmt 1 view .LVU1535
 5832              		.loc 1 1086 39 is_stmt 0 view .LVU1536
 5833 0132 1744     		add	r7, r7, r2
 5834              		.loc 1 1086 55 view .LVU1537
 5835 0134 97FBF3F2 		sdiv	r2, r7, r3
 5836              	.LVL472:
 5837              		.loc 1 1086 55 view .LVU1538
 5838 0138 03FB1273 		mls	r3, r3, r2, r7
 5839              	.LVL473:
 5840              		.loc 1 1086 23 view .LVU1539
 5841 013c 24F81C30 		strh	r3, [r4, ip, lsl #1]	@ movhi
 5842              		.loc 1 1086 23 view .LVU1540
 5843 0140 D1E7     		b	.L349
 5844              	.L377:
 5845              		.loc 1 1088 1 view .LVU1541
 5846 0142 FFF7FEFF 		bl	__stack_chk_fail
 5847              	.LVL474:
 5848              	.L379:
 5849              		.loc 1 1088 1 view .LVU1542
 5850 0146 00BF     		.align	2
 5851              	.L378:
 5852 0148 00000000 		.word	.LC26
 5853              		.cfi_endproc
 5854              	.LFE26:
 5855              		.size	AsebaNative_vecnonzerosequence, .-AsebaNative_vecnonzerosequence
 5856              		.section	.rodata.AsebaSetRandomSeed.cst4,"aM",%progbits,4
 5857              		.align	2
 5858              	.LC27:
 5859 0000 00000000 		.word	__stack_chk_guard
 5860              		.section	.text.AsebaSetRandomSeed,"ax",%progbits
 5861              		.align	1
 5862              		.p2align 4,,15
 5863              		.global	AsebaSetRandomSeed
 5864              		.syntax unified
 5865              		.thumb
 5866              		.thumb_func
 5867              		.fpu fpv4-sp-d16
 5868              		.type	AsebaSetRandomSeed, %function
 5869              	AsebaSetRandomSeed:
 5870              	.LVL475:
 5871              	.LFB27:
ARM GAS  /tmp/cchqCFfA.s 			page 104


 5872              		.loc 1 1106 1 is_stmt 1 view -0
 5873              		.cfi_startproc
 5874              		@ args = 0, pretend = 0, frame = 8
 5875              		@ frame_needed = 0, uses_anonymous_args = 0
 5876              		.loc 1 1106 1 is_stmt 0 view .LVU1544
 5877 0000 00B5     		push	{lr}
 5878              		.cfi_def_cfa_offset 4
 5879              		.cfi_offset 14, -4
 5880              		.loc 1 1107 12 view .LVU1545
 5881 0002 094B     		ldr	r3, .L384
 5882              		.loc 1 1106 1 view .LVU1546
 5883 0004 094A     		ldr	r2, .L384+4
 5884 0006 83B0     		sub	sp, sp, #12
 5885              		.cfi_def_cfa_offset 16
 5886              		.loc 1 1106 1 view .LVU1547
 5887 0008 1268     		ldr	r2, [r2]
 5888 000a 0192     		str	r2, [sp, #4]
 5889 000c 4FF00002 		mov	r2,#0
 5890              		.loc 1 1107 2 is_stmt 1 view .LVU1548
 5891              		.loc 1 1107 12 is_stmt 0 view .LVU1549
 5892 0010 1880     		strh	r0, [r3]	@ movhi
 5893              		.loc 1 1108 1 view .LVU1550
 5894 0012 064B     		ldr	r3, .L384+4
 5895 0014 1A68     		ldr	r2, [r3]
 5896 0016 019B     		ldr	r3, [sp, #4]
 5897 0018 5A40     		eors	r2, r3, r2
 5898 001a 02D1     		bne	.L383
 5899 001c 03B0     		add	sp, sp, #12
 5900              		.cfi_remember_state
 5901              		.cfi_def_cfa_offset 4
 5902              		@ sp needed
 5903 001e 5DF804FB 		ldr	pc, [sp], #4
 5904              	.L383:
 5905              		.cfi_restore_state
 5906 0022 FFF7FEFF 		bl	__stack_chk_fail
 5907              	.LVL476:
 5908              	.L385:
 5909              		.loc 1 1108 1 view .LVU1551
 5910 0026 00BF     		.align	2
 5911              	.L384:
 5912 0028 00000000 		.word	.LANCHOR2
 5913 002c 00000000 		.word	.LC27
 5914              		.cfi_endproc
 5915              	.LFE27:
 5916              		.size	AsebaSetRandomSeed, .-AsebaSetRandomSeed
 5917              		.section	.rodata.AsebaGetRandom.cst4,"aM",%progbits,4
 5918              		.align	2
 5919              	.LC28:
 5920 0000 00000000 		.word	__stack_chk_guard
 5921              		.section	.text.AsebaGetRandom,"ax",%progbits
 5922              		.align	1
 5923              		.p2align 4,,15
 5924              		.global	AsebaGetRandom
 5925              		.syntax unified
 5926              		.thumb
 5927              		.thumb_func
 5928              		.fpu fpv4-sp-d16
ARM GAS  /tmp/cchqCFfA.s 			page 105


 5929              		.type	AsebaGetRandom, %function
 5930              	AsebaGetRandom:
 5931              	.LFB28:
 5932              		.loc 1 1111 1 is_stmt 1 view -0
 5933              		.cfi_startproc
 5934              		@ args = 0, pretend = 0, frame = 8
 5935              		@ frame_needed = 0, uses_anonymous_args = 0
 5936 0000 00B5     		push	{lr}
 5937              		.cfi_def_cfa_offset 4
 5938              		.cfi_offset 14, -4
 5939              		.loc 1 1112 32 is_stmt 0 view .LVU1553
 5940 0002 104A     		ldr	r2, .L390
 5941              		.loc 1 1111 1 view .LVU1554
 5942 0004 104B     		ldr	r3, .L390+4
 5943              		.loc 1 1112 32 view .LVU1555
 5944 0006 1088     		ldrh	r0, [r2]
 5945              		.loc 1 1111 1 view .LVU1556
 5946 0008 83B0     		sub	sp, sp, #12
 5947              		.cfi_def_cfa_offset 16
 5948              		.loc 1 1111 1 view .LVU1557
 5949 000a 1B68     		ldr	r3, [r3]
 5950 000c 0193     		str	r3, [sp, #4]
 5951 000e 4FF00003 		mov	r3,#0
 5952              		.loc 1 1112 2 is_stmt 1 view .LVU1558
 5953              		.loc 1 1112 32 is_stmt 0 view .LVU1559
 5954 0012 C0EBC003 		rsb	r3, r0, r0, lsl #3
 5955 0016 00EB8303 		add	r3, r0, r3, lsl #2
 5956 001a C3EBC303 		rsb	r3, r3, r3, lsl #3
 5957 001e C3EB4313 		rsb	r3, r3, r3, lsl #5
 5958 0022 00EB8300 		add	r0, r0, r3, lsl #2
 5959 0026 00F55850 		add	r0, r0, #13824
 5960 002a 1930     		adds	r0, r0, #25
 5961              		.loc 1 1114 1 view .LVU1560
 5962 002c 064B     		ldr	r3, .L390+4
 5963              		.loc 1 1112 32 view .LVU1561
 5964 002e 80B2     		uxth	r0, r0
 5965              		.loc 1 1112 12 view .LVU1562
 5966 0030 1080     		strh	r0, [r2]	@ movhi
 5967              		.loc 1 1113 2 is_stmt 1 view .LVU1563
 5968              		.loc 1 1114 1 is_stmt 0 view .LVU1564
 5969 0032 1A68     		ldr	r2, [r3]
 5970 0034 019B     		ldr	r3, [sp, #4]
 5971 0036 5A40     		eors	r2, r3, r2
 5972 0038 02D1     		bne	.L389
 5973 003a 03B0     		add	sp, sp, #12
 5974              		.cfi_remember_state
 5975              		.cfi_def_cfa_offset 4
 5976              		@ sp needed
 5977 003c 5DF804FB 		ldr	pc, [sp], #4
 5978              	.L389:
 5979              		.cfi_restore_state
 5980 0040 FFF7FEFF 		bl	__stack_chk_fail
 5981              	.LVL477:
 5982              	.L391:
 5983              		.align	2
 5984              	.L390:
 5985 0044 00000000 		.word	.LANCHOR2
ARM GAS  /tmp/cchqCFfA.s 			page 106


 5986 0048 00000000 		.word	.LC28
 5987              		.cfi_endproc
 5988              	.LFE28:
 5989              		.size	AsebaGetRandom, .-AsebaGetRandom
 5990              		.section	.rodata.AsebaNative_rand.cst4,"aM",%progbits,4
 5991              		.align	2
 5992              	.LC29:
 5993 0000 00000000 		.word	__stack_chk_guard
 5994              		.section	.text.AsebaNative_rand,"ax",%progbits
 5995              		.align	1
 5996              		.p2align 4,,15
 5997              		.global	AsebaNative_rand
 5998              		.syntax unified
 5999              		.thumb
 6000              		.thumb_func
 6001              		.fpu fpv4-sp-d16
 6002              		.type	AsebaNative_rand, %function
 6003              	AsebaNative_rand:
 6004              	.LVL478:
 6005              	.LFB29:
 6006              		.loc 1 1117 1 is_stmt 1 view -0
 6007              		.cfi_startproc
 6008              		@ args = 0, pretend = 0, frame = 8
 6009              		@ frame_needed = 0, uses_anonymous_args = 0
 6010              		.loc 1 1117 1 is_stmt 0 view .LVU1566
 6011 0000 F0B5     		push	{r4, r5, r6, r7, lr}
 6012              		.cfi_def_cfa_offset 20
 6013              		.cfi_offset 4, -20
 6014              		.cfi_offset 5, -16
 6015              		.cfi_offset 6, -12
 6016              		.cfi_offset 7, -8
 6017              		.cfi_offset 14, -4
 6018              	.LBB749:
 6019              	.LBB750:
 6020              		.loc 2 90 21 view .LVU1567
 6021 0002 B0F91C10 		ldrsh	r1, [r0, #28]
 6022              	.LBE750:
 6023              	.LBE749:
 6024              		.loc 1 1117 1 view .LVU1568
 6025 0006 1B4B     		ldr	r3, .L402
 6026              		.loc 1 1119 21 view .LVU1569
 6027 0008 4469     		ldr	r4, [r0, #20]
 6028              	.LBB753:
 6029              	.LBB751:
 6030              		.loc 2 90 25 view .LVU1570
 6031 000a 8AB2     		uxth	r2, r1
 6032              	.LBE751:
 6033              	.LBE753:
 6034              		.loc 1 1117 1 view .LVU1571
 6035 000c 83B0     		sub	sp, sp, #12
 6036              		.cfi_def_cfa_offset 32
 6037              		.loc 1 1117 1 view .LVU1572
 6038 000e 1B68     		ldr	r3, [r3]
 6039 0010 0193     		str	r3, [sp, #4]
 6040 0012 4FF00003 		mov	r3,#0
 6041              		.loc 1 1119 2 is_stmt 1 view .LVU1573
 6042              	.LBB754:
ARM GAS  /tmp/cchqCFfA.s 			page 107


 6043              	.LBI749:
 6044              		.loc 2 88 22 view .LVU1574
 6045              	.LVL479:
 6046              	.LBB752:
 6047              		.loc 2 90 2 view .LVU1575
 6048              		.loc 2 90 25 is_stmt 0 view .LVU1576
 6049 0016 531E     		subs	r3, r2, #1
 6050 0018 1BB2     		sxth	r3, r3
 6051 001a 8383     		strh	r3, [r0, #28]	@ movhi
 6052              	.LBE752:
 6053              	.LBE754:
 6054              	.LBB755:
 6055              	.LBB756:
 6056 001c 023A     		subs	r2, r2, #2
 6057              	.LBE756:
 6058              	.LBE755:
 6059              		.loc 1 1119 9 view .LVU1577
 6060 001e 34F81110 		ldrh	r1, [r4, r1, lsl #1]
 6061              	.LVL480:
 6062              		.loc 1 1122 2 is_stmt 1 view .LVU1578
 6063              	.LBB758:
 6064              	.LBI755:
 6065              		.loc 2 88 22 view .LVU1579
 6066              	.LBB757:
 6067              		.loc 2 90 2 view .LVU1580
 6068              		.loc 2 90 25 is_stmt 0 view .LVU1581
 6069 0022 8283     		strh	r2, [r0, #28]	@ movhi
 6070              	.LBE757:
 6071              	.LBE758:
 6072              		.loc 1 1122 9 view .LVU1582
 6073 0024 34F81350 		ldrh	r5, [r4, r3, lsl #1]
 6074              	.LVL481:
 6075              		.loc 1 1124 2 is_stmt 1 view .LVU1583
 6076              		.loc 1 1125 2 view .LVU1584
 6077              		.loc 1 1125 14 view .LVU1585
 6078              		.loc 1 1125 2 is_stmt 0 view .LVU1586
 6079 0028 D5B1     		cbz	r5, .L392
 6080 002a 134F     		ldr	r7, .L402+4
 6081 002c 0D44     		add	r5, r5, r1
 6082              	.LVL482:
 6083              		.loc 1 1125 2 view .LVU1587
 6084 002e 3B88     		ldrh	r3, [r7]
 6085              	.LVL483:
 6086              		.loc 1 1125 2 view .LVU1588
 6087 0030 ADB2     		uxth	r5, r5
 6088              	.LBB759:
 6089              	.LBB760:
 6090              		.loc 1 1112 32 view .LVU1589
 6091 0032 43F21966 		movw	r6, #13849
 6092              	.LVL484:
 6093              	.L394:
 6094              		.loc 1 1112 32 view .LVU1590
 6095              	.LBE760:
 6096              	.LBE759:
 6097              		.loc 1 1127 3 is_stmt 1 view .LVU1591
 6098              	.LBB764:
 6099              	.LBI759:
ARM GAS  /tmp/cchqCFfA.s 			page 108


 6100              		.loc 1 1110 8 view .LVU1592
 6101              	.LBB761:
 6102              		.loc 1 1112 2 view .LVU1593
 6103              		.loc 1 1112 32 is_stmt 0 view .LVU1594
 6104 0036 C3EBC302 		rsb	r2, r3, r3, lsl #3
 6105 003a 03EB8202 		add	r2, r3, r2, lsl #2
 6106 003e C2EBC202 		rsb	r2, r2, r2, lsl #3
 6107 0042 C2EB4212 		rsb	r2, r2, r2, lsl #5
 6108 0046 03EB8203 		add	r3, r3, r2, lsl #2
 6109 004a 0A46     		mov	r2, r1
 6110              	.LBE761:
 6111              	.LBE764:
 6112              		.loc 1 1127 26 view .LVU1595
 6113 004c 0131     		adds	r1, r1, #1
 6114              	.LVL485:
 6115              		.loc 1 1127 30 view .LVU1596
 6116 004e C468     		ldr	r4, [r0, #12]
 6117              	.LBB765:
 6118              	.LBB762:
 6119              		.loc 1 1112 32 view .LVU1597
 6120 0050 3344     		add	r3, r3, r6
 6121              	.LBE762:
 6122              	.LBE765:
 6123              		.loc 1 1127 26 view .LVU1598
 6124 0052 89B2     		uxth	r1, r1
 6125              	.LBB766:
 6126              	.LBB763:
 6127              		.loc 1 1112 32 view .LVU1599
 6128 0054 9BB2     		uxth	r3, r3
 6129              		.loc 1 1113 2 is_stmt 1 view .LVU1600
 6130              	.LVL486:
 6131              		.loc 1 1113 2 is_stmt 0 view .LVU1601
 6132              	.LBE763:
 6133              	.LBE766:
 6134              		.loc 1 1125 2 view .LVU1602
 6135 0056 A942     		cmp	r1, r5
 6136              		.loc 1 1127 30 view .LVU1603
 6137 0058 24F81230 		strh	r3, [r4, r2, lsl #1]	@ movhi
 6138              		.loc 1 1125 26 is_stmt 1 view .LVU1604
 6139              		.loc 1 1125 14 view .LVU1605
 6140              		.loc 1 1125 2 is_stmt 0 view .LVU1606
 6141 005c EBD1     		bne	.L394
 6142 005e 3B80     		strh	r3, [r7]	@ movhi
 6143              	.L392:
 6144              		.loc 1 1129 1 view .LVU1607
 6145 0060 044B     		ldr	r3, .L402
 6146 0062 1A68     		ldr	r2, [r3]
 6147 0064 019B     		ldr	r3, [sp, #4]
 6148 0066 5A40     		eors	r2, r3, r2
 6149 0068 01D1     		bne	.L401
 6150 006a 03B0     		add	sp, sp, #12
 6151              		.cfi_remember_state
 6152              		.cfi_def_cfa_offset 20
 6153              		@ sp needed
 6154 006c F0BD     		pop	{r4, r5, r6, r7, pc}
 6155              	.L401:
 6156              		.cfi_restore_state
ARM GAS  /tmp/cchqCFfA.s 			page 109


 6157 006e FFF7FEFF 		bl	__stack_chk_fail
 6158              	.LVL487:
 6159              	.L403:
 6160              		.loc 1 1129 1 view .LVU1608
 6161 0072 00BF     		.align	2
 6162              	.L402:
 6163 0074 00000000 		.word	.LC29
 6164 0078 00000000 		.word	.LANCHOR2
 6165              		.cfi_endproc
 6166              	.LFE29:
 6167              		.size	AsebaNative_rand, .-AsebaNative_rand
 6168              		.global	AsebaNativeDescription_rand
 6169              		.section	.rodata.str1.4,"aMS",%progbits,1
 6170              		.align	2
 6171              	.LC30:
 6172 0000 6D617468 		.ascii	"math.rand\000"
 6172      2E72616E 
 6172      6400
 6173 000a 0000     		.align	2
 6174              	.LC31:
 6175 000c 66696C6C 		.ascii	"fill array with random values\000"
 6175      20617272 
 6175      61792077 
 6175      69746820 
 6175      72616E64 
 6176 002a 0000     		.align	2
 6177              	.LC32:
 6178 002c 64657374 		.ascii	"dest\000"
 6178      00
 6179              		.global	AsebaNativeDescription_vecnonzerosequence
 6180 0031 000000   		.align	2
 6181              	.LC33:
 6182 0034 6D617468 		.ascii	"math.nzseq\000"
 6182      2E6E7A73 
 6182      657100
 6183 003f 00       		.align	2
 6184              	.LC34:
 6185 0040 77726974 		.ascii	"write to dest the middle index of the largest seque"
