ARM GAS  /tmp/cchqCFfA.s 			page 1


   1              		.cpu cortex-m4
   2              		.eabi_attribute 27, 1
   3              		.eabi_attribute 28, 1
   4              		.eabi_attribute 20, 1
   5              		.eabi_attribute 21, 1
   6              		.eabi_attribute 23, 3
   7              		.eabi_attribute 24, 1
   8              		.eabi_attribute 25, 1
   9              		.eabi_attribute 26, 1
  10              		.eabi_attribute 30, 2
  11              		.eabi_attribute 34, 1
  12              		.eabi_attribute 18, 4
  13              		.file	"natives.c"
  14              		.text
  15              	.Ltext0:
  16              		.cfi_sections	.debug_frame
  17              		.section	.rodata.aseba_atan2.part.0.cst4,"aM",%progbits,4
  18              		.align	2
  19              	.LC0:
  20 0000 00000000 		.word	__stack_chk_guard
  21              		.section	.text.aseba_atan2.part.0,"ax",%progbits
  22              		.align	1
  23              		.p2align 4,,15
  24              		.arch armv7e-m
  25              		.syntax unified
  26              		.thumb
  27              		.thumb_func
  28              		.fpu fpv4-sp-d16
  29              		.type	aseba_atan2.part.0, %function
  30              	aseba_atan2.part.0:
  31              	.LVL0:
  32              	.LFB31:
  33              		.file 1 ".//aseba/vm/natives.c"
  34              		.loc 1 69 8 view -0
  35              		.cfi_startproc
  36              		@ args = 0, pretend = 0, frame = 8
  37              		@ frame_needed = 0, uses_anonymous_args = 0
  38              		.loc 1 69 8 is_stmt 0 view .LVU1
  39 0000 70B5     		push	{r4, r5, r6, lr}
  40              		.cfi_def_cfa_offset 16
  41              		.cfi_offset 4, -16
  42              		.cfi_offset 5, -12
  43              		.cfi_offset 6, -8
  44              		.cfi_offset 14, -4
  45 0002 2E4B     		ldr	r3, .L17
  46 0004 82B0     		sub	sp, sp, #8
  47              		.cfi_def_cfa_offset 24
  48              		.loc 1 69 8 view .LVU2
  49 0006 0646     		mov	r6, r0
  50 0008 1B68     		ldr	r3, [r3]
  51 000a 0193     		str	r3, [sp, #4]
  52 000c 4FF00003 		mov	r3,#0
  53              	.LBB190:
  54              		.loc 1 80 3 is_stmt 1 view .LVU3
  55              		.loc 1 81 3 view .LVU4
  56              	.LVL1:
  57              		.loc 1 82 3 view .LVU5
ARM GAS  /tmp/cchqCFfA.s 			page 2


  58              		.loc 1 83 3 view .LVU6
  59              		.loc 1 83 6 is_stmt 0 view .LVU7
  60 0010 0029     		cmp	r1, #0
  61 0012 3CD0     		beq	.L9
  62              	.LBB191:
  63              		.loc 1 128 4 is_stmt 1 view .LVU8
  64              	.LBE191:
  65              		.loc 1 82 15 is_stmt 0 view .LVU9
  66 0014 80EAE075 		eor	r5, r0, r0, asr #31
  67 0018 A5EBE075 		sub	r5, r5, r0, asr #31
  68              	.LBB195:
  69              		.loc 1 128 11 view .LVU10
  70 001c 0023     		movs	r3, #0
  71              	.LBE195:
  72              		.loc 1 81 15 view .LVU11
  73 001e 81EAE170 		eor	r0, r1, r1, asr #31
  74              	.LVL2:
  75              		.loc 1 81 15 view .LVU12
  76 0022 A0EBE170 		sub	r0, r0, r1, asr #31
  77              	.LBB196:
  78              		.loc 1 129 11 view .LVU13
  79 0026 1A46     		mov	r2, r3
  80              		.loc 1 128 32 view .LVU14
  81 0028 2D04     		lsls	r5, r5, #16
  82              		.loc 1 128 39 view .LVU15
  83 002a 00B2     		sxth	r0, r0
  84              		.loc 1 128 11 view .LVU16
  85 002c 95FBF0F5 		sdiv	r5, r5, r0
  86              	.LVL3:
  87              		.loc 1 129 4 is_stmt 1 view .LVU17
  88              		.loc 1 131 4 view .LVU18
  89              		.loc 1 132 4 view .LVU19
  90              		.loc 1 132 26 view .LVU20
  91              	.L4:
  92              		.loc 1 133 8 is_stmt 0 view .LVU21
  93 0030 55FA03F0 		asrs	r0, r5, r3
  94 0034 1CB2     		sxth	r4, r3
  95              	.LVL4:
  96              		.loc 1 133 5 is_stmt 1 view .LVU22
  97 0036 03F10103 		add	r3, r3, #1
  98              		.loc 1 133 8 is_stmt 0 view .LVU23
  99 003a 18BF     		it	ne
 100 003c 2246     		movne	r2, r4
 101              	.LVL5:
 102              		.loc 1 132 44 is_stmt 1 view .LVU24
 103              		.loc 1 132 26 view .LVU25
 104              		.loc 1 132 4 is_stmt 0 view .LVU26
 105 003e 202B     		cmp	r3, #32
 106 0040 F6D1     		bne	.L4
 107              	.LBB192:
 108              		.loc 1 138 5 is_stmt 1 view .LVU27
 109              		.loc 1 138 24 is_stmt 0 view .LVU28
 110 0042 90B2     		uxth	r0, r2
 111 0044 A0F10C04 		sub	r4, r0, #12
 112              		.loc 1 138 12 view .LVU29
 113 0048 24B2     		sxth	r4, r4
 114              	.LVL6:
ARM GAS  /tmp/cchqCFfA.s 			page 3


 115              		.loc 1 139 5 is_stmt 1 view .LVU30
 116              		.loc 1 139 8 is_stmt 0 view .LVU31
 117 004a 002C     		cmp	r4, #0
 118 004c 2CDB     		blt	.L15
 119              	.LBB193:
 120              		.loc 1 146 6 is_stmt 1 view .LVU32
 121              	.LVL7:
 122              		.loc 1 147 6 view .LVU33
 123              		.loc 1 148 6 view .LVU34
 124              		.loc 1 146 55 is_stmt 0 view .LVU35
 125 004e 0123     		movs	r3, #1
 126 0050 9340     		lsls	r3, r3, r2
 127              		.loc 1 147 28 view .LVU36
 128 0052 0838     		subs	r0, r0, #8
 129              	.LVL8:
 130              		.loc 1 148 61 view .LVU37
 131 0054 00B2     		sxth	r0, r0
 132              	.LVL9:
 133              		.loc 1 146 13 view .LVU38
 134 0056 EB1A     		subs	r3, r5, r3
 135              		.loc 1 148 61 view .LVU39
 136 0058 0341     		asrs	r3, r3, r0
 137              	.LVL10:
 138              		.loc 1 149 6 is_stmt 1 view .LVU40
 139              		.loc 1 150 6 view .LVU41
 140              		.loc 1 151 55 is_stmt 0 view .LVU42
 141 005a 43F34A12 		sbfx	r2, r3, #5, #11
 142              	.LVL11:
 143              		.loc 1 151 55 view .LVU43
 144 005e 02EBC404 		add	r4, r2, r4, lsl #3
 145              	.LVL12:
 146              		.loc 1 151 46 view .LVU44
 147 0062 1748     		ldr	r0, .L17+4
 148              		.loc 1 151 111 view .LVU45
 149 0064 621C     		adds	r2, r4, #1
 150              		.loc 1 150 13 view .LVU46
 151 0066 03F01F03 		and	r3, r3, #31
 152              	.LVL13:
 153              		.loc 1 151 6 is_stmt 1 view .LVU47
 154              		.loc 1 151 131 is_stmt 0 view .LVU48
 155 006a 30F81220 		ldrh	r2, [r0, r2, lsl #1]
 156              		.loc 1 151 22 view .LVU49
 157 006e 30F91400 		ldrsh	r0, [r0, r4, lsl #1]
 158              		.loc 1 151 131 view .LVU50
 159 0072 12FB03F2 		smulbb	r2, r2, r3
 160              		.loc 1 151 76 view .LVU51
 161 0076 C3F12003 		rsb	r3, r3, #32
 162              	.LVL14:
 163              		.loc 1 151 85 view .LVU52
 164 007a 03FB0023 		mla	r3, r3, r0, r2
 165              		.loc 1 151 10 view .LVU53
 166 007e 43F34F10 		sbfx	r0, r3, #5, #16
 167              	.LVL15:
 168              	.L6:
 169              		.loc 1 151 10 view .LVU54
 170              	.LBE193:
 171              		.loc 1 155 5 is_stmt 1 view .LVU55
ARM GAS  /tmp/cchqCFfA.s 			page 4


 172              		.loc 1 155 8 is_stmt 0 view .LVU56
 173 0082 0029     		cmp	r1, #0
 174 0084 05DA     		bge	.L2
 175              		.loc 1 156 6 is_stmt 1 view .LVU57
 176              		.loc 1 156 18 is_stmt 0 view .LVU58
 177 0086 C0F50040 		rsb	r0, r0, #32768
 178              	.LVL16:
 179              		.loc 1 156 10 view .LVU59
 180 008a 00B2     		sxth	r0, r0
 181              	.LVL17:
 182              		.loc 1 156 10 view .LVU60
 183 008c 01E0     		b	.L2
 184              	.LVL18:
 185              	.L9:
 186              		.loc 1 156 10 view .LVU61
 187              	.LBE192:
 188              	.LBE196:
 189              		.loc 1 85 8 view .LVU62
 190 008e 4FF48040 		mov	r0, #16384
 191              	.LVL19:
 192              	.L2:
 193              		.loc 1 160 3 is_stmt 1 view .LVU63
 194              		.loc 1 160 6 is_stmt 0 view .LVU64
 195 0092 002E     		cmp	r6, #0
 196              		.loc 1 163 4 is_stmt 1 view .LVU65
 197              	.LBE190:
 198              		.loc 1 165 1 is_stmt 0 view .LVU66
 199 0094 094B     		ldr	r3, .L17
 200              	.LBB198:
 201              		.loc 1 163 11 view .LVU67
 202 0096 DCBF     		itt	le
 203 0098 4042     		rsble	r0, r0, #0
 204              	.LVL20:
 205              		.loc 1 163 11 view .LVU68
 206 009a 00B2     		sxthle	r0, r0
 207              	.LBE198:
 208              		.loc 1 165 1 view .LVU69
 209 009c 1A68     		ldr	r2, [r3]
 210 009e 019B     		ldr	r3, [sp, #4]
 211 00a0 5A40     		eors	r2, r3, r2
 212 00a2 08D1     		bne	.L16
 213 00a4 02B0     		add	sp, sp, #8
 214              		.cfi_remember_state
 215              		.cfi_def_cfa_offset 16
 216              		@ sp needed
 217 00a6 70BD     		pop	{r4, r5, r6, pc}
 218              	.LVL21:
 219              	.L15:
 220              		.cfi_restore_state
 221              	.LBB199:
 222              	.LBB197:
 223              	.LBB194:
 224              		.loc 1 142 6 is_stmt 1 view .LVU70
 225              		.loc 1 142 50 is_stmt 0 view .LVU71
 226 00a8 4FF42370 		mov	r0, #652
 227 00ac 00FB05F0 		mul	r0, r0, r5
 228              		.loc 1 142 10 view .LVU72
ARM GAS  /tmp/cchqCFfA.s 			page 5


 229 00b0 40F30F30 		sbfx	r0, r0, #12, #16
 230              	.LVL22:
 231              		.loc 1 142 10 view .LVU73
 232 00b4 E5E7     		b	.L6
 233              	.LVL23:
 234              	.L16:
 235              		.loc 1 142 10 view .LVU74
 236              	.LBE194:
 237              	.LBE197:
 238              	.LBE199:
 239              		.loc 1 165 1 view .LVU75
 240 00b6 FFF7FEFF 		bl	__stack_chk_fail
 241              	.LVL24:
 242              	.L18:
 243              		.loc 1 165 1 view .LVU76
 244 00ba 00BF     		.align	2
 245              	.L17:
 246 00bc 00000000 		.word	.LC0
 247 00c0 00000000 		.word	.LANCHOR0
 248              		.cfi_endproc
 249              	.LFE31:
 250              		.size	aseba_atan2.part.0, .-aseba_atan2.part.0
 251              		.section	.rodata.aseba_atan2.cst4,"aM",%progbits,4
 252              		.align	2
 253              	.LC1:
 254 0000 00000000 		.word	__stack_chk_guard
 255              		.section	.text.aseba_atan2,"ax",%progbits
 256              		.align	1
 257              		.p2align 4,,15
 258              		.global	aseba_atan2
 259              		.syntax unified
 260              		.thumb
 261              		.thumb_func
 262              		.fpu fpv4-sp-d16
 263              		.type	aseba_atan2, %function
 264              	aseba_atan2:
 265              	.LVL25:
 266              	.LFB1:
 267              		.loc 1 70 1 is_stmt 1 view -0
 268              		.cfi_startproc
 269              		@ args = 0, pretend = 0, frame = 8
 270              		@ frame_needed = 0, uses_anonymous_args = 0
 271              		.loc 1 70 1 is_stmt 0 view .LVU78
 272 0000 00B5     		push	{lr}
 273              		.cfi_def_cfa_offset 4
 274              		.cfi_offset 14, -4
 275 0002 104B     		ldr	r3, .L27
 276 0004 83B0     		sub	sp, sp, #12
 277              		.cfi_def_cfa_offset 16
 278              		.loc 1 70 1 view .LVU79
 279 0006 1B68     		ldr	r3, [r3]
 280 0008 0193     		str	r3, [sp, #4]
 281 000a 4FF00003 		mov	r3,#0
 282              		.loc 1 71 2 is_stmt 1 view .LVU80
 283              		.loc 1 71 5 is_stmt 0 view .LVU81
 284 000e 60B9     		cbnz	r0, .L20
 285              		.loc 1 73 3 is_stmt 1 view .LVU82
ARM GAS  /tmp/cchqCFfA.s 			page 6


 286              		.loc 1 165 1 is_stmt 0 view .LVU83
 287 0010 0C4B     		ldr	r3, .L27
 288              		.loc 1 73 6 view .LVU84
 289 0012 0029     		cmp	r1, #0
 290              		.loc 1 76 11 view .LVU85
 291 0014 A0F50040 		sub	r0, r0, #32768
 292              	.LVL26:
 293              		.loc 1 76 11 view .LVU86
 294 0018 A8BF     		it	ge
 295 001a 0020     		movge	r0, #0
 296              		.loc 1 165 1 view .LVU87
 297 001c 1A68     		ldr	r2, [r3]
 298 001e 019B     		ldr	r3, [sp, #4]
 299 0020 5A40     		eors	r2, r3, r2
 300 0022 0CD1     		bne	.L25
 301 0024 03B0     		add	sp, sp, #12
 302              		.cfi_remember_state
 303              		.cfi_def_cfa_offset 4
 304              		@ sp needed
 305 0026 5DF804FB 		ldr	pc, [sp], #4
 306              	.LVL27:
 307              	.L20:
 308              		.cfi_restore_state
 309              		.loc 1 165 1 view .LVU88
 310 002a 064B     		ldr	r3, .L27
 311 002c 1A68     		ldr	r2, [r3]
 312 002e 019B     		ldr	r3, [sp, #4]
 313 0030 5A40     		eors	r2, r3, r2
 314 0032 04D1     		bne	.L25
 315 0034 03B0     		add	sp, sp, #12
 316              		.cfi_remember_state
 317              		.cfi_def_cfa_offset 4
 318              		@ sp needed
 319 0036 5DF804EB 		ldr	lr, [sp], #4
 320              		.cfi_restore 14
 321              		.cfi_def_cfa_offset 0
 322 003a FFF7FEBF 		b	aseba_atan2.part.0
 323              	.LVL28:
 324              	.L25:
 325              		.cfi_restore_state
 326              		.loc 1 165 1 view .LVU89
 327 003e FFF7FEFF 		bl	__stack_chk_fail
 328              	.LVL29:
 329              	.L28:
 330              		.loc 1 165 1 view .LVU90
 331 0042 00BF     		.align	2
 332              	.L27:
 333 0044 00000000 		.word	.LC1
 334              		.cfi_endproc
 335              	.LFE1:
 336              		.size	aseba_atan2, .-aseba_atan2
 337              		.section	.rodata.aseba_sin.cst4,"aM",%progbits,4
 338              		.align	2
 339              	.LC2:
 340 0000 00000000 		.word	__stack_chk_guard
 341              		.section	.text.aseba_sin,"ax",%progbits
 342              		.align	1
ARM GAS  /tmp/cchqCFfA.s 			page 7


 343              		.p2align 4,,15
 344              		.global	aseba_sin
 345              		.syntax unified
 346              		.thumb
 347              		.thumb_func
 348              		.fpu fpv4-sp-d16
 349              		.type	aseba_sin, %function
 350              	aseba_sin:
 351              	.LVL30:
 352              	.LFB2:
 353              		.loc 1 181 1 is_stmt 1 view -0
 354              		.cfi_startproc
 355              		@ args = 0, pretend = 0, frame = 8
 356              		@ frame_needed = 0, uses_anonymous_args = 0
 357              		.loc 1 181 1 is_stmt 0 view .LVU92
 358 0000 00B5     		push	{lr}
 359              		.cfi_def_cfa_offset 4
 360              		.cfi_offset 14, -4
 361 0002 264B     		ldr	r3, .L44
 362 0004 83B0     		sub	sp, sp, #12
 363              		.cfi_def_cfa_offset 16
 364              		.loc 1 186 5 view .LVU93
 365 0006 0028     		cmp	r0, #0
 366              	.LVL31:
 367              		.loc 1 181 1 view .LVU94
 368 0008 1B68     		ldr	r3, [r3]
 369 000a 0193     		str	r3, [sp, #4]
 370 000c 4FF00003 		mov	r3,#0
 371              		.loc 1 182 2 is_stmt 1 view .LVU95
 372              		.loc 1 183 2 view .LVU96
 373              		.loc 1 184 2 view .LVU97
 374              		.loc 1 185 2 view .LVU98
 375              		.loc 1 186 2 view .LVU99
 376              		.loc 1 186 5 is_stmt 0 view .LVU100
 377 0010 20DB     		blt	.L40
 378              		.loc 1 198 3 is_stmt 1 view .LVU101
 379              		.loc 1 198 6 is_stmt 0 view .LVU102
 380 0012 B0F5804F 		cmp	r0, #16384
 381 0016 19DC     		bgt	.L41
 382              		.loc 1 200 8 is_stmt 1 view .LVU103
 383              		.loc 1 200 11 is_stmt 0 view .LVU104
 384 0018 39D0     		beq	.L42
 385              	.L35:
 386              	.LVL32:
 387              		.loc 1 207 2 is_stmt 1 view .LVU105
 388              		.loc 1 208 2 view .LVU106
 389              	.LBB200:
 390              		.loc 1 211 52 is_stmt 0 view .LVU107
 391 001a C211     		asrs	r2, r0, #7
 392              		.loc 1 211 110 view .LVU108
 393 001c 204B     		ldr	r3, .L44+4
 394 001e 511C     		adds	r1, r2, #1
 395              	.LBE200:
 396              		.loc 1 208 11 view .LVU109
 397 0020 00F07F00 		and	r0, r0, #127
 398              	.LVL33:
 399              	.LBB201:
ARM GAS  /tmp/cchqCFfA.s 			page 8


 400              		.loc 1 211 3 is_stmt 1 view .LVU110
 401              		.loc 1 213 3 view .LVU111
 402              		.loc 1 211 29 is_stmt 0 view .LVU112
 403 0024 33F91220 		ldrsh	r2, [r3, r2, lsl #1]
 404              	.LVL34:
 405              		.loc 1 211 85 view .LVU113
 406 0028 33F81130 		ldrh	r3, [r3, r1, lsl #1]
 407              		.loc 1 211 74 view .LVU114
 408 002c C0F18001 		rsb	r1, r0, #128
 409              	.LVL35:
 410              		.loc 1 211 60 view .LVU115
 411 0030 02FB01F2 		mul	r2, r2, r1
 412              		.loc 1 211 85 view .LVU116
 413 0034 13FB0020 		smlabb	r0, r3, r0, r2
 414              	.LVL36:
 415              		.loc 1 211 10 view .LVU117
 416 0038 40F3CF10 		sbfx	r0, r0, #7, #16
 417              	.LVL37:
 418              	.L33:
 419              		.loc 1 211 10 view .LVU118
 420              	.LBE201:
 421              		.loc 1 218 1 view .LVU119
 422 003c 174B     		ldr	r3, .L44
 423 003e 1A68     		ldr	r2, [r3]
 424 0040 019B     		ldr	r3, [sp, #4]
 425 0042 5A40     		eors	r2, r3, r2
 426 0044 28D1     		bne	.L43
 427 0046 03B0     		add	sp, sp, #12
 428              		.cfi_remember_state
 429              		.cfi_def_cfa_offset 4
 430              		@ sp needed
 431 0048 5DF804FB 		ldr	pc, [sp], #4
 432              	.L41:
 433              		.cfi_restore_state
 434              		.loc 1 199 4 is_stmt 1 view .LVU120
 435              		.loc 1 199 32 is_stmt 0 view .LVU121
 436 004c C0F50040 		rsb	r0, r0, #32768
 437              		.loc 1 199 16 view .LVU122
 438 0050 00B2     		sxth	r0, r0
 439              	.LVL38:
 440              		.loc 1 199 16 view .LVU123
 441 0052 E2E7     		b	.L35
 442              	.LVL39:
 443              	.L40:
 444              		.loc 1 188 3 is_stmt 1 view .LVU124
 445              		.loc 1 188 6 is_stmt 0 view .LVU125
 446 0054 10F5804F 		cmn	r0, #16384
 447 0058 15DA     		bge	.L31
 448              		.loc 1 189 4 is_stmt 1 view .LVU126
 449              		.loc 1 189 24 is_stmt 0 view .LVU127
 450 005a A0F50040 		sub	r0, r0, #32768
 451              		.loc 1 189 16 view .LVU128
 452 005e 00B2     		sxth	r0, r0
 453              	.LVL40:
 454              	.L32:
 455              		.loc 1 207 2 is_stmt 1 view .LVU129
 456              		.loc 1 208 2 view .LVU130
ARM GAS  /tmp/cchqCFfA.s 			page 9


 457              	.LBB202:
 458              		.loc 1 211 52 is_stmt 0 view .LVU131
 459 0060 C211     		asrs	r2, r0, #7
 460              		.loc 1 211 110 view .LVU132
 461 0062 0F4B     		ldr	r3, .L44+4
 462 0064 511C     		adds	r1, r2, #1
 463              	.LBE202:
 464              		.loc 1 208 11 view .LVU133
 465 0066 00F07F00 		and	r0, r0, #127
 466              	.LVL41:
 467              	.LBB203:
 468              		.loc 1 211 3 is_stmt 1 view .LVU134
 469              		.loc 1 213 3 view .LVU135
 470              		.loc 1 214 4 view .LVU136
 471              		.loc 1 211 29 is_stmt 0 view .LVU137
 472 006a 33F91220 		ldrsh	r2, [r3, r2, lsl #1]
 473              	.LVL42:
 474              		.loc 1 211 85 view .LVU138
 475 006e 33F81130 		ldrh	r3, [r3, r1, lsl #1]
 476              		.loc 1 211 74 view .LVU139
 477 0072 C0F18001 		rsb	r1, r0, #128
 478              	.LVL43:
 479              		.loc 1 211 60 view .LVU140
 480 0076 02FB01F2 		mul	r2, r2, r1
 481              		.loc 1 211 85 view .LVU141
 482 007a 13FB0020 		smlabb	r0, r3, r0, r2
 483              	.LVL44:
 484              		.loc 1 211 142 view .LVU142
 485 007e C011     		asrs	r0, r0, #7
 486              		.loc 1 214 11 view .LVU143
 487 0080 4042     		rsbs	r0, r0, #0
 488 0082 00B2     		sxth	r0, r0
 489 0084 DAE7     		b	.L33
 490              	.LVL45:
 491              	.L31:
 492              		.loc 1 214 11 view .LVU144
 493              	.LBE203:
 494              		.loc 1 190 8 is_stmt 1 view .LVU145
 495              		.loc 1 190 11 is_stmt 0 view .LVU146
 496 0086 05D0     		beq	.L37
 497              		.loc 1 191 4 is_stmt 1 view .LVU147
 498              		.loc 1 191 16 is_stmt 0 view .LVU148
 499 0088 4042     		rsbs	r0, r0, #0
 500 008a 00B2     		sxth	r0, r0
 501              	.LVL46:
 502              		.loc 1 191 16 view .LVU149
 503 008c E8E7     		b	.L32
 504              	.LVL47:
 505              	.L42:
 506              		.loc 1 203 11 view .LVU150
 507 008e 47F6FF70 		movw	r0, #32767
 508 0092 D3E7     		b	.L33
 509              	.L37:
 510              		.loc 1 193 11 view .LVU151
 511 0094 0348     		ldr	r0, .L44+8
 512 0096 D1E7     		b	.L33
 513              	.L43:
ARM GAS  /tmp/cchqCFfA.s 			page 10


 514              		.loc 1 218 1 view .LVU152
 515 0098 FFF7FEFF 		bl	__stack_chk_fail
 516              	.LVL48:
 517              	.L45:
 518              		.align	2
 519              	.L44:
 520 009c 00000000 		.word	.LC2
 521 00a0 00000000 		.word	.LANCHOR1
 522 00a4 0180FFFF 		.word	-32767
 523              		.cfi_endproc
 524              	.LFE2:
 525              		.size	aseba_sin, .-aseba_sin
 526              		.section	.rodata.aseba_cos.cst4,"aM",%progbits,4
 527              		.align	2
 528              	.LC3:
 529 0000 00000000 		.word	__stack_chk_guard
 530              		.section	.text.aseba_cos,"ax",%progbits
 531              		.align	1
 532              		.p2align 4,,15
 533              		.global	aseba_cos
 534              		.syntax unified
 535              		.thumb
 536              		.thumb_func
 537              		.fpu fpv4-sp-d16
 538              		.type	aseba_cos, %function
 539              	aseba_cos:
 540              	.LVL49:
 541              	.LFB3:
 542              		.loc 1 222 1 is_stmt 1 view -0
 543              		.cfi_startproc
 544              		@ args = 0, pretend = 0, frame = 8
 545              		@ frame_needed = 0, uses_anonymous_args = 0
 546              		.loc 1 222 1 is_stmt 0 view .LVU154
 547 0000 00B5     		push	{lr}
 548              		.cfi_def_cfa_offset 4
 549              		.cfi_offset 14, -4
 550 0002 0A4B     		ldr	r3, .L51
 551 0004 83B0     		sub	sp, sp, #12
 552              		.cfi_def_cfa_offset 16
 553              		.loc 1 222 1 view .LVU155
 554 0006 1B68     		ldr	r3, [r3]
 555 0008 0193     		str	r3, [sp, #4]
 556 000a 4FF00003 		mov	r3,#0
 557              		.loc 1 223 2 is_stmt 1 view .LVU156
 558              		.loc 1 223 9 is_stmt 0 view .LVU157
 559 000e 074B     		ldr	r3, .L51
 560 0010 1A68     		ldr	r2, [r3]
 561 0012 019B     		ldr	r3, [sp, #4]
 562 0014 5A40     		eors	r2, r3, r2
 563 0016 07D1     		bne	.L50
 564              		.loc 1 223 25 view .LVU158
 565 0018 00F58040 		add	r0, r0, #16384
 566              	.LVL50:
 567              		.loc 1 223 9 view .LVU159
 568 001c 00B2     		sxth	r0, r0
 569              		.loc 1 224 1 view .LVU160
 570 001e 03B0     		add	sp, sp, #12
ARM GAS  /tmp/cchqCFfA.s 			page 11


 571              		.cfi_remember_state
 572              		.cfi_def_cfa_offset 4
 573              		@ sp needed
 574 0020 5DF804EB 		ldr	lr, [sp], #4
 575              		.cfi_restore 14
 576              		.cfi_def_cfa_offset 0
 577              		.loc 1 223 9 view .LVU161
 578 0024 FFF7FEBF 		b	aseba_sin
 579              	.LVL51:
 580              	.L50:
 581              		.cfi_restore_state
 582              		.loc 1 223 9 view .LVU162
 583 0028 FFF7FEFF 		bl	__stack_chk_fail
 584              	.LVL52:
 585              	.L52:
 586              		.loc 1 223 9 view .LVU163
 587              		.align	2
 588              	.L51:
 589 002c 00000000 		.word	.LC3
 590              		.cfi_endproc
 591              	.LFE3:
 592              		.size	aseba_cos, .-aseba_cos
 593              		.section	.rodata.aseba_sqrt.cst4,"aM",%progbits,4
 594              		.align	2
 595              	.LC4:
 596 0000 00000000 		.word	__stack_chk_guard
 597              		.section	.text.aseba_sqrt,"ax",%progbits
 598              		.align	1
 599              		.p2align 4,,15
 600              		.global	aseba_sqrt
 601              		.syntax unified
 602              		.thumb
 603              		.thumb_func
 604              		.fpu fpv4-sp-d16
 605              		.type	aseba_sqrt, %function
 606              	aseba_sqrt:
 607              	.LVL53:
 608              	.LFB4:
 609              		.loc 1 228 1 is_stmt 1 view -0
 610              		.cfi_startproc
 611              		@ args = 0, pretend = 0, frame = 8
 612              		@ frame_needed = 0, uses_anonymous_args = 0
 613              		.loc 1 228 1 is_stmt 0 view .LVU165
 614 0000 10B5     		push	{r4, lr}
 615              		.cfi_def_cfa_offset 8
 616              		.cfi_offset 4, -8
 617              		.cfi_offset 14, -4
 618 0002 164B     		ldr	r3, .L69
 619 0004 82B0     		sub	sp, sp, #8
 620              		.cfi_def_cfa_offset 16
 621              		.loc 1 233 7 view .LVU166
 622 0006 B0F5804F 		cmp	r0, #16384
 623              		.loc 1 228 1 view .LVU167
 624 000a 1B68     		ldr	r3, [r3]
 625 000c 0193     		str	r3, [sp, #4]
 626 000e 4FF00003 		mov	r3,#0
 627              		.loc 1 229 2 is_stmt 1 view .LVU168
ARM GAS  /tmp/cchqCFfA.s 			page 12


 628              	.LVL54:
 629              		.loc 1 230 2 view .LVU169
 630              		.loc 1 231 2 view .LVU170
 631              		.loc 1 233 2 view .LVU171
 632              		.loc 1 233 7 view .LVU172
 633              		.loc 1 228 1 is_stmt 0 view .LVU173
 634 0012 0146     		mov	r1, r0
 635              		.loc 1 231 9 view .LVU174
 636 0014 4FF48043 		mov	r3, #16384
 637              		.loc 1 233 7 view .LVU175
 638 0018 03DA     		bge	.L54
 639              	.LVL55:
 640              	.L55:
 641              		.loc 1 234 3 is_stmt 1 view .LVU176
 642              		.loc 1 234 7 is_stmt 0 view .LVU177
 643 001a 9B10     		asrs	r3, r3, #2
 644              	.LVL56:
 645              		.loc 1 233 7 is_stmt 1 view .LVU178
 646 001c 9942     		cmp	r1, r3
 647 001e FCDB     		blt	.L55
 648              	.LVL57:
 649              		.loc 1 236 7 view .LVU179
 650 0020 C3B1     		cbz	r3, .L66
 651              	.LVL58:
 652              	.L54:
 653              		.loc 1 230 9 is_stmt 0 view .LVU180
 654 0022 0020     		movs	r0, #0
 655              	.LVL59:
 656              		.loc 1 230 9 view .LVU181
 657 0024 08E0     		b	.L59
 658              	.LVL60:
 659              	.L67:
 660              		.loc 1 240 4 is_stmt 1 view .LVU182
 661              		.loc 1 240 14 is_stmt 0 view .LVU183
 662 0026 9AB2     		uxth	r2, r3
 663              		.loc 1 240 7 view .LVU184
 664 0028 1418     		adds	r4, r2, r0
 665 002a 091B     		subs	r1, r1, r4
 666              	.LVL61:
 667              		.loc 1 241 21 view .LVU185
 668 002c 02EB6002 		add	r2, r2, r0, asr #1
 669              		.loc 1 236 7 view .LVU186
 670 0030 9B10     		asrs	r3, r3, #2
 671              	.LVL62:
 672              		.loc 1 240 7 view .LVU187
 673 0032 09B2     		sxth	r1, r1
 674              	.LVL63:
 675              		.loc 1 241 4 is_stmt 1 view .LVU188
 676              		.loc 1 241 8 is_stmt 0 view .LVU189
 677 0034 10B2     		sxth	r0, r2
 678              	.LVL64:
 679              		.loc 1 247 3 is_stmt 1 view .LVU190
 680              		.loc 1 236 7 view .LVU191
 681 0036 06D0     		beq	.L56
 682              	.LVL65:
 683              	.L59:
 684              		.loc 1 238 3 view .LVU192
ARM GAS  /tmp/cchqCFfA.s 			page 13


 685              		.loc 1 238 17 is_stmt 0 view .LVU193
 686 0038 C218     		adds	r2, r0, r3
 687              		.loc 1 238 6 view .LVU194
 688 003a 9142     		cmp	r1, r2
 689 003c F3DA     		bge	.L67
 690              		.loc 1 245 4 is_stmt 1 view .LVU195
 691              		.loc 1 236 7 is_stmt 0 view .LVU196
 692 003e 9B10     		asrs	r3, r3, #2
 693              	.LVL66:
 694              		.loc 1 245 8 view .LVU197
 695 0040 4FEA6000 		asr	r0, r0, #1
 696              	.LVL67:
 697              		.loc 1 247 3 is_stmt 1 view .LVU198
 698              		.loc 1 236 7 view .LVU199
 699 0044 F8D1     		bne	.L59
 700              	.LVL68:
 701              	.L56:
 702              		.loc 1 249 2 view .LVU200
 703              		.loc 1 250 1 is_stmt 0 view .LVU201
 704 0046 054B     		ldr	r3, .L69
 705 0048 1A68     		ldr	r2, [r3]
 706 004a 019B     		ldr	r3, [sp, #4]
 707 004c 5A40     		eors	r2, r3, r2
 708 004e 03D1     		bne	.L68
 709 0050 02B0     		add	sp, sp, #8
 710              		.cfi_remember_state
 711              		.cfi_def_cfa_offset 8
 712              		@ sp needed
 713 0052 10BD     		pop	{r4, pc}
 714              	.LVL69:
 715              	.L66:
 716              		.cfi_restore_state
 717              		.loc 1 230 9 view .LVU202
 718 0054 1846     		mov	r0, r3
 719              	.LVL70:
 720              		.loc 1 230 9 view .LVU203
 721 0056 F6E7     		b	.L56
 722              	.LVL71:
 723              	.L68:
 724              		.loc 1 250 1 view .LVU204
 725 0058 FFF7FEFF 		bl	__stack_chk_fail
 726              	.LVL72:
 727              	.L70:
 728              		.loc 1 250 1 view .LVU205
 729              		.align	2
 730              	.L69:
 731 005c 00000000 		.word	.LC4
 732              		.cfi_endproc
 733              	.LFE4:
 734              		.size	aseba_sqrt, .-aseba_sqrt
 735              		.section	.rodata.aseba_comb_sort.cst4,"aM",%progbits,4
 736              		.align	2
 737              	.LC5:
 738 0000 00000000 		.word	__stack_chk_guard
 739              		.section	.text.aseba_comb_sort,"ax",%progbits
 740              		.align	1
 741              		.p2align 4,,15
ARM GAS  /tmp/cchqCFfA.s 			page 14


 742              		.global	aseba_comb_sort
 743              		.syntax unified
 744              		.thumb
 745              		.thumb_func
 746              		.fpu fpv4-sp-d16
 747              		.type	aseba_comb_sort, %function
 748              	aseba_comb_sort:
 749              	.LVL73:
 750              	.LFB5:
 751              		.loc 1 254 1 is_stmt 1 view -0
 752              		.cfi_startproc
 753              		@ args = 0, pretend = 0, frame = 8
 754              		@ frame_needed = 0, uses_anonymous_args = 0
 755              		.loc 1 254 1 is_stmt 0 view .LVU207
 756 0000 2DE9F041 		push	{r4, r5, r6, r7, r8, lr}
 757              		.cfi_def_cfa_offset 24
 758              		.cfi_offset 4, -24
 759              		.cfi_offset 5, -20
 760              		.cfi_offset 6, -16
 761              		.cfi_offset 7, -12
 762              		.cfi_offset 8, -8
 763              		.cfi_offset 14, -4
 764 0004 214B     		ldr	r3, .L89
 765              		.loc 1 266 37 view .LVU208
 766 0006 DFF88880 		ldr	r8, .L89+4
 767              		.loc 1 255 9 view .LVU209
 768 000a 8C46     		mov	ip, r1
 769              		.loc 1 254 1 view .LVU210
 770 000c 82B0     		sub	sp, sp, #8
 771              		.cfi_def_cfa_offset 32
 772              		.loc 1 259 8 view .LVU211
 773 000e BCF1010F 		cmp	ip, #1
 774              		.loc 1 254 1 view .LVU212
 775 0012 1B68     		ldr	r3, [r3]
 776 0014 0193     		str	r3, [sp, #4]
 777 0016 4FF00003 		mov	r3,#0
 778              		.loc 1 255 2 is_stmt 1 view .LVU213
 779              	.LVL74:
 780              		.loc 1 256 2 view .LVU214
 781              		.loc 1 257 2 view .LVU215
 782              		.loc 1 259 2 view .LVU216
 783              		.loc 1 256 9 is_stmt 0 view .LVU217
 784 001a 4FF0000E 		mov	lr, #0
 785              	.LVL75:
 786              		.loc 1 259 8 is_stmt 1 view .LVU218
 787 001e 21D9     		bls	.L87
 788              	.LVL76:
 789              	.L76:
 790              		.loc 1 261 3 view .LVU219
 791              		.loc 1 266 4 view .LVU220
 792              		.loc 1 266 32 is_stmt 0 view .LVU221
 793 0020 4FEA8C0C 		lsl	ip, ip, #2
 794              		.loc 1 266 37 view .LVU222
 795 0024 A8FB0C3C 		umull	r3, ip, r8, ip
 796 0028 4FEA9C03 		lsr	r3, ip, #2
 797              		.loc 1 272 3 view .LVU223
 798 002c 8B42     		cmp	r3, r1
ARM GAS  /tmp/cchqCFfA.s 			page 15


 799              		.loc 1 266 8 view .LVU224
 800 002e 9C46     		mov	ip, r3
 801              	.LVL77:
 802              		.loc 1 270 3 is_stmt 1 view .LVU225
 803              		.loc 1 272 3 view .LVU226
 804              		.loc 1 272 15 view .LVU227
 805              		.loc 1 272 19 is_stmt 0 view .LVU228
 806 0030 1F46     		mov	r7, r3
 807              		.loc 1 272 3 view .LVU229
 808 0032 25DA     		bge	.L73
 809              	.LVL78:
 810              	.L79:
 811              		.loc 1 272 10 view .LVU230
 812 0034 0023     		movs	r3, #0
 813              		.loc 1 270 11 view .LVU231
 814 0036 9E46     		mov	lr, r3
 815              		.loc 1 254 1 view .LVU232
 816 0038 3A46     		mov	r2, r7
 817              	.LVL79:
 818              	.L75:
 819              		.loc 1 274 4 is_stmt 1 view .LVU233
 820              		.loc 1 274 13 is_stmt 0 view .LVU234
 821 003a 30F91340 		ldrsh	r4, [r0, r3, lsl #1]
 822              		.loc 1 274 24 view .LVU235
 823 003e 30F91250 		ldrsh	r5, [r0, r2, lsl #1]
 824              		.loc 1 274 17 view .LVU236
 825 0042 661B     		subs	r6, r4, r5
 826              		.loc 1 274 7 view .LVU237
 827 0044 002E     		cmp	r6, #0
 828 0046 05DD     		ble	.L74
 829              	.LBB204:
 830              		.loc 1 276 5 is_stmt 1 view .LVU238
 831              	.LVL80:
 832              		.loc 1 277 5 view .LVU239
 833              		.loc 1 277 14 is_stmt 0 view .LVU240
 834 0048 20F81350 		strh	r5, [r0, r3, lsl #1]	@ movhi
 835              		.loc 1 278 5 is_stmt 1 view .LVU241
 836              		.loc 1 278 20 is_stmt 0 view .LVU242
 837 004c 20F81240 		strh	r4, [r0, r2, lsl #1]	@ movhi
 838              		.loc 1 279 5 is_stmt 1 view .LVU243
 839              	.LVL81:
 840              		.loc 1 279 13 is_stmt 0 view .LVU244
 841 0050 4FF0010E 		mov	lr, #1
 842              	.LVL82:
 843              	.L74:
 844              		.loc 1 279 13 view .LVU245
 845              	.LBE204:
 846              		.loc 1 272 31 is_stmt 1 discriminator 2 view .LVU246
 847              		.loc 1 272 32 is_stmt 0 discriminator 2 view .LVU247
 848 0054 0133     		adds	r3, r3, #1
 849              	.LVL83:
 850              		.loc 1 272 32 discriminator 2 view .LVU248
 851 0056 9BB2     		uxth	r3, r3
 852              	.LVL84:
 853              		.loc 1 272 15 is_stmt 1 discriminator 2 view .LVU249
 854              		.loc 1 272 19 is_stmt 0 discriminator 2 view .LVU250
 855 0058 DA19     		adds	r2, r3, r7
ARM GAS  /tmp/cchqCFfA.s 			page 16


 856              		.loc 1 272 3 discriminator 2 view .LVU251
 857 005a 8A42     		cmp	r2, r1
 858 005c EDDB     		blt	.L75
 859              	.LVL85:
 860              		.loc 1 259 8 is_stmt 1 view .LVU252
 861 005e BCF1010F 		cmp	ip, #1
 862 0062 DDD8     		bhi	.L76
 863              	.LVL86:
 864              	.L87:
 865              		.loc 1 259 19 is_stmt 0 discriminator 1 view .LVU253
 866 0064 BEF1000F 		cmp	lr, #0
 867 0068 02D0     		beq	.L71
 868              		.loc 1 270 3 is_stmt 1 view .LVU254
 869              	.LVL87:
 870              		.loc 1 272 3 view .LVU255
 871              		.loc 1 272 15 view .LVU256
 872              		.loc 1 272 3 is_stmt 0 view .LVU257
 873 006a 8C45     		cmp	ip, r1
 874              		.loc 1 272 19 view .LVU258
 875 006c 6746     		mov	r7, ip
 876              		.loc 1 272 3 view .LVU259
 877 006e E1DB     		blt	.L79
 878              	.LVL88:
 879              	.L71:
 880              		.loc 1 283 1 view .LVU260
 881 0070 064B     		ldr	r3, .L89
 882 0072 1A68     		ldr	r2, [r3]
 883 0074 019B     		ldr	r3, [sp, #4]
 884 0076 5A40     		eors	r2, r3, r2
 885 0078 05D1     		bne	.L88
 886 007a 02B0     		add	sp, sp, #8
 887              		.cfi_remember_state
 888              		.cfi_def_cfa_offset 24
 889              		@ sp needed
 890 007c BDE8F081 		pop	{r4, r5, r6, r7, r8, pc}
 891              	.LVL89:
 892              	.L73:
 893              		.cfi_restore_state
 894              		.loc 1 259 8 is_stmt 1 view .LVU261
 895 0080 012B     		cmp	r3, #1
 896 0082 CDD1     		bne	.L76
 897 0084 F4E7     		b	.L71
 898              	.LVL90:
 899              	.L88:
 900              		.loc 1 283 1 is_stmt 0 view .LVU262
 901 0086 FFF7FEFF 		bl	__stack_chk_fail
 902              	.LVL91:
 903              	.L90:
 904              		.loc 1 283 1 view .LVU263
 905 008a 00BF     		.align	2
 906              	.L89:
 907 008c 00000000 		.word	.LC5
 908 0090 CDCCCCCC 		.word	-858993459
 909              		.cfi_endproc
 910              	.LFE5:
 911              		.size	aseba_comb_sort, .-aseba_comb_sort
 912              		.section	.rodata.AsebaNative_veccopy.cst4,"aM",%progbits,4
ARM GAS  /tmp/cchqCFfA.s 			page 17


 913              		.align	2
 914              	.LC6:
 915 0000 00000000 		.word	__stack_chk_guard
 916              		.section	.text.AsebaNative_veccopy,"ax",%progbits
 917              		.align	1
 918              		.p2align 4,,15
 919              		.global	AsebaNative_veccopy
 920              		.syntax unified
 921              		.thumb
 922              		.thumb_func
 923              		.fpu fpv4-sp-d16
 924              		.type	AsebaNative_veccopy, %function
 925              	AsebaNative_veccopy:
 926              	.LVL92:
 927              	.LFB6:
 928              		.loc 1 289 1 is_stmt 1 view -0
 929              		.cfi_startproc
 930              		@ args = 0, pretend = 0, frame = 8
 931              		@ frame_needed = 0, uses_anonymous_args = 0
 932              		.loc 1 289 1 is_stmt 0 view .LVU265
 933 0000 70B5     		push	{r4, r5, r6, lr}
 934              		.cfi_def_cfa_offset 16
 935              		.cfi_offset 4, -16
 936              		.cfi_offset 5, -12
 937              		.cfi_offset 6, -8
 938              		.cfi_offset 14, -4
 939              	.LBB205:
 940              	.LBB206:
 941              		.file 2 ".//aseba/vm/natives.h"
 942              		.loc 2 90 21 view .LVU266
 943 0002 B0F91C20 		ldrsh	r2, [r0, #28]
 944              	.LBE206:
 945              	.LBE205:
 946              		.loc 1 289 1 view .LVU267
 947 0006 174B     		ldr	r3, .L101
 948              		.loc 1 291 16 view .LVU268
 949 0008 4569     		ldr	r5, [r0, #20]
 950              		.loc 1 289 1 view .LVU269
 951 000a 82B0     		sub	sp, sp, #8
 952              		.cfi_def_cfa_offset 24
 953              		.loc 1 289 1 view .LVU270
 954 000c 1B68     		ldr	r3, [r3]
 955 000e 0193     		str	r3, [sp, #4]
 956 0010 4FF00003 		mov	r3,#0
 957              		.loc 1 291 2 is_stmt 1 view .LVU271
 958              	.LBB209:
 959              	.LBI205:
 960              		.loc 2 88 22 view .LVU272
 961              	.LVL93:
 962              	.LBB207:
 963              		.loc 2 90 2 view .LVU273
 964              		.loc 2 90 25 is_stmt 0 view .LVU274
 965 0014 93B2     		uxth	r3, r2
 966 0016 5C1E     		subs	r4, r3, #1
 967 0018 24B2     		sxth	r4, r4
 968              	.LBE207:
 969              	.LBE209:
ARM GAS  /tmp/cchqCFfA.s 			page 18


 970              	.LBB210:
 971              	.LBB211:
 972 001a 991E     		subs	r1, r3, #2
 973              	.LBE211:
 974              	.LBE210:
 975              	.LBB214:
 976              	.LBB208:
 977 001c 8483     		strh	r4, [r0, #28]	@ movhi
 978              	.LBE208:
 979              	.LBE214:
 980              	.LBB215:
 981              	.LBB212:
 982 001e 09B2     		sxth	r1, r1
 983              	.LBE212:
 984              	.LBE215:
 985              		.loc 1 291 9 view .LVU275
 986 0020 35F81260 		ldrh	r6, [r5, r2, lsl #1]
 987              	.LVL94:
 988              		.loc 1 292 2 is_stmt 1 view .LVU276
 989              	.LBB216:
 990              	.LBI210:
 991              		.loc 2 88 22 view .LVU277
 992              	.LBB213:
 993              		.loc 2 90 2 view .LVU278
 994              		.loc 2 90 25 is_stmt 0 view .LVU279
 995 0024 8183     		strh	r1, [r0, #28]	@ movhi
 996              	.LBE213:
 997              	.LBE216:
 998              	.LBB217:
 999              	.LBB218:
 1000 0026 DA1E     		subs	r2, r3, #3
 1001              	.LBE218:
 1002              	.LBE217:
 1003              		.loc 1 292 9 view .LVU280
 1004 0028 35F81430 		ldrh	r3, [r5, r4, lsl #1]
 1005              	.LVL95:
 1006              		.loc 1 295 2 is_stmt 1 view .LVU281
 1007              	.LBB220:
 1008              	.LBI217:
 1009              		.loc 2 88 22 view .LVU282
 1010              	.LBB219:
 1011              		.loc 2 90 2 view .LVU283
 1012              		.loc 2 90 25 is_stmt 0 view .LVU284
 1013 002c 8283     		strh	r2, [r0, #28]	@ movhi
 1014              	.LBE219:
 1015              	.LBE220:
 1016              		.loc 1 295 9 view .LVU285
 1017 002e 35F81150 		ldrh	r5, [r5, r1, lsl #1]
 1018              	.LVL96:
 1019              		.loc 1 297 2 is_stmt 1 view .LVU286
 1020              		.loc 1 299 2 view .LVU287
 1021              		.loc 1 299 14 view .LVU288
 1022              		.loc 1 299 2 is_stmt 0 view .LVU289
 1023 0032 6DB1     		cbz	r5, .L91
 1024 0034 1D44     		add	r5, r5, r3
 1025              	.LVL97:
 1026              		.loc 1 299 2 view .LVU290
ARM GAS  /tmp/cchqCFfA.s 			page 19


 1027 0036 ADB2     		uxth	r5, r5
 1028 0038 F61A     		subs	r6, r6, r3
 1029              	.LVL98:
 1030              	.L93:
 1031              		.loc 1 301 29 discriminator 3 view .LVU291
 1032 003a C168     		ldr	r1, [r0, #12]
 1033 003c 9A19     		adds	r2, r3, r6
 1034 003e 92B2     		uxth	r2, r2
 1035              	.LVL99:
 1036              		.loc 1 301 3 is_stmt 1 discriminator 3 view .LVU292
 1037              		.loc 1 301 44 is_stmt 0 discriminator 3 view .LVU293
 1038 0040 5C1C     		adds	r4, r3, #1
 1039              		.loc 1 301 40 discriminator 3 view .LVU294
 1040 0042 31F91330 		ldrsh	r3, [r1, r3, lsl #1]
 1041              	.LVL100:
 1042              		.loc 1 301 25 discriminator 3 view .LVU295
 1043 0046 21F81230 		strh	r3, [r1, r2, lsl #1]	@ movhi
 1044              		.loc 1 301 44 discriminator 3 view .LVU296
 1045 004a A3B2     		uxth	r3, r4
 1046              	.LVL101:
 1047              		.loc 1 299 26 is_stmt 1 discriminator 3 view .LVU297
 1048              		.loc 1 299 14 discriminator 3 view .LVU298
 1049              		.loc 1 299 2 is_stmt 0 discriminator 3 view .LVU299
 1050 004c AB42     		cmp	r3, r5
 1051 004e F4D1     		bne	.L93
 1052              	.L91:
 1053              		.loc 1 303 1 view .LVU300
 1054 0050 044B     		ldr	r3, .L101
 1055              	.LVL102:
 1056              		.loc 1 303 1 view .LVU301
 1057 0052 1A68     		ldr	r2, [r3]
 1058 0054 019B     		ldr	r3, [sp, #4]
 1059 0056 5A40     		eors	r2, r3, r2
 1060 0058 01D1     		bne	.L100
 1061 005a 02B0     		add	sp, sp, #8
 1062              		.cfi_remember_state
 1063              		.cfi_def_cfa_offset 16
 1064              		@ sp needed
 1065 005c 70BD     		pop	{r4, r5, r6, pc}
 1066              	.L100:
 1067              		.cfi_restore_state
 1068 005e FFF7FEFF 		bl	__stack_chk_fail
 1069              	.LVL103:
 1070              	.L102:
 1071              		.loc 1 303 1 view .LVU302
 1072 0062 00BF     		.align	2
 1073              	.L101:
 1074 0064 00000000 		.word	.LC6
 1075              		.cfi_endproc
 1076              	.LFE6:
 1077              		.size	AsebaNative_veccopy, .-AsebaNative_veccopy
 1078              		.section	.rodata.AsebaNative_vecfill.cst4,"aM",%progbits,4
 1079              		.align	2
 1080              	.LC7:
 1081 0000 00000000 		.word	__stack_chk_guard
 1082              		.section	.text.AsebaNative_vecfill,"ax",%progbits
 1083              		.align	1
ARM GAS  /tmp/cchqCFfA.s 			page 20


 1084              		.p2align 4,,15
 1085              		.global	AsebaNative_vecfill
 1086              		.syntax unified
 1087              		.thumb
 1088              		.thumb_func
 1089              		.fpu fpv4-sp-d16
 1090              		.type	AsebaNative_vecfill, %function
 1091              	AsebaNative_vecfill:
 1092              	.LVL104:
 1093              	.LFB7:
 1094              		.loc 1 318 1 is_stmt 1 view -0
 1095              		.cfi_startproc
 1096              		@ args = 0, pretend = 0, frame = 8
 1097              		@ frame_needed = 0, uses_anonymous_args = 0
 1098              		.loc 1 318 1 is_stmt 0 view .LVU304
 1099 0000 70B5     		push	{r4, r5, r6, lr}
 1100              		.cfi_def_cfa_offset 16
 1101              		.cfi_offset 4, -16
 1102              		.cfi_offset 5, -12
 1103              		.cfi_offset 6, -8
 1104              		.cfi_offset 14, -4
 1105 0002 164B     		ldr	r3, .L113
 1106              		.loc 1 320 16 view .LVU305
 1107 0004 4569     		ldr	r5, [r0, #20]
 1108              		.loc 1 318 1 view .LVU306
 1109 0006 82B0     		sub	sp, sp, #8
 1110              		.cfi_def_cfa_offset 24
 1111              		.loc 1 318 1 view .LVU307
 1112 0008 1B68     		ldr	r3, [r3]
 1113 000a 0193     		str	r3, [sp, #4]
 1114 000c 4FF00003 		mov	r3,#0
 1115              		.loc 1 320 2 is_stmt 1 view .LVU308
 1116              	.LBB221:
 1117              	.LBI221:
 1118              		.loc 2 88 22 view .LVU309
 1119              	.LVL105:
 1120              	.LBB222:
 1121              		.loc 2 90 2 view .LVU310
 1122              		.loc 2 90 21 is_stmt 0 view .LVU311
 1123 0010 B0F91C30 		ldrsh	r3, [r0, #28]
 1124              		.loc 2 90 25 view .LVU312
 1125 0014 9AB2     		uxth	r2, r3
 1126 0016 541E     		subs	r4, r2, #1
 1127 0018 24B2     		sxth	r4, r4
 1128              	.LBE222:
 1129              	.LBE221:
 1130              	.LBB224:
 1131              	.LBB225:
 1132 001a 911E     		subs	r1, r2, #2
 1133              	.LBE225:
 1134              	.LBE224:
 1135              	.LBB228:
 1136              	.LBB223:
 1137 001c 8483     		strh	r4, [r0, #28]	@ movhi
 1138              	.LBE223:
 1139              	.LBE228:
 1140              	.LBB229:
ARM GAS  /tmp/cchqCFfA.s 			page 21


 1141              	.LBB226:
 1142 001e 09B2     		sxth	r1, r1
 1143              	.LBE226:
 1144              	.LBE229:
 1145              		.loc 1 320 9 view .LVU313
 1146 0020 35F81330 		ldrh	r3, [r5, r3, lsl #1]
 1147              	.LVL106:
 1148              		.loc 1 321 2 is_stmt 1 view .LVU314
 1149              	.LBB230:
 1150              	.LBI224:
 1151              		.loc 2 88 22 view .LVU315
 1152              	.LBB227:
 1153              		.loc 2 90 2 view .LVU316
 1154              		.loc 2 90 25 is_stmt 0 view .LVU317
 1155 0024 8183     		strh	r1, [r0, #28]	@ movhi
 1156              	.LBE227:
 1157              	.LBE230:
 1158              	.LBB231:
 1159              	.LBB232:
 1160 0026 033A     		subs	r2, r2, #3
 1161              	.LBE232:
 1162              	.LBE231:
 1163              		.loc 1 321 9 view .LVU318
 1164 0028 35F81460 		ldrh	r6, [r5, r4, lsl #1]
 1165              	.LVL107:
 1166              		.loc 1 324 2 is_stmt 1 view .LVU319
 1167              	.LBB234:
 1168              	.LBI231:
 1169              		.loc 2 88 22 view .LVU320
 1170              	.LBB233:
 1171              		.loc 2 90 2 view .LVU321
 1172              		.loc 2 90 25 is_stmt 0 view .LVU322
 1173 002c 8283     		strh	r2, [r0, #28]	@ movhi
 1174              	.LBE233:
 1175              	.LBE234:
 1176              		.loc 1 324 9 view .LVU323
 1177 002e 35F81150 		ldrh	r5, [r5, r1, lsl #1]
 1178              	.LVL108:
 1179              		.loc 1 326 2 is_stmt 1 view .LVU324
 1180              		.loc 1 328 2 view .LVU325
 1181              		.loc 1 328 14 view .LVU326
 1182              		.loc 1 328 2 is_stmt 0 view .LVU327
 1183 0032 55B1     		cbz	r5, .L103
 1184 0034 1D44     		add	r5, r5, r3
 1185              	.LVL109:
 1186              		.loc 1 328 2 view .LVU328
 1187 0036 ADB2     		uxth	r5, r5
 1188              		.loc 1 330 40 view .LVU329
 1189 0038 7600     		lsls	r6, r6, #1
 1190              	.LVL110:
 1191              	.L105:
 1192              		.loc 1 330 3 is_stmt 1 discriminator 3 view .LVU330
 1193              		.loc 1 330 29 is_stmt 0 discriminator 3 view .LVU331
 1194 003a C268     		ldr	r2, [r0, #12]
 1195              		.loc 1 330 21 discriminator 3 view .LVU332
 1196 003c 591C     		adds	r1, r3, #1
 1197              		.loc 1 330 40 discriminator 3 view .LVU333
ARM GAS  /tmp/cchqCFfA.s 			page 22


 1198 003e 945F     		ldrsh	r4, [r2, r6]
 1199              		.loc 1 330 25 discriminator 3 view .LVU334
 1200 0040 22F81340 		strh	r4, [r2, r3, lsl #1]	@ movhi
 1201              		.loc 1 330 21 discriminator 3 view .LVU335
 1202 0044 8BB2     		uxth	r3, r1
 1203              	.LVL111:
 1204              		.loc 1 328 26 is_stmt 1 discriminator 3 view .LVU336
 1205              		.loc 1 328 14 discriminator 3 view .LVU337
 1206              		.loc 1 328 2 is_stmt 0 discriminator 3 view .LVU338
 1207 0046 AB42     		cmp	r3, r5
 1208 0048 F7D1     		bne	.L105
 1209              	.L103:
 1210              		.loc 1 332 1 view .LVU339
 1211 004a 044B     		ldr	r3, .L113
 1212              	.LVL112:
 1213              		.loc 1 332 1 view .LVU340
 1214 004c 1A68     		ldr	r2, [r3]
 1215 004e 019B     		ldr	r3, [sp, #4]
 1216 0050 5A40     		eors	r2, r3, r2
 1217 0052 01D1     		bne	.L112
 1218 0054 02B0     		add	sp, sp, #8
 1219              		.cfi_remember_state
 1220              		.cfi_def_cfa_offset 16
 1221              		@ sp needed
 1222 0056 70BD     		pop	{r4, r5, r6, pc}
 1223              	.L112:
 1224              		.cfi_restore_state
 1225 0058 FFF7FEFF 		bl	__stack_chk_fail
 1226              	.LVL113:
 1227              	.L114:
 1228              		.loc 1 332 1 view .LVU341
 1229              		.align	2
 1230              	.L113:
 1231 005c 00000000 		.word	.LC7
 1232              		.cfi_endproc
 1233              	.LFE7:
 1234              		.size	AsebaNative_vecfill, .-AsebaNative_vecfill
 1235              		.section	.rodata.AsebaNative_vecaddscalar.cst4,"aM",%progbits,4
 1236              		.align	2
 1237              	.LC8:
 1238 0000 00000000 		.word	__stack_chk_guard
 1239              		.section	.text.AsebaNative_vecaddscalar,"ax",%progbits
 1240              		.align	1
 1241              		.p2align 4,,15
 1242              		.global	AsebaNative_vecaddscalar
 1243              		.syntax unified
 1244              		.thumb
 1245              		.thumb_func
 1246              		.fpu fpv4-sp-d16
 1247              		.type	AsebaNative_vecaddscalar, %function
 1248              	AsebaNative_vecaddscalar:
 1249              	.LVL114:
 1250              	.LFB8:
 1251              		.loc 1 347 1 is_stmt 1 view -0
 1252              		.cfi_startproc
 1253              		@ args = 0, pretend = 0, frame = 8
 1254              		@ frame_needed = 0, uses_anonymous_args = 0
ARM GAS  /tmp/cchqCFfA.s 			page 23


 1255              		.loc 1 347 1 is_stmt 0 view .LVU343
 1256 0000 F0B5     		push	{r4, r5, r6, r7, lr}
 1257              		.cfi_def_cfa_offset 20
 1258              		.cfi_offset 4, -20
 1259              		.cfi_offset 5, -16
 1260              		.cfi_offset 6, -12
 1261              		.cfi_offset 7, -8
 1262              		.cfi_offset 14, -4
 1263              	.LBB235:
 1264              	.LBB236:
 1265              		.loc 2 90 21 view .LVU344
 1266 0002 B0F91C70 		ldrsh	r7, [r0, #28]
 1267              	.LBE236:
 1268              	.LBE235:
 1269              		.loc 1 347 1 view .LVU345
 1270 0006 1C4B     		ldr	r3, .L125
 1271              		.loc 1 349 16 view .LVU346
 1272 0008 4169     		ldr	r1, [r0, #20]
 1273              		.loc 1 356 31 view .LVU347
 1274 000a C468     		ldr	r4, [r0, #12]
 1275              	.LBB240:
 1276              	.LBB237:
 1277              		.loc 2 90 25 view .LVU348
 1278 000c BAB2     		uxth	r2, r7
 1279              	.LBE237:
 1280              	.LBE240:
 1281              		.loc 1 347 1 view .LVU349
 1282 000e 83B0     		sub	sp, sp, #12
 1283              		.cfi_def_cfa_offset 32
 1284              		.loc 1 347 1 view .LVU350
 1285 0010 1B68     		ldr	r3, [r3]
 1286 0012 0193     		str	r3, [sp, #4]
 1287 0014 4FF00003 		mov	r3,#0
 1288              		.loc 1 349 2 is_stmt 1 view .LVU351
 1289              	.LBB241:
 1290              	.LBI235:
 1291              		.loc 2 88 22 view .LVU352
 1292              	.LVL115:
 1293              	.LBB238:
 1294              		.loc 2 90 2 view .LVU353
 1295              		.loc 2 90 25 is_stmt 0 view .LVU354
 1296 0018 531E     		subs	r3, r2, #1
 1297 001a 1BB2     		sxth	r3, r3
 1298              	.LBE238:
 1299              	.LBE241:
 1300              	.LBB242:
 1301              	.LBB243:
 1302 001c 961E     		subs	r6, r2, #2
 1303              	.LBE243:
 1304              	.LBE242:
 1305              	.LBB246:
 1306              	.LBB239:
 1307 001e 8383     		strh	r3, [r0, #28]	@ movhi
 1308              	.LBE239:
 1309              	.LBE246:
 1310              	.LBB247:
 1311              	.LBB244:
ARM GAS  /tmp/cchqCFfA.s 			page 24


 1312 0020 36B2     		sxth	r6, r6
 1313              	.LBE244:
 1314              	.LBE247:
 1315              	.LBB248:
 1316              	.LBB249:
 1317 0022 D51E     		subs	r5, r2, #3
 1318              	.LBE249:
 1319              	.LBE248:
 1320              		.loc 1 349 9 view .LVU355
 1321 0024 31F81770 		ldrh	r7, [r1, r7, lsl #1]
 1322              	.LVL116:
 1323              		.loc 1 350 2 is_stmt 1 view .LVU356
 1324              	.LBB252:
 1325              	.LBI242:
 1326              		.loc 2 88 22 view .LVU357
 1327              	.LBB245:
 1328              		.loc 2 90 2 view .LVU358
 1329              		.loc 2 90 25 is_stmt 0 view .LVU359
 1330 0028 8683     		strh	r6, [r0, #28]	@ movhi
 1331              	.LBE245:
 1332              	.LBE252:
 1333              	.LBB253:
 1334              	.LBB250:
 1335 002a 2DB2     		sxth	r5, r5
 1336              	.LBE250:
 1337              	.LBE253:
 1338              		.loc 1 350 9 view .LVU360
 1339 002c 31F81330 		ldrh	r3, [r1, r3, lsl #1]
 1340              	.LVL117:
 1341              		.loc 1 351 2 is_stmt 1 view .LVU361
 1342              	.LBB254:
 1343              	.LBI248:
 1344              		.loc 2 88 22 view .LVU362
 1345              	.LBB251:
 1346              		.loc 2 90 2 view .LVU363
 1347              		.loc 2 90 25 is_stmt 0 view .LVU364
 1348 0030 8583     		strh	r5, [r0, #28]	@ movhi
 1349              	.LBE251:
 1350              	.LBE254:
 1351              	.LBB255:
 1352              	.LBB256:
 1353 0032 043A     		subs	r2, r2, #4
 1354              	.LBE256:
 1355              	.LBE255:
 1356              		.loc 1 351 9 view .LVU365
 1357 0034 31F81660 		ldrh	r6, [r1, r6, lsl #1]
 1358              	.LVL118:
 1359              		.loc 1 354 2 is_stmt 1 view .LVU366
 1360              	.LBB258:
 1361              	.LBI255:
 1362              		.loc 2 88 22 view .LVU367
 1363              	.LBB257:
 1364              		.loc 2 90 2 view .LVU368
 1365              		.loc 2 90 25 is_stmt 0 view .LVU369
 1366 0038 8283     		strh	r2, [r0, #28]	@ movhi
 1367              	.LBE257:
 1368              	.LBE258:
ARM GAS  /tmp/cchqCFfA.s 			page 25


 1369              		.loc 1 354 9 view .LVU370
 1370 003a 31F81550 		ldrh	r5, [r1, r5, lsl #1]
 1371              	.LVL119:
 1372              		.loc 1 356 2 is_stmt 1 view .LVU371
 1373              		.loc 1 356 15 is_stmt 0 view .LVU372
 1374 003e 34F91660 		ldrsh	r6, [r4, r6, lsl #1]
 1375              	.LVL120:
 1376              		.loc 1 357 2 is_stmt 1 view .LVU373
 1377              		.loc 1 358 2 view .LVU374
 1378              		.loc 1 358 14 view .LVU375
 1379              		.loc 1 358 2 is_stmt 0 view .LVU376
 1380 0042 85B1     		cbz	r5, .L115
 1381 0044 1D44     		add	r5, r5, r3
 1382              	.LVL121:
 1383              		.loc 1 358 2 view .LVU377
 1384 0046 ADB2     		uxth	r5, r5
 1385 0048 FF1A     		subs	r7, r7, r3
 1386              	.LVL122:
 1387              		.loc 1 358 2 view .LVU378
 1388 004a B6B2     		uxth	r6, r6
 1389              		.loc 1 358 2 view .LVU379
 1390 004c 00E0     		b	.L117
 1391              	.LVL123:
 1392              	.L123:
 1393              		.loc 1 358 2 view .LVU380
 1394 004e C468     		ldr	r4, [r0, #12]
 1395              	.LVL124:
 1396              	.L117:
 1397              		.loc 1 360 3 is_stmt 1 discriminator 3 view .LVU381
 1398              		.loc 1 360 48 is_stmt 0 discriminator 3 view .LVU382
 1399 0050 34F81310 		ldrh	r1, [r4, r3, lsl #1]
 1400              		.loc 1 360 21 discriminator 3 view .LVU383
 1401 0054 DA19     		adds	r2, r3, r7
 1402              		.loc 1 360 44 discriminator 3 view .LVU384
 1403 0056 0133     		adds	r3, r3, #1
 1404              	.LVL125:
 1405              		.loc 1 360 21 discriminator 3 view .LVU385
 1406 0058 92B2     		uxth	r2, r2
 1407              		.loc 1 360 44 discriminator 3 view .LVU386
 1408 005a 9BB2     		uxth	r3, r3
 1409              	.LVL126:
 1410              		.loc 1 360 48 discriminator 3 view .LVU387
 1411 005c 3144     		add	r1, r1, r6
 1412              		.loc 1 358 2 discriminator 3 view .LVU388
 1413 005e AB42     		cmp	r3, r5
 1414              		.loc 1 360 25 discriminator 3 view .LVU389
 1415 0060 24F81210 		strh	r1, [r4, r2, lsl #1]	@ movhi
 1416              		.loc 1 358 26 is_stmt 1 discriminator 3 view .LVU390
 1417              		.loc 1 358 14 discriminator 3 view .LVU391
 1418              		.loc 1 358 2 is_stmt 0 discriminator 3 view .LVU392
 1419 0064 F3D1     		bne	.L123
 1420              	.LVL127:
 1421              	.L115:
 1422              		.loc 1 362 1 view .LVU393
 1423 0066 044B     		ldr	r3, .L125
 1424 0068 1A68     		ldr	r2, [r3]
 1425 006a 019B     		ldr	r3, [sp, #4]
ARM GAS  /tmp/cchqCFfA.s 			page 26


 1426 006c 5A40     		eors	r2, r3, r2
 1427 006e 01D1     		bne	.L124
 1428 0070 03B0     		add	sp, sp, #12
 1429              		.cfi_remember_state
 1430              		.cfi_def_cfa_offset 20
 1431              		@ sp needed
 1432 0072 F0BD     		pop	{r4, r5, r6, r7, pc}
 1433              	.L124:
 1434              		.cfi_restore_state
 1435 0074 FFF7FEFF 		bl	__stack_chk_fail
 1436              	.LVL128:
 1437              	.L126:
 1438              		.loc 1 362 1 view .LVU394
 1439              		.align	2
 1440              	.L125:
 1441 0078 00000000 		.word	.LC8
 1442              		.cfi_endproc
 1443              	.LFE8:
 1444              		.size	AsebaNative_vecaddscalar, .-AsebaNative_vecaddscalar
 1445              		.section	.rodata.AsebaNative_vecadd.cst4,"aM",%progbits,4
 1446              		.align	2
 1447              	.LC9:
 1448 0000 00000000 		.word	__stack_chk_guard
 1449              		.section	.text.AsebaNative_vecadd,"ax",%progbits
 1450              		.align	1
 1451              		.p2align 4,,15
 1452              		.global	AsebaNative_vecadd
 1453              		.syntax unified
 1454              		.thumb
 1455              		.thumb_func
 1456              		.fpu fpv4-sp-d16
 1457              		.type	AsebaNative_vecadd, %function
 1458              	AsebaNative_vecadd:
 1459              	.LVL129:
 1460              	.LFB9:
 1461              		.loc 1 378 1 is_stmt 1 view -0
 1462              		.cfi_startproc
 1463              		@ args = 0, pretend = 0, frame = 8
 1464              		@ frame_needed = 0, uses_anonymous_args = 0
 1465              		.loc 1 378 1 is_stmt 0 view .LVU396
 1466 0000 F0B5     		push	{r4, r5, r6, r7, lr}
 1467              		.cfi_def_cfa_offset 20
 1468              		.cfi_offset 4, -20
 1469              		.cfi_offset 5, -16
 1470              		.cfi_offset 6, -12
 1471              		.cfi_offset 7, -8
 1472              		.cfi_offset 14, -4
 1473              	.LBB259:
 1474              	.LBB260:
 1475              		.loc 2 90 21 view .LVU397
 1476 0002 B0F91C60 		ldrsh	r6, [r0, #28]
 1477              	.LBE260:
 1478              	.LBE259:
 1479              		.loc 1 378 1 view .LVU398
 1480 0006 1C4B     		ldr	r3, .L137
 1481              		.loc 1 380 16 view .LVU399
 1482 0008 4169     		ldr	r1, [r0, #20]
ARM GAS  /tmp/cchqCFfA.s 			page 27


 1483              	.LBB264:
 1484              	.LBB261:
 1485              		.loc 2 90 25 view .LVU400
 1486 000a B2B2     		uxth	r2, r6
 1487              	.LBE261:
 1488              	.LBE264:
 1489              		.loc 1 378 1 view .LVU401
 1490 000c 83B0     		sub	sp, sp, #12
 1491              		.cfi_def_cfa_offset 32
 1492              		.loc 1 378 1 view .LVU402
 1493 000e 1B68     		ldr	r3, [r3]
 1494 0010 0193     		str	r3, [sp, #4]
 1495 0012 4FF00003 		mov	r3,#0
 1496              		.loc 1 380 2 is_stmt 1 view .LVU403
 1497              	.LBB265:
 1498              	.LBI259:
 1499              		.loc 2 88 22 view .LVU404
 1500              	.LVL130:
 1501              	.LBB262:
 1502              		.loc 2 90 2 view .LVU405
 1503              		.loc 2 90 25 is_stmt 0 view .LVU406
 1504 0016 531E     		subs	r3, r2, #1
 1505 0018 1BB2     		sxth	r3, r3
 1506              	.LBE262:
 1507              	.LBE265:
 1508              	.LBB266:
 1509              	.LBB267:
 1510 001a 951E     		subs	r5, r2, #2
 1511              	.LBE267:
 1512              	.LBE266:
 1513              	.LBB270:
 1514              	.LBB263:
 1515 001c 8383     		strh	r3, [r0, #28]	@ movhi
 1516              	.LBE263:
 1517              	.LBE270:
 1518              	.LBB271:
 1519              	.LBB268:
 1520 001e 2DB2     		sxth	r5, r5
 1521              	.LBE268:
 1522              	.LBE271:
 1523              	.LBB272:
 1524              	.LBB273:
 1525 0020 D41E     		subs	r4, r2, #3
 1526              	.LBE273:
 1527              	.LBE272:
 1528              		.loc 1 380 9 view .LVU407
 1529 0022 31F81670 		ldrh	r7, [r1, r6, lsl #1]
 1530              	.LVL131:
 1531              		.loc 1 381 2 is_stmt 1 view .LVU408
 1532              	.LBB276:
 1533              	.LBI266:
 1534              		.loc 2 88 22 view .LVU409
 1535              	.LBB269:
 1536              		.loc 2 90 2 view .LVU410
 1537              		.loc 2 90 25 is_stmt 0 view .LVU411
 1538 0026 8583     		strh	r5, [r0, #28]	@ movhi
 1539              	.LBE269:
ARM GAS  /tmp/cchqCFfA.s 			page 28


 1540              	.LBE276:
 1541              	.LBB277:
 1542              	.LBB274:
 1543 0028 24B2     		sxth	r4, r4
 1544              	.LBE274:
 1545              	.LBE277:
 1546              		.loc 1 381 9 view .LVU412
 1547 002a 31F81330 		ldrh	r3, [r1, r3, lsl #1]
 1548              	.LVL132:
 1549              		.loc 1 382 2 is_stmt 1 view .LVU413
 1550              	.LBB278:
 1551              	.LBI272:
 1552              		.loc 2 88 22 view .LVU414
 1553              	.LBB275:
 1554              		.loc 2 90 2 view .LVU415
 1555              		.loc 2 90 25 is_stmt 0 view .LVU416
 1556 002e 8483     		strh	r4, [r0, #28]	@ movhi
 1557              	.LBE275:
 1558              	.LBE278:
 1559              	.LBB279:
 1560              	.LBB280:
 1561 0030 043A     		subs	r2, r2, #4
 1562              	.LBE280:
 1563              	.LBE279:
 1564              		.loc 1 382 9 view .LVU417
 1565 0032 31F81560 		ldrh	r6, [r1, r5, lsl #1]
 1566              	.LVL133:
 1567              		.loc 1 385 2 is_stmt 1 view .LVU418
 1568              	.LBB282:
 1569              	.LBI279:
 1570              		.loc 2 88 22 view .LVU419
 1571              	.LBB281:
 1572              		.loc 2 90 2 view .LVU420
 1573              		.loc 2 90 25 is_stmt 0 view .LVU421
 1574 0036 8283     		strh	r2, [r0, #28]	@ movhi
 1575              	.LBE281:
 1576              	.LBE282:
 1577              		.loc 1 385 9 view .LVU422
 1578 0038 31F81450 		ldrh	r5, [r1, r4, lsl #1]
 1579              	.LVL134:
 1580              		.loc 1 387 2 is_stmt 1 view .LVU423
 1581              		.loc 1 388 2 view .LVU424
 1582              		.loc 1 388 14 view .LVU425
 1583              		.loc 1 388 2 is_stmt 0 view .LVU426
 1584 003c 9DB1     		cbz	r5, .L127
 1585 003e 1D44     		add	r5, r5, r3
 1586              	.LVL135:
 1587              		.loc 1 388 2 view .LVU427
 1588 0040 ADB2     		uxth	r5, r5
 1589 0042 FF1A     		subs	r7, r7, r3
 1590              	.LVL136:
 1591              		.loc 1 388 2 view .LVU428
 1592 0044 F61A     		subs	r6, r6, r3
 1593              	.LVL137:
 1594              	.L129:
 1595              		.loc 1 388 2 view .LVU429
 1596 0046 9919     		adds	r1, r3, r6
ARM GAS  /tmp/cchqCFfA.s 			page 29


 1597              		.loc 1 390 29 discriminator 3 view .LVU430
 1598 0048 C268     		ldr	r2, [r0, #12]
 1599 004a 89B2     		uxth	r1, r1
 1600              	.LVL138:
 1601              		.loc 1 390 49 discriminator 3 view .LVU431
 1602 004c 32F81340 		ldrh	r4, [r2, r3, lsl #1]
 1603 0050 32F811C0 		ldrh	ip, [r2, r1, lsl #1]
 1604 0054 D919     		adds	r1, r3, r7
 1605              	.LVL139:
 1606              		.loc 1 390 45 discriminator 3 view .LVU432
 1607 0056 0133     		adds	r3, r3, #1
 1608              	.LVL140:
 1609              		.loc 1 390 45 discriminator 3 view .LVU433
 1610 0058 89B2     		uxth	r1, r1
 1611              	.LVL141:
 1612              		.loc 1 390 3 is_stmt 1 discriminator 3 view .LVU434
 1613              		.loc 1 390 45 is_stmt 0 discriminator 3 view .LVU435
 1614 005a 9BB2     		uxth	r3, r3
 1615              	.LVL142:
 1616              		.loc 1 390 49 discriminator 3 view .LVU436
 1617 005c 6444     		add	r4, r4, ip
 1618              		.loc 1 388 2 discriminator 3 view .LVU437
 1619 005e AB42     		cmp	r3, r5
 1620              		.loc 1 390 25 discriminator 3 view .LVU438
 1621 0060 22F81140 		strh	r4, [r2, r1, lsl #1]	@ movhi
 1622              		.loc 1 388 26 is_stmt 1 discriminator 3 view .LVU439
 1623              		.loc 1 388 14 discriminator 3 view .LVU440
 1624              		.loc 1 388 2 is_stmt 0 discriminator 3 view .LVU441
 1625 0064 EFD1     		bne	.L129
 1626              	.L127:
 1627              		.loc 1 392 1 view .LVU442
 1628 0066 044B     		ldr	r3, .L137
 1629              	.LVL143:
 1630              		.loc 1 392 1 view .LVU443
 1631 0068 1A68     		ldr	r2, [r3]
 1632 006a 019B     		ldr	r3, [sp, #4]
 1633 006c 5A40     		eors	r2, r3, r2
 1634 006e 01D1     		bne	.L136
 1635 0070 03B0     		add	sp, sp, #12
 1636              		.cfi_remember_state
 1637              		.cfi_def_cfa_offset 20
 1638              		@ sp needed
 1639 0072 F0BD     		pop	{r4, r5, r6, r7, pc}
 1640              	.L136:
 1641              		.cfi_restore_state
 1642 0074 FFF7FEFF 		bl	__stack_chk_fail
 1643              	.LVL144:
 1644              	.L138:
 1645              		.loc 1 392 1 view .LVU444
 1646              		.align	2
 1647              	.L137:
 1648 0078 00000000 		.word	.LC9
 1649              		.cfi_endproc
 1650              	.LFE9:
 1651              		.size	AsebaNative_vecadd, .-AsebaNative_vecadd
 1652              		.section	.rodata.AsebaNative_vecsub.cst4,"aM",%progbits,4
 1653              		.align	2
ARM GAS  /tmp/cchqCFfA.s 			page 30


 1654              	.LC10:
 1655 0000 00000000 		.word	__stack_chk_guard
 1656              		.section	.text.AsebaNative_vecsub,"ax",%progbits
 1657              		.align	1
 1658              		.p2align 4,,15
 1659              		.global	AsebaNative_vecsub
 1660              		.syntax unified
 1661              		.thumb
 1662              		.thumb_func
 1663              		.fpu fpv4-sp-d16
 1664              		.type	AsebaNative_vecsub, %function
 1665              	AsebaNative_vecsub:
 1666              	.LVL145:
 1667              	.LFB10:
 1668              		.loc 1 408 1 is_stmt 1 view -0
 1669              		.cfi_startproc
 1670              		@ args = 0, pretend = 0, frame = 8
 1671              		@ frame_needed = 0, uses_anonymous_args = 0
 1672              		.loc 1 408 1 is_stmt 0 view .LVU446
 1673 0000 F0B5     		push	{r4, r5, r6, r7, lr}
 1674              		.cfi_def_cfa_offset 20
 1675              		.cfi_offset 4, -20
 1676              		.cfi_offset 5, -16
 1677              		.cfi_offset 6, -12
 1678              		.cfi_offset 7, -8
 1679              		.cfi_offset 14, -4
 1680              	.LBB283:
 1681              	.LBB284:
 1682              		.loc 2 90 21 view .LVU447
 1683 0002 B0F91C60 		ldrsh	r6, [r0, #28]
 1684              	.LBE284:
 1685              	.LBE283:
 1686              		.loc 1 408 1 view .LVU448
 1687 0006 1D4B     		ldr	r3, .L149
 1688              		.loc 1 410 16 view .LVU449
 1689 0008 4169     		ldr	r1, [r0, #20]
 1690              	.LBB288:
 1691              	.LBB285:
 1692              		.loc 2 90 25 view .LVU450
 1693 000a B2B2     		uxth	r2, r6
 1694              	.LBE285:
 1695              	.LBE288:
 1696              		.loc 1 408 1 view .LVU451
 1697 000c 83B0     		sub	sp, sp, #12
 1698              		.cfi_def_cfa_offset 32
 1699              		.loc 1 408 1 view .LVU452
 1700 000e 1B68     		ldr	r3, [r3]
 1701 0010 0193     		str	r3, [sp, #4]
 1702 0012 4FF00003 		mov	r3,#0
 1703              		.loc 1 410 2 is_stmt 1 view .LVU453
 1704              	.LBB289:
 1705              	.LBI283:
 1706              		.loc 2 88 22 view .LVU454
 1707              	.LVL146:
 1708              	.LBB286:
 1709              		.loc 2 90 2 view .LVU455
 1710              		.loc 2 90 25 is_stmt 0 view .LVU456
ARM GAS  /tmp/cchqCFfA.s 			page 31


 1711 0016 531E     		subs	r3, r2, #1
 1712 0018 1BB2     		sxth	r3, r3
 1713              	.LBE286:
 1714              	.LBE289:
 1715              	.LBB290:
 1716              	.LBB291:
 1717 001a 951E     		subs	r5, r2, #2
 1718              	.LBE291:
 1719              	.LBE290:
 1720              	.LBB294:
 1721              	.LBB287:
 1722 001c 8383     		strh	r3, [r0, #28]	@ movhi
 1723              	.LBE287:
 1724              	.LBE294:
 1725              	.LBB295:
 1726              	.LBB292:
 1727 001e 2DB2     		sxth	r5, r5
 1728              	.LBE292:
 1729              	.LBE295:
 1730              	.LBB296:
 1731              	.LBB297:
 1732 0020 D41E     		subs	r4, r2, #3
 1733              	.LBE297:
 1734              	.LBE296:
 1735              		.loc 1 410 9 view .LVU457
 1736 0022 31F81670 		ldrh	r7, [r1, r6, lsl #1]
 1737              	.LVL147:
 1738              		.loc 1 411 2 is_stmt 1 view .LVU458
 1739              	.LBB300:
 1740              	.LBI290:
 1741              		.loc 2 88 22 view .LVU459
 1742              	.LBB293:
 1743              		.loc 2 90 2 view .LVU460
 1744              		.loc 2 90 25 is_stmt 0 view .LVU461
 1745 0026 8583     		strh	r5, [r0, #28]	@ movhi
 1746              	.LBE293:
 1747              	.LBE300:
 1748              	.LBB301:
 1749              	.LBB298:
 1750 0028 24B2     		sxth	r4, r4
 1751              	.LBE298:
 1752              	.LBE301:
 1753              		.loc 1 411 9 view .LVU462
 1754 002a 31F81330 		ldrh	r3, [r1, r3, lsl #1]
 1755              	.LVL148:
 1756              		.loc 1 412 2 is_stmt 1 view .LVU463
 1757              	.LBB302:
 1758              	.LBI296:
 1759              		.loc 2 88 22 view .LVU464
 1760              	.LBB299:
 1761              		.loc 2 90 2 view .LVU465
 1762              		.loc 2 90 25 is_stmt 0 view .LVU466
 1763 002e 8483     		strh	r4, [r0, #28]	@ movhi
 1764              	.LBE299:
 1765              	.LBE302:
 1766              	.LBB303:
 1767              	.LBB304:
ARM GAS  /tmp/cchqCFfA.s 			page 32


 1768 0030 043A     		subs	r2, r2, #4
 1769              	.LBE304:
 1770              	.LBE303:
 1771              		.loc 1 412 9 view .LVU467
 1772 0032 31F81560 		ldrh	r6, [r1, r5, lsl #1]
 1773              	.LVL149:
 1774              		.loc 1 415 2 is_stmt 1 view .LVU468
 1775              	.LBB306:
 1776              	.LBI303:
 1777              		.loc 2 88 22 view .LVU469
 1778              	.LBB305:
 1779              		.loc 2 90 2 view .LVU470
 1780              		.loc 2 90 25 is_stmt 0 view .LVU471
 1781 0036 8283     		strh	r2, [r0, #28]	@ movhi
 1782              	.LBE305:
 1783              	.LBE306:
 1784              		.loc 1 415 9 view .LVU472
 1785 0038 31F81450 		ldrh	r5, [r1, r4, lsl #1]
 1786              	.LVL150:
 1787              		.loc 1 417 2 is_stmt 1 view .LVU473
 1788              		.loc 1 418 2 view .LVU474
 1789              		.loc 1 418 14 view .LVU475
 1790              		.loc 1 418 2 is_stmt 0 view .LVU476
 1791 003c A5B1     		cbz	r5, .L139
 1792 003e 1D44     		add	r5, r5, r3
 1793              	.LVL151:
 1794              		.loc 1 418 2 view .LVU477
 1795 0040 ADB2     		uxth	r5, r5
 1796 0042 FF1A     		subs	r7, r7, r3
 1797              	.LVL152:
 1798              		.loc 1 418 2 view .LVU478
 1799 0044 F61A     		subs	r6, r6, r3
 1800              	.LVL153:
 1801              	.L141:
 1802              		.loc 1 418 2 view .LVU479
 1803 0046 9919     		adds	r1, r3, r6
 1804              		.loc 1 420 29 discriminator 3 view .LVU480
 1805 0048 C268     		ldr	r2, [r0, #12]
 1806 004a 89B2     		uxth	r1, r1
 1807              	.LVL154:
 1808              		.loc 1 420 49 discriminator 3 view .LVU481
 1809 004c 32F81340 		ldrh	r4, [r2, r3, lsl #1]
 1810 0050 32F811C0 		ldrh	ip, [r2, r1, lsl #1]
 1811 0054 D919     		adds	r1, r3, r7
 1812              	.LVL155:
 1813              		.loc 1 420 45 discriminator 3 view .LVU482
 1814 0056 0133     		adds	r3, r3, #1
 1815              	.LVL156:
 1816              		.loc 1 420 45 discriminator 3 view .LVU483
 1817 0058 89B2     		uxth	r1, r1
 1818              	.LVL157:
 1819              		.loc 1 420 3 is_stmt 1 discriminator 3 view .LVU484
 1820              		.loc 1 420 45 is_stmt 0 discriminator 3 view .LVU485
 1821 005a 9BB2     		uxth	r3, r3
 1822              	.LVL158:
 1823              		.loc 1 420 49 discriminator 3 view .LVU486
 1824 005c A4EB0C04 		sub	r4, r4, ip
ARM GAS  /tmp/cchqCFfA.s 			page 33


 1825              		.loc 1 418 2 discriminator 3 view .LVU487
 1826 0060 AB42     		cmp	r3, r5
 1827              		.loc 1 420 25 discriminator 3 view .LVU488
 1828 0062 22F81140 		strh	r4, [r2, r1, lsl #1]	@ movhi
 1829              		.loc 1 418 26 is_stmt 1 discriminator 3 view .LVU489
 1830              		.loc 1 418 14 discriminator 3 view .LVU490
 1831              		.loc 1 418 2 is_stmt 0 discriminator 3 view .LVU491
 1832 0066 EED1     		bne	.L141
 1833              	.L139:
 1834              		.loc 1 422 1 view .LVU492
 1835 0068 044B     		ldr	r3, .L149
 1836              	.LVL159:
 1837              		.loc 1 422 1 view .LVU493
 1838 006a 1A68     		ldr	r2, [r3]
 1839 006c 019B     		ldr	r3, [sp, #4]
 1840 006e 5A40     		eors	r2, r3, r2
 1841 0070 01D1     		bne	.L148
 1842 0072 03B0     		add	sp, sp, #12
 1843              		.cfi_remember_state
 1844              		.cfi_def_cfa_offset 20
 1845              		@ sp needed
 1846 0074 F0BD     		pop	{r4, r5, r6, r7, pc}
 1847              	.L148:
 1848              		.cfi_restore_state
 1849 0076 FFF7FEFF 		bl	__stack_chk_fail
 1850              	.LVL160:
 1851              	.L150:
 1852              		.loc 1 422 1 view .LVU494
 1853 007a 00BF     		.align	2
 1854              	.L149:
 1855 007c 00000000 		.word	.LC10
 1856              		.cfi_endproc
 1857              	.LFE10:
 1858              		.size	AsebaNative_vecsub, .-AsebaNative_vecsub
 1859              		.section	.rodata.AsebaNative_vecmul.cst4,"aM",%progbits,4
 1860              		.align	2
 1861              	.LC11:
 1862 0000 00000000 		.word	__stack_chk_guard
 1863              		.section	.text.AsebaNative_vecmul,"ax",%progbits
 1864              		.align	1
 1865              		.p2align 4,,15
 1866              		.global	AsebaNative_vecmul
 1867              		.syntax unified
 1868              		.thumb
 1869              		.thumb_func
 1870              		.fpu fpv4-sp-d16
 1871              		.type	AsebaNative_vecmul, %function
 1872              	AsebaNative_vecmul:
 1873              	.LVL161:
 1874              	.LFB11:
 1875              		.loc 1 438 1 is_stmt 1 view -0
 1876              		.cfi_startproc
 1877              		@ args = 0, pretend = 0, frame = 8
 1878              		@ frame_needed = 0, uses_anonymous_args = 0
 1879              		.loc 1 438 1 is_stmt 0 view .LVU496
 1880 0000 F0B5     		push	{r4, r5, r6, r7, lr}
 1881              		.cfi_def_cfa_offset 20
ARM GAS  /tmp/cchqCFfA.s 			page 34


 1882              		.cfi_offset 4, -20
 1883              		.cfi_offset 5, -16
 1884              		.cfi_offset 6, -12
 1885              		.cfi_offset 7, -8
 1886              		.cfi_offset 14, -4
 1887              	.LBB307:
 1888              	.LBB308:
 1889              		.loc 2 90 21 view .LVU497
 1890 0002 B0F91C60 		ldrsh	r6, [r0, #28]
 1891              	.LBE308:
 1892              	.LBE307:
 1893              		.loc 1 438 1 view .LVU498
 1894 0006 1D4B     		ldr	r3, .L161
 1895              		.loc 1 440 16 view .LVU499
 1896 0008 4169     		ldr	r1, [r0, #20]
 1897              	.LBB312:
 1898              	.LBB309:
 1899              		.loc 2 90 25 view .LVU500
 1900 000a B2B2     		uxth	r2, r6
 1901              	.LBE309:
 1902              	.LBE312:
 1903              		.loc 1 438 1 view .LVU501
 1904 000c 83B0     		sub	sp, sp, #12
 1905              		.cfi_def_cfa_offset 32
 1906              		.loc 1 438 1 view .LVU502
 1907 000e 1B68     		ldr	r3, [r3]
 1908 0010 0193     		str	r3, [sp, #4]
 1909 0012 4FF00003 		mov	r3,#0
 1910              		.loc 1 440 2 is_stmt 1 view .LVU503
 1911              	.LBB313:
 1912              	.LBI307:
 1913              		.loc 2 88 22 view .LVU504
 1914              	.LVL162:
 1915              	.LBB310:
 1916              		.loc 2 90 2 view .LVU505
 1917              		.loc 2 90 25 is_stmt 0 view .LVU506
 1918 0016 531E     		subs	r3, r2, #1
 1919 0018 1BB2     		sxth	r3, r3
 1920              	.LBE310:
 1921              	.LBE313:
 1922              	.LBB314:
 1923              	.LBB315:
 1924 001a 951E     		subs	r5, r2, #2
 1925              	.LBE315:
 1926              	.LBE314:
 1927              	.LBB318:
 1928              	.LBB311:
 1929 001c 8383     		strh	r3, [r0, #28]	@ movhi
 1930              	.LBE311:
 1931              	.LBE318:
 1932              	.LBB319:
 1933              	.LBB316:
 1934 001e 2DB2     		sxth	r5, r5
 1935              	.LBE316:
 1936              	.LBE319:
 1937              	.LBB320:
 1938              	.LBB321:
ARM GAS  /tmp/cchqCFfA.s 			page 35


 1939 0020 D41E     		subs	r4, r2, #3
 1940              	.LBE321:
 1941              	.LBE320:
 1942              		.loc 1 440 9 view .LVU507
 1943 0022 31F81670 		ldrh	r7, [r1, r6, lsl #1]
 1944              	.LVL163:
 1945              		.loc 1 441 2 is_stmt 1 view .LVU508
 1946              	.LBB324:
 1947              	.LBI314:
 1948              		.loc 2 88 22 view .LVU509
 1949              	.LBB317:
 1950              		.loc 2 90 2 view .LVU510
 1951              		.loc 2 90 25 is_stmt 0 view .LVU511
 1952 0026 8583     		strh	r5, [r0, #28]	@ movhi
 1953              	.LBE317:
 1954              	.LBE324:
 1955              	.LBB325:
 1956              	.LBB322:
 1957 0028 24B2     		sxth	r4, r4
 1958              	.LBE322:
 1959              	.LBE325:
 1960              		.loc 1 441 9 view .LVU512
 1961 002a 31F81330 		ldrh	r3, [r1, r3, lsl #1]
 1962              	.LVL164:
 1963              		.loc 1 442 2 is_stmt 1 view .LVU513
 1964              	.LBB326:
 1965              	.LBI320:
 1966              		.loc 2 88 22 view .LVU514
 1967              	.LBB323:
 1968              		.loc 2 90 2 view .LVU515
 1969              		.loc 2 90 25 is_stmt 0 view .LVU516
 1970 002e 8483     		strh	r4, [r0, #28]	@ movhi
 1971              	.LBE323:
 1972              	.LBE326:
 1973              	.LBB327:
 1974              	.LBB328:
 1975 0030 043A     		subs	r2, r2, #4
 1976              	.LBE328:
 1977              	.LBE327:
 1978              		.loc 1 442 9 view .LVU517
 1979 0032 31F81560 		ldrh	r6, [r1, r5, lsl #1]
 1980              	.LVL165:
 1981              		.loc 1 445 2 is_stmt 1 view .LVU518
 1982              	.LBB330:
 1983              	.LBI327:
 1984              		.loc 2 88 22 view .LVU519
 1985              	.LBB329:
 1986              		.loc 2 90 2 view .LVU520
 1987              		.loc 2 90 25 is_stmt 0 view .LVU521
 1988 0036 8283     		strh	r2, [r0, #28]	@ movhi
 1989              	.LBE329:
 1990              	.LBE330:
 1991              		.loc 1 445 9 view .LVU522
 1992 0038 31F81450 		ldrh	r5, [r1, r4, lsl #1]
 1993              	.LVL166:
 1994              		.loc 1 447 2 is_stmt 1 view .LVU523
 1995              		.loc 1 448 2 view .LVU524
ARM GAS  /tmp/cchqCFfA.s 			page 36


 1996              		.loc 1 448 14 view .LVU525
 1997              		.loc 1 448 2 is_stmt 0 view .LVU526
 1998 003c A5B1     		cbz	r5, .L151
 1999 003e 1D44     		add	r5, r5, r3
 2000              	.LVL167:
 2001              		.loc 1 448 2 view .LVU527
 2002 0040 ADB2     		uxth	r5, r5
 2003 0042 FF1A     		subs	r7, r7, r3
 2004              	.LVL168:
 2005              		.loc 1 448 2 view .LVU528
 2006 0044 F61A     		subs	r6, r6, r3
 2007              	.LVL169:
 2008              	.L153:
 2009              		.loc 1 448 2 view .LVU529
 2010 0046 9919     		adds	r1, r3, r6
 2011              		.loc 1 450 29 discriminator 3 view .LVU530
 2012 0048 C268     		ldr	r2, [r0, #12]
 2013 004a 89B2     		uxth	r1, r1
 2014              	.LVL170:
 2015              		.loc 1 450 49 discriminator 3 view .LVU531
 2016 004c 32F81340 		ldrh	r4, [r2, r3, lsl #1]
 2017 0050 32F811C0 		ldrh	ip, [r2, r1, lsl #1]
 2018 0054 D919     		adds	r1, r3, r7
 2019              	.LVL171:
 2020              		.loc 1 450 45 discriminator 3 view .LVU532
 2021 0056 0133     		adds	r3, r3, #1
 2022              	.LVL172:
 2023              		.loc 1 450 45 discriminator 3 view .LVU533
 2024 0058 89B2     		uxth	r1, r1
 2025              	.LVL173:
 2026              		.loc 1 450 3 is_stmt 1 discriminator 3 view .LVU534
 2027              		.loc 1 450 45 is_stmt 0 discriminator 3 view .LVU535
 2028 005a 9BB2     		uxth	r3, r3
 2029              	.LVL174:
 2030              		.loc 1 450 49 discriminator 3 view .LVU536
 2031 005c 14FB0CF4 		smulbb	r4, r4, ip
 2032              		.loc 1 448 2 discriminator 3 view .LVU537
 2033 0060 AB42     		cmp	r3, r5
 2034              		.loc 1 450 25 discriminator 3 view .LVU538
 2035 0062 22F81140 		strh	r4, [r2, r1, lsl #1]	@ movhi
 2036              		.loc 1 448 26 is_stmt 1 discriminator 3 view .LVU539
 2037              		.loc 1 448 14 discriminator 3 view .LVU540
 2038              		.loc 1 448 2 is_stmt 0 discriminator 3 view .LVU541
 2039 0066 EED1     		bne	.L153
 2040              	.L151:
 2041              		.loc 1 452 1 view .LVU542
 2042 0068 044B     		ldr	r3, .L161
 2043              	.LVL175:
 2044              		.loc 1 452 1 view .LVU543
 2045 006a 1A68     		ldr	r2, [r3]
 2046 006c 019B     		ldr	r3, [sp, #4]
 2047 006e 5A40     		eors	r2, r3, r2
 2048 0070 01D1     		bne	.L160
 2049 0072 03B0     		add	sp, sp, #12
 2050              		.cfi_remember_state
 2051              		.cfi_def_cfa_offset 20
 2052              		@ sp needed
ARM GAS  /tmp/cchqCFfA.s 			page 37


 2053 0074 F0BD     		pop	{r4, r5, r6, r7, pc}
 2054              	.L160:
 2055              		.cfi_restore_state
 2056 0076 FFF7FEFF 		bl	__stack_chk_fail
 2057              	.LVL176:
 2058              	.L162:
 2059              		.loc 1 452 1 view .LVU544
 2060 007a 00BF     		.align	2
 2061              	.L161:
 2062 007c 00000000 		.word	.LC11
 2063              		.cfi_endproc
 2064              	.LFE11:
 2065              		.size	AsebaNative_vecmul, .-AsebaNative_vecmul
 2066              		.section	.rodata.AsebaNative_vecdiv.cst4,"aM",%progbits,4
 2067              		.align	2
 2068              	.LC12:
 2069 0000 00000000 		.word	__stack_chk_guard
 2070              		.section	.text.AsebaNative_vecdiv,"ax",%progbits
 2071              		.align	1
 2072              		.p2align 4,,15
 2073              		.global	AsebaNative_vecdiv
 2074              		.syntax unified
 2075              		.thumb
 2076              		.thumb_func
 2077              		.fpu fpv4-sp-d16
 2078              		.type	AsebaNative_vecdiv, %function
 2079              	AsebaNative_vecdiv:
 2080              	.LVL177:
 2081              	.LFB12:
 2082              		.loc 1 468 1 is_stmt 1 view -0
 2083              		.cfi_startproc
 2084              		@ args = 0, pretend = 0, frame = 8
 2085              		@ frame_needed = 0, uses_anonymous_args = 0
 2086              		.loc 1 468 1 is_stmt 0 view .LVU546
 2087 0000 F0B5     		push	{r4, r5, r6, r7, lr}
 2088              		.cfi_def_cfa_offset 20
 2089              		.cfi_offset 4, -20
 2090              		.cfi_offset 5, -16
 2091              		.cfi_offset 6, -12
 2092              		.cfi_offset 7, -8
 2093              		.cfi_offset 14, -4
 2094              	.LBB331:
 2095              	.LBB332:
 2096              		.loc 2 90 21 view .LVU547
 2097 0002 B0F91C60 		ldrsh	r6, [r0, #28]
 2098              	.LBE332:
 2099              	.LBE331:
 2100              		.loc 1 468 1 view .LVU548
 2101 0006 274B     		ldr	r3, .L175
 2102              		.loc 1 470 16 view .LVU549
 2103 0008 4169     		ldr	r1, [r0, #20]
 2104              	.LBB336:
 2105              	.LBB333:
 2106              		.loc 2 90 25 view .LVU550
 2107 000a B2B2     		uxth	r2, r6
 2108              	.LBE333:
 2109              	.LBE336:
ARM GAS  /tmp/cchqCFfA.s 			page 38


 2110              		.loc 1 468 1 view .LVU551
 2111 000c 83B0     		sub	sp, sp, #12
 2112              		.cfi_def_cfa_offset 32
 2113              		.loc 1 468 1 view .LVU552
 2114 000e 1B68     		ldr	r3, [r3]
 2115 0010 0193     		str	r3, [sp, #4]
 2116 0012 4FF00003 		mov	r3,#0
 2117              		.loc 1 470 2 is_stmt 1 view .LVU553
 2118              	.LBB337:
 2119              	.LBI331:
 2120              		.loc 2 88 22 view .LVU554
 2121              	.LVL178:
 2122              	.LBB334:
 2123              		.loc 2 90 2 view .LVU555
 2124              		.loc 2 90 25 is_stmt 0 view .LVU556
 2125 0016 531E     		subs	r3, r2, #1
 2126 0018 1BB2     		sxth	r3, r3
 2127              	.LBE334:
 2128              	.LBE337:
 2129              	.LBB338:
 2130              	.LBB339:
 2131 001a 951E     		subs	r5, r2, #2
 2132              	.LBE339:
 2133              	.LBE338:
 2134              	.LBB342:
 2135              	.LBB335:
 2136 001c 8383     		strh	r3, [r0, #28]	@ movhi
 2137              	.LBE335:
 2138              	.LBE342:
 2139              	.LBB343:
 2140              	.LBB340:
 2141 001e 2DB2     		sxth	r5, r5
 2142              	.LBE340:
 2143              	.LBE343:
 2144              	.LBB344:
 2145              	.LBB345:
 2146 0020 D41E     		subs	r4, r2, #3
 2147              	.LBE345:
 2148              	.LBE344:
 2149              		.loc 1 470 9 view .LVU557
 2150 0022 31F81670 		ldrh	r7, [r1, r6, lsl #1]
 2151              	.LVL179:
 2152              		.loc 1 471 2 is_stmt 1 view .LVU558
 2153              	.LBB348:
 2154              	.LBI338:
 2155              		.loc 2 88 22 view .LVU559
 2156              	.LBB341:
 2157              		.loc 2 90 2 view .LVU560
 2158              		.loc 2 90 25 is_stmt 0 view .LVU561
 2159 0026 8583     		strh	r5, [r0, #28]	@ movhi
 2160              	.LBE341:
 2161              	.LBE348:
 2162              	.LBB349:
 2163              	.LBB346:
 2164 0028 24B2     		sxth	r4, r4
 2165              	.LBE346:
 2166              	.LBE349:
ARM GAS  /tmp/cchqCFfA.s 			page 39


 2167              		.loc 1 471 9 view .LVU562
 2168 002a 31F81330 		ldrh	r3, [r1, r3, lsl #1]
 2169              	.LVL180:
 2170              		.loc 1 472 2 is_stmt 1 view .LVU563
 2171              	.LBB350:
 2172              	.LBI344:
 2173              		.loc 2 88 22 view .LVU564
 2174              	.LBB347:
 2175              		.loc 2 90 2 view .LVU565
 2176              		.loc 2 90 25 is_stmt 0 view .LVU566
 2177 002e 8483     		strh	r4, [r0, #28]	@ movhi
 2178              	.LBE347:
 2179              	.LBE350:
 2180              	.LBB351:
 2181              	.LBB352:
 2182 0030 043A     		subs	r2, r2, #4
 2183              	.LBE352:
 2184              	.LBE351:
 2185              		.loc 1 472 9 view .LVU567
 2186 0032 31F81560 		ldrh	r6, [r1, r5, lsl #1]
 2187              	.LVL181:
 2188              		.loc 1 475 2 is_stmt 1 view .LVU568
 2189              	.LBB354:
 2190              	.LBI351:
 2191              		.loc 2 88 22 view .LVU569
 2192              	.LBB353:
 2193              		.loc 2 90 2 view .LVU570
 2194              		.loc 2 90 25 is_stmt 0 view .LVU571
 2195 0036 8283     		strh	r2, [r0, #28]	@ movhi
 2196              	.LBE353:
 2197              	.LBE354:
 2198              		.loc 1 475 9 view .LVU572
 2199 0038 31F81450 		ldrh	r5, [r1, r4, lsl #1]
 2200              	.LVL182:
 2201              		.loc 1 477 2 is_stmt 1 view .LVU573
 2202              		.loc 1 478 2 view .LVU574
 2203              		.loc 1 478 14 view .LVU575
 2204              		.loc 1 478 2 is_stmt 0 view .LVU576
 2205 003c 45B3     		cbz	r5, .L163
 2206 003e 1D44     		add	r5, r5, r3
 2207              	.LVL183:
 2208              		.loc 1 478 2 view .LVU577
 2209 0040 ADB2     		uxth	r5, r5
 2210 0042 FF1A     		subs	r7, r7, r3
 2211              	.LVL184:
 2212              		.loc 1 478 2 view .LVU578
 2213 0044 F61A     		subs	r6, r6, r3
 2214              	.LVL185:
 2215              		.loc 1 478 2 view .LVU579
 2216 0046 05E0     		b	.L167
 2217              	.LVL186:
 2218              	.L174:
 2219              	.LBB355:
 2220              		.loc 1 485 4 is_stmt 1 view .LVU580
 2221              		.loc 1 485 4 is_stmt 0 view .LVU581
 2222              	.LBE355:
 2223              		.loc 1 478 2 view .LVU582
ARM GAS  /tmp/cchqCFfA.s 			page 40


 2224 0048 AB42     		cmp	r3, r5
 2225              	.LBB356:
 2226              		.loc 1 485 46 view .LVU583
 2227 004a 94FBFCF4 		sdiv	r4, r4, ip
 2228              	.LVL187:
 2229              		.loc 1 485 28 view .LVU584
 2230 004e 21F81240 		strh	r4, [r1, r2, lsl #1]	@ movhi
 2231              		.loc 1 485 28 view .LVU585
 2232              	.LBE356:
 2233              		.loc 1 478 26 is_stmt 1 view .LVU586
 2234              		.loc 1 478 14 view .LVU587
 2235              		.loc 1 478 2 is_stmt 0 view .LVU588
 2236 0052 1DD0     		beq	.L163
 2237              	.LVL188:
 2238              	.L167:
 2239              		.loc 1 478 2 view .LVU589
 2240 0054 9A19     		adds	r2, r3, r6
 2241              	.LBB357:
 2242              		.loc 1 480 31 view .LVU590
 2243 0056 C168     		ldr	r1, [r0, #12]
 2244 0058 92B2     		uxth	r2, r2
 2245              	.LVL189:
 2246              		.loc 1 480 10 view .LVU591
 2247 005a 31F91340 		ldrsh	r4, [r1, r3, lsl #1]
 2248              		.loc 1 481 10 view .LVU592
 2249 005e 31F912C0 		ldrsh	ip, [r1, r2, lsl #1]
 2250 0062 DA19     		adds	r2, r3, r7
 2251              	.LVL190:
 2252              		.loc 1 480 47 view .LVU593
 2253 0064 0133     		adds	r3, r3, #1
 2254              	.LVL191:
 2255              		.loc 1 480 47 view .LVU594
 2256 0066 92B2     		uxth	r2, r2
 2257              	.LVL192:
 2258              		.loc 1 480 3 is_stmt 1 view .LVU595
 2259              		.loc 1 480 47 is_stmt 0 view .LVU596
 2260 0068 9BB2     		uxth	r3, r3
 2261              	.LVL193:
 2262              		.loc 1 481 3 is_stmt 1 view .LVU597
 2263              		.loc 1 483 3 view .LVU598
 2264              		.loc 1 483 6 is_stmt 0 view .LVU599
 2265 006a BCF1000F 		cmp	ip, #0
 2266 006e EBD1     		bne	.L174
 2267              		.loc 1 489 4 is_stmt 1 view .LVU600
 2268              		.loc 1 490 4 is_stmt 0 view .LVU601
 2269 0070 0C4A     		ldr	r2, .L175
 2270              	.LVL194:
 2271              		.loc 1 489 14 view .LVU602
 2272 0072 0223     		movs	r3, #2
 2273              	.LVL195:
 2274              		.loc 1 489 14 view .LVU603
 2275 0074 0383     		strh	r3, [r0, #24]	@ movhi
 2276              		.loc 1 490 4 is_stmt 1 view .LVU604
 2277 0076 1168     		ldr	r1, [r2]
 2278 0078 019A     		ldr	r2, [sp, #4]
 2279 007a 5140     		eors	r1, r2, r1
 2280 007c 0FD1     		bne	.L173
ARM GAS  /tmp/cchqCFfA.s 			page 41


 2281 007e 00F11A02 		add	r2, r0, #26
 2282 0082 49F20701 		movw	r1, #36871
 2283              	.LBE357:
 2284              		.loc 1 494 1 is_stmt 0 view .LVU605
 2285 0086 03B0     		add	sp, sp, #12
 2286              		.cfi_remember_state
 2287              		.cfi_def_cfa_offset 20
 2288              		@ sp needed
 2289 0088 BDE8F040 		pop	{r4, r5, r6, r7, lr}
 2290              		.cfi_restore 14
 2291              		.cfi_restore 7
 2292              		.cfi_restore 6
 2293              		.cfi_restore 5
 2294              		.cfi_restore 4
 2295              		.cfi_def_cfa_offset 0
 2296              	.LVL196:
 2297              	.LBB358:
 2298              		.loc 1 490 4 view .LVU606
 2299 008c FFF7FEBF 		b	AsebaSendMessage
 2300              	.LVL197:
 2301              	.L163:
 2302              		.cfi_restore_state
 2303              		.loc 1 490 4 view .LVU607
 2304              	.LBE358:
 2305              		.loc 1 494 1 view .LVU608
 2306 0090 044B     		ldr	r3, .L175
 2307              	.LVL198:
 2308              		.loc 1 494 1 view .LVU609
 2309 0092 1A68     		ldr	r2, [r3]
 2310 0094 019B     		ldr	r3, [sp, #4]
 2311 0096 5A40     		eors	r2, r3, r2
 2312 0098 01D1     		bne	.L173
 2313 009a 03B0     		add	sp, sp, #12
 2314              		.cfi_remember_state
 2315              		.cfi_def_cfa_offset 20
 2316              		@ sp needed
 2317 009c F0BD     		pop	{r4, r5, r6, r7, pc}
 2318              	.L173:
 2319              		.cfi_restore_state
 2320              		.loc 1 494 1 view .LVU610
 2321 009e FFF7FEFF 		bl	__stack_chk_fail
 2322              	.LVL199:
 2323              	.L176:
 2324              		.loc 1 494 1 view .LVU611
 2325 00a2 00BF     		.align	2
 2326              	.L175:
 2327 00a4 00000000 		.word	.LC12
 2328              		.cfi_endproc
 2329              	.LFE12:
 2330              		.size	AsebaNative_vecdiv, .-AsebaNative_vecdiv
 2331              		.section	.rodata.AsebaNative_vecmin.cst4,"aM",%progbits,4
 2332              		.align	2
 2333              	.LC13:
 2334 0000 00000000 		.word	__stack_chk_guard
 2335              		.section	.text.AsebaNative_vecmin,"ax",%progbits
 2336              		.align	1
 2337              		.p2align 4,,15
ARM GAS  /tmp/cchqCFfA.s 			page 42


 2338              		.global	AsebaNative_vecmin
 2339              		.syntax unified
 2340              		.thumb
 2341              		.thumb_func
 2342              		.fpu fpv4-sp-d16
 2343              		.type	AsebaNative_vecmin, %function
 2344              	AsebaNative_vecmin:
 2345              	.LVL200:
 2346              	.LFB13:
 2347              		.loc 1 510 1 is_stmt 1 view -0
 2348              		.cfi_startproc
 2349              		@ args = 0, pretend = 0, frame = 8
 2350              		@ frame_needed = 0, uses_anonymous_args = 0
 2351              		.loc 1 510 1 is_stmt 0 view .LVU613
 2352 0000 F0B5     		push	{r4, r5, r6, r7, lr}
 2353              		.cfi_def_cfa_offset 20
 2354              		.cfi_offset 4, -20
 2355              		.cfi_offset 5, -16
 2356              		.cfi_offset 6, -12
 2357              		.cfi_offset 7, -8
 2358              		.cfi_offset 14, -4
 2359              	.LBB359:
 2360              	.LBB360:
 2361              		.loc 2 90 21 view .LVU614
 2362 0002 B0F91C60 		ldrsh	r6, [r0, #28]
 2363              	.LBE360:
 2364              	.LBE359:
 2365              		.loc 1 510 1 view .LVU615
 2366 0006 1D4B     		ldr	r3, .L187
 2367              		.loc 1 512 16 view .LVU616
 2368 0008 4169     		ldr	r1, [r0, #20]
 2369              	.LBB364:
 2370              	.LBB361:
 2371              		.loc 2 90 25 view .LVU617
 2372 000a B2B2     		uxth	r2, r6
 2373              	.LBE361:
 2374              	.LBE364:
 2375              		.loc 1 510 1 view .LVU618
 2376 000c 83B0     		sub	sp, sp, #12
 2377              		.cfi_def_cfa_offset 32
 2378              		.loc 1 510 1 view .LVU619
 2379 000e 1B68     		ldr	r3, [r3]
 2380 0010 0193     		str	r3, [sp, #4]
 2381 0012 4FF00003 		mov	r3,#0
 2382              		.loc 1 512 2 is_stmt 1 view .LVU620
 2383              	.LBB365:
 2384              	.LBI359:
 2385              		.loc 2 88 22 view .LVU621
 2386              	.LVL201:
 2387              	.LBB362:
 2388              		.loc 2 90 2 view .LVU622
 2389              		.loc 2 90 25 is_stmt 0 view .LVU623
 2390 0016 531E     		subs	r3, r2, #1
 2391 0018 1BB2     		sxth	r3, r3
 2392              	.LBE362:
 2393              	.LBE365:
 2394              	.LBB366:
ARM GAS  /tmp/cchqCFfA.s 			page 43


 2395              	.LBB367:
 2396 001a 951E     		subs	r5, r2, #2
 2397              	.LBE367:
 2398              	.LBE366:
 2399              	.LBB370:
 2400              	.LBB363:
 2401 001c 8383     		strh	r3, [r0, #28]	@ movhi
 2402              	.LBE363:
 2403              	.LBE370:
 2404              	.LBB371:
 2405              	.LBB368:
 2406 001e 2DB2     		sxth	r5, r5
 2407              	.LBE368:
 2408              	.LBE371:
 2409              	.LBB372:
 2410              	.LBB373:
 2411 0020 D41E     		subs	r4, r2, #3
 2412              	.LBE373:
 2413              	.LBE372:
 2414              		.loc 1 512 9 view .LVU624
 2415 0022 31F81670 		ldrh	r7, [r1, r6, lsl #1]
 2416              	.LVL202:
 2417              		.loc 1 513 2 is_stmt 1 view .LVU625
 2418              	.LBB376:
 2419              	.LBI366:
 2420              		.loc 2 88 22 view .LVU626
 2421              	.LBB369:
 2422              		.loc 2 90 2 view .LVU627
 2423              		.loc 2 90 25 is_stmt 0 view .LVU628
 2424 0026 8583     		strh	r5, [r0, #28]	@ movhi
 2425              	.LBE369:
 2426              	.LBE376:
 2427              	.LBB377:
 2428              	.LBB374:
 2429 0028 24B2     		sxth	r4, r4
 2430              	.LBE374:
 2431              	.LBE377:
 2432              		.loc 1 513 9 view .LVU629
 2433 002a 31F81330 		ldrh	r3, [r1, r3, lsl #1]
 2434              	.LVL203:
 2435              		.loc 1 514 2 is_stmt 1 view .LVU630
 2436              	.LBB378:
 2437              	.LBI372:
 2438              		.loc 2 88 22 view .LVU631
 2439              	.LBB375:
 2440              		.loc 2 90 2 view .LVU632
 2441              		.loc 2 90 25 is_stmt 0 view .LVU633
 2442 002e 8483     		strh	r4, [r0, #28]	@ movhi
 2443              	.LBE375:
 2444              	.LBE378:
 2445              	.LBB379:
 2446              	.LBB380:
 2447 0030 043A     		subs	r2, r2, #4
 2448              	.LBE380:
 2449              	.LBE379:
 2450              		.loc 1 514 9 view .LVU634
 2451 0032 31F81560 		ldrh	r6, [r1, r5, lsl #1]
ARM GAS  /tmp/cchqCFfA.s 			page 44


 2452              	.LVL204:
 2453              		.loc 1 517 2 is_stmt 1 view .LVU635
 2454              	.LBB382:
 2455              	.LBI379:
 2456              		.loc 2 88 22 view .LVU636
 2457              	.LBB381:
 2458              		.loc 2 90 2 view .LVU637
 2459              		.loc 2 90 25 is_stmt 0 view .LVU638
 2460 0036 8283     		strh	r2, [r0, #28]	@ movhi
 2461              	.LBE381:
 2462              	.LBE382:
 2463              		.loc 1 517 9 view .LVU639
 2464 0038 31F81450 		ldrh	r5, [r1, r4, lsl #1]
 2465              	.LVL205:
 2466              		.loc 1 519 2 is_stmt 1 view .LVU640
 2467              		.loc 1 520 2 view .LVU641
 2468              		.loc 1 520 14 view .LVU642
 2469              		.loc 1 520 2 is_stmt 0 view .LVU643
 2470 003c ADB1     		cbz	r5, .L177
 2471 003e 1D44     		add	r5, r5, r3
 2472              	.LVL206:
 2473              		.loc 1 520 2 view .LVU644
 2474 0040 ADB2     		uxth	r5, r5
 2475 0042 FF1A     		subs	r7, r7, r3
 2476              	.LVL207:
 2477              		.loc 1 520 2 view .LVU645
 2478 0044 F61A     		subs	r6, r6, r3
 2479              	.LVL208:
 2480              	.L179:
 2481              		.loc 1 520 2 view .LVU646
 2482 0046 9919     		adds	r1, r3, r6
 2483              	.LBB383:
 2484              		.loc 1 522 17 discriminator 3 view .LVU647
 2485 0048 C268     		ldr	r2, [r0, #12]
 2486 004a 89B2     		uxth	r1, r1
 2487              	.LVL209:
 2488              		.loc 1 524 10 discriminator 3 view .LVU648
 2489 004c 32F91340 		ldrsh	r4, [r2, r3, lsl #1]
 2490 0050 32F911C0 		ldrsh	ip, [r2, r1, lsl #1]
 2491 0054 D919     		adds	r1, r3, r7
 2492              	.LVL210:
 2493              		.loc 1 522 33 discriminator 3 view .LVU649
 2494 0056 0133     		adds	r3, r3, #1
 2495              	.LVL211:
 2496              		.loc 1 524 10 discriminator 3 view .LVU650
 2497 0058 6445     		cmp	r4, ip
 2498 005a 89B2     		uxth	r1, r1
 2499              	.LVL212:
 2500              		.loc 1 522 3 is_stmt 1 discriminator 3 view .LVU651
 2501              		.loc 1 522 33 is_stmt 0 discriminator 3 view .LVU652
 2502 005c 9BB2     		uxth	r3, r3
 2503              	.LVL213:
 2504              		.loc 1 523 3 is_stmt 1 discriminator 3 view .LVU653
 2505              		.loc 1 524 3 discriminator 3 view .LVU654
 2506              		.loc 1 525 3 discriminator 3 view .LVU655
 2507              		.loc 1 524 10 is_stmt 0 discriminator 3 view .LVU656
 2508 005e A8BF     		it	ge
ARM GAS  /tmp/cchqCFfA.s 			page 45


 2509 0060 6446     		movge	r4, ip
 2510              	.LBE383:
 2511              		.loc 1 520 2 discriminator 3 view .LVU657
 2512 0062 AB42     		cmp	r3, r5
 2513              	.LBB384:
 2514              		.loc 1 525 25 discriminator 3 view .LVU658
 2515 0064 22F81140 		strh	r4, [r2, r1, lsl #1]	@ movhi
 2516              		.loc 1 525 25 discriminator 3 view .LVU659
 2517              	.LBE384:
 2518              		.loc 1 520 26 is_stmt 1 discriminator 3 view .LVU660
 2519              		.loc 1 520 14 discriminator 3 view .LVU661
 2520              		.loc 1 520 2 is_stmt 0 discriminator 3 view .LVU662
 2521 0068 EDD1     		bne	.L179
 2522              	.L177:
 2523              		.loc 1 527 1 view .LVU663
 2524 006a 044B     		ldr	r3, .L187
 2525              	.LVL214:
 2526              		.loc 1 527 1 view .LVU664
 2527 006c 1A68     		ldr	r2, [r3]
 2528 006e 019B     		ldr	r3, [sp, #4]
 2529 0070 5A40     		eors	r2, r3, r2
 2530 0072 01D1     		bne	.L186
 2531 0074 03B0     		add	sp, sp, #12
 2532              		.cfi_remember_state
 2533              		.cfi_def_cfa_offset 20
 2534              		@ sp needed
 2535 0076 F0BD     		pop	{r4, r5, r6, r7, pc}
 2536              	.L186:
 2537              		.cfi_restore_state
 2538 0078 FFF7FEFF 		bl	__stack_chk_fail
 2539              	.LVL215:
 2540              	.L188:
 2541              		.loc 1 527 1 view .LVU665
 2542              		.align	2
 2543              	.L187:
 2544 007c 00000000 		.word	.LC13
 2545              		.cfi_endproc
 2546              	.LFE13:
 2547              		.size	AsebaNative_vecmin, .-AsebaNative_vecmin
 2548              		.section	.rodata.AsebaNative_vecmax.cst4,"aM",%progbits,4
 2549              		.align	2
 2550              	.LC14:
 2551 0000 00000000 		.word	__stack_chk_guard
 2552              		.section	.text.AsebaNative_vecmax,"ax",%progbits
 2553              		.align	1
 2554              		.p2align 4,,15
 2555              		.global	AsebaNative_vecmax
 2556              		.syntax unified
 2557              		.thumb
 2558              		.thumb_func
 2559              		.fpu fpv4-sp-d16
 2560              		.type	AsebaNative_vecmax, %function
 2561              	AsebaNative_vecmax:
 2562              	.LVL216:
 2563              	.LFB14:
 2564              		.loc 1 543 1 is_stmt 1 view -0
 2565              		.cfi_startproc
ARM GAS  /tmp/cchqCFfA.s 			page 46


 2566              		@ args = 0, pretend = 0, frame = 8
 2567              		@ frame_needed = 0, uses_anonymous_args = 0
 2568              		.loc 1 543 1 is_stmt 0 view .LVU667
 2569 0000 F0B5     		push	{r4, r5, r6, r7, lr}
 2570              		.cfi_def_cfa_offset 20
 2571              		.cfi_offset 4, -20
 2572              		.cfi_offset 5, -16
 2573              		.cfi_offset 6, -12
 2574              		.cfi_offset 7, -8
 2575              		.cfi_offset 14, -4
 2576              	.LBB385:
 2577              	.LBB386:
 2578              		.loc 2 90 21 view .LVU668
 2579 0002 B0F91C60 		ldrsh	r6, [r0, #28]
 2580              	.LBE386:
 2581              	.LBE385:
 2582              		.loc 1 543 1 view .LVU669
 2583 0006 1D4B     		ldr	r3, .L199
 2584              		.loc 1 545 16 view .LVU670
 2585 0008 4169     		ldr	r1, [r0, #20]
 2586              	.LBB390:
 2587              	.LBB387:
 2588              		.loc 2 90 25 view .LVU671
 2589 000a B2B2     		uxth	r2, r6
 2590              	.LBE387:
 2591              	.LBE390:
 2592              		.loc 1 543 1 view .LVU672
 2593 000c 83B0     		sub	sp, sp, #12
 2594              		.cfi_def_cfa_offset 32
 2595              		.loc 1 543 1 view .LVU673
 2596 000e 1B68     		ldr	r3, [r3]
 2597 0010 0193     		str	r3, [sp, #4]
 2598 0012 4FF00003 		mov	r3,#0
 2599              		.loc 1 545 2 is_stmt 1 view .LVU674
 2600              	.LBB391:
 2601              	.LBI385:
 2602              		.loc 2 88 22 view .LVU675
 2603              	.LVL217:
 2604              	.LBB388:
 2605              		.loc 2 90 2 view .LVU676
 2606              		.loc 2 90 25 is_stmt 0 view .LVU677
 2607 0016 531E     		subs	r3, r2, #1
 2608 0018 1BB2     		sxth	r3, r3
 2609              	.LBE388:
 2610              	.LBE391:
 2611              	.LBB392:
 2612              	.LBB393:
 2613 001a 951E     		subs	r5, r2, #2
 2614              	.LBE393:
 2615              	.LBE392:
 2616              	.LBB396:
 2617              	.LBB389:
 2618 001c 8383     		strh	r3, [r0, #28]	@ movhi
 2619              	.LBE389:
 2620              	.LBE396:
 2621              	.LBB397:
 2622              	.LBB394:
ARM GAS  /tmp/cchqCFfA.s 			page 47


 2623 001e 2DB2     		sxth	r5, r5
 2624              	.LBE394:
 2625              	.LBE397:
 2626              	.LBB398:
 2627              	.LBB399:
 2628 0020 D41E     		subs	r4, r2, #3
 2629              	.LBE399:
 2630              	.LBE398:
 2631              		.loc 1 545 9 view .LVU678
 2632 0022 31F81670 		ldrh	r7, [r1, r6, lsl #1]
 2633              	.LVL218:
 2634              		.loc 1 546 2 is_stmt 1 view .LVU679
 2635              	.LBB402:
 2636              	.LBI392:
 2637              		.loc 2 88 22 view .LVU680
 2638              	.LBB395:
 2639              		.loc 2 90 2 view .LVU681
 2640              		.loc 2 90 25 is_stmt 0 view .LVU682
 2641 0026 8583     		strh	r5, [r0, #28]	@ movhi
 2642              	.LBE395:
 2643              	.LBE402:
 2644              	.LBB403:
 2645              	.LBB400:
 2646 0028 24B2     		sxth	r4, r4
 2647              	.LBE400:
 2648              	.LBE403:
 2649              		.loc 1 546 9 view .LVU683
 2650 002a 31F81330 		ldrh	r3, [r1, r3, lsl #1]
 2651              	.LVL219:
 2652              		.loc 1 547 2 is_stmt 1 view .LVU684
 2653              	.LBB404:
 2654              	.LBI398:
 2655              		.loc 2 88 22 view .LVU685
 2656              	.LBB401:
 2657              		.loc 2 90 2 view .LVU686
 2658              		.loc 2 90 25 is_stmt 0 view .LVU687
 2659 002e 8483     		strh	r4, [r0, #28]	@ movhi
 2660              	.LBE401:
 2661              	.LBE404:
 2662              	.LBB405:
 2663              	.LBB406:
 2664 0030 043A     		subs	r2, r2, #4
 2665              	.LBE406:
 2666              	.LBE405:
 2667              		.loc 1 547 9 view .LVU688
 2668 0032 31F81560 		ldrh	r6, [r1, r5, lsl #1]
 2669              	.LVL220:
 2670              		.loc 1 550 2 is_stmt 1 view .LVU689
 2671              	.LBB408:
 2672              	.LBI405:
 2673              		.loc 2 88 22 view .LVU690
 2674              	.LBB407:
 2675              		.loc 2 90 2 view .LVU691
 2676              		.loc 2 90 25 is_stmt 0 view .LVU692
 2677 0036 8283     		strh	r2, [r0, #28]	@ movhi
 2678              	.LBE407:
 2679              	.LBE408:
ARM GAS  /tmp/cchqCFfA.s 			page 48


 2680              		.loc 1 550 9 view .LVU693
 2681 0038 31F81450 		ldrh	r5, [r1, r4, lsl #1]
 2682              	.LVL221:
 2683              		.loc 1 552 2 is_stmt 1 view .LVU694
 2684              		.loc 1 553 2 view .LVU695
 2685              		.loc 1 553 14 view .LVU696
 2686              		.loc 1 553 2 is_stmt 0 view .LVU697
 2687 003c ADB1     		cbz	r5, .L189
 2688 003e 1D44     		add	r5, r5, r3
 2689              	.LVL222:
 2690              		.loc 1 553 2 view .LVU698
 2691 0040 ADB2     		uxth	r5, r5
 2692 0042 FF1A     		subs	r7, r7, r3
 2693              	.LVL223:
 2694              		.loc 1 553 2 view .LVU699
 2695 0044 F61A     		subs	r6, r6, r3
 2696              	.LVL224:
 2697              	.L191:
 2698              		.loc 1 553 2 view .LVU700
 2699 0046 9919     		adds	r1, r3, r6
 2700              	.LBB409:
 2701              		.loc 1 555 17 discriminator 3 view .LVU701
 2702 0048 C268     		ldr	r2, [r0, #12]
 2703 004a 89B2     		uxth	r1, r1
 2704              	.LVL225:
 2705              		.loc 1 557 10 discriminator 3 view .LVU702
 2706 004c 32F91340 		ldrsh	r4, [r2, r3, lsl #1]
 2707 0050 32F911C0 		ldrsh	ip, [r2, r1, lsl #1]
 2708 0054 D919     		adds	r1, r3, r7
 2709              	.LVL226:
 2710              		.loc 1 555 33 discriminator 3 view .LVU703
 2711 0056 0133     		adds	r3, r3, #1
 2712              	.LVL227:
 2713              		.loc 1 557 10 discriminator 3 view .LVU704
 2714 0058 6445     		cmp	r4, ip
 2715 005a 89B2     		uxth	r1, r1
 2716              	.LVL228:
 2717              		.loc 1 555 3 is_stmt 1 discriminator 3 view .LVU705
 2718              		.loc 1 555 33 is_stmt 0 discriminator 3 view .LVU706
 2719 005c 9BB2     		uxth	r3, r3
 2720              	.LVL229:
 2721              		.loc 1 556 3 is_stmt 1 discriminator 3 view .LVU707
 2722              		.loc 1 557 3 discriminator 3 view .LVU708
 2723              		.loc 1 558 3 discriminator 3 view .LVU709
 2724              		.loc 1 557 10 is_stmt 0 discriminator 3 view .LVU710
 2725 005e B8BF     		it	lt
 2726 0060 6446     		movlt	r4, ip
 2727              	.LBE409:
 2728              		.loc 1 553 2 discriminator 3 view .LVU711
 2729 0062 AB42     		cmp	r3, r5
 2730              	.LBB410:
 2731              		.loc 1 558 25 discriminator 3 view .LVU712
 2732 0064 22F81140 		strh	r4, [r2, r1, lsl #1]	@ movhi
 2733              		.loc 1 558 25 discriminator 3 view .LVU713
 2734              	.LBE410:
 2735              		.loc 1 553 26 is_stmt 1 discriminator 3 view .LVU714
 2736              		.loc 1 553 14 discriminator 3 view .LVU715
ARM GAS  /tmp/cchqCFfA.s 			page 49


 2737              		.loc 1 553 2 is_stmt 0 discriminator 3 view .LVU716
 2738 0068 EDD1     		bne	.L191
 2739              	.L189:
 2740              		.loc 1 560 1 view .LVU717
 2741 006a 044B     		ldr	r3, .L199
 2742              	.LVL230:
 2743              		.loc 1 560 1 view .LVU718
 2744 006c 1A68     		ldr	r2, [r3]
 2745 006e 019B     		ldr	r3, [sp, #4]
 2746 0070 5A40     		eors	r2, r3, r2
 2747 0072 01D1     		bne	.L198
 2748 0074 03B0     		add	sp, sp, #12
 2749              		.cfi_remember_state
 2750              		.cfi_def_cfa_offset 20
 2751              		@ sp needed
 2752 0076 F0BD     		pop	{r4, r5, r6, r7, pc}
 2753              	.L198:
 2754              		.cfi_restore_state
 2755 0078 FFF7FEFF 		bl	__stack_chk_fail
 2756              	.LVL231:
 2757              	.L200:
 2758              		.loc 1 560 1 view .LVU719
 2759              		.align	2
 2760              	.L199:
 2761 007c 00000000 		.word	.LC14
 2762              		.cfi_endproc
 2763              	.LFE14:
 2764              		.size	AsebaNative_vecmax, .-AsebaNative_vecmax
 2765              		.section	.rodata.AsebaNative_vecclamp.cst4,"aM",%progbits,4
 2766              		.align	2
 2767              	.LC15:
 2768 0000 00000000 		.word	__stack_chk_guard
 2769              		.section	.text.AsebaNative_vecclamp,"ax",%progbits
 2770              		.align	1
 2771              		.p2align 4,,15
 2772              		.global	AsebaNative_vecclamp
 2773              		.syntax unified
 2774              		.thumb
 2775              		.thumb_func
 2776              		.fpu fpv4-sp-d16
 2777              		.type	AsebaNative_vecclamp, %function
 2778              	AsebaNative_vecclamp:
 2779              	.LVL232:
 2780              	.LFB15:
 2781              		.loc 1 575 1 is_stmt 1 view -0
 2782              		.cfi_startproc
 2783              		@ args = 0, pretend = 0, frame = 8
 2784              		@ frame_needed = 0, uses_anonymous_args = 0
 2785              		.loc 1 575 1 is_stmt 0 view .LVU721
 2786 0000 2DE9F041 		push	{r4, r5, r6, r7, r8, lr}
 2787              		.cfi_def_cfa_offset 24
 2788              		.cfi_offset 4, -24
 2789              		.cfi_offset 5, -20
 2790              		.cfi_offset 6, -16
 2791              		.cfi_offset 7, -12
 2792              		.cfi_offset 8, -8
 2793              		.cfi_offset 14, -4
ARM GAS  /tmp/cchqCFfA.s 			page 50


 2794              	.LBB411:
 2795              	.LBB412:
 2796              		.loc 2 90 21 view .LVU722
 2797 0004 B0F91C40 		ldrsh	r4, [r0, #28]
 2798              	.LBE412:
 2799              	.LBE411:
 2800              		.loc 1 575 1 view .LVU723
 2801 0008 274B     		ldr	r3, .L212
 2802              		.loc 1 577 16 view .LVU724
 2803 000a 4169     		ldr	r1, [r0, #20]
 2804              	.LBB416:
 2805              	.LBB413:
 2806              		.loc 2 90 25 view .LVU725
 2807 000c A2B2     		uxth	r2, r4
 2808              	.LBE413:
 2809              	.LBE416:
 2810              		.loc 1 575 1 view .LVU726
 2811 000e 82B0     		sub	sp, sp, #8
 2812              		.cfi_def_cfa_offset 32
 2813              		.loc 1 575 1 view .LVU727
 2814 0010 1B68     		ldr	r3, [r3]
 2815 0012 0193     		str	r3, [sp, #4]
 2816 0014 4FF00003 		mov	r3,#0
 2817              		.loc 1 577 2 is_stmt 1 view .LVU728
 2818              	.LBB417:
 2819              	.LBI411:
 2820              		.loc 2 88 22 view .LVU729
 2821              	.LVL233:
 2822              	.LBB414:
 2823              		.loc 2 90 2 view .LVU730
 2824              		.loc 2 90 25 is_stmt 0 view .LVU731
 2825 0018 531E     		subs	r3, r2, #1
 2826 001a 1BB2     		sxth	r3, r3
 2827              	.LBE414:
 2828              	.LBE417:
 2829              	.LBB418:
 2830              	.LBB419:
 2831 001c 961E     		subs	r6, r2, #2
 2832              	.LBE419:
 2833              	.LBE418:
 2834              	.LBB422:
 2835              	.LBB415:
 2836 001e 8383     		strh	r3, [r0, #28]	@ movhi
 2837              	.LBE415:
 2838              	.LBE422:
 2839              	.LBB423:
 2840              	.LBB420:
 2841 0020 36B2     		sxth	r6, r6
 2842              	.LBE420:
 2843              	.LBE423:
 2844              	.LBB424:
 2845              	.LBB425:
 2846 0022 D51E     		subs	r5, r2, #3
 2847              	.LBE425:
 2848              	.LBE424:
 2849              		.loc 1 577 9 view .LVU732
 2850 0024 31F81480 		ldrh	r8, [r1, r4, lsl #1]
ARM GAS  /tmp/cchqCFfA.s 			page 51


 2851              	.LVL234:
 2852              		.loc 1 578 2 is_stmt 1 view .LVU733
 2853              	.LBB428:
 2854              	.LBI418:
 2855              		.loc 2 88 22 view .LVU734
 2856              	.LBB421:
 2857              		.loc 2 90 2 view .LVU735
 2858              		.loc 2 90 25 is_stmt 0 view .LVU736
 2859 0028 8683     		strh	r6, [r0, #28]	@ movhi
 2860              	.LBE421:
 2861              	.LBE428:
 2862              	.LBB429:
 2863              	.LBB426:
 2864 002a 2DB2     		sxth	r5, r5
 2865              	.LBE426:
 2866              	.LBE429:
 2867              	.LBB430:
 2868              	.LBB431:
 2869 002c 141F     		subs	r4, r2, #4
 2870              	.LBE431:
 2871              	.LBE430:
 2872              		.loc 1 578 9 view .LVU737
 2873 002e 31F81330 		ldrh	r3, [r1, r3, lsl #1]
 2874              	.LVL235:
 2875              		.loc 1 579 2 is_stmt 1 view .LVU738
 2876              	.LBB434:
 2877              	.LBI424:
 2878              		.loc 2 88 22 view .LVU739
 2879              	.LBB427:
 2880              		.loc 2 90 2 view .LVU740
 2881              		.loc 2 90 25 is_stmt 0 view .LVU741
 2882 0032 8583     		strh	r5, [r0, #28]	@ movhi
 2883              	.LBE427:
 2884              	.LBE434:
 2885              	.LBB435:
 2886              	.LBB432:
 2887 0034 24B2     		sxth	r4, r4
 2888              	.LBE432:
 2889              	.LBE435:
 2890              		.loc 1 579 9 view .LVU742
 2891 0036 31F816C0 		ldrh	ip, [r1, r6, lsl #1]
 2892              	.LVL236:
 2893              		.loc 1 580 2 is_stmt 1 view .LVU743
 2894              	.LBB436:
 2895              	.LBI430:
 2896              		.loc 2 88 22 view .LVU744
 2897              	.LBB433:
 2898              		.loc 2 90 2 view .LVU745
 2899              		.loc 2 90 25 is_stmt 0 view .LVU746
 2900 003a 8483     		strh	r4, [r0, #28]	@ movhi
 2901              	.LBE433:
 2902              	.LBE436:
 2903              	.LBB437:
 2904              	.LBB438:
 2905 003c 053A     		subs	r2, r2, #5
 2906              	.LBE438:
 2907              	.LBE437:
ARM GAS  /tmp/cchqCFfA.s 			page 52


 2908              		.loc 1 580 9 view .LVU747
 2909 003e 31F815E0 		ldrh	lr, [r1, r5, lsl #1]
 2910              	.LVL237:
 2911              		.loc 1 583 2 is_stmt 1 view .LVU748
 2912              	.LBB440:
 2913              	.LBI437:
 2914              		.loc 2 88 22 view .LVU749
 2915              	.LBB439:
 2916              		.loc 2 90 2 view .LVU750
 2917              		.loc 2 90 25 is_stmt 0 view .LVU751
 2918 0042 8283     		strh	r2, [r0, #28]	@ movhi
 2919              	.LBE439:
 2920              	.LBE440:
 2921              		.loc 1 583 9 view .LVU752
 2922 0044 31F81470 		ldrh	r7, [r1, r4, lsl #1]
 2923              	.LVL238:
 2924              		.loc 1 585 2 is_stmt 1 view .LVU753
 2925              		.loc 1 586 2 view .LVU754
 2926              		.loc 1 586 14 view .LVU755
 2927              		.loc 1 586 2 is_stmt 0 view .LVU756
 2928 0048 27B3     		cbz	r7, .L201
 2929 004a 1F44     		add	r7, r7, r3
 2930              	.LVL239:
 2931              		.loc 1 586 2 view .LVU757
 2932 004c BFB2     		uxth	r7, r7
 2933 004e A8EB0308 		sub	r8, r8, r3
 2934              	.LVL240:
 2935              		.loc 1 586 2 view .LVU758
 2936 0052 AEEB030E 		sub	lr, lr, r3
 2937              	.LVL241:
 2938              		.loc 1 586 2 view .LVU759
 2939 0056 ACEB030C 		sub	ip, ip, r3
 2940              	.LVL242:
 2941              	.L204:
 2942              		.loc 1 586 2 view .LVU760
 2943 005a 03EB0E01 		add	r1, r3, lr
 2944              	.LBB441:
 2945              		.loc 1 588 16 view .LVU761
 2946 005e C268     		ldr	r2, [r0, #12]
 2947 0060 89B2     		uxth	r1, r1
 2948              		.loc 1 588 10 view .LVU762
 2949 0062 32F91360 		ldrsh	r6, [r2, r3, lsl #1]
 2950              		.loc 1 590 10 view .LVU763
 2951 0066 32F91150 		ldrsh	r5, [r2, r1, lsl #1]
 2952 006a 03EB0C04 		add	r4, r3, ip
 2953 006e A4B2     		uxth	r4, r4
 2954              	.LVL243:
 2955              		.loc 1 590 10 view .LVU764
 2956 0070 03EB0801 		add	r1, r3, r8
 2957              	.LVL244:
 2958              		.loc 1 591 10 view .LVU765
 2959 0074 AE42     		cmp	r6, r5
 2960              		.loc 1 588 31 view .LVU766
 2961 0076 03F10103 		add	r3, r3, #1
 2962              	.LVL245:
 2963              		.loc 1 589 10 view .LVU767
 2964 007a 32F91440 		ldrsh	r4, [r2, r4, lsl #1]
ARM GAS  /tmp/cchqCFfA.s 			page 53


 2965              	.LVL246:
 2966              		.loc 1 589 10 view .LVU768
 2967 007e 89B2     		uxth	r1, r1
 2968              	.LVL247:
 2969              		.loc 1 588 3 is_stmt 1 view .LVU769
 2970              		.loc 1 588 31 is_stmt 0 view .LVU770
 2971 0080 9BB2     		uxth	r3, r3
 2972              	.LVL248:
 2973              		.loc 1 589 3 is_stmt 1 view .LVU771
 2974              		.loc 1 590 3 view .LVU772
 2975              		.loc 1 591 3 view .LVU773
 2976              		.loc 1 591 10 is_stmt 0 view .LVU774
 2977 0082 03DC     		bgt	.L203
 2978              		.loc 1 591 10 discriminator 1 view .LVU775
 2979 0084 A642     		cmp	r6, r4
 2980 0086 3546     		mov	r5, r6
 2981              	.LVL249:
 2982              		.loc 1 591 10 discriminator 1 view .LVU776
 2983 0088 B8BF     		it	lt
 2984 008a 2546     		movlt	r5, r4
 2985              	.L203:
 2986              	.LVL250:
 2987              		.loc 1 592 3 is_stmt 1 discriminator 4 view .LVU777
 2988              		.loc 1 592 3 is_stmt 0 discriminator 4 view .LVU778
 2989              	.LBE441:
 2990              		.loc 1 586 2 discriminator 4 view .LVU779
 2991 008c BB42     		cmp	r3, r7
 2992              	.LBB442:
 2993              		.loc 1 592 25 discriminator 4 view .LVU780
 2994 008e 22F81150 		strh	r5, [r2, r1, lsl #1]	@ movhi
 2995              		.loc 1 592 25 discriminator 4 view .LVU781
 2996              	.LBE442:
 2997              		.loc 1 586 26 is_stmt 1 discriminator 4 view .LVU782
 2998              		.loc 1 586 14 discriminator 4 view .LVU783
 2999              		.loc 1 586 2 is_stmt 0 discriminator 4 view .LVU784
 3000 0092 E2D1     		bne	.L204
 3001              	.LVL251:
 3002              	.L201:
 3003              		.loc 1 594 1 view .LVU785
 3004 0094 044B     		ldr	r3, .L212
 3005              	.LVL252:
 3006              		.loc 1 594 1 view .LVU786
 3007 0096 1A68     		ldr	r2, [r3]
 3008 0098 019B     		ldr	r3, [sp, #4]
 3009 009a 5A40     		eors	r2, r3, r2
 3010 009c 02D1     		bne	.L211
 3011 009e 02B0     		add	sp, sp, #8
 3012              		.cfi_remember_state
 3013              		.cfi_def_cfa_offset 24
 3014              		@ sp needed
 3015 00a0 BDE8F081 		pop	{r4, r5, r6, r7, r8, pc}
 3016              	.L211:
 3017              		.cfi_restore_state
 3018 00a4 FFF7FEFF 		bl	__stack_chk_fail
 3019              	.LVL253:
 3020              	.L213:
 3021              		.loc 1 594 1 view .LVU787
ARM GAS  /tmp/cchqCFfA.s 			page 54


 3022              		.align	2
 3023              	.L212:
 3024 00a8 00000000 		.word	.LC15
 3025              		.cfi_endproc
 3026              	.LFE15:
 3027              		.size	AsebaNative_vecclamp, .-AsebaNative_vecclamp
 3028              		.section	.rodata.AsebaNative_vecdot.cst4,"aM",%progbits,4
 3029              		.align	2
 3030              	.LC16:
 3031 0000 00000000 		.word	__stack_chk_guard
 3032              		.section	.text.AsebaNative_vecdot,"ax",%progbits
 3033              		.align	1
 3034              		.p2align 4,,15
 3035              		.global	AsebaNative_vecdot
 3036              		.syntax unified
 3037              		.thumb
 3038              		.thumb_func
 3039              		.fpu fpv4-sp-d16
 3040              		.type	AsebaNative_vecdot, %function
 3041              	AsebaNative_vecdot:
 3042              	.LVL254:
 3043              	.LFB16:
 3044              		.loc 1 610 1 is_stmt 1 view -0
 3045              		.cfi_startproc
 3046              		@ args = 0, pretend = 0, frame = 8
 3047              		@ frame_needed = 0, uses_anonymous_args = 0
 3048              		.loc 1 610 1 is_stmt 0 view .LVU789
 3049 0000 F0B5     		push	{r4, r5, r6, r7, lr}
 3050              		.cfi_def_cfa_offset 20
 3051              		.cfi_offset 4, -20
 3052              		.cfi_offset 5, -16
 3053              		.cfi_offset 6, -12
 3054              		.cfi_offset 7, -8
 3055              		.cfi_offset 14, -4
 3056              	.LBB443:
 3057              	.LBB444:
 3058              		.loc 2 90 21 view .LVU790
 3059 0002 B0F91C50 		ldrsh	r5, [r0, #28]
 3060              	.LBE444:
 3061              	.LBE443:
 3062              		.loc 1 610 1 view .LVU791
 3063 0006 274B     		ldr	r3, .L224
 3064              		.loc 1 612 16 view .LVU792
 3065 0008 4169     		ldr	r1, [r0, #20]
 3066              		.loc 1 615 19 view .LVU793
 3067 000a C468     		ldr	r4, [r0, #12]
 3068              	.LBB448:
 3069              	.LBB445:
 3070              		.loc 2 90 25 view .LVU794
 3071 000c AAB2     		uxth	r2, r5
 3072              	.LBE445:
 3073              	.LBE448:
 3074              		.loc 1 610 1 view .LVU795
 3075 000e 83B0     		sub	sp, sp, #12
 3076              		.cfi_def_cfa_offset 32
 3077              		.loc 1 610 1 view .LVU796
 3078 0010 1B68     		ldr	r3, [r3]
ARM GAS  /tmp/cchqCFfA.s 			page 55


 3079 0012 0193     		str	r3, [sp, #4]
 3080 0014 4FF00003 		mov	r3,#0
 3081              		.loc 1 612 2 is_stmt 1 view .LVU797
 3082              	.LBB449:
 3083              	.LBI443:
 3084              		.loc 2 88 22 view .LVU798
 3085              	.LVL255:
 3086              	.LBB446:
 3087              		.loc 2 90 2 view .LVU799
 3088              		.loc 2 90 25 is_stmt 0 view .LVU800
 3089 0018 531E     		subs	r3, r2, #1
 3090 001a 1BB2     		sxth	r3, r3
 3091              	.LBE446:
 3092              	.LBE449:
 3093              	.LBB450:
 3094              	.LBB451:
 3095 001c 971E     		subs	r7, r2, #2
 3096              	.LBE451:
 3097              	.LBE450:
 3098              	.LBB455:
 3099              	.LBB447:
 3100 001e 8383     		strh	r3, [r0, #28]	@ movhi
 3101              	.LBE447:
 3102              	.LBE455:
 3103              	.LBB456:
 3104              	.LBB452:
 3105 0020 3FB2     		sxth	r7, r7
 3106              	.LBE452:
 3107              	.LBE456:
 3108              	.LBB457:
 3109              	.LBB458:
 3110 0022 D61E     		subs	r6, r2, #3
 3111              	.LBE458:
 3112              	.LBE457:
 3113              		.loc 1 612 9 view .LVU801
 3114 0024 31F81550 		ldrh	r5, [r1, r5, lsl #1]
 3115              	.LVL256:
 3116              		.loc 1 613 2 is_stmt 1 view .LVU802
 3117              	.LBB462:
 3118              	.LBI450:
 3119              		.loc 2 88 22 view .LVU803
 3120              	.LBB453:
 3121              		.loc 2 90 2 view .LVU804
 3122              		.loc 2 90 25 is_stmt 0 view .LVU805
 3123 0028 8783     		strh	r7, [r0, #28]	@ movhi
 3124              	.LBE453:
 3125              	.LBE462:
 3126              	.LBB463:
 3127              	.LBB459:
 3128 002a 36B2     		sxth	r6, r6
 3129              	.LBE459:
 3130              	.LBE463:
 3131              	.LBB464:
 3132              	.LBB465:
 3133 002c A2F1040E 		sub	lr, r2, #4
 3134              	.LBE465:
 3135              	.LBE464:
ARM GAS  /tmp/cchqCFfA.s 			page 56


 3136              	.LBB468:
 3137              	.LBB454:
 3138              		.loc 2 90 18 view .LVU806
 3139 0030 31F91330 		ldrsh	r3, [r1, r3, lsl #1]
 3140              	.LVL257:
 3141              		.loc 2 90 18 view .LVU807
 3142              	.LBE454:
 3143              	.LBE468:
 3144              		.loc 1 614 2 is_stmt 1 view .LVU808
 3145              	.LBB469:
 3146              	.LBI457:
 3147              		.loc 2 88 22 view .LVU809
 3148              	.LBB460:
 3149              		.loc 2 90 2 view .LVU810
 3150              		.loc 2 90 25 is_stmt 0 view .LVU811
 3151 0034 8683     		strh	r6, [r0, #28]	@ movhi
 3152              	.LBE460:
 3153              	.LBE469:
 3154              	.LBB470:
 3155              	.LBB466:
 3156 0036 0FFA8EFE 		sxth	lr, lr
 3157              	.LBE466:
 3158              	.LBE470:
 3159              	.LBB471:
 3160              	.LBB461:
 3161              		.loc 2 90 18 view .LVU812
 3162 003a 31F917C0 		ldrsh	ip, [r1, r7, lsl #1]
 3163              	.LVL258:
 3164              		.loc 2 90 18 view .LVU813
 3165              	.LBE461:
 3166              	.LBE471:
 3167              		.loc 1 615 2 is_stmt 1 view .LVU814
 3168              	.LBB472:
 3169              	.LBI464:
 3170              		.loc 2 88 22 view .LVU815
 3171              	.LBB467:
 3172              		.loc 2 90 2 view .LVU816
 3173              		.loc 2 90 25 is_stmt 0 view .LVU817
 3174 003e A0F81CE0 		strh	lr, [r0, #28]	@ movhi
 3175              	.LBE467:
 3176              	.LBE472:
 3177              		.loc 1 615 30 view .LVU818
 3178 0042 31F91660 		ldrsh	r6, [r1, r6, lsl #1]
 3179              		.loc 1 615 9 view .LVU819
 3180 0046 34F91660 		ldrsh	r6, [r4, r6, lsl #1]
 3181              	.LVL259:
 3182              		.loc 1 618 2 is_stmt 1 view .LVU820
 3183              	.LBB473:
 3184              	.LBI473:
 3185              		.loc 2 88 22 view .LVU821
 3186              	.LBB474:
 3187              		.loc 2 90 2 view .LVU822
 3188              		.loc 2 90 25 is_stmt 0 view .LVU823
 3189 004a 053A     		subs	r2, r2, #5
 3190              	.LBE474:
 3191              	.LBE473:
 3192              		.loc 1 622 4 view .LVU824
ARM GAS  /tmp/cchqCFfA.s 			page 57


 3193 004c 202E     		cmp	r6, #32
 3194              	.LBB476:
 3195              	.LBB475:
 3196              		.loc 2 90 25 view .LVU825
 3197 004e 8283     		strh	r2, [r0, #28]	@ movhi
 3198              	.LVL260:
 3199              		.loc 2 90 25 view .LVU826
 3200              	.LBE475:
 3201              	.LBE476:
 3202              		.loc 1 619 2 is_stmt 1 view .LVU827
 3203              		.loc 1 620 2 view .LVU828
 3204              		.loc 1 622 2 view .LVU829
 3205              		.loc 1 622 4 is_stmt 0 view .LVU830
 3206 0050 22DC     		bgt	.L215
 3207              		.loc 1 618 9 view .LVU831
 3208 0052 31F81E10 		ldrh	r1, [r1, lr, lsl #1]
 3209              	.LVL261:
 3210              		.loc 1 662 14 is_stmt 1 view .LVU832
 3211              		.loc 1 662 2 is_stmt 0 view .LVU833
 3212 0056 B1B1     		cbz	r1, .L217
 3213              		.loc 1 613 9 view .LVU834
 3214 0058 9BB2     		uxth	r3, r3
 3215              	.LVL262:
 3216              		.loc 1 613 9 view .LVU835
 3217 005a 1944     		add	r1, r1, r3
 3218              		.loc 1 614 9 view .LVU836
 3219 005c 1FFA8CFC 		uxth	ip, ip
 3220              	.LVL263:
 3221              		.loc 1 614 9 view .LVU837
 3222 0060 8FB2     		uxth	r7, r1
 3223 0062 ACEB030C 		sub	ip, ip, r3
 3224              		.loc 1 619 9 view .LVU838
 3225 0066 0021     		movs	r1, #0
 3226              	.LVL264:
 3227              	.L219:
 3228              		.loc 1 619 9 view .LVU839
 3229 0068 03EB0C02 		add	r2, r3, ip
 3230 006c 92B2     		uxth	r2, r2
 3231              	.LVL265:
 3232              		.loc 1 664 3 is_stmt 1 discriminator 3 view .LVU840
 3233              		.loc 1 664 7 is_stmt 0 discriminator 3 view .LVU841
 3234 006e 34F81300 		ldrh	r0, [r4, r3, lsl #1]
 3235 0072 34F81220 		ldrh	r2, [r4, r2, lsl #1]
 3236              	.LVL266:
 3237              		.loc 1 664 36 discriminator 3 view .LVU842
 3238 0076 0133     		adds	r3, r3, #1
 3239              	.LVL267:
 3240              		.loc 1 664 36 discriminator 3 view .LVU843
 3241 0078 9BB2     		uxth	r3, r3
 3242              	.LVL268:
 3243              		.loc 1 662 2 discriminator 3 view .LVU844
 3244 007a BB42     		cmp	r3, r7
 3245              		.loc 1 664 7 discriminator 3 view .LVU845
 3246 007c 10FB0211 		smlabb	r1, r0, r2, r1
 3247              	.LVL269:
 3248              		.loc 1 662 26 is_stmt 1 discriminator 3 view .LVU846
 3249              		.loc 1 662 14 discriminator 3 view .LVU847
ARM GAS  /tmp/cchqCFfA.s 			page 58


 3250              		.loc 1 662 2 is_stmt 0 discriminator 3 view .LVU848
 3251 0080 F2D1     		bne	.L219
 3252 0082 3141     		asrs	r1, r1, r6
 3253              	.LVL270:
 3254              		.loc 1 662 2 discriminator 3 view .LVU849
 3255 0084 09B2     		sxth	r1, r1
 3256              	.LVL271:
 3257              	.L217:
 3258              		.loc 1 666 2 is_stmt 1 view .LVU850
 3259              		.loc 1 667 2 view .LVU851
 3260              		.loc 1 667 22 is_stmt 0 view .LVU852
 3261 0086 24F81510 		strh	r1, [r4, r5, lsl #1]	@ movhi
 3262              	.LVL272:
 3263              	.L214:
 3264              		.loc 1 669 1 view .LVU853
 3265 008a 064B     		ldr	r3, .L224
 3266 008c 1A68     		ldr	r2, [r3]
 3267 008e 019B     		ldr	r3, [sp, #4]
 3268 0090 5A40     		eors	r2, r3, r2
 3269 0092 05D1     		bne	.L223
 3270 0094 03B0     		add	sp, sp, #12
 3271              		.cfi_remember_state
 3272              		.cfi_def_cfa_offset 20
 3273              		@ sp needed
 3274 0096 F0BD     		pop	{r4, r5, r6, r7, pc}
 3275              	.LVL273:
 3276              	.L215:
 3277              		.cfi_restore_state
 3278              		.loc 1 623 3 is_stmt 1 view .LVU854
 3279              		.loc 1 623 23 is_stmt 0 view .LVU855
 3280 0098 0023     		movs	r3, #0
 3281              	.LVL274:
 3282              		.loc 1 623 23 view .LVU856
 3283 009a 24F81530 		strh	r3, [r4, r5, lsl #1]	@ movhi
 3284              	.LVL275:
 3285              		.loc 1 624 3 is_stmt 1 view .LVU857
 3286 009e F4E7     		b	.L214
 3287              	.LVL276:
 3288              	.L223:
 3289              		.loc 1 669 1 is_stmt 0 view .LVU858
 3290 00a0 FFF7FEFF 		bl	__stack_chk_fail
 3291              	.LVL277:
 3292              	.L225:
 3293              		.align	2
 3294              	.L224:
 3295 00a4 00000000 		.word	.LC16
 3296              		.cfi_endproc
 3297              	.LFE16:
 3298              		.size	AsebaNative_vecdot, .-AsebaNative_vecdot
 3299              		.section	.rodata.AsebaNative_vecstat.cst4,"aM",%progbits,4
 3300              		.align	2
 3301              	.LC17:
 3302 0000 00000000 		.word	__stack_chk_guard
 3303              		.section	.text.AsebaNative_vecstat,"ax",%progbits
 3304              		.align	1
 3305              		.p2align 4,,15
 3306              		.global	AsebaNative_vecstat
ARM GAS  /tmp/cchqCFfA.s 			page 59


 3307              		.syntax unified
 3308              		.thumb
 3309              		.thumb_func
 3310              		.fpu fpv4-sp-d16
 3311              		.type	AsebaNative_vecstat, %function
 3312              	AsebaNative_vecstat:
 3313              	.LVL278:
 3314              	.LFB17:
 3315              		.loc 1 686 1 is_stmt 1 view -0
 3316              		.cfi_startproc
 3317              		@ args = 0, pretend = 0, frame = 8
 3318              		@ frame_needed = 0, uses_anonymous_args = 0
 3319              		.loc 1 686 1 is_stmt 0 view .LVU860
 3320 0000 2DE9F041 		push	{r4, r5, r6, r7, r8, lr}
 3321              		.cfi_def_cfa_offset 24
 3322              		.cfi_offset 4, -24
 3323              		.cfi_offset 5, -20
 3324              		.cfi_offset 6, -16
 3325              		.cfi_offset 7, -12
 3326              		.cfi_offset 8, -8
 3327              		.cfi_offset 14, -4
 3328              	.LBB477:
 3329              	.LBB478:
 3330              		.loc 2 90 21 view .LVU861
 3331 0004 B0F91C10 		ldrsh	r1, [r0, #28]
 3332              	.LBE478:
 3333              	.LBE477:
 3334              		.loc 1 686 1 view .LVU862
 3335 0008 304B     		ldr	r3, .L240
 3336              		.loc 1 688 15 view .LVU863
 3337 000a 4269     		ldr	r2, [r0, #20]
 3338              		.loc 1 686 1 view .LVU864
 3339 000c 82B0     		sub	sp, sp, #8
 3340              		.cfi_def_cfa_offset 32
 3341              		.loc 1 686 1 view .LVU865
 3342 000e 1B68     		ldr	r3, [r3]
 3343 0010 0193     		str	r3, [sp, #4]
 3344 0012 4FF00003 		mov	r3,#0
 3345              		.loc 1 688 2 is_stmt 1 view .LVU866
 3346              	.LBB482:
 3347              	.LBI477:
 3348              		.loc 2 88 22 view .LVU867
 3349              	.LVL279:
 3350              	.LBB479:
 3351              		.loc 2 90 2 view .LVU868
 3352              		.loc 2 90 25 is_stmt 0 view .LVU869
 3353 0016 8BB2     		uxth	r3, r1
 3354 0018 5D1E     		subs	r5, r3, #1
 3355 001a 2DB2     		sxth	r5, r5
 3356              	.LBE479:
 3357              	.LBE482:
 3358              	.LBB483:
 3359              	.LBB484:
 3360 001c 9E1E     		subs	r6, r3, #2
 3361              	.LBE484:
 3362              	.LBE483:
 3363              	.LBB488:
ARM GAS  /tmp/cchqCFfA.s 			page 60


 3364              	.LBB480:
 3365 001e 8583     		strh	r5, [r0, #28]	@ movhi
 3366              	.LBE480:
 3367              	.LBE488:
 3368              	.LBB489:
 3369              	.LBB485:
 3370 0020 36B2     		sxth	r6, r6
 3371              	.LBE485:
 3372              	.LBE489:
 3373              	.LBB490:
 3374              	.LBB491:
 3375 0022 DC1E     		subs	r4, r3, #3
 3376              	.LBE491:
 3377              	.LBE490:
 3378              	.LBB495:
 3379              	.LBB481:
 3380              		.loc 2 90 18 view .LVU870
 3381 0024 32F91180 		ldrsh	r8, [r2, r1, lsl #1]
 3382              	.LVL280:
 3383              		.loc 2 90 18 view .LVU871
 3384              	.LBE481:
 3385              	.LBE495:
 3386              		.loc 1 689 2 is_stmt 1 view .LVU872
 3387              	.LBB496:
 3388              	.LBI483:
 3389              		.loc 2 88 22 view .LVU873
 3390              	.LBB486:
 3391              		.loc 2 90 2 view .LVU874
 3392              		.loc 2 90 25 is_stmt 0 view .LVU875
 3393 0028 8683     		strh	r6, [r0, #28]	@ movhi
 3394              	.LBE486:
 3395              	.LBE496:
 3396              	.LBB497:
 3397              	.LBB492:
 3398 002a 24B2     		sxth	r4, r4
 3399              	.LBE492:
 3400              	.LBE497:
 3401              	.LBB498:
 3402              	.LBB499:
 3403 002c 191F     		subs	r1, r3, #4
 3404              	.LBE499:
 3405              	.LBE498:
 3406              	.LBB503:
 3407              	.LBB487:
 3408              		.loc 2 90 18 view .LVU876
 3409 002e 32F91550 		ldrsh	r5, [r2, r5, lsl #1]
 3410              	.LVL281:
 3411              		.loc 2 90 18 view .LVU877
 3412              	.LBE487:
 3413              	.LBE503:
 3414              		.loc 1 690 2 is_stmt 1 view .LVU878
 3415              	.LBB504:
 3416              	.LBI490:
 3417              		.loc 2 88 22 view .LVU879
 3418              	.LBB493:
 3419              		.loc 2 90 2 view .LVU880
 3420              		.loc 2 90 25 is_stmt 0 view .LVU881
ARM GAS  /tmp/cchqCFfA.s 			page 61


 3421 0032 8483     		strh	r4, [r0, #28]	@ movhi
 3422              	.LBE493:
 3423              	.LBE504:
 3424              	.LBB505:
 3425              	.LBB500:
 3426 0034 09B2     		sxth	r1, r1
 3427              	.LBE500:
 3428              	.LBE505:
 3429              	.LBB506:
 3430              	.LBB494:
 3431              		.loc 2 90 18 view .LVU882
 3432 0036 32F91660 		ldrsh	r6, [r2, r6, lsl #1]
 3433              	.LVL282:
 3434              		.loc 2 90 18 view .LVU883
 3435              	.LBE494:
 3436              	.LBE506:
 3437              		.loc 1 691 2 is_stmt 1 view .LVU884
 3438              	.LBB507:
 3439              	.LBI498:
 3440              		.loc 2 88 22 view .LVU885
 3441              	.LBB501:
 3442              		.loc 2 90 2 view .LVU886
 3443              		.loc 2 90 25 is_stmt 0 view .LVU887
 3444 003a 8183     		strh	r1, [r0, #28]	@ movhi
 3445              	.LBE501:
 3446              	.LBE507:
 3447              	.LBB508:
 3448              	.LBB509:
 3449 003c 053B     		subs	r3, r3, #5
 3450              	.LBE509:
 3451              	.LBE508:
 3452              	.LBB511:
 3453              	.LBB502:
 3454              		.loc 2 90 18 view .LVU888
 3455 003e 32F914C0 		ldrsh	ip, [r2, r4, lsl #1]
 3456              	.LVL283:
 3457              		.loc 2 90 18 view .LVU889
 3458              	.LBE502:
 3459              	.LBE511:
 3460              		.loc 1 694 2 is_stmt 1 view .LVU890
 3461              	.LBB512:
 3462              	.LBI508:
 3463              		.loc 2 88 22 view .LVU891
 3464              	.LBB510:
 3465              		.loc 2 90 2 view .LVU892
 3466              		.loc 2 90 25 is_stmt 0 view .LVU893
 3467 0042 8383     		strh	r3, [r0, #28]	@ movhi
 3468              	.LBE510:
 3469              	.LBE512:
 3470              		.loc 1 694 9 view .LVU894
 3471 0044 32F811E0 		ldrh	lr, [r2, r1, lsl #1]
 3472              	.LVL284:
 3473              		.loc 1 695 2 is_stmt 1 view .LVU895
 3474              		.loc 1 696 2 view .LVU896
 3475              		.loc 1 697 2 view .LVU897
 3476              		.loc 1 699 2 view .LVU898
 3477              		.loc 1 699 5 is_stmt 0 view .LVU899
ARM GAS  /tmp/cchqCFfA.s 			page 62


 3478 0048 BEF1000F 		cmp	lr, #0
 3479 004c 32D0     		beq	.L226
 3480              		.loc 1 701 11 view .LVU900
 3481 004e C368     		ldr	r3, [r0, #12]
 3482              		.loc 1 688 9 view .LVU901
 3483 0050 1FFA88F8 		uxth	r8, r8
 3484              	.LVL285:
 3485              		.loc 1 701 3 is_stmt 1 view .LVU902
 3486              		.loc 1 703 16 is_stmt 0 view .LVU903
 3487 0054 ADB2     		uxth	r5, r5
 3488              		.loc 1 701 7 view .LVU904
 3489 0056 33F91840 		ldrsh	r4, [r3, r8, lsl #1]
 3490              		.loc 1 703 22 view .LVU905
 3491 005a 23F81540 		strh	r4, [r3, r5, lsl #1]	@ movhi
 3492              		.loc 1 704 16 view .LVU906
 3493 005e B6B2     		uxth	r6, r6
 3494              		.loc 1 704 22 view .LVU907
 3495 0060 C268     		ldr	r2, [r0, #12]
 3496              		.loc 1 701 26 view .LVU908
 3497 0062 08F10103 		add	r3, r8, #1
 3498              		.loc 1 706 3 view .LVU909
 3499 0066 BEF1010F 		cmp	lr, #1
 3500              		.loc 1 704 22 view .LVU910
 3501 006a 22F81640 		strh	r4, [r2, r6, lsl #1]	@ movhi
 3502              		.loc 1 703 16 view .LVU911
 3503 006e 4FEA4505 		lsl	r5, r5, #1
 3504              	.LVL286:
 3505              		.loc 1 704 16 view .LVU912
 3506 0072 4FEA4606 		lsl	r6, r6, #1
 3507              	.LVL287:
 3508              		.loc 1 701 26 view .LVU913
 3509 0076 9BB2     		uxth	r3, r3
 3510              	.LVL288:
 3511              		.loc 1 702 3 is_stmt 1 view .LVU914
 3512              		.loc 1 703 3 view .LVU915
 3513              		.loc 1 704 3 view .LVU916
 3514              		.loc 1 706 3 view .LVU917
 3515              		.loc 1 706 15 view .LVU918
 3516              		.loc 1 706 3 is_stmt 0 view .LVU919
 3517 0078 24D0     		beq	.L228
 3518 007a F044     		add	r8, r8, lr
 3519 007c C268     		ldr	r2, [r0, #12]
 3520 007e 1FFA88F8 		uxth	r8, r8
 3521              	.LVL289:
 3522              	.L231:
 3523              		.loc 1 708 4 is_stmt 1 view .LVU920
 3524              		.loc 1 708 8 is_stmt 0 view .LVU921
 3525 0082 32F91310 		ldrsh	r1, [r2, r3, lsl #1]
 3526              		.loc 1 709 7 view .LVU922
 3527 0086 575F     		ldrsh	r7, [r2, r5]
 3528 0088 8F42     		cmp	r7, r1
 3529              		.loc 1 710 24 view .LVU923
 3530 008a C4BF     		itt	gt
 3531 008c 5153     		strhgt	r1, [r2, r5]	@ movhi
 3532 008e C268     		ldrgt	r2, [r0, #12]
 3533              		.loc 1 711 7 view .LVU924
 3534 0090 975F     		ldrsh	r7, [r2, r6]
ARM GAS  /tmp/cchqCFfA.s 			page 63


 3535 0092 8F42     		cmp	r7, r1
 3536              		.loc 1 712 24 view .LVU925
 3537 0094 B8BF     		it	lt
 3538 0096 9153     		strhlt	r1, [r2, r6]	@ movhi
 3539              		.loc 1 708 27 view .LVU926
 3540 0098 03F10103 		add	r3, r3, #1
 3541              	.LVL290:
 3542              		.loc 1 708 27 view .LVU927
 3543 009c 9BB2     		uxth	r3, r3
 3544              	.LVL291:
 3545              		.loc 1 709 4 is_stmt 1 view .LVU928
 3546              		.loc 1 710 5 view .LVU929
 3547              		.loc 1 711 4 view .LVU930
 3548              		.loc 1 712 5 view .LVU931
 3549 009e B8BF     		it	lt
 3550 00a0 C268     		ldrlt	r2, [r0, #12]
 3551              		.loc 1 713 4 view .LVU932
 3552              		.loc 1 706 3 is_stmt 0 view .LVU933
 3553 00a2 4345     		cmp	r3, r8
 3554              		.loc 1 713 8 view .LVU934
 3555 00a4 0C44     		add	r4, r4, r1
 3556              	.LVL292:
 3557              		.loc 1 706 27 is_stmt 1 view .LVU935
 3558              		.loc 1 706 15 view .LVU936
 3559              		.loc 1 706 3 is_stmt 0 view .LVU937
 3560 00a6 ECD1     		bne	.L231
 3561              	.LVL293:
 3562              	.L232:
 3563              		.loc 1 716 3 is_stmt 1 view .LVU938
 3564              		.loc 1 716 38 is_stmt 0 view .LVU939
 3565 00a8 94FBFEF4 		sdiv	r4, r4, lr
 3566              	.LVL294:
 3567              		.loc 1 716 16 view .LVU940
 3568 00ac 1FFA8CFC 		uxth	ip, ip
 3569              		.loc 1 716 25 view .LVU941
 3570 00b0 22F81C40 		strh	r4, [r2, ip, lsl #1]	@ movhi
 3571              	.LVL295:
 3572              	.L226:
 3573              		.loc 1 718 1 view .LVU942
 3574 00b4 054B     		ldr	r3, .L240
 3575 00b6 1A68     		ldr	r2, [r3]
 3576 00b8 019B     		ldr	r3, [sp, #4]
 3577 00ba 5A40     		eors	r2, r3, r2
 3578 00bc 04D1     		bne	.L239
 3579 00be 02B0     		add	sp, sp, #8
 3580              		.cfi_remember_state
 3581              		.cfi_def_cfa_offset 24
 3582              		@ sp needed
 3583 00c0 BDE8F081 		pop	{r4, r5, r6, r7, r8, pc}
 3584              	.LVL296:
 3585              	.L228:
 3586              		.cfi_restore_state
 3587              		.loc 1 718 1 view .LVU943
 3588 00c4 C268     		ldr	r2, [r0, #12]
 3589 00c6 EFE7     		b	.L232
 3590              	.LVL297:
 3591              	.L239:
ARM GAS  /tmp/cchqCFfA.s 			page 64


 3592              		.loc 1 718 1 view .LVU944
 3593 00c8 FFF7FEFF 		bl	__stack_chk_fail
 3594              	.LVL298:
 3595              	.L241:
 3596              		.loc 1 718 1 view .LVU945
 3597              		.align	2
 3598              	.L240:
 3599 00cc 00000000 		.word	.LC17
 3600              		.cfi_endproc
 3601              	.LFE17:
 3602              		.size	AsebaNative_vecstat, .-AsebaNative_vecstat
 3603              		.section	.rodata.AsebaNative_vecargbounds.cst4,"aM",%progbits,4
 3604              		.align	2
 3605              	.LC18:
 3606 0000 00000000 		.word	__stack_chk_guard
 3607              		.section	.text.AsebaNative_vecargbounds,"ax",%progbits
 3608              		.align	1
 3609              		.p2align 4,,15
 3610              		.global	AsebaNative_vecargbounds
 3611              		.syntax unified
 3612              		.thumb
 3613              		.thumb_func
 3614              		.fpu fpv4-sp-d16
 3615              		.type	AsebaNative_vecargbounds, %function
 3616              	AsebaNative_vecargbounds:
 3617              	.LVL299:
 3618              	.LFB18:
 3619              		.loc 1 735 1 is_stmt 1 view -0
 3620              		.cfi_startproc
 3621              		@ args = 0, pretend = 0, frame = 8
 3622              		@ frame_needed = 0, uses_anonymous_args = 0
 3623              		.loc 1 735 1 is_stmt 0 view .LVU947
 3624 0000 2DE9F041 		push	{r4, r5, r6, r7, r8, lr}
 3625              		.cfi_def_cfa_offset 24
 3626              		.cfi_offset 4, -24
 3627              		.cfi_offset 5, -20
 3628              		.cfi_offset 6, -16
 3629              		.cfi_offset 7, -12
 3630              		.cfi_offset 8, -8
 3631              		.cfi_offset 14, -4
 3632 0004 264B     		ldr	r3, .L254
 3633              		.loc 1 737 15 view .LVU948
 3634 0006 4169     		ldr	r1, [r0, #20]
 3635              		.loc 1 735 1 view .LVU949
 3636 0008 82B0     		sub	sp, sp, #8
 3637              		.cfi_def_cfa_offset 32
 3638              		.loc 1 735 1 view .LVU950
 3639 000a 1B68     		ldr	r3, [r3]
 3640 000c 0193     		str	r3, [sp, #4]
 3641 000e 4FF00003 		mov	r3,#0
 3642              		.loc 1 737 2 is_stmt 1 view .LVU951
 3643              	.LBB513:
 3644              	.LBI513:
 3645              		.loc 2 88 22 view .LVU952
 3646              	.LVL300:
 3647              	.LBB514:
 3648              		.loc 2 90 2 view .LVU953
ARM GAS  /tmp/cchqCFfA.s 			page 65


 3649              		.loc 2 90 21 is_stmt 0 view .LVU954
 3650 0012 B0F91C30 		ldrsh	r3, [r0, #28]
 3651              		.loc 2 90 25 view .LVU955
 3652 0016 9AB2     		uxth	r2, r3
 3653 0018 561E     		subs	r6, r2, #1
 3654 001a 36B2     		sxth	r6, r6
 3655              	.LBE514:
 3656              	.LBE513:
 3657              	.LBB517:
 3658              	.LBB518:
 3659 001c 951E     		subs	r5, r2, #2
 3660              	.LBE518:
 3661              	.LBE517:
 3662              	.LBB522:
 3663              	.LBB515:
 3664 001e 8683     		strh	r6, [r0, #28]	@ movhi
 3665              	.LBE515:
 3666              	.LBE522:
 3667              	.LBB523:
 3668              	.LBB519:
 3669 0020 2DB2     		sxth	r5, r5
 3670              	.LBE519:
 3671              	.LBE523:
 3672              	.LBB524:
 3673              	.LBB525:
 3674 0022 D41E     		subs	r4, r2, #3
 3675              	.LBE525:
 3676              	.LBE524:
 3677              	.LBB529:
 3678              	.LBB516:
 3679              		.loc 2 90 18 view .LVU956
 3680 0024 31F91330 		ldrsh	r3, [r1, r3, lsl #1]
 3681              	.LVL301:
 3682              		.loc 2 90 18 view .LVU957
 3683              	.LBE516:
 3684              	.LBE529:
 3685              		.loc 1 738 2 is_stmt 1 view .LVU958
 3686              	.LBB530:
 3687              	.LBI517:
 3688              		.loc 2 88 22 view .LVU959
 3689              	.LBB520:
 3690              		.loc 2 90 2 view .LVU960
 3691              		.loc 2 90 25 is_stmt 0 view .LVU961
 3692 0028 8583     		strh	r5, [r0, #28]	@ movhi
 3693              	.LBE520:
 3694              	.LBE530:
 3695              	.LBB531:
 3696              	.LBB526:
 3697 002a 24B2     		sxth	r4, r4
 3698              	.LBE526:
 3699              	.LBE531:
 3700              	.LBB532:
 3701              	.LBB521:
 3702              		.loc 2 90 18 view .LVU962
 3703 002c 31F916E0 		ldrsh	lr, [r1, r6, lsl #1]
 3704              	.LVL302:
 3705              		.loc 2 90 18 view .LVU963
ARM GAS  /tmp/cchqCFfA.s 			page 66


 3706              	.LBE521:
 3707              	.LBE532:
 3708              		.loc 1 739 2 is_stmt 1 view .LVU964
 3709              	.LBB533:
 3710              	.LBI524:
 3711              		.loc 2 88 22 view .LVU965
 3712              	.LBB527:
 3713              		.loc 2 90 2 view .LVU966
 3714              		.loc 2 90 25 is_stmt 0 view .LVU967
 3715 0030 8483     		strh	r4, [r0, #28]	@ movhi
 3716              	.LBE527:
 3717              	.LBE533:
 3718              	.LBB534:
 3719              	.LBB535:
 3720 0032 043A     		subs	r2, r2, #4
 3721              	.LBE535:
 3722              	.LBE534:
 3723              	.LBB537:
 3724              	.LBB528:
 3725              		.loc 2 90 18 view .LVU968
 3726 0034 31F915C0 		ldrsh	ip, [r1, r5, lsl #1]
 3727              	.LVL303:
 3728              		.loc 2 90 18 view .LVU969
 3729              	.LBE528:
 3730              	.LBE537:
 3731              		.loc 1 742 2 is_stmt 1 view .LVU970
 3732              	.LBB538:
 3733              	.LBI534:
 3734              		.loc 2 88 22 view .LVU971
 3735              	.LBB536:
 3736              		.loc 2 90 2 view .LVU972
 3737              		.loc 2 90 25 is_stmt 0 view .LVU973
 3738 0038 8283     		strh	r2, [r0, #28]	@ movhi
 3739              	.LBE536:
 3740              	.LBE538:
 3741              		.loc 1 742 9 view .LVU974
 3742 003a 31F81450 		ldrh	r5, [r1, r4, lsl #1]
 3743              	.LVL304:
 3744              		.loc 1 743 2 is_stmt 1 view .LVU975
 3745              		.loc 1 744 2 view .LVU976
 3746              		.loc 1 745 2 view .LVU977
 3747              		.loc 1 746 2 view .LVU978
 3748              		.loc 1 748 2 view .LVU979
 3749              		.loc 1 748 5 is_stmt 0 view .LVU980
 3750 003e 2DB3     		cbz	r5, .L242
 3751              		.loc 1 737 9 view .LVU981
 3752 0040 9BB2     		uxth	r3, r3
 3753              	.LVL305:
 3754              		.loc 1 737 9 view .LVU982
 3755 0042 1D44     		add	r5, r5, r3
 3756              	.LVL306:
 3757              		.loc 1 756 18 view .LVU983
 3758 0044 1FFA8EFE 		uxth	lr, lr
 3759              		.loc 1 761 18 view .LVU984
 3760 0048 1FFA8CFC 		uxth	ip, ip
 3761              		.loc 1 744 9 view .LVU985
 3762 004c 154F     		ldr	r7, .L254+4
ARM GAS  /tmp/cchqCFfA.s 			page 67


 3763 004e ADB2     		uxth	r5, r5
 3764              		.loc 1 756 18 view .LVU986
 3765 0050 4FEA4E0E 		lsl	lr, lr, #1
 3766              	.LVL307:
 3767              		.loc 1 761 18 view .LVU987
 3768 0054 4FEA4C0C 		lsl	ip, ip, #1
 3769              	.LVL308:
 3770              		.loc 1 756 27 view .LVU988
 3771 0058 6FEA0308 		mvn	r8, r3
 3772              		.loc 1 743 9 view .LVU989
 3773 005c 47F6FF76 		movw	r6, #32767
 3774              	.LVL309:
 3775              	.L246:
 3776              		.loc 1 752 4 is_stmt 1 view .LVU990
 3777              		.loc 1 752 12 is_stmt 0 view .LVU991
 3778 0060 C168     		ldr	r1, [r0, #12]
 3779              		.loc 1 752 8 view .LVU992
 3780 0062 31F91320 		ldrsh	r2, [r1, r3, lsl #1]
 3781              		.loc 1 752 27 view .LVU993
 3782 0066 5C1C     		adds	r4, r3, #1
 3783              		.loc 1 753 7 view .LVU994
 3784 0068 B242     		cmp	r2, r6
 3785              		.loc 1 752 27 view .LVU995
 3786 006a A3B2     		uxth	r3, r4
 3787              	.LVL310:
 3788              		.loc 1 753 4 is_stmt 1 view .LVU996
 3789              		.loc 1 753 7 is_stmt 0 view .LVU997
 3790 006c 04DA     		bge	.L244
 3791              		.loc 1 755 5 is_stmt 1 view .LVU998
 3792              	.LVL311:
 3793              		.loc 1 756 5 view .LVU999
 3794              		.loc 1 756 27 is_stmt 0 view .LVU1000
 3795 006e 03EB0804 		add	r4, r3, r8
 3796 0072 21F80E40 		strh	r4, [r1, lr]	@ movhi
 3797 0076 1646     		mov	r6, r2
 3798              	.LVL312:
 3799              	.L244:
 3800              		.loc 1 758 4 is_stmt 1 view .LVU1001
 3801              		.loc 1 758 7 is_stmt 0 view .LVU1002
 3802 0078 BA42     		cmp	r2, r7
 3803 007a 05DD     		ble	.L245
 3804              		.loc 1 760 5 is_stmt 1 view .LVU1003
 3805              	.LVL313:
 3806              		.loc 1 761 5 view .LVU1004
 3807              		.loc 1 761 27 is_stmt 0 view .LVU1005
 3808 007c C168     		ldr	r1, [r0, #12]
 3809 007e 03EB0804 		add	r4, r3, r8
 3810 0082 21F80C40 		strh	r4, [r1, ip]	@ movhi
 3811 0086 1746     		mov	r7, r2
 3812              	.LVL314:
 3813              	.L245:
 3814              		.loc 1 750 27 is_stmt 1 discriminator 2 view .LVU1006
 3815              		.loc 1 750 15 discriminator 2 view .LVU1007
 3816              		.loc 1 750 3 is_stmt 0 discriminator 2 view .LVU1008
 3817 0088 AB42     		cmp	r3, r5
 3818 008a E9D1     		bne	.L246
 3819              	.LVL315:
ARM GAS  /tmp/cchqCFfA.s 			page 68


 3820              	.L242:
 3821              		.loc 1 765 1 view .LVU1009
 3822 008c 044B     		ldr	r3, .L254
 3823 008e 1A68     		ldr	r2, [r3]
 3824 0090 019B     		ldr	r3, [sp, #4]
 3825 0092 5A40     		eors	r2, r3, r2
 3826 0094 02D1     		bne	.L253
 3827 0096 02B0     		add	sp, sp, #8
 3828              		.cfi_remember_state
 3829              		.cfi_def_cfa_offset 24
 3830              		@ sp needed
 3831 0098 BDE8F081 		pop	{r4, r5, r6, r7, r8, pc}
 3832              	.L253:
 3833              		.cfi_restore_state
 3834 009c FFF7FEFF 		bl	__stack_chk_fail
 3835              	.LVL316:
 3836              	.L255:
 3837              		.loc 1 765 1 view .LVU1010
 3838              		.align	2
 3839              	.L254:
 3840 00a0 00000000 		.word	.LC18
 3841 00a4 0080FFFF 		.word	-32768
 3842              		.cfi_endproc
 3843              	.LFE18:
 3844              		.size	AsebaNative_vecargbounds, .-AsebaNative_vecargbounds
 3845              		.section	.rodata.AsebaNative_vecsort.cst4,"aM",%progbits,4
 3846              		.align	2
 3847              	.LC19:
 3848 0000 00000000 		.word	__stack_chk_guard
 3849              		.section	.text.AsebaNative_vecsort,"ax",%progbits
 3850              		.align	1
 3851              		.p2align 4,,15
 3852              		.global	AsebaNative_vecsort
 3853              		.syntax unified
 3854              		.thumb
 3855              		.thumb_func
 3856              		.fpu fpv4-sp-d16
 3857              		.type	AsebaNative_vecsort, %function
 3858              	AsebaNative_vecsort:
 3859              	.LVL317:
 3860              	.LFB19:
 3861              		.loc 1 781 1 is_stmt 1 view -0
 3862              		.cfi_startproc
 3863              		@ args = 0, pretend = 0, frame = 8
 3864              		@ frame_needed = 0, uses_anonymous_args = 0
 3865              		.loc 1 781 1 is_stmt 0 view .LVU1012
 3866 0000 30B5     		push	{r4, r5, lr}
 3867              		.cfi_def_cfa_offset 12
 3868              		.cfi_offset 4, -12
 3869              		.cfi_offset 5, -8
 3870              		.cfi_offset 14, -4
 3871 0002 114B     		ldr	r3, .L261
 3872              	.LBB539:
 3873              	.LBB540:
 3874              		.loc 2 90 21 view .LVU1013
 3875 0004 B0F91C10 		ldrsh	r1, [r0, #28]
 3876              	.LBE540:
ARM GAS  /tmp/cchqCFfA.s 			page 69


 3877              	.LBE539:
 3878              		.loc 1 783 15 view .LVU1014
 3879 0008 4469     		ldr	r4, [r0, #20]
 3880              		.loc 1 781 1 view .LVU1015
 3881 000a 83B0     		sub	sp, sp, #12
 3882              		.cfi_def_cfa_offset 24
 3883              		.loc 1 781 1 view .LVU1016
 3884 000c 1B68     		ldr	r3, [r3]
 3885 000e 0193     		str	r3, [sp, #4]
 3886 0010 4FF00003 		mov	r3,#0
 3887              		.loc 1 783 2 is_stmt 1 view .LVU1017
 3888              	.LBB542:
 3889              	.LBI539:
 3890              		.loc 2 88 22 view .LVU1018
 3891              	.LVL318:
 3892              	.LBB541:
 3893              		.loc 2 90 2 view .LVU1019
 3894              		.loc 2 90 25 is_stmt 0 view .LVU1020
 3895 0014 8BB2     		uxth	r3, r1
 3896 0016 5A1E     		subs	r2, r3, #1
 3897 0018 12B2     		sxth	r2, r2
 3898 001a 8283     		strh	r2, [r0, #28]	@ movhi
 3899              	.LBE541:
 3900              	.LBE542:
 3901              	.LBB543:
 3902              	.LBB544:
 3903 001c 023B     		subs	r3, r3, #2
 3904              	.LBE544:
 3905              	.LBE543:
 3906              		.loc 1 783 9 view .LVU1021
 3907 001e 34F81150 		ldrh	r5, [r4, r1, lsl #1]
 3908              	.LVL319:
 3909              		.loc 1 786 2 is_stmt 1 view .LVU1022
 3910              	.LBB546:
 3911              	.LBI543:
 3912              		.loc 2 88 22 view .LVU1023
 3913              	.LBB545:
 3914              		.loc 2 90 2 view .LVU1024
 3915              		.loc 2 90 25 is_stmt 0 view .LVU1025
 3916 0022 8383     		strh	r3, [r0, #28]	@ movhi
 3917              	.LVL320:
 3918              		.loc 2 90 25 view .LVU1026
 3919              	.LBE545:
 3920              	.LBE546:
 3921              		.loc 1 788 2 is_stmt 1 view .LVU1027
 3922 0024 084B     		ldr	r3, .L261
 3923 0026 1968     		ldr	r1, [r3]
 3924 0028 019B     		ldr	r3, [sp, #4]
 3925 002a 5940     		eors	r1, r3, r1
 3926 002c 09D1     		bne	.L260
 3927 002e C068     		ldr	r0, [r0, #12]
 3928              	.LVL321:
 3929              		.loc 1 788 2 is_stmt 0 view .LVU1028
 3930 0030 34F81210 		ldrh	r1, [r4, r2, lsl #1]
 3931 0034 00EB4500 		add	r0, r0, r5, lsl #1
 3932              		.loc 1 789 1 view .LVU1029
 3933 0038 03B0     		add	sp, sp, #12
ARM GAS  /tmp/cchqCFfA.s 			page 70


 3934              		.cfi_remember_state
 3935              		.cfi_def_cfa_offset 12
 3936              		@ sp needed
 3937 003a BDE83040 		pop	{r4, r5, lr}
 3938              		.cfi_restore 14
 3939              		.cfi_restore 5
 3940              		.cfi_restore 4
 3941              		.cfi_def_cfa_offset 0
 3942              	.LVL322:
 3943              		.loc 1 788 2 view .LVU1030
 3944 003e FFF7FEBF 		b	aseba_comb_sort
 3945              	.LVL323:
 3946              	.L260:
 3947              		.cfi_restore_state
 3948              		.loc 1 788 2 view .LVU1031
 3949 0042 FFF7FEFF 		bl	__stack_chk_fail
 3950              	.LVL324:
 3951              	.L262:
 3952              		.loc 1 788 2 view .LVU1032
 3953 0046 00BF     		.align	2
 3954              	.L261:
 3955 0048 00000000 		.word	.LC19
 3956              		.cfi_endproc
 3957              	.LFE19:
 3958              		.size	AsebaNative_vecsort, .-AsebaNative_vecsort
 3959              		.section	.rodata.AsebaNative_mathmuldiv.cst4,"aM",%progbits,4
 3960              		.align	2
 3961              	.LC20:
 3962 0000 00000000 		.word	__stack_chk_guard
 3963              		.section	.text.AsebaNative_mathmuldiv,"ax",%progbits
 3964              		.align	1
 3965              		.p2align 4,,15
 3966              		.global	AsebaNative_mathmuldiv
 3967              		.syntax unified
 3968              		.thumb
 3969              		.thumb_func
 3970              		.fpu fpv4-sp-d16
 3971              		.type	AsebaNative_mathmuldiv, %function
 3972              	AsebaNative_mathmuldiv:
 3973              	.LVL325:
 3974              	.LFB20:
 3975              		.loc 1 803 1 is_stmt 1 view -0
 3976              		.cfi_startproc
 3977              		@ args = 0, pretend = 0, frame = 8
 3978              		@ frame_needed = 0, uses_anonymous_args = 0
 3979              		.loc 1 803 1 is_stmt 0 view .LVU1034
 3980 0000 2DE9F043 		push	{r4, r5, r6, r7, r8, r9, lr}
 3981              		.cfi_def_cfa_offset 28
 3982              		.cfi_offset 4, -28
 3983              		.cfi_offset 5, -24
 3984              		.cfi_offset 6, -20
 3985              		.cfi_offset 7, -16
 3986              		.cfi_offset 8, -12
 3987              		.cfi_offset 9, -8
 3988              		.cfi_offset 14, -4
 3989              	.LBB547:
 3990              	.LBB548:
ARM GAS  /tmp/cchqCFfA.s 			page 71


 3991              		.loc 2 90 21 view .LVU1035
 3992 0004 B0F91C40 		ldrsh	r4, [r0, #28]
 3993              	.LBE548:
 3994              	.LBE547:
 3995              		.loc 1 803 1 view .LVU1036
 3996 0008 2F4B     		ldr	r3, .L275
 3997              		.loc 1 805 21 view .LVU1037
 3998 000a 4169     		ldr	r1, [r0, #20]
 3999              	.LBB552:
 4000              	.LBB549:
 4001              		.loc 2 90 25 view .LVU1038
 4002 000c A2B2     		uxth	r2, r4
 4003              	.LBE549:
 4004              	.LBE552:
 4005              		.loc 1 803 1 view .LVU1039
 4006 000e 83B0     		sub	sp, sp, #12
 4007              		.cfi_def_cfa_offset 40
 4008              		.loc 1 803 1 view .LVU1040
 4009 0010 1B68     		ldr	r3, [r3]
 4010 0012 0193     		str	r3, [sp, #4]
 4011 0014 4FF00003 		mov	r3,#0
 4012              		.loc 1 805 2 is_stmt 1 view .LVU1041
 4013              	.LBB553:
 4014              	.LBI547:
 4015              		.loc 2 88 22 view .LVU1042
 4016              	.LVL326:
 4017              	.LBB550:
 4018              		.loc 2 90 2 view .LVU1043
 4019              		.loc 2 90 25 is_stmt 0 view .LVU1044
 4020 0018 531E     		subs	r3, r2, #1
 4021 001a 1BB2     		sxth	r3, r3
 4022              	.LBE550:
 4023              	.LBE553:
 4024              	.LBB554:
 4025              	.LBB555:
 4026 001c 961E     		subs	r6, r2, #2
 4027              	.LBE555:
 4028              	.LBE554:
 4029              	.LBB558:
 4030              	.LBB551:
 4031 001e 8383     		strh	r3, [r0, #28]	@ movhi
 4032              	.LBE551:
 4033              	.LBE558:
 4034              	.LBB559:
 4035              	.LBB556:
 4036 0020 36B2     		sxth	r6, r6
 4037              	.LBE556:
 4038              	.LBE559:
 4039              	.LBB560:
 4040              	.LBB561:
 4041 0022 D51E     		subs	r5, r2, #3
 4042              	.LBE561:
 4043              	.LBE560:
 4044              		.loc 1 805 9 view .LVU1045
 4045 0024 31F814C0 		ldrh	ip, [r1, r4, lsl #1]
 4046              	.LVL327:
 4047              		.loc 1 806 2 is_stmt 1 view .LVU1046
ARM GAS  /tmp/cchqCFfA.s 			page 72


 4048              	.LBB564:
 4049              	.LBI554:
 4050              		.loc 2 88 22 view .LVU1047
 4051              	.LBB557:
 4052              		.loc 2 90 2 view .LVU1048
 4053              		.loc 2 90 25 is_stmt 0 view .LVU1049
 4054 0028 8683     		strh	r6, [r0, #28]	@ movhi
 4055              	.LBE557:
 4056              	.LBE564:
 4057              	.LBB565:
 4058              	.LBB562:
 4059 002a 2DB2     		sxth	r5, r5
 4060              	.LBE562:
 4061              	.LBE565:
 4062              	.LBB566:
 4063              	.LBB567:
 4064 002c 141F     		subs	r4, r2, #4
 4065              	.LBE567:
 4066              	.LBE566:
 4067              		.loc 1 806 9 view .LVU1050
 4068 002e 31F81330 		ldrh	r3, [r1, r3, lsl #1]
 4069              	.LVL328:
 4070              		.loc 1 807 2 is_stmt 1 view .LVU1051
 4071              	.LBB570:
 4072              	.LBI560:
 4073              		.loc 2 88 22 view .LVU1052
 4074              	.LBB563:
 4075              		.loc 2 90 2 view .LVU1053
 4076              		.loc 2 90 25 is_stmt 0 view .LVU1054
 4077 0032 8583     		strh	r5, [r0, #28]	@ movhi
 4078              	.LBE563:
 4079              	.LBE570:
 4080              	.LBB571:
 4081              	.LBB568:
 4082 0034 24B2     		sxth	r4, r4
 4083              	.LBE568:
 4084              	.LBE571:
 4085              		.loc 1 807 9 view .LVU1055
 4086 0036 31F81660 		ldrh	r6, [r1, r6, lsl #1]
 4087              	.LVL329:
 4088              		.loc 1 808 2 is_stmt 1 view .LVU1056
 4089              	.LBB572:
 4090              	.LBI566:
 4091              		.loc 2 88 22 view .LVU1057
 4092              	.LBB569:
 4093              		.loc 2 90 2 view .LVU1058
 4094              		.loc 2 90 25 is_stmt 0 view .LVU1059
 4095 003a 8483     		strh	r4, [r0, #28]	@ movhi
 4096              	.LBE569:
 4097              	.LBE572:
 4098              	.LBB573:
 4099              	.LBB574:
 4100 003c 053A     		subs	r2, r2, #5
 4101              	.LBE574:
 4102              	.LBE573:
 4103              		.loc 1 808 9 view .LVU1060
 4104 003e 31F81570 		ldrh	r7, [r1, r5, lsl #1]
ARM GAS  /tmp/cchqCFfA.s 			page 73


 4105              	.LVL330:
 4106              		.loc 1 811 2 is_stmt 1 view .LVU1061
 4107              	.LBB576:
 4108              	.LBI573:
 4109              		.loc 2 88 22 view .LVU1062
 4110              	.LBB575:
 4111              		.loc 2 90 2 view .LVU1063
 4112              		.loc 2 90 25 is_stmt 0 view .LVU1064
 4113 0042 8283     		strh	r2, [r0, #28]	@ movhi
 4114              	.LBE575:
 4115              	.LBE576:
 4116              		.loc 1 811 9 view .LVU1065
 4117 0044 31F81450 		ldrh	r5, [r1, r4, lsl #1]
 4118              	.LVL331:
 4119              		.loc 1 813 2 is_stmt 1 view .LVU1066
 4120              		.loc 1 814 2 view .LVU1067
 4121              		.loc 1 814 14 view .LVU1068
 4122              		.loc 1 814 2 is_stmt 0 view .LVU1069
 4123 0048 A5B3     		cbz	r5, .L263
 4124 004a 1D44     		add	r5, r5, r3
 4125              	.LVL332:
 4126              		.loc 1 814 2 view .LVU1070
 4127 004c ADB2     		uxth	r5, r5
 4128 004e ACEB030C 		sub	ip, ip, r3
 4129              	.LVL333:
 4130              		.loc 1 814 2 view .LVU1071
 4131 0052 FF1A     		subs	r7, r7, r3
 4132              	.LVL334:
 4133              		.loc 1 814 2 view .LVU1072
 4134 0054 F61A     		subs	r6, r6, r3
 4135              	.LVL335:
 4136              		.loc 1 814 2 view .LVU1073
 4137 0056 07E0     		b	.L267
 4138              	.LVL336:
 4139              	.L274:
 4140              	.LBB577:
 4141              		.loc 1 821 4 is_stmt 1 view .LVU1074
 4142              		.loc 1 821 4 is_stmt 0 view .LVU1075
 4143              	.LBE577:
 4144              		.loc 1 814 2 view .LVU1076
 4145 0058 AB42     		cmp	r3, r5
 4146              	.LBB578:
 4147              		.loc 1 821 45 view .LVU1077
 4148 005a 02FB04F2 		mul	r2, r2, r4
 4149              	.LVL337:
 4150              		.loc 1 821 50 view .LVU1078
 4151 005e 92FBF8F2 		sdiv	r2, r2, r8
 4152              		.loc 1 821 33 view .LVU1079
 4153 0062 21F81E20 		strh	r2, [r1, lr, lsl #1]	@ movhi
 4154              	.LVL338:
 4155              		.loc 1 821 33 view .LVU1080
 4156              	.LBE578:
 4157              		.loc 1 814 26 is_stmt 1 view .LVU1081
 4158              		.loc 1 814 14 view .LVU1082
 4159              		.loc 1 814 2 is_stmt 0 view .LVU1083
 4160 0066 25D0     		beq	.L263
 4161              	.LVL339:
ARM GAS  /tmp/cchqCFfA.s 			page 74


 4162              	.L267:
 4163              		.loc 1 814 2 view .LVU1084
 4164 0068 DA19     		adds	r2, r3, r7
 4165              	.LBB579:
 4166              		.loc 1 816 24 view .LVU1085
 4167 006a C168     		ldr	r1, [r0, #12]
 4168 006c 92B2     		uxth	r2, r2
 4169 006e 9C19     		adds	r4, r3, r6
 4170              		.loc 1 818 10 view .LVU1086
 4171 0070 31F91280 		ldrsh	r8, [r1, r2, lsl #1]
 4172              		.loc 1 816 35 view .LVU1087
 4173 0074 31F91320 		ldrsh	r2, [r1, r3, lsl #1]
 4174 0078 A4B2     		uxth	r4, r4
 4175              	.LVL340:
 4176              		.loc 1 816 35 view .LVU1088
 4177 007a 03EB0C0E 		add	lr, r3, ip
 4178              		.loc 1 816 42 view .LVU1089
 4179 007e 03F10109 		add	r9, r3, #1
 4180              		.loc 1 817 35 view .LVU1090
 4181 0082 31F91440 		ldrsh	r4, [r1, r4, lsl #1]
 4182              	.LVL341:
 4183              		.loc 1 817 35 view .LVU1091
 4184 0086 1FFA8EFE 		uxth	lr, lr
 4185              	.LVL342:
 4186              		.loc 1 816 3 is_stmt 1 view .LVU1092
 4187              		.loc 1 816 42 is_stmt 0 view .LVU1093
 4188 008a 1FFA89F3 		uxth	r3, r9
 4189              	.LVL343:
 4190              		.loc 1 817 3 is_stmt 1 view .LVU1094
 4191              		.loc 1 818 3 view .LVU1095
 4192              		.loc 1 819 3 view .LVU1096
 4193              		.loc 1 819 6 is_stmt 0 view .LVU1097
 4194 008e B8F1000F 		cmp	r8, #0
 4195 0092 E1D1     		bne	.L274
 4196              		.loc 1 825 4 is_stmt 1 view .LVU1098
 4197              		.loc 1 826 4 is_stmt 0 view .LVU1099
 4198 0094 0C4A     		ldr	r2, .L275
 4199              	.LVL344:
 4200              		.loc 1 825 14 view .LVU1100
 4201 0096 0223     		movs	r3, #2
 4202              	.LVL345:
 4203              		.loc 1 825 14 view .LVU1101
 4204 0098 0383     		strh	r3, [r0, #24]	@ movhi
 4205              	.LVL346:
 4206              		.loc 1 826 4 is_stmt 1 view .LVU1102
 4207 009a 1168     		ldr	r1, [r2]
 4208 009c 019A     		ldr	r2, [sp, #4]
 4209 009e 5140     		eors	r1, r2, r1
 4210 00a0 10D1     		bne	.L273
 4211 00a2 00F11A02 		add	r2, r0, #26
 4212 00a6 49F20701 		movw	r1, #36871
 4213              	.LBE579:
 4214              		.loc 1 830 1 is_stmt 0 view .LVU1103
 4215 00aa 03B0     		add	sp, sp, #12
 4216              		.cfi_remember_state
 4217              		.cfi_def_cfa_offset 28
 4218              		@ sp needed
ARM GAS  /tmp/cchqCFfA.s 			page 75


 4219 00ac BDE8F043 		pop	{r4, r5, r6, r7, r8, r9, lr}
 4220              		.cfi_restore 14
 4221              		.cfi_restore 9
 4222              		.cfi_restore 8
 4223              		.cfi_restore 7
 4224              		.cfi_restore 6
 4225              		.cfi_restore 5
 4226              		.cfi_restore 4
 4227              		.cfi_def_cfa_offset 0
 4228              	.LVL347:
 4229              	.LBB580:
 4230              		.loc 1 826 4 view .LVU1104
 4231 00b0 FFF7FEBF 		b	AsebaSendMessage
 4232              	.LVL348:
 4233              	.L263:
 4234              		.cfi_restore_state
 4235              		.loc 1 826 4 view .LVU1105
 4236              	.LBE580:
 4237              		.loc 1 830 1 view .LVU1106
 4238 00b4 044B     		ldr	r3, .L275
 4239              	.LVL349:
 4240              		.loc 1 830 1 view .LVU1107
 4241 00b6 1A68     		ldr	r2, [r3]
 4242 00b8 019B     		ldr	r3, [sp, #4]
 4243 00ba 5A40     		eors	r2, r3, r2
 4244 00bc 02D1     		bne	.L273
 4245 00be 03B0     		add	sp, sp, #12
 4246              		.cfi_remember_state
 4247              		.cfi_def_cfa_offset 28
 4248              		@ sp needed
 4249 00c0 BDE8F083 		pop	{r4, r5, r6, r7, r8, r9, pc}
 4250              	.L273:
 4251              		.cfi_restore_state
 4252              		.loc 1 830 1 view .LVU1108
 4253 00c4 FFF7FEFF 		bl	__stack_chk_fail
 4254              	.LVL350:
 4255              	.L276:
 4256              		.loc 1 830 1 view .LVU1109
 4257              		.align	2
 4258              	.L275:
 4259 00c8 00000000 		.word	.LC20
 4260              		.cfi_endproc
 4261              	.LFE20:
 4262              		.size	AsebaNative_mathmuldiv, .-AsebaNative_mathmuldiv
 4263              		.section	.rodata.AsebaNative_mathatan2.cst4,"aM",%progbits,4
 4264              		.align	2
 4265              	.LC21:
 4266 0000 00000000 		.word	__stack_chk_guard
 4267              		.section	.text.AsebaNative_mathatan2,"ax",%progbits
 4268              		.align	1
 4269              		.p2align 4,,15
 4270              		.global	AsebaNative_mathatan2
 4271              		.syntax unified
 4272              		.thumb
 4273              		.thumb_func
 4274              		.fpu fpv4-sp-d16
 4275              		.type	AsebaNative_mathatan2, %function
ARM GAS  /tmp/cchqCFfA.s 			page 76


 4276              	AsebaNative_mathatan2:
 4277              	.LVL351:
 4278              	.LFB21:
 4279              		.loc 1 846 1 is_stmt 1 view -0
 4280              		.cfi_startproc
 4281              		@ args = 0, pretend = 0, frame = 8
 4282              		@ frame_needed = 0, uses_anonymous_args = 0
 4283              		.loc 1 846 1 is_stmt 0 view .LVU1111
 4284 0000 2DE9F04F 		push	{r4, r5, r6, r7, r8, r9, r10, fp, lr}
 4285              		.cfi_def_cfa_offset 36
 4286              		.cfi_offset 4, -36
 4287              		.cfi_offset 5, -32
 4288              		.cfi_offset 6, -28
 4289              		.cfi_offset 7, -24
 4290              		.cfi_offset 8, -20
 4291              		.cfi_offset 9, -16
 4292              		.cfi_offset 10, -12
 4293              		.cfi_offset 11, -8
 4294              		.cfi_offset 14, -4
 4295 0004 284B     		ldr	r3, .L291
 4296              	.LBB581:
 4297              	.LBB582:
 4298              		.loc 2 90 21 view .LVU1112
 4299 0006 B0F91C50 		ldrsh	r5, [r0, #28]
 4300              	.LBE582:
 4301              	.LBE581:
 4302              		.loc 1 848 21 view .LVU1113
 4303 000a 4269     		ldr	r2, [r0, #20]
 4304              		.loc 1 846 1 view .LVU1114
 4305 000c 83B0     		sub	sp, sp, #12
 4306              		.cfi_def_cfa_offset 48
 4307              		.loc 1 846 1 view .LVU1115
 4308 000e 1B68     		ldr	r3, [r3]
 4309 0010 0193     		str	r3, [sp, #4]
 4310 0012 4FF00003 		mov	r3,#0
 4311              		.loc 1 848 2 is_stmt 1 view .LVU1116
 4312              	.LBB586:
 4313              	.LBB583:
 4314              		.loc 2 90 25 is_stmt 0 view .LVU1117
 4315 0016 ABB2     		uxth	r3, r5
 4316              	.LBE583:
 4317              	.LBE586:
 4318              		.loc 1 846 1 view .LVU1118
 4319 0018 0746     		mov	r7, r0
 4320              	.LBB587:
 4321              	.LBI581:
 4322              		.loc 2 88 22 is_stmt 1 view .LVU1119
 4323              	.LVL352:
 4324              	.LBB584:
 4325              		.loc 2 90 2 view .LVU1120
 4326              		.loc 2 90 25 is_stmt 0 view .LVU1121
 4327 001a 5C1E     		subs	r4, r3, #1
 4328 001c 24B2     		sxth	r4, r4
 4329              	.LBE584:
 4330              	.LBE587:
 4331              	.LBB588:
 4332              	.LBB589:
ARM GAS  /tmp/cchqCFfA.s 			page 77


 4333 001e 981E     		subs	r0, r3, #2
 4334              	.LVL353:
 4335              		.loc 2 90 25 view .LVU1122
 4336              	.LBE589:
 4337              	.LBE588:
 4338              	.LBB593:
 4339              	.LBB585:
 4340 0020 BC83     		strh	r4, [r7, #28]	@ movhi
 4341              	.LBE585:
 4342              	.LBE593:
 4343              	.LBB594:
 4344              	.LBB590:
 4345 0022 00B2     		sxth	r0, r0
 4346              	.LBE590:
 4347              	.LBE594:
 4348              	.LBB595:
 4349              	.LBB596:
 4350 0024 D91E     		subs	r1, r3, #3
 4351              	.LBE596:
 4352              	.LBE595:
 4353              		.loc 1 848 9 view .LVU1123
 4354 0026 32F815A0 		ldrh	r10, [r2, r5, lsl #1]
 4355              	.LVL354:
 4356              		.loc 1 849 2 is_stmt 1 view .LVU1124
 4357              	.LBB600:
 4358              	.LBI588:
 4359              		.loc 2 88 22 view .LVU1125
 4360              	.LBB591:
 4361              		.loc 2 90 2 view .LVU1126
 4362              		.loc 2 90 25 is_stmt 0 view .LVU1127
 4363 002a B883     		strh	r0, [r7, #28]	@ movhi
 4364              	.LBE591:
 4365              	.LBE600:
 4366              	.LBB601:
 4367              	.LBB597:
 4368 002c 09B2     		sxth	r1, r1
 4369              	.LBE597:
 4370              	.LBE601:
 4371              	.LBB602:
 4372              	.LBB592:
 4373              		.loc 2 90 18 view .LVU1128
 4374 002e 32F91450 		ldrsh	r5, [r2, r4, lsl #1]
 4375              	.LVL355:
 4376              		.loc 2 90 18 view .LVU1129
 4377              	.LBE592:
 4378              	.LBE602:
 4379              		.loc 1 850 2 is_stmt 1 view .LVU1130
 4380              	.LBB603:
 4381              	.LBI595:
 4382              		.loc 2 88 22 view .LVU1131
 4383              	.LBB598:
 4384              		.loc 2 90 2 view .LVU1132
 4385              		.loc 2 90 25 is_stmt 0 view .LVU1133
 4386 0032 B983     		strh	r1, [r7, #28]	@ movhi
 4387              	.LBE598:
 4388              	.LBE603:
 4389              	.LBB604:
ARM GAS  /tmp/cchqCFfA.s 			page 78


 4390              	.LBB605:
 4391 0034 043B     		subs	r3, r3, #4
 4392              	.LBE605:
 4393              	.LBE604:
 4394              	.LBB607:
 4395              	.LBB599:
 4396              		.loc 2 90 18 view .LVU1134
 4397 0036 32F910B0 		ldrsh	fp, [r2, r0, lsl #1]
 4398              	.LVL356:
 4399              		.loc 2 90 18 view .LVU1135
 4400              	.LBE599:
 4401              	.LBE607:
 4402              		.loc 1 853 2 is_stmt 1 view .LVU1136
 4403              	.LBB608:
 4404              	.LBI604:
 4405              		.loc 2 88 22 view .LVU1137
 4406              	.LBB606:
 4407              		.loc 2 90 2 view .LVU1138
 4408              		.loc 2 90 25 is_stmt 0 view .LVU1139
 4409 003a BB83     		strh	r3, [r7, #28]	@ movhi
 4410              	.LBE606:
 4411              	.LBE608:
 4412              		.loc 1 853 9 view .LVU1140
 4413 003c 32F81120 		ldrh	r2, [r2, r1, lsl #1]
 4414              	.LVL357:
 4415              		.loc 1 855 2 is_stmt 1 view .LVU1141
 4416              		.loc 1 856 2 view .LVU1142
 4417              		.loc 1 856 14 view .LVU1143
 4418              		.loc 1 856 2 is_stmt 0 view .LVU1144
 4419 0040 42B3     		cbz	r2, .L277
 4420 0042 ABB2     		uxth	r3, r5
 4421 0044 02EB0308 		add	r8, r2, r3
 4422              	.LBB609:
 4423              	.LBB610:
 4424              	.LBB611:
 4425              		.loc 1 76 11 view .LVU1145
 4426 0048 DFF86090 		ldr	r9, .L291+4
 4427 004c 0FFA88F8 		sxth	r8, r8
 4428 0050 ABEB030B 		sub	fp, fp, r3
 4429              	.LVL358:
 4430              		.loc 1 76 11 view .LVU1146
 4431 0054 AAEB030A 		sub	r10, r10, r3
 4432              	.LVL359:
 4433              		.loc 1 76 11 view .LVU1147
 4434 0058 08E0     		b	.L281
 4435              	.LVL360:
 4436              	.L288:
 4437              		.loc 1 73 3 is_stmt 1 view .LVU1148
 4438              		.loc 1 76 11 is_stmt 0 view .LVU1149
 4439 005a 30EA2100 		bics	r0, r0, r1, asr #32
 4440 005e 28BF     		it	cs
 4441 0060 4846     		movcs	r0, r9
 4442              	.LVL361:
 4443              		.loc 1 76 11 view .LVU1150
 4444              	.LBE611:
 4445              	.LBE610:
 4446              	.LBE609:
ARM GAS  /tmp/cchqCFfA.s 			page 79


 4447              		.loc 1 856 2 view .LVU1151
 4448 0062 4545     		cmp	r5, r8
 4449              	.LBB614:
 4450              		.loc 1 860 30 view .LVU1152
 4451 0064 26F81400 		strh	r0, [r6, r4, lsl #1]	@ movhi
 4452              		.loc 1 860 30 view .LVU1153
 4453              	.LBE614:
 4454              		.loc 1 856 26 is_stmt 1 view .LVU1154
 4455              		.loc 1 856 14 view .LVU1155
 4456              		.loc 1 856 2 is_stmt 0 view .LVU1156
 4457 0068 14D0     		beq	.L277
 4458              	.LVL362:
 4459              	.L289:
 4460              		.loc 1 856 2 view .LVU1157
 4461 006a ABB2     		uxth	r3, r5
 4462              	.L281:
 4463              	.LBB615:
 4464              		.loc 1 858 3 is_stmt 1 discriminator 3 view .LVU1158
 4465              		.loc 1 858 16 is_stmt 0 discriminator 3 view .LVU1159
 4466 006c FE68     		ldr	r6, [r7, #12]
 4467              		.loc 1 859 27 discriminator 3 view .LVU1160
 4468 006e 03EB0B02 		add	r2, r3, fp
 4469              		.loc 1 858 10 discriminator 3 view .LVU1161
 4470 0072 36F91500 		ldrsh	r0, [r6, r5, lsl #1]
 4471              		.loc 1 859 27 discriminator 3 view .LVU1162
 4472 0076 12B2     		sxth	r2, r2
 4473 0078 5D1C     		adds	r5, r3, #1
 4474              	.LVL363:
 4475              		.loc 1 860 26 discriminator 3 view .LVU1163
 4476 007a 5344     		add	r3, r3, r10
 4477              		.loc 1 859 10 discriminator 3 view .LVU1164
 4478 007c 36F91210 		ldrsh	r1, [r6, r2, lsl #1]
 4479 0080 2DB2     		sxth	r5, r5
 4480              	.LVL364:
 4481              		.loc 1 859 3 is_stmt 1 discriminator 3 view .LVU1165
 4482              		.loc 1 860 3 discriminator 3 view .LVU1166
 4483              		.loc 1 860 26 is_stmt 0 discriminator 3 view .LVU1167
 4484 0082 9CB2     		uxth	r4, r3
 4485              	.LVL365:
 4486              	.LBB613:
 4487              	.LBI610:
 4488              		.loc 1 69 8 is_stmt 1 discriminator 3 view .LVU1168
 4489              	.LBB612:
 4490              		.loc 1 71 2 discriminator 3 view .LVU1169
 4491              		.loc 1 71 5 is_stmt 0 discriminator 3 view .LVU1170
 4492 0084 0028     		cmp	r0, #0
 4493 0086 E8D0     		beq	.L288
 4494 0088 FFF7FEFF 		bl	aseba_atan2.part.0
 4495              	.LVL366:
 4496              		.loc 1 71 5 discriminator 3 view .LVU1171
 4497              	.LBE612:
 4498              	.LBE613:
 4499              	.LBE615:
 4500              		.loc 1 856 2 view .LVU1172
 4501 008c 4545     		cmp	r5, r8
 4502              	.LBB616:
 4503              		.loc 1 860 30 view .LVU1173
ARM GAS  /tmp/cchqCFfA.s 			page 80


 4504 008e 26F81400 		strh	r0, [r6, r4, lsl #1]	@ movhi
 4505              	.LBE616:
 4506              		.loc 1 856 26 is_stmt 1 view .LVU1174
 4507              		.loc 1 856 14 view .LVU1175
 4508              		.loc 1 856 2 is_stmt 0 view .LVU1176
 4509 0092 EAD1     		bne	.L289
 4510              	.L277:
 4511              		.loc 1 862 1 view .LVU1177
 4512 0094 044B     		ldr	r3, .L291
 4513 0096 1A68     		ldr	r2, [r3]
 4514 0098 019B     		ldr	r3, [sp, #4]
 4515 009a 5A40     		eors	r2, r3, r2
 4516 009c 02D1     		bne	.L290
 4517 009e 03B0     		add	sp, sp, #12
 4518              		.cfi_remember_state
 4519              		.cfi_def_cfa_offset 36
 4520              		@ sp needed
 4521 00a0 BDE8F08F 		pop	{r4, r5, r6, r7, r8, r9, r10, fp, pc}
 4522              	.LVL367:
 4523              	.L290:
 4524              		.cfi_restore_state
 4525              		.loc 1 862 1 view .LVU1178
 4526 00a4 FFF7FEFF 		bl	__stack_chk_fail
 4527              	.LVL368:
 4528              	.L292:
 4529              		.align	2
 4530              	.L291:
 4531 00a8 00000000 		.word	.LC21
 4532 00ac 0080FFFF 		.word	-32768
 4533              		.cfi_endproc
 4534              	.LFE21:
 4535              		.size	AsebaNative_mathatan2, .-AsebaNative_mathatan2
 4536              		.section	.rodata.AsebaNative_mathsin.cst4,"aM",%progbits,4
 4537              		.align	2
 4538              	.LC22:
 4539 0000 00000000 		.word	__stack_chk_guard
 4540              		.section	.text.AsebaNative_mathsin,"ax",%progbits
 4541              		.align	1
 4542              		.p2align 4,,15
 4543              		.global	AsebaNative_mathsin
 4544              		.syntax unified
 4545              		.thumb
 4546              		.thumb_func
 4547              		.fpu fpv4-sp-d16
 4548              		.type	AsebaNative_mathsin, %function
 4549              	AsebaNative_mathsin:
 4550              	.LVL369:
 4551              	.LFB22:
 4552              		.loc 1 877 1 is_stmt 1 view -0
 4553              		.cfi_startproc
 4554              		@ args = 0, pretend = 0, frame = 8
 4555              		@ frame_needed = 0, uses_anonymous_args = 0
 4556              		.loc 1 877 1 is_stmt 0 view .LVU1180
 4557 0000 2DE9F043 		push	{r4, r5, r6, r7, r8, r9, lr}
 4558              		.cfi_def_cfa_offset 28
 4559              		.cfi_offset 4, -28
 4560              		.cfi_offset 5, -24
ARM GAS  /tmp/cchqCFfA.s 			page 81


 4561              		.cfi_offset 6, -20
 4562              		.cfi_offset 7, -16
 4563              		.cfi_offset 8, -12
 4564              		.cfi_offset 9, -8
 4565              		.cfi_offset 14, -4
 4566 0004 1C4B     		ldr	r3, .L304
 4567              	.LBB617:
 4568              	.LBB618:
 4569              		.loc 2 90 21 view .LVU1181
 4570 0006 B0F91C40 		ldrsh	r4, [r0, #28]
 4571              	.LBE618:
 4572              	.LBE617:
 4573              		.loc 1 877 1 view .LVU1182
 4574 000a 83B0     		sub	sp, sp, #12
 4575              		.cfi_def_cfa_offset 40
 4576              		.loc 1 877 1 view .LVU1183
 4577 000c 1B68     		ldr	r3, [r3]
 4578 000e 0193     		str	r3, [sp, #4]
 4579 0010 4FF00003 		mov	r3,#0
 4580              		.loc 1 879 2 is_stmt 1 view .LVU1184
 4581              	.LBB623:
 4582              	.LBB619:
 4583              		.loc 2 90 25 is_stmt 0 view .LVU1185
 4584 0014 A3B2     		uxth	r3, r4
 4585              	.LBE619:
 4586              	.LBE623:
 4587              		.loc 1 877 1 view .LVU1186
 4588 0016 0646     		mov	r6, r0
 4589              	.LBB624:
 4590              	.LBB620:
 4591              		.loc 2 90 25 view .LVU1187
 4592 0018 591E     		subs	r1, r3, #1
 4593              	.LBE620:
 4594              	.LBE624:
 4595              		.loc 1 879 21 view .LVU1188
 4596 001a 4069     		ldr	r0, [r0, #20]
 4597              	.LVL370:
 4598              	.LBB625:
 4599              	.LBI617:
 4600              		.loc 2 88 22 is_stmt 1 view .LVU1189
 4601              	.LBB621:
 4602              		.loc 2 90 2 view .LVU1190
 4603              		.loc 2 90 25 is_stmt 0 view .LVU1191
 4604 001c 09B2     		sxth	r1, r1
 4605              	.LBE621:
 4606              	.LBE625:
 4607              	.LBB626:
 4608              	.LBB627:
 4609 001e 9A1E     		subs	r2, r3, #2
 4610              	.LBE627:
 4611              	.LBE626:
 4612              	.LBB631:
 4613              	.LBB622:
 4614 0020 B183     		strh	r1, [r6, #28]	@ movhi
 4615              	.LBE622:
 4616              	.LBE631:
 4617              	.LBB632:
ARM GAS  /tmp/cchqCFfA.s 			page 82


 4618              	.LBB628:
 4619 0022 12B2     		sxth	r2, r2
 4620              	.LBE628:
 4621              	.LBE632:
 4622              		.loc 1 879 9 view .LVU1192
 4623 0024 30F81480 		ldrh	r8, [r0, r4, lsl #1]
 4624              	.LVL371:
 4625              		.loc 1 880 2 is_stmt 1 view .LVU1193
 4626              	.LBB633:
 4627              	.LBI626:
 4628              		.loc 2 88 22 view .LVU1194
 4629              	.LBB629:
 4630              		.loc 2 90 2 view .LVU1195
 4631              		.loc 2 90 25 is_stmt 0 view .LVU1196
 4632 0028 B283     		strh	r2, [r6, #28]	@ movhi
 4633              	.LBE629:
 4634              	.LBE633:
 4635              	.LBB634:
 4636              	.LBB635:
 4637 002a 033B     		subs	r3, r3, #3
 4638              	.LBE635:
 4639              	.LBE634:
 4640              	.LBB637:
 4641              	.LBB630:
 4642              		.loc 2 90 18 view .LVU1197
 4643 002c 30F91140 		ldrsh	r4, [r0, r1, lsl #1]
 4644              	.LVL372:
 4645              		.loc 2 90 18 view .LVU1198
 4646              	.LBE630:
 4647              	.LBE637:
 4648              		.loc 1 883 2 is_stmt 1 view .LVU1199
 4649              	.LBB638:
 4650              	.LBI634:
 4651              		.loc 2 88 22 view .LVU1200
 4652              	.LBB636:
 4653              		.loc 2 90 2 view .LVU1201
 4654              		.loc 2 90 25 is_stmt 0 view .LVU1202
 4655 0030 B383     		strh	r3, [r6, #28]	@ movhi
 4656              	.LBE636:
 4657              	.LBE638:
 4658              		.loc 1 883 9 view .LVU1203
 4659 0032 30F81270 		ldrh	r7, [r0, r2, lsl #1]
 4660              	.LVL373:
 4661              		.loc 1 885 2 is_stmt 1 view .LVU1204
 4662              		.loc 1 886 2 view .LVU1205
 4663              		.loc 1 886 14 view .LVU1206
 4664              		.loc 1 886 2 is_stmt 0 view .LVU1207
 4665 0036 AFB1     		cbz	r7, .L293
 4666 0038 A3B2     		uxth	r3, r4
 4667 003a 1F44     		add	r7, r7, r3
 4668              	.LVL374:
 4669              		.loc 1 886 2 view .LVU1208
 4670 003c 3FB2     		sxth	r7, r7
 4671 003e A8EB0308 		sub	r8, r8, r3
 4672              	.LVL375:
 4673              		.loc 1 886 2 view .LVU1209
 4674 0042 00E0     		b	.L295
ARM GAS  /tmp/cchqCFfA.s 			page 83


 4675              	.LVL376:
 4676              	.L302:
 4677              		.loc 1 886 2 view .LVU1210
 4678 0044 A3B2     		uxth	r3, r4
 4679              	.L295:
 4680              	.LBB639:
 4681              		.loc 1 888 3 is_stmt 1 discriminator 3 view .LVU1211
 4682              		.loc 1 888 16 is_stmt 0 discriminator 3 view .LVU1212
 4683 0046 D6F80C90 		ldr	r9, [r6, #12]
 4684              		.loc 1 889 32 discriminator 3 view .LVU1213
 4685 004a 39F91400 		ldrsh	r0, [r9, r4, lsl #1]
 4686              		.loc 1 889 26 discriminator 3 view .LVU1214
 4687 004e 03EB0805 		add	r5, r3, r8
 4688 0052 5C1C     		adds	r4, r3, #1
 4689              	.LVL377:
 4690              		.loc 1 889 32 discriminator 3 view .LVU1215
 4691 0054 FFF7FEFF 		bl	aseba_sin
 4692              	.LVL378:
 4693              		.loc 1 889 26 discriminator 3 view .LVU1216
 4694 0058 ADB2     		uxth	r5, r5
 4695 005a 24B2     		sxth	r4, r4
 4696              	.LVL379:
 4697              		.loc 1 889 3 is_stmt 1 discriminator 3 view .LVU1217
 4698              		.loc 1 889 3 is_stmt 0 discriminator 3 view .LVU1218
 4699              	.LBE639:
 4700              		.loc 1 886 2 discriminator 3 view .LVU1219
 4701 005c BC42     		cmp	r4, r7
 4702              	.LBB640:
 4703              		.loc 1 889 30 discriminator 3 view .LVU1220
 4704 005e 29F81500 		strh	r0, [r9, r5, lsl #1]	@ movhi
 4705              		.loc 1 889 30 discriminator 3 view .LVU1221
 4706              	.LBE640:
 4707              		.loc 1 886 26 is_stmt 1 discriminator 3 view .LVU1222
 4708              		.loc 1 886 14 discriminator 3 view .LVU1223
 4709              		.loc 1 886 2 is_stmt 0 discriminator 3 view .LVU1224
 4710 0062 EFD1     		bne	.L302
 4711              	.L293:
 4712              		.loc 1 891 1 view .LVU1225
 4713 0064 044B     		ldr	r3, .L304
 4714 0066 1A68     		ldr	r2, [r3]
 4715 0068 019B     		ldr	r3, [sp, #4]
 4716 006a 5A40     		eors	r2, r3, r2
 4717 006c 02D1     		bne	.L303
 4718 006e 03B0     		add	sp, sp, #12
 4719              		.cfi_remember_state
 4720              		.cfi_def_cfa_offset 28
 4721              		@ sp needed
 4722 0070 BDE8F083 		pop	{r4, r5, r6, r7, r8, r9, pc}
 4723              	.LVL380:
 4724              	.L303:
 4725              		.cfi_restore_state
 4726              		.loc 1 891 1 view .LVU1226
 4727 0074 FFF7FEFF 		bl	__stack_chk_fail
 4728              	.LVL381:
 4729              	.L305:
 4730              		.align	2
 4731              	.L304:
ARM GAS  /tmp/cchqCFfA.s 			page 84


 4732 0078 00000000 		.word	.LC22
 4733              		.cfi_endproc
 4734              	.LFE22:
 4735              		.size	AsebaNative_mathsin, .-AsebaNative_mathsin
 4736              		.section	.rodata.AsebaNative_mathcos.cst4,"aM",%progbits,4
 4737              		.align	2
 4738              	.LC23:
 4739 0000 00000000 		.word	__stack_chk_guard
 4740              		.section	.text.AsebaNative_mathcos,"ax",%progbits
 4741              		.align	1
 4742              		.p2align 4,,15
 4743              		.global	AsebaNative_mathcos
 4744              		.syntax unified
 4745              		.thumb
 4746              		.thumb_func
 4747              		.fpu fpv4-sp-d16
 4748              		.type	AsebaNative_mathcos, %function
 4749              	AsebaNative_mathcos:
 4750              	.LVL382:
 4751              	.LFB23:
 4752              		.loc 1 905 1 is_stmt 1 view -0
 4753              		.cfi_startproc
 4754              		@ args = 0, pretend = 0, frame = 8
 4755              		@ frame_needed = 0, uses_anonymous_args = 0
 4756              		.loc 1 905 1 is_stmt 0 view .LVU1228
 4757 0000 2DE9F043 		push	{r4, r5, r6, r7, r8, r9, lr}
 4758              		.cfi_def_cfa_offset 28
 4759              		.cfi_offset 4, -28
 4760              		.cfi_offset 5, -24
 4761              		.cfi_offset 6, -20
 4762              		.cfi_offset 7, -16
 4763              		.cfi_offset 8, -12
 4764              		.cfi_offset 9, -8
 4765              		.cfi_offset 14, -4
 4766 0004 1E4B     		ldr	r3, .L317
 4767              	.LBB641:
 4768              	.LBB642:
 4769              		.loc 2 90 21 view .LVU1229
 4770 0006 B0F91C40 		ldrsh	r4, [r0, #28]
 4771              	.LBE642:
 4772              	.LBE641:
 4773              		.loc 1 905 1 view .LVU1230
 4774 000a 83B0     		sub	sp, sp, #12
 4775              		.cfi_def_cfa_offset 40
 4776              		.loc 1 905 1 view .LVU1231
 4777 000c 1B68     		ldr	r3, [r3]
 4778 000e 0193     		str	r3, [sp, #4]
 4779 0010 4FF00003 		mov	r3,#0
 4780              		.loc 1 907 2 is_stmt 1 view .LVU1232
 4781              	.LBB647:
 4782              	.LBB643:
 4783              		.loc 2 90 25 is_stmt 0 view .LVU1233
 4784 0014 A3B2     		uxth	r3, r4
 4785              	.LBE643:
 4786              	.LBE647:
 4787              		.loc 1 905 1 view .LVU1234
 4788 0016 0646     		mov	r6, r0
ARM GAS  /tmp/cchqCFfA.s 			page 85


 4789              	.LBB648:
 4790              	.LBB644:
 4791              		.loc 2 90 25 view .LVU1235
 4792 0018 591E     		subs	r1, r3, #1
 4793              	.LBE644:
 4794              	.LBE648:
 4795              		.loc 1 907 21 view .LVU1236
 4796 001a 4069     		ldr	r0, [r0, #20]
 4797              	.LVL383:
 4798              	.LBB649:
 4799              	.LBI641:
 4800              		.loc 2 88 22 is_stmt 1 view .LVU1237
 4801              	.LBB645:
 4802              		.loc 2 90 2 view .LVU1238
 4803              		.loc 2 90 25 is_stmt 0 view .LVU1239
 4804 001c 09B2     		sxth	r1, r1
 4805              	.LBE645:
 4806              	.LBE649:
 4807              	.LBB650:
 4808              	.LBB651:
 4809 001e 9A1E     		subs	r2, r3, #2
 4810              	.LBE651:
 4811              	.LBE650:
 4812              	.LBB655:
 4813              	.LBB646:
 4814 0020 B183     		strh	r1, [r6, #28]	@ movhi
 4815              	.LBE646:
 4816              	.LBE655:
 4817              	.LBB656:
 4818              	.LBB652:
 4819 0022 12B2     		sxth	r2, r2
 4820              	.LBE652:
 4821              	.LBE656:
 4822              		.loc 1 907 9 view .LVU1240
 4823 0024 30F81480 		ldrh	r8, [r0, r4, lsl #1]
 4824              	.LVL384:
 4825              		.loc 1 908 2 is_stmt 1 view .LVU1241
 4826              	.LBB657:
 4827              	.LBI650:
 4828              		.loc 2 88 22 view .LVU1242
 4829              	.LBB653:
 4830              		.loc 2 90 2 view .LVU1243
 4831              		.loc 2 90 25 is_stmt 0 view .LVU1244
 4832 0028 B283     		strh	r2, [r6, #28]	@ movhi
 4833              	.LBE653:
 4834              	.LBE657:
 4835              	.LBB658:
 4836              	.LBB659:
 4837 002a 033B     		subs	r3, r3, #3
 4838              	.LBE659:
 4839              	.LBE658:
 4840              	.LBB661:
 4841              	.LBB654:
 4842              		.loc 2 90 18 view .LVU1245
 4843 002c 30F91140 		ldrsh	r4, [r0, r1, lsl #1]
 4844              	.LVL385:
 4845              		.loc 2 90 18 view .LVU1246
ARM GAS  /tmp/cchqCFfA.s 			page 86


 4846              	.LBE654:
 4847              	.LBE661:
 4848              		.loc 1 911 2 is_stmt 1 view .LVU1247
 4849              	.LBB662:
 4850              	.LBI658:
 4851              		.loc 2 88 22 view .LVU1248
 4852              	.LBB660:
 4853              		.loc 2 90 2 view .LVU1249
 4854              		.loc 2 90 25 is_stmt 0 view .LVU1250
 4855 0030 B383     		strh	r3, [r6, #28]	@ movhi
 4856              	.LBE660:
 4857              	.LBE662:
 4858              		.loc 1 911 9 view .LVU1251
 4859 0032 30F81270 		ldrh	r7, [r0, r2, lsl #1]
 4860              	.LVL386:
 4861              		.loc 1 913 2 is_stmt 1 view .LVU1252
 4862              		.loc 1 914 2 view .LVU1253
 4863              		.loc 1 914 14 view .LVU1254
 4864              		.loc 1 914 2 is_stmt 0 view .LVU1255
 4865 0036 C7B1     		cbz	r7, .L306
 4866 0038 A3B2     		uxth	r3, r4
 4867 003a 1F44     		add	r7, r7, r3
 4868              	.LVL387:
 4869              		.loc 1 914 2 view .LVU1256
 4870 003c 3FB2     		sxth	r7, r7
 4871 003e A8EB0308 		sub	r8, r8, r3
 4872              	.LVL388:
 4873              		.loc 1 914 2 view .LVU1257
 4874 0042 00E0     		b	.L308
 4875              	.LVL389:
 4876              	.L315:
 4877              		.loc 1 914 2 view .LVU1258
 4878 0044 A3B2     		uxth	r3, r4
 4879              	.L308:
 4880              	.LBB663:
 4881              		.loc 1 916 3 is_stmt 1 discriminator 3 view .LVU1259
 4882              		.loc 1 916 16 is_stmt 0 discriminator 3 view .LVU1260
 4883 0046 D6F80C90 		ldr	r9, [r6, #12]
 4884              	.LBB664:
 4885              	.LBB665:
 4886              		.loc 1 223 25 discriminator 3 view .LVU1261
 4887 004a 39F81420 		ldrh	r2, [r9, r4, lsl #1]
 4888 004e 02F58042 		add	r2, r2, #16384
 4889              		.loc 1 223 9 discriminator 3 view .LVU1262
 4890 0052 10B2     		sxth	r0, r2
 4891              	.LBE665:
 4892              	.LBE664:
 4893              		.loc 1 917 26 discriminator 3 view .LVU1263
 4894 0054 03EB0805 		add	r5, r3, r8
 4895 0058 5C1C     		adds	r4, r3, #1
 4896              	.LVL390:
 4897              	.LBB668:
 4898              	.LBB666:
 4899              		.loc 1 223 9 discriminator 3 view .LVU1264
 4900 005a FFF7FEFF 		bl	aseba_sin
 4901              	.LVL391:
 4902              	.LBE666:
ARM GAS  /tmp/cchqCFfA.s 			page 87


 4903              	.LBE668:
 4904              		.loc 1 917 26 discriminator 3 view .LVU1265
 4905 005e ADB2     		uxth	r5, r5
 4906 0060 24B2     		sxth	r4, r4
 4907              	.LVL392:
 4908              		.loc 1 917 3 is_stmt 1 discriminator 3 view .LVU1266
 4909              	.LBB669:
 4910              	.LBI664:
 4911              		.loc 1 221 8 discriminator 3 view .LVU1267
 4912              	.LBB667:
 4913              		.loc 1 223 2 discriminator 3 view .LVU1268
 4914              		.loc 1 223 2 is_stmt 0 discriminator 3 view .LVU1269
 4915              	.LBE667:
 4916              	.LBE669:
 4917              	.LBE663:
 4918              		.loc 1 914 2 discriminator 3 view .LVU1270
 4919 0062 BC42     		cmp	r4, r7
 4920              	.LBB670:
 4921              		.loc 1 917 30 discriminator 3 view .LVU1271
 4922 0064 29F81500 		strh	r0, [r9, r5, lsl #1]	@ movhi
 4923              		.loc 1 917 30 discriminator 3 view .LVU1272
 4924              	.LBE670:
 4925              		.loc 1 914 26 is_stmt 1 discriminator 3 view .LVU1273
 4926              		.loc 1 914 14 discriminator 3 view .LVU1274
 4927              		.loc 1 914 2 is_stmt 0 discriminator 3 view .LVU1275
 4928 0068 ECD1     		bne	.L315
 4929              	.L306:
 4930              		.loc 1 919 1 view .LVU1276
 4931 006a 054B     		ldr	r3, .L317
 4932 006c 1A68     		ldr	r2, [r3]
 4933 006e 019B     		ldr	r3, [sp, #4]
 4934 0070 5A40     		eors	r2, r3, r2
 4935 0072 02D1     		bne	.L316
 4936 0074 03B0     		add	sp, sp, #12
 4937              		.cfi_remember_state
 4938              		.cfi_def_cfa_offset 28
 4939              		@ sp needed
 4940 0076 BDE8F083 		pop	{r4, r5, r6, r7, r8, r9, pc}
 4941              	.LVL393:
 4942              	.L316:
 4943              		.cfi_restore_state
 4944              		.loc 1 919 1 view .LVU1277
 4945 007a FFF7FEFF 		bl	__stack_chk_fail
 4946              	.LVL394:
 4947              	.L318:
 4948 007e 00BF     		.align	2
 4949              	.L317:
 4950 0080 00000000 		.word	.LC23
 4951              		.cfi_endproc
 4952              	.LFE23:
 4953              		.size	AsebaNative_mathcos, .-AsebaNative_mathcos
 4954              		.section	.rodata.AsebaNative_mathrot2.cst4,"aM",%progbits,4
 4955              		.align	2
 4956              	.LC24:
 4957 0000 00000000 		.word	__stack_chk_guard
 4958              		.section	.text.AsebaNative_mathrot2,"ax",%progbits
 4959              		.align	1
ARM GAS  /tmp/cchqCFfA.s 			page 88


 4960              		.p2align 4,,15
 4961              		.global	AsebaNative_mathrot2
 4962              		.syntax unified
 4963              		.thumb
 4964              		.thumb_func
 4965              		.fpu fpv4-sp-d16
 4966              		.type	AsebaNative_mathrot2, %function
 4967              	AsebaNative_mathrot2:
 4968              	.LVL395:
 4969              	.LFB24:
 4970              		.loc 1 933 1 is_stmt 1 view -0
 4971              		.cfi_startproc
 4972              		@ args = 0, pretend = 0, frame = 8
 4973              		@ frame_needed = 0, uses_anonymous_args = 0
 4974              		.loc 1 933 1 is_stmt 0 view .LVU1279
 4975 0000 2DE9F047 		push	{r4, r5, r6, r7, r8, r9, r10, lr}
 4976              		.cfi_def_cfa_offset 32
 4977              		.cfi_offset 4, -32
 4978              		.cfi_offset 5, -28
 4979              		.cfi_offset 6, -24
 4980              		.cfi_offset 7, -20
 4981              		.cfi_offset 8, -16
 4982              		.cfi_offset 9, -12
 4983              		.cfi_offset 10, -8
 4984              		.cfi_offset 14, -4
 4985 0004 234B     		ldr	r3, .L323
 4986              	.LBB671:
 4987              	.LBB672:
 4988              		.loc 2 90 21 view .LVU1280
 4989 0006 B0F91C50 		ldrsh	r5, [r0, #28]
 4990              	.LBE672:
 4991              	.LBE671:
 4992              		.loc 1 933 1 view .LVU1281
 4993 000a 82B0     		sub	sp, sp, #8
 4994              		.cfi_def_cfa_offset 40
 4995              		.loc 1 933 1 view .LVU1282
 4996 000c 1B68     		ldr	r3, [r3]
 4997 000e 0193     		str	r3, [sp, #4]
 4998 0010 4FF00003 		mov	r3,#0
 4999              		.loc 1 935 2 is_stmt 1 view .LVU1283
 5000              	.LBB678:
 5001              	.LBB673:
 5002              		.loc 2 90 25 is_stmt 0 view .LVU1284
 5003 0014 ABB2     		uxth	r3, r5
 5004              	.LBE673:
 5005              	.LBE678:
 5006              		.loc 1 933 1 view .LVU1285
 5007 0016 0446     		mov	r4, r0
 5008              	.LBB679:
 5009              	.LBB674:
 5010              		.loc 2 90 25 view .LVU1286
 5011 0018 5A1E     		subs	r2, r3, #1
 5012              	.LBE674:
 5013              	.LBE679:
 5014              		.loc 1 935 24 view .LVU1287
 5015 001a 4069     		ldr	r0, [r0, #20]
 5016              	.LVL396:
ARM GAS  /tmp/cchqCFfA.s 			page 89


 5017              	.LBB680:
 5018              	.LBI671:
 5019              		.loc 2 88 22 is_stmt 1 view .LVU1288
 5020              	.LBB675:
 5021              		.loc 2 90 2 view .LVU1289
 5022              	.LBE675:
 5023              	.LBE680:
 5024              		.loc 1 940 15 is_stmt 0 view .LVU1290
 5025 001c D4F80C90 		ldr	r9, [r4, #12]
 5026              	.LBB681:
 5027              	.LBB676:
 5028              		.loc 2 90 25 view .LVU1291
 5029 0020 12B2     		sxth	r2, r2
 5030              	.LBE676:
 5031              	.LBE681:
 5032              	.LBB682:
 5033              	.LBB683:
 5034 0022 991E     		subs	r1, r3, #2
 5035              	.LBE683:
 5036              	.LBE682:
 5037              	.LBB686:
 5038              	.LBB677:
 5039 0024 A283     		strh	r2, [r4, #28]	@ movhi
 5040              	.LBE677:
 5041              	.LBE686:
 5042              	.LBB687:
 5043              	.LBB684:
 5044 0026 09B2     		sxth	r1, r1
 5045              	.LBE684:
 5046              	.LBE687:
 5047              		.loc 1 935 9 view .LVU1292
 5048 0028 30F81580 		ldrh	r8, [r0, r5, lsl #1]
 5049              	.LVL397:
 5050              		.loc 1 936 2 is_stmt 1 view .LVU1293
 5051              	.LBB688:
 5052              	.LBI682:
 5053              		.loc 2 88 22 view .LVU1294
 5054              	.LBB685:
 5055              		.loc 2 90 2 view .LVU1295
 5056              		.loc 2 90 25 is_stmt 0 view .LVU1296
 5057 002c A183     		strh	r1, [r4, #28]	@ movhi
 5058              	.LBE685:
 5059              	.LBE688:
 5060              	.LBB689:
 5061              	.LBB690:
 5062 002e 033B     		subs	r3, r3, #3
 5063              	.LBE690:
 5064              	.LBE689:
 5065              		.loc 1 936 9 view .LVU1297
 5066 0030 30F81220 		ldrh	r2, [r0, r2, lsl #1]
 5067              	.LVL398:
 5068              		.loc 1 937 2 is_stmt 1 view .LVU1298
 5069              	.LBB692:
 5070              	.LBI689:
 5071              		.loc 2 88 22 view .LVU1299
 5072              	.LBB691:
 5073              		.loc 2 90 2 view .LVU1300
ARM GAS  /tmp/cchqCFfA.s 			page 90


 5074              		.loc 2 90 25 is_stmt 0 view .LVU1301
 5075 0034 A383     		strh	r3, [r4, #28]	@ movhi
 5076              	.LVL399:
 5077              		.loc 2 90 25 view .LVU1302
 5078              	.LBE691:
 5079              	.LBE692:
 5080              		.loc 1 940 2 is_stmt 1 view .LVU1303
 5081              		.loc 1 942 26 is_stmt 0 view .LVU1304
 5082 0036 30F81130 		ldrh	r3, [r0, r1, lsl #1]
 5083              		.loc 1 940 9 view .LVU1305
 5084 003a 39F91260 		ldrsh	r6, [r9, r2, lsl #1]
 5085              	.LVL400:
 5086              		.loc 1 941 2 is_stmt 1 view .LVU1306
 5087              		.loc 1 942 9 is_stmt 0 view .LVU1307
 5088 003e 39F913A0 		ldrsh	r10, [r9, r3, lsl #1]
 5089              		.loc 1 941 9 view .LVU1308
 5090 0042 09EB4202 		add	r2, r9, r2, lsl #1
 5091              	.LVL401:
 5092              	.LBB693:
 5093              	.LBB694:
 5094              		.loc 1 223 25 view .LVU1309
 5095 0046 0AF58040 		add	r0, r10, #16384
 5096              	.LVL402:
 5097              		.loc 1 223 9 view .LVU1310
 5098 004a 00B2     		sxth	r0, r0
 5099              	.LBE694:
 5100              	.LBE693:
 5101              		.loc 1 941 9 view .LVU1311
 5102 004c B2F90250 		ldrsh	r5, [r2, #2]
 5103              	.LVL403:
 5104              		.loc 1 942 2 is_stmt 1 view .LVU1312
 5105              		.loc 1 944 2 view .LVU1313
 5106              	.LBB696:
 5107              	.LBI693:
 5108              		.loc 1 221 8 view .LVU1314
 5109              	.LBB695:
 5110              		.loc 1 223 2 view .LVU1315
 5111              		.loc 1 223 9 is_stmt 0 view .LVU1316
 5112 0050 FFF7FEFF 		bl	aseba_sin
 5113              	.LVL404:
 5114              		.loc 1 223 9 view .LVU1317
 5115 0054 0746     		mov	r7, r0
 5116              	.LBE695:
 5117              	.LBE696:
 5118              		.loc 1 945 17 view .LVU1318
 5119 0056 5046     		mov	r0, r10
 5120              	.LVL405:
 5121              		.loc 1 945 2 is_stmt 1 view .LVU1319
 5122              		.loc 1 945 17 is_stmt 0 view .LVU1320
 5123 0058 FFF7FEFF 		bl	aseba_sin
 5124              	.LVL406:
 5125              		.loc 1 947 2 is_stmt 1 view .LVU1321
 5126              		.loc 1 948 2 view .LVU1322
 5127              		.loc 1 950 2 view .LVU1323
 5128              		.loc 1 947 38 is_stmt 0 view .LVU1324
 5129 005c 07FB06F3 		mul	r3, r7, r6
 5130              		.loc 1 947 50 view .LVU1325
ARM GAS  /tmp/cchqCFfA.s 			page 91


 5131 0060 00FB1533 		mls	r3, r0, r5, r3
 5132              		.loc 1 947 79 view .LVU1326
 5133 0064 DB13     		asrs	r3, r3, #15
 5134              		.loc 1 947 9 view .LVU1327
 5135 0066 29F81830 		strh	r3, [r9, r8, lsl #1]	@ movhi
 5136              		.loc 1 951 2 is_stmt 1 view .LVU1328
 5137              		.loc 1 951 32 is_stmt 0 view .LVU1329
 5138 006a E368     		ldr	r3, [r4, #12]
 5139              		.loc 1 948 66 view .LVU1330
 5140 006c 06FB00F6 		mul	r6, r6, r0
 5141              	.LVL407:
 5142              		.loc 1 951 32 view .LVU1331
 5143 0070 03EB4808 		add	r8, r3, r8, lsl #1
 5144              	.LVL408:
 5145              		.loc 1 948 50 view .LVU1332
 5146 0074 07FB0565 		mla	r5, r7, r5, r6
 5147              	.LVL409:
 5148              		.loc 1 952 1 view .LVU1333
 5149 0078 064B     		ldr	r3, .L323
 5150              		.loc 1 948 79 view .LVU1334
 5151 007a ED13     		asrs	r5, r5, #15
 5152              		.loc 1 948 9 view .LVU1335
 5153 007c A8F80250 		strh	r5, [r8, #2]	@ movhi
 5154              		.loc 1 952 1 view .LVU1336
 5155 0080 1A68     		ldr	r2, [r3]
 5156 0082 019B     		ldr	r3, [sp, #4]
 5157 0084 5A40     		eors	r2, r3, r2
 5158 0086 02D1     		bne	.L322
 5159 0088 02B0     		add	sp, sp, #8
 5160              		.cfi_remember_state
 5161              		.cfi_def_cfa_offset 32
 5162              		@ sp needed
 5163 008a BDE8F087 		pop	{r4, r5, r6, r7, r8, r9, r10, pc}
 5164              	.LVL410:
 5165              	.L322:
 5166              		.cfi_restore_state
 5167              		.loc 1 952 1 view .LVU1337
 5168 008e FFF7FEFF 		bl	__stack_chk_fail
 5169              	.LVL411:
 5170              	.L324:
 5171              		.loc 1 952 1 view .LVU1338
 5172 0092 00BF     		.align	2
 5173              	.L323:
 5174 0094 00000000 		.word	.LC24
 5175              		.cfi_endproc
 5176              	.LFE24:
 5177              		.size	AsebaNative_mathrot2, .-AsebaNative_mathrot2
 5178              		.section	.rodata.AsebaNative_mathsqrt.cst4,"aM",%progbits,4
 5179              		.align	2
 5180              	.LC25:
 5181 0000 00000000 		.word	__stack_chk_guard
 5182              		.section	.text.AsebaNative_mathsqrt,"ax",%progbits
 5183              		.align	1
 5184              		.p2align 4,,15
 5185              		.global	AsebaNative_mathsqrt
 5186              		.syntax unified
 5187              		.thumb
ARM GAS  /tmp/cchqCFfA.s 			page 92


 5188              		.thumb_func
 5189              		.fpu fpv4-sp-d16
 5190              		.type	AsebaNative_mathsqrt, %function
 5191              	AsebaNative_mathsqrt:
 5192              	.LVL412:
 5193              	.LFB25:
 5194              		.loc 1 967 1 is_stmt 1 view -0
 5195              		.cfi_startproc
 5196              		@ args = 0, pretend = 0, frame = 8
 5197              		@ frame_needed = 0, uses_anonymous_args = 0
 5198              		.loc 1 967 1 is_stmt 0 view .LVU1340
 5199 0000 2DE9F041 		push	{r4, r5, r6, r7, r8, lr}
 5200              		.cfi_def_cfa_offset 24
 5201              		.cfi_offset 4, -24
 5202              		.cfi_offset 5, -20
 5203              		.cfi_offset 6, -16
 5204              		.cfi_offset 7, -12
 5205              		.cfi_offset 8, -8
 5206              		.cfi_offset 14, -4
 5207 0004 294B     		ldr	r3, .L347
 5208              	.LBB697:
 5209              	.LBB698:
 5210              		.loc 2 90 21 view .LVU1341
 5211 0006 B0F91C50 		ldrsh	r5, [r0, #28]
 5212              	.LBE698:
 5213              	.LBE697:
 5214              		.loc 1 969 21 view .LVU1342
 5215 000a 4469     		ldr	r4, [r0, #20]
 5216              		.loc 1 967 1 view .LVU1343
 5217 000c 82B0     		sub	sp, sp, #8
 5218              		.cfi_def_cfa_offset 32
 5219              		.loc 1 967 1 view .LVU1344
 5220 000e 1B68     		ldr	r3, [r3]
 5221 0010 0193     		str	r3, [sp, #4]
 5222 0012 4FF00003 		mov	r3,#0
 5223              		.loc 1 969 2 is_stmt 1 view .LVU1345
 5224              	.LBB701:
 5225              	.LBI697:
 5226              		.loc 2 88 22 view .LVU1346
 5227              	.LVL413:
 5228              	.LBB699:
 5229              		.loc 2 90 2 view .LVU1347
 5230              		.loc 2 90 25 is_stmt 0 view .LVU1348
 5231 0016 ABB2     		uxth	r3, r5
 5232 0018 591E     		subs	r1, r3, #1
 5233 001a 09B2     		sxth	r1, r1
 5234              	.LBE699:
 5235              	.LBE701:
 5236              	.LBB702:
 5237              	.LBB703:
 5238 001c 9A1E     		subs	r2, r3, #2
 5239              	.LBE703:
 5240              	.LBE702:
 5241              	.LBB707:
 5242              	.LBB700:
 5243 001e 8183     		strh	r1, [r0, #28]	@ movhi
 5244              	.LBE700:
ARM GAS  /tmp/cchqCFfA.s 			page 93


 5245              	.LBE707:
 5246              	.LBB708:
 5247              	.LBB704:
 5248 0020 12B2     		sxth	r2, r2
 5249              	.LBE704:
 5250              	.LBE708:
 5251              		.loc 1 969 9 view .LVU1349
 5252 0022 34F815E0 		ldrh	lr, [r4, r5, lsl #1]
 5253              	.LVL414:
 5254              		.loc 1 970 2 is_stmt 1 view .LVU1350
 5255              	.LBB709:
 5256              	.LBI702:
 5257              		.loc 2 88 22 view .LVU1351
 5258              	.LBB705:
 5259              		.loc 2 90 2 view .LVU1352
 5260              		.loc 2 90 25 is_stmt 0 view .LVU1353
 5261 0026 8283     		strh	r2, [r0, #28]	@ movhi
 5262              	.LBE705:
 5263              	.LBE709:
 5264              	.LBB710:
 5265              	.LBB711:
 5266 0028 033B     		subs	r3, r3, #3
 5267              	.LBE711:
 5268              	.LBE710:
 5269              	.LBB713:
 5270              	.LBB706:
 5271              		.loc 2 90 18 view .LVU1354
 5272 002a 34F91160 		ldrsh	r6, [r4, r1, lsl #1]
 5273              	.LVL415:
 5274              		.loc 2 90 18 view .LVU1355
 5275              	.LBE706:
 5276              	.LBE713:
 5277              		.loc 1 973 2 is_stmt 1 view .LVU1356
 5278              	.LBB714:
 5279              	.LBI710:
 5280              		.loc 2 88 22 view .LVU1357
 5281              	.LBB712:
 5282              		.loc 2 90 2 view .LVU1358
 5283              		.loc 2 90 25 is_stmt 0 view .LVU1359
 5284 002e 8383     		strh	r3, [r0, #28]	@ movhi
 5285              	.LBE712:
 5286              	.LBE714:
 5287              		.loc 1 973 9 view .LVU1360
 5288 0030 34F81220 		ldrh	r2, [r4, r2, lsl #1]
 5289              	.LVL416:
 5290              		.loc 1 975 2 is_stmt 1 view .LVU1361
 5291              		.loc 1 976 2 view .LVU1362
 5292              		.loc 1 976 14 view .LVU1363
 5293              		.loc 1 976 2 is_stmt 0 view .LVU1364
 5294 0034 72B3     		cbz	r2, .L325
 5295 0036 B3B2     		uxth	r3, r6
 5296 0038 1A44     		add	r2, r2, r3
 5297              	.LVL417:
 5298              		.loc 1 976 2 view .LVU1365
 5299 003a 0FFA82FC 		sxth	ip, r2
 5300 003e AEEB030E 		sub	lr, lr, r3
 5301              	.LVL418:
ARM GAS  /tmp/cchqCFfA.s 			page 94


 5302              	.L333:
 5303              	.LBB715:
 5304              		.loc 1 978 3 is_stmt 1 discriminator 3 view .LVU1366
 5305              		.loc 1 978 16 is_stmt 0 discriminator 3 view .LVU1367
 5306 0042 C768     		ldr	r7, [r0, #12]
 5307              		.loc 1 978 10 discriminator 3 view .LVU1368
 5308 0044 37F91610 		ldrsh	r1, [r7, r6, lsl #1]
 5309 0048 5E1C     		adds	r6, r3, #1
 5310              	.LVL419:
 5311              	.LBB716:
 5312              	.LBB717:
 5313              		.loc 1 233 7 discriminator 3 view .LVU1369
 5314 004a B1F5804F 		cmp	r1, #16384
 5315              	.LBE717:
 5316              	.LBE716:
 5317              		.loc 1 979 26 discriminator 3 view .LVU1370
 5318 004e 7344     		add	r3, r3, lr
 5319 0050 1FFA83F8 		uxth	r8, r3
 5320 0054 36B2     		sxth	r6, r6
 5321              	.LVL420:
 5322              		.loc 1 979 3 is_stmt 1 discriminator 3 view .LVU1371
 5323              	.LBB720:
 5324              	.LBI716:
 5325              		.loc 1 227 8 discriminator 3 view .LVU1372
 5326              	.LBB718:
 5327              		.loc 1 229 2 discriminator 3 view .LVU1373
 5328              		.loc 1 230 2 discriminator 3 view .LVU1374
 5329              		.loc 1 231 2 discriminator 3 view .LVU1375
 5330              		.loc 1 233 2 discriminator 3 view .LVU1376
 5331              		.loc 1 233 7 discriminator 3 view .LVU1377
 5332              		.loc 1 231 9 is_stmt 0 discriminator 3 view .LVU1378
 5333 0056 4FF48043 		mov	r3, #16384
 5334              		.loc 1 233 7 discriminator 3 view .LVU1379
 5335 005a 03DA     		bge	.L327
 5336              	.LVL421:
 5337              	.L328:
 5338              		.loc 1 234 3 is_stmt 1 view .LVU1380
 5339              		.loc 1 234 7 is_stmt 0 view .LVU1381
 5340 005c 9B10     		asrs	r3, r3, #2
 5341              	.LVL422:
 5342              		.loc 1 233 7 is_stmt 1 view .LVU1382
 5343 005e 9942     		cmp	r1, r3
 5344 0060 FCDB     		blt	.L328
 5345              		.loc 1 236 7 view .LVU1383
 5346 0062 FBB1     		cbz	r3, .L344
 5347              	.LVL423:
 5348              	.L327:
 5349              		.loc 1 230 9 is_stmt 0 view .LVU1384
 5350 0064 0022     		movs	r2, #0
 5351 0066 08E0     		b	.L332
 5352              	.LVL424:
 5353              	.L345:
 5354              		.loc 1 240 4 is_stmt 1 view .LVU1385
 5355              		.loc 1 240 14 is_stmt 0 view .LVU1386
 5356 0068 9DB2     		uxth	r5, r3
 5357              		.loc 1 240 7 view .LVU1387
 5358 006a AC18     		adds	r4, r5, r2
ARM GAS  /tmp/cchqCFfA.s 			page 95


 5359 006c 091B     		subs	r1, r1, r4
 5360              	.LVL425:
 5361              		.loc 1 241 21 view .LVU1388
 5362 006e 05EB6202 		add	r2, r5, r2, asr #1
 5363              	.LVL426:
 5364              		.loc 1 236 7 view .LVU1389
 5365 0072 9B10     		asrs	r3, r3, #2
 5366              	.LVL427:
 5367              		.loc 1 240 7 view .LVU1390
 5368 0074 09B2     		sxth	r1, r1
 5369              	.LVL428:
 5370              		.loc 1 241 4 is_stmt 1 view .LVU1391
 5371              		.loc 1 241 8 is_stmt 0 view .LVU1392
 5372 0076 12B2     		sxth	r2, r2
 5373              	.LVL429:
 5374              		.loc 1 247 3 is_stmt 1 view .LVU1393
 5375              		.loc 1 236 7 view .LVU1394
 5376 0078 06D0     		beq	.L329
 5377              	.LVL430:
 5378              	.L332:
 5379              		.loc 1 238 3 view .LVU1395
 5380              		.loc 1 238 17 is_stmt 0 view .LVU1396
 5381 007a D418     		adds	r4, r2, r3
 5382              		.loc 1 238 6 view .LVU1397
 5383 007c A142     		cmp	r1, r4
 5384 007e F3DA     		bge	.L345
 5385              		.loc 1 245 4 is_stmt 1 view .LVU1398
 5386              		.loc 1 236 7 is_stmt 0 view .LVU1399
 5387 0080 9B10     		asrs	r3, r3, #2
 5388              	.LVL431:
 5389              		.loc 1 245 8 view .LVU1400
 5390 0082 4FEA6202 		asr	r2, r2, #1
 5391              	.LVL432:
 5392              		.loc 1 247 3 is_stmt 1 view .LVU1401
 5393              		.loc 1 236 7 view .LVU1402
 5394 0086 F8D1     		bne	.L332
 5395              	.LVL433:
 5396              	.L329:
 5397              		.loc 1 249 2 view .LVU1403
 5398              		.loc 1 249 2 is_stmt 0 view .LVU1404
 5399              	.LBE718:
 5400              	.LBE720:
 5401              	.LBE715:
 5402              		.loc 1 976 2 view .LVU1405
 5403 0088 6645     		cmp	r6, ip
 5404              	.LBB722:
 5405              		.loc 1 979 30 view .LVU1406
 5406 008a 27F81820 		strh	r2, [r7, r8, lsl #1]	@ movhi
 5407              		.loc 1 979 30 view .LVU1407
 5408              	.LBE722:
 5409              		.loc 1 976 26 is_stmt 1 view .LVU1408
 5410              		.loc 1 976 14 view .LVU1409
 5411              		.loc 1 976 2 is_stmt 0 view .LVU1410
 5412 008e 01D0     		beq	.L325
 5413 0090 B3B2     		uxth	r3, r6
 5414 0092 D6E7     		b	.L333
 5415              	.L325:
ARM GAS  /tmp/cchqCFfA.s 			page 96


 5416              		.loc 1 981 1 view .LVU1411
 5417 0094 054B     		ldr	r3, .L347
 5418 0096 1A68     		ldr	r2, [r3]
 5419 0098 019B     		ldr	r3, [sp, #4]
 5420 009a 5A40     		eors	r2, r3, r2
 5421 009c 04D1     		bne	.L346
 5422 009e 02B0     		add	sp, sp, #8
 5423              		.cfi_remember_state
 5424              		.cfi_def_cfa_offset 24
 5425              		@ sp needed
 5426 00a0 BDE8F081 		pop	{r4, r5, r6, r7, r8, pc}
 5427              	.LVL434:
 5428              	.L344:
 5429              		.cfi_restore_state
 5430              	.LBB723:
 5431              	.LBB721:
 5432              	.LBB719:
 5433              		.loc 1 230 9 view .LVU1412
 5434 00a4 1A46     		mov	r2, r3
 5435 00a6 EFE7     		b	.L329
 5436              	.LVL435:
 5437              	.L346:
 5438              		.loc 1 230 9 view .LVU1413
 5439              	.LBE719:
 5440              	.LBE721:
 5441              	.LBE723:
 5442              		.loc 1 981 1 view .LVU1414
 5443 00a8 FFF7FEFF 		bl	__stack_chk_fail
 5444              	.LVL436:
 5445              	.L348:
 5446              		.loc 1 981 1 view .LVU1415
 5447              		.align	2
 5448              	.L347:
 5449 00ac 00000000 		.word	.LC25
 5450              		.cfi_endproc
 5451              	.LFE25:
 5452              		.size	AsebaNative_mathsqrt, .-AsebaNative_mathsqrt
 5453              		.section	.rodata.AsebaNative_vecnonzerosequence.cst4,"aM",%progbits,4
 5454              		.align	2
 5455              	.LC26:
 5456 0000 00000000 		.word	__stack_chk_guard
 5457              		.section	.text.AsebaNative_vecnonzerosequence,"ax",%progbits
 5458              		.align	1
 5459              		.p2align 4,,15
 5460              		.global	AsebaNative_vecnonzerosequence
 5461              		.syntax unified
 5462              		.thumb
 5463              		.thumb_func
 5464              		.fpu fpv4-sp-d16
 5465              		.type	AsebaNative_vecnonzerosequence, %function
 5466              	AsebaNative_vecnonzerosequence:
 5467              	.LVL437:
 5468              	.LFB26:
 5469              		.loc 1 995 1 is_stmt 1 view -0
 5470              		.cfi_startproc
 5471              		@ args = 0, pretend = 0, frame = 8
 5472              		@ frame_needed = 0, uses_anonymous_args = 0
ARM GAS  /tmp/cchqCFfA.s 			page 97


 5473              		.loc 1 995 1 is_stmt 0 view .LVU1417
 5474 0000 2DE9F043 		push	{r4, r5, r6, r7, r8, r9, lr}
 5475              		.cfi_def_cfa_offset 28
 5476              		.cfi_offset 4, -28
 5477              		.cfi_offset 5, -24
 5478              		.cfi_offset 6, -20
 5479              		.cfi_offset 7, -16
 5480              		.cfi_offset 8, -12
 5481              		.cfi_offset 9, -8
 5482              		.cfi_offset 14, -4
 5483 0004 504B     		ldr	r3, .L378
 5484              	.LBB724:
 5485              	.LBB725:
 5486              		.loc 2 90 21 view .LVU1418
 5487 0006 B0F91C70 		ldrsh	r7, [r0, #28]
 5488              	.LBE725:
 5489              	.LBE724:
 5490              		.loc 1 997 16 view .LVU1419
 5491 000a 4169     		ldr	r1, [r0, #20]
 5492              		.loc 1 1003 23 view .LVU1420
 5493 000c C468     		ldr	r4, [r0, #12]
 5494              		.loc 1 995 1 view .LVU1421
 5495 000e 83B0     		sub	sp, sp, #12
 5496              		.cfi_def_cfa_offset 40
 5497              		.loc 1 995 1 view .LVU1422
 5498 0010 1B68     		ldr	r3, [r3]
 5499 0012 0193     		str	r3, [sp, #4]
 5500 0014 4FF00003 		mov	r3,#0
 5501              		.loc 1 997 2 is_stmt 1 view .LVU1423
 5502              	.LBB728:
 5503              	.LBI724:
 5504              		.loc 2 88 22 view .LVU1424
 5505              	.LVL438:
 5506              	.LBB726:
 5507              		.loc 2 90 2 view .LVU1425
 5508              		.loc 2 90 25 is_stmt 0 view .LVU1426
 5509 0018 BBB2     		uxth	r3, r7
 5510 001a 5D1E     		subs	r5, r3, #1
 5511 001c 2DB2     		sxth	r5, r5
 5512              	.LBE726:
 5513              	.LBE728:
 5514              	.LBB729:
 5515              	.LBB730:
 5516 001e 9A1E     		subs	r2, r3, #2
 5517              	.LBE730:
 5518              	.LBE729:
 5519              	.LBB733:
 5520              	.LBB727:
 5521 0020 8583     		strh	r5, [r0, #28]	@ movhi
 5522              	.LBE727:
 5523              	.LBE733:
 5524              	.LBB734:
 5525              	.LBB731:
 5526 0022 12B2     		sxth	r2, r2
 5527              	.LBE731:
 5528              	.LBE734:
 5529              	.LBB735:
ARM GAS  /tmp/cchqCFfA.s 			page 98


 5530              	.LBB736:
 5531 0024 DE1E     		subs	r6, r3, #3
 5532              	.LBE736:
 5533              	.LBE735:
 5534              		.loc 1 997 9 view .LVU1427
 5535 0026 31F817C0 		ldrh	ip, [r1, r7, lsl #1]
 5536              	.LVL439:
 5537              		.loc 1 998 2 is_stmt 1 view .LVU1428
 5538              	.LBB740:
 5539              	.LBI729:
 5540              		.loc 2 88 22 view .LVU1429
 5541              	.LBB732:
 5542              		.loc 2 90 2 view .LVU1430
 5543              		.loc 2 90 25 is_stmt 0 view .LVU1431
 5544 002a 8283     		strh	r2, [r0, #28]	@ movhi
 5545              	.LBE732:
 5546              	.LBE740:
 5547              	.LBB741:
 5548              	.LBB737:
 5549 002c 36B2     		sxth	r6, r6
 5550              	.LBE737:
 5551              	.LBE741:
 5552              		.loc 1 998 9 view .LVU1432
 5553 002e 31F81550 		ldrh	r5, [r1, r5, lsl #1]
 5554              	.LVL440:
 5555              		.loc 1 999 2 is_stmt 1 view .LVU1433
 5556              	.LBB742:
 5557              	.LBI735:
 5558              		.loc 2 88 22 view .LVU1434
 5559              	.LBB738:
 5560              		.loc 2 90 2 view .LVU1435
 5561              		.loc 2 90 25 is_stmt 0 view .LVU1436
 5562 0032 8683     		strh	r6, [r0, #28]	@ movhi
 5563              	.LBE738:
 5564              	.LBE742:
 5565              	.LBB743:
 5566              	.LBB744:
 5567 0034 043B     		subs	r3, r3, #4
 5568              	.LBE744:
 5569              	.LBE743:
 5570              	.LBB746:
 5571              	.LBB739:
 5572              		.loc 2 90 18 view .LVU1437
 5573 0036 31F91270 		ldrsh	r7, [r1, r2, lsl #1]
 5574              	.LVL441:
 5575              		.loc 2 90 18 view .LVU1438
 5576              	.LBE739:
 5577              	.LBE746:
 5578              		.loc 1 1002 2 is_stmt 1 view .LVU1439
 5579              	.LBB747:
 5580              	.LBI743:
 5581              		.loc 2 88 22 view .LVU1440
 5582              	.LBB745:
 5583              		.loc 2 90 2 view .LVU1441
 5584              		.loc 2 90 25 is_stmt 0 view .LVU1442
 5585 003a 8383     		strh	r3, [r0, #28]	@ movhi
 5586              	.LBE745:
ARM GAS  /tmp/cchqCFfA.s 			page 99


 5587              	.LBE747:
 5588              		.loc 1 1015 8 view .LVU1443
 5589 003c 0022     		movs	r2, #0
 5590              		.loc 1 1002 9 view .LVU1444
 5591 003e 31F81630 		ldrh	r3, [r1, r6, lsl #1]
 5592              	.LVL442:
 5593              		.loc 1 1003 2 is_stmt 1 view .LVU1445
 5594              		.loc 1 1006 2 view .LVU1446
 5595              		.loc 1 1007 2 view .LVU1447
 5596              		.loc 1 1008 2 view .LVU1448
 5597              		.loc 1 1009 2 view .LVU1449
 5598              		.loc 1 1010 2 view .LVU1450
 5599              		.loc 1 1011 2 view .LVU1451
 5600              		.loc 1 1014 2 view .LVU1452
 5601              		.loc 1 1015 2 view .LVU1453
 5602 0042 1146     		mov	r1, r2
 5603              		.loc 1 1015 8 is_stmt 0 view .LVU1454
 5604 0044 03E0     		b	.L350
 5605              	.LVL443:
 5606              	.L352:
 5607              		.loc 1 1017 3 is_stmt 1 view .LVU1455
 5608              		.loc 1 1018 3 view .LVU1456
 5609 0046 0132     		adds	r2, r2, #1
 5610              	.LVL444:
 5611              		.loc 1 1018 6 is_stmt 0 view .LVU1457
 5612 0048 91B2     		uxth	r1, r2
 5613 004a 8B42     		cmp	r3, r1
 5614 004c 48D3     		bcc	.L374
 5615              	.LVL445:
 5616              	.L350:
 5617              		.loc 1 1015 8 is_stmt 1 view .LVU1458
 5618              		.loc 1 1015 27 is_stmt 0 view .LVU1459
 5619 004e 90B2     		uxth	r0, r2
 5620              		.loc 1 1015 22 view .LVU1460
 5621 0050 4619     		adds	r6, r0, r5
 5622 0052 34F91660 		ldrsh	r6, [r4, r6, lsl #1]
 5623              		.loc 1 1015 8 view .LVU1461
 5624 0056 002E     		cmp	r6, #0
 5625 0058 F5D1     		bne	.L352
 5626              		.loc 1 1003 34 view .LVU1462
 5627 005a BFB2     		uxth	r7, r7
 5628              		.loc 1 1003 9 view .LVU1463
 5629 005c 0A46     		mov	r2, r1
 5630 005e 34F917E0 		ldrsh	lr, [r4, r7, lsl #1]
 5631              	.LVL446:
 5632              	.L356:
 5633              		.loc 1 1027 3 is_stmt 1 view .LVU1464
 5634 0062 0132     		adds	r2, r2, #1
 5635              	.LVL447:
 5636              		.loc 1 1027 3 is_stmt 0 view .LVU1465
 5637 0064 92B2     		uxth	r2, r2
 5638              	.LVL448:
 5639              		.loc 1 1028 3 is_stmt 1 view .LVU1466
 5640              		.loc 1 1028 6 is_stmt 0 view .LVU1467
 5641 0066 9342     		cmp	r3, r2
 5642 0068 58D3     		bcc	.L375
 5643              		.loc 1 1025 8 is_stmt 1 view .LVU1468
ARM GAS  /tmp/cchqCFfA.s 			page 100


 5644              		.loc 1 1025 22 is_stmt 0 view .LVU1469
 5645 006a 5719     		adds	r7, r2, r5
 5646              		.loc 1 1025 8 view .LVU1470
 5647 006c 34F91770 		ldrsh	r7, [r4, r7, lsl #1]
 5648 0070 002F     		cmp	r7, #0
 5649 0072 F6D0     		beq	.L356
 5650 0074 B2FBF3F1 		udiv	r1, r2, r3
 5651 0078 03FB1121 		mls	r1, r3, r1, r2
 5652 007c 2944     		add	r1, r1, r5
 5653              		.loc 1 1048 15 view .LVU1471
 5654 007e 0027     		movs	r7, #0
 5655 0080 34F91100 		ldrsh	r0, [r4, r1, lsl #1]
 5656              		.loc 1 1046 8 view .LVU1472
 5657 0084 3946     		mov	r1, r7
 5658              	.L364:
 5659              	.LVL449:
 5660              		.loc 1 1050 2 is_stmt 1 view .LVU1473
 5661              		.loc 1 1053 3 view .LVU1474
 5662              		.loc 1 1054 3 view .LVU1475
 5663              		.loc 1 1054 9 is_stmt 0 view .LVU1476
 5664 0086 8846     		mov	r8, r1
 5665              	.LVL450:
 5666              		.loc 1 1054 9 is_stmt 1 view .LVU1477
 5667 0088 88B1     		cbz	r0, .L376
 5668              	.L359:
 5669              		.loc 1 1056 4 view .LVU1478
 5670 008a 08F10100 		add	r0, r8, #1
 5671 008e 0FFA80F8 		sxth	r8, r0
 5672              	.LVL451:
 5673              		.loc 1 1057 4 view .LVU1479
 5674              		.loc 1 1057 7 is_stmt 0 view .LVU1480
 5675 0092 9845     		cmp	r8, r3
 5676              		.loc 1 1056 4 view .LVU1481
 5677 0094 80B2     		uxth	r0, r0
 5678              		.loc 1 1057 7 view .LVU1482
 5679 0096 2EDA     		bge	.L358
 5680 0098 02EB0809 		add	r9, r2, r8
 5681 009c 99FBF3F0 		sdiv	r0, r9, r3
 5682 00a0 03FB1090 		mls	r0, r3, r0, r9
 5683 00a4 2844     		add	r0, r0, r5
 5684 00a6 34F91000 		ldrsh	r0, [r4, r0, lsl #1]
 5685              		.loc 1 1054 9 is_stmt 1 view .LVU1483
 5686 00aa 0028     		cmp	r0, #0
 5687 00ac EDD1     		bne	.L359
 5688              	.L376:
 5689              		.loc 1 1061 3 view .LVU1484
 5690              		.loc 1 1061 21 is_stmt 0 view .LVU1485
 5691 00ae A8EB0100 		sub	r0, r8, r1
 5692              		.loc 1 1061 13 view .LVU1486
 5693 00b2 00B2     		sxth	r0, r0
 5694              	.LVL452:
 5695              		.loc 1 1062 3 is_stmt 1 view .LVU1487
 5696              		.loc 1 1062 6 is_stmt 0 view .LVU1488
 5697 00b4 8642     		cmp	r6, r0
 5698 00b6 29DB     		blt	.L366
 5699              		.loc 1 1062 6 view .LVU1489
 5700 00b8 4146     		mov	r1, r8
ARM GAS  /tmp/cchqCFfA.s 			page 101


 5701              	.LVL453:
 5702              	.L360:
 5703              		.loc 1 1067 3 is_stmt 1 view .LVU1490
 5704              		.loc 1 1067 6 is_stmt 0 view .LVU1491
 5705 00ba 4345     		cmp	r3, r8
 5706 00bc 04DC     		bgt	.L362
 5707 00be 1EE0     		b	.L361
 5708              	.LVL454:
 5709              	.L363:
 5710              		.loc 1 1073 4 is_stmt 1 view .LVU1492
 5711 00c0 0131     		adds	r1, r1, #1
 5712              	.LVL455:
 5713              		.loc 1 1073 4 is_stmt 0 view .LVU1493
 5714 00c2 09B2     		sxth	r1, r1
 5715              	.LVL456:
 5716              		.loc 1 1074 4 is_stmt 1 view .LVU1494
 5717              		.loc 1 1074 7 is_stmt 0 view .LVU1495
 5718 00c4 9942     		cmp	r1, r3
 5719 00c6 1ADA     		bge	.L361
 5720              	.LVL457:
 5721              	.L362:
 5722              		.loc 1 1071 9 is_stmt 1 view .LVU1496
 5723              		.loc 1 1071 44 is_stmt 0 view .LVU1497
 5724 00c8 01EB0208 		add	r8, r1, r2
 5725              		.loc 1 1071 53 view .LVU1498
 5726 00cc 98FBF3F0 		sdiv	r0, r8, r3
 5727 00d0 03FB1080 		mls	r0, r3, r0, r8
 5728              		.loc 1 1071 23 view .LVU1499
 5729 00d4 2844     		add	r0, r0, r5
 5730 00d6 34F91000 		ldrsh	r0, [r4, r0, lsl #1]
 5731              		.loc 1 1071 9 view .LVU1500
 5732 00da 0028     		cmp	r0, #0
 5733 00dc F0D0     		beq	.L363
 5734 00de D2E7     		b	.L364
 5735              	.LVL458:
 5736              	.L374:
 5737              		.loc 1 1020 4 is_stmt 1 view .LVU1501
 5738              		.loc 1 1020 24 is_stmt 0 view .LVU1502
 5739 00e0 0023     		movs	r3, #0
 5740              	.LVL459:
 5741              		.loc 1 1020 24 view .LVU1503
 5742 00e2 24F81C30 		strh	r3, [r4, ip, lsl #1]	@ movhi
 5743              	.LVL460:
 5744              		.loc 1 1021 4 is_stmt 1 view .LVU1504
 5745              	.L349:
 5746              		.loc 1 1088 1 is_stmt 0 view .LVU1505
 5747 00e6 184B     		ldr	r3, .L378
 5748 00e8 1A68     		ldr	r2, [r3]
 5749 00ea 019B     		ldr	r3, [sp, #4]
 5750 00ec 5A40     		eors	r2, r3, r2
 5751 00ee 28D1     		bne	.L377
 5752 00f0 03B0     		add	sp, sp, #12
 5753              		.cfi_remember_state
 5754              		.cfi_def_cfa_offset 28
 5755              		@ sp needed
 5756 00f2 BDE8F083 		pop	{r4, r5, r6, r7, r8, r9, pc}
 5757              	.LVL461:
ARM GAS  /tmp/cchqCFfA.s 			page 102


 5758              	.L358:
 5759              		.cfi_restore_state
 5760              		.loc 1 1061 3 is_stmt 1 view .LVU1506
 5761              		.loc 1 1061 21 is_stmt 0 view .LVU1507
 5762 00f6 401A     		subs	r0, r0, r1
 5763              		.loc 1 1061 13 view .LVU1508
 5764 00f8 00B2     		sxth	r0, r0
 5765              	.LVL462:
 5766              		.loc 1 1062 3 is_stmt 1 view .LVU1509
 5767              		.loc 1 1062 6 is_stmt 0 view .LVU1510
 5768 00fa 8642     		cmp	r6, r0
 5769 00fc 06DB     		blt	.L366
 5770              	.LVL463:
 5771              	.L361:
 5772              		.loc 1 1080 2 is_stmt 1 view .LVU1511
 5773              		.loc 1 1080 5 is_stmt 0 view .LVU1512
 5774 00fe B645     		cmp	lr, r6
 5775 0100 17DD     		ble	.L365
 5776              	.LVL464:
 5777              	.L373:
 5778              		.loc 1 1082 3 is_stmt 1 view .LVU1513
 5779              		.loc 1 1082 23 is_stmt 0 view .LVU1514
 5780 0102 4FF6FF73 		movw	r3, #65535
 5781 0106 24F81C30 		strh	r3, [r4, ip, lsl #1]	@ movhi
 5782              		.loc 1 1082 23 view .LVU1515
 5783 010a ECE7     		b	.L349
 5784              	.LVL465:
 5785              	.L366:
 5786              		.loc 1 1064 4 is_stmt 1 view .LVU1516
 5787              		.loc 1 1065 4 view .LVU1517
 5788              		.loc 1 1065 26 is_stmt 0 view .LVU1518
 5789 010c 4144     		add	r1, r1, r8
 5790              	.LVL466:
 5791              		.loc 1 1065 38 view .LVU1519
 5792 010e 01EBD171 		add	r1, r1, r1, lsr #31
 5793              		.loc 1 1065 17 view .LVU1520
 5794 0112 41F34F07 		sbfx	r7, r1, #1, #16
 5795              	.LVL467:
 5796              		.loc 1 1065 17 view .LVU1521
 5797 0116 0646     		mov	r6, r0
 5798 0118 4146     		mov	r1, r8
 5799 011a CEE7     		b	.L360
 5800              	.LVL468:
 5801              	.L375:
 5802              		.loc 1 1030 4 is_stmt 1 view .LVU1522
 5803              		.loc 1 1030 7 is_stmt 0 view .LVU1523
 5804 011c 0029     		cmp	r1, #0
 5805 011e F0D0     		beq	.L373
 5806              	.LBB748:
 5807              		.loc 1 1036 5 is_stmt 1 view .LVU1524
 5808              	.LVL469:
 5809              		.loc 1 1037 5 view .LVU1525
 5810              		.loc 1 1036 12 is_stmt 0 view .LVU1526
 5811 0120 4B1E     		subs	r3, r1, #1
 5812              	.LVL470:
 5813              		.loc 1 1037 19 view .LVU1527
 5814 0122 9BB2     		uxth	r3, r3
ARM GAS  /tmp/cchqCFfA.s 			page 103


 5815              		.loc 1 1037 8 view .LVU1528
 5816 0124 7345     		cmp	r3, lr
 5817 0126 ECDB     		blt	.L373
 5818              		.loc 1 1040 6 is_stmt 1 view .LVU1529
 5819              		.loc 1 1040 41 is_stmt 0 view .LVU1530
 5820 0128 431E     		subs	r3, r0, #1
 5821              		.loc 1 1040 46 view .LVU1531
 5822 012a 5B10     		asrs	r3, r3, #1
 5823              		.loc 1 1040 26 view .LVU1532
 5824 012c 24F81C30 		strh	r3, [r4, ip, lsl #1]	@ movhi
 5825              		.loc 1 1040 26 view .LVU1533
 5826 0130 D9E7     		b	.L349
 5827              	.LVL471:
 5828              	.L365:
 5829              		.loc 1 1040 26 view .LVU1534
 5830              	.LBE748:
 5831              		.loc 1 1086 3 is_stmt 1 view .LVU1535
 5832              		.loc 1 1086 39 is_stmt 0 view .LVU1536
 5833 0132 1744     		add	r7, r7, r2
 5834              		.loc 1 1086 55 view .LVU1537
 5835 0134 97FBF3F2 		sdiv	r2, r7, r3
 5836              	.LVL472:
 5837              		.loc 1 1086 55 view .LVU1538
 5838 0138 03FB1273 		mls	r3, r3, r2, r7
 5839              	.LVL473:
 5840              		.loc 1 1086 23 view .LVU1539
 5841 013c 24F81C30 		strh	r3, [r4, ip, lsl #1]	@ movhi
 5842              		.loc 1 1086 23 view .LVU1540
 5843 0140 D1E7     		b	.L349
 5844              	.L377:
 5845              		.loc 1 1088 1 view .LVU1541
 5846 0142 FFF7FEFF 		bl	__stack_chk_fail
 5847              	.LVL474:
 5848              	.L379:
 5849              		.loc 1 1088 1 view .LVU1542
 5850 0146 00BF     		.align	2
 5851              	.L378:
 5852 0148 00000000 		.word	.LC26
 5853              		.cfi_endproc
 5854              	.LFE26:
 5855              		.size	AsebaNative_vecnonzerosequence, .-AsebaNative_vecnonzerosequence
 5856              		.section	.rodata.AsebaSetRandomSeed.cst4,"aM",%progbits,4
 5857              		.align	2
 5858              	.LC27:
 5859 0000 00000000 		.word	__stack_chk_guard
 5860              		.section	.text.AsebaSetRandomSeed,"ax",%progbits
 5861              		.align	1
 5862              		.p2align 4,,15
 5863              		.global	AsebaSetRandomSeed
 5864              		.syntax unified
 5865              		.thumb
 5866              		.thumb_func
 5867              		.fpu fpv4-sp-d16
 5868              		.type	AsebaSetRandomSeed, %function
 5869              	AsebaSetRandomSeed:
 5870              	.LVL475:
 5871              	.LFB27:
ARM GAS  /tmp/cchqCFfA.s 			page 104


 5872              		.loc 1 1106 1 is_stmt 1 view -0
 5873              		.cfi_startproc
 5874              		@ args = 0, pretend = 0, frame = 8
 5875              		@ frame_needed = 0, uses_anonymous_args = 0
 5876              		.loc 1 1106 1 is_stmt 0 view .LVU1544
 5877 0000 00B5     		push	{lr}
 5878              		.cfi_def_cfa_offset 4
 5879              		.cfi_offset 14, -4
 5880              		.loc 1 1107 12 view .LVU1545
 5881 0002 094B     		ldr	r3, .L384
 5882              		.loc 1 1106 1 view .LVU1546
 5883 0004 094A     		ldr	r2, .L384+4
 5884 0006 83B0     		sub	sp, sp, #12
 5885              		.cfi_def_cfa_offset 16
 5886              		.loc 1 1106 1 view .LVU1547
 5887 0008 1268     		ldr	r2, [r2]
 5888 000a 0192     		str	r2, [sp, #4]
 5889 000c 4FF00002 		mov	r2,#0
 5890              		.loc 1 1107 2 is_stmt 1 view .LVU1548
 5891              		.loc 1 1107 12 is_stmt 0 view .LVU1549
 5892 0010 1880     		strh	r0, [r3]	@ movhi
 5893              		.loc 1 1108 1 view .LVU1550
 5894 0012 064B     		ldr	r3, .L384+4
 5895 0014 1A68     		ldr	r2, [r3]
 5896 0016 019B     		ldr	r3, [sp, #4]
 5897 0018 5A40     		eors	r2, r3, r2
 5898 001a 02D1     		bne	.L383
 5899 001c 03B0     		add	sp, sp, #12
 5900              		.cfi_remember_state
 5901              		.cfi_def_cfa_offset 4
 5902              		@ sp needed
 5903 001e 5DF804FB 		ldr	pc, [sp], #4
 5904              	.L383:
 5905              		.cfi_restore_state
 5906 0022 FFF7FEFF 		bl	__stack_chk_fail
 5907              	.LVL476:
 5908              	.L385:
 5909              		.loc 1 1108 1 view .LVU1551
 5910 0026 00BF     		.align	2
 5911              	.L384:
 5912 0028 00000000 		.word	.LANCHOR2
 5913 002c 00000000 		.word	.LC27
 5914              		.cfi_endproc
 5915              	.LFE27:
 5916              		.size	AsebaSetRandomSeed, .-AsebaSetRandomSeed
 5917              		.section	.rodata.AsebaGetRandom.cst4,"aM",%progbits,4
 5918              		.align	2
 5919              	.LC28:
 5920 0000 00000000 		.word	__stack_chk_guard
 5921              		.section	.text.AsebaGetRandom,"ax",%progbits
 5922              		.align	1
 5923              		.p2align 4,,15
 5924              		.global	AsebaGetRandom
 5925              		.syntax unified
 5926              		.thumb
 5927              		.thumb_func
 5928              		.fpu fpv4-sp-d16
ARM GAS  /tmp/cchqCFfA.s 			page 105


 5929              		.type	AsebaGetRandom, %function
 5930              	AsebaGetRandom:
 5931              	.LFB28:
 5932              		.loc 1 1111 1 is_stmt 1 view -0
 5933              		.cfi_startproc
 5934              		@ args = 0, pretend = 0, frame = 8
 5935              		@ frame_needed = 0, uses_anonymous_args = 0
 5936 0000 00B5     		push	{lr}
 5937              		.cfi_def_cfa_offset 4
 5938              		.cfi_offset 14, -4
 5939              		.loc 1 1112 32 is_stmt 0 view .LVU1553
 5940 0002 104A     		ldr	r2, .L390
 5941              		.loc 1 1111 1 view .LVU1554
 5942 0004 104B     		ldr	r3, .L390+4
 5943              		.loc 1 1112 32 view .LVU1555
 5944 0006 1088     		ldrh	r0, [r2]
 5945              		.loc 1 1111 1 view .LVU1556
 5946 0008 83B0     		sub	sp, sp, #12
 5947              		.cfi_def_cfa_offset 16
 5948              		.loc 1 1111 1 view .LVU1557
 5949 000a 1B68     		ldr	r3, [r3]
 5950 000c 0193     		str	r3, [sp, #4]
 5951 000e 4FF00003 		mov	r3,#0
 5952              		.loc 1 1112 2 is_stmt 1 view .LVU1558
 5953              		.loc 1 1112 32 is_stmt 0 view .LVU1559
 5954 0012 C0EBC003 		rsb	r3, r0, r0, lsl #3
 5955 0016 00EB8303 		add	r3, r0, r3, lsl #2
 5956 001a C3EBC303 		rsb	r3, r3, r3, lsl #3
 5957 001e C3EB4313 		rsb	r3, r3, r3, lsl #5
 5958 0022 00EB8300 		add	r0, r0, r3, lsl #2
 5959 0026 00F55850 		add	r0, r0, #13824
 5960 002a 1930     		adds	r0, r0, #25
 5961              		.loc 1 1114 1 view .LVU1560
 5962 002c 064B     		ldr	r3, .L390+4
 5963              		.loc 1 1112 32 view .LVU1561
 5964 002e 80B2     		uxth	r0, r0
 5965              		.loc 1 1112 12 view .LVU1562
 5966 0030 1080     		strh	r0, [r2]	@ movhi
 5967              		.loc 1 1113 2 is_stmt 1 view .LVU1563
 5968              		.loc 1 1114 1 is_stmt 0 view .LVU1564
 5969 0032 1A68     		ldr	r2, [r3]
 5970 0034 019B     		ldr	r3, [sp, #4]
 5971 0036 5A40     		eors	r2, r3, r2
 5972 0038 02D1     		bne	.L389
 5973 003a 03B0     		add	sp, sp, #12
 5974              		.cfi_remember_state
 5975              		.cfi_def_cfa_offset 4
 5976              		@ sp needed
 5977 003c 5DF804FB 		ldr	pc, [sp], #4
 5978              	.L389:
 5979              		.cfi_restore_state
 5980 0040 FFF7FEFF 		bl	__stack_chk_fail
 5981              	.LVL477:
 5982              	.L391:
 5983              		.align	2
 5984              	.L390:
 5985 0044 00000000 		.word	.LANCHOR2
ARM GAS  /tmp/cchqCFfA.s 			page 106


 5986 0048 00000000 		.word	.LC28
 5987              		.cfi_endproc
 5988              	.LFE28:
 5989              		.size	AsebaGetRandom, .-AsebaGetRandom
 5990              		.section	.rodata.AsebaNative_rand.cst4,"aM",%progbits,4
 5991              		.align	2
 5992              	.LC29:
 5993 0000 00000000 		.word	__stack_chk_guard
 5994              		.section	.text.AsebaNative_rand,"ax",%progbits
 5995              		.align	1
 5996              		.p2align 4,,15
 5997              		.global	AsebaNative_rand
 5998              		.syntax unified
 5999              		.thumb
 6000              		.thumb_func
 6001              		.fpu fpv4-sp-d16
 6002              		.type	AsebaNative_rand, %function
 6003              	AsebaNative_rand:
 6004              	.LVL478:
 6005              	.LFB29:
 6006              		.loc 1 1117 1 is_stmt 1 view -0
 6007              		.cfi_startproc
 6008              		@ args = 0, pretend = 0, frame = 8
 6009              		@ frame_needed = 0, uses_anonymous_args = 0
 6010              		.loc 1 1117 1 is_stmt 0 view .LVU1566
 6011 0000 F0B5     		push	{r4, r5, r6, r7, lr}
 6012              		.cfi_def_cfa_offset 20
 6013              		.cfi_offset 4, -20
 6014              		.cfi_offset 5, -16
 6015              		.cfi_offset 6, -12
 6016              		.cfi_offset 7, -8
 6017              		.cfi_offset 14, -4
 6018              	.LBB749:
 6019              	.LBB750:
 6020              		.loc 2 90 21 view .LVU1567
 6021 0002 B0F91C10 		ldrsh	r1, [r0, #28]
 6022              	.LBE750:
 6023              	.LBE749:
 6024              		.loc 1 1117 1 view .LVU1568
 6025 0006 1B4B     		ldr	r3, .L402
 6026              		.loc 1 1119 21 view .LVU1569
 6027 0008 4469     		ldr	r4, [r0, #20]
 6028              	.LBB753:
 6029              	.LBB751:
 6030              		.loc 2 90 25 view .LVU1570
 6031 000a 8AB2     		uxth	r2, r1
 6032              	.LBE751:
 6033              	.LBE753:
 6034              		.loc 1 1117 1 view .LVU1571
 6035 000c 83B0     		sub	sp, sp, #12
 6036              		.cfi_def_cfa_offset 32
 6037              		.loc 1 1117 1 view .LVU1572
 6038 000e 1B68     		ldr	r3, [r3]
 6039 0010 0193     		str	r3, [sp, #4]
 6040 0012 4FF00003 		mov	r3,#0
 6041              		.loc 1 1119 2 is_stmt 1 view .LVU1573
 6042              	.LBB754:
ARM GAS  /tmp/cchqCFfA.s 			page 107


 6043              	.LBI749:
 6044              		.loc 2 88 22 view .LVU1574
 6045              	.LVL479:
 6046              	.LBB752:
 6047              		.loc 2 90 2 view .LVU1575
 6048              		.loc 2 90 25 is_stmt 0 view .LVU1576
 6049 0016 531E     		subs	r3, r2, #1
 6050 0018 1BB2     		sxth	r3, r3
 6051 001a 8383     		strh	r3, [r0, #28]	@ movhi
 6052              	.LBE752:
 6053              	.LBE754:
 6054              	.LBB755:
 6055              	.LBB756:
 6056 001c 023A     		subs	r2, r2, #2
 6057              	.LBE756:
 6058              	.LBE755:
 6059              		.loc 1 1119 9 view .LVU1577
 6060 001e 34F81110 		ldrh	r1, [r4, r1, lsl #1]
 6061              	.LVL480:
 6062              		.loc 1 1122 2 is_stmt 1 view .LVU1578
 6063              	.LBB758:
 6064              	.LBI755:
 6065              		.loc 2 88 22 view .LVU1579
 6066              	.LBB757:
 6067              		.loc 2 90 2 view .LVU1580
 6068              		.loc 2 90 25 is_stmt 0 view .LVU1581
 6069 0022 8283     		strh	r2, [r0, #28]	@ movhi
 6070              	.LBE757:
 6071              	.LBE758:
 6072              		.loc 1 1122 9 view .LVU1582
 6073 0024 34F81350 		ldrh	r5, [r4, r3, lsl #1]
 6074              	.LVL481:
 6075              		.loc 1 1124 2 is_stmt 1 view .LVU1583
 6076              		.loc 1 1125 2 view .LVU1584
 6077              		.loc 1 1125 14 view .LVU1585
 6078              		.loc 1 1125 2 is_stmt 0 view .LVU1586
 6079 0028 D5B1     		cbz	r5, .L392
 6080 002a 134F     		ldr	r7, .L402+4
 6081 002c 0D44     		add	r5, r5, r1
 6082              	.LVL482:
 6083              		.loc 1 1125 2 view .LVU1587
 6084 002e 3B88     		ldrh	r3, [r7]
 6085              	.LVL483:
 6086              		.loc 1 1125 2 view .LVU1588
 6087 0030 ADB2     		uxth	r5, r5
 6088              	.LBB759:
 6089              	.LBB760:
 6090              		.loc 1 1112 32 view .LVU1589
 6091 0032 43F21966 		movw	r6, #13849
 6092              	.LVL484:
 6093              	.L394:
 6094              		.loc 1 1112 32 view .LVU1590
 6095              	.LBE760:
 6096              	.LBE759:
 6097              		.loc 1 1127 3 is_stmt 1 view .LVU1591
 6098              	.LBB764:
 6099              	.LBI759:
ARM GAS  /tmp/cchqCFfA.s 			page 108


 6100              		.loc 1 1110 8 view .LVU1592
 6101              	.LBB761:
 6102              		.loc 1 1112 2 view .LVU1593
 6103              		.loc 1 1112 32 is_stmt 0 view .LVU1594
 6104 0036 C3EBC302 		rsb	r2, r3, r3, lsl #3
 6105 003a 03EB8202 		add	r2, r3, r2, lsl #2
 6106 003e C2EBC202 		rsb	r2, r2, r2, lsl #3
 6107 0042 C2EB4212 		rsb	r2, r2, r2, lsl #5
 6108 0046 03EB8203 		add	r3, r3, r2, lsl #2
 6109 004a 0A46     		mov	r2, r1
 6110              	.LBE761:
 6111              	.LBE764:
 6112              		.loc 1 1127 26 view .LVU1595
 6113 004c 0131     		adds	r1, r1, #1
 6114              	.LVL485:
 6115              		.loc 1 1127 30 view .LVU1596
 6116 004e C468     		ldr	r4, [r0, #12]
 6117              	.LBB765:
 6118              	.LBB762:
 6119              		.loc 1 1112 32 view .LVU1597
 6120 0050 3344     		add	r3, r3, r6
 6121              	.LBE762:
 6122              	.LBE765:
 6123              		.loc 1 1127 26 view .LVU1598
 6124 0052 89B2     		uxth	r1, r1
 6125              	.LBB766:
 6126              	.LBB763:
 6127              		.loc 1 1112 32 view .LVU1599
 6128 0054 9BB2     		uxth	r3, r3
 6129              		.loc 1 1113 2 is_stmt 1 view .LVU1600
 6130              	.LVL486:
 6131              		.loc 1 1113 2 is_stmt 0 view .LVU1601
 6132              	.LBE763:
 6133              	.LBE766:
 6134              		.loc 1 1125 2 view .LVU1602
 6135 0056 A942     		cmp	r1, r5
 6136              		.loc 1 1127 30 view .LVU1603
 6137 0058 24F81230 		strh	r3, [r4, r2, lsl #1]	@ movhi
 6138              		.loc 1 1125 26 is_stmt 1 view .LVU1604
 6139              		.loc 1 1125 14 view .LVU1605
 6140              		.loc 1 1125 2 is_stmt 0 view .LVU1606
 6141 005c EBD1     		bne	.L394
 6142 005e 3B80     		strh	r3, [r7]	@ movhi
 6143              	.L392:
 6144              		.loc 1 1129 1 view .LVU1607
 6145 0060 044B     		ldr	r3, .L402
 6146 0062 1A68     		ldr	r2, [r3]
 6147 0064 019B     		ldr	r3, [sp, #4]
 6148 0066 5A40     		eors	r2, r3, r2
 6149 0068 01D1     		bne	.L401
 6150 006a 03B0     		add	sp, sp, #12
 6151              		.cfi_remember_state
 6152              		.cfi_def_cfa_offset 20
 6153              		@ sp needed
 6154 006c F0BD     		pop	{r4, r5, r6, r7, pc}
 6155              	.L401:
 6156              		.cfi_restore_state
ARM GAS  /tmp/cchqCFfA.s 			page 109


 6157 006e FFF7FEFF 		bl	__stack_chk_fail
 6158              	.LVL487:
 6159              	.L403:
 6160              		.loc 1 1129 1 view .LVU1608
 6161 0072 00BF     		.align	2
 6162              	.L402:
 6163 0074 00000000 		.word	.LC29
 6164 0078 00000000 		.word	.LANCHOR2
 6165              		.cfi_endproc
 6166              	.LFE29:
 6167              		.size	AsebaNative_rand, .-AsebaNative_rand
 6168              		.global	AsebaNativeDescription_rand
 6169              		.section	.rodata.str1.4,"aMS",%progbits,1
 6170              		.align	2
 6171              	.LC30:
 6172 0000 6D617468 		.ascii	"math.rand\000"
 6172      2E72616E 
 6172      6400
 6173 000a 0000     		.align	2
 6174              	.LC31:
 6175 000c 66696C6C 		.ascii	"fill array with random values\000"
 6175      20617272 
 6175      61792077 
 6175      69746820 
 6175      72616E64 
 6176 002a 0000     		.align	2
 6177              	.LC32:
 6178 002c 64657374 		.ascii	"dest\000"
 6178      00
 6179              		.global	AsebaNativeDescription_vecnonzerosequence
 6180 0031 000000   		.align	2
 6181              	.LC33:
 6182 0034 6D617468 		.ascii	"math.nzseq\000"
 6182      2E6E7A73 
 6182      657100
 6183 003f 00       		.align	2
 6184              	.LC34:
 6185 0040 77726974 		.ascii	"write to dest the middle index of the largest seque"
 6185      6520746F 
 6185      20646573 
 6185      74207468 
 6185      65206D69 
 6186 0073 6E636520 		.ascii	"nce of non-zero elements from src, -1 if not found "
 6186      6F66206E 
 6186      6F6E2D7A 
 6186      65726F20 
 6186      656C656D 
 6187 00a6 6F722069 		.ascii	"or if smaller than minLength\000"
 6187      6620736D 
 6187      616C6C65 
 6187      72207468 
 6187      616E206D 
 6188 00c3 00       		.align	2
 6189              	.LC35:
 6190 00c4 73726300 		.ascii	"src\000"
 6191              		.align	2
 6192              	.LC36:
ARM GAS  /tmp/cchqCFfA.s 			page 110


 6193 00c8 6D696E4C 		.ascii	"minLength\000"
 6193      656E6774 
 6193      6800
 6194              		.global	AsebaNativeDescription_mathsqrt
 6195 00d2 0000     		.align	2
 6196              	.LC37:
 6197 00d4 6D617468 		.ascii	"math.sqrt\000"
 6197      2E737172 
 6197      7400
 6198 00de 0000     		.align	2
 6199              	.LC38:
 6200 00e0 70657266 		.ascii	"performs dest = sqrt(x) element by element\000"
 6200      6F726D73 
 6200      20646573 
 6200      74203D20 
 6200      73717274 
 6201 010b 00       		.align	2
 6202              	.LC39:
 6203 010c 7800     		.ascii	"x\000"
 6204              		.global	AsebaNativeDescription_mathrot2
 6205 010e 0000     		.align	2
 6206              	.LC40:
 6207 0110 6D617468 		.ascii	"math.rot2\000"
 6207      2E726F74 
 6207      3200
 6208 011a 0000     		.align	2
 6209              	.LC41:
 6210 011c 726F7461 		.ascii	"rotates v of angle a to dest\000"
 6210      74657320 
 6210      76206F66 
 6210      20616E67 
 6210      6C652061 
 6211 0139 000000   		.align	2
 6212              	.LC42:
 6213 013c 7600     		.ascii	"v\000"
 6214 013e 0000     		.align	2
 6215              	.LC43:
 6216 0140 6100     		.ascii	"a\000"
 6217              		.global	AsebaNativeDescription_mathcos
 6218 0142 0000     		.align	2
 6219              	.LC44:
 6220 0144 6D617468 		.ascii	"math.cos\000"
 6220      2E636F73 
 6220      00
 6221 014d 000000   		.align	2
 6222              	.LC45:
 6223 0150 70657266 		.ascii	"performs dest = cos(x) element by element\000"
 6223      6F726D73 
 6223      20646573 
 6223      74203D20 
 6223      636F7328 
 6224              		.global	AsebaNativeDescription_mathsin
 6225 017a 0000     		.align	2
 6226              	.LC46:
 6227 017c 6D617468 		.ascii	"math.sin\000"
 6227      2E73696E 
 6227      00
ARM GAS  /tmp/cchqCFfA.s 			page 111


 6228 0185 000000   		.align	2
 6229              	.LC47:
 6230 0188 70657266 		.ascii	"performs dest = sin(x) element by element\000"
 6230      6F726D73 
 6230      20646573 
 6230      74203D20 
 6230      73696E28 
 6231              		.global	AsebaNativeDescription_mathatan2
 6232 01b2 0000     		.align	2
 6233              	.LC48:
 6234 01b4 6D617468 		.ascii	"math.atan2\000"
 6234      2E617461 
 6234      6E3200
 6235 01bf 00       		.align	2
 6236              	.LC49:
 6237 01c0 70657266 		.ascii	"performs dest = atan2(y,x) element by element\000"
 6237      6F726D73 
 6237      20646573 
 6237      74203D20 
 6237      6174616E 
 6238 01ee 0000     		.align	2
 6239              	.LC50:
 6240 01f0 7900     		.ascii	"y\000"
 6241              		.global	AsebaNativeDescription_mathmuldiv
 6242 01f2 0000     		.align	2
 6243              	.LC51:
 6244 01f4 6D617468 		.ascii	"math.muldiv\000"
 6244      2E6D756C 
 6244      64697600 
 6245              		.align	2
 6246              	.LC52:
 6247 0200 70657266 		.ascii	"performs dest = (a*b)/c in 32 bits element by eleme"
 6247      6F726D73 
 6247      20646573 
 6247      74203D20 
 6247      28612A62 
 6248 0233 6E7400   		.ascii	"nt\000"
 6249 0236 0000     		.align	2
 6250              	.LC53:
 6251 0238 6200     		.ascii	"b\000"
 6252 023a 0000     		.align	2
 6253              	.LC54:
 6254 023c 6300     		.ascii	"c\000"
 6255              		.global	AsebaNativeDescription_vecsort
 6256 023e 0000     		.align	2
 6257              	.LC55:
 6258 0240 6D617468 		.ascii	"math.sort\000"
 6258      2E736F72 
 6258      7400
 6259 024a 0000     		.align	2
 6260              	.LC56:
 6261 024c 736F7274 		.ascii	"sort array in place\000"
 6261      20617272 
 6261      61792069 
 6261      6E20706C 
 6261      61636500 
 6262              		.align	2
ARM GAS  /tmp/cchqCFfA.s 			page 112


 6263              	.LC57:
 6264 0260 61727261 		.ascii	"array\000"
 6264      7900
 6265              		.global	AsebaNativeDescription_vecargbounds
 6266 0266 0000     		.align	2
 6267              	.LC58:
 6268 0268 6D617468 		.ascii	"math.argbounds\000"
 6268      2E617267 
 6268      626F756E 
 6268      647300
 6269 0277 00       		.align	2
 6270              	.LC59:
 6271 0278 67657420 		.ascii	"get the indices (argmin, argmax) of the limit value"
 6271      74686520 
 6271      696E6469 
 6271      63657320 
 6271      28617267 
 6272 02ab 73206F66 		.ascii	"s of src\000"
 6272      20737263 
 6272      00
 6273              		.align	2
 6274              	.LC60:
 6275 02b4 6172676D 		.ascii	"argmin\000"
 6275      696E00
 6276 02bb 00       		.align	2
 6277              	.LC61:
 6278 02bc 6172676D 		.ascii	"argmax\000"
 6278      617800
 6279              		.global	AsebaNativeDescription_vecstat
 6280 02c3 00       		.align	2
 6281              	.LC62:
 6282 02c4 6D617468 		.ascii	"math.stat\000"
 6282      2E737461 
 6282      7400
 6283 02ce 0000     		.align	2
 6284              	.LC63:
 6285 02d0 70657266 		.ascii	"performs statistics on src\000"
 6285      6F726D73 
 6285      20737461 
 6285      74697374 
 6285      69637320 
 6286 02eb 00       		.align	2
 6287              	.LC64:
 6288 02ec 6D696E00 		.ascii	"min\000"
 6289              		.align	2
 6290              	.LC65:
 6291 02f0 6D617800 		.ascii	"max\000"
 6292              		.align	2
 6293              	.LC66:
 6294 02f4 6D65616E 		.ascii	"mean\000"
 6294      00
 6295              		.global	AsebaNativeDescription_vecdot
 6296 02f9 000000   		.align	2
 6297              	.LC67:
 6298 02fc 6D617468 		.ascii	"math.dot\000"
 6298      2E646F74 
 6298      00
ARM GAS  /tmp/cchqCFfA.s 			page 113


 6299 0305 000000   		.align	2
 6300              	.LC68:
 6301 0308 77726974 		.ascii	"writes the dot product of src1 and src2 to dest, af"
 6301      65732074 
 6301      68652064 
 6301      6F742070 
 6301      726F6475 
 6302 033b 74657220 		.ascii	"ter a shift\000"
 6302      61207368 
 6302      69667400 
 6303 0347 00       		.align	2
 6304              	.LC69:
 6305 0348 73726331 		.ascii	"src1\000"
 6305      00
 6306 034d 000000   		.align	2
 6307              	.LC70:
 6308 0350 73726332 		.ascii	"src2\000"
 6308      00
 6309 0355 000000   		.align	2
 6310              	.LC71:
 6311 0358 73686966 		.ascii	"shift\000"
 6311      7400
 6312              		.global	AsebaNativeDescription_vecclamp
 6313 035e 0000     		.align	2
 6314              	.LC72:
 6315 0360 6D617468 		.ascii	"math.clamp\000"
 6315      2E636C61 
 6315      6D7000
 6316 036b 00       		.align	2
 6317              	.LC73:
 6318 036c 636C616D 		.ascii	"clamp src to low/high bounds into dest, element by "
 6318      70207372 
 6318      6320746F 
 6318      206C6F77 
 6318      2F686967 
 6319 039f 656C656D 		.ascii	"element\000"
 6319      656E7400 
 6320 03a7 00       		.align	2
 6321              	.LC74:
 6322 03a8 6C6F7700 		.ascii	"low\000"
 6323              		.align	2
 6324              	.LC75:
 6325 03ac 68696768 		.ascii	"high\000"
 6325      00
 6326              		.global	AsebaNativeDescription_vecmax
 6327 03b1 000000   		.align	2
 6328              	.LC76:
 6329 03b4 6D617468 		.ascii	"math.max\000"
 6329      2E6D6178 
 6329      00
 6330 03bd 000000   		.align	2
 6331              	.LC77:
 6332 03c0 77726974 		.ascii	"writes the maximum of src1 and src2 to dest, elemen"
 6332      65732074 
 6332      6865206D 
 6332      6178696D 
 6332      756D206F 
ARM GAS  /tmp/cchqCFfA.s 			page 114


 6333 03f3 74206279 		.ascii	"t by element\000"
 6333      20656C65 
 6333      6D656E74 
 6333      00
 6334              		.global	AsebaNativeDescription_vecmin
 6335              		.align	2
 6336              	.LC78:
 6337 0400 6D617468 		.ascii	"math.min\000"
 6337      2E6D696E 
 6337      00
 6338 0409 000000   		.align	2
 6339              	.LC79:
 6340 040c 77726974 		.ascii	"writes the minimum of src1 and src2 to dest, elemen"
 6340      65732074 
 6340      6865206D 
 6340      696E696D 
 6340      756D206F 
 6341 043f 74206279 		.ascii	"t by element\000"
 6341      20656C65 
 6341      6D656E74 
 6341      00
 6342              		.global	AsebaNativeDescription_vecdiv
 6343              		.align	2
 6344              	.LC80:
 6345 044c 6D617468 		.ascii	"math.div\000"
 6345      2E646976 
 6345      00
 6346 0455 000000   		.align	2
 6347              	.LC81:
 6348 0458 64697669 		.ascii	"divides src1 by src2 to dest, element by element\000"
 6348      64657320 
 6348      73726331 
 6348      20627920 
 6348      73726332 
 6349              		.global	AsebaNativeDescription_vecmul
 6350 0489 000000   		.align	2
 6351              	.LC82:
 6352 048c 6D617468 		.ascii	"math.mul\000"
 6352      2E6D756C 
 6352      00
 6353 0495 000000   		.align	2
 6354              	.LC83:
 6355 0498 6D756C74 		.ascii	"multiplies src1 and src2 to dest, element by elemen"
 6355      69706C69 
 6355      65732073 
 6355      72633120 
 6355      616E6420 
 6356 04cb 7400     		.ascii	"t\000"
 6357              		.global	AsebaNativeDescription_vecsub
 6358 04cd 000000   		.align	2
 6359              	.LC84:
 6360 04d0 6D617468 		.ascii	"math.sub\000"
 6360      2E737562 
 6360      00
 6361 04d9 000000   		.align	2
 6362              	.LC85:
 6363 04dc 73756273 		.ascii	"substracts src2 from src1 to dest, element by eleme"
ARM GAS  /tmp/cchqCFfA.s 			page 115


 6363      74726163 
 6363      74732073 
 6363      72633220 
 6363      66726F6D 
 6364 050f 6E7400   		.ascii	"nt\000"
 6365              		.global	AsebaNativeDescription_vecadd
 6366 0512 0000     		.align	2
 6367              	.LC86:
 6368 0514 6D617468 		.ascii	"math.add\000"
 6368      2E616464 
 6368      00
 6369 051d 000000   		.align	2
 6370              	.LC87:
 6371 0520 61646473 		.ascii	"adds src1 and src2 to dest, element by element\000"
 6371      20737263 
 6371      3120616E 
 6371      64207372 
 6371      63322074 
 6372              		.global	AsebaNativeDescription_vecaddscalar
 6373 054f 00       		.align	2
 6374              	.LC88:
 6375 0550 6D617468 		.ascii	"math.addscalar\000"
 6375      2E616464 
 6375      7363616C 
 6375      617200
 6376 055f 00       		.align	2
 6377              	.LC89:
 6378 0560 61646420 		.ascii	"add scalar to each element of src and store result "
 6378      7363616C 
 6378      61722074 
 6378      6F206561 
 6378      63682065 
 6379 0593 746F2064 		.ascii	"to dest\000"
 6379      65737400 
 6380 059b 00       		.align	2
 6381              	.LC90:
 6382 059c 7363616C 		.ascii	"scalar\000"
 6382      617200
 6383              		.global	AsebaNativeDescription_vecfill
 6384 05a3 00       		.align	2
 6385              	.LC91:
 6386 05a4 6D617468 		.ascii	"math.fill\000"
 6386      2E66696C 
 6386      6C00
 6387 05ae 0000     		.align	2
 6388              	.LC92:
 6389 05b0 66696C6C 		.ascii	"fills dest with constant value\000"
 6389      73206465 
 6389      73742077 
 6389      69746820 
 6389      636F6E73 
 6390 05cf 00       		.align	2
 6391              	.LC93:
 6392 05d0 76616C75 		.ascii	"value\000"
 6392      6500
 6393              		.global	AsebaNativeDescription_veccopy
 6394 05d6 0000     		.align	2
ARM GAS  /tmp/cchqCFfA.s 			page 116


 6395              	.LC94:
 6396 05d8 6D617468 		.ascii	"math.copy\000"
 6396      2E636F70 
 6396      7900
 6397 05e2 0000     		.align	2
 6398              	.LC95:
 6399 05e4 636F7069 		.ascii	"copies src to dest element by element\000"
 6399      65732073 
 6399      72632074 
 6399      6F206465 
 6399      73742065 
 6400              		.section	.bss.rnd_state,"aw",%nobits
 6401              		.align	1
 6402              		.set	.LANCHOR2,. + 0
 6403              		.type	rnd_state, %object
 6404              		.size	rnd_state, 2
 6405              	rnd_state:
 6406 0000 0000     		.space	2
 6407              		.section	.rodata.AsebaNativeDescription_mathatan2,"a"
 6408              		.align	2
 6409              		.type	AsebaNativeDescription_mathatan2, %object
 6410              		.size	AsebaNativeDescription_mathatan2, 40
 6411              	AsebaNativeDescription_mathatan2:
 6412 0000 B4010000 		.word	.LC48
 6413 0004 C0010000 		.word	.LC49
 6414 0008 FFFF     		.short	-1
 6415 000a 0000     		.space	2
 6416 000c 2C000000 		.word	.LC32
 6417 0010 FFFF     		.short	-1
 6418 0012 0000     		.space	2
 6419 0014 F0010000 		.word	.LC50
 6420 0018 FFFF     		.short	-1
 6421 001a 0000     		.space	2
 6422 001c 0C010000 		.word	.LC39
 6423 0020 0000     		.short	0
 6424 0022 0000     		.space	2
 6425 0024 00000000 		.word	0
 6426              		.section	.rodata.AsebaNativeDescription_mathcos,"a"
 6427              		.align	2
 6428              		.type	AsebaNativeDescription_mathcos, %object
 6429              		.size	AsebaNativeDescription_mathcos, 32
 6430              	AsebaNativeDescription_mathcos:
 6431 0000 44010000 		.word	.LC44
 6432 0004 50010000 		.word	.LC45
 6433 0008 FFFF     		.short	-1
 6434 000a 0000     		.space	2
 6435 000c 2C000000 		.word	.LC32
 6436 0010 FFFF     		.short	-1
 6437 0012 0000     		.space	2
 6438 0014 0C010000 		.word	.LC39
 6439 0018 0000     		.short	0
 6440 001a 0000     		.space	2
 6441 001c 00000000 		.word	0
 6442              		.section	.rodata.AsebaNativeDescription_mathmuldiv,"a"
 6443              		.align	2
 6444              		.type	AsebaNativeDescription_mathmuldiv, %object
 6445              		.size	AsebaNativeDescription_mathmuldiv, 48
ARM GAS  /tmp/cchqCFfA.s 			page 117


 6446              	AsebaNativeDescription_mathmuldiv:
 6447 0000 F4010000 		.word	.LC51
 6448 0004 00020000 		.word	.LC52
 6449 0008 FFFF     		.short	-1
 6450 000a 0000     		.space	2
 6451 000c 2C000000 		.word	.LC32
 6452 0010 FFFF     		.short	-1
 6453 0012 0000     		.space	2
 6454 0014 40010000 		.word	.LC43
 6455 0018 FFFF     		.short	-1
 6456 001a 0000     		.space	2
 6457 001c 38020000 		.word	.LC53
 6458 0020 FFFF     		.short	-1
 6459 0022 0000     		.space	2
 6460 0024 3C020000 		.word	.LC54
 6461 0028 0000     		.short	0
 6462 002a 0000     		.space	2
 6463 002c 00000000 		.word	0
 6464              		.section	.rodata.AsebaNativeDescription_mathrot2,"a"
 6465              		.align	2
 6466              		.type	AsebaNativeDescription_mathrot2, %object
 6467              		.size	AsebaNativeDescription_mathrot2, 40
 6468              	AsebaNativeDescription_mathrot2:
 6469 0000 10010000 		.word	.LC40
 6470 0004 1C010000 		.word	.LC41
 6471 0008 0200     		.short	2
 6472 000a 0000     		.space	2
 6473 000c 2C000000 		.word	.LC32
 6474 0010 0200     		.short	2
 6475 0012 0000     		.space	2
 6476 0014 3C010000 		.word	.LC42
 6477 0018 0100     		.short	1
 6478 001a 0000     		.space	2
 6479 001c 40010000 		.word	.LC43
 6480 0020 0000     		.short	0
 6481 0022 0000     		.space	2
 6482 0024 00000000 		.word	0
 6483              		.section	.rodata.AsebaNativeDescription_mathsin,"a"
 6484              		.align	2
 6485              		.type	AsebaNativeDescription_mathsin, %object
 6486              		.size	AsebaNativeDescription_mathsin, 32
 6487              	AsebaNativeDescription_mathsin:
 6488 0000 7C010000 		.word	.LC46
 6489 0004 88010000 		.word	.LC47
 6490 0008 FFFF     		.short	-1
 6491 000a 0000     		.space	2
 6492 000c 2C000000 		.word	.LC32
 6493 0010 FFFF     		.short	-1
 6494 0012 0000     		.space	2
 6495 0014 0C010000 		.word	.LC39
 6496 0018 0000     		.short	0
 6497 001a 0000     		.space	2
 6498 001c 00000000 		.word	0
 6499              		.section	.rodata.AsebaNativeDescription_mathsqrt,"a"
 6500              		.align	2
 6501              		.type	AsebaNativeDescription_mathsqrt, %object
 6502              		.size	AsebaNativeDescription_mathsqrt, 32
ARM GAS  /tmp/cchqCFfA.s 			page 118


 6503              	AsebaNativeDescription_mathsqrt:
 6504 0000 D4000000 		.word	.LC37
 6505 0004 E0000000 		.word	.LC38
 6506 0008 FFFF     		.short	-1
 6507 000a 0000     		.space	2
 6508 000c 2C000000 		.word	.LC32
 6509 0010 FFFF     		.short	-1
 6510 0012 0000     		.space	2
 6511 0014 0C010000 		.word	.LC39
 6512 0018 0000     		.short	0
 6513 001a 0000     		.space	2
 6514 001c 00000000 		.word	0
 6515              		.section	.rodata.AsebaNativeDescription_rand,"a"
 6516              		.align	2
 6517              		.type	AsebaNativeDescription_rand, %object
 6518              		.size	AsebaNativeDescription_rand, 24
 6519              	AsebaNativeDescription_rand:
 6520 0000 00000000 		.word	.LC30
 6521 0004 0C000000 		.word	.LC31
 6522 0008 FFFF     		.short	-1
 6523 000a 0000     		.space	2
 6524 000c 2C000000 		.word	.LC32
 6525 0010 0000     		.short	0
 6526 0012 0000     		.space	2
 6527 0014 00000000 		.word	0
 6528              		.section	.rodata.AsebaNativeDescription_vecadd,"a"
 6529              		.align	2
 6530              		.type	AsebaNativeDescription_vecadd, %object
 6531              		.size	AsebaNativeDescription_vecadd, 40
 6532              	AsebaNativeDescription_vecadd:
 6533 0000 14050000 		.word	.LC86
 6534 0004 20050000 		.word	.LC87
 6535 0008 FFFF     		.short	-1
 6536 000a 0000     		.space	2
 6537 000c 2C000000 		.word	.LC32
 6538 0010 FFFF     		.short	-1
 6539 0012 0000     		.space	2
 6540 0014 48030000 		.word	.LC69
 6541 0018 FFFF     		.short	-1
 6542 001a 0000     		.space	2
 6543 001c 50030000 		.word	.LC70
 6544 0020 0000     		.short	0
 6545 0022 0000     		.space	2
 6546 0024 00000000 		.word	0
 6547              		.section	.rodata.AsebaNativeDescription_vecaddscalar,"a"
 6548              		.align	2
 6549              		.type	AsebaNativeDescription_vecaddscalar, %object
 6550              		.size	AsebaNativeDescription_vecaddscalar, 40
 6551              	AsebaNativeDescription_vecaddscalar:
 6552 0000 50050000 		.word	.LC88
 6553 0004 60050000 		.word	.LC89
 6554 0008 FFFF     		.short	-1
 6555 000a 0000     		.space	2
 6556 000c 2C000000 		.word	.LC32
 6557 0010 FFFF     		.short	-1
 6558 0012 0000     		.space	2
 6559 0014 C4000000 		.word	.LC35
ARM GAS  /tmp/cchqCFfA.s 			page 119


 6560 0018 0100     		.short	1
 6561 001a 0000     		.space	2
 6562 001c 9C050000 		.word	.LC90
 6563 0020 0000     		.short	0
 6564 0022 0000     		.space	2
 6565 0024 00000000 		.word	0
 6566              		.section	.rodata.AsebaNativeDescription_vecargbounds,"a"
 6567              		.align	2
 6568              		.type	AsebaNativeDescription_vecargbounds, %object
 6569              		.size	AsebaNativeDescription_vecargbounds, 40
 6570              	AsebaNativeDescription_vecargbounds:
 6571 0000 68020000 		.word	.LC58
 6572 0004 78020000 		.word	.LC59
 6573 0008 FFFF     		.short	-1
 6574 000a 0000     		.space	2
 6575 000c C4000000 		.word	.LC35
 6576 0010 0100     		.short	1
 6577 0012 0000     		.space	2
 6578 0014 B4020000 		.word	.LC60
 6579 0018 0100     		.short	1
 6580 001a 0000     		.space	2
 6581 001c BC020000 		.word	.LC61
 6582 0020 0000     		.short	0
 6583 0022 0000     		.space	2
 6584 0024 00000000 		.word	0
 6585              		.section	.rodata.AsebaNativeDescription_vecclamp,"a"
 6586              		.align	2
 6587              		.type	AsebaNativeDescription_vecclamp, %object
 6588              		.size	AsebaNativeDescription_vecclamp, 48
 6589              	AsebaNativeDescription_vecclamp:
 6590 0000 60030000 		.word	.LC72
 6591 0004 6C030000 		.word	.LC73
 6592 0008 FFFF     		.short	-1
 6593 000a 0000     		.space	2
 6594 000c 2C000000 		.word	.LC32
 6595 0010 FFFF     		.short	-1
 6596 0012 0000     		.space	2
 6597 0014 C4000000 		.word	.LC35
 6598 0018 FFFF     		.short	-1
 6599 001a 0000     		.space	2
 6600 001c A8030000 		.word	.LC74
 6601 0020 FFFF     		.short	-1
 6602 0022 0000     		.space	2
 6603 0024 AC030000 		.word	.LC75
 6604 0028 0000     		.short	0
 6605 002a 0000     		.space	2
 6606 002c 00000000 		.word	0
 6607              		.section	.rodata.AsebaNativeDescription_veccopy,"a"
 6608              		.align	2
 6609              		.type	AsebaNativeDescription_veccopy, %object
 6610              		.size	AsebaNativeDescription_veccopy, 32
 6611              	AsebaNativeDescription_veccopy:
 6612 0000 D8050000 		.word	.LC94
 6613 0004 E4050000 		.word	.LC95
 6614 0008 FFFF     		.short	-1
 6615 000a 0000     		.space	2
 6616 000c 2C000000 		.word	.LC32
ARM GAS  /tmp/cchqCFfA.s 			page 120


 6617 0010 FFFF     		.short	-1
 6618 0012 0000     		.space	2
 6619 0014 C4000000 		.word	.LC35
 6620 0018 0000     		.short	0
 6621 001a 0000     		.space	2
 6622 001c 00000000 		.word	0
 6623              		.section	.rodata.AsebaNativeDescription_vecdiv,"a"
 6624              		.align	2
 6625              		.type	AsebaNativeDescription_vecdiv, %object
 6626              		.size	AsebaNativeDescription_vecdiv, 40
 6627              	AsebaNativeDescription_vecdiv:
 6628 0000 4C040000 		.word	.LC80
 6629 0004 58040000 		.word	.LC81
 6630 0008 FFFF     		.short	-1
 6631 000a 0000     		.space	2
 6632 000c 2C000000 		.word	.LC32
 6633 0010 FFFF     		.short	-1
 6634 0012 0000     		.space	2
 6635 0014 48030000 		.word	.LC69
 6636 0018 FFFF     		.short	-1
 6637 001a 0000     		.space	2
 6638 001c 50030000 		.word	.LC70
 6639 0020 0000     		.short	0
 6640 0022 0000     		.space	2
 6641 0024 00000000 		.word	0
 6642              		.section	.rodata.AsebaNativeDescription_vecdot,"a"
 6643              		.align	2
 6644              		.type	AsebaNativeDescription_vecdot, %object
 6645              		.size	AsebaNativeDescription_vecdot, 48
 6646              	AsebaNativeDescription_vecdot:
 6647 0000 FC020000 		.word	.LC67
 6648 0004 08030000 		.word	.LC68
 6649 0008 0100     		.short	1
 6650 000a 0000     		.space	2
 6651 000c 2C000000 		.word	.LC32
 6652 0010 FFFF     		.short	-1
 6653 0012 0000     		.space	2
 6654 0014 48030000 		.word	.LC69
 6655 0018 FFFF     		.short	-1
 6656 001a 0000     		.space	2
 6657 001c 50030000 		.word	.LC70
 6658 0020 0100     		.short	1
 6659 0022 0000     		.space	2
 6660 0024 58030000 		.word	.LC71
 6661 0028 0000     		.short	0
 6662 002a 0000     		.space	2
 6663 002c 00000000 		.word	0
 6664              		.section	.rodata.AsebaNativeDescription_vecfill,"a"
 6665              		.align	2
 6666              		.type	AsebaNativeDescription_vecfill, %object
 6667              		.size	AsebaNativeDescription_vecfill, 32
 6668              	AsebaNativeDescription_vecfill:
 6669 0000 A4050000 		.word	.LC91
 6670 0004 B0050000 		.word	.LC92
 6671 0008 FFFF     		.short	-1
 6672 000a 0000     		.space	2
 6673 000c 2C000000 		.word	.LC32
ARM GAS  /tmp/cchqCFfA.s 			page 121


 6674 0010 0100     		.short	1
 6675 0012 0000     		.space	2
 6676 0014 D0050000 		.word	.LC93
 6677 0018 0000     		.short	0
 6678 001a 0000     		.space	2
 6679 001c 00000000 		.word	0
 6680              		.section	.rodata.AsebaNativeDescription_vecmax,"a"
 6681              		.align	2
 6682              		.type	AsebaNativeDescription_vecmax, %object
 6683              		.size	AsebaNativeDescription_vecmax, 40
 6684              	AsebaNativeDescription_vecmax:
 6685 0000 B4030000 		.word	.LC76
 6686 0004 C0030000 		.word	.LC77
 6687 0008 FFFF     		.short	-1
 6688 000a 0000     		.space	2
 6689 000c 2C000000 		.word	.LC32
 6690 0010 FFFF     		.short	-1
 6691 0012 0000     		.space	2
 6692 0014 48030000 		.word	.LC69
 6693 0018 FFFF     		.short	-1
 6694 001a 0000     		.space	2
 6695 001c 50030000 		.word	.LC70
 6696 0020 0000     		.short	0
 6697 0022 0000     		.space	2
 6698 0024 00000000 		.word	0
 6699              		.section	.rodata.AsebaNativeDescription_vecmin,"a"
 6700              		.align	2
 6701              		.type	AsebaNativeDescription_vecmin, %object
 6702              		.size	AsebaNativeDescription_vecmin, 40
 6703              	AsebaNativeDescription_vecmin:
 6704 0000 00040000 		.word	.LC78
 6705 0004 0C040000 		.word	.LC79
 6706 0008 FFFF     		.short	-1
 6707 000a 0000     		.space	2
 6708 000c 2C000000 		.word	.LC32
 6709 0010 FFFF     		.short	-1
 6710 0012 0000     		.space	2
 6711 0014 48030000 		.word	.LC69
 6712 0018 FFFF     		.short	-1
 6713 001a 0000     		.space	2
 6714 001c 50030000 		.word	.LC70
 6715 0020 0000     		.short	0
 6716 0022 0000     		.space	2
 6717 0024 00000000 		.word	0
 6718              		.section	.rodata.AsebaNativeDescription_vecmul,"a"
 6719              		.align	2
 6720              		.type	AsebaNativeDescription_vecmul, %object
 6721              		.size	AsebaNativeDescription_vecmul, 40
 6722              	AsebaNativeDescription_vecmul:
 6723 0000 8C040000 		.word	.LC82
 6724 0004 98040000 		.word	.LC83
 6725 0008 FFFF     		.short	-1
 6726 000a 0000     		.space	2
 6727 000c 2C000000 		.word	.LC32
 6728 0010 FFFF     		.short	-1
 6729 0012 0000     		.space	2
 6730 0014 48030000 		.word	.LC69
ARM GAS  /tmp/cchqCFfA.s 			page 122


 6731 0018 FFFF     		.short	-1
 6732 001a 0000     		.space	2
 6733 001c 50030000 		.word	.LC70
 6734 0020 0000     		.short	0
 6735 0022 0000     		.space	2
 6736 0024 00000000 		.word	0
 6737              		.section	.rodata.AsebaNativeDescription_vecnonzerosequence,"a"
 6738              		.align	2
 6739              		.type	AsebaNativeDescription_vecnonzerosequence, %object
 6740              		.size	AsebaNativeDescription_vecnonzerosequence, 40
 6741              	AsebaNativeDescription_vecnonzerosequence:
 6742 0000 34000000 		.word	.LC33
 6743 0004 40000000 		.word	.LC34
 6744 0008 0100     		.short	1
 6745 000a 0000     		.space	2
 6746 000c 2C000000 		.word	.LC32
 6747 0010 FFFF     		.short	-1
 6748 0012 0000     		.space	2
 6749 0014 C4000000 		.word	.LC35
 6750 0018 0100     		.short	1
 6751 001a 0000     		.space	2
 6752 001c C8000000 		.word	.LC36
 6753 0020 0000     		.short	0
 6754 0022 0000     		.space	2
 6755 0024 00000000 		.word	0
 6756              		.section	.rodata.AsebaNativeDescription_vecsort,"a"
 6757              		.align	2
 6758              		.type	AsebaNativeDescription_vecsort, %object
 6759              		.size	AsebaNativeDescription_vecsort, 24
 6760              	AsebaNativeDescription_vecsort:
 6761 0000 40020000 		.word	.LC55
 6762 0004 4C020000 		.word	.LC56
 6763 0008 FFFF     		.short	-1
 6764 000a 0000     		.space	2
 6765 000c 60020000 		.word	.LC57
 6766 0010 0000     		.short	0
 6767 0012 0000     		.space	2
 6768 0014 00000000 		.word	0
 6769              		.section	.rodata.AsebaNativeDescription_vecstat,"a"
 6770              		.align	2
 6771              		.type	AsebaNativeDescription_vecstat, %object
 6772              		.size	AsebaNativeDescription_vecstat, 48
 6773              	AsebaNativeDescription_vecstat:
 6774 0000 C4020000 		.word	.LC62
 6775 0004 D0020000 		.word	.LC63
 6776 0008 FFFF     		.short	-1
 6777 000a 0000     		.space	2
 6778 000c C4000000 		.word	.LC35
 6779 0010 0100     		.short	1
 6780 0012 0000     		.space	2
 6781 0014 EC020000 		.word	.LC64
 6782 0018 0100     		.short	1
 6783 001a 0000     		.space	2
 6784 001c F0020000 		.word	.LC65
 6785 0020 0100     		.short	1
 6786 0022 0000     		.space	2
 6787 0024 F4020000 		.word	.LC66
ARM GAS  /tmp/cchqCFfA.s 			page 123


 6788 0028 0000     		.short	0
 6789 002a 0000     		.space	2
 6790 002c 00000000 		.word	0
 6791              		.section	.rodata.AsebaNativeDescription_vecsub,"a"
 6792              		.align	2
 6793              		.type	AsebaNativeDescription_vecsub, %object
 6794              		.size	AsebaNativeDescription_vecsub, 40
 6795              	AsebaNativeDescription_vecsub:
 6796 0000 D0040000 		.word	.LC84
 6797 0004 DC040000 		.word	.LC85
 6798 0008 FFFF     		.short	-1
 6799 000a 0000     		.space	2
 6800 000c 2C000000 		.word	.LC32
 6801 0010 FFFF     		.short	-1
 6802 0012 0000     		.space	2
 6803 0014 48030000 		.word	.LC69
 6804 0018 FFFF     		.short	-1
 6805 001a 0000     		.space	2
 6806 001c 50030000 		.word	.LC70
 6807 0020 0000     		.short	0
 6808 0022 0000     		.space	2
 6809 0024 00000000 		.word	0
 6810              		.section	.rodata.aseba_atan_table,"a"
 6811              		.align	2
 6812              		.set	.LANCHOR0,. + 0
 6813              		.type	aseba_atan_table, %object
 6814              		.size	aseba_atan_table, 322
 6815              	aseba_atan_table:
 6816 0000 8C02     		.short	652
 6817 0002 DF02     		.short	735
 6818 0004 3003     		.short	816
 6819 0006 8003     		.short	896
 6820 0008 D103     		.short	977
 6821 000a 2204     		.short	1058
 6822 000c 7304     		.short	1139
 6823 000e C204     		.short	1218
 6824 0010 1405     		.short	1300
 6825 0012 B305     		.short	1459
 6826 0014 5406     		.short	1620
 6827 0016 F106     		.short	1777
 6828 0018 8F07     		.short	1935
 6829 001a 2D08     		.short	2093
 6830 001c CA08     		.short	2250
 6831 001e 6309     		.short	2403
 6832 0020 FC09     		.short	2556
 6833 0022 340B     		.short	2868
 6834 0024 5C0C     		.short	3164
 6835 0026 820D     		.short	3458
 6836 0028 A40E     		.short	3748
 6837 002a BD0F     		.short	4029
 6838 002c D310     		.short	4307
 6839 002e E211     		.short	4578
 6840 0030 E712     		.short	4839
 6841 0032 EF14     		.short	5359
 6842 0034 CC16     		.short	5836
 6843 0036 9218     		.short	6290
 6844 0038 401A     		.short	6720
ARM GAS  /tmp/cchqCFfA.s 			page 124


 6845 003a D61B     		.short	7126
 6846 003c 531D     		.short	7507
 6847 003e B51E     		.short	7861
 6848 0040 0B20     		.short	8203
 6849 0042 7922     		.short	8825
 6850 0044 8D24     		.short	9357
 6851 0046 6F26     		.short	9839
 6852 0048 1428     		.short	10260
 6853 004a 9029     		.short	10640
 6854 004c E02A     		.short	10976
 6855 004e 112C     		.short	11281
 6856 0050 252D     		.short	11557
 6857 0052 052F     		.short	12037
 6858 0054 8930     		.short	12425
 6859 0056 D331     		.short	12755
 6860 0058 EC32     		.short	13036
 6861 005a DD33     		.short	13277
 6862 005c AE34     		.short	13486
 6863 005e 6735     		.short	13671
 6864 0060 0D36     		.short	13837
 6865 0062 2037     		.short	14112
 6866 0064 FB37     		.short	14331
 6867 0066 B238     		.short	14514
 6868 0068 4A39     		.short	14666
 6869 006a CC39     		.short	14796
 6870 006c 3B3A     		.short	14907
 6871 006e 9B3A     		.short	15003
 6872 0070 F33A     		.short	15091
 6873 0072 833B     		.short	15235
 6874 0074 F43B     		.short	15348
 6875 0076 513C     		.short	15441
 6876 0078 9F3C     		.short	15519
 6877 007a E13C     		.short	15585
 6878 007c 1A3D     		.short	15642
 6879 007e 4B3D     		.short	15691
 6880 0080 783D     		.short	15736
 6881 0082 C03D     		.short	15808
 6882 0084 F93D     		.short	15865
 6883 0086 283E     		.short	15912
 6884 0088 4F3E     		.short	15951
 6885 008a 703E     		.short	15984
 6886 008c 8D3E     		.short	16013
 6887 008e A53E     		.short	16037
 6888 0090 BC3E     		.short	16060
 6889 0092 E03E     		.short	16096
 6890 0094 FD3E     		.short	16125
 6891 0096 143F     		.short	16148
 6892 0098 283F     		.short	16168
 6893 009a 383F     		.short	16184
 6894 009c 473F     		.short	16199
 6895 009e 533F     		.short	16211
 6896 00a0 5E3F     		.short	16222
 6897 00a2 703F     		.short	16240
 6898 00a4 7F3F     		.short	16255
 6899 00a6 8A3F     		.short	16266
 6900 00a8 943F     		.short	16276
 6901 00aa 9C3F     		.short	16284
ARM GAS  /tmp/cchqCFfA.s 			page 125


 6902 00ac A43F     		.short	16292
 6903 00ae AA3F     		.short	16298
 6904 00b0 AF3F     		.short	16303
 6905 00b2 B83F     		.short	16312
 6906 00b4 C03F     		.short	16320
 6907 00b6 C53F     		.short	16325
 6908 00b8 CB3F     		.short	16331
 6909 00ba CE3F     		.short	16334
 6910 00bc D23F     		.short	16338
 6911 00be D53F     		.short	16341
 6912 00c0 D83F     		.short	16344
 6913 00c2 DC3F     		.short	16348
 6914 00c4 E03F     		.short	16352
 6915 00c6 E33F     		.short	16355
 6916 00c8 E53F     		.short	16357
 6917 00ca E83F     		.short	16360
 6918 00cc E93F     		.short	16361
 6919 00ce EB3F     		.short	16363
 6920 00d0 EC3F     		.short	16364
 6921 00d2 EE3F     		.short	16366
 6922 00d4 F13F     		.short	16369
 6923 00d6 F13F     		.short	16369
 6924 00d8 F33F     		.short	16371
 6925 00da F43F     		.short	16372
 6926 00dc F53F     		.short	16373
 6927 00de F53F     		.short	16373
 6928 00e0 F73F     		.short	16375
 6929 00e2 F73F     		.short	16375
 6930 00e4 F93F     		.short	16377
 6931 00e6 F83F     		.short	16376
 6932 00e8 FA3F     		.short	16378
 6933 00ea FA3F     		.short	16378
 6934 00ec FA3F     		.short	16378
 6935 00ee FB3F     		.short	16379
 6936 00f0 FB3F     		.short	16379
 6937 00f2 FC3F     		.short	16380
 6938 00f4 FC3F     		.short	16380
 6939 00f6 FC3F     		.short	16380
 6940 00f8 FE3F     		.short	16382
 6941 00fa FD3F     		.short	16381
 6942 00fc FD3F     		.short	16381
 6943 00fe FD3F     		.short	16381
 6944 0100 FE3F     		.short	16382
 6945 0102 FE3F     		.short	16382
 6946 0104 FE3F     		.short	16382
 6947 0106 FE3F     		.short	16382
 6948 0108 FE3F     		.short	16382
 6949 010a FE3F     		.short	16382
 6950 010c 0040     		.short	16384
 6951 010e FF3F     		.short	16383
 6952 0110 FF3F     		.short	16383
 6953 0112 FF3F     		.short	16383
 6954 0114 FF3F     		.short	16383
 6955 0116 FF3F     		.short	16383
 6956 0118 FF3F     		.short	16383
 6957 011a FF3F     		.short	16383
 6958 011c FF3F     		.short	16383
ARM GAS  /tmp/cchqCFfA.s 			page 126


 6959 011e FF3F     		.short	16383
 6960 0120 FF3F     		.short	16383
 6961 0122 FF3F     		.short	16383
 6962 0124 0040     		.short	16384
 6963 0126 0040     		.short	16384
 6964 0128 0040     		.short	16384
 6965 012a 0040     		.short	16384
 6966 012c 0040     		.short	16384
 6967 012e 0040     		.short	16384
 6968 0130 0040     		.short	16384
 6969 0132 0040     		.short	16384
 6970 0134 0040     		.short	16384
 6971 0136 0040     		.short	16384
 6972 0138 0040     		.short	16384
 6973 013a 0040     		.short	16384
 6974 013c 0040     		.short	16384
 6975 013e 0040     		.short	16384
 6976 0140 0040     		.short	16384
 6977              		.section	.rodata.aseba_sin_table,"a"
 6978              		.align	2
 6979              		.set	.LANCHOR1,. + 0
 6980              		.type	aseba_sin_table, %object
 6981              		.size	aseba_sin_table, 258
 6982              	aseba_sin_table:
 6983 0000 0000     		.short	0
 6984 0002 9301     		.short	403
 6985 0004 2403     		.short	804
 6986 0006 B704     		.short	1207
 6987 0008 4806     		.short	1608
 6988 000a DA07     		.short	2010
 6989 000c 6B09     		.short	2411
 6990 000e FC0A     		.short	2812
 6991 0010 8C0C     		.short	3212
 6992 0012 1C0E     		.short	3612
 6993 0014 AB0F     		.short	4011
 6994 0016 3B11     		.short	4411
 6995 0018 C812     		.short	4808
 6996 001a 5614     		.short	5206
 6997 001c E315     		.short	5603
 6998 001e 6E17     		.short	5998
 6999 0020 F918     		.short	6393
 7000 0022 831A     		.short	6787
 7001 0024 0C1C     		.short	7180
 7002 0026 941D     		.short	7572
 7003 0028 1A1F     		.short	7962
 7004 002a A020     		.short	8352
 7005 002c 2422     		.short	8740
 7006 002e A723     		.short	9127
 7007 0030 2925     		.short	9513
 7008 0032 A826     		.short	9896
 7009 0034 2728     		.short	10279
 7010 0036 A429     		.short	10660
 7011 0038 202B     		.short	11040
 7012 003a 992C     		.short	11417
 7013 003c 122E     		.short	11794
 7014 003e 872F     		.short	12167
 7015 0040 FC30     		.short	12540
ARM GAS  /tmp/cchqCFfA.s 			page 127


 7016 0042 6F32     		.short	12911
 7017 0044 DF33     		.short	13279
 7018 0046 4E35     		.short	13646
 7019 0048 BA36     		.short	14010
 7020 004a 2538     		.short	14373
 7021 004c 8D39     		.short	14733
 7022 004e F33A     		.short	15091
 7023 0050 573C     		.short	15447
 7024 0052 B93D     		.short	15801
 7025 0054 173F     		.short	16151
 7026 0056 7440     		.short	16500
 7027 0058 CE41     		.short	16846
 7028 005a 2643     		.short	17190
 7029 005c 7B44     		.short	17531
 7030 005e CD45     		.short	17869
 7031 0060 1D47     		.short	18205
 7032 0062 6A48     		.short	18538
 7033 0064 B449     		.short	18868
 7034 0066 FC4A     		.short	19196
 7035 0068 404C     		.short	19520
 7036 006a 824D     		.short	19842
 7037 006c C04E     		.short	20160
 7038 006e FC4F     		.short	20476
 7039 0070 3451     		.short	20788
 7040 0072 6952     		.short	21097
 7041 0074 9B53     		.short	21403
 7042 0076 CA54     		.short	21706
 7043 0078 F655     		.short	22006
 7044 007a 1E57     		.short	22302
 7045 007c 4358     		.short	22595
 7046 007e 6459     		.short	22884
 7047 0080 835A     		.short	23171
 7048 0082 9D5B     		.short	23453
 7049 0084 B45C     		.short	23732
 7050 0086 C85D     		.short	24008
 7051 0088 D75E     		.short	24279
 7052 008a E45F     		.short	24548
 7053 008c EC60     		.short	24812
 7054 008e F161     		.short	25073
 7055 0090 F262     		.short	25330
 7056 0092 EF63     		.short	25583
 7057 0094 E964     		.short	25833
 7058 0096 DE65     		.short	26078
 7059 0098 D066     		.short	26320
 7060 009a BD67     		.short	26557
 7061 009c A768     		.short	26791
 7062 009e 8C69     		.short	27020
 7063 00a0 6E6A     		.short	27246
 7064 00a2 4B6B     		.short	27467
 7065 00a4 246C     		.short	27684
 7066 00a6 F96C     		.short	27897
 7067 00a8 CA6D     		.short	28106
 7068 00aa 976E     		.short	28311
 7069 00ac 5F6F     		.short	28511
 7070 00ae 2370     		.short	28707
 7071 00b0 E370     		.short	28899
 7072 00b2 9E71     		.short	29086
ARM GAS  /tmp/cchqCFfA.s 			page 128


 7073 00b4 5572     		.short	29269
 7074 00b6 0873     		.short	29448
 7075 00b8 B673     		.short	29622
 7076 00ba 6074     		.short	29792
 7077 00bc 0575     		.short	29957
 7078 00be A575     		.short	30117
 7079 00c0 4276     		.short	30274
 7080 00c2 D976     		.short	30425
 7081 00c4 6C77     		.short	30572
 7082 00c6 FB77     		.short	30715
 7083 00c8 8478     		.short	30852
 7084 00ca 0979     		.short	30985
 7085 00cc 8A79     		.short	31114
 7086 00ce 067A     		.short	31238
 7087 00d0 7D7A     		.short	31357
 7088 00d2 EF7A     		.short	31471
 7089 00d4 5D7B     		.short	31581
 7090 00d6 C67B     		.short	31686
 7091 00d8 2A7C     		.short	31786
 7092 00da 897C     		.short	31881
 7093 00dc E47C     		.short	31972
 7094 00de 397D     		.short	32057
 7095 00e0 8A7D     		.short	32138
 7096 00e2 D77D     		.short	32215
 7097 00e4 1D7E     		.short	32285
 7098 00e6 607E     		.short	32352
 7099 00e8 9D7E     		.short	32413
 7100 00ea D67E     		.short	32470
 7101 00ec 097F     		.short	32521
 7102 00ee 397F     		.short	32569
 7103 00f0 627F     		.short	32610
 7104 00f2 877F     		.short	32647
 7105 00f4 A77F     		.short	32679
 7106 00f6 C27F     		.short	32706
 7107 00f8 D87F     		.short	32728
 7108 00fa EA7F     		.short	32746
 7109 00fc F67F     		.short	32758
 7110 00fe FE7F     		.short	32766
 7111 0100 FF7F     		.short	32767
 7112              		.text
 7113              	.Letext0:
 7114              		.file 3 ".//aseba/vm/../common/consts.h"
 7115              		.file 4 "/usr/lib/gcc/arm-none-eabi/9.2.1/include/stddef.h"
 7116              		.file 5 "/usr/include/newlib/sys/_types.h"
 7117              		.file 6 "/usr/include/newlib/sys/reent.h"
 7118              		.file 7 "/usr/include/newlib/sys/lock.h"
 7119              		.file 8 "/usr/include/newlib/stdlib.h"
 7120              		.file 9 ".//aseba/vm/../common/types.h"
 7121              		.file 10 ".//aseba/vm/vm.h"
 7122              		.section	.debug_info,"",%progbits
 7123              	.Ldebug_info0:
 7124 0000 94340000 		.4byte	0x3494
 7125 0004 0400     		.2byte	0x4
 7126 0006 00000000 		.4byte	.Ldebug_abbrev0
 7127 000a 04       		.byte	0x4
 7128 000b 01       		.uleb128 0x1
 7129 000c BF100000 		.4byte	.LASF283
ARM GAS  /tmp/cchqCFfA.s 			page 129


 7130 0010 0C       		.byte	0xc
 7131 0011 960E0000 		.4byte	.LASF284
 7132 0015 EC010000 		.4byte	.LASF285
 7133 0019 B00C0000 		.4byte	.Ldebug_ranges0+0xcb0
 7134 001d 00000000 		.4byte	0
 7135 0021 00000000 		.4byte	.Ldebug_line0
 7136 0025 02       		.uleb128 0x2
 7137 0026 01       		.byte	0x1
 7138 0027 08       		.byte	0x8
 7139 0028 880E0000 		.4byte	.LASF3
 7140 002c 03       		.uleb128 0x3
 7141 002d 07       		.byte	0x7
 7142 002e 01       		.byte	0x1
 7143 002f 25000000 		.4byte	0x25
 7144 0033 03       		.byte	0x3
 7145 0034 7B       		.byte	0x7b
 7146 0035 01       		.byte	0x1
 7147 0036 4D000000 		.4byte	0x4d
 7148 003a 04       		.uleb128 0x4
 7149 003b 1D0A0000 		.4byte	.LASF0
 7150 003f 01       		.byte	0x1
 7151 0040 04       		.uleb128 0x4
 7152 0041 7F020000 		.4byte	.LASF1
 7153 0045 02       		.byte	0x2
 7154 0046 04       		.uleb128 0x4
 7155 0047 9A070000 		.4byte	.LASF2
 7156 004b 04       		.byte	0x4
 7157 004c 00       		.byte	0
 7158 004d 02       		.uleb128 0x2
 7159 004e 02       		.byte	0x2
 7160 004f 07       		.byte	0x7
 7161 0050 24100000 		.4byte	.LASF4
 7162 0054 03       		.uleb128 0x3
 7163 0055 07       		.byte	0x7
 7164 0056 02       		.byte	0x2
 7165 0057 4D000000 		.4byte	0x4d
 7166 005b 03       		.byte	0x3
 7167 005c 90       		.byte	0x90
 7168 005d 01       		.byte	0x1
 7169 005e 74010000 		.4byte	0x174
 7170 0062 05       		.uleb128 0x5
 7171 0063 C4040000 		.4byte	.LASF5
 7172 0067 0080     		.2byte	0x8000
 7173 0069 05       		.uleb128 0x5
 7174 006a CD050000 		.4byte	.LASF6
 7175 006e 0180     		.2byte	0x8001
 7176 0070 05       		.uleb128 0x5
 7177 0071 98030000 		.4byte	.LASF7
 7178 0075 0280     		.2byte	0x8002
 7179 0077 05       		.uleb128 0x5
 7180 0078 49010000 		.4byte	.LASF8
 7181 007c 0380     		.2byte	0x8003
 7182 007e 05       		.uleb128 0x5
 7183 007f CF070000 		.4byte	.LASF9
 7184 0083 0480     		.2byte	0x8004
 7185 0085 05       		.uleb128 0x5
 7186 0086 580E0000 		.4byte	.LASF10
ARM GAS  /tmp/cchqCFfA.s 			page 130


 7187 008a 0580     		.2byte	0x8005
 7188 008c 05       		.uleb128 0x5
 7189 008d 300B0000 		.4byte	.LASF11
 7190 0091 0680     		.2byte	0x8006
 7191 0093 05       		.uleb128 0x5
 7192 0094 34020000 		.4byte	.LASF12
 7193 0098 0090     		.2byte	0x9000
 7194 009a 05       		.uleb128 0x5
 7195 009b E8020000 		.4byte	.LASF13
 7196 009f 0190     		.2byte	0x9001
 7197 00a1 05       		.uleb128 0x5
 7198 00a2 11030000 		.4byte	.LASF14
 7199 00a6 0290     		.2byte	0x9002
 7200 00a8 05       		.uleb128 0x5
 7201 00a9 6D0C0000 		.4byte	.LASF15
 7202 00ad 0390     		.2byte	0x9003
 7203 00af 05       		.uleb128 0x5
 7204 00b0 C80F0000 		.4byte	.LASF16
 7205 00b4 0490     		.2byte	0x9004
 7206 00b6 05       		.uleb128 0x5
 7207 00b7 EB0F0000 		.4byte	.LASF17
 7208 00bb 0590     		.2byte	0x9005
 7209 00bd 05       		.uleb128 0x5
 7210 00be D40A0000 		.4byte	.LASF18
 7211 00c2 0690     		.2byte	0x9006
 7212 00c4 05       		.uleb128 0x5
 7213 00c5 83100000 		.4byte	.LASF19
 7214 00c9 0790     		.2byte	0x9007
 7215 00cb 05       		.uleb128 0x5
 7216 00cc 91120000 		.4byte	.LASF20
 7217 00d0 0890     		.2byte	0x9008
 7218 00d2 05       		.uleb128 0x5
 7219 00d3 B1010000 		.4byte	.LASF21
 7220 00d7 0990     		.2byte	0x9009
 7221 00d9 05       		.uleb128 0x5
 7222 00da EF120000 		.4byte	.LASF22
 7223 00de 0A90     		.2byte	0x900a
 7224 00e0 05       		.uleb128 0x5
 7225 00e1 5B020000 		.4byte	.LASF23
 7226 00e5 0B90     		.2byte	0x900b
 7227 00e7 05       		.uleb128 0x5
 7228 00e8 AC090000 		.4byte	.LASF24
 7229 00ec 0C90     		.2byte	0x900c
 7230 00ee 05       		.uleb128 0x5
 7231 00ef AE0B0000 		.4byte	.LASF25
 7232 00f3 00A0     		.2byte	0xa000
 7233 00f5 05       		.uleb128 0x5
 7234 00f6 88010000 		.4byte	.LASF26
 7235 00fa 01A0     		.2byte	0xa001
 7236 00fc 05       		.uleb128 0x5
 7237 00fd 34090000 		.4byte	.LASF27
 7238 0101 02A0     		.2byte	0xa002
 7239 0103 05       		.uleb128 0x5
 7240 0104 C1120000 		.4byte	.LASF28
 7241 0108 03A0     		.2byte	0xa003
 7242 010a 05       		.uleb128 0x5
 7243 010b B70A0000 		.4byte	.LASF29
ARM GAS  /tmp/cchqCFfA.s 			page 131


 7244 010f 04A0     		.2byte	0xa004
 7245 0111 05       		.uleb128 0x5
 7246 0112 5E040000 		.4byte	.LASF30
 7247 0116 05A0     		.2byte	0xa005
 7248 0118 05       		.uleb128 0x5
 7249 0119 700F0000 		.4byte	.LASF31
 7250 011d 06A0     		.2byte	0xa006
 7251 011f 05       		.uleb128 0x5
 7252 0120 C6020000 		.4byte	.LASF32
 7253 0124 07A0     		.2byte	0xa007
 7254 0126 05       		.uleb128 0x5
 7255 0127 2E0F0000 		.4byte	.LASF33
 7256 012b 08A0     		.2byte	0xa008
 7257 012d 05       		.uleb128 0x5
 7258 012e 37100000 		.4byte	.LASF34
 7259 0132 09A0     		.2byte	0xa009
 7260 0134 05       		.uleb128 0x5
 7261 0135 F1000000 		.4byte	.LASF35
 7262 0139 0AA0     		.2byte	0xa00a
 7263 013b 05       		.uleb128 0x5
 7264 013c 85090000 		.4byte	.LASF36
 7265 0140 0BA0     		.2byte	0xa00b
 7266 0142 05       		.uleb128 0x5
 7267 0143 5E080000 		.4byte	.LASF37
 7268 0147 0CA0     		.2byte	0xa00c
 7269 0149 05       		.uleb128 0x5
 7270 014a 0A0D0000 		.4byte	.LASF38
 7271 014e 0DA0     		.2byte	0xa00d
 7272 0150 05       		.uleb128 0x5
 7273 0151 230E0000 		.4byte	.LASF39
 7274 0155 0EA0     		.2byte	0xa00e
 7275 0157 05       		.uleb128 0x5
 7276 0158 40060000 		.4byte	.LASF40
 7277 015c 0FA0     		.2byte	0xa00f
 7278 015e 05       		.uleb128 0x5
 7279 015f 24120000 		.4byte	.LASF41
 7280 0163 10A0     		.2byte	0xa010
 7281 0165 05       		.uleb128 0x5
 7282 0166 D3010000 		.4byte	.LASF42
 7283 016a 11A0     		.2byte	0xa011
 7284 016c 05       		.uleb128 0x5
 7285 016d DB000000 		.4byte	.LASF43
 7286 0171 FFFF     		.2byte	0xffff
 7287 0173 00       		.byte	0
 7288 0174 02       		.uleb128 0x2
 7289 0175 04       		.byte	0x4
 7290 0176 07       		.byte	0x7
 7291 0177 20010000 		.4byte	.LASF44
 7292 017b 06       		.uleb128 0x6
 7293 017c 04       		.byte	0x4
 7294 017d 05       		.byte	0x5
 7295 017e 696E7400 		.ascii	"int\000"
 7296 0182 02       		.uleb128 0x2
 7297 0183 08       		.byte	0x8
 7298 0184 05       		.byte	0x5
 7299 0185 C9080000 		.4byte	.LASF45
 7300 0189 02       		.uleb128 0x2
ARM GAS  /tmp/cchqCFfA.s 			page 132


 7301 018a 08       		.byte	0x8
 7302 018b 04       		.byte	0x4
 7303 018c 240B0000 		.4byte	.LASF46
 7304 0190 07       		.uleb128 0x7
 7305 0191 1C0E0000 		.4byte	.LASF52
 7306 0195 04       		.byte	0x4
 7307 0196 5E01     		.2byte	0x15e
 7308 0198 17       		.byte	0x17
 7309 0199 74010000 		.4byte	0x174
 7310 019d 02       		.uleb128 0x2
 7311 019e 01       		.byte	0x1
 7312 019f 06       		.byte	0x6
 7313 01a0 0B100000 		.4byte	.LASF47
 7314 01a4 02       		.uleb128 0x2
 7315 01a5 02       		.byte	0x2
 7316 01a6 05       		.byte	0x5
 7317 01a7 A40B0000 		.4byte	.LASF48
 7318 01ab 02       		.uleb128 0x2
 7319 01ac 04       		.byte	0x4
 7320 01ad 05       		.byte	0x5
 7321 01ae DE0B0000 		.4byte	.LASF49
 7322 01b2 02       		.uleb128 0x2
 7323 01b3 04       		.byte	0x4
 7324 01b4 07       		.byte	0x7
 7325 01b5 030E0000 		.4byte	.LASF50
 7326 01b9 02       		.uleb128 0x2
 7327 01ba 08       		.byte	0x8
 7328 01bb 07       		.byte	0x7
 7329 01bc ED040000 		.4byte	.LASF51
 7330 01c0 08       		.uleb128 0x8
 7331 01c1 AA010000 		.4byte	.LASF53
 7332 01c5 05       		.byte	0x5
 7333 01c6 2E       		.byte	0x2e
 7334 01c7 0E       		.byte	0xe
 7335 01c8 AB010000 		.4byte	0x1ab
 7336 01cc 08       		.uleb128 0x8
 7337 01cd 77030000 		.4byte	.LASF54
 7338 01d1 05       		.byte	0x5
 7339 01d2 74       		.byte	0x74
 7340 01d3 0E       		.byte	0xe
 7341 01d4 AB010000 		.4byte	0x1ab
 7342 01d8 09       		.uleb128 0x9
 7343 01d9 04       		.byte	0x4
 7344 01da 05       		.byte	0x5
 7345 01db A5       		.byte	0xa5
 7346 01dc 03       		.byte	0x3
 7347 01dd FA010000 		.4byte	0x1fa
 7348 01e1 0A       		.uleb128 0xa
 7349 01e2 24080000 		.4byte	.LASF55
 7350 01e6 05       		.byte	0x5
 7351 01e7 A7       		.byte	0xa7
 7352 01e8 0C       		.byte	0xc
 7353 01e9 90010000 		.4byte	0x190
 7354 01ed 0A       		.uleb128 0xa
 7355 01ee 9D0C0000 		.4byte	.LASF56
 7356 01f2 05       		.byte	0x5
 7357 01f3 A8       		.byte	0xa8
ARM GAS  /tmp/cchqCFfA.s 			page 133


 7358 01f4 13       		.byte	0x13
 7359 01f5 FA010000 		.4byte	0x1fa
 7360 01f9 00       		.byte	0
 7361 01fa 0B       		.uleb128 0xb
 7362 01fb 25000000 		.4byte	0x25
 7363 01ff 0A020000 		.4byte	0x20a
 7364 0203 0C       		.uleb128 0xc
 7365 0204 74010000 		.4byte	0x174
 7366 0208 03       		.byte	0x3
 7367 0209 00       		.byte	0
 7368 020a 0D       		.uleb128 0xd
 7369 020b 08       		.byte	0x8
 7370 020c 05       		.byte	0x5
 7371 020d A2       		.byte	0xa2
 7372 020e 09       		.byte	0x9
 7373 020f 2E020000 		.4byte	0x22e
 7374 0213 0E       		.uleb128 0xe
 7375 0214 34040000 		.4byte	.LASF57
 7376 0218 05       		.byte	0x5
 7377 0219 A4       		.byte	0xa4
 7378 021a 07       		.byte	0x7
 7379 021b 7B010000 		.4byte	0x17b
 7380 021f 00       		.byte	0
 7381 0220 0E       		.uleb128 0xe
 7382 0221 D8060000 		.4byte	.LASF58
 7383 0225 05       		.byte	0x5
 7384 0226 A9       		.byte	0xa9
 7385 0227 05       		.byte	0x5
 7386 0228 D8010000 		.4byte	0x1d8
 7387 022c 04       		.byte	0x4
 7388 022d 00       		.byte	0
 7389 022e 08       		.uleb128 0x8
 7390 022f A1090000 		.4byte	.LASF59
 7391 0233 05       		.byte	0x5
 7392 0234 AA       		.byte	0xaa
 7393 0235 03       		.byte	0x3
 7394 0236 0A020000 		.4byte	0x20a
 7395 023a 0F       		.uleb128 0xf
 7396 023b 04       		.byte	0x4
 7397 023c 08       		.uleb128 0x8
 7398 023d 0C090000 		.4byte	.LASF60
 7399 0241 06       		.byte	0x6
 7400 0242 16       		.byte	0x16
 7401 0243 19       		.byte	0x19
 7402 0244 B2010000 		.4byte	0x1b2
 7403 0248 08       		.uleb128 0x8
 7404 0249 9A020000 		.4byte	.LASF61
 7405 024d 07       		.byte	0x7
 7406 024e 0C       		.byte	0xc
 7407 024f 0D       		.byte	0xd
 7408 0250 7B010000 		.4byte	0x17b
 7409 0254 08       		.uleb128 0x8
 7410 0255 FB070000 		.4byte	.LASF62
 7411 0259 06       		.byte	0x6
 7412 025a 23       		.byte	0x23
 7413 025b 1B       		.byte	0x1b
 7414 025c 48020000 		.4byte	0x248
ARM GAS  /tmp/cchqCFfA.s 			page 134


 7415 0260 10       		.uleb128 0x10
 7416 0261 C3030000 		.4byte	.LASF67
 7417 0265 18       		.byte	0x18
 7418 0266 06       		.byte	0x6
 7419 0267 34       		.byte	0x34
 7420 0268 08       		.byte	0x8
 7421 0269 BA020000 		.4byte	0x2ba
 7422 026d 0E       		.uleb128 0xe
 7423 026e 5D060000 		.4byte	.LASF63
 7424 0272 06       		.byte	0x6
 7425 0273 36       		.byte	0x36
 7426 0274 13       		.byte	0x13
 7427 0275 BA020000 		.4byte	0x2ba
 7428 0279 00       		.byte	0
 7429 027a 11       		.uleb128 0x11
 7430 027b 5F6B00   		.ascii	"_k\000"
 7431 027e 06       		.byte	0x6
 7432 027f 37       		.byte	0x37
 7433 0280 07       		.byte	0x7
 7434 0281 7B010000 		.4byte	0x17b
 7435 0285 04       		.byte	0x4
 7436 0286 0E       		.uleb128 0xe
 7437 0287 920D0000 		.4byte	.LASF64
 7438 028b 06       		.byte	0x6
 7439 028c 37       		.byte	0x37
 7440 028d 0B       		.byte	0xb
 7441 028e 7B010000 		.4byte	0x17b
 7442 0292 08       		.byte	0x8
 7443 0293 0E       		.uleb128 0xe
 7444 0294 540C0000 		.4byte	.LASF65
 7445 0298 06       		.byte	0x6
 7446 0299 37       		.byte	0x37
 7447 029a 14       		.byte	0x14
 7448 029b 7B010000 		.4byte	0x17b
 7449 029f 0C       		.byte	0xc
 7450 02a0 0E       		.uleb128 0xe
 7451 02a1 19050000 		.4byte	.LASF66
 7452 02a5 06       		.byte	0x6
 7453 02a6 37       		.byte	0x37
 7454 02a7 1B       		.byte	0x1b
 7455 02a8 7B010000 		.4byte	0x17b
 7456 02ac 10       		.byte	0x10
 7457 02ad 11       		.uleb128 0x11
 7458 02ae 5F7800   		.ascii	"_x\000"
 7459 02b1 06       		.byte	0x6
 7460 02b2 38       		.byte	0x38
 7461 02b3 0B       		.byte	0xb
 7462 02b4 C0020000 		.4byte	0x2c0
 7463 02b8 14       		.byte	0x14
 7464 02b9 00       		.byte	0
 7465 02ba 12       		.uleb128 0x12
 7466 02bb 04       		.byte	0x4
 7467 02bc 60020000 		.4byte	0x260
 7468 02c0 0B       		.uleb128 0xb
 7469 02c1 3C020000 		.4byte	0x23c
 7470 02c5 D0020000 		.4byte	0x2d0
 7471 02c9 0C       		.uleb128 0xc
ARM GAS  /tmp/cchqCFfA.s 			page 135


 7472 02ca 74010000 		.4byte	0x174
 7473 02ce 00       		.byte	0
 7474 02cf 00       		.byte	0
 7475 02d0 10       		.uleb128 0x10
 7476 02d1 E50D0000 		.4byte	.LASF68
 7477 02d5 24       		.byte	0x24
 7478 02d6 06       		.byte	0x6
 7479 02d7 3C       		.byte	0x3c
 7480 02d8 08       		.byte	0x8
 7481 02d9 53030000 		.4byte	0x353
 7482 02dd 0E       		.uleb128 0xe
 7483 02de F0050000 		.4byte	.LASF69
 7484 02e2 06       		.byte	0x6
 7485 02e3 3E       		.byte	0x3e
 7486 02e4 09       		.byte	0x9
 7487 02e5 7B010000 		.4byte	0x17b
 7488 02e9 00       		.byte	0
 7489 02ea 0E       		.uleb128 0xe
 7490 02eb 71040000 		.4byte	.LASF70
 7491 02ef 06       		.byte	0x6
 7492 02f0 3F       		.byte	0x3f
 7493 02f1 09       		.byte	0x9
 7494 02f2 7B010000 		.4byte	0x17b
 7495 02f6 04       		.byte	0x4
 7496 02f7 0E       		.uleb128 0xe
 7497 02f8 0B040000 		.4byte	.LASF71
 7498 02fc 06       		.byte	0x6
 7499 02fd 40       		.byte	0x40
 7500 02fe 09       		.byte	0x9
 7501 02ff 7B010000 		.4byte	0x17b
 7502 0303 08       		.byte	0x8
 7503 0304 0E       		.uleb128 0xe
 7504 0305 33070000 		.4byte	.LASF72
 7505 0309 06       		.byte	0x6
 7506 030a 41       		.byte	0x41
 7507 030b 09       		.byte	0x9
 7508 030c 7B010000 		.4byte	0x17b
 7509 0310 0C       		.byte	0xc
 7510 0311 0E       		.uleb128 0xe
 7511 0312 CB0A0000 		.4byte	.LASF73
 7512 0316 06       		.byte	0x6
 7513 0317 42       		.byte	0x42
 7514 0318 09       		.byte	0x9
 7515 0319 7B010000 		.4byte	0x17b
 7516 031d 10       		.byte	0x10
 7517 031e 0E       		.uleb128 0xe
 7518 031f F40C0000 		.4byte	.LASF74
 7519 0323 06       		.byte	0x6
 7520 0324 43       		.byte	0x43
 7521 0325 09       		.byte	0x9
 7522 0326 7B010000 		.4byte	0x17b
 7523 032a 14       		.byte	0x14
 7524 032b 0E       		.uleb128 0xe
 7525 032c E1030000 		.4byte	.LASF75
 7526 0330 06       		.byte	0x6
 7527 0331 44       		.byte	0x44
 7528 0332 09       		.byte	0x9
ARM GAS  /tmp/cchqCFfA.s 			page 136


 7529 0333 7B010000 		.4byte	0x17b
 7530 0337 18       		.byte	0x18
 7531 0338 0E       		.uleb128 0xe
 7532 0339 03060000 		.4byte	.LASF76
 7533 033d 06       		.byte	0x6
 7534 033e 45       		.byte	0x45
 7535 033f 09       		.byte	0x9
 7536 0340 7B010000 		.4byte	0x17b
 7537 0344 1C       		.byte	0x1c
 7538 0345 0E       		.uleb128 0xe
 7539 0346 120A0000 		.4byte	.LASF77
 7540 034a 06       		.byte	0x6
 7541 034b 46       		.byte	0x46
 7542 034c 09       		.byte	0x9
 7543 034d 7B010000 		.4byte	0x17b
 7544 0351 20       		.byte	0x20
 7545 0352 00       		.byte	0
 7546 0353 13       		.uleb128 0x13
 7547 0354 48000000 		.4byte	.LASF78
 7548 0358 0801     		.2byte	0x108
 7549 035a 06       		.byte	0x6
 7550 035b 4F       		.byte	0x4f
 7551 035c 08       		.byte	0x8
 7552 035d 98030000 		.4byte	0x398
 7553 0361 0E       		.uleb128 0xe
 7554 0362 03100000 		.4byte	.LASF79
 7555 0366 06       		.byte	0x6
 7556 0367 50       		.byte	0x50
 7557 0368 0A       		.byte	0xa
 7558 0369 98030000 		.4byte	0x398
 7559 036d 00       		.byte	0
 7560 036e 0E       		.uleb128 0xe
 7561 036f 400E0000 		.4byte	.LASF80
 7562 0373 06       		.byte	0x6
 7563 0374 51       		.byte	0x51
 7564 0375 09       		.byte	0x9
 7565 0376 98030000 		.4byte	0x398
 7566 037a 80       		.byte	0x80
 7567 037b 14       		.uleb128 0x14
 7568 037c 56100000 		.4byte	.LASF81
 7569 0380 06       		.byte	0x6
 7570 0381 53       		.byte	0x53
 7571 0382 0A       		.byte	0xa
 7572 0383 3C020000 		.4byte	0x23c
 7573 0387 0001     		.2byte	0x100
 7574 0389 14       		.uleb128 0x14
 7575 038a 68120000 		.4byte	.LASF82
 7576 038e 06       		.byte	0x6
 7577 038f 56       		.byte	0x56
 7578 0390 0A       		.byte	0xa
 7579 0391 3C020000 		.4byte	0x23c
 7580 0395 0401     		.2byte	0x104
 7581 0397 00       		.byte	0
 7582 0398 0B       		.uleb128 0xb
 7583 0399 3A020000 		.4byte	0x23a
 7584 039d A8030000 		.4byte	0x3a8
 7585 03a1 0C       		.uleb128 0xc
ARM GAS  /tmp/cchqCFfA.s 			page 137


 7586 03a2 74010000 		.4byte	0x174
 7587 03a6 1F       		.byte	0x1f
 7588 03a7 00       		.byte	0
 7589 03a8 13       		.uleb128 0x13
 7590 03a9 780B0000 		.4byte	.LASF83
 7591 03ad 9001     		.2byte	0x190
 7592 03af 06       		.byte	0x6
 7593 03b0 62       		.byte	0x62
 7594 03b1 08       		.byte	0x8
 7595 03b2 EB030000 		.4byte	0x3eb
 7596 03b6 0E       		.uleb128 0xe
 7597 03b7 5D060000 		.4byte	.LASF63
 7598 03bb 06       		.byte	0x6
 7599 03bc 63       		.byte	0x63
 7600 03bd 12       		.byte	0x12
 7601 03be EB030000 		.4byte	0x3eb
 7602 03c2 00       		.byte	0
 7603 03c3 0E       		.uleb128 0xe
 7604 03c4 12060000 		.4byte	.LASF84
 7605 03c8 06       		.byte	0x6
 7606 03c9 64       		.byte	0x64
 7607 03ca 06       		.byte	0x6
 7608 03cb 7B010000 		.4byte	0x17b
 7609 03cf 04       		.byte	0x4
 7610 03d0 0E       		.uleb128 0xe
 7611 03d1 7F030000 		.4byte	.LASF85
 7612 03d5 06       		.byte	0x6
 7613 03d6 66       		.byte	0x66
 7614 03d7 09       		.byte	0x9
 7615 03d8 F1030000 		.4byte	0x3f1
 7616 03dc 08       		.byte	0x8
 7617 03dd 0E       		.uleb128 0xe
 7618 03de 48000000 		.4byte	.LASF78
 7619 03e2 06       		.byte	0x6
 7620 03e3 67       		.byte	0x67
 7621 03e4 1E       		.byte	0x1e
 7622 03e5 53030000 		.4byte	0x353
 7623 03e9 88       		.byte	0x88
 7624 03ea 00       		.byte	0
 7625 03eb 12       		.uleb128 0x12
 7626 03ec 04       		.byte	0x4
 7627 03ed A8030000 		.4byte	0x3a8
 7628 03f1 0B       		.uleb128 0xb
 7629 03f2 01040000 		.4byte	0x401
 7630 03f6 01040000 		.4byte	0x401
 7631 03fa 0C       		.uleb128 0xc
 7632 03fb 74010000 		.4byte	0x174
 7633 03ff 1F       		.byte	0x1f
 7634 0400 00       		.byte	0
 7635 0401 12       		.uleb128 0x12
 7636 0402 04       		.byte	0x4
 7637 0403 07040000 		.4byte	0x407
 7638 0407 15       		.uleb128 0x15
 7639 0408 10       		.uleb128 0x10
 7640 0409 5E0F0000 		.4byte	.LASF86
 7641 040d 08       		.byte	0x8
 7642 040e 06       		.byte	0x6
ARM GAS  /tmp/cchqCFfA.s 			page 138


 7643 040f 7A       		.byte	0x7a
 7644 0410 08       		.byte	0x8
 7645 0411 30040000 		.4byte	0x430
 7646 0415 0E       		.uleb128 0xe
 7647 0416 F6080000 		.4byte	.LASF87
 7648 041a 06       		.byte	0x6
 7649 041b 7B       		.byte	0x7b
 7650 041c 11       		.byte	0x11
 7651 041d 30040000 		.4byte	0x430
 7652 0421 00       		.byte	0
 7653 0422 0E       		.uleb128 0xe
 7654 0423 7D100000 		.4byte	.LASF88
 7655 0427 06       		.byte	0x6
 7656 0428 7C       		.byte	0x7c
 7657 0429 06       		.byte	0x6
 7658 042a 7B010000 		.4byte	0x17b
 7659 042e 04       		.byte	0x4
 7660 042f 00       		.byte	0
 7661 0430 12       		.uleb128 0x12
 7662 0431 04       		.byte	0x4
 7663 0432 25000000 		.4byte	0x25
 7664 0436 10       		.uleb128 0x10
 7665 0437 11050000 		.4byte	.LASF89
 7666 043b 68       		.byte	0x68
 7667 043c 06       		.byte	0x6
 7668 043d BA       		.byte	0xba
 7669 043e 08       		.byte	0x8
 7670 043f 79050000 		.4byte	0x579
 7671 0443 11       		.uleb128 0x11
 7672 0444 5F7000   		.ascii	"_p\000"
 7673 0447 06       		.byte	0x6
 7674 0448 BB       		.byte	0xbb
 7675 0449 12       		.byte	0x12
 7676 044a 30040000 		.4byte	0x430
 7677 044e 00       		.byte	0
 7678 044f 11       		.uleb128 0x11
 7679 0450 5F7200   		.ascii	"_r\000"
 7680 0453 06       		.byte	0x6
 7681 0454 BC       		.byte	0xbc
 7682 0455 07       		.byte	0x7
 7683 0456 7B010000 		.4byte	0x17b
 7684 045a 04       		.byte	0x4
 7685 045b 11       		.uleb128 0x11
 7686 045c 5F7700   		.ascii	"_w\000"
 7687 045f 06       		.byte	0x6
 7688 0460 BD       		.byte	0xbd
 7689 0461 07       		.byte	0x7
 7690 0462 7B010000 		.4byte	0x17b
 7691 0466 08       		.byte	0x8
 7692 0467 0E       		.uleb128 0xe
 7693 0468 7B010000 		.4byte	.LASF90
 7694 046c 06       		.byte	0x6
 7695 046d BE       		.byte	0xbe
 7696 046e 09       		.byte	0x9
 7697 046f A4010000 		.4byte	0x1a4
 7698 0473 0C       		.byte	0xc
 7699 0474 0E       		.uleb128 0xe
ARM GAS  /tmp/cchqCFfA.s 			page 139


 7700 0475 57090000 		.4byte	.LASF91
 7701 0479 06       		.byte	0x6
 7702 047a BF       		.byte	0xbf
 7703 047b 09       		.byte	0x9
 7704 047c A4010000 		.4byte	0x1a4
 7705 0480 0E       		.byte	0xe
 7706 0481 11       		.uleb128 0x11
 7707 0482 5F626600 		.ascii	"_bf\000"
 7708 0486 06       		.byte	0x6
 7709 0487 C0       		.byte	0xc0
 7710 0488 11       		.byte	0x11
 7711 0489 08040000 		.4byte	0x408
 7712 048d 10       		.byte	0x10
 7713 048e 0E       		.uleb128 0xe
 7714 048f 72010000 		.4byte	.LASF92
 7715 0493 06       		.byte	0x6
 7716 0494 C1       		.byte	0xc1
 7717 0495 07       		.byte	0x7
 7718 0496 7B010000 		.4byte	0x17b
 7719 049a 18       		.byte	0x18
 7720 049b 0E       		.uleb128 0xe
 7721 049c 84030000 		.4byte	.LASF93
 7722 04a0 06       		.byte	0x6
 7723 04a1 C8       		.byte	0xc8
 7724 04a2 0A       		.byte	0xa
 7725 04a3 3A020000 		.4byte	0x23a
 7726 04a7 1C       		.byte	0x1c
 7727 04a8 0E       		.uleb128 0xe
 7728 04a9 280F0000 		.4byte	.LASF94
 7729 04ad 06       		.byte	0x6
 7730 04ae CA       		.byte	0xca
 7731 04af 1D       		.byte	0x1d
 7732 04b0 FD060000 		.4byte	0x6fd
 7733 04b4 20       		.byte	0x20
 7734 04b5 0E       		.uleb128 0xe
 7735 04b6 4D0B0000 		.4byte	.LASF95
 7736 04ba 06       		.byte	0x6
 7737 04bb CC       		.byte	0xcc
 7738 04bc 1D       		.byte	0x1d
 7739 04bd 27070000 		.4byte	0x727
 7740 04c1 24       		.byte	0x24
 7741 04c2 0E       		.uleb128 0xe
 7742 04c3 BB120000 		.4byte	.LASF96
 7743 04c7 06       		.byte	0x6
 7744 04c8 CF       		.byte	0xcf
 7745 04c9 0D       		.byte	0xd
 7746 04ca 4B070000 		.4byte	0x74b
 7747 04ce 28       		.byte	0x28
 7748 04cf 0E       		.uleb128 0xe
 7749 04d0 3D080000 		.4byte	.LASF97
 7750 04d4 06       		.byte	0x6
 7751 04d5 D0       		.byte	0xd0
 7752 04d6 09       		.byte	0x9
 7753 04d7 65070000 		.4byte	0x765
 7754 04db 2C       		.byte	0x2c
 7755 04dc 11       		.uleb128 0x11
 7756 04dd 5F756200 		.ascii	"_ub\000"
ARM GAS  /tmp/cchqCFfA.s 			page 140


 7757 04e1 06       		.byte	0x6
 7758 04e2 D3       		.byte	0xd3
 7759 04e3 11       		.byte	0x11
 7760 04e4 08040000 		.4byte	0x408
 7761 04e8 30       		.byte	0x30
 7762 04e9 11       		.uleb128 0x11
 7763 04ea 5F757000 		.ascii	"_up\000"
 7764 04ee 06       		.byte	0x6
 7765 04ef D4       		.byte	0xd4
 7766 04f0 12       		.byte	0x12
 7767 04f1 30040000 		.4byte	0x430
 7768 04f5 38       		.byte	0x38
 7769 04f6 11       		.uleb128 0x11
 7770 04f7 5F757200 		.ascii	"_ur\000"
 7771 04fb 06       		.byte	0x6
 7772 04fc D5       		.byte	0xd5
 7773 04fd 07       		.byte	0x7
 7774 04fe 7B010000 		.4byte	0x17b
 7775 0502 3C       		.byte	0x3c
 7776 0503 0E       		.uleb128 0xe
 7777 0504 E9120000 		.4byte	.LASF98
 7778 0508 06       		.byte	0x6
 7779 0509 D8       		.byte	0xd8
 7780 050a 11       		.byte	0x11
 7781 050b 6B070000 		.4byte	0x76b
 7782 050f 40       		.byte	0x40
 7783 0510 0E       		.uleb128 0xe
 7784 0511 11120000 		.4byte	.LASF99
 7785 0515 06       		.byte	0x6
 7786 0516 D9       		.byte	0xd9
 7787 0517 11       		.byte	0x11
 7788 0518 7B070000 		.4byte	0x77b
 7789 051c 43       		.byte	0x43
 7790 051d 11       		.uleb128 0x11
 7791 051e 5F6C6200 		.ascii	"_lb\000"
 7792 0522 06       		.byte	0x6
 7793 0523 DC       		.byte	0xdc
 7794 0524 11       		.byte	0x11
 7795 0525 08040000 		.4byte	0x408
 7796 0529 44       		.byte	0x44
 7797 052a 0E       		.uleb128 0xe
 7798 052b DC0D0000 		.4byte	.LASF100
 7799 052f 06       		.byte	0x6
 7800 0530 DF       		.byte	0xdf
 7801 0531 07       		.byte	0x7
 7802 0532 7B010000 		.4byte	0x17b
 7803 0536 4C       		.byte	0x4c
 7804 0537 0E       		.uleb128 0xe
 7805 0538 3C050000 		.4byte	.LASF101
 7806 053c 06       		.byte	0x6
 7807 053d E0       		.byte	0xe0
 7808 053e 0A       		.byte	0xa
 7809 053f C0010000 		.4byte	0x1c0
 7810 0543 50       		.byte	0x50
 7811 0544 0E       		.uleb128 0xe
 7812 0545 970C0000 		.4byte	.LASF102
 7813 0549 06       		.byte	0x6
ARM GAS  /tmp/cchqCFfA.s 			page 141


 7814 054a E3       		.byte	0xe3
 7815 054b 12       		.byte	0x12
 7816 054c 97050000 		.4byte	0x597
 7817 0550 54       		.byte	0x54
 7818 0551 0E       		.uleb128 0xe
 7819 0552 FD0D0000 		.4byte	.LASF103
 7820 0556 06       		.byte	0x6
 7821 0557 E7       		.byte	0xe7
 7822 0558 0C       		.byte	0xc
 7823 0559 54020000 		.4byte	0x254
 7824 055d 58       		.byte	0x58
 7825 055e 0E       		.uleb128 0xe
 7826 055f 800B0000 		.4byte	.LASF104
 7827 0563 06       		.byte	0x6
 7828 0564 E9       		.byte	0xe9
 7829 0565 0E       		.byte	0xe
 7830 0566 2E020000 		.4byte	0x22e
 7831 056a 5C       		.byte	0x5c
 7832 056b 0E       		.uleb128 0xe
 7833 056c 60120000 		.4byte	.LASF105
 7834 0570 06       		.byte	0x6
 7835 0571 EA       		.byte	0xea
 7836 0572 09       		.byte	0x9
 7837 0573 7B010000 		.4byte	0x17b
 7838 0577 64       		.byte	0x64
 7839 0578 00       		.byte	0
 7840 0579 16       		.uleb128 0x16
 7841 057a 7B010000 		.4byte	0x17b
 7842 057e 97050000 		.4byte	0x597
 7843 0582 17       		.uleb128 0x17
 7844 0583 97050000 		.4byte	0x597
 7845 0587 17       		.uleb128 0x17
 7846 0588 3A020000 		.4byte	0x23a
 7847 058c 17       		.uleb128 0x17
 7848 058d EB060000 		.4byte	0x6eb
 7849 0591 17       		.uleb128 0x17
 7850 0592 7B010000 		.4byte	0x17b
 7851 0596 00       		.byte	0
 7852 0597 12       		.uleb128 0x12
 7853 0598 04       		.byte	0x4
 7854 0599 A2050000 		.4byte	0x5a2
 7855 059d 18       		.uleb128 0x18
 7856 059e 97050000 		.4byte	0x597
 7857 05a2 19       		.uleb128 0x19
 7858 05a3 1D100000 		.4byte	.LASF106
 7859 05a7 2804     		.2byte	0x428
 7860 05a9 06       		.byte	0x6
 7861 05aa 6502     		.2byte	0x265
 7862 05ac 08       		.byte	0x8
 7863 05ad EB060000 		.4byte	0x6eb
 7864 05b1 1A       		.uleb128 0x1a
 7865 05b2 A3010000 		.4byte	.LASF107
 7866 05b6 06       		.byte	0x6
 7867 05b7 6702     		.2byte	0x267
 7868 05b9 07       		.byte	0x7
 7869 05ba 7B010000 		.4byte	0x17b
 7870 05be 00       		.byte	0
ARM GAS  /tmp/cchqCFfA.s 			page 142


 7871 05bf 1A       		.uleb128 0x1a
 7872 05c0 B3080000 		.4byte	.LASF108
 7873 05c4 06       		.byte	0x6
 7874 05c5 6C02     		.2byte	0x26c
 7875 05c7 0B       		.byte	0xb
 7876 05c8 D7070000 		.4byte	0x7d7
 7877 05cc 04       		.byte	0x4
 7878 05cd 1A       		.uleb128 0x1a
 7879 05ce 6F030000 		.4byte	.LASF109
 7880 05d2 06       		.byte	0x6
 7881 05d3 6C02     		.2byte	0x26c
 7882 05d5 14       		.byte	0x14
 7883 05d6 D7070000 		.4byte	0x7d7
 7884 05da 08       		.byte	0x8
 7885 05db 1A       		.uleb128 0x1a
 7886 05dc D8120000 		.4byte	.LASF110
 7887 05e0 06       		.byte	0x6
 7888 05e1 6C02     		.2byte	0x26c
 7889 05e3 1E       		.byte	0x1e
 7890 05e4 D7070000 		.4byte	0x7d7
 7891 05e8 0C       		.byte	0xc
 7892 05e9 1A       		.uleb128 0x1a
 7893 05ea 0D060000 		.4byte	.LASF111
 7894 05ee 06       		.byte	0x6
 7895 05ef 6E02     		.2byte	0x26e
 7896 05f1 08       		.byte	0x8
 7897 05f2 7B010000 		.4byte	0x17b
 7898 05f6 10       		.byte	0x10
 7899 05f7 1A       		.uleb128 0x1a
 7900 05f8 5E050000 		.4byte	.LASF112
 7901 05fc 06       		.byte	0x6
 7902 05fd 6F02     		.2byte	0x26f
 7903 05ff 08       		.byte	0x8
 7904 0600 D7090000 		.4byte	0x9d7
 7905 0604 14       		.byte	0x14
 7906 0605 1A       		.uleb128 0x1a
 7907 0606 47120000 		.4byte	.LASF113
 7908 060a 06       		.byte	0x6
 7909 060b 7202     		.2byte	0x272
 7910 060d 07       		.byte	0x7
 7911 060e 7B010000 		.4byte	0x17b
 7912 0612 30       		.byte	0x30
 7913 0613 1A       		.uleb128 0x1a
 7914 0614 E30F0000 		.4byte	.LASF114
 7915 0618 06       		.byte	0x6
 7916 0619 7302     		.2byte	0x273
 7917 061b 16       		.byte	0x16
 7918 061c EC090000 		.4byte	0x9ec
 7919 0620 34       		.byte	0x34
 7920 0621 1A       		.uleb128 0x1a
 7921 0622 4E080000 		.4byte	.LASF115
 7922 0626 06       		.byte	0x6
 7923 0627 7502     		.2byte	0x275
 7924 0629 07       		.byte	0x7
 7925 062a 7B010000 		.4byte	0x17b
 7926 062e 38       		.byte	0x38
 7927 062f 1A       		.uleb128 0x1a
ARM GAS  /tmp/cchqCFfA.s 			page 143


 7928 0630 7B090000 		.4byte	.LASF116
 7929 0634 06       		.byte	0x6
 7930 0635 7702     		.2byte	0x277
 7931 0637 0A       		.byte	0xa
 7932 0638 FD090000 		.4byte	0x9fd
 7933 063c 3C       		.byte	0x3c
 7934 063d 1A       		.uleb128 0x1a
 7935 063e F2030000 		.4byte	.LASF117
 7936 0642 06       		.byte	0x6
 7937 0643 7A02     		.2byte	0x27a
 7938 0645 13       		.byte	0x13
 7939 0646 BA020000 		.4byte	0x2ba
 7940 064a 40       		.byte	0x40
 7941 064b 1A       		.uleb128 0x1a
 7942 064c E3040000 		.4byte	.LASF118
 7943 0650 06       		.byte	0x6
 7944 0651 7B02     		.2byte	0x27b
 7945 0653 07       		.byte	0x7
 7946 0654 7B010000 		.4byte	0x17b
 7947 0658 44       		.byte	0x44
 7948 0659 1A       		.uleb128 0x1a
 7949 065a F3060000 		.4byte	.LASF119
 7950 065e 06       		.byte	0x6
 7951 065f 7C02     		.2byte	0x27c
 7952 0661 13       		.byte	0x13
 7953 0662 BA020000 		.4byte	0x2ba
 7954 0666 48       		.byte	0x48
 7955 0667 1A       		.uleb128 0x1a
 7956 0668 FC080000 		.4byte	.LASF120
 7957 066c 06       		.byte	0x6
 7958 066d 7D02     		.2byte	0x27d
 7959 066f 14       		.byte	0x14
 7960 0670 030A0000 		.4byte	0xa03
 7961 0674 4C       		.byte	0x4c
 7962 0675 1A       		.uleb128 0x1a
 7963 0676 8A0D0000 		.4byte	.LASF121
 7964 067a 06       		.byte	0x6
 7965 067b 8002     		.2byte	0x280
 7966 067d 07       		.byte	0x7
 7967 067e 7B010000 		.4byte	0x17b
 7968 0682 50       		.byte	0x50
 7969 0683 1A       		.uleb128 0x1a
 7970 0684 800E0000 		.4byte	.LASF122
 7971 0688 06       		.byte	0x6
 7972 0689 8102     		.2byte	0x281
 7973 068b 09       		.byte	0x9
 7974 068c EB060000 		.4byte	0x6eb
 7975 0690 54       		.byte	0x54
 7976 0691 1A       		.uleb128 0x1a
 7977 0692 850D0000 		.4byte	.LASF123
 7978 0696 06       		.byte	0x6
 7979 0697 A402     		.2byte	0x2a4
 7980 0699 07       		.byte	0x7
 7981 069a B2090000 		.4byte	0x9b2
 7982 069e 58       		.byte	0x58
 7983 069f 1B       		.uleb128 0x1b
 7984 06a0 780B0000 		.4byte	.LASF83
ARM GAS  /tmp/cchqCFfA.s 			page 144


 7985 06a4 06       		.byte	0x6
 7986 06a5 A802     		.2byte	0x2a8
 7987 06a7 13       		.byte	0x13
 7988 06a8 EB030000 		.4byte	0x3eb
 7989 06ac 4801     		.2byte	0x148
 7990 06ae 1B       		.uleb128 0x1b
 7991 06af 56070000 		.4byte	.LASF124
 7992 06b3 06       		.byte	0x6
 7993 06b4 A902     		.2byte	0x2a9
 7994 06b6 12       		.byte	0x12
 7995 06b7 A8030000 		.4byte	0x3a8
 7996 06bb 4C01     		.2byte	0x14c
 7997 06bd 1B       		.uleb128 0x1b
 7998 06be 3D070000 		.4byte	.LASF125
 7999 06c2 06       		.byte	0x6
 8000 06c3 AD02     		.2byte	0x2ad
 8001 06c5 0C       		.byte	0xc
 8002 06c6 140A0000 		.4byte	0xa14
 8003 06ca DC02     		.2byte	0x2dc
 8004 06cc 1B       		.uleb128 0x1b
 8005 06cd 950F0000 		.4byte	.LASF126
 8006 06d1 06       		.byte	0x6
 8007 06d2 B202     		.2byte	0x2b2
 8008 06d4 10       		.byte	0x10
 8009 06d5 98070000 		.4byte	0x798
 8010 06d9 E002     		.2byte	0x2e0
 8011 06db 1B       		.uleb128 0x1b
 8012 06dc 4F0C0000 		.4byte	.LASF127
 8013 06e0 06       		.byte	0x6
 8014 06e1 B402     		.2byte	0x2b4
 8015 06e3 0A       		.byte	0xa
 8016 06e4 200A0000 		.4byte	0xa20
 8017 06e8 EC02     		.2byte	0x2ec
 8018 06ea 00       		.byte	0
 8019 06eb 12       		.uleb128 0x12
 8020 06ec 04       		.byte	0x4
 8021 06ed F1060000 		.4byte	0x6f1
 8022 06f1 02       		.uleb128 0x2
 8023 06f2 01       		.byte	0x1
 8024 06f3 08       		.byte	0x8
 8025 06f4 2E070000 		.4byte	.LASF128
 8026 06f8 18       		.uleb128 0x18
 8027 06f9 F1060000 		.4byte	0x6f1
 8028 06fd 12       		.uleb128 0x12
 8029 06fe 04       		.byte	0x4
 8030 06ff 79050000 		.4byte	0x579
 8031 0703 16       		.uleb128 0x16
 8032 0704 7B010000 		.4byte	0x17b
 8033 0708 21070000 		.4byte	0x721
 8034 070c 17       		.uleb128 0x17
 8035 070d 97050000 		.4byte	0x597
 8036 0711 17       		.uleb128 0x17
 8037 0712 3A020000 		.4byte	0x23a
 8038 0716 17       		.uleb128 0x17
 8039 0717 21070000 		.4byte	0x721
 8040 071b 17       		.uleb128 0x17
 8041 071c 7B010000 		.4byte	0x17b
ARM GAS  /tmp/cchqCFfA.s 			page 145


 8042 0720 00       		.byte	0
 8043 0721 12       		.uleb128 0x12
 8044 0722 04       		.byte	0x4
 8045 0723 F8060000 		.4byte	0x6f8
 8046 0727 12       		.uleb128 0x12
 8047 0728 04       		.byte	0x4
 8048 0729 03070000 		.4byte	0x703
 8049 072d 16       		.uleb128 0x16
 8050 072e CC010000 		.4byte	0x1cc
 8051 0732 4B070000 		.4byte	0x74b
 8052 0736 17       		.uleb128 0x17
 8053 0737 97050000 		.4byte	0x597
 8054 073b 17       		.uleb128 0x17
 8055 073c 3A020000 		.4byte	0x23a
 8056 0740 17       		.uleb128 0x17
 8057 0741 CC010000 		.4byte	0x1cc
 8058 0745 17       		.uleb128 0x17
 8059 0746 7B010000 		.4byte	0x17b
 8060 074a 00       		.byte	0
 8061 074b 12       		.uleb128 0x12
 8062 074c 04       		.byte	0x4
 8063 074d 2D070000 		.4byte	0x72d
 8064 0751 16       		.uleb128 0x16
 8065 0752 7B010000 		.4byte	0x17b
 8066 0756 65070000 		.4byte	0x765
 8067 075a 17       		.uleb128 0x17
 8068 075b 97050000 		.4byte	0x597
 8069 075f 17       		.uleb128 0x17
 8070 0760 3A020000 		.4byte	0x23a
 8071 0764 00       		.byte	0
 8072 0765 12       		.uleb128 0x12
 8073 0766 04       		.byte	0x4
 8074 0767 51070000 		.4byte	0x751
 8075 076b 0B       		.uleb128 0xb
 8076 076c 25000000 		.4byte	0x25
 8077 0770 7B070000 		.4byte	0x77b
 8078 0774 0C       		.uleb128 0xc
 8079 0775 74010000 		.4byte	0x174
 8080 0779 02       		.byte	0x2
 8081 077a 00       		.byte	0
 8082 077b 0B       		.uleb128 0xb
 8083 077c 25000000 		.4byte	0x25
 8084 0780 8B070000 		.4byte	0x78b
 8085 0784 0C       		.uleb128 0xc
 8086 0785 74010000 		.4byte	0x174
 8087 0789 00       		.byte	0
 8088 078a 00       		.byte	0
 8089 078b 07       		.uleb128 0x7
 8090 078c 2A050000 		.4byte	.LASF129
 8091 0790 06       		.byte	0x6
 8092 0791 2401     		.2byte	0x124
 8093 0793 1A       		.byte	0x1a
 8094 0794 36040000 		.4byte	0x436
 8095 0798 1C       		.uleb128 0x1c
 8096 0799 830F0000 		.4byte	.LASF130
 8097 079d 0C       		.byte	0xc
 8098 079e 06       		.byte	0x6
ARM GAS  /tmp/cchqCFfA.s 			page 146


 8099 079f 2801     		.2byte	0x128
 8100 07a1 08       		.byte	0x8
 8101 07a2 D1070000 		.4byte	0x7d1
 8102 07a6 1A       		.uleb128 0x1a
 8103 07a7 5D060000 		.4byte	.LASF63
 8104 07ab 06       		.byte	0x6
 8105 07ac 2A01     		.2byte	0x12a
 8106 07ae 11       		.byte	0x11
 8107 07af D1070000 		.4byte	0x7d1
 8108 07b3 00       		.byte	0
 8109 07b4 1A       		.uleb128 0x1a
 8110 07b5 150E0000 		.4byte	.LASF131
 8111 07b9 06       		.byte	0x6
 8112 07ba 2B01     		.2byte	0x12b
 8113 07bc 07       		.byte	0x7
 8114 07bd 7B010000 		.4byte	0x17b
 8115 07c1 04       		.byte	0x4
 8116 07c2 1A       		.uleb128 0x1a
 8117 07c3 2A080000 		.4byte	.LASF132
 8118 07c7 06       		.byte	0x6
 8119 07c8 2C01     		.2byte	0x12c
 8120 07ca 0B       		.byte	0xb
 8121 07cb D7070000 		.4byte	0x7d7
 8122 07cf 08       		.byte	0x8
 8123 07d0 00       		.byte	0
 8124 07d1 12       		.uleb128 0x12
 8125 07d2 04       		.byte	0x4
 8126 07d3 98070000 		.4byte	0x798
 8127 07d7 12       		.uleb128 0x12
 8128 07d8 04       		.byte	0x4
 8129 07d9 8B070000 		.4byte	0x78b
 8130 07dd 1C       		.uleb128 0x1c
 8131 07de AE040000 		.4byte	.LASF133
 8132 07e2 0E       		.byte	0xe
 8133 07e3 06       		.byte	0x6
 8134 07e4 4401     		.2byte	0x144
 8135 07e6 08       		.byte	0x8
 8136 07e7 16080000 		.4byte	0x816
 8137 07eb 1A       		.uleb128 0x1a
 8138 07ec 80120000 		.4byte	.LASF134
 8139 07f0 06       		.byte	0x6
 8140 07f1 4501     		.2byte	0x145
 8141 07f3 12       		.byte	0x12
 8142 07f4 16080000 		.4byte	0x816
 8143 07f8 00       		.byte	0
 8144 07f9 1A       		.uleb128 0x1a
 8145 07fa 06090000 		.4byte	.LASF135
 8146 07fe 06       		.byte	0x6
 8147 07ff 4601     		.2byte	0x146
 8148 0801 12       		.byte	0x12
 8149 0802 16080000 		.4byte	0x816
 8150 0806 06       		.byte	0x6
 8151 0807 1A       		.uleb128 0x1a
 8152 0808 230F0000 		.4byte	.LASF136
 8153 080c 06       		.byte	0x6
 8154 080d 4701     		.2byte	0x147
 8155 080f 12       		.byte	0x12
ARM GAS  /tmp/cchqCFfA.s 			page 147


 8156 0810 4D000000 		.4byte	0x4d
 8157 0814 0C       		.byte	0xc
 8158 0815 00       		.byte	0
 8159 0816 0B       		.uleb128 0xb
 8160 0817 4D000000 		.4byte	0x4d
 8161 081b 26080000 		.4byte	0x826
 8162 081f 0C       		.uleb128 0xc
 8163 0820 74010000 		.4byte	0x174
 8164 0824 02       		.byte	0x2
 8165 0825 00       		.byte	0
 8166 0826 1D       		.uleb128 0x1d
 8167 0827 D0       		.byte	0xd0
 8168 0828 06       		.byte	0x6
 8169 0829 8502     		.2byte	0x285
 8170 082b 07       		.byte	0x7
 8171 082c 3B090000 		.4byte	0x93b
 8172 0830 1A       		.uleb128 0x1a
 8173 0831 17120000 		.4byte	.LASF137
 8174 0835 06       		.byte	0x6
 8175 0836 8702     		.2byte	0x287
 8176 0838 18       		.byte	0x18
 8177 0839 74010000 		.4byte	0x174
 8178 083d 00       		.byte	0
 8179 083e 1A       		.uleb128 0x1a
 8180 083f 9D0F0000 		.4byte	.LASF138
 8181 0843 06       		.byte	0x6
 8182 0844 8802     		.2byte	0x288
 8183 0846 12       		.byte	0x12
 8184 0847 EB060000 		.4byte	0x6eb
 8185 084b 04       		.byte	0x4
 8186 084c 1A       		.uleb128 0x1a
 8187 084d 04050000 		.4byte	.LASF139
 8188 0851 06       		.byte	0x6
 8189 0852 8902     		.2byte	0x289
 8190 0854 10       		.byte	0x10
 8191 0855 3B090000 		.4byte	0x93b
 8192 0859 08       		.byte	0x8
 8193 085a 1A       		.uleb128 0x1a
 8194 085b 4E0D0000 		.4byte	.LASF140
 8195 085f 06       		.byte	0x6
 8196 0860 8A02     		.2byte	0x28a
 8197 0862 17       		.byte	0x17
 8198 0863 D0020000 		.4byte	0x2d0
 8199 0867 24       		.byte	0x24
 8200 0868 1A       		.uleb128 0x1a
 8201 0869 BA080000 		.4byte	.LASF141
 8202 086d 06       		.byte	0x6
 8203 086e 8B02     		.2byte	0x28b
 8204 0870 0F       		.byte	0xf
 8205 0871 7B010000 		.4byte	0x17b
 8206 0875 48       		.byte	0x48
 8207 0876 1A       		.uleb128 0x1a
 8208 0877 86120000 		.4byte	.LASF142
 8209 087b 06       		.byte	0x6
 8210 087c 8C02     		.2byte	0x28c
 8211 087e 2C       		.byte	0x2c
 8212 087f B9010000 		.4byte	0x1b9
ARM GAS  /tmp/cchqCFfA.s 			page 148


 8213 0883 50       		.byte	0x50
 8214 0884 1A       		.uleb128 0x1a
 8215 0885 BA000000 		.4byte	.LASF143
 8216 0889 06       		.byte	0x6
 8217 088a 8D02     		.2byte	0x28d
 8218 088c 1A       		.byte	0x1a
 8219 088d DD070000 		.4byte	0x7dd
 8220 0891 58       		.byte	0x58
 8221 0892 1A       		.uleb128 0x1a
 8222 0893 21070000 		.4byte	.LASF144
 8223 0897 06       		.byte	0x6
 8224 0898 8E02     		.2byte	0x28e
 8225 089a 16       		.byte	0x16
 8226 089b 2E020000 		.4byte	0x22e
 8227 089f 68       		.byte	0x68
 8228 08a0 1A       		.uleb128 0x1a
 8229 08a1 AA0F0000 		.4byte	.LASF145
 8230 08a5 06       		.byte	0x6
 8231 08a6 8F02     		.2byte	0x28f
 8232 08a8 16       		.byte	0x16
 8233 08a9 2E020000 		.4byte	0x22e
 8234 08ad 70       		.byte	0x70
 8235 08ae 1A       		.uleb128 0x1a
 8236 08af 78000000 		.4byte	.LASF146
 8237 08b3 06       		.byte	0x6
 8238 08b4 9002     		.2byte	0x290
 8239 08b6 16       		.byte	0x16
 8240 08b7 2E020000 		.4byte	0x22e
 8241 08bb 78       		.byte	0x78
 8242 08bc 1A       		.uleb128 0x1a
 8243 08bd 9A0D0000 		.4byte	.LASF147
 8244 08c1 06       		.byte	0x6
 8245 08c2 9102     		.2byte	0x291
 8246 08c4 10       		.byte	0x10
 8247 08c5 4B090000 		.4byte	0x94b
 8248 08c9 80       		.byte	0x80
 8249 08ca 1A       		.uleb128 0x1a
 8250 08cb 14010000 		.4byte	.LASF148
 8251 08cf 06       		.byte	0x6
 8252 08d0 9202     		.2byte	0x292
 8253 08d2 10       		.byte	0x10
 8254 08d3 5B090000 		.4byte	0x95b
 8255 08d7 88       		.byte	0x88
 8256 08d8 1A       		.uleb128 0x1a
 8257 08d9 CA0E0000 		.4byte	.LASF149
 8258 08dd 06       		.byte	0x6
 8259 08de 9302     		.2byte	0x293
 8260 08e0 0F       		.byte	0xf
 8261 08e1 7B010000 		.4byte	0x17b
 8262 08e5 A0       		.byte	0xa0
 8263 08e6 1A       		.uleb128 0x1a
 8264 08e7 530A0000 		.4byte	.LASF150
 8265 08eb 06       		.byte	0x6
 8266 08ec 9402     		.2byte	0x294
 8267 08ee 16       		.byte	0x16
 8268 08ef 2E020000 		.4byte	0x22e
 8269 08f3 A4       		.byte	0xa4
ARM GAS  /tmp/cchqCFfA.s 			page 149


 8270 08f4 1A       		.uleb128 0x1a
 8271 08f5 47070000 		.4byte	.LASF151
 8272 08f9 06       		.byte	0x6
 8273 08fa 9502     		.2byte	0x295
 8274 08fc 16       		.byte	0x16
 8275 08fd 2E020000 		.4byte	0x22e
 8276 0901 AC       		.byte	0xac
 8277 0902 1A       		.uleb128 0x1a
 8278 0903 6C060000 		.4byte	.LASF152
 8279 0907 06       		.byte	0x6
 8280 0908 9602     		.2byte	0x296
 8281 090a 16       		.byte	0x16
 8282 090b 2E020000 		.4byte	0x22e
 8283 090f B4       		.byte	0xb4
 8284 0910 1A       		.uleb128 0x1a
 8285 0911 48090000 		.4byte	.LASF153
 8286 0915 06       		.byte	0x6
 8287 0916 9702     		.2byte	0x297
 8288 0918 16       		.byte	0x16
 8289 0919 2E020000 		.4byte	0x22e
 8290 091d BC       		.byte	0xbc
 8291 091e 1A       		.uleb128 0x1a
 8292 091f 10070000 		.4byte	.LASF154
 8293 0923 06       		.byte	0x6
 8294 0924 9802     		.2byte	0x298
 8295 0926 16       		.byte	0x16
 8296 0927 2E020000 		.4byte	0x22e
 8297 092b C4       		.byte	0xc4
 8298 092c 1A       		.uleb128 0x1a
 8299 092d 6B0A0000 		.4byte	.LASF155
 8300 0931 06       		.byte	0x6
 8301 0932 9902     		.2byte	0x299
 8302 0934 08       		.byte	0x8
 8303 0935 7B010000 		.4byte	0x17b
 8304 0939 CC       		.byte	0xcc
 8305 093a 00       		.byte	0
 8306 093b 0B       		.uleb128 0xb
 8307 093c F1060000 		.4byte	0x6f1
 8308 0940 4B090000 		.4byte	0x94b
 8309 0944 0C       		.uleb128 0xc
 8310 0945 74010000 		.4byte	0x174
 8311 0949 19       		.byte	0x19
 8312 094a 00       		.byte	0
 8313 094b 0B       		.uleb128 0xb
 8314 094c F1060000 		.4byte	0x6f1
 8315 0950 5B090000 		.4byte	0x95b
 8316 0954 0C       		.uleb128 0xc
 8317 0955 74010000 		.4byte	0x174
 8318 0959 07       		.byte	0x7
 8319 095a 00       		.byte	0
 8320 095b 0B       		.uleb128 0xb
 8321 095c F1060000 		.4byte	0x6f1
 8322 0960 6B090000 		.4byte	0x96b
 8323 0964 0C       		.uleb128 0xc
 8324 0965 74010000 		.4byte	0x174
 8325 0969 17       		.byte	0x17
 8326 096a 00       		.byte	0
ARM GAS  /tmp/cchqCFfA.s 			page 150


 8327 096b 1D       		.uleb128 0x1d
 8328 096c F0       		.byte	0xf0
 8329 096d 06       		.byte	0x6
 8330 096e 9E02     		.2byte	0x29e
 8331 0970 07       		.byte	0x7
 8332 0971 92090000 		.4byte	0x992
 8333 0975 1A       		.uleb128 0x1a
 8334 0976 86040000 		.4byte	.LASF156
 8335 097a 06       		.byte	0x6
 8336 097b A102     		.2byte	0x2a1
 8337 097d 1B       		.byte	0x1b
 8338 097e 92090000 		.4byte	0x992
 8339 0982 00       		.byte	0
 8340 0983 1A       		.uleb128 0x1a
 8341 0984 E0120000 		.4byte	.LASF157
 8342 0988 06       		.byte	0x6
 8343 0989 A202     		.2byte	0x2a2
 8344 098b 18       		.byte	0x18
 8345 098c A2090000 		.4byte	0x9a2
 8346 0990 78       		.byte	0x78
 8347 0991 00       		.byte	0
 8348 0992 0B       		.uleb128 0xb
 8349 0993 30040000 		.4byte	0x430
 8350 0997 A2090000 		.4byte	0x9a2
 8351 099b 0C       		.uleb128 0xc
 8352 099c 74010000 		.4byte	0x174
 8353 09a0 1D       		.byte	0x1d
 8354 09a1 00       		.byte	0
 8355 09a2 0B       		.uleb128 0xb
 8356 09a3 74010000 		.4byte	0x174
 8357 09a7 B2090000 		.4byte	0x9b2
 8358 09ab 0C       		.uleb128 0xc
 8359 09ac 74010000 		.4byte	0x174
 8360 09b0 1D       		.byte	0x1d
 8361 09b1 00       		.byte	0
 8362 09b2 1E       		.uleb128 0x1e
 8363 09b3 F0       		.byte	0xf0
 8364 09b4 06       		.byte	0x6
 8365 09b5 8302     		.2byte	0x283
 8366 09b7 03       		.byte	0x3
 8367 09b8 D7090000 		.4byte	0x9d7
 8368 09bc 1F       		.uleb128 0x1f
 8369 09bd 1D100000 		.4byte	.LASF106
 8370 09c1 06       		.byte	0x6
 8371 09c2 9A02     		.2byte	0x29a
 8372 09c4 0B       		.byte	0xb
 8373 09c5 26080000 		.4byte	0x826
 8374 09c9 1F       		.uleb128 0x1f
 8375 09ca 5D0D0000 		.4byte	.LASF158
 8376 09ce 06       		.byte	0x6
 8377 09cf A302     		.2byte	0x2a3
 8378 09d1 0B       		.byte	0xb
 8379 09d2 6B090000 		.4byte	0x96b
 8380 09d6 00       		.byte	0
 8381 09d7 0B       		.uleb128 0xb
 8382 09d8 F1060000 		.4byte	0x6f1
 8383 09dc E7090000 		.4byte	0x9e7
ARM GAS  /tmp/cchqCFfA.s 			page 151


 8384 09e0 0C       		.uleb128 0xc
 8385 09e1 74010000 		.4byte	0x174
 8386 09e5 18       		.byte	0x18
 8387 09e6 00       		.byte	0
 8388 09e7 20       		.uleb128 0x20
 8389 09e8 31050000 		.4byte	.LASF286
 8390 09ec 12       		.uleb128 0x12
 8391 09ed 04       		.byte	0x4
 8392 09ee E7090000 		.4byte	0x9e7
 8393 09f2 21       		.uleb128 0x21
 8394 09f3 FD090000 		.4byte	0x9fd
 8395 09f7 17       		.uleb128 0x17
 8396 09f8 97050000 		.4byte	0x597
 8397 09fc 00       		.byte	0
 8398 09fd 12       		.uleb128 0x12
 8399 09fe 04       		.byte	0x4
 8400 09ff F2090000 		.4byte	0x9f2
 8401 0a03 12       		.uleb128 0x12
 8402 0a04 04       		.byte	0x4
 8403 0a05 BA020000 		.4byte	0x2ba
 8404 0a09 21       		.uleb128 0x21
 8405 0a0a 140A0000 		.4byte	0xa14
 8406 0a0e 17       		.uleb128 0x17
 8407 0a0f 7B010000 		.4byte	0x17b
 8408 0a13 00       		.byte	0
 8409 0a14 12       		.uleb128 0x12
 8410 0a15 04       		.byte	0x4
 8411 0a16 1A0A0000 		.4byte	0xa1a
 8412 0a1a 12       		.uleb128 0x12
 8413 0a1b 04       		.byte	0x4
 8414 0a1c 090A0000 		.4byte	0xa09
 8415 0a20 0B       		.uleb128 0xb
 8416 0a21 8B070000 		.4byte	0x78b
 8417 0a25 300A0000 		.4byte	0xa30
 8418 0a29 0C       		.uleb128 0xc
 8419 0a2a 74010000 		.4byte	0x174
 8420 0a2e 02       		.byte	0x2
 8421 0a2f 00       		.byte	0
 8422 0a30 22       		.uleb128 0x22
 8423 0a31 7A040000 		.4byte	.LASF159
 8424 0a35 06       		.byte	0x6
 8425 0a36 3303     		.2byte	0x333
 8426 0a38 17       		.byte	0x17
 8427 0a39 97050000 		.4byte	0x597
 8428 0a3d 22       		.uleb128 0x22
 8429 0a3e A40C0000 		.4byte	.LASF160
 8430 0a42 06       		.byte	0x6
 8431 0a43 3403     		.2byte	0x334
 8432 0a45 1D       		.byte	0x1d
 8433 0a46 9D050000 		.4byte	0x59d
 8434 0a4a 23       		.uleb128 0x23
 8435 0a4b F9050000 		.4byte	.LASF161
 8436 0a4f 08       		.byte	0x8
 8437 0a50 67       		.byte	0x67
 8438 0a51 0E       		.byte	0xe
 8439 0a52 EB060000 		.4byte	0x6eb
 8440 0a56 08       		.uleb128 0x8
ARM GAS  /tmp/cchqCFfA.s 			page 152


 8441 0a57 09070000 		.4byte	.LASF162
 8442 0a5b 09       		.byte	0x9
 8443 0a5c 21       		.byte	0x21
 8444 0a5d 15       		.byte	0x15
 8445 0a5e AB010000 		.4byte	0x1ab
 8446 0a62 08       		.uleb128 0x8
 8447 0a63 0B0A0000 		.4byte	.LASF163
 8448 0a67 09       		.byte	0x9
 8449 0a68 22       		.byte	0x22
 8450 0a69 17       		.byte	0x17
 8451 0a6a B2010000 		.4byte	0x1b2
 8452 0a6e 08       		.uleb128 0x8
 8453 0a6f 23050000 		.4byte	.LASF164
 8454 0a73 09       		.byte	0x9
 8455 0a74 23       		.byte	0x23
 8456 0a75 16       		.byte	0x16
 8457 0a76 A4010000 		.4byte	0x1a4
 8458 0a7a 18       		.uleb128 0x18
 8459 0a7b 6E0A0000 		.4byte	0xa6e
 8460 0a7f 08       		.uleb128 0x8
 8461 0a80 F4070000 		.4byte	.LASF165
 8462 0a84 09       		.byte	0x9
 8463 0a85 24       		.byte	0x24
 8464 0a86 18       		.byte	0x18
 8465 0a87 4D000000 		.4byte	0x4d
 8466 0a8b 03       		.uleb128 0x3
 8467 0a8c 07       		.byte	0x7
 8468 0a8d 01       		.byte	0x1
 8469 0a8e 25000000 		.4byte	0x25
 8470 0a92 0A       		.byte	0xa
 8471 0a93 37       		.byte	0x37
 8472 0a94 01       		.byte	0x1
 8473 0a95 A00A0000 		.4byte	0xaa0
 8474 0a99 04       		.uleb128 0x4
 8475 0a9a CB030000 		.4byte	.LASF166
 8476 0a9e 10       		.byte	0x10
 8477 0a9f 00       		.byte	0
 8478 0aa0 0D       		.uleb128 0xd
 8479 0aa1 40       		.byte	0x40
 8480 0aa2 0A       		.byte	0xa
 8481 0aa3 45       		.byte	0x45
 8482 0aa4 09       		.byte	0x9
 8483 0aa5 440B0000 		.4byte	0xb44
 8484 0aa9 0E       		.uleb128 0xe
 8485 0aaa 37030000 		.4byte	.LASF167
 8486 0aae 0A       		.byte	0xa
 8487 0aaf 48       		.byte	0x48
 8488 0ab0 09       		.byte	0x9
 8489 0ab1 7F0A0000 		.4byte	0xa7f
 8490 0ab5 00       		.byte	0
 8491 0ab6 0E       		.uleb128 0xe
 8492 0ab7 AA0A0000 		.4byte	.LASF168
 8493 0abb 0A       		.byte	0xa
 8494 0abc 4B       		.byte	0x4b
 8495 0abd 09       		.byte	0x9
 8496 0abe 7F0A0000 		.4byte	0xa7f
 8497 0ac2 02       		.byte	0x2
ARM GAS  /tmp/cchqCFfA.s 			page 153


 8498 0ac3 0E       		.uleb128 0xe
 8499 0ac4 70120000 		.4byte	.LASF169
 8500 0ac8 0A       		.byte	0xa
 8501 0ac9 4C       		.byte	0x4c
 8502 0aca 0B       		.byte	0xb
 8503 0acb 440B0000 		.4byte	0xb44
 8504 0acf 04       		.byte	0x4
 8505 0ad0 0E       		.uleb128 0xe
 8506 0ad1 AC000000 		.4byte	.LASF170
 8507 0ad5 0A       		.byte	0xa
 8508 0ad6 4F       		.byte	0x4f
 8509 0ad7 09       		.byte	0x9
 8510 0ad8 7F0A0000 		.4byte	0xa7f
 8511 0adc 08       		.byte	0x8
 8512 0add 0E       		.uleb128 0xe
 8513 0ade 490A0000 		.4byte	.LASF171
 8514 0ae2 0A       		.byte	0xa
 8515 0ae3 50       		.byte	0x50
 8516 0ae4 0B       		.byte	0xb
 8517 0ae5 4A0B0000 		.4byte	0xb4a
 8518 0ae9 0C       		.byte	0xc
 8519 0aea 0E       		.uleb128 0xe
 8520 0aeb C7090000 		.4byte	.LASF172
 8521 0aef 0A       		.byte	0xa
 8522 0af0 53       		.byte	0x53
 8523 0af1 09       		.byte	0x9
 8524 0af2 7F0A0000 		.4byte	0xa7f
 8525 0af6 10       		.byte	0x10
 8526 0af7 0E       		.uleb128 0xe
 8527 0af8 B80D0000 		.4byte	.LASF173
 8528 0afc 0A       		.byte	0xa
 8529 0afd 54       		.byte	0x54
 8530 0afe 0B       		.byte	0xb
 8531 0aff 4A0B0000 		.4byte	0xb4a
 8532 0b03 14       		.byte	0x14
 8533 0b04 0E       		.uleb128 0xe
 8534 0b05 A6000000 		.4byte	.LASF174
 8535 0b09 0A       		.byte	0xa
 8536 0b0a 57       		.byte	0x57
 8537 0b0b 09       		.byte	0x9
 8538 0b0c 7F0A0000 		.4byte	0xa7f
 8539 0b10 18       		.byte	0x18
 8540 0b11 11       		.uleb128 0x11
 8541 0b12 706300   		.ascii	"pc\000"
 8542 0b15 0A       		.byte	0xa
 8543 0b16 58       		.byte	0x58
 8544 0b17 09       		.byte	0x9
 8545 0b18 7F0A0000 		.4byte	0xa7f
 8546 0b1c 1A       		.byte	0x1a
 8547 0b1d 11       		.uleb128 0x11
 8548 0b1e 737000   		.ascii	"sp\000"
 8549 0b21 0A       		.byte	0xa
 8550 0b22 59       		.byte	0x59
 8551 0b23 09       		.byte	0x9
 8552 0b24 6E0A0000 		.4byte	0xa6e
 8553 0b28 1C       		.byte	0x1c
 8554 0b29 0E       		.uleb128 0xe
ARM GAS  /tmp/cchqCFfA.s 			page 154


 8555 0b2a 4C0E0000 		.4byte	.LASF175
 8556 0b2e 0A       		.byte	0xa
 8557 0b2f 5C       		.byte	0x5c
 8558 0b30 09       		.byte	0x9
 8559 0b31 500B0000 		.4byte	0xb50
 8560 0b35 1E       		.byte	0x1e
 8561 0b36 0E       		.uleb128 0xe
 8562 0b37 38010000 		.4byte	.LASF176
 8563 0b3b 0A       		.byte	0xa
 8564 0b3c 5D       		.byte	0x5d
 8565 0b3d 09       		.byte	0x9
 8566 0b3e 7F0A0000 		.4byte	0xa7f
 8567 0b42 3E       		.byte	0x3e
 8568 0b43 00       		.byte	0
 8569 0b44 12       		.uleb128 0x12
 8570 0b45 04       		.byte	0x4
 8571 0b46 7F0A0000 		.4byte	0xa7f
 8572 0b4a 12       		.uleb128 0x12
 8573 0b4b 04       		.byte	0x4
 8574 0b4c 6E0A0000 		.4byte	0xa6e
 8575 0b50 0B       		.uleb128 0xb
 8576 0b51 7F0A0000 		.4byte	0xa7f
 8577 0b55 600B0000 		.4byte	0xb60
 8578 0b59 0C       		.uleb128 0xc
 8579 0b5a 74010000 		.4byte	0x174
 8580 0b5e 0F       		.byte	0xf
 8581 0b5f 00       		.byte	0
 8582 0b60 08       		.uleb128 0x8
 8583 0b61 4E020000 		.4byte	.LASF177
 8584 0b65 0A       		.byte	0xa
 8585 0b66 5E       		.byte	0x5e
 8586 0b67 03       		.byte	0x3
 8587 0b68 A00A0000 		.4byte	0xaa0
 8588 0b6c 12       		.uleb128 0x12
 8589 0b6d 04       		.byte	0x4
 8590 0b6e 600B0000 		.4byte	0xb60
 8591 0b72 0D       		.uleb128 0xd
 8592 0b73 08       		.byte	0x8
 8593 0b74 02       		.byte	0x2
 8594 0b75 47       		.byte	0x47
 8595 0b76 09       		.byte	0x9
 8596 0b77 960B0000 		.4byte	0xb96
 8597 0b7b 0E       		.uleb128 0xe
 8598 0b7c D1090000 		.4byte	.LASF178
 8599 0b80 02       		.byte	0x2
 8600 0b81 49       		.byte	0x49
 8601 0b82 09       		.byte	0x9
 8602 0b83 6E0A0000 		.4byte	0xa6e
 8603 0b87 00       		.byte	0
 8604 0b88 0E       		.uleb128 0xe
 8605 0b89 00000000 		.4byte	.LASF179
 8606 0b8d 02       		.byte	0x2
 8607 0b8e 4A       		.byte	0x4a
 8608 0b8f 0E       		.byte	0xe
 8609 0b90 21070000 		.4byte	0x721
 8610 0b94 04       		.byte	0x4
 8611 0b95 00       		.byte	0
ARM GAS  /tmp/cchqCFfA.s 			page 155


 8612 0b96 08       		.uleb128 0x8
 8613 0b97 FD0A0000 		.4byte	.LASF180
 8614 0b9b 02       		.byte	0x2
 8615 0b9c 4B       		.byte	0x4b
 8616 0b9d 03       		.byte	0x3
 8617 0b9e 720B0000 		.4byte	0xb72
 8618 0ba2 0D       		.uleb128 0xd
 8619 0ba3 08       		.byte	0x8
 8620 0ba4 02       		.byte	0x2
 8621 0ba5 4E       		.byte	0x4e
 8622 0ba6 09       		.byte	0x9
 8623 0ba7 D30B0000 		.4byte	0xbd3
 8624 0bab 0E       		.uleb128 0xe
 8625 0bac 00000000 		.4byte	.LASF179
 8626 0bb0 02       		.byte	0x2
 8627 0bb1 50       		.byte	0x50
 8628 0bb2 0E       		.byte	0xe
 8629 0bb3 21070000 		.4byte	0x721
 8630 0bb7 00       		.byte	0
 8631 0bb8 11       		.uleb128 0x11
 8632 0bb9 646F6300 		.ascii	"doc\000"
 8633 0bbd 02       		.byte	0x2
 8634 0bbe 51       		.byte	0x51
 8635 0bbf 0E       		.byte	0xe
 8636 0bc0 21070000 		.4byte	0x721
 8637 0bc4 04       		.byte	0x4
 8638 0bc5 0E       		.uleb128 0xe
 8639 0bc6 D70E0000 		.4byte	.LASF181
 8640 0bca 02       		.byte	0x2
 8641 0bcb 52       		.byte	0x52
 8642 0bcc 29       		.byte	0x29
 8643 0bcd D30B0000 		.4byte	0xbd3
 8644 0bd1 08       		.byte	0x8
 8645 0bd2 00       		.byte	0
 8646 0bd3 0B       		.uleb128 0xb
 8647 0bd4 960B0000 		.4byte	0xb96
 8648 0bd8 E20B0000 		.4byte	0xbe2
 8649 0bdc 24       		.uleb128 0x24
 8650 0bdd 74010000 		.4byte	0x174
 8651 0be1 00       		.byte	0
 8652 0be2 08       		.uleb128 0x8
 8653 0be3 29000000 		.4byte	.LASF182
 8654 0be7 02       		.byte	0x2
 8655 0be8 53       		.byte	0x53
 8656 0be9 03       		.byte	0x3
 8657 0bea A20B0000 		.4byte	0xba2
 8658 0bee 18       		.uleb128 0x18
 8659 0bef E20B0000 		.4byte	0xbe2
 8660 0bf3 23       		.uleb128 0x23
 8661 0bf4 D7080000 		.4byte	.LASF183
 8662 0bf8 02       		.byte	0x2
 8663 0bf9 62       		.byte	0x62
 8664 0bfa 2D       		.byte	0x2d
 8665 0bfb EE0B0000 		.4byte	0xbee
 8666 0bff 23       		.uleb128 0x23
 8667 0c00 B9060000 		.4byte	.LASF184
 8668 0c04 02       		.byte	0x2
ARM GAS  /tmp/cchqCFfA.s 			page 156


 8669 0c05 67       		.byte	0x67
 8670 0c06 2D       		.byte	0x2d
 8671 0c07 EE0B0000 		.4byte	0xbee
 8672 0c0b 23       		.uleb128 0x23
 8673 0c0c E7090000 		.4byte	.LASF185
 8674 0c10 02       		.byte	0x2
 8675 0c11 6C       		.byte	0x6c
 8676 0c12 2D       		.byte	0x2d
 8677 0c13 EE0B0000 		.4byte	0xbee
 8678 0c17 23       		.uleb128 0x23
 8679 0c18 AC0E0000 		.4byte	.LASF186
 8680 0c1c 02       		.byte	0x2
 8681 0c1d 71       		.byte	0x71
 8682 0c1e 2D       		.byte	0x2d
 8683 0c1f EE0B0000 		.4byte	0xbee
 8684 0c23 23       		.uleb128 0x23
 8685 0c24 5A0B0000 		.4byte	.LASF187
 8686 0c28 02       		.byte	0x2
 8687 0c29 76       		.byte	0x76
 8688 0c2a 2D       		.byte	0x2d
 8689 0c2b EE0B0000 		.4byte	0xbee
 8690 0c2f 23       		.uleb128 0x23
 8691 0c30 D60C0000 		.4byte	.LASF188
 8692 0c34 02       		.byte	0x2
 8693 0c35 7B       		.byte	0x7b
 8694 0c36 2D       		.byte	0x2d
 8695 0c37 EE0B0000 		.4byte	0xbee
 8696 0c3b 23       		.uleb128 0x23
 8697 0c3c 9B060000 		.4byte	.LASF189
 8698 0c40 02       		.byte	0x2
 8699 0c41 80       		.byte	0x80
 8700 0c42 2D       		.byte	0x2d
 8701 0c43 EE0B0000 		.4byte	0xbee
 8702 0c47 23       		.uleb128 0x23
 8703 0c48 5F100000 		.4byte	.LASF190
 8704 0c4c 02       		.byte	0x2
 8705 0c4d 85       		.byte	0x85
 8706 0c4e 2D       		.byte	0x2d
 8707 0c4f EE0B0000 		.4byte	0xbee
 8708 0c53 23       		.uleb128 0x23
 8709 0c54 73070000 		.4byte	.LASF191
 8710 0c58 02       		.byte	0x2
 8711 0c59 8A       		.byte	0x8a
 8712 0c5a 2D       		.byte	0x2d
 8713 0c5b EE0B0000 		.4byte	0xbee
 8714 0c5f 23       		.uleb128 0x23
 8715 0c60 14090000 		.4byte	.LASF192
 8716 0c64 02       		.byte	0x2
 8717 0c65 8F       		.byte	0x8f
 8718 0c66 2D       		.byte	0x2d
 8719 0c67 EE0B0000 		.4byte	0xbee
 8720 0c6b 23       		.uleb128 0x23
 8721 0c6c BE0D0000 		.4byte	.LASF193
 8722 0c70 02       		.byte	0x2
 8723 0c71 94       		.byte	0x94
 8724 0c72 2D       		.byte	0x2d
 8725 0c73 EE0B0000 		.4byte	0xbee
ARM GAS  /tmp/cchqCFfA.s 			page 157


 8726 0c77 23       		.uleb128 0x23
 8727 0c78 B70C0000 		.4byte	.LASF194
 8728 0c7c 02       		.byte	0x2
 8729 0c7d 99       		.byte	0x99
 8730 0c7e 2D       		.byte	0x2d
 8731 0c7f EE0B0000 		.4byte	0xbee
 8732 0c83 23       		.uleb128 0x23
 8733 0c84 A9050000 		.4byte	.LASF195
 8734 0c88 02       		.byte	0x2
 8735 0c89 9E       		.byte	0x9e
 8736 0c8a 2D       		.byte	0x2d
 8737 0c8b EE0B0000 		.4byte	0xbee
 8738 0c8f 23       		.uleb128 0x23
 8739 0c90 F40E0000 		.4byte	.LASF196
 8740 0c94 02       		.byte	0x2
 8741 0c95 A3       		.byte	0xa3
 8742 0c96 2D       		.byte	0x2d
 8743 0c97 EE0B0000 		.4byte	0xbee
 8744 0c9b 23       		.uleb128 0x23
 8745 0c9c 56000000 		.4byte	.LASF197
 8746 0ca0 02       		.byte	0x2
 8747 0ca1 A8       		.byte	0xa8
 8748 0ca2 2D       		.byte	0x2d
 8749 0ca3 EE0B0000 		.4byte	0xbee
 8750 0ca7 23       		.uleb128 0x23
 8751 0ca8 890A0000 		.4byte	.LASF198
 8752 0cac 02       		.byte	0x2
 8753 0cad AD       		.byte	0xad
 8754 0cae 2D       		.byte	0x2d
 8755 0caf EE0B0000 		.4byte	0xbee
 8756 0cb3 23       		.uleb128 0x23
 8757 0cb4 3E030000 		.4byte	.LASF199
 8758 0cb8 02       		.byte	0x2
 8759 0cb9 B2       		.byte	0xb2
 8760 0cba 2D       		.byte	0x2d
 8761 0cbb EE0B0000 		.4byte	0xbee
 8762 0cbf 23       		.uleb128 0x23
 8763 0cc0 15040000 		.4byte	.LASF200
 8764 0cc4 02       		.byte	0x2
 8765 0cc5 B7       		.byte	0xb7
 8766 0cc6 2D       		.byte	0x2d
 8767 0cc7 EE0B0000 		.4byte	0xbee
 8768 0ccb 23       		.uleb128 0x23
 8769 0ccc 650D0000 		.4byte	.LASF201
 8770 0cd0 02       		.byte	0x2
 8771 0cd1 BC       		.byte	0xbc
 8772 0cd2 2D       		.byte	0x2d
 8773 0cd3 EE0B0000 		.4byte	0xbee
 8774 0cd7 23       		.uleb128 0x23
 8775 0cd8 86000000 		.4byte	.LASF202
 8776 0cdc 02       		.byte	0x2
 8777 0cdd C1       		.byte	0xc1
 8778 0cde 2D       		.byte	0x2d
 8779 0cdf EE0B0000 		.4byte	0xbee
 8780 0ce3 23       		.uleb128 0x23
 8781 0ce4 89080000 		.4byte	.LASF203
 8782 0ce8 02       		.byte	0x2
ARM GAS  /tmp/cchqCFfA.s 			page 158


 8783 0ce9 C6       		.byte	0xc6
 8784 0cea 2D       		.byte	0x2d
 8785 0ceb EE0B0000 		.4byte	0xbee
 8786 0cef 23       		.uleb128 0x23
 8787 0cf0 3C040000 		.4byte	.LASF204
 8788 0cf4 02       		.byte	0x2
 8789 0cf5 CF       		.byte	0xcf
 8790 0cf6 2D       		.byte	0x2d
 8791 0cf7 EE0B0000 		.4byte	0xbee
 8792 0cfb 0B       		.uleb128 0xb
 8793 0cfc 7A0A0000 		.4byte	0xa7a
 8794 0d00 0B0D0000 		.4byte	0xd0b
 8795 0d04 0C       		.uleb128 0xc
 8796 0d05 74010000 		.4byte	0x174
 8797 0d09 A0       		.byte	0xa0
 8798 0d0a 00       		.byte	0
 8799 0d0b 18       		.uleb128 0x18
 8800 0d0c FB0C0000 		.4byte	0xcfb
 8801 0d10 25       		.uleb128 0x25
 8802 0d11 380A0000 		.4byte	.LASF205
 8803 0d15 01       		.byte	0x1
 8804 0d16 33       		.byte	0x33
 8805 0d17 15       		.byte	0x15
 8806 0d18 0B0D0000 		.4byte	0xd0b
 8807 0d1c 05       		.uleb128 0x5
 8808 0d1d 03       		.byte	0x3
 8809 0d1e 00000000 		.4byte	aseba_atan_table
 8810 0d22 0B       		.uleb128 0xb
 8811 0d23 7A0A0000 		.4byte	0xa7a
 8812 0d27 320D0000 		.4byte	0xd32
 8813 0d2b 0C       		.uleb128 0xc
 8814 0d2c 74010000 		.4byte	0x174
 8815 0d30 80       		.byte	0x80
 8816 0d31 00       		.byte	0
 8817 0d32 18       		.uleb128 0x18
 8818 0d33 220D0000 		.4byte	0xd22
 8819 0d37 25       		.uleb128 0x25
 8820 0d38 130F0000 		.4byte	.LASF206
 8821 0d3c 01       		.byte	0x1
 8822 0d3d A8       		.byte	0xa8
 8823 0d3e 15       		.byte	0x15
 8824 0d3f 320D0000 		.4byte	0xd32
 8825 0d43 05       		.uleb128 0x5
 8826 0d44 03       		.byte	0x3
 8827 0d45 00000000 		.4byte	aseba_sin_table
 8828 0d49 26       		.uleb128 0x26
 8829 0d4a F30B0000 		.4byte	0xbf3
 8830 0d4e 01       		.byte	0x1
 8831 0d4f 3101     		.2byte	0x131
 8832 0d51 26       		.byte	0x26
 8833 0d52 05       		.uleb128 0x5
 8834 0d53 03       		.byte	0x3
 8835 0d54 00000000 		.4byte	AsebaNativeDescription_veccopy
 8836 0d58 26       		.uleb128 0x26
 8837 0d59 FF0B0000 		.4byte	0xbff
 8838 0d5d 01       		.byte	0x1
 8839 0d5e 4E01     		.2byte	0x14e
ARM GAS  /tmp/cchqCFfA.s 			page 159


 8840 0d60 26       		.byte	0x26
 8841 0d61 05       		.uleb128 0x5
 8842 0d62 03       		.byte	0x3
 8843 0d63 00000000 		.4byte	AsebaNativeDescription_vecfill
 8844 0d67 26       		.uleb128 0x26
 8845 0d68 0B0C0000 		.4byte	0xc0b
 8846 0d6c 01       		.byte	0x1
 8847 0d6d 6C01     		.2byte	0x16c
 8848 0d6f 26       		.byte	0x26
 8849 0d70 05       		.uleb128 0x5
 8850 0d71 03       		.byte	0x3
 8851 0d72 00000000 		.4byte	AsebaNativeDescription_vecaddscalar
 8852 0d76 26       		.uleb128 0x26
 8853 0d77 170C0000 		.4byte	0xc17
 8854 0d7b 01       		.byte	0x1
 8855 0d7c 8A01     		.2byte	0x18a
 8856 0d7e 26       		.byte	0x26
 8857 0d7f 05       		.uleb128 0x5
 8858 0d80 03       		.byte	0x3
 8859 0d81 00000000 		.4byte	AsebaNativeDescription_vecadd
 8860 0d85 26       		.uleb128 0x26
 8861 0d86 230C0000 		.4byte	0xc23
 8862 0d8a 01       		.byte	0x1
 8863 0d8b A801     		.2byte	0x1a8
 8864 0d8d 26       		.byte	0x26
 8865 0d8e 05       		.uleb128 0x5
 8866 0d8f 03       		.byte	0x3
 8867 0d90 00000000 		.4byte	AsebaNativeDescription_vecsub
 8868 0d94 26       		.uleb128 0x26
 8869 0d95 2F0C0000 		.4byte	0xc2f
 8870 0d99 01       		.byte	0x1
 8871 0d9a C601     		.2byte	0x1c6
 8872 0d9c 26       		.byte	0x26
 8873 0d9d 05       		.uleb128 0x5
 8874 0d9e 03       		.byte	0x3
 8875 0d9f 00000000 		.4byte	AsebaNativeDescription_vecmul
 8876 0da3 26       		.uleb128 0x26
 8877 0da4 3B0C0000 		.4byte	0xc3b
 8878 0da8 01       		.byte	0x1
 8879 0da9 F001     		.2byte	0x1f0
 8880 0dab 26       		.byte	0x26
 8881 0dac 05       		.uleb128 0x5
 8882 0dad 03       		.byte	0x3
 8883 0dae 00000000 		.4byte	AsebaNativeDescription_vecdiv
 8884 0db2 26       		.uleb128 0x26
 8885 0db3 470C0000 		.4byte	0xc47
 8886 0db7 01       		.byte	0x1
 8887 0db8 1102     		.2byte	0x211
 8888 0dba 26       		.byte	0x26
 8889 0dbb 05       		.uleb128 0x5
 8890 0dbc 03       		.byte	0x3
 8891 0dbd 00000000 		.4byte	AsebaNativeDescription_vecmin
 8892 0dc1 26       		.uleb128 0x26
 8893 0dc2 530C0000 		.4byte	0xc53
 8894 0dc6 01       		.byte	0x1
 8895 0dc7 3202     		.2byte	0x232
 8896 0dc9 26       		.byte	0x26
ARM GAS  /tmp/cchqCFfA.s 			page 160


 8897 0dca 05       		.uleb128 0x5
 8898 0dcb 03       		.byte	0x3
 8899 0dcc 00000000 		.4byte	AsebaNativeDescription_vecmax
 8900 0dd0 26       		.uleb128 0x26
 8901 0dd1 5F0C0000 		.4byte	0xc5f
 8902 0dd5 01       		.byte	0x1
 8903 0dd6 5402     		.2byte	0x254
 8904 0dd8 26       		.byte	0x26
 8905 0dd9 05       		.uleb128 0x5
 8906 0dda 03       		.byte	0x3
 8907 0ddb 00000000 		.4byte	AsebaNativeDescription_vecclamp
 8908 0ddf 26       		.uleb128 0x26
 8909 0de0 6B0C0000 		.4byte	0xc6b
 8910 0de4 01       		.byte	0x1
 8911 0de5 9F02     		.2byte	0x29f
 8912 0de7 26       		.byte	0x26
 8913 0de8 05       		.uleb128 0x5
 8914 0de9 03       		.byte	0x3
 8915 0dea 00000000 		.4byte	AsebaNativeDescription_vecdot
 8916 0dee 26       		.uleb128 0x26
 8917 0def 770C0000 		.4byte	0xc77
 8918 0df3 01       		.byte	0x1
 8919 0df4 D002     		.2byte	0x2d0
 8920 0df6 26       		.byte	0x26
 8921 0df7 05       		.uleb128 0x5
 8922 0df8 03       		.byte	0x3
 8923 0df9 00000000 		.4byte	AsebaNativeDescription_vecstat
 8924 0dfd 26       		.uleb128 0x26
 8925 0dfe 830C0000 		.4byte	0xc83
 8926 0e02 01       		.byte	0x1
 8927 0e03 FF02     		.2byte	0x2ff
 8928 0e05 26       		.byte	0x26
 8929 0e06 05       		.uleb128 0x5
 8930 0e07 03       		.byte	0x3
 8931 0e08 00000000 		.4byte	AsebaNativeDescription_vecargbounds
 8932 0e0c 26       		.uleb128 0x26
 8933 0e0d 8F0C0000 		.4byte	0xc8f
 8934 0e11 01       		.byte	0x1
 8935 0e12 1703     		.2byte	0x317
 8936 0e14 26       		.byte	0x26
 8937 0e15 05       		.uleb128 0x5
 8938 0e16 03       		.byte	0x3
 8939 0e17 00000000 		.4byte	AsebaNativeDescription_vecsort
 8940 0e1b 26       		.uleb128 0x26
 8941 0e1c 9B0C0000 		.4byte	0xc9b
 8942 0e20 01       		.byte	0x1
 8943 0e21 4003     		.2byte	0x340
 8944 0e23 26       		.byte	0x26
 8945 0e24 05       		.uleb128 0x5
 8946 0e25 03       		.byte	0x3
 8947 0e26 00000000 		.4byte	AsebaNativeDescription_mathmuldiv
 8948 0e2a 26       		.uleb128 0x26
 8949 0e2b A70C0000 		.4byte	0xca7
 8950 0e2f 01       		.byte	0x1
 8951 0e30 6003     		.2byte	0x360
 8952 0e32 26       		.byte	0x26
 8953 0e33 05       		.uleb128 0x5
ARM GAS  /tmp/cchqCFfA.s 			page 161


 8954 0e34 03       		.byte	0x3
 8955 0e35 00000000 		.4byte	AsebaNativeDescription_mathatan2
 8956 0e39 26       		.uleb128 0x26
 8957 0e3a B30C0000 		.4byte	0xcb3
 8958 0e3e 01       		.byte	0x1
 8959 0e3f 7D03     		.2byte	0x37d
 8960 0e41 26       		.byte	0x26
 8961 0e42 05       		.uleb128 0x5
 8962 0e43 03       		.byte	0x3
 8963 0e44 00000000 		.4byte	AsebaNativeDescription_mathsin
 8964 0e48 26       		.uleb128 0x26
 8965 0e49 BF0C0000 		.4byte	0xcbf
 8966 0e4d 01       		.byte	0x1
 8967 0e4e 9903     		.2byte	0x399
 8968 0e50 26       		.byte	0x26
 8969 0e51 05       		.uleb128 0x5
 8970 0e52 03       		.byte	0x3
 8971 0e53 00000000 		.4byte	AsebaNativeDescription_mathcos
 8972 0e57 26       		.uleb128 0x26
 8973 0e58 CB0C0000 		.4byte	0xccb
 8974 0e5c 01       		.byte	0x1
 8975 0e5d BA03     		.2byte	0x3ba
 8976 0e5f 26       		.byte	0x26
 8977 0e60 05       		.uleb128 0x5
 8978 0e61 03       		.byte	0x3
 8979 0e62 00000000 		.4byte	AsebaNativeDescription_mathrot2
 8980 0e66 26       		.uleb128 0x26
 8981 0e67 D70C0000 		.4byte	0xcd7
 8982 0e6b 01       		.byte	0x1
 8983 0e6c D703     		.2byte	0x3d7
 8984 0e6e 26       		.byte	0x26
 8985 0e6f 05       		.uleb128 0x5
 8986 0e70 03       		.byte	0x3
 8987 0e71 00000000 		.4byte	AsebaNativeDescription_mathsqrt
 8988 0e75 26       		.uleb128 0x26
 8989 0e76 E30C0000 		.4byte	0xce3
 8990 0e7a 01       		.byte	0x1
 8991 0e7b 4304     		.2byte	0x443
 8992 0e7d 26       		.byte	0x26
 8993 0e7e 05       		.uleb128 0x5
 8994 0e7f 03       		.byte	0x3
 8995 0e80 00000000 		.4byte	AsebaNativeDescription_vecnonzerosequence
 8996 0e84 27       		.uleb128 0x27
 8997 0e85 A2100000 		.4byte	.LASF207
 8998 0e89 01       		.byte	0x1
 8999 0e8a 4F04     		.2byte	0x44f
 9000 0e8c 0F       		.byte	0xf
 9001 0e8d 7F0A0000 		.4byte	0xa7f
 9002 0e91 05       		.uleb128 0x5
 9003 0e92 03       		.byte	0x3
 9004 0e93 00000000 		.4byte	rnd_state
 9005 0e97 26       		.uleb128 0x26
 9006 0e98 EF0C0000 		.4byte	0xcef
 9007 0e9c 01       		.byte	0x1
 9008 0e9d 6B04     		.2byte	0x46b
 9009 0e9f 26       		.byte	0x26
 9010 0ea0 05       		.uleb128 0x5
ARM GAS  /tmp/cchqCFfA.s 			page 162


 9011 0ea1 03       		.byte	0x3
 9012 0ea2 00000000 		.4byte	AsebaNativeDescription_rand
 9013 0ea6 28       		.uleb128 0x28
 9014 0ea7 D6090000 		.4byte	.LASF210
 9015 0eab 01       		.byte	0x1
 9016 0eac 5C04     		.2byte	0x45c
 9017 0eae 06       		.byte	0x6
 9018 0eaf 00000000 		.4byte	.LFB29
 9019 0eb3 7C000000 		.4byte	.LFE29-.LFB29
 9020 0eb7 01       		.uleb128 0x1
 9021 0eb8 9C       		.byte	0x9c
 9022 0eb9 8C0F0000 		.4byte	0xf8c
 9023 0ebd 29       		.uleb128 0x29
 9024 0ebe 766D00   		.ascii	"vm\000"
 9025 0ec1 01       		.byte	0x1
 9026 0ec2 5C04     		.2byte	0x45c
 9027 0ec4 25       		.byte	0x25
 9028 0ec5 6C0B0000 		.4byte	0xb6c
 9029 0ec9 04000000 		.4byte	.LLST349
 9030 0ecd 00000000 		.4byte	.LVUS349
 9031 0ed1 2A       		.uleb128 0x2a
 9032 0ed2 01040000 		.4byte	.LASF208
 9033 0ed6 01       		.byte	0x1
 9034 0ed7 5F04     		.2byte	0x45f
 9035 0ed9 09       		.byte	0x9
 9036 0eda 7F0A0000 		.4byte	0xa7f
 9037 0ede 29000000 		.4byte	.LLST350
 9038 0ee2 25000000 		.4byte	.LVUS350
 9039 0ee6 2A       		.uleb128 0x2a
 9040 0ee7 190C0000 		.4byte	.LASF209
 9041 0eeb 01       		.byte	0x1
 9042 0eec 6204     		.2byte	0x462
 9043 0eee 09       		.byte	0x9
 9044 0eef 7F0A0000 		.4byte	0xa7f
 9045 0ef3 4D000000 		.4byte	.LLST351
 9046 0ef7 47000000 		.4byte	.LVUS351
 9047 0efb 2B       		.uleb128 0x2b
 9048 0efc 6900     		.ascii	"i\000"
 9049 0efe 01       		.byte	0x1
 9050 0eff 6404     		.2byte	0x464
 9051 0f01 09       		.byte	0x9
 9052 0f02 7F0A0000 		.4byte	0xa7f
 9053 0f06 88000000 		.4byte	.LLST352
 9054 0f0a 86000000 		.4byte	.LVUS352
 9055 0f0e 2C       		.uleb128 0x2c
 9056 0f0f 81320000 		.4byte	0x3281
 9057 0f13 16000000 		.4byte	.LBI749
 9058 0f17 01       		.byte	.LVU1574
 9059 0f18 500C0000 		.4byte	.Ldebug_ranges0+0xc50
 9060 0f1c 01       		.byte	0x1
 9061 0f1d 5F04     		.2byte	0x45f
 9062 0f1f 15       		.byte	0x15
 9063 0f20 3F0F0000 		.4byte	0xf3f
 9064 0f24 2D       		.uleb128 0x2d
 9065 0f25 92320000 		.4byte	0x3292
 9066 0f29 A0000000 		.4byte	.LLST353
 9067 0f2d 9C000000 		.4byte	.LVUS353
ARM GAS  /tmp/cchqCFfA.s 			page 163


 9068 0f31 2D       		.uleb128 0x2d
 9069 0f32 92320000 		.4byte	0x3292
 9070 0f36 C5000000 		.4byte	.LLST354
 9071 0f3a C1000000 		.4byte	.LVUS354
 9072 0f3e 00       		.byte	0
 9073 0f3f 2C       		.uleb128 0x2c
 9074 0f40 81320000 		.4byte	0x3281
 9075 0f44 22000000 		.4byte	.LBI755
 9076 0f48 01       		.byte	.LVU1579
 9077 0f49 700C0000 		.4byte	.Ldebug_ranges0+0xc70
 9078 0f4d 01       		.byte	0x1
 9079 0f4e 6204     		.2byte	0x462
 9080 0f50 12       		.byte	0x12
 9081 0f51 700F0000 		.4byte	0xf70
 9082 0f55 2D       		.uleb128 0x2d
 9083 0f56 92320000 		.4byte	0x3292
 9084 0f5a EA000000 		.4byte	.LLST355
 9085 0f5e E6000000 		.4byte	.LVUS355
 9086 0f62 2D       		.uleb128 0x2d
 9087 0f63 92320000 		.4byte	0x3292
 9088 0f67 0F010000 		.4byte	.LLST356
 9089 0f6b 0B010000 		.4byte	.LVUS356
 9090 0f6f 00       		.byte	0
 9091 0f70 2E       		.uleb128 0x2e
 9092 0f71 8C0F0000 		.4byte	0xf8c
 9093 0f75 36000000 		.4byte	.LBI759
 9094 0f79 02       		.byte	.LVU1592
 9095 0f7a 880C0000 		.4byte	.Ldebug_ranges0+0xc88
 9096 0f7e 01       		.byte	0x1
 9097 0f7f 6704     		.2byte	0x467
 9098 0f81 28       		.byte	0x28
 9099 0f82 2F       		.uleb128 0x2f
 9100 0f83 72000000 		.4byte	.LVL487
 9101 0f87 82340000 		.4byte	0x3482
 9102 0f8b 00       		.byte	0
 9103 0f8c 30       		.uleb128 0x30
 9104 0f8d 7A080000 		.4byte	.LASF287
 9105 0f91 01       		.byte	0x1
 9106 0f92 5604     		.2byte	0x456
 9107 0f94 08       		.byte	0x8
 9108 0f95 7F0A0000 		.4byte	0xa7f
 9109 0f99 01       		.byte	0x1
 9110 0f9a 28       		.uleb128 0x28
 9111 0f9b 5A0C0000 		.4byte	.LASF211
 9112 0f9f 01       		.byte	0x1
 9113 0fa0 5104     		.2byte	0x451
 9114 0fa2 06       		.byte	0x6
 9115 0fa3 00000000 		.4byte	.LFB27
 9116 0fa7 30000000 		.4byte	.LFE27-.LFB27
 9117 0fab 01       		.uleb128 0x1
 9118 0fac 9C       		.byte	0x9c
 9119 0fad D00F0000 		.4byte	0xfd0
 9120 0fb1 31       		.uleb128 0x31
 9121 0fb2 BF040000 		.4byte	.LASF212
 9122 0fb6 01       		.byte	0x1
 9123 0fb7 5104     		.2byte	0x451
 9124 0fb9 20       		.byte	0x20
ARM GAS  /tmp/cchqCFfA.s 			page 164


 9125 0fba 7F0A0000 		.4byte	0xa7f
 9126 0fbe 34010000 		.4byte	.LLST348
 9127 0fc2 30010000 		.4byte	.LVUS348
 9128 0fc6 2F       		.uleb128 0x2f
 9129 0fc7 26000000 		.4byte	.LVL476
 9130 0fcb 82340000 		.4byte	0x3482
 9131 0fcf 00       		.byte	0
 9132 0fd0 28       		.uleb128 0x28
 9133 0fd1 21060000 		.4byte	.LASF213
 9134 0fd5 01       		.byte	0x1
 9135 0fd6 E203     		.2byte	0x3e2
 9136 0fd8 06       		.byte	0x6
 9137 0fd9 00000000 		.4byte	.LFB26
 9138 0fdd 4C010000 		.4byte	.LFE26-.LFB26
 9139 0fe1 01       		.uleb128 0x1
 9140 0fe2 9C       		.byte	0x9c
 9141 0fe3 ED110000 		.4byte	0x11ed
 9142 0fe7 29       		.uleb128 0x29
 9143 0fe8 766D00   		.ascii	"vm\000"
 9144 0feb 01       		.byte	0x1
 9145 0fec E203     		.2byte	0x3e2
 9146 0fee 33       		.byte	0x33
 9147 0fef 6C0B0000 		.4byte	0xb6c
 9148 0ff3 59010000 		.4byte	.LLST327
 9149 0ff7 55010000 		.4byte	.LVUS327
 9150 0ffb 2A       		.uleb128 0x2a
 9151 0ffc B6120000 		.4byte	.LASF214
 9152 1000 01       		.byte	0x1
 9153 1001 E503     		.2byte	0x3e5
 9154 1003 09       		.byte	0x9
 9155 1004 7F0A0000 		.4byte	0xa7f
 9156 1008 7C010000 		.4byte	.LLST328
 9157 100c 7A010000 		.4byte	.LVUS328
 9158 1010 2B       		.uleb128 0x2b
 9159 1011 73726300 		.ascii	"src\000"
 9160 1015 01       		.byte	0x1
 9161 1016 E603     		.2byte	0x3e6
 9162 1018 09       		.byte	0x9
 9163 1019 7F0A0000 		.4byte	0xa7f
 9164 101d 91010000 		.4byte	.LLST329
 9165 1021 8F010000 		.4byte	.LVUS329
 9166 1025 2A       		.uleb128 0x2a
 9167 1026 190C0000 		.4byte	.LASF209
 9168 102a 01       		.byte	0x1
 9169 102b E703     		.2byte	0x3e7
 9170 102d 09       		.byte	0x9
 9171 102e 7F0A0000 		.4byte	0xa7f
 9172 1032 A8010000 		.4byte	.LLST330
 9173 1036 A4010000 		.4byte	.LVUS330
 9174 103a 2A       		.uleb128 0x2a
 9175 103b 890F0000 		.4byte	.LASF215
 9176 103f 01       		.byte	0x1
 9177 1040 EA03     		.2byte	0x3ea
 9178 1042 09       		.byte	0x9
 9179 1043 7F0A0000 		.4byte	0xa7f
 9180 1047 CE010000 		.4byte	.LLST331
 9181 104b C6010000 		.4byte	.LVUS331
ARM GAS  /tmp/cchqCFfA.s 			page 165


 9182 104f 2A       		.uleb128 0x2a
 9183 1050 610A0000 		.4byte	.LASF216
 9184 1054 01       		.byte	0x1
 9185 1055 EB03     		.2byte	0x3eb
 9186 1057 09       		.byte	0x9
 9187 1058 6E0A0000 		.4byte	0xa6e
 9188 105c 06020000 		.4byte	.LLST332
 9189 1060 02020000 		.4byte	.LVUS332
 9190 1064 32       		.uleb128 0x32
 9191 1065 8C030000 		.4byte	.LASF232
 9192 1069 01       		.byte	0x1
 9193 106a EE03     		.2byte	0x3ee
 9194 106c 09       		.byte	0x9
 9195 106d 7F0A0000 		.4byte	0xa7f
 9196 1071 2A       		.uleb128 0x2a
 9197 1072 82010000 		.4byte	.LASF217
 9198 1076 01       		.byte	0x1
 9199 1077 EF03     		.2byte	0x3ef
 9200 1079 09       		.byte	0x9
 9201 107a 6E0A0000 		.4byte	0xa6e
 9202 107e 44020000 		.4byte	.LLST333
 9203 1082 38020000 		.4byte	.LVUS333
 9204 1086 2A       		.uleb128 0x2a
 9205 1087 92060000 		.4byte	.LASF218
 9206 108b 01       		.byte	0x1
 9207 108c F003     		.2byte	0x3f0
 9208 108e 09       		.byte	0x9
 9209 108f 6E0A0000 		.4byte	0xa6e
 9210 1093 94020000 		.4byte	.LLST334
 9211 1097 8E020000 		.4byte	.LVUS334
 9212 109b 2A       		.uleb128 0x2a
 9213 109c AC020000 		.4byte	.LASF219
 9214 10a0 01       		.byte	0x1
 9215 10a1 F103     		.2byte	0x3f1
 9216 10a3 09       		.byte	0x9
 9217 10a4 6E0A0000 		.4byte	0xa6e
 9218 10a8 C5020000 		.4byte	.LLST335
 9219 10ac BD020000 		.4byte	.LVUS335
 9220 10b0 2A       		.uleb128 0x2a
 9221 10b1 A1040000 		.4byte	.LASF220
 9222 10b5 01       		.byte	0x1
 9223 10b6 F203     		.2byte	0x3f2
 9224 10b8 09       		.byte	0x9
 9225 10b9 6E0A0000 		.4byte	0xa6e
 9226 10bd FB020000 		.4byte	.LLST336
 9227 10c1 F9020000 		.4byte	.LVUS336
 9228 10c5 2A       		.uleb128 0x2a
 9229 10c6 71090000 		.4byte	.LASF221
 9230 10ca 01       		.byte	0x1
 9231 10cb F303     		.2byte	0x3f3
 9232 10cd 09       		.byte	0x9
 9233 10ce 6E0A0000 		.4byte	0xa6e
 9234 10d2 14030000 		.4byte	.LLST337
 9235 10d6 0E030000 		.4byte	.LVUS337
 9236 10da 2A       		.uleb128 0x2a
 9237 10db 5D090000 		.4byte	.LASF222
 9238 10df 01       		.byte	0x1
ARM GAS  /tmp/cchqCFfA.s 			page 166


 9239 10e0 F603     		.2byte	0x3f6
 9240 10e2 09       		.byte	0x9
 9241 10e3 7F0A0000 		.4byte	0xa7f
 9242 10e7 4B030000 		.4byte	.LLST338
 9243 10eb 3D030000 		.4byte	.LVUS338
 9244 10ef 33       		.uleb128 0x33
 9245 10f0 FE0C0000 		.4byte	.LASF288
 9246 10f4 01       		.byte	0x1
 9247 10f5 3704     		.2byte	0x437
 9248 10f7 01       		.byte	0x1
 9249 10f8 FE000000 		.4byte	.L361
 9250 10fc 34       		.uleb128 0x34
 9251 10fd 20010000 		.4byte	.LBB748
 9252 1101 12000000 		.4byte	.LBE748-.LBB748
 9253 1105 1F110000 		.4byte	0x111f
 9254 1109 2A       		.uleb128 0x2a
 9255 110a 71090000 		.4byte	.LASF221
 9256 110e 01       		.byte	0x1
 9257 110f 0C04     		.2byte	0x40c
 9258 1111 0C       		.byte	0xc
 9259 1112 7F0A0000 		.4byte	0xa7f
 9260 1116 A9030000 		.4byte	.LLST347
 9261 111a A7030000 		.4byte	.LVUS347
 9262 111e 00       		.byte	0
 9263 111f 2C       		.uleb128 0x2c
 9264 1120 81320000 		.4byte	0x3281
 9265 1124 18000000 		.4byte	.LBI724
 9266 1128 01       		.byte	.LVU1424
 9267 1129 D00B0000 		.4byte	.Ldebug_ranges0+0xbd0
 9268 112d 01       		.byte	0x1
 9269 112e E503     		.2byte	0x3e5
 9270 1130 10       		.byte	0x10
 9271 1131 50110000 		.4byte	0x1150
 9272 1135 2D       		.uleb128 0x2d
 9273 1136 92320000 		.4byte	0x3292
 9274 113a C2030000 		.4byte	.LLST339
 9275 113e BE030000 		.4byte	.LVUS339
 9276 1142 2D       		.uleb128 0x2d
 9277 1143 92320000 		.4byte	0x3292
 9278 1147 E7030000 		.4byte	.LLST340
 9279 114b E3030000 		.4byte	.LVUS340
 9280 114f 00       		.byte	0
 9281 1150 2C       		.uleb128 0x2c
 9282 1151 81320000 		.4byte	0x3281
 9283 1155 2A000000 		.4byte	.LBI729
 9284 1159 01       		.byte	.LVU1429
 9285 115a F00B0000 		.4byte	.Ldebug_ranges0+0xbf0
 9286 115e 01       		.byte	0x1
 9287 115f E603     		.2byte	0x3e6
 9288 1161 0F       		.byte	0xf
 9289 1162 81110000 		.4byte	0x1181
 9290 1166 2D       		.uleb128 0x2d
 9291 1167 92320000 		.4byte	0x3292
 9292 116b 0C040000 		.4byte	.LLST341
 9293 116f 08040000 		.4byte	.LVUS341
 9294 1173 2D       		.uleb128 0x2d
 9295 1174 92320000 		.4byte	0x3292
ARM GAS  /tmp/cchqCFfA.s 			page 167


 9296 1178 31040000 		.4byte	.LLST342
 9297 117c 2D040000 		.4byte	.LVUS342
 9298 1180 00       		.byte	0
 9299 1181 2C       		.uleb128 0x2c
 9300 1182 81320000 		.4byte	0x3281
 9301 1186 32000000 		.4byte	.LBI735
 9302 118a 01       		.byte	.LVU1434
 9303 118b 100C0000 		.4byte	.Ldebug_ranges0+0xc10
 9304 118f 01       		.byte	0x1
 9305 1190 E703     		.2byte	0x3e7
 9306 1192 12       		.byte	0x12
 9307 1193 B2110000 		.4byte	0x11b2
 9308 1197 2D       		.uleb128 0x2d
 9309 1198 92320000 		.4byte	0x3292
 9310 119c 56040000 		.4byte	.LLST343
 9311 11a0 52040000 		.4byte	.LVUS343
 9312 11a4 2D       		.uleb128 0x2d
 9313 11a5 92320000 		.4byte	0x3292
 9314 11a9 7B040000 		.4byte	.LLST344
 9315 11ad 77040000 		.4byte	.LVUS344
 9316 11b1 00       		.byte	0
 9317 11b2 2C       		.uleb128 0x2c
 9318 11b3 81320000 		.4byte	0x3281
 9319 11b7 3A000000 		.4byte	.LBI743
 9320 11bb 02       		.byte	.LVU1440
 9321 11bc 380C0000 		.4byte	.Ldebug_ranges0+0xc38
 9322 11c0 01       		.byte	0x1
 9323 11c1 EA03     		.2byte	0x3ea
 9324 11c3 17       		.byte	0x17
 9325 11c4 E3110000 		.4byte	0x11e3
 9326 11c8 2D       		.uleb128 0x2d
 9327 11c9 92320000 		.4byte	0x3292
 9328 11cd A0040000 		.4byte	.LLST345
 9329 11d1 9C040000 		.4byte	.LVUS345
 9330 11d5 2D       		.uleb128 0x2d
 9331 11d6 92320000 		.4byte	0x3292
 9332 11da C5040000 		.4byte	.LLST346
 9333 11de C1040000 		.4byte	.LVUS346
 9334 11e2 00       		.byte	0
 9335 11e3 2F       		.uleb128 0x2f
 9336 11e4 46010000 		.4byte	.LVL474
 9337 11e8 82340000 		.4byte	0x3482
 9338 11ec 00       		.byte	0
 9339 11ed 28       		.uleb128 0x28
 9340 11ee 7D060000 		.4byte	.LASF223
 9341 11f2 01       		.byte	0x1
 9342 11f3 C603     		.2byte	0x3c6
 9343 11f5 06       		.byte	0x6
 9344 11f6 00000000 		.4byte	.LFB25
 9345 11fa B0000000 		.4byte	.LFE25-.LFB25
 9346 11fe 01       		.uleb128 0x1
 9347 11ff 9C       		.byte	0x9c
 9348 1200 6A130000 		.4byte	0x136a
 9349 1204 29       		.uleb128 0x29
 9350 1205 766D00   		.ascii	"vm\000"
 9351 1208 01       		.byte	0x1
 9352 1209 C603     		.2byte	0x3c6
ARM GAS  /tmp/cchqCFfA.s 			page 168


 9353 120b 29       		.byte	0x29
 9354 120c 6C0B0000 		.4byte	0xb6c
 9355 1210 EA040000 		.4byte	.LLST312
 9356 1214 E6040000 		.4byte	.LVUS312
 9357 1218 2A       		.uleb128 0x2a
 9358 1219 01040000 		.4byte	.LASF208
 9359 121d 01       		.byte	0x1
 9360 121e C903     		.2byte	0x3c9
 9361 1220 09       		.byte	0x9
 9362 1221 7F0A0000 		.4byte	0xa7f
 9363 1225 0D050000 		.4byte	.LLST313
 9364 1229 0B050000 		.4byte	.LVUS313
 9365 122d 2A       		.uleb128 0x2a
 9366 122e 6A090000 		.4byte	.LASF224
 9367 1232 01       		.byte	0x1
 9368 1233 CA03     		.2byte	0x3ca
 9369 1235 09       		.byte	0x9
 9370 1236 6E0A0000 		.4byte	0xa6e
 9371 123a 24050000 		.4byte	.LLST314
 9372 123e 20050000 		.4byte	.LVUS314
 9373 1242 2A       		.uleb128 0x2a
 9374 1243 190C0000 		.4byte	.LASF209
 9375 1247 01       		.byte	0x1
 9376 1248 CD03     		.2byte	0x3cd
 9377 124a 09       		.byte	0x9
 9378 124b 7F0A0000 		.4byte	0xa7f
 9379 124f 46050000 		.4byte	.LLST315
 9380 1253 42050000 		.4byte	.LVUS315
 9381 1257 35       		.uleb128 0x35
 9382 1258 6900     		.ascii	"i\000"
 9383 125a 01       		.byte	0x1
 9384 125b CF03     		.2byte	0x3cf
 9385 125d 09       		.byte	0x9
 9386 125e 7F0A0000 		.4byte	0xa7f
 9387 1262 00       		.byte	0
 9388 1263 36       		.uleb128 0x36
 9389 1264 900B0000 		.4byte	.Ldebug_ranges0+0xb90
 9390 1268 CD120000 		.4byte	0x12cd
 9391 126c 2B       		.uleb128 0x2b
 9392 126d 7800     		.ascii	"x\000"
 9393 126f 01       		.byte	0x1
 9394 1270 D203     		.2byte	0x3d2
 9395 1272 0A       		.byte	0xa
 9396 1273 6E0A0000 		.4byte	0xa6e
 9397 1277 78050000 		.4byte	.LLST322
 9398 127b 74050000 		.4byte	.LVUS322
 9399 127f 37       		.uleb128 0x37
 9400 1280 C0300000 		.4byte	0x30c0
 9401 1284 56000000 		.4byte	.LBI716
 9402 1288 01       		.byte	.LVU1372
 9403 1289 B00B0000 		.4byte	.Ldebug_ranges0+0xbb0
 9404 128d 01       		.byte	0x1
 9405 128e D303     		.2byte	0x3d3
 9406 1290 20       		.byte	0x20
 9407 1291 2D       		.uleb128 0x2d
 9408 1292 D1300000 		.4byte	0x30d1
 9409 1296 9A050000 		.4byte	.LLST323
ARM GAS  /tmp/cchqCFfA.s 			page 169


 9410 129a 96050000 		.4byte	.LVUS323
 9411 129e 38       		.uleb128 0x38
 9412 129f B00B0000 		.4byte	.Ldebug_ranges0+0xbb0
 9413 12a3 39       		.uleb128 0x39
 9414 12a4 DD300000 		.4byte	0x30dd
 9415 12a8 C0050000 		.4byte	.LLST324
 9416 12ac B8050000 		.4byte	.LVUS324
 9417 12b0 39       		.uleb128 0x39
 9418 12b1 E8300000 		.4byte	0x30e8
 9419 12b5 FC050000 		.4byte	.LLST325
 9420 12b9 F4050000 		.4byte	.LVUS325
 9421 12bd 39       		.uleb128 0x39
 9422 12be F4300000 		.4byte	0x30f4
 9423 12c2 3E060000 		.4byte	.LLST326
 9424 12c6 32060000 		.4byte	.LVUS326
 9425 12ca 00       		.byte	0
 9426 12cb 00       		.byte	0
 9427 12cc 00       		.byte	0
 9428 12cd 2C       		.uleb128 0x2c
 9429 12ce 81320000 		.4byte	0x3281
 9430 12d2 16000000 		.4byte	.LBI697
 9431 12d6 01       		.byte	.LVU1346
 9432 12d7 300B0000 		.4byte	.Ldebug_ranges0+0xb30
 9433 12db 01       		.byte	0x1
 9434 12dc C903     		.2byte	0x3c9
 9435 12de 15       		.byte	0x15
 9436 12df FE120000 		.4byte	0x12fe
 9437 12e3 2D       		.uleb128 0x2d
 9438 12e4 92320000 		.4byte	0x3292
 9439 12e8 8F060000 		.4byte	.LLST316
 9440 12ec 8B060000 		.4byte	.LVUS316
 9441 12f0 2D       		.uleb128 0x2d
 9442 12f1 92320000 		.4byte	0x3292
 9443 12f5 B4060000 		.4byte	.LLST317
 9444 12f9 B0060000 		.4byte	.LVUS317
 9445 12fd 00       		.byte	0
 9446 12fe 2C       		.uleb128 0x2c
 9447 12ff 81320000 		.4byte	0x3281
 9448 1303 26000000 		.4byte	.LBI702
 9449 1307 01       		.byte	.LVU1351
 9450 1308 500B0000 		.4byte	.Ldebug_ranges0+0xb50
 9451 130c 01       		.byte	0x1
 9452 130d CA03     		.2byte	0x3ca
 9453 130f 12       		.byte	0x12
 9454 1310 2F130000 		.4byte	0x132f
 9455 1314 2D       		.uleb128 0x2d
 9456 1315 92320000 		.4byte	0x3292
 9457 1319 D9060000 		.4byte	.LLST318
 9458 131d D5060000 		.4byte	.LVUS318
 9459 1321 2D       		.uleb128 0x2d
 9460 1322 92320000 		.4byte	0x3292
 9461 1326 FE060000 		.4byte	.LLST319
 9462 132a FA060000 		.4byte	.LVUS319
 9463 132e 00       		.byte	0
 9464 132f 2C       		.uleb128 0x2c
 9465 1330 81320000 		.4byte	0x3281
 9466 1334 2E000000 		.4byte	.LBI710
ARM GAS  /tmp/cchqCFfA.s 			page 170


 9467 1338 02       		.byte	.LVU1357
 9468 1339 780B0000 		.4byte	.Ldebug_ranges0+0xb78
 9469 133d 01       		.byte	0x1
 9470 133e CD03     		.2byte	0x3cd
 9471 1340 12       		.byte	0x12
 9472 1341 60130000 		.4byte	0x1360
 9473 1345 2D       		.uleb128 0x2d
 9474 1346 92320000 		.4byte	0x3292
 9475 134a 23070000 		.4byte	.LLST320
 9476 134e 1F070000 		.4byte	.LVUS320
 9477 1352 2D       		.uleb128 0x2d
 9478 1353 92320000 		.4byte	0x3292
 9479 1357 48070000 		.4byte	.LLST321
 9480 135b 44070000 		.4byte	.LVUS321
 9481 135f 00       		.byte	0
 9482 1360 2F       		.uleb128 0x2f
 9483 1361 AC000000 		.4byte	.LVL436
 9484 1365 82340000 		.4byte	0x3482
 9485 1369 00       		.byte	0
 9486 136a 28       		.uleb128 0x28
 9487 136b BF000000 		.4byte	.LASF225
 9488 136f 01       		.byte	0x1
 9489 1370 A403     		.2byte	0x3a4
 9490 1372 06       		.byte	0x6
 9491 1373 00000000 		.4byte	.LFB24
 9492 1377 98000000 		.4byte	.LFE24-.LFB24
 9493 137b 01       		.uleb128 0x1
 9494 137c 9C       		.byte	0x9c
 9495 137d 46150000 		.4byte	0x1546
 9496 1381 29       		.uleb128 0x29
 9497 1382 766D00   		.ascii	"vm\000"
 9498 1385 01       		.byte	0x1
 9499 1386 A403     		.2byte	0x3a4
 9500 1388 29       		.byte	0x29
 9501 1389 6C0B0000 		.4byte	0xb6c
 9502 138d 6D070000 		.4byte	.LLST294
 9503 1391 69070000 		.4byte	.LVUS294
 9504 1395 2A       		.uleb128 0x2a
 9505 1396 30080000 		.4byte	.LASF226
 9506 139a 01       		.byte	0x1
 9507 139b A703     		.2byte	0x3a7
 9508 139d 09       		.byte	0x9
 9509 139e 7F0A0000 		.4byte	0xa7f
 9510 13a2 8D070000 		.4byte	.LLST295
 9511 13a6 8B070000 		.4byte	.LVUS295
 9512 13aa 2A       		.uleb128 0x2a
 9513 13ab 650F0000 		.4byte	.LASF227
 9514 13af 01       		.byte	0x1
 9515 13b0 A803     		.2byte	0x3a8
 9516 13b2 09       		.byte	0x9
 9517 13b3 7F0A0000 		.4byte	0xa7f
 9518 13b7 A2070000 		.4byte	.LLST296
 9519 13bb A0070000 		.4byte	.LVUS296
 9520 13bf 2A       		.uleb128 0x2a
 9521 13c0 2D010000 		.4byte	.LASF228
 9522 13c4 01       		.byte	0x1
 9523 13c5 A903     		.2byte	0x3a9
ARM GAS  /tmp/cchqCFfA.s 			page 171


 9524 13c7 09       		.byte	0x9
 9525 13c8 7F0A0000 		.4byte	0xa7f
 9526 13cc B9070000 		.4byte	.LLST297
 9527 13d0 B5070000 		.4byte	.LVUS297
 9528 13d4 2B       		.uleb128 0x2b
 9529 13d5 7800     		.ascii	"x\000"
 9530 13d7 01       		.byte	0x1
 9531 13d8 AC03     		.2byte	0x3ac
 9532 13da 09       		.byte	0x9
 9533 13db 6E0A0000 		.4byte	0xa6e
 9534 13df EE070000 		.4byte	.LLST298
 9535 13e3 EC070000 		.4byte	.LVUS298
 9536 13e7 2B       		.uleb128 0x2b
 9537 13e8 7900     		.ascii	"y\000"
 9538 13ea 01       		.byte	0x1
 9539 13eb AD03     		.2byte	0x3ad
 9540 13ed 09       		.byte	0x9
 9541 13ee 6E0A0000 		.4byte	0xa6e
 9542 13f2 03080000 		.4byte	.LLST299
 9543 13f6 01080000 		.4byte	.LVUS299
 9544 13fa 2B       		.uleb128 0x2b
 9545 13fb 6100     		.ascii	"a\000"
 9546 13fd 01       		.byte	0x1
 9547 13fe AE03     		.2byte	0x3ae
 9548 1400 09       		.byte	0x9
 9549 1401 6E0A0000 		.4byte	0xa6e
 9550 1405 18080000 		.4byte	.LLST300
 9551 1409 16080000 		.4byte	.LVUS300
 9552 140d 2A       		.uleb128 0x2a
 9553 140e B6070000 		.4byte	.LASF229
 9554 1412 01       		.byte	0x1
 9555 1413 B003     		.2byte	0x3b0
 9556 1415 09       		.byte	0x9
 9557 1416 6E0A0000 		.4byte	0xa6e
 9558 141a 2D080000 		.4byte	.LLST301
 9559 141e 2B080000 		.4byte	.LVUS301
 9560 1422 2A       		.uleb128 0x2a
 9561 1423 7C050000 		.4byte	.LASF230
 9562 1427 01       		.byte	0x1
 9563 1428 B103     		.2byte	0x3b1
 9564 142a 09       		.byte	0x9
 9565 142b 6E0A0000 		.4byte	0xa6e
 9566 142f 42080000 		.4byte	.LLST302
 9567 1433 40080000 		.4byte	.LVUS302
 9568 1437 2B       		.uleb128 0x2b
 9569 1438 787000   		.ascii	"xp\000"
 9570 143b 01       		.byte	0x1
 9571 143c B303     		.2byte	0x3b3
 9572 143e 09       		.byte	0x9
 9573 143f 6E0A0000 		.4byte	0xa6e
 9574 1443 57080000 		.4byte	.LLST303
 9575 1447 55080000 		.4byte	.LVUS303
 9576 144b 2B       		.uleb128 0x2b
 9577 144c 797000   		.ascii	"yp\000"
 9578 144f 01       		.byte	0x1
 9579 1450 B403     		.2byte	0x3b4
 9580 1452 09       		.byte	0x9
ARM GAS  /tmp/cchqCFfA.s 			page 172


 9581 1453 6E0A0000 		.4byte	0xa6e
 9582 1457 89080000 		.4byte	.LLST304
 9583 145b 87080000 		.4byte	.LVUS304
 9584 145f 2C       		.uleb128 0x2c
 9585 1460 81320000 		.4byte	0x3281
 9586 1464 1C000000 		.4byte	.LBI671
 9587 1468 00       		.byte	.LVU1288
 9588 1469 A80A0000 		.4byte	.Ldebug_ranges0+0xaa8
 9589 146d 01       		.byte	0x1
 9590 146e A703     		.2byte	0x3a7
 9591 1470 18       		.byte	0x18
 9592 1471 90140000 		.4byte	0x1490
 9593 1475 2D       		.uleb128 0x2d
 9594 1476 92320000 		.4byte	0x3292
 9595 147a BB080000 		.4byte	.LLST305
 9596 147e B9080000 		.4byte	.LVUS305
 9597 1482 2D       		.uleb128 0x2d
 9598 1483 92320000 		.4byte	0x3292
 9599 1487 BB080000 		.4byte	.LLST305
 9600 148b B9080000 		.4byte	.LVUS305
 9601 148f 00       		.byte	0
 9602 1490 2C       		.uleb128 0x2c
 9603 1491 81320000 		.4byte	0x3281
 9604 1495 2C000000 		.4byte	.LBI682
 9605 1499 01       		.byte	.LVU1294
 9606 149a E00A0000 		.4byte	.Ldebug_ranges0+0xae0
 9607 149e 01       		.byte	0x1
 9608 149f A803     		.2byte	0x3a8
 9609 14a1 16       		.byte	0x16
 9610 14a2 C1140000 		.4byte	0x14c1
 9611 14a6 2D       		.uleb128 0x2d
 9612 14a7 92320000 		.4byte	0x3292
 9613 14ab D0080000 		.4byte	.LLST307
 9614 14af CE080000 		.4byte	.LVUS307
 9615 14b3 2D       		.uleb128 0x2d
 9616 14b4 92320000 		.4byte	0x3292
 9617 14b8 D0080000 		.4byte	.LLST307
 9618 14bc CE080000 		.4byte	.LVUS307
 9619 14c0 00       		.byte	0
 9620 14c1 2C       		.uleb128 0x2c
 9621 14c2 81320000 		.4byte	0x3281
 9622 14c6 34000000 		.4byte	.LBI689
 9623 14ca 01       		.byte	.LVU1299
 9624 14cb 000B0000 		.4byte	.Ldebug_ranges0+0xb00
 9625 14cf 01       		.byte	0x1
 9626 14d0 A903     		.2byte	0x3a9
 9627 14d2 16       		.byte	0x16
 9628 14d3 F2140000 		.4byte	0x14f2
 9629 14d7 2D       		.uleb128 0x2d
 9630 14d8 92320000 		.4byte	0x3292
 9631 14dc E5080000 		.4byte	.LLST309
 9632 14e0 E3080000 		.4byte	.LVUS309
 9633 14e4 2D       		.uleb128 0x2d
 9634 14e5 92320000 		.4byte	0x3292
 9635 14e9 E5080000 		.4byte	.LLST309
 9636 14ed E3080000 		.4byte	.LVUS309
 9637 14f1 00       		.byte	0
ARM GAS  /tmp/cchqCFfA.s 			page 173


 9638 14f2 2C       		.uleb128 0x2c
 9639 14f3 01310000 		.4byte	0x3101
 9640 14f7 50000000 		.4byte	.LBI693
 9641 14fb 02       		.byte	.LVU1314
 9642 14fc 180B0000 		.4byte	.Ldebug_ranges0+0xb18
 9643 1500 01       		.byte	0x1
 9644 1501 B003     		.2byte	0x3b0
 9645 1503 11       		.byte	0x11
 9646 1504 28150000 		.4byte	0x1528
 9647 1508 2D       		.uleb128 0x2d
 9648 1509 12310000 		.4byte	0x3112
 9649 150d FA080000 		.4byte	.LLST311
 9650 1511 F8080000 		.4byte	.LVUS311
 9651 1515 3A       		.uleb128 0x3a
 9652 1516 54000000 		.4byte	.LVL404
 9653 151a 1F310000 		.4byte	0x311f
 9654 151e 3B       		.uleb128 0x3b
 9655 151f 01       		.uleb128 0x1
 9656 1520 50       		.byte	0x50
 9657 1521 04       		.uleb128 0x4
 9658 1522 7A       		.byte	0x7a
 9659 1523 808001   		.sleb128 16384
 9660 1526 00       		.byte	0
 9661 1527 00       		.byte	0
 9662 1528 3C       		.uleb128 0x3c
 9663 1529 5C000000 		.4byte	.LVL406
 9664 152d 1F310000 		.4byte	0x311f
 9665 1531 3C150000 		.4byte	0x153c
 9666 1535 3B       		.uleb128 0x3b
 9667 1536 01       		.uleb128 0x1
 9668 1537 50       		.byte	0x50
 9669 1538 02       		.uleb128 0x2
 9670 1539 7A       		.byte	0x7a
 9671 153a 00       		.sleb128 0
 9672 153b 00       		.byte	0
 9673 153c 2F       		.uleb128 0x2f
 9674 153d 92000000 		.4byte	.LVL411
 9675 1541 82340000 		.4byte	0x3482
 9676 1545 00       		.byte	0
 9677 1546 28       		.uleb128 0x28
 9678 1547 44050000 		.4byte	.LASF231
 9679 154b 01       		.byte	0x1
 9680 154c 8803     		.2byte	0x388
 9681 154e 06       		.byte	0x6
 9682 154f 00000000 		.4byte	.LFB23
 9683 1553 84000000 		.4byte	.LFE23-.LFB23
 9684 1557 01       		.uleb128 0x1
 9685 1558 9C       		.byte	0x9c
 9686 1559 8F160000 		.4byte	0x168f
 9687 155d 29       		.uleb128 0x29
 9688 155e 766D00   		.ascii	"vm\000"
 9689 1561 01       		.byte	0x1
 9690 1562 8803     		.2byte	0x388
 9691 1564 28       		.byte	0x28
 9692 1565 6C0B0000 		.4byte	0xb6c
 9693 1569 11090000 		.4byte	.LLST284
 9694 156d 0D090000 		.4byte	.LVUS284
ARM GAS  /tmp/cchqCFfA.s 			page 174


 9695 1571 2A       		.uleb128 0x2a
 9696 1572 01040000 		.4byte	.LASF208
 9697 1576 01       		.byte	0x1
 9698 1577 8B03     		.2byte	0x38b
 9699 1579 09       		.byte	0x9
 9700 157a 7F0A0000 		.4byte	0xa7f
 9701 157e 31090000 		.4byte	.LLST285
 9702 1582 2F090000 		.4byte	.LVUS285
 9703 1586 2A       		.uleb128 0x2a
 9704 1587 6A090000 		.4byte	.LASF224
 9705 158b 01       		.byte	0x1
 9706 158c 8C03     		.2byte	0x38c
 9707 158e 09       		.byte	0x9
 9708 158f 6E0A0000 		.4byte	0xa6e
 9709 1593 48090000 		.4byte	.LLST286
 9710 1597 44090000 		.4byte	.LVUS286
 9711 159b 2A       		.uleb128 0x2a
 9712 159c 190C0000 		.4byte	.LASF209
 9713 15a0 01       		.byte	0x1
 9714 15a1 8F03     		.2byte	0x38f
 9715 15a3 09       		.byte	0x9
 9716 15a4 7F0A0000 		.4byte	0xa7f
 9717 15a8 6A090000 		.4byte	.LLST287
 9718 15ac 66090000 		.4byte	.LVUS287
 9719 15b0 35       		.uleb128 0x35
 9720 15b1 6900     		.ascii	"i\000"
 9721 15b3 01       		.byte	0x1
 9722 15b4 9103     		.2byte	0x391
 9723 15b6 09       		.byte	0x9
 9724 15b7 7F0A0000 		.4byte	0xa7f
 9725 15bb 00       		.byte	0
 9726 15bc 36       		.uleb128 0x36
 9727 15bd 700A0000 		.4byte	.Ldebug_ranges0+0xa70
 9728 15c1 F2150000 		.4byte	0x15f2
 9729 15c5 3D       		.uleb128 0x3d
 9730 15c6 7800     		.ascii	"x\000"
 9731 15c8 01       		.byte	0x1
 9732 15c9 9403     		.2byte	0x394
 9733 15cb 0A       		.byte	0xa
 9734 15cc 6E0A0000 		.4byte	0xa6e
 9735 15d0 37       		.uleb128 0x37
 9736 15d1 01310000 		.4byte	0x3101
 9737 15d5 62000000 		.4byte	.LBI664
 9738 15d9 01       		.byte	.LVU1267
 9739 15da 880A0000 		.4byte	.Ldebug_ranges0+0xa88
 9740 15de 01       		.byte	0x1
 9741 15df 9503     		.2byte	0x395
 9742 15e1 20       		.byte	0x20
 9743 15e2 3E       		.uleb128 0x3e
 9744 15e3 12310000 		.4byte	0x3112
 9745 15e7 2F       		.uleb128 0x2f
 9746 15e8 5E000000 		.4byte	.LVL391
 9747 15ec 1F310000 		.4byte	0x311f
 9748 15f0 00       		.byte	0
 9749 15f1 00       		.byte	0
 9750 15f2 2C       		.uleb128 0x2c
 9751 15f3 81320000 		.4byte	0x3281
ARM GAS  /tmp/cchqCFfA.s 			page 175


 9752 15f7 1C000000 		.4byte	.LBI641
 9753 15fb 00       		.byte	.LVU1237
 9754 15fc 000A0000 		.4byte	.Ldebug_ranges0+0xa00
 9755 1600 01       		.byte	0x1
 9756 1601 8B03     		.2byte	0x38b
 9757 1603 15       		.byte	0x15
 9758 1604 23160000 		.4byte	0x1623
 9759 1608 2D       		.uleb128 0x2d
 9760 1609 92320000 		.4byte	0x3292
 9761 160d 90090000 		.4byte	.LLST288
 9762 1611 8E090000 		.4byte	.LVUS288
 9763 1615 2D       		.uleb128 0x2d
 9764 1616 92320000 		.4byte	0x3292
 9765 161a 90090000 		.4byte	.LLST288
 9766 161e 8E090000 		.4byte	.LVUS288
 9767 1622 00       		.byte	0
 9768 1623 2C       		.uleb128 0x2c
 9769 1624 81320000 		.4byte	0x3281
 9770 1628 28000000 		.4byte	.LBI650
 9771 162c 01       		.byte	.LVU1242
 9772 162d 300A0000 		.4byte	.Ldebug_ranges0+0xa30
 9773 1631 01       		.byte	0x1
 9774 1632 8C03     		.2byte	0x38c
 9775 1634 12       		.byte	0x12
 9776 1635 54160000 		.4byte	0x1654
 9777 1639 2D       		.uleb128 0x2d
 9778 163a 92320000 		.4byte	0x3292
 9779 163e A5090000 		.4byte	.LLST290
 9780 1642 A3090000 		.4byte	.LVUS290
 9781 1646 2D       		.uleb128 0x2d
 9782 1647 92320000 		.4byte	0x3292
 9783 164b A5090000 		.4byte	.LLST290
 9784 164f A3090000 		.4byte	.LVUS290
 9785 1653 00       		.byte	0
 9786 1654 2C       		.uleb128 0x2c
 9787 1655 81320000 		.4byte	0x3281
 9788 1659 30000000 		.4byte	.LBI658
 9789 165d 02       		.byte	.LVU1248
 9790 165e 580A0000 		.4byte	.Ldebug_ranges0+0xa58
 9791 1662 01       		.byte	0x1
 9792 1663 8F03     		.2byte	0x38f
 9793 1665 12       		.byte	0x12
 9794 1666 85160000 		.4byte	0x1685
 9795 166a 2D       		.uleb128 0x2d
 9796 166b 92320000 		.4byte	0x3292
 9797 166f BA090000 		.4byte	.LLST292
 9798 1673 B8090000 		.4byte	.LVUS292
 9799 1677 2D       		.uleb128 0x2d
 9800 1678 92320000 		.4byte	0x3292
 9801 167c BA090000 		.4byte	.LLST292
 9802 1680 B8090000 		.4byte	.LVUS292
 9803 1684 00       		.byte	0
 9804 1685 2F       		.uleb128 0x2f
 9805 1686 7E000000 		.4byte	.LVL394
 9806 168a 82340000 		.4byte	0x3482
 9807 168e 00       		.byte	0
 9808 168f 28       		.uleb128 0x28
ARM GAS  /tmp/cchqCFfA.s 			page 176


 9809 1690 8D040000 		.4byte	.LASF233
 9810 1694 01       		.byte	0x1
 9811 1695 6C03     		.2byte	0x36c
 9812 1697 06       		.byte	0x6
 9813 1698 00000000 		.4byte	.LFB22
 9814 169c 7C000000 		.4byte	.LFE22-.LFB22
 9815 16a0 01       		.uleb128 0x1
 9816 16a1 9C       		.byte	0x9c
 9817 16a2 C0170000 		.4byte	0x17c0
 9818 16a6 29       		.uleb128 0x29
 9819 16a7 766D00   		.ascii	"vm\000"
 9820 16aa 01       		.byte	0x1
 9821 16ab 6C03     		.2byte	0x36c
 9822 16ad 28       		.byte	0x28
 9823 16ae 6C0B0000 		.4byte	0xb6c
 9824 16b2 D1090000 		.4byte	.LLST274
 9825 16b6 CD090000 		.4byte	.LVUS274
 9826 16ba 2A       		.uleb128 0x2a
 9827 16bb 01040000 		.4byte	.LASF208
 9828 16bf 01       		.byte	0x1
 9829 16c0 6F03     		.2byte	0x36f
 9830 16c2 09       		.byte	0x9
 9831 16c3 7F0A0000 		.4byte	0xa7f
 9832 16c7 F1090000 		.4byte	.LLST275
 9833 16cb EF090000 		.4byte	.LVUS275
 9834 16cf 2A       		.uleb128 0x2a
 9835 16d0 6A090000 		.4byte	.LASF224
 9836 16d4 01       		.byte	0x1
 9837 16d5 7003     		.2byte	0x370
 9838 16d7 09       		.byte	0x9
 9839 16d8 6E0A0000 		.4byte	0xa6e
 9840 16dc 080A0000 		.4byte	.LLST276
 9841 16e0 040A0000 		.4byte	.LVUS276
 9842 16e4 2A       		.uleb128 0x2a
 9843 16e5 190C0000 		.4byte	.LASF209
 9844 16e9 01       		.byte	0x1
 9845 16ea 7303     		.2byte	0x373
 9846 16ec 09       		.byte	0x9
 9847 16ed 7F0A0000 		.4byte	0xa7f
 9848 16f1 2A0A0000 		.4byte	.LLST277
 9849 16f5 260A0000 		.4byte	.LVUS277
 9850 16f9 35       		.uleb128 0x35
 9851 16fa 6900     		.ascii	"i\000"
 9852 16fc 01       		.byte	0x1
 9853 16fd 7503     		.2byte	0x375
 9854 16ff 09       		.byte	0x9
 9855 1700 7F0A0000 		.4byte	0xa7f
 9856 1704 00       		.byte	0
 9857 1705 36       		.uleb128 0x36
 9858 1706 E8090000 		.4byte	.Ldebug_ranges0+0x9e8
 9859 170a 23170000 		.4byte	0x1723
 9860 170e 3D       		.uleb128 0x3d
 9861 170f 7800     		.ascii	"x\000"
 9862 1711 01       		.byte	0x1
 9863 1712 7803     		.2byte	0x378
 9864 1714 0A       		.byte	0xa
 9865 1715 6E0A0000 		.4byte	0xa6e
ARM GAS  /tmp/cchqCFfA.s 			page 177


 9866 1719 2F       		.uleb128 0x2f
 9867 171a 58000000 		.4byte	.LVL378
 9868 171e 1F310000 		.4byte	0x311f
 9869 1722 00       		.byte	0
 9870 1723 2C       		.uleb128 0x2c
 9871 1724 81320000 		.4byte	0x3281
 9872 1728 1C000000 		.4byte	.LBI617
 9873 172c 00       		.byte	.LVU1189
 9874 172d 78090000 		.4byte	.Ldebug_ranges0+0x978
 9875 1731 01       		.byte	0x1
 9876 1732 6F03     		.2byte	0x36f
 9877 1734 15       		.byte	0x15
 9878 1735 54170000 		.4byte	0x1754
 9879 1739 2D       		.uleb128 0x2d
 9880 173a 92320000 		.4byte	0x3292
 9881 173e 500A0000 		.4byte	.LLST278
 9882 1742 4E0A0000 		.4byte	.LVUS278
 9883 1746 2D       		.uleb128 0x2d
 9884 1747 92320000 		.4byte	0x3292
 9885 174b 500A0000 		.4byte	.LLST278
 9886 174f 4E0A0000 		.4byte	.LVUS278
 9887 1753 00       		.byte	0
 9888 1754 2C       		.uleb128 0x2c
 9889 1755 81320000 		.4byte	0x3281
 9890 1759 28000000 		.4byte	.LBI626
 9891 175d 01       		.byte	.LVU1194
 9892 175e A8090000 		.4byte	.Ldebug_ranges0+0x9a8
 9893 1762 01       		.byte	0x1
 9894 1763 7003     		.2byte	0x370
 9895 1765 12       		.byte	0x12
 9896 1766 85170000 		.4byte	0x1785
 9897 176a 2D       		.uleb128 0x2d
 9898 176b 92320000 		.4byte	0x3292
 9899 176f 650A0000 		.4byte	.LLST280
 9900 1773 630A0000 		.4byte	.LVUS280
 9901 1777 2D       		.uleb128 0x2d
 9902 1778 92320000 		.4byte	0x3292
 9903 177c 650A0000 		.4byte	.LLST280
 9904 1780 630A0000 		.4byte	.LVUS280
 9905 1784 00       		.byte	0
 9906 1785 2C       		.uleb128 0x2c
 9907 1786 81320000 		.4byte	0x3281
 9908 178a 30000000 		.4byte	.LBI634
 9909 178e 02       		.byte	.LVU1200
 9910 178f D0090000 		.4byte	.Ldebug_ranges0+0x9d0
 9911 1793 01       		.byte	0x1
 9912 1794 7303     		.2byte	0x373
 9913 1796 12       		.byte	0x12
 9914 1797 B6170000 		.4byte	0x17b6
 9915 179b 2D       		.uleb128 0x2d
 9916 179c 92320000 		.4byte	0x3292
 9917 17a0 7A0A0000 		.4byte	.LLST282
 9918 17a4 780A0000 		.4byte	.LVUS282
 9919 17a8 2D       		.uleb128 0x2d
 9920 17a9 92320000 		.4byte	0x3292
 9921 17ad 7A0A0000 		.4byte	.LLST282
 9922 17b1 780A0000 		.4byte	.LVUS282
ARM GAS  /tmp/cchqCFfA.s 			page 178


 9923 17b5 00       		.byte	0
 9924 17b6 2F       		.uleb128 0x2f
 9925 17b7 78000000 		.4byte	.LVL381
 9926 17bb 82340000 		.4byte	0x3482
 9927 17bf 00       		.byte	0
 9928 17c0 28       		.uleb128 0x28
 9929 17c1 93050000 		.4byte	.LASF234
 9930 17c5 01       		.byte	0x1
 9931 17c6 4D03     		.2byte	0x34d
 9932 17c8 06       		.byte	0x6
 9933 17c9 00000000 		.4byte	.LFB21
 9934 17cd B0000000 		.4byte	.LFE21-.LFB21
 9935 17d1 01       		.uleb128 0x1
 9936 17d2 9C       		.byte	0x9c
 9937 17d3 7F190000 		.4byte	0x197f
 9938 17d7 29       		.uleb128 0x29
 9939 17d8 766D00   		.ascii	"vm\000"
 9940 17db 01       		.byte	0x1
 9941 17dc 4D03     		.2byte	0x34d
 9942 17de 2A       		.byte	0x2a
 9943 17df 6C0B0000 		.4byte	0xb6c
 9944 17e3 910A0000 		.4byte	.LLST257
 9945 17e7 8D0A0000 		.4byte	.LVUS257
 9946 17eb 2A       		.uleb128 0x2a
 9947 17ec 01040000 		.4byte	.LASF208
 9948 17f0 01       		.byte	0x1
 9949 17f1 5003     		.2byte	0x350
 9950 17f3 09       		.byte	0x9
 9951 17f4 7F0A0000 		.4byte	0xa7f
 9952 17f8 B10A0000 		.4byte	.LLST258
 9953 17fc AF0A0000 		.4byte	.LVUS258
 9954 1800 2A       		.uleb128 0x2a
 9955 1801 BC030000 		.4byte	.LASF235
 9956 1805 01       		.byte	0x1
 9957 1806 5103     		.2byte	0x351
 9958 1808 09       		.byte	0x9
 9959 1809 6E0A0000 		.4byte	0xa6e
 9960 180d C80A0000 		.4byte	.LLST259
 9961 1811 C40A0000 		.4byte	.LVUS259
 9962 1815 2A       		.uleb128 0x2a
 9963 1816 6A090000 		.4byte	.LASF224
 9964 181a 01       		.byte	0x1
 9965 181b 5203     		.2byte	0x352
 9966 181d 09       		.byte	0x9
 9967 181e 6E0A0000 		.4byte	0xa6e
 9968 1822 E80A0000 		.4byte	.LLST260
 9969 1826 E60A0000 		.4byte	.LVUS260
 9970 182a 2A       		.uleb128 0x2a
 9971 182b 190C0000 		.4byte	.LASF209
 9972 182f 01       		.byte	0x1
 9973 1830 5503     		.2byte	0x355
 9974 1832 09       		.byte	0x9
 9975 1833 7F0A0000 		.4byte	0xa7f
 9976 1837 FD0A0000 		.4byte	.LLST261
 9977 183b FB0A0000 		.4byte	.LVUS261
 9978 183f 35       		.uleb128 0x35
 9979 1840 6900     		.ascii	"i\000"
ARM GAS  /tmp/cchqCFfA.s 			page 179


 9980 1842 01       		.byte	0x1
 9981 1843 5703     		.2byte	0x357
 9982 1845 09       		.byte	0x9
 9983 1846 7F0A0000 		.4byte	0xa7f
 9984 184a 00       		.byte	0
 9985 184b 36       		.uleb128 0x36
 9986 184c 38090000 		.4byte	.Ldebug_ranges0+0x938
 9987 1850 B1180000 		.4byte	0x18b1
 9988 1854 2B       		.uleb128 0x2b
 9989 1855 7900     		.ascii	"y\000"
 9990 1857 01       		.byte	0x1
 9991 1858 5A03     		.2byte	0x35a
 9992 185a 0A       		.byte	0xa
 9993 185b 6E0A0000 		.4byte	0xa6e
 9994 185f 140B0000 		.4byte	.LLST270
 9995 1863 100B0000 		.4byte	.LVUS270
 9996 1867 2B       		.uleb128 0x2b
 9997 1868 7800     		.ascii	"x\000"
 9998 186a 01       		.byte	0x1
 9999 186b 5B03     		.2byte	0x35b
 10000 186d 0A       		.byte	0xa
 10001 186e 6E0A0000 		.4byte	0xa6e
 10002 1872 360B0000 		.4byte	.LLST271
 10003 1876 320B0000 		.4byte	.LVUS271
 10004 187a 37       		.uleb128 0x37
 10005 187b C5310000 		.4byte	0x31c5
 10006 187f 84000000 		.4byte	.LBI610
 10007 1883 00       		.byte	.LVU1168
 10008 1884 60090000 		.4byte	.Ldebug_ranges0+0x960
 10009 1888 01       		.byte	0x1
 10010 1889 5C03     		.2byte	0x35c
 10011 188b 20       		.byte	0x20
 10012 188c 2D       		.uleb128 0x2d
 10013 188d E0310000 		.4byte	0x31e0
 10014 1891 580B0000 		.4byte	.LLST272
 10015 1895 540B0000 		.4byte	.LVUS272
 10016 1899 2D       		.uleb128 0x2d
 10017 189a D6310000 		.4byte	0x31d6
 10018 189e 7A0B0000 		.4byte	.LLST273
 10019 18a2 760B0000 		.4byte	.LVUS273
 10020 18a6 2F       		.uleb128 0x2f
 10021 18a7 8C000000 		.4byte	.LVL366
 10022 18ab 9E320000 		.4byte	0x329e
 10023 18af 00       		.byte	0
 10024 18b0 00       		.byte	0
 10025 18b1 2C       		.uleb128 0x2c
 10026 18b2 81320000 		.4byte	0x3281
 10027 18b6 1A000000 		.4byte	.LBI581
 10028 18ba 00       		.byte	.LVU1119
 10029 18bb A8080000 		.4byte	.Ldebug_ranges0+0x8a8
 10030 18bf 01       		.byte	0x1
 10031 18c0 5003     		.2byte	0x350
 10032 18c2 15       		.byte	0x15
 10033 18c3 E2180000 		.4byte	0x18e2
 10034 18c7 2D       		.uleb128 0x2d
 10035 18c8 92320000 		.4byte	0x3292
 10036 18cc 9C0B0000 		.4byte	.LLST262
ARM GAS  /tmp/cchqCFfA.s 			page 180


 10037 18d0 980B0000 		.4byte	.LVUS262
 10038 18d4 2D       		.uleb128 0x2d
 10039 18d5 92320000 		.4byte	0x3292
 10040 18d9 9C0B0000 		.4byte	.LLST262
 10041 18dd 980B0000 		.4byte	.LVUS262
 10042 18e1 00       		.byte	0
 10043 18e2 2C       		.uleb128 0x2c
 10044 18e3 81320000 		.4byte	0x3281
 10045 18e7 2A000000 		.4byte	.LBI588
 10046 18eb 01       		.byte	.LVU1125
 10047 18ec D0080000 		.4byte	.Ldebug_ranges0+0x8d0
 10048 18f0 01       		.byte	0x1
 10049 18f1 5103     		.2byte	0x351
 10050 18f3 12       		.byte	0x12
 10051 18f4 13190000 		.4byte	0x1913
 10052 18f8 2D       		.uleb128 0x2d
 10053 18f9 92320000 		.4byte	0x3292
 10054 18fd BC0B0000 		.4byte	.LLST264
 10055 1901 BA0B0000 		.4byte	.LVUS264
 10056 1905 2D       		.uleb128 0x2d
 10057 1906 92320000 		.4byte	0x3292
 10058 190a BC0B0000 		.4byte	.LLST264
 10059 190e BA0B0000 		.4byte	.LVUS264
 10060 1912 00       		.byte	0
 10061 1913 2C       		.uleb128 0x2c
 10062 1914 81320000 		.4byte	0x3281
 10063 1918 32000000 		.4byte	.LBI595
 10064 191c 02       		.byte	.LVU1131
 10065 191d F8080000 		.4byte	.Ldebug_ranges0+0x8f8
 10066 1921 01       		.byte	0x1
 10067 1922 5203     		.2byte	0x352
 10068 1924 12       		.byte	0x12
 10069 1925 44190000 		.4byte	0x1944
 10070 1929 2D       		.uleb128 0x2d
 10071 192a 92320000 		.4byte	0x3292
 10072 192e D10B0000 		.4byte	.LLST266
 10073 1932 CF0B0000 		.4byte	.LVUS266
 10074 1936 2D       		.uleb128 0x2d
 10075 1937 92320000 		.4byte	0x3292
 10076 193b D10B0000 		.4byte	.LLST266
 10077 193f CF0B0000 		.4byte	.LVUS266
 10078 1943 00       		.byte	0
 10079 1944 2C       		.uleb128 0x2c
 10080 1945 81320000 		.4byte	0x3281
 10081 1949 3A000000 		.4byte	.LBI604
 10082 194d 02       		.byte	.LVU1137
 10083 194e 20090000 		.4byte	.Ldebug_ranges0+0x920
 10084 1952 01       		.byte	0x1
 10085 1953 5503     		.2byte	0x355
 10086 1955 12       		.byte	0x12
 10087 1956 75190000 		.4byte	0x1975
 10088 195a 2D       		.uleb128 0x2d
 10089 195b 92320000 		.4byte	0x3292
 10090 195f E60B0000 		.4byte	.LLST268
 10091 1963 E40B0000 		.4byte	.LVUS268
 10092 1967 2D       		.uleb128 0x2d
 10093 1968 92320000 		.4byte	0x3292
ARM GAS  /tmp/cchqCFfA.s 			page 181


 10094 196c E60B0000 		.4byte	.LLST268
 10095 1970 E40B0000 		.4byte	.LVUS268
 10096 1974 00       		.byte	0
 10097 1975 2F       		.uleb128 0x2f
 10098 1976 A8000000 		.4byte	.LVL368
 10099 197a 82340000 		.4byte	0x3482
 10100 197e 00       		.byte	0
 10101 197f 28       		.uleb128 0x28
 10102 1980 200C0000 		.4byte	.LASF236
 10103 1984 01       		.byte	0x1
 10104 1985 2203     		.2byte	0x322
 10105 1987 06       		.byte	0x6
 10106 1988 00000000 		.4byte	.LFB20
 10107 198c CC000000 		.4byte	.LFE20-.LFB20
 10108 1990 01       		.uleb128 0x1
 10109 1991 9C       		.byte	0x9c
 10110 1992 8E1B0000 		.4byte	0x1b8e
 10111 1996 29       		.uleb128 0x29
 10112 1997 766D00   		.ascii	"vm\000"
 10113 199a 01       		.byte	0x1
 10114 199b 2203     		.2byte	0x322
 10115 199d 2B       		.byte	0x2b
 10116 199e 6C0B0000 		.4byte	0xb6c
 10117 19a2 010C0000 		.4byte	.LLST237
 10118 19a6 F90B0000 		.4byte	.LVUS237
 10119 19aa 2A       		.uleb128 0x2a
 10120 19ab 01040000 		.4byte	.LASF208
 10121 19af 01       		.byte	0x1
 10122 19b0 2503     		.2byte	0x325
 10123 19b2 09       		.byte	0x9
 10124 19b3 7F0A0000 		.4byte	0xa7f
 10125 19b7 410C0000 		.4byte	.LLST238
 10126 19bb 3B0C0000 		.4byte	.LVUS238
 10127 19bf 2A       		.uleb128 0x2a
 10128 19c0 370C0000 		.4byte	.LASF237
 10129 19c4 01       		.byte	0x1
 10130 19c5 2603     		.2byte	0x326
 10131 19c7 09       		.byte	0x9
 10132 19c8 7F0A0000 		.4byte	0xa7f
 10133 19cc 700C0000 		.4byte	.LLST239
 10134 19d0 6A0C0000 		.4byte	.LVUS239
 10135 19d4 2A       		.uleb128 0x2a
 10136 19d5 D4000000 		.4byte	.LASF238
 10137 19d9 01       		.byte	0x1
 10138 19da 2703     		.2byte	0x327
 10139 19dc 09       		.byte	0x9
 10140 19dd 7F0A0000 		.4byte	0xa7f
 10141 19e1 A10C0000 		.4byte	.LLST240
 10142 19e5 990C0000 		.4byte	.LVUS240
 10143 19e9 2A       		.uleb128 0x2a
 10144 19ea 4B0F0000 		.4byte	.LASF239
 10145 19ee 01       		.byte	0x1
 10146 19ef 2803     		.2byte	0x328
 10147 19f1 09       		.byte	0x9
 10148 19f2 7F0A0000 		.4byte	0xa7f
 10149 19f6 E70C0000 		.4byte	.LLST241
 10150 19fa E10C0000 		.4byte	.LVUS241
ARM GAS  /tmp/cchqCFfA.s 			page 182


 10151 19fe 2A       		.uleb128 0x2a
 10152 19ff 190C0000 		.4byte	.LASF209
 10153 1a03 01       		.byte	0x1
 10154 1a04 2B03     		.2byte	0x32b
 10155 1a06 09       		.byte	0x9
 10156 1a07 7F0A0000 		.4byte	0xa7f
 10157 1a0b 200D0000 		.4byte	.LLST242
 10158 1a0f 1C0D0000 		.4byte	.LVUS242
 10159 1a13 2B       		.uleb128 0x2b
 10160 1a14 6900     		.ascii	"i\000"
 10161 1a16 01       		.byte	0x1
 10162 1a17 2D03     		.2byte	0x32d
 10163 1a19 09       		.byte	0x9
 10164 1a1a 7F0A0000 		.4byte	0xa7f
 10165 1a1e 460D0000 		.4byte	.LLST243
 10166 1a22 440D0000 		.4byte	.LVUS243
 10167 1a26 36       		.uleb128 0x36
 10168 1a27 80080000 		.4byte	.Ldebug_ranges0+0x880
 10169 1a2b 8F1A0000 		.4byte	0x1a8f
 10170 1a2f 2B       		.uleb128 0x2b
 10171 1a30 6100     		.ascii	"a\000"
 10172 1a32 01       		.byte	0x1
 10173 1a33 3003     		.2byte	0x330
 10174 1a35 0A       		.byte	0xa
 10175 1a36 560A0000 		.4byte	0xa56
 10176 1a3a 620D0000 		.4byte	.LLST254
 10177 1a3e 5A0D0000 		.4byte	.LVUS254
 10178 1a42 2B       		.uleb128 0x2b
 10179 1a43 6200     		.ascii	"b\000"
 10180 1a45 01       		.byte	0x1
 10181 1a46 3103     		.2byte	0x331
 10182 1a48 0A       		.byte	0xa
 10183 1a49 560A0000 		.4byte	0xa56
 10184 1a4d C00D0000 		.4byte	.LLST255
 10185 1a51 BC0D0000 		.4byte	.LVUS255
 10186 1a55 2B       		.uleb128 0x2b
 10187 1a56 6300     		.ascii	"c\000"
 10188 1a58 01       		.byte	0x1
 10189 1a59 3203     		.2byte	0x332
 10190 1a5b 0A       		.byte	0xa
 10191 1a5c 560A0000 		.4byte	0xa56
 10192 1a60 EE0D0000 		.4byte	.LLST256
 10193 1a64 EA0D0000 		.4byte	.LVUS256
 10194 1a68 3F       		.uleb128 0x3f
 10195 1a69 B4000000 		.4byte	.LVL348
 10196 1a6d 8B340000 		.4byte	0x348b
 10197 1a71 3B       		.uleb128 0x3b
 10198 1a72 01       		.uleb128 0x1
 10199 1a73 50       		.byte	0x50
 10200 1a74 03       		.uleb128 0x3
 10201 1a75 F3       		.byte	0xf3
 10202 1a76 01       		.uleb128 0x1
 10203 1a77 50       		.byte	0x50
 10204 1a78 3B       		.uleb128 0x3b
 10205 1a79 01       		.uleb128 0x1
 10206 1a7a 51       		.byte	0x51
 10207 1a7b 03       		.uleb128 0x3
ARM GAS  /tmp/cchqCFfA.s 			page 183


 10208 1a7c 0B       		.byte	0xb
 10209 1a7d 0790     		.2byte	0x9007
 10210 1a7f 3B       		.uleb128 0x3b
 10211 1a80 01       		.uleb128 0x1
 10212 1a81 52       		.byte	0x52
 10213 1a82 05       		.uleb128 0x5
 10214 1a83 F3       		.byte	0xf3
 10215 1a84 01       		.uleb128 0x1
 10216 1a85 50       		.byte	0x50
 10217 1a86 23       		.byte	0x23
 10218 1a87 1A       		.uleb128 0x1a
 10219 1a88 3B       		.uleb128 0x3b
 10220 1a89 01       		.uleb128 0x1
 10221 1a8a 53       		.byte	0x53
 10222 1a8b 01       		.uleb128 0x1
 10223 1a8c 32       		.byte	0x32
 10224 1a8d 00       		.byte	0
 10225 1a8e 00       		.byte	0
 10226 1a8f 2C       		.uleb128 0x2c
 10227 1a90 81320000 		.4byte	0x3281
 10228 1a94 18000000 		.4byte	.LBI547
 10229 1a98 01       		.byte	.LVU1042
 10230 1a99 E0070000 		.4byte	.Ldebug_ranges0+0x7e0
 10231 1a9d 01       		.byte	0x1
 10232 1a9e 2503     		.2byte	0x325
 10233 1aa0 15       		.byte	0x15
 10234 1aa1 C01A0000 		.4byte	0x1ac0
 10235 1aa5 2D       		.uleb128 0x2d
 10236 1aa6 92320000 		.4byte	0x3292
 10237 1aaa 140E0000 		.4byte	.LLST244
 10238 1aae 0C0E0000 		.4byte	.LVUS244
 10239 1ab2 2D       		.uleb128 0x2d
 10240 1ab3 92320000 		.4byte	0x3292
 10241 1ab7 560E0000 		.4byte	.LLST245
 10242 1abb 4E0E0000 		.4byte	.LVUS245
 10243 1abf 00       		.byte	0
 10244 1ac0 2C       		.uleb128 0x2c
 10245 1ac1 81320000 		.4byte	0x3281
 10246 1ac5 28000000 		.4byte	.LBI554
 10247 1ac9 01       		.byte	.LVU1047
 10248 1aca 08080000 		.4byte	.Ldebug_ranges0+0x808
 10249 1ace 01       		.byte	0x1
 10250 1acf 2603     		.2byte	0x326
 10251 1ad1 12       		.byte	0x12
 10252 1ad2 F11A0000 		.4byte	0x1af1
 10253 1ad6 2D       		.uleb128 0x2d
 10254 1ad7 92320000 		.4byte	0x3292
 10255 1adb 980E0000 		.4byte	.LLST246
 10256 1adf 900E0000 		.4byte	.LVUS246
 10257 1ae3 2D       		.uleb128 0x2d
 10258 1ae4 92320000 		.4byte	0x3292
 10259 1ae8 DA0E0000 		.4byte	.LLST247
 10260 1aec D20E0000 		.4byte	.LVUS247
 10261 1af0 00       		.byte	0
 10262 1af1 2C       		.uleb128 0x2c
 10263 1af2 81320000 		.4byte	0x3281
 10264 1af6 32000000 		.4byte	.LBI560
ARM GAS  /tmp/cchqCFfA.s 			page 184


 10265 1afa 01       		.byte	.LVU1052
 10266 1afb 28080000 		.4byte	.Ldebug_ranges0+0x828
 10267 1aff 01       		.byte	0x1
 10268 1b00 2703     		.2byte	0x327
 10269 1b02 12       		.byte	0x12
 10270 1b03 221B0000 		.4byte	0x1b22
 10271 1b07 2D       		.uleb128 0x2d
 10272 1b08 92320000 		.4byte	0x3292
 10273 1b0c 1C0F0000 		.4byte	.LLST248
 10274 1b10 140F0000 		.4byte	.LVUS248
 10275 1b14 2D       		.uleb128 0x2d
 10276 1b15 92320000 		.4byte	0x3292
 10277 1b19 5E0F0000 		.4byte	.LLST249
 10278 1b1d 560F0000 		.4byte	.LVUS249
 10279 1b21 00       		.byte	0
 10280 1b22 2C       		.uleb128 0x2c
 10281 1b23 81320000 		.4byte	0x3281
 10282 1b27 3A000000 		.4byte	.LBI566
 10283 1b2b 01       		.byte	.LVU1057
 10284 1b2c 48080000 		.4byte	.Ldebug_ranges0+0x848
 10285 1b30 01       		.byte	0x1
 10286 1b31 2803     		.2byte	0x328
 10287 1b33 12       		.byte	0x12
 10288 1b34 531B0000 		.4byte	0x1b53
 10289 1b38 2D       		.uleb128 0x2d
 10290 1b39 92320000 		.4byte	0x3292
 10291 1b3d A00F0000 		.4byte	.LLST250
 10292 1b41 980F0000 		.4byte	.LVUS250
 10293 1b45 2D       		.uleb128 0x2d
 10294 1b46 92320000 		.4byte	0x3292
 10295 1b4a E20F0000 		.4byte	.LLST251
 10296 1b4e DA0F0000 		.4byte	.LVUS251
 10297 1b52 00       		.byte	0
 10298 1b53 2C       		.uleb128 0x2c
 10299 1b54 81320000 		.4byte	0x3281
 10300 1b58 42000000 		.4byte	.LBI573
 10301 1b5c 01       		.byte	.LVU1062
 10302 1b5d 68080000 		.4byte	.Ldebug_ranges0+0x868
 10303 1b61 01       		.byte	0x1
 10304 1b62 2B03     		.2byte	0x32b
 10305 1b64 12       		.byte	0x12
 10306 1b65 841B0000 		.4byte	0x1b84
 10307 1b69 2D       		.uleb128 0x2d
 10308 1b6a 92320000 		.4byte	0x3292
 10309 1b6e 24100000 		.4byte	.LLST252
 10310 1b72 1C100000 		.4byte	.LVUS252
 10311 1b76 2D       		.uleb128 0x2d
 10312 1b77 92320000 		.4byte	0x3292
 10313 1b7b 66100000 		.4byte	.LLST253
 10314 1b7f 5E100000 		.4byte	.LVUS253
 10315 1b83 00       		.byte	0
 10316 1b84 2F       		.uleb128 0x2f
 10317 1b85 C8000000 		.4byte	.LVL350
 10318 1b89 82340000 		.4byte	0x3482
 10319 1b8d 00       		.byte	0
 10320 1b8e 28       		.uleb128 0x28
 10321 1b8f 3A0D0000 		.4byte	.LASF240
ARM GAS  /tmp/cchqCFfA.s 			page 185


 10322 1b93 01       		.byte	0x1
 10323 1b94 0C03     		.2byte	0x30c
 10324 1b96 06       		.byte	0x6
 10325 1b97 00000000 		.4byte	.LFB19
 10326 1b9b 4C000000 		.4byte	.LFE19-.LFB19
 10327 1b9f 01       		.uleb128 0x1
 10328 1ba0 9C       		.byte	0x9c
 10329 1ba1 581C0000 		.4byte	0x1c58
 10330 1ba5 29       		.uleb128 0x29
 10331 1ba6 766D00   		.ascii	"vm\000"
 10332 1ba9 01       		.byte	0x1
 10333 1baa 0C03     		.2byte	0x30c
 10334 1bac 28       		.byte	0x28
 10335 1bad 6C0B0000 		.4byte	0xb6c
 10336 1bb1 A8100000 		.4byte	.LLST230
 10337 1bb5 A0100000 		.4byte	.LVUS230
 10338 1bb9 2B       		.uleb128 0x2b
 10339 1bba 73726300 		.ascii	"src\000"
 10340 1bbe 01       		.byte	0x1
 10341 1bbf 0F03     		.2byte	0x30f
 10342 1bc1 09       		.byte	0x9
 10343 1bc2 7F0A0000 		.4byte	0xa7f
 10344 1bc6 E6100000 		.4byte	.LLST231
 10345 1bca E2100000 		.4byte	.LVUS231
 10346 1bce 2A       		.uleb128 0x2a
 10347 1bcf 190C0000 		.4byte	.LASF209
 10348 1bd3 01       		.byte	0x1
 10349 1bd4 1203     		.2byte	0x312
 10350 1bd6 09       		.byte	0x9
 10351 1bd7 7F0A0000 		.4byte	0xa7f
 10352 1bdb 0A110000 		.4byte	.LLST232
 10353 1bdf 04110000 		.4byte	.LVUS232
 10354 1be3 2C       		.uleb128 0x2c
 10355 1be4 81320000 		.4byte	0x3281
 10356 1be8 14000000 		.4byte	.LBI539
 10357 1bec 01       		.byte	.LVU1018
 10358 1bed B0070000 		.4byte	.Ldebug_ranges0+0x7b0
 10359 1bf1 01       		.byte	0x1
 10360 1bf2 0F03     		.2byte	0x30f
 10361 1bf4 0F       		.byte	0xf
 10362 1bf5 141C0000 		.4byte	0x1c14
 10363 1bf9 2D       		.uleb128 0x2d
 10364 1bfa 92320000 		.4byte	0x3292
 10365 1bfe 5D110000 		.4byte	.LLST233
 10366 1c02 55110000 		.4byte	.LVUS233
 10367 1c06 2D       		.uleb128 0x2d
 10368 1c07 92320000 		.4byte	0x3292
 10369 1c0b 9F110000 		.4byte	.LLST234
 10370 1c0f 97110000 		.4byte	.LVUS234
 10371 1c13 00       		.byte	0
 10372 1c14 2C       		.uleb128 0x2c
 10373 1c15 81320000 		.4byte	0x3281
 10374 1c19 22000000 		.4byte	.LBI543
 10375 1c1d 01       		.byte	.LVU1023
 10376 1c1e C8070000 		.4byte	.Ldebug_ranges0+0x7c8
 10377 1c22 01       		.byte	0x1
 10378 1c23 1203     		.2byte	0x312
ARM GAS  /tmp/cchqCFfA.s 			page 186


 10379 1c25 12       		.byte	0x12
 10380 1c26 451C0000 		.4byte	0x1c45
 10381 1c2a 2D       		.uleb128 0x2d
 10382 1c2b 92320000 		.4byte	0x3292
 10383 1c2f E1110000 		.4byte	.LLST235
 10384 1c33 D9110000 		.4byte	.LVUS235
 10385 1c37 2D       		.uleb128 0x2d
 10386 1c38 92320000 		.4byte	0x3292
 10387 1c3c 23120000 		.4byte	.LLST236
 10388 1c40 1B120000 		.4byte	.LVUS236
 10389 1c44 00       		.byte	0
 10390 1c45 40       		.uleb128 0x40
 10391 1c46 42000000 		.4byte	.LVL323
 10392 1c4a 19300000 		.4byte	0x3019
 10393 1c4e 2F       		.uleb128 0x2f
 10394 1c4f 46000000 		.4byte	.LVL324
 10395 1c53 82340000 		.4byte	0x3482
 10396 1c57 00       		.byte	0
 10397 1c58 28       		.uleb128 0x28
 10398 1c59 05000000 		.4byte	.LASF241
 10399 1c5d 01       		.byte	0x1
 10400 1c5e DE02     		.2byte	0x2de
 10401 1c60 06       		.byte	0x6
 10402 1c61 00000000 		.4byte	.LFB18
 10403 1c65 A8000000 		.4byte	.LFE18-.LFB18
 10404 1c69 01       		.uleb128 0x1
 10405 1c6a 9C       		.byte	0x9c
 10406 1c6b EF1D0000 		.4byte	0x1def
 10407 1c6f 29       		.uleb128 0x29
 10408 1c70 766D00   		.ascii	"vm\000"
 10409 1c73 01       		.byte	0x1
 10410 1c74 DE02     		.2byte	0x2de
 10411 1c76 2D       		.byte	0x2d
 10412 1c77 6C0B0000 		.4byte	0xb6c
 10413 1c7b 61120000 		.4byte	.LLST214
 10414 1c7f 5D120000 		.4byte	.LVUS214
 10415 1c83 2B       		.uleb128 0x2b
 10416 1c84 73726300 		.ascii	"src\000"
 10417 1c88 01       		.byte	0x1
 10418 1c89 E102     		.2byte	0x2e1
 10419 1c8b 09       		.byte	0x9
 10420 1c8c 7F0A0000 		.4byte	0xa7f
 10421 1c90 86120000 		.4byte	.LLST215
 10422 1c94 82120000 		.4byte	.LVUS215
 10423 1c98 2A       		.uleb128 0x2a
 10424 1c99 EB030000 		.4byte	.LASF242
 10425 1c9d 01       		.byte	0x1
 10426 1c9e E202     		.2byte	0x2e2
 10427 1ca0 09       		.byte	0x9
 10428 1ca1 7F0A0000 		.4byte	0xa7f
 10429 1ca5 A6120000 		.4byte	.LLST216
 10430 1ca9 A4120000 		.4byte	.LVUS216
 10431 1cad 2A       		.uleb128 0x2a
 10432 1cae 9D0B0000 		.4byte	.LASF243
 10433 1cb2 01       		.byte	0x1
 10434 1cb3 E302     		.2byte	0x2e3
 10435 1cb5 09       		.byte	0x9
ARM GAS  /tmp/cchqCFfA.s 			page 187


 10436 1cb6 7F0A0000 		.4byte	0xa7f
 10437 1cba BB120000 		.4byte	.LLST217
 10438 1cbe B9120000 		.4byte	.LVUS217
 10439 1cc2 2A       		.uleb128 0x2a
 10440 1cc3 190C0000 		.4byte	.LASF209
 10441 1cc7 01       		.byte	0x1
 10442 1cc8 E602     		.2byte	0x2e6
 10443 1cca 09       		.byte	0x9
 10444 1ccb 7F0A0000 		.4byte	0xa7f
 10445 1ccf D2120000 		.4byte	.LLST218
 10446 1cd3 CE120000 		.4byte	.LVUS218
 10447 1cd7 2B       		.uleb128 0x2b
 10448 1cd8 6D696E00 		.ascii	"min\000"
 10449 1cdc 01       		.byte	0x1
 10450 1cdd E702     		.2byte	0x2e7
 10451 1cdf 09       		.byte	0x9
 10452 1ce0 6E0A0000 		.4byte	0xa6e
 10453 1ce4 FE120000 		.4byte	.LLST219
 10454 1ce8 F6120000 		.4byte	.LVUS219
 10455 1cec 2B       		.uleb128 0x2b
 10456 1ced 6D617800 		.ascii	"max\000"
 10457 1cf1 01       		.byte	0x1
 10458 1cf2 E802     		.2byte	0x2e8
 10459 1cf4 09       		.byte	0x9
 10460 1cf5 6E0A0000 		.4byte	0xa6e
 10461 1cf9 3D130000 		.4byte	.LLST220
 10462 1cfd 35130000 		.4byte	.LVUS220
 10463 1d01 2B       		.uleb128 0x2b
 10464 1d02 76616C00 		.ascii	"val\000"
 10465 1d06 01       		.byte	0x1
 10466 1d07 E902     		.2byte	0x2e9
 10467 1d09 09       		.byte	0x9
 10468 1d0a 6E0A0000 		.4byte	0xa6e
 10469 1d0e 76130000 		.4byte	.LLST221
 10470 1d12 74130000 		.4byte	.LVUS221
 10471 1d16 3D       		.uleb128 0x3d
 10472 1d17 6900     		.ascii	"i\000"
 10473 1d19 01       		.byte	0x1
 10474 1d1a EA02     		.2byte	0x2ea
 10475 1d1c 09       		.byte	0x9
 10476 1d1d 7F0A0000 		.4byte	0xa7f
 10477 1d21 2C       		.uleb128 0x2c
 10478 1d22 81320000 		.4byte	0x3281
 10479 1d26 12000000 		.4byte	.LBI513
 10480 1d2a 01       		.byte	.LVU952
 10481 1d2b 28070000 		.4byte	.Ldebug_ranges0+0x728
 10482 1d2f 01       		.byte	0x1
 10483 1d30 E102     		.2byte	0x2e1
 10484 1d32 0F       		.byte	0xf
 10485 1d33 521D0000 		.4byte	0x1d52
 10486 1d37 2D       		.uleb128 0x2d
 10487 1d38 92320000 		.4byte	0x3292
 10488 1d3c 8D130000 		.4byte	.LLST222
 10489 1d40 89130000 		.4byte	.LVUS222
 10490 1d44 2D       		.uleb128 0x2d
 10491 1d45 92320000 		.4byte	0x3292
 10492 1d49 B2130000 		.4byte	.LLST223
ARM GAS  /tmp/cchqCFfA.s 			page 188


 10493 1d4d AE130000 		.4byte	.LVUS223
 10494 1d51 00       		.byte	0
 10495 1d52 2C       		.uleb128 0x2c
 10496 1d53 81320000 		.4byte	0x3281
 10497 1d57 28000000 		.4byte	.LBI517
 10498 1d5b 02       		.byte	.LVU959
 10499 1d5c 48070000 		.4byte	.Ldebug_ranges0+0x748
 10500 1d60 01       		.byte	0x1
 10501 1d61 E202     		.2byte	0x2e2
 10502 1d63 12       		.byte	0x12
 10503 1d64 831D0000 		.4byte	0x1d83
 10504 1d68 2D       		.uleb128 0x2d
 10505 1d69 92320000 		.4byte	0x3292
 10506 1d6d D7130000 		.4byte	.LLST224
 10507 1d71 D3130000 		.4byte	.LVUS224
 10508 1d75 2D       		.uleb128 0x2d
 10509 1d76 92320000 		.4byte	0x3292
 10510 1d7a FC130000 		.4byte	.LLST225
 10511 1d7e F8130000 		.4byte	.LVUS225
 10512 1d82 00       		.byte	0
 10513 1d83 2C       		.uleb128 0x2c
 10514 1d84 81320000 		.4byte	0x3281
 10515 1d88 30000000 		.4byte	.LBI524
 10516 1d8c 02       		.byte	.LVU965
 10517 1d8d 70070000 		.4byte	.Ldebug_ranges0+0x770
 10518 1d91 01       		.byte	0x1
 10519 1d92 E302     		.2byte	0x2e3
 10520 1d94 12       		.byte	0x12
 10521 1d95 B41D0000 		.4byte	0x1db4
 10522 1d99 2D       		.uleb128 0x2d
 10523 1d9a 92320000 		.4byte	0x3292
 10524 1d9e 21140000 		.4byte	.LLST226
 10525 1da2 1D140000 		.4byte	.LVUS226
 10526 1da6 2D       		.uleb128 0x2d
 10527 1da7 92320000 		.4byte	0x3292
 10528 1dab 46140000 		.4byte	.LLST227
 10529 1daf 42140000 		.4byte	.LVUS227
 10530 1db3 00       		.byte	0
 10531 1db4 2C       		.uleb128 0x2c
 10532 1db5 81320000 		.4byte	0x3281
 10533 1db9 38000000 		.4byte	.LBI534
 10534 1dbd 02       		.byte	.LVU971
 10535 1dbe 98070000 		.4byte	.Ldebug_ranges0+0x798
 10536 1dc2 01       		.byte	0x1
 10537 1dc3 E602     		.2byte	0x2e6
 10538 1dc5 12       		.byte	0x12
 10539 1dc6 E51D0000 		.4byte	0x1de5
 10540 1dca 2D       		.uleb128 0x2d
 10541 1dcb 92320000 		.4byte	0x3292
 10542 1dcf 6B140000 		.4byte	.LLST228
 10543 1dd3 67140000 		.4byte	.LVUS228
 10544 1dd7 2D       		.uleb128 0x2d
 10545 1dd8 92320000 		.4byte	0x3292
 10546 1ddc 90140000 		.4byte	.LLST229
 10547 1de0 8C140000 		.4byte	.LVUS229
 10548 1de4 00       		.byte	0
 10549 1de5 2F       		.uleb128 0x2f
ARM GAS  /tmp/cchqCFfA.s 			page 189


 10550 1de6 A0000000 		.4byte	.LVL316
 10551 1dea 82340000 		.4byte	0x3482
 10552 1dee 00       		.byte	0
 10553 1def 28       		.uleb128 0x28
 10554 1df0 5F070000 		.4byte	.LASF244
 10555 1df4 01       		.byte	0x1
 10556 1df5 AD02     		.2byte	0x2ad
 10557 1df7 06       		.byte	0x6
 10558 1df8 00000000 		.4byte	.LFB17
 10559 1dfc D0000000 		.4byte	.LFE17-.LFB17
 10560 1e00 01       		.uleb128 0x1
 10561 1e01 9C       		.byte	0x9c
 10562 1e02 BF1F0000 		.4byte	0x1fbf
 10563 1e06 29       		.uleb128 0x29
 10564 1e07 766D00   		.ascii	"vm\000"
 10565 1e0a 01       		.byte	0x1
 10566 1e0b AD02     		.2byte	0x2ad
 10567 1e0d 28       		.byte	0x28
 10568 1e0e 6C0B0000 		.4byte	0xb6c
 10569 1e12 B5140000 		.4byte	.LLST195
 10570 1e16 B1140000 		.4byte	.LVUS195
 10571 1e1a 2B       		.uleb128 0x2b
 10572 1e1b 73726300 		.ascii	"src\000"
 10573 1e1f 01       		.byte	0x1
 10574 1e20 B002     		.2byte	0x2b0
 10575 1e22 09       		.byte	0x9
 10576 1e23 7F0A0000 		.4byte	0xa7f
 10577 1e27 DE140000 		.4byte	.LLST196
 10578 1e2b D6140000 		.4byte	.LVUS196
 10579 1e2f 2B       		.uleb128 0x2b
 10580 1e30 6D696E00 		.ascii	"min\000"
 10581 1e34 01       		.byte	0x1
 10582 1e35 B102     		.2byte	0x2b1
 10583 1e37 09       		.byte	0x9
 10584 1e38 7F0A0000 		.4byte	0xa7f
 10585 1e3c 14150000 		.4byte	.LLST197
 10586 1e40 12150000 		.4byte	.LVUS197
 10587 1e44 2B       		.uleb128 0x2b
 10588 1e45 6D617800 		.ascii	"max\000"
 10589 1e49 01       		.byte	0x1
 10590 1e4a B202     		.2byte	0x2b2
 10591 1e4c 09       		.byte	0x9
 10592 1e4d 7F0A0000 		.4byte	0xa7f
 10593 1e51 29150000 		.4byte	.LLST198
 10594 1e55 27150000 		.4byte	.LVUS198
 10595 1e59 2A       		.uleb128 0x2a
 10596 1e5a D3120000 		.4byte	.LASF245
 10597 1e5e 01       		.byte	0x1
 10598 1e5f B302     		.2byte	0x2b3
 10599 1e61 09       		.byte	0x9
 10600 1e62 7F0A0000 		.4byte	0xa7f
 10601 1e66 40150000 		.4byte	.LLST199
 10602 1e6a 3C150000 		.4byte	.LVUS199
 10603 1e6e 2A       		.uleb128 0x2a
 10604 1e6f 190C0000 		.4byte	.LASF209
 10605 1e73 01       		.byte	0x1
 10606 1e74 B602     		.2byte	0x2b6
ARM GAS  /tmp/cchqCFfA.s 			page 190


 10607 1e76 09       		.byte	0x9
 10608 1e77 7F0A0000 		.4byte	0xa7f
 10609 1e7b 60150000 		.4byte	.LLST200
 10610 1e7f 5E150000 		.4byte	.LVUS200
 10611 1e83 2B       		.uleb128 0x2b
 10612 1e84 76616C00 		.ascii	"val\000"
 10613 1e88 01       		.byte	0x1
 10614 1e89 B702     		.2byte	0x2b7
 10615 1e8b 09       		.byte	0x9
 10616 1e8c 6E0A0000 		.4byte	0xa6e
 10617 1e90 75150000 		.4byte	.LLST201
 10618 1e94 73150000 		.4byte	.LVUS201
 10619 1e98 2B       		.uleb128 0x2b
 10620 1e99 61636300 		.ascii	"acc\000"
 10621 1e9d 01       		.byte	0x1
 10622 1e9e B802     		.2byte	0x2b8
 10623 1ea0 09       		.byte	0x9
 10624 1ea1 560A0000 		.4byte	0xa56
 10625 1ea5 8C150000 		.4byte	.LLST202
 10626 1ea9 88150000 		.4byte	.LVUS202
 10627 1ead 2B       		.uleb128 0x2b
 10628 1eae 6900     		.ascii	"i\000"
 10629 1eb0 01       		.byte	0x1
 10630 1eb1 B902     		.2byte	0x2b9
 10631 1eb3 09       		.byte	0x9
 10632 1eb4 7F0A0000 		.4byte	0xa7f
 10633 1eb8 AE150000 		.4byte	.LLST203
 10634 1ebc AA150000 		.4byte	.LVUS203
 10635 1ec0 2C       		.uleb128 0x2c
 10636 1ec1 81320000 		.4byte	0x3281
 10637 1ec5 16000000 		.4byte	.LBI477
 10638 1ec9 01       		.byte	.LVU867
 10639 1eca 70060000 		.4byte	.Ldebug_ranges0+0x670
 10640 1ece 01       		.byte	0x1
 10641 1ecf B002     		.2byte	0x2b0
 10642 1ed1 0F       		.byte	0xf
 10643 1ed2 F11E0000 		.4byte	0x1ef1
 10644 1ed6 2D       		.uleb128 0x2d
 10645 1ed7 92320000 		.4byte	0x3292
 10646 1edb D2150000 		.4byte	.LLST204
 10647 1edf CE150000 		.4byte	.LVUS204
 10648 1ee3 2D       		.uleb128 0x2d
 10649 1ee4 92320000 		.4byte	0x3292
 10650 1ee8 F7150000 		.4byte	.LLST205
 10651 1eec F3150000 		.4byte	.LVUS205
 10652 1ef0 00       		.byte	0
 10653 1ef1 2C       		.uleb128 0x2c
 10654 1ef2 81320000 		.4byte	0x3281
 10655 1ef6 28000000 		.4byte	.LBI483
 10656 1efa 02       		.byte	.LVU873
 10657 1efb 98060000 		.4byte	.Ldebug_ranges0+0x698
 10658 1eff 01       		.byte	0x1
 10659 1f00 B102     		.2byte	0x2b1
 10660 1f02 0F       		.byte	0xf
 10661 1f03 221F0000 		.4byte	0x1f22
 10662 1f07 2D       		.uleb128 0x2d
 10663 1f08 92320000 		.4byte	0x3292
ARM GAS  /tmp/cchqCFfA.s 			page 191


 10664 1f0c 1C160000 		.4byte	.LLST206
 10665 1f10 18160000 		.4byte	.LVUS206
 10666 1f14 2D       		.uleb128 0x2d
 10667 1f15 92320000 		.4byte	0x3292
 10668 1f19 41160000 		.4byte	.LLST207
 10669 1f1d 3D160000 		.4byte	.LVUS207
 10670 1f21 00       		.byte	0
 10671 1f22 2C       		.uleb128 0x2c
 10672 1f23 81320000 		.4byte	0x3281
 10673 1f27 32000000 		.4byte	.LBI490
 10674 1f2b 02       		.byte	.LVU879
 10675 1f2c C0060000 		.4byte	.Ldebug_ranges0+0x6c0
 10676 1f30 01       		.byte	0x1
 10677 1f31 B202     		.2byte	0x2b2
 10678 1f33 0F       		.byte	0xf
 10679 1f34 531F0000 		.4byte	0x1f53
 10680 1f38 2D       		.uleb128 0x2d
 10681 1f39 92320000 		.4byte	0x3292
 10682 1f3d 66160000 		.4byte	.LLST208
 10683 1f41 62160000 		.4byte	.LVUS208
 10684 1f45 2D       		.uleb128 0x2d
 10685 1f46 92320000 		.4byte	0x3292
 10686 1f4a 8B160000 		.4byte	.LLST209
 10687 1f4e 87160000 		.4byte	.LVUS209
 10688 1f52 00       		.byte	0
 10689 1f53 2C       		.uleb128 0x2c
 10690 1f54 81320000 		.4byte	0x3281
 10691 1f58 3A000000 		.4byte	.LBI498
 10692 1f5c 02       		.byte	.LVU885
 10693 1f5d E8060000 		.4byte	.Ldebug_ranges0+0x6e8
 10694 1f61 01       		.byte	0x1
 10695 1f62 B302     		.2byte	0x2b3
 10696 1f64 10       		.byte	0x10
 10697 1f65 841F0000 		.4byte	0x1f84
 10698 1f69 2D       		.uleb128 0x2d
 10699 1f6a 92320000 		.4byte	0x3292
 10700 1f6e B0160000 		.4byte	.LLST210
 10701 1f72 AC160000 		.4byte	.LVUS210
 10702 1f76 2D       		.uleb128 0x2d
 10703 1f77 92320000 		.4byte	0x3292
 10704 1f7b D5160000 		.4byte	.LLST211
 10705 1f7f D1160000 		.4byte	.LVUS211
 10706 1f83 00       		.byte	0
 10707 1f84 2C       		.uleb128 0x2c
 10708 1f85 81320000 		.4byte	0x3281
 10709 1f89 42000000 		.4byte	.LBI508
 10710 1f8d 02       		.byte	.LVU891
 10711 1f8e 10070000 		.4byte	.Ldebug_ranges0+0x710
 10712 1f92 01       		.byte	0x1
 10713 1f93 B602     		.2byte	0x2b6
 10714 1f95 12       		.byte	0x12
 10715 1f96 B51F0000 		.4byte	0x1fb5
 10716 1f9a 2D       		.uleb128 0x2d
 10717 1f9b 92320000 		.4byte	0x3292
 10718 1f9f FA160000 		.4byte	.LLST212
 10719 1fa3 F6160000 		.4byte	.LVUS212
 10720 1fa7 2D       		.uleb128 0x2d
ARM GAS  /tmp/cchqCFfA.s 			page 192


 10721 1fa8 92320000 		.4byte	0x3292
 10722 1fac 1F170000 		.4byte	.LLST213
 10723 1fb0 1B170000 		.4byte	.LVUS213
 10724 1fb4 00       		.byte	0
 10725 1fb5 2F       		.uleb128 0x2f
 10726 1fb6 CC000000 		.4byte	.LVL298
 10727 1fba 82340000 		.4byte	0x3482
 10728 1fbe 00       		.byte	0
 10729 1fbf 28       		.uleb128 0x28
 10730 1fc0 EA0D0000 		.4byte	.LASF246
 10731 1fc4 01       		.byte	0x1
 10732 1fc5 6102     		.2byte	0x261
 10733 1fc7 06       		.byte	0x6
 10734 1fc8 00000000 		.4byte	.LFB16
 10735 1fcc A8000000 		.4byte	.LFE16-.LFB16
 10736 1fd0 01       		.uleb128 0x1
 10737 1fd1 9C       		.byte	0x9c
 10738 1fd2 7A210000 		.4byte	0x217a
 10739 1fd6 29       		.uleb128 0x29
 10740 1fd7 766D00   		.ascii	"vm\000"
 10741 1fda 01       		.byte	0x1
 10742 1fdb 6102     		.2byte	0x261
 10743 1fdd 27       		.byte	0x27
 10744 1fde 6C0B0000 		.4byte	0xb6c
 10745 1fe2 48170000 		.4byte	.LLST177
 10746 1fe6 40170000 		.4byte	.LVUS177
 10747 1fea 2A       		.uleb128 0x2a
 10748 1feb B6120000 		.4byte	.LASF214
 10749 1fef 01       		.byte	0x1
 10750 1ff0 6402     		.2byte	0x264
 10751 1ff2 09       		.byte	0x9
 10752 1ff3 7F0A0000 		.4byte	0xa7f
 10753 1ff7 84170000 		.4byte	.LLST178
 10754 1ffb 82170000 		.4byte	.LVUS178
 10755 1fff 2A       		.uleb128 0x2a
 10756 2000 1E000000 		.4byte	.LASF247
 10757 2004 01       		.byte	0x1
 10758 2005 6502     		.2byte	0x265
 10759 2007 09       		.byte	0x9
 10760 2008 7F0A0000 		.4byte	0xa7f
 10761 200c 9F170000 		.4byte	.LLST179
 10762 2010 97170000 		.4byte	.LVUS179
 10763 2014 2A       		.uleb128 0x2a
 10764 2015 82050000 		.4byte	.LASF248
 10765 2019 01       		.byte	0x1
 10766 201a 6602     		.2byte	0x266
 10767 201c 09       		.byte	0x9
 10768 201d 7F0A0000 		.4byte	0xa7f
 10769 2021 DD170000 		.4byte	.LLST180
 10770 2025 D3170000 		.4byte	.LVUS180
 10771 2029 2A       		.uleb128 0x2a
 10772 202a 58040000 		.4byte	.LASF249
 10773 202e 01       		.byte	0x1
 10774 202f 6702     		.2byte	0x267
 10775 2031 09       		.byte	0x9
 10776 2032 6E0A0000 		.4byte	0xa6e
 10777 2036 2A180000 		.4byte	.LLST181
ARM GAS  /tmp/cchqCFfA.s 			page 193


 10778 203a 28180000 		.4byte	.LVUS181
 10779 203e 2A       		.uleb128 0x2a
 10780 203f 190C0000 		.4byte	.LASF209
 10781 2043 01       		.byte	0x1
 10782 2044 6A02     		.2byte	0x26a
 10783 2046 09       		.byte	0x9
 10784 2047 7F0A0000 		.4byte	0xa7f
 10785 204b 45180000 		.4byte	.LLST182
 10786 204f 3D180000 		.4byte	.LVUS182
 10787 2053 2B       		.uleb128 0x2b
 10788 2054 72657300 		.ascii	"res\000"
 10789 2058 01       		.byte	0x1
 10790 2059 6B02     		.2byte	0x26b
 10791 205b 09       		.byte	0x9
 10792 205c 560A0000 		.4byte	0xa56
 10793 2060 AC180000 		.4byte	.LLST183
 10794 2064 A6180000 		.4byte	.LVUS183
 10795 2068 2B       		.uleb128 0x2b
 10796 2069 6900     		.ascii	"i\000"
 10797 206b 01       		.byte	0x1
 10798 206c 6C02     		.2byte	0x26c
 10799 206e 09       		.byte	0x9
 10800 206f 7F0A0000 		.4byte	0xa7f
 10801 2073 D9180000 		.4byte	.LLST184
 10802 2077 D7180000 		.4byte	.LVUS184
 10803 207b 2C       		.uleb128 0x2c
 10804 207c 81320000 		.4byte	0x3281
 10805 2080 18000000 		.4byte	.LBI443
 10806 2084 01       		.byte	.LVU798
 10807 2085 C0050000 		.4byte	.Ldebug_ranges0+0x5c0
 10808 2089 01       		.byte	0x1
 10809 208a 6402     		.2byte	0x264
 10810 208c 10       		.byte	0x10
 10811 208d AC200000 		.4byte	0x20ac
 10812 2091 2D       		.uleb128 0x2d
 10813 2092 92320000 		.4byte	0x3292
 10814 2096 F5180000 		.4byte	.LLST185
 10815 209a ED180000 		.4byte	.LVUS185
 10816 209e 2D       		.uleb128 0x2d
 10817 209f 92320000 		.4byte	0x3292
 10818 20a3 37190000 		.4byte	.LLST186
 10819 20a7 2F190000 		.4byte	.LVUS186
 10820 20ab 00       		.byte	0
 10821 20ac 2C       		.uleb128 0x2c
 10822 20ad 81320000 		.4byte	0x3281
 10823 20b1 28000000 		.4byte	.LBI450
 10824 20b5 01       		.byte	.LVU803
 10825 20b6 E8050000 		.4byte	.Ldebug_ranges0+0x5e8
 10826 20ba 01       		.byte	0x1
 10827 20bb 6502     		.2byte	0x265
 10828 20bd 10       		.byte	0x10
 10829 20be DD200000 		.4byte	0x20dd
 10830 20c2 2D       		.uleb128 0x2d
 10831 20c3 92320000 		.4byte	0x3292
 10832 20c7 79190000 		.4byte	.LLST187
 10833 20cb 71190000 		.4byte	.LVUS187
 10834 20cf 2D       		.uleb128 0x2d
ARM GAS  /tmp/cchqCFfA.s 			page 194


 10835 20d0 92320000 		.4byte	0x3292
 10836 20d4 BB190000 		.4byte	.LLST188
 10837 20d8 B3190000 		.4byte	.LVUS188
 10838 20dc 00       		.byte	0
 10839 20dd 2C       		.uleb128 0x2c
 10840 20de 81320000 		.4byte	0x3281
 10841 20e2 34000000 		.4byte	.LBI457
 10842 20e6 02       		.byte	.LVU809
 10843 20e7 10060000 		.4byte	.Ldebug_ranges0+0x610
 10844 20eb 01       		.byte	0x1
 10845 20ec 6602     		.2byte	0x266
 10846 20ee 10       		.byte	0x10
 10847 20ef 0E210000 		.4byte	0x210e
 10848 20f3 2D       		.uleb128 0x2d
 10849 20f4 92320000 		.4byte	0x3292
 10850 20f8 FD190000 		.4byte	.LLST189
 10851 20fc F5190000 		.4byte	.LVUS189
 10852 2100 2D       		.uleb128 0x2d
 10853 2101 92320000 		.4byte	0x3292
 10854 2105 3F1A0000 		.4byte	.LLST190
 10855 2109 371A0000 		.4byte	.LVUS190
 10856 210d 00       		.byte	0
 10857 210e 2C       		.uleb128 0x2c
 10858 210f 81320000 		.4byte	0x3281
 10859 2113 3E000000 		.4byte	.LBI464
 10860 2117 02       		.byte	.LVU815
 10861 2118 38060000 		.4byte	.Ldebug_ranges0+0x638
 10862 211c 01       		.byte	0x1
 10863 211d 6702     		.2byte	0x267
 10864 211f 1F       		.byte	0x1f
 10865 2120 3F210000 		.4byte	0x213f
 10866 2124 2D       		.uleb128 0x2d
 10867 2125 92320000 		.4byte	0x3292
 10868 2129 811A0000 		.4byte	.LLST191
 10869 212d 791A0000 		.4byte	.LVUS191
 10870 2131 2D       		.uleb128 0x2d
 10871 2132 92320000 		.4byte	0x3292
 10872 2136 C31A0000 		.4byte	.LLST192
 10873 213a BB1A0000 		.4byte	.LVUS192
 10874 213e 00       		.byte	0
 10875 213f 2C       		.uleb128 0x2c
 10876 2140 81320000 		.4byte	0x3281
 10877 2144 4A000000 		.4byte	.LBI473
 10878 2148 01       		.byte	.LVU821
 10879 2149 58060000 		.4byte	.Ldebug_ranges0+0x658
 10880 214d 01       		.byte	0x1
 10881 214e 6A02     		.2byte	0x26a
 10882 2150 12       		.byte	0x12
 10883 2151 70210000 		.4byte	0x2170
 10884 2155 2D       		.uleb128 0x2d
 10885 2156 92320000 		.4byte	0x3292
 10886 215a 051B0000 		.4byte	.LLST193
 10887 215e FD1A0000 		.4byte	.LVUS193
 10888 2162 2D       		.uleb128 0x2d
 10889 2163 92320000 		.4byte	0x3292
 10890 2167 471B0000 		.4byte	.LLST194
 10891 216b 3F1B0000 		.4byte	.LVUS194
ARM GAS  /tmp/cchqCFfA.s 			page 195


 10892 216f 00       		.byte	0
 10893 2170 2F       		.uleb128 0x2f
 10894 2171 A4000000 		.4byte	.LVL277
 10895 2175 82340000 		.4byte	0x3482
 10896 2179 00       		.byte	0
 10897 217a 28       		.uleb128 0x28
 10898 217b 740A0000 		.4byte	.LASF250
 10899 217f 01       		.byte	0x1
 10900 2180 3E02     		.2byte	0x23e
 10901 2182 06       		.byte	0x6
 10902 2183 00000000 		.4byte	.LFB15
 10903 2187 AC000000 		.4byte	.LFE15-.LFB15
 10904 218b 01       		.uleb128 0x1
 10905 218c 9C       		.byte	0x9c
 10906 218d 78230000 		.4byte	0x2378
 10907 2191 29       		.uleb128 0x29
 10908 2192 766D00   		.ascii	"vm\000"
 10909 2195 01       		.byte	0x1
 10910 2196 3E02     		.2byte	0x23e
 10911 2198 29       		.byte	0x29
 10912 2199 6C0B0000 		.4byte	0xb6c
 10913 219d 851B0000 		.4byte	.LLST156
 10914 21a1 811B0000 		.4byte	.LVUS156
 10915 21a5 2A       		.uleb128 0x2a
 10916 21a6 B6120000 		.4byte	.LASF214
 10917 21aa 01       		.byte	0x1
 10918 21ab 4102     		.2byte	0x241
 10919 21ad 09       		.byte	0x9
 10920 21ae 7F0A0000 		.4byte	0xa7f
 10921 21b2 AA1B0000 		.4byte	.LLST157
 10922 21b6 A61B0000 		.4byte	.LVUS157
 10923 21ba 2B       		.uleb128 0x2b
 10924 21bb 73726300 		.ascii	"src\000"
 10925 21bf 01       		.byte	0x1
 10926 21c0 4202     		.2byte	0x242
 10927 21c2 09       		.byte	0x9
 10928 21c3 7F0A0000 		.4byte	0xa7f
 10929 21c7 CC1B0000 		.4byte	.LLST158
 10930 21cb C81B0000 		.4byte	.LVUS158
 10931 21cf 2B       		.uleb128 0x2b
 10932 21d0 6C6F7700 		.ascii	"low\000"
 10933 21d4 01       		.byte	0x1
 10934 21d5 4302     		.2byte	0x243
 10935 21d7 09       		.byte	0x9
 10936 21d8 7F0A0000 		.4byte	0xa7f
 10937 21dc F01B0000 		.4byte	.LLST159
 10938 21e0 EA1B0000 		.4byte	.LVUS159
 10939 21e4 2A       		.uleb128 0x2a
 10940 21e5 1E050000 		.4byte	.LASF251
 10941 21e9 01       		.byte	0x1
 10942 21ea 4402     		.2byte	0x244
 10943 21ec 09       		.byte	0x9
 10944 21ed 7F0A0000 		.4byte	0xa7f
 10945 21f1 281C0000 		.4byte	.LLST160
 10946 21f5 201C0000 		.4byte	.LVUS160
 10947 21f9 2A       		.uleb128 0x2a
 10948 21fa 190C0000 		.4byte	.LASF209
ARM GAS  /tmp/cchqCFfA.s 			page 196


 10949 21fe 01       		.byte	0x1
 10950 21ff 4702     		.2byte	0x247
 10951 2201 09       		.byte	0x9
 10952 2202 7F0A0000 		.4byte	0xa7f
 10953 2206 6C1C0000 		.4byte	.LLST161
 10954 220a 681C0000 		.4byte	.LVUS161
 10955 220e 2B       		.uleb128 0x2b
 10956 220f 6900     		.ascii	"i\000"
 10957 2211 01       		.byte	0x1
 10958 2212 4902     		.2byte	0x249
 10959 2214 09       		.byte	0x9
 10960 2215 7F0A0000 		.4byte	0xa7f
 10961 2219 921C0000 		.4byte	.LLST162
 10962 221d 901C0000 		.4byte	.LVUS162
 10963 2221 36       		.uleb128 0x36
 10964 2222 A8050000 		.4byte	.Ldebug_ranges0+0x5a8
 10965 2226 79220000 		.4byte	0x2279
 10966 222a 2B       		.uleb128 0x2b
 10967 222b 7600     		.ascii	"v\000"
 10968 222d 01       		.byte	0x1
 10969 222e 4C02     		.2byte	0x24c
 10970 2230 0A       		.byte	0xa
 10971 2231 6E0A0000 		.4byte	0xa6e
 10972 2235 A81C0000 		.4byte	.LLST173
 10973 2239 A61C0000 		.4byte	.LVUS173
 10974 223d 2B       		.uleb128 0x2b
 10975 223e 6C00     		.ascii	"l\000"
 10976 2240 01       		.byte	0x1
 10977 2241 4D02     		.2byte	0x24d
 10978 2243 0A       		.byte	0xa
 10979 2244 6E0A0000 		.4byte	0xa6e
 10980 2248 BD1C0000 		.4byte	.LLST174
 10981 224c BB1C0000 		.4byte	.LVUS174
 10982 2250 2B       		.uleb128 0x2b
 10983 2251 6800     		.ascii	"h\000"
 10984 2253 01       		.byte	0x1
 10985 2254 4E02     		.2byte	0x24e
 10986 2256 0A       		.byte	0xa
 10987 2257 6E0A0000 		.4byte	0xa6e
 10988 225b D21C0000 		.4byte	.LLST175
 10989 225f D01C0000 		.4byte	.LVUS175
 10990 2263 2B       		.uleb128 0x2b
 10991 2264 72657300 		.ascii	"res\000"
 10992 2268 01       		.byte	0x1
 10993 2269 4F02     		.2byte	0x24f
 10994 226b 0A       		.byte	0xa
 10995 226c 6E0A0000 		.4byte	0xa6e
 10996 2270 E71C0000 		.4byte	.LLST176
 10997 2274 E51C0000 		.4byte	.LVUS176
 10998 2278 00       		.byte	0
 10999 2279 2C       		.uleb128 0x2c
 11000 227a 81320000 		.4byte	0x3281
 11001 227e 18000000 		.4byte	.LBI411
 11002 2282 01       		.byte	.LVU729
 11003 2283 08050000 		.4byte	.Ldebug_ranges0+0x508
 11004 2287 01       		.byte	0x1
 11005 2288 4102     		.2byte	0x241
ARM GAS  /tmp/cchqCFfA.s 			page 197


 11006 228a 10       		.byte	0x10
 11007 228b AA220000 		.4byte	0x22aa
 11008 228f 2D       		.uleb128 0x2d
 11009 2290 92320000 		.4byte	0x3292
 11010 2294 FE1C0000 		.4byte	.LLST163
 11011 2298 FA1C0000 		.4byte	.LVUS163
 11012 229c 2D       		.uleb128 0x2d
 11013 229d 92320000 		.4byte	0x3292
 11014 22a1 231D0000 		.4byte	.LLST164
 11015 22a5 1F1D0000 		.4byte	.LVUS164
 11016 22a9 00       		.byte	0
 11017 22aa 2C       		.uleb128 0x2c
 11018 22ab 81320000 		.4byte	0x3281
 11019 22af 28000000 		.4byte	.LBI418
 11020 22b3 01       		.byte	.LVU734
 11021 22b4 30050000 		.4byte	.Ldebug_ranges0+0x530
 11022 22b8 01       		.byte	0x1
 11023 22b9 4202     		.2byte	0x242
 11024 22bb 0F       		.byte	0xf
 11025 22bc DB220000 		.4byte	0x22db
 11026 22c0 2D       		.uleb128 0x2d
 11027 22c1 92320000 		.4byte	0x3292
 11028 22c5 481D0000 		.4byte	.LLST165
 11029 22c9 441D0000 		.4byte	.LVUS165
 11030 22cd 2D       		.uleb128 0x2d
 11031 22ce 92320000 		.4byte	0x3292
 11032 22d2 6D1D0000 		.4byte	.LLST166
 11033 22d6 691D0000 		.4byte	.LVUS166
 11034 22da 00       		.byte	0
 11035 22db 2C       		.uleb128 0x2c
 11036 22dc 81320000 		.4byte	0x3281
 11037 22e0 32000000 		.4byte	.LBI424
 11038 22e4 01       		.byte	.LVU739
 11039 22e5 50050000 		.4byte	.Ldebug_ranges0+0x550
 11040 22e9 01       		.byte	0x1
 11041 22ea 4302     		.2byte	0x243
 11042 22ec 0F       		.byte	0xf
 11043 22ed 0C230000 		.4byte	0x230c
 11044 22f1 2D       		.uleb128 0x2d
 11045 22f2 92320000 		.4byte	0x3292
 11046 22f6 921D0000 		.4byte	.LLST167
 11047 22fa 8E1D0000 		.4byte	.LVUS167
 11048 22fe 2D       		.uleb128 0x2d
 11049 22ff 92320000 		.4byte	0x3292
 11050 2303 B71D0000 		.4byte	.LLST168
 11051 2307 B31D0000 		.4byte	.LVUS168
 11052 230b 00       		.byte	0
 11053 230c 2C       		.uleb128 0x2c
 11054 230d 81320000 		.4byte	0x3281
 11055 2311 3A000000 		.4byte	.LBI430
 11056 2315 01       		.byte	.LVU744
 11057 2316 70050000 		.4byte	.Ldebug_ranges0+0x570
 11058 231a 01       		.byte	0x1
 11059 231b 4402     		.2byte	0x244
 11060 231d 10       		.byte	0x10
 11061 231e 3D230000 		.4byte	0x233d
 11062 2322 2D       		.uleb128 0x2d
ARM GAS  /tmp/cchqCFfA.s 			page 198


 11063 2323 92320000 		.4byte	0x3292
 11064 2327 DC1D0000 		.4byte	.LLST169
 11065 232b D81D0000 		.4byte	.LVUS169
 11066 232f 2D       		.uleb128 0x2d
 11067 2330 92320000 		.4byte	0x3292
 11068 2334 011E0000 		.4byte	.LLST170
 11069 2338 FD1D0000 		.4byte	.LVUS170
 11070 233c 00       		.byte	0
 11071 233d 2C       		.uleb128 0x2c
 11072 233e 81320000 		.4byte	0x3281
 11073 2342 42000000 		.4byte	.LBI437
 11074 2346 01       		.byte	.LVU749
 11075 2347 90050000 		.4byte	.Ldebug_ranges0+0x590
 11076 234b 01       		.byte	0x1
 11077 234c 4702     		.2byte	0x247
 11078 234e 12       		.byte	0x12
 11079 234f 6E230000 		.4byte	0x236e
 11080 2353 2D       		.uleb128 0x2d
 11081 2354 92320000 		.4byte	0x3292
 11082 2358 261E0000 		.4byte	.LLST171
 11083 235c 221E0000 		.4byte	.LVUS171
 11084 2360 2D       		.uleb128 0x2d
 11085 2361 92320000 		.4byte	0x3292
 11086 2365 4B1E0000 		.4byte	.LLST172
 11087 2369 471E0000 		.4byte	.LVUS172
 11088 236d 00       		.byte	0
 11089 236e 2F       		.uleb128 0x2f
 11090 236f A8000000 		.4byte	.LVL253
 11091 2373 82340000 		.4byte	0x3482
 11092 2377 00       		.byte	0
 11093 2378 28       		.uleb128 0x28
 11094 2379 BC070000 		.4byte	.LASF252
 11095 237d 01       		.byte	0x1
 11096 237e 1E02     		.2byte	0x21e
 11097 2380 06       		.byte	0x6
 11098 2381 00000000 		.4byte	.LFB14
 11099 2385 80000000 		.4byte	.LFE14-.LFB14
 11100 2389 01       		.uleb128 0x1
 11101 238a 9C       		.byte	0x9c
 11102 238b 07250000 		.4byte	0x2507
 11103 238f 29       		.uleb128 0x29
 11104 2390 766D00   		.ascii	"vm\000"
 11105 2393 01       		.byte	0x1
 11106 2394 1E02     		.2byte	0x21e
 11107 2396 27       		.byte	0x27
 11108 2397 6C0B0000 		.4byte	0xb6c
 11109 239b 701E0000 		.4byte	.LLST142
 11110 239f 6C1E0000 		.4byte	.LVUS142
 11111 23a3 2A       		.uleb128 0x2a
 11112 23a4 B6120000 		.4byte	.LASF214
 11113 23a8 01       		.byte	0x1
 11114 23a9 2102     		.2byte	0x221
 11115 23ab 09       		.byte	0x9
 11116 23ac 7F0A0000 		.4byte	0xa7f
 11117 23b0 951E0000 		.4byte	.LLST143
 11118 23b4 911E0000 		.4byte	.LVUS143
 11119 23b8 2A       		.uleb128 0x2a
ARM GAS  /tmp/cchqCFfA.s 			page 199


 11120 23b9 1E000000 		.4byte	.LASF247
 11121 23bd 01       		.byte	0x1
 11122 23be 2202     		.2byte	0x222
 11123 23c0 09       		.byte	0x9
 11124 23c1 7F0A0000 		.4byte	0xa7f
 11125 23c5 B71E0000 		.4byte	.LLST144
 11126 23c9 B31E0000 		.4byte	.LVUS144
 11127 23cd 2A       		.uleb128 0x2a
 11128 23ce 82050000 		.4byte	.LASF248
 11129 23d2 01       		.byte	0x1
 11130 23d3 2302     		.2byte	0x223
 11131 23d5 09       		.byte	0x9
 11132 23d6 7F0A0000 		.4byte	0xa7f
 11133 23da DD1E0000 		.4byte	.LLST145
 11134 23de D51E0000 		.4byte	.LVUS145
 11135 23e2 2A       		.uleb128 0x2a
 11136 23e3 190C0000 		.4byte	.LASF209
 11137 23e7 01       		.byte	0x1
 11138 23e8 2602     		.2byte	0x226
 11139 23ea 09       		.byte	0x9
 11140 23eb 7F0A0000 		.4byte	0xa7f
 11141 23ef 211F0000 		.4byte	.LLST146
 11142 23f3 1D1F0000 		.4byte	.LVUS146
 11143 23f7 2B       		.uleb128 0x2b
 11144 23f8 6900     		.ascii	"i\000"
 11145 23fa 01       		.byte	0x1
 11146 23fb 2802     		.2byte	0x228
 11147 23fd 09       		.byte	0x9
 11148 23fe 7F0A0000 		.4byte	0xa7f
 11149 2402 471F0000 		.4byte	.LLST147
 11150 2406 451F0000 		.4byte	.LVUS147
 11151 240a 36       		.uleb128 0x36
 11152 240b F0040000 		.4byte	.Ldebug_ranges0+0x4f0
 11153 240f 39240000 		.4byte	0x2439
 11154 2413 3D       		.uleb128 0x3d
 11155 2414 763100   		.ascii	"v1\000"
 11156 2417 01       		.byte	0x1
 11157 2418 2B02     		.2byte	0x22b
 11158 241a 0A       		.byte	0xa
 11159 241b 6E0A0000 		.4byte	0xa6e
 11160 241f 3D       		.uleb128 0x3d
 11161 2420 763200   		.ascii	"v2\000"
 11162 2423 01       		.byte	0x1
 11163 2424 2C02     		.2byte	0x22c
 11164 2426 0A       		.byte	0xa
 11165 2427 6E0A0000 		.4byte	0xa6e
 11166 242b 3D       		.uleb128 0x3d
 11167 242c 72657300 		.ascii	"res\000"
 11168 2430 01       		.byte	0x1
 11169 2431 2D02     		.2byte	0x22d
 11170 2433 0A       		.byte	0xa
 11171 2434 6E0A0000 		.4byte	0xa6e
 11172 2438 00       		.byte	0
 11173 2439 2C       		.uleb128 0x2c
 11174 243a 81320000 		.4byte	0x3281
 11175 243e 16000000 		.4byte	.LBI385
 11176 2442 01       		.byte	.LVU675
ARM GAS  /tmp/cchqCFfA.s 			page 200


 11177 2443 70040000 		.4byte	.Ldebug_ranges0+0x470
 11178 2447 01       		.byte	0x1
 11179 2448 2102     		.2byte	0x221
 11180 244a 10       		.byte	0x10
 11181 244b 6A240000 		.4byte	0x246a
 11182 244f 2D       		.uleb128 0x2d
 11183 2450 92320000 		.4byte	0x3292
 11184 2454 5F1F0000 		.4byte	.LLST148
 11185 2458 5B1F0000 		.4byte	.LVUS148
 11186 245c 2D       		.uleb128 0x2d
 11187 245d 92320000 		.4byte	0x3292
 11188 2461 841F0000 		.4byte	.LLST149
 11189 2465 801F0000 		.4byte	.LVUS149
 11190 2469 00       		.byte	0
 11191 246a 2C       		.uleb128 0x2c
 11192 246b 81320000 		.4byte	0x3281
 11193 246f 26000000 		.4byte	.LBI392
 11194 2473 01       		.byte	.LVU680
 11195 2474 98040000 		.4byte	.Ldebug_ranges0+0x498
 11196 2478 01       		.byte	0x1
 11197 2479 2202     		.2byte	0x222
 11198 247b 10       		.byte	0x10
 11199 247c 9B240000 		.4byte	0x249b
 11200 2480 2D       		.uleb128 0x2d
 11201 2481 92320000 		.4byte	0x3292
 11202 2485 A91F0000 		.4byte	.LLST150
 11203 2489 A51F0000 		.4byte	.LVUS150
 11204 248d 2D       		.uleb128 0x2d
 11205 248e 92320000 		.4byte	0x3292
 11206 2492 CE1F0000 		.4byte	.LLST151
 11207 2496 CA1F0000 		.4byte	.LVUS151
 11208 249a 00       		.byte	0
 11209 249b 2C       		.uleb128 0x2c
 11210 249c 81320000 		.4byte	0x3281
 11211 24a0 2E000000 		.4byte	.LBI398
 11212 24a4 01       		.byte	.LVU685
 11213 24a5 B8040000 		.4byte	.Ldebug_ranges0+0x4b8
 11214 24a9 01       		.byte	0x1
 11215 24aa 2302     		.2byte	0x223
 11216 24ac 10       		.byte	0x10
 11217 24ad CC240000 		.4byte	0x24cc
 11218 24b1 2D       		.uleb128 0x2d
 11219 24b2 92320000 		.4byte	0x3292
 11220 24b6 F31F0000 		.4byte	.LLST152
 11221 24ba EF1F0000 		.4byte	.LVUS152
 11222 24be 2D       		.uleb128 0x2d
 11223 24bf 92320000 		.4byte	0x3292
 11224 24c3 18200000 		.4byte	.LLST153
 11225 24c7 14200000 		.4byte	.LVUS153
 11226 24cb 00       		.byte	0
 11227 24cc 2C       		.uleb128 0x2c
 11228 24cd 81320000 		.4byte	0x3281
 11229 24d1 36000000 		.4byte	.LBI405
 11230 24d5 01       		.byte	.LVU690
 11231 24d6 D8040000 		.4byte	.Ldebug_ranges0+0x4d8
 11232 24da 01       		.byte	0x1
 11233 24db 2602     		.2byte	0x226
ARM GAS  /tmp/cchqCFfA.s 			page 201


 11234 24dd 12       		.byte	0x12
 11235 24de FD240000 		.4byte	0x24fd
 11236 24e2 2D       		.uleb128 0x2d
 11237 24e3 92320000 		.4byte	0x3292
 11238 24e7 3D200000 		.4byte	.LLST154
 11239 24eb 39200000 		.4byte	.LVUS154
 11240 24ef 2D       		.uleb128 0x2d
 11241 24f0 92320000 		.4byte	0x3292
 11242 24f4 62200000 		.4byte	.LLST155
 11243 24f8 5E200000 		.4byte	.LVUS155
 11244 24fc 00       		.byte	0
 11245 24fd 2F       		.uleb128 0x2f
 11246 24fe 7C000000 		.4byte	.LVL231
 11247 2502 82340000 		.4byte	0x3482
 11248 2506 00       		.byte	0
 11249 2507 28       		.uleb128 0x28
 11250 2508 AC100000 		.4byte	.LASF253
 11251 250c 01       		.byte	0x1
 11252 250d FD01     		.2byte	0x1fd
 11253 250f 06       		.byte	0x6
 11254 2510 00000000 		.4byte	.LFB13
 11255 2514 80000000 		.4byte	.LFE13-.LFB13
 11256 2518 01       		.uleb128 0x1
 11257 2519 9C       		.byte	0x9c
 11258 251a 96260000 		.4byte	0x2696
 11259 251e 29       		.uleb128 0x29
 11260 251f 766D00   		.ascii	"vm\000"
 11261 2522 01       		.byte	0x1
 11262 2523 FD01     		.2byte	0x1fd
 11263 2525 27       		.byte	0x27
 11264 2526 6C0B0000 		.4byte	0xb6c
 11265 252a 87200000 		.4byte	.LLST128
 11266 252e 83200000 		.4byte	.LVUS128
 11267 2532 2A       		.uleb128 0x2a
 11268 2533 B6120000 		.4byte	.LASF214
 11269 2537 01       		.byte	0x1
 11270 2538 0002     		.2byte	0x200
 11271 253a 09       		.byte	0x9
 11272 253b 7F0A0000 		.4byte	0xa7f
 11273 253f AC200000 		.4byte	.LLST129
 11274 2543 A8200000 		.4byte	.LVUS129
 11275 2547 2A       		.uleb128 0x2a
 11276 2548 1E000000 		.4byte	.LASF247
 11277 254c 01       		.byte	0x1
 11278 254d 0102     		.2byte	0x201
 11279 254f 09       		.byte	0x9
 11280 2550 7F0A0000 		.4byte	0xa7f
 11281 2554 CE200000 		.4byte	.LLST130
 11282 2558 CA200000 		.4byte	.LVUS130
 11283 255c 2A       		.uleb128 0x2a
 11284 255d 82050000 		.4byte	.LASF248
 11285 2561 01       		.byte	0x1
 11286 2562 0202     		.2byte	0x202
 11287 2564 09       		.byte	0x9
 11288 2565 7F0A0000 		.4byte	0xa7f
 11289 2569 F4200000 		.4byte	.LLST131
 11290 256d EC200000 		.4byte	.LVUS131
ARM GAS  /tmp/cchqCFfA.s 			page 202


 11291 2571 2A       		.uleb128 0x2a
 11292 2572 190C0000 		.4byte	.LASF209
 11293 2576 01       		.byte	0x1
 11294 2577 0502     		.2byte	0x205
 11295 2579 09       		.byte	0x9
 11296 257a 7F0A0000 		.4byte	0xa7f
 11297 257e 38210000 		.4byte	.LLST132
 11298 2582 34210000 		.4byte	.LVUS132
 11299 2586 2B       		.uleb128 0x2b
 11300 2587 6900     		.ascii	"i\000"
 11301 2589 01       		.byte	0x1
 11302 258a 0702     		.2byte	0x207
 11303 258c 09       		.byte	0x9
 11304 258d 7F0A0000 		.4byte	0xa7f
 11305 2591 5E210000 		.4byte	.LLST133
 11306 2595 5C210000 		.4byte	.LVUS133
 11307 2599 36       		.uleb128 0x36
 11308 259a 58040000 		.4byte	.Ldebug_ranges0+0x458
 11309 259e C8250000 		.4byte	0x25c8
 11310 25a2 3D       		.uleb128 0x3d
 11311 25a3 763100   		.ascii	"v1\000"
 11312 25a6 01       		.byte	0x1
 11313 25a7 0A02     		.2byte	0x20a
 11314 25a9 0A       		.byte	0xa
 11315 25aa 6E0A0000 		.4byte	0xa6e
 11316 25ae 3D       		.uleb128 0x3d
 11317 25af 763200   		.ascii	"v2\000"
 11318 25b2 01       		.byte	0x1
 11319 25b3 0B02     		.2byte	0x20b
 11320 25b5 0A       		.byte	0xa
 11321 25b6 6E0A0000 		.4byte	0xa6e
 11322 25ba 3D       		.uleb128 0x3d
 11323 25bb 72657300 		.ascii	"res\000"
 11324 25bf 01       		.byte	0x1
 11325 25c0 0C02     		.2byte	0x20c
 11326 25c2 0A       		.byte	0xa
 11327 25c3 6E0A0000 		.4byte	0xa6e
 11328 25c7 00       		.byte	0
 11329 25c8 2C       		.uleb128 0x2c
 11330 25c9 81320000 		.4byte	0x3281
 11331 25cd 16000000 		.4byte	.LBI359
 11332 25d1 01       		.byte	.LVU621
 11333 25d2 D8030000 		.4byte	.Ldebug_ranges0+0x3d8
 11334 25d6 01       		.byte	0x1
 11335 25d7 0002     		.2byte	0x200
 11336 25d9 10       		.byte	0x10
 11337 25da F9250000 		.4byte	0x25f9
 11338 25de 2D       		.uleb128 0x2d
 11339 25df 92320000 		.4byte	0x3292
 11340 25e3 76210000 		.4byte	.LLST134
 11341 25e7 72210000 		.4byte	.LVUS134
 11342 25eb 2D       		.uleb128 0x2d
 11343 25ec 92320000 		.4byte	0x3292
 11344 25f0 9B210000 		.4byte	.LLST135
 11345 25f4 97210000 		.4byte	.LVUS135
 11346 25f8 00       		.byte	0
 11347 25f9 2C       		.uleb128 0x2c
ARM GAS  /tmp/cchqCFfA.s 			page 203


 11348 25fa 81320000 		.4byte	0x3281
 11349 25fe 26000000 		.4byte	.LBI366
 11350 2602 01       		.byte	.LVU626
 11351 2603 00040000 		.4byte	.Ldebug_ranges0+0x400
 11352 2607 01       		.byte	0x1
 11353 2608 0102     		.2byte	0x201
 11354 260a 10       		.byte	0x10
 11355 260b 2A260000 		.4byte	0x262a
 11356 260f 2D       		.uleb128 0x2d
 11357 2610 92320000 		.4byte	0x3292
 11358 2614 C0210000 		.4byte	.LLST136
 11359 2618 BC210000 		.4byte	.LVUS136
 11360 261c 2D       		.uleb128 0x2d
 11361 261d 92320000 		.4byte	0x3292
 11362 2621 E5210000 		.4byte	.LLST137
 11363 2625 E1210000 		.4byte	.LVUS137
 11364 2629 00       		.byte	0
 11365 262a 2C       		.uleb128 0x2c
 11366 262b 81320000 		.4byte	0x3281
 11367 262f 2E000000 		.4byte	.LBI372
 11368 2633 01       		.byte	.LVU631
 11369 2634 20040000 		.4byte	.Ldebug_ranges0+0x420
 11370 2638 01       		.byte	0x1
 11371 2639 0202     		.2byte	0x202
 11372 263b 10       		.byte	0x10
 11373 263c 5B260000 		.4byte	0x265b
 11374 2640 2D       		.uleb128 0x2d
 11375 2641 92320000 		.4byte	0x3292
 11376 2645 0A220000 		.4byte	.LLST138
 11377 2649 06220000 		.4byte	.LVUS138
 11378 264d 2D       		.uleb128 0x2d
 11379 264e 92320000 		.4byte	0x3292
 11380 2652 2F220000 		.4byte	.LLST139
 11381 2656 2B220000 		.4byte	.LVUS139
 11382 265a 00       		.byte	0
 11383 265b 2C       		.uleb128 0x2c
 11384 265c 81320000 		.4byte	0x3281
 11385 2660 36000000 		.4byte	.LBI379
 11386 2664 01       		.byte	.LVU636
 11387 2665 40040000 		.4byte	.Ldebug_ranges0+0x440
 11388 2669 01       		.byte	0x1
 11389 266a 0502     		.2byte	0x205
 11390 266c 12       		.byte	0x12
 11391 266d 8C260000 		.4byte	0x268c
 11392 2671 2D       		.uleb128 0x2d
 11393 2672 92320000 		.4byte	0x3292
 11394 2676 54220000 		.4byte	.LLST140
 11395 267a 50220000 		.4byte	.LVUS140
 11396 267e 2D       		.uleb128 0x2d
 11397 267f 92320000 		.4byte	0x3292
 11398 2683 79220000 		.4byte	.LLST141
 11399 2687 75220000 		.4byte	.LVUS141
 11400 268b 00       		.byte	0
 11401 268c 2F       		.uleb128 0x2f
 11402 268d 7C000000 		.4byte	.LVL215
 11403 2691 82340000 		.4byte	0x3482
 11404 2695 00       		.byte	0
ARM GAS  /tmp/cchqCFfA.s 			page 204


 11405 2696 28       		.uleb128 0x28
 11406 2697 E0060000 		.4byte	.LASF254
 11407 269b 01       		.byte	0x1
 11408 269c D301     		.2byte	0x1d3
 11409 269e 06       		.byte	0x6
 11410 269f 00000000 		.4byte	.LFB12
 11411 26a3 A8000000 		.4byte	.LFE12-.LFB12
 11412 26a7 01       		.uleb128 0x1
 11413 26a8 9C       		.byte	0x9c
 11414 26a9 50280000 		.4byte	0x2850
 11415 26ad 29       		.uleb128 0x29
 11416 26ae 766D00   		.ascii	"vm\000"
 11417 26b1 01       		.byte	0x1
 11418 26b2 D301     		.2byte	0x1d3
 11419 26b4 27       		.byte	0x27
 11420 26b5 6C0B0000 		.4byte	0xb6c
 11421 26b9 A2220000 		.4byte	.LLST112
 11422 26bd 9A220000 		.4byte	.LVUS112
 11423 26c1 2A       		.uleb128 0x2a
 11424 26c2 B6120000 		.4byte	.LASF214
 11425 26c6 01       		.byte	0x1
 11426 26c7 D601     		.2byte	0x1d6
 11427 26c9 09       		.byte	0x9
 11428 26ca 7F0A0000 		.4byte	0xa7f
 11429 26ce E2220000 		.4byte	.LLST113
 11430 26d2 DC220000 		.4byte	.LVUS113
 11431 26d6 2A       		.uleb128 0x2a
 11432 26d7 1E000000 		.4byte	.LASF247
 11433 26db 01       		.byte	0x1
 11434 26dc D701     		.2byte	0x1d7
 11435 26de 09       		.byte	0x9
 11436 26df 7F0A0000 		.4byte	0xa7f
 11437 26e3 11230000 		.4byte	.LLST114
 11438 26e7 0B230000 		.4byte	.LVUS114
 11439 26eb 2A       		.uleb128 0x2a
 11440 26ec 82050000 		.4byte	.LASF248
 11441 26f0 01       		.byte	0x1
 11442 26f1 D801     		.2byte	0x1d8
 11443 26f3 09       		.byte	0x9
 11444 26f4 7F0A0000 		.4byte	0xa7f
 11445 26f8 42230000 		.4byte	.LLST115
 11446 26fc 3A230000 		.4byte	.LVUS115
 11447 2700 2A       		.uleb128 0x2a
 11448 2701 190C0000 		.4byte	.LASF209
 11449 2705 01       		.byte	0x1
 11450 2706 DB01     		.2byte	0x1db
 11451 2708 09       		.byte	0x9
 11452 2709 7F0A0000 		.4byte	0xa7f
 11453 270d 86230000 		.4byte	.LLST116
 11454 2711 82230000 		.4byte	.LVUS116
 11455 2715 2B       		.uleb128 0x2b
 11456 2716 6900     		.ascii	"i\000"
 11457 2718 01       		.byte	0x1
 11458 2719 DD01     		.2byte	0x1dd
 11459 271b 09       		.byte	0x9
 11460 271c 7F0A0000 		.4byte	0xa7f
 11461 2720 AC230000 		.4byte	.LLST117
ARM GAS  /tmp/cchqCFfA.s 			page 205


 11462 2724 AA230000 		.4byte	.LVUS117
 11463 2728 36       		.uleb128 0x36
 11464 2729 B0030000 		.4byte	.Ldebug_ranges0+0x3b0
 11465 272d 82270000 		.4byte	0x2782
 11466 2731 2A       		.uleb128 0x2a
 11467 2732 91070000 		.4byte	.LASF255
 11468 2736 01       		.byte	0x1
 11469 2737 E001     		.2byte	0x1e0
 11470 2739 0A       		.byte	0xa
 11471 273a 560A0000 		.4byte	0xa56
 11472 273e C4230000 		.4byte	.LLST126
 11473 2742 C0230000 		.4byte	.LVUS126
 11474 2746 2A       		.uleb128 0x2a
 11475 2747 380E0000 		.4byte	.LASF256
 11476 274b 01       		.byte	0x1
 11477 274c E101     		.2byte	0x1e1
 11478 274e 0A       		.byte	0xa
 11479 274f 560A0000 		.4byte	0xa56
 11480 2753 E6230000 		.4byte	.LLST127
 11481 2757 E2230000 		.4byte	.LVUS127
 11482 275b 3F       		.uleb128 0x3f
 11483 275c 90000000 		.4byte	.LVL197
 11484 2760 8B340000 		.4byte	0x348b
 11485 2764 3B       		.uleb128 0x3b
 11486 2765 01       		.uleb128 0x1
 11487 2766 50       		.byte	0x50
 11488 2767 03       		.uleb128 0x3
 11489 2768 F3       		.byte	0xf3
 11490 2769 01       		.uleb128 0x1
 11491 276a 50       		.byte	0x50
 11492 276b 3B       		.uleb128 0x3b
 11493 276c 01       		.uleb128 0x1
 11494 276d 51       		.byte	0x51
 11495 276e 03       		.uleb128 0x3
 11496 276f 0B       		.byte	0xb
 11497 2770 0790     		.2byte	0x9007
 11498 2772 3B       		.uleb128 0x3b
 11499 2773 01       		.uleb128 0x1
 11500 2774 52       		.byte	0x52
 11501 2775 05       		.uleb128 0x5
 11502 2776 F3       		.byte	0xf3
 11503 2777 01       		.uleb128 0x1
 11504 2778 50       		.byte	0x50
 11505 2779 23       		.byte	0x23
 11506 277a 1A       		.uleb128 0x1a
 11507 277b 3B       		.uleb128 0x3b
 11508 277c 01       		.uleb128 0x1
 11509 277d 53       		.byte	0x53
 11510 277e 01       		.uleb128 0x1
 11511 277f 32       		.byte	0x32
 11512 2780 00       		.byte	0
 11513 2781 00       		.byte	0
 11514 2782 2C       		.uleb128 0x2c
 11515 2783 81320000 		.4byte	0x3281
 11516 2787 16000000 		.4byte	.LBI331
 11517 278b 01       		.byte	.LVU554
 11518 278c 30030000 		.4byte	.Ldebug_ranges0+0x330
ARM GAS  /tmp/cchqCFfA.s 			page 206


 11519 2790 01       		.byte	0x1
 11520 2791 D601     		.2byte	0x1d6
 11521 2793 10       		.byte	0x10
 11522 2794 B3270000 		.4byte	0x27b3
 11523 2798 2D       		.uleb128 0x2d
 11524 2799 92320000 		.4byte	0x3292
 11525 279d 0C240000 		.4byte	.LLST118
 11526 27a1 04240000 		.4byte	.LVUS118
 11527 27a5 2D       		.uleb128 0x2d
 11528 27a6 92320000 		.4byte	0x3292
 11529 27aa 4E240000 		.4byte	.LLST119
 11530 27ae 46240000 		.4byte	.LVUS119
 11531 27b2 00       		.byte	0
 11532 27b3 2C       		.uleb128 0x2c
 11533 27b4 81320000 		.4byte	0x3281
 11534 27b8 26000000 		.4byte	.LBI338
 11535 27bc 01       		.byte	.LVU559
 11536 27bd 58030000 		.4byte	.Ldebug_ranges0+0x358
 11537 27c1 01       		.byte	0x1
 11538 27c2 D701     		.2byte	0x1d7
 11539 27c4 10       		.byte	0x10
 11540 27c5 E4270000 		.4byte	0x27e4
 11541 27c9 2D       		.uleb128 0x2d
 11542 27ca 92320000 		.4byte	0x3292
 11543 27ce 90240000 		.4byte	.LLST120
 11544 27d2 88240000 		.4byte	.LVUS120
 11545 27d6 2D       		.uleb128 0x2d
 11546 27d7 92320000 		.4byte	0x3292
 11547 27db D2240000 		.4byte	.LLST121
 11548 27df CA240000 		.4byte	.LVUS121
 11549 27e3 00       		.byte	0
 11550 27e4 2C       		.uleb128 0x2c
 11551 27e5 81320000 		.4byte	0x3281
 11552 27e9 2E000000 		.4byte	.LBI344
 11553 27ed 01       		.byte	.LVU564
 11554 27ee 78030000 		.4byte	.Ldebug_ranges0+0x378
 11555 27f2 01       		.byte	0x1
 11556 27f3 D801     		.2byte	0x1d8
 11557 27f5 10       		.byte	0x10
 11558 27f6 15280000 		.4byte	0x2815
 11559 27fa 2D       		.uleb128 0x2d
 11560 27fb 92320000 		.4byte	0x3292
 11561 27ff 14250000 		.4byte	.LLST122
 11562 2803 0C250000 		.4byte	.LVUS122
 11563 2807 2D       		.uleb128 0x2d
 11564 2808 92320000 		.4byte	0x3292
 11565 280c 56250000 		.4byte	.LLST123
 11566 2810 4E250000 		.4byte	.LVUS123
 11567 2814 00       		.byte	0
 11568 2815 2C       		.uleb128 0x2c
 11569 2816 81320000 		.4byte	0x3281
 11570 281a 36000000 		.4byte	.LBI351
 11571 281e 01       		.byte	.LVU569
 11572 281f 98030000 		.4byte	.Ldebug_ranges0+0x398
 11573 2823 01       		.byte	0x1
 11574 2824 DB01     		.2byte	0x1db
 11575 2826 12       		.byte	0x12
ARM GAS  /tmp/cchqCFfA.s 			page 207


 11576 2827 46280000 		.4byte	0x2846
 11577 282b 2D       		.uleb128 0x2d
 11578 282c 92320000 		.4byte	0x3292
 11579 2830 98250000 		.4byte	.LLST124
 11580 2834 90250000 		.4byte	.LVUS124
 11581 2838 2D       		.uleb128 0x2d
 11582 2839 92320000 		.4byte	0x3292
 11583 283d DA250000 		.4byte	.LLST125
 11584 2841 D2250000 		.4byte	.LVUS125
 11585 2845 00       		.byte	0
 11586 2846 2F       		.uleb128 0x2f
 11587 2847 A2000000 		.4byte	.LVL199
 11588 284b 82340000 		.4byte	0x3482
 11589 284f 00       		.byte	0
 11590 2850 28       		.uleb128 0x28
 11591 2851 270D0000 		.4byte	.LASF257
 11592 2855 01       		.byte	0x1
 11593 2856 B501     		.2byte	0x1b5
 11594 2858 06       		.byte	0x6
 11595 2859 00000000 		.4byte	.LFB11
 11596 285d 80000000 		.4byte	.LFE11-.LFB11
 11597 2861 01       		.uleb128 0x1
 11598 2862 9C       		.byte	0x9c
 11599 2863 B0290000 		.4byte	0x29b0
 11600 2867 29       		.uleb128 0x29
 11601 2868 766D00   		.ascii	"vm\000"
 11602 286b 01       		.byte	0x1
 11603 286c B501     		.2byte	0x1b5
 11604 286e 27       		.byte	0x27
 11605 286f 6C0B0000 		.4byte	0xb6c
 11606 2873 18260000 		.4byte	.LLST98
 11607 2877 14260000 		.4byte	.LVUS98
 11608 287b 2A       		.uleb128 0x2a
 11609 287c B6120000 		.4byte	.LASF214
 11610 2880 01       		.byte	0x1
 11611 2881 B801     		.2byte	0x1b8
 11612 2883 09       		.byte	0x9
 11613 2884 7F0A0000 		.4byte	0xa7f
 11614 2888 3D260000 		.4byte	.LLST99
 11615 288c 39260000 		.4byte	.LVUS99
 11616 2890 2A       		.uleb128 0x2a
 11617 2891 1E000000 		.4byte	.LASF247
 11618 2895 01       		.byte	0x1
 11619 2896 B901     		.2byte	0x1b9
 11620 2898 09       		.byte	0x9
 11621 2899 7F0A0000 		.4byte	0xa7f
 11622 289d 5F260000 		.4byte	.LLST100
 11623 28a1 5B260000 		.4byte	.LVUS100
 11624 28a5 2A       		.uleb128 0x2a
 11625 28a6 82050000 		.4byte	.LASF248
 11626 28aa 01       		.byte	0x1
 11627 28ab BA01     		.2byte	0x1ba
 11628 28ad 09       		.byte	0x9
 11629 28ae 7F0A0000 		.4byte	0xa7f
 11630 28b2 85260000 		.4byte	.LLST101
 11631 28b6 7D260000 		.4byte	.LVUS101
 11632 28ba 2A       		.uleb128 0x2a
ARM GAS  /tmp/cchqCFfA.s 			page 208


 11633 28bb 190C0000 		.4byte	.LASF209
 11634 28bf 01       		.byte	0x1
 11635 28c0 BD01     		.2byte	0x1bd
 11636 28c2 09       		.byte	0x9
 11637 28c3 7F0A0000 		.4byte	0xa7f
 11638 28c7 C9260000 		.4byte	.LLST102
 11639 28cb C5260000 		.4byte	.LVUS102
 11640 28cf 2B       		.uleb128 0x2b
 11641 28d0 6900     		.ascii	"i\000"
 11642 28d2 01       		.byte	0x1
 11643 28d3 BF01     		.2byte	0x1bf
 11644 28d5 09       		.byte	0x9
 11645 28d6 7F0A0000 		.4byte	0xa7f
 11646 28da EF260000 		.4byte	.LLST103
 11647 28de ED260000 		.4byte	.LVUS103
 11648 28e2 2C       		.uleb128 0x2c
 11649 28e3 81320000 		.4byte	0x3281
 11650 28e7 16000000 		.4byte	.LBI307
 11651 28eb 01       		.byte	.LVU504
 11652 28ec B0020000 		.4byte	.Ldebug_ranges0+0x2b0
 11653 28f0 01       		.byte	0x1
 11654 28f1 B801     		.2byte	0x1b8
 11655 28f3 10       		.byte	0x10
 11656 28f4 13290000 		.4byte	0x2913
 11657 28f8 2D       		.uleb128 0x2d
 11658 28f9 92320000 		.4byte	0x3292
 11659 28fd 07270000 		.4byte	.LLST104
 11660 2901 03270000 		.4byte	.LVUS104
 11661 2905 2D       		.uleb128 0x2d
 11662 2906 92320000 		.4byte	0x3292
 11663 290a 2C270000 		.4byte	.LLST105
 11664 290e 28270000 		.4byte	.LVUS105
 11665 2912 00       		.byte	0
 11666 2913 2C       		.uleb128 0x2c
 11667 2914 81320000 		.4byte	0x3281
 11668 2918 26000000 		.4byte	.LBI314
 11669 291c 01       		.byte	.LVU509
 11670 291d D8020000 		.4byte	.Ldebug_ranges0+0x2d8
 11671 2921 01       		.byte	0x1
 11672 2922 B901     		.2byte	0x1b9
 11673 2924 10       		.byte	0x10
 11674 2925 44290000 		.4byte	0x2944
 11675 2929 2D       		.uleb128 0x2d
 11676 292a 92320000 		.4byte	0x3292
 11677 292e 51270000 		.4byte	.LLST106
 11678 2932 4D270000 		.4byte	.LVUS106
 11679 2936 2D       		.uleb128 0x2d
 11680 2937 92320000 		.4byte	0x3292
 11681 293b 76270000 		.4byte	.LLST107
 11682 293f 72270000 		.4byte	.LVUS107
 11683 2943 00       		.byte	0
 11684 2944 2C       		.uleb128 0x2c
 11685 2945 81320000 		.4byte	0x3281
 11686 2949 2E000000 		.4byte	.LBI320
 11687 294d 01       		.byte	.LVU514
 11688 294e F8020000 		.4byte	.Ldebug_ranges0+0x2f8
 11689 2952 01       		.byte	0x1
ARM GAS  /tmp/cchqCFfA.s 			page 209


 11690 2953 BA01     		.2byte	0x1ba
 11691 2955 10       		.byte	0x10
 11692 2956 75290000 		.4byte	0x2975
 11693 295a 2D       		.uleb128 0x2d
 11694 295b 92320000 		.4byte	0x3292
 11695 295f 9B270000 		.4byte	.LLST108
 11696 2963 97270000 		.4byte	.LVUS108
 11697 2967 2D       		.uleb128 0x2d
 11698 2968 92320000 		.4byte	0x3292
 11699 296c C0270000 		.4byte	.LLST109
 11700 2970 BC270000 		.4byte	.LVUS109
 11701 2974 00       		.byte	0
 11702 2975 2C       		.uleb128 0x2c
 11703 2976 81320000 		.4byte	0x3281
 11704 297a 36000000 		.4byte	.LBI327
 11705 297e 01       		.byte	.LVU519
 11706 297f 18030000 		.4byte	.Ldebug_ranges0+0x318
 11707 2983 01       		.byte	0x1
 11708 2984 BD01     		.2byte	0x1bd
 11709 2986 12       		.byte	0x12
 11710 2987 A6290000 		.4byte	0x29a6
 11711 298b 2D       		.uleb128 0x2d
 11712 298c 92320000 		.4byte	0x3292
 11713 2990 E5270000 		.4byte	.LLST110
 11714 2994 E1270000 		.4byte	.LVUS110
 11715 2998 2D       		.uleb128 0x2d
 11716 2999 92320000 		.4byte	0x3292
 11717 299d 0A280000 		.4byte	.LLST111
 11718 29a1 06280000 		.4byte	.LVUS111
 11719 29a5 00       		.byte	0
 11720 29a6 2F       		.uleb128 0x2f
 11721 29a7 7A000000 		.4byte	.LVL176
 11722 29ab 82340000 		.4byte	0x3482
 11723 29af 00       		.byte	0
 11724 29b0 28       		.uleb128 0x28
 11725 29b1 69050000 		.4byte	.LASF258
 11726 29b5 01       		.byte	0x1
 11727 29b6 9701     		.2byte	0x197
 11728 29b8 06       		.byte	0x6
 11729 29b9 00000000 		.4byte	.LFB10
 11730 29bd 80000000 		.4byte	.LFE10-.LFB10
 11731 29c1 01       		.uleb128 0x1
 11732 29c2 9C       		.byte	0x9c
 11733 29c3 102B0000 		.4byte	0x2b10
 11734 29c7 29       		.uleb128 0x29
 11735 29c8 766D00   		.ascii	"vm\000"
 11736 29cb 01       		.byte	0x1
 11737 29cc 9701     		.2byte	0x197
 11738 29ce 27       		.byte	0x27
 11739 29cf 6C0B0000 		.4byte	0xb6c
 11740 29d3 2F280000 		.4byte	.LLST84
 11741 29d7 2B280000 		.4byte	.LVUS84
 11742 29db 2A       		.uleb128 0x2a
 11743 29dc B6120000 		.4byte	.LASF214
 11744 29e0 01       		.byte	0x1
 11745 29e1 9A01     		.2byte	0x19a
 11746 29e3 09       		.byte	0x9
ARM GAS  /tmp/cchqCFfA.s 			page 210


 11747 29e4 7F0A0000 		.4byte	0xa7f
 11748 29e8 54280000 		.4byte	.LLST85
 11749 29ec 50280000 		.4byte	.LVUS85
 11750 29f0 2A       		.uleb128 0x2a
 11751 29f1 1E000000 		.4byte	.LASF247
 11752 29f5 01       		.byte	0x1
 11753 29f6 9B01     		.2byte	0x19b
 11754 29f8 09       		.byte	0x9
 11755 29f9 7F0A0000 		.4byte	0xa7f
 11756 29fd 76280000 		.4byte	.LLST86
 11757 2a01 72280000 		.4byte	.LVUS86
 11758 2a05 2A       		.uleb128 0x2a
 11759 2a06 82050000 		.4byte	.LASF248
 11760 2a0a 01       		.byte	0x1
 11761 2a0b 9C01     		.2byte	0x19c
 11762 2a0d 09       		.byte	0x9
 11763 2a0e 7F0A0000 		.4byte	0xa7f
 11764 2a12 9C280000 		.4byte	.LLST87
 11765 2a16 94280000 		.4byte	.LVUS87
 11766 2a1a 2A       		.uleb128 0x2a
 11767 2a1b 190C0000 		.4byte	.LASF209
 11768 2a1f 01       		.byte	0x1
 11769 2a20 9F01     		.2byte	0x19f
 11770 2a22 09       		.byte	0x9
 11771 2a23 7F0A0000 		.4byte	0xa7f
 11772 2a27 E0280000 		.4byte	.LLST88
 11773 2a2b DC280000 		.4byte	.LVUS88
 11774 2a2f 2B       		.uleb128 0x2b
 11775 2a30 6900     		.ascii	"i\000"
 11776 2a32 01       		.byte	0x1
 11777 2a33 A101     		.2byte	0x1a1
 11778 2a35 09       		.byte	0x9
 11779 2a36 7F0A0000 		.4byte	0xa7f
 11780 2a3a 06290000 		.4byte	.LLST89
 11781 2a3e 04290000 		.4byte	.LVUS89
 11782 2a42 2C       		.uleb128 0x2c
 11783 2a43 81320000 		.4byte	0x3281
 11784 2a47 16000000 		.4byte	.LBI283
 11785 2a4b 01       		.byte	.LVU454
 11786 2a4c 30020000 		.4byte	.Ldebug_ranges0+0x230
 11787 2a50 01       		.byte	0x1
 11788 2a51 9A01     		.2byte	0x19a
 11789 2a53 10       		.byte	0x10
 11790 2a54 732A0000 		.4byte	0x2a73
 11791 2a58 2D       		.uleb128 0x2d
 11792 2a59 92320000 		.4byte	0x3292
 11793 2a5d 1E290000 		.4byte	.LLST90
 11794 2a61 1A290000 		.4byte	.LVUS90
 11795 2a65 2D       		.uleb128 0x2d
 11796 2a66 92320000 		.4byte	0x3292
 11797 2a6a 43290000 		.4byte	.LLST91
 11798 2a6e 3F290000 		.4byte	.LVUS91
 11799 2a72 00       		.byte	0
 11800 2a73 2C       		.uleb128 0x2c
 11801 2a74 81320000 		.4byte	0x3281
 11802 2a78 26000000 		.4byte	.LBI290
 11803 2a7c 01       		.byte	.LVU459
ARM GAS  /tmp/cchqCFfA.s 			page 211


 11804 2a7d 58020000 		.4byte	.Ldebug_ranges0+0x258
 11805 2a81 01       		.byte	0x1
 11806 2a82 9B01     		.2byte	0x19b
 11807 2a84 10       		.byte	0x10
 11808 2a85 A42A0000 		.4byte	0x2aa4
 11809 2a89 2D       		.uleb128 0x2d
 11810 2a8a 92320000 		.4byte	0x3292
 11811 2a8e 68290000 		.4byte	.LLST92
 11812 2a92 64290000 		.4byte	.LVUS92
 11813 2a96 2D       		.uleb128 0x2d
 11814 2a97 92320000 		.4byte	0x3292
 11815 2a9b 8D290000 		.4byte	.LLST93
 11816 2a9f 89290000 		.4byte	.LVUS93
 11817 2aa3 00       		.byte	0
 11818 2aa4 2C       		.uleb128 0x2c
 11819 2aa5 81320000 		.4byte	0x3281
 11820 2aa9 2E000000 		.4byte	.LBI296
 11821 2aad 01       		.byte	.LVU464
 11822 2aae 78020000 		.4byte	.Ldebug_ranges0+0x278
 11823 2ab2 01       		.byte	0x1
 11824 2ab3 9C01     		.2byte	0x19c
 11825 2ab5 10       		.byte	0x10
 11826 2ab6 D52A0000 		.4byte	0x2ad5
 11827 2aba 2D       		.uleb128 0x2d
 11828 2abb 92320000 		.4byte	0x3292
 11829 2abf B2290000 		.4byte	.LLST94
 11830 2ac3 AE290000 		.4byte	.LVUS94
 11831 2ac7 2D       		.uleb128 0x2d
 11832 2ac8 92320000 		.4byte	0x3292
 11833 2acc D7290000 		.4byte	.LLST95
 11834 2ad0 D3290000 		.4byte	.LVUS95
 11835 2ad4 00       		.byte	0
 11836 2ad5 2C       		.uleb128 0x2c
 11837 2ad6 81320000 		.4byte	0x3281
 11838 2ada 36000000 		.4byte	.LBI303
 11839 2ade 01       		.byte	.LVU469
 11840 2adf 98020000 		.4byte	.Ldebug_ranges0+0x298
 11841 2ae3 01       		.byte	0x1
 11842 2ae4 9F01     		.2byte	0x19f
 11843 2ae6 12       		.byte	0x12
 11844 2ae7 062B0000 		.4byte	0x2b06
 11845 2aeb 2D       		.uleb128 0x2d
 11846 2aec 92320000 		.4byte	0x3292
 11847 2af0 FC290000 		.4byte	.LLST96
 11848 2af4 F8290000 		.4byte	.LVUS96
 11849 2af8 2D       		.uleb128 0x2d
 11850 2af9 92320000 		.4byte	0x3292
 11851 2afd 212A0000 		.4byte	.LLST97
 11852 2b01 1D2A0000 		.4byte	.LVUS97
 11853 2b05 00       		.byte	0
 11854 2b06 2F       		.uleb128 0x2f
 11855 2b07 7A000000 		.4byte	.LVL160
 11856 2b0b 82340000 		.4byte	0x3482
 11857 2b0f 00       		.byte	0
 11858 2b10 28       		.uleb128 0x28
 11859 2b11 E10E0000 		.4byte	.LASF259
 11860 2b15 01       		.byte	0x1
ARM GAS  /tmp/cchqCFfA.s 			page 212


 11861 2b16 7901     		.2byte	0x179
 11862 2b18 06       		.byte	0x6
 11863 2b19 00000000 		.4byte	.LFB9
 11864 2b1d 7C000000 		.4byte	.LFE9-.LFB9
 11865 2b21 01       		.uleb128 0x1
 11866 2b22 9C       		.byte	0x9c
 11867 2b23 702C0000 		.4byte	0x2c70
 11868 2b27 29       		.uleb128 0x29
 11869 2b28 766D00   		.ascii	"vm\000"
 11870 2b2b 01       		.byte	0x1
 11871 2b2c 7901     		.2byte	0x179
 11872 2b2e 27       		.byte	0x27
 11873 2b2f 6C0B0000 		.4byte	0xb6c
 11874 2b33 462A0000 		.4byte	.LLST70
 11875 2b37 422A0000 		.4byte	.LVUS70
 11876 2b3b 2A       		.uleb128 0x2a
 11877 2b3c B6120000 		.4byte	.LASF214
 11878 2b40 01       		.byte	0x1
 11879 2b41 7C01     		.2byte	0x17c
 11880 2b43 09       		.byte	0x9
 11881 2b44 7F0A0000 		.4byte	0xa7f
 11882 2b48 6B2A0000 		.4byte	.LLST71
 11883 2b4c 672A0000 		.4byte	.LVUS71
 11884 2b50 2A       		.uleb128 0x2a
 11885 2b51 1E000000 		.4byte	.LASF247
 11886 2b55 01       		.byte	0x1
 11887 2b56 7D01     		.2byte	0x17d
 11888 2b58 09       		.byte	0x9
 11889 2b59 7F0A0000 		.4byte	0xa7f
 11890 2b5d 8D2A0000 		.4byte	.LLST72
 11891 2b61 892A0000 		.4byte	.LVUS72
 11892 2b65 2A       		.uleb128 0x2a
 11893 2b66 82050000 		.4byte	.LASF248
 11894 2b6a 01       		.byte	0x1
 11895 2b6b 7E01     		.2byte	0x17e
 11896 2b6d 09       		.byte	0x9
 11897 2b6e 7F0A0000 		.4byte	0xa7f
 11898 2b72 B32A0000 		.4byte	.LLST73
 11899 2b76 AB2A0000 		.4byte	.LVUS73
 11900 2b7a 2A       		.uleb128 0x2a
 11901 2b7b 190C0000 		.4byte	.LASF209
 11902 2b7f 01       		.byte	0x1
 11903 2b80 8101     		.2byte	0x181
 11904 2b82 09       		.byte	0x9
 11905 2b83 7F0A0000 		.4byte	0xa7f
 11906 2b87 F72A0000 		.4byte	.LLST74
 11907 2b8b F32A0000 		.4byte	.LVUS74
 11908 2b8f 2B       		.uleb128 0x2b
 11909 2b90 6900     		.ascii	"i\000"
 11910 2b92 01       		.byte	0x1
 11911 2b93 8301     		.2byte	0x183
 11912 2b95 09       		.byte	0x9
 11913 2b96 7F0A0000 		.4byte	0xa7f
 11914 2b9a 1D2B0000 		.4byte	.LLST75
 11915 2b9e 1B2B0000 		.4byte	.LVUS75
 11916 2ba2 2C       		.uleb128 0x2c
 11917 2ba3 81320000 		.4byte	0x3281
ARM GAS  /tmp/cchqCFfA.s 			page 213


 11918 2ba7 16000000 		.4byte	.LBI259
 11919 2bab 01       		.byte	.LVU404
 11920 2bac B0010000 		.4byte	.Ldebug_ranges0+0x1b0
 11921 2bb0 01       		.byte	0x1
 11922 2bb1 7C01     		.2byte	0x17c
 11923 2bb3 10       		.byte	0x10
 11924 2bb4 D32B0000 		.4byte	0x2bd3
 11925 2bb8 2D       		.uleb128 0x2d
 11926 2bb9 92320000 		.4byte	0x3292
 11927 2bbd 352B0000 		.4byte	.LLST76
 11928 2bc1 312B0000 		.4byte	.LVUS76
 11929 2bc5 2D       		.uleb128 0x2d
 11930 2bc6 92320000 		.4byte	0x3292
 11931 2bca 5A2B0000 		.4byte	.LLST77
 11932 2bce 562B0000 		.4byte	.LVUS77
 11933 2bd2 00       		.byte	0
 11934 2bd3 2C       		.uleb128 0x2c
 11935 2bd4 81320000 		.4byte	0x3281
 11936 2bd8 26000000 		.4byte	.LBI266
 11937 2bdc 01       		.byte	.LVU409
 11938 2bdd D8010000 		.4byte	.Ldebug_ranges0+0x1d8
 11939 2be1 01       		.byte	0x1
 11940 2be2 7D01     		.2byte	0x17d
 11941 2be4 10       		.byte	0x10
 11942 2be5 042C0000 		.4byte	0x2c04
 11943 2be9 2D       		.uleb128 0x2d
 11944 2bea 92320000 		.4byte	0x3292
 11945 2bee 7F2B0000 		.4byte	.LLST78
 11946 2bf2 7B2B0000 		.4byte	.LVUS78
 11947 2bf6 2D       		.uleb128 0x2d
 11948 2bf7 92320000 		.4byte	0x3292
 11949 2bfb A42B0000 		.4byte	.LLST79
 11950 2bff A02B0000 		.4byte	.LVUS79
 11951 2c03 00       		.byte	0
 11952 2c04 2C       		.uleb128 0x2c
 11953 2c05 81320000 		.4byte	0x3281
 11954 2c09 2E000000 		.4byte	.LBI272
 11955 2c0d 01       		.byte	.LVU414
 11956 2c0e F8010000 		.4byte	.Ldebug_ranges0+0x1f8
 11957 2c12 01       		.byte	0x1
 11958 2c13 7E01     		.2byte	0x17e
 11959 2c15 10       		.byte	0x10
 11960 2c16 352C0000 		.4byte	0x2c35
 11961 2c1a 2D       		.uleb128 0x2d
 11962 2c1b 92320000 		.4byte	0x3292
 11963 2c1f C92B0000 		.4byte	.LLST80
 11964 2c23 C52B0000 		.4byte	.LVUS80
 11965 2c27 2D       		.uleb128 0x2d
 11966 2c28 92320000 		.4byte	0x3292
 11967 2c2c EE2B0000 		.4byte	.LLST81
 11968 2c30 EA2B0000 		.4byte	.LVUS81
 11969 2c34 00       		.byte	0
 11970 2c35 2C       		.uleb128 0x2c
 11971 2c36 81320000 		.4byte	0x3281
 11972 2c3a 36000000 		.4byte	.LBI279
 11973 2c3e 01       		.byte	.LVU419
 11974 2c3f 18020000 		.4byte	.Ldebug_ranges0+0x218
ARM GAS  /tmp/cchqCFfA.s 			page 214


 11975 2c43 01       		.byte	0x1
 11976 2c44 8101     		.2byte	0x181
 11977 2c46 12       		.byte	0x12
 11978 2c47 662C0000 		.4byte	0x2c66
 11979 2c4b 2D       		.uleb128 0x2d
 11980 2c4c 92320000 		.4byte	0x3292
 11981 2c50 132C0000 		.4byte	.LLST82
 11982 2c54 0F2C0000 		.4byte	.LVUS82
 11983 2c58 2D       		.uleb128 0x2d
 11984 2c59 92320000 		.4byte	0x3292
 11985 2c5d 382C0000 		.4byte	.LLST83
 11986 2c61 342C0000 		.4byte	.LVUS83
 11987 2c65 00       		.byte	0
 11988 2c66 2F       		.uleb128 0x2f
 11989 2c67 78000000 		.4byte	.LVL144
 11990 2c6b 82340000 		.4byte	0x3482
 11991 2c6f 00       		.byte	0
 11992 2c70 28       		.uleb128 0x28
 11993 2c71 04080000 		.4byte	.LASF260
 11994 2c75 01       		.byte	0x1
 11995 2c76 5A01     		.2byte	0x15a
 11996 2c78 06       		.byte	0x6
 11997 2c79 00000000 		.4byte	.LFB8
 11998 2c7d 7C000000 		.4byte	.LFE8-.LFB8
 11999 2c81 01       		.uleb128 0x1
 12000 2c82 9C       		.byte	0x9c
 12001 2c83 E52D0000 		.4byte	0x2de5
 12002 2c87 29       		.uleb128 0x29
 12003 2c88 766D00   		.ascii	"vm\000"
 12004 2c8b 01       		.byte	0x1
 12005 2c8c 5A01     		.2byte	0x15a
 12006 2c8e 2D       		.byte	0x2d
 12007 2c8f 6C0B0000 		.4byte	0xb6c
 12008 2c93 5D2C0000 		.4byte	.LLST55
 12009 2c97 592C0000 		.4byte	.LVUS55
 12010 2c9b 2A       		.uleb128 0x2a
 12011 2c9c B6120000 		.4byte	.LASF214
 12012 2ca0 01       		.byte	0x1
 12013 2ca1 5D01     		.2byte	0x15d
 12014 2ca3 09       		.byte	0x9
 12015 2ca4 7F0A0000 		.4byte	0xa7f
 12016 2ca8 802C0000 		.4byte	.LLST56
 12017 2cac 7E2C0000 		.4byte	.LVUS56
 12018 2cb0 2B       		.uleb128 0x2b
 12019 2cb1 73726300 		.ascii	"src\000"
 12020 2cb5 01       		.byte	0x1
 12021 2cb6 5E01     		.2byte	0x15e
 12022 2cb8 09       		.byte	0x9
 12023 2cb9 7F0A0000 		.4byte	0xa7f
 12024 2cbd 972C0000 		.4byte	.LLST57
 12025 2cc1 932C0000 		.4byte	.LVUS57
 12026 2cc5 2A       		.uleb128 0x2a
 12027 2cc6 79120000 		.4byte	.LASF261
 12028 2cca 01       		.byte	0x1
 12029 2ccb 5F01     		.2byte	0x15f
 12030 2ccd 09       		.byte	0x9
 12031 2cce 7F0A0000 		.4byte	0xa7f
ARM GAS  /tmp/cchqCFfA.s 			page 215


 12032 2cd2 B72C0000 		.4byte	.LLST58
 12033 2cd6 B52C0000 		.4byte	.LVUS58
 12034 2cda 2A       		.uleb128 0x2a
 12035 2cdb 190C0000 		.4byte	.LASF209
 12036 2cdf 01       		.byte	0x1
 12037 2ce0 6201     		.2byte	0x162
 12038 2ce2 09       		.byte	0x9
 12039 2ce3 7F0A0000 		.4byte	0xa7f
 12040 2ce7 CE2C0000 		.4byte	.LLST59
 12041 2ceb CA2C0000 		.4byte	.LVUS59
 12042 2cef 2A       		.uleb128 0x2a
 12043 2cf0 BA020000 		.4byte	.LASF262
 12044 2cf4 01       		.byte	0x1
 12045 2cf5 6401     		.2byte	0x164
 12046 2cf7 0F       		.byte	0xf
 12047 2cf8 7A0A0000 		.4byte	0xa7a
 12048 2cfc F82C0000 		.4byte	.LLST60
 12049 2d00 F62C0000 		.4byte	.LVUS60
 12050 2d04 2B       		.uleb128 0x2b
 12051 2d05 6900     		.ascii	"i\000"
 12052 2d07 01       		.byte	0x1
 12053 2d08 6501     		.2byte	0x165
 12054 2d0a 09       		.byte	0x9
 12055 2d0b 7F0A0000 		.4byte	0xa7f
 12056 2d0f 0D2D0000 		.4byte	.LLST61
 12057 2d13 0B2D0000 		.4byte	.LVUS61
 12058 2d17 2C       		.uleb128 0x2c
 12059 2d18 81320000 		.4byte	0x3281
 12060 2d1c 18000000 		.4byte	.LBI235
 12061 2d20 01       		.byte	.LVU352
 12062 2d21 30010000 		.4byte	.Ldebug_ranges0+0x130
 12063 2d25 01       		.byte	0x1
 12064 2d26 5D01     		.2byte	0x15d
 12065 2d28 10       		.byte	0x10
 12066 2d29 482D0000 		.4byte	0x2d48
 12067 2d2d 2D       		.uleb128 0x2d
 12068 2d2e 92320000 		.4byte	0x3292
 12069 2d32 252D0000 		.4byte	.LLST62
 12070 2d36 212D0000 		.4byte	.LVUS62
 12071 2d3a 2D       		.uleb128 0x2d
 12072 2d3b 92320000 		.4byte	0x3292
 12073 2d3f 4A2D0000 		.4byte	.LLST63
 12074 2d43 462D0000 		.4byte	.LVUS63
 12075 2d47 00       		.byte	0
 12076 2d48 2C       		.uleb128 0x2c
 12077 2d49 81320000 		.4byte	0x3281
 12078 2d4d 28000000 		.4byte	.LBI242
 12079 2d51 01       		.byte	.LVU357
 12080 2d52 58010000 		.4byte	.Ldebug_ranges0+0x158
 12081 2d56 01       		.byte	0x1
 12082 2d57 5E01     		.2byte	0x15e
 12083 2d59 0F       		.byte	0xf
 12084 2d5a 792D0000 		.4byte	0x2d79
 12085 2d5e 2D       		.uleb128 0x2d
 12086 2d5f 92320000 		.4byte	0x3292
 12087 2d63 6F2D0000 		.4byte	.LLST64
 12088 2d67 6B2D0000 		.4byte	.LVUS64
ARM GAS  /tmp/cchqCFfA.s 			page 216


 12089 2d6b 2D       		.uleb128 0x2d
 12090 2d6c 92320000 		.4byte	0x3292
 12091 2d70 942D0000 		.4byte	.LLST65
 12092 2d74 902D0000 		.4byte	.LVUS65
 12093 2d78 00       		.byte	0
 12094 2d79 2C       		.uleb128 0x2c
 12095 2d7a 81320000 		.4byte	0x3281
 12096 2d7e 30000000 		.4byte	.LBI248
 12097 2d82 01       		.byte	.LVU362
 12098 2d83 78010000 		.4byte	.Ldebug_ranges0+0x178
 12099 2d87 01       		.byte	0x1
 12100 2d88 5F01     		.2byte	0x15f
 12101 2d8a 12       		.byte	0x12
 12102 2d8b AA2D0000 		.4byte	0x2daa
 12103 2d8f 2D       		.uleb128 0x2d
 12104 2d90 92320000 		.4byte	0x3292
 12105 2d94 B92D0000 		.4byte	.LLST66
 12106 2d98 B52D0000 		.4byte	.LVUS66
 12107 2d9c 2D       		.uleb128 0x2d
 12108 2d9d 92320000 		.4byte	0x3292
 12109 2da1 DE2D0000 		.4byte	.LLST67
 12110 2da5 DA2D0000 		.4byte	.LVUS67
 12111 2da9 00       		.byte	0
 12112 2daa 2C       		.uleb128 0x2c
 12113 2dab 81320000 		.4byte	0x3281
 12114 2daf 38000000 		.4byte	.LBI255
 12115 2db3 01       		.byte	.LVU367
 12116 2db4 98010000 		.4byte	.Ldebug_ranges0+0x198
 12117 2db8 01       		.byte	0x1
 12118 2db9 6201     		.2byte	0x162
 12119 2dbb 12       		.byte	0x12
 12120 2dbc DB2D0000 		.4byte	0x2ddb
 12121 2dc0 2D       		.uleb128 0x2d
 12122 2dc1 92320000 		.4byte	0x3292
 12123 2dc5 032E0000 		.4byte	.LLST68
 12124 2dc9 FF2D0000 		.4byte	.LVUS68
 12125 2dcd 2D       		.uleb128 0x2d
 12126 2dce 92320000 		.4byte	0x3292
 12127 2dd2 282E0000 		.4byte	.LLST69
 12128 2dd6 242E0000 		.4byte	.LVUS69
 12129 2dda 00       		.byte	0
 12130 2ddb 2F       		.uleb128 0x2f
 12131 2ddc 78000000 		.4byte	.LVL128
 12132 2de0 82340000 		.4byte	0x3482
 12133 2de4 00       		.byte	0
 12134 2de5 28       		.uleb128 0x28
 12135 2de6 A40D0000 		.4byte	.LASF263
 12136 2dea 01       		.byte	0x1
 12137 2deb 3D01     		.2byte	0x13d
 12138 2ded 06       		.byte	0x6
 12139 2dee 00000000 		.4byte	.LFB7
 12140 2df2 60000000 		.4byte	.LFE7-.LFB7
 12141 2df6 01       		.uleb128 0x1
 12142 2df7 9C       		.byte	0x9c
 12143 2df8 FF2E0000 		.4byte	0x2eff
 12144 2dfc 29       		.uleb128 0x29
 12145 2dfd 766D00   		.ascii	"vm\000"
ARM GAS  /tmp/cchqCFfA.s 			page 217


 12146 2e00 01       		.byte	0x1
 12147 2e01 3D01     		.2byte	0x13d
 12148 2e03 28       		.byte	0x28
 12149 2e04 6C0B0000 		.4byte	0xb6c
 12150 2e08 4D2E0000 		.4byte	.LLST44
 12151 2e0c 492E0000 		.4byte	.LVUS44
 12152 2e10 2A       		.uleb128 0x2a
 12153 2e11 B6120000 		.4byte	.LASF214
 12154 2e15 01       		.byte	0x1
 12155 2e16 4001     		.2byte	0x140
 12156 2e18 09       		.byte	0x9
 12157 2e19 7F0A0000 		.4byte	0xa7f
 12158 2e1d 702E0000 		.4byte	.LLST45
 12159 2e21 6E2E0000 		.4byte	.LVUS45
 12160 2e25 2A       		.uleb128 0x2a
 12161 2e26 58050000 		.4byte	.LASF264
 12162 2e2a 01       		.byte	0x1
 12163 2e2b 4101     		.2byte	0x141
 12164 2e2d 09       		.byte	0x9
 12165 2e2e 7F0A0000 		.4byte	0xa7f
 12166 2e32 852E0000 		.4byte	.LLST46
 12167 2e36 832E0000 		.4byte	.LVUS46
 12168 2e3a 2A       		.uleb128 0x2a
 12169 2e3b 190C0000 		.4byte	.LASF209
 12170 2e3f 01       		.byte	0x1
 12171 2e40 4401     		.2byte	0x144
 12172 2e42 09       		.byte	0x9
 12173 2e43 7F0A0000 		.4byte	0xa7f
 12174 2e47 9C2E0000 		.4byte	.LLST47
 12175 2e4b 982E0000 		.4byte	.LVUS47
 12176 2e4f 2B       		.uleb128 0x2b
 12177 2e50 6900     		.ascii	"i\000"
 12178 2e52 01       		.byte	0x1
 12179 2e53 4601     		.2byte	0x146
 12180 2e55 09       		.byte	0x9
 12181 2e56 7F0A0000 		.4byte	0xa7f
 12182 2e5a C32E0000 		.4byte	.LLST48
 12183 2e5e C12E0000 		.4byte	.LVUS48
 12184 2e62 2C       		.uleb128 0x2c
 12185 2e63 81320000 		.4byte	0x3281
 12186 2e67 10000000 		.4byte	.LBI221
 12187 2e6b 01       		.byte	.LVU309
 12188 2e6c E0000000 		.4byte	.Ldebug_ranges0+0xe0
 12189 2e70 01       		.byte	0x1
 12190 2e71 4001     		.2byte	0x140
 12191 2e73 10       		.byte	0x10
 12192 2e74 932E0000 		.4byte	0x2e93
 12193 2e78 2D       		.uleb128 0x2d
 12194 2e79 92320000 		.4byte	0x3292
 12195 2e7d DB2E0000 		.4byte	.LLST49
 12196 2e81 D72E0000 		.4byte	.LVUS49
 12197 2e85 2D       		.uleb128 0x2d
 12198 2e86 92320000 		.4byte	0x3292
 12199 2e8a 002F0000 		.4byte	.LLST50
 12200 2e8e FC2E0000 		.4byte	.LVUS50
 12201 2e92 00       		.byte	0
 12202 2e93 2C       		.uleb128 0x2c
ARM GAS  /tmp/cchqCFfA.s 			page 218


 12203 2e94 81320000 		.4byte	0x3281
 12204 2e98 24000000 		.4byte	.LBI224
 12205 2e9c 01       		.byte	.LVU315
 12206 2e9d F8000000 		.4byte	.Ldebug_ranges0+0xf8
 12207 2ea1 01       		.byte	0x1
 12208 2ea2 4101     		.2byte	0x141
 12209 2ea4 11       		.byte	0x11
 12210 2ea5 C42E0000 		.4byte	0x2ec4
 12211 2ea9 2D       		.uleb128 0x2d
 12212 2eaa 92320000 		.4byte	0x3292
 12213 2eae 252F0000 		.4byte	.LLST51
 12214 2eb2 212F0000 		.4byte	.LVUS51
 12215 2eb6 2D       		.uleb128 0x2d
 12216 2eb7 92320000 		.4byte	0x3292
 12217 2ebb 4A2F0000 		.4byte	.LLST52
 12218 2ebf 462F0000 		.4byte	.LVUS52
 12219 2ec3 00       		.byte	0
 12220 2ec4 2C       		.uleb128 0x2c
 12221 2ec5 81320000 		.4byte	0x3281
 12222 2ec9 2C000000 		.4byte	.LBI231
 12223 2ecd 01       		.byte	.LVU320
 12224 2ece 18010000 		.4byte	.Ldebug_ranges0+0x118
 12225 2ed2 01       		.byte	0x1
 12226 2ed3 4401     		.2byte	0x144
 12227 2ed5 12       		.byte	0x12
 12228 2ed6 F52E0000 		.4byte	0x2ef5
 12229 2eda 2D       		.uleb128 0x2d
 12230 2edb 92320000 		.4byte	0x3292
 12231 2edf 6F2F0000 		.4byte	.LLST53
 12232 2ee3 6B2F0000 		.4byte	.LVUS53
 12233 2ee7 2D       		.uleb128 0x2d
 12234 2ee8 92320000 		.4byte	0x3292
 12235 2eec 942F0000 		.4byte	.LLST54
 12236 2ef0 902F0000 		.4byte	.LVUS54
 12237 2ef4 00       		.byte	0
 12238 2ef5 2F       		.uleb128 0x2f
 12239 2ef6 5C000000 		.4byte	.LVL113
 12240 2efa 82340000 		.4byte	0x3482
 12241 2efe 00       		.byte	0
 12242 2eff 28       		.uleb128 0x28
 12243 2f00 E70B0000 		.4byte	.LASF265
 12244 2f04 01       		.byte	0x1
 12245 2f05 2001     		.2byte	0x120
 12246 2f07 06       		.byte	0x6
 12247 2f08 00000000 		.4byte	.LFB6
 12248 2f0c 68000000 		.4byte	.LFE6-.LFB6
 12249 2f10 01       		.uleb128 0x1
 12250 2f11 9C       		.byte	0x9c
 12251 2f12 19300000 		.4byte	0x3019
 12252 2f16 29       		.uleb128 0x29
 12253 2f17 766D00   		.ascii	"vm\000"
 12254 2f1a 01       		.byte	0x1
 12255 2f1b 2001     		.2byte	0x120
 12256 2f1d 28       		.byte	0x28
 12257 2f1e 6C0B0000 		.4byte	0xb6c
 12258 2f22 B92F0000 		.4byte	.LLST33
 12259 2f26 B52F0000 		.4byte	.LVUS33
ARM GAS  /tmp/cchqCFfA.s 			page 219


 12260 2f2a 2A       		.uleb128 0x2a
 12261 2f2b B6120000 		.4byte	.LASF214
 12262 2f2f 01       		.byte	0x1
 12263 2f30 2301     		.2byte	0x123
 12264 2f32 09       		.byte	0x9
 12265 2f33 7F0A0000 		.4byte	0xa7f
 12266 2f37 DE2F0000 		.4byte	.LLST34
 12267 2f3b DA2F0000 		.4byte	.LVUS34
 12268 2f3f 2B       		.uleb128 0x2b
 12269 2f40 73726300 		.ascii	"src\000"
 12270 2f44 01       		.byte	0x1
 12271 2f45 2401     		.2byte	0x124
 12272 2f47 09       		.byte	0x9
 12273 2f48 7F0A0000 		.4byte	0xa7f
 12274 2f4c 00300000 		.4byte	.LLST35
 12275 2f50 FC2F0000 		.4byte	.LVUS35
 12276 2f54 2A       		.uleb128 0x2a
 12277 2f55 190C0000 		.4byte	.LASF209
 12278 2f59 01       		.byte	0x1
 12279 2f5a 2701     		.2byte	0x127
 12280 2f5c 09       		.byte	0x9
 12281 2f5d 7F0A0000 		.4byte	0xa7f
 12282 2f61 22300000 		.4byte	.LLST36
 12283 2f65 1E300000 		.4byte	.LVUS36
 12284 2f69 2B       		.uleb128 0x2b
 12285 2f6a 6900     		.ascii	"i\000"
 12286 2f6c 01       		.byte	0x1
 12287 2f6d 2901     		.2byte	0x129
 12288 2f6f 09       		.byte	0x9
 12289 2f70 7F0A0000 		.4byte	0xa7f
 12290 2f74 49300000 		.4byte	.LLST37
 12291 2f78 47300000 		.4byte	.LVUS37
 12292 2f7c 2C       		.uleb128 0x2c
 12293 2f7d 81320000 		.4byte	0x3281
 12294 2f81 14000000 		.4byte	.LBI205
 12295 2f85 01       		.byte	.LVU272
 12296 2f86 88000000 		.4byte	.Ldebug_ranges0+0x88
 12297 2f8a 01       		.byte	0x1
 12298 2f8b 2301     		.2byte	0x123
 12299 2f8d 10       		.byte	0x10
 12300 2f8e AD2F0000 		.4byte	0x2fad
 12301 2f92 2D       		.uleb128 0x2d
 12302 2f93 92320000 		.4byte	0x3292
 12303 2f97 61300000 		.4byte	.LLST38
 12304 2f9b 5D300000 		.4byte	.LVUS38
 12305 2f9f 2D       		.uleb128 0x2d
 12306 2fa0 92320000 		.4byte	0x3292
 12307 2fa4 86300000 		.4byte	.LLST39
 12308 2fa8 82300000 		.4byte	.LVUS39
 12309 2fac 00       		.byte	0
 12310 2fad 2C       		.uleb128 0x2c
 12311 2fae 81320000 		.4byte	0x3281
 12312 2fb2 24000000 		.4byte	.LBI210
 12313 2fb6 01       		.byte	.LVU277
 12314 2fb7 A8000000 		.4byte	.Ldebug_ranges0+0xa8
 12315 2fbb 01       		.byte	0x1
 12316 2fbc 2401     		.2byte	0x124
ARM GAS  /tmp/cchqCFfA.s 			page 220


 12317 2fbe 0F       		.byte	0xf
 12318 2fbf DE2F0000 		.4byte	0x2fde
 12319 2fc3 2D       		.uleb128 0x2d
 12320 2fc4 92320000 		.4byte	0x3292
 12321 2fc8 AB300000 		.4byte	.LLST40
 12322 2fcc A7300000 		.4byte	.LVUS40
 12323 2fd0 2D       		.uleb128 0x2d
 12324 2fd1 92320000 		.4byte	0x3292
 12325 2fd5 D0300000 		.4byte	.LLST41
 12326 2fd9 CC300000 		.4byte	.LVUS41
 12327 2fdd 00       		.byte	0
 12328 2fde 2C       		.uleb128 0x2c
 12329 2fdf 81320000 		.4byte	0x3281
 12330 2fe3 2C000000 		.4byte	.LBI217
 12331 2fe7 01       		.byte	.LVU282
 12332 2fe8 C8000000 		.4byte	.Ldebug_ranges0+0xc8
 12333 2fec 01       		.byte	0x1
 12334 2fed 2701     		.2byte	0x127
 12335 2fef 12       		.byte	0x12
 12336 2ff0 0F300000 		.4byte	0x300f
 12337 2ff4 2D       		.uleb128 0x2d
 12338 2ff5 92320000 		.4byte	0x3292
 12339 2ff9 F5300000 		.4byte	.LLST42
 12340 2ffd F1300000 		.4byte	.LVUS42
 12341 3001 2D       		.uleb128 0x2d
 12342 3002 92320000 		.4byte	0x3292
 12343 3006 1A310000 		.4byte	.LLST43
 12344 300a 16310000 		.4byte	.LVUS43
 12345 300e 00       		.byte	0
 12346 300f 2F       		.uleb128 0x2f
 12347 3010 62000000 		.4byte	.LVL103
 12348 3014 82340000 		.4byte	0x3482
 12349 3018 00       		.byte	0
 12350 3019 41       		.uleb128 0x41
 12351 301a B80F0000 		.4byte	.LASF266
 12352 301e 01       		.byte	0x1
 12353 301f FD       		.byte	0xfd
 12354 3020 06       		.byte	0x6
 12355 3021 00000000 		.4byte	.LFB5
 12356 3025 94000000 		.4byte	.LFE5-.LFB5
 12357 3029 01       		.uleb128 0x1
 12358 302a 9C       		.byte	0x9c
 12359 302b C0300000 		.4byte	0x30c0
 12360 302f 42       		.uleb128 0x42
 12361 3030 23000000 		.4byte	.LASF267
 12362 3034 01       		.byte	0x1
 12363 3035 FD       		.byte	0xfd
 12364 3036 1E       		.byte	0x1e
 12365 3037 4A0B0000 		.4byte	0xb4a
 12366 303b 3F310000 		.4byte	.LLST27
 12367 303f 3B310000 		.4byte	.LVUS27
 12368 3043 42       		.uleb128 0x42
 12369 3044 D1090000 		.4byte	.LASF178
 12370 3048 01       		.byte	0x1
 12371 3049 FD       		.byte	0xfd
 12372 304a 2C       		.byte	0x2c
 12373 304b 7F0A0000 		.4byte	0xa7f
ARM GAS  /tmp/cchqCFfA.s 			page 221


 12374 304f 64310000 		.4byte	.LLST28
 12375 3053 60310000 		.4byte	.LVUS28
 12376 3057 43       		.uleb128 0x43
 12377 3058 67617000 		.ascii	"gap\000"
 12378 305c 01       		.byte	0x1
 12379 305d FF       		.byte	0xff
 12380 305e 09       		.byte	0x9
 12381 305f 7F0A0000 		.4byte	0xa7f
 12382 3063 8F310000 		.4byte	.LLST29
 12383 3067 85310000 		.4byte	.LVUS29
 12384 306b 2A       		.uleb128 0x2a
 12385 306c 950B0000 		.4byte	.LASF268
 12386 3070 01       		.byte	0x1
 12387 3071 0001     		.2byte	0x100
 12388 3073 09       		.byte	0x9
 12389 3074 7F0A0000 		.4byte	0xa7f
 12390 3078 DC310000 		.4byte	.LLST30
 12391 307c CE310000 		.4byte	.LVUS30
 12392 3080 2B       		.uleb128 0x2b
 12393 3081 6900     		.ascii	"i\000"
 12394 3083 01       		.byte	0x1
 12395 3084 0101     		.2byte	0x101
 12396 3086 09       		.byte	0x9
 12397 3087 7F0A0000 		.4byte	0xa7f
 12398 308b 40320000 		.4byte	.LLST31
 12399 308f 36320000 		.4byte	.LVUS31
 12400 3093 34       		.uleb128 0x34
 12401 3094 48000000 		.4byte	.LBB204
 12402 3098 0C000000 		.4byte	.LBE204-.LBB204
 12403 309c B6300000 		.4byte	0x30b6
 12404 30a0 2A       		.uleb128 0x2a
 12405 30a1 59080000 		.4byte	.LASF269
 12406 30a5 01       		.byte	0x1
 12407 30a6 1401     		.2byte	0x114
 12408 30a8 0C       		.byte	0xc
 12409 30a9 6E0A0000 		.4byte	0xa6e
 12410 30ad 84320000 		.4byte	.LLST32
 12411 30b1 82320000 		.4byte	.LVUS32
 12412 30b5 00       		.byte	0
 12413 30b6 2F       		.uleb128 0x2f
 12414 30b7 8A000000 		.4byte	.LVL91
 12415 30bb 82340000 		.4byte	0x3482
 12416 30bf 00       		.byte	0
 12417 30c0 44       		.uleb128 0x44
 12418 30c1 0E0C0000 		.4byte	.LASF270
 12419 30c5 01       		.byte	0x1
 12420 30c6 E3       		.byte	0xe3
 12421 30c7 08       		.byte	0x8
 12422 30c8 6E0A0000 		.4byte	0xa6e
 12423 30cc 01       		.byte	0x1
 12424 30cd 01310000 		.4byte	0x3101
 12425 30d1 45       		.uleb128 0x45
 12426 30d2 6E756D00 		.ascii	"num\000"
 12427 30d6 01       		.byte	0x1
 12428 30d7 E3       		.byte	0xe3
 12429 30d8 1A       		.byte	0x1a
 12430 30d9 6E0A0000 		.4byte	0xa6e
ARM GAS  /tmp/cchqCFfA.s 			page 222


 12431 30dd 46       		.uleb128 0x46
 12432 30de 6F7000   		.ascii	"op\000"
 12433 30e1 01       		.byte	0x1
 12434 30e2 E5       		.byte	0xe5
 12435 30e3 09       		.byte	0x9
 12436 30e4 6E0A0000 		.4byte	0xa6e
 12437 30e8 46       		.uleb128 0x46
 12438 30e9 72657300 		.ascii	"res\000"
 12439 30ed 01       		.byte	0x1
 12440 30ee E6       		.byte	0xe6
 12441 30ef 09       		.byte	0x9
 12442 30f0 6E0A0000 		.4byte	0xa6e
 12443 30f4 46       		.uleb128 0x46
 12444 30f5 6F6E6500 		.ascii	"one\000"
 12445 30f9 01       		.byte	0x1
 12446 30fa E7       		.byte	0xe7
 12447 30fb 09       		.byte	0x9
 12448 30fc 6E0A0000 		.4byte	0xa6e
 12449 3100 00       		.byte	0
 12450 3101 44       		.uleb128 0x44
 12451 3102 17060000 		.4byte	.LASF271
 12452 3106 01       		.byte	0x1
 12453 3107 DD       		.byte	0xdd
 12454 3108 08       		.byte	0x8
 12455 3109 6E0A0000 		.4byte	0xa6e
 12456 310d 01       		.byte	0x1
 12457 310e 1F310000 		.4byte	0x311f
 12458 3112 47       		.uleb128 0x47
 12459 3113 540B0000 		.4byte	.LASF272
 12460 3117 01       		.byte	0x1
 12461 3118 DD       		.byte	0xdd
 12462 3119 19       		.byte	0x19
 12463 311a 6E0A0000 		.4byte	0xa6e
 12464 311e 00       		.byte	0
 12465 311f 48       		.uleb128 0x48
 12466 3120 44080000 		.4byte	.LASF289
 12467 3124 01       		.byte	0x1
 12468 3125 B4       		.byte	0xb4
 12469 3126 08       		.byte	0x8
 12470 3127 6E0A0000 		.4byte	0xa6e
 12471 312b 00000000 		.4byte	.LFB2
 12472 312f A8000000 		.4byte	.LFE2-.LFB2
 12473 3133 01       		.uleb128 0x1
 12474 3134 9C       		.byte	0x9c
 12475 3135 C5310000 		.4byte	0x31c5
 12476 3139 42       		.uleb128 0x42
 12477 313a 540B0000 		.4byte	.LASF272
 12478 313e 01       		.byte	0x1
 12479 313f B4       		.byte	0xb4
 12480 3140 19       		.byte	0x19
 12481 3141 6E0A0000 		.4byte	0xa6e
 12482 3145 9B320000 		.4byte	.LLST16
 12483 3149 97320000 		.4byte	.LVUS16
 12484 314d 49       		.uleb128 0x49
 12485 314e 82010000 		.4byte	.LASF217
 12486 3152 01       		.byte	0x1
 12487 3153 B6       		.byte	0xb6
ARM GAS  /tmp/cchqCFfA.s 			page 223


 12488 3154 09       		.byte	0x9
 12489 3155 6E0A0000 		.4byte	0xa6e
 12490 3159 C0320000 		.4byte	.LLST17
 12491 315d BC320000 		.4byte	.LVUS17
 12492 3161 49       		.uleb128 0x49
 12493 3162 B6040000 		.4byte	.LASF273
 12494 3166 01       		.byte	0x1
 12495 3167 B7       		.byte	0xb7
 12496 3168 09       		.byte	0x9
 12497 3169 6E0A0000 		.4byte	0xa6e
 12498 316d EA320000 		.4byte	.LLST18
 12499 3171 E6320000 		.4byte	.LVUS18
 12500 3175 49       		.uleb128 0x49
 12501 3176 1D080000 		.4byte	.LASF274
 12502 317a 01       		.byte	0x1
 12503 317b B8       		.byte	0xb8
 12504 317c 09       		.byte	0x9
 12505 317d 6E0A0000 		.4byte	0xa6e
 12506 3181 0C330000 		.4byte	.LLST19
 12507 3185 08330000 		.4byte	.LVUS19
 12508 3189 49       		.uleb128 0x49
 12509 318a 890B0000 		.4byte	.LASF275
 12510 318e 01       		.byte	0x1
 12511 318f B9       		.byte	0xb9
 12512 3190 09       		.byte	0x9
 12513 3191 6E0A0000 		.4byte	0xa6e
 12514 3195 34330000 		.4byte	.LLST20
 12515 3199 2C330000 		.4byte	.LVUS20
 12516 319d 36       		.uleb128 0x36
 12517 319e 60000000 		.4byte	.Ldebug_ranges0+0x60
 12518 31a2 BB310000 		.4byte	0x31bb
 12519 31a6 49       		.uleb128 0x49
 12520 31a7 FA030000 		.4byte	.LASF276
 12521 31ab 01       		.byte	0x1
 12522 31ac D3       		.byte	0xd3
 12523 31ad 0A       		.byte	0xa
 12524 31ae 6E0A0000 		.4byte	0xa6e
 12525 31b2 70330000 		.4byte	.LLST21
 12526 31b6 68330000 		.4byte	.LVUS21
 12527 31ba 00       		.byte	0
 12528 31bb 2F       		.uleb128 0x2f
 12529 31bc 9C000000 		.4byte	.LVL48
 12530 31c0 82340000 		.4byte	0x3482
 12531 31c4 00       		.byte	0
 12532 31c5 44       		.uleb128 0x44
 12533 31c6 87050000 		.4byte	.LASF277
 12534 31ca 01       		.byte	0x1
 12535 31cb 45       		.byte	0x45
 12536 31cc 08       		.byte	0x8
 12537 31cd 6E0A0000 		.4byte	0xa6e
 12538 31d1 01       		.byte	0x1
 12539 31d2 81320000 		.4byte	0x3281
 12540 31d6 45       		.uleb128 0x45
 12541 31d7 7900     		.ascii	"y\000"
 12542 31d9 01       		.byte	0x1
 12543 31da 45       		.byte	0x45
 12544 31db 1B       		.byte	0x1b
ARM GAS  /tmp/cchqCFfA.s 			page 224


 12545 31dc 6E0A0000 		.4byte	0xa6e
 12546 31e0 45       		.uleb128 0x45
 12547 31e1 7800     		.ascii	"x\000"
 12548 31e3 01       		.byte	0x1
 12549 31e4 45       		.byte	0x45
 12550 31e5 25       		.byte	0x25
 12551 31e6 6E0A0000 		.4byte	0xa6e
 12552 31ea 4A       		.uleb128 0x4a
 12553 31eb 46       		.uleb128 0x46
 12554 31ec 72657300 		.ascii	"res\000"
 12555 31f0 01       		.byte	0x1
 12556 31f1 50       		.byte	0x50
 12557 31f2 0A       		.byte	0xa
 12558 31f3 6E0A0000 		.4byte	0xa6e
 12559 31f7 46       		.uleb128 0x46
 12560 31f8 617800   		.ascii	"ax\000"
 12561 31fb 01       		.byte	0x1
 12562 31fc 51       		.byte	0x51
 12563 31fd 0A       		.byte	0xa
 12564 31fe 6E0A0000 		.4byte	0xa6e
 12565 3202 46       		.uleb128 0x46
 12566 3203 617900   		.ascii	"ay\000"
 12567 3206 01       		.byte	0x1
 12568 3207 52       		.byte	0x52
 12569 3208 0A       		.byte	0xa
 12570 3209 6E0A0000 		.4byte	0xa6e
 12571 320d 4A       		.uleb128 0x4a
 12572 320e 4B       		.uleb128 0x4b
 12573 320f 58050000 		.4byte	.LASF264
 12574 3213 01       		.byte	0x1
 12575 3214 80       		.byte	0x80
 12576 3215 0B       		.byte	0xb
 12577 3216 560A0000 		.4byte	0xa56
 12578 321a 46       		.uleb128 0x46
 12579 321b 66623100 		.ascii	"fb1\000"
 12580 321f 01       		.byte	0x1
 12581 3220 81       		.byte	0x81
 12582 3221 0B       		.byte	0xb
 12583 3222 6E0A0000 		.4byte	0xa6e
 12584 3226 4B       		.uleb128 0x4b
 12585 3227 520F0000 		.4byte	.LASF278
 12586 322b 01       		.byte	0x1
 12587 322c 83       		.byte	0x83
 12588 322d 0B       		.byte	0xb
 12589 322e 6E0A0000 		.4byte	0xa6e
 12590 3232 4A       		.uleb128 0x4a
 12591 3233 4B       		.uleb128 0x4b
 12592 3234 82010000 		.4byte	.LASF217
 12593 3238 01       		.byte	0x1
 12594 3239 8A       		.byte	0x8a
 12595 323a 0C       		.byte	0xc
 12596 323b 6E0A0000 		.4byte	0xa6e
 12597 323f 4A       		.uleb128 0x4a
 12598 3240 4B       		.uleb128 0x4b
 12599 3241 5D030000 		.4byte	.LASF279
 12600 3245 01       		.byte	0x1
 12601 3246 92       		.byte	0x92
ARM GAS  /tmp/cchqCFfA.s 			page 225


 12602 3247 0D       		.byte	0xd
 12603 3248 560A0000 		.4byte	0xa56
 12604 324c 4B       		.uleb128 0x4b
 12605 324d 63060000 		.4byte	.LASF280
 12606 3251 01       		.byte	0x1
 12607 3252 93       		.byte	0x93
 12608 3253 0D       		.byte	0xd
 12609 3254 6E0A0000 		.4byte	0xa6e
 12610 3258 4B       		.uleb128 0x4b
 12611 3259 FB0B0000 		.4byte	.LASF281
 12612 325d 01       		.byte	0x1
 12613 325e 94       		.byte	0x94
 12614 325f 0D       		.byte	0xd
 12615 3260 6E0A0000 		.4byte	0xa6e
 12616 3264 46       		.uleb128 0x46
 12617 3265 62696E00 		.ascii	"bin\000"
 12618 3269 01       		.byte	0x1
 12619 326a 95       		.byte	0x95
 12620 326b 0D       		.byte	0xd
 12621 326c 6E0A0000 		.4byte	0xa6e
 12622 3270 4B       		.uleb128 0x4b
 12623 3271 17100000 		.4byte	.LASF282
 12624 3275 01       		.byte	0x1
 12625 3276 96       		.byte	0x96
 12626 3277 0D       		.byte	0xd
 12627 3278 6E0A0000 		.4byte	0xa6e
 12628 327c 00       		.byte	0
 12629 327d 00       		.byte	0
 12630 327e 00       		.byte	0
 12631 327f 00       		.byte	0
 12632 3280 00       		.byte	0
 12633 3281 4C       		.uleb128 0x4c
 12634 3282 CC0B0000 		.4byte	.LASF290
 12635 3286 02       		.byte	0x2
 12636 3287 58       		.byte	0x58
 12637 3288 16       		.byte	0x16
 12638 3289 6E0A0000 		.4byte	0xa6e
 12639 328d 03       		.byte	0x3
 12640 328e 9E320000 		.4byte	0x329e
 12641 3292 45       		.uleb128 0x45
 12642 3293 766D00   		.ascii	"vm\000"
 12643 3296 02       		.byte	0x2
 12644 3297 58       		.byte	0x58
 12645 3298 36       		.byte	0x36
 12646 3299 6C0B0000 		.4byte	0xb6c
 12647 329d 00       		.byte	0
 12648 329e 4D       		.uleb128 0x4d
 12649 329f C5310000 		.4byte	0x31c5
 12650 32a3 00000000 		.4byte	.LFB31
 12651 32a7 C4000000 		.4byte	.LFE31-.LFB31
 12652 32ab 01       		.uleb128 0x1
 12653 32ac 9C       		.byte	0x9c
 12654 32ad A1330000 		.4byte	0x33a1
 12655 32b1 2D       		.uleb128 0x2d
 12656 32b2 D6310000 		.4byte	0x31d6
 12657 32b6 7C340000 		.4byte	.LLST0
 12658 32ba 74340000 		.4byte	.LVUS0
ARM GAS  /tmp/cchqCFfA.s 			page 226


 12659 32be 2D       		.uleb128 0x2d
 12660 32bf E0310000 		.4byte	0x31e0
 12661 32c3 BA340000 		.4byte	.LLST1
 12662 32c7 B6340000 		.4byte	.LVUS1
 12663 32cb 4E       		.uleb128 0x4e
 12664 32cc EA310000 		.4byte	0x31ea
 12665 32d0 00000000 		.4byte	.Ldebug_ranges0+0
 12666 32d4 97330000 		.4byte	0x3397
 12667 32d8 39       		.uleb128 0x39
 12668 32d9 EB310000 		.4byte	0x31eb
 12669 32dd E3340000 		.4byte	.LLST2
 12670 32e1 DB340000 		.4byte	.LVUS2
 12671 32e5 39       		.uleb128 0x39
 12672 32e6 F7310000 		.4byte	0x31f7
 12673 32ea 1B350000 		.4byte	.LLST3
 12674 32ee 17350000 		.4byte	.LVUS3
 12675 32f2 39       		.uleb128 0x39
 12676 32f3 02320000 		.4byte	0x3202
 12677 32f7 48350000 		.4byte	.LLST4
 12678 32fb 40350000 		.4byte	.LVUS4
 12679 32ff 4F       		.uleb128 0x4f
 12680 3300 0D320000 		.4byte	0x320d
 12681 3304 20000000 		.4byte	.Ldebug_ranges0+0x20
 12682 3308 39       		.uleb128 0x39
 12683 3309 0E320000 		.4byte	0x320e
 12684 330d 8E350000 		.4byte	.LLST5
 12685 3311 8A350000 		.4byte	.LVUS5
 12686 3315 39       		.uleb128 0x39
 12687 3316 1A320000 		.4byte	0x321a
 12688 331a B2350000 		.4byte	.LLST6
 12689 331e AC350000 		.4byte	.LVUS6
 12690 3322 39       		.uleb128 0x39
 12691 3323 26320000 		.4byte	0x3226
 12692 3327 E0350000 		.4byte	.LLST7
 12693 332b DC350000 		.4byte	.LVUS7
 12694 332f 4F       		.uleb128 0x4f
 12695 3330 32320000 		.4byte	0x3232
 12696 3334 48000000 		.4byte	.Ldebug_ranges0+0x48
 12697 3338 39       		.uleb128 0x39
 12698 3339 33320000 		.4byte	0x3233
 12699 333d 03360000 		.4byte	.LLST8
 12700 3341 FF350000 		.4byte	.LVUS8
 12701 3345 50       		.uleb128 0x50
 12702 3346 3F320000 		.4byte	0x323f
 12703 334a 4E000000 		.4byte	.LBB193
 12704 334e 34000000 		.4byte	.LBE193-.LBB193
 12705 3352 39       		.uleb128 0x39
 12706 3353 40320000 		.4byte	0x3240
 12707 3357 23360000 		.4byte	.LLST9
 12708 335b 21360000 		.4byte	.LVUS9
 12709 335f 39       		.uleb128 0x39
 12710 3360 4C320000 		.4byte	0x324c
 12711 3364 47360000 		.4byte	.LLST10
 12712 3368 41360000 		.4byte	.LVUS10
 12713 336c 39       		.uleb128 0x39
 12714 336d 58320000 		.4byte	0x3258
 12715 3371 78360000 		.4byte	.LLST11
ARM GAS  /tmp/cchqCFfA.s 			page 227


 12716 3375 76360000 		.4byte	.LVUS11
 12717 3379 39       		.uleb128 0x39
 12718 337a 64320000 		.4byte	0x3264
 12719 337e 8D360000 		.4byte	.LLST12
 12720 3382 8B360000 		.4byte	.LVUS12
 12721 3386 39       		.uleb128 0x39
 12722 3387 70320000 		.4byte	0x3270
 12723 338b A6360000 		.4byte	.LLST13
 12724 338f A4360000 		.4byte	.LVUS13
 12725 3393 00       		.byte	0
 12726 3394 00       		.byte	0
 12727 3395 00       		.byte	0
 12728 3396 00       		.byte	0
 12729 3397 2F       		.uleb128 0x2f
 12730 3398 BA000000 		.4byte	.LVL24
 12731 339c 82340000 		.4byte	0x3482
 12732 33a0 00       		.byte	0
 12733 33a1 4D       		.uleb128 0x4d
 12734 33a2 C5310000 		.4byte	0x31c5
 12735 33a6 00000000 		.4byte	.LFB1
 12736 33aa 48000000 		.4byte	.LFE1-.LFB1
 12737 33ae 01       		.uleb128 0x1
 12738 33af 9C       		.byte	0x9c
 12739 33b0 E1330000 		.4byte	0x33e1
 12740 33b4 2D       		.uleb128 0x2d
 12741 33b5 D6310000 		.4byte	0x31d6
 12742 33b9 C1360000 		.4byte	.LLST14
 12743 33bd B9360000 		.4byte	.LVUS14
 12744 33c1 2D       		.uleb128 0x2d
 12745 33c2 E0310000 		.4byte	0x31e0
 12746 33c6 03370000 		.4byte	.LLST15
 12747 33ca FB360000 		.4byte	.LVUS15
 12748 33ce 40       		.uleb128 0x40
 12749 33cf 3E000000 		.4byte	.LVL28
 12750 33d3 9E320000 		.4byte	0x329e
 12751 33d7 2F       		.uleb128 0x2f
 12752 33d8 42000000 		.4byte	.LVL29
 12753 33dc 82340000 		.4byte	0x3482
 12754 33e0 00       		.byte	0
 12755 33e1 4D       		.uleb128 0x4d
 12756 33e2 01310000 		.4byte	0x3101
 12757 33e6 00000000 		.4byte	.LFB3
 12758 33ea 30000000 		.4byte	.LFE3-.LFB3
 12759 33ee 01       		.uleb128 0x1
 12760 33ef 9C       		.byte	0x9c
 12761 33f0 14340000 		.4byte	0x3414
 12762 33f4 2D       		.uleb128 0x2d
 12763 33f5 12310000 		.4byte	0x3112
 12764 33f9 45370000 		.4byte	.LLST22
 12765 33fd 3D370000 		.4byte	.LVUS22
 12766 3401 40       		.uleb128 0x40
 12767 3402 28000000 		.4byte	.LVL51
 12768 3406 1F310000 		.4byte	0x311f
 12769 340a 2F       		.uleb128 0x2f
 12770 340b 2C000000 		.4byte	.LVL52
 12771 340f 82340000 		.4byte	0x3482
 12772 3413 00       		.byte	0
ARM GAS  /tmp/cchqCFfA.s 			page 228


 12773 3414 4D       		.uleb128 0x4d
 12774 3415 C0300000 		.4byte	0x30c0
 12775 3419 00000000 		.4byte	.LFB4
 12776 341d 60000000 		.4byte	.LFE4-.LFB4
 12777 3421 01       		.uleb128 0x1
 12778 3422 9C       		.byte	0x9c
 12779 3423 65340000 		.4byte	0x3465
 12780 3427 2D       		.uleb128 0x2d
 12781 3428 D1300000 		.4byte	0x30d1
 12782 342c 87370000 		.4byte	.LLST23
 12783 3430 7F370000 		.4byte	.LVUS23
 12784 3434 39       		.uleb128 0x39
 12785 3435 DD300000 		.4byte	0x30dd
 12786 3439 C9370000 		.4byte	.LLST24
 12787 343d C1370000 		.4byte	.LVUS24
 12788 3441 39       		.uleb128 0x39
 12789 3442 E8300000 		.4byte	0x30e8
 12790 3446 03380000 		.4byte	.LLST25
 12791 344a FD370000 		.4byte	.LVUS25
 12792 344e 39       		.uleb128 0x39
 12793 344f F4300000 		.4byte	0x30f4
 12794 3453 38380000 		.4byte	.LLST26
 12795 3457 2E380000 		.4byte	.LVUS26
 12796 345b 2F       		.uleb128 0x2f
 12797 345c 5C000000 		.4byte	.LVL72
 12798 3460 82340000 		.4byte	0x3482
 12799 3464 00       		.byte	0
 12800 3465 4D       		.uleb128 0x4d
 12801 3466 8C0F0000 		.4byte	0xf8c
 12802 346a 00000000 		.4byte	.LFB28
 12803 346e 4C000000 		.4byte	.LFE28-.LFB28
 12804 3472 01       		.uleb128 0x1
 12805 3473 9C       		.byte	0x9c
 12806 3474 82340000 		.4byte	0x3482
 12807 3478 2F       		.uleb128 0x2f
 12808 3479 44000000 		.4byte	.LVL477
 12809 347d 82340000 		.4byte	0x3482
 12810 3481 00       		.byte	0
 12811 3482 51       		.uleb128 0x51
 12812 3483 3E0C0000 		.4byte	.LASF291
 12813 3487 3E0C0000 		.4byte	.LASF291
 12814 348b 52       		.uleb128 0x52
 12815 348c F8060000 		.4byte	.LASF292
 12816 3490 F8060000 		.4byte	.LASF292
 12817 3494 0A       		.byte	0xa
 12818 3495 92       		.byte	0x92
 12819 3496 06       		.byte	0x6
 12820 3497 00       		.byte	0
 12821              		.section	.debug_abbrev,"",%progbits
 12822              	.Ldebug_abbrev0:
 12823 0000 01       		.uleb128 0x1
 12824 0001 11       		.uleb128 0x11
 12825 0002 01       		.byte	0x1
 12826 0003 25       		.uleb128 0x25
 12827 0004 0E       		.uleb128 0xe
 12828 0005 13       		.uleb128 0x13
 12829 0006 0B       		.uleb128 0xb
ARM GAS  /tmp/cchqCFfA.s 			page 229


 12830 0007 03       		.uleb128 0x3
 12831 0008 0E       		.uleb128 0xe
 12832 0009 1B       		.uleb128 0x1b
 12833 000a 0E       		.uleb128 0xe
 12834 000b 55       		.uleb128 0x55
 12835 000c 17       		.uleb128 0x17
 12836 000d 11       		.uleb128 0x11
 12837 000e 01       		.uleb128 0x1
 12838 000f 10       		.uleb128 0x10
 12839 0010 17       		.uleb128 0x17
 12840 0011 00       		.byte	0
 12841 0012 00       		.byte	0
 12842 0013 02       		.uleb128 0x2
 12843 0014 24       		.uleb128 0x24
 12844 0015 00       		.byte	0
 12845 0016 0B       		.uleb128 0xb
 12846 0017 0B       		.uleb128 0xb
 12847 0018 3E       		.uleb128 0x3e
 12848 0019 0B       		.uleb128 0xb
 12849 001a 03       		.uleb128 0x3
 12850 001b 0E       		.uleb128 0xe
 12851 001c 00       		.byte	0
 12852 001d 00       		.byte	0
 12853 001e 03       		.uleb128 0x3
 12854 001f 04       		.uleb128 0x4
 12855 0020 01       		.byte	0x1
 12856 0021 3E       		.uleb128 0x3e
 12857 0022 0B       		.uleb128 0xb
 12858 0023 0B       		.uleb128 0xb
 12859 0024 0B       		.uleb128 0xb
 12860 0025 49       		.uleb128 0x49
 12861 0026 13       		.uleb128 0x13
 12862 0027 3A       		.uleb128 0x3a
 12863 0028 0B       		.uleb128 0xb
 12864 0029 3B       		.uleb128 0x3b
 12865 002a 0B       		.uleb128 0xb
 12866 002b 39       		.uleb128 0x39
 12867 002c 0B       		.uleb128 0xb
 12868 002d 01       		.uleb128 0x1
 12869 002e 13       		.uleb128 0x13
 12870 002f 00       		.byte	0
 12871 0030 00       		.byte	0
 12872 0031 04       		.uleb128 0x4
 12873 0032 28       		.uleb128 0x28
 12874 0033 00       		.byte	0
 12875 0034 03       		.uleb128 0x3
 12876 0035 0E       		.uleb128 0xe
 12877 0036 1C       		.uleb128 0x1c
 12878 0037 0B       		.uleb128 0xb
 12879 0038 00       		.byte	0
 12880 0039 00       		.byte	0
 12881 003a 05       		.uleb128 0x5
 12882 003b 28       		.uleb128 0x28
 12883 003c 00       		.byte	0
 12884 003d 03       		.uleb128 0x3
 12885 003e 0E       		.uleb128 0xe
 12886 003f 1C       		.uleb128 0x1c
ARM GAS  /tmp/cchqCFfA.s 			page 230


 12887 0040 05       		.uleb128 0x5
 12888 0041 00       		.byte	0
 12889 0042 00       		.byte	0
 12890 0043 06       		.uleb128 0x6
 12891 0044 24       		.uleb128 0x24
 12892 0045 00       		.byte	0
 12893 0046 0B       		.uleb128 0xb
 12894 0047 0B       		.uleb128 0xb
 12895 0048 3E       		.uleb128 0x3e
 12896 0049 0B       		.uleb128 0xb
 12897 004a 03       		.uleb128 0x3
 12898 004b 08       		.uleb128 0x8
 12899 004c 00       		.byte	0
 12900 004d 00       		.byte	0
 12901 004e 07       		.uleb128 0x7
 12902 004f 16       		.uleb128 0x16
 12903 0050 00       		.byte	0
 12904 0051 03       		.uleb128 0x3
 12905 0052 0E       		.uleb128 0xe
 12906 0053 3A       		.uleb128 0x3a
 12907 0054 0B       		.uleb128 0xb
 12908 0055 3B       		.uleb128 0x3b
 12909 0056 05       		.uleb128 0x5
 12910 0057 39       		.uleb128 0x39
 12911 0058 0B       		.uleb128 0xb
 12912 0059 49       		.uleb128 0x49
 12913 005a 13       		.uleb128 0x13
 12914 005b 00       		.byte	0
 12915 005c 00       		.byte	0
 12916 005d 08       		.uleb128 0x8
 12917 005e 16       		.uleb128 0x16
 12918 005f 00       		.byte	0
 12919 0060 03       		.uleb128 0x3
 12920 0061 0E       		.uleb128 0xe
 12921 0062 3A       		.uleb128 0x3a
 12922 0063 0B       		.uleb128 0xb
 12923 0064 3B       		.uleb128 0x3b
 12924 0065 0B       		.uleb128 0xb
 12925 0066 39       		.uleb128 0x39
 12926 0067 0B       		.uleb128 0xb
 12927 0068 49       		.uleb128 0x49
 12928 0069 13       		.uleb128 0x13
 12929 006a 00       		.byte	0
 12930 006b 00       		.byte	0
 12931 006c 09       		.uleb128 0x9
 12932 006d 17       		.uleb128 0x17
 12933 006e 01       		.byte	0x1
 12934 006f 0B       		.uleb128 0xb
 12935 0070 0B       		.uleb128 0xb
 12936 0071 3A       		.uleb128 0x3a
 12937 0072 0B       		.uleb128 0xb
 12938 0073 3B       		.uleb128 0x3b
 12939 0074 0B       		.uleb128 0xb
 12940 0075 39       		.uleb128 0x39
 12941 0076 0B       		.uleb128 0xb
 12942 0077 01       		.uleb128 0x1
 12943 0078 13       		.uleb128 0x13
ARM GAS  /tmp/cchqCFfA.s 			page 231


 12944 0079 00       		.byte	0
 12945 007a 00       		.byte	0
 12946 007b 0A       		.uleb128 0xa
 12947 007c 0D       		.uleb128 0xd
 12948 007d 00       		.byte	0
 12949 007e 03       		.uleb128 0x3
 12950 007f 0E       		.uleb128 0xe
 12951 0080 3A       		.uleb128 0x3a
 12952 0081 0B       		.uleb128 0xb
 12953 0082 3B       		.uleb128 0x3b
 12954 0083 0B       		.uleb128 0xb
 12955 0084 39       		.uleb128 0x39
 12956 0085 0B       		.uleb128 0xb
 12957 0086 49       		.uleb128 0x49
 12958 0087 13       		.uleb128 0x13
 12959 0088 00       		.byte	0
 12960 0089 00       		.byte	0
 12961 008a 0B       		.uleb128 0xb
 12962 008b 01       		.uleb128 0x1
 12963 008c 01       		.byte	0x1
 12964 008d 49       		.uleb128 0x49
 12965 008e 13       		.uleb128 0x13
 12966 008f 01       		.uleb128 0x1
 12967 0090 13       		.uleb128 0x13
 12968 0091 00       		.byte	0
 12969 0092 00       		.byte	0
 12970 0093 0C       		.uleb128 0xc
 12971 0094 21       		.uleb128 0x21
 12972 0095 00       		.byte	0
 12973 0096 49       		.uleb128 0x49
 12974 0097 13       		.uleb128 0x13
 12975 0098 2F       		.uleb128 0x2f
 12976 0099 0B       		.uleb128 0xb
 12977 009a 00       		.byte	0
 12978 009b 00       		.byte	0
 12979 009c 0D       		.uleb128 0xd
 12980 009d 13       		.uleb128 0x13
 12981 009e 01       		.byte	0x1
 12982 009f 0B       		.uleb128 0xb
 12983 00a0 0B       		.uleb128 0xb
 12984 00a1 3A       		.uleb128 0x3a
 12985 00a2 0B       		.uleb128 0xb
 12986 00a3 3B       		.uleb128 0x3b
 12987 00a4 0B       		.uleb128 0xb
 12988 00a5 39       		.uleb128 0x39
 12989 00a6 0B       		.uleb128 0xb
 12990 00a7 01       		.uleb128 0x1
 12991 00a8 13       		.uleb128 0x13
 12992 00a9 00       		.byte	0
 12993 00aa 00       		.byte	0
 12994 00ab 0E       		.uleb128 0xe
 12995 00ac 0D       		.uleb128 0xd
 12996 00ad 00       		.byte	0
 12997 00ae 03       		.uleb128 0x3
 12998 00af 0E       		.uleb128 0xe
 12999 00b0 3A       		.uleb128 0x3a
 13000 00b1 0B       		.uleb128 0xb
ARM GAS  /tmp/cchqCFfA.s 			page 232


 13001 00b2 3B       		.uleb128 0x3b
 13002 00b3 0B       		.uleb128 0xb
 13003 00b4 39       		.uleb128 0x39
 13004 00b5 0B       		.uleb128 0xb
 13005 00b6 49       		.uleb128 0x49
 13006 00b7 13       		.uleb128 0x13
 13007 00b8 38       		.uleb128 0x38
 13008 00b9 0B       		.uleb128 0xb
 13009 00ba 00       		.byte	0
 13010 00bb 00       		.byte	0
 13011 00bc 0F       		.uleb128 0xf
 13012 00bd 0F       		.uleb128 0xf
 13013 00be 00       		.byte	0
 13014 00bf 0B       		.uleb128 0xb
 13015 00c0 0B       		.uleb128 0xb
 13016 00c1 00       		.byte	0
 13017 00c2 00       		.byte	0
 13018 00c3 10       		.uleb128 0x10
 13019 00c4 13       		.uleb128 0x13
 13020 00c5 01       		.byte	0x1
 13021 00c6 03       		.uleb128 0x3
 13022 00c7 0E       		.uleb128 0xe
 13023 00c8 0B       		.uleb128 0xb
 13024 00c9 0B       		.uleb128 0xb
 13025 00ca 3A       		.uleb128 0x3a
 13026 00cb 0B       		.uleb128 0xb
 13027 00cc 3B       		.uleb128 0x3b
 13028 00cd 0B       		.uleb128 0xb
 13029 00ce 39       		.uleb128 0x39
 13030 00cf 0B       		.uleb128 0xb
 13031 00d0 01       		.uleb128 0x1
 13032 00d1 13       		.uleb128 0x13
 13033 00d2 00       		.byte	0
 13034 00d3 00       		.byte	0
 13035 00d4 11       		.uleb128 0x11
 13036 00d5 0D       		.uleb128 0xd
 13037 00d6 00       		.byte	0
 13038 00d7 03       		.uleb128 0x3
 13039 00d8 08       		.uleb128 0x8
 13040 00d9 3A       		.uleb128 0x3a
 13041 00da 0B       		.uleb128 0xb
 13042 00db 3B       		.uleb128 0x3b
 13043 00dc 0B       		.uleb128 0xb
 13044 00dd 39       		.uleb128 0x39
 13045 00de 0B       		.uleb128 0xb
 13046 00df 49       		.uleb128 0x49
 13047 00e0 13       		.uleb128 0x13
 13048 00e1 38       		.uleb128 0x38
 13049 00e2 0B       		.uleb128 0xb
 13050 00e3 00       		.byte	0
 13051 00e4 00       		.byte	0
 13052 00e5 12       		.uleb128 0x12
 13053 00e6 0F       		.uleb128 0xf
 13054 00e7 00       		.byte	0
 13055 00e8 0B       		.uleb128 0xb
 13056 00e9 0B       		.uleb128 0xb
 13057 00ea 49       		.uleb128 0x49
ARM GAS  /tmp/cchqCFfA.s 			page 233


 13058 00eb 13       		.uleb128 0x13
 13059 00ec 00       		.byte	0
 13060 00ed 00       		.byte	0
 13061 00ee 13       		.uleb128 0x13
 13062 00ef 13       		.uleb128 0x13
 13063 00f0 01       		.byte	0x1
 13064 00f1 03       		.uleb128 0x3
 13065 00f2 0E       		.uleb128 0xe
 13066 00f3 0B       		.uleb128 0xb
 13067 00f4 05       		.uleb128 0x5
 13068 00f5 3A       		.uleb128 0x3a
 13069 00f6 0B       		.uleb128 0xb
 13070 00f7 3B       		.uleb128 0x3b
 13071 00f8 0B       		.uleb128 0xb
 13072 00f9 39       		.uleb128 0x39
 13073 00fa 0B       		.uleb128 0xb
 13074 00fb 01       		.uleb128 0x1
 13075 00fc 13       		.uleb128 0x13
 13076 00fd 00       		.byte	0
 13077 00fe 00       		.byte	0
 13078 00ff 14       		.uleb128 0x14
 13079 0100 0D       		.uleb128 0xd
 13080 0101 00       		.byte	0
 13081 0102 03       		.uleb128 0x3
 13082 0103 0E       		.uleb128 0xe
 13083 0104 3A       		.uleb128 0x3a
 13084 0105 0B       		.uleb128 0xb
 13085 0106 3B       		.uleb128 0x3b
 13086 0107 0B       		.uleb128 0xb
 13087 0108 39       		.uleb128 0x39
 13088 0109 0B       		.uleb128 0xb
 13089 010a 49       		.uleb128 0x49
 13090 010b 13       		.uleb128 0x13
 13091 010c 38       		.uleb128 0x38
 13092 010d 05       		.uleb128 0x5
 13093 010e 00       		.byte	0
 13094 010f 00       		.byte	0
 13095 0110 15       		.uleb128 0x15
 13096 0111 15       		.uleb128 0x15
 13097 0112 00       		.byte	0
 13098 0113 27       		.uleb128 0x27
 13099 0114 19       		.uleb128 0x19
 13100 0115 00       		.byte	0
 13101 0116 00       		.byte	0
 13102 0117 16       		.uleb128 0x16
 13103 0118 15       		.uleb128 0x15
 13104 0119 01       		.byte	0x1
 13105 011a 27       		.uleb128 0x27
 13106 011b 19       		.uleb128 0x19
 13107 011c 49       		.uleb128 0x49
 13108 011d 13       		.uleb128 0x13
 13109 011e 01       		.uleb128 0x1
 13110 011f 13       		.uleb128 0x13
 13111 0120 00       		.byte	0
 13112 0121 00       		.byte	0
 13113 0122 17       		.uleb128 0x17
 13114 0123 05       		.uleb128 0x5
ARM GAS  /tmp/cchqCFfA.s 			page 234


 13115 0124 00       		.byte	0
 13116 0125 49       		.uleb128 0x49
 13117 0126 13       		.uleb128 0x13
 13118 0127 00       		.byte	0
 13119 0128 00       		.byte	0
 13120 0129 18       		.uleb128 0x18
 13121 012a 26       		.uleb128 0x26
 13122 012b 00       		.byte	0
 13123 012c 49       		.uleb128 0x49
 13124 012d 13       		.uleb128 0x13
 13125 012e 00       		.byte	0
 13126 012f 00       		.byte	0
 13127 0130 19       		.uleb128 0x19
 13128 0131 13       		.uleb128 0x13
 13129 0132 01       		.byte	0x1
 13130 0133 03       		.uleb128 0x3
 13131 0134 0E       		.uleb128 0xe
 13132 0135 0B       		.uleb128 0xb
 13133 0136 05       		.uleb128 0x5
 13134 0137 3A       		.uleb128 0x3a
 13135 0138 0B       		.uleb128 0xb
 13136 0139 3B       		.uleb128 0x3b
 13137 013a 05       		.uleb128 0x5
 13138 013b 39       		.uleb128 0x39
 13139 013c 0B       		.uleb128 0xb
 13140 013d 01       		.uleb128 0x1
 13141 013e 13       		.uleb128 0x13
 13142 013f 00       		.byte	0
 13143 0140 00       		.byte	0
 13144 0141 1A       		.uleb128 0x1a
 13145 0142 0D       		.uleb128 0xd
 13146 0143 00       		.byte	0
 13147 0144 03       		.uleb128 0x3
 13148 0145 0E       		.uleb128 0xe
 13149 0146 3A       		.uleb128 0x3a
 13150 0147 0B       		.uleb128 0xb
 13151 0148 3B       		.uleb128 0x3b
 13152 0149 05       		.uleb128 0x5
 13153 014a 39       		.uleb128 0x39
 13154 014b 0B       		.uleb128 0xb
 13155 014c 49       		.uleb128 0x49
 13156 014d 13       		.uleb128 0x13
 13157 014e 38       		.uleb128 0x38
 13158 014f 0B       		.uleb128 0xb
 13159 0150 00       		.byte	0
 13160 0151 00       		.byte	0
 13161 0152 1B       		.uleb128 0x1b
 13162 0153 0D       		.uleb128 0xd
 13163 0154 00       		.byte	0
 13164 0155 03       		.uleb128 0x3
 13165 0156 0E       		.uleb128 0xe
 13166 0157 3A       		.uleb128 0x3a
 13167 0158 0B       		.uleb128 0xb
 13168 0159 3B       		.uleb128 0x3b
 13169 015a 05       		.uleb128 0x5
 13170 015b 39       		.uleb128 0x39
 13171 015c 0B       		.uleb128 0xb
ARM GAS  /tmp/cchqCFfA.s 			page 235


 13172 015d 49       		.uleb128 0x49
 13173 015e 13       		.uleb128 0x13
 13174 015f 38       		.uleb128 0x38
 13175 0160 05       		.uleb128 0x5
 13176 0161 00       		.byte	0
 13177 0162 00       		.byte	0
 13178 0163 1C       		.uleb128 0x1c
 13179 0164 13       		.uleb128 0x13
 13180 0165 01       		.byte	0x1
 13181 0166 03       		.uleb128 0x3
 13182 0167 0E       		.uleb128 0xe
 13183 0168 0B       		.uleb128 0xb
 13184 0169 0B       		.uleb128 0xb
 13185 016a 3A       		.uleb128 0x3a
 13186 016b 0B       		.uleb128 0xb
 13187 016c 3B       		.uleb128 0x3b
 13188 016d 05       		.uleb128 0x5
 13189 016e 39       		.uleb128 0x39
 13190 016f 0B       		.uleb128 0xb
 13191 0170 01       		.uleb128 0x1
 13192 0171 13       		.uleb128 0x13
 13193 0172 00       		.byte	0
 13194 0173 00       		.byte	0
 13195 0174 1D       		.uleb128 0x1d
 13196 0175 13       		.uleb128 0x13
 13197 0176 01       		.byte	0x1
 13198 0177 0B       		.uleb128 0xb
 13199 0178 0B       		.uleb128 0xb
 13200 0179 3A       		.uleb128 0x3a
 13201 017a 0B       		.uleb128 0xb
 13202 017b 3B       		.uleb128 0x3b
 13203 017c 05       		.uleb128 0x5
 13204 017d 39       		.uleb128 0x39
 13205 017e 0B       		.uleb128 0xb
 13206 017f 01       		.uleb128 0x1
 13207 0180 13       		.uleb128 0x13
 13208 0181 00       		.byte	0
 13209 0182 00       		.byte	0
 13210 0183 1E       		.uleb128 0x1e
 13211 0184 17       		.uleb128 0x17
 13212 0185 01       		.byte	0x1
 13213 0186 0B       		.uleb128 0xb
 13214 0187 0B       		.uleb128 0xb
 13215 0188 3A       		.uleb128 0x3a
 13216 0189 0B       		.uleb128 0xb
 13217 018a 3B       		.uleb128 0x3b
 13218 018b 05       		.uleb128 0x5
 13219 018c 39       		.uleb128 0x39
 13220 018d 0B       		.uleb128 0xb
 13221 018e 01       		.uleb128 0x1
 13222 018f 13       		.uleb128 0x13
 13223 0190 00       		.byte	0
 13224 0191 00       		.byte	0
 13225 0192 1F       		.uleb128 0x1f
 13226 0193 0D       		.uleb128 0xd
 13227 0194 00       		.byte	0
 13228 0195 03       		.uleb128 0x3
ARM GAS  /tmp/cchqCFfA.s 			page 236


 13229 0196 0E       		.uleb128 0xe
 13230 0197 3A       		.uleb128 0x3a
 13231 0198 0B       		.uleb128 0xb
 13232 0199 3B       		.uleb128 0x3b
 13233 019a 05       		.uleb128 0x5
 13234 019b 39       		.uleb128 0x39
 13235 019c 0B       		.uleb128 0xb
 13236 019d 49       		.uleb128 0x49
 13237 019e 13       		.uleb128 0x13
 13238 019f 00       		.byte	0
 13239 01a0 00       		.byte	0
 13240 01a1 20       		.uleb128 0x20
 13241 01a2 13       		.uleb128 0x13
 13242 01a3 00       		.byte	0
 13243 01a4 03       		.uleb128 0x3
 13244 01a5 0E       		.uleb128 0xe
 13245 01a6 3C       		.uleb128 0x3c
 13246 01a7 19       		.uleb128 0x19
 13247 01a8 00       		.byte	0
 13248 01a9 00       		.byte	0
 13249 01aa 21       		.uleb128 0x21
 13250 01ab 15       		.uleb128 0x15
 13251 01ac 01       		.byte	0x1
 13252 01ad 27       		.uleb128 0x27
 13253 01ae 19       		.uleb128 0x19
 13254 01af 01       		.uleb128 0x1
 13255 01b0 13       		.uleb128 0x13
 13256 01b1 00       		.byte	0
 13257 01b2 00       		.byte	0
 13258 01b3 22       		.uleb128 0x22
 13259 01b4 34       		.uleb128 0x34
 13260 01b5 00       		.byte	0
 13261 01b6 03       		.uleb128 0x3
 13262 01b7 0E       		.uleb128 0xe
 13263 01b8 3A       		.uleb128 0x3a
 13264 01b9 0B       		.uleb128 0xb
 13265 01ba 3B       		.uleb128 0x3b
 13266 01bb 05       		.uleb128 0x5
 13267 01bc 39       		.uleb128 0x39
 13268 01bd 0B       		.uleb128 0xb
 13269 01be 49       		.uleb128 0x49
 13270 01bf 13       		.uleb128 0x13
 13271 01c0 3F       		.uleb128 0x3f
 13272 01c1 19       		.uleb128 0x19
 13273 01c2 3C       		.uleb128 0x3c
 13274 01c3 19       		.uleb128 0x19
 13275 01c4 00       		.byte	0
 13276 01c5 00       		.byte	0
 13277 01c6 23       		.uleb128 0x23
 13278 01c7 34       		.uleb128 0x34
 13279 01c8 00       		.byte	0
 13280 01c9 03       		.uleb128 0x3
 13281 01ca 0E       		.uleb128 0xe
 13282 01cb 3A       		.uleb128 0x3a
 13283 01cc 0B       		.uleb128 0xb
 13284 01cd 3B       		.uleb128 0x3b
 13285 01ce 0B       		.uleb128 0xb
ARM GAS  /tmp/cchqCFfA.s 			page 237


 13286 01cf 39       		.uleb128 0x39
 13287 01d0 0B       		.uleb128 0xb
 13288 01d1 49       		.uleb128 0x49
 13289 01d2 13       		.uleb128 0x13
 13290 01d3 3F       		.uleb128 0x3f
 13291 01d4 19       		.uleb128 0x19
 13292 01d5 3C       		.uleb128 0x3c
 13293 01d6 19       		.uleb128 0x19
 13294 01d7 00       		.byte	0
 13295 01d8 00       		.byte	0
 13296 01d9 24       		.uleb128 0x24
 13297 01da 21       		.uleb128 0x21
 13298 01db 00       		.byte	0
 13299 01dc 49       		.uleb128 0x49
 13300 01dd 13       		.uleb128 0x13
 13301 01de 00       		.byte	0
 13302 01df 00       		.byte	0
 13303 01e0 25       		.uleb128 0x25
 13304 01e1 34       		.uleb128 0x34
 13305 01e2 00       		.byte	0
 13306 01e3 03       		.uleb128 0x3
 13307 01e4 0E       		.uleb128 0xe
 13308 01e5 3A       		.uleb128 0x3a
 13309 01e6 0B       		.uleb128 0xb
 13310 01e7 3B       		.uleb128 0x3b
 13311 01e8 0B       		.uleb128 0xb
 13312 01e9 39       		.uleb128 0x39
 13313 01ea 0B       		.uleb128 0xb
 13314 01eb 49       		.uleb128 0x49
 13315 01ec 13       		.uleb128 0x13
 13316 01ed 02       		.uleb128 0x2
 13317 01ee 18       		.uleb128 0x18
 13318 01ef 00       		.byte	0
 13319 01f0 00       		.byte	0
 13320 01f1 26       		.uleb128 0x26
 13321 01f2 34       		.uleb128 0x34
 13322 01f3 00       		.byte	0
 13323 01f4 47       		.uleb128 0x47
 13324 01f5 13       		.uleb128 0x13
 13325 01f6 3A       		.uleb128 0x3a
 13326 01f7 0B       		.uleb128 0xb
 13327 01f8 3B       		.uleb128 0x3b
 13328 01f9 05       		.uleb128 0x5
 13329 01fa 39       		.uleb128 0x39
 13330 01fb 0B       		.uleb128 0xb
 13331 01fc 02       		.uleb128 0x2
 13332 01fd 18       		.uleb128 0x18
 13333 01fe 00       		.byte	0
 13334 01ff 00       		.byte	0
 13335 0200 27       		.uleb128 0x27
 13336 0201 34       		.uleb128 0x34
 13337 0202 00       		.byte	0
 13338 0203 03       		.uleb128 0x3
 13339 0204 0E       		.uleb128 0xe
 13340 0205 3A       		.uleb128 0x3a
 13341 0206 0B       		.uleb128 0xb
 13342 0207 3B       		.uleb128 0x3b
ARM GAS  /tmp/cchqCFfA.s 			page 238


 13343 0208 05       		.uleb128 0x5
 13344 0209 39       		.uleb128 0x39
 13345 020a 0B       		.uleb128 0xb
 13346 020b 49       		.uleb128 0x49
 13347 020c 13       		.uleb128 0x13
 13348 020d 02       		.uleb128 0x2
 13349 020e 18       		.uleb128 0x18
 13350 020f 00       		.byte	0
 13351 0210 00       		.byte	0
 13352 0211 28       		.uleb128 0x28
 13353 0212 2E       		.uleb128 0x2e
 13354 0213 01       		.byte	0x1
 13355 0214 3F       		.uleb128 0x3f
 13356 0215 19       		.uleb128 0x19
 13357 0216 03       		.uleb128 0x3
 13358 0217 0E       		.uleb128 0xe
 13359 0218 3A       		.uleb128 0x3a
 13360 0219 0B       		.uleb128 0xb
 13361 021a 3B       		.uleb128 0x3b
 13362 021b 05       		.uleb128 0x5
 13363 021c 39       		.uleb128 0x39
 13364 021d 0B       		.uleb128 0xb
 13365 021e 27       		.uleb128 0x27
 13366 021f 19       		.uleb128 0x19
 13367 0220 11       		.uleb128 0x11
 13368 0221 01       		.uleb128 0x1
 13369 0222 12       		.uleb128 0x12
 13370 0223 06       		.uleb128 0x6
 13371 0224 40       		.uleb128 0x40
 13372 0225 18       		.uleb128 0x18
 13373 0226 9742     		.uleb128 0x2117
 13374 0228 19       		.uleb128 0x19
 13375 0229 01       		.uleb128 0x1
 13376 022a 13       		.uleb128 0x13
 13377 022b 00       		.byte	0
 13378 022c 00       		.byte	0
 13379 022d 29       		.uleb128 0x29
 13380 022e 05       		.uleb128 0x5
 13381 022f 00       		.byte	0
 13382 0230 03       		.uleb128 0x3
 13383 0231 08       		.uleb128 0x8
 13384 0232 3A       		.uleb128 0x3a
 13385 0233 0B       		.uleb128 0xb
 13386 0234 3B       		.uleb128 0x3b
 13387 0235 05       		.uleb128 0x5
 13388 0236 39       		.uleb128 0x39
 13389 0237 0B       		.uleb128 0xb
 13390 0238 49       		.uleb128 0x49
 13391 0239 13       		.uleb128 0x13
 13392 023a 02       		.uleb128 0x2
 13393 023b 17       		.uleb128 0x17
 13394 023c B742     		.uleb128 0x2137
 13395 023e 17       		.uleb128 0x17
 13396 023f 00       		.byte	0
 13397 0240 00       		.byte	0
 13398 0241 2A       		.uleb128 0x2a
 13399 0242 34       		.uleb128 0x34
ARM GAS  /tmp/cchqCFfA.s 			page 239


 13400 0243 00       		.byte	0
 13401 0244 03       		.uleb128 0x3
 13402 0245 0E       		.uleb128 0xe
 13403 0246 3A       		.uleb128 0x3a
 13404 0247 0B       		.uleb128 0xb
 13405 0248 3B       		.uleb128 0x3b
 13406 0249 05       		.uleb128 0x5
 13407 024a 39       		.uleb128 0x39
 13408 024b 0B       		.uleb128 0xb
 13409 024c 49       		.uleb128 0x49
 13410 024d 13       		.uleb128 0x13
 13411 024e 02       		.uleb128 0x2
 13412 024f 17       		.uleb128 0x17
 13413 0250 B742     		.uleb128 0x2137
 13414 0252 17       		.uleb128 0x17
 13415 0253 00       		.byte	0
 13416 0254 00       		.byte	0
 13417 0255 2B       		.uleb128 0x2b
 13418 0256 34       		.uleb128 0x34
 13419 0257 00       		.byte	0
 13420 0258 03       		.uleb128 0x3
 13421 0259 08       		.uleb128 0x8
 13422 025a 3A       		.uleb128 0x3a
 13423 025b 0B       		.uleb128 0xb
 13424 025c 3B       		.uleb128 0x3b
 13425 025d 05       		.uleb128 0x5
 13426 025e 39       		.uleb128 0x39
 13427 025f 0B       		.uleb128 0xb
 13428 0260 49       		.uleb128 0x49
 13429 0261 13       		.uleb128 0x13
 13430 0262 02       		.uleb128 0x2
 13431 0263 17       		.uleb128 0x17
 13432 0264 B742     		.uleb128 0x2137
 13433 0266 17       		.uleb128 0x17
 13434 0267 00       		.byte	0
 13435 0268 00       		.byte	0
 13436 0269 2C       		.uleb128 0x2c
 13437 026a 1D       		.uleb128 0x1d
 13438 026b 01       		.byte	0x1
 13439 026c 31       		.uleb128 0x31
 13440 026d 13       		.uleb128 0x13
 13441 026e 52       		.uleb128 0x52
 13442 026f 01       		.uleb128 0x1
 13443 0270 B842     		.uleb128 0x2138
 13444 0272 0B       		.uleb128 0xb
 13445 0273 55       		.uleb128 0x55
 13446 0274 17       		.uleb128 0x17
 13447 0275 58       		.uleb128 0x58
 13448 0276 0B       		.uleb128 0xb
 13449 0277 59       		.uleb128 0x59
 13450 0278 05       		.uleb128 0x5
 13451 0279 57       		.uleb128 0x57
 13452 027a 0B       		.uleb128 0xb
 13453 027b 01       		.uleb128 0x1
 13454 027c 13       		.uleb128 0x13
 13455 027d 00       		.byte	0
 13456 027e 00       		.byte	0
ARM GAS  /tmp/cchqCFfA.s 			page 240


 13457 027f 2D       		.uleb128 0x2d
 13458 0280 05       		.uleb128 0x5
 13459 0281 00       		.byte	0
 13460 0282 31       		.uleb128 0x31
 13461 0283 13       		.uleb128 0x13
 13462 0284 02       		.uleb128 0x2
 13463 0285 17       		.uleb128 0x17
 13464 0286 B742     		.uleb128 0x2137
 13465 0288 17       		.uleb128 0x17
 13466 0289 00       		.byte	0
 13467 028a 00       		.byte	0
 13468 028b 2E       		.uleb128 0x2e
 13469 028c 1D       		.uleb128 0x1d
 13470 028d 00       		.byte	0
 13471 028e 31       		.uleb128 0x31
 13472 028f 13       		.uleb128 0x13
 13473 0290 52       		.uleb128 0x52
 13474 0291 01       		.uleb128 0x1
 13475 0292 B842     		.uleb128 0x2138
 13476 0294 0B       		.uleb128 0xb
 13477 0295 55       		.uleb128 0x55
 13478 0296 17       		.uleb128 0x17
 13479 0297 58       		.uleb128 0x58
 13480 0298 0B       		.uleb128 0xb
 13481 0299 59       		.uleb128 0x59
 13482 029a 05       		.uleb128 0x5
 13483 029b 57       		.uleb128 0x57
 13484 029c 0B       		.uleb128 0xb
 13485 029d 00       		.byte	0
 13486 029e 00       		.byte	0
 13487 029f 2F       		.uleb128 0x2f
 13488 02a0 898201   		.uleb128 0x4109
 13489 02a3 00       		.byte	0
 13490 02a4 11       		.uleb128 0x11
 13491 02a5 01       		.uleb128 0x1
 13492 02a6 31       		.uleb128 0x31
 13493 02a7 13       		.uleb128 0x13
 13494 02a8 00       		.byte	0
 13495 02a9 00       		.byte	0
 13496 02aa 30       		.uleb128 0x30
 13497 02ab 2E       		.uleb128 0x2e
 13498 02ac 00       		.byte	0
 13499 02ad 3F       		.uleb128 0x3f
 13500 02ae 19       		.uleb128 0x19
 13501 02af 03       		.uleb128 0x3
 13502 02b0 0E       		.uleb128 0xe
 13503 02b1 3A       		.uleb128 0x3a
 13504 02b2 0B       		.uleb128 0xb
 13505 02b3 3B       		.uleb128 0x3b
 13506 02b4 05       		.uleb128 0x5
 13507 02b5 39       		.uleb128 0x39
 13508 02b6 0B       		.uleb128 0xb
 13509 02b7 27       		.uleb128 0x27
 13510 02b8 19       		.uleb128 0x19
 13511 02b9 49       		.uleb128 0x49
 13512 02ba 13       		.uleb128 0x13
 13513 02bb 20       		.uleb128 0x20
ARM GAS  /tmp/cchqCFfA.s 			page 241


 13514 02bc 0B       		.uleb128 0xb
 13515 02bd 00       		.byte	0
 13516 02be 00       		.byte	0
 13517 02bf 31       		.uleb128 0x31
 13518 02c0 05       		.uleb128 0x5
 13519 02c1 00       		.byte	0
 13520 02c2 03       		.uleb128 0x3
 13521 02c3 0E       		.uleb128 0xe
 13522 02c4 3A       		.uleb128 0x3a
 13523 02c5 0B       		.uleb128 0xb
 13524 02c6 3B       		.uleb128 0x3b
 13525 02c7 05       		.uleb128 0x5
 13526 02c8 39       		.uleb128 0x39
 13527 02c9 0B       		.uleb128 0xb
 13528 02ca 49       		.uleb128 0x49
 13529 02cb 13       		.uleb128 0x13
 13530 02cc 02       		.uleb128 0x2
 13531 02cd 17       		.uleb128 0x17
 13532 02ce B742     		.uleb128 0x2137
 13533 02d0 17       		.uleb128 0x17
 13534 02d1 00       		.byte	0
 13535 02d2 00       		.byte	0
 13536 02d3 32       		.uleb128 0x32
 13537 02d4 34       		.uleb128 0x34
 13538 02d5 00       		.byte	0
 13539 02d6 03       		.uleb128 0x3
 13540 02d7 0E       		.uleb128 0xe
 13541 02d8 3A       		.uleb128 0x3a
 13542 02d9 0B       		.uleb128 0xb
 13543 02da 3B       		.uleb128 0x3b
 13544 02db 05       		.uleb128 0x5
 13545 02dc 39       		.uleb128 0x39
 13546 02dd 0B       		.uleb128 0xb
 13547 02de 49       		.uleb128 0x49
 13548 02df 13       		.uleb128 0x13
 13549 02e0 00       		.byte	0
 13550 02e1 00       		.byte	0
 13551 02e2 33       		.uleb128 0x33
 13552 02e3 0A       		.uleb128 0xa
 13553 02e4 00       		.byte	0
 13554 02e5 03       		.uleb128 0x3
 13555 02e6 0E       		.uleb128 0xe
 13556 02e7 3A       		.uleb128 0x3a
 13557 02e8 0B       		.uleb128 0xb
 13558 02e9 3B       		.uleb128 0x3b
 13559 02ea 05       		.uleb128 0x5
 13560 02eb 39       		.uleb128 0x39
 13561 02ec 0B       		.uleb128 0xb
 13562 02ed 11       		.uleb128 0x11
 13563 02ee 01       		.uleb128 0x1
 13564 02ef 00       		.byte	0
 13565 02f0 00       		.byte	0
 13566 02f1 34       		.uleb128 0x34
 13567 02f2 0B       		.uleb128 0xb
 13568 02f3 01       		.byte	0x1
 13569 02f4 11       		.uleb128 0x11
 13570 02f5 01       		.uleb128 0x1
ARM GAS  /tmp/cchqCFfA.s 			page 242


 13571 02f6 12       		.uleb128 0x12
 13572 02f7 06       		.uleb128 0x6
 13573 02f8 01       		.uleb128 0x1
 13574 02f9 13       		.uleb128 0x13
 13575 02fa 00       		.byte	0
 13576 02fb 00       		.byte	0
 13577 02fc 35       		.uleb128 0x35
 13578 02fd 34       		.uleb128 0x34
 13579 02fe 00       		.byte	0
 13580 02ff 03       		.uleb128 0x3
 13581 0300 08       		.uleb128 0x8
 13582 0301 3A       		.uleb128 0x3a
 13583 0302 0B       		.uleb128 0xb
 13584 0303 3B       		.uleb128 0x3b
 13585 0304 05       		.uleb128 0x5
 13586 0305 39       		.uleb128 0x39
 13587 0306 0B       		.uleb128 0xb
 13588 0307 49       		.uleb128 0x49
 13589 0308 13       		.uleb128 0x13
 13590 0309 1C       		.uleb128 0x1c
 13591 030a 0B       		.uleb128 0xb
 13592 030b 00       		.byte	0
 13593 030c 00       		.byte	0
 13594 030d 36       		.uleb128 0x36
 13595 030e 0B       		.uleb128 0xb
 13596 030f 01       		.byte	0x1
 13597 0310 55       		.uleb128 0x55
 13598 0311 17       		.uleb128 0x17
 13599 0312 01       		.uleb128 0x1
 13600 0313 13       		.uleb128 0x13
 13601 0314 00       		.byte	0
 13602 0315 00       		.byte	0
 13603 0316 37       		.uleb128 0x37
 13604 0317 1D       		.uleb128 0x1d
 13605 0318 01       		.byte	0x1
 13606 0319 31       		.uleb128 0x31
 13607 031a 13       		.uleb128 0x13
 13608 031b 52       		.uleb128 0x52
 13609 031c 01       		.uleb128 0x1
 13610 031d B842     		.uleb128 0x2138
 13611 031f 0B       		.uleb128 0xb
 13612 0320 55       		.uleb128 0x55
 13613 0321 17       		.uleb128 0x17
 13614 0322 58       		.uleb128 0x58
 13615 0323 0B       		.uleb128 0xb
 13616 0324 59       		.uleb128 0x59
 13617 0325 05       		.uleb128 0x5
 13618 0326 57       		.uleb128 0x57
 13619 0327 0B       		.uleb128 0xb
 13620 0328 00       		.byte	0
 13621 0329 00       		.byte	0
 13622 032a 38       		.uleb128 0x38
 13623 032b 0B       		.uleb128 0xb
 13624 032c 01       		.byte	0x1
 13625 032d 55       		.uleb128 0x55
 13626 032e 17       		.uleb128 0x17
 13627 032f 00       		.byte	0
ARM GAS  /tmp/cchqCFfA.s 			page 243


 13628 0330 00       		.byte	0
 13629 0331 39       		.uleb128 0x39
 13630 0332 34       		.uleb128 0x34
 13631 0333 00       		.byte	0
 13632 0334 31       		.uleb128 0x31
 13633 0335 13       		.uleb128 0x13
 13634 0336 02       		.uleb128 0x2
 13635 0337 17       		.uleb128 0x17
 13636 0338 B742     		.uleb128 0x2137
 13637 033a 17       		.uleb128 0x17
 13638 033b 00       		.byte	0
 13639 033c 00       		.byte	0
 13640 033d 3A       		.uleb128 0x3a
 13641 033e 898201   		.uleb128 0x4109
 13642 0341 01       		.byte	0x1
 13643 0342 11       		.uleb128 0x11
 13644 0343 01       		.uleb128 0x1
 13645 0344 31       		.uleb128 0x31
 13646 0345 13       		.uleb128 0x13
 13647 0346 00       		.byte	0
 13648 0347 00       		.byte	0
 13649 0348 3B       		.uleb128 0x3b
 13650 0349 8A8201   		.uleb128 0x410a
 13651 034c 00       		.byte	0
 13652 034d 02       		.uleb128 0x2
 13653 034e 18       		.uleb128 0x18
 13654 034f 9142     		.uleb128 0x2111
 13655 0351 18       		.uleb128 0x18
 13656 0352 00       		.byte	0
 13657 0353 00       		.byte	0
 13658 0354 3C       		.uleb128 0x3c
 13659 0355 898201   		.uleb128 0x4109
 13660 0358 01       		.byte	0x1
 13661 0359 11       		.uleb128 0x11
 13662 035a 01       		.uleb128 0x1
 13663 035b 31       		.uleb128 0x31
 13664 035c 13       		.uleb128 0x13
 13665 035d 01       		.uleb128 0x1
 13666 035e 13       		.uleb128 0x13
 13667 035f 00       		.byte	0
 13668 0360 00       		.byte	0
 13669 0361 3D       		.uleb128 0x3d
 13670 0362 34       		.uleb128 0x34
 13671 0363 00       		.byte	0
 13672 0364 03       		.uleb128 0x3
 13673 0365 08       		.uleb128 0x8
 13674 0366 3A       		.uleb128 0x3a
 13675 0367 0B       		.uleb128 0xb
 13676 0368 3B       		.uleb128 0x3b
 13677 0369 05       		.uleb128 0x5
 13678 036a 39       		.uleb128 0x39
 13679 036b 0B       		.uleb128 0xb
 13680 036c 49       		.uleb128 0x49
 13681 036d 13       		.uleb128 0x13
 13682 036e 00       		.byte	0
 13683 036f 00       		.byte	0
 13684 0370 3E       		.uleb128 0x3e
ARM GAS  /tmp/cchqCFfA.s 			page 244


 13685 0371 05       		.uleb128 0x5
 13686 0372 00       		.byte	0
 13687 0373 31       		.uleb128 0x31
 13688 0374 13       		.uleb128 0x13
 13689 0375 00       		.byte	0
 13690 0376 00       		.byte	0
 13691 0377 3F       		.uleb128 0x3f
 13692 0378 898201   		.uleb128 0x4109
 13693 037b 01       		.byte	0x1
 13694 037c 11       		.uleb128 0x11
 13695 037d 01       		.uleb128 0x1
 13696 037e 9542     		.uleb128 0x2115
 13697 0380 19       		.uleb128 0x19
 13698 0381 31       		.uleb128 0x31
 13699 0382 13       		.uleb128 0x13
 13700 0383 00       		.byte	0
 13701 0384 00       		.byte	0
 13702 0385 40       		.uleb128 0x40
 13703 0386 898201   		.uleb128 0x4109
 13704 0389 00       		.byte	0
 13705 038a 11       		.uleb128 0x11
 13706 038b 01       		.uleb128 0x1
 13707 038c 9542     		.uleb128 0x2115
 13708 038e 19       		.uleb128 0x19
 13709 038f 31       		.uleb128 0x31
 13710 0390 13       		.uleb128 0x13
 13711 0391 00       		.byte	0
 13712 0392 00       		.byte	0
 13713 0393 41       		.uleb128 0x41
 13714 0394 2E       		.uleb128 0x2e
 13715 0395 01       		.byte	0x1
 13716 0396 3F       		.uleb128 0x3f
 13717 0397 19       		.uleb128 0x19
 13718 0398 03       		.uleb128 0x3
 13719 0399 0E       		.uleb128 0xe
 13720 039a 3A       		.uleb128 0x3a
 13721 039b 0B       		.uleb128 0xb
 13722 039c 3B       		.uleb128 0x3b
 13723 039d 0B       		.uleb128 0xb
 13724 039e 39       		.uleb128 0x39
 13725 039f 0B       		.uleb128 0xb
 13726 03a0 27       		.uleb128 0x27
 13727 03a1 19       		.uleb128 0x19
 13728 03a2 11       		.uleb128 0x11
 13729 03a3 01       		.uleb128 0x1
 13730 03a4 12       		.uleb128 0x12
 13731 03a5 06       		.uleb128 0x6
 13732 03a6 40       		.uleb128 0x40
 13733 03a7 18       		.uleb128 0x18
 13734 03a8 9742     		.uleb128 0x2117
 13735 03aa 19       		.uleb128 0x19
 13736 03ab 01       		.uleb128 0x1
 13737 03ac 13       		.uleb128 0x13
 13738 03ad 00       		.byte	0
 13739 03ae 00       		.byte	0
 13740 03af 42       		.uleb128 0x42
 13741 03b0 05       		.uleb128 0x5
ARM GAS  /tmp/cchqCFfA.s 			page 245


 13742 03b1 00       		.byte	0
 13743 03b2 03       		.uleb128 0x3
 13744 03b3 0E       		.uleb128 0xe
 13745 03b4 3A       		.uleb128 0x3a
 13746 03b5 0B       		.uleb128 0xb
 13747 03b6 3B       		.uleb128 0x3b
 13748 03b7 0B       		.uleb128 0xb
 13749 03b8 39       		.uleb128 0x39
 13750 03b9 0B       		.uleb128 0xb
 13751 03ba 49       		.uleb128 0x49
 13752 03bb 13       		.uleb128 0x13
 13753 03bc 02       		.uleb128 0x2
 13754 03bd 17       		.uleb128 0x17
 13755 03be B742     		.uleb128 0x2137
 13756 03c0 17       		.uleb128 0x17
 13757 03c1 00       		.byte	0
 13758 03c2 00       		.byte	0
 13759 03c3 43       		.uleb128 0x43
 13760 03c4 34       		.uleb128 0x34
 13761 03c5 00       		.byte	0
 13762 03c6 03       		.uleb128 0x3
 13763 03c7 08       		.uleb128 0x8
 13764 03c8 3A       		.uleb128 0x3a
 13765 03c9 0B       		.uleb128 0xb
 13766 03ca 3B       		.uleb128 0x3b
 13767 03cb 0B       		.uleb128 0xb
 13768 03cc 39       		.uleb128 0x39
 13769 03cd 0B       		.uleb128 0xb
 13770 03ce 49       		.uleb128 0x49
 13771 03cf 13       		.uleb128 0x13
 13772 03d0 02       		.uleb128 0x2
 13773 03d1 17       		.uleb128 0x17
 13774 03d2 B742     		.uleb128 0x2137
 13775 03d4 17       		.uleb128 0x17
 13776 03d5 00       		.byte	0
 13777 03d6 00       		.byte	0
 13778 03d7 44       		.uleb128 0x44
 13779 03d8 2E       		.uleb128 0x2e
 13780 03d9 01       		.byte	0x1
 13781 03da 3F       		.uleb128 0x3f
 13782 03db 19       		.uleb128 0x19
 13783 03dc 03       		.uleb128 0x3
 13784 03dd 0E       		.uleb128 0xe
 13785 03de 3A       		.uleb128 0x3a
 13786 03df 0B       		.uleb128 0xb
 13787 03e0 3B       		.uleb128 0x3b
 13788 03e1 0B       		.uleb128 0xb
 13789 03e2 39       		.uleb128 0x39
 13790 03e3 0B       		.uleb128 0xb
 13791 03e4 27       		.uleb128 0x27
 13792 03e5 19       		.uleb128 0x19
 13793 03e6 49       		.uleb128 0x49
 13794 03e7 13       		.uleb128 0x13
 13795 03e8 20       		.uleb128 0x20
 13796 03e9 0B       		.uleb128 0xb
 13797 03ea 01       		.uleb128 0x1
 13798 03eb 13       		.uleb128 0x13
ARM GAS  /tmp/cchqCFfA.s 			page 246


 13799 03ec 00       		.byte	0
 13800 03ed 00       		.byte	0
 13801 03ee 45       		.uleb128 0x45
 13802 03ef 05       		.uleb128 0x5
 13803 03f0 00       		.byte	0
 13804 03f1 03       		.uleb128 0x3
 13805 03f2 08       		.uleb128 0x8
 13806 03f3 3A       		.uleb128 0x3a
 13807 03f4 0B       		.uleb128 0xb
 13808 03f5 3B       		.uleb128 0x3b
 13809 03f6 0B       		.uleb128 0xb
 13810 03f7 39       		.uleb128 0x39
 13811 03f8 0B       		.uleb128 0xb
 13812 03f9 49       		.uleb128 0x49
 13813 03fa 13       		.uleb128 0x13
 13814 03fb 00       		.byte	0
 13815 03fc 00       		.byte	0
 13816 03fd 46       		.uleb128 0x46
 13817 03fe 34       		.uleb128 0x34
 13818 03ff 00       		.byte	0
 13819 0400 03       		.uleb128 0x3
 13820 0401 08       		.uleb128 0x8
 13821 0402 3A       		.uleb128 0x3a
 13822 0403 0B       		.uleb128 0xb
 13823 0404 3B       		.uleb128 0x3b
 13824 0405 0B       		.uleb128 0xb
 13825 0406 39       		.uleb128 0x39
 13826 0407 0B       		.uleb128 0xb
 13827 0408 49       		.uleb128 0x49
 13828 0409 13       		.uleb128 0x13
 13829 040a 00       		.byte	0
 13830 040b 00       		.byte	0
 13831 040c 47       		.uleb128 0x47
 13832 040d 05       		.uleb128 0x5
 13833 040e 00       		.byte	0
 13834 040f 03       		.uleb128 0x3
 13835 0410 0E       		.uleb128 0xe
 13836 0411 3A       		.uleb128 0x3a
 13837 0412 0B       		.uleb128 0xb
 13838 0413 3B       		.uleb128 0x3b
 13839 0414 0B       		.uleb128 0xb
 13840 0415 39       		.uleb128 0x39
 13841 0416 0B       		.uleb128 0xb
 13842 0417 49       		.uleb128 0x49
 13843 0418 13       		.uleb128 0x13
 13844 0419 00       		.byte	0
 13845 041a 00       		.byte	0
 13846 041b 48       		.uleb128 0x48
 13847 041c 2E       		.uleb128 0x2e
 13848 041d 01       		.byte	0x1
 13849 041e 3F       		.uleb128 0x3f
 13850 041f 19       		.uleb128 0x19
 13851 0420 03       		.uleb128 0x3
 13852 0421 0E       		.uleb128 0xe
 13853 0422 3A       		.uleb128 0x3a
 13854 0423 0B       		.uleb128 0xb
 13855 0424 3B       		.uleb128 0x3b
ARM GAS  /tmp/cchqCFfA.s 			page 247


 13856 0425 0B       		.uleb128 0xb
 13857 0426 39       		.uleb128 0x39
 13858 0427 0B       		.uleb128 0xb
 13859 0428 27       		.uleb128 0x27
 13860 0429 19       		.uleb128 0x19
 13861 042a 49       		.uleb128 0x49
 13862 042b 13       		.uleb128 0x13
 13863 042c 11       		.uleb128 0x11
 13864 042d 01       		.uleb128 0x1
 13865 042e 12       		.uleb128 0x12
 13866 042f 06       		.uleb128 0x6
 13867 0430 40       		.uleb128 0x40
 13868 0431 18       		.uleb128 0x18
 13869 0432 9742     		.uleb128 0x2117
 13870 0434 19       		.uleb128 0x19
 13871 0435 01       		.uleb128 0x1
 13872 0436 13       		.uleb128 0x13
 13873 0437 00       		.byte	0
 13874 0438 00       		.byte	0
 13875 0439 49       		.uleb128 0x49
 13876 043a 34       		.uleb128 0x34
 13877 043b 00       		.byte	0
 13878 043c 03       		.uleb128 0x3
 13879 043d 0E       		.uleb128 0xe
 13880 043e 3A       		.uleb128 0x3a
 13881 043f 0B       		.uleb128 0xb
 13882 0440 3B       		.uleb128 0x3b
 13883 0441 0B       		.uleb128 0xb
 13884 0442 39       		.uleb128 0x39
 13885 0443 0B       		.uleb128 0xb
 13886 0444 49       		.uleb128 0x49
 13887 0445 13       		.uleb128 0x13
 13888 0446 02       		.uleb128 0x2
 13889 0447 17       		.uleb128 0x17
 13890 0448 B742     		.uleb128 0x2137
 13891 044a 17       		.uleb128 0x17
 13892 044b 00       		.byte	0
 13893 044c 00       		.byte	0
 13894 044d 4A       		.uleb128 0x4a
 13895 044e 0B       		.uleb128 0xb
 13896 044f 01       		.byte	0x1
 13897 0450 00       		.byte	0
 13898 0451 00       		.byte	0
 13899 0452 4B       		.uleb128 0x4b
 13900 0453 34       		.uleb128 0x34
 13901 0454 00       		.byte	0
 13902 0455 03       		.uleb128 0x3
 13903 0456 0E       		.uleb128 0xe
 13904 0457 3A       		.uleb128 0x3a
 13905 0458 0B       		.uleb128 0xb
 13906 0459 3B       		.uleb128 0x3b
 13907 045a 0B       		.uleb128 0xb
 13908 045b 39       		.uleb128 0x39
 13909 045c 0B       		.uleb128 0xb
 13910 045d 49       		.uleb128 0x49
 13911 045e 13       		.uleb128 0x13
 13912 045f 00       		.byte	0
ARM GAS  /tmp/cchqCFfA.s 			page 248


 13913 0460 00       		.byte	0
 13914 0461 4C       		.uleb128 0x4c
 13915 0462 2E       		.uleb128 0x2e
 13916 0463 01       		.byte	0x1
 13917 0464 03       		.uleb128 0x3
 13918 0465 0E       		.uleb128 0xe
 13919 0466 3A       		.uleb128 0x3a
 13920 0467 0B       		.uleb128 0xb
 13921 0468 3B       		.uleb128 0x3b
 13922 0469 0B       		.uleb128 0xb
 13923 046a 39       		.uleb128 0x39
 13924 046b 0B       		.uleb128 0xb
 13925 046c 27       		.uleb128 0x27
 13926 046d 19       		.uleb128 0x19
 13927 046e 49       		.uleb128 0x49
 13928 046f 13       		.uleb128 0x13
 13929 0470 20       		.uleb128 0x20
 13930 0471 0B       		.uleb128 0xb
 13931 0472 01       		.uleb128 0x1
 13932 0473 13       		.uleb128 0x13
 13933 0474 00       		.byte	0
 13934 0475 00       		.byte	0
 13935 0476 4D       		.uleb128 0x4d
 13936 0477 2E       		.uleb128 0x2e
 13937 0478 01       		.byte	0x1
 13938 0479 31       		.uleb128 0x31
 13939 047a 13       		.uleb128 0x13
 13940 047b 11       		.uleb128 0x11
 13941 047c 01       		.uleb128 0x1
 13942 047d 12       		.uleb128 0x12
 13943 047e 06       		.uleb128 0x6
 13944 047f 40       		.uleb128 0x40
 13945 0480 18       		.uleb128 0x18
 13946 0481 9742     		.uleb128 0x2117
 13947 0483 19       		.uleb128 0x19
 13948 0484 01       		.uleb128 0x1
 13949 0485 13       		.uleb128 0x13
 13950 0486 00       		.byte	0
 13951 0487 00       		.byte	0
 13952 0488 4E       		.uleb128 0x4e
 13953 0489 0B       		.uleb128 0xb
 13954 048a 01       		.byte	0x1
 13955 048b 31       		.uleb128 0x31
 13956 048c 13       		.uleb128 0x13
 13957 048d 55       		.uleb128 0x55
 13958 048e 17       		.uleb128 0x17
 13959 048f 01       		.uleb128 0x1
 13960 0490 13       		.uleb128 0x13
 13961 0491 00       		.byte	0
 13962 0492 00       		.byte	0
 13963 0493 4F       		.uleb128 0x4f
 13964 0494 0B       		.uleb128 0xb
 13965 0495 01       		.byte	0x1
 13966 0496 31       		.uleb128 0x31
 13967 0497 13       		.uleb128 0x13
 13968 0498 55       		.uleb128 0x55
 13969 0499 17       		.uleb128 0x17
ARM GAS  /tmp/cchqCFfA.s 			page 249


 13970 049a 00       		.byte	0
 13971 049b 00       		.byte	0
 13972 049c 50       		.uleb128 0x50
 13973 049d 0B       		.uleb128 0xb
 13974 049e 01       		.byte	0x1
 13975 049f 31       		.uleb128 0x31
 13976 04a0 13       		.uleb128 0x13
 13977 04a1 11       		.uleb128 0x11
 13978 04a2 01       		.uleb128 0x1
 13979 04a3 12       		.uleb128 0x12
 13980 04a4 06       		.uleb128 0x6
 13981 04a5 00       		.byte	0
 13982 04a6 00       		.byte	0
 13983 04a7 51       		.uleb128 0x51
 13984 04a8 2E       		.uleb128 0x2e
 13985 04a9 00       		.byte	0
 13986 04aa 3F       		.uleb128 0x3f
 13987 04ab 19       		.uleb128 0x19
 13988 04ac 3C       		.uleb128 0x3c
 13989 04ad 19       		.uleb128 0x19
 13990 04ae 6E       		.uleb128 0x6e
 13991 04af 0E       		.uleb128 0xe
 13992 04b0 03       		.uleb128 0x3
 13993 04b1 0E       		.uleb128 0xe
 13994 04b2 00       		.byte	0
 13995 04b3 00       		.byte	0
 13996 04b4 52       		.uleb128 0x52
 13997 04b5 2E       		.uleb128 0x2e
 13998 04b6 00       		.byte	0
 13999 04b7 3F       		.uleb128 0x3f
 14000 04b8 19       		.uleb128 0x19
 14001 04b9 3C       		.uleb128 0x3c
 14002 04ba 19       		.uleb128 0x19
 14003 04bb 6E       		.uleb128 0x6e
 14004 04bc 0E       		.uleb128 0xe
 14005 04bd 03       		.uleb128 0x3
 14006 04be 0E       		.uleb128 0xe
 14007 04bf 3A       		.uleb128 0x3a
 14008 04c0 0B       		.uleb128 0xb
 14009 04c1 3B       		.uleb128 0x3b
 14010 04c2 0B       		.uleb128 0xb
 14011 04c3 39       		.uleb128 0x39
 14012 04c4 0B       		.uleb128 0xb
 14013 04c5 00       		.byte	0
 14014 04c6 00       		.byte	0
 14015 04c7 00       		.byte	0
 14016              		.section	.debug_loc,"",%progbits
 14017              	.Ldebug_loc0:
 14018              	.LVUS349:
 14019 0000 00       		.uleb128 0
 14020 0001 00       		.uleb128 .LVU1608
 14021 0002 00       		.uleb128 .LVU1608
 14022 0003 00       		.uleb128 0
 14023              	.LLST349:
 14024 0004 00000000 		.4byte	.LVL478
 14025 0008 71000000 		.4byte	.LVL487-1
 14026 000c 0100     		.2byte	0x1
ARM GAS  /tmp/cchqCFfA.s 			page 250


 14027 000e 50       		.byte	0x50
 14028 000f 71000000 		.4byte	.LVL487-1
 14029 0013 7C000000 		.4byte	.LFE29
 14030 0017 0400     		.2byte	0x4
 14031 0019 F3       		.byte	0xf3
 14032 001a 01       		.uleb128 0x1
 14033 001b 50       		.byte	0x50
 14034 001c 9F       		.byte	0x9f
 14035 001d 00000000 		.4byte	0
 14036 0021 00000000 		.4byte	0
 14037              	.LVUS350:
 14038 0025 00       		.uleb128 .LVU1578
 14039 0026 00       		.uleb128 .LVU1596
 14040 0027 01       		.uleb128 .LVU1601
 14041 0028 00       		.uleb128 .LVU1608
 14042              	.LLST350:
 14043 0029 22000000 		.4byte	.LVL480
 14044 002d 4E000000 		.4byte	.LVL485
 14045 0031 0100     		.2byte	0x1
 14046 0033 51       		.byte	0x51
 14047 0034 56000000 		.4byte	.LVL486
 14048 0038 71000000 		.4byte	.LVL487-1
 14049 003c 0100     		.2byte	0x1
 14050 003e 51       		.byte	0x51
 14051 003f 00000000 		.4byte	0
 14052 0043 00000000 		.4byte	0
 14053              	.LVUS351:
 14054 0047 00       		.uleb128 .LVU1583
 14055 0048 00       		.uleb128 .LVU1587
 14056 0049 00       		.uleb128 .LVU1587
 14057 004a 00       		.uleb128 .LVU1588
 14058 004b 00       		.uleb128 .LVU1588
 14059 004c 00       		.uleb128 .LVU1590
 14060              	.LLST351:
 14061 004d 28000000 		.4byte	.LVL481
 14062 0051 2E000000 		.4byte	.LVL482
 14063 0055 0100     		.2byte	0x1
 14064 0057 55       		.byte	0x55
 14065 0058 2E000000 		.4byte	.LVL482
 14066 005c 30000000 		.4byte	.LVL483
 14067 0060 0700     		.2byte	0x7
 14068 0062 73       		.byte	0x73
 14069 0063 00       		.sleb128 0
 14070 0064 31       		.byte	0x31
 14071 0065 24       		.byte	0x24
 14072 0066 74       		.byte	0x74
 14073 0067 00       		.sleb128 0
 14074 0068 22       		.byte	0x22
 14075 0069 30000000 		.4byte	.LVL483
 14076 006d 36000000 		.4byte	.LVL484
 14077 0071 0B00     		.2byte	0xb
 14078 0073 72       		.byte	0x72
 14079 0074 01       		.sleb128 1
 14080 0075 40       		.byte	0x40
 14081 0076 24       		.byte	0x24
 14082 0077 40       		.byte	0x40
 14083 0078 26       		.byte	0x26
ARM GAS  /tmp/cchqCFfA.s 			page 251


 14084 0079 31       		.byte	0x31
 14085 007a 24       		.byte	0x24
 14086 007b 74       		.byte	0x74
 14087 007c 00       		.sleb128 0
 14088 007d 22       		.byte	0x22
 14089 007e 00000000 		.4byte	0
 14090 0082 00000000 		.4byte	0
 14091              	.LVUS352:
 14092 0086 02       		.uleb128 .LVU1585
 14093 0087 00       		.uleb128 .LVU1590
 14094              	.LLST352:
 14095 0088 28000000 		.4byte	.LVL481
 14096 008c 36000000 		.4byte	.LVL484
 14097 0090 0200     		.2byte	0x2
 14098 0092 30       		.byte	0x30
 14099 0093 9F       		.byte	0x9f
 14100 0094 00000000 		.4byte	0
 14101 0098 00000000 		.4byte	0
 14102              	.LVUS353:
 14103 009c 02       		.uleb128 .LVU1575
 14104 009d 00       		.uleb128 .LVU1608
 14105 009e 00       		.uleb128 .LVU1608
 14106 009f 00       		.uleb128 0
 14107              	.LLST353:
 14108 00a0 16000000 		.4byte	.LVL479
 14109 00a4 71000000 		.4byte	.LVL487-1
 14110 00a8 0100     		.2byte	0x1
 14111 00aa 50       		.byte	0x50
 14112 00ab 71000000 		.4byte	.LVL487-1
 14113 00af 7C000000 		.4byte	.LFE29
 14114 00b3 0400     		.2byte	0x4
 14115 00b5 F3       		.byte	0xf3
 14116 00b6 01       		.uleb128 0x1
 14117 00b7 50       		.byte	0x50
 14118 00b8 9F       		.byte	0x9f
 14119 00b9 00000000 		.4byte	0
 14120 00bd 00000000 		.4byte	0
 14121              	.LVUS354:
 14122 00c1 02       		.uleb128 .LVU1575
 14123 00c2 00       		.uleb128 .LVU1608
 14124 00c3 00       		.uleb128 .LVU1608
 14125 00c4 00       		.uleb128 0
 14126              	.LLST354:
 14127 00c5 16000000 		.4byte	.LVL479
 14128 00c9 71000000 		.4byte	.LVL487-1
 14129 00cd 0100     		.2byte	0x1
 14130 00cf 50       		.byte	0x50
 14131 00d0 71000000 		.4byte	.LVL487-1
 14132 00d4 7C000000 		.4byte	.LFE29
 14133 00d8 0400     		.2byte	0x4
 14134 00da F3       		.byte	0xf3
 14135 00db 01       		.uleb128 0x1
 14136 00dc 50       		.byte	0x50
 14137 00dd 9F       		.byte	0x9f
 14138 00de 00000000 		.4byte	0
 14139 00e2 00000000 		.4byte	0
 14140              	.LVUS355:
ARM GAS  /tmp/cchqCFfA.s 			page 252


 14141 00e6 02       		.uleb128 .LVU1580
 14142 00e7 00       		.uleb128 .LVU1608
 14143 00e8 00       		.uleb128 .LVU1608
 14144 00e9 00       		.uleb128 0
 14145              	.LLST355:
 14146 00ea 22000000 		.4byte	.LVL480
 14147 00ee 71000000 		.4byte	.LVL487-1
 14148 00f2 0100     		.2byte	0x1
 14149 00f4 50       		.byte	0x50
 14150 00f5 71000000 		.4byte	.LVL487-1
 14151 00f9 7C000000 		.4byte	.LFE29
 14152 00fd 0400     		.2byte	0x4
 14153 00ff F3       		.byte	0xf3
 14154 0100 01       		.uleb128 0x1
 14155 0101 50       		.byte	0x50
 14156 0102 9F       		.byte	0x9f
 14157 0103 00000000 		.4byte	0
 14158 0107 00000000 		.4byte	0
 14159              	.LVUS356:
 14160 010b 02       		.uleb128 .LVU1580
 14161 010c 00       		.uleb128 .LVU1608
 14162 010d 00       		.uleb128 .LVU1608
 14163 010e 00       		.uleb128 0
 14164              	.LLST356:
 14165 010f 22000000 		.4byte	.LVL480
 14166 0113 71000000 		.4byte	.LVL487-1
 14167 0117 0100     		.2byte	0x1
 14168 0119 50       		.byte	0x50
 14169 011a 71000000 		.4byte	.LVL487-1
 14170 011e 7C000000 		.4byte	.LFE29
 14171 0122 0400     		.2byte	0x4
 14172 0124 F3       		.byte	0xf3
 14173 0125 01       		.uleb128 0x1
 14174 0126 50       		.byte	0x50
 14175 0127 9F       		.byte	0x9f
 14176 0128 00000000 		.4byte	0
 14177 012c 00000000 		.4byte	0
 14178              	.LVUS348:
 14179 0130 00       		.uleb128 0
 14180 0131 00       		.uleb128 .LVU1551
 14181 0132 00       		.uleb128 .LVU1551
 14182 0133 00       		.uleb128 0
 14183              	.LLST348:
 14184 0134 00000000 		.4byte	.LVL475
 14185 0138 25000000 		.4byte	.LVL476-1
 14186 013c 0100     		.2byte	0x1
 14187 013e 50       		.byte	0x50
 14188 013f 25000000 		.4byte	.LVL476-1
 14189 0143 30000000 		.4byte	.LFE27
 14190 0147 0400     		.2byte	0x4
 14191 0149 F3       		.byte	0xf3
 14192 014a 01       		.uleb128 0x1
 14193 014b 50       		.byte	0x50
 14194 014c 9F       		.byte	0x9f
 14195 014d 00000000 		.4byte	0
 14196 0151 00000000 		.4byte	0
 14197              	.LVUS327:
ARM GAS  /tmp/cchqCFfA.s 			page 253


 14198 0155 00       		.uleb128 0
 14199 0156 00       		.uleb128 .LVU1455
 14200 0157 00       		.uleb128 .LVU1455
 14201 0158 00       		.uleb128 0
 14202              	.LLST327:
 14203 0159 00000000 		.4byte	.LVL437
 14204 015d 46000000 		.4byte	.LVL443
 14205 0161 0100     		.2byte	0x1
 14206 0163 50       		.byte	0x50
 14207 0164 46000000 		.4byte	.LVL443
 14208 0168 4C010000 		.4byte	.LFE26
 14209 016c 0400     		.2byte	0x4
 14210 016e F3       		.byte	0xf3
 14211 016f 01       		.uleb128 0x1
 14212 0170 50       		.byte	0x50
 14213 0171 9F       		.byte	0x9f
 14214 0172 00000000 		.4byte	0
 14215 0176 00000000 		.4byte	0
 14216              	.LVUS328:
 14217 017a 00       		.uleb128 .LVU1428
 14218 017b 00       		.uleb128 .LVU1542
 14219              	.LLST328:
 14220 017c 2A000000 		.4byte	.LVL439
 14221 0180 45010000 		.4byte	.LVL474-1
 14222 0184 0100     		.2byte	0x1
 14223 0186 5C       		.byte	0x5c
 14224 0187 00000000 		.4byte	0
 14225 018b 00000000 		.4byte	0
 14226              	.LVUS329:
 14227 018f 00       		.uleb128 .LVU1433
 14228 0190 00       		.uleb128 0
 14229              	.LLST329:
 14230 0191 32000000 		.4byte	.LVL440
 14231 0195 4C010000 		.4byte	.LFE26
 14232 0199 0100     		.2byte	0x1
 14233 019b 55       		.byte	0x55
 14234 019c 00000000 		.4byte	0
 14235 01a0 00000000 		.4byte	0
 14236              	.LVUS330:
 14237 01a4 00       		.uleb128 .LVU1438
 14238 01a5 00       		.uleb128 .LVU1464
 14239 01a6 00       		.uleb128 .LVU1501
 14240 01a7 01       		.uleb128 .LVU1505
 14241              	.LLST330:
 14242 01a8 3A000000 		.4byte	.LVL441
 14243 01ac 62000000 		.4byte	.LVL446
 14244 01b0 0100     		.2byte	0x1
 14245 01b2 57       		.byte	0x57
 14246 01b3 E0000000 		.4byte	.LVL458
 14247 01b7 E6000000 		.4byte	.LVL460
 14248 01bb 0100     		.2byte	0x1
 14249 01bd 57       		.byte	0x57
 14250 01be 00000000 		.4byte	0
 14251 01c2 00000000 		.4byte	0
 14252              	.LVUS331:
 14253 01c6 00       		.uleb128 .LVU1445
 14254 01c7 00       		.uleb128 .LVU1503
ARM GAS  /tmp/cchqCFfA.s 			page 254


 14255 01c8 00       		.uleb128 .LVU1506
 14256 01c9 00       		.uleb128 .LVU1513
 14257 01ca 00       		.uleb128 .LVU1516
 14258 01cb 00       		.uleb128 .LVU1527
 14259 01cc 00       		.uleb128 .LVU1534
 14260 01cd 00       		.uleb128 .LVU1539
 14261              	.LLST331:
 14262 01ce 42000000 		.4byte	.LVL442
 14263 01d2 E2000000 		.4byte	.LVL459
 14264 01d6 0100     		.2byte	0x1
 14265 01d8 53       		.byte	0x53
 14266 01d9 F6000000 		.4byte	.LVL461
 14267 01dd 02010000 		.4byte	.LVL464
 14268 01e1 0100     		.2byte	0x1
 14269 01e3 53       		.byte	0x53
 14270 01e4 0C010000 		.4byte	.LVL465
 14271 01e8 22010000 		.4byte	.LVL470
 14272 01ec 0100     		.2byte	0x1
 14273 01ee 53       		.byte	0x53
 14274 01ef 32010000 		.4byte	.LVL471
 14275 01f3 3C010000 		.4byte	.LVL473
 14276 01f7 0100     		.2byte	0x1
 14277 01f9 53       		.byte	0x53
 14278 01fa 00000000 		.4byte	0
 14279 01fe 00000000 		.4byte	0
 14280              	.LVUS332:
 14281 0202 01       		.uleb128 .LVU1446
 14282 0203 00       		.uleb128 .LVU1464
 14283 0204 00       		.uleb128 .LVU1501
 14284 0205 00       		.uleb128 .LVU1504
 14285              	.LLST332:
 14286 0206 42000000 		.4byte	.LVL442
 14287 020a 62000000 		.4byte	.LVL446
 14288 020e 0B00     		.2byte	0xb
 14289 0210 77       		.byte	0x77
 14290 0211 00       		.sleb128 0
 14291 0212 0A       		.byte	0xa
 14292 0213 FFFF     		.2byte	0xffff
 14293 0215 1A       		.byte	0x1a
 14294 0216 31       		.byte	0x31
 14295 0217 24       		.byte	0x24
 14296 0218 74       		.byte	0x74
 14297 0219 00       		.sleb128 0
 14298 021a 22       		.byte	0x22
 14299 021b E0000000 		.4byte	.LVL458
 14300 021f E6000000 		.4byte	.LVL460
 14301 0223 0B00     		.2byte	0xb
 14302 0225 77       		.byte	0x77
 14303 0226 00       		.sleb128 0
 14304 0227 0A       		.byte	0xa
 14305 0228 FFFF     		.2byte	0xffff
 14306 022a 1A       		.byte	0x1a
 14307 022b 31       		.byte	0x31
 14308 022c 24       		.byte	0x24
 14309 022d 74       		.byte	0x74
 14310 022e 00       		.sleb128 0
 14311 022f 22       		.byte	0x22
ARM GAS  /tmp/cchqCFfA.s 			page 255


 14312 0230 00000000 		.4byte	0
 14313 0234 00000000 		.4byte	0
 14314              	.LVUS333:
 14315 0238 00       		.uleb128 .LVU1473
 14316 0239 00       		.uleb128 .LVU1477
 14317 023a 00       		.uleb128 .LVU1477
 14318 023b 00       		.uleb128 .LVU1492
 14319 023c 00       		.uleb128 .LVU1492
 14320 023d 00       		.uleb128 .LVU1493
 14321 023e 00       		.uleb128 .LVU1494
 14322 023f 00       		.uleb128 .LVU1501
 14323 0240 00       		.uleb128 .LVU1506
 14324 0241 00       		.uleb128 .LVU1511
 14325 0242 00       		.uleb128 .LVU1516
 14326 0243 00       		.uleb128 .LVU1522
 14327              	.LLST333:
 14328 0244 86000000 		.4byte	.LVL449
 14329 0248 88000000 		.4byte	.LVL450
 14330 024c 0100     		.2byte	0x1
 14331 024e 51       		.byte	0x51
 14332 024f 88000000 		.4byte	.LVL450
 14333 0253 C0000000 		.4byte	.LVL454
 14334 0257 0100     		.2byte	0x1
 14335 0259 58       		.byte	0x58
 14336 025a C0000000 		.4byte	.LVL454
 14337 025e C2000000 		.4byte	.LVL455
 14338 0262 0100     		.2byte	0x1
 14339 0264 51       		.byte	0x51
 14340 0265 C4000000 		.4byte	.LVL456
 14341 0269 E0000000 		.4byte	.LVL458
 14342 026d 0100     		.2byte	0x1
 14343 026f 51       		.byte	0x51
 14344 0270 F6000000 		.4byte	.LVL461
 14345 0274 FE000000 		.4byte	.LVL463
 14346 0278 0100     		.2byte	0x1
 14347 027a 58       		.byte	0x58
 14348 027b 0C010000 		.4byte	.LVL465
 14349 027f 1C010000 		.4byte	.LVL468
 14350 0283 0100     		.2byte	0x1
 14351 0285 58       		.byte	0x58
 14352 0286 00000000 		.4byte	0
 14353 028a 00000000 		.4byte	0
 14354              	.LVUS334:
 14355 028e 02       		.uleb128 .LVU1475
 14356 028f 00       		.uleb128 .LVU1490
 14357 0290 00       		.uleb128 .LVU1506
 14358 0291 00       		.uleb128 .LVU1511
 14359 0292 00       		.uleb128 .LVU1516
 14360 0293 00       		.uleb128 .LVU1519
 14361              	.LLST334:
 14362 0294 86000000 		.4byte	.LVL449
 14363 0298 BA000000 		.4byte	.LVL453
 14364 029c 0100     		.2byte	0x1
 14365 029e 51       		.byte	0x51
 14366 029f F6000000 		.4byte	.LVL461
 14367 02a3 FE000000 		.4byte	.LVL463
 14368 02a7 0100     		.2byte	0x1
ARM GAS  /tmp/cchqCFfA.s 			page 256


 14369 02a9 51       		.byte	0x51
 14370 02aa 0C010000 		.4byte	.LVL465
 14371 02ae 0E010000 		.4byte	.LVL466
 14372 02b2 0100     		.2byte	0x1
 14373 02b4 51       		.byte	0x51
 14374 02b5 00000000 		.4byte	0
 14375 02b9 00000000 		.4byte	0
 14376              	.LVUS335:
 14377 02bd 00       		.uleb128 .LVU1473
 14378 02be 00       		.uleb128 .LVU1501
 14379 02bf 00       		.uleb128 .LVU1506
 14380 02c0 00       		.uleb128 .LVU1511
 14381 02c1 00       		.uleb128 .LVU1516
 14382 02c2 01       		.uleb128 .LVU1517
 14383 02c3 01       		.uleb128 .LVU1517
 14384 02c4 00       		.uleb128 .LVU1522
 14385              	.LLST335:
 14386 02c5 86000000 		.4byte	.LVL449
 14387 02c9 E0000000 		.4byte	.LVL458
 14388 02cd 0100     		.2byte	0x1
 14389 02cf 56       		.byte	0x56
 14390 02d0 F6000000 		.4byte	.LVL461
 14391 02d4 FE000000 		.4byte	.LVL463
 14392 02d8 0100     		.2byte	0x1
 14393 02da 56       		.byte	0x56
 14394 02db 0C010000 		.4byte	.LVL465
 14395 02df 0C010000 		.4byte	.LVL465
 14396 02e3 0100     		.2byte	0x1
 14397 02e5 56       		.byte	0x56
 14398 02e6 0C010000 		.4byte	.LVL465
 14399 02ea 1C010000 		.4byte	.LVL468
 14400 02ee 0100     		.2byte	0x1
 14401 02f0 50       		.byte	0x50
 14402 02f1 00000000 		.4byte	0
 14403 02f5 00000000 		.4byte	0
 14404              	.LVUS336:
 14405 02f9 00       		.uleb128 .LVU1521
 14406 02fa 00       		.uleb128 .LVU1522
 14407              	.LLST336:
 14408 02fb 16010000 		.4byte	.LVL467
 14409 02ff 1C010000 		.4byte	.LVL468
 14410 0303 0100     		.2byte	0x1
 14411 0305 57       		.byte	0x57
 14412 0306 00000000 		.4byte	0
 14413 030a 00000000 		.4byte	0
 14414              	.LVUS337:
 14415 030e 00       		.uleb128 .LVU1487
 14416 030f 00       		.uleb128 .LVU1492
 14417 0310 00       		.uleb128 .LVU1509
 14418 0311 00       		.uleb128 .LVU1511
 14419 0312 00       		.uleb128 .LVU1516
 14420 0313 00       		.uleb128 .LVU1522
 14421              	.LLST337:
 14422 0314 B4000000 		.4byte	.LVL452
 14423 0318 C0000000 		.4byte	.LVL454
 14424 031c 0100     		.2byte	0x1
 14425 031e 50       		.byte	0x50
ARM GAS  /tmp/cchqCFfA.s 			page 257


 14426 031f FA000000 		.4byte	.LVL462
 14427 0323 FE000000 		.4byte	.LVL463
 14428 0327 0100     		.2byte	0x1
 14429 0329 50       		.byte	0x50
 14430 032a 0C010000 		.4byte	.LVL465
 14431 032e 1C010000 		.4byte	.LVL468
 14432 0332 0100     		.2byte	0x1
 14433 0334 50       		.byte	0x50
 14434 0335 00000000 		.4byte	0
 14435 0339 00000000 		.4byte	0
 14436              	.LVUS338:
 14437 033d 08       		.uleb128 .LVU1453
 14438 033e 00       		.uleb128 .LVU1455
 14439 033f 01       		.uleb128 .LVU1456
 14440 0340 00       		.uleb128 .LVU1457
 14441 0341 00       		.uleb128 .LVU1457
 14442 0342 00       		.uleb128 .LVU1458
 14443 0343 00       		.uleb128 .LVU1464
 14444 0344 00       		.uleb128 .LVU1465
 14445 0345 00       		.uleb128 .LVU1466
 14446 0346 00       		.uleb128 .LVU1501
 14447 0347 00       		.uleb128 .LVU1501
 14448 0348 01       		.uleb128 .LVU1505
 14449 0349 00       		.uleb128 .LVU1506
 14450 034a 00       		.uleb128 .LVU1538
 14451              	.LLST338:
 14452 034b 42000000 		.4byte	.LVL442
 14453 034f 46000000 		.4byte	.LVL443
 14454 0353 0200     		.2byte	0x2
 14455 0355 30       		.byte	0x30
 14456 0356 9F       		.byte	0x9f
 14457 0357 46000000 		.4byte	.LVL443
 14458 035b 48000000 		.4byte	.LVL444
 14459 035f 0300     		.2byte	0x3
 14460 0361 72       		.byte	0x72
 14461 0362 01       		.sleb128 1
 14462 0363 9F       		.byte	0x9f
 14463 0364 48000000 		.4byte	.LVL444
 14464 0368 4E000000 		.4byte	.LVL445
 14465 036c 0300     		.2byte	0x3
 14466 036e 70       		.byte	0x70
 14467 036f 01       		.sleb128 1
 14468 0370 9F       		.byte	0x9f
 14469 0371 62000000 		.4byte	.LVL446
 14470 0375 64000000 		.4byte	.LVL447
 14471 0379 0100     		.2byte	0x1
 14472 037b 52       		.byte	0x52
 14473 037c 66000000 		.4byte	.LVL448
 14474 0380 E0000000 		.4byte	.LVL458
 14475 0384 0100     		.2byte	0x1
 14476 0386 52       		.byte	0x52
 14477 0387 E0000000 		.4byte	.LVL458
 14478 038b E6000000 		.4byte	.LVL460
 14479 038f 0300     		.2byte	0x3
 14480 0391 70       		.byte	0x70
 14481 0392 01       		.sleb128 1
 14482 0393 9F       		.byte	0x9f
ARM GAS  /tmp/cchqCFfA.s 			page 258


 14483 0394 F6000000 		.4byte	.LVL461
 14484 0398 38010000 		.4byte	.LVL472
 14485 039c 0100     		.2byte	0x1
 14486 039e 52       		.byte	0x52
 14487 039f 00000000 		.4byte	0
 14488 03a3 00000000 		.4byte	0
 14489              	.LVUS347:
 14490 03a7 01       		.uleb128 .LVU1525
 14491 03a8 00       		.uleb128 .LVU1534
 14492              	.LLST347:
 14493 03a9 20010000 		.4byte	.LVL469
 14494 03ad 32010000 		.4byte	.LVL471
 14495 03b1 0300     		.2byte	0x3
 14496 03b3 71       		.byte	0x71
 14497 03b4 7F       		.sleb128 -1
 14498 03b5 9F       		.byte	0x9f
 14499 03b6 00000000 		.4byte	0
 14500 03ba 00000000 		.4byte	0
 14501              	.LVUS339:
 14502 03be 02       		.uleb128 .LVU1425
 14503 03bf 00       		.uleb128 .LVU1455
 14504 03c0 00       		.uleb128 .LVU1455
 14505 03c1 00       		.uleb128 0
 14506              	.LLST339:
 14507 03c2 18000000 		.4byte	.LVL438
 14508 03c6 46000000 		.4byte	.LVL443
 14509 03ca 0100     		.2byte	0x1
 14510 03cc 50       		.byte	0x50
 14511 03cd 46000000 		.4byte	.LVL443
 14512 03d1 4C010000 		.4byte	.LFE26
 14513 03d5 0400     		.2byte	0x4
 14514 03d7 F3       		.byte	0xf3
 14515 03d8 01       		.uleb128 0x1
 14516 03d9 50       		.byte	0x50
 14517 03da 9F       		.byte	0x9f
 14518 03db 00000000 		.4byte	0
 14519 03df 00000000 		.4byte	0
 14520              	.LVUS340:
 14521 03e3 02       		.uleb128 .LVU1425
 14522 03e4 00       		.uleb128 .LVU1455
 14523 03e5 00       		.uleb128 .LVU1455
 14524 03e6 00       		.uleb128 0
 14525              	.LLST340:
 14526 03e7 18000000 		.4byte	.LVL438
 14527 03eb 46000000 		.4byte	.LVL443
 14528 03ef 0100     		.2byte	0x1
 14529 03f1 50       		.byte	0x50
 14530 03f2 46000000 		.4byte	.LVL443
 14531 03f6 4C010000 		.4byte	.LFE26
 14532 03fa 0400     		.2byte	0x4
 14533 03fc F3       		.byte	0xf3
 14534 03fd 01       		.uleb128 0x1
 14535 03fe 50       		.byte	0x50
 14536 03ff 9F       		.byte	0x9f
 14537 0400 00000000 		.4byte	0
 14538 0404 00000000 		.4byte	0
 14539              	.LVUS341:
ARM GAS  /tmp/cchqCFfA.s 			page 259


 14540 0408 02       		.uleb128 .LVU1430
 14541 0409 00       		.uleb128 .LVU1455
 14542 040a 00       		.uleb128 .LVU1455
 14543 040b 00       		.uleb128 0
 14544              	.LLST341:
 14545 040c 2A000000 		.4byte	.LVL439
 14546 0410 46000000 		.4byte	.LVL443
 14547 0414 0100     		.2byte	0x1
 14548 0416 50       		.byte	0x50
 14549 0417 46000000 		.4byte	.LVL443
 14550 041b 4C010000 		.4byte	.LFE26
 14551 041f 0400     		.2byte	0x4
 14552 0421 F3       		.byte	0xf3
 14553 0422 01       		.uleb128 0x1
 14554 0423 50       		.byte	0x50
 14555 0424 9F       		.byte	0x9f
 14556 0425 00000000 		.4byte	0
 14557 0429 00000000 		.4byte	0
 14558              	.LVUS342:
 14559 042d 02       		.uleb128 .LVU1430
 14560 042e 00       		.uleb128 .LVU1455
 14561 042f 00       		.uleb128 .LVU1455
 14562 0430 00       		.uleb128 0
 14563              	.LLST342:
 14564 0431 2A000000 		.4byte	.LVL439
 14565 0435 46000000 		.4byte	.LVL443
 14566 0439 0100     		.2byte	0x1
 14567 043b 50       		.byte	0x50
 14568 043c 46000000 		.4byte	.LVL443
 14569 0440 4C010000 		.4byte	.LFE26
 14570 0444 0400     		.2byte	0x4
 14571 0446 F3       		.byte	0xf3
 14572 0447 01       		.uleb128 0x1
 14573 0448 50       		.byte	0x50
 14574 0449 9F       		.byte	0x9f
 14575 044a 00000000 		.4byte	0
 14576 044e 00000000 		.4byte	0
 14577              	.LVUS343:
 14578 0452 02       		.uleb128 .LVU1435
 14579 0453 00       		.uleb128 .LVU1455
 14580 0454 00       		.uleb128 .LVU1455
 14581 0455 00       		.uleb128 0
 14582              	.LLST343:
 14583 0456 32000000 		.4byte	.LVL440
 14584 045a 46000000 		.4byte	.LVL443
 14585 045e 0100     		.2byte	0x1
 14586 0460 50       		.byte	0x50
 14587 0461 46000000 		.4byte	.LVL443
 14588 0465 4C010000 		.4byte	.LFE26
 14589 0469 0400     		.2byte	0x4
 14590 046b F3       		.byte	0xf3
 14591 046c 01       		.uleb128 0x1
 14592 046d 50       		.byte	0x50
 14593 046e 9F       		.byte	0x9f
 14594 046f 00000000 		.4byte	0
 14595 0473 00000000 		.4byte	0
 14596              	.LVUS344:
ARM GAS  /tmp/cchqCFfA.s 			page 260


 14597 0477 02       		.uleb128 .LVU1435
 14598 0478 00       		.uleb128 .LVU1455
 14599 0479 00       		.uleb128 .LVU1455
 14600 047a 00       		.uleb128 0
 14601              	.LLST344:
 14602 047b 32000000 		.4byte	.LVL440
 14603 047f 46000000 		.4byte	.LVL443
 14604 0483 0100     		.2byte	0x1
 14605 0485 50       		.byte	0x50
 14606 0486 46000000 		.4byte	.LVL443
 14607 048a 4C010000 		.4byte	.LFE26
 14608 048e 0400     		.2byte	0x4
 14609 0490 F3       		.byte	0xf3
 14610 0491 01       		.uleb128 0x1
 14611 0492 50       		.byte	0x50
 14612 0493 9F       		.byte	0x9f
 14613 0494 00000000 		.4byte	0
 14614 0498 00000000 		.4byte	0
 14615              	.LVUS345:
 14616 049c 03       		.uleb128 .LVU1441
 14617 049d 00       		.uleb128 .LVU1455
 14618 049e 00       		.uleb128 .LVU1455
 14619 049f 00       		.uleb128 0
 14620              	.LLST345:
 14621 04a0 3A000000 		.4byte	.LVL441
 14622 04a4 46000000 		.4byte	.LVL443
 14623 04a8 0100     		.2byte	0x1
 14624 04aa 50       		.byte	0x50
 14625 04ab 46000000 		.4byte	.LVL443
 14626 04af 4C010000 		.4byte	.LFE26
 14627 04b3 0400     		.2byte	0x4
 14628 04b5 F3       		.byte	0xf3
 14629 04b6 01       		.uleb128 0x1
 14630 04b7 50       		.byte	0x50
 14631 04b8 9F       		.byte	0x9f
 14632 04b9 00000000 		.4byte	0
 14633 04bd 00000000 		.4byte	0
 14634              	.LVUS346:
 14635 04c1 03       		.uleb128 .LVU1441
 14636 04c2 00       		.uleb128 .LVU1455
 14637 04c3 00       		.uleb128 .LVU1455
 14638 04c4 00       		.uleb128 0
 14639              	.LLST346:
 14640 04c5 3A000000 		.4byte	.LVL441
 14641 04c9 46000000 		.4byte	.LVL443
 14642 04cd 0100     		.2byte	0x1
 14643 04cf 50       		.byte	0x50
 14644 04d0 46000000 		.4byte	.LVL443
 14645 04d4 4C010000 		.4byte	.LFE26
 14646 04d8 0400     		.2byte	0x4
 14647 04da F3       		.byte	0xf3
 14648 04db 01       		.uleb128 0x1
 14649 04dc 50       		.byte	0x50
 14650 04dd 9F       		.byte	0x9f
 14651 04de 00000000 		.4byte	0
 14652 04e2 00000000 		.4byte	0
 14653              	.LVUS312:
ARM GAS  /tmp/cchqCFfA.s 			page 261


 14654 04e6 00       		.uleb128 0
 14655 04e7 00       		.uleb128 .LVU1415
 14656 04e8 00       		.uleb128 .LVU1415
 14657 04e9 00       		.uleb128 0
 14658              	.LLST312:
 14659 04ea 00000000 		.4byte	.LVL412
 14660 04ee AB000000 		.4byte	.LVL436-1
 14661 04f2 0100     		.2byte	0x1
 14662 04f4 50       		.byte	0x50
 14663 04f5 AB000000 		.4byte	.LVL436-1
 14664 04f9 B0000000 		.4byte	.LFE25
 14665 04fd 0400     		.2byte	0x4
 14666 04ff F3       		.byte	0xf3
 14667 0500 01       		.uleb128 0x1
 14668 0501 50       		.byte	0x50
 14669 0502 9F       		.byte	0x9f
 14670 0503 00000000 		.4byte	0
 14671 0507 00000000 		.4byte	0
 14672              	.LVUS313:
 14673 050b 00       		.uleb128 .LVU1350
 14674 050c 00       		.uleb128 .LVU1366
 14675              	.LLST313:
 14676 050d 26000000 		.4byte	.LVL414
 14677 0511 42000000 		.4byte	.LVL418
 14678 0515 0100     		.2byte	0x1
 14679 0517 5E       		.byte	0x5e
 14680 0518 00000000 		.4byte	0
 14681 051c 00000000 		.4byte	0
 14682              	.LVUS314:
 14683 0520 00       		.uleb128 .LVU1355
 14684 0521 00       		.uleb128 .LVU1369
 14685 0522 00       		.uleb128 .LVU1371
 14686 0523 00       		.uleb128 0
 14687              	.LLST314:
 14688 0524 2E000000 		.4byte	.LVL415
 14689 0528 4A000000 		.4byte	.LVL419
 14690 052c 0100     		.2byte	0x1
 14691 052e 56       		.byte	0x56
 14692 052f 56000000 		.4byte	.LVL420
 14693 0533 B0000000 		.4byte	.LFE25
 14694 0537 0100     		.2byte	0x1
 14695 0539 56       		.byte	0x56
 14696 053a 00000000 		.4byte	0
 14697 053e 00000000 		.4byte	0
 14698              	.LVUS315:
 14699 0542 00       		.uleb128 .LVU1361
 14700 0543 00       		.uleb128 .LVU1365
 14701 0544 00       		.uleb128 .LVU1365
 14702 0545 00       		.uleb128 .LVU1366
 14703              	.LLST315:
 14704 0546 34000000 		.4byte	.LVL416
 14705 054a 3A000000 		.4byte	.LVL417
 14706 054e 0100     		.2byte	0x1
 14707 0550 52       		.byte	0x52
 14708 0551 3A000000 		.4byte	.LVL417
 14709 0555 42000000 		.4byte	.LVL418
 14710 0559 1100     		.2byte	0x11
ARM GAS  /tmp/cchqCFfA.s 			page 262


 14711 055b 75       		.byte	0x75
 14712 055c 00       		.sleb128 0
 14713 055d 0A       		.byte	0xa
 14714 055e FFFF     		.2byte	0xffff
 14715 0560 1A       		.byte	0x1a
 14716 0561 32       		.byte	0x32
 14717 0562 1C       		.byte	0x1c
 14718 0563 40       		.byte	0x40
 14719 0564 24       		.byte	0x24
 14720 0565 40       		.byte	0x40
 14721 0566 26       		.byte	0x26
 14722 0567 31       		.byte	0x31
 14723 0568 24       		.byte	0x24
 14724 0569 74       		.byte	0x74
 14725 056a 00       		.sleb128 0
 14726 056b 22       		.byte	0x22
 14727 056c 00000000 		.4byte	0
 14728 0570 00000000 		.4byte	0
 14729              	.LVUS322:
 14730 0574 00       		.uleb128 .LVU1371
 14731 0575 00       		.uleb128 .LVU1385
 14732 0576 00       		.uleb128 .LVU1412
 14733 0577 00       		.uleb128 .LVU1413
 14734              	.LLST322:
 14735 0578 56000000 		.4byte	.LVL420
 14736 057c 68000000 		.4byte	.LVL424
 14737 0580 0100     		.2byte	0x1
 14738 0582 51       		.byte	0x51
 14739 0583 A4000000 		.4byte	.LVL434
 14740 0587 A8000000 		.4byte	.LVL435
 14741 058b 0100     		.2byte	0x1
 14742 058d 51       		.byte	0x51
 14743 058e 00000000 		.4byte	0
 14744 0592 00000000 		.4byte	0
 14745              	.LVUS323:
 14746 0596 01       		.uleb128 .LVU1372
 14747 0597 00       		.uleb128 .LVU1385
 14748 0598 00       		.uleb128 .LVU1412
 14749 0599 00       		.uleb128 .LVU1413
 14750              	.LLST323:
 14751 059a 56000000 		.4byte	.LVL420
 14752 059e 68000000 		.4byte	.LVL424
 14753 05a2 0100     		.2byte	0x1
 14754 05a4 51       		.byte	0x51
 14755 05a5 A4000000 		.4byte	.LVL434
 14756 05a9 A8000000 		.4byte	.LVL435
 14757 05ad 0100     		.2byte	0x1
 14758 05af 51       		.byte	0x51
 14759 05b0 00000000 		.4byte	0
 14760 05b4 00000000 		.4byte	0
 14761              	.LVUS324:
 14762 05b8 03       		.uleb128 .LVU1374
 14763 05b9 00       		.uleb128 .LVU1384
 14764 05ba 00       		.uleb128 .LVU1385
 14765 05bb 00       		.uleb128 .LVU1388
 14766 05bc 00       		.uleb128 .LVU1391
 14767 05bd 01       		.uleb128 .LVU1404
ARM GAS  /tmp/cchqCFfA.s 			page 263


 14768 05be 00       		.uleb128 .LVU1412
 14769 05bf 00       		.uleb128 .LVU1413
 14770              	.LLST324:
 14771 05c0 56000000 		.4byte	.LVL420
 14772 05c4 64000000 		.4byte	.LVL423
 14773 05c8 0100     		.2byte	0x1
 14774 05ca 51       		.byte	0x51
 14775 05cb 68000000 		.4byte	.LVL424
 14776 05cf 6E000000 		.4byte	.LVL425
 14777 05d3 0100     		.2byte	0x1
 14778 05d5 51       		.byte	0x51
 14779 05d6 76000000 		.4byte	.LVL428
 14780 05da 88000000 		.4byte	.LVL433
 14781 05de 0100     		.2byte	0x1
 14782 05e0 51       		.byte	0x51
 14783 05e1 A4000000 		.4byte	.LVL434
 14784 05e5 A8000000 		.4byte	.LVL435
 14785 05e9 0100     		.2byte	0x1
 14786 05eb 51       		.byte	0x51
 14787 05ec 00000000 		.4byte	0
 14788 05f0 00000000 		.4byte	0
 14789              	.LVUS325:
 14790 05f4 04       		.uleb128 .LVU1375
 14791 05f5 00       		.uleb128 .LVU1384
 14792 05f6 00       		.uleb128 .LVU1385
 14793 05f7 00       		.uleb128 .LVU1389
 14794 05f8 00       		.uleb128 .LVU1393
 14795 05f9 00       		.uleb128 .LVU1403
 14796 05fa 00       		.uleb128 .LVU1412
 14797 05fb 00       		.uleb128 .LVU1413
 14798              	.LLST325:
 14799 05fc 56000000 		.4byte	.LVL420
 14800 0600 64000000 		.4byte	.LVL423
 14801 0604 0200     		.2byte	0x2
 14802 0606 30       		.byte	0x30
 14803 0607 9F       		.byte	0x9f
 14804 0608 68000000 		.4byte	.LVL424
 14805 060c 72000000 		.4byte	.LVL426
 14806 0610 0100     		.2byte	0x1
 14807 0612 52       		.byte	0x52
 14808 0613 78000000 		.4byte	.LVL429
 14809 0617 88000000 		.4byte	.LVL433
 14810 061b 0100     		.2byte	0x1
 14811 061d 52       		.byte	0x52
 14812 061e A4000000 		.4byte	.LVL434
 14813 0622 A8000000 		.4byte	.LVL435
 14814 0626 0200     		.2byte	0x2
 14815 0628 30       		.byte	0x30
 14816 0629 9F       		.byte	0x9f
 14817 062a 00000000 		.4byte	0
 14818 062e 00000000 		.4byte	0
 14819              	.LVUS326:
 14820 0632 05       		.uleb128 .LVU1376
 14821 0633 00       		.uleb128 .LVU1380
 14822 0634 00       		.uleb128 .LVU1380
 14823 0635 00       		.uleb128 .LVU1384
 14824 0636 00       		.uleb128 .LVU1385
ARM GAS  /tmp/cchqCFfA.s 			page 264


 14825 0637 00       		.uleb128 .LVU1390
 14826 0638 00       		.uleb128 .LVU1390
 14827 0639 01       		.uleb128 .LVU1394
 14828 063a 00       		.uleb128 .LVU1395
 14829 063b 00       		.uleb128 .LVU1400
 14830 063c 00       		.uleb128 .LVU1412
 14831 063d 00       		.uleb128 .LVU1413
 14832              	.LLST326:
 14833 063e 56000000 		.4byte	.LVL420
 14834 0642 5C000000 		.4byte	.LVL421
 14835 0646 0400     		.2byte	0x4
 14836 0648 0A       		.byte	0xa
 14837 0649 0040     		.2byte	0x4000
 14838 064b 9F       		.byte	0x9f
 14839 064c 5C000000 		.4byte	.LVL421
 14840 0650 64000000 		.4byte	.LVL423
 14841 0654 0100     		.2byte	0x1
 14842 0656 53       		.byte	0x53
 14843 0657 68000000 		.4byte	.LVL424
 14844 065b 74000000 		.4byte	.LVL427
 14845 065f 0100     		.2byte	0x1
 14846 0661 53       		.byte	0x53
 14847 0662 74000000 		.4byte	.LVL427
 14848 0666 78000000 		.4byte	.LVL429
 14849 066a 0100     		.2byte	0x1
 14850 066c 55       		.byte	0x55
 14851 066d 7A000000 		.4byte	.LVL430
 14852 0671 82000000 		.4byte	.LVL431
 14853 0675 0100     		.2byte	0x1
 14854 0677 53       		.byte	0x53
 14855 0678 A4000000 		.4byte	.LVL434
 14856 067c A8000000 		.4byte	.LVL435
 14857 0680 0100     		.2byte	0x1
 14858 0682 53       		.byte	0x53
 14859 0683 00000000 		.4byte	0
 14860 0687 00000000 		.4byte	0
 14861              	.LVUS316:
 14862 068b 02       		.uleb128 .LVU1347
 14863 068c 00       		.uleb128 .LVU1415
 14864 068d 00       		.uleb128 .LVU1415
 14865 068e 00       		.uleb128 0
 14866              	.LLST316:
 14867 068f 16000000 		.4byte	.LVL413
 14868 0693 AB000000 		.4byte	.LVL436-1
 14869 0697 0100     		.2byte	0x1
 14870 0699 50       		.byte	0x50
 14871 069a AB000000 		.4byte	.LVL436-1
 14872 069e B0000000 		.4byte	.LFE25
 14873 06a2 0400     		.2byte	0x4
 14874 06a4 F3       		.byte	0xf3
 14875 06a5 01       		.uleb128 0x1
 14876 06a6 50       		.byte	0x50
 14877 06a7 9F       		.byte	0x9f
 14878 06a8 00000000 		.4byte	0
 14879 06ac 00000000 		.4byte	0
 14880              	.LVUS317:
 14881 06b0 02       		.uleb128 .LVU1347
ARM GAS  /tmp/cchqCFfA.s 			page 265


 14882 06b1 00       		.uleb128 .LVU1415
 14883 06b2 00       		.uleb128 .LVU1415
 14884 06b3 00       		.uleb128 0
 14885              	.LLST317:
 14886 06b4 16000000 		.4byte	.LVL413
 14887 06b8 AB000000 		.4byte	.LVL436-1
 14888 06bc 0100     		.2byte	0x1
 14889 06be 50       		.byte	0x50
 14890 06bf AB000000 		.4byte	.LVL436-1
 14891 06c3 B0000000 		.4byte	.LFE25
 14892 06c7 0400     		.2byte	0x4
 14893 06c9 F3       		.byte	0xf3
 14894 06ca 01       		.uleb128 0x1
 14895 06cb 50       		.byte	0x50
 14896 06cc 9F       		.byte	0x9f
 14897 06cd 00000000 		.4byte	0
 14898 06d1 00000000 		.4byte	0
 14899              	.LVUS318:
 14900 06d5 02       		.uleb128 .LVU1352
 14901 06d6 00       		.uleb128 .LVU1415
 14902 06d7 00       		.uleb128 .LVU1415
 14903 06d8 00       		.uleb128 0
 14904              	.LLST318:
 14905 06d9 26000000 		.4byte	.LVL414
 14906 06dd AB000000 		.4byte	.LVL436-1
 14907 06e1 0100     		.2byte	0x1
 14908 06e3 50       		.byte	0x50
 14909 06e4 AB000000 		.4byte	.LVL436-1
 14910 06e8 B0000000 		.4byte	.LFE25
 14911 06ec 0400     		.2byte	0x4
 14912 06ee F3       		.byte	0xf3
 14913 06ef 01       		.uleb128 0x1
 14914 06f0 50       		.byte	0x50
 14915 06f1 9F       		.byte	0x9f
 14916 06f2 00000000 		.4byte	0
 14917 06f6 00000000 		.4byte	0
 14918              	.LVUS319:
 14919 06fa 02       		.uleb128 .LVU1352
 14920 06fb 00       		.uleb128 .LVU1415
 14921 06fc 00       		.uleb128 .LVU1415
 14922 06fd 00       		.uleb128 0
 14923              	.LLST319:
 14924 06fe 26000000 		.4byte	.LVL414
 14925 0702 AB000000 		.4byte	.LVL436-1
 14926 0706 0100     		.2byte	0x1
 14927 0708 50       		.byte	0x50
 14928 0709 AB000000 		.4byte	.LVL436-1
 14929 070d B0000000 		.4byte	.LFE25
 14930 0711 0400     		.2byte	0x4
 14931 0713 F3       		.byte	0xf3
 14932 0714 01       		.uleb128 0x1
 14933 0715 50       		.byte	0x50
 14934 0716 9F       		.byte	0x9f
 14935 0717 00000000 		.4byte	0
 14936 071b 00000000 		.4byte	0
 14937              	.LVUS320:
 14938 071f 03       		.uleb128 .LVU1358
ARM GAS  /tmp/cchqCFfA.s 			page 266


 14939 0720 00       		.uleb128 .LVU1415
 14940 0721 00       		.uleb128 .LVU1415
 14941 0722 00       		.uleb128 0
 14942              	.LLST320:
 14943 0723 2E000000 		.4byte	.LVL415
 14944 0727 AB000000 		.4byte	.LVL436-1
 14945 072b 0100     		.2byte	0x1
 14946 072d 50       		.byte	0x50
 14947 072e AB000000 		.4byte	.LVL436-1
 14948 0732 B0000000 		.4byte	.LFE25
 14949 0736 0400     		.2byte	0x4
 14950 0738 F3       		.byte	0xf3
 14951 0739 01       		.uleb128 0x1
 14952 073a 50       		.byte	0x50
 14953 073b 9F       		.byte	0x9f
 14954 073c 00000000 		.4byte	0
 14955 0740 00000000 		.4byte	0
 14956              	.LVUS321:
 14957 0744 03       		.uleb128 .LVU1358
 14958 0745 00       		.uleb128 .LVU1415
 14959 0746 00       		.uleb128 .LVU1415
 14960 0747 00       		.uleb128 0
 14961              	.LLST321:
 14962 0748 2E000000 		.4byte	.LVL415
 14963 074c AB000000 		.4byte	.LVL436-1
 14964 0750 0100     		.2byte	0x1
 14965 0752 50       		.byte	0x50
 14966 0753 AB000000 		.4byte	.LVL436-1
 14967 0757 B0000000 		.4byte	.LFE25
 14968 075b 0400     		.2byte	0x4
 14969 075d F3       		.byte	0xf3
 14970 075e 01       		.uleb128 0x1
 14971 075f 50       		.byte	0x50
 14972 0760 9F       		.byte	0x9f
 14973 0761 00000000 		.4byte	0
 14974 0765 00000000 		.4byte	0
 14975              	.LVUS294:
 14976 0769 00       		.uleb128 0
 14977 076a 00       		.uleb128 .LVU1288
 14978 076b 00       		.uleb128 .LVU1288
 14979 076c 00       		.uleb128 0
 14980              	.LLST294:
 14981 076d 00000000 		.4byte	.LVL395
 14982 0771 1C000000 		.4byte	.LVL396
 14983 0775 0100     		.2byte	0x1
 14984 0777 50       		.byte	0x50
 14985 0778 1C000000 		.4byte	.LVL396
 14986 077c 98000000 		.4byte	.LFE24
 14987 0780 0100     		.2byte	0x1
 14988 0782 54       		.byte	0x54
 14989 0783 00000000 		.4byte	0
 14990 0787 00000000 		.4byte	0
 14991              	.LVUS295:
 14992 078b 00       		.uleb128 .LVU1293
 14993 078c 00       		.uleb128 .LVU1332
 14994              	.LLST295:
 14995 078d 2C000000 		.4byte	.LVL397
ARM GAS  /tmp/cchqCFfA.s 			page 267


 14996 0791 74000000 		.4byte	.LVL408
 14997 0795 0100     		.2byte	0x1
 14998 0797 58       		.byte	0x58
 14999 0798 00000000 		.4byte	0
 15000 079c 00000000 		.4byte	0
 15001              	.LVUS296:
 15002 07a0 00       		.uleb128 .LVU1298
 15003 07a1 00       		.uleb128 .LVU1309
 15004              	.LLST296:
 15005 07a2 34000000 		.4byte	.LVL398
 15006 07a6 46000000 		.4byte	.LVL401
 15007 07aa 0100     		.2byte	0x1
 15008 07ac 52       		.byte	0x52
 15009 07ad 00000000 		.4byte	0
 15010 07b1 00000000 		.4byte	0
 15011              	.LVUS297:
 15012 07b5 00       		.uleb128 .LVU1302
 15013 07b6 00       		.uleb128 .LVU1310
 15014 07b7 00       		.uleb128 .LVU1310
 15015 07b8 00       		.uleb128 .LVU1317
 15016              	.LLST297:
 15017 07b9 36000000 		.4byte	.LVL399
 15018 07bd 4A000000 		.4byte	.LVL402
 15019 07c1 0B00     		.2byte	0xb
 15020 07c3 71       		.byte	0x71
 15021 07c4 00       		.sleb128 0
 15022 07c5 40       		.byte	0x40
 15023 07c6 24       		.byte	0x24
 15024 07c7 40       		.byte	0x40
 15025 07c8 26       		.byte	0x26
 15026 07c9 31       		.byte	0x31
 15027 07ca 24       		.byte	0x24
 15028 07cb 70       		.byte	0x70
 15029 07cc 00       		.sleb128 0
 15030 07cd 22       		.byte	0x22
 15031 07ce 4A000000 		.4byte	.LVL402
 15032 07d2 53000000 		.4byte	.LVL404-1
 15033 07d6 0C00     		.2byte	0xc
 15034 07d8 71       		.byte	0x71
 15035 07d9 00       		.sleb128 0
 15036 07da 40       		.byte	0x40
 15037 07db 24       		.byte	0x24
 15038 07dc 40       		.byte	0x40
 15039 07dd 26       		.byte	0x26
 15040 07de 31       		.byte	0x31
 15041 07df 24       		.byte	0x24
 15042 07e0 74       		.byte	0x74
 15043 07e1 14       		.sleb128 20
 15044 07e2 06       		.byte	0x6
 15045 07e3 22       		.byte	0x22
 15046 07e4 00000000 		.4byte	0
 15047 07e8 00000000 		.4byte	0
 15048              	.LVUS298:
 15049 07ec 00       		.uleb128 .LVU1306
 15050 07ed 00       		.uleb128 .LVU1331
 15051              	.LLST298:
 15052 07ee 3E000000 		.4byte	.LVL400
ARM GAS  /tmp/cchqCFfA.s 			page 268


 15053 07f2 70000000 		.4byte	.LVL407
 15054 07f6 0100     		.2byte	0x1
 15055 07f8 56       		.byte	0x56
 15056 07f9 00000000 		.4byte	0
 15057 07fd 00000000 		.4byte	0
 15058              	.LVUS299:
 15059 0801 00       		.uleb128 .LVU1312
 15060 0802 00       		.uleb128 .LVU1333
 15061              	.LLST299:
 15062 0803 50000000 		.4byte	.LVL403
 15063 0807 78000000 		.4byte	.LVL409
 15064 080b 0100     		.2byte	0x1
 15065 080d 55       		.byte	0x55
 15066 080e 00000000 		.4byte	0
 15067 0812 00000000 		.4byte	0
 15068              	.LVUS300:
 15069 0816 01       		.uleb128 .LVU1313
 15070 0817 00       		.uleb128 0
 15071              	.LLST300:
 15072 0818 50000000 		.4byte	.LVL403
 15073 081c 98000000 		.4byte	.LFE24
 15074 0820 0100     		.2byte	0x1
 15075 0822 5A       		.byte	0x5a
 15076 0823 00000000 		.4byte	0
 15077 0827 00000000 		.4byte	0
 15078              	.LVUS301:
 15079 082b 00       		.uleb128 .LVU1319
 15080 082c 00       		.uleb128 0
 15081              	.LLST301:
 15082 082d 58000000 		.4byte	.LVL405
 15083 0831 98000000 		.4byte	.LFE24
 15084 0835 0100     		.2byte	0x1
 15085 0837 57       		.byte	0x57
 15086 0838 00000000 		.4byte	0
 15087 083c 00000000 		.4byte	0
 15088              	.LVUS302:
 15089 0840 00       		.uleb128 .LVU1321
 15090 0841 00       		.uleb128 .LVU1338
 15091              	.LLST302:
 15092 0842 5C000000 		.4byte	.LVL406
 15093 0846 91000000 		.4byte	.LVL411-1
 15094 084a 0100     		.2byte	0x1
 15095 084c 50       		.byte	0x50
 15096 084d 00000000 		.4byte	0
 15097 0851 00000000 		.4byte	0
 15098              	.LVUS303:
 15099 0855 01       		.uleb128 .LVU1322
 15100 0856 00       		.uleb128 .LVU1331
 15101              	.LLST303:
 15102 0857 5C000000 		.4byte	.LVL406
 15103 085b 70000000 		.4byte	.LVL407
 15104 085f 1E00     		.2byte	0x1e
 15105 0861 77       		.byte	0x77
 15106 0862 00       		.sleb128 0
 15107 0863 40       		.byte	0x40
 15108 0864 24       		.byte	0x24
 15109 0865 40       		.byte	0x40
ARM GAS  /tmp/cchqCFfA.s 			page 269


 15110 0866 26       		.byte	0x26
 15111 0867 76       		.byte	0x76
 15112 0868 00       		.sleb128 0
 15113 0869 40       		.byte	0x40
 15114 086a 24       		.byte	0x24
 15115 086b 40       		.byte	0x40
 15116 086c 26       		.byte	0x26
 15117 086d 1E       		.byte	0x1e
 15118 086e 70       		.byte	0x70
 15119 086f 00       		.sleb128 0
 15120 0870 40       		.byte	0x40
 15121 0871 24       		.byte	0x24
 15122 0872 40       		.byte	0x40
 15123 0873 26       		.byte	0x26
 15124 0874 75       		.byte	0x75
 15125 0875 00       		.sleb128 0
 15126 0876 40       		.byte	0x40
 15127 0877 24       		.byte	0x24
 15128 0878 40       		.byte	0x40
 15129 0879 26       		.byte	0x26
 15130 087a 1E       		.byte	0x1e
 15131 087b 1C       		.byte	0x1c
 15132 087c 3F       		.byte	0x3f
 15133 087d 26       		.byte	0x26
 15134 087e 9F       		.byte	0x9f
 15135 087f 00000000 		.4byte	0
 15136 0883 00000000 		.4byte	0
 15137              	.LVUS304:
 15138 0887 02       		.uleb128 .LVU1323
 15139 0888 00       		.uleb128 .LVU1331
 15140              	.LLST304:
 15141 0889 5C000000 		.4byte	.LVL406
 15142 088d 70000000 		.4byte	.LVL407
 15143 0891 1E00     		.2byte	0x1e
 15144 0893 77       		.byte	0x77
 15145 0894 00       		.sleb128 0
 15146 0895 40       		.byte	0x40
 15147 0896 24       		.byte	0x24
 15148 0897 40       		.byte	0x40
 15149 0898 26       		.byte	0x26
 15150 0899 75       		.byte	0x75
 15151 089a 00       		.sleb128 0
 15152 089b 40       		.byte	0x40
 15153 089c 24       		.byte	0x24
 15154 089d 40       		.byte	0x40
 15155 089e 26       		.byte	0x26
 15156 089f 1E       		.byte	0x1e
 15157 08a0 76       		.byte	0x76
 15158 08a1 00       		.sleb128 0
 15159 08a2 40       		.byte	0x40
 15160 08a3 24       		.byte	0x24
 15161 08a4 40       		.byte	0x40
 15162 08a5 26       		.byte	0x26
 15163 08a6 70       		.byte	0x70
 15164 08a7 00       		.sleb128 0
 15165 08a8 40       		.byte	0x40
 15166 08a9 24       		.byte	0x24
ARM GAS  /tmp/cchqCFfA.s 			page 270


 15167 08aa 40       		.byte	0x40
 15168 08ab 26       		.byte	0x26
 15169 08ac 1E       		.byte	0x1e
 15170 08ad 22       		.byte	0x22
 15171 08ae 3F       		.byte	0x3f
 15172 08af 26       		.byte	0x26
 15173 08b0 9F       		.byte	0x9f
 15174 08b1 00000000 		.4byte	0
 15175 08b5 00000000 		.4byte	0
 15176              	.LVUS305:
 15177 08b9 01       		.uleb128 .LVU1289
 15178 08ba 00       		.uleb128 0
 15179              	.LLST305:
 15180 08bb 1C000000 		.4byte	.LVL396
 15181 08bf 98000000 		.4byte	.LFE24
 15182 08c3 0100     		.2byte	0x1
 15183 08c5 54       		.byte	0x54
 15184 08c6 00000000 		.4byte	0
 15185 08ca 00000000 		.4byte	0
 15186              	.LVUS307:
 15187 08ce 02       		.uleb128 .LVU1295
 15188 08cf 00       		.uleb128 0
 15189              	.LLST307:
 15190 08d0 2C000000 		.4byte	.LVL397
 15191 08d4 98000000 		.4byte	.LFE24
 15192 08d8 0100     		.2byte	0x1
 15193 08da 54       		.byte	0x54
 15194 08db 00000000 		.4byte	0
 15195 08df 00000000 		.4byte	0
 15196              	.LVUS309:
 15197 08e3 02       		.uleb128 .LVU1300
 15198 08e4 00       		.uleb128 0
 15199              	.LLST309:
 15200 08e5 34000000 		.4byte	.LVL398
 15201 08e9 98000000 		.4byte	.LFE24
 15202 08ed 0100     		.2byte	0x1
 15203 08ef 54       		.byte	0x54
 15204 08f0 00000000 		.4byte	0
 15205 08f4 00000000 		.4byte	0
 15206              	.LVUS311:
 15207 08f8 02       		.uleb128 .LVU1314
 15208 08f9 00       		.uleb128 .LVU1319
 15209              	.LLST311:
 15210 08fa 50000000 		.4byte	.LVL403
 15211 08fe 58000000 		.4byte	.LVL405
 15212 0902 0100     		.2byte	0x1
 15213 0904 5A       		.byte	0x5a
 15214 0905 00000000 		.4byte	0
 15215 0909 00000000 		.4byte	0
 15216              	.LVUS284:
 15217 090d 00       		.uleb128 0
 15218 090e 00       		.uleb128 .LVU1237
 15219 090f 00       		.uleb128 .LVU1237
 15220 0910 00       		.uleb128 0
 15221              	.LLST284:
 15222 0911 00000000 		.4byte	.LVL382
 15223 0915 1C000000 		.4byte	.LVL383
ARM GAS  /tmp/cchqCFfA.s 			page 271


 15224 0919 0100     		.2byte	0x1
 15225 091b 50       		.byte	0x50
 15226 091c 1C000000 		.4byte	.LVL383
 15227 0920 84000000 		.4byte	.LFE23
 15228 0924 0100     		.2byte	0x1
 15229 0926 56       		.byte	0x56
 15230 0927 00000000 		.4byte	0
 15231 092b 00000000 		.4byte	0
 15232              	.LVUS285:
 15233 092f 00       		.uleb128 .LVU1241
 15234 0930 00       		.uleb128 .LVU1257
 15235              	.LLST285:
 15236 0931 28000000 		.4byte	.LVL384
 15237 0935 42000000 		.4byte	.LVL388
 15238 0939 0100     		.2byte	0x1
 15239 093b 58       		.byte	0x58
 15240 093c 00000000 		.4byte	0
 15241 0940 00000000 		.4byte	0
 15242              	.LVUS286:
 15243 0944 00       		.uleb128 .LVU1246
 15244 0945 00       		.uleb128 .LVU1264
 15245 0946 00       		.uleb128 .LVU1266
 15246 0947 00       		.uleb128 0
 15247              	.LLST286:
 15248 0948 30000000 		.4byte	.LVL385
 15249 094c 5A000000 		.4byte	.LVL390
 15250 0950 0100     		.2byte	0x1
 15251 0952 54       		.byte	0x54
 15252 0953 62000000 		.4byte	.LVL392
 15253 0957 84000000 		.4byte	.LFE23
 15254 095b 0100     		.2byte	0x1
 15255 095d 54       		.byte	0x54
 15256 095e 00000000 		.4byte	0
 15257 0962 00000000 		.4byte	0
 15258              	.LVUS287:
 15259 0966 00       		.uleb128 .LVU1252
 15260 0967 00       		.uleb128 .LVU1256
 15261 0968 00       		.uleb128 .LVU1256
 15262 0969 00       		.uleb128 .LVU1258
 15263              	.LLST287:
 15264 096a 36000000 		.4byte	.LVL386
 15265 096e 3C000000 		.4byte	.LVL387
 15266 0972 0100     		.2byte	0x1
 15267 0974 57       		.byte	0x57
 15268 0975 3C000000 		.4byte	.LVL387
 15269 0979 44000000 		.4byte	.LVL389
 15270 097d 0700     		.2byte	0x7
 15271 097f 72       		.byte	0x72
 15272 0980 00       		.sleb128 0
 15273 0981 31       		.byte	0x31
 15274 0982 24       		.byte	0x24
 15275 0983 70       		.byte	0x70
 15276 0984 00       		.sleb128 0
 15277 0985 22       		.byte	0x22
 15278 0986 00000000 		.4byte	0
 15279 098a 00000000 		.4byte	0
 15280              	.LVUS288:
ARM GAS  /tmp/cchqCFfA.s 			page 272


 15281 098e 01       		.uleb128 .LVU1238
 15282 098f 00       		.uleb128 0
 15283              	.LLST288:
 15284 0990 1C000000 		.4byte	.LVL383
 15285 0994 84000000 		.4byte	.LFE23
 15286 0998 0100     		.2byte	0x1
 15287 099a 56       		.byte	0x56
 15288 099b 00000000 		.4byte	0
 15289 099f 00000000 		.4byte	0
 15290              	.LVUS290:
 15291 09a3 02       		.uleb128 .LVU1243
 15292 09a4 00       		.uleb128 0
 15293              	.LLST290:
 15294 09a5 28000000 		.4byte	.LVL384
 15295 09a9 84000000 		.4byte	.LFE23
 15296 09ad 0100     		.2byte	0x1
 15297 09af 56       		.byte	0x56
 15298 09b0 00000000 		.4byte	0
 15299 09b4 00000000 		.4byte	0
 15300              	.LVUS292:
 15301 09b8 03       		.uleb128 .LVU1249
 15302 09b9 00       		.uleb128 0
 15303              	.LLST292:
 15304 09ba 30000000 		.4byte	.LVL385
 15305 09be 84000000 		.4byte	.LFE23
 15306 09c2 0100     		.2byte	0x1
 15307 09c4 56       		.byte	0x56
 15308 09c5 00000000 		.4byte	0
 15309 09c9 00000000 		.4byte	0
 15310              	.LVUS274:
 15311 09cd 00       		.uleb128 0
 15312 09ce 00       		.uleb128 .LVU1189
 15313 09cf 00       		.uleb128 .LVU1189
 15314 09d0 00       		.uleb128 0
 15315              	.LLST274:
 15316 09d1 00000000 		.4byte	.LVL369
 15317 09d5 1C000000 		.4byte	.LVL370
 15318 09d9 0100     		.2byte	0x1
 15319 09db 50       		.byte	0x50
 15320 09dc 1C000000 		.4byte	.LVL370
 15321 09e0 7C000000 		.4byte	.LFE22
 15322 09e4 0100     		.2byte	0x1
 15323 09e6 56       		.byte	0x56
 15324 09e7 00000000 		.4byte	0
 15325 09eb 00000000 		.4byte	0
 15326              	.LVUS275:
 15327 09ef 00       		.uleb128 .LVU1193
 15328 09f0 00       		.uleb128 .LVU1209
 15329              	.LLST275:
 15330 09f1 28000000 		.4byte	.LVL371
 15331 09f5 42000000 		.4byte	.LVL375
 15332 09f9 0100     		.2byte	0x1
 15333 09fb 58       		.byte	0x58
 15334 09fc 00000000 		.4byte	0
 15335 0a00 00000000 		.4byte	0
 15336              	.LVUS276:
 15337 0a04 00       		.uleb128 .LVU1198
ARM GAS  /tmp/cchqCFfA.s 			page 273


 15338 0a05 00       		.uleb128 .LVU1215
 15339 0a06 00       		.uleb128 .LVU1217
 15340 0a07 00       		.uleb128 0
 15341              	.LLST276:
 15342 0a08 30000000 		.4byte	.LVL372
 15343 0a0c 54000000 		.4byte	.LVL377
 15344 0a10 0100     		.2byte	0x1
 15345 0a12 54       		.byte	0x54
 15346 0a13 5C000000 		.4byte	.LVL379
 15347 0a17 7C000000 		.4byte	.LFE22
 15348 0a1b 0100     		.2byte	0x1
 15349 0a1d 54       		.byte	0x54
 15350 0a1e 00000000 		.4byte	0
 15351 0a22 00000000 		.4byte	0
 15352              	.LVUS277:
 15353 0a26 00       		.uleb128 .LVU1204
 15354 0a27 00       		.uleb128 .LVU1208
 15355 0a28 00       		.uleb128 .LVU1208
 15356 0a29 00       		.uleb128 .LVU1210
 15357              	.LLST277:
 15358 0a2a 36000000 		.4byte	.LVL373
 15359 0a2e 3C000000 		.4byte	.LVL374
 15360 0a32 0100     		.2byte	0x1
 15361 0a34 57       		.byte	0x57
 15362 0a35 3C000000 		.4byte	.LVL374
 15363 0a39 44000000 		.4byte	.LVL376
 15364 0a3d 0700     		.2byte	0x7
 15365 0a3f 72       		.byte	0x72
 15366 0a40 00       		.sleb128 0
 15367 0a41 31       		.byte	0x31
 15368 0a42 24       		.byte	0x24
 15369 0a43 70       		.byte	0x70
 15370 0a44 00       		.sleb128 0
 15371 0a45 22       		.byte	0x22
 15372 0a46 00000000 		.4byte	0
 15373 0a4a 00000000 		.4byte	0
 15374              	.LVUS278:
 15375 0a4e 01       		.uleb128 .LVU1190
 15376 0a4f 00       		.uleb128 0
 15377              	.LLST278:
 15378 0a50 1C000000 		.4byte	.LVL370
 15379 0a54 7C000000 		.4byte	.LFE22
 15380 0a58 0100     		.2byte	0x1
 15381 0a5a 56       		.byte	0x56
 15382 0a5b 00000000 		.4byte	0
 15383 0a5f 00000000 		.4byte	0
 15384              	.LVUS280:
 15385 0a63 02       		.uleb128 .LVU1195
 15386 0a64 00       		.uleb128 0
 15387              	.LLST280:
 15388 0a65 28000000 		.4byte	.LVL371
 15389 0a69 7C000000 		.4byte	.LFE22
 15390 0a6d 0100     		.2byte	0x1
 15391 0a6f 56       		.byte	0x56
 15392 0a70 00000000 		.4byte	0
 15393 0a74 00000000 		.4byte	0
 15394              	.LVUS282:
ARM GAS  /tmp/cchqCFfA.s 			page 274


 15395 0a78 03       		.uleb128 .LVU1201
 15396 0a79 00       		.uleb128 0
 15397              	.LLST282:
 15398 0a7a 30000000 		.4byte	.LVL372
 15399 0a7e 7C000000 		.4byte	.LFE22
 15400 0a82 0100     		.2byte	0x1
 15401 0a84 56       		.byte	0x56
 15402 0a85 00000000 		.4byte	0
 15403 0a89 00000000 		.4byte	0
 15404              	.LVUS257:
 15405 0a8d 00       		.uleb128 0
 15406 0a8e 00       		.uleb128 .LVU1122
 15407 0a8f 00       		.uleb128 .LVU1122
 15408 0a90 00       		.uleb128 0
 15409              	.LLST257:
 15410 0a91 00000000 		.4byte	.LVL351
 15411 0a95 20000000 		.4byte	.LVL353
 15412 0a99 0100     		.2byte	0x1
 15413 0a9b 50       		.byte	0x50
 15414 0a9c 20000000 		.4byte	.LVL353
 15415 0aa0 B0000000 		.4byte	.LFE21
 15416 0aa4 0100     		.2byte	0x1
 15417 0aa6 57       		.byte	0x57
 15418 0aa7 00000000 		.4byte	0
 15419 0aab 00000000 		.4byte	0
 15420              	.LVUS258:
 15421 0aaf 00       		.uleb128 .LVU1124
 15422 0ab0 00       		.uleb128 .LVU1147
 15423              	.LLST258:
 15424 0ab1 2A000000 		.4byte	.LVL354
 15425 0ab5 58000000 		.4byte	.LVL359
 15426 0ab9 0100     		.2byte	0x1
 15427 0abb 5A       		.byte	0x5a
 15428 0abc 00000000 		.4byte	0
 15429 0ac0 00000000 		.4byte	0
 15430              	.LVUS259:
 15431 0ac4 00       		.uleb128 .LVU1129
 15432 0ac5 00       		.uleb128 .LVU1163
 15433 0ac6 00       		.uleb128 .LVU1165
 15434 0ac7 00       		.uleb128 0
 15435              	.LLST259:
 15436 0ac8 32000000 		.4byte	.LVL355
 15437 0acc 7A000000 		.4byte	.LVL363
 15438 0ad0 0100     		.2byte	0x1
 15439 0ad2 55       		.byte	0x55
 15440 0ad3 82000000 		.4byte	.LVL364
 15441 0ad7 B0000000 		.4byte	.LFE21
 15442 0adb 0100     		.2byte	0x1
 15443 0add 55       		.byte	0x55
 15444 0ade 00000000 		.4byte	0
 15445 0ae2 00000000 		.4byte	0
 15446              	.LVUS260:
 15447 0ae6 00       		.uleb128 .LVU1135
 15448 0ae7 00       		.uleb128 .LVU1146
 15449              	.LLST260:
 15450 0ae8 3A000000 		.4byte	.LVL356
 15451 0aec 54000000 		.4byte	.LVL358
ARM GAS  /tmp/cchqCFfA.s 			page 275


 15452 0af0 0100     		.2byte	0x1
 15453 0af2 5B       		.byte	0x5b
 15454 0af3 00000000 		.4byte	0
 15455 0af7 00000000 		.4byte	0
 15456              	.LVUS261:
 15457 0afb 00       		.uleb128 .LVU1141
 15458 0afc 00       		.uleb128 .LVU1148
 15459              	.LLST261:
 15460 0afd 40000000 		.4byte	.LVL357
 15461 0b01 5A000000 		.4byte	.LVL360
 15462 0b05 0100     		.2byte	0x1
 15463 0b07 52       		.byte	0x52
 15464 0b08 00000000 		.4byte	0
 15465 0b0c 00000000 		.4byte	0
 15466              	.LVUS270:
 15467 0b10 00       		.uleb128 .LVU1148
 15468 0b11 00       		.uleb128 .LVU1150
 15469 0b12 00       		.uleb128 .LVU1165
 15470 0b13 00       		.uleb128 .LVU1171
 15471              	.LLST270:
 15472 0b14 5A000000 		.4byte	.LVL360
 15473 0b18 62000000 		.4byte	.LVL361
 15474 0b1c 0100     		.2byte	0x1
 15475 0b1e 50       		.byte	0x50
 15476 0b1f 82000000 		.4byte	.LVL364
 15477 0b23 8B000000 		.4byte	.LVL366-1
 15478 0b27 0100     		.2byte	0x1
 15479 0b29 50       		.byte	0x50
 15480 0b2a 00000000 		.4byte	0
 15481 0b2e 00000000 		.4byte	0
 15482              	.LVUS271:
 15483 0b32 00       		.uleb128 .LVU1148
 15484 0b33 00       		.uleb128 .LVU1157
 15485 0b34 01       		.uleb128 .LVU1166
 15486 0b35 00       		.uleb128 .LVU1171
 15487              	.LLST271:
 15488 0b36 5A000000 		.4byte	.LVL360
 15489 0b3a 6A000000 		.4byte	.LVL362
 15490 0b3e 0100     		.2byte	0x1
 15491 0b40 51       		.byte	0x51
 15492 0b41 82000000 		.4byte	.LVL364
 15493 0b45 8B000000 		.4byte	.LVL366-1
 15494 0b49 0100     		.2byte	0x1
 15495 0b4b 51       		.byte	0x51
 15496 0b4c 00000000 		.4byte	0
 15497 0b50 00000000 		.4byte	0
 15498              	.LVUS272:
 15499 0b54 00       		.uleb128 .LVU1148
 15500 0b55 00       		.uleb128 .LVU1150
 15501 0b56 00       		.uleb128 .LVU1168
 15502 0b57 00       		.uleb128 .LVU1171
 15503              	.LLST272:
 15504 0b58 5A000000 		.4byte	.LVL360
 15505 0b5c 62000000 		.4byte	.LVL361
 15506 0b60 0100     		.2byte	0x1
 15507 0b62 51       		.byte	0x51
 15508 0b63 84000000 		.4byte	.LVL365
ARM GAS  /tmp/cchqCFfA.s 			page 276


 15509 0b67 8B000000 		.4byte	.LVL366-1
 15510 0b6b 0100     		.2byte	0x1
 15511 0b6d 51       		.byte	0x51
 15512 0b6e 00000000 		.4byte	0
 15513 0b72 00000000 		.4byte	0
 15514              	.LVUS273:
 15515 0b76 00       		.uleb128 .LVU1148
 15516 0b77 00       		.uleb128 .LVU1150
 15517 0b78 00       		.uleb128 .LVU1168
 15518 0b79 00       		.uleb128 .LVU1171
 15519              	.LLST273:
 15520 0b7a 5A000000 		.4byte	.LVL360
 15521 0b7e 62000000 		.4byte	.LVL361
 15522 0b82 0100     		.2byte	0x1
 15523 0b84 50       		.byte	0x50
 15524 0b85 84000000 		.4byte	.LVL365
 15525 0b89 8B000000 		.4byte	.LVL366-1
 15526 0b8d 0100     		.2byte	0x1
 15527 0b8f 50       		.byte	0x50
 15528 0b90 00000000 		.4byte	0
 15529 0b94 00000000 		.4byte	0
 15530              	.LVUS262:
 15531 0b98 01       		.uleb128 .LVU1120
 15532 0b99 00       		.uleb128 .LVU1122
 15533 0b9a 00       		.uleb128 .LVU1122
 15534 0b9b 00       		.uleb128 0
 15535              	.LLST262:
 15536 0b9c 1A000000 		.4byte	.LVL352
 15537 0ba0 20000000 		.4byte	.LVL353
 15538 0ba4 0100     		.2byte	0x1
 15539 0ba6 50       		.byte	0x50
 15540 0ba7 20000000 		.4byte	.LVL353
 15541 0bab B0000000 		.4byte	.LFE21
 15542 0baf 0100     		.2byte	0x1
 15543 0bb1 57       		.byte	0x57
 15544 0bb2 00000000 		.4byte	0
 15545 0bb6 00000000 		.4byte	0
 15546              	.LVUS264:
 15547 0bba 02       		.uleb128 .LVU1126
 15548 0bbb 00       		.uleb128 0
 15549              	.LLST264:
 15550 0bbc 2A000000 		.4byte	.LVL354
 15551 0bc0 B0000000 		.4byte	.LFE21
 15552 0bc4 0100     		.2byte	0x1
 15553 0bc6 57       		.byte	0x57
 15554 0bc7 00000000 		.4byte	0
 15555 0bcb 00000000 		.4byte	0
 15556              	.LVUS266:
 15557 0bcf 03       		.uleb128 .LVU1132
 15558 0bd0 00       		.uleb128 0
 15559              	.LLST266:
 15560 0bd1 32000000 		.4byte	.LVL355
 15561 0bd5 B0000000 		.4byte	.LFE21
 15562 0bd9 0100     		.2byte	0x1
 15563 0bdb 57       		.byte	0x57
 15564 0bdc 00000000 		.4byte	0
 15565 0be0 00000000 		.4byte	0
ARM GAS  /tmp/cchqCFfA.s 			page 277


 15566              	.LVUS268:
 15567 0be4 03       		.uleb128 .LVU1138
 15568 0be5 00       		.uleb128 0
 15569              	.LLST268:
 15570 0be6 3A000000 		.4byte	.LVL356
 15571 0bea B0000000 		.4byte	.LFE21
 15572 0bee 0100     		.2byte	0x1
 15573 0bf0 57       		.byte	0x57
 15574 0bf1 00000000 		.4byte	0
 15575 0bf5 00000000 		.4byte	0
 15576              	.LVUS237:
 15577 0bf9 00       		.uleb128 0
 15578 0bfa 00       		.uleb128 .LVU1105
 15579 0bfb 00       		.uleb128 .LVU1105
 15580 0bfc 00       		.uleb128 .LVU1105
 15581 0bfd 00       		.uleb128 .LVU1105
 15582 0bfe 00       		.uleb128 .LVU1109
 15583 0bff 00       		.uleb128 .LVU1109
 15584 0c00 00       		.uleb128 0
 15585              	.LLST237:
 15586 0c01 00000000 		.4byte	.LVL325
 15587 0c05 B3000000 		.4byte	.LVL348-1
 15588 0c09 0100     		.2byte	0x1
 15589 0c0b 50       		.byte	0x50
 15590 0c0c B3000000 		.4byte	.LVL348-1
 15591 0c10 B4000000 		.4byte	.LVL348
 15592 0c14 0400     		.2byte	0x4
 15593 0c16 F3       		.byte	0xf3
 15594 0c17 01       		.uleb128 0x1
 15595 0c18 50       		.byte	0x50
 15596 0c19 9F       		.byte	0x9f
 15597 0c1a B4000000 		.4byte	.LVL348
 15598 0c1e C7000000 		.4byte	.LVL350-1
 15599 0c22 0100     		.2byte	0x1
 15600 0c24 50       		.byte	0x50
 15601 0c25 C7000000 		.4byte	.LVL350-1
 15602 0c29 CC000000 		.4byte	.LFE20
 15603 0c2d 0400     		.2byte	0x4
 15604 0c2f F3       		.byte	0xf3
 15605 0c30 01       		.uleb128 0x1
 15606 0c31 50       		.byte	0x50
 15607 0c32 9F       		.byte	0x9f
 15608 0c33 00000000 		.4byte	0
 15609 0c37 00000000 		.4byte	0
 15610              	.LVUS238:
 15611 0c3b 00       		.uleb128 .LVU1046
 15612 0c3c 00       		.uleb128 .LVU1071
 15613 0c3d 00       		.uleb128 .LVU1074
 15614 0c3e 01       		.uleb128 .LVU1075
 15615 0c3f 00       		.uleb128 .LVU1092
 15616 0c40 00       		.uleb128 .LVU1104
 15617              	.LLST238:
 15618 0c41 28000000 		.4byte	.LVL327
 15619 0c45 52000000 		.4byte	.LVL333
 15620 0c49 0100     		.2byte	0x1
 15621 0c4b 5C       		.byte	0x5c
 15622 0c4c 58000000 		.4byte	.LVL336
ARM GAS  /tmp/cchqCFfA.s 			page 278


 15623 0c50 58000000 		.4byte	.LVL336
 15624 0c54 0100     		.2byte	0x1
 15625 0c56 5E       		.byte	0x5e
 15626 0c57 8A000000 		.4byte	.LVL342
 15627 0c5b B0000000 		.4byte	.LVL347
 15628 0c5f 0100     		.2byte	0x1
 15629 0c61 5E       		.byte	0x5e
 15630 0c62 00000000 		.4byte	0
 15631 0c66 00000000 		.4byte	0
 15632              	.LVUS239:
 15633 0c6a 00       		.uleb128 .LVU1051
 15634 0c6b 00       		.uleb128 .LVU1101
 15635 0c6c 00       		.uleb128 .LVU1101
 15636 0c6d 00       		.uleb128 .LVU1104
 15637 0c6e 00       		.uleb128 .LVU1105
 15638 0c6f 00       		.uleb128 .LVU1107
 15639              	.LLST239:
 15640 0c70 32000000 		.4byte	.LVL328
 15641 0c74 98000000 		.4byte	.LVL345
 15642 0c78 0100     		.2byte	0x1
 15643 0c7a 53       		.byte	0x53
 15644 0c7b 98000000 		.4byte	.LVL345
 15645 0c7f B0000000 		.4byte	.LVL347
 15646 0c83 0100     		.2byte	0x1
 15647 0c85 59       		.byte	0x59
 15648 0c86 B4000000 		.4byte	.LVL348
 15649 0c8a B6000000 		.4byte	.LVL349
 15650 0c8e 0100     		.2byte	0x1
 15651 0c90 53       		.byte	0x53
 15652 0c91 00000000 		.4byte	0
 15653 0c95 00000000 		.4byte	0
 15654              	.LVUS240:
 15655 0c99 00       		.uleb128 .LVU1056
 15656 0c9a 00       		.uleb128 .LVU1073
 15657 0c9b 00       		.uleb128 .LVU1088
 15658 0c9c 00       		.uleb128 .LVU1091
 15659 0c9d 00       		.uleb128 .LVU1091
 15660 0c9e 00       		.uleb128 .LVU1094
 15661 0c9f 00       		.uleb128 .LVU1094
 15662 0ca0 01       		.uleb128 .LVU1095
 15663              	.LLST240:
 15664 0ca1 3A000000 		.4byte	.LVL329
 15665 0ca5 56000000 		.4byte	.LVL335
 15666 0ca9 0100     		.2byte	0x1
 15667 0cab 56       		.byte	0x56
 15668 0cac 7A000000 		.4byte	.LVL340
 15669 0cb0 86000000 		.4byte	.LVL341
 15670 0cb4 0100     		.2byte	0x1
 15671 0cb6 54       		.byte	0x54
 15672 0cb7 86000000 		.4byte	.LVL341
 15673 0cbb 8E000000 		.4byte	.LVL343
 15674 0cbf 0600     		.2byte	0x6
 15675 0cc1 73       		.byte	0x73
 15676 0cc2 00       		.sleb128 0
 15677 0cc3 76       		.byte	0x76
 15678 0cc4 00       		.sleb128 0
 15679 0cc5 22       		.byte	0x22
ARM GAS  /tmp/cchqCFfA.s 			page 279


 15680 0cc6 9F       		.byte	0x9f
 15681 0cc7 8E000000 		.4byte	.LVL343
 15682 0ccb 8E000000 		.4byte	.LVL343
 15683 0ccf 0800     		.2byte	0x8
 15684 0cd1 76       		.byte	0x76
 15685 0cd2 00       		.sleb128 0
 15686 0cd3 79       		.byte	0x79
 15687 0cd4 00       		.sleb128 0
 15688 0cd5 22       		.byte	0x22
 15689 0cd6 31       		.byte	0x31
 15690 0cd7 1C       		.byte	0x1c
 15691 0cd8 9F       		.byte	0x9f
 15692 0cd9 00000000 		.4byte	0
 15693 0cdd 00000000 		.4byte	0
 15694              	.LVUS241:
 15695 0ce1 00       		.uleb128 .LVU1061
 15696 0ce2 00       		.uleb128 .LVU1072
 15697 0ce3 00       		.uleb128 .LVU1088
 15698 0ce4 00       		.uleb128 .LVU1094
 15699 0ce5 00       		.uleb128 .LVU1094
 15700 0ce6 02       		.uleb128 .LVU1096
 15701              	.LLST241:
 15702 0ce7 42000000 		.4byte	.LVL330
 15703 0ceb 54000000 		.4byte	.LVL334
 15704 0cef 0100     		.2byte	0x1
 15705 0cf1 57       		.byte	0x57
 15706 0cf2 7A000000 		.4byte	.LVL340
 15707 0cf6 8E000000 		.4byte	.LVL343
 15708 0cfa 0600     		.2byte	0x6
 15709 0cfc 73       		.byte	0x73
 15710 0cfd 00       		.sleb128 0
 15711 0cfe 77       		.byte	0x77
 15712 0cff 00       		.sleb128 0
 15713 0d00 22       		.byte	0x22
 15714 0d01 9F       		.byte	0x9f
 15715 0d02 8E000000 		.4byte	.LVL343
 15716 0d06 8E000000 		.4byte	.LVL343
 15717 0d0a 0800     		.2byte	0x8
 15718 0d0c 77       		.byte	0x77
 15719 0d0d 00       		.sleb128 0
 15720 0d0e 79       		.byte	0x79
 15721 0d0f 00       		.sleb128 0
 15722 0d10 22       		.byte	0x22
 15723 0d11 31       		.byte	0x31
 15724 0d12 1C       		.byte	0x1c
 15725 0d13 9F       		.byte	0x9f
 15726 0d14 00000000 		.4byte	0
 15727 0d18 00000000 		.4byte	0
 15728              	.LVUS242:
 15729 0d1c 00       		.uleb128 .LVU1066
 15730 0d1d 00       		.uleb128 .LVU1070
 15731 0d1e 00       		.uleb128 .LVU1070
 15732 0d1f 00       		.uleb128 .LVU1074
 15733              	.LLST242:
 15734 0d20 48000000 		.4byte	.LVL331
 15735 0d24 4C000000 		.4byte	.LVL332
 15736 0d28 0100     		.2byte	0x1
ARM GAS  /tmp/cchqCFfA.s 			page 280


 15737 0d2a 55       		.byte	0x55
 15738 0d2b 4C000000 		.4byte	.LVL332
 15739 0d2f 58000000 		.4byte	.LVL336
 15740 0d33 0700     		.2byte	0x7
 15741 0d35 74       		.byte	0x74
 15742 0d36 00       		.sleb128 0
 15743 0d37 31       		.byte	0x31
 15744 0d38 24       		.byte	0x24
 15745 0d39 71       		.byte	0x71
 15746 0d3a 00       		.sleb128 0
 15747 0d3b 22       		.byte	0x22
 15748 0d3c 00000000 		.4byte	0
 15749 0d40 00000000 		.4byte	0
 15750              	.LVUS243:
 15751 0d44 02       		.uleb128 .LVU1068
 15752 0d45 00       		.uleb128 .LVU1074
 15753              	.LLST243:
 15754 0d46 48000000 		.4byte	.LVL331
 15755 0d4a 58000000 		.4byte	.LVL336
 15756 0d4e 0200     		.2byte	0x2
 15757 0d50 30       		.byte	0x30
 15758 0d51 9F       		.byte	0x9f
 15759 0d52 00000000 		.4byte	0
 15760 0d56 00000000 		.4byte	0
 15761              	.LVUS254:
 15762 0d5a 00       		.uleb128 .LVU1074
 15763 0d5b 00       		.uleb128 .LVU1078
 15764 0d5c 00       		.uleb128 .LVU1078
 15765 0d5d 00       		.uleb128 .LVU1080
 15766 0d5e 00       		.uleb128 .LVU1094
 15767 0d5f 00       		.uleb128 .LVU1100
 15768 0d60 00       		.uleb128 .LVU1100
 15769 0d61 00       		.uleb128 .LVU1102
 15770              	.LLST254:
 15771 0d62 58000000 		.4byte	.LVL336
 15772 0d66 5E000000 		.4byte	.LVL337
 15773 0d6a 0700     		.2byte	0x7
 15774 0d6c 72       		.byte	0x72
 15775 0d6d 00       		.sleb128 0
 15776 0d6e 40       		.byte	0x40
 15777 0d6f 24       		.byte	0x24
 15778 0d70 40       		.byte	0x40
 15779 0d71 26       		.byte	0x26
 15780 0d72 9F       		.byte	0x9f
 15781 0d73 5E000000 		.4byte	.LVL337
 15782 0d77 66000000 		.4byte	.LVL338
 15783 0d7b 0E00     		.2byte	0xe
 15784 0d7d 79       		.byte	0x79
 15785 0d7e 7F       		.sleb128 -1
 15786 0d7f 31       		.byte	0x31
 15787 0d80 24       		.byte	0x24
 15788 0d81 71       		.byte	0x71
 15789 0d82 00       		.sleb128 0
 15790 0d83 22       		.byte	0x22
 15791 0d84 94       		.byte	0x94
 15792 0d85 02       		.byte	0x2
 15793 0d86 40       		.byte	0x40
ARM GAS  /tmp/cchqCFfA.s 			page 281


 15794 0d87 24       		.byte	0x24
 15795 0d88 40       		.byte	0x40
 15796 0d89 26       		.byte	0x26
 15797 0d8a 9F       		.byte	0x9f
 15798 0d8b 8E000000 		.4byte	.LVL343
 15799 0d8f 96000000 		.4byte	.LVL344
 15800 0d93 0700     		.2byte	0x7
 15801 0d95 72       		.byte	0x72
 15802 0d96 00       		.sleb128 0
 15803 0d97 40       		.byte	0x40
 15804 0d98 24       		.byte	0x24
 15805 0d99 40       		.byte	0x40
 15806 0d9a 26       		.byte	0x26
 15807 0d9b 9F       		.byte	0x9f
 15808 0d9c 96000000 		.4byte	.LVL344
 15809 0da0 9A000000 		.4byte	.LVL346
 15810 0da4 0E00     		.2byte	0xe
 15811 0da6 79       		.byte	0x79
 15812 0da7 7F       		.sleb128 -1
 15813 0da8 31       		.byte	0x31
 15814 0da9 24       		.byte	0x24
 15815 0daa 71       		.byte	0x71
 15816 0dab 00       		.sleb128 0
 15817 0dac 22       		.byte	0x22
 15818 0dad 94       		.byte	0x94
 15819 0dae 02       		.byte	0x2
 15820 0daf 40       		.byte	0x40
 15821 0db0 24       		.byte	0x24
 15822 0db1 40       		.byte	0x40
 15823 0db2 26       		.byte	0x26
 15824 0db3 9F       		.byte	0x9f
 15825 0db4 00000000 		.4byte	0
 15826 0db8 00000000 		.4byte	0
 15827              	.LVUS255:
 15828 0dbc 00       		.uleb128 .LVU1074
 15829 0dbd 00       		.uleb128 .LVU1084
 15830 0dbe 01       		.uleb128 .LVU1095
 15831 0dbf 00       		.uleb128 .LVU1104
 15832              	.LLST255:
 15833 0dc0 58000000 		.4byte	.LVL336
 15834 0dc4 68000000 		.4byte	.LVL339
 15835 0dc8 0700     		.2byte	0x7
 15836 0dca 74       		.byte	0x74
 15837 0dcb 00       		.sleb128 0
 15838 0dcc 40       		.byte	0x40
 15839 0dcd 24       		.byte	0x24
 15840 0dce 40       		.byte	0x40
 15841 0dcf 26       		.byte	0x26
 15842 0dd0 9F       		.byte	0x9f
 15843 0dd1 8E000000 		.4byte	.LVL343
 15844 0dd5 B0000000 		.4byte	.LVL347
 15845 0dd9 0700     		.2byte	0x7
 15846 0ddb 74       		.byte	0x74
 15847 0ddc 00       		.sleb128 0
 15848 0ddd 40       		.byte	0x40
 15849 0dde 24       		.byte	0x24
 15850 0ddf 40       		.byte	0x40
ARM GAS  /tmp/cchqCFfA.s 			page 282


 15851 0de0 26       		.byte	0x26
 15852 0de1 9F       		.byte	0x9f
 15853 0de2 00000000 		.4byte	0
 15854 0de6 00000000 		.4byte	0
 15855              	.LVUS256:
 15856 0dea 00       		.uleb128 .LVU1074
 15857 0deb 00       		.uleb128 .LVU1084
 15858 0dec 02       		.uleb128 .LVU1096
 15859 0ded 00       		.uleb128 .LVU1104
 15860              	.LLST256:
 15861 0dee 58000000 		.4byte	.LVL336
 15862 0df2 68000000 		.4byte	.LVL339
 15863 0df6 0100     		.2byte	0x1
 15864 0df8 58       		.byte	0x58
 15865 0df9 8E000000 		.4byte	.LVL343
 15866 0dfd B0000000 		.4byte	.LVL347
 15867 0e01 0100     		.2byte	0x1
 15868 0e03 58       		.byte	0x58
 15869 0e04 00000000 		.4byte	0
 15870 0e08 00000000 		.4byte	0
 15871              	.LVUS244:
 15872 0e0c 02       		.uleb128 .LVU1043
 15873 0e0d 00       		.uleb128 .LVU1105
 15874 0e0e 00       		.uleb128 .LVU1105
 15875 0e0f 00       		.uleb128 .LVU1105
 15876 0e10 00       		.uleb128 .LVU1105
 15877 0e11 00       		.uleb128 .LVU1109
 15878 0e12 00       		.uleb128 .LVU1109
 15879 0e13 00       		.uleb128 0
 15880              	.LLST244:
 15881 0e14 18000000 		.4byte	.LVL326
 15882 0e18 B3000000 		.4byte	.LVL348-1
 15883 0e1c 0100     		.2byte	0x1
 15884 0e1e 50       		.byte	0x50
 15885 0e1f B3000000 		.4byte	.LVL348-1
 15886 0e23 B4000000 		.4byte	.LVL348
 15887 0e27 0400     		.2byte	0x4
 15888 0e29 F3       		.byte	0xf3
 15889 0e2a 01       		.uleb128 0x1
 15890 0e2b 50       		.byte	0x50
 15891 0e2c 9F       		.byte	0x9f
 15892 0e2d B4000000 		.4byte	.LVL348
 15893 0e31 C7000000 		.4byte	.LVL350-1
 15894 0e35 0100     		.2byte	0x1
 15895 0e37 50       		.byte	0x50
 15896 0e38 C7000000 		.4byte	.LVL350-1
 15897 0e3c CC000000 		.4byte	.LFE20
 15898 0e40 0400     		.2byte	0x4
 15899 0e42 F3       		.byte	0xf3
 15900 0e43 01       		.uleb128 0x1
 15901 0e44 50       		.byte	0x50
 15902 0e45 9F       		.byte	0x9f
 15903 0e46 00000000 		.4byte	0
 15904 0e4a 00000000 		.4byte	0
 15905              	.LVUS245:
 15906 0e4e 02       		.uleb128 .LVU1043
 15907 0e4f 00       		.uleb128 .LVU1105
ARM GAS  /tmp/cchqCFfA.s 			page 283


 15908 0e50 00       		.uleb128 .LVU1105
 15909 0e51 00       		.uleb128 .LVU1105
 15910 0e52 00       		.uleb128 .LVU1105
 15911 0e53 00       		.uleb128 .LVU1109
 15912 0e54 00       		.uleb128 .LVU1109
 15913 0e55 00       		.uleb128 0
 15914              	.LLST245:
 15915 0e56 18000000 		.4byte	.LVL326
 15916 0e5a B3000000 		.4byte	.LVL348-1
 15917 0e5e 0100     		.2byte	0x1
 15918 0e60 50       		.byte	0x50
 15919 0e61 B3000000 		.4byte	.LVL348-1
 15920 0e65 B4000000 		.4byte	.LVL348
 15921 0e69 0400     		.2byte	0x4
 15922 0e6b F3       		.byte	0xf3
 15923 0e6c 01       		.uleb128 0x1
 15924 0e6d 50       		.byte	0x50
 15925 0e6e 9F       		.byte	0x9f
 15926 0e6f B4000000 		.4byte	.LVL348
 15927 0e73 C7000000 		.4byte	.LVL350-1
 15928 0e77 0100     		.2byte	0x1
 15929 0e79 50       		.byte	0x50
 15930 0e7a C7000000 		.4byte	.LVL350-1
 15931 0e7e CC000000 		.4byte	.LFE20
 15932 0e82 0400     		.2byte	0x4
 15933 0e84 F3       		.byte	0xf3
 15934 0e85 01       		.uleb128 0x1
 15935 0e86 50       		.byte	0x50
 15936 0e87 9F       		.byte	0x9f
 15937 0e88 00000000 		.4byte	0
 15938 0e8c 00000000 		.4byte	0
 15939              	.LVUS246:
 15940 0e90 02       		.uleb128 .LVU1048
 15941 0e91 00       		.uleb128 .LVU1105
 15942 0e92 00       		.uleb128 .LVU1105
 15943 0e93 00       		.uleb128 .LVU1105
 15944 0e94 00       		.uleb128 .LVU1105
 15945 0e95 00       		.uleb128 .LVU1109
 15946 0e96 00       		.uleb128 .LVU1109
 15947 0e97 00       		.uleb128 0
 15948              	.LLST246:
 15949 0e98 28000000 		.4byte	.LVL327
 15950 0e9c B3000000 		.4byte	.LVL348-1
 15951 0ea0 0100     		.2byte	0x1
 15952 0ea2 50       		.byte	0x50
 15953 0ea3 B3000000 		.4byte	.LVL348-1
 15954 0ea7 B4000000 		.4byte	.LVL348
 15955 0eab 0400     		.2byte	0x4
 15956 0ead F3       		.byte	0xf3
 15957 0eae 01       		.uleb128 0x1
 15958 0eaf 50       		.byte	0x50
 15959 0eb0 9F       		.byte	0x9f
 15960 0eb1 B4000000 		.4byte	.LVL348
 15961 0eb5 C7000000 		.4byte	.LVL350-1
 15962 0eb9 0100     		.2byte	0x1
 15963 0ebb 50       		.byte	0x50
 15964 0ebc C7000000 		.4byte	.LVL350-1
ARM GAS  /tmp/cchqCFfA.s 			page 284


 15965 0ec0 CC000000 		.4byte	.LFE20
 15966 0ec4 0400     		.2byte	0x4
 15967 0ec6 F3       		.byte	0xf3
 15968 0ec7 01       		.uleb128 0x1
 15969 0ec8 50       		.byte	0x50
 15970 0ec9 9F       		.byte	0x9f
 15971 0eca 00000000 		.4byte	0
 15972 0ece 00000000 		.4byte	0
 15973              	.LVUS247:
 15974 0ed2 02       		.uleb128 .LVU1048
 15975 0ed3 00       		.uleb128 .LVU1105
 15976 0ed4 00       		.uleb128 .LVU1105
 15977 0ed5 00       		.uleb128 .LVU1105
 15978 0ed6 00       		.uleb128 .LVU1105
 15979 0ed7 00       		.uleb128 .LVU1109
 15980 0ed8 00       		.uleb128 .LVU1109
 15981 0ed9 00       		.uleb128 0
 15982              	.LLST247:
 15983 0eda 28000000 		.4byte	.LVL327
 15984 0ede B3000000 		.4byte	.LVL348-1
 15985 0ee2 0100     		.2byte	0x1
 15986 0ee4 50       		.byte	0x50
 15987 0ee5 B3000000 		.4byte	.LVL348-1
 15988 0ee9 B4000000 		.4byte	.LVL348
 15989 0eed 0400     		.2byte	0x4
 15990 0eef F3       		.byte	0xf3
 15991 0ef0 01       		.uleb128 0x1
 15992 0ef1 50       		.byte	0x50
 15993 0ef2 9F       		.byte	0x9f
 15994 0ef3 B4000000 		.4byte	.LVL348
 15995 0ef7 C7000000 		.4byte	.LVL350-1
 15996 0efb 0100     		.2byte	0x1
 15997 0efd 50       		.byte	0x50
 15998 0efe C7000000 		.4byte	.LVL350-1
 15999 0f02 CC000000 		.4byte	.LFE20
 16000 0f06 0400     		.2byte	0x4
 16001 0f08 F3       		.byte	0xf3
 16002 0f09 01       		.uleb128 0x1
 16003 0f0a 50       		.byte	0x50
 16004 0f0b 9F       		.byte	0x9f
 16005 0f0c 00000000 		.4byte	0
 16006 0f10 00000000 		.4byte	0
 16007              	.LVUS248:
 16008 0f14 02       		.uleb128 .LVU1053
 16009 0f15 00       		.uleb128 .LVU1105
 16010 0f16 00       		.uleb128 .LVU1105
 16011 0f17 00       		.uleb128 .LVU1105
 16012 0f18 00       		.uleb128 .LVU1105
 16013 0f19 00       		.uleb128 .LVU1109
 16014 0f1a 00       		.uleb128 .LVU1109
 16015 0f1b 00       		.uleb128 0
 16016              	.LLST248:
 16017 0f1c 32000000 		.4byte	.LVL328
 16018 0f20 B3000000 		.4byte	.LVL348-1
 16019 0f24 0100     		.2byte	0x1
 16020 0f26 50       		.byte	0x50
 16021 0f27 B3000000 		.4byte	.LVL348-1
ARM GAS  /tmp/cchqCFfA.s 			page 285


 16022 0f2b B4000000 		.4byte	.LVL348
 16023 0f2f 0400     		.2byte	0x4
 16024 0f31 F3       		.byte	0xf3
 16025 0f32 01       		.uleb128 0x1
 16026 0f33 50       		.byte	0x50
 16027 0f34 9F       		.byte	0x9f
 16028 0f35 B4000000 		.4byte	.LVL348
 16029 0f39 C7000000 		.4byte	.LVL350-1
 16030 0f3d 0100     		.2byte	0x1
 16031 0f3f 50       		.byte	0x50
 16032 0f40 C7000000 		.4byte	.LVL350-1
 16033 0f44 CC000000 		.4byte	.LFE20
 16034 0f48 0400     		.2byte	0x4
 16035 0f4a F3       		.byte	0xf3
 16036 0f4b 01       		.uleb128 0x1
 16037 0f4c 50       		.byte	0x50
 16038 0f4d 9F       		.byte	0x9f
 16039 0f4e 00000000 		.4byte	0
 16040 0f52 00000000 		.4byte	0
 16041              	.LVUS249:
 16042 0f56 02       		.uleb128 .LVU1053
 16043 0f57 00       		.uleb128 .LVU1105
 16044 0f58 00       		.uleb128 .LVU1105
 16045 0f59 00       		.uleb128 .LVU1105
 16046 0f5a 00       		.uleb128 .LVU1105
 16047 0f5b 00       		.uleb128 .LVU1109
 16048 0f5c 00       		.uleb128 .LVU1109
 16049 0f5d 00       		.uleb128 0
 16050              	.LLST249:
 16051 0f5e 32000000 		.4byte	.LVL328
 16052 0f62 B3000000 		.4byte	.LVL348-1
 16053 0f66 0100     		.2byte	0x1
 16054 0f68 50       		.byte	0x50
 16055 0f69 B3000000 		.4byte	.LVL348-1
 16056 0f6d B4000000 		.4byte	.LVL348
 16057 0f71 0400     		.2byte	0x4
 16058 0f73 F3       		.byte	0xf3
 16059 0f74 01       		.uleb128 0x1
 16060 0f75 50       		.byte	0x50
 16061 0f76 9F       		.byte	0x9f
 16062 0f77 B4000000 		.4byte	.LVL348
 16063 0f7b C7000000 		.4byte	.LVL350-1
 16064 0f7f 0100     		.2byte	0x1
 16065 0f81 50       		.byte	0x50
 16066 0f82 C7000000 		.4byte	.LVL350-1
 16067 0f86 CC000000 		.4byte	.LFE20
 16068 0f8a 0400     		.2byte	0x4
 16069 0f8c F3       		.byte	0xf3
 16070 0f8d 01       		.uleb128 0x1
 16071 0f8e 50       		.byte	0x50
 16072 0f8f 9F       		.byte	0x9f
 16073 0f90 00000000 		.4byte	0
 16074 0f94 00000000 		.4byte	0
 16075              	.LVUS250:
 16076 0f98 02       		.uleb128 .LVU1058
 16077 0f99 00       		.uleb128 .LVU1105
 16078 0f9a 00       		.uleb128 .LVU1105
ARM GAS  /tmp/cchqCFfA.s 			page 286


 16079 0f9b 00       		.uleb128 .LVU1105
 16080 0f9c 00       		.uleb128 .LVU1105
 16081 0f9d 00       		.uleb128 .LVU1109
 16082 0f9e 00       		.uleb128 .LVU1109
 16083 0f9f 00       		.uleb128 0
 16084              	.LLST250:
 16085 0fa0 3A000000 		.4byte	.LVL329
 16086 0fa4 B3000000 		.4byte	.LVL348-1
 16087 0fa8 0100     		.2byte	0x1
 16088 0faa 50       		.byte	0x50
 16089 0fab B3000000 		.4byte	.LVL348-1
 16090 0faf B4000000 		.4byte	.LVL348
 16091 0fb3 0400     		.2byte	0x4
 16092 0fb5 F3       		.byte	0xf3
 16093 0fb6 01       		.uleb128 0x1
 16094 0fb7 50       		.byte	0x50
 16095 0fb8 9F       		.byte	0x9f
 16096 0fb9 B4000000 		.4byte	.LVL348
 16097 0fbd C7000000 		.4byte	.LVL350-1
 16098 0fc1 0100     		.2byte	0x1
 16099 0fc3 50       		.byte	0x50
 16100 0fc4 C7000000 		.4byte	.LVL350-1
 16101 0fc8 CC000000 		.4byte	.LFE20
 16102 0fcc 0400     		.2byte	0x4
 16103 0fce F3       		.byte	0xf3
 16104 0fcf 01       		.uleb128 0x1
 16105 0fd0 50       		.byte	0x50
 16106 0fd1 9F       		.byte	0x9f
 16107 0fd2 00000000 		.4byte	0
 16108 0fd6 00000000 		.4byte	0
 16109              	.LVUS251:
 16110 0fda 02       		.uleb128 .LVU1058
 16111 0fdb 00       		.uleb128 .LVU1105
 16112 0fdc 00       		.uleb128 .LVU1105
 16113 0fdd 00       		.uleb128 .LVU1105
 16114 0fde 00       		.uleb128 .LVU1105
 16115 0fdf 00       		.uleb128 .LVU1109
 16116 0fe0 00       		.uleb128 .LVU1109
 16117 0fe1 00       		.uleb128 0
 16118              	.LLST251:
 16119 0fe2 3A000000 		.4byte	.LVL329
 16120 0fe6 B3000000 		.4byte	.LVL348-1
 16121 0fea 0100     		.2byte	0x1
 16122 0fec 50       		.byte	0x50
 16123 0fed B3000000 		.4byte	.LVL348-1
 16124 0ff1 B4000000 		.4byte	.LVL348
 16125 0ff5 0400     		.2byte	0x4
 16126 0ff7 F3       		.byte	0xf3
 16127 0ff8 01       		.uleb128 0x1
 16128 0ff9 50       		.byte	0x50
 16129 0ffa 9F       		.byte	0x9f
 16130 0ffb B4000000 		.4byte	.LVL348
 16131 0fff C7000000 		.4byte	.LVL350-1
 16132 1003 0100     		.2byte	0x1
 16133 1005 50       		.byte	0x50
 16134 1006 C7000000 		.4byte	.LVL350-1
 16135 100a CC000000 		.4byte	.LFE20
ARM GAS  /tmp/cchqCFfA.s 			page 287


 16136 100e 0400     		.2byte	0x4
 16137 1010 F3       		.byte	0xf3
 16138 1011 01       		.uleb128 0x1
 16139 1012 50       		.byte	0x50
 16140 1013 9F       		.byte	0x9f
 16141 1014 00000000 		.4byte	0
 16142 1018 00000000 		.4byte	0
 16143              	.LVUS252:
 16144 101c 02       		.uleb128 .LVU1063
 16145 101d 00       		.uleb128 .LVU1105
 16146 101e 00       		.uleb128 .LVU1105
 16147 101f 00       		.uleb128 .LVU1105
 16148 1020 00       		.uleb128 .LVU1105
 16149 1021 00       		.uleb128 .LVU1109
 16150 1022 00       		.uleb128 .LVU1109
 16151 1023 00       		.uleb128 0
 16152              	.LLST252:
 16153 1024 42000000 		.4byte	.LVL330
 16154 1028 B3000000 		.4byte	.LVL348-1
 16155 102c 0100     		.2byte	0x1
 16156 102e 50       		.byte	0x50
 16157 102f B3000000 		.4byte	.LVL348-1
 16158 1033 B4000000 		.4byte	.LVL348
 16159 1037 0400     		.2byte	0x4
 16160 1039 F3       		.byte	0xf3
 16161 103a 01       		.uleb128 0x1
 16162 103b 50       		.byte	0x50
 16163 103c 9F       		.byte	0x9f
 16164 103d B4000000 		.4byte	.LVL348
 16165 1041 C7000000 		.4byte	.LVL350-1
 16166 1045 0100     		.2byte	0x1
 16167 1047 50       		.byte	0x50
 16168 1048 C7000000 		.4byte	.LVL350-1
 16169 104c CC000000 		.4byte	.LFE20
 16170 1050 0400     		.2byte	0x4
 16171 1052 F3       		.byte	0xf3
 16172 1053 01       		.uleb128 0x1
 16173 1054 50       		.byte	0x50
 16174 1055 9F       		.byte	0x9f
 16175 1056 00000000 		.4byte	0
 16176 105a 00000000 		.4byte	0
 16177              	.LVUS253:
 16178 105e 02       		.uleb128 .LVU1063
 16179 105f 00       		.uleb128 .LVU1105
 16180 1060 00       		.uleb128 .LVU1105
 16181 1061 00       		.uleb128 .LVU1105
 16182 1062 00       		.uleb128 .LVU1105
 16183 1063 00       		.uleb128 .LVU1109
 16184 1064 00       		.uleb128 .LVU1109
 16185 1065 00       		.uleb128 0
 16186              	.LLST253:
 16187 1066 42000000 		.4byte	.LVL330
 16188 106a B3000000 		.4byte	.LVL348-1
 16189 106e 0100     		.2byte	0x1
 16190 1070 50       		.byte	0x50
 16191 1071 B3000000 		.4byte	.LVL348-1
 16192 1075 B4000000 		.4byte	.LVL348
ARM GAS  /tmp/cchqCFfA.s 			page 288


 16193 1079 0400     		.2byte	0x4
 16194 107b F3       		.byte	0xf3
 16195 107c 01       		.uleb128 0x1
 16196 107d 50       		.byte	0x50
 16197 107e 9F       		.byte	0x9f
 16198 107f B4000000 		.4byte	.LVL348
 16199 1083 C7000000 		.4byte	.LVL350-1
 16200 1087 0100     		.2byte	0x1
 16201 1089 50       		.byte	0x50
 16202 108a C7000000 		.4byte	.LVL350-1
 16203 108e CC000000 		.4byte	.LFE20
 16204 1092 0400     		.2byte	0x4
 16205 1094 F3       		.byte	0xf3
 16206 1095 01       		.uleb128 0x1
 16207 1096 50       		.byte	0x50
 16208 1097 9F       		.byte	0x9f
 16209 1098 00000000 		.4byte	0
 16210 109c 00000000 		.4byte	0
 16211              	.LVUS230:
 16212 10a0 00       		.uleb128 0
 16213 10a1 00       		.uleb128 .LVU1028
 16214 10a2 00       		.uleb128 .LVU1028
 16215 10a3 00       		.uleb128 .LVU1031
 16216 10a4 00       		.uleb128 .LVU1031
 16217 10a5 00       		.uleb128 .LVU1032
 16218 10a6 00       		.uleb128 .LVU1032
 16219 10a7 00       		.uleb128 0
 16220              	.LLST230:
 16221 10a8 00000000 		.4byte	.LVL317
 16222 10ac 30000000 		.4byte	.LVL321
 16223 10b0 0100     		.2byte	0x1
 16224 10b2 50       		.byte	0x50
 16225 10b3 30000000 		.4byte	.LVL321
 16226 10b7 42000000 		.4byte	.LVL323
 16227 10bb 0400     		.2byte	0x4
 16228 10bd F3       		.byte	0xf3
 16229 10be 01       		.uleb128 0x1
 16230 10bf 50       		.byte	0x50
 16231 10c0 9F       		.byte	0x9f
 16232 10c1 42000000 		.4byte	.LVL323
 16233 10c5 45000000 		.4byte	.LVL324-1
 16234 10c9 0100     		.2byte	0x1
 16235 10cb 50       		.byte	0x50
 16236 10cc 45000000 		.4byte	.LVL324-1
 16237 10d0 4C000000 		.4byte	.LFE19
 16238 10d4 0400     		.2byte	0x4
 16239 10d6 F3       		.byte	0xf3
 16240 10d7 01       		.uleb128 0x1
 16241 10d8 50       		.byte	0x50
 16242 10d9 9F       		.byte	0x9f
 16243 10da 00000000 		.4byte	0
 16244 10de 00000000 		.4byte	0
 16245              	.LVUS231:
 16246 10e2 00       		.uleb128 .LVU1022
 16247 10e3 00       		.uleb128 .LVU1030
 16248 10e4 00       		.uleb128 .LVU1031
 16249 10e5 00       		.uleb128 0
ARM GAS  /tmp/cchqCFfA.s 			page 289


 16250              	.LLST231:
 16251 10e6 22000000 		.4byte	.LVL319
 16252 10ea 3E000000 		.4byte	.LVL322
 16253 10ee 0100     		.2byte	0x1
 16254 10f0 55       		.byte	0x55
 16255 10f1 42000000 		.4byte	.LVL323
 16256 10f5 4C000000 		.4byte	.LFE19
 16257 10f9 0100     		.2byte	0x1
 16258 10fb 55       		.byte	0x55
 16259 10fc 00000000 		.4byte	0
 16260 1100 00000000 		.4byte	0
 16261              	.LVUS232:
 16262 1104 00       		.uleb128 .LVU1026
 16263 1105 00       		.uleb128 .LVU1030
 16264 1106 00       		.uleb128 .LVU1030
 16265 1107 00       		.uleb128 .LVU1031
 16266 1108 00       		.uleb128 .LVU1031
 16267 1109 00       		.uleb128 .LVU1032
 16268              	.LLST232:
 16269 110a 24000000 		.4byte	.LVL320
 16270 110e 3E000000 		.4byte	.LVL322
 16271 1112 0B00     		.2byte	0xb
 16272 1114 72       		.byte	0x72
 16273 1115 00       		.sleb128 0
 16274 1116 40       		.byte	0x40
 16275 1117 24       		.byte	0x24
 16276 1118 40       		.byte	0x40
 16277 1119 26       		.byte	0x26
 16278 111a 31       		.byte	0x31
 16279 111b 24       		.byte	0x24
 16280 111c 74       		.byte	0x74
 16281 111d 00       		.sleb128 0
 16282 111e 22       		.byte	0x22
 16283 111f 3E000000 		.4byte	.LVL322
 16284 1123 41000000 		.4byte	.LVL323-1
 16285 1127 0F00     		.2byte	0xf
 16286 1129 72       		.byte	0x72
 16287 112a 00       		.sleb128 0
 16288 112b 40       		.byte	0x40
 16289 112c 24       		.byte	0x24
 16290 112d 40       		.byte	0x40
 16291 112e 26       		.byte	0x26
 16292 112f 31       		.byte	0x31
 16293 1130 24       		.byte	0x24
 16294 1131 F3       		.byte	0xf3
 16295 1132 01       		.uleb128 0x1
 16296 1133 50       		.byte	0x50
 16297 1134 23       		.byte	0x23
 16298 1135 14       		.uleb128 0x14
 16299 1136 06       		.byte	0x6
 16300 1137 22       		.byte	0x22
 16301 1138 42000000 		.4byte	.LVL323
 16302 113c 45000000 		.4byte	.LVL324-1
 16303 1140 0B00     		.2byte	0xb
 16304 1142 72       		.byte	0x72
 16305 1143 00       		.sleb128 0
 16306 1144 40       		.byte	0x40
ARM GAS  /tmp/cchqCFfA.s 			page 290


 16307 1145 24       		.byte	0x24
 16308 1146 40       		.byte	0x40
 16309 1147 26       		.byte	0x26
 16310 1148 31       		.byte	0x31
 16311 1149 24       		.byte	0x24
 16312 114a 74       		.byte	0x74
 16313 114b 00       		.sleb128 0
 16314 114c 22       		.byte	0x22
 16315 114d 00000000 		.4byte	0
 16316 1151 00000000 		.4byte	0
 16317              	.LVUS233:
 16318 1155 02       		.uleb128 .LVU1019
 16319 1156 00       		.uleb128 .LVU1028
 16320 1157 00       		.uleb128 .LVU1028
 16321 1158 00       		.uleb128 .LVU1031
 16322 1159 00       		.uleb128 .LVU1031
 16323 115a 00       		.uleb128 .LVU1032
 16324 115b 00       		.uleb128 .LVU1032
 16325 115c 00       		.uleb128 0
 16326              	.LLST233:
 16327 115d 14000000 		.4byte	.LVL318
 16328 1161 30000000 		.4byte	.LVL321
 16329 1165 0100     		.2byte	0x1
 16330 1167 50       		.byte	0x50
 16331 1168 30000000 		.4byte	.LVL321
 16332 116c 42000000 		.4byte	.LVL323
 16333 1170 0400     		.2byte	0x4
 16334 1172 F3       		.byte	0xf3
 16335 1173 01       		.uleb128 0x1
 16336 1174 50       		.byte	0x50
 16337 1175 9F       		.byte	0x9f
 16338 1176 42000000 		.4byte	.LVL323
 16339 117a 45000000 		.4byte	.LVL324-1
 16340 117e 0100     		.2byte	0x1
 16341 1180 50       		.byte	0x50
 16342 1181 45000000 		.4byte	.LVL324-1
 16343 1185 4C000000 		.4byte	.LFE19
 16344 1189 0400     		.2byte	0x4
 16345 118b F3       		.byte	0xf3
 16346 118c 01       		.uleb128 0x1
 16347 118d 50       		.byte	0x50
 16348 118e 9F       		.byte	0x9f
 16349 118f 00000000 		.4byte	0
 16350 1193 00000000 		.4byte	0
 16351              	.LVUS234:
 16352 1197 02       		.uleb128 .LVU1019
 16353 1198 00       		.uleb128 .LVU1028
 16354 1199 00       		.uleb128 .LVU1028
 16355 119a 00       		.uleb128 .LVU1031
 16356 119b 00       		.uleb128 .LVU1031
 16357 119c 00       		.uleb128 .LVU1032
 16358 119d 00       		.uleb128 .LVU1032
 16359 119e 00       		.uleb128 0
 16360              	.LLST234:
 16361 119f 14000000 		.4byte	.LVL318
 16362 11a3 30000000 		.4byte	.LVL321
 16363 11a7 0100     		.2byte	0x1
ARM GAS  /tmp/cchqCFfA.s 			page 291


 16364 11a9 50       		.byte	0x50
 16365 11aa 30000000 		.4byte	.LVL321
 16366 11ae 42000000 		.4byte	.LVL323
 16367 11b2 0400     		.2byte	0x4
 16368 11b4 F3       		.byte	0xf3
 16369 11b5 01       		.uleb128 0x1
 16370 11b6 50       		.byte	0x50
 16371 11b7 9F       		.byte	0x9f
 16372 11b8 42000000 		.4byte	.LVL323
 16373 11bc 45000000 		.4byte	.LVL324-1
 16374 11c0 0100     		.2byte	0x1
 16375 11c2 50       		.byte	0x50
 16376 11c3 45000000 		.4byte	.LVL324-1
 16377 11c7 4C000000 		.4byte	.LFE19
 16378 11cb 0400     		.2byte	0x4
 16379 11cd F3       		.byte	0xf3
 16380 11ce 01       		.uleb128 0x1
 16381 11cf 50       		.byte	0x50
 16382 11d0 9F       		.byte	0x9f
 16383 11d1 00000000 		.4byte	0
 16384 11d5 00000000 		.4byte	0
 16385              	.LVUS235:
 16386 11d9 02       		.uleb128 .LVU1024
 16387 11da 00       		.uleb128 .LVU1028
 16388 11db 00       		.uleb128 .LVU1028
 16389 11dc 00       		.uleb128 .LVU1031
 16390 11dd 00       		.uleb128 .LVU1031
 16391 11de 00       		.uleb128 .LVU1032
 16392 11df 00       		.uleb128 .LVU1032
 16393 11e0 00       		.uleb128 0
 16394              	.LLST235:
 16395 11e1 22000000 		.4byte	.LVL319
 16396 11e5 30000000 		.4byte	.LVL321
 16397 11e9 0100     		.2byte	0x1
 16398 11eb 50       		.byte	0x50
 16399 11ec 30000000 		.4byte	.LVL321
 16400 11f0 42000000 		.4byte	.LVL323
 16401 11f4 0400     		.2byte	0x4
 16402 11f6 F3       		.byte	0xf3
 16403 11f7 01       		.uleb128 0x1
 16404 11f8 50       		.byte	0x50
 16405 11f9 9F       		.byte	0x9f
 16406 11fa 42000000 		.4byte	.LVL323
 16407 11fe 45000000 		.4byte	.LVL324-1
 16408 1202 0100     		.2byte	0x1
 16409 1204 50       		.byte	0x50
 16410 1205 45000000 		.4byte	.LVL324-1
 16411 1209 4C000000 		.4byte	.LFE19
 16412 120d 0400     		.2byte	0x4
 16413 120f F3       		.byte	0xf3
 16414 1210 01       		.uleb128 0x1
 16415 1211 50       		.byte	0x50
 16416 1212 9F       		.byte	0x9f
 16417 1213 00000000 		.4byte	0
 16418 1217 00000000 		.4byte	0
 16419              	.LVUS236:
 16420 121b 02       		.uleb128 .LVU1024
ARM GAS  /tmp/cchqCFfA.s 			page 292


 16421 121c 00       		.uleb128 .LVU1028
 16422 121d 00       		.uleb128 .LVU1028
 16423 121e 00       		.uleb128 .LVU1031
 16424 121f 00       		.uleb128 .LVU1031
 16425 1220 00       		.uleb128 .LVU1032
 16426 1221 00       		.uleb128 .LVU1032
 16427 1222 00       		.uleb128 0
 16428              	.LLST236:
 16429 1223 22000000 		.4byte	.LVL319
 16430 1227 30000000 		.4byte	.LVL321
 16431 122b 0100     		.2byte	0x1
 16432 122d 50       		.byte	0x50
 16433 122e 30000000 		.4byte	.LVL321
 16434 1232 42000000 		.4byte	.LVL323
 16435 1236 0400     		.2byte	0x4
 16436 1238 F3       		.byte	0xf3
 16437 1239 01       		.uleb128 0x1
 16438 123a 50       		.byte	0x50
 16439 123b 9F       		.byte	0x9f
 16440 123c 42000000 		.4byte	.LVL323
 16441 1240 45000000 		.4byte	.LVL324-1
 16442 1244 0100     		.2byte	0x1
 16443 1246 50       		.byte	0x50
 16444 1247 45000000 		.4byte	.LVL324-1
 16445 124b 4C000000 		.4byte	.LFE19
 16446 124f 0400     		.2byte	0x4
 16447 1251 F3       		.byte	0xf3
 16448 1252 01       		.uleb128 0x1
 16449 1253 50       		.byte	0x50
 16450 1254 9F       		.byte	0x9f
 16451 1255 00000000 		.4byte	0
 16452 1259 00000000 		.4byte	0
 16453              	.LVUS214:
 16454 125d 00       		.uleb128 0
 16455 125e 00       		.uleb128 .LVU1010
 16456 125f 00       		.uleb128 .LVU1010
 16457 1260 00       		.uleb128 0
 16458              	.LLST214:
 16459 1261 00000000 		.4byte	.LVL299
 16460 1265 9F000000 		.4byte	.LVL316-1
 16461 1269 0100     		.2byte	0x1
 16462 126b 50       		.byte	0x50
 16463 126c 9F000000 		.4byte	.LVL316-1
 16464 1270 A8000000 		.4byte	.LFE18
 16465 1274 0400     		.2byte	0x4
 16466 1276 F3       		.byte	0xf3
 16467 1277 01       		.uleb128 0x1
 16468 1278 50       		.byte	0x50
 16469 1279 9F       		.byte	0x9f
 16470 127a 00000000 		.4byte	0
 16471 127e 00000000 		.4byte	0
 16472              	.LVUS215:
 16473 1282 00       		.uleb128 .LVU957
 16474 1283 00       		.uleb128 .LVU982
 16475 1284 00       		.uleb128 .LVU990
 16476 1285 00       		.uleb128 .LVU1009
 16477              	.LLST215:
ARM GAS  /tmp/cchqCFfA.s 			page 293


 16478 1286 28000000 		.4byte	.LVL301
 16479 128a 42000000 		.4byte	.LVL305
 16480 128e 0100     		.2byte	0x1
 16481 1290 53       		.byte	0x53
 16482 1291 60000000 		.4byte	.LVL309
 16483 1295 8C000000 		.4byte	.LVL315
 16484 1299 0100     		.2byte	0x1
 16485 129b 53       		.byte	0x53
 16486 129c 00000000 		.4byte	0
 16487 12a0 00000000 		.4byte	0
 16488              	.LVUS216:
 16489 12a4 00       		.uleb128 .LVU963
 16490 12a5 00       		.uleb128 .LVU987
 16491              	.LLST216:
 16492 12a6 30000000 		.4byte	.LVL302
 16493 12aa 54000000 		.4byte	.LVL307
 16494 12ae 0100     		.2byte	0x1
 16495 12b0 5E       		.byte	0x5e
 16496 12b1 00000000 		.4byte	0
 16497 12b5 00000000 		.4byte	0
 16498              	.LVUS217:
 16499 12b9 00       		.uleb128 .LVU969
 16500 12ba 00       		.uleb128 .LVU988
 16501              	.LLST217:
 16502 12bb 38000000 		.4byte	.LVL303
 16503 12bf 58000000 		.4byte	.LVL308
 16504 12c3 0100     		.2byte	0x1
 16505 12c5 5C       		.byte	0x5c
 16506 12c6 00000000 		.4byte	0
 16507 12ca 00000000 		.4byte	0
 16508              	.LVUS218:
 16509 12ce 00       		.uleb128 .LVU975
 16510 12cf 00       		.uleb128 .LVU983
 16511 12d0 00       		.uleb128 .LVU983
 16512 12d1 00       		.uleb128 .LVU990
 16513              	.LLST218:
 16514 12d2 3E000000 		.4byte	.LVL304
 16515 12d6 44000000 		.4byte	.LVL306
 16516 12da 0100     		.2byte	0x1
 16517 12dc 55       		.byte	0x55
 16518 12dd 44000000 		.4byte	.LVL306
 16519 12e1 60000000 		.4byte	.LVL309
 16520 12e5 0700     		.2byte	0x7
 16521 12e7 74       		.byte	0x74
 16522 12e8 00       		.sleb128 0
 16523 12e9 31       		.byte	0x31
 16524 12ea 24       		.byte	0x24
 16525 12eb 71       		.byte	0x71
 16526 12ec 00       		.sleb128 0
 16527 12ed 22       		.byte	0x22
 16528 12ee 00000000 		.4byte	0
 16529 12f2 00000000 		.4byte	0
 16530              	.LVUS219:
 16531 12f6 01       		.uleb128 .LVU976
 16532 12f7 00       		.uleb128 .LVU990
 16533 12f8 00       		.uleb128 .LVU990
 16534 12f9 01       		.uleb128 .LVU999
ARM GAS  /tmp/cchqCFfA.s 			page 294


 16535 12fa 01       		.uleb128 .LVU999
 16536 12fb 00       		.uleb128 .LVU1001
 16537 12fc 00       		.uleb128 .LVU1001
 16538 12fd 00       		.uleb128 .LVU1009
 16539              	.LLST219:
 16540 12fe 3E000000 		.4byte	.LVL304
 16541 1302 60000000 		.4byte	.LVL309
 16542 1306 0400     		.2byte	0x4
 16543 1308 0A       		.byte	0xa
 16544 1309 FF7F     		.2byte	0x7fff
 16545 130b 9F       		.byte	0x9f
 16546 130c 60000000 		.4byte	.LVL309
 16547 1310 6E000000 		.4byte	.LVL311
 16548 1314 0100     		.2byte	0x1
 16549 1316 56       		.byte	0x56
 16550 1317 6E000000 		.4byte	.LVL311
 16551 131b 78000000 		.4byte	.LVL312
 16552 131f 0100     		.2byte	0x1
 16553 1321 52       		.byte	0x52
 16554 1322 78000000 		.4byte	.LVL312
 16555 1326 8C000000 		.4byte	.LVL315
 16556 132a 0100     		.2byte	0x1
 16557 132c 56       		.byte	0x56
 16558 132d 00000000 		.4byte	0
 16559 1331 00000000 		.4byte	0
 16560              	.LVUS220:
 16561 1335 02       		.uleb128 .LVU977
 16562 1336 00       		.uleb128 .LVU990
 16563 1337 00       		.uleb128 .LVU990
 16564 1338 01       		.uleb128 .LVU1004
 16565 1339 01       		.uleb128 .LVU1004
 16566 133a 00       		.uleb128 .LVU1006
 16567 133b 00       		.uleb128 .LVU1006
 16568 133c 00       		.uleb128 .LVU1009
 16569              	.LLST220:
 16570 133d 3E000000 		.4byte	.LVL304
 16571 1341 60000000 		.4byte	.LVL309
 16572 1345 0400     		.2byte	0x4
 16573 1347 0B       		.byte	0xb
 16574 1348 0080     		.2byte	0x8000
 16575 134a 9F       		.byte	0x9f
 16576 134b 60000000 		.4byte	.LVL309
 16577 134f 7C000000 		.4byte	.LVL313
 16578 1353 0100     		.2byte	0x1
 16579 1355 57       		.byte	0x57
 16580 1356 7C000000 		.4byte	.LVL313
 16581 135a 88000000 		.4byte	.LVL314
 16582 135e 0100     		.2byte	0x1
 16583 1360 52       		.byte	0x52
 16584 1361 88000000 		.4byte	.LVL314
 16585 1365 8C000000 		.4byte	.LVL315
 16586 1369 0100     		.2byte	0x1
 16587 136b 57       		.byte	0x57
 16588 136c 00000000 		.4byte	0
 16589 1370 00000000 		.4byte	0
 16590              	.LVUS221:
 16591 1374 00       		.uleb128 .LVU996
ARM GAS  /tmp/cchqCFfA.s 			page 295


 16592 1375 00       		.uleb128 .LVU1009
 16593              	.LLST221:
 16594 1376 6C000000 		.4byte	.LVL310
 16595 137a 8C000000 		.4byte	.LVL315
 16596 137e 0100     		.2byte	0x1
 16597 1380 52       		.byte	0x52
 16598 1381 00000000 		.4byte	0
 16599 1385 00000000 		.4byte	0
 16600              	.LVUS222:
 16601 1389 02       		.uleb128 .LVU953
 16602 138a 00       		.uleb128 .LVU1010
 16603 138b 00       		.uleb128 .LVU1010
 16604 138c 00       		.uleb128 0
 16605              	.LLST222:
 16606 138d 12000000 		.4byte	.LVL300
 16607 1391 9F000000 		.4byte	.LVL316-1
 16608 1395 0100     		.2byte	0x1
 16609 1397 50       		.byte	0x50
 16610 1398 9F000000 		.4byte	.LVL316-1
 16611 139c A8000000 		.4byte	.LFE18
 16612 13a0 0400     		.2byte	0x4
 16613 13a2 F3       		.byte	0xf3
 16614 13a3 01       		.uleb128 0x1
 16615 13a4 50       		.byte	0x50
 16616 13a5 9F       		.byte	0x9f
 16617 13a6 00000000 		.4byte	0
 16618 13aa 00000000 		.4byte	0
 16619              	.LVUS223:
 16620 13ae 02       		.uleb128 .LVU953
 16621 13af 00       		.uleb128 .LVU1010
 16622 13b0 00       		.uleb128 .LVU1010
 16623 13b1 00       		.uleb128 0
 16624              	.LLST223:
 16625 13b2 12000000 		.4byte	.LVL300
 16626 13b6 9F000000 		.4byte	.LVL316-1
 16627 13ba 0100     		.2byte	0x1
 16628 13bc 50       		.byte	0x50
 16629 13bd 9F000000 		.4byte	.LVL316-1
 16630 13c1 A8000000 		.4byte	.LFE18
 16631 13c5 0400     		.2byte	0x4
 16632 13c7 F3       		.byte	0xf3
 16633 13c8 01       		.uleb128 0x1
 16634 13c9 50       		.byte	0x50
 16635 13ca 9F       		.byte	0x9f
 16636 13cb 00000000 		.4byte	0
 16637 13cf 00000000 		.4byte	0
 16638              	.LVUS224:
 16639 13d3 03       		.uleb128 .LVU960
 16640 13d4 00       		.uleb128 .LVU1010
 16641 13d5 00       		.uleb128 .LVU1010
 16642 13d6 00       		.uleb128 0
 16643              	.LLST224:
 16644 13d7 28000000 		.4byte	.LVL301
 16645 13db 9F000000 		.4byte	.LVL316-1
 16646 13df 0100     		.2byte	0x1
 16647 13e1 50       		.byte	0x50
 16648 13e2 9F000000 		.4byte	.LVL316-1
ARM GAS  /tmp/cchqCFfA.s 			page 296


 16649 13e6 A8000000 		.4byte	.LFE18
 16650 13ea 0400     		.2byte	0x4
 16651 13ec F3       		.byte	0xf3
 16652 13ed 01       		.uleb128 0x1
 16653 13ee 50       		.byte	0x50
 16654 13ef 9F       		.byte	0x9f
 16655 13f0 00000000 		.4byte	0
 16656 13f4 00000000 		.4byte	0
 16657              	.LVUS225:
 16658 13f8 03       		.uleb128 .LVU960
 16659 13f9 00       		.uleb128 .LVU1010
 16660 13fa 00       		.uleb128 .LVU1010
 16661 13fb 00       		.uleb128 0
 16662              	.LLST225:
 16663 13fc 28000000 		.4byte	.LVL301
 16664 1400 9F000000 		.4byte	.LVL316-1
 16665 1404 0100     		.2byte	0x1
 16666 1406 50       		.byte	0x50
 16667 1407 9F000000 		.4byte	.LVL316-1
 16668 140b A8000000 		.4byte	.LFE18
 16669 140f 0400     		.2byte	0x4
 16670 1411 F3       		.byte	0xf3
 16671 1412 01       		.uleb128 0x1
 16672 1413 50       		.byte	0x50
 16673 1414 9F       		.byte	0x9f
 16674 1415 00000000 		.4byte	0
 16675 1419 00000000 		.4byte	0
 16676              	.LVUS226:
 16677 141d 03       		.uleb128 .LVU966
 16678 141e 00       		.uleb128 .LVU1010
 16679 141f 00       		.uleb128 .LVU1010
 16680 1420 00       		.uleb128 0
 16681              	.LLST226:
 16682 1421 30000000 		.4byte	.LVL302
 16683 1425 9F000000 		.4byte	.LVL316-1
 16684 1429 0100     		.2byte	0x1
 16685 142b 50       		.byte	0x50
 16686 142c 9F000000 		.4byte	.LVL316-1
 16687 1430 A8000000 		.4byte	.LFE18
 16688 1434 0400     		.2byte	0x4
 16689 1436 F3       		.byte	0xf3
 16690 1437 01       		.uleb128 0x1
 16691 1438 50       		.byte	0x50
 16692 1439 9F       		.byte	0x9f
 16693 143a 00000000 		.4byte	0
 16694 143e 00000000 		.4byte	0
 16695              	.LVUS227:
 16696 1442 03       		.uleb128 .LVU966
 16697 1443 00       		.uleb128 .LVU1010
 16698 1444 00       		.uleb128 .LVU1010
 16699 1445 00       		.uleb128 0
 16700              	.LLST227:
 16701 1446 30000000 		.4byte	.LVL302
 16702 144a 9F000000 		.4byte	.LVL316-1
 16703 144e 0100     		.2byte	0x1
 16704 1450 50       		.byte	0x50
 16705 1451 9F000000 		.4byte	.LVL316-1
ARM GAS  /tmp/cchqCFfA.s 			page 297


 16706 1455 A8000000 		.4byte	.LFE18
 16707 1459 0400     		.2byte	0x4
 16708 145b F3       		.byte	0xf3
 16709 145c 01       		.uleb128 0x1
 16710 145d 50       		.byte	0x50
 16711 145e 9F       		.byte	0x9f
 16712 145f 00000000 		.4byte	0
 16713 1463 00000000 		.4byte	0
 16714              	.LVUS228:
 16715 1467 03       		.uleb128 .LVU972
 16716 1468 00       		.uleb128 .LVU1010
 16717 1469 00       		.uleb128 .LVU1010
 16718 146a 00       		.uleb128 0
 16719              	.LLST228:
 16720 146b 38000000 		.4byte	.LVL303
 16721 146f 9F000000 		.4byte	.LVL316-1
 16722 1473 0100     		.2byte	0x1
 16723 1475 50       		.byte	0x50
 16724 1476 9F000000 		.4byte	.LVL316-1
 16725 147a A8000000 		.4byte	.LFE18
 16726 147e 0400     		.2byte	0x4
 16727 1480 F3       		.byte	0xf3
 16728 1481 01       		.uleb128 0x1
 16729 1482 50       		.byte	0x50
 16730 1483 9F       		.byte	0x9f
 16731 1484 00000000 		.4byte	0
 16732 1488 00000000 		.4byte	0
 16733              	.LVUS229:
 16734 148c 03       		.uleb128 .LVU972
 16735 148d 00       		.uleb128 .LVU1010
 16736 148e 00       		.uleb128 .LVU1010
 16737 148f 00       		.uleb128 0
 16738              	.LLST229:
 16739 1490 38000000 		.4byte	.LVL303
 16740 1494 9F000000 		.4byte	.LVL316-1
 16741 1498 0100     		.2byte	0x1
 16742 149a 50       		.byte	0x50
 16743 149b 9F000000 		.4byte	.LVL316-1
 16744 149f A8000000 		.4byte	.LFE18
 16745 14a3 0400     		.2byte	0x4
 16746 14a5 F3       		.byte	0xf3
 16747 14a6 01       		.uleb128 0x1
 16748 14a7 50       		.byte	0x50
 16749 14a8 9F       		.byte	0x9f
 16750 14a9 00000000 		.4byte	0
 16751 14ad 00000000 		.4byte	0
 16752              	.LVUS195:
 16753 14b1 00       		.uleb128 0
 16754 14b2 00       		.uleb128 .LVU945
 16755 14b3 00       		.uleb128 .LVU945
 16756 14b4 00       		.uleb128 0
 16757              	.LLST195:
 16758 14b5 00000000 		.4byte	.LVL278
 16759 14b9 CB000000 		.4byte	.LVL298-1
 16760 14bd 0100     		.2byte	0x1
 16761 14bf 50       		.byte	0x50
 16762 14c0 CB000000 		.4byte	.LVL298-1
ARM GAS  /tmp/cchqCFfA.s 			page 298


 16763 14c4 D0000000 		.4byte	.LFE17
 16764 14c8 0400     		.2byte	0x4
 16765 14ca F3       		.byte	0xf3
 16766 14cb 01       		.uleb128 0x1
 16767 14cc 50       		.byte	0x50
 16768 14cd 9F       		.byte	0x9f
 16769 14ce 00000000 		.4byte	0
 16770 14d2 00000000 		.4byte	0
 16771              	.LVUS196:
 16772 14d6 00       		.uleb128 .LVU871
 16773 14d7 00       		.uleb128 .LVU902
 16774 14d8 00       		.uleb128 .LVU914
 16775 14d9 00       		.uleb128 .LVU927
 16776 14da 00       		.uleb128 .LVU928
 16777 14db 00       		.uleb128 .LVU942
 16778 14dc 00       		.uleb128 .LVU943
 16779 14dd 00       		.uleb128 .LVU944
 16780              	.LLST196:
 16781 14de 28000000 		.4byte	.LVL280
 16782 14e2 54000000 		.4byte	.LVL285
 16783 14e6 0100     		.2byte	0x1
 16784 14e8 58       		.byte	0x58
 16785 14e9 78000000 		.4byte	.LVL288
 16786 14ed 9C000000 		.4byte	.LVL290
 16787 14f1 0100     		.2byte	0x1
 16788 14f3 53       		.byte	0x53
 16789 14f4 9E000000 		.4byte	.LVL291
 16790 14f8 B4000000 		.4byte	.LVL295
 16791 14fc 0100     		.2byte	0x1
 16792 14fe 53       		.byte	0x53
 16793 14ff C4000000 		.4byte	.LVL296
 16794 1503 C8000000 		.4byte	.LVL297
 16795 1507 0100     		.2byte	0x1
 16796 1509 53       		.byte	0x53
 16797 150a 00000000 		.4byte	0
 16798 150e 00000000 		.4byte	0
 16799              	.LVUS197:
 16800 1512 00       		.uleb128 .LVU877
 16801 1513 00       		.uleb128 .LVU912
 16802              	.LLST197:
 16803 1514 32000000 		.4byte	.LVL281
 16804 1518 72000000 		.4byte	.LVL286
 16805 151c 0100     		.2byte	0x1
 16806 151e 55       		.byte	0x55
 16807 151f 00000000 		.4byte	0
 16808 1523 00000000 		.4byte	0
 16809              	.LVUS198:
 16810 1527 00       		.uleb128 .LVU883
 16811 1528 00       		.uleb128 .LVU913
 16812              	.LLST198:
 16813 1529 3A000000 		.4byte	.LVL282
 16814 152d 76000000 		.4byte	.LVL287
 16815 1531 0100     		.2byte	0x1
 16816 1533 56       		.byte	0x56
 16817 1534 00000000 		.4byte	0
 16818 1538 00000000 		.4byte	0
 16819              	.LVUS199:
ARM GAS  /tmp/cchqCFfA.s 			page 299


 16820 153c 00       		.uleb128 .LVU889
 16821 153d 00       		.uleb128 .LVU942
 16822 153e 00       		.uleb128 .LVU943
 16823 153f 00       		.uleb128 .LVU944
 16824              	.LLST199:
 16825 1540 42000000 		.4byte	.LVL283
 16826 1544 B4000000 		.4byte	.LVL295
 16827 1548 0100     		.2byte	0x1
 16828 154a 5C       		.byte	0x5c
 16829 154b C4000000 		.4byte	.LVL296
 16830 154f C8000000 		.4byte	.LVL297
 16831 1553 0100     		.2byte	0x1
 16832 1555 5C       		.byte	0x5c
 16833 1556 00000000 		.4byte	0
 16834 155a 00000000 		.4byte	0
 16835              	.LVUS200:
 16836 155e 00       		.uleb128 .LVU895
 16837 155f 00       		.uleb128 .LVU945
 16838              	.LLST200:
 16839 1560 48000000 		.4byte	.LVL284
 16840 1564 CB000000 		.4byte	.LVL298-1
 16841 1568 0100     		.2byte	0x1
 16842 156a 5E       		.byte	0x5e
 16843 156b 00000000 		.4byte	0
 16844 156f 00000000 		.4byte	0
 16845              	.LVUS201:
 16846 1573 00       		.uleb128 .LVU928
 16847 1574 00       		.uleb128 .LVU938
 16848              	.LLST201:
 16849 1575 9E000000 		.4byte	.LVL291
 16850 1579 A8000000 		.4byte	.LVL293
 16851 157d 0100     		.2byte	0x1
 16852 157f 51       		.byte	0x51
 16853 1580 00000000 		.4byte	0
 16854 1584 00000000 		.4byte	0
 16855              	.LVUS202:
 16856 1588 01       		.uleb128 .LVU915
 16857 1589 00       		.uleb128 .LVU940
 16858 158a 00       		.uleb128 .LVU943
 16859 158b 00       		.uleb128 .LVU944
 16860              	.LLST202:
 16861 158c 78000000 		.4byte	.LVL288
 16862 1590 AC000000 		.4byte	.LVL294
 16863 1594 0100     		.2byte	0x1
 16864 1596 54       		.byte	0x54
 16865 1597 C4000000 		.4byte	.LVL296
 16866 159b C8000000 		.4byte	.LVL297
 16867 159f 0100     		.2byte	0x1
 16868 15a1 54       		.byte	0x54
 16869 15a2 00000000 		.4byte	0
 16870 15a6 00000000 		.4byte	0
 16871              	.LVUS203:
 16872 15aa 04       		.uleb128 .LVU918
 16873 15ab 00       		.uleb128 .LVU920
 16874 15ac 00       		.uleb128 .LVU943
 16875 15ad 00       		.uleb128 .LVU944
 16876              	.LLST203:
ARM GAS  /tmp/cchqCFfA.s 			page 300


 16877 15ae 78000000 		.4byte	.LVL288
 16878 15b2 82000000 		.4byte	.LVL289
 16879 15b6 0200     		.2byte	0x2
 16880 15b8 31       		.byte	0x31
 16881 15b9 9F       		.byte	0x9f
 16882 15ba C4000000 		.4byte	.LVL296
 16883 15be C8000000 		.4byte	.LVL297
 16884 15c2 0200     		.2byte	0x2
 16885 15c4 31       		.byte	0x31
 16886 15c5 9F       		.byte	0x9f
 16887 15c6 00000000 		.4byte	0
 16888 15ca 00000000 		.4byte	0
 16889              	.LVUS204:
 16890 15ce 02       		.uleb128 .LVU868
 16891 15cf 00       		.uleb128 .LVU945
 16892 15d0 00       		.uleb128 .LVU945
 16893 15d1 00       		.uleb128 0
 16894              	.LLST204:
 16895 15d2 16000000 		.4byte	.LVL279
 16896 15d6 CB000000 		.4byte	.LVL298-1
 16897 15da 0100     		.2byte	0x1
 16898 15dc 50       		.byte	0x50
 16899 15dd CB000000 		.4byte	.LVL298-1
 16900 15e1 D0000000 		.4byte	.LFE17
 16901 15e5 0400     		.2byte	0x4
 16902 15e7 F3       		.byte	0xf3
 16903 15e8 01       		.uleb128 0x1
 16904 15e9 50       		.byte	0x50
 16905 15ea 9F       		.byte	0x9f
 16906 15eb 00000000 		.4byte	0
 16907 15ef 00000000 		.4byte	0
 16908              	.LVUS205:
 16909 15f3 02       		.uleb128 .LVU868
 16910 15f4 00       		.uleb128 .LVU945
 16911 15f5 00       		.uleb128 .LVU945
 16912 15f6 00       		.uleb128 0
 16913              	.LLST205:
 16914 15f7 16000000 		.4byte	.LVL279
 16915 15fb CB000000 		.4byte	.LVL298-1
 16916 15ff 0100     		.2byte	0x1
 16917 1601 50       		.byte	0x50
 16918 1602 CB000000 		.4byte	.LVL298-1
 16919 1606 D0000000 		.4byte	.LFE17
 16920 160a 0400     		.2byte	0x4
 16921 160c F3       		.byte	0xf3
 16922 160d 01       		.uleb128 0x1
 16923 160e 50       		.byte	0x50
 16924 160f 9F       		.byte	0x9f
 16925 1610 00000000 		.4byte	0
 16926 1614 00000000 		.4byte	0
 16927              	.LVUS206:
 16928 1618 03       		.uleb128 .LVU874
 16929 1619 00       		.uleb128 .LVU945
 16930 161a 00       		.uleb128 .LVU945
 16931 161b 00       		.uleb128 0
 16932              	.LLST206:
 16933 161c 28000000 		.4byte	.LVL280
ARM GAS  /tmp/cchqCFfA.s 			page 301


 16934 1620 CB000000 		.4byte	.LVL298-1
 16935 1624 0100     		.2byte	0x1
 16936 1626 50       		.byte	0x50
 16937 1627 CB000000 		.4byte	.LVL298-1
 16938 162b D0000000 		.4byte	.LFE17
 16939 162f 0400     		.2byte	0x4
 16940 1631 F3       		.byte	0xf3
 16941 1632 01       		.uleb128 0x1
 16942 1633 50       		.byte	0x50
 16943 1634 9F       		.byte	0x9f
 16944 1635 00000000 		.4byte	0
 16945 1639 00000000 		.4byte	0
 16946              	.LVUS207:
 16947 163d 03       		.uleb128 .LVU874
 16948 163e 00       		.uleb128 .LVU945
 16949 163f 00       		.uleb128 .LVU945
 16950 1640 00       		.uleb128 0
 16951              	.LLST207:
 16952 1641 28000000 		.4byte	.LVL280
 16953 1645 CB000000 		.4byte	.LVL298-1
 16954 1649 0100     		.2byte	0x1
 16955 164b 50       		.byte	0x50
 16956 164c CB000000 		.4byte	.LVL298-1
 16957 1650 D0000000 		.4byte	.LFE17
 16958 1654 0400     		.2byte	0x4
 16959 1656 F3       		.byte	0xf3
 16960 1657 01       		.uleb128 0x1
 16961 1658 50       		.byte	0x50
 16962 1659 9F       		.byte	0x9f
 16963 165a 00000000 		.4byte	0
 16964 165e 00000000 		.4byte	0
 16965              	.LVUS208:
 16966 1662 03       		.uleb128 .LVU880
 16967 1663 00       		.uleb128 .LVU945
 16968 1664 00       		.uleb128 .LVU945
 16969 1665 00       		.uleb128 0
 16970              	.LLST208:
 16971 1666 32000000 		.4byte	.LVL281
 16972 166a CB000000 		.4byte	.LVL298-1
 16973 166e 0100     		.2byte	0x1
 16974 1670 50       		.byte	0x50
 16975 1671 CB000000 		.4byte	.LVL298-1
 16976 1675 D0000000 		.4byte	.LFE17
 16977 1679 0400     		.2byte	0x4
 16978 167b F3       		.byte	0xf3
 16979 167c 01       		.uleb128 0x1
 16980 167d 50       		.byte	0x50
 16981 167e 9F       		.byte	0x9f
 16982 167f 00000000 		.4byte	0
 16983 1683 00000000 		.4byte	0
 16984              	.LVUS209:
 16985 1687 03       		.uleb128 .LVU880
 16986 1688 00       		.uleb128 .LVU945
 16987 1689 00       		.uleb128 .LVU945
 16988 168a 00       		.uleb128 0
 16989              	.LLST209:
 16990 168b 32000000 		.4byte	.LVL281
ARM GAS  /tmp/cchqCFfA.s 			page 302


 16991 168f CB000000 		.4byte	.LVL298-1
 16992 1693 0100     		.2byte	0x1
 16993 1695 50       		.byte	0x50
 16994 1696 CB000000 		.4byte	.LVL298-1
 16995 169a D0000000 		.4byte	.LFE17
 16996 169e 0400     		.2byte	0x4
 16997 16a0 F3       		.byte	0xf3
 16998 16a1 01       		.uleb128 0x1
 16999 16a2 50       		.byte	0x50
 17000 16a3 9F       		.byte	0x9f
 17001 16a4 00000000 		.4byte	0
 17002 16a8 00000000 		.4byte	0
 17003              	.LVUS210:
 17004 16ac 03       		.uleb128 .LVU886
 17005 16ad 00       		.uleb128 .LVU945
 17006 16ae 00       		.uleb128 .LVU945
 17007 16af 00       		.uleb128 0
 17008              	.LLST210:
 17009 16b0 3A000000 		.4byte	.LVL282
 17010 16b4 CB000000 		.4byte	.LVL298-1
 17011 16b8 0100     		.2byte	0x1
 17012 16ba 50       		.byte	0x50
 17013 16bb CB000000 		.4byte	.LVL298-1
 17014 16bf D0000000 		.4byte	.LFE17
 17015 16c3 0400     		.2byte	0x4
 17016 16c5 F3       		.byte	0xf3
 17017 16c6 01       		.uleb128 0x1
 17018 16c7 50       		.byte	0x50
 17019 16c8 9F       		.byte	0x9f
 17020 16c9 00000000 		.4byte	0
 17021 16cd 00000000 		.4byte	0
 17022              	.LVUS211:
 17023 16d1 03       		.uleb128 .LVU886
 17024 16d2 00       		.uleb128 .LVU945
 17025 16d3 00       		.uleb128 .LVU945
 17026 16d4 00       		.uleb128 0
 17027              	.LLST211:
 17028 16d5 3A000000 		.4byte	.LVL282
 17029 16d9 CB000000 		.4byte	.LVL298-1
 17030 16dd 0100     		.2byte	0x1
 17031 16df 50       		.byte	0x50
 17032 16e0 CB000000 		.4byte	.LVL298-1
 17033 16e4 D0000000 		.4byte	.LFE17
 17034 16e8 0400     		.2byte	0x4
 17035 16ea F3       		.byte	0xf3
 17036 16eb 01       		.uleb128 0x1
 17037 16ec 50       		.byte	0x50
 17038 16ed 9F       		.byte	0x9f
 17039 16ee 00000000 		.4byte	0
 17040 16f2 00000000 		.4byte	0
 17041              	.LVUS212:
 17042 16f6 03       		.uleb128 .LVU892
 17043 16f7 00       		.uleb128 .LVU945
 17044 16f8 00       		.uleb128 .LVU945
 17045 16f9 00       		.uleb128 0
 17046              	.LLST212:
 17047 16fa 42000000 		.4byte	.LVL283
ARM GAS  /tmp/cchqCFfA.s 			page 303


 17048 16fe CB000000 		.4byte	.LVL298-1
 17049 1702 0100     		.2byte	0x1
 17050 1704 50       		.byte	0x50
 17051 1705 CB000000 		.4byte	.LVL298-1
 17052 1709 D0000000 		.4byte	.LFE17
 17053 170d 0400     		.2byte	0x4
 17054 170f F3       		.byte	0xf3
 17055 1710 01       		.uleb128 0x1
 17056 1711 50       		.byte	0x50
 17057 1712 9F       		.byte	0x9f
 17058 1713 00000000 		.4byte	0
 17059 1717 00000000 		.4byte	0
 17060              	.LVUS213:
 17061 171b 03       		.uleb128 .LVU892
 17062 171c 00       		.uleb128 .LVU945
 17063 171d 00       		.uleb128 .LVU945
 17064 171e 00       		.uleb128 0
 17065              	.LLST213:
 17066 171f 42000000 		.4byte	.LVL283
 17067 1723 CB000000 		.4byte	.LVL298-1
 17068 1727 0100     		.2byte	0x1
 17069 1729 50       		.byte	0x50
 17070 172a CB000000 		.4byte	.LVL298-1
 17071 172e D0000000 		.4byte	.LFE17
 17072 1732 0400     		.2byte	0x4
 17073 1734 F3       		.byte	0xf3
 17074 1735 01       		.uleb128 0x1
 17075 1736 50       		.byte	0x50
 17076 1737 9F       		.byte	0x9f
 17077 1738 00000000 		.4byte	0
 17078 173c 00000000 		.4byte	0
 17079              	.LVUS177:
 17080 1740 00       		.uleb128 0
 17081 1741 00       		.uleb128 .LVU839
 17082 1742 00       		.uleb128 .LVU839
 17083 1743 00       		.uleb128 .LVU854
 17084 1744 00       		.uleb128 .LVU854
 17085 1745 00       		.uleb128 .LVU858
 17086 1746 00       		.uleb128 .LVU858
 17087 1747 00       		.uleb128 0
 17088              	.LLST177:
 17089 1748 00000000 		.4byte	.LVL254
 17090 174c 68000000 		.4byte	.LVL264
 17091 1750 0100     		.2byte	0x1
 17092 1752 50       		.byte	0x50
 17093 1753 68000000 		.4byte	.LVL264
 17094 1757 98000000 		.4byte	.LVL273
 17095 175b 0400     		.2byte	0x4
 17096 175d F3       		.byte	0xf3
 17097 175e 01       		.uleb128 0x1
 17098 175f 50       		.byte	0x50
 17099 1760 9F       		.byte	0x9f
 17100 1761 98000000 		.4byte	.LVL273
 17101 1765 A0000000 		.4byte	.LVL276
 17102 1769 0100     		.2byte	0x1
 17103 176b 50       		.byte	0x50
 17104 176c A0000000 		.4byte	.LVL276
ARM GAS  /tmp/cchqCFfA.s 			page 304


 17105 1770 A8000000 		.4byte	.LFE16
 17106 1774 0400     		.2byte	0x4
 17107 1776 F3       		.byte	0xf3
 17108 1777 01       		.uleb128 0x1
 17109 1778 50       		.byte	0x50
 17110 1779 9F       		.byte	0x9f
 17111 177a 00000000 		.4byte	0
 17112 177e 00000000 		.4byte	0
 17113              	.LVUS178:
 17114 1782 00       		.uleb128 .LVU802
 17115 1783 00       		.uleb128 0
 17116              	.LLST178:
 17117 1784 28000000 		.4byte	.LVL256
 17118 1788 A8000000 		.4byte	.LFE16
 17119 178c 0100     		.2byte	0x1
 17120 178e 55       		.byte	0x55
 17121 178f 00000000 		.4byte	0
 17122 1793 00000000 		.4byte	0
 17123              	.LVUS179:
 17124 1797 00       		.uleb128 .LVU807
 17125 1798 00       		.uleb128 .LVU835
 17126 1799 00       		.uleb128 .LVU840
 17127 179a 00       		.uleb128 .LVU843
 17128 179b 00       		.uleb128 .LVU844
 17129 179c 00       		.uleb128 .LVU850
 17130 179d 00       		.uleb128 .LVU854
 17131 179e 00       		.uleb128 .LVU856
 17132              	.LLST179:
 17133 179f 34000000 		.4byte	.LVL257
 17134 17a3 5A000000 		.4byte	.LVL262
 17135 17a7 0100     		.2byte	0x1
 17136 17a9 53       		.byte	0x53
 17137 17aa 6E000000 		.4byte	.LVL265
 17138 17ae 78000000 		.4byte	.LVL267
 17139 17b2 0100     		.2byte	0x1
 17140 17b4 53       		.byte	0x53
 17141 17b5 7A000000 		.4byte	.LVL268
 17142 17b9 86000000 		.4byte	.LVL271
 17143 17bd 0100     		.2byte	0x1
 17144 17bf 53       		.byte	0x53
 17145 17c0 98000000 		.4byte	.LVL273
 17146 17c4 9A000000 		.4byte	.LVL274
 17147 17c8 0100     		.2byte	0x1
 17148 17ca 53       		.byte	0x53
 17149 17cb 00000000 		.4byte	0
 17150 17cf 00000000 		.4byte	0
 17151              	.LVUS180:
 17152 17d3 00       		.uleb128 .LVU813
 17153 17d4 00       		.uleb128 .LVU837
 17154 17d5 00       		.uleb128 .LVU840
 17155 17d6 00       		.uleb128 .LVU842
 17156 17d7 00       		.uleb128 .LVU842
 17157 17d8 00       		.uleb128 .LVU843
 17158 17d9 00       		.uleb128 .LVU843
 17159 17da 00       		.uleb128 .LVU844
 17160 17db 00       		.uleb128 .LVU854
 17161 17dc 00       		.uleb128 .LVU858
ARM GAS  /tmp/cchqCFfA.s 			page 305


 17162              	.LLST180:
 17163 17dd 3E000000 		.4byte	.LVL258
 17164 17e1 60000000 		.4byte	.LVL263
 17165 17e5 0100     		.2byte	0x1
 17166 17e7 5C       		.byte	0x5c
 17167 17e8 6E000000 		.4byte	.LVL265
 17168 17ec 76000000 		.4byte	.LVL266
 17169 17f0 0100     		.2byte	0x1
 17170 17f2 52       		.byte	0x52
 17171 17f3 76000000 		.4byte	.LVL266
 17172 17f7 78000000 		.4byte	.LVL267
 17173 17fb 0600     		.2byte	0x6
 17174 17fd 73       		.byte	0x73
 17175 17fe 00       		.sleb128 0
 17176 17ff 7C       		.byte	0x7c
 17177 1800 00       		.sleb128 0
 17178 1801 22       		.byte	0x22
 17179 1802 9F       		.byte	0x9f
 17180 1803 78000000 		.4byte	.LVL267
 17181 1807 7A000000 		.4byte	.LVL268
 17182 180b 0800     		.2byte	0x8
 17183 180d 73       		.byte	0x73
 17184 180e 00       		.sleb128 0
 17185 180f 7C       		.byte	0x7c
 17186 1810 00       		.sleb128 0
 17187 1811 22       		.byte	0x22
 17188 1812 31       		.byte	0x31
 17189 1813 1C       		.byte	0x1c
 17190 1814 9F       		.byte	0x9f
 17191 1815 98000000 		.4byte	.LVL273
 17192 1819 A0000000 		.4byte	.LVL276
 17193 181d 0100     		.2byte	0x1
 17194 181f 5C       		.byte	0x5c
 17195 1820 00000000 		.4byte	0
 17196 1824 00000000 		.4byte	0
 17197              	.LVUS181:
 17198 1828 00       		.uleb128 .LVU820
 17199 1829 00       		.uleb128 0
 17200              	.LLST181:
 17201 182a 4A000000 		.4byte	.LVL259
 17202 182e A8000000 		.4byte	.LFE16
 17203 1832 0100     		.2byte	0x1
 17204 1834 56       		.byte	0x56
 17205 1835 00000000 		.4byte	0
 17206 1839 00000000 		.4byte	0
 17207              	.LVUS182:
 17208 183d 00       		.uleb128 .LVU826
 17209 183e 00       		.uleb128 .LVU832
 17210 183f 00       		.uleb128 .LVU832
 17211 1840 00       		.uleb128 .LVU839
 17212 1841 00       		.uleb128 .LVU839
 17213 1842 00       		.uleb128 .LVU853
 17214 1843 00       		.uleb128 .LVU854
 17215 1844 00       		.uleb128 .LVU857
 17216              	.LLST182:
 17217 1845 50000000 		.4byte	.LVL260
 17218 1849 56000000 		.4byte	.LVL261
ARM GAS  /tmp/cchqCFfA.s 			page 306


 17219 184d 0B00     		.2byte	0xb
 17220 184f 7E       		.byte	0x7e
 17221 1850 00       		.sleb128 0
 17222 1851 40       		.byte	0x40
 17223 1852 24       		.byte	0x24
 17224 1853 40       		.byte	0x40
 17225 1854 26       		.byte	0x26
 17226 1855 31       		.byte	0x31
 17227 1856 24       		.byte	0x24
 17228 1857 71       		.byte	0x71
 17229 1858 00       		.sleb128 0
 17230 1859 22       		.byte	0x22
 17231 185a 56000000 		.4byte	.LVL261
 17232 185e 68000000 		.4byte	.LVL264
 17233 1862 0C00     		.2byte	0xc
 17234 1864 7E       		.byte	0x7e
 17235 1865 00       		.sleb128 0
 17236 1866 40       		.byte	0x40
 17237 1867 24       		.byte	0x24
 17238 1868 40       		.byte	0x40
 17239 1869 26       		.byte	0x26
 17240 186a 31       		.byte	0x31
 17241 186b 24       		.byte	0x24
 17242 186c 70       		.byte	0x70
 17243 186d 14       		.sleb128 20
 17244 186e 06       		.byte	0x6
 17245 186f 22       		.byte	0x22
 17246 1870 68000000 		.4byte	.LVL264
 17247 1874 8A000000 		.4byte	.LVL272
 17248 1878 0F00     		.2byte	0xf
 17249 187a 7E       		.byte	0x7e
 17250 187b 00       		.sleb128 0
 17251 187c 40       		.byte	0x40
 17252 187d 24       		.byte	0x24
 17253 187e 40       		.byte	0x40
 17254 187f 26       		.byte	0x26
 17255 1880 31       		.byte	0x31
 17256 1881 24       		.byte	0x24
 17257 1882 F3       		.byte	0xf3
 17258 1883 01       		.uleb128 0x1
 17259 1884 50       		.byte	0x50
 17260 1885 23       		.byte	0x23
 17261 1886 14       		.uleb128 0x14
 17262 1887 06       		.byte	0x6
 17263 1888 22       		.byte	0x22
 17264 1889 98000000 		.4byte	.LVL273
 17265 188d 9E000000 		.4byte	.LVL275
 17266 1891 0B00     		.2byte	0xb
 17267 1893 7E       		.byte	0x7e
 17268 1894 00       		.sleb128 0
 17269 1895 40       		.byte	0x40
 17270 1896 24       		.byte	0x24
 17271 1897 40       		.byte	0x40
 17272 1898 26       		.byte	0x26
 17273 1899 31       		.byte	0x31
 17274 189a 24       		.byte	0x24
 17275 189b 71       		.byte	0x71
ARM GAS  /tmp/cchqCFfA.s 			page 307


 17276 189c 00       		.sleb128 0
 17277 189d 22       		.byte	0x22
 17278 189e 00000000 		.4byte	0
 17279 18a2 00000000 		.4byte	0
 17280              	.LVUS183:
 17281 18a6 02       		.uleb128 .LVU828
 17282 18a7 00       		.uleb128 .LVU839
 17283 18a8 00       		.uleb128 .LVU840
 17284 18a9 00       		.uleb128 .LVU849
 17285 18aa 00       		.uleb128 .LVU854
 17286 18ab 00       		.uleb128 .LVU858
 17287              	.LLST183:
 17288 18ac 50000000 		.4byte	.LVL260
 17289 18b0 68000000 		.4byte	.LVL264
 17290 18b4 0200     		.2byte	0x2
 17291 18b6 30       		.byte	0x30
 17292 18b7 9F       		.byte	0x9f
 17293 18b8 6E000000 		.4byte	.LVL265
 17294 18bc 84000000 		.4byte	.LVL270
 17295 18c0 0100     		.2byte	0x1
 17296 18c2 51       		.byte	0x51
 17297 18c3 98000000 		.4byte	.LVL273
 17298 18c7 A0000000 		.4byte	.LVL276
 17299 18cb 0200     		.2byte	0x2
 17300 18cd 30       		.byte	0x30
 17301 18ce 9F       		.byte	0x9f
 17302 18cf 00000000 		.4byte	0
 17303 18d3 00000000 		.4byte	0
 17304              	.LVUS184:
 17305 18d7 00       		.uleb128 .LVU832
 17306 18d8 00       		.uleb128 .LVU839
 17307              	.LLST184:
 17308 18d9 56000000 		.4byte	.LVL261
 17309 18dd 68000000 		.4byte	.LVL264
 17310 18e1 0200     		.2byte	0x2
 17311 18e3 30       		.byte	0x30
 17312 18e4 9F       		.byte	0x9f
 17313 18e5 00000000 		.4byte	0
 17314 18e9 00000000 		.4byte	0
 17315              	.LVUS185:
 17316 18ed 02       		.uleb128 .LVU799
 17317 18ee 00       		.uleb128 .LVU839
 17318 18ef 00       		.uleb128 .LVU839
 17319 18f0 00       		.uleb128 .LVU854
 17320 18f1 00       		.uleb128 .LVU854
 17321 18f2 00       		.uleb128 .LVU858
 17322 18f3 00       		.uleb128 .LVU858
 17323 18f4 00       		.uleb128 0
 17324              	.LLST185:
 17325 18f5 18000000 		.4byte	.LVL255
 17326 18f9 68000000 		.4byte	.LVL264
 17327 18fd 0100     		.2byte	0x1
 17328 18ff 50       		.byte	0x50
 17329 1900 68000000 		.4byte	.LVL264
 17330 1904 98000000 		.4byte	.LVL273
 17331 1908 0400     		.2byte	0x4
 17332 190a F3       		.byte	0xf3
ARM GAS  /tmp/cchqCFfA.s 			page 308


 17333 190b 01       		.uleb128 0x1
 17334 190c 50       		.byte	0x50
 17335 190d 9F       		.byte	0x9f
 17336 190e 98000000 		.4byte	.LVL273
 17337 1912 A0000000 		.4byte	.LVL276
 17338 1916 0100     		.2byte	0x1
 17339 1918 50       		.byte	0x50
 17340 1919 A0000000 		.4byte	.LVL276
 17341 191d A8000000 		.4byte	.LFE16
 17342 1921 0400     		.2byte	0x4
 17343 1923 F3       		.byte	0xf3
 17344 1924 01       		.uleb128 0x1
 17345 1925 50       		.byte	0x50
 17346 1926 9F       		.byte	0x9f
 17347 1927 00000000 		.4byte	0
 17348 192b 00000000 		.4byte	0
 17349              	.LVUS186:
 17350 192f 02       		.uleb128 .LVU799
 17351 1930 00       		.uleb128 .LVU839
 17352 1931 00       		.uleb128 .LVU839
 17353 1932 00       		.uleb128 .LVU854
 17354 1933 00       		.uleb128 .LVU854
 17355 1934 00       		.uleb128 .LVU858
 17356 1935 00       		.uleb128 .LVU858
 17357 1936 00       		.uleb128 0
 17358              	.LLST186:
 17359 1937 18000000 		.4byte	.LVL255
 17360 193b 68000000 		.4byte	.LVL264
 17361 193f 0100     		.2byte	0x1
 17362 1941 50       		.byte	0x50
 17363 1942 68000000 		.4byte	.LVL264
 17364 1946 98000000 		.4byte	.LVL273
 17365 194a 0400     		.2byte	0x4
 17366 194c F3       		.byte	0xf3
 17367 194d 01       		.uleb128 0x1
 17368 194e 50       		.byte	0x50
 17369 194f 9F       		.byte	0x9f
 17370 1950 98000000 		.4byte	.LVL273
 17371 1954 A0000000 		.4byte	.LVL276
 17372 1958 0100     		.2byte	0x1
 17373 195a 50       		.byte	0x50
 17374 195b A0000000 		.4byte	.LVL276
 17375 195f A8000000 		.4byte	.LFE16
 17376 1963 0400     		.2byte	0x4
 17377 1965 F3       		.byte	0xf3
 17378 1966 01       		.uleb128 0x1
 17379 1967 50       		.byte	0x50
 17380 1968 9F       		.byte	0x9f
 17381 1969 00000000 		.4byte	0
 17382 196d 00000000 		.4byte	0
 17383              	.LVUS187:
 17384 1971 02       		.uleb128 .LVU804
 17385 1972 00       		.uleb128 .LVU839
 17386 1973 00       		.uleb128 .LVU839
 17387 1974 00       		.uleb128 .LVU854
 17388 1975 00       		.uleb128 .LVU854
 17389 1976 00       		.uleb128 .LVU858
ARM GAS  /tmp/cchqCFfA.s 			page 309


 17390 1977 00       		.uleb128 .LVU858
 17391 1978 00       		.uleb128 0
 17392              	.LLST187:
 17393 1979 28000000 		.4byte	.LVL256
 17394 197d 68000000 		.4byte	.LVL264
 17395 1981 0100     		.2byte	0x1
 17396 1983 50       		.byte	0x50
 17397 1984 68000000 		.4byte	.LVL264
 17398 1988 98000000 		.4byte	.LVL273
 17399 198c 0400     		.2byte	0x4
 17400 198e F3       		.byte	0xf3
 17401 198f 01       		.uleb128 0x1
 17402 1990 50       		.byte	0x50
 17403 1991 9F       		.byte	0x9f
 17404 1992 98000000 		.4byte	.LVL273
 17405 1996 A0000000 		.4byte	.LVL276
 17406 199a 0100     		.2byte	0x1
 17407 199c 50       		.byte	0x50
 17408 199d A0000000 		.4byte	.LVL276
 17409 19a1 A8000000 		.4byte	.LFE16
 17410 19a5 0400     		.2byte	0x4
 17411 19a7 F3       		.byte	0xf3
 17412 19a8 01       		.uleb128 0x1
 17413 19a9 50       		.byte	0x50
 17414 19aa 9F       		.byte	0x9f
 17415 19ab 00000000 		.4byte	0
 17416 19af 00000000 		.4byte	0
 17417              	.LVUS188:
 17418 19b3 02       		.uleb128 .LVU804
 17419 19b4 00       		.uleb128 .LVU839
 17420 19b5 00       		.uleb128 .LVU839
 17421 19b6 00       		.uleb128 .LVU854
 17422 19b7 00       		.uleb128 .LVU854
 17423 19b8 00       		.uleb128 .LVU858
 17424 19b9 00       		.uleb128 .LVU858
 17425 19ba 00       		.uleb128 0
 17426              	.LLST188:
 17427 19bb 28000000 		.4byte	.LVL256
 17428 19bf 68000000 		.4byte	.LVL264
 17429 19c3 0100     		.2byte	0x1
 17430 19c5 50       		.byte	0x50
 17431 19c6 68000000 		.4byte	.LVL264
 17432 19ca 98000000 		.4byte	.LVL273
 17433 19ce 0400     		.2byte	0x4
 17434 19d0 F3       		.byte	0xf3
 17435 19d1 01       		.uleb128 0x1
 17436 19d2 50       		.byte	0x50
 17437 19d3 9F       		.byte	0x9f
 17438 19d4 98000000 		.4byte	.LVL273
 17439 19d8 A0000000 		.4byte	.LVL276
 17440 19dc 0100     		.2byte	0x1
 17441 19de 50       		.byte	0x50
 17442 19df A0000000 		.4byte	.LVL276
 17443 19e3 A8000000 		.4byte	.LFE16
 17444 19e7 0400     		.2byte	0x4
 17445 19e9 F3       		.byte	0xf3
 17446 19ea 01       		.uleb128 0x1
ARM GAS  /tmp/cchqCFfA.s 			page 310


 17447 19eb 50       		.byte	0x50
 17448 19ec 9F       		.byte	0x9f
 17449 19ed 00000000 		.4byte	0
 17450 19f1 00000000 		.4byte	0
 17451              	.LVUS189:
 17452 19f5 03       		.uleb128 .LVU810
 17453 19f6 00       		.uleb128 .LVU839
 17454 19f7 00       		.uleb128 .LVU839
 17455 19f8 00       		.uleb128 .LVU854
 17456 19f9 00       		.uleb128 .LVU854
 17457 19fa 00       		.uleb128 .LVU858
 17458 19fb 00       		.uleb128 .LVU858
 17459 19fc 00       		.uleb128 0
 17460              	.LLST189:
 17461 19fd 34000000 		.4byte	.LVL257
 17462 1a01 68000000 		.4byte	.LVL264
 17463 1a05 0100     		.2byte	0x1
 17464 1a07 50       		.byte	0x50
 17465 1a08 68000000 		.4byte	.LVL264
 17466 1a0c 98000000 		.4byte	.LVL273
 17467 1a10 0400     		.2byte	0x4
 17468 1a12 F3       		.byte	0xf3
 17469 1a13 01       		.uleb128 0x1
 17470 1a14 50       		.byte	0x50
 17471 1a15 9F       		.byte	0x9f
 17472 1a16 98000000 		.4byte	.LVL273
 17473 1a1a A0000000 		.4byte	.LVL276
 17474 1a1e 0100     		.2byte	0x1
 17475 1a20 50       		.byte	0x50
 17476 1a21 A0000000 		.4byte	.LVL276
 17477 1a25 A8000000 		.4byte	.LFE16
 17478 1a29 0400     		.2byte	0x4
 17479 1a2b F3       		.byte	0xf3
 17480 1a2c 01       		.uleb128 0x1
 17481 1a2d 50       		.byte	0x50
 17482 1a2e 9F       		.byte	0x9f
 17483 1a2f 00000000 		.4byte	0
 17484 1a33 00000000 		.4byte	0
 17485              	.LVUS190:
 17486 1a37 03       		.uleb128 .LVU810
 17487 1a38 00       		.uleb128 .LVU839
 17488 1a39 00       		.uleb128 .LVU839
 17489 1a3a 00       		.uleb128 .LVU854
 17490 1a3b 00       		.uleb128 .LVU854
 17491 1a3c 00       		.uleb128 .LVU858
 17492 1a3d 00       		.uleb128 .LVU858
 17493 1a3e 00       		.uleb128 0
 17494              	.LLST190:
 17495 1a3f 34000000 		.4byte	.LVL257
 17496 1a43 68000000 		.4byte	.LVL264
 17497 1a47 0100     		.2byte	0x1
 17498 1a49 50       		.byte	0x50
 17499 1a4a 68000000 		.4byte	.LVL264
 17500 1a4e 98000000 		.4byte	.LVL273
 17501 1a52 0400     		.2byte	0x4
 17502 1a54 F3       		.byte	0xf3
 17503 1a55 01       		.uleb128 0x1
ARM GAS  /tmp/cchqCFfA.s 			page 311


 17504 1a56 50       		.byte	0x50
 17505 1a57 9F       		.byte	0x9f
 17506 1a58 98000000 		.4byte	.LVL273
 17507 1a5c A0000000 		.4byte	.LVL276
 17508 1a60 0100     		.2byte	0x1
 17509 1a62 50       		.byte	0x50
 17510 1a63 A0000000 		.4byte	.LVL276
 17511 1a67 A8000000 		.4byte	.LFE16
 17512 1a6b 0400     		.2byte	0x4
 17513 1a6d F3       		.byte	0xf3
 17514 1a6e 01       		.uleb128 0x1
 17515 1a6f 50       		.byte	0x50
 17516 1a70 9F       		.byte	0x9f
 17517 1a71 00000000 		.4byte	0
 17518 1a75 00000000 		.4byte	0
 17519              	.LVUS191:
 17520 1a79 03       		.uleb128 .LVU816
 17521 1a7a 00       		.uleb128 .LVU839
 17522 1a7b 00       		.uleb128 .LVU839
 17523 1a7c 00       		.uleb128 .LVU854
 17524 1a7d 00       		.uleb128 .LVU854
 17525 1a7e 00       		.uleb128 .LVU858
 17526 1a7f 00       		.uleb128 .LVU858
 17527 1a80 00       		.uleb128 0
 17528              	.LLST191:
 17529 1a81 3E000000 		.4byte	.LVL258
 17530 1a85 68000000 		.4byte	.LVL264
 17531 1a89 0100     		.2byte	0x1
 17532 1a8b 50       		.byte	0x50
 17533 1a8c 68000000 		.4byte	.LVL264
 17534 1a90 98000000 		.4byte	.LVL273
 17535 1a94 0400     		.2byte	0x4
 17536 1a96 F3       		.byte	0xf3
 17537 1a97 01       		.uleb128 0x1
 17538 1a98 50       		.byte	0x50
 17539 1a99 9F       		.byte	0x9f
 17540 1a9a 98000000 		.4byte	.LVL273
 17541 1a9e A0000000 		.4byte	.LVL276
 17542 1aa2 0100     		.2byte	0x1
 17543 1aa4 50       		.byte	0x50
 17544 1aa5 A0000000 		.4byte	.LVL276
 17545 1aa9 A8000000 		.4byte	.LFE16
 17546 1aad 0400     		.2byte	0x4
 17547 1aaf F3       		.byte	0xf3
 17548 1ab0 01       		.uleb128 0x1
 17549 1ab1 50       		.byte	0x50
 17550 1ab2 9F       		.byte	0x9f
 17551 1ab3 00000000 		.4byte	0
 17552 1ab7 00000000 		.4byte	0
 17553              	.LVUS192:
 17554 1abb 03       		.uleb128 .LVU816
 17555 1abc 00       		.uleb128 .LVU839
 17556 1abd 00       		.uleb128 .LVU839
 17557 1abe 00       		.uleb128 .LVU854
 17558 1abf 00       		.uleb128 .LVU854
 17559 1ac0 00       		.uleb128 .LVU858
 17560 1ac1 00       		.uleb128 .LVU858
ARM GAS  /tmp/cchqCFfA.s 			page 312


 17561 1ac2 00       		.uleb128 0
 17562              	.LLST192:
 17563 1ac3 3E000000 		.4byte	.LVL258
 17564 1ac7 68000000 		.4byte	.LVL264
 17565 1acb 0100     		.2byte	0x1
 17566 1acd 50       		.byte	0x50
 17567 1ace 68000000 		.4byte	.LVL264
 17568 1ad2 98000000 		.4byte	.LVL273
 17569 1ad6 0400     		.2byte	0x4
 17570 1ad8 F3       		.byte	0xf3
 17571 1ad9 01       		.uleb128 0x1
 17572 1ada 50       		.byte	0x50
 17573 1adb 9F       		.byte	0x9f
 17574 1adc 98000000 		.4byte	.LVL273
 17575 1ae0 A0000000 		.4byte	.LVL276
 17576 1ae4 0100     		.2byte	0x1
 17577 1ae6 50       		.byte	0x50
 17578 1ae7 A0000000 		.4byte	.LVL276
 17579 1aeb A8000000 		.4byte	.LFE16
 17580 1aef 0400     		.2byte	0x4
 17581 1af1 F3       		.byte	0xf3
 17582 1af2 01       		.uleb128 0x1
 17583 1af3 50       		.byte	0x50
 17584 1af4 9F       		.byte	0x9f
 17585 1af5 00000000 		.4byte	0
 17586 1af9 00000000 		.4byte	0
 17587              	.LVUS193:
 17588 1afd 02       		.uleb128 .LVU822
 17589 1afe 00       		.uleb128 .LVU839
 17590 1aff 00       		.uleb128 .LVU839
 17591 1b00 00       		.uleb128 .LVU854
 17592 1b01 00       		.uleb128 .LVU854
 17593 1b02 00       		.uleb128 .LVU858
 17594 1b03 00       		.uleb128 .LVU858
 17595 1b04 00       		.uleb128 0
 17596              	.LLST193:
 17597 1b05 4A000000 		.4byte	.LVL259
 17598 1b09 68000000 		.4byte	.LVL264
 17599 1b0d 0100     		.2byte	0x1
 17600 1b0f 50       		.byte	0x50
 17601 1b10 68000000 		.4byte	.LVL264
 17602 1b14 98000000 		.4byte	.LVL273
 17603 1b18 0400     		.2byte	0x4
 17604 1b1a F3       		.byte	0xf3
 17605 1b1b 01       		.uleb128 0x1
 17606 1b1c 50       		.byte	0x50
 17607 1b1d 9F       		.byte	0x9f
 17608 1b1e 98000000 		.4byte	.LVL273
 17609 1b22 A0000000 		.4byte	.LVL276
 17610 1b26 0100     		.2byte	0x1
 17611 1b28 50       		.byte	0x50
 17612 1b29 A0000000 		.4byte	.LVL276
 17613 1b2d A8000000 		.4byte	.LFE16
 17614 1b31 0400     		.2byte	0x4
 17615 1b33 F3       		.byte	0xf3
 17616 1b34 01       		.uleb128 0x1
 17617 1b35 50       		.byte	0x50
ARM GAS  /tmp/cchqCFfA.s 			page 313


 17618 1b36 9F       		.byte	0x9f
 17619 1b37 00000000 		.4byte	0
 17620 1b3b 00000000 		.4byte	0
 17621              	.LVUS194:
 17622 1b3f 02       		.uleb128 .LVU822
 17623 1b40 00       		.uleb128 .LVU839
 17624 1b41 00       		.uleb128 .LVU839
 17625 1b42 00       		.uleb128 .LVU854
 17626 1b43 00       		.uleb128 .LVU854
 17627 1b44 00       		.uleb128 .LVU858
 17628 1b45 00       		.uleb128 .LVU858
 17629 1b46 00       		.uleb128 0
 17630              	.LLST194:
 17631 1b47 4A000000 		.4byte	.LVL259
 17632 1b4b 68000000 		.4byte	.LVL264
 17633 1b4f 0100     		.2byte	0x1
 17634 1b51 50       		.byte	0x50
 17635 1b52 68000000 		.4byte	.LVL264
 17636 1b56 98000000 		.4byte	.LVL273
 17637 1b5a 0400     		.2byte	0x4
 17638 1b5c F3       		.byte	0xf3
 17639 1b5d 01       		.uleb128 0x1
 17640 1b5e 50       		.byte	0x50
 17641 1b5f 9F       		.byte	0x9f
 17642 1b60 98000000 		.4byte	.LVL273
 17643 1b64 A0000000 		.4byte	.LVL276
 17644 1b68 0100     		.2byte	0x1
 17645 1b6a 50       		.byte	0x50
 17646 1b6b A0000000 		.4byte	.LVL276
 17647 1b6f A8000000 		.4byte	.LFE16
 17648 1b73 0400     		.2byte	0x4
 17649 1b75 F3       		.byte	0xf3
 17650 1b76 01       		.uleb128 0x1
 17651 1b77 50       		.byte	0x50
 17652 1b78 9F       		.byte	0x9f
 17653 1b79 00000000 		.4byte	0
 17654 1b7d 00000000 		.4byte	0
 17655              	.LVUS156:
 17656 1b81 00       		.uleb128 0
 17657 1b82 00       		.uleb128 .LVU787
 17658 1b83 00       		.uleb128 .LVU787
 17659 1b84 00       		.uleb128 0
 17660              	.LLST156:
 17661 1b85 00000000 		.4byte	.LVL232
 17662 1b89 A7000000 		.4byte	.LVL253-1
 17663 1b8d 0100     		.2byte	0x1
 17664 1b8f 50       		.byte	0x50
 17665 1b90 A7000000 		.4byte	.LVL253-1
 17666 1b94 AC000000 		.4byte	.LFE15
 17667 1b98 0400     		.2byte	0x4
 17668 1b9a F3       		.byte	0xf3
 17669 1b9b 01       		.uleb128 0x1
 17670 1b9c 50       		.byte	0x50
 17671 1b9d 9F       		.byte	0x9f
 17672 1b9e 00000000 		.4byte	0
 17673 1ba2 00000000 		.4byte	0
 17674              	.LVUS157:
ARM GAS  /tmp/cchqCFfA.s 			page 314


 17675 1ba6 00       		.uleb128 .LVU733
 17676 1ba7 00       		.uleb128 .LVU758
 17677 1ba8 00       		.uleb128 .LVU769
 17678 1ba9 01       		.uleb128 .LVU778
 17679              	.LLST157:
 17680 1baa 28000000 		.4byte	.LVL234
 17681 1bae 52000000 		.4byte	.LVL240
 17682 1bb2 0100     		.2byte	0x1
 17683 1bb4 58       		.byte	0x58
 17684 1bb5 80000000 		.4byte	.LVL247
 17685 1bb9 8C000000 		.4byte	.LVL250
 17686 1bbd 0100     		.2byte	0x1
 17687 1bbf 51       		.byte	0x51
 17688 1bc0 00000000 		.4byte	0
 17689 1bc4 00000000 		.4byte	0
 17690              	.LVUS158:
 17691 1bc8 00       		.uleb128 .LVU738
 17692 1bc9 00       		.uleb128 .LVU767
 17693 1bca 00       		.uleb128 .LVU771
 17694 1bcb 00       		.uleb128 .LVU786
 17695              	.LLST158:
 17696 1bcc 32000000 		.4byte	.LVL235
 17697 1bd0 7A000000 		.4byte	.LVL245
 17698 1bd4 0100     		.2byte	0x1
 17699 1bd6 53       		.byte	0x53
 17700 1bd7 82000000 		.4byte	.LVL248
 17701 1bdb 96000000 		.4byte	.LVL252
 17702 1bdf 0100     		.2byte	0x1
 17703 1be1 53       		.byte	0x53
 17704 1be2 00000000 		.4byte	0
 17705 1be6 00000000 		.4byte	0
 17706              	.LVUS159:
 17707 1bea 00       		.uleb128 .LVU743
 17708 1beb 00       		.uleb128 .LVU760
 17709 1bec 00       		.uleb128 .LVU764
 17710 1bed 00       		.uleb128 .LVU768
 17711 1bee 00       		.uleb128 .LVU768
 17712 1bef 00       		.uleb128 .LVU771
 17713              	.LLST159:
 17714 1bf0 3A000000 		.4byte	.LVL236
 17715 1bf4 5A000000 		.4byte	.LVL242
 17716 1bf8 0100     		.2byte	0x1
 17717 1bfa 5C       		.byte	0x5c
 17718 1bfb 70000000 		.4byte	.LVL243
 17719 1bff 7E000000 		.4byte	.LVL246
 17720 1c03 0100     		.2byte	0x1
 17721 1c05 54       		.byte	0x54
 17722 1c06 7E000000 		.4byte	.LVL246
 17723 1c0a 82000000 		.4byte	.LVL248
 17724 1c0e 0800     		.2byte	0x8
 17725 1c10 73       		.byte	0x73
 17726 1c11 00       		.sleb128 0
 17727 1c12 7C       		.byte	0x7c
 17728 1c13 00       		.sleb128 0
 17729 1c14 22       		.byte	0x22
 17730 1c15 31       		.byte	0x31
 17731 1c16 1C       		.byte	0x1c
ARM GAS  /tmp/cchqCFfA.s 			page 315


 17732 1c17 9F       		.byte	0x9f
 17733 1c18 00000000 		.4byte	0
 17734 1c1c 00000000 		.4byte	0
 17735              	.LVUS160:
 17736 1c20 00       		.uleb128 .LVU748
 17737 1c21 00       		.uleb128 .LVU759
 17738 1c22 00       		.uleb128 .LVU764
 17739 1c23 00       		.uleb128 .LVU765
 17740 1c24 00       		.uleb128 .LVU765
 17741 1c25 00       		.uleb128 .LVU767
 17742 1c26 00       		.uleb128 .LVU767
 17743 1c27 00       		.uleb128 .LVU771
 17744              	.LLST160:
 17745 1c28 42000000 		.4byte	.LVL237
 17746 1c2c 56000000 		.4byte	.LVL241
 17747 1c30 0100     		.2byte	0x1
 17748 1c32 5E       		.byte	0x5e
 17749 1c33 70000000 		.4byte	.LVL243
 17750 1c37 74000000 		.4byte	.LVL244
 17751 1c3b 0100     		.2byte	0x1
 17752 1c3d 51       		.byte	0x51
 17753 1c3e 74000000 		.4byte	.LVL244
 17754 1c42 7A000000 		.4byte	.LVL245
 17755 1c46 0600     		.2byte	0x6
 17756 1c48 73       		.byte	0x73
 17757 1c49 00       		.sleb128 0
 17758 1c4a 7E       		.byte	0x7e
 17759 1c4b 00       		.sleb128 0
 17760 1c4c 22       		.byte	0x22
 17761 1c4d 9F       		.byte	0x9f
 17762 1c4e 7A000000 		.4byte	.LVL245
 17763 1c52 82000000 		.4byte	.LVL248
 17764 1c56 0800     		.2byte	0x8
 17765 1c58 73       		.byte	0x73
 17766 1c59 00       		.sleb128 0
 17767 1c5a 7E       		.byte	0x7e
 17768 1c5b 00       		.sleb128 0
 17769 1c5c 22       		.byte	0x22
 17770 1c5d 31       		.byte	0x31
 17771 1c5e 1C       		.byte	0x1c
 17772 1c5f 9F       		.byte	0x9f
 17773 1c60 00000000 		.4byte	0
 17774 1c64 00000000 		.4byte	0
 17775              	.LVUS161:
 17776 1c68 00       		.uleb128 .LVU753
 17777 1c69 00       		.uleb128 .LVU757
 17778 1c6a 00       		.uleb128 .LVU757
 17779 1c6b 00       		.uleb128 .LVU760
 17780              	.LLST161:
 17781 1c6c 48000000 		.4byte	.LVL238
 17782 1c70 4C000000 		.4byte	.LVL239
 17783 1c74 0100     		.2byte	0x1
 17784 1c76 57       		.byte	0x57
 17785 1c77 4C000000 		.4byte	.LVL239
 17786 1c7b 5A000000 		.4byte	.LVL242
 17787 1c7f 0700     		.2byte	0x7
 17788 1c81 74       		.byte	0x74
ARM GAS  /tmp/cchqCFfA.s 			page 316


 17789 1c82 00       		.sleb128 0
 17790 1c83 31       		.byte	0x31
 17791 1c84 24       		.byte	0x24
 17792 1c85 71       		.byte	0x71
 17793 1c86 00       		.sleb128 0
 17794 1c87 22       		.byte	0x22
 17795 1c88 00000000 		.4byte	0
 17796 1c8c 00000000 		.4byte	0
 17797              	.LVUS162:
 17798 1c90 02       		.uleb128 .LVU755
 17799 1c91 00       		.uleb128 .LVU760
 17800              	.LLST162:
 17801 1c92 48000000 		.4byte	.LVL238
 17802 1c96 5A000000 		.4byte	.LVL242
 17803 1c9a 0200     		.2byte	0x2
 17804 1c9c 30       		.byte	0x30
 17805 1c9d 9F       		.byte	0x9f
 17806 1c9e 00000000 		.4byte	0
 17807 1ca2 00000000 		.4byte	0
 17808              	.LVUS173:
 17809 1ca6 00       		.uleb128 .LVU771
 17810 1ca7 00       		.uleb128 .LVU785
 17811              	.LLST173:
 17812 1ca8 82000000 		.4byte	.LVL248
 17813 1cac 94000000 		.4byte	.LVL251
 17814 1cb0 0100     		.2byte	0x1
 17815 1cb2 56       		.byte	0x56
 17816 1cb3 00000000 		.4byte	0
 17817 1cb7 00000000 		.4byte	0
 17818              	.LVUS174:
 17819 1cbb 01       		.uleb128 .LVU772
 17820 1cbc 00       		.uleb128 .LVU785
 17821              	.LLST174:
 17822 1cbd 82000000 		.4byte	.LVL248
 17823 1cc1 94000000 		.4byte	.LVL251
 17824 1cc5 0100     		.2byte	0x1
 17825 1cc7 54       		.byte	0x54
 17826 1cc8 00000000 		.4byte	0
 17827 1ccc 00000000 		.4byte	0
 17828              	.LVUS175:
 17829 1cd0 02       		.uleb128 .LVU773
 17830 1cd1 00       		.uleb128 .LVU776
 17831              	.LLST175:
 17832 1cd2 82000000 		.4byte	.LVL248
 17833 1cd6 88000000 		.4byte	.LVL249
 17834 1cda 0100     		.2byte	0x1
 17835 1cdc 55       		.byte	0x55
 17836 1cdd 00000000 		.4byte	0
 17837 1ce1 00000000 		.4byte	0
 17838              	.LVUS176:
 17839 1ce5 00       		.uleb128 .LVU777
 17840 1ce6 00       		.uleb128 .LVU785
 17841              	.LLST176:
 17842 1ce7 8C000000 		.4byte	.LVL250
 17843 1ceb 94000000 		.4byte	.LVL251
 17844 1cef 0100     		.2byte	0x1
 17845 1cf1 55       		.byte	0x55
ARM GAS  /tmp/cchqCFfA.s 			page 317


 17846 1cf2 00000000 		.4byte	0
 17847 1cf6 00000000 		.4byte	0
 17848              	.LVUS163:
 17849 1cfa 02       		.uleb128 .LVU730
 17850 1cfb 00       		.uleb128 .LVU787
 17851 1cfc 00       		.uleb128 .LVU787
 17852 1cfd 00       		.uleb128 0
 17853              	.LLST163:
 17854 1cfe 18000000 		.4byte	.LVL233
 17855 1d02 A7000000 		.4byte	.LVL253-1
 17856 1d06 0100     		.2byte	0x1
 17857 1d08 50       		.byte	0x50
 17858 1d09 A7000000 		.4byte	.LVL253-1
 17859 1d0d AC000000 		.4byte	.LFE15
 17860 1d11 0400     		.2byte	0x4
 17861 1d13 F3       		.byte	0xf3
 17862 1d14 01       		.uleb128 0x1
 17863 1d15 50       		.byte	0x50
 17864 1d16 9F       		.byte	0x9f
 17865 1d17 00000000 		.4byte	0
 17866 1d1b 00000000 		.4byte	0
 17867              	.LVUS164:
 17868 1d1f 02       		.uleb128 .LVU730
 17869 1d20 00       		.uleb128 .LVU787
 17870 1d21 00       		.uleb128 .LVU787
 17871 1d22 00       		.uleb128 0
 17872              	.LLST164:
 17873 1d23 18000000 		.4byte	.LVL233
 17874 1d27 A7000000 		.4byte	.LVL253-1
 17875 1d2b 0100     		.2byte	0x1
 17876 1d2d 50       		.byte	0x50
 17877 1d2e A7000000 		.4byte	.LVL253-1
 17878 1d32 AC000000 		.4byte	.LFE15
 17879 1d36 0400     		.2byte	0x4
 17880 1d38 F3       		.byte	0xf3
 17881 1d39 01       		.uleb128 0x1
 17882 1d3a 50       		.byte	0x50
 17883 1d3b 9F       		.byte	0x9f
 17884 1d3c 00000000 		.4byte	0
 17885 1d40 00000000 		.4byte	0
 17886              	.LVUS165:
 17887 1d44 02       		.uleb128 .LVU735
 17888 1d45 00       		.uleb128 .LVU787
 17889 1d46 00       		.uleb128 .LVU787
 17890 1d47 00       		.uleb128 0
 17891              	.LLST165:
 17892 1d48 28000000 		.4byte	.LVL234
 17893 1d4c A7000000 		.4byte	.LVL253-1
 17894 1d50 0100     		.2byte	0x1
 17895 1d52 50       		.byte	0x50
 17896 1d53 A7000000 		.4byte	.LVL253-1
 17897 1d57 AC000000 		.4byte	.LFE15
 17898 1d5b 0400     		.2byte	0x4
 17899 1d5d F3       		.byte	0xf3
 17900 1d5e 01       		.uleb128 0x1
 17901 1d5f 50       		.byte	0x50
 17902 1d60 9F       		.byte	0x9f
ARM GAS  /tmp/cchqCFfA.s 			page 318


 17903 1d61 00000000 		.4byte	0
 17904 1d65 00000000 		.4byte	0
 17905              	.LVUS166:
 17906 1d69 02       		.uleb128 .LVU735
 17907 1d6a 00       		.uleb128 .LVU787
 17908 1d6b 00       		.uleb128 .LVU787
 17909 1d6c 00       		.uleb128 0
 17910              	.LLST166:
 17911 1d6d 28000000 		.4byte	.LVL234
 17912 1d71 A7000000 		.4byte	.LVL253-1
 17913 1d75 0100     		.2byte	0x1
 17914 1d77 50       		.byte	0x50
 17915 1d78 A7000000 		.4byte	.LVL253-1
 17916 1d7c AC000000 		.4byte	.LFE15
 17917 1d80 0400     		.2byte	0x4
 17918 1d82 F3       		.byte	0xf3
 17919 1d83 01       		.uleb128 0x1
 17920 1d84 50       		.byte	0x50
 17921 1d85 9F       		.byte	0x9f
 17922 1d86 00000000 		.4byte	0
 17923 1d8a 00000000 		.4byte	0
 17924              	.LVUS167:
 17925 1d8e 02       		.uleb128 .LVU740
 17926 1d8f 00       		.uleb128 .LVU787
 17927 1d90 00       		.uleb128 .LVU787
 17928 1d91 00       		.uleb128 0
 17929              	.LLST167:
 17930 1d92 32000000 		.4byte	.LVL235
 17931 1d96 A7000000 		.4byte	.LVL253-1
 17932 1d9a 0100     		.2byte	0x1
 17933 1d9c 50       		.byte	0x50
 17934 1d9d A7000000 		.4byte	.LVL253-1
 17935 1da1 AC000000 		.4byte	.LFE15
 17936 1da5 0400     		.2byte	0x4
 17937 1da7 F3       		.byte	0xf3
 17938 1da8 01       		.uleb128 0x1
 17939 1da9 50       		.byte	0x50
 17940 1daa 9F       		.byte	0x9f
 17941 1dab 00000000 		.4byte	0
 17942 1daf 00000000 		.4byte	0
 17943              	.LVUS168:
 17944 1db3 02       		.uleb128 .LVU740
 17945 1db4 00       		.uleb128 .LVU787
 17946 1db5 00       		.uleb128 .LVU787
 17947 1db6 00       		.uleb128 0
 17948              	.LLST168:
 17949 1db7 32000000 		.4byte	.LVL235
 17950 1dbb A7000000 		.4byte	.LVL253-1
 17951 1dbf 0100     		.2byte	0x1
 17952 1dc1 50       		.byte	0x50
 17953 1dc2 A7000000 		.4byte	.LVL253-1
 17954 1dc6 AC000000 		.4byte	.LFE15
 17955 1dca 0400     		.2byte	0x4
 17956 1dcc F3       		.byte	0xf3
 17957 1dcd 01       		.uleb128 0x1
 17958 1dce 50       		.byte	0x50
 17959 1dcf 9F       		.byte	0x9f
ARM GAS  /tmp/cchqCFfA.s 			page 319


 17960 1dd0 00000000 		.4byte	0
 17961 1dd4 00000000 		.4byte	0
 17962              	.LVUS169:
 17963 1dd8 02       		.uleb128 .LVU745
 17964 1dd9 00       		.uleb128 .LVU787
 17965 1dda 00       		.uleb128 .LVU787
 17966 1ddb 00       		.uleb128 0
 17967              	.LLST169:
 17968 1ddc 3A000000 		.4byte	.LVL236
 17969 1de0 A7000000 		.4byte	.LVL253-1
 17970 1de4 0100     		.2byte	0x1
 17971 1de6 50       		.byte	0x50
 17972 1de7 A7000000 		.4byte	.LVL253-1
 17973 1deb AC000000 		.4byte	.LFE15
 17974 1def 0400     		.2byte	0x4
 17975 1df1 F3       		.byte	0xf3
 17976 1df2 01       		.uleb128 0x1
 17977 1df3 50       		.byte	0x50
 17978 1df4 9F       		.byte	0x9f
 17979 1df5 00000000 		.4byte	0
 17980 1df9 00000000 		.4byte	0
 17981              	.LVUS170:
 17982 1dfd 02       		.uleb128 .LVU745
 17983 1dfe 00       		.uleb128 .LVU787
 17984 1dff 00       		.uleb128 .LVU787
 17985 1e00 00       		.uleb128 0
 17986              	.LLST170:
 17987 1e01 3A000000 		.4byte	.LVL236
 17988 1e05 A7000000 		.4byte	.LVL253-1
 17989 1e09 0100     		.2byte	0x1
 17990 1e0b 50       		.byte	0x50
 17991 1e0c A7000000 		.4byte	.LVL253-1
 17992 1e10 AC000000 		.4byte	.LFE15
 17993 1e14 0400     		.2byte	0x4
 17994 1e16 F3       		.byte	0xf3
 17995 1e17 01       		.uleb128 0x1
 17996 1e18 50       		.byte	0x50
 17997 1e19 9F       		.byte	0x9f
 17998 1e1a 00000000 		.4byte	0
 17999 1e1e 00000000 		.4byte	0
 18000              	.LVUS171:
 18001 1e22 02       		.uleb128 .LVU750
 18002 1e23 00       		.uleb128 .LVU787
 18003 1e24 00       		.uleb128 .LVU787
 18004 1e25 00       		.uleb128 0
 18005              	.LLST171:
 18006 1e26 42000000 		.4byte	.LVL237
 18007 1e2a A7000000 		.4byte	.LVL253-1
 18008 1e2e 0100     		.2byte	0x1
 18009 1e30 50       		.byte	0x50
 18010 1e31 A7000000 		.4byte	.LVL253-1
 18011 1e35 AC000000 		.4byte	.LFE15
 18012 1e39 0400     		.2byte	0x4
 18013 1e3b F3       		.byte	0xf3
 18014 1e3c 01       		.uleb128 0x1
 18015 1e3d 50       		.byte	0x50
 18016 1e3e 9F       		.byte	0x9f
ARM GAS  /tmp/cchqCFfA.s 			page 320


 18017 1e3f 00000000 		.4byte	0
 18018 1e43 00000000 		.4byte	0
 18019              	.LVUS172:
 18020 1e47 02       		.uleb128 .LVU750
 18021 1e48 00       		.uleb128 .LVU787
 18022 1e49 00       		.uleb128 .LVU787
 18023 1e4a 00       		.uleb128 0
 18024              	.LLST172:
 18025 1e4b 42000000 		.4byte	.LVL237
 18026 1e4f A7000000 		.4byte	.LVL253-1
 18027 1e53 0100     		.2byte	0x1
 18028 1e55 50       		.byte	0x50
 18029 1e56 A7000000 		.4byte	.LVL253-1
 18030 1e5a AC000000 		.4byte	.LFE15
 18031 1e5e 0400     		.2byte	0x4
 18032 1e60 F3       		.byte	0xf3
 18033 1e61 01       		.uleb128 0x1
 18034 1e62 50       		.byte	0x50
 18035 1e63 9F       		.byte	0x9f
 18036 1e64 00000000 		.4byte	0
 18037 1e68 00000000 		.4byte	0
 18038              	.LVUS142:
 18039 1e6c 00       		.uleb128 0
 18040 1e6d 00       		.uleb128 .LVU719
 18041 1e6e 00       		.uleb128 .LVU719
 18042 1e6f 00       		.uleb128 0
 18043              	.LLST142:
 18044 1e70 00000000 		.4byte	.LVL216
 18045 1e74 7B000000 		.4byte	.LVL231-1
 18046 1e78 0100     		.2byte	0x1
 18047 1e7a 50       		.byte	0x50
 18048 1e7b 7B000000 		.4byte	.LVL231-1
 18049 1e7f 80000000 		.4byte	.LFE14
 18050 1e83 0400     		.2byte	0x4
 18051 1e85 F3       		.byte	0xf3
 18052 1e86 01       		.uleb128 0x1
 18053 1e87 50       		.byte	0x50
 18054 1e88 9F       		.byte	0x9f
 18055 1e89 00000000 		.4byte	0
 18056 1e8d 00000000 		.4byte	0
 18057              	.LVUS143:
 18058 1e91 00       		.uleb128 .LVU679
 18059 1e92 00       		.uleb128 .LVU699
 18060 1e93 00       		.uleb128 .LVU705
 18061 1e94 03       		.uleb128 .LVU710
 18062              	.LLST143:
 18063 1e95 26000000 		.4byte	.LVL218
 18064 1e99 44000000 		.4byte	.LVL223
 18065 1e9d 0100     		.2byte	0x1
 18066 1e9f 57       		.byte	0x57
 18067 1ea0 5C000000 		.4byte	.LVL228
 18068 1ea4 5E000000 		.4byte	.LVL229
 18069 1ea8 0100     		.2byte	0x1
 18070 1eaa 51       		.byte	0x51
 18071 1eab 00000000 		.4byte	0
 18072 1eaf 00000000 		.4byte	0
 18073              	.LVUS144:
ARM GAS  /tmp/cchqCFfA.s 			page 321


 18074 1eb3 00       		.uleb128 .LVU684
 18075 1eb4 00       		.uleb128 .LVU704
 18076 1eb5 00       		.uleb128 .LVU707
 18077 1eb6 00       		.uleb128 .LVU718
 18078              	.LLST144:
 18079 1eb7 2E000000 		.4byte	.LVL219
 18080 1ebb 58000000 		.4byte	.LVL227
 18081 1ebf 0100     		.2byte	0x1
 18082 1ec1 53       		.byte	0x53
 18083 1ec2 5E000000 		.4byte	.LVL229
 18084 1ec6 6C000000 		.4byte	.LVL230
 18085 1eca 0100     		.2byte	0x1
 18086 1ecc 53       		.byte	0x53
 18087 1ecd 00000000 		.4byte	0
 18088 1ed1 00000000 		.4byte	0
 18089              	.LVUS145:
 18090 1ed5 00       		.uleb128 .LVU689
 18091 1ed6 00       		.uleb128 .LVU700
 18092 1ed7 00       		.uleb128 .LVU702
 18093 1ed8 00       		.uleb128 .LVU703
 18094 1ed9 00       		.uleb128 .LVU703
 18095 1eda 00       		.uleb128 .LVU704
 18096 1edb 00       		.uleb128 .LVU704
 18097 1edc 00       		.uleb128 .LVU707
 18098              	.LLST145:
 18099 1edd 36000000 		.4byte	.LVL220
 18100 1ee1 46000000 		.4byte	.LVL224
 18101 1ee5 0100     		.2byte	0x1
 18102 1ee7 56       		.byte	0x56
 18103 1ee8 4C000000 		.4byte	.LVL225
 18104 1eec 56000000 		.4byte	.LVL226
 18105 1ef0 0100     		.2byte	0x1
 18106 1ef2 51       		.byte	0x51
 18107 1ef3 56000000 		.4byte	.LVL226
 18108 1ef7 58000000 		.4byte	.LVL227
 18109 1efb 0600     		.2byte	0x6
 18110 1efd 73       		.byte	0x73
 18111 1efe 00       		.sleb128 0
 18112 1eff 76       		.byte	0x76
 18113 1f00 00       		.sleb128 0
 18114 1f01 22       		.byte	0x22
 18115 1f02 9F       		.byte	0x9f
 18116 1f03 58000000 		.4byte	.LVL227
 18117 1f07 5E000000 		.4byte	.LVL229
 18118 1f0b 0800     		.2byte	0x8
 18119 1f0d 73       		.byte	0x73
 18120 1f0e 00       		.sleb128 0
 18121 1f0f 76       		.byte	0x76
 18122 1f10 00       		.sleb128 0
 18123 1f11 22       		.byte	0x22
 18124 1f12 31       		.byte	0x31
 18125 1f13 1C       		.byte	0x1c
 18126 1f14 9F       		.byte	0x9f
 18127 1f15 00000000 		.4byte	0
 18128 1f19 00000000 		.4byte	0
 18129              	.LVUS146:
 18130 1f1d 00       		.uleb128 .LVU694
ARM GAS  /tmp/cchqCFfA.s 			page 322


 18131 1f1e 00       		.uleb128 .LVU698
 18132 1f1f 00       		.uleb128 .LVU698
 18133 1f20 00       		.uleb128 .LVU700
 18134              	.LLST146:
 18135 1f21 3C000000 		.4byte	.LVL221
 18136 1f25 40000000 		.4byte	.LVL222
 18137 1f29 0100     		.2byte	0x1
 18138 1f2b 55       		.byte	0x55
 18139 1f2c 40000000 		.4byte	.LVL222
 18140 1f30 46000000 		.4byte	.LVL224
 18141 1f34 0700     		.2byte	0x7
 18142 1f36 74       		.byte	0x74
 18143 1f37 00       		.sleb128 0
 18144 1f38 31       		.byte	0x31
 18145 1f39 24       		.byte	0x24
 18146 1f3a 71       		.byte	0x71
 18147 1f3b 00       		.sleb128 0
 18148 1f3c 22       		.byte	0x22
 18149 1f3d 00000000 		.4byte	0
 18150 1f41 00000000 		.4byte	0
 18151              	.LVUS147:
 18152 1f45 02       		.uleb128 .LVU696
 18153 1f46 00       		.uleb128 .LVU700
 18154              	.LLST147:
 18155 1f47 3C000000 		.4byte	.LVL221
 18156 1f4b 46000000 		.4byte	.LVL224
 18157 1f4f 0200     		.2byte	0x2
 18158 1f51 30       		.byte	0x30
 18159 1f52 9F       		.byte	0x9f
 18160 1f53 00000000 		.4byte	0
 18161 1f57 00000000 		.4byte	0
 18162              	.LVUS148:
 18163 1f5b 02       		.uleb128 .LVU676
 18164 1f5c 00       		.uleb128 .LVU719
 18165 1f5d 00       		.uleb128 .LVU719
 18166 1f5e 00       		.uleb128 0
 18167              	.LLST148:
 18168 1f5f 16000000 		.4byte	.LVL217
 18169 1f63 7B000000 		.4byte	.LVL231-1
 18170 1f67 0100     		.2byte	0x1
 18171 1f69 50       		.byte	0x50
 18172 1f6a 7B000000 		.4byte	.LVL231-1
 18173 1f6e 80000000 		.4byte	.LFE14
 18174 1f72 0400     		.2byte	0x4
 18175 1f74 F3       		.byte	0xf3
 18176 1f75 01       		.uleb128 0x1
 18177 1f76 50       		.byte	0x50
 18178 1f77 9F       		.byte	0x9f
 18179 1f78 00000000 		.4byte	0
 18180 1f7c 00000000 		.4byte	0
 18181              	.LVUS149:
 18182 1f80 02       		.uleb128 .LVU676
 18183 1f81 00       		.uleb128 .LVU719
 18184 1f82 00       		.uleb128 .LVU719
 18185 1f83 00       		.uleb128 0
 18186              	.LLST149:
 18187 1f84 16000000 		.4byte	.LVL217
ARM GAS  /tmp/cchqCFfA.s 			page 323


 18188 1f88 7B000000 		.4byte	.LVL231-1
 18189 1f8c 0100     		.2byte	0x1
 18190 1f8e 50       		.byte	0x50
 18191 1f8f 7B000000 		.4byte	.LVL231-1
 18192 1f93 80000000 		.4byte	.LFE14
 18193 1f97 0400     		.2byte	0x4
 18194 1f99 F3       		.byte	0xf3
 18195 1f9a 01       		.uleb128 0x1
 18196 1f9b 50       		.byte	0x50
 18197 1f9c 9F       		.byte	0x9f
 18198 1f9d 00000000 		.4byte	0
 18199 1fa1 00000000 		.4byte	0
 18200              	.LVUS150:
 18201 1fa5 02       		.uleb128 .LVU681
 18202 1fa6 00       		.uleb128 .LVU719
 18203 1fa7 00       		.uleb128 .LVU719
 18204 1fa8 00       		.uleb128 0
 18205              	.LLST150:
 18206 1fa9 26000000 		.4byte	.LVL218
 18207 1fad 7B000000 		.4byte	.LVL231-1
 18208 1fb1 0100     		.2byte	0x1
 18209 1fb3 50       		.byte	0x50
 18210 1fb4 7B000000 		.4byte	.LVL231-1
 18211 1fb8 80000000 		.4byte	.LFE14
 18212 1fbc 0400     		.2byte	0x4
 18213 1fbe F3       		.byte	0xf3
 18214 1fbf 01       		.uleb128 0x1
 18215 1fc0 50       		.byte	0x50
 18216 1fc1 9F       		.byte	0x9f
 18217 1fc2 00000000 		.4byte	0
 18218 1fc6 00000000 		.4byte	0
 18219              	.LVUS151:
 18220 1fca 02       		.uleb128 .LVU681
 18221 1fcb 00       		.uleb128 .LVU719
 18222 1fcc 00       		.uleb128 .LVU719
 18223 1fcd 00       		.uleb128 0
 18224              	.LLST151:
 18225 1fce 26000000 		.4byte	.LVL218
 18226 1fd2 7B000000 		.4byte	.LVL231-1
 18227 1fd6 0100     		.2byte	0x1
 18228 1fd8 50       		.byte	0x50
 18229 1fd9 7B000000 		.4byte	.LVL231-1
 18230 1fdd 80000000 		.4byte	.LFE14
 18231 1fe1 0400     		.2byte	0x4
 18232 1fe3 F3       		.byte	0xf3
 18233 1fe4 01       		.uleb128 0x1
 18234 1fe5 50       		.byte	0x50
 18235 1fe6 9F       		.byte	0x9f
 18236 1fe7 00000000 		.4byte	0
 18237 1feb 00000000 		.4byte	0
 18238              	.LVUS152:
 18239 1fef 02       		.uleb128 .LVU686
 18240 1ff0 00       		.uleb128 .LVU719
 18241 1ff1 00       		.uleb128 .LVU719
 18242 1ff2 00       		.uleb128 0
 18243              	.LLST152:
 18244 1ff3 2E000000 		.4byte	.LVL219
ARM GAS  /tmp/cchqCFfA.s 			page 324


 18245 1ff7 7B000000 		.4byte	.LVL231-1
 18246 1ffb 0100     		.2byte	0x1
 18247 1ffd 50       		.byte	0x50
 18248 1ffe 7B000000 		.4byte	.LVL231-1
 18249 2002 80000000 		.4byte	.LFE14
 18250 2006 0400     		.2byte	0x4
 18251 2008 F3       		.byte	0xf3
 18252 2009 01       		.uleb128 0x1
 18253 200a 50       		.byte	0x50
 18254 200b 9F       		.byte	0x9f
 18255 200c 00000000 		.4byte	0
 18256 2010 00000000 		.4byte	0
 18257              	.LVUS153:
 18258 2014 02       		.uleb128 .LVU686
 18259 2015 00       		.uleb128 .LVU719
 18260 2016 00       		.uleb128 .LVU719
 18261 2017 00       		.uleb128 0
 18262              	.LLST153:
 18263 2018 2E000000 		.4byte	.LVL219
 18264 201c 7B000000 		.4byte	.LVL231-1
 18265 2020 0100     		.2byte	0x1
 18266 2022 50       		.byte	0x50
 18267 2023 7B000000 		.4byte	.LVL231-1
 18268 2027 80000000 		.4byte	.LFE14
 18269 202b 0400     		.2byte	0x4
 18270 202d F3       		.byte	0xf3
 18271 202e 01       		.uleb128 0x1
 18272 202f 50       		.byte	0x50
 18273 2030 9F       		.byte	0x9f
 18274 2031 00000000 		.4byte	0
 18275 2035 00000000 		.4byte	0
 18276              	.LVUS154:
 18277 2039 02       		.uleb128 .LVU691
 18278 203a 00       		.uleb128 .LVU719
 18279 203b 00       		.uleb128 .LVU719
 18280 203c 00       		.uleb128 0
 18281              	.LLST154:
 18282 203d 36000000 		.4byte	.LVL220
 18283 2041 7B000000 		.4byte	.LVL231-1
 18284 2045 0100     		.2byte	0x1
 18285 2047 50       		.byte	0x50
 18286 2048 7B000000 		.4byte	.LVL231-1
 18287 204c 80000000 		.4byte	.LFE14
 18288 2050 0400     		.2byte	0x4
 18289 2052 F3       		.byte	0xf3
 18290 2053 01       		.uleb128 0x1
 18291 2054 50       		.byte	0x50
 18292 2055 9F       		.byte	0x9f
 18293 2056 00000000 		.4byte	0
 18294 205a 00000000 		.4byte	0
 18295              	.LVUS155:
 18296 205e 02       		.uleb128 .LVU691
 18297 205f 00       		.uleb128 .LVU719
 18298 2060 00       		.uleb128 .LVU719
 18299 2061 00       		.uleb128 0
 18300              	.LLST155:
 18301 2062 36000000 		.4byte	.LVL220
ARM GAS  /tmp/cchqCFfA.s 			page 325


 18302 2066 7B000000 		.4byte	.LVL231-1
 18303 206a 0100     		.2byte	0x1
 18304 206c 50       		.byte	0x50
 18305 206d 7B000000 		.4byte	.LVL231-1
 18306 2071 80000000 		.4byte	.LFE14
 18307 2075 0400     		.2byte	0x4
 18308 2077 F3       		.byte	0xf3
 18309 2078 01       		.uleb128 0x1
 18310 2079 50       		.byte	0x50
 18311 207a 9F       		.byte	0x9f
 18312 207b 00000000 		.4byte	0
 18313 207f 00000000 		.4byte	0
 18314              	.LVUS128:
 18315 2083 00       		.uleb128 0
 18316 2084 00       		.uleb128 .LVU665
 18317 2085 00       		.uleb128 .LVU665
 18318 2086 00       		.uleb128 0
 18319              	.LLST128:
 18320 2087 00000000 		.4byte	.LVL200
 18321 208b 7B000000 		.4byte	.LVL215-1
 18322 208f 0100     		.2byte	0x1
 18323 2091 50       		.byte	0x50
 18324 2092 7B000000 		.4byte	.LVL215-1
 18325 2096 80000000 		.4byte	.LFE13
 18326 209a 0400     		.2byte	0x4
 18327 209c F3       		.byte	0xf3
 18328 209d 01       		.uleb128 0x1
 18329 209e 50       		.byte	0x50
 18330 209f 9F       		.byte	0x9f
 18331 20a0 00000000 		.4byte	0
 18332 20a4 00000000 		.4byte	0
 18333              	.LVUS129:
 18334 20a8 00       		.uleb128 .LVU625
 18335 20a9 00       		.uleb128 .LVU645
 18336 20aa 00       		.uleb128 .LVU651
 18337 20ab 03       		.uleb128 .LVU656
 18338              	.LLST129:
 18339 20ac 26000000 		.4byte	.LVL202
 18340 20b0 44000000 		.4byte	.LVL207
 18341 20b4 0100     		.2byte	0x1
 18342 20b6 57       		.byte	0x57
 18343 20b7 5C000000 		.4byte	.LVL212
 18344 20bb 5E000000 		.4byte	.LVL213
 18345 20bf 0100     		.2byte	0x1
 18346 20c1 51       		.byte	0x51
 18347 20c2 00000000 		.4byte	0
 18348 20c6 00000000 		.4byte	0
 18349              	.LVUS130:
 18350 20ca 00       		.uleb128 .LVU630
 18351 20cb 00       		.uleb128 .LVU650
 18352 20cc 00       		.uleb128 .LVU653
 18353 20cd 00       		.uleb128 .LVU664
 18354              	.LLST130:
 18355 20ce 2E000000 		.4byte	.LVL203
 18356 20d2 58000000 		.4byte	.LVL211
 18357 20d6 0100     		.2byte	0x1
 18358 20d8 53       		.byte	0x53
ARM GAS  /tmp/cchqCFfA.s 			page 326


 18359 20d9 5E000000 		.4byte	.LVL213
 18360 20dd 6C000000 		.4byte	.LVL214
 18361 20e1 0100     		.2byte	0x1
 18362 20e3 53       		.byte	0x53
 18363 20e4 00000000 		.4byte	0
 18364 20e8 00000000 		.4byte	0
 18365              	.LVUS131:
 18366 20ec 00       		.uleb128 .LVU635
 18367 20ed 00       		.uleb128 .LVU646
 18368 20ee 00       		.uleb128 .LVU648
 18369 20ef 00       		.uleb128 .LVU649
 18370 20f0 00       		.uleb128 .LVU649
 18371 20f1 00       		.uleb128 .LVU650
 18372 20f2 00       		.uleb128 .LVU650
 18373 20f3 00       		.uleb128 .LVU653
 18374              	.LLST131:
 18375 20f4 36000000 		.4byte	.LVL204
 18376 20f8 46000000 		.4byte	.LVL208
 18377 20fc 0100     		.2byte	0x1
 18378 20fe 56       		.byte	0x56
 18379 20ff 4C000000 		.4byte	.LVL209
 18380 2103 56000000 		.4byte	.LVL210
 18381 2107 0100     		.2byte	0x1
 18382 2109 51       		.byte	0x51
 18383 210a 56000000 		.4byte	.LVL210
 18384 210e 58000000 		.4byte	.LVL211
 18385 2112 0600     		.2byte	0x6
 18386 2114 73       		.byte	0x73
 18387 2115 00       		.sleb128 0
 18388 2116 76       		.byte	0x76
 18389 2117 00       		.sleb128 0
 18390 2118 22       		.byte	0x22
 18391 2119 9F       		.byte	0x9f
 18392 211a 58000000 		.4byte	.LVL211
 18393 211e 5E000000 		.4byte	.LVL213
 18394 2122 0800     		.2byte	0x8
 18395 2124 73       		.byte	0x73
 18396 2125 00       		.sleb128 0
 18397 2126 76       		.byte	0x76
 18398 2127 00       		.sleb128 0
 18399 2128 22       		.byte	0x22
 18400 2129 31       		.byte	0x31
 18401 212a 1C       		.byte	0x1c
 18402 212b 9F       		.byte	0x9f
 18403 212c 00000000 		.4byte	0
 18404 2130 00000000 		.4byte	0
 18405              	.LVUS132:
 18406 2134 00       		.uleb128 .LVU640
 18407 2135 00       		.uleb128 .LVU644
 18408 2136 00       		.uleb128 .LVU644
 18409 2137 00       		.uleb128 .LVU646
 18410              	.LLST132:
 18411 2138 3C000000 		.4byte	.LVL205
 18412 213c 40000000 		.4byte	.LVL206
 18413 2140 0100     		.2byte	0x1
 18414 2142 55       		.byte	0x55
 18415 2143 40000000 		.4byte	.LVL206
ARM GAS  /tmp/cchqCFfA.s 			page 327


 18416 2147 46000000 		.4byte	.LVL208
 18417 214b 0700     		.2byte	0x7
 18418 214d 74       		.byte	0x74
 18419 214e 00       		.sleb128 0
 18420 214f 31       		.byte	0x31
 18421 2150 24       		.byte	0x24
 18422 2151 71       		.byte	0x71
 18423 2152 00       		.sleb128 0
 18424 2153 22       		.byte	0x22
 18425 2154 00000000 		.4byte	0
 18426 2158 00000000 		.4byte	0
 18427              	.LVUS133:
 18428 215c 02       		.uleb128 .LVU642
 18429 215d 00       		.uleb128 .LVU646
 18430              	.LLST133:
 18431 215e 3C000000 		.4byte	.LVL205
 18432 2162 46000000 		.4byte	.LVL208
 18433 2166 0200     		.2byte	0x2
 18434 2168 30       		.byte	0x30
 18435 2169 9F       		.byte	0x9f
 18436 216a 00000000 		.4byte	0
 18437 216e 00000000 		.4byte	0
 18438              	.LVUS134:
 18439 2172 02       		.uleb128 .LVU622
 18440 2173 00       		.uleb128 .LVU665
 18441 2174 00       		.uleb128 .LVU665
 18442 2175 00       		.uleb128 0
 18443              	.LLST134:
 18444 2176 16000000 		.4byte	.LVL201
 18445 217a 7B000000 		.4byte	.LVL215-1
 18446 217e 0100     		.2byte	0x1
 18447 2180 50       		.byte	0x50
 18448 2181 7B000000 		.4byte	.LVL215-1
 18449 2185 80000000 		.4byte	.LFE13
 18450 2189 0400     		.2byte	0x4
 18451 218b F3       		.byte	0xf3
 18452 218c 01       		.uleb128 0x1
 18453 218d 50       		.byte	0x50
 18454 218e 9F       		.byte	0x9f
 18455 218f 00000000 		.4byte	0
 18456 2193 00000000 		.4byte	0
 18457              	.LVUS135:
 18458 2197 02       		.uleb128 .LVU622
 18459 2198 00       		.uleb128 .LVU665
 18460 2199 00       		.uleb128 .LVU665
 18461 219a 00       		.uleb128 0
 18462              	.LLST135:
 18463 219b 16000000 		.4byte	.LVL201
 18464 219f 7B000000 		.4byte	.LVL215-1
 18465 21a3 0100     		.2byte	0x1
 18466 21a5 50       		.byte	0x50
 18467 21a6 7B000000 		.4byte	.LVL215-1
 18468 21aa 80000000 		.4byte	.LFE13
 18469 21ae 0400     		.2byte	0x4
 18470 21b0 F3       		.byte	0xf3
 18471 21b1 01       		.uleb128 0x1
 18472 21b2 50       		.byte	0x50
ARM GAS  /tmp/cchqCFfA.s 			page 328


 18473 21b3 9F       		.byte	0x9f
 18474 21b4 00000000 		.4byte	0
 18475 21b8 00000000 		.4byte	0
 18476              	.LVUS136:
 18477 21bc 02       		.uleb128 .LVU627
 18478 21bd 00       		.uleb128 .LVU665
 18479 21be 00       		.uleb128 .LVU665
 18480 21bf 00       		.uleb128 0
 18481              	.LLST136:
 18482 21c0 26000000 		.4byte	.LVL202
 18483 21c4 7B000000 		.4byte	.LVL215-1
 18484 21c8 0100     		.2byte	0x1
 18485 21ca 50       		.byte	0x50
 18486 21cb 7B000000 		.4byte	.LVL215-1
 18487 21cf 80000000 		.4byte	.LFE13
 18488 21d3 0400     		.2byte	0x4
 18489 21d5 F3       		.byte	0xf3
 18490 21d6 01       		.uleb128 0x1
 18491 21d7 50       		.byte	0x50
 18492 21d8 9F       		.byte	0x9f
 18493 21d9 00000000 		.4byte	0
 18494 21dd 00000000 		.4byte	0
 18495              	.LVUS137:
 18496 21e1 02       		.uleb128 .LVU627
 18497 21e2 00       		.uleb128 .LVU665
 18498 21e3 00       		.uleb128 .LVU665
 18499 21e4 00       		.uleb128 0
 18500              	.LLST137:
 18501 21e5 26000000 		.4byte	.LVL202
 18502 21e9 7B000000 		.4byte	.LVL215-1
 18503 21ed 0100     		.2byte	0x1
 18504 21ef 50       		.byte	0x50
 18505 21f0 7B000000 		.4byte	.LVL215-1
 18506 21f4 80000000 		.4byte	.LFE13
 18507 21f8 0400     		.2byte	0x4
 18508 21fa F3       		.byte	0xf3
 18509 21fb 01       		.uleb128 0x1
 18510 21fc 50       		.byte	0x50
 18511 21fd 9F       		.byte	0x9f
 18512 21fe 00000000 		.4byte	0
 18513 2202 00000000 		.4byte	0
 18514              	.LVUS138:
 18515 2206 02       		.uleb128 .LVU632
 18516 2207 00       		.uleb128 .LVU665
 18517 2208 00       		.uleb128 .LVU665
 18518 2209 00       		.uleb128 0
 18519              	.LLST138:
 18520 220a 2E000000 		.4byte	.LVL203
 18521 220e 7B000000 		.4byte	.LVL215-1
 18522 2212 0100     		.2byte	0x1
 18523 2214 50       		.byte	0x50
 18524 2215 7B000000 		.4byte	.LVL215-1
 18525 2219 80000000 		.4byte	.LFE13
 18526 221d 0400     		.2byte	0x4
 18527 221f F3       		.byte	0xf3
 18528 2220 01       		.uleb128 0x1
 18529 2221 50       		.byte	0x50
ARM GAS  /tmp/cchqCFfA.s 			page 329


 18530 2222 9F       		.byte	0x9f
 18531 2223 00000000 		.4byte	0
 18532 2227 00000000 		.4byte	0
 18533              	.LVUS139:
 18534 222b 02       		.uleb128 .LVU632
 18535 222c 00       		.uleb128 .LVU665
 18536 222d 00       		.uleb128 .LVU665
 18537 222e 00       		.uleb128 0
 18538              	.LLST139:
 18539 222f 2E000000 		.4byte	.LVL203
 18540 2233 7B000000 		.4byte	.LVL215-1
 18541 2237 0100     		.2byte	0x1
 18542 2239 50       		.byte	0x50
 18543 223a 7B000000 		.4byte	.LVL215-1
 18544 223e 80000000 		.4byte	.LFE13
 18545 2242 0400     		.2byte	0x4
 18546 2244 F3       		.byte	0xf3
 18547 2245 01       		.uleb128 0x1
 18548 2246 50       		.byte	0x50
 18549 2247 9F       		.byte	0x9f
 18550 2248 00000000 		.4byte	0
 18551 224c 00000000 		.4byte	0
 18552              	.LVUS140:
 18553 2250 02       		.uleb128 .LVU637
 18554 2251 00       		.uleb128 .LVU665
 18555 2252 00       		.uleb128 .LVU665
 18556 2253 00       		.uleb128 0
 18557              	.LLST140:
 18558 2254 36000000 		.4byte	.LVL204
 18559 2258 7B000000 		.4byte	.LVL215-1
 18560 225c 0100     		.2byte	0x1
 18561 225e 50       		.byte	0x50
 18562 225f 7B000000 		.4byte	.LVL215-1
 18563 2263 80000000 		.4byte	.LFE13
 18564 2267 0400     		.2byte	0x4
 18565 2269 F3       		.byte	0xf3
 18566 226a 01       		.uleb128 0x1
 18567 226b 50       		.byte	0x50
 18568 226c 9F       		.byte	0x9f
 18569 226d 00000000 		.4byte	0
 18570 2271 00000000 		.4byte	0
 18571              	.LVUS141:
 18572 2275 02       		.uleb128 .LVU637
 18573 2276 00       		.uleb128 .LVU665
 18574 2277 00       		.uleb128 .LVU665
 18575 2278 00       		.uleb128 0
 18576              	.LLST141:
 18577 2279 36000000 		.4byte	.LVL204
 18578 227d 7B000000 		.4byte	.LVL215-1
 18579 2281 0100     		.2byte	0x1
 18580 2283 50       		.byte	0x50
 18581 2284 7B000000 		.4byte	.LVL215-1
 18582 2288 80000000 		.4byte	.LFE13
 18583 228c 0400     		.2byte	0x4
 18584 228e F3       		.byte	0xf3
 18585 228f 01       		.uleb128 0x1
 18586 2290 50       		.byte	0x50
ARM GAS  /tmp/cchqCFfA.s 			page 330


 18587 2291 9F       		.byte	0x9f
 18588 2292 00000000 		.4byte	0
 18589 2296 00000000 		.4byte	0
 18590              	.LVUS112:
 18591 229a 00       		.uleb128 0
 18592 229b 00       		.uleb128 .LVU607
 18593 229c 00       		.uleb128 .LVU607
 18594 229d 00       		.uleb128 .LVU607
 18595 229e 00       		.uleb128 .LVU607
 18596 229f 00       		.uleb128 .LVU611
 18597 22a0 00       		.uleb128 .LVU611
 18598 22a1 00       		.uleb128 0
 18599              	.LLST112:
 18600 22a2 00000000 		.4byte	.LVL177
 18601 22a6 8F000000 		.4byte	.LVL197-1
 18602 22aa 0100     		.2byte	0x1
 18603 22ac 50       		.byte	0x50
 18604 22ad 8F000000 		.4byte	.LVL197-1
 18605 22b1 90000000 		.4byte	.LVL197
 18606 22b5 0400     		.2byte	0x4
 18607 22b7 F3       		.byte	0xf3
 18608 22b8 01       		.uleb128 0x1
 18609 22b9 50       		.byte	0x50
 18610 22ba 9F       		.byte	0x9f
 18611 22bb 90000000 		.4byte	.LVL197
 18612 22bf A1000000 		.4byte	.LVL199-1
 18613 22c3 0100     		.2byte	0x1
 18614 22c5 50       		.byte	0x50
 18615 22c6 A1000000 		.4byte	.LVL199-1
 18616 22ca A8000000 		.4byte	.LFE12
 18617 22ce 0400     		.2byte	0x4
 18618 22d0 F3       		.byte	0xf3
 18619 22d1 01       		.uleb128 0x1
 18620 22d2 50       		.byte	0x50
 18621 22d3 9F       		.byte	0x9f
 18622 22d4 00000000 		.4byte	0
 18623 22d8 00000000 		.4byte	0
 18624              	.LVUS113:
 18625 22dc 00       		.uleb128 .LVU558
 18626 22dd 00       		.uleb128 .LVU578
 18627 22de 00       		.uleb128 .LVU580
 18628 22df 01       		.uleb128 .LVU581
 18629 22e0 00       		.uleb128 .LVU595
 18630 22e1 00       		.uleb128 .LVU602
 18631              	.LLST113:
 18632 22e2 26000000 		.4byte	.LVL179
 18633 22e6 44000000 		.4byte	.LVL184
 18634 22ea 0100     		.2byte	0x1
 18635 22ec 57       		.byte	0x57
 18636 22ed 48000000 		.4byte	.LVL186
 18637 22f1 48000000 		.4byte	.LVL186
 18638 22f5 0100     		.2byte	0x1
 18639 22f7 52       		.byte	0x52
 18640 22f8 68000000 		.4byte	.LVL192
 18641 22fc 72000000 		.4byte	.LVL194
 18642 2300 0100     		.2byte	0x1
 18643 2302 52       		.byte	0x52
ARM GAS  /tmp/cchqCFfA.s 			page 331


 18644 2303 00000000 		.4byte	0
 18645 2307 00000000 		.4byte	0
 18646              	.LVUS114:
 18647 230b 00       		.uleb128 .LVU563
 18648 230c 00       		.uleb128 .LVU594
 18649 230d 00       		.uleb128 .LVU597
 18650 230e 00       		.uleb128 .LVU603
 18651 230f 00       		.uleb128 .LVU607
 18652 2310 00       		.uleb128 .LVU609
 18653              	.LLST114:
 18654 2311 2E000000 		.4byte	.LVL180
 18655 2315 66000000 		.4byte	.LVL191
 18656 2319 0100     		.2byte	0x1
 18657 231b 53       		.byte	0x53
 18658 231c 6A000000 		.4byte	.LVL193
 18659 2320 74000000 		.4byte	.LVL195
 18660 2324 0100     		.2byte	0x1
 18661 2326 53       		.byte	0x53
 18662 2327 90000000 		.4byte	.LVL197
 18663 232b 92000000 		.4byte	.LVL198
 18664 232f 0100     		.2byte	0x1
 18665 2331 53       		.byte	0x53
 18666 2332 00000000 		.4byte	0
 18667 2336 00000000 		.4byte	0
 18668              	.LVUS115:
 18669 233a 00       		.uleb128 .LVU568
 18670 233b 00       		.uleb128 .LVU579
 18671 233c 00       		.uleb128 .LVU591
 18672 233d 00       		.uleb128 .LVU593
 18673 233e 00       		.uleb128 .LVU593
 18674 233f 00       		.uleb128 .LVU594
 18675 2340 00       		.uleb128 .LVU594
 18676 2341 00       		.uleb128 .LVU597
 18677              	.LLST115:
 18678 2342 36000000 		.4byte	.LVL181
 18679 2346 46000000 		.4byte	.LVL185
 18680 234a 0100     		.2byte	0x1
 18681 234c 56       		.byte	0x56
 18682 234d 5A000000 		.4byte	.LVL189
 18683 2351 64000000 		.4byte	.LVL190
 18684 2355 0100     		.2byte	0x1
 18685 2357 52       		.byte	0x52
 18686 2358 64000000 		.4byte	.LVL190
 18687 235c 66000000 		.4byte	.LVL191
 18688 2360 0600     		.2byte	0x6
 18689 2362 73       		.byte	0x73
 18690 2363 00       		.sleb128 0
 18691 2364 76       		.byte	0x76
 18692 2365 00       		.sleb128 0
 18693 2366 22       		.byte	0x22
 18694 2367 9F       		.byte	0x9f
 18695 2368 66000000 		.4byte	.LVL191
 18696 236c 6A000000 		.4byte	.LVL193
 18697 2370 0800     		.2byte	0x8
 18698 2372 73       		.byte	0x73
 18699 2373 00       		.sleb128 0
 18700 2374 76       		.byte	0x76
ARM GAS  /tmp/cchqCFfA.s 			page 332


 18701 2375 00       		.sleb128 0
 18702 2376 22       		.byte	0x22
 18703 2377 31       		.byte	0x31
 18704 2378 1C       		.byte	0x1c
 18705 2379 9F       		.byte	0x9f
 18706 237a 00000000 		.4byte	0
 18707 237e 00000000 		.4byte	0
 18708              	.LVUS116:
 18709 2382 00       		.uleb128 .LVU573
 18710 2383 00       		.uleb128 .LVU577
 18711 2384 00       		.uleb128 .LVU577
 18712 2385 00       		.uleb128 .LVU580
 18713              	.LLST116:
 18714 2386 3C000000 		.4byte	.LVL182
 18715 238a 40000000 		.4byte	.LVL183
 18716 238e 0100     		.2byte	0x1
 18717 2390 55       		.byte	0x55
 18718 2391 40000000 		.4byte	.LVL183
 18719 2395 48000000 		.4byte	.LVL186
 18720 2399 0700     		.2byte	0x7
 18721 239b 74       		.byte	0x74
 18722 239c 00       		.sleb128 0
 18723 239d 31       		.byte	0x31
 18724 239e 24       		.byte	0x24
 18725 239f 71       		.byte	0x71
 18726 23a0 00       		.sleb128 0
 18727 23a1 22       		.byte	0x22
 18728 23a2 00000000 		.4byte	0
 18729 23a6 00000000 		.4byte	0
 18730              	.LVUS117:
 18731 23aa 02       		.uleb128 .LVU575
 18732 23ab 00       		.uleb128 .LVU580
 18733              	.LLST117:
 18734 23ac 3C000000 		.4byte	.LVL182
 18735 23b0 48000000 		.4byte	.LVL186
 18736 23b4 0200     		.2byte	0x2
 18737 23b6 30       		.byte	0x30
 18738 23b7 9F       		.byte	0x9f
 18739 23b8 00000000 		.4byte	0
 18740 23bc 00000000 		.4byte	0
 18741              	.LVUS126:
 18742 23c0 00       		.uleb128 .LVU580
 18743 23c1 00       		.uleb128 .LVU584
 18744 23c2 00       		.uleb128 .LVU597
 18745 23c3 00       		.uleb128 .LVU606
 18746              	.LLST126:
 18747 23c4 48000000 		.4byte	.LVL186
 18748 23c8 4E000000 		.4byte	.LVL187
 18749 23cc 0100     		.2byte	0x1
 18750 23ce 54       		.byte	0x54
 18751 23cf 6A000000 		.4byte	.LVL193
 18752 23d3 8C000000 		.4byte	.LVL196
 18753 23d7 0100     		.2byte	0x1
 18754 23d9 54       		.byte	0x54
 18755 23da 00000000 		.4byte	0
 18756 23de 00000000 		.4byte	0
 18757              	.LVUS127:
ARM GAS  /tmp/cchqCFfA.s 			page 333


 18758 23e2 00       		.uleb128 .LVU580
 18759 23e3 00       		.uleb128 .LVU589
 18760 23e4 01       		.uleb128 .LVU598
 18761 23e5 00       		.uleb128 .LVU607
 18762              	.LLST127:
 18763 23e6 48000000 		.4byte	.LVL186
 18764 23ea 54000000 		.4byte	.LVL188
 18765 23ee 0100     		.2byte	0x1
 18766 23f0 5C       		.byte	0x5c
 18767 23f1 6A000000 		.4byte	.LVL193
 18768 23f5 8F000000 		.4byte	.LVL197-1
 18769 23f9 0100     		.2byte	0x1
 18770 23fb 5C       		.byte	0x5c
 18771 23fc 00000000 		.4byte	0
 18772 2400 00000000 		.4byte	0
 18773              	.LVUS118:
 18774 2404 02       		.uleb128 .LVU555
 18775 2405 00       		.uleb128 .LVU607
 18776 2406 00       		.uleb128 .LVU607
 18777 2407 00       		.uleb128 .LVU607
 18778 2408 00       		.uleb128 .LVU607
 18779 2409 00       		.uleb128 .LVU611
 18780 240a 00       		.uleb128 .LVU611
 18781 240b 00       		.uleb128 0
 18782              	.LLST118:
 18783 240c 16000000 		.4byte	.LVL178
 18784 2410 8F000000 		.4byte	.LVL197-1
 18785 2414 0100     		.2byte	0x1
 18786 2416 50       		.byte	0x50
 18787 2417 8F000000 		.4byte	.LVL197-1
 18788 241b 90000000 		.4byte	.LVL197
 18789 241f 0400     		.2byte	0x4
 18790 2421 F3       		.byte	0xf3
 18791 2422 01       		.uleb128 0x1
 18792 2423 50       		.byte	0x50
 18793 2424 9F       		.byte	0x9f
 18794 2425 90000000 		.4byte	.LVL197
 18795 2429 A1000000 		.4byte	.LVL199-1
 18796 242d 0100     		.2byte	0x1
 18797 242f 50       		.byte	0x50
 18798 2430 A1000000 		.4byte	.LVL199-1
 18799 2434 A8000000 		.4byte	.LFE12
 18800 2438 0400     		.2byte	0x4
 18801 243a F3       		.byte	0xf3
 18802 243b 01       		.uleb128 0x1
 18803 243c 50       		.byte	0x50
 18804 243d 9F       		.byte	0x9f
 18805 243e 00000000 		.4byte	0
 18806 2442 00000000 		.4byte	0
 18807              	.LVUS119:
 18808 2446 02       		.uleb128 .LVU555
 18809 2447 00       		.uleb128 .LVU607
 18810 2448 00       		.uleb128 .LVU607
 18811 2449 00       		.uleb128 .LVU607
 18812 244a 00       		.uleb128 .LVU607
 18813 244b 00       		.uleb128 .LVU611
 18814 244c 00       		.uleb128 .LVU611
ARM GAS  /tmp/cchqCFfA.s 			page 334


 18815 244d 00       		.uleb128 0
 18816              	.LLST119:
 18817 244e 16000000 		.4byte	.LVL178
 18818 2452 8F000000 		.4byte	.LVL197-1
 18819 2456 0100     		.2byte	0x1
 18820 2458 50       		.byte	0x50
 18821 2459 8F000000 		.4byte	.LVL197-1
 18822 245d 90000000 		.4byte	.LVL197
 18823 2461 0400     		.2byte	0x4
 18824 2463 F3       		.byte	0xf3
 18825 2464 01       		.uleb128 0x1
 18826 2465 50       		.byte	0x50
 18827 2466 9F       		.byte	0x9f
 18828 2467 90000000 		.4byte	.LVL197
 18829 246b A1000000 		.4byte	.LVL199-1
 18830 246f 0100     		.2byte	0x1
 18831 2471 50       		.byte	0x50
 18832 2472 A1000000 		.4byte	.LVL199-1
 18833 2476 A8000000 		.4byte	.LFE12
 18834 247a 0400     		.2byte	0x4
 18835 247c F3       		.byte	0xf3
 18836 247d 01       		.uleb128 0x1
 18837 247e 50       		.byte	0x50
 18838 247f 9F       		.byte	0x9f
 18839 2480 00000000 		.4byte	0
 18840 2484 00000000 		.4byte	0
 18841              	.LVUS120:
 18842 2488 02       		.uleb128 .LVU560
 18843 2489 00       		.uleb128 .LVU607
 18844 248a 00       		.uleb128 .LVU607
 18845 248b 00       		.uleb128 .LVU607
 18846 248c 00       		.uleb128 .LVU607
 18847 248d 00       		.uleb128 .LVU611
 18848 248e 00       		.uleb128 .LVU611
 18849 248f 00       		.uleb128 0
 18850              	.LLST120:
 18851 2490 26000000 		.4byte	.LVL179
 18852 2494 8F000000 		.4byte	.LVL197-1
 18853 2498 0100     		.2byte	0x1
 18854 249a 50       		.byte	0x50
 18855 249b 8F000000 		.4byte	.LVL197-1
 18856 249f 90000000 		.4byte	.LVL197
 18857 24a3 0400     		.2byte	0x4
 18858 24a5 F3       		.byte	0xf3
 18859 24a6 01       		.uleb128 0x1
 18860 24a7 50       		.byte	0x50
 18861 24a8 9F       		.byte	0x9f
 18862 24a9 90000000 		.4byte	.LVL197
 18863 24ad A1000000 		.4byte	.LVL199-1
 18864 24b1 0100     		.2byte	0x1
 18865 24b3 50       		.byte	0x50
 18866 24b4 A1000000 		.4byte	.LVL199-1
 18867 24b8 A8000000 		.4byte	.LFE12
 18868 24bc 0400     		.2byte	0x4
 18869 24be F3       		.byte	0xf3
 18870 24bf 01       		.uleb128 0x1
 18871 24c0 50       		.byte	0x50
ARM GAS  /tmp/cchqCFfA.s 			page 335


 18872 24c1 9F       		.byte	0x9f
 18873 24c2 00000000 		.4byte	0
 18874 24c6 00000000 		.4byte	0
 18875              	.LVUS121:
 18876 24ca 02       		.uleb128 .LVU560
 18877 24cb 00       		.uleb128 .LVU607
 18878 24cc 00       		.uleb128 .LVU607
 18879 24cd 00       		.uleb128 .LVU607
 18880 24ce 00       		.uleb128 .LVU607
 18881 24cf 00       		.uleb128 .LVU611
 18882 24d0 00       		.uleb128 .LVU611
 18883 24d1 00       		.uleb128 0
 18884              	.LLST121:
 18885 24d2 26000000 		.4byte	.LVL179
 18886 24d6 8F000000 		.4byte	.LVL197-1
 18887 24da 0100     		.2byte	0x1
 18888 24dc 50       		.byte	0x50
 18889 24dd 8F000000 		.4byte	.LVL197-1
 18890 24e1 90000000 		.4byte	.LVL197
 18891 24e5 0400     		.2byte	0x4
 18892 24e7 F3       		.byte	0xf3
 18893 24e8 01       		.uleb128 0x1
 18894 24e9 50       		.byte	0x50
 18895 24ea 9F       		.byte	0x9f
 18896 24eb 90000000 		.4byte	.LVL197
 18897 24ef A1000000 		.4byte	.LVL199-1
 18898 24f3 0100     		.2byte	0x1
 18899 24f5 50       		.byte	0x50
 18900 24f6 A1000000 		.4byte	.LVL199-1
 18901 24fa A8000000 		.4byte	.LFE12
 18902 24fe 0400     		.2byte	0x4
 18903 2500 F3       		.byte	0xf3
 18904 2501 01       		.uleb128 0x1
 18905 2502 50       		.byte	0x50
 18906 2503 9F       		.byte	0x9f
 18907 2504 00000000 		.4byte	0
 18908 2508 00000000 		.4byte	0
 18909              	.LVUS122:
 18910 250c 02       		.uleb128 .LVU565
 18911 250d 00       		.uleb128 .LVU607
 18912 250e 00       		.uleb128 .LVU607
 18913 250f 00       		.uleb128 .LVU607
 18914 2510 00       		.uleb128 .LVU607
 18915 2511 00       		.uleb128 .LVU611
 18916 2512 00       		.uleb128 .LVU611
 18917 2513 00       		.uleb128 0
 18918              	.LLST122:
 18919 2514 2E000000 		.4byte	.LVL180
 18920 2518 8F000000 		.4byte	.LVL197-1
 18921 251c 0100     		.2byte	0x1
 18922 251e 50       		.byte	0x50
 18923 251f 8F000000 		.4byte	.LVL197-1
 18924 2523 90000000 		.4byte	.LVL197
 18925 2527 0400     		.2byte	0x4
 18926 2529 F3       		.byte	0xf3
 18927 252a 01       		.uleb128 0x1
 18928 252b 50       		.byte	0x50
ARM GAS  /tmp/cchqCFfA.s 			page 336


 18929 252c 9F       		.byte	0x9f
 18930 252d 90000000 		.4byte	.LVL197
 18931 2531 A1000000 		.4byte	.LVL199-1
 18932 2535 0100     		.2byte	0x1
 18933 2537 50       		.byte	0x50
 18934 2538 A1000000 		.4byte	.LVL199-1
 18935 253c A8000000 		.4byte	.LFE12
 18936 2540 0400     		.2byte	0x4
 18937 2542 F3       		.byte	0xf3
 18938 2543 01       		.uleb128 0x1
 18939 2544 50       		.byte	0x50
 18940 2545 9F       		.byte	0x9f
 18941 2546 00000000 		.4byte	0
 18942 254a 00000000 		.4byte	0
 18943              	.LVUS123:
 18944 254e 02       		.uleb128 .LVU565
 18945 254f 00       		.uleb128 .LVU607
 18946 2550 00       		.uleb128 .LVU607
 18947 2551 00       		.uleb128 .LVU607
 18948 2552 00       		.uleb128 .LVU607
 18949 2553 00       		.uleb128 .LVU611
 18950 2554 00       		.uleb128 .LVU611
 18951 2555 00       		.uleb128 0
 18952              	.LLST123:
 18953 2556 2E000000 		.4byte	.LVL180
 18954 255a 8F000000 		.4byte	.LVL197-1
 18955 255e 0100     		.2byte	0x1
 18956 2560 50       		.byte	0x50
 18957 2561 8F000000 		.4byte	.LVL197-1
 18958 2565 90000000 		.4byte	.LVL197
 18959 2569 0400     		.2byte	0x4
 18960 256b F3       		.byte	0xf3
 18961 256c 01       		.uleb128 0x1
 18962 256d 50       		.byte	0x50
 18963 256e 9F       		.byte	0x9f
 18964 256f 90000000 		.4byte	.LVL197
 18965 2573 A1000000 		.4byte	.LVL199-1
 18966 2577 0100     		.2byte	0x1
 18967 2579 50       		.byte	0x50
 18968 257a A1000000 		.4byte	.LVL199-1
 18969 257e A8000000 		.4byte	.LFE12
 18970 2582 0400     		.2byte	0x4
 18971 2584 F3       		.byte	0xf3
 18972 2585 01       		.uleb128 0x1
 18973 2586 50       		.byte	0x50
 18974 2587 9F       		.byte	0x9f
 18975 2588 00000000 		.4byte	0
 18976 258c 00000000 		.4byte	0
 18977              	.LVUS124:
 18978 2590 02       		.uleb128 .LVU570
 18979 2591 00       		.uleb128 .LVU607
 18980 2592 00       		.uleb128 .LVU607
 18981 2593 00       		.uleb128 .LVU607
 18982 2594 00       		.uleb128 .LVU607
 18983 2595 00       		.uleb128 .LVU611
 18984 2596 00       		.uleb128 .LVU611
 18985 2597 00       		.uleb128 0
ARM GAS  /tmp/cchqCFfA.s 			page 337


 18986              	.LLST124:
 18987 2598 36000000 		.4byte	.LVL181
 18988 259c 8F000000 		.4byte	.LVL197-1
 18989 25a0 0100     		.2byte	0x1
 18990 25a2 50       		.byte	0x50
 18991 25a3 8F000000 		.4byte	.LVL197-1
 18992 25a7 90000000 		.4byte	.LVL197
 18993 25ab 0400     		.2byte	0x4
 18994 25ad F3       		.byte	0xf3
 18995 25ae 01       		.uleb128 0x1
 18996 25af 50       		.byte	0x50
 18997 25b0 9F       		.byte	0x9f
 18998 25b1 90000000 		.4byte	.LVL197
 18999 25b5 A1000000 		.4byte	.LVL199-1
 19000 25b9 0100     		.2byte	0x1
 19001 25bb 50       		.byte	0x50
 19002 25bc A1000000 		.4byte	.LVL199-1
 19003 25c0 A8000000 		.4byte	.LFE12
 19004 25c4 0400     		.2byte	0x4
 19005 25c6 F3       		.byte	0xf3
 19006 25c7 01       		.uleb128 0x1
 19007 25c8 50       		.byte	0x50
 19008 25c9 9F       		.byte	0x9f
 19009 25ca 00000000 		.4byte	0
 19010 25ce 00000000 		.4byte	0
 19011              	.LVUS125:
 19012 25d2 02       		.uleb128 .LVU570
 19013 25d3 00       		.uleb128 .LVU607
 19014 25d4 00       		.uleb128 .LVU607
 19015 25d5 00       		.uleb128 .LVU607
 19016 25d6 00       		.uleb128 .LVU607
 19017 25d7 00       		.uleb128 .LVU611
 19018 25d8 00       		.uleb128 .LVU611
 19019 25d9 00       		.uleb128 0
 19020              	.LLST125:
 19021 25da 36000000 		.4byte	.LVL181
 19022 25de 8F000000 		.4byte	.LVL197-1
 19023 25e2 0100     		.2byte	0x1
 19024 25e4 50       		.byte	0x50
 19025 25e5 8F000000 		.4byte	.LVL197-1
 19026 25e9 90000000 		.4byte	.LVL197
 19027 25ed 0400     		.2byte	0x4
 19028 25ef F3       		.byte	0xf3
 19029 25f0 01       		.uleb128 0x1
 19030 25f1 50       		.byte	0x50
 19031 25f2 9F       		.byte	0x9f
 19032 25f3 90000000 		.4byte	.LVL197
 19033 25f7 A1000000 		.4byte	.LVL199-1
 19034 25fb 0100     		.2byte	0x1
 19035 25fd 50       		.byte	0x50
 19036 25fe A1000000 		.4byte	.LVL199-1
 19037 2602 A8000000 		.4byte	.LFE12
 19038 2606 0400     		.2byte	0x4
 19039 2608 F3       		.byte	0xf3
 19040 2609 01       		.uleb128 0x1
 19041 260a 50       		.byte	0x50
 19042 260b 9F       		.byte	0x9f
ARM GAS  /tmp/cchqCFfA.s 			page 338


 19043 260c 00000000 		.4byte	0
 19044 2610 00000000 		.4byte	0
 19045              	.LVUS98:
 19046 2614 00       		.uleb128 0
 19047 2615 00       		.uleb128 .LVU544
 19048 2616 00       		.uleb128 .LVU544
 19049 2617 00       		.uleb128 0
 19050              	.LLST98:
 19051 2618 00000000 		.4byte	.LVL161
 19052 261c 79000000 		.4byte	.LVL176-1
 19053 2620 0100     		.2byte	0x1
 19054 2622 50       		.byte	0x50
 19055 2623 79000000 		.4byte	.LVL176-1
 19056 2627 80000000 		.4byte	.LFE11
 19057 262b 0400     		.2byte	0x4
 19058 262d F3       		.byte	0xf3
 19059 262e 01       		.uleb128 0x1
 19060 262f 50       		.byte	0x50
 19061 2630 9F       		.byte	0x9f
 19062 2631 00000000 		.4byte	0
 19063 2635 00000000 		.4byte	0
 19064              	.LVUS99:
 19065 2639 00       		.uleb128 .LVU508
 19066 263a 00       		.uleb128 .LVU528
 19067 263b 00       		.uleb128 .LVU534
 19068 263c 00       		.uleb128 .LVU536
 19069              	.LLST99:
 19070 263d 26000000 		.4byte	.LVL163
 19071 2641 44000000 		.4byte	.LVL168
 19072 2645 0100     		.2byte	0x1
 19073 2647 57       		.byte	0x57
 19074 2648 5A000000 		.4byte	.LVL173
 19075 264c 5C000000 		.4byte	.LVL174
 19076 2650 0100     		.2byte	0x1
 19077 2652 51       		.byte	0x51
 19078 2653 00000000 		.4byte	0
 19079 2657 00000000 		.4byte	0
 19080              	.LVUS100:
 19081 265b 00       		.uleb128 .LVU513
 19082 265c 00       		.uleb128 .LVU533
 19083 265d 00       		.uleb128 .LVU536
 19084 265e 00       		.uleb128 .LVU543
 19085              	.LLST100:
 19086 265f 2E000000 		.4byte	.LVL164
 19087 2663 58000000 		.4byte	.LVL172
 19088 2667 0100     		.2byte	0x1
 19089 2669 53       		.byte	0x53
 19090 266a 5C000000 		.4byte	.LVL174
 19091 266e 6A000000 		.4byte	.LVL175
 19092 2672 0100     		.2byte	0x1
 19093 2674 53       		.byte	0x53
 19094 2675 00000000 		.4byte	0
 19095 2679 00000000 		.4byte	0
 19096              	.LVUS101:
 19097 267d 00       		.uleb128 .LVU518
 19098 267e 00       		.uleb128 .LVU529
 19099 267f 00       		.uleb128 .LVU531
ARM GAS  /tmp/cchqCFfA.s 			page 339


 19100 2680 00       		.uleb128 .LVU532
 19101 2681 00       		.uleb128 .LVU532
 19102 2682 00       		.uleb128 .LVU533
 19103 2683 00       		.uleb128 .LVU533
 19104 2684 00       		.uleb128 .LVU536
 19105              	.LLST101:
 19106 2685 36000000 		.4byte	.LVL165
 19107 2689 46000000 		.4byte	.LVL169
 19108 268d 0100     		.2byte	0x1
 19109 268f 56       		.byte	0x56
 19110 2690 4C000000 		.4byte	.LVL170
 19111 2694 56000000 		.4byte	.LVL171
 19112 2698 0100     		.2byte	0x1
 19113 269a 51       		.byte	0x51
 19114 269b 56000000 		.4byte	.LVL171
 19115 269f 58000000 		.4byte	.LVL172
 19116 26a3 0600     		.2byte	0x6
 19117 26a5 73       		.byte	0x73
 19118 26a6 00       		.sleb128 0
 19119 26a7 76       		.byte	0x76
 19120 26a8 00       		.sleb128 0
 19121 26a9 22       		.byte	0x22
 19122 26aa 9F       		.byte	0x9f
 19123 26ab 58000000 		.4byte	.LVL172
 19124 26af 5C000000 		.4byte	.LVL174
 19125 26b3 0800     		.2byte	0x8
 19126 26b5 73       		.byte	0x73
 19127 26b6 00       		.sleb128 0
 19128 26b7 76       		.byte	0x76
 19129 26b8 00       		.sleb128 0
 19130 26b9 22       		.byte	0x22
 19131 26ba 31       		.byte	0x31
 19132 26bb 1C       		.byte	0x1c
 19133 26bc 9F       		.byte	0x9f
 19134 26bd 00000000 		.4byte	0
 19135 26c1 00000000 		.4byte	0
 19136              	.LVUS102:
 19137 26c5 00       		.uleb128 .LVU523
 19138 26c6 00       		.uleb128 .LVU527
 19139 26c7 00       		.uleb128 .LVU527
 19140 26c8 00       		.uleb128 .LVU529
 19141              	.LLST102:
 19142 26c9 3C000000 		.4byte	.LVL166
 19143 26cd 40000000 		.4byte	.LVL167
 19144 26d1 0100     		.2byte	0x1
 19145 26d3 55       		.byte	0x55
 19146 26d4 40000000 		.4byte	.LVL167
 19147 26d8 46000000 		.4byte	.LVL169
 19148 26dc 0700     		.2byte	0x7
 19149 26de 74       		.byte	0x74
 19150 26df 00       		.sleb128 0
 19151 26e0 31       		.byte	0x31
 19152 26e1 24       		.byte	0x24
 19153 26e2 71       		.byte	0x71
 19154 26e3 00       		.sleb128 0
 19155 26e4 22       		.byte	0x22
 19156 26e5 00000000 		.4byte	0
ARM GAS  /tmp/cchqCFfA.s 			page 340


 19157 26e9 00000000 		.4byte	0
 19158              	.LVUS103:
 19159 26ed 02       		.uleb128 .LVU525
 19160 26ee 00       		.uleb128 .LVU529
 19161              	.LLST103:
 19162 26ef 3C000000 		.4byte	.LVL166
 19163 26f3 46000000 		.4byte	.LVL169
 19164 26f7 0200     		.2byte	0x2
 19165 26f9 30       		.byte	0x30
 19166 26fa 9F       		.byte	0x9f
 19167 26fb 00000000 		.4byte	0
 19168 26ff 00000000 		.4byte	0
 19169              	.LVUS104:
 19170 2703 02       		.uleb128 .LVU505
 19171 2704 00       		.uleb128 .LVU544
 19172 2705 00       		.uleb128 .LVU544
 19173 2706 00       		.uleb128 0
 19174              	.LLST104:
 19175 2707 16000000 		.4byte	.LVL162
 19176 270b 79000000 		.4byte	.LVL176-1
 19177 270f 0100     		.2byte	0x1
 19178 2711 50       		.byte	0x50
 19179 2712 79000000 		.4byte	.LVL176-1
 19180 2716 80000000 		.4byte	.LFE11
 19181 271a 0400     		.2byte	0x4
 19182 271c F3       		.byte	0xf3
 19183 271d 01       		.uleb128 0x1
 19184 271e 50       		.byte	0x50
 19185 271f 9F       		.byte	0x9f
 19186 2720 00000000 		.4byte	0
 19187 2724 00000000 		.4byte	0
 19188              	.LVUS105:
 19189 2728 02       		.uleb128 .LVU505
 19190 2729 00       		.uleb128 .LVU544
 19191 272a 00       		.uleb128 .LVU544
 19192 272b 00       		.uleb128 0
 19193              	.LLST105:
 19194 272c 16000000 		.4byte	.LVL162
 19195 2730 79000000 		.4byte	.LVL176-1
 19196 2734 0100     		.2byte	0x1
 19197 2736 50       		.byte	0x50
 19198 2737 79000000 		.4byte	.LVL176-1
 19199 273b 80000000 		.4byte	.LFE11
 19200 273f 0400     		.2byte	0x4
 19201 2741 F3       		.byte	0xf3
 19202 2742 01       		.uleb128 0x1
 19203 2743 50       		.byte	0x50
 19204 2744 9F       		.byte	0x9f
 19205 2745 00000000 		.4byte	0
 19206 2749 00000000 		.4byte	0
 19207              	.LVUS106:
 19208 274d 02       		.uleb128 .LVU510
 19209 274e 00       		.uleb128 .LVU544
 19210 274f 00       		.uleb128 .LVU544
 19211 2750 00       		.uleb128 0
 19212              	.LLST106:
 19213 2751 26000000 		.4byte	.LVL163
ARM GAS  /tmp/cchqCFfA.s 			page 341


 19214 2755 79000000 		.4byte	.LVL176-1
 19215 2759 0100     		.2byte	0x1
 19216 275b 50       		.byte	0x50
 19217 275c 79000000 		.4byte	.LVL176-1
 19218 2760 80000000 		.4byte	.LFE11
 19219 2764 0400     		.2byte	0x4
 19220 2766 F3       		.byte	0xf3
 19221 2767 01       		.uleb128 0x1
 19222 2768 50       		.byte	0x50
 19223 2769 9F       		.byte	0x9f
 19224 276a 00000000 		.4byte	0
 19225 276e 00000000 		.4byte	0
 19226              	.LVUS107:
 19227 2772 02       		.uleb128 .LVU510
 19228 2773 00       		.uleb128 .LVU544
 19229 2774 00       		.uleb128 .LVU544
 19230 2775 00       		.uleb128 0
 19231              	.LLST107:
 19232 2776 26000000 		.4byte	.LVL163
 19233 277a 79000000 		.4byte	.LVL176-1
 19234 277e 0100     		.2byte	0x1
 19235 2780 50       		.byte	0x50
 19236 2781 79000000 		.4byte	.LVL176-1
 19237 2785 80000000 		.4byte	.LFE11
 19238 2789 0400     		.2byte	0x4
 19239 278b F3       		.byte	0xf3
 19240 278c 01       		.uleb128 0x1
 19241 278d 50       		.byte	0x50
 19242 278e 9F       		.byte	0x9f
 19243 278f 00000000 		.4byte	0
 19244 2793 00000000 		.4byte	0
 19245              	.LVUS108:
 19246 2797 02       		.uleb128 .LVU515
 19247 2798 00       		.uleb128 .LVU544
 19248 2799 00       		.uleb128 .LVU544
 19249 279a 00       		.uleb128 0
 19250              	.LLST108:
 19251 279b 2E000000 		.4byte	.LVL164
 19252 279f 79000000 		.4byte	.LVL176-1
 19253 27a3 0100     		.2byte	0x1
 19254 27a5 50       		.byte	0x50
 19255 27a6 79000000 		.4byte	.LVL176-1
 19256 27aa 80000000 		.4byte	.LFE11
 19257 27ae 0400     		.2byte	0x4
 19258 27b0 F3       		.byte	0xf3
 19259 27b1 01       		.uleb128 0x1
 19260 27b2 50       		.byte	0x50
 19261 27b3 9F       		.byte	0x9f
 19262 27b4 00000000 		.4byte	0
 19263 27b8 00000000 		.4byte	0
 19264              	.LVUS109:
 19265 27bc 02       		.uleb128 .LVU515
 19266 27bd 00       		.uleb128 .LVU544
 19267 27be 00       		.uleb128 .LVU544
 19268 27bf 00       		.uleb128 0
 19269              	.LLST109:
 19270 27c0 2E000000 		.4byte	.LVL164
ARM GAS  /tmp/cchqCFfA.s 			page 342


 19271 27c4 79000000 		.4byte	.LVL176-1
 19272 27c8 0100     		.2byte	0x1
 19273 27ca 50       		.byte	0x50
 19274 27cb 79000000 		.4byte	.LVL176-1
 19275 27cf 80000000 		.4byte	.LFE11
 19276 27d3 0400     		.2byte	0x4
 19277 27d5 F3       		.byte	0xf3
 19278 27d6 01       		.uleb128 0x1
 19279 27d7 50       		.byte	0x50
 19280 27d8 9F       		.byte	0x9f
 19281 27d9 00000000 		.4byte	0
 19282 27dd 00000000 		.4byte	0
 19283              	.LVUS110:
 19284 27e1 02       		.uleb128 .LVU520
 19285 27e2 00       		.uleb128 .LVU544
 19286 27e3 00       		.uleb128 .LVU544
 19287 27e4 00       		.uleb128 0
 19288              	.LLST110:
 19289 27e5 36000000 		.4byte	.LVL165
 19290 27e9 79000000 		.4byte	.LVL176-1
 19291 27ed 0100     		.2byte	0x1
 19292 27ef 50       		.byte	0x50
 19293 27f0 79000000 		.4byte	.LVL176-1
 19294 27f4 80000000 		.4byte	.LFE11
 19295 27f8 0400     		.2byte	0x4
 19296 27fa F3       		.byte	0xf3
 19297 27fb 01       		.uleb128 0x1
 19298 27fc 50       		.byte	0x50
 19299 27fd 9F       		.byte	0x9f
 19300 27fe 00000000 		.4byte	0
 19301 2802 00000000 		.4byte	0
 19302              	.LVUS111:
 19303 2806 02       		.uleb128 .LVU520
 19304 2807 00       		.uleb128 .LVU544
 19305 2808 00       		.uleb128 .LVU544
 19306 2809 00       		.uleb128 0
 19307              	.LLST111:
 19308 280a 36000000 		.4byte	.LVL165
 19309 280e 79000000 		.4byte	.LVL176-1
 19310 2812 0100     		.2byte	0x1
 19311 2814 50       		.byte	0x50
 19312 2815 79000000 		.4byte	.LVL176-1
 19313 2819 80000000 		.4byte	.LFE11
 19314 281d 0400     		.2byte	0x4
 19315 281f F3       		.byte	0xf3
 19316 2820 01       		.uleb128 0x1
 19317 2821 50       		.byte	0x50
 19318 2822 9F       		.byte	0x9f
 19319 2823 00000000 		.4byte	0
 19320 2827 00000000 		.4byte	0
 19321              	.LVUS84:
 19322 282b 00       		.uleb128 0
 19323 282c 00       		.uleb128 .LVU494
 19324 282d 00       		.uleb128 .LVU494
 19325 282e 00       		.uleb128 0
 19326              	.LLST84:
 19327 282f 00000000 		.4byte	.LVL145
ARM GAS  /tmp/cchqCFfA.s 			page 343


 19328 2833 79000000 		.4byte	.LVL160-1
 19329 2837 0100     		.2byte	0x1
 19330 2839 50       		.byte	0x50
 19331 283a 79000000 		.4byte	.LVL160-1
 19332 283e 80000000 		.4byte	.LFE10
 19333 2842 0400     		.2byte	0x4
 19334 2844 F3       		.byte	0xf3
 19335 2845 01       		.uleb128 0x1
 19336 2846 50       		.byte	0x50
 19337 2847 9F       		.byte	0x9f
 19338 2848 00000000 		.4byte	0
 19339 284c 00000000 		.4byte	0
 19340              	.LVUS85:
 19341 2850 00       		.uleb128 .LVU458
 19342 2851 00       		.uleb128 .LVU478
 19343 2852 00       		.uleb128 .LVU484
 19344 2853 00       		.uleb128 .LVU486
 19345              	.LLST85:
 19346 2854 26000000 		.4byte	.LVL147
 19347 2858 44000000 		.4byte	.LVL152
 19348 285c 0100     		.2byte	0x1
 19349 285e 57       		.byte	0x57
 19350 285f 5A000000 		.4byte	.LVL157
 19351 2863 5C000000 		.4byte	.LVL158
 19352 2867 0100     		.2byte	0x1
 19353 2869 51       		.byte	0x51
 19354 286a 00000000 		.4byte	0
 19355 286e 00000000 		.4byte	0
 19356              	.LVUS86:
 19357 2872 00       		.uleb128 .LVU463
 19358 2873 00       		.uleb128 .LVU483
 19359 2874 00       		.uleb128 .LVU486
 19360 2875 00       		.uleb128 .LVU493
 19361              	.LLST86:
 19362 2876 2E000000 		.4byte	.LVL148
 19363 287a 58000000 		.4byte	.LVL156
 19364 287e 0100     		.2byte	0x1
 19365 2880 53       		.byte	0x53
 19366 2881 5C000000 		.4byte	.LVL158
 19367 2885 6A000000 		.4byte	.LVL159
 19368 2889 0100     		.2byte	0x1
 19369 288b 53       		.byte	0x53
 19370 288c 00000000 		.4byte	0
 19371 2890 00000000 		.4byte	0
 19372              	.LVUS87:
 19373 2894 00       		.uleb128 .LVU468
 19374 2895 00       		.uleb128 .LVU479
 19375 2896 00       		.uleb128 .LVU481
 19376 2897 00       		.uleb128 .LVU482
 19377 2898 00       		.uleb128 .LVU482
 19378 2899 00       		.uleb128 .LVU483
 19379 289a 00       		.uleb128 .LVU483
 19380 289b 00       		.uleb128 .LVU486
 19381              	.LLST87:
 19382 289c 36000000 		.4byte	.LVL149
 19383 28a0 46000000 		.4byte	.LVL153
 19384 28a4 0100     		.2byte	0x1
ARM GAS  /tmp/cchqCFfA.s 			page 344


 19385 28a6 56       		.byte	0x56
 19386 28a7 4C000000 		.4byte	.LVL154
 19387 28ab 56000000 		.4byte	.LVL155
 19388 28af 0100     		.2byte	0x1
 19389 28b1 51       		.byte	0x51
 19390 28b2 56000000 		.4byte	.LVL155
 19391 28b6 58000000 		.4byte	.LVL156
 19392 28ba 0600     		.2byte	0x6
 19393 28bc 73       		.byte	0x73
 19394 28bd 00       		.sleb128 0
 19395 28be 76       		.byte	0x76
 19396 28bf 00       		.sleb128 0
 19397 28c0 22       		.byte	0x22
 19398 28c1 9F       		.byte	0x9f
 19399 28c2 58000000 		.4byte	.LVL156
 19400 28c6 5C000000 		.4byte	.LVL158
 19401 28ca 0800     		.2byte	0x8
 19402 28cc 73       		.byte	0x73
 19403 28cd 00       		.sleb128 0
 19404 28ce 76       		.byte	0x76
 19405 28cf 00       		.sleb128 0
 19406 28d0 22       		.byte	0x22
 19407 28d1 31       		.byte	0x31
 19408 28d2 1C       		.byte	0x1c
 19409 28d3 9F       		.byte	0x9f
 19410 28d4 00000000 		.4byte	0
 19411 28d8 00000000 		.4byte	0
 19412              	.LVUS88:
 19413 28dc 00       		.uleb128 .LVU473
 19414 28dd 00       		.uleb128 .LVU477
 19415 28de 00       		.uleb128 .LVU477
 19416 28df 00       		.uleb128 .LVU479
 19417              	.LLST88:
 19418 28e0 3C000000 		.4byte	.LVL150
 19419 28e4 40000000 		.4byte	.LVL151
 19420 28e8 0100     		.2byte	0x1
 19421 28ea 55       		.byte	0x55
 19422 28eb 40000000 		.4byte	.LVL151
 19423 28ef 46000000 		.4byte	.LVL153
 19424 28f3 0700     		.2byte	0x7
 19425 28f5 74       		.byte	0x74
 19426 28f6 00       		.sleb128 0
 19427 28f7 31       		.byte	0x31
 19428 28f8 24       		.byte	0x24
 19429 28f9 71       		.byte	0x71
 19430 28fa 00       		.sleb128 0
 19431 28fb 22       		.byte	0x22
 19432 28fc 00000000 		.4byte	0
 19433 2900 00000000 		.4byte	0
 19434              	.LVUS89:
 19435 2904 02       		.uleb128 .LVU475
 19436 2905 00       		.uleb128 .LVU479
 19437              	.LLST89:
 19438 2906 3C000000 		.4byte	.LVL150
 19439 290a 46000000 		.4byte	.LVL153
 19440 290e 0200     		.2byte	0x2
 19441 2910 30       		.byte	0x30
ARM GAS  /tmp/cchqCFfA.s 			page 345


 19442 2911 9F       		.byte	0x9f
 19443 2912 00000000 		.4byte	0
 19444 2916 00000000 		.4byte	0
 19445              	.LVUS90:
 19446 291a 02       		.uleb128 .LVU455
 19447 291b 00       		.uleb128 .LVU494
 19448 291c 00       		.uleb128 .LVU494
 19449 291d 00       		.uleb128 0
 19450              	.LLST90:
 19451 291e 16000000 		.4byte	.LVL146
 19452 2922 79000000 		.4byte	.LVL160-1
 19453 2926 0100     		.2byte	0x1
 19454 2928 50       		.byte	0x50
 19455 2929 79000000 		.4byte	.LVL160-1
 19456 292d 80000000 		.4byte	.LFE10
 19457 2931 0400     		.2byte	0x4
 19458 2933 F3       		.byte	0xf3
 19459 2934 01       		.uleb128 0x1
 19460 2935 50       		.byte	0x50
 19461 2936 9F       		.byte	0x9f
 19462 2937 00000000 		.4byte	0
 19463 293b 00000000 		.4byte	0
 19464              	.LVUS91:
 19465 293f 02       		.uleb128 .LVU455
 19466 2940 00       		.uleb128 .LVU494
 19467 2941 00       		.uleb128 .LVU494
 19468 2942 00       		.uleb128 0
 19469              	.LLST91:
 19470 2943 16000000 		.4byte	.LVL146
 19471 2947 79000000 		.4byte	.LVL160-1
 19472 294b 0100     		.2byte	0x1
 19473 294d 50       		.byte	0x50
 19474 294e 79000000 		.4byte	.LVL160-1
 19475 2952 80000000 		.4byte	.LFE10
 19476 2956 0400     		.2byte	0x4
 19477 2958 F3       		.byte	0xf3
 19478 2959 01       		.uleb128 0x1
 19479 295a 50       		.byte	0x50
 19480 295b 9F       		.byte	0x9f
 19481 295c 00000000 		.4byte	0
 19482 2960 00000000 		.4byte	0
 19483              	.LVUS92:
 19484 2964 02       		.uleb128 .LVU460
 19485 2965 00       		.uleb128 .LVU494
 19486 2966 00       		.uleb128 .LVU494
 19487 2967 00       		.uleb128 0
 19488              	.LLST92:
 19489 2968 26000000 		.4byte	.LVL147
 19490 296c 79000000 		.4byte	.LVL160-1
 19491 2970 0100     		.2byte	0x1
 19492 2972 50       		.byte	0x50
 19493 2973 79000000 		.4byte	.LVL160-1
 19494 2977 80000000 		.4byte	.LFE10
 19495 297b 0400     		.2byte	0x4
 19496 297d F3       		.byte	0xf3
 19497 297e 01       		.uleb128 0x1
 19498 297f 50       		.byte	0x50
ARM GAS  /tmp/cchqCFfA.s 			page 346


 19499 2980 9F       		.byte	0x9f
 19500 2981 00000000 		.4byte	0
 19501 2985 00000000 		.4byte	0
 19502              	.LVUS93:
 19503 2989 02       		.uleb128 .LVU460
 19504 298a 00       		.uleb128 .LVU494
 19505 298b 00       		.uleb128 .LVU494
 19506 298c 00       		.uleb128 0
 19507              	.LLST93:
 19508 298d 26000000 		.4byte	.LVL147
 19509 2991 79000000 		.4byte	.LVL160-1
 19510 2995 0100     		.2byte	0x1
 19511 2997 50       		.byte	0x50
 19512 2998 79000000 		.4byte	.LVL160-1
 19513 299c 80000000 		.4byte	.LFE10
 19514 29a0 0400     		.2byte	0x4
 19515 29a2 F3       		.byte	0xf3
 19516 29a3 01       		.uleb128 0x1
 19517 29a4 50       		.byte	0x50
 19518 29a5 9F       		.byte	0x9f
 19519 29a6 00000000 		.4byte	0
 19520 29aa 00000000 		.4byte	0
 19521              	.LVUS94:
 19522 29ae 02       		.uleb128 .LVU465
 19523 29af 00       		.uleb128 .LVU494
 19524 29b0 00       		.uleb128 .LVU494
 19525 29b1 00       		.uleb128 0
 19526              	.LLST94:
 19527 29b2 2E000000 		.4byte	.LVL148
 19528 29b6 79000000 		.4byte	.LVL160-1
 19529 29ba 0100     		.2byte	0x1
 19530 29bc 50       		.byte	0x50
 19531 29bd 79000000 		.4byte	.LVL160-1
 19532 29c1 80000000 		.4byte	.LFE10
 19533 29c5 0400     		.2byte	0x4
 19534 29c7 F3       		.byte	0xf3
 19535 29c8 01       		.uleb128 0x1
 19536 29c9 50       		.byte	0x50
 19537 29ca 9F       		.byte	0x9f
 19538 29cb 00000000 		.4byte	0
 19539 29cf 00000000 		.4byte	0
 19540              	.LVUS95:
 19541 29d3 02       		.uleb128 .LVU465
 19542 29d4 00       		.uleb128 .LVU494
 19543 29d5 00       		.uleb128 .LVU494
 19544 29d6 00       		.uleb128 0
 19545              	.LLST95:
 19546 29d7 2E000000 		.4byte	.LVL148
 19547 29db 79000000 		.4byte	.LVL160-1
 19548 29df 0100     		.2byte	0x1
 19549 29e1 50       		.byte	0x50
 19550 29e2 79000000 		.4byte	.LVL160-1
 19551 29e6 80000000 		.4byte	.LFE10
 19552 29ea 0400     		.2byte	0x4
 19553 29ec F3       		.byte	0xf3
 19554 29ed 01       		.uleb128 0x1
 19555 29ee 50       		.byte	0x50
ARM GAS  /tmp/cchqCFfA.s 			page 347


 19556 29ef 9F       		.byte	0x9f
 19557 29f0 00000000 		.4byte	0
 19558 29f4 00000000 		.4byte	0
 19559              	.LVUS96:
 19560 29f8 02       		.uleb128 .LVU470
 19561 29f9 00       		.uleb128 .LVU494
 19562 29fa 00       		.uleb128 .LVU494
 19563 29fb 00       		.uleb128 0
 19564              	.LLST96:
 19565 29fc 36000000 		.4byte	.LVL149
 19566 2a00 79000000 		.4byte	.LVL160-1
 19567 2a04 0100     		.2byte	0x1
 19568 2a06 50       		.byte	0x50
 19569 2a07 79000000 		.4byte	.LVL160-1
 19570 2a0b 80000000 		.4byte	.LFE10
 19571 2a0f 0400     		.2byte	0x4
 19572 2a11 F3       		.byte	0xf3
 19573 2a12 01       		.uleb128 0x1
 19574 2a13 50       		.byte	0x50
 19575 2a14 9F       		.byte	0x9f
 19576 2a15 00000000 		.4byte	0
 19577 2a19 00000000 		.4byte	0
 19578              	.LVUS97:
 19579 2a1d 02       		.uleb128 .LVU470
 19580 2a1e 00       		.uleb128 .LVU494
 19581 2a1f 00       		.uleb128 .LVU494
 19582 2a20 00       		.uleb128 0
 19583              	.LLST97:
 19584 2a21 36000000 		.4byte	.LVL149
 19585 2a25 79000000 		.4byte	.LVL160-1
 19586 2a29 0100     		.2byte	0x1
 19587 2a2b 50       		.byte	0x50
 19588 2a2c 79000000 		.4byte	.LVL160-1
 19589 2a30 80000000 		.4byte	.LFE10
 19590 2a34 0400     		.2byte	0x4
 19591 2a36 F3       		.byte	0xf3
 19592 2a37 01       		.uleb128 0x1
 19593 2a38 50       		.byte	0x50
 19594 2a39 9F       		.byte	0x9f
 19595 2a3a 00000000 		.4byte	0
 19596 2a3e 00000000 		.4byte	0
 19597              	.LVUS70:
 19598 2a42 00       		.uleb128 0
 19599 2a43 00       		.uleb128 .LVU444
 19600 2a44 00       		.uleb128 .LVU444
 19601 2a45 00       		.uleb128 0
 19602              	.LLST70:
 19603 2a46 00000000 		.4byte	.LVL129
 19604 2a4a 77000000 		.4byte	.LVL144-1
 19605 2a4e 0100     		.2byte	0x1
 19606 2a50 50       		.byte	0x50
 19607 2a51 77000000 		.4byte	.LVL144-1
 19608 2a55 7C000000 		.4byte	.LFE9
 19609 2a59 0400     		.2byte	0x4
 19610 2a5b F3       		.byte	0xf3
 19611 2a5c 01       		.uleb128 0x1
 19612 2a5d 50       		.byte	0x50
ARM GAS  /tmp/cchqCFfA.s 			page 348


 19613 2a5e 9F       		.byte	0x9f
 19614 2a5f 00000000 		.4byte	0
 19615 2a63 00000000 		.4byte	0
 19616              	.LVUS71:
 19617 2a67 00       		.uleb128 .LVU408
 19618 2a68 00       		.uleb128 .LVU428
 19619 2a69 00       		.uleb128 .LVU434
 19620 2a6a 00       		.uleb128 .LVU436
 19621              	.LLST71:
 19622 2a6b 26000000 		.4byte	.LVL131
 19623 2a6f 44000000 		.4byte	.LVL136
 19624 2a73 0100     		.2byte	0x1
 19625 2a75 57       		.byte	0x57
 19626 2a76 5A000000 		.4byte	.LVL141
 19627 2a7a 5C000000 		.4byte	.LVL142
 19628 2a7e 0100     		.2byte	0x1
 19629 2a80 51       		.byte	0x51
 19630 2a81 00000000 		.4byte	0
 19631 2a85 00000000 		.4byte	0
 19632              	.LVUS72:
 19633 2a89 00       		.uleb128 .LVU413
 19634 2a8a 00       		.uleb128 .LVU433
 19635 2a8b 00       		.uleb128 .LVU436
 19636 2a8c 00       		.uleb128 .LVU443
 19637              	.LLST72:
 19638 2a8d 2E000000 		.4byte	.LVL132
 19639 2a91 58000000 		.4byte	.LVL140
 19640 2a95 0100     		.2byte	0x1
 19641 2a97 53       		.byte	0x53
 19642 2a98 5C000000 		.4byte	.LVL142
 19643 2a9c 68000000 		.4byte	.LVL143
 19644 2aa0 0100     		.2byte	0x1
 19645 2aa2 53       		.byte	0x53
 19646 2aa3 00000000 		.4byte	0
 19647 2aa7 00000000 		.4byte	0
 19648              	.LVUS73:
 19649 2aab 00       		.uleb128 .LVU418
 19650 2aac 00       		.uleb128 .LVU429
 19651 2aad 00       		.uleb128 .LVU431
 19652 2aae 00       		.uleb128 .LVU432
 19653 2aaf 00       		.uleb128 .LVU432
 19654 2ab0 00       		.uleb128 .LVU433
 19655 2ab1 00       		.uleb128 .LVU433
 19656 2ab2 00       		.uleb128 .LVU436
 19657              	.LLST73:
 19658 2ab3 36000000 		.4byte	.LVL133
 19659 2ab7 46000000 		.4byte	.LVL137
 19660 2abb 0100     		.2byte	0x1
 19661 2abd 56       		.byte	0x56
 19662 2abe 4C000000 		.4byte	.LVL138
 19663 2ac2 56000000 		.4byte	.LVL139
 19664 2ac6 0100     		.2byte	0x1
 19665 2ac8 51       		.byte	0x51
 19666 2ac9 56000000 		.4byte	.LVL139
 19667 2acd 58000000 		.4byte	.LVL140
 19668 2ad1 0600     		.2byte	0x6
 19669 2ad3 73       		.byte	0x73
ARM GAS  /tmp/cchqCFfA.s 			page 349


 19670 2ad4 00       		.sleb128 0
 19671 2ad5 76       		.byte	0x76
 19672 2ad6 00       		.sleb128 0
 19673 2ad7 22       		.byte	0x22
 19674 2ad8 9F       		.byte	0x9f
 19675 2ad9 58000000 		.4byte	.LVL140
 19676 2add 5C000000 		.4byte	.LVL142
 19677 2ae1 0800     		.2byte	0x8
 19678 2ae3 73       		.byte	0x73
 19679 2ae4 00       		.sleb128 0
 19680 2ae5 76       		.byte	0x76
 19681 2ae6 00       		.sleb128 0
 19682 2ae7 22       		.byte	0x22
 19683 2ae8 31       		.byte	0x31
 19684 2ae9 1C       		.byte	0x1c
 19685 2aea 9F       		.byte	0x9f
 19686 2aeb 00000000 		.4byte	0
 19687 2aef 00000000 		.4byte	0
 19688              	.LVUS74:
 19689 2af3 00       		.uleb128 .LVU423
 19690 2af4 00       		.uleb128 .LVU427
 19691 2af5 00       		.uleb128 .LVU427
 19692 2af6 00       		.uleb128 .LVU429
 19693              	.LLST74:
 19694 2af7 3C000000 		.4byte	.LVL134
 19695 2afb 40000000 		.4byte	.LVL135
 19696 2aff 0100     		.2byte	0x1
 19697 2b01 55       		.byte	0x55
 19698 2b02 40000000 		.4byte	.LVL135
 19699 2b06 46000000 		.4byte	.LVL137
 19700 2b0a 0700     		.2byte	0x7
 19701 2b0c 74       		.byte	0x74
 19702 2b0d 00       		.sleb128 0
 19703 2b0e 31       		.byte	0x31
 19704 2b0f 24       		.byte	0x24
 19705 2b10 71       		.byte	0x71
 19706 2b11 00       		.sleb128 0
 19707 2b12 22       		.byte	0x22
 19708 2b13 00000000 		.4byte	0
 19709 2b17 00000000 		.4byte	0
 19710              	.LVUS75:
 19711 2b1b 02       		.uleb128 .LVU425
 19712 2b1c 00       		.uleb128 .LVU429
 19713              	.LLST75:
 19714 2b1d 3C000000 		.4byte	.LVL134
 19715 2b21 46000000 		.4byte	.LVL137
 19716 2b25 0200     		.2byte	0x2
 19717 2b27 30       		.byte	0x30
 19718 2b28 9F       		.byte	0x9f
 19719 2b29 00000000 		.4byte	0
 19720 2b2d 00000000 		.4byte	0
 19721              	.LVUS76:
 19722 2b31 02       		.uleb128 .LVU405
 19723 2b32 00       		.uleb128 .LVU444
 19724 2b33 00       		.uleb128 .LVU444
 19725 2b34 00       		.uleb128 0
 19726              	.LLST76:
ARM GAS  /tmp/cchqCFfA.s 			page 350


 19727 2b35 16000000 		.4byte	.LVL130
 19728 2b39 77000000 		.4byte	.LVL144-1
 19729 2b3d 0100     		.2byte	0x1
 19730 2b3f 50       		.byte	0x50
 19731 2b40 77000000 		.4byte	.LVL144-1
 19732 2b44 7C000000 		.4byte	.LFE9
 19733 2b48 0400     		.2byte	0x4
 19734 2b4a F3       		.byte	0xf3
 19735 2b4b 01       		.uleb128 0x1
 19736 2b4c 50       		.byte	0x50
 19737 2b4d 9F       		.byte	0x9f
 19738 2b4e 00000000 		.4byte	0
 19739 2b52 00000000 		.4byte	0
 19740              	.LVUS77:
 19741 2b56 02       		.uleb128 .LVU405
 19742 2b57 00       		.uleb128 .LVU444
 19743 2b58 00       		.uleb128 .LVU444
 19744 2b59 00       		.uleb128 0
 19745              	.LLST77:
 19746 2b5a 16000000 		.4byte	.LVL130
 19747 2b5e 77000000 		.4byte	.LVL144-1
 19748 2b62 0100     		.2byte	0x1
 19749 2b64 50       		.byte	0x50
 19750 2b65 77000000 		.4byte	.LVL144-1
 19751 2b69 7C000000 		.4byte	.LFE9
 19752 2b6d 0400     		.2byte	0x4
 19753 2b6f F3       		.byte	0xf3
 19754 2b70 01       		.uleb128 0x1
 19755 2b71 50       		.byte	0x50
 19756 2b72 9F       		.byte	0x9f
 19757 2b73 00000000 		.4byte	0
 19758 2b77 00000000 		.4byte	0
 19759              	.LVUS78:
 19760 2b7b 02       		.uleb128 .LVU410
 19761 2b7c 00       		.uleb128 .LVU444
 19762 2b7d 00       		.uleb128 .LVU444
 19763 2b7e 00       		.uleb128 0
 19764              	.LLST78:
 19765 2b7f 26000000 		.4byte	.LVL131
 19766 2b83 77000000 		.4byte	.LVL144-1
 19767 2b87 0100     		.2byte	0x1
 19768 2b89 50       		.byte	0x50
 19769 2b8a 77000000 		.4byte	.LVL144-1
 19770 2b8e 7C000000 		.4byte	.LFE9
 19771 2b92 0400     		.2byte	0x4
 19772 2b94 F3       		.byte	0xf3
 19773 2b95 01       		.uleb128 0x1
 19774 2b96 50       		.byte	0x50
 19775 2b97 9F       		.byte	0x9f
 19776 2b98 00000000 		.4byte	0
 19777 2b9c 00000000 		.4byte	0
 19778              	.LVUS79:
 19779 2ba0 02       		.uleb128 .LVU410
 19780 2ba1 00       		.uleb128 .LVU444
 19781 2ba2 00       		.uleb128 .LVU444
 19782 2ba3 00       		.uleb128 0
 19783              	.LLST79:
ARM GAS  /tmp/cchqCFfA.s 			page 351


 19784 2ba4 26000000 		.4byte	.LVL131
 19785 2ba8 77000000 		.4byte	.LVL144-1
 19786 2bac 0100     		.2byte	0x1
 19787 2bae 50       		.byte	0x50
 19788 2baf 77000000 		.4byte	.LVL144-1
 19789 2bb3 7C000000 		.4byte	.LFE9
 19790 2bb7 0400     		.2byte	0x4
 19791 2bb9 F3       		.byte	0xf3
 19792 2bba 01       		.uleb128 0x1
 19793 2bbb 50       		.byte	0x50
 19794 2bbc 9F       		.byte	0x9f
 19795 2bbd 00000000 		.4byte	0
 19796 2bc1 00000000 		.4byte	0
 19797              	.LVUS80:
 19798 2bc5 02       		.uleb128 .LVU415
 19799 2bc6 00       		.uleb128 .LVU444
 19800 2bc7 00       		.uleb128 .LVU444
 19801 2bc8 00       		.uleb128 0
 19802              	.LLST80:
 19803 2bc9 2E000000 		.4byte	.LVL132
 19804 2bcd 77000000 		.4byte	.LVL144-1
 19805 2bd1 0100     		.2byte	0x1
 19806 2bd3 50       		.byte	0x50
 19807 2bd4 77000000 		.4byte	.LVL144-1
 19808 2bd8 7C000000 		.4byte	.LFE9
 19809 2bdc 0400     		.2byte	0x4
 19810 2bde F3       		.byte	0xf3
 19811 2bdf 01       		.uleb128 0x1
 19812 2be0 50       		.byte	0x50
 19813 2be1 9F       		.byte	0x9f
 19814 2be2 00000000 		.4byte	0
 19815 2be6 00000000 		.4byte	0
 19816              	.LVUS81:
 19817 2bea 02       		.uleb128 .LVU415
 19818 2beb 00       		.uleb128 .LVU444
 19819 2bec 00       		.uleb128 .LVU444
 19820 2bed 00       		.uleb128 0
 19821              	.LLST81:
 19822 2bee 2E000000 		.4byte	.LVL132
 19823 2bf2 77000000 		.4byte	.LVL144-1
 19824 2bf6 0100     		.2byte	0x1
 19825 2bf8 50       		.byte	0x50
 19826 2bf9 77000000 		.4byte	.LVL144-1
 19827 2bfd 7C000000 		.4byte	.LFE9
 19828 2c01 0400     		.2byte	0x4
 19829 2c03 F3       		.byte	0xf3
 19830 2c04 01       		.uleb128 0x1
 19831 2c05 50       		.byte	0x50
 19832 2c06 9F       		.byte	0x9f
 19833 2c07 00000000 		.4byte	0
 19834 2c0b 00000000 		.4byte	0
 19835              	.LVUS82:
 19836 2c0f 02       		.uleb128 .LVU420
 19837 2c10 00       		.uleb128 .LVU444
 19838 2c11 00       		.uleb128 .LVU444
 19839 2c12 00       		.uleb128 0
 19840              	.LLST82:
ARM GAS  /tmp/cchqCFfA.s 			page 352


 19841 2c13 36000000 		.4byte	.LVL133
 19842 2c17 77000000 		.4byte	.LVL144-1
 19843 2c1b 0100     		.2byte	0x1
 19844 2c1d 50       		.byte	0x50
 19845 2c1e 77000000 		.4byte	.LVL144-1
 19846 2c22 7C000000 		.4byte	.LFE9
 19847 2c26 0400     		.2byte	0x4
 19848 2c28 F3       		.byte	0xf3
 19849 2c29 01       		.uleb128 0x1
 19850 2c2a 50       		.byte	0x50
 19851 2c2b 9F       		.byte	0x9f
 19852 2c2c 00000000 		.4byte	0
 19853 2c30 00000000 		.4byte	0
 19854              	.LVUS83:
 19855 2c34 02       		.uleb128 .LVU420
 19856 2c35 00       		.uleb128 .LVU444
 19857 2c36 00       		.uleb128 .LVU444
 19858 2c37 00       		.uleb128 0
 19859              	.LLST83:
 19860 2c38 36000000 		.4byte	.LVL133
 19861 2c3c 77000000 		.4byte	.LVL144-1
 19862 2c40 0100     		.2byte	0x1
 19863 2c42 50       		.byte	0x50
 19864 2c43 77000000 		.4byte	.LVL144-1
 19865 2c47 7C000000 		.4byte	.LFE9
 19866 2c4b 0400     		.2byte	0x4
 19867 2c4d F3       		.byte	0xf3
 19868 2c4e 01       		.uleb128 0x1
 19869 2c4f 50       		.byte	0x50
 19870 2c50 9F       		.byte	0x9f
 19871 2c51 00000000 		.4byte	0
 19872 2c55 00000000 		.4byte	0
 19873              	.LVUS55:
 19874 2c59 00       		.uleb128 0
 19875 2c5a 00       		.uleb128 .LVU394
 19876 2c5b 00       		.uleb128 .LVU394
 19877 2c5c 00       		.uleb128 0
 19878              	.LLST55:
 19879 2c5d 00000000 		.4byte	.LVL114
 19880 2c61 77000000 		.4byte	.LVL128-1
 19881 2c65 0100     		.2byte	0x1
 19882 2c67 50       		.byte	0x50
 19883 2c68 77000000 		.4byte	.LVL128-1
 19884 2c6c 7C000000 		.4byte	.LFE8
 19885 2c70 0400     		.2byte	0x4
 19886 2c72 F3       		.byte	0xf3
 19887 2c73 01       		.uleb128 0x1
 19888 2c74 50       		.byte	0x50
 19889 2c75 9F       		.byte	0x9f
 19890 2c76 00000000 		.4byte	0
 19891 2c7a 00000000 		.4byte	0
 19892              	.LVUS56:
 19893 2c7e 00       		.uleb128 .LVU356
 19894 2c7f 00       		.uleb128 .LVU378
 19895              	.LLST56:
 19896 2c80 28000000 		.4byte	.LVL116
 19897 2c84 4A000000 		.4byte	.LVL122
ARM GAS  /tmp/cchqCFfA.s 			page 353


 19898 2c88 0100     		.2byte	0x1
 19899 2c8a 57       		.byte	0x57
 19900 2c8b 00000000 		.4byte	0
 19901 2c8f 00000000 		.4byte	0
 19902              	.LVUS57:
 19903 2c93 00       		.uleb128 .LVU361
 19904 2c94 00       		.uleb128 .LVU385
 19905 2c95 00       		.uleb128 .LVU387
 19906 2c96 00       		.uleb128 .LVU393
 19907              	.LLST57:
 19908 2c97 30000000 		.4byte	.LVL117
 19909 2c9b 58000000 		.4byte	.LVL125
 19910 2c9f 0100     		.2byte	0x1
 19911 2ca1 53       		.byte	0x53
 19912 2ca2 5C000000 		.4byte	.LVL126
 19913 2ca6 66000000 		.4byte	.LVL127
 19914 2caa 0100     		.2byte	0x1
 19915 2cac 53       		.byte	0x53
 19916 2cad 00000000 		.4byte	0
 19917 2cb1 00000000 		.4byte	0
 19918              	.LVUS58:
 19919 2cb5 00       		.uleb128 .LVU366
 19920 2cb6 00       		.uleb128 .LVU373
 19921              	.LLST58:
 19922 2cb7 38000000 		.4byte	.LVL118
 19923 2cbb 42000000 		.4byte	.LVL120
 19924 2cbf 0100     		.2byte	0x1
 19925 2cc1 56       		.byte	0x56
 19926 2cc2 00000000 		.4byte	0
 19927 2cc6 00000000 		.4byte	0
 19928              	.LVUS59:
 19929 2cca 00       		.uleb128 .LVU371
 19930 2ccb 00       		.uleb128 .LVU377
 19931 2ccc 00       		.uleb128 .LVU377
 19932 2ccd 00       		.uleb128 .LVU380
 19933              	.LLST59:
 19934 2cce 3E000000 		.4byte	.LVL119
 19935 2cd2 46000000 		.4byte	.LVL121
 19936 2cd6 0100     		.2byte	0x1
 19937 2cd8 55       		.byte	0x55
 19938 2cd9 46000000 		.4byte	.LVL121
 19939 2cdd 4E000000 		.4byte	.LVL123
 19940 2ce1 0B00     		.2byte	0xb
 19941 2ce3 72       		.byte	0x72
 19942 2ce4 01       		.sleb128 1
 19943 2ce5 40       		.byte	0x40
 19944 2ce6 24       		.byte	0x24
 19945 2ce7 40       		.byte	0x40
 19946 2ce8 26       		.byte	0x26
 19947 2ce9 31       		.byte	0x31
 19948 2cea 24       		.byte	0x24
 19949 2ceb 71       		.byte	0x71
 19950 2cec 00       		.sleb128 0
 19951 2ced 22       		.byte	0x22
 19952 2cee 00000000 		.4byte	0
 19953 2cf2 00000000 		.4byte	0
 19954              	.LVUS60:
ARM GAS  /tmp/cchqCFfA.s 			page 354


 19955 2cf6 00       		.uleb128 .LVU373
 19956 2cf7 00       		.uleb128 .LVU393
 19957              	.LLST60:
 19958 2cf8 42000000 		.4byte	.LVL120
 19959 2cfc 66000000 		.4byte	.LVL127
 19960 2d00 0100     		.2byte	0x1
 19961 2d02 56       		.byte	0x56
 19962 2d03 00000000 		.4byte	0
 19963 2d07 00000000 		.4byte	0
 19964              	.LVUS61:
 19965 2d0b 02       		.uleb128 .LVU375
 19966 2d0c 00       		.uleb128 .LVU380
 19967              	.LLST61:
 19968 2d0d 42000000 		.4byte	.LVL120
 19969 2d11 4E000000 		.4byte	.LVL123
 19970 2d15 0200     		.2byte	0x2
 19971 2d17 30       		.byte	0x30
 19972 2d18 9F       		.byte	0x9f
 19973 2d19 00000000 		.4byte	0
 19974 2d1d 00000000 		.4byte	0
 19975              	.LVUS62:
 19976 2d21 02       		.uleb128 .LVU353
 19977 2d22 00       		.uleb128 .LVU394
 19978 2d23 00       		.uleb128 .LVU394
 19979 2d24 00       		.uleb128 0
 19980              	.LLST62:
 19981 2d25 18000000 		.4byte	.LVL115
 19982 2d29 77000000 		.4byte	.LVL128-1
 19983 2d2d 0100     		.2byte	0x1
 19984 2d2f 50       		.byte	0x50
 19985 2d30 77000000 		.4byte	.LVL128-1
 19986 2d34 7C000000 		.4byte	.LFE8
 19987 2d38 0400     		.2byte	0x4
 19988 2d3a F3       		.byte	0xf3
 19989 2d3b 01       		.uleb128 0x1
 19990 2d3c 50       		.byte	0x50
 19991 2d3d 9F       		.byte	0x9f
 19992 2d3e 00000000 		.4byte	0
 19993 2d42 00000000 		.4byte	0
 19994              	.LVUS63:
 19995 2d46 02       		.uleb128 .LVU353
 19996 2d47 00       		.uleb128 .LVU394
 19997 2d48 00       		.uleb128 .LVU394
 19998 2d49 00       		.uleb128 0
 19999              	.LLST63:
 20000 2d4a 18000000 		.4byte	.LVL115
 20001 2d4e 77000000 		.4byte	.LVL128-1
 20002 2d52 0100     		.2byte	0x1
 20003 2d54 50       		.byte	0x50
 20004 2d55 77000000 		.4byte	.LVL128-1
 20005 2d59 7C000000 		.4byte	.LFE8
 20006 2d5d 0400     		.2byte	0x4
 20007 2d5f F3       		.byte	0xf3
 20008 2d60 01       		.uleb128 0x1
 20009 2d61 50       		.byte	0x50
 20010 2d62 9F       		.byte	0x9f
 20011 2d63 00000000 		.4byte	0
ARM GAS  /tmp/cchqCFfA.s 			page 355


 20012 2d67 00000000 		.4byte	0
 20013              	.LVUS64:
 20014 2d6b 02       		.uleb128 .LVU358
 20015 2d6c 00       		.uleb128 .LVU394
 20016 2d6d 00       		.uleb128 .LVU394
 20017 2d6e 00       		.uleb128 0
 20018              	.LLST64:
 20019 2d6f 28000000 		.4byte	.LVL116
 20020 2d73 77000000 		.4byte	.LVL128-1
 20021 2d77 0100     		.2byte	0x1
 20022 2d79 50       		.byte	0x50
 20023 2d7a 77000000 		.4byte	.LVL128-1
 20024 2d7e 7C000000 		.4byte	.LFE8
 20025 2d82 0400     		.2byte	0x4
 20026 2d84 F3       		.byte	0xf3
 20027 2d85 01       		.uleb128 0x1
 20028 2d86 50       		.byte	0x50
 20029 2d87 9F       		.byte	0x9f
 20030 2d88 00000000 		.4byte	0
 20031 2d8c 00000000 		.4byte	0
 20032              	.LVUS65:
 20033 2d90 02       		.uleb128 .LVU358
 20034 2d91 00       		.uleb128 .LVU394
 20035 2d92 00       		.uleb128 .LVU394
 20036 2d93 00       		.uleb128 0
 20037              	.LLST65:
 20038 2d94 28000000 		.4byte	.LVL116
 20039 2d98 77000000 		.4byte	.LVL128-1
 20040 2d9c 0100     		.2byte	0x1
 20041 2d9e 50       		.byte	0x50
 20042 2d9f 77000000 		.4byte	.LVL128-1
 20043 2da3 7C000000 		.4byte	.LFE8
 20044 2da7 0400     		.2byte	0x4
 20045 2da9 F3       		.byte	0xf3
 20046 2daa 01       		.uleb128 0x1
 20047 2dab 50       		.byte	0x50
 20048 2dac 9F       		.byte	0x9f
 20049 2dad 00000000 		.4byte	0
 20050 2db1 00000000 		.4byte	0
 20051              	.LVUS66:
 20052 2db5 02       		.uleb128 .LVU363
 20053 2db6 00       		.uleb128 .LVU394
 20054 2db7 00       		.uleb128 .LVU394
 20055 2db8 00       		.uleb128 0
 20056              	.LLST66:
 20057 2db9 30000000 		.4byte	.LVL117
 20058 2dbd 77000000 		.4byte	.LVL128-1
 20059 2dc1 0100     		.2byte	0x1
 20060 2dc3 50       		.byte	0x50
 20061 2dc4 77000000 		.4byte	.LVL128-1
 20062 2dc8 7C000000 		.4byte	.LFE8
 20063 2dcc 0400     		.2byte	0x4
 20064 2dce F3       		.byte	0xf3
 20065 2dcf 01       		.uleb128 0x1
 20066 2dd0 50       		.byte	0x50
 20067 2dd1 9F       		.byte	0x9f
 20068 2dd2 00000000 		.4byte	0
ARM GAS  /tmp/cchqCFfA.s 			page 356


 20069 2dd6 00000000 		.4byte	0
 20070              	.LVUS67:
 20071 2dda 02       		.uleb128 .LVU363
 20072 2ddb 00       		.uleb128 .LVU394
 20073 2ddc 00       		.uleb128 .LVU394
 20074 2ddd 00       		.uleb128 0
 20075              	.LLST67:
 20076 2dde 30000000 		.4byte	.LVL117
 20077 2de2 77000000 		.4byte	.LVL128-1
 20078 2de6 0100     		.2byte	0x1
 20079 2de8 50       		.byte	0x50
 20080 2de9 77000000 		.4byte	.LVL128-1
 20081 2ded 7C000000 		.4byte	.LFE8
 20082 2df1 0400     		.2byte	0x4
 20083 2df3 F3       		.byte	0xf3
 20084 2df4 01       		.uleb128 0x1
 20085 2df5 50       		.byte	0x50
 20086 2df6 9F       		.byte	0x9f
 20087 2df7 00000000 		.4byte	0
 20088 2dfb 00000000 		.4byte	0
 20089              	.LVUS68:
 20090 2dff 02       		.uleb128 .LVU368
 20091 2e00 00       		.uleb128 .LVU394
 20092 2e01 00       		.uleb128 .LVU394
 20093 2e02 00       		.uleb128 0
 20094              	.LLST68:
 20095 2e03 38000000 		.4byte	.LVL118
 20096 2e07 77000000 		.4byte	.LVL128-1
 20097 2e0b 0100     		.2byte	0x1
 20098 2e0d 50       		.byte	0x50
 20099 2e0e 77000000 		.4byte	.LVL128-1
 20100 2e12 7C000000 		.4byte	.LFE8
 20101 2e16 0400     		.2byte	0x4
 20102 2e18 F3       		.byte	0xf3
 20103 2e19 01       		.uleb128 0x1
 20104 2e1a 50       		.byte	0x50
 20105 2e1b 9F       		.byte	0x9f
 20106 2e1c 00000000 		.4byte	0
 20107 2e20 00000000 		.4byte	0
 20108              	.LVUS69:
 20109 2e24 02       		.uleb128 .LVU368
 20110 2e25 00       		.uleb128 .LVU394
 20111 2e26 00       		.uleb128 .LVU394
 20112 2e27 00       		.uleb128 0
 20113              	.LLST69:
 20114 2e28 38000000 		.4byte	.LVL118
 20115 2e2c 77000000 		.4byte	.LVL128-1
 20116 2e30 0100     		.2byte	0x1
 20117 2e32 50       		.byte	0x50
 20118 2e33 77000000 		.4byte	.LVL128-1
 20119 2e37 7C000000 		.4byte	.LFE8
 20120 2e3b 0400     		.2byte	0x4
 20121 2e3d F3       		.byte	0xf3
 20122 2e3e 01       		.uleb128 0x1
 20123 2e3f 50       		.byte	0x50
 20124 2e40 9F       		.byte	0x9f
 20125 2e41 00000000 		.4byte	0
ARM GAS  /tmp/cchqCFfA.s 			page 357


 20126 2e45 00000000 		.4byte	0
 20127              	.LVUS44:
 20128 2e49 00       		.uleb128 0
 20129 2e4a 00       		.uleb128 .LVU341
 20130 2e4b 00       		.uleb128 .LVU341
 20131 2e4c 00       		.uleb128 0
 20132              	.LLST44:
 20133 2e4d 00000000 		.4byte	.LVL104
 20134 2e51 5B000000 		.4byte	.LVL113-1
 20135 2e55 0100     		.2byte	0x1
 20136 2e57 50       		.byte	0x50
 20137 2e58 5B000000 		.4byte	.LVL113-1
 20138 2e5c 60000000 		.4byte	.LFE7
 20139 2e60 0400     		.2byte	0x4
 20140 2e62 F3       		.byte	0xf3
 20141 2e63 01       		.uleb128 0x1
 20142 2e64 50       		.byte	0x50
 20143 2e65 9F       		.byte	0x9f
 20144 2e66 00000000 		.4byte	0
 20145 2e6a 00000000 		.4byte	0
 20146              	.LVUS45:
 20147 2e6e 00       		.uleb128 .LVU314
 20148 2e6f 00       		.uleb128 .LVU340
 20149              	.LLST45:
 20150 2e70 24000000 		.4byte	.LVL106
 20151 2e74 4C000000 		.4byte	.LVL112
 20152 2e78 0100     		.2byte	0x1
 20153 2e7a 53       		.byte	0x53
 20154 2e7b 00000000 		.4byte	0
 20155 2e7f 00000000 		.4byte	0
 20156              	.LVUS46:
 20157 2e83 00       		.uleb128 .LVU319
 20158 2e84 00       		.uleb128 .LVU330
 20159              	.LLST46:
 20160 2e85 2C000000 		.4byte	.LVL107
 20161 2e89 3A000000 		.4byte	.LVL110
 20162 2e8d 0100     		.2byte	0x1
 20163 2e8f 56       		.byte	0x56
 20164 2e90 00000000 		.4byte	0
 20165 2e94 00000000 		.4byte	0
 20166              	.LVUS47:
 20167 2e98 00       		.uleb128 .LVU324
 20168 2e99 00       		.uleb128 .LVU328
 20169 2e9a 00       		.uleb128 .LVU328
 20170 2e9b 00       		.uleb128 .LVU330
 20171              	.LLST47:
 20172 2e9c 32000000 		.4byte	.LVL108
 20173 2ea0 36000000 		.4byte	.LVL109
 20174 2ea4 0100     		.2byte	0x1
 20175 2ea6 55       		.byte	0x55
 20176 2ea7 36000000 		.4byte	.LVL109
 20177 2eab 3A000000 		.4byte	.LVL110
 20178 2eaf 0800     		.2byte	0x8
 20179 2eb1 71       		.byte	0x71
 20180 2eb2 00       		.sleb128 0
 20181 2eb3 31       		.byte	0x31
 20182 2eb4 24       		.byte	0x24
ARM GAS  /tmp/cchqCFfA.s 			page 358


 20183 2eb5 70       		.byte	0x70
 20184 2eb6 14       		.sleb128 20
 20185 2eb7 06       		.byte	0x6
 20186 2eb8 22       		.byte	0x22
 20187 2eb9 00000000 		.4byte	0
 20188 2ebd 00000000 		.4byte	0
 20189              	.LVUS48:
 20190 2ec1 02       		.uleb128 .LVU326
 20191 2ec2 00       		.uleb128 .LVU330
 20192              	.LLST48:
 20193 2ec3 32000000 		.4byte	.LVL108
 20194 2ec7 3A000000 		.4byte	.LVL110
 20195 2ecb 0200     		.2byte	0x2
 20196 2ecd 30       		.byte	0x30
 20197 2ece 9F       		.byte	0x9f
 20198 2ecf 00000000 		.4byte	0
 20199 2ed3 00000000 		.4byte	0
 20200              	.LVUS49:
 20201 2ed7 02       		.uleb128 .LVU310
 20202 2ed8 00       		.uleb128 .LVU341
 20203 2ed9 00       		.uleb128 .LVU341
 20204 2eda 00       		.uleb128 0
 20205              	.LLST49:
 20206 2edb 10000000 		.4byte	.LVL105
 20207 2edf 5B000000 		.4byte	.LVL113-1
 20208 2ee3 0100     		.2byte	0x1
 20209 2ee5 50       		.byte	0x50
 20210 2ee6 5B000000 		.4byte	.LVL113-1
 20211 2eea 60000000 		.4byte	.LFE7
 20212 2eee 0400     		.2byte	0x4
 20213 2ef0 F3       		.byte	0xf3
 20214 2ef1 01       		.uleb128 0x1
 20215 2ef2 50       		.byte	0x50
 20216 2ef3 9F       		.byte	0x9f
 20217 2ef4 00000000 		.4byte	0
 20218 2ef8 00000000 		.4byte	0
 20219              	.LVUS50:
 20220 2efc 02       		.uleb128 .LVU310
 20221 2efd 00       		.uleb128 .LVU341
 20222 2efe 00       		.uleb128 .LVU341
 20223 2eff 00       		.uleb128 0
 20224              	.LLST50:
 20225 2f00 10000000 		.4byte	.LVL105
 20226 2f04 5B000000 		.4byte	.LVL113-1
 20227 2f08 0100     		.2byte	0x1
 20228 2f0a 50       		.byte	0x50
 20229 2f0b 5B000000 		.4byte	.LVL113-1
 20230 2f0f 60000000 		.4byte	.LFE7
 20231 2f13 0400     		.2byte	0x4
 20232 2f15 F3       		.byte	0xf3
 20233 2f16 01       		.uleb128 0x1
 20234 2f17 50       		.byte	0x50
 20235 2f18 9F       		.byte	0x9f
 20236 2f19 00000000 		.4byte	0
 20237 2f1d 00000000 		.4byte	0
 20238              	.LVUS51:
 20239 2f21 02       		.uleb128 .LVU316
ARM GAS  /tmp/cchqCFfA.s 			page 359


 20240 2f22 00       		.uleb128 .LVU341
 20241 2f23 00       		.uleb128 .LVU341
 20242 2f24 00       		.uleb128 0
 20243              	.LLST51:
 20244 2f25 24000000 		.4byte	.LVL106
 20245 2f29 5B000000 		.4byte	.LVL113-1
 20246 2f2d 0100     		.2byte	0x1
 20247 2f2f 50       		.byte	0x50
 20248 2f30 5B000000 		.4byte	.LVL113-1
 20249 2f34 60000000 		.4byte	.LFE7
 20250 2f38 0400     		.2byte	0x4
 20251 2f3a F3       		.byte	0xf3
 20252 2f3b 01       		.uleb128 0x1
 20253 2f3c 50       		.byte	0x50
 20254 2f3d 9F       		.byte	0x9f
 20255 2f3e 00000000 		.4byte	0
 20256 2f42 00000000 		.4byte	0
 20257              	.LVUS52:
 20258 2f46 02       		.uleb128 .LVU316
 20259 2f47 00       		.uleb128 .LVU341
 20260 2f48 00       		.uleb128 .LVU341
 20261 2f49 00       		.uleb128 0
 20262              	.LLST52:
 20263 2f4a 24000000 		.4byte	.LVL106
 20264 2f4e 5B000000 		.4byte	.LVL113-1
 20265 2f52 0100     		.2byte	0x1
 20266 2f54 50       		.byte	0x50
 20267 2f55 5B000000 		.4byte	.LVL113-1
 20268 2f59 60000000 		.4byte	.LFE7
 20269 2f5d 0400     		.2byte	0x4
 20270 2f5f F3       		.byte	0xf3
 20271 2f60 01       		.uleb128 0x1
 20272 2f61 50       		.byte	0x50
 20273 2f62 9F       		.byte	0x9f
 20274 2f63 00000000 		.4byte	0
 20275 2f67 00000000 		.4byte	0
 20276              	.LVUS53:
 20277 2f6b 02       		.uleb128 .LVU321
 20278 2f6c 00       		.uleb128 .LVU341
 20279 2f6d 00       		.uleb128 .LVU341
 20280 2f6e 00       		.uleb128 0
 20281              	.LLST53:
 20282 2f6f 2C000000 		.4byte	.LVL107
 20283 2f73 5B000000 		.4byte	.LVL113-1
 20284 2f77 0100     		.2byte	0x1
 20285 2f79 50       		.byte	0x50
 20286 2f7a 5B000000 		.4byte	.LVL113-1
 20287 2f7e 60000000 		.4byte	.LFE7
 20288 2f82 0400     		.2byte	0x4
 20289 2f84 F3       		.byte	0xf3
 20290 2f85 01       		.uleb128 0x1
 20291 2f86 50       		.byte	0x50
 20292 2f87 9F       		.byte	0x9f
 20293 2f88 00000000 		.4byte	0
 20294 2f8c 00000000 		.4byte	0
 20295              	.LVUS54:
 20296 2f90 02       		.uleb128 .LVU321
ARM GAS  /tmp/cchqCFfA.s 			page 360


 20297 2f91 00       		.uleb128 .LVU341
 20298 2f92 00       		.uleb128 .LVU341
 20299 2f93 00       		.uleb128 0
 20300              	.LLST54:
 20301 2f94 2C000000 		.4byte	.LVL107
 20302 2f98 5B000000 		.4byte	.LVL113-1
 20303 2f9c 0100     		.2byte	0x1
 20304 2f9e 50       		.byte	0x50
 20305 2f9f 5B000000 		.4byte	.LVL113-1
 20306 2fa3 60000000 		.4byte	.LFE7
 20307 2fa7 0400     		.2byte	0x4
 20308 2fa9 F3       		.byte	0xf3
 20309 2faa 01       		.uleb128 0x1
 20310 2fab 50       		.byte	0x50
 20311 2fac 9F       		.byte	0x9f
 20312 2fad 00000000 		.4byte	0
 20313 2fb1 00000000 		.4byte	0
 20314              	.LVUS33:
 20315 2fb5 00       		.uleb128 0
 20316 2fb6 00       		.uleb128 .LVU302
 20317 2fb7 00       		.uleb128 .LVU302
 20318 2fb8 00       		.uleb128 0
 20319              	.LLST33:
 20320 2fb9 00000000 		.4byte	.LVL92
 20321 2fbd 61000000 		.4byte	.LVL103-1
 20322 2fc1 0100     		.2byte	0x1
 20323 2fc3 50       		.byte	0x50
 20324 2fc4 61000000 		.4byte	.LVL103-1
 20325 2fc8 68000000 		.4byte	.LFE6
 20326 2fcc 0400     		.2byte	0x4
 20327 2fce F3       		.byte	0xf3
 20328 2fcf 01       		.uleb128 0x1
 20329 2fd0 50       		.byte	0x50
 20330 2fd1 9F       		.byte	0x9f
 20331 2fd2 00000000 		.4byte	0
 20332 2fd6 00000000 		.4byte	0
 20333              	.LVUS34:
 20334 2fda 00       		.uleb128 .LVU276
 20335 2fdb 00       		.uleb128 .LVU291
 20336 2fdc 00       		.uleb128 .LVU292
 20337 2fdd 00       		.uleb128 .LVU297
 20338              	.LLST34:
 20339 2fde 24000000 		.4byte	.LVL94
 20340 2fe2 3A000000 		.4byte	.LVL98
 20341 2fe6 0100     		.2byte	0x1
 20342 2fe8 56       		.byte	0x56
 20343 2fe9 40000000 		.4byte	.LVL99
 20344 2fed 4C000000 		.4byte	.LVL101
 20345 2ff1 0100     		.2byte	0x1
 20346 2ff3 52       		.byte	0x52
 20347 2ff4 00000000 		.4byte	0
 20348 2ff8 00000000 		.4byte	0
 20349              	.LVUS35:
 20350 2ffc 00       		.uleb128 .LVU281
 20351 2ffd 00       		.uleb128 .LVU295
 20352 2ffe 00       		.uleb128 .LVU297
 20353 2fff 00       		.uleb128 .LVU301
ARM GAS  /tmp/cchqCFfA.s 			page 361


 20354              	.LLST35:
 20355 3000 2C000000 		.4byte	.LVL95
 20356 3004 46000000 		.4byte	.LVL100
 20357 3008 0100     		.2byte	0x1
 20358 300a 53       		.byte	0x53
 20359 300b 4C000000 		.4byte	.LVL101
 20360 300f 52000000 		.4byte	.LVL102
 20361 3013 0100     		.2byte	0x1
 20362 3015 53       		.byte	0x53
 20363 3016 00000000 		.4byte	0
 20364 301a 00000000 		.4byte	0
 20365              	.LVUS36:
 20366 301e 00       		.uleb128 .LVU286
 20367 301f 00       		.uleb128 .LVU290
 20368 3020 00       		.uleb128 .LVU290
 20369 3021 00       		.uleb128 .LVU291
 20370              	.LLST36:
 20371 3022 32000000 		.4byte	.LVL96
 20372 3026 36000000 		.4byte	.LVL97
 20373 302a 0100     		.2byte	0x1
 20374 302c 55       		.byte	0x55
 20375 302d 36000000 		.4byte	.LVL97
 20376 3031 3A000000 		.4byte	.LVL98
 20377 3035 0800     		.2byte	0x8
 20378 3037 71       		.byte	0x71
 20379 3038 00       		.sleb128 0
 20380 3039 31       		.byte	0x31
 20381 303a 24       		.byte	0x24
 20382 303b 70       		.byte	0x70
 20383 303c 14       		.sleb128 20
 20384 303d 06       		.byte	0x6
 20385 303e 22       		.byte	0x22
 20386 303f 00000000 		.4byte	0
 20387 3043 00000000 		.4byte	0
 20388              	.LVUS37:
 20389 3047 02       		.uleb128 .LVU288
 20390 3048 00       		.uleb128 .LVU291
 20391              	.LLST37:
 20392 3049 32000000 		.4byte	.LVL96
 20393 304d 3A000000 		.4byte	.LVL98
 20394 3051 0200     		.2byte	0x2
 20395 3053 30       		.byte	0x30
 20396 3054 9F       		.byte	0x9f
 20397 3055 00000000 		.4byte	0
 20398 3059 00000000 		.4byte	0
 20399              	.LVUS38:
 20400 305d 02       		.uleb128 .LVU273
 20401 305e 00       		.uleb128 .LVU302
 20402 305f 00       		.uleb128 .LVU302
 20403 3060 00       		.uleb128 0
 20404              	.LLST38:
 20405 3061 14000000 		.4byte	.LVL93
 20406 3065 61000000 		.4byte	.LVL103-1
 20407 3069 0100     		.2byte	0x1
 20408 306b 50       		.byte	0x50
 20409 306c 61000000 		.4byte	.LVL103-1
 20410 3070 68000000 		.4byte	.LFE6
ARM GAS  /tmp/cchqCFfA.s 			page 362


 20411 3074 0400     		.2byte	0x4
 20412 3076 F3       		.byte	0xf3
 20413 3077 01       		.uleb128 0x1
 20414 3078 50       		.byte	0x50
 20415 3079 9F       		.byte	0x9f
 20416 307a 00000000 		.4byte	0
 20417 307e 00000000 		.4byte	0
 20418              	.LVUS39:
 20419 3082 02       		.uleb128 .LVU273
 20420 3083 00       		.uleb128 .LVU302
 20421 3084 00       		.uleb128 .LVU302
 20422 3085 00       		.uleb128 0
 20423              	.LLST39:
 20424 3086 14000000 		.4byte	.LVL93
 20425 308a 61000000 		.4byte	.LVL103-1
 20426 308e 0100     		.2byte	0x1
 20427 3090 50       		.byte	0x50
 20428 3091 61000000 		.4byte	.LVL103-1
 20429 3095 68000000 		.4byte	.LFE6
 20430 3099 0400     		.2byte	0x4
 20431 309b F3       		.byte	0xf3
 20432 309c 01       		.uleb128 0x1
 20433 309d 50       		.byte	0x50
 20434 309e 9F       		.byte	0x9f
 20435 309f 00000000 		.4byte	0
 20436 30a3 00000000 		.4byte	0
 20437              	.LVUS40:
 20438 30a7 02       		.uleb128 .LVU278
 20439 30a8 00       		.uleb128 .LVU302
 20440 30a9 00       		.uleb128 .LVU302
 20441 30aa 00       		.uleb128 0
 20442              	.LLST40:
 20443 30ab 24000000 		.4byte	.LVL94
 20444 30af 61000000 		.4byte	.LVL103-1
 20445 30b3 0100     		.2byte	0x1
 20446 30b5 50       		.byte	0x50
 20447 30b6 61000000 		.4byte	.LVL103-1
 20448 30ba 68000000 		.4byte	.LFE6
 20449 30be 0400     		.2byte	0x4
 20450 30c0 F3       		.byte	0xf3
 20451 30c1 01       		.uleb128 0x1
 20452 30c2 50       		.byte	0x50
 20453 30c3 9F       		.byte	0x9f
 20454 30c4 00000000 		.4byte	0
 20455 30c8 00000000 		.4byte	0
 20456              	.LVUS41:
 20457 30cc 02       		.uleb128 .LVU278
 20458 30cd 00       		.uleb128 .LVU302
 20459 30ce 00       		.uleb128 .LVU302
 20460 30cf 00       		.uleb128 0
 20461              	.LLST41:
 20462 30d0 24000000 		.4byte	.LVL94
 20463 30d4 61000000 		.4byte	.LVL103-1
 20464 30d8 0100     		.2byte	0x1
 20465 30da 50       		.byte	0x50
 20466 30db 61000000 		.4byte	.LVL103-1
 20467 30df 68000000 		.4byte	.LFE6
ARM GAS  /tmp/cchqCFfA.s 			page 363


 20468 30e3 0400     		.2byte	0x4
 20469 30e5 F3       		.byte	0xf3
 20470 30e6 01       		.uleb128 0x1
 20471 30e7 50       		.byte	0x50
 20472 30e8 9F       		.byte	0x9f
 20473 30e9 00000000 		.4byte	0
 20474 30ed 00000000 		.4byte	0
 20475              	.LVUS42:
 20476 30f1 02       		.uleb128 .LVU283
 20477 30f2 00       		.uleb128 .LVU302
 20478 30f3 00       		.uleb128 .LVU302
 20479 30f4 00       		.uleb128 0
 20480              	.LLST42:
 20481 30f5 2C000000 		.4byte	.LVL95
 20482 30f9 61000000 		.4byte	.LVL103-1
 20483 30fd 0100     		.2byte	0x1
 20484 30ff 50       		.byte	0x50
 20485 3100 61000000 		.4byte	.LVL103-1
 20486 3104 68000000 		.4byte	.LFE6
 20487 3108 0400     		.2byte	0x4
 20488 310a F3       		.byte	0xf3
 20489 310b 01       		.uleb128 0x1
 20490 310c 50       		.byte	0x50
 20491 310d 9F       		.byte	0x9f
 20492 310e 00000000 		.4byte	0
 20493 3112 00000000 		.4byte	0
 20494              	.LVUS43:
 20495 3116 02       		.uleb128 .LVU283
 20496 3117 00       		.uleb128 .LVU302
 20497 3118 00       		.uleb128 .LVU302
 20498 3119 00       		.uleb128 0
 20499              	.LLST43:
 20500 311a 2C000000 		.4byte	.LVL95
 20501 311e 61000000 		.4byte	.LVL103-1
 20502 3122 0100     		.2byte	0x1
 20503 3124 50       		.byte	0x50
 20504 3125 61000000 		.4byte	.LVL103-1
 20505 3129 68000000 		.4byte	.LFE6
 20506 312d 0400     		.2byte	0x4
 20507 312f F3       		.byte	0xf3
 20508 3130 01       		.uleb128 0x1
 20509 3131 50       		.byte	0x50
 20510 3132 9F       		.byte	0x9f
 20511 3133 00000000 		.4byte	0
 20512 3137 00000000 		.4byte	0
 20513              	.LVUS27:
 20514 313b 00       		.uleb128 0
 20515 313c 00       		.uleb128 .LVU263
 20516 313d 00       		.uleb128 .LVU263
 20517 313e 00       		.uleb128 0
 20518              	.LLST27:
 20519 313f 00000000 		.4byte	.LVL73
 20520 3143 89000000 		.4byte	.LVL91-1
 20521 3147 0100     		.2byte	0x1
 20522 3149 50       		.byte	0x50
 20523 314a 89000000 		.4byte	.LVL91-1
 20524 314e 94000000 		.4byte	.LFE5
ARM GAS  /tmp/cchqCFfA.s 			page 364


 20525 3152 0400     		.2byte	0x4
 20526 3154 F3       		.byte	0xf3
 20527 3155 01       		.uleb128 0x1
 20528 3156 50       		.byte	0x50
 20529 3157 9F       		.byte	0x9f
 20530 3158 00000000 		.4byte	0
 20531 315c 00000000 		.4byte	0
 20532              	.LVUS28:
 20533 3160 00       		.uleb128 0
 20534 3161 00       		.uleb128 .LVU263
 20535 3162 00       		.uleb128 .LVU263
 20536 3163 00       		.uleb128 0
 20537              	.LLST28:
 20538 3164 00000000 		.4byte	.LVL73
 20539 3168 89000000 		.4byte	.LVL91-1
 20540 316c 0100     		.2byte	0x1
 20541 316e 51       		.byte	0x51
 20542 316f 89000000 		.4byte	.LVL91-1
 20543 3173 94000000 		.4byte	.LFE5
 20544 3177 0400     		.2byte	0x4
 20545 3179 F3       		.byte	0xf3
 20546 317a 01       		.uleb128 0x1
 20547 317b 51       		.byte	0x51
 20548 317c 9F       		.byte	0x9f
 20549 317d 00000000 		.4byte	0
 20550 3181 00000000 		.4byte	0
 20551              	.LVUS29:
 20552 3185 01       		.uleb128 .LVU214
 20553 3186 00       		.uleb128 .LVU218
 20554 3187 00       		.uleb128 .LVU218
 20555 3188 00       		.uleb128 .LVU219
 20556 3189 00       		.uleb128 .LVU225
 20557 318a 00       		.uleb128 .LVU230
 20558 318b 00       		.uleb128 .LVU252
 20559 318c 00       		.uleb128 .LVU260
 20560 318d 00       		.uleb128 .LVU261
 20561 318e 00       		.uleb128 .LVU262
 20562              	.LLST29:
 20563 318f 1A000000 		.4byte	.LVL74
 20564 3193 1E000000 		.4byte	.LVL75
 20565 3197 0100     		.2byte	0x1
 20566 3199 51       		.byte	0x51
 20567 319a 1E000000 		.4byte	.LVL75
 20568 319e 20000000 		.4byte	.LVL76
 20569 31a2 0100     		.2byte	0x1
 20570 31a4 5C       		.byte	0x5c
 20571 31a5 30000000 		.4byte	.LVL77
 20572 31a9 34000000 		.4byte	.LVL78
 20573 31ad 0100     		.2byte	0x1
 20574 31af 53       		.byte	0x53
 20575 31b0 5E000000 		.4byte	.LVL85
 20576 31b4 70000000 		.4byte	.LVL88
 20577 31b8 0100     		.2byte	0x1
 20578 31ba 5C       		.byte	0x5c
 20579 31bb 80000000 		.4byte	.LVL89
 20580 31bf 86000000 		.4byte	.LVL90
 20581 31c3 0100     		.2byte	0x1
ARM GAS  /tmp/cchqCFfA.s 			page 365


 20582 31c5 53       		.byte	0x53
 20583 31c6 00000000 		.4byte	0
 20584 31ca 00000000 		.4byte	0
 20585              	.LVUS30:
 20586 31ce 02       		.uleb128 .LVU215
 20587 31cf 00       		.uleb128 .LVU218
 20588 31d0 00       		.uleb128 .LVU218
 20589 31d1 00       		.uleb128 .LVU219
 20590 31d2 01       		.uleb128 .LVU226
 20591 31d3 00       		.uleb128 .LVU233
 20592 31d4 01       		.uleb128 .LVU244
 20593 31d5 00       		.uleb128 .LVU245
 20594 31d6 00       		.uleb128 .LVU252
 20595 31d7 01       		.uleb128 .LVU255
 20596 31d8 01       		.uleb128 .LVU255
 20597 31d9 00       		.uleb128 .LVU260
 20598 31da 00       		.uleb128 .LVU261
 20599 31db 00       		.uleb128 .LVU262
 20600              	.LLST30:
 20601 31dc 1A000000 		.4byte	.LVL74
 20602 31e0 1E000000 		.4byte	.LVL75
 20603 31e4 0200     		.2byte	0x2
 20604 31e6 30       		.byte	0x30
 20605 31e7 9F       		.byte	0x9f
 20606 31e8 1E000000 		.4byte	.LVL75
 20607 31ec 20000000 		.4byte	.LVL76
 20608 31f0 0100     		.2byte	0x1
 20609 31f2 5E       		.byte	0x5e
 20610 31f3 30000000 		.4byte	.LVL77
 20611 31f7 3A000000 		.4byte	.LVL79
 20612 31fb 0200     		.2byte	0x2
 20613 31fd 30       		.byte	0x30
 20614 31fe 9F       		.byte	0x9f
 20615 31ff 50000000 		.4byte	.LVL81
 20616 3203 54000000 		.4byte	.LVL82
 20617 3207 0200     		.2byte	0x2
 20618 3209 31       		.byte	0x31
 20619 320a 9F       		.byte	0x9f
 20620 320b 5E000000 		.4byte	.LVL85
 20621 320f 6A000000 		.4byte	.LVL87
 20622 3213 0100     		.2byte	0x1
 20623 3215 5E       		.byte	0x5e
 20624 3216 6A000000 		.4byte	.LVL87
 20625 321a 70000000 		.4byte	.LVL88
 20626 321e 0200     		.2byte	0x2
 20627 3220 30       		.byte	0x30
 20628 3221 9F       		.byte	0x9f
 20629 3222 80000000 		.4byte	.LVL89
 20630 3226 86000000 		.4byte	.LVL90
 20631 322a 0200     		.2byte	0x2
 20632 322c 30       		.byte	0x30
 20633 322d 9F       		.byte	0x9f
 20634 322e 00000000 		.4byte	0
 20635 3232 00000000 		.4byte	0
 20636              	.LVUS31:
 20637 3236 02       		.uleb128 .LVU227
 20638 3237 00       		.uleb128 .LVU233
ARM GAS  /tmp/cchqCFfA.s 			page 366


 20639 3238 00       		.uleb128 .LVU233
 20640 3239 00       		.uleb128 .LVU248
 20641 323a 00       		.uleb128 .LVU249
 20642 323b 00       		.uleb128 .LVU253
 20643 323c 02       		.uleb128 .LVU256
 20644 323d 00       		.uleb128 .LVU260
 20645 323e 00       		.uleb128 .LVU261
 20646 323f 00       		.uleb128 .LVU262
 20647              	.LLST31:
 20648 3240 30000000 		.4byte	.LVL77
 20649 3244 3A000000 		.4byte	.LVL79
 20650 3248 0200     		.2byte	0x2
 20651 324a 30       		.byte	0x30
 20652 324b 9F       		.byte	0x9f
 20653 324c 3A000000 		.4byte	.LVL79
 20654 3250 56000000 		.4byte	.LVL83
 20655 3254 0100     		.2byte	0x1
 20656 3256 53       		.byte	0x53
 20657 3257 58000000 		.4byte	.LVL84
 20658 325b 64000000 		.4byte	.LVL86
 20659 325f 0100     		.2byte	0x1
 20660 3261 53       		.byte	0x53
 20661 3262 6A000000 		.4byte	.LVL87
 20662 3266 70000000 		.4byte	.LVL88
 20663 326a 0200     		.2byte	0x2
 20664 326c 30       		.byte	0x30
 20665 326d 9F       		.byte	0x9f
 20666 326e 80000000 		.4byte	.LVL89
 20667 3272 86000000 		.4byte	.LVL90
 20668 3276 0200     		.2byte	0x2
 20669 3278 30       		.byte	0x30
 20670 3279 9F       		.byte	0x9f
 20671 327a 00000000 		.4byte	0
 20672 327e 00000000 		.4byte	0
 20673              	.LVUS32:
 20674 3282 01       		.uleb128 .LVU239
 20675 3283 00       		.uleb128 .LVU245
 20676              	.LLST32:
 20677 3284 48000000 		.4byte	.LVL80
 20678 3288 54000000 		.4byte	.LVL82
 20679 328c 0100     		.2byte	0x1
 20680 328e 54       		.byte	0x54
 20681 328f 00000000 		.4byte	0
 20682 3293 00000000 		.4byte	0
 20683              	.LVUS16:
 20684 3297 00       		.uleb128 0
 20685 3298 00       		.uleb128 .LVU94
 20686 3299 00       		.uleb128 .LVU94
 20687 329a 00       		.uleb128 0
 20688              	.LLST16:
 20689 329b 00000000 		.4byte	.LVL30
 20690 329f 08000000 		.4byte	.LVL31
 20691 32a3 0100     		.2byte	0x1
 20692 32a5 50       		.byte	0x50
 20693 32a6 08000000 		.4byte	.LVL31
 20694 32aa A8000000 		.4byte	.LFE2
 20695 32ae 0400     		.2byte	0x4
ARM GAS  /tmp/cchqCFfA.s 			page 367


 20696 32b0 F3       		.byte	0xf3
 20697 32b1 01       		.uleb128 0x1
 20698 32b2 50       		.byte	0x50
 20699 32b3 9F       		.byte	0x9f
 20700 32b4 00000000 		.4byte	0
 20701 32b8 00000000 		.4byte	0
 20702              	.LVUS17:
 20703 32bc 01       		.uleb128 .LVU106
 20704 32bd 00       		.uleb128 .LVU110
 20705 32be 01       		.uleb128 .LVU130
 20706 32bf 00       		.uleb128 .LVU134
 20707              	.LLST17:
 20708 32c0 1A000000 		.4byte	.LVL32
 20709 32c4 24000000 		.4byte	.LVL33
 20710 32c8 0500     		.2byte	0x5
 20711 32ca 70       		.byte	0x70
 20712 32cb 00       		.sleb128 0
 20713 32cc 37       		.byte	0x37
 20714 32cd 26       		.byte	0x26
 20715 32ce 9F       		.byte	0x9f
 20716 32cf 60000000 		.4byte	.LVL40
 20717 32d3 6A000000 		.4byte	.LVL41
 20718 32d7 0500     		.2byte	0x5
 20719 32d9 70       		.byte	0x70
 20720 32da 00       		.sleb128 0
 20721 32db 37       		.byte	0x37
 20722 32dc 26       		.byte	0x26
 20723 32dd 9F       		.byte	0x9f
 20724 32de 00000000 		.4byte	0
 20725 32e2 00000000 		.4byte	0
 20726              	.LVUS18:
 20727 32e6 00       		.uleb128 .LVU110
 20728 32e7 00       		.uleb128 .LVU117
 20729 32e8 00       		.uleb128 .LVU134
 20730 32e9 00       		.uleb128 .LVU142
 20731              	.LLST18:
 20732 32ea 24000000 		.4byte	.LVL33
 20733 32ee 38000000 		.4byte	.LVL36
 20734 32f2 0100     		.2byte	0x1
 20735 32f4 50       		.byte	0x50
 20736 32f5 6A000000 		.4byte	.LVL41
 20737 32f9 7E000000 		.4byte	.LVL44
 20738 32fd 0100     		.2byte	0x1
 20739 32ff 50       		.byte	0x50
 20740 3300 00000000 		.4byte	0
 20741 3304 00000000 		.4byte	0
 20742              	.LVUS19:
 20743 3308 00       		.uleb128 .LVU105
 20744 3309 00       		.uleb128 .LVU118
 20745 330a 00       		.uleb128 .LVU129
 20746 330b 00       		.uleb128 .LVU144
 20747              	.LLST19:
 20748 330c 1A000000 		.4byte	.LVL32
 20749 3310 3C000000 		.4byte	.LVL37
 20750 3314 0200     		.2byte	0x2
 20751 3316 30       		.byte	0x30
 20752 3317 9F       		.byte	0x9f
ARM GAS  /tmp/cchqCFfA.s 			page 368


 20753 3318 60000000 		.4byte	.LVL40
 20754 331c 86000000 		.4byte	.LVL45
 20755 3320 0200     		.2byte	0x2
 20756 3322 31       		.byte	0x31
 20757 3323 9F       		.byte	0x9f
 20758 3324 00000000 		.4byte	0
 20759 3328 00000000 		.4byte	0
 20760              	.LVUS20:
 20761 332c 00       		.uleb128 .LVU105
 20762 332d 00       		.uleb128 .LVU110
 20763 332e 00       		.uleb128 .LVU123
 20764 332f 00       		.uleb128 .LVU124
 20765 3330 00       		.uleb128 .LVU129
 20766 3331 00       		.uleb128 .LVU134
 20767 3332 00       		.uleb128 .LVU149
 20768 3333 00       		.uleb128 .LVU150
 20769              	.LLST20:
 20770 3334 1A000000 		.4byte	.LVL32
 20771 3338 24000000 		.4byte	.LVL33
 20772 333c 0100     		.2byte	0x1
 20773 333e 50       		.byte	0x50
 20774 333f 52000000 		.4byte	.LVL38
 20775 3343 54000000 		.4byte	.LVL39
 20776 3347 0100     		.2byte	0x1
 20777 3349 50       		.byte	0x50
 20778 334a 60000000 		.4byte	.LVL40
 20779 334e 6A000000 		.4byte	.LVL41
 20780 3352 0100     		.2byte	0x1
 20781 3354 50       		.byte	0x50
 20782 3355 8C000000 		.4byte	.LVL46
 20783 3359 8E000000 		.4byte	.LVL47
 20784 335d 0100     		.2byte	0x1
 20785 335f 50       		.byte	0x50
 20786 3360 00000000 		.4byte	0
 20787 3364 00000000 		.4byte	0
 20788              	.LVUS21:
 20789 3368 01       		.uleb128 .LVU111
 20790 3369 00       		.uleb128 .LVU113
 20791 336a 00       		.uleb128 .LVU113
 20792 336b 00       		.uleb128 .LVU115
 20793 336c 01       		.uleb128 .LVU135
 20794 336d 00       		.uleb128 .LVU138
 20795 336e 00       		.uleb128 .LVU138
 20796 336f 00       		.uleb128 .LVU140
 20797              	.LLST21:
 20798 3370 24000000 		.4byte	.LVL33
 20799 3374 28000000 		.4byte	.LVL34
 20800 3378 3500     		.2byte	0x35
 20801 337a 71       		.byte	0x71
 20802 337b 00       		.sleb128 0
 20803 337c 31       		.byte	0x31
 20804 337d 24       		.byte	0x24
 20805 337e 03       		.byte	0x3
 20806 337f 00000000 		.4byte	aseba_sin_table
 20807 3383 22       		.byte	0x22
 20808 3384 94       		.byte	0x94
 20809 3385 02       		.byte	0x2
ARM GAS  /tmp/cchqCFfA.s 			page 369


 20810 3386 40       		.byte	0x40
 20811 3387 24       		.byte	0x24
 20812 3388 40       		.byte	0x40
 20813 3389 26       		.byte	0x26
 20814 338a 70       		.byte	0x70
 20815 338b 00       		.sleb128 0
 20816 338c 40       		.byte	0x40
 20817 338d 24       		.byte	0x24
 20818 338e 40       		.byte	0x40
 20819 338f 26       		.byte	0x26
 20820 3390 1E       		.byte	0x1e
 20821 3391 08       		.byte	0x8
 20822 3392 80       		.byte	0x80
 20823 3393 70       		.byte	0x70
 20824 3394 00       		.sleb128 0
 20825 3395 40       		.byte	0x40
 20826 3396 24       		.byte	0x24
 20827 3397 40       		.byte	0x40
 20828 3398 26       		.byte	0x26
 20829 3399 1C       		.byte	0x1c
 20830 339a 72       		.byte	0x72
 20831 339b 00       		.sleb128 0
 20832 339c 31       		.byte	0x31
 20833 339d 24       		.byte	0x24
 20834 339e 03       		.byte	0x3
 20835 339f 00000000 		.4byte	aseba_sin_table
 20836 33a3 22       		.byte	0x22
 20837 33a4 94       		.byte	0x94
 20838 33a5 02       		.byte	0x2
 20839 33a6 40       		.byte	0x40
 20840 33a7 24       		.byte	0x24
 20841 33a8 40       		.byte	0x40
 20842 33a9 26       		.byte	0x26
 20843 33aa 1E       		.byte	0x1e
 20844 33ab 22       		.byte	0x22
 20845 33ac 37       		.byte	0x37
 20846 33ad 26       		.byte	0x26
 20847 33ae 9F       		.byte	0x9f
 20848 33af 28000000 		.4byte	.LVL34
 20849 33b3 30000000 		.4byte	.LVL35
 20850 33b7 3500     		.2byte	0x35
 20851 33b9 71       		.byte	0x71
 20852 33ba 00       		.sleb128 0
 20853 33bb 31       		.byte	0x31
 20854 33bc 24       		.byte	0x24
 20855 33bd 03       		.byte	0x3
 20856 33be 00000000 		.4byte	aseba_sin_table
 20857 33c2 22       		.byte	0x22
 20858 33c3 94       		.byte	0x94
 20859 33c4 02       		.byte	0x2
 20860 33c5 40       		.byte	0x40
 20861 33c6 24       		.byte	0x24
 20862 33c7 40       		.byte	0x40
 20863 33c8 26       		.byte	0x26
 20864 33c9 70       		.byte	0x70
 20865 33ca 00       		.sleb128 0
 20866 33cb 40       		.byte	0x40
ARM GAS  /tmp/cchqCFfA.s 			page 370


 20867 33cc 24       		.byte	0x24
 20868 33cd 40       		.byte	0x40
 20869 33ce 26       		.byte	0x26
 20870 33cf 1E       		.byte	0x1e
 20871 33d0 08       		.byte	0x8
 20872 33d1 80       		.byte	0x80
 20873 33d2 70       		.byte	0x70
 20874 33d3 00       		.sleb128 0
 20875 33d4 40       		.byte	0x40
 20876 33d5 24       		.byte	0x24
 20877 33d6 40       		.byte	0x40
 20878 33d7 26       		.byte	0x26
 20879 33d8 1C       		.byte	0x1c
 20880 33d9 71       		.byte	0x71
 20881 33da 7F       		.sleb128 -1
 20882 33db 31       		.byte	0x31
 20883 33dc 24       		.byte	0x24
 20884 33dd 03       		.byte	0x3
 20885 33de 00000000 		.4byte	aseba_sin_table
 20886 33e2 22       		.byte	0x22
 20887 33e3 94       		.byte	0x94
 20888 33e4 02       		.byte	0x2
 20889 33e5 40       		.byte	0x40
 20890 33e6 24       		.byte	0x24
 20891 33e7 40       		.byte	0x40
 20892 33e8 26       		.byte	0x26
 20893 33e9 1E       		.byte	0x1e
 20894 33ea 22       		.byte	0x22
 20895 33eb 37       		.byte	0x37
 20896 33ec 26       		.byte	0x26
 20897 33ed 9F       		.byte	0x9f
 20898 33ee 6A000000 		.4byte	.LVL41
 20899 33f2 6E000000 		.4byte	.LVL42
 20900 33f6 3500     		.2byte	0x35
 20901 33f8 71       		.byte	0x71
 20902 33f9 00       		.sleb128 0
 20903 33fa 31       		.byte	0x31
 20904 33fb 24       		.byte	0x24
 20905 33fc 03       		.byte	0x3
 20906 33fd 00000000 		.4byte	aseba_sin_table
 20907 3401 22       		.byte	0x22
 20908 3402 94       		.byte	0x94
 20909 3403 02       		.byte	0x2
 20910 3404 40       		.byte	0x40
 20911 3405 24       		.byte	0x24
 20912 3406 40       		.byte	0x40
 20913 3407 26       		.byte	0x26
 20914 3408 70       		.byte	0x70
 20915 3409 00       		.sleb128 0
 20916 340a 40       		.byte	0x40
 20917 340b 24       		.byte	0x24
 20918 340c 40       		.byte	0x40
 20919 340d 26       		.byte	0x26
 20920 340e 1E       		.byte	0x1e
 20921 340f 08       		.byte	0x8
 20922 3410 80       		.byte	0x80
 20923 3411 70       		.byte	0x70
ARM GAS  /tmp/cchqCFfA.s 			page 371


 20924 3412 00       		.sleb128 0
 20925 3413 40       		.byte	0x40
 20926 3414 24       		.byte	0x24
 20927 3415 40       		.byte	0x40
 20928 3416 26       		.byte	0x26
 20929 3417 1C       		.byte	0x1c
 20930 3418 72       		.byte	0x72
 20931 3419 00       		.sleb128 0
 20932 341a 31       		.byte	0x31
 20933 341b 24       		.byte	0x24
 20934 341c 03       		.byte	0x3
 20935 341d 00000000 		.4byte	aseba_sin_table
 20936 3421 22       		.byte	0x22
 20937 3422 94       		.byte	0x94
 20938 3423 02       		.byte	0x2
 20939 3424 40       		.byte	0x40
 20940 3425 24       		.byte	0x24
 20941 3426 40       		.byte	0x40
 20942 3427 26       		.byte	0x26
 20943 3428 1E       		.byte	0x1e
 20944 3429 22       		.byte	0x22
 20945 342a 37       		.byte	0x37
 20946 342b 26       		.byte	0x26
 20947 342c 9F       		.byte	0x9f
 20948 342d 6E000000 		.4byte	.LVL42
 20949 3431 76000000 		.4byte	.LVL43
 20950 3435 3500     		.2byte	0x35
 20951 3437 71       		.byte	0x71
 20952 3438 00       		.sleb128 0
 20953 3439 31       		.byte	0x31
 20954 343a 24       		.byte	0x24
 20955 343b 03       		.byte	0x3
 20956 343c 00000000 		.4byte	aseba_sin_table
 20957 3440 22       		.byte	0x22
 20958 3441 94       		.byte	0x94
 20959 3442 02       		.byte	0x2
 20960 3443 40       		.byte	0x40
 20961 3444 24       		.byte	0x24
 20962 3445 40       		.byte	0x40
 20963 3446 26       		.byte	0x26
 20964 3447 70       		.byte	0x70
 20965 3448 00       		.sleb128 0
 20966 3449 40       		.byte	0x40
 20967 344a 24       		.byte	0x24
 20968 344b 40       		.byte	0x40
 20969 344c 26       		.byte	0x26
 20970 344d 1E       		.byte	0x1e
 20971 344e 08       		.byte	0x8
 20972 344f 80       		.byte	0x80
 20973 3450 70       		.byte	0x70
 20974 3451 00       		.sleb128 0
 20975 3452 40       		.byte	0x40
 20976 3453 24       		.byte	0x24
 20977 3454 40       		.byte	0x40
 20978 3455 26       		.byte	0x26
 20979 3456 1C       		.byte	0x1c
 20980 3457 71       		.byte	0x71
ARM GAS  /tmp/cchqCFfA.s 			page 372


 20981 3458 7F       		.sleb128 -1
 20982 3459 31       		.byte	0x31
 20983 345a 24       		.byte	0x24
 20984 345b 03       		.byte	0x3
 20985 345c 00000000 		.4byte	aseba_sin_table
 20986 3460 22       		.byte	0x22
 20987 3461 94       		.byte	0x94
 20988 3462 02       		.byte	0x2
 20989 3463 40       		.byte	0x40
 20990 3464 24       		.byte	0x24
 20991 3465 40       		.byte	0x40
 20992 3466 26       		.byte	0x26
 20993 3467 1E       		.byte	0x1e
 20994 3468 22       		.byte	0x22
 20995 3469 37       		.byte	0x37
 20996 346a 26       		.byte	0x26
 20997 346b 9F       		.byte	0x9f
 20998 346c 00000000 		.4byte	0
 20999 3470 00000000 		.4byte	0
 21000              	.LVUS0:
 21001 3474 00       		.uleb128 0
 21002 3475 00       		.uleb128 .LVU12
 21003 3476 00       		.uleb128 .LVU12
 21004 3477 00       		.uleb128 .LVU61
 21005 3478 00       		.uleb128 .LVU61
 21006 3479 00       		.uleb128 .LVU63
 21007 347a 00       		.uleb128 .LVU63
 21008 347b 00       		.uleb128 0
 21009              	.LLST0:
 21010 347c 00000000 		.4byte	.LVL0
 21011 3480 22000000 		.4byte	.LVL2
 21012 3484 0100     		.2byte	0x1
 21013 3486 50       		.byte	0x50
 21014 3487 22000000 		.4byte	.LVL2
 21015 348b 8E000000 		.4byte	.LVL18
 21016 348f 0400     		.2byte	0x4
 21017 3491 F3       		.byte	0xf3
 21018 3492 01       		.uleb128 0x1
 21019 3493 50       		.byte	0x50
 21020 3494 9F       		.byte	0x9f
 21021 3495 8E000000 		.4byte	.LVL18
 21022 3499 92000000 		.4byte	.LVL19
 21023 349d 0100     		.2byte	0x1
 21024 349f 50       		.byte	0x50
 21025 34a0 92000000 		.4byte	.LVL19
 21026 34a4 C4000000 		.4byte	.LFE31
 21027 34a8 0400     		.2byte	0x4
 21028 34aa F3       		.byte	0xf3
 21029 34ab 01       		.uleb128 0x1
 21030 34ac 50       		.byte	0x50
 21031 34ad 9F       		.byte	0x9f
 21032 34ae 00000000 		.4byte	0
 21033 34b2 00000000 		.4byte	0
 21034              	.LVUS1:
 21035 34b6 00       		.uleb128 0
 21036 34b7 00       		.uleb128 .LVU76
 21037 34b8 00       		.uleb128 .LVU76
ARM GAS  /tmp/cchqCFfA.s 			page 373


 21038 34b9 00       		.uleb128 0
 21039              	.LLST1:
 21040 34ba 00000000 		.4byte	.LVL0
 21041 34be B9000000 		.4byte	.LVL24-1
 21042 34c2 0100     		.2byte	0x1
 21043 34c4 51       		.byte	0x51
 21044 34c5 B9000000 		.4byte	.LVL24-1
 21045 34c9 C4000000 		.4byte	.LFE31
 21046 34cd 0400     		.2byte	0x4
 21047 34cf F3       		.byte	0xf3
 21048 34d0 01       		.uleb128 0x1
 21049 34d1 51       		.byte	0x51
 21050 34d2 9F       		.byte	0x9f
 21051 34d3 00000000 		.4byte	0
 21052 34d7 00000000 		.4byte	0
 21053              	.LVUS2:
 21054 34db 00       		.uleb128 .LVU54
 21055 34dc 00       		.uleb128 .LVU59
 21056 34dd 00       		.uleb128 .LVU60
 21057 34de 00       		.uleb128 .LVU61
 21058 34df 00       		.uleb128 .LVU63
 21059 34e0 00       		.uleb128 .LVU68
 21060 34e1 00       		.uleb128 .LVU73
 21061 34e2 00       		.uleb128 .LVU74
 21062              	.LLST2:
 21063 34e3 82000000 		.4byte	.LVL15
 21064 34e7 8A000000 		.4byte	.LVL16
 21065 34eb 0100     		.2byte	0x1
 21066 34ed 50       		.byte	0x50
 21067 34ee 8C000000 		.4byte	.LVL17
 21068 34f2 8E000000 		.4byte	.LVL18
 21069 34f6 0100     		.2byte	0x1
 21070 34f8 50       		.byte	0x50
 21071 34f9 92000000 		.4byte	.LVL19
 21072 34fd 9A000000 		.4byte	.LVL20
 21073 3501 0100     		.2byte	0x1
 21074 3503 50       		.byte	0x50
 21075 3504 B4000000 		.4byte	.LVL22
 21076 3508 B6000000 		.4byte	.LVL23
 21077 350c 0100     		.2byte	0x1
 21078 350e 50       		.byte	0x50
 21079 350f 00000000 		.4byte	0
 21080 3513 00000000 		.4byte	0
 21081              	.LVUS3:
 21082 3517 02       		.uleb128 .LVU5
 21083 3518 00       		.uleb128 .LVU76
 21084 3519 00       		.uleb128 .LVU76
 21085 351a 00       		.uleb128 0
 21086              	.LLST3:
 21087 351b 10000000 		.4byte	.LVL1
 21088 351f B9000000 		.4byte	.LVL24-1
 21089 3523 0400     		.2byte	0x4
 21090 3525 71       		.byte	0x71
 21091 3526 00       		.sleb128 0
 21092 3527 19       		.byte	0x19
 21093 3528 9F       		.byte	0x9f
 21094 3529 B9000000 		.4byte	.LVL24-1
ARM GAS  /tmp/cchqCFfA.s 			page 374


 21095 352d C4000000 		.4byte	.LFE31
 21096 3531 0500     		.2byte	0x5
 21097 3533 F3       		.byte	0xf3
 21098 3534 01       		.uleb128 0x1
 21099 3535 51       		.byte	0x51
 21100 3536 19       		.byte	0x19
 21101 3537 9F       		.byte	0x9f
 21102 3538 00000000 		.4byte	0
 21103 353c 00000000 		.4byte	0
 21104              	.LVUS4:
 21105 3540 03       		.uleb128 .LVU6
 21106 3541 00       		.uleb128 .LVU12
 21107 3542 00       		.uleb128 .LVU12
 21108 3543 00       		.uleb128 .LVU61
 21109 3544 00       		.uleb128 .LVU61
 21110 3545 00       		.uleb128 .LVU63
 21111 3546 00       		.uleb128 .LVU63
 21112 3547 00       		.uleb128 0
 21113              	.LLST4:
 21114 3548 10000000 		.4byte	.LVL1
 21115 354c 22000000 		.4byte	.LVL2
 21116 3550 0400     		.2byte	0x4
 21117 3552 70       		.byte	0x70
 21118 3553 00       		.sleb128 0
 21119 3554 19       		.byte	0x19
 21120 3555 9F       		.byte	0x9f
 21121 3556 22000000 		.4byte	.LVL2
 21122 355a 8E000000 		.4byte	.LVL18
 21123 355e 0500     		.2byte	0x5
 21124 3560 F3       		.byte	0xf3
 21125 3561 01       		.uleb128 0x1
 21126 3562 50       		.byte	0x50
 21127 3563 19       		.byte	0x19
 21128 3564 9F       		.byte	0x9f
 21129 3565 8E000000 		.4byte	.LVL18
 21130 3569 92000000 		.4byte	.LVL19
 21131 356d 0400     		.2byte	0x4
 21132 356f 70       		.byte	0x70
 21133 3570 00       		.sleb128 0
 21134 3571 19       		.byte	0x19
 21135 3572 9F       		.byte	0x9f
 21136 3573 92000000 		.4byte	.LVL19
 21137 3577 C4000000 		.4byte	.LFE31
 21138 357b 0500     		.2byte	0x5
 21139 357d F3       		.byte	0xf3
 21140 357e 01       		.uleb128 0x1
 21141 357f 50       		.byte	0x50
 21142 3580 19       		.byte	0x19
 21143 3581 9F       		.byte	0x9f
 21144 3582 00000000 		.4byte	0
 21145 3586 00000000 		.4byte	0
 21146              	.LVUS5:
 21147 358a 00       		.uleb128 .LVU17
 21148 358b 00       		.uleb128 .LVU61
 21149 358c 00       		.uleb128 .LVU70
 21150 358d 00       		.uleb128 .LVU74
 21151              	.LLST5:
ARM GAS  /tmp/cchqCFfA.s 			page 375


 21152 358e 30000000 		.4byte	.LVL3
 21153 3592 8E000000 		.4byte	.LVL18
 21154 3596 0100     		.2byte	0x1
 21155 3598 55       		.byte	0x55
 21156 3599 A8000000 		.4byte	.LVL21
 21157 359d B6000000 		.4byte	.LVL23
 21158 35a1 0100     		.2byte	0x1
 21159 35a3 55       		.byte	0x55
 21160 35a4 00000000 		.4byte	0
 21161 35a8 00000000 		.4byte	0
 21162              	.LVUS6:
 21163 35ac 01       		.uleb128 .LVU18
 21164 35ad 04       		.uleb128 .LVU21
 21165 35ae 00       		.uleb128 .LVU22
 21166 35af 00       		.uleb128 .LVU43
 21167 35b0 00       		.uleb128 .LVU70
 21168 35b1 00       		.uleb128 .LVU74
 21169              	.LLST6:
 21170 35b2 30000000 		.4byte	.LVL3
 21171 35b6 30000000 		.4byte	.LVL3
 21172 35ba 0200     		.2byte	0x2
 21173 35bc 30       		.byte	0x30
 21174 35bd 9F       		.byte	0x9f
 21175 35be 36000000 		.4byte	.LVL4
 21176 35c2 5E000000 		.4byte	.LVL11
 21177 35c6 0100     		.2byte	0x1
 21178 35c8 52       		.byte	0x52
 21179 35c9 A8000000 		.4byte	.LVL21
 21180 35cd B6000000 		.4byte	.LVL23
 21181 35d1 0100     		.2byte	0x1
 21182 35d3 52       		.byte	0x52
 21183 35d4 00000000 		.4byte	0
 21184 35d8 00000000 		.4byte	0
 21185              	.LVUS7:
 21186 35dc 03       		.uleb128 .LVU20
 21187 35dd 04       		.uleb128 .LVU21
 21188 35de 00       		.uleb128 .LVU22
 21189 35df 01       		.uleb128 .LVU25
 21190              	.LLST7:
 21191 35e0 30000000 		.4byte	.LVL3
 21192 35e4 30000000 		.4byte	.LVL3
 21193 35e8 0200     		.2byte	0x2
 21194 35ea 30       		.byte	0x30
 21195 35eb 9F       		.byte	0x9f
 21196 35ec 36000000 		.4byte	.LVL4
 21197 35f0 3E000000 		.4byte	.LVL5
 21198 35f4 0100     		.2byte	0x1
 21199 35f6 54       		.byte	0x54
 21200 35f7 00000000 		.4byte	0
 21201 35fb 00000000 		.4byte	0
 21202              	.LVUS8:
 21203 35ff 00       		.uleb128 .LVU30
 21204 3600 00       		.uleb128 .LVU44
 21205 3601 00       		.uleb128 .LVU70
 21206 3602 00       		.uleb128 .LVU74
 21207              	.LLST8:
 21208 3603 4A000000 		.4byte	.LVL6
ARM GAS  /tmp/cchqCFfA.s 			page 376


 21209 3607 62000000 		.4byte	.LVL12
 21210 360b 0100     		.2byte	0x1
 21211 360d 54       		.byte	0x54
 21212 360e A8000000 		.4byte	.LVL21
 21213 3612 B6000000 		.4byte	.LVL23
 21214 3616 0100     		.2byte	0x1
 21215 3618 54       		.byte	0x54
 21216 3619 00000000 		.4byte	0
 21217 361d 00000000 		.4byte	0
 21218              	.LVUS9:
 21219 3621 01       		.uleb128 .LVU33
 21220 3622 00       		.uleb128 .LVU43
 21221              	.LLST9:
 21222 3623 4E000000 		.4byte	.LVL7
 21223 3627 5E000000 		.4byte	.LVL11
 21224 362b 0C00     		.2byte	0xc
 21225 362d 75       		.byte	0x75
 21226 362e 00       		.sleb128 0
 21227 362f 31       		.byte	0x31
 21228 3630 72       		.byte	0x72
 21229 3631 00       		.sleb128 0
 21230 3632 40       		.byte	0x40
 21231 3633 24       		.byte	0x24
 21232 3634 40       		.byte	0x40
 21233 3635 26       		.byte	0x26
 21234 3636 24       		.byte	0x24
 21235 3637 1C       		.byte	0x1c
 21236 3638 9F       		.byte	0x9f
 21237 3639 00000000 		.4byte	0
 21238 363d 00000000 		.4byte	0
 21239              	.LVUS10:
 21240 3641 02       		.uleb128 .LVU34
 21241 3642 00       		.uleb128 .LVU37
 21242 3643 00       		.uleb128 .LVU37
 21243 3644 00       		.uleb128 .LVU38
 21244 3645 00       		.uleb128 .LVU38
 21245 3646 00       		.uleb128 .LVU43
 21246              	.LLST10:
 21247 3647 4E000000 		.4byte	.LVL7
 21248 364b 54000000 		.4byte	.LVL8
 21249 364f 0300     		.2byte	0x3
 21250 3651 70       		.byte	0x70
 21251 3652 78       		.sleb128 -8
 21252 3653 9F       		.byte	0x9f
 21253 3654 54000000 		.4byte	.LVL8
 21254 3658 56000000 		.4byte	.LVL9
 21255 365c 0300     		.2byte	0x3
 21256 365e 70       		.byte	0x70
 21257 365f 00       		.sleb128 0
 21258 3660 9F       		.byte	0x9f
 21259 3661 56000000 		.4byte	.LVL9
 21260 3665 5E000000 		.4byte	.LVL11
 21261 3669 0300     		.2byte	0x3
 21262 366b 72       		.byte	0x72
 21263 366c 78       		.sleb128 -8
 21264 366d 9F       		.byte	0x9f
 21265 366e 00000000 		.4byte	0
ARM GAS  /tmp/cchqCFfA.s 			page 377


 21266 3672 00000000 		.4byte	0
 21267              	.LVUS11:
 21268 3676 00       		.uleb128 .LVU40
 21269 3677 00       		.uleb128 .LVU47
 21270              	.LLST11:
 21271 3678 5A000000 		.4byte	.LVL10
 21272 367c 6A000000 		.4byte	.LVL13
 21273 3680 0100     		.2byte	0x1
 21274 3682 53       		.byte	0x53
 21275 3683 00000000 		.4byte	0
 21276 3687 00000000 		.4byte	0
 21277              	.LVUS12:
 21278 368b 01       		.uleb128 .LVU41
 21279 368c 00       		.uleb128 .LVU47
 21280              	.LLST12:
 21281 368d 5A000000 		.4byte	.LVL10
 21282 3691 6A000000 		.4byte	.LVL13
 21283 3695 0500     		.2byte	0x5
 21284 3697 73       		.byte	0x73
 21285 3698 00       		.sleb128 0
 21286 3699 35       		.byte	0x35
 21287 369a 26       		.byte	0x26
 21288 369b 9F       		.byte	0x9f
 21289 369c 00000000 		.4byte	0
 21290 36a0 00000000 		.4byte	0
 21291              	.LVUS13:
 21292 36a4 00       		.uleb128 .LVU47
 21293 36a5 00       		.uleb128 .LVU52
 21294              	.LLST13:
 21295 36a6 6A000000 		.4byte	.LVL13
 21296 36aa 7A000000 		.4byte	.LVL14
 21297 36ae 0100     		.2byte	0x1
 21298 36b0 53       		.byte	0x53
 21299 36b1 00000000 		.4byte	0
 21300 36b5 00000000 		.4byte	0
 21301              	.LVUS14:
 21302 36b9 00       		.uleb128 0
 21303 36ba 00       		.uleb128 .LVU86
 21304 36bb 00       		.uleb128 .LVU86
 21305 36bc 00       		.uleb128 .LVU88
 21306 36bd 00       		.uleb128 .LVU88
 21307 36be 00       		.uleb128 .LVU89
 21308 36bf 00       		.uleb128 .LVU89
 21309 36c0 00       		.uleb128 0
 21310              	.LLST14:
 21311 36c1 00000000 		.4byte	.LVL25
 21312 36c5 18000000 		.4byte	.LVL26
 21313 36c9 0100     		.2byte	0x1
 21314 36cb 50       		.byte	0x50
 21315 36cc 18000000 		.4byte	.LVL26
 21316 36d0 2A000000 		.4byte	.LVL27
 21317 36d4 0400     		.2byte	0x4
 21318 36d6 F3       		.byte	0xf3
 21319 36d7 01       		.uleb128 0x1
 21320 36d8 50       		.byte	0x50
 21321 36d9 9F       		.byte	0x9f
 21322 36da 2A000000 		.4byte	.LVL27
ARM GAS  /tmp/cchqCFfA.s 			page 378


 21323 36de 3D000000 		.4byte	.LVL28-1
 21324 36e2 0100     		.2byte	0x1
 21325 36e4 50       		.byte	0x50
 21326 36e5 3D000000 		.4byte	.LVL28-1
 21327 36e9 48000000 		.4byte	.LFE1
 21328 36ed 0400     		.2byte	0x4
 21329 36ef F3       		.byte	0xf3
 21330 36f0 01       		.uleb128 0x1
 21331 36f1 50       		.byte	0x50
 21332 36f2 9F       		.byte	0x9f
 21333 36f3 00000000 		.4byte	0
 21334 36f7 00000000 		.4byte	0
 21335              	.LVUS15:
 21336 36fb 00       		.uleb128 0
 21337 36fc 00       		.uleb128 .LVU89
 21338 36fd 00       		.uleb128 .LVU89
 21339 36fe 00       		.uleb128 .LVU89
 21340 36ff 00       		.uleb128 .LVU89
 21341 3700 00       		.uleb128 .LVU90
 21342 3701 00       		.uleb128 .LVU90
 21343 3702 00       		.uleb128 0
 21344              	.LLST15:
 21345 3703 00000000 		.4byte	.LVL25
 21346 3707 3D000000 		.4byte	.LVL28-1
 21347 370b 0100     		.2byte	0x1
 21348 370d 51       		.byte	0x51
 21349 370e 3D000000 		.4byte	.LVL28-1
 21350 3712 3E000000 		.4byte	.LVL28
 21351 3716 0400     		.2byte	0x4
 21352 3718 F3       		.byte	0xf3
 21353 3719 01       		.uleb128 0x1
 21354 371a 51       		.byte	0x51
 21355 371b 9F       		.byte	0x9f
 21356 371c 3E000000 		.4byte	.LVL28
 21357 3720 41000000 		.4byte	.LVL29-1
 21358 3724 0100     		.2byte	0x1
 21359 3726 51       		.byte	0x51
 21360 3727 41000000 		.4byte	.LVL29-1
 21361 372b 48000000 		.4byte	.LFE1
 21362 372f 0400     		.2byte	0x4
 21363 3731 F3       		.byte	0xf3
 21364 3732 01       		.uleb128 0x1
 21365 3733 51       		.byte	0x51
 21366 3734 9F       		.byte	0x9f
 21367 3735 00000000 		.4byte	0
 21368 3739 00000000 		.4byte	0
 21369              	.LVUS22:
 21370 373d 00       		.uleb128 0
 21371 373e 00       		.uleb128 .LVU159
 21372 373f 00       		.uleb128 .LVU159
 21373 3740 00       		.uleb128 .LVU162
 21374 3741 00       		.uleb128 .LVU162
 21375 3742 00       		.uleb128 .LVU163
 21376 3743 00       		.uleb128 .LVU163
 21377 3744 00       		.uleb128 0
 21378              	.LLST22:
 21379 3745 00000000 		.4byte	.LVL49
ARM GAS  /tmp/cchqCFfA.s 			page 379


 21380 3749 1C000000 		.4byte	.LVL50
 21381 374d 0100     		.2byte	0x1
 21382 374f 50       		.byte	0x50
 21383 3750 1C000000 		.4byte	.LVL50
 21384 3754 28000000 		.4byte	.LVL51
 21385 3758 0400     		.2byte	0x4
 21386 375a F3       		.byte	0xf3
 21387 375b 01       		.uleb128 0x1
 21388 375c 50       		.byte	0x50
 21389 375d 9F       		.byte	0x9f
 21390 375e 28000000 		.4byte	.LVL51
 21391 3762 2B000000 		.4byte	.LVL52-1
 21392 3766 0100     		.2byte	0x1
 21393 3768 50       		.byte	0x50
 21394 3769 2B000000 		.4byte	.LVL52-1
 21395 376d 30000000 		.4byte	.LFE3
 21396 3771 0400     		.2byte	0x4
 21397 3773 F3       		.byte	0xf3
 21398 3774 01       		.uleb128 0x1
 21399 3775 50       		.byte	0x50
 21400 3776 9F       		.byte	0x9f
 21401 3777 00000000 		.4byte	0
 21402 377b 00000000 		.4byte	0
 21403              	.LVUS23:
 21404 377f 00       		.uleb128 0
 21405 3780 00       		.uleb128 .LVU181
 21406 3781 00       		.uleb128 .LVU181
 21407 3782 00       		.uleb128 .LVU202
 21408 3783 00       		.uleb128 .LVU202
 21409 3784 00       		.uleb128 .LVU203
 21410 3785 00       		.uleb128 .LVU203
 21411 3786 00       		.uleb128 0
 21412              	.LLST23:
 21413 3787 00000000 		.4byte	.LVL53
 21414 378b 24000000 		.4byte	.LVL59
 21415 378f 0100     		.2byte	0x1
 21416 3791 50       		.byte	0x50
 21417 3792 24000000 		.4byte	.LVL59
 21418 3796 54000000 		.4byte	.LVL69
 21419 379a 0400     		.2byte	0x4
 21420 379c F3       		.byte	0xf3
 21421 379d 01       		.uleb128 0x1
 21422 379e 50       		.byte	0x50
 21423 379f 9F       		.byte	0x9f
 21424 37a0 54000000 		.4byte	.LVL69
 21425 37a4 56000000 		.4byte	.LVL70
 21426 37a8 0100     		.2byte	0x1
 21427 37aa 50       		.byte	0x50
 21428 37ab 56000000 		.4byte	.LVL70
 21429 37af 60000000 		.4byte	.LFE4
 21430 37b3 0400     		.2byte	0x4
 21431 37b5 F3       		.byte	0xf3
 21432 37b6 01       		.uleb128 0x1
 21433 37b7 50       		.byte	0x50
 21434 37b8 9F       		.byte	0x9f
 21435 37b9 00000000 		.4byte	0
 21436 37bd 00000000 		.4byte	0
ARM GAS  /tmp/cchqCFfA.s 			page 380


 21437              	.LVUS24:
 21438 37c1 01       		.uleb128 .LVU169
 21439 37c2 00       		.uleb128 .LVU179
 21440 37c3 00       		.uleb128 .LVU179
 21441 37c4 00       		.uleb128 .LVU180
 21442 37c5 00       		.uleb128 .LVU182
 21443 37c6 00       		.uleb128 .LVU185
 21444 37c7 00       		.uleb128 .LVU188
 21445 37c8 00       		.uleb128 .LVU205
 21446              	.LLST24:
 21447 37c9 12000000 		.4byte	.LVL54
 21448 37cd 20000000 		.4byte	.LVL57
 21449 37d1 0100     		.2byte	0x1
 21450 37d3 50       		.byte	0x50
 21451 37d4 20000000 		.4byte	.LVL57
 21452 37d8 22000000 		.4byte	.LVL58
 21453 37dc 0100     		.2byte	0x1
 21454 37de 51       		.byte	0x51
 21455 37df 26000000 		.4byte	.LVL60
 21456 37e3 2C000000 		.4byte	.LVL61
 21457 37e7 0100     		.2byte	0x1
 21458 37e9 51       		.byte	0x51
 21459 37ea 34000000 		.4byte	.LVL63
 21460 37ee 5B000000 		.4byte	.LVL72-1
 21461 37f2 0100     		.2byte	0x1
 21462 37f4 51       		.byte	0x51
 21463 37f5 00000000 		.4byte	0
 21464 37f9 00000000 		.4byte	0
 21465              	.LVUS25:
 21466 37fd 02       		.uleb128 .LVU170
 21467 37fe 00       		.uleb128 .LVU180
 21468 37ff 00       		.uleb128 .LVU182
 21469 3800 00       		.uleb128 .LVU200
 21470 3801 00       		.uleb128 .LVU202
 21471 3802 00       		.uleb128 .LVU204
 21472              	.LLST25:
 21473 3803 12000000 		.4byte	.LVL54
 21474 3807 22000000 		.4byte	.LVL58
 21475 380b 0200     		.2byte	0x2
 21476 380d 30       		.byte	0x30
 21477 380e 9F       		.byte	0x9f
 21478 380f 26000000 		.4byte	.LVL60
 21479 3813 46000000 		.4byte	.LVL68
 21480 3817 0100     		.2byte	0x1
 21481 3819 50       		.byte	0x50
 21482 381a 54000000 		.4byte	.LVL69
 21483 381e 58000000 		.4byte	.LVL71
 21484 3822 0200     		.2byte	0x2
 21485 3824 30       		.byte	0x30
 21486 3825 9F       		.byte	0x9f
 21487 3826 00000000 		.4byte	0
 21488 382a 00000000 		.4byte	0
 21489              	.LVUS26:
 21490 382e 03       		.uleb128 .LVU171
 21491 382f 00       		.uleb128 .LVU176
 21492 3830 00       		.uleb128 .LVU176
 21493 3831 00       		.uleb128 .LVU180
ARM GAS  /tmp/cchqCFfA.s 			page 381


 21494 3832 00       		.uleb128 .LVU182
 21495 3833 00       		.uleb128 .LVU187
 21496 3834 00       		.uleb128 .LVU192
 21497 3835 00       		.uleb128 .LVU197
 21498 3836 00       		.uleb128 .LVU202
 21499 3837 00       		.uleb128 .LVU204
 21500              	.LLST26:
 21501 3838 12000000 		.4byte	.LVL54
 21502 383c 1A000000 		.4byte	.LVL55
 21503 3840 0400     		.2byte	0x4
 21504 3842 0A       		.byte	0xa
 21505 3843 0040     		.2byte	0x4000
 21506 3845 9F       		.byte	0x9f
 21507 3846 1A000000 		.4byte	.LVL55
 21508 384a 22000000 		.4byte	.LVL58
 21509 384e 0100     		.2byte	0x1
 21510 3850 53       		.byte	0x53
 21511 3851 26000000 		.4byte	.LVL60
 21512 3855 32000000 		.4byte	.LVL62
 21513 3859 0100     		.2byte	0x1
 21514 385b 53       		.byte	0x53
 21515 385c 38000000 		.4byte	.LVL65
 21516 3860 40000000 		.4byte	.LVL66
 21517 3864 0100     		.2byte	0x1
 21518 3866 53       		.byte	0x53
 21519 3867 54000000 		.4byte	.LVL69
 21520 386b 58000000 		.4byte	.LVL71
 21521 386f 0100     		.2byte	0x1
 21522 3871 53       		.byte	0x53
 21523 3872 00000000 		.4byte	0
 21524 3876 00000000 		.4byte	0
 21525              		.section	.debug_aranges,"",%progbits
 21526 0000 04010000 		.4byte	0x104
 21527 0004 0200     		.2byte	0x2
 21528 0006 00000000 		.4byte	.Ldebug_info0
 21529 000a 04       		.byte	0x4
 21530 000b 00       		.byte	0
 21531 000c 0000     		.2byte	0
 21532 000e 0000     		.2byte	0
 21533 0010 00000000 		.4byte	.LFB31
 21534 0014 C4000000 		.4byte	.LFE31-.LFB31
 21535 0018 00000000 		.4byte	.LFB1
 21536 001c 48000000 		.4byte	.LFE1-.LFB1
 21537 0020 00000000 		.4byte	.LFB2
 21538 0024 A8000000 		.4byte	.LFE2-.LFB2
 21539 0028 00000000 		.4byte	.LFB3
 21540 002c 30000000 		.4byte	.LFE3-.LFB3
 21541 0030 00000000 		.4byte	.LFB4
 21542 0034 60000000 		.4byte	.LFE4-.LFB4
 21543 0038 00000000 		.4byte	.LFB5
 21544 003c 94000000 		.4byte	.LFE5-.LFB5
 21545 0040 00000000 		.4byte	.LFB6
 21546 0044 68000000 		.4byte	.LFE6-.LFB6
 21547 0048 00000000 		.4byte	.LFB7
 21548 004c 60000000 		.4byte	.LFE7-.LFB7
 21549 0050 00000000 		.4byte	.LFB8
 21550 0054 7C000000 		.4byte	.LFE8-.LFB8
ARM GAS  /tmp/cchqCFfA.s 			page 382


 21551 0058 00000000 		.4byte	.LFB9
 21552 005c 7C000000 		.4byte	.LFE9-.LFB9
 21553 0060 00000000 		.4byte	.LFB10
 21554 0064 80000000 		.4byte	.LFE10-.LFB10
 21555 0068 00000000 		.4byte	.LFB11
 21556 006c 80000000 		.4byte	.LFE11-.LFB11
 21557 0070 00000000 		.4byte	.LFB12
 21558 0074 A8000000 		.4byte	.LFE12-.LFB12
 21559 0078 00000000 		.4byte	.LFB13
 21560 007c 80000000 		.4byte	.LFE13-.LFB13
 21561 0080 00000000 		.4byte	.LFB14
 21562 0084 80000000 		.4byte	.LFE14-.LFB14
 21563 0088 00000000 		.4byte	.LFB15
 21564 008c AC000000 		.4byte	.LFE15-.LFB15
 21565 0090 00000000 		.4byte	.LFB16
 21566 0094 A8000000 		.4byte	.LFE16-.LFB16
 21567 0098 00000000 		.4byte	.LFB17
 21568 009c D0000000 		.4byte	.LFE17-.LFB17
 21569 00a0 00000000 		.4byte	.LFB18
 21570 00a4 A8000000 		.4byte	.LFE18-.LFB18
 21571 00a8 00000000 		.4byte	.LFB19
 21572 00ac 4C000000 		.4byte	.LFE19-.LFB19
 21573 00b0 00000000 		.4byte	.LFB20
 21574 00b4 CC000000 		.4byte	.LFE20-.LFB20
 21575 00b8 00000000 		.4byte	.LFB21
 21576 00bc B0000000 		.4byte	.LFE21-.LFB21
 21577 00c0 00000000 		.4byte	.LFB22
 21578 00c4 7C000000 		.4byte	.LFE22-.LFB22
 21579 00c8 00000000 		.4byte	.LFB23
 21580 00cc 84000000 		.4byte	.LFE23-.LFB23
 21581 00d0 00000000 		.4byte	.LFB24
 21582 00d4 98000000 		.4byte	.LFE24-.LFB24
 21583 00d8 00000000 		.4byte	.LFB25
 21584 00dc B0000000 		.4byte	.LFE25-.LFB25
 21585 00e0 00000000 		.4byte	.LFB26
 21586 00e4 4C010000 		.4byte	.LFE26-.LFB26
 21587 00e8 00000000 		.4byte	.LFB27
 21588 00ec 30000000 		.4byte	.LFE27-.LFB27
 21589 00f0 00000000 		.4byte	.LFB28
 21590 00f4 4C000000 		.4byte	.LFE28-.LFB28
 21591 00f8 00000000 		.4byte	.LFB29
 21592 00fc 7C000000 		.4byte	.LFE29-.LFB29
 21593 0100 00000000 		.4byte	0
 21594 0104 00000000 		.4byte	0
 21595              		.section	.debug_ranges,"",%progbits
 21596              	.Ldebug_ranges0:
 21597 0000 10000000 		.4byte	.LBB190
 21598 0004 94000000 		.4byte	.LBE190
 21599 0008 96000000 		.4byte	.LBB198
 21600 000c 9C000000 		.4byte	.LBE198
 21601 0010 A8000000 		.4byte	.LBB199
 21602 0014 B6000000 		.4byte	.LBE199
 21603 0018 00000000 		.4byte	0
 21604 001c 00000000 		.4byte	0
 21605 0020 14000000 		.4byte	.LBB191
 21606 0024 14000000 		.4byte	.LBE191
 21607 0028 1C000000 		.4byte	.LBB195
ARM GAS  /tmp/cchqCFfA.s 			page 383


 21608 002c 1E000000 		.4byte	.LBE195
 21609 0030 26000000 		.4byte	.LBB196
 21610 0034 8E000000 		.4byte	.LBE196
 21611 0038 A8000000 		.4byte	.LBB197
 21612 003c B6000000 		.4byte	.LBE197
 21613 0040 00000000 		.4byte	0
 21614 0044 00000000 		.4byte	0
 21615 0048 42000000 		.4byte	.LBB192
 21616 004c 8E000000 		.4byte	.LBE192
 21617 0050 A8000000 		.4byte	.LBB194
 21618 0054 B6000000 		.4byte	.LBE194
 21619 0058 00000000 		.4byte	0
 21620 005c 00000000 		.4byte	0
 21621 0060 1A000000 		.4byte	.LBB200
 21622 0064 20000000 		.4byte	.LBE200
 21623 0068 24000000 		.4byte	.LBB201
 21624 006c 3C000000 		.4byte	.LBE201
 21625 0070 60000000 		.4byte	.LBB202
 21626 0074 66000000 		.4byte	.LBE202
 21627 0078 6A000000 		.4byte	.LBB203
 21628 007c 86000000 		.4byte	.LBE203
 21629 0080 00000000 		.4byte	0
 21630 0084 00000000 		.4byte	0
 21631 0088 02000000 		.4byte	.LBB205
 21632 008c 06000000 		.4byte	.LBE205
 21633 0090 14000000 		.4byte	.LBB209
 21634 0094 1A000000 		.4byte	.LBE209
 21635 0098 1C000000 		.4byte	.LBB214
 21636 009c 1E000000 		.4byte	.LBE214
 21637 00a0 00000000 		.4byte	0
 21638 00a4 00000000 		.4byte	0
 21639 00a8 1A000000 		.4byte	.LBB210
 21640 00ac 1C000000 		.4byte	.LBE210
 21641 00b0 1E000000 		.4byte	.LBB215
 21642 00b4 20000000 		.4byte	.LBE215
 21643 00b8 24000000 		.4byte	.LBB216
 21644 00bc 26000000 		.4byte	.LBE216
 21645 00c0 00000000 		.4byte	0
 21646 00c4 00000000 		.4byte	0
 21647 00c8 26000000 		.4byte	.LBB217
 21648 00cc 28000000 		.4byte	.LBE217
 21649 00d0 2C000000 		.4byte	.LBB220
 21650 00d4 2E000000 		.4byte	.LBE220
 21651 00d8 00000000 		.4byte	0
 21652 00dc 00000000 		.4byte	0
 21653 00e0 10000000 		.4byte	.LBB221
 21654 00e4 1A000000 		.4byte	.LBE221
 21655 00e8 1C000000 		.4byte	.LBB228
 21656 00ec 1E000000 		.4byte	.LBE228
 21657 00f0 00000000 		.4byte	0
 21658 00f4 00000000 		.4byte	0
 21659 00f8 1A000000 		.4byte	.LBB224
 21660 00fc 1C000000 		.4byte	.LBE224
 21661 0100 1E000000 		.4byte	.LBB229
 21662 0104 20000000 		.4byte	.LBE229
 21663 0108 24000000 		.4byte	.LBB230
 21664 010c 26000000 		.4byte	.LBE230
ARM GAS  /tmp/cchqCFfA.s 			page 384


 21665 0110 00000000 		.4byte	0
 21666 0114 00000000 		.4byte	0
 21667 0118 26000000 		.4byte	.LBB231
 21668 011c 28000000 		.4byte	.LBE231
 21669 0120 2C000000 		.4byte	.LBB234
 21670 0124 2E000000 		.4byte	.LBE234
 21671 0128 00000000 		.4byte	0
 21672 012c 00000000 		.4byte	0
 21673 0130 02000000 		.4byte	.LBB235
 21674 0134 06000000 		.4byte	.LBE235
 21675 0138 0C000000 		.4byte	.LBB240
 21676 013c 0E000000 		.4byte	.LBE240
 21677 0140 18000000 		.4byte	.LBB241
 21678 0144 1C000000 		.4byte	.LBE241
 21679 0148 1E000000 		.4byte	.LBB246
 21680 014c 20000000 		.4byte	.LBE246
 21681 0150 00000000 		.4byte	0
 21682 0154 00000000 		.4byte	0
 21683 0158 1C000000 		.4byte	.LBB242
 21684 015c 1E000000 		.4byte	.LBE242
 21685 0160 20000000 		.4byte	.LBB247
 21686 0164 22000000 		.4byte	.LBE247
 21687 0168 28000000 		.4byte	.LBB252
 21688 016c 2A000000 		.4byte	.LBE252
 21689 0170 00000000 		.4byte	0
 21690 0174 00000000 		.4byte	0
 21691 0178 22000000 		.4byte	.LBB248
 21692 017c 24000000 		.4byte	.LBE248
 21693 0180 2A000000 		.4byte	.LBB253
 21694 0184 2C000000 		.4byte	.LBE253
 21695 0188 30000000 		.4byte	.LBB254
 21696 018c 32000000 		.4byte	.LBE254
 21697 0190 00000000 		.4byte	0
 21698 0194 00000000 		.4byte	0
 21699 0198 32000000 		.4byte	.LBB255
 21700 019c 34000000 		.4byte	.LBE255
 21701 01a0 38000000 		.4byte	.LBB258
 21702 01a4 3A000000 		.4byte	.LBE258
 21703 01a8 00000000 		.4byte	0
 21704 01ac 00000000 		.4byte	0
 21705 01b0 02000000 		.4byte	.LBB259
 21706 01b4 06000000 		.4byte	.LBE259
 21707 01b8 0A000000 		.4byte	.LBB264
 21708 01bc 0C000000 		.4byte	.LBE264
 21709 01c0 16000000 		.4byte	.LBB265
 21710 01c4 1A000000 		.4byte	.LBE265
 21711 01c8 1C000000 		.4byte	.LBB270
 21712 01cc 1E000000 		.4byte	.LBE270
 21713 01d0 00000000 		.4byte	0
 21714 01d4 00000000 		.4byte	0
 21715 01d8 1A000000 		.4byte	.LBB266
 21716 01dc 1C000000 		.4byte	.LBE266
 21717 01e0 1E000000 		.4byte	.LBB271
 21718 01e4 20000000 		.4byte	.LBE271
 21719 01e8 26000000 		.4byte	.LBB276
 21720 01ec 28000000 		.4byte	.LBE276
 21721 01f0 00000000 		.4byte	0
ARM GAS  /tmp/cchqCFfA.s 			page 385


 21722 01f4 00000000 		.4byte	0
 21723 01f8 20000000 		.4byte	.LBB272
 21724 01fc 22000000 		.4byte	.LBE272
 21725 0200 28000000 		.4byte	.LBB277
 21726 0204 2A000000 		.4byte	.LBE277
 21727 0208 2E000000 		.4byte	.LBB278
 21728 020c 30000000 		.4byte	.LBE278
 21729 0210 00000000 		.4byte	0
 21730 0214 00000000 		.4byte	0
 21731 0218 30000000 		.4byte	.LBB279
 21732 021c 32000000 		.4byte	.LBE279
 21733 0220 36000000 		.4byte	.LBB282
 21734 0224 38000000 		.4byte	.LBE282
 21735 0228 00000000 		.4byte	0
 21736 022c 00000000 		.4byte	0
 21737 0230 02000000 		.4byte	.LBB283
 21738 0234 06000000 		.4byte	.LBE283
 21739 0238 0A000000 		.4byte	.LBB288
 21740 023c 0C000000 		.4byte	.LBE288
 21741 0240 16000000 		.4byte	.LBB289
 21742 0244 1A000000 		.4byte	.LBE289
 21743 0248 1C000000 		.4byte	.LBB294
 21744 024c 1E000000 		.4byte	.LBE294
 21745 0250 00000000 		.4byte	0
 21746 0254 00000000 		.4byte	0
 21747 0258 1A000000 		.4byte	.LBB290
 21748 025c 1C000000 		.4byte	.LBE290
 21749 0260 1E000000 		.4byte	.LBB295
 21750 0264 20000000 		.4byte	.LBE295
 21751 0268 26000000 		.4byte	.LBB300
 21752 026c 28000000 		.4byte	.LBE300
 21753 0270 00000000 		.4byte	0
 21754 0274 00000000 		.4byte	0
 21755 0278 20000000 		.4byte	.LBB296
 21756 027c 22000000 		.4byte	.LBE296
 21757 0280 28000000 		.4byte	.LBB301
 21758 0284 2A000000 		.4byte	.LBE301
 21759 0288 2E000000 		.4byte	.LBB302
 21760 028c 30000000 		.4byte	.LBE302
 21761 0290 00000000 		.4byte	0
 21762 0294 00000000 		.4byte	0
 21763 0298 30000000 		.4byte	.LBB303
 21764 029c 32000000 		.4byte	.LBE303
 21765 02a0 36000000 		.4byte	.LBB306
 21766 02a4 38000000 		.4byte	.LBE306
 21767 02a8 00000000 		.4byte	0
 21768 02ac 00000000 		.4byte	0
 21769 02b0 02000000 		.4byte	.LBB307
 21770 02b4 06000000 		.4byte	.LBE307
 21771 02b8 0A000000 		.4byte	.LBB312
 21772 02bc 0C000000 		.4byte	.LBE312
 21773 02c0 16000000 		.4byte	.LBB313
 21774 02c4 1A000000 		.4byte	.LBE313
 21775 02c8 1C000000 		.4byte	.LBB318
 21776 02cc 1E000000 		.4byte	.LBE318
 21777 02d0 00000000 		.4byte	0
 21778 02d4 00000000 		.4byte	0
ARM GAS  /tmp/cchqCFfA.s 			page 386


 21779 02d8 1A000000 		.4byte	.LBB314
 21780 02dc 1C000000 		.4byte	.LBE314
 21781 02e0 1E000000 		.4byte	.LBB319
 21782 02e4 20000000 		.4byte	.LBE319
 21783 02e8 26000000 		.4byte	.LBB324
 21784 02ec 28000000 		.4byte	.LBE324
 21785 02f0 00000000 		.4byte	0
 21786 02f4 00000000 		.4byte	0
 21787 02f8 20000000 		.4byte	.LBB320
 21788 02fc 22000000 		.4byte	.LBE320
 21789 0300 28000000 		.4byte	.LBB325
 21790 0304 2A000000 		.4byte	.LBE325
 21791 0308 2E000000 		.4byte	.LBB326
 21792 030c 30000000 		.4byte	.LBE326
 21793 0310 00000000 		.4byte	0
 21794 0314 00000000 		.4byte	0
 21795 0318 30000000 		.4byte	.LBB327
 21796 031c 32000000 		.4byte	.LBE327
 21797 0320 36000000 		.4byte	.LBB330
 21798 0324 38000000 		.4byte	.LBE330
 21799 0328 00000000 		.4byte	0
 21800 032c 00000000 		.4byte	0
 21801 0330 02000000 		.4byte	.LBB331
 21802 0334 06000000 		.4byte	.LBE331
 21803 0338 0A000000 		.4byte	.LBB336
 21804 033c 0C000000 		.4byte	.LBE336
 21805 0340 16000000 		.4byte	.LBB337
 21806 0344 1A000000 		.4byte	.LBE337
 21807 0348 1C000000 		.4byte	.LBB342
 21808 034c 1E000000 		.4byte	.LBE342
 21809 0350 00000000 		.4byte	0
 21810 0354 00000000 		.4byte	0
 21811 0358 1A000000 		.4byte	.LBB338
 21812 035c 1C000000 		.4byte	.LBE338
 21813 0360 1E000000 		.4byte	.LBB343
 21814 0364 20000000 		.4byte	.LBE343
 21815 0368 26000000 		.4byte	.LBB348
 21816 036c 28000000 		.4byte	.LBE348
 21817 0370 00000000 		.4byte	0
 21818 0374 00000000 		.4byte	0
 21819 0378 20000000 		.4byte	.LBB344
 21820 037c 22000000 		.4byte	.LBE344
 21821 0380 28000000 		.4byte	.LBB349
 21822 0384 2A000000 		.4byte	.LBE349
 21823 0388 2E000000 		.4byte	.LBB350
 21824 038c 30000000 		.4byte	.LBE350
 21825 0390 00000000 		.4byte	0
 21826 0394 00000000 		.4byte	0
 21827 0398 30000000 		.4byte	.LBB351
 21828 039c 32000000 		.4byte	.LBE351
 21829 03a0 36000000 		.4byte	.LBB354
 21830 03a4 38000000 		.4byte	.LBE354
 21831 03a8 00000000 		.4byte	0
 21832 03ac 00000000 		.4byte	0
 21833 03b0 48000000 		.4byte	.LBB355
 21834 03b4 48000000 		.4byte	.LBE355
 21835 03b8 4A000000 		.4byte	.LBB356
ARM GAS  /tmp/cchqCFfA.s 			page 387


 21836 03bc 52000000 		.4byte	.LBE356
 21837 03c0 56000000 		.4byte	.LBB357
 21838 03c4 86000000 		.4byte	.LBE357
 21839 03c8 8C000000 		.4byte	.LBB358
 21840 03cc 90000000 		.4byte	.LBE358
 21841 03d0 00000000 		.4byte	0
 21842 03d4 00000000 		.4byte	0
 21843 03d8 02000000 		.4byte	.LBB359
 21844 03dc 06000000 		.4byte	.LBE359
 21845 03e0 0A000000 		.4byte	.LBB364
 21846 03e4 0C000000 		.4byte	.LBE364
 21847 03e8 16000000 		.4byte	.LBB365
 21848 03ec 1A000000 		.4byte	.LBE365
 21849 03f0 1C000000 		.4byte	.LBB370
 21850 03f4 1E000000 		.4byte	.LBE370
 21851 03f8 00000000 		.4byte	0
 21852 03fc 00000000 		.4byte	0
 21853 0400 1A000000 		.4byte	.LBB366
 21854 0404 1C000000 		.4byte	.LBE366
 21855 0408 1E000000 		.4byte	.LBB371
 21856 040c 20000000 		.4byte	.LBE371
 21857 0410 26000000 		.4byte	.LBB376
 21858 0414 28000000 		.4byte	.LBE376
 21859 0418 00000000 		.4byte	0
 21860 041c 00000000 		.4byte	0
 21861 0420 20000000 		.4byte	.LBB372
 21862 0424 22000000 		.4byte	.LBE372
 21863 0428 28000000 		.4byte	.LBB377
 21864 042c 2A000000 		.4byte	.LBE377
 21865 0430 2E000000 		.4byte	.LBB378
 21866 0434 30000000 		.4byte	.LBE378
 21867 0438 00000000 		.4byte	0
 21868 043c 00000000 		.4byte	0
 21869 0440 30000000 		.4byte	.LBB379
 21870 0444 32000000 		.4byte	.LBE379
 21871 0448 36000000 		.4byte	.LBB382
 21872 044c 38000000 		.4byte	.LBE382
 21873 0450 00000000 		.4byte	0
 21874 0454 00000000 		.4byte	0
 21875 0458 48000000 		.4byte	.LBB383
 21876 045c 62000000 		.4byte	.LBE383
 21877 0460 64000000 		.4byte	.LBB384
 21878 0464 68000000 		.4byte	.LBE384
 21879 0468 00000000 		.4byte	0
 21880 046c 00000000 		.4byte	0
 21881 0470 02000000 		.4byte	.LBB385
 21882 0474 06000000 		.4byte	.LBE385
 21883 0478 0A000000 		.4byte	.LBB390
 21884 047c 0C000000 		.4byte	.LBE390
 21885 0480 16000000 		.4byte	.LBB391
 21886 0484 1A000000 		.4byte	.LBE391
 21887 0488 1C000000 		.4byte	.LBB396
 21888 048c 1E000000 		.4byte	.LBE396
 21889 0490 00000000 		.4byte	0
 21890 0494 00000000 		.4byte	0
 21891 0498 1A000000 		.4byte	.LBB392
 21892 049c 1C000000 		.4byte	.LBE392
ARM GAS  /tmp/cchqCFfA.s 			page 388


 21893 04a0 1E000000 		.4byte	.LBB397
 21894 04a4 20000000 		.4byte	.LBE397
 21895 04a8 26000000 		.4byte	.LBB402
 21896 04ac 28000000 		.4byte	.LBE402
 21897 04b0 00000000 		.4byte	0
 21898 04b4 00000000 		.4byte	0
 21899 04b8 20000000 		.4byte	.LBB398
 21900 04bc 22000000 		.4byte	.LBE398
 21901 04c0 28000000 		.4byte	.LBB403
 21902 04c4 2A000000 		.4byte	.LBE403
 21903 04c8 2E000000 		.4byte	.LBB404
 21904 04cc 30000000 		.4byte	.LBE404
 21905 04d0 00000000 		.4byte	0
 21906 04d4 00000000 		.4byte	0
 21907 04d8 30000000 		.4byte	.LBB405
 21908 04dc 32000000 		.4byte	.LBE405
 21909 04e0 36000000 		.4byte	.LBB408
 21910 04e4 38000000 		.4byte	.LBE408
 21911 04e8 00000000 		.4byte	0
 21912 04ec 00000000 		.4byte	0
 21913 04f0 48000000 		.4byte	.LBB409
 21914 04f4 62000000 		.4byte	.LBE409
 21915 04f8 64000000 		.4byte	.LBB410
 21916 04fc 68000000 		.4byte	.LBE410
 21917 0500 00000000 		.4byte	0
 21918 0504 00000000 		.4byte	0
 21919 0508 04000000 		.4byte	.LBB411
 21920 050c 08000000 		.4byte	.LBE411
 21921 0510 0C000000 		.4byte	.LBB416
 21922 0514 0E000000 		.4byte	.LBE416
 21923 0518 18000000 		.4byte	.LBB417
 21924 051c 1C000000 		.4byte	.LBE417
 21925 0520 1E000000 		.4byte	.LBB422
 21926 0524 20000000 		.4byte	.LBE422
 21927 0528 00000000 		.4byte	0
 21928 052c 00000000 		.4byte	0
 21929 0530 1C000000 		.4byte	.LBB418
 21930 0534 1E000000 		.4byte	.LBE418
 21931 0538 20000000 		.4byte	.LBB423
 21932 053c 22000000 		.4byte	.LBE423
 21933 0540 28000000 		.4byte	.LBB428
 21934 0544 2A000000 		.4byte	.LBE428
 21935 0548 00000000 		.4byte	0
 21936 054c 00000000 		.4byte	0
 21937 0550 22000000 		.4byte	.LBB424
 21938 0554 24000000 		.4byte	.LBE424
 21939 0558 2A000000 		.4byte	.LBB429
 21940 055c 2C000000 		.4byte	.LBE429
 21941 0560 32000000 		.4byte	.LBB434
 21942 0564 34000000 		.4byte	.LBE434
 21943 0568 00000000 		.4byte	0
 21944 056c 00000000 		.4byte	0
 21945 0570 2C000000 		.4byte	.LBB430
 21946 0574 2E000000 		.4byte	.LBE430
 21947 0578 34000000 		.4byte	.LBB435
 21948 057c 36000000 		.4byte	.LBE435
 21949 0580 3A000000 		.4byte	.LBB436
ARM GAS  /tmp/cchqCFfA.s 			page 389


 21950 0584 3C000000 		.4byte	.LBE436
 21951 0588 00000000 		.4byte	0
 21952 058c 00000000 		.4byte	0
 21953 0590 3C000000 		.4byte	.LBB437
 21954 0594 3E000000 		.4byte	.LBE437
 21955 0598 42000000 		.4byte	.LBB440
 21956 059c 44000000 		.4byte	.LBE440
 21957 05a0 00000000 		.4byte	0
 21958 05a4 00000000 		.4byte	0
 21959 05a8 5E000000 		.4byte	.LBB441
 21960 05ac 8C000000 		.4byte	.LBE441
 21961 05b0 8E000000 		.4byte	.LBB442
 21962 05b4 92000000 		.4byte	.LBE442
 21963 05b8 00000000 		.4byte	0
 21964 05bc 00000000 		.4byte	0
 21965 05c0 02000000 		.4byte	.LBB443
 21966 05c4 06000000 		.4byte	.LBE443
 21967 05c8 0C000000 		.4byte	.LBB448
 21968 05cc 0E000000 		.4byte	.LBE448
 21969 05d0 18000000 		.4byte	.LBB449
 21970 05d4 1C000000 		.4byte	.LBE449
 21971 05d8 1E000000 		.4byte	.LBB455
 21972 05dc 20000000 		.4byte	.LBE455
 21973 05e0 00000000 		.4byte	0
 21974 05e4 00000000 		.4byte	0
 21975 05e8 1C000000 		.4byte	.LBB450
 21976 05ec 1E000000 		.4byte	.LBE450
 21977 05f0 20000000 		.4byte	.LBB456
 21978 05f4 22000000 		.4byte	.LBE456
 21979 05f8 28000000 		.4byte	.LBB462
 21980 05fc 2A000000 		.4byte	.LBE462
 21981 0600 30000000 		.4byte	.LBB468
 21982 0604 34000000 		.4byte	.LBE468
 21983 0608 00000000 		.4byte	0
 21984 060c 00000000 		.4byte	0
 21985 0610 22000000 		.4byte	.LBB457
 21986 0614 24000000 		.4byte	.LBE457
 21987 0618 2A000000 		.4byte	.LBB463
 21988 061c 2C000000 		.4byte	.LBE463
 21989 0620 34000000 		.4byte	.LBB469
 21990 0624 36000000 		.4byte	.LBE469
 21991 0628 3A000000 		.4byte	.LBB471
 21992 062c 3E000000 		.4byte	.LBE471
 21993 0630 00000000 		.4byte	0
 21994 0634 00000000 		.4byte	0
 21995 0638 2C000000 		.4byte	.LBB464
 21996 063c 30000000 		.4byte	.LBE464
 21997 0640 36000000 		.4byte	.LBB470
 21998 0644 3A000000 		.4byte	.LBE470
 21999 0648 3E000000 		.4byte	.LBB472
 22000 064c 42000000 		.4byte	.LBE472
 22001 0650 00000000 		.4byte	0
 22002 0654 00000000 		.4byte	0
 22003 0658 4A000000 		.4byte	.LBB473
 22004 065c 4C000000 		.4byte	.LBE473
 22005 0660 4E000000 		.4byte	.LBB476
 22006 0664 50000000 		.4byte	.LBE476
ARM GAS  /tmp/cchqCFfA.s 			page 390


 22007 0668 00000000 		.4byte	0
 22008 066c 00000000 		.4byte	0
 22009 0670 04000000 		.4byte	.LBB477
 22010 0674 08000000 		.4byte	.LBE477
 22011 0678 16000000 		.4byte	.LBB482
 22012 067c 1C000000 		.4byte	.LBE482
 22013 0680 1E000000 		.4byte	.LBB488
 22014 0684 20000000 		.4byte	.LBE488
 22015 0688 24000000 		.4byte	.LBB495
 22016 068c 28000000 		.4byte	.LBE495
 22017 0690 00000000 		.4byte	0
 22018 0694 00000000 		.4byte	0
 22019 0698 1C000000 		.4byte	.LBB483
 22020 069c 1E000000 		.4byte	.LBE483
 22021 06a0 20000000 		.4byte	.LBB489
 22022 06a4 22000000 		.4byte	.LBE489
 22023 06a8 28000000 		.4byte	.LBB496
 22024 06ac 2A000000 		.4byte	.LBE496
 22025 06b0 2E000000 		.4byte	.LBB503
 22026 06b4 32000000 		.4byte	.LBE503
 22027 06b8 00000000 		.4byte	0
 22028 06bc 00000000 		.4byte	0
 22029 06c0 22000000 		.4byte	.LBB490
 22030 06c4 24000000 		.4byte	.LBE490
 22031 06c8 2A000000 		.4byte	.LBB497
 22032 06cc 2C000000 		.4byte	.LBE497
 22033 06d0 32000000 		.4byte	.LBB504
 22034 06d4 34000000 		.4byte	.LBE504
 22035 06d8 36000000 		.4byte	.LBB506
 22036 06dc 3A000000 		.4byte	.LBE506
 22037 06e0 00000000 		.4byte	0
 22038 06e4 00000000 		.4byte	0
 22039 06e8 2C000000 		.4byte	.LBB498
 22040 06ec 2E000000 		.4byte	.LBE498
 22041 06f0 34000000 		.4byte	.LBB505
 22042 06f4 36000000 		.4byte	.LBE505
 22043 06f8 3A000000 		.4byte	.LBB507
 22044 06fc 3C000000 		.4byte	.LBE507
 22045 0700 3E000000 		.4byte	.LBB511
 22046 0704 42000000 		.4byte	.LBE511
 22047 0708 00000000 		.4byte	0
 22048 070c 00000000 		.4byte	0
 22049 0710 3C000000 		.4byte	.LBB508
 22050 0714 3E000000 		.4byte	.LBE508
 22051 0718 42000000 		.4byte	.LBB512
 22052 071c 44000000 		.4byte	.LBE512
 22053 0720 00000000 		.4byte	0
 22054 0724 00000000 		.4byte	0
 22055 0728 12000000 		.4byte	.LBB513
 22056 072c 1C000000 		.4byte	.LBE513
 22057 0730 1E000000 		.4byte	.LBB522
 22058 0734 20000000 		.4byte	.LBE522
 22059 0738 24000000 		.4byte	.LBB529
 22060 073c 28000000 		.4byte	.LBE529
 22061 0740 00000000 		.4byte	0
 22062 0744 00000000 		.4byte	0
 22063 0748 1C000000 		.4byte	.LBB517
ARM GAS  /tmp/cchqCFfA.s 			page 391


 22064 074c 1E000000 		.4byte	.LBE517
 22065 0750 20000000 		.4byte	.LBB523
 22066 0754 22000000 		.4byte	.LBE523
 22067 0758 28000000 		.4byte	.LBB530
 22068 075c 2A000000 		.4byte	.LBE530
 22069 0760 2C000000 		.4byte	.LBB532
 22070 0764 30000000 		.4byte	.LBE532
 22071 0768 00000000 		.4byte	0
 22072 076c 00000000 		.4byte	0
 22073 0770 22000000 		.4byte	.LBB524
 22074 0774 24000000 		.4byte	.LBE524
 22075 0778 2A000000 		.4byte	.LBB531
 22076 077c 2C000000 		.4byte	.LBE531
 22077 0780 30000000 		.4byte	.LBB533
 22078 0784 32000000 		.4byte	.LBE533
 22079 0788 34000000 		.4byte	.LBB537
 22080 078c 38000000 		.4byte	.LBE537
 22081 0790 00000000 		.4byte	0
 22082 0794 00000000 		.4byte	0
 22083 0798 32000000 		.4byte	.LBB534
 22084 079c 34000000 		.4byte	.LBE534
 22085 07a0 38000000 		.4byte	.LBB538
 22086 07a4 3A000000 		.4byte	.LBE538
 22087 07a8 00000000 		.4byte	0
 22088 07ac 00000000 		.4byte	0
 22089 07b0 04000000 		.4byte	.LBB539
 22090 07b4 08000000 		.4byte	.LBE539
 22091 07b8 14000000 		.4byte	.LBB542
 22092 07bc 1C000000 		.4byte	.LBE542
 22093 07c0 00000000 		.4byte	0
 22094 07c4 00000000 		.4byte	0
 22095 07c8 1C000000 		.4byte	.LBB543
 22096 07cc 1E000000 		.4byte	.LBE543
 22097 07d0 22000000 		.4byte	.LBB546
 22098 07d4 24000000 		.4byte	.LBE546
 22099 07d8 00000000 		.4byte	0
 22100 07dc 00000000 		.4byte	0
 22101 07e0 04000000 		.4byte	.LBB547
 22102 07e4 08000000 		.4byte	.LBE547
 22103 07e8 0C000000 		.4byte	.LBB552
 22104 07ec 0E000000 		.4byte	.LBE552
 22105 07f0 18000000 		.4byte	.LBB553
 22106 07f4 1C000000 		.4byte	.LBE553
 22107 07f8 1E000000 		.4byte	.LBB558
 22108 07fc 20000000 		.4byte	.LBE558
 22109 0800 00000000 		.4byte	0
 22110 0804 00000000 		.4byte	0
 22111 0808 1C000000 		.4byte	.LBB554
 22112 080c 1E000000 		.4byte	.LBE554
 22113 0810 20000000 		.4byte	.LBB559
 22114 0814 22000000 		.4byte	.LBE559
 22115 0818 28000000 		.4byte	.LBB564
 22116 081c 2A000000 		.4byte	.LBE564
 22117 0820 00000000 		.4byte	0
 22118 0824 00000000 		.4byte	0
 22119 0828 22000000 		.4byte	.LBB560
 22120 082c 24000000 		.4byte	.LBE560
ARM GAS  /tmp/cchqCFfA.s 			page 392


 22121 0830 2A000000 		.4byte	.LBB565
 22122 0834 2C000000 		.4byte	.LBE565
 22123 0838 32000000 		.4byte	.LBB570
 22124 083c 34000000 		.4byte	.LBE570
 22125 0840 00000000 		.4byte	0
 22126 0844 00000000 		.4byte	0
 22127 0848 2C000000 		.4byte	.LBB566
 22128 084c 2E000000 		.4byte	.LBE566
 22129 0850 34000000 		.4byte	.LBB571
 22130 0854 36000000 		.4byte	.LBE571
 22131 0858 3A000000 		.4byte	.LBB572
 22132 085c 3C000000 		.4byte	.LBE572
 22133 0860 00000000 		.4byte	0
 22134 0864 00000000 		.4byte	0
 22135 0868 3C000000 		.4byte	.LBB573
 22136 086c 3E000000 		.4byte	.LBE573
 22137 0870 42000000 		.4byte	.LBB576
 22138 0874 44000000 		.4byte	.LBE576
 22139 0878 00000000 		.4byte	0
 22140 087c 00000000 		.4byte	0
 22141 0880 58000000 		.4byte	.LBB577
 22142 0884 58000000 		.4byte	.LBE577
 22143 0888 5A000000 		.4byte	.LBB578
 22144 088c 66000000 		.4byte	.LBE578
 22145 0890 6A000000 		.4byte	.LBB579
 22146 0894 AA000000 		.4byte	.LBE579
 22147 0898 B0000000 		.4byte	.LBB580
 22148 089c B4000000 		.4byte	.LBE580
 22149 08a0 00000000 		.4byte	0
 22150 08a4 00000000 		.4byte	0
 22151 08a8 06000000 		.4byte	.LBB581
 22152 08ac 0A000000 		.4byte	.LBE581
 22153 08b0 16000000 		.4byte	.LBB586
 22154 08b4 18000000 		.4byte	.LBE586
 22155 08b8 1A000000 		.4byte	.LBB587
 22156 08bc 1E000000 		.4byte	.LBE587
 22157 08c0 20000000 		.4byte	.LBB593
 22158 08c4 22000000 		.4byte	.LBE593
 22159 08c8 00000000 		.4byte	0
 22160 08cc 00000000 		.4byte	0
 22161 08d0 1E000000 		.4byte	.LBB588
 22162 08d4 20000000 		.4byte	.LBE588
 22163 08d8 22000000 		.4byte	.LBB594
 22164 08dc 24000000 		.4byte	.LBE594
 22165 08e0 2A000000 		.4byte	.LBB600
 22166 08e4 2C000000 		.4byte	.LBE600
 22167 08e8 2E000000 		.4byte	.LBB602
 22168 08ec 32000000 		.4byte	.LBE602
 22169 08f0 00000000 		.4byte	0
 22170 08f4 00000000 		.4byte	0
 22171 08f8 24000000 		.4byte	.LBB595
 22172 08fc 26000000 		.4byte	.LBE595
 22173 0900 2C000000 		.4byte	.LBB601
 22174 0904 2E000000 		.4byte	.LBE601
 22175 0908 32000000 		.4byte	.LBB603
 22176 090c 34000000 		.4byte	.LBE603
 22177 0910 36000000 		.4byte	.LBB607
ARM GAS  /tmp/cchqCFfA.s 			page 393


 22178 0914 3A000000 		.4byte	.LBE607
 22179 0918 00000000 		.4byte	0
 22180 091c 00000000 		.4byte	0
 22181 0920 34000000 		.4byte	.LBB604
 22182 0924 36000000 		.4byte	.LBE604
 22183 0928 3A000000 		.4byte	.LBB608
 22184 092c 3C000000 		.4byte	.LBE608
 22185 0930 00000000 		.4byte	0
 22186 0934 00000000 		.4byte	0
 22187 0938 48000000 		.4byte	.LBB609
 22188 093c 62000000 		.4byte	.LBE609
 22189 0940 64000000 		.4byte	.LBB614
 22190 0944 68000000 		.4byte	.LBE614
 22191 0948 6C000000 		.4byte	.LBB615
 22192 094c 8C000000 		.4byte	.LBE615
 22193 0950 8E000000 		.4byte	.LBB616
 22194 0954 92000000 		.4byte	.LBE616
 22195 0958 00000000 		.4byte	0
 22196 095c 00000000 		.4byte	0
 22197 0960 48000000 		.4byte	.LBB610
 22198 0964 62000000 		.4byte	.LBE610
 22199 0968 84000000 		.4byte	.LBB613
 22200 096c 8C000000 		.4byte	.LBE613
 22201 0970 00000000 		.4byte	0
 22202 0974 00000000 		.4byte	0
 22203 0978 06000000 		.4byte	.LBB617
 22204 097c 0A000000 		.4byte	.LBE617
 22205 0980 14000000 		.4byte	.LBB623
 22206 0984 16000000 		.4byte	.LBE623
 22207 0988 18000000 		.4byte	.LBB624
 22208 098c 1A000000 		.4byte	.LBE624
 22209 0990 1C000000 		.4byte	.LBB625
 22210 0994 1E000000 		.4byte	.LBE625
 22211 0998 20000000 		.4byte	.LBB631
 22212 099c 22000000 		.4byte	.LBE631
 22213 09a0 00000000 		.4byte	0
 22214 09a4 00000000 		.4byte	0
 22215 09a8 1E000000 		.4byte	.LBB626
 22216 09ac 20000000 		.4byte	.LBE626
 22217 09b0 22000000 		.4byte	.LBB632
 22218 09b4 24000000 		.4byte	.LBE632
 22219 09b8 28000000 		.4byte	.LBB633
 22220 09bc 2A000000 		.4byte	.LBE633
 22221 09c0 2C000000 		.4byte	.LBB637
 22222 09c4 30000000 		.4byte	.LBE637
 22223 09c8 00000000 		.4byte	0
 22224 09cc 00000000 		.4byte	0
 22225 09d0 2A000000 		.4byte	.LBB634
 22226 09d4 2C000000 		.4byte	.LBE634
 22227 09d8 30000000 		.4byte	.LBB638
 22228 09dc 32000000 		.4byte	.LBE638
 22229 09e0 00000000 		.4byte	0
 22230 09e4 00000000 		.4byte	0
 22231 09e8 46000000 		.4byte	.LBB639
 22232 09ec 5C000000 		.4byte	.LBE639
 22233 09f0 5E000000 		.4byte	.LBB640
 22234 09f4 62000000 		.4byte	.LBE640
ARM GAS  /tmp/cchqCFfA.s 			page 394


 22235 09f8 00000000 		.4byte	0
 22236 09fc 00000000 		.4byte	0
 22237 0a00 06000000 		.4byte	.LBB641
 22238 0a04 0A000000 		.4byte	.LBE641
 22239 0a08 14000000 		.4byte	.LBB647
 22240 0a0c 16000000 		.4byte	.LBE647
 22241 0a10 18000000 		.4byte	.LBB648
 22242 0a14 1A000000 		.4byte	.LBE648
 22243 0a18 1C000000 		.4byte	.LBB649
 22244 0a1c 1E000000 		.4byte	.LBE649
 22245 0a20 20000000 		.4byte	.LBB655
 22246 0a24 22000000 		.4byte	.LBE655
 22247 0a28 00000000 		.4byte	0
 22248 0a2c 00000000 		.4byte	0
 22249 0a30 1E000000 		.4byte	.LBB650
 22250 0a34 20000000 		.4byte	.LBE650
 22251 0a38 22000000 		.4byte	.LBB656
 22252 0a3c 24000000 		.4byte	.LBE656
 22253 0a40 28000000 		.4byte	.LBB657
 22254 0a44 2A000000 		.4byte	.LBE657
 22255 0a48 2C000000 		.4byte	.LBB661
 22256 0a4c 30000000 		.4byte	.LBE661
 22257 0a50 00000000 		.4byte	0
 22258 0a54 00000000 		.4byte	0
 22259 0a58 2A000000 		.4byte	.LBB658
 22260 0a5c 2C000000 		.4byte	.LBE658
 22261 0a60 30000000 		.4byte	.LBB662
 22262 0a64 32000000 		.4byte	.LBE662
 22263 0a68 00000000 		.4byte	0
 22264 0a6c 00000000 		.4byte	0
 22265 0a70 46000000 		.4byte	.LBB663
 22266 0a74 62000000 		.4byte	.LBE663
 22267 0a78 64000000 		.4byte	.LBB670
 22268 0a7c 68000000 		.4byte	.LBE670
 22269 0a80 00000000 		.4byte	0
 22270 0a84 00000000 		.4byte	0
 22271 0a88 4A000000 		.4byte	.LBB664
 22272 0a8c 54000000 		.4byte	.LBE664
 22273 0a90 5A000000 		.4byte	.LBB668
 22274 0a94 5E000000 		.4byte	.LBE668
 22275 0a98 62000000 		.4byte	.LBB669
 22276 0a9c 62000000 		.4byte	.LBE669
 22277 0aa0 00000000 		.4byte	0
 22278 0aa4 00000000 		.4byte	0
 22279 0aa8 06000000 		.4byte	.LBB671
 22280 0aac 0A000000 		.4byte	.LBE671
 22281 0ab0 14000000 		.4byte	.LBB678
 22282 0ab4 16000000 		.4byte	.LBE678
 22283 0ab8 18000000 		.4byte	.LBB679
 22284 0abc 1A000000 		.4byte	.LBE679
 22285 0ac0 1C000000 		.4byte	.LBB680
 22286 0ac4 1C000000 		.4byte	.LBE680
 22287 0ac8 20000000 		.4byte	.LBB681
 22288 0acc 22000000 		.4byte	.LBE681
 22289 0ad0 24000000 		.4byte	.LBB686
 22290 0ad4 26000000 		.4byte	.LBE686
 22291 0ad8 00000000 		.4byte	0
ARM GAS  /tmp/cchqCFfA.s 			page 395


 22292 0adc 00000000 		.4byte	0
 22293 0ae0 22000000 		.4byte	.LBB682
 22294 0ae4 24000000 		.4byte	.LBE682
 22295 0ae8 26000000 		.4byte	.LBB687
 22296 0aec 28000000 		.4byte	.LBE687
 22297 0af0 2C000000 		.4byte	.LBB688
 22298 0af4 2E000000 		.4byte	.LBE688
 22299 0af8 00000000 		.4byte	0
 22300 0afc 00000000 		.4byte	0
 22301 0b00 2E000000 		.4byte	.LBB689
 22302 0b04 30000000 		.4byte	.LBE689
 22303 0b08 34000000 		.4byte	.LBB692
 22304 0b0c 36000000 		.4byte	.LBE692
 22305 0b10 00000000 		.4byte	0
 22306 0b14 00000000 		.4byte	0
 22307 0b18 46000000 		.4byte	.LBB693
 22308 0b1c 4C000000 		.4byte	.LBE693
 22309 0b20 50000000 		.4byte	.LBB696
 22310 0b24 56000000 		.4byte	.LBE696
 22311 0b28 00000000 		.4byte	0
 22312 0b2c 00000000 		.4byte	0
 22313 0b30 06000000 		.4byte	.LBB697
 22314 0b34 0A000000 		.4byte	.LBE697
 22315 0b38 16000000 		.4byte	.LBB701
 22316 0b3c 1C000000 		.4byte	.LBE701
 22317 0b40 1E000000 		.4byte	.LBB707
 22318 0b44 20000000 		.4byte	.LBE707
 22319 0b48 00000000 		.4byte	0
 22320 0b4c 00000000 		.4byte	0
 22321 0b50 1C000000 		.4byte	.LBB702
 22322 0b54 1E000000 		.4byte	.LBE702
 22323 0b58 20000000 		.4byte	.LBB708
 22324 0b5c 22000000 		.4byte	.LBE708
 22325 0b60 26000000 		.4byte	.LBB709
 22326 0b64 28000000 		.4byte	.LBE709
 22327 0b68 2A000000 		.4byte	.LBB713
 22328 0b6c 2E000000 		.4byte	.LBE713
 22329 0b70 00000000 		.4byte	0
 22330 0b74 00000000 		.4byte	0
 22331 0b78 28000000 		.4byte	.LBB710
 22332 0b7c 2A000000 		.4byte	.LBE710
 22333 0b80 2E000000 		.4byte	.LBB714
 22334 0b84 30000000 		.4byte	.LBE714
 22335 0b88 00000000 		.4byte	0
 22336 0b8c 00000000 		.4byte	0
 22337 0b90 42000000 		.4byte	.LBB715
 22338 0b94 88000000 		.4byte	.LBE715
 22339 0b98 8A000000 		.4byte	.LBB722
 22340 0b9c 8E000000 		.4byte	.LBE722
 22341 0ba0 A4000000 		.4byte	.LBB723
 22342 0ba4 A8000000 		.4byte	.LBE723
 22343 0ba8 00000000 		.4byte	0
 22344 0bac 00000000 		.4byte	0
 22345 0bb0 4A000000 		.4byte	.LBB716
 22346 0bb4 4E000000 		.4byte	.LBE716
 22347 0bb8 56000000 		.4byte	.LBB720
 22348 0bbc 88000000 		.4byte	.LBE720
ARM GAS  /tmp/cchqCFfA.s 			page 396


 22349 0bc0 A4000000 		.4byte	.LBB721
 22350 0bc4 A8000000 		.4byte	.LBE721
 22351 0bc8 00000000 		.4byte	0
 22352 0bcc 00000000 		.4byte	0
 22353 0bd0 06000000 		.4byte	.LBB724
 22354 0bd4 0A000000 		.4byte	.LBE724
 22355 0bd8 18000000 		.4byte	.LBB728
 22356 0bdc 1E000000 		.4byte	.LBE728
 22357 0be0 20000000 		.4byte	.LBB733
 22358 0be4 22000000 		.4byte	.LBE733
 22359 0be8 00000000 		.4byte	0
 22360 0bec 00000000 		.4byte	0
 22361 0bf0 1E000000 		.4byte	.LBB729
 22362 0bf4 20000000 		.4byte	.LBE729
 22363 0bf8 22000000 		.4byte	.LBB734
 22364 0bfc 24000000 		.4byte	.LBE734
 22365 0c00 2A000000 		.4byte	.LBB740
 22366 0c04 2C000000 		.4byte	.LBE740
 22367 0c08 00000000 		.4byte	0
 22368 0c0c 00000000 		.4byte	0
 22369 0c10 24000000 		.4byte	.LBB735
 22370 0c14 26000000 		.4byte	.LBE735
 22371 0c18 2C000000 		.4byte	.LBB741
 22372 0c1c 2E000000 		.4byte	.LBE741
 22373 0c20 32000000 		.4byte	.LBB742
 22374 0c24 34000000 		.4byte	.LBE742
 22375 0c28 36000000 		.4byte	.LBB746
 22376 0c2c 3A000000 		.4byte	.LBE746
 22377 0c30 00000000 		.4byte	0
 22378 0c34 00000000 		.4byte	0
 22379 0c38 34000000 		.4byte	.LBB743
 22380 0c3c 36000000 		.4byte	.LBE743
 22381 0c40 3A000000 		.4byte	.LBB747
 22382 0c44 3C000000 		.4byte	.LBE747
 22383 0c48 00000000 		.4byte	0
 22384 0c4c 00000000 		.4byte	0
 22385 0c50 02000000 		.4byte	.LBB749
 22386 0c54 06000000 		.4byte	.LBE749
 22387 0c58 0A000000 		.4byte	.LBB753
 22388 0c5c 0C000000 		.4byte	.LBE753
 22389 0c60 16000000 		.4byte	.LBB754
 22390 0c64 1C000000 		.4byte	.LBE754
 22391 0c68 00000000 		.4byte	0
 22392 0c6c 00000000 		.4byte	0
 22393 0c70 1C000000 		.4byte	.LBB755
 22394 0c74 1E000000 		.4byte	.LBE755
 22395 0c78 22000000 		.4byte	.LBB758
 22396 0c7c 24000000 		.4byte	.LBE758
 22397 0c80 00000000 		.4byte	0
 22398 0c84 00000000 		.4byte	0
 22399 0c88 32000000 		.4byte	.LBB759
 22400 0c8c 36000000 		.4byte	.LBE759
 22401 0c90 36000000 		.4byte	.LBB764
 22402 0c94 4C000000 		.4byte	.LBE764
 22403 0c98 50000000 		.4byte	.LBB765
 22404 0c9c 52000000 		.4byte	.LBE765
 22405 0ca0 54000000 		.4byte	.LBB766
ARM GAS  /tmp/cchqCFfA.s 			page 397


 22406 0ca4 56000000 		.4byte	.LBE766
 22407 0ca8 00000000 		.4byte	0
 22408 0cac 00000000 		.4byte	0
 22409 0cb0 00000000 		.4byte	.LFB31
 22410 0cb4 C4000000 		.4byte	.LFE31
 22411 0cb8 00000000 		.4byte	.LFB1
 22412 0cbc 48000000 		.4byte	.LFE1
 22413 0cc0 00000000 		.4byte	.LFB2
 22414 0cc4 A8000000 		.4byte	.LFE2
 22415 0cc8 00000000 		.4byte	.LFB3
 22416 0ccc 30000000 		.4byte	.LFE3
 22417 0cd0 00000000 		.4byte	.LFB4
 22418 0cd4 60000000 		.4byte	.LFE4
 22419 0cd8 00000000 		.4byte	.LFB5
 22420 0cdc 94000000 		.4byte	.LFE5
 22421 0ce0 00000000 		.4byte	.LFB6
 22422 0ce4 68000000 		.4byte	.LFE6
 22423 0ce8 00000000 		.4byte	.LFB7
 22424 0cec 60000000 		.4byte	.LFE7
 22425 0cf0 00000000 		.4byte	.LFB8
 22426 0cf4 7C000000 		.4byte	.LFE8
 22427 0cf8 00000000 		.4byte	.LFB9
 22428 0cfc 7C000000 		.4byte	.LFE9
 22429 0d00 00000000 		.4byte	.LFB10
 22430 0d04 80000000 		.4byte	.LFE10
 22431 0d08 00000000 		.4byte	.LFB11
 22432 0d0c 80000000 		.4byte	.LFE11
 22433 0d10 00000000 		.4byte	.LFB12
 22434 0d14 A8000000 		.4byte	.LFE12
 22435 0d18 00000000 		.4byte	.LFB13
 22436 0d1c 80000000 		.4byte	.LFE13
 22437 0d20 00000000 		.4byte	.LFB14
 22438 0d24 80000000 		.4byte	.LFE14
 22439 0d28 00000000 		.4byte	.LFB15
 22440 0d2c AC000000 		.4byte	.LFE15
 22441 0d30 00000000 		.4byte	.LFB16
 22442 0d34 A8000000 		.4byte	.LFE16
 22443 0d38 00000000 		.4byte	.LFB17
 22444 0d3c D0000000 		.4byte	.LFE17
 22445 0d40 00000000 		.4byte	.LFB18
 22446 0d44 A8000000 		.4byte	.LFE18
 22447 0d48 00000000 		.4byte	.LFB19
 22448 0d4c 4C000000 		.4byte	.LFE19
 22449 0d50 00000000 		.4byte	.LFB20
 22450 0d54 CC000000 		.4byte	.LFE20
 22451 0d58 00000000 		.4byte	.LFB21
 22452 0d5c B0000000 		.4byte	.LFE21
 22453 0d60 00000000 		.4byte	.LFB22
 22454 0d64 7C000000 		.4byte	.LFE22
 22455 0d68 00000000 		.4byte	.LFB23
 22456 0d6c 84000000 		.4byte	.LFE23
 22457 0d70 00000000 		.4byte	.LFB24
 22458 0d74 98000000 		.4byte	.LFE24
 22459 0d78 00000000 		.4byte	.LFB25
 22460 0d7c B0000000 		.4byte	.LFE25
 22461 0d80 00000000 		.4byte	.LFB26
 22462 0d84 4C010000 		.4byte	.LFE26
ARM GAS  /tmp/cchqCFfA.s 			page 398


 22463 0d88 00000000 		.4byte	.LFB27
 22464 0d8c 30000000 		.4byte	.LFE27
 22465 0d90 00000000 		.4byte	.LFB28
 22466 0d94 4C000000 		.4byte	.LFE28
 22467 0d98 00000000 		.4byte	.LFB29
 22468 0d9c 7C000000 		.4byte	.LFE29
 22469 0da0 00000000 		.4byte	0
 22470 0da4 00000000 		.4byte	0
 22471              		.section	.debug_line,"",%progbits
 22472              	.Ldebug_line0:
 22473 0000 C01D0000 		.section	.debug_str,"MS",%progbits,1
 22473      0300FC00 
 22473      00000201 
 22473      FB0E0D00 
 22473      01010101 
 22474              	.LASF179:
 22475 0000 6E616D65 		.ascii	"name\000"
 22475      00
 22476              	.LASF241:
 22477 0005 41736562 		.ascii	"AsebaNative_vecargbounds\000"
 22477      614E6174 
 22477      6976655F 
 22477      76656361 
 22477      7267626F 
 22478              	.LASF247:
 22479 001e 73726331 		.ascii	"src1\000"
 22479      00
 22480              	.LASF267:
 22481 0023 696E7075 		.ascii	"input\000"
 22481      7400
 22482              	.LASF182:
 22483 0029 41736562 		.ascii	"AsebaNativeFunctionDescription\000"
 22483      614E6174 
 22483      69766546 
 22483      756E6374 
 22483      696F6E44 
 22484              	.LASF78:
 22485 0048 5F6F6E5F 		.ascii	"_on_exit_args\000"
 22485      65786974 
 22485      5F617267 
 22485      7300
 22486              	.LASF197:
 22487 0056 41736562 		.ascii	"AsebaNativeDescription_mathmuldiv\000"
 22487      614E6174 
 22487      69766544 
 22487      65736372 
 22487      69707469 
 22488              	.LASF146:
 22489 0078 5F776374 		.ascii	"_wctomb_state\000"
 22489      6F6D625F 
 22489      73746174 
 22489      6500
 22490              	.LASF202:
 22491 0086 41736562 		.ascii	"AsebaNativeDescription_mathsqrt\000"
 22491      614E6174 
 22491      69766544 
 22491      65736372 
ARM GAS  /tmp/cchqCFfA.s 			page 399


 22491      69707469 
 22492              	.LASF174:
 22493 00a6 666C6167 		.ascii	"flags\000"
 22493      7300
 22494              	.LASF170:
 22495 00ac 76617269 		.ascii	"variablesSize\000"
 22495      61626C65 
 22495      7353697A 
 22495      6500
 22496              	.LASF143:
 22497 00ba 5F723438 		.ascii	"_r48\000"
 22497      00
 22498              	.LASF225:
 22499 00bf 41736562 		.ascii	"AsebaNative_mathrot2\000"
 22499      614E6174 
 22499      6976655F 
 22499      6D617468 
 22499      726F7432 
 22500              	.LASF238:
 22501 00d4 62496E64 		.ascii	"bIndex\000"
 22501      657800
 22502              	.LASF43:
 22503 00db 41534542 		.ascii	"ASEBA_MESSAGE_INVALID\000"
 22503      415F4D45 
 22503      53534147 
 22503      455F494E 
 22503      56414C49 
 22504              	.LASF35:
 22505 00f1 41534542 		.ascii	"ASEBA_MESSAGE_BREAKPOINT_CLEAR_ALL\000"
 22505      415F4D45 
 22505      53534147 
 22505      455F4252 
 22505      45414B50 
 22506              	.LASF148:
 22507 0114 5F736967 		.ascii	"_signal_buf\000"
 22507      6E616C5F 
 22507      62756600 
 22508              	.LASF44:
 22509 0120 756E7369 		.ascii	"unsigned int\000"
 22509      676E6564 
 22509      20696E74 
 22509      00
 22510              	.LASF228:
 22511 012d 616E676C 		.ascii	"angleIndex\000"
 22511      65496E64 
 22511      657800
 22512              	.LASF176:
 22513 0138 62726561 		.ascii	"breakpointsCount\000"
 22513      6B706F69 
 22513      6E747343 
 22513      6F756E74 
 22513      00
 22514              	.LASF8:
 22515 0149 41534542 		.ascii	"ASEBA_MESSAGE_BOOTLOADER_PAGE_DATA_WRITE\000"
 22515      415F4D45 
 22515      53534147 
 22515      455F424F 
ARM GAS  /tmp/cchqCFfA.s 			page 400


 22515      4F544C4F 
 22516              	.LASF92:
 22517 0172 5F6C6266 		.ascii	"_lbfsize\000"
 22517      73697A65 
 22517      00
 22518              	.LASF90:
 22519 017b 5F666C61 		.ascii	"_flags\000"
 22519      677300
 22520              	.LASF217:
 22521 0182 696E6465 		.ascii	"index\000"
 22521      7800
 22522              	.LASF26:
 22523 0188 41534542 		.ascii	"ASEBA_MESSAGE_SET_BYTECODE\000"
 22523      415F4D45 
 22523      53534147 
 22523      455F5345 
 22523      545F4259 
 22524              	.LASF107:
 22525 01a3 5F657272 		.ascii	"_errno\000"
 22525      6E6F00
 22526              	.LASF53:
 22527 01aa 5F6F6666 		.ascii	"_off_t\000"
 22527      5F7400
 22528              	.LASF21:
 22529 01b1 41534542 		.ascii	"ASEBA_MESSAGE_NODE_SPECIFIC_ERROR\000"
 22529      415F4D45 
 22529      53534147 
 22529      455F4E4F 
 22529      44455F53 
 22530              	.LASF42:
 22531 01d3 41534542 		.ascii	"ASEBA_MESSAGE_LIST_NODES\000"
 22531      415F4D45 
 22531      53534147 
 22531      455F4C49 
 22531      53545F4E 
 22532              	.LASF285:
 22533 01ec 2F686F6D 		.ascii	"/home/olof/Documents/MICRO-315/micro-315/tp4/lib/e-"
 22533      652F6F6C 
 22533      6F662F44 
 22533      6F63756D 
 22533      656E7473 
 22534 021f 7075636B 		.ascii	"puck2_main-processor\000"
 22534      325F6D61 
 22534      696E2D70 
 22534      726F6365 
 22534      73736F72 
 22535              	.LASF12:
 22536 0234 41534542 		.ascii	"ASEBA_MESSAGE_DESCRIPTION\000"
 22536      415F4D45 
 22536      53534147 
 22536      455F4445 
 22536      53435249 
 22537              	.LASF177:
 22538 024e 41736562 		.ascii	"AsebaVMState\000"
 22538      61564D53 
 22538      74617465 
 22538      00
ARM GAS  /tmp/cchqCFfA.s 			page 401


 22539              	.LASF23:
 22540 025b 41534542 		.ascii	"ASEBA_MESSAGE_BREAKPOINT_SET_RESULT\000"
 22540      415F4D45 
 22540      53534147 
 22540      455F4252 
 22540      45414B50 
 22541              	.LASF1:
 22542 027f 41534542 		.ascii	"ASEBA_VM_STEP_BY_STEP_MASK\000"
 22542      415F564D 
 22542      5F535445 
 22542      505F4259 
 22542      5F535445 
 22543              	.LASF61:
 22544 029a 5F4C4F43 		.ascii	"_LOCK_RECURSIVE_T\000"
 22544      4B5F5245 
 22544      43555253 
 22544      4956455F 
 22544      5400
 22545              	.LASF219:
 22546 02ac 62657374 		.ascii	"bestSeqLength\000"
 22546      5365714C 
 22546      656E6774 
 22546      6800
 22547              	.LASF262:
 22548 02ba 7363616C 		.ascii	"scalarValue\000"
 22548      61725661 
 22548      6C756500 
 22549              	.LASF32:
 22550 02c6 41534542 		.ascii	"ASEBA_MESSAGE_GET_EXECUTION_STATE\000"
 22550      415F4D45 
 22550      53534147 
 22550      455F4745 
 22550      545F4558 
 22551              	.LASF13:
 22552 02e8 41534542 		.ascii	"ASEBA_MESSAGE_NAMED_VARIABLE_DESCRIPTION\000"
 22552      415F4D45 
 22552      53534147 
 22552      455F4E41 
 22552      4D45445F 
 22553              	.LASF14:
 22554 0311 41534542 		.ascii	"ASEBA_MESSAGE_LOCAL_EVENT_DESCRIPTION\000"
 22554      415F4D45 
 22554      53534147 
 22554      455F4C4F 
 22554      43414C5F 
 22555              	.LASF167:
 22556 0337 6E6F6465 		.ascii	"nodeId\000"
 22556      496400
 22557              	.LASF199:
 22558 033e 41736562 		.ascii	"AsebaNativeDescription_mathsin\000"
 22558      614E6174 
 22558      69766544 
 22558      65736372 
 22558      69707469 
 22559              	.LASF279:
 22560 035d 73756270 		.ascii	"subprecision_rest\000"
 22560      72656369 
ARM GAS  /tmp/cchqCFfA.s 			page 402


 22560      73696F6E 
 22560      5F726573 
 22560      7400
 22561              	.LASF109:
 22562 036f 5F737464 		.ascii	"_stdout\000"
 22562      6F757400 
 22563              	.LASF54:
 22564 0377 5F66706F 		.ascii	"_fpos_t\000"
 22564      735F7400 
 22565              	.LASF85:
 22566 037f 5F666E73 		.ascii	"_fns\000"
 22566      00
 22567              	.LASF93:
 22568 0384 5F636F6F 		.ascii	"_cookie\000"
 22568      6B696500 
 22569              	.LASF232:
 22570 038c 6E7A4669 		.ascii	"nzFirstZero\000"
 22570      7273745A 
 22570      65726F00 
 22571              	.LASF7:
 22572 0398 41534542 		.ascii	"ASEBA_MESSAGE_BOOTLOADER_WRITE_PAGE\000"
 22572      415F4D45 
 22572      53534147 
 22572      455F424F 
 22572      4F544C4F 
 22573              	.LASF235:
 22574 03bc 79496E64 		.ascii	"yIndex\000"
 22574      657800
 22575              	.LASF67:
 22576 03c3 5F426967 		.ascii	"_Bigint\000"
 22576      696E7400 
 22577              	.LASF166:
 22578 03cb 41534542 		.ascii	"ASEBA_MAX_BREAKPOINTS\000"
 22578      415F4D41 
 22578      585F4252 
 22578      45414B50 
 22578      4F494E54 
 22579              	.LASF75:
 22580 03e1 5F5F746D 		.ascii	"__tm_wday\000"
 22580      5F776461 
 22580      7900
 22581              	.LASF242:
 22582 03eb 6172676D 		.ascii	"argmin\000"
 22582      696E00
 22583              	.LASF117:
 22584 03f2 5F726573 		.ascii	"_result\000"
 22584      756C7400 
 22585              	.LASF276:
 22586 03fa 72657375 		.ascii	"result\000"
 22586      6C7400
 22587              	.LASF208:
 22588 0401 64657374 		.ascii	"destIndex\000"
 22588      496E6465 
 22588      7800
 22589              	.LASF71:
 22590 040b 5F5F746D 		.ascii	"__tm_hour\000"
 22590      5F686F75 
ARM GAS  /tmp/cchqCFfA.s 			page 403


 22590      7200
 22591              	.LASF200:
 22592 0415 41736562 		.ascii	"AsebaNativeDescription_mathcos\000"
 22592      614E6174 
 22592      69766544 
 22592      65736372 
 22592      69707469 
 22593              	.LASF57:
 22594 0434 5F5F636F 		.ascii	"__count\000"
 22594      756E7400 
 22595              	.LASF204:
 22596 043c 41736562 		.ascii	"AsebaNativeDescription_rand\000"
 22596      614E6174 
 22596      69766544 
 22596      65736372 
 22596      69707469 
 22597              	.LASF249:
 22598 0458 73686966 		.ascii	"shift\000"
 22598      7400
 22599              	.LASF30:
 22600 045e 41534542 		.ascii	"ASEBA_MESSAGE_STEP\000"
 22600      415F4D45 
 22600      53534147 
 22600      455F5354 
 22600      455000
 22601              	.LASF70:
 22602 0471 5F5F746D 		.ascii	"__tm_min\000"
 22602      5F6D696E 
 22602      00
 22603              	.LASF159:
 22604 047a 5F696D70 		.ascii	"_impure_ptr\000"
 22604      7572655F 
 22604      70747200 
 22605              	.LASF156:
 22606 0486 5F6E6578 		.ascii	"_nextf\000"
 22606      746600
 22607              	.LASF233:
 22608 048d 41736562 		.ascii	"AsebaNative_mathsin\000"
 22608      614E6174 
 22608      6976655F 
 22608      6D617468 
 22608      73696E00 
 22609              	.LASF220:
 22610 04a1 62657374 		.ascii	"bestSeqIndex\000"
 22610      53657149 
 22610      6E646578 
 22610      00
 22611              	.LASF133:
 22612 04ae 5F72616E 		.ascii	"_rand48\000"
 22612      64343800 
 22613              	.LASF273:
 22614 04b6 73756249 		.ascii	"subIndex\000"
 22614      6E646578 
 22614      00
 22615              	.LASF212:
 22616 04bf 73656564 		.ascii	"seed\000"
 22616      00
ARM GAS  /tmp/cchqCFfA.s 			page 404


 22617              	.LASF5:
 22618 04c4 41534542 		.ascii	"ASEBA_MESSAGE_BOOTLOADER_RESET\000"
 22618      415F4D45 
 22618      53534147 
 22618      455F424F 
 22618      4F544C4F 
 22619              	.LASF118:
 22620 04e3 5F726573 		.ascii	"_result_k\000"
 22620      756C745F 
 22620      6B00
 22621              	.LASF51:
 22622 04ed 6C6F6E67 		.ascii	"long long unsigned int\000"
 22622      206C6F6E 
 22622      6720756E 
 22622      7369676E 
 22622      65642069 
 22623              	.LASF139:
 22624 0504 5F617363 		.ascii	"_asctime_buf\000"
 22624      74696D65 
 22624      5F627566 
 22624      00
 22625              	.LASF89:
 22626 0511 5F5F7346 		.ascii	"__sFILE\000"
 22626      494C4500 
 22627              	.LASF66:
 22628 0519 5F776473 		.ascii	"_wds\000"
 22628      00
 22629              	.LASF251:
 22630 051e 68696768 		.ascii	"high\000"
 22630      00
 22631              	.LASF164:
 22632 0523 73696E74 		.ascii	"sint16\000"
 22632      313600
 22633              	.LASF129:
 22634 052a 5F5F4649 		.ascii	"__FILE\000"
 22634      4C4500
 22635              	.LASF286:
 22636 0531 5F5F6C6F 		.ascii	"__locale_t\000"
 22636      63616C65 
 22636      5F7400
 22637              	.LASF101:
 22638 053c 5F6F6666 		.ascii	"_offset\000"
 22638      73657400 
 22639              	.LASF231:
 22640 0544 41736562 		.ascii	"AsebaNative_mathcos\000"
 22640      614E6174 
 22640      6976655F 
 22640      6D617468 
 22640      636F7300 
 22641              	.LASF264:
 22642 0558 76616C75 		.ascii	"value\000"
 22642      6500
 22643              	.LASF112:
 22644 055e 5F656D65 		.ascii	"_emergency\000"
 22644      7267656E 
 22644      637900
 22645              	.LASF258:
ARM GAS  /tmp/cchqCFfA.s 			page 405


 22646 0569 41736562 		.ascii	"AsebaNative_vecsub\000"
 22646      614E6174 
 22646      6976655F 
 22646      76656373 
 22646      756200
 22647              	.LASF230:
 22648 057c 73696E5F 		.ascii	"sin_a\000"
 22648      6100
 22649              	.LASF248:
 22650 0582 73726332 		.ascii	"src2\000"
 22650      00
 22651              	.LASF277:
 22652 0587 61736562 		.ascii	"aseba_atan2\000"
 22652      615F6174 
 22652      616E3200 
 22653              	.LASF234:
 22654 0593 41736562 		.ascii	"AsebaNative_mathatan2\000"
 22654      614E6174 
 22654      6976655F 
 22654      6D617468 
 22654      6174616E 
 22655              	.LASF195:
 22656 05a9 41736562 		.ascii	"AsebaNativeDescription_vecargbounds\000"
 22656      614E6174 
 22656      69766544 
 22656      65736372 
 22656      69707469 
 22657              	.LASF6:
 22658 05cd 41534542 		.ascii	"ASEBA_MESSAGE_BOOTLOADER_READ_PAGE\000"
 22658      415F4D45 
 22658      53534147 
 22658      455F424F 
 22658      4F544C4F 
 22659              	.LASF69:
 22660 05f0 5F5F746D 		.ascii	"__tm_sec\000"
 22660      5F736563 
 22660      00
 22661              	.LASF161:
 22662 05f9 7375626F 		.ascii	"suboptarg\000"
 22662      70746172 
 22662      6700
 22663              	.LASF76:
 22664 0603 5F5F746D 		.ascii	"__tm_yday\000"
 22664      5F796461 
 22664      7900
 22665              	.LASF111:
 22666 060d 5F696E63 		.ascii	"_inc\000"
 22666      00
 22667              	.LASF84:
 22668 0612 5F696E64 		.ascii	"_ind\000"
 22668      00
 22669              	.LASF271:
 22670 0617 61736562 		.ascii	"aseba_cos\000"
 22670      615F636F 
 22670      7300
 22671              	.LASF213:
 22672 0621 41736562 		.ascii	"AsebaNative_vecnonzerosequence\000"
ARM GAS  /tmp/cchqCFfA.s 			page 406


 22672      614E6174 
 22672      6976655F 
 22672      7665636E 
 22672      6F6E7A65 
 22673              	.LASF40:
 22674 0640 41534542 		.ascii	"ASEBA_MESSAGE_SUSPEND_TO_RAM\000"
 22674      415F4D45 
 22674      53534147 
 22674      455F5355 
 22674      5350454E 
 22675              	.LASF63:
 22676 065d 5F6E6578 		.ascii	"_next\000"
 22676      7400
 22677              	.LASF280:
 22678 0663 746F5F73 		.ascii	"to_shift\000"
 22678      68696674 
 22678      00
 22679              	.LASF152:
 22680 066c 5F6D6273 		.ascii	"_mbsrtowcs_state\000"
 22680      72746F77 
 22680      63735F73 
 22680      74617465 
 22680      00
 22681              	.LASF223:
 22682 067d 41736562 		.ascii	"AsebaNative_mathsqrt\000"
 22682      614E6174 
 22682      6976655F 
 22682      6D617468 
 22682      73717274 
 22683              	.LASF218:
 22684 0692 73657149 		.ascii	"seqIndex\000"
 22684      6E646578 
 22684      00
 22685              	.LASF189:
 22686 069b 41736562 		.ascii	"AsebaNativeDescription_vecdiv\000"
 22686      614E6174 
 22686      69766544 
 22686      65736372 
 22686      69707469 
 22687              	.LASF184:
 22688 06b9 41736562 		.ascii	"AsebaNativeDescription_vecfill\000"
 22688      614E6174 
 22688      69766544 
 22688      65736372 
 22688      69707469 
 22689              	.LASF58:
 22690 06d8 5F5F7661 		.ascii	"__value\000"
 22690      6C756500 
 22691              	.LASF254:
 22692 06e0 41736562 		.ascii	"AsebaNative_vecdiv\000"
 22692      614E6174 
 22692      6976655F 
 22692      76656364 
 22692      697600
 22693              	.LASF119:
 22694 06f3 5F703573 		.ascii	"_p5s\000"
 22694      00
ARM GAS  /tmp/cchqCFfA.s 			page 407


 22695              	.LASF292:
 22696 06f8 41736562 		.ascii	"AsebaSendMessage\000"
 22696      6153656E 
 22696      644D6573 
 22696      73616765 
 22696      00
 22697              	.LASF162:
 22698 0709 73696E74 		.ascii	"sint32\000"
 22698      333200
 22699              	.LASF154:
 22700 0710 5F776373 		.ascii	"_wcsrtombs_state\000"
 22700      72746F6D 
 22700      62735F73 
 22700      74617465 
 22700      00
 22701              	.LASF144:
 22702 0721 5F6D626C 		.ascii	"_mblen_state\000"
 22702      656E5F73 
 22702      74617465 
 22702      00
 22703              	.LASF128:
 22704 072e 63686172 		.ascii	"char\000"
 22704      00
 22705              	.LASF72:
 22706 0733 5F5F746D 		.ascii	"__tm_mday\000"
 22706      5F6D6461 
 22706      7900
 22707              	.LASF125:
 22708 073d 5F736967 		.ascii	"_sig_func\000"
 22708      5F66756E 
 22708      6300
 22709              	.LASF151:
 22710 0747 5F6D6272 		.ascii	"_mbrtowc_state\000"
 22710      746F7763 
 22710      5F737461 
 22710      746500
 22711              	.LASF124:
 22712 0756 5F617465 		.ascii	"_atexit0\000"
 22712      78697430 
 22712      00
 22713              	.LASF244:
 22714 075f 41736562 		.ascii	"AsebaNative_vecstat\000"
 22714      614E6174 
 22714      6976655F 
 22714      76656373 
 22714      74617400 
 22715              	.LASF191:
 22716 0773 41736562 		.ascii	"AsebaNativeDescription_vecmax\000"
 22716      614E6174 
 22716      69766544 
 22716      65736372 
 22716      69707469 
 22717              	.LASF255:
 22718 0791 64697669 		.ascii	"dividend\000"
 22718      64656E64 
 22718      00
 22719              	.LASF2:
ARM GAS  /tmp/cchqCFfA.s 			page 408


 22720 079a 41534542 		.ascii	"ASEBA_VM_EVENT_RUNNING_MASK\000"
 22720      415F564D 
 22720      5F455645 
 22720      4E545F52 
 22720      554E4E49 
 22721              	.LASF229:
 22722 07b6 636F735F 		.ascii	"cos_a\000"
 22722      6100
 22723              	.LASF252:
 22724 07bc 41736562 		.ascii	"AsebaNative_vecmax\000"
 22724      614E6174 
 22724      6976655F 
 22724      7665636D 
 22724      617800
 22725              	.LASF9:
 22726 07cf 41534542 		.ascii	"ASEBA_MESSAGE_BOOTLOADER_DESCRIPTION\000"
 22726      415F4D45 
 22726      53534147 
 22726      455F424F 
 22726      4F544C4F 
 22727              	.LASF165:
 22728 07f4 75696E74 		.ascii	"uint16\000"
 22728      313600
 22729              	.LASF62:
 22730 07fb 5F666C6F 		.ascii	"_flock_t\000"
 22730      636B5F74 
 22730      00
 22731              	.LASF260:
 22732 0804 41736562 		.ascii	"AsebaNative_vecaddscalar\000"
 22732      614E6174 
 22732      6976655F 
 22732      76656361 
 22732      64647363 
 22733              	.LASF274:
 22734 081d 696E7665 		.ascii	"invert\000"
 22734      727400
 22735              	.LASF55:
 22736 0824 5F5F7763 		.ascii	"__wch\000"
 22736      6800
 22737              	.LASF132:
 22738 082a 5F696F62 		.ascii	"_iobs\000"
 22738      7300
 22739              	.LASF226:
 22740 0830 76656374 		.ascii	"vectOutIndex\000"
 22740      4F757449 
 22740      6E646578 
 22740      00
 22741              	.LASF97:
 22742 083d 5F636C6F 		.ascii	"_close\000"
 22742      736500
 22743              	.LASF289:
 22744 0844 61736562 		.ascii	"aseba_sin\000"
 22744      615F7369 
 22744      6E00
 22745              	.LASF115:
 22746 084e 5F5F7364 		.ascii	"__sdidinit\000"
 22746      6964696E 
ARM GAS  /tmp/cchqCFfA.s 			page 409


 22746      697400
 22747              	.LASF269:
 22748 0859 73776170 		.ascii	"swap\000"
 22748      00
 22749              	.LASF37:
 22750 085e 41534542 		.ascii	"ASEBA_MESSAGE_SET_VARIABLES\000"
 22750      415F4D45 
 22750      53534147 
 22750      455F5345 
 22750      545F5641 
 22751              	.LASF287:
 22752 087a 41736562 		.ascii	"AsebaGetRandom\000"
 22752      61476574 
 22752      52616E64 
 22752      6F6D00
 22753              	.LASF203:
 22754 0889 41736562 		.ascii	"AsebaNativeDescription_vecnonzerosequence\000"
 22754      614E6174 
 22754      69766544 
 22754      65736372 
 22754      69707469 
 22755              	.LASF108:
 22756 08b3 5F737464 		.ascii	"_stdin\000"
 22756      696E00
 22757              	.LASF141:
 22758 08ba 5F67616D 		.ascii	"_gamma_signgam\000"
 22758      6D615F73 
 22758      69676E67 
 22758      616D00
 22759              	.LASF45:
 22760 08c9 6C6F6E67 		.ascii	"long long int\000"
 22760      206C6F6E 
 22760      6720696E 
 22760      7400
 22761              	.LASF183:
 22762 08d7 41736562 		.ascii	"AsebaNativeDescription_veccopy\000"
 22762      614E6174 
 22762      69766544 
 22762      65736372 
 22762      69707469 
 22763              	.LASF87:
 22764 08f6 5F626173 		.ascii	"_base\000"
 22764      6500
 22765              	.LASF120:
 22766 08fc 5F667265 		.ascii	"_freelist\000"
 22766      656C6973 
 22766      7400
 22767              	.LASF135:
 22768 0906 5F6D756C 		.ascii	"_mult\000"
 22768      7400
 22769              	.LASF60:
 22770 090c 5F5F554C 		.ascii	"__ULong\000"
 22770      6F6E6700 
 22771              	.LASF192:
 22772 0914 41736562 		.ascii	"AsebaNativeDescription_vecclamp\000"
 22772      614E6174 
 22772      69766544 
ARM GAS  /tmp/cchqCFfA.s 			page 410


 22772      65736372 
 22772      69707469 
 22773              	.LASF27:
 22774 0934 41534542 		.ascii	"ASEBA_MESSAGE_RESET\000"
 22774      415F4D45 
 22774      53534147 
 22774      455F5245 
 22774      53455400 
 22775              	.LASF153:
 22776 0948 5F776372 		.ascii	"_wcrtomb_state\000"
 22776      746F6D62 
 22776      5F737461 
 22776      746500
 22777              	.LASF91:
 22778 0957 5F66696C 		.ascii	"_file\000"
 22778      6500
 22779              	.LASF222:
 22780 095d 6E7A4669 		.ascii	"nzFirstIndex\000"
 22780      72737449 
 22780      6E646578 
 22780      00
 22781              	.LASF224:
 22782 096a 78496E64 		.ascii	"xIndex\000"
 22782      657800
 22783              	.LASF221:
 22784 0971 7365714C 		.ascii	"seqLength\000"
 22784      656E6774 
 22784      6800
 22785              	.LASF116:
 22786 097b 5F5F636C 		.ascii	"__cleanup\000"
 22786      65616E75 
 22786      7000
 22787              	.LASF36:
 22788 0985 41534542 		.ascii	"ASEBA_MESSAGE_GET_VARIABLES\000"
 22788      415F4D45 
 22788      53534147 
 22788      455F4745 
 22788      545F5641 
 22789              	.LASF59:
 22790 09a1 5F6D6273 		.ascii	"_mbstate_t\000"
 22790      74617465 
 22790      5F7400
 22791              	.LASF24:
 22792 09ac 41534542 		.ascii	"ASEBA_MESSAGE_NODE_PRESENT\000"
 22792      415F4D45 
 22792      53534147 
 22792      455F4E4F 
 22792      44455F50 
 22793              	.LASF172:
 22794 09c7 73746163 		.ascii	"stackSize\000"
 22794      6B53697A 
 22794      6500
 22795              	.LASF178:
 22796 09d1 73697A65 		.ascii	"size\000"
 22796      00
 22797              	.LASF210:
 22798 09d6 41736562 		.ascii	"AsebaNative_rand\000"
ARM GAS  /tmp/cchqCFfA.s 			page 411


 22798      614E6174 
 22798      6976655F 
 22798      72616E64 
 22798      00
 22799              	.LASF185:
 22800 09e7 41736562 		.ascii	"AsebaNativeDescription_vecaddscalar\000"
 22800      614E6174 
 22800      69766544 
 22800      65736372 
 22800      69707469 
 22801              	.LASF163:
 22802 0a0b 75696E74 		.ascii	"uint32\000"
 22802      333200
 22803              	.LASF77:
 22804 0a12 5F5F746D 		.ascii	"__tm_isdst\000"
 22804      5F697364 
 22804      737400
 22805              	.LASF0:
 22806 0a1d 41534542 		.ascii	"ASEBA_VM_EVENT_ACTIVE_MASK\000"
 22806      415F564D 
 22806      5F455645 
 22806      4E545F41 
 22806      43544956 
 22807              	.LASF205:
 22808 0a38 61736562 		.ascii	"aseba_atan_table\000"
 22808      615F6174 
 22808      616E5F74 
 22808      61626C65 
 22808      00
 22809              	.LASF171:
 22810 0a49 76617269 		.ascii	"variables\000"
 22810      61626C65 
 22810      7300
 22811              	.LASF150:
 22812 0a53 5F6D6272 		.ascii	"_mbrlen_state\000"
 22812      6C656E5F 
 22812      73746174 
 22812      6500
 22813              	.LASF216:
 22814 0a61 6D696E4C 		.ascii	"minLength\000"
 22814      656E6774 
 22814      6800
 22815              	.LASF155:
 22816 0a6b 5F685F65 		.ascii	"_h_errno\000"
 22816      72726E6F 
 22816      00
 22817              	.LASF250:
 22818 0a74 41736562 		.ascii	"AsebaNative_vecclamp\000"
 22818      614E6174 
 22818      6976655F 
 22818      76656363 
 22818      6C616D70 
 22819              	.LASF198:
 22820 0a89 41736562 		.ascii	"AsebaNativeDescription_mathatan2\000"
 22820      614E6174 
 22820      69766544 
 22820      65736372 
ARM GAS  /tmp/cchqCFfA.s 			page 412


 22820      69707469 
 22821              	.LASF168:
 22822 0aaa 62797465 		.ascii	"bytecodeSize\000"
 22822      636F6465 
 22822      53697A65 
 22822      00
 22823              	.LASF29:
 22824 0ab7 41534542 		.ascii	"ASEBA_MESSAGE_PAUSE\000"
 22824      415F4D45 
 22824      53534147 
 22824      455F5041 
 22824      55534500 
 22825              	.LASF73:
 22826 0acb 5F5F746D 		.ascii	"__tm_mon\000"
 22826      5F6D6F6E 
 22826      00
 22827              	.LASF18:
 22828 0ad4 41534542 		.ascii	"ASEBA_MESSAGE_ARRAY_ACCESS_OUT_OF_BOUNDS\000"
 22828      415F4D45 
 22828      53534147 
 22828      455F4152 
 22828      5241595F 
 22829              	.LASF180:
 22830 0afd 41736562 		.ascii	"AsebaNativeFunctionArgumentDescription\000"
 22830      614E6174 
 22830      69766546 
 22830      756E6374 
 22830      696F6E41 
 22831              	.LASF46:
 22832 0b24 6C6F6E67 		.ascii	"long double\000"
 22832      20646F75 
 22832      626C6500 
 22833              	.LASF11:
 22834 0b30 41534542 		.ascii	"ASEBA_MESSAGE_BOOTLOADER_ACK\000"
 22834      415F4D45 
 22834      53534147 
 22834      455F424F 
 22834      4F544C4F 
 22835              	.LASF95:
 22836 0b4d 5F777269 		.ascii	"_write\000"
 22836      746500
 22837              	.LASF272:
 22838 0b54 616E676C 		.ascii	"angle\000"
 22838      6500
 22839              	.LASF187:
 22840 0b5a 41736562 		.ascii	"AsebaNativeDescription_vecsub\000"
 22840      614E6174 
 22840      69766544 
 22840      65736372 
 22840      69707469 
 22841              	.LASF83:
 22842 0b78 5F617465 		.ascii	"_atexit\000"
 22842      78697400 
 22843              	.LASF104:
 22844 0b80 5F6D6273 		.ascii	"_mbstate\000"
 22844      74617465 
 22844      00
ARM GAS  /tmp/cchqCFfA.s 			page 413


 22845              	.LASF275:
 22846 0b89 6C6F6F6B 		.ascii	"lookupAngle\000"
 22846      7570416E 
 22846      676C6500 
 22847              	.LASF268:
 22848 0b95 73776170 		.ascii	"swapped\000"
 22848      70656400 
 22849              	.LASF243:
 22850 0b9d 6172676D 		.ascii	"argmax\000"
 22850      617800
 22851              	.LASF48:
 22852 0ba4 73686F72 		.ascii	"short int\000"
 22852      7420696E 
 22852      7400
 22853              	.LASF25:
 22854 0bae 41534542 		.ascii	"ASEBA_MESSAGE_GET_DESCRIPTION\000"
 22854      415F4D45 
 22854      53534147 
 22854      455F4745 
 22854      545F4445 
 22855              	.LASF290:
 22856 0bcc 41736562 		.ascii	"AsebaNativePopArg\000"
 22856      614E6174 
 22856      69766550 
 22856      6F704172 
 22856      6700
 22857              	.LASF49:
 22858 0bde 6C6F6E67 		.ascii	"long int\000"
 22858      20696E74 
 22858      00
 22859              	.LASF265:
 22860 0be7 41736562 		.ascii	"AsebaNative_veccopy\000"
 22860      614E6174 
 22860      6976655F 
 22860      76656363 
 22860      6F707900 
 22861              	.LASF281:
 22862 0bfb 73756270 		.ascii	"subprecision_index\000"
 22862      72656369 
 22862      73696F6E 
 22862      5F696E64 
 22862      657800
 22863              	.LASF270:
 22864 0c0e 61736562 		.ascii	"aseba_sqrt\000"
 22864      615F7371 
 22864      727400
 22865              	.LASF209:
 22866 0c19 6C656E67 		.ascii	"length\000"
 22866      746800
 22867              	.LASF236:
 22868 0c20 41736562 		.ascii	"AsebaNative_mathmuldiv\000"
 22868      614E6174 
 22868      6976655F 
 22868      6D617468 
 22868      6D756C64 
 22869              	.LASF237:
 22870 0c37 61496E64 		.ascii	"aIndex\000"
ARM GAS  /tmp/cchqCFfA.s 			page 414


 22870      657800
 22871              	.LASF291:
 22872 0c3e 5F5F7374 		.ascii	"__stack_chk_fail\000"
 22872      61636B5F 
 22872      63686B5F 
 22872      6661696C 
 22872      00
 22873              	.LASF127:
 22874 0c4f 5F5F7366 		.ascii	"__sf\000"
 22874      00
 22875              	.LASF65:
 22876 0c54 5F736967 		.ascii	"_sign\000"
 22876      6E00
 22877              	.LASF211:
 22878 0c5a 41736562 		.ascii	"AsebaSetRandomSeed\000"
 22878      61536574 
 22878      52616E64 
 22878      6F6D5365 
 22878      656400
 22879              	.LASF15:
 22880 0c6d 41534542 		.ascii	"ASEBA_MESSAGE_NATIVE_FUNCTION_DESCRIPTION\000"
 22880      415F4D45 
 22880      53534147 
 22880      455F4E41 
 22880      54495645 
 22881              	.LASF102:
 22882 0c97 5F646174 		.ascii	"_data\000"
 22882      6100
 22883              	.LASF56:
 22884 0c9d 5F5F7763 		.ascii	"__wchb\000"
 22884      686200
 22885              	.LASF160:
 22886 0ca4 5F676C6F 		.ascii	"_global_impure_ptr\000"
 22886      62616C5F 
 22886      696D7075 
 22886      72655F70 
 22886      747200
 22887              	.LASF194:
 22888 0cb7 41736562 		.ascii	"AsebaNativeDescription_vecstat\000"
 22888      614E6174 
 22888      69766544 
 22888      65736372 
 22888      69707469 
 22889              	.LASF188:
 22890 0cd6 41736562 		.ascii	"AsebaNativeDescription_vecmul\000"
 22890      614E6174 
 22890      69766544 
 22890      65736372 
 22890      69707469 
 22891              	.LASF74:
 22892 0cf4 5F5F746D 		.ascii	"__tm_year\000"
 22892      5F796561 
 22892      7200
 22893              	.LASF288:
 22894 0cfe 646F7562 		.ascii	"doubleBreak\000"
 22894      6C654272 
 22894      65616B00 
ARM GAS  /tmp/cchqCFfA.s 			page 415


 22895              	.LASF38:
 22896 0d0a 41534542 		.ascii	"ASEBA_MESSAGE_WRITE_BYTECODE\000"
 22896      415F4D45 
 22896      53534147 
 22896      455F5752 
 22896      4954455F 
 22897              	.LASF257:
 22898 0d27 41736562 		.ascii	"AsebaNative_vecmul\000"
 22898      614E6174 
 22898      6976655F 
 22898      7665636D 
 22898      756C00
 22899              	.LASF240:
 22900 0d3a 41736562 		.ascii	"AsebaNative_vecsort\000"
 22900      614E6174 
 22900      6976655F 
 22900      76656373 
 22900      6F727400 
 22901              	.LASF140:
 22902 0d4e 5F6C6F63 		.ascii	"_localtime_buf\000"
 22902      616C7469 
 22902      6D655F62 
 22902      756600
 22903              	.LASF158:
 22904 0d5d 5F756E75 		.ascii	"_unused\000"
 22904      73656400 
 22905              	.LASF201:
 22906 0d65 41736562 		.ascii	"AsebaNativeDescription_mathrot2\000"
 22906      614E6174 
 22906      69766544 
 22906      65736372 
 22906      69707469 
 22907              	.LASF123:
 22908 0d85 5F6E6577 		.ascii	"_new\000"
 22908      00
 22909              	.LASF121:
 22910 0d8a 5F637674 		.ascii	"_cvtlen\000"
 22910      6C656E00 
 22911              	.LASF64:
 22912 0d92 5F6D6178 		.ascii	"_maxwds\000"
 22912      77647300 
 22913              	.LASF147:
 22914 0d9a 5F6C3634 		.ascii	"_l64a_buf\000"
 22914      615F6275 
 22914      6600
 22915              	.LASF263:
 22916 0da4 41736562 		.ascii	"AsebaNative_vecfill\000"
 22916      614E6174 
 22916      6976655F 
 22916      76656366 
 22916      696C6C00 
 22917              	.LASF173:
 22918 0db8 73746163 		.ascii	"stack\000"
 22918      6B00
 22919              	.LASF193:
 22920 0dbe 41736562 		.ascii	"AsebaNativeDescription_vecdot\000"
 22920      614E6174 
ARM GAS  /tmp/cchqCFfA.s 			page 416


 22920      69766544 
 22920      65736372 
 22920      69707469 
 22921              	.LASF100:
 22922 0ddc 5F626C6B 		.ascii	"_blksize\000"
 22922      73697A65 
 22922      00
 22923              	.LASF68:
 22924 0de5 5F5F746D 		.ascii	"__tm\000"
 22924      00
 22925              	.LASF246:
 22926 0dea 41736562 		.ascii	"AsebaNative_vecdot\000"
 22926      614E6174 
 22926      6976655F 
 22926      76656364 
 22926      6F7400
 22927              	.LASF103:
 22928 0dfd 5F6C6F63 		.ascii	"_lock\000"
 22928      6B00
 22929              	.LASF50:
 22930 0e03 6C6F6E67 		.ascii	"long unsigned int\000"
 22930      20756E73 
 22930      69676E65 
 22930      6420696E 
 22930      7400
 22931              	.LASF131:
 22932 0e15 5F6E696F 		.ascii	"_niobs\000"
 22932      627300
 22933              	.LASF52:
 22934 0e1c 77696E74 		.ascii	"wint_t\000"
 22934      5F7400
 22935              	.LASF39:
 22936 0e23 41534542 		.ascii	"ASEBA_MESSAGE_REBOOT\000"
 22936      415F4D45 
 22936      53534147 
 22936      455F5245 
 22936      424F4F54 
 22937              	.LASF256:
 22938 0e38 64697669 		.ascii	"divisor\000"
 22938      736F7200 
 22939              	.LASF80:
 22940 0e40 5F64736F 		.ascii	"_dso_handle\000"
 22940      5F68616E 
 22940      646C6500 
 22941              	.LASF175:
 22942 0e4c 62726561 		.ascii	"breakpoints\000"
 22942      6B706F69 
 22942      6E747300 
 22943              	.LASF10:
 22944 0e58 41534542 		.ascii	"ASEBA_MESSAGE_BOOTLOADER_PAGE_DATA_READ\000"
 22944      415F4D45 
 22944      53534147 
 22944      455F424F 
 22944      4F544C4F 
 22945              	.LASF122:
 22946 0e80 5F637674 		.ascii	"_cvtbuf\000"
 22946      62756600 
ARM GAS  /tmp/cchqCFfA.s 			page 417


 22947              	.LASF3:
 22948 0e88 756E7369 		.ascii	"unsigned char\000"
 22948      676E6564 
 22948      20636861 
 22948      7200
 22949              	.LASF284:
 22950 0e96 2E2F2F61 		.ascii	".//aseba/vm/natives.c\000"
 22950      73656261 
 22950      2F766D2F 
 22950      6E617469 
 22950      7665732E 
 22951              	.LASF186:
 22952 0eac 41736562 		.ascii	"AsebaNativeDescription_vecadd\000"
 22952      614E6174 
 22952      69766544 
 22952      65736372 
 22952      69707469 
 22953              	.LASF149:
 22954 0eca 5F676574 		.ascii	"_getdate_err\000"
 22954      64617465 
 22954      5F657272 
 22954      00
 22955              	.LASF181:
 22956 0ed7 61726775 		.ascii	"arguments\000"
 22956      6D656E74 
 22956      7300
 22957              	.LASF259:
 22958 0ee1 41736562 		.ascii	"AsebaNative_vecadd\000"
 22958      614E6174 
 22958      6976655F 
 22958      76656361 
 22958      646400
 22959              	.LASF196:
 22960 0ef4 41736562 		.ascii	"AsebaNativeDescription_vecsort\000"
 22960      614E6174 
 22960      69766544 
 22960      65736372 
 22960      69707469 
 22961              	.LASF206:
 22962 0f13 61736562 		.ascii	"aseba_sin_table\000"
 22962      615F7369 
 22962      6E5F7461 
 22962      626C6500 
 22963              	.LASF136:
 22964 0f23 5F616464 		.ascii	"_add\000"
 22964      00
 22965              	.LASF94:
 22966 0f28 5F726561 		.ascii	"_read\000"
 22966      6400
 22967              	.LASF33:
 22968 0f2e 41534542 		.ascii	"ASEBA_MESSAGE_BREAKPOINT_SET\000"
 22968      415F4D45 
 22968      53534147 
 22968      455F4252 
 22968      45414B50 
 22969              	.LASF239:
 22970 0f4b 63496E64 		.ascii	"cIndex\000"
ARM GAS  /tmp/cchqCFfA.s 			page 418


 22970      657800
 22971              	.LASF278:
 22972 0f52 6662315F 		.ascii	"fb1_counter\000"
 22972      636F756E 
 22972      74657200 
 22973              	.LASF86:
 22974 0f5e 5F5F7362 		.ascii	"__sbuf\000"
 22974      756600
 22975              	.LASF227:
 22976 0f65 76656349 		.ascii	"vecInIndex\000"
 22976      6E496E64 
 22976      657800
 22977              	.LASF31:
 22978 0f70 41534542 		.ascii	"ASEBA_MESSAGE_STOP\000"
 22978      415F4D45 
 22978      53534147 
 22978      455F5354 
 22978      4F5000
 22979              	.LASF130:
 22980 0f83 5F676C75 		.ascii	"_glue\000"
 22980      6500
 22981              	.LASF215:
 22982 0f89 696E7075 		.ascii	"inputLength\000"
 22982      744C656E 
 22982      67746800 
 22983              	.LASF126:
 22984 0f95 5F5F7367 		.ascii	"__sglue\000"
 22984      6C756500 
 22985              	.LASF138:
 22986 0f9d 5F737472 		.ascii	"_strtok_last\000"
 22986      746F6B5F 
 22986      6C617374 
 22986      00
 22987              	.LASF145:
 22988 0faa 5F6D6274 		.ascii	"_mbtowc_state\000"
 22988      6F77635F 
 22988      73746174 
 22988      6500
 22989              	.LASF266:
 22990 0fb8 61736562 		.ascii	"aseba_comb_sort\000"
 22990      615F636F 
 22990      6D625F73 
 22990      6F727400 
 22991              	.LASF16:
 22992 0fc8 41534542 		.ascii	"ASEBA_MESSAGE_DISCONNECTED\000"
 22992      415F4D45 
 22992      53534147 
 22992      455F4449 
 22992      53434F4E 
 22993              	.LASF114:
 22994 0fe3 5F6C6F63 		.ascii	"_locale\000"
 22994      616C6500 
 22995              	.LASF17:
 22996 0feb 41534542 		.ascii	"ASEBA_MESSAGE_VARIABLES\000"
 22996      415F4D45 
 22996      53534147 
 22996      455F5641 
ARM GAS  /tmp/cchqCFfA.s 			page 419


 22996      52494142 
 22997              	.LASF79:
 22998 1003 5F666E61 		.ascii	"_fnargs\000"
 22998      72677300 
 22999              	.LASF47:
 23000 100b 7369676E 		.ascii	"signed char\000"
 23000      65642063 
 23000      68617200 
 23001              	.LASF282:
 23002 1017 64656C74 		.ascii	"delta\000"
 23002      6100
 23003              	.LASF106:
 23004 101d 5F726565 		.ascii	"_reent\000"
 23004      6E7400
 23005              	.LASF4:
 23006 1024 73686F72 		.ascii	"short unsigned int\000"
 23006      7420756E 
 23006      7369676E 
 23006      65642069 
 23006      6E7400
 23007              	.LASF34:
 23008 1037 41534542 		.ascii	"ASEBA_MESSAGE_BREAKPOINT_CLEAR\000"
 23008      415F4D45 
 23008      53534147 
 23008      455F4252 
 23008      45414B50 
 23009              	.LASF81:
 23010 1056 5F666E74 		.ascii	"_fntypes\000"
 23010      79706573 
 23010      00
 23011              	.LASF190:
 23012 105f 41736562 		.ascii	"AsebaNativeDescription_vecmin\000"
 23012      614E6174 
 23012      69766544 
 23012      65736372 
 23012      69707469 
 23013              	.LASF88:
 23014 107d 5F73697A 		.ascii	"_size\000"
 23014      6500
 23015              	.LASF19:
 23016 1083 41534542 		.ascii	"ASEBA_MESSAGE_DIVISION_BY_ZERO\000"
 23016      415F4D45 
 23016      53534147 
 23016      455F4449 
 23016      56495349 
 23017              	.LASF207:
 23018 10a2 726E645F 		.ascii	"rnd_state\000"
 23018      73746174 
 23018      6500
 23019              	.LASF253:
 23020 10ac 41736562 		.ascii	"AsebaNative_vecmin\000"
 23020      614E6174 
 23020      6976655F 
 23020      7665636D 
 23020      696E00
 23021              	.LASF283:
 23022 10bf 474E5520 		.ascii	"GNU C17 9.2.1 20191025 (release) [ARM/arm-9-branch "
ARM GAS  /tmp/cchqCFfA.s 			page 420


 23022      43313720 
 23022      392E322E 
 23022      31203230 
 23022      31393130 
 23023 10f2 72657669 		.ascii	"revision 277599] -mcpu=cortex-m4 -mfloat-abi=hard -"
 23023      73696F6E 
 23023      20323737 
 23023      3539395D 
 23023      202D6D63 
 23024 1125 6D667075 		.ascii	"mfpu=fpv4-sp-d16 -mno-thumb-interwork -mthumb -marc"
 23024      3D667076 
 23024      342D7370 
 23024      2D643136 
 23024      202D6D6E 
 23025 1158 683D6172 		.ascii	"h=armv7e-m+fp -ggdb -O2 -fomit-frame-pointer -falig"
 23025      6D763765 
 23025      2D6D2B66 
 23025      70202D67 
 23025      67646220 
 23026 118b 6E2D6675 		.ascii	"n-functions=16 -fno-strict-aliasing -fstack-protect"
 23026      6E637469 
 23026      6F6E733D 
 23026      3136202D 
 23026      666E6F2D 
 23027 11be 6F722D61 		.ascii	"or-all -ffunction-sections -fdata-sections -fno-com"
 23027      6C6C202D 
 23027      6666756E 
 23027      6374696F 
 23027      6E2D7365 
 23028 11f1 6D6F6E20 		.ascii	"mon -fsingle-precision-constant\000"
 23028      2D667369 
 23028      6E676C65 
 23028      2D707265 
 23028      63697369 
 23029              	.LASF99:
 23030 1211 5F6E6275 		.ascii	"_nbuf\000"
 23030      6600
 23031              	.LASF137:
 23032 1217 5F756E75 		.ascii	"_unused_rand\000"
 23032      7365645F 
 23032      72616E64 
 23032      00
 23033              	.LASF41:
 23034 1224 41534542 		.ascii	"ASEBA_MESSAGE_GET_NODE_DESCRIPTION\000"
 23034      415F4D45 
 23034      53534147 
 23034      455F4745 
 23034      545F4E4F 
 23035              	.LASF113:
 23036 1247 5F756E73 		.ascii	"_unspecified_locale_info\000"
 23036      70656369 
 23036      66696564 
 23036      5F6C6F63 
 23036      616C655F 
 23037              	.LASF105:
 23038 1260 5F666C61 		.ascii	"_flags2\000"
 23038      67733200 
ARM GAS  /tmp/cchqCFfA.s 			page 421


 23039              	.LASF82:
 23040 1268 5F69735F 		.ascii	"_is_cxa\000"
 23040      63786100 
 23041              	.LASF169:
 23042 1270 62797465 		.ascii	"bytecode\000"
 23042      636F6465 
 23042      00
 23043              	.LASF261:
 23044 1279 7363616C 		.ascii	"scalar\000"
 23044      617200
 23045              	.LASF134:
 23046 1280 5F736565 		.ascii	"_seed\000"
 23046      6400
 23047              	.LASF142:
 23048 1286 5F72616E 		.ascii	"_rand_next\000"
 23048      645F6E65 
 23048      787400
 23049              	.LASF20:
 23050 1291 41534542 		.ascii	"ASEBA_MESSAGE_EVENT_EXECUTION_KILLED\000"
 23050      415F4D45 
 23050      53534147 
 23050      455F4556 
 23050      454E545F 
 23051              	.LASF214:
 23052 12b6 64657374 		.ascii	"dest\000"
 23052      00
 23053              	.LASF96:
 23054 12bb 5F736565 		.ascii	"_seek\000"
 23054      6B00
 23055              	.LASF28:
 23056 12c1 41534542 		.ascii	"ASEBA_MESSAGE_RUN\000"
 23056      415F4D45 
 23056      53534147 
 23056      455F5255 
 23056      4E00
 23057              	.LASF245:
 23058 12d3 6D65616E 		.ascii	"mean\000"
 23058      00
 23059              	.LASF110:
 23060 12d8 5F737464 		.ascii	"_stderr\000"
 23060      65727200 
 23061              	.LASF157:
 23062 12e0 5F6E6D61 		.ascii	"_nmalloc\000"
 23062      6C6C6F63 
 23062      00
 23063              	.LASF98:
 23064 12e9 5F756275 		.ascii	"_ubuf\000"
 23064      6600
 23065              	.LASF22:
 23066 12ef 41534542 		.ascii	"ASEBA_MESSAGE_EXECUTION_STATE_CHANGED\000"
 23066      415F4D45 
 23066      53534147 
 23066      455F4558 
 23066      45435554 
 23067              		.ident	"GCC: (15:9-2019-q4-0ubuntu1) 9.2.1 20191025 (release) [ARM/arm-9-branch revision 277599]"
ARM GAS  /tmp/cchqCFfA.s 			page 422


DEFINED SYMBOLS
                            *ABS*:0000000000000000 natives.c
     /tmp/cchqCFfA.s:18     .rodata.aseba_atan2.part.0.cst4:0000000000000000 $d
     /tmp/cchqCFfA.s:22     .text.aseba_atan2.part.0:0000000000000000 $t
     /tmp/cchqCFfA.s:30     .text.aseba_atan2.part.0:0000000000000000 aseba_atan2.part.0
     /tmp/cchqCFfA.s:246    .text.aseba_atan2.part.0:00000000000000bc $d
     /tmp/cchqCFfA.s:252    .rodata.aseba_atan2.cst4:0000000000000000 $d
     /tmp/cchqCFfA.s:256    .text.aseba_atan2:0000000000000000 $t
     /tmp/cchqCFfA.s:264    .text.aseba_atan2:0000000000000000 aseba_atan2
     /tmp/cchqCFfA.s:333    .text.aseba_atan2:0000000000000044 $d
     /tmp/cchqCFfA.s:338    .rodata.aseba_sin.cst4:0000000000000000 $d
     /tmp/cchqCFfA.s:342    .text.aseba_sin:0000000000000000 $t
     /tmp/cchqCFfA.s:350    .text.aseba_sin:0000000000000000 aseba_sin
     /tmp/cchqCFfA.s:520    .text.aseba_sin:000000000000009c $d
     /tmp/cchqCFfA.s:527    .rodata.aseba_cos.cst4:0000000000000000 $d
     /tmp/cchqCFfA.s:531    .text.aseba_cos:0000000000000000 $t
     /tmp/cchqCFfA.s:539    .text.aseba_cos:0000000000000000 aseba_cos
     /tmp/cchqCFfA.s:589    .text.aseba_cos:000000000000002c $d
     /tmp/cchqCFfA.s:594    .rodata.aseba_sqrt.cst4:0000000000000000 $d
     /tmp/cchqCFfA.s:598    .text.aseba_sqrt:0000000000000000 $t
     /tmp/cchqCFfA.s:606    .text.aseba_sqrt:0000000000000000 aseba_sqrt
     /tmp/cchqCFfA.s:731    .text.aseba_sqrt:000000000000005c $d
     /tmp/cchqCFfA.s:736    .rodata.aseba_comb_sort.cst4:0000000000000000 $d
     /tmp/cchqCFfA.s:740    .text.aseba_comb_sort:0000000000000000 $t
     /tmp/cchqCFfA.s:748    .text.aseba_comb_sort:0000000000000000 aseba_comb_sort
     /tmp/cchqCFfA.s:907    .text.aseba_comb_sort:000000000000008c $d
     /tmp/cchqCFfA.s:913    .rodata.AsebaNative_veccopy.cst4:0000000000000000 $d
     /tmp/cchqCFfA.s:917    .text.AsebaNative_veccopy:0000000000000000 $t
     /tmp/cchqCFfA.s:925    .text.AsebaNative_veccopy:0000000000000000 AsebaNative_veccopy
     /tmp/cchqCFfA.s:1074   .text.AsebaNative_veccopy:0000000000000064 $d
     /tmp/cchqCFfA.s:1079   .rodata.AsebaNative_vecfill.cst4:0000000000000000 $d
     /tmp/cchqCFfA.s:1083   .text.AsebaNative_vecfill:0000000000000000 $t
     /tmp/cchqCFfA.s:1091   .text.AsebaNative_vecfill:0000000000000000 AsebaNative_vecfill
     /tmp/cchqCFfA.s:1231   .text.AsebaNative_vecfill:000000000000005c $d
     /tmp/cchqCFfA.s:1236   .rodata.AsebaNative_vecaddscalar.cst4:0000000000000000 $d
     /tmp/cchqCFfA.s:1240   .text.AsebaNative_vecaddscalar:0000000000000000 $t
     /tmp/cchqCFfA.s:1248   .text.AsebaNative_vecaddscalar:0000000000000000 AsebaNative_vecaddscalar
     /tmp/cchqCFfA.s:1441   .text.AsebaNative_vecaddscalar:0000000000000078 $d
     /tmp/cchqCFfA.s:1446   .rodata.AsebaNative_vecadd.cst4:0000000000000000 $d
     /tmp/cchqCFfA.s:1450   .text.AsebaNative_vecadd:0000000000000000 $t
     /tmp/cchqCFfA.s:1458   .text.AsebaNative_vecadd:0000000000000000 AsebaNative_vecadd
     /tmp/cchqCFfA.s:1648   .text.AsebaNative_vecadd:0000000000000078 $d
     /tmp/cchqCFfA.s:1653   .rodata.AsebaNative_vecsub.cst4:0000000000000000 $d
     /tmp/cchqCFfA.s:1657   .text.AsebaNative_vecsub:0000000000000000 $t
     /tmp/cchqCFfA.s:1665   .text.AsebaNative_vecsub:0000000000000000 AsebaNative_vecsub
     /tmp/cchqCFfA.s:1855   .text.AsebaNative_vecsub:000000000000007c $d
     /tmp/cchqCFfA.s:1860   .rodata.AsebaNative_vecmul.cst4:0000000000000000 $d
     /tmp/cchqCFfA.s:1864   .text.AsebaNative_vecmul:0000000000000000 $t
     /tmp/cchqCFfA.s:1872   .text.AsebaNative_vecmul:0000000000000000 AsebaNative_vecmul
     /tmp/cchqCFfA.s:2062   .text.AsebaNative_vecmul:000000000000007c $d
     /tmp/cchqCFfA.s:2067   .rodata.AsebaNative_vecdiv.cst4:0000000000000000 $d
     /tmp/cchqCFfA.s:2071   .text.AsebaNative_vecdiv:0000000000000000 $t
     /tmp/cchqCFfA.s:2079   .text.AsebaNative_vecdiv:0000000000000000 AsebaNative_vecdiv
     /tmp/cchqCFfA.s:2327   .text.AsebaNative_vecdiv:00000000000000a4 $d
     /tmp/cchqCFfA.s:2332   .rodata.AsebaNative_vecmin.cst4:0000000000000000 $d
     /tmp/cchqCFfA.s:2336   .text.AsebaNative_vecmin:0000000000000000 $t
     /tmp/cchqCFfA.s:2344   .text.AsebaNative_vecmin:0000000000000000 AsebaNative_vecmin
ARM GAS  /tmp/cchqCFfA.s 			page 423


     /tmp/cchqCFfA.s:2544   .text.AsebaNative_vecmin:000000000000007c $d
     /tmp/cchqCFfA.s:2549   .rodata.AsebaNative_vecmax.cst4:0000000000000000 $d
     /tmp/cchqCFfA.s:2553   .text.AsebaNative_vecmax:0000000000000000 $t
     /tmp/cchqCFfA.s:2561   .text.AsebaNative_vecmax:0000000000000000 AsebaNative_vecmax
     /tmp/cchqCFfA.s:2761   .text.AsebaNative_vecmax:000000000000007c $d
     /tmp/cchqCFfA.s:2766   .rodata.AsebaNative_vecclamp.cst4:0000000000000000 $d
     /tmp/cchqCFfA.s:2770   .text.AsebaNative_vecclamp:0000000000000000 $t
     /tmp/cchqCFfA.s:2778   .text.AsebaNative_vecclamp:0000000000000000 AsebaNative_vecclamp
     /tmp/cchqCFfA.s:3024   .text.AsebaNative_vecclamp:00000000000000a8 $d
     /tmp/cchqCFfA.s:3029   .rodata.AsebaNative_vecdot.cst4:0000000000000000 $d
     /tmp/cchqCFfA.s:3033   .text.AsebaNative_vecdot:0000000000000000 $t
     /tmp/cchqCFfA.s:3041   .text.AsebaNative_vecdot:0000000000000000 AsebaNative_vecdot
     /tmp/cchqCFfA.s:3295   .text.AsebaNative_vecdot:00000000000000a4 $d
     /tmp/cchqCFfA.s:3300   .rodata.AsebaNative_vecstat.cst4:0000000000000000 $d
     /tmp/cchqCFfA.s:3304   .text.AsebaNative_vecstat:0000000000000000 $t
     /tmp/cchqCFfA.s:3312   .text.AsebaNative_vecstat:0000000000000000 AsebaNative_vecstat
     /tmp/cchqCFfA.s:3599   .text.AsebaNative_vecstat:00000000000000cc $d
     /tmp/cchqCFfA.s:3604   .rodata.AsebaNative_vecargbounds.cst4:0000000000000000 $d
     /tmp/cchqCFfA.s:3608   .text.AsebaNative_vecargbounds:0000000000000000 $t
     /tmp/cchqCFfA.s:3616   .text.AsebaNative_vecargbounds:0000000000000000 AsebaNative_vecargbounds
     /tmp/cchqCFfA.s:3840   .text.AsebaNative_vecargbounds:00000000000000a0 $d
     /tmp/cchqCFfA.s:3846   .rodata.AsebaNative_vecsort.cst4:0000000000000000 $d
     /tmp/cchqCFfA.s:3850   .text.AsebaNative_vecsort:0000000000000000 $t
     /tmp/cchqCFfA.s:3858   .text.AsebaNative_vecsort:0000000000000000 AsebaNative_vecsort
     /tmp/cchqCFfA.s:3955   .text.AsebaNative_vecsort:0000000000000048 $d
     /tmp/cchqCFfA.s:3960   .rodata.AsebaNative_mathmuldiv.cst4:0000000000000000 $d
     /tmp/cchqCFfA.s:3964   .text.AsebaNative_mathmuldiv:0000000000000000 $t
     /tmp/cchqCFfA.s:3972   .text.AsebaNative_mathmuldiv:0000000000000000 AsebaNative_mathmuldiv
     /tmp/cchqCFfA.s:4259   .text.AsebaNative_mathmuldiv:00000000000000c8 $d
     /tmp/cchqCFfA.s:4264   .rodata.AsebaNative_mathatan2.cst4:0000000000000000 $d
     /tmp/cchqCFfA.s:4268   .text.AsebaNative_mathatan2:0000000000000000 $t
     /tmp/cchqCFfA.s:4276   .text.AsebaNative_mathatan2:0000000000000000 AsebaNative_mathatan2
     /tmp/cchqCFfA.s:4531   .text.AsebaNative_mathatan2:00000000000000a8 $d
     /tmp/cchqCFfA.s:4537   .rodata.AsebaNative_mathsin.cst4:0000000000000000 $d
     /tmp/cchqCFfA.s:4541   .text.AsebaNative_mathsin:0000000000000000 $t
     /tmp/cchqCFfA.s:4549   .text.AsebaNative_mathsin:0000000000000000 AsebaNative_mathsin
     /tmp/cchqCFfA.s:4732   .text.AsebaNative_mathsin:0000000000000078 $d
     /tmp/cchqCFfA.s:4737   .rodata.AsebaNative_mathcos.cst4:0000000000000000 $d
     /tmp/cchqCFfA.s:4741   .text.AsebaNative_mathcos:0000000000000000 $t
     /tmp/cchqCFfA.s:4749   .text.AsebaNative_mathcos:0000000000000000 AsebaNative_mathcos
     /tmp/cchqCFfA.s:4950   .text.AsebaNative_mathcos:0000000000000080 $d
     /tmp/cchqCFfA.s:4955   .rodata.AsebaNative_mathrot2.cst4:0000000000000000 $d
     /tmp/cchqCFfA.s:4959   .text.AsebaNative_mathrot2:0000000000000000 $t
     /tmp/cchqCFfA.s:4967   .text.AsebaNative_mathrot2:0000000000000000 AsebaNative_mathrot2
     /tmp/cchqCFfA.s:5174   .text.AsebaNative_mathrot2:0000000000000094 $d
     /tmp/cchqCFfA.s:5179   .rodata.AsebaNative_mathsqrt.cst4:0000000000000000 $d
     /tmp/cchqCFfA.s:5183   .text.AsebaNative_mathsqrt:0000000000000000 $t
     /tmp/cchqCFfA.s:5191   .text.AsebaNative_mathsqrt:0000000000000000 AsebaNative_mathsqrt
     /tmp/cchqCFfA.s:5449   .text.AsebaNative_mathsqrt:00000000000000ac $d
     /tmp/cchqCFfA.s:5454   .rodata.AsebaNative_vecnonzerosequence.cst4:0000000000000000 $d
     /tmp/cchqCFfA.s:5458   .text.AsebaNative_vecnonzerosequence:0000000000000000 $t
     /tmp/cchqCFfA.s:5466   .text.AsebaNative_vecnonzerosequence:0000000000000000 AsebaNative_vecnonzerosequence
     /tmp/cchqCFfA.s:5852   .text.AsebaNative_vecnonzerosequence:0000000000000148 $d
     /tmp/cchqCFfA.s:5857   .rodata.AsebaSetRandomSeed.cst4:0000000000000000 $d
     /tmp/cchqCFfA.s:5861   .text.AsebaSetRandomSeed:0000000000000000 $t
     /tmp/cchqCFfA.s:5869   .text.AsebaSetRandomSeed:0000000000000000 AsebaSetRandomSeed
     /tmp/cchqCFfA.s:5912   .text.AsebaSetRandomSeed:0000000000000028 $d
ARM GAS  /tmp/cchqCFfA.s 			page 424


     /tmp/cchqCFfA.s:5918   .rodata.AsebaGetRandom.cst4:0000000000000000 $d
     /tmp/cchqCFfA.s:5922   .text.AsebaGetRandom:0000000000000000 $t
     /tmp/cchqCFfA.s:5930   .text.AsebaGetRandom:0000000000000000 AsebaGetRandom
     /tmp/cchqCFfA.s:5985   .text.AsebaGetRandom:0000000000000044 $d
     /tmp/cchqCFfA.s:5991   .rodata.AsebaNative_rand.cst4:0000000000000000 $d
     /tmp/cchqCFfA.s:5995   .text.AsebaNative_rand:0000000000000000 $t
     /tmp/cchqCFfA.s:6003   .text.AsebaNative_rand:0000000000000000 AsebaNative_rand
     /tmp/cchqCFfA.s:6163   .text.AsebaNative_rand:0000000000000074 $d
     /tmp/cchqCFfA.s:6519   .rodata.AsebaNativeDescription_rand:0000000000000000 AsebaNativeDescription_rand
     /tmp/cchqCFfA.s:6170   .rodata.str1.4:0000000000000000 $d
     /tmp/cchqCFfA.s:6741   .rodata.AsebaNativeDescription_vecnonzerosequence:0000000000000000 AsebaNativeDescription_vecnonzerosequence
     /tmp/cchqCFfA.s:6503   .rodata.AsebaNativeDescription_mathsqrt:0000000000000000 AsebaNativeDescription_mathsqrt
     /tmp/cchqCFfA.s:6468   .rodata.AsebaNativeDescription_mathrot2:0000000000000000 AsebaNativeDescription_mathrot2
     /tmp/cchqCFfA.s:6430   .rodata.AsebaNativeDescription_mathcos:0000000000000000 AsebaNativeDescription_mathcos
     /tmp/cchqCFfA.s:6487   .rodata.AsebaNativeDescription_mathsin:0000000000000000 AsebaNativeDescription_mathsin
     /tmp/cchqCFfA.s:6411   .rodata.AsebaNativeDescription_mathatan2:0000000000000000 AsebaNativeDescription_mathatan2
     /tmp/cchqCFfA.s:6446   .rodata.AsebaNativeDescription_mathmuldiv:0000000000000000 AsebaNativeDescription_mathmuldiv
     /tmp/cchqCFfA.s:6760   .rodata.AsebaNativeDescription_vecsort:0000000000000000 AsebaNativeDescription_vecsort
     /tmp/cchqCFfA.s:6570   .rodata.AsebaNativeDescription_vecargbounds:0000000000000000 AsebaNativeDescription_vecargbounds
     /tmp/cchqCFfA.s:6773   .rodata.AsebaNativeDescription_vecstat:0000000000000000 AsebaNativeDescription_vecstat
     /tmp/cchqCFfA.s:6646   .rodata.AsebaNativeDescription_vecdot:0000000000000000 AsebaNativeDescription_vecdot
     /tmp/cchqCFfA.s:6589   .rodata.AsebaNativeDescription_vecclamp:0000000000000000 AsebaNativeDescription_vecclamp
     /tmp/cchqCFfA.s:6684   .rodata.AsebaNativeDescription_vecmax:0000000000000000 AsebaNativeDescription_vecmax
     /tmp/cchqCFfA.s:6703   .rodata.AsebaNativeDescription_vecmin:0000000000000000 AsebaNativeDescription_vecmin
     /tmp/cchqCFfA.s:6627   .rodata.AsebaNativeDescription_vecdiv:0000000000000000 AsebaNativeDescription_vecdiv
     /tmp/cchqCFfA.s:6722   .rodata.AsebaNativeDescription_vecmul:0000000000000000 AsebaNativeDescription_vecmul
     /tmp/cchqCFfA.s:6795   .rodata.AsebaNativeDescription_vecsub:0000000000000000 AsebaNativeDescription_vecsub
     /tmp/cchqCFfA.s:6532   .rodata.AsebaNativeDescription_vecadd:0000000000000000 AsebaNativeDescription_vecadd
     /tmp/cchqCFfA.s:6551   .rodata.AsebaNativeDescription_vecaddscalar:0000000000000000 AsebaNativeDescription_vecaddscalar
     /tmp/cchqCFfA.s:6668   .rodata.AsebaNativeDescription_vecfill:0000000000000000 AsebaNativeDescription_vecfill
     /tmp/cchqCFfA.s:6611   .rodata.AsebaNativeDescription_veccopy:0000000000000000 AsebaNativeDescription_veccopy
     /tmp/cchqCFfA.s:6401   .bss.rnd_state:0000000000000000 $d
     /tmp/cchqCFfA.s:6405   .bss.rnd_state:0000000000000000 rnd_state
     /tmp/cchqCFfA.s:6408   .rodata.AsebaNativeDescription_mathatan2:0000000000000000 $d
     /tmp/cchqCFfA.s:6427   .rodata.AsebaNativeDescription_mathcos:0000000000000000 $d
     /tmp/cchqCFfA.s:6443   .rodata.AsebaNativeDescription_mathmuldiv:0000000000000000 $d
     /tmp/cchqCFfA.s:6465   .rodata.AsebaNativeDescription_mathrot2:0000000000000000 $d
     /tmp/cchqCFfA.s:6484   .rodata.AsebaNativeDescription_mathsin:0000000000000000 $d
     /tmp/cchqCFfA.s:6500   .rodata.AsebaNativeDescription_mathsqrt:0000000000000000 $d
     /tmp/cchqCFfA.s:6516   .rodata.AsebaNativeDescription_rand:0000000000000000 $d
     /tmp/cchqCFfA.s:6529   .rodata.AsebaNativeDescription_vecadd:0000000000000000 $d
     /tmp/cchqCFfA.s:6548   .rodata.AsebaNativeDescription_vecaddscalar:0000000000000000 $d
     /tmp/cchqCFfA.s:6567   .rodata.AsebaNativeDescription_vecargbounds:0000000000000000 $d
     /tmp/cchqCFfA.s:6586   .rodata.AsebaNativeDescription_vecclamp:0000000000000000 $d
     /tmp/cchqCFfA.s:6608   .rodata.AsebaNativeDescription_veccopy:0000000000000000 $d
     /tmp/cchqCFfA.s:6624   .rodata.AsebaNativeDescription_vecdiv:0000000000000000 $d
     /tmp/cchqCFfA.s:6643   .rodata.AsebaNativeDescription_vecdot:0000000000000000 $d
     /tmp/cchqCFfA.s:6665   .rodata.AsebaNativeDescription_vecfill:0000000000000000 $d
     /tmp/cchqCFfA.s:6681   .rodata.AsebaNativeDescription_vecmax:0000000000000000 $d
     /tmp/cchqCFfA.s:6700   .rodata.AsebaNativeDescription_vecmin:0000000000000000 $d
     /tmp/cchqCFfA.s:6719   .rodata.AsebaNativeDescription_vecmul:0000000000000000 $d
     /tmp/cchqCFfA.s:6738   .rodata.AsebaNativeDescription_vecnonzerosequence:0000000000000000 $d
     /tmp/cchqCFfA.s:6757   .rodata.AsebaNativeDescription_vecsort:0000000000000000 $d
     /tmp/cchqCFfA.s:6770   .rodata.AsebaNativeDescription_vecstat:0000000000000000 $d
     /tmp/cchqCFfA.s:6792   .rodata.AsebaNativeDescription_vecsub:0000000000000000 $d
     /tmp/cchqCFfA.s:6811   .rodata.aseba_atan_table:0000000000000000 $d
     /tmp/cchqCFfA.s:6815   .rodata.aseba_atan_table:0000000000000000 aseba_atan_table
ARM GAS  /tmp/cchqCFfA.s 			page 425


     /tmp/cchqCFfA.s:6978   .rodata.aseba_sin_table:0000000000000000 $d
     /tmp/cchqCFfA.s:6982   .rodata.aseba_sin_table:0000000000000000 aseba_sin_table

UNDEFINED SYMBOLS
__stack_chk_guard
__stack_chk_fail
AsebaSendMessage
