ARM GAS  /tmp/ccSoseK0.s 			page 1


   1              		.cpu cortex-m4
   2              		.eabi_attribute 27, 1
   3              		.eabi_attribute 28, 1
   4              		.eabi_attribute 20, 1
   5              		.eabi_attribute 21, 1
   6              		.eabi_attribute 23, 3
   7              		.eabi_attribute 24, 1
   8              		.eabi_attribute 25, 1
   9              		.eabi_attribute 26, 1
  10              		.eabi_attribute 30, 2
  11              		.eabi_attribute 34, 1
  12              		.eabi_attribute 18, 4
  13              		.file	"newlib_syscalls.c"
  14              		.text
  15              	.Ltext0:
  16              		.cfi_sections	.debug_frame
  17              		.section	.rodata._read_r.cst4,"aM",%progbits,4
  18              		.align	2
  19              	.LC0:
  20 0000 00000000 		.word	__stack_chk_guard
  21              		.section	.text._read_r,"ax",%progbits
  22              		.align	1
  23              		.p2align 4,,15
  24              		.global	_read_r
  25              		.arch armv7e-m
  26              		.syntax unified
  27              		.thumb
  28              		.thumb_func
  29              		.fpu fpv4-sp-d16
  30              		.type	_read_r, %function
  31              	_read_r:
  32              	.LVL0:
  33              	.LFB256:
  34              		.file 1 ".//src/chibios-syscalls/newlib_syscalls.c"
  35              		.loc 1 16 1 view -0
  36              		.cfi_startproc
  37              		@ args = 0, pretend = 0, frame = 8
  38              		@ frame_needed = 0, uses_anonymous_args = 0
  39              		.loc 1 16 1 is_stmt 0 view .LVU1
  40 0000 10B5     		push	{r4, lr}
  41              		.cfi_def_cfa_offset 8
  42              		.cfi_offset 4, -8
  43              		.cfi_offset 14, -4
  44 0002 0C46     		mov	r4, r1
  45 0004 1146     		mov	r1, r2
  46              	.LVL1:
  47              		.loc 1 16 1 view .LVU2
  48 0006 114A     		ldr	r2, .L13
  49              	.LVL2:
  50              		.loc 1 16 1 view .LVU3
  51 0008 82B0     		sub	sp, sp, #8
  52              		.cfi_def_cfa_offset 16
  53              		.loc 1 16 1 view .LVU4
  54 000a 1268     		ldr	r2, [r2]
  55 000c 0192     		str	r2, [sp, #4]
  56 000e 4FF00002 		mov	r2,#0
  57              		.loc 1 17 5 is_stmt 1 view .LVU5
ARM GAS  /tmp/ccSoseK0.s 			page 2


  58              		.loc 1 19 5 view .LVU6
  59              		.loc 1 19 8 is_stmt 0 view .LVU7
  60 0012 6BB1     		cbz	r3, .L2
  61              		.loc 1 19 14 discriminator 1 view .LVU8
  62 0014 64B9     		cbnz	r4, .L2
  63 0016 1A46     		mov	r2, r3
  64              		.loc 1 23 5 is_stmt 1 view .LVU9
  65              		.loc 1 23 11 is_stmt 0 view .LVU10
  66 0018 0C4B     		ldr	r3, .L13
  67              	.LVL3:
  68              		.loc 1 23 11 view .LVU11
  69 001a 1868     		ldr	r0, [r3]
  70 001c 019B     		ldr	r3, [sp, #4]
  71 001e 5840     		eors	r0, r3, r0
  72              	.LVL4:
  73              		.loc 1 23 11 view .LVU12
  74 0020 11D1     		bne	.L10
  75 0022 0B48     		ldr	r0, .L13+4
  76 0024 0468     		ldr	r4, [r0]
  77              	.LVL5:
  78              		.loc 1 23 11 view .LVU13
  79 0026 6368     		ldr	r3, [r4, #4]
  80              		.loc 1 32 1 view .LVU14
  81 0028 02B0     		add	sp, sp, #8
  82              		.cfi_remember_state
  83              		.cfi_def_cfa_offset 8
  84              		@ sp needed
  85 002a BDE81040 		pop	{r4, lr}
  86              		.cfi_restore 14
  87              		.cfi_restore 4
  88              		.cfi_def_cfa_offset 0
  89              		.loc 1 23 11 view .LVU15
  90 002e 1847     		bx	r3
  91              	.LVL6:
  92              	.L2:
  93              		.cfi_restore_state
  94              		.loc 1 20 9 is_stmt 1 view .LVU16
  95              		.loc 1 20 22 is_stmt 0 view .LVU17
  96 0030 1623     		movs	r3, #22
  97              	.LVL7:
  98              		.loc 1 20 22 view .LVU18
  99 0032 0360     		str	r3, [r0]
 100              		.loc 1 21 9 is_stmt 1 view .LVU19
 101              		.loc 1 32 1 is_stmt 0 view .LVU20
 102 0034 054B     		ldr	r3, .L13
 103 0036 1A68     		ldr	r2, [r3]
 104 0038 019B     		ldr	r3, [sp, #4]
 105 003a 5A40     		eors	r2, r3, r2
 106 003c 03D1     		bne	.L10
 107 003e 4FF0FF30 		mov	r0, #-1
 108              	.LVL8:
 109              		.loc 1 32 1 view .LVU21
 110 0042 02B0     		add	sp, sp, #8
 111              		.cfi_remember_state
 112              		.cfi_def_cfa_offset 8
 113              		@ sp needed
 114 0044 10BD     		pop	{r4, pc}
ARM GAS  /tmp/ccSoseK0.s 			page 3


 115              	.LVL9:
 116              	.L10:
 117              		.cfi_restore_state
 118              		.loc 1 32 1 view .LVU22
 119 0046 FFF7FEFF 		bl	__stack_chk_fail
 120              	.LVL10:
 121              	.L14:
 122              		.loc 1 32 1 view .LVU23
 123 004a 00BF     		.align	2
 124              	.L13:
 125 004c 00000000 		.word	.LC0
 126 0050 00000000 		.word	SDU1
 127              		.cfi_endproc
 128              	.LFE256:
 129              		.size	_read_r, .-_read_r
 130              		.section	.rodata._lseek_r.cst4,"aM",%progbits,4
 131              		.align	2
 132              	.LC1:
 133 0000 00000000 		.word	__stack_chk_guard
 134              		.section	.text._lseek_r,"ax",%progbits
 135              		.align	1
 136              		.p2align 4,,15
 137              		.global	_lseek_r
 138              		.syntax unified
 139              		.thumb
 140              		.thumb_func
 141              		.fpu fpv4-sp-d16
 142              		.type	_lseek_r, %function
 143              	_lseek_r:
 144              	.LVL11:
 145              	.LFB257:
 146              		.loc 1 35 1 is_stmt 1 view -0
 147              		.cfi_startproc
 148              		@ args = 0, pretend = 0, frame = 8
 149              		@ frame_needed = 0, uses_anonymous_args = 0
 150              		.loc 1 35 1 is_stmt 0 view .LVU25
 151 0000 00B5     		push	{lr}
 152              		.cfi_def_cfa_offset 4
 153              		.cfi_offset 14, -4
 154 0002 084B     		ldr	r3, .L19
 155              	.LVL12:
 156              		.loc 1 35 1 view .LVU26
 157 0004 83B0     		sub	sp, sp, #12
 158              		.cfi_def_cfa_offset 16
 159              		.loc 1 35 1 view .LVU27
 160 0006 1B68     		ldr	r3, [r3]
 161 0008 0193     		str	r3, [sp, #4]
 162 000a 4FF00003 		mov	r3,#0
 163              		.loc 1 36 5 is_stmt 1 view .LVU28
 164              		.loc 1 37 5 view .LVU29
 165              		.loc 1 38 5 view .LVU30
 166              		.loc 1 39 5 view .LVU31
 167              		.loc 1 41 5 view .LVU32
 168              		.loc 1 42 1 is_stmt 0 view .LVU33
 169 000e 054B     		ldr	r3, .L19
 170 0010 1A68     		ldr	r2, [r3]
 171 0012 019B     		ldr	r3, [sp, #4]
ARM GAS  /tmp/ccSoseK0.s 			page 4


 172 0014 5A40     		eors	r2, r3, r2
 173              	.LVL13:
 174              		.loc 1 42 1 view .LVU34
 175 0016 03D1     		bne	.L18
 176 0018 0020     		movs	r0, #0
 177              	.LVL14:
 178              		.loc 1 42 1 view .LVU35
 179 001a 03B0     		add	sp, sp, #12
 180              		.cfi_remember_state
 181              		.cfi_def_cfa_offset 4
 182              		@ sp needed
 183 001c 5DF804FB 		ldr	pc, [sp], #4
 184              	.LVL15:
 185              	.L18:
 186              		.cfi_restore_state
 187              		.loc 1 42 1 view .LVU36
 188 0020 FFF7FEFF 		bl	__stack_chk_fail
 189              	.LVL16:
 190              	.L20:
 191              		.loc 1 42 1 view .LVU37
 192              		.align	2
 193              	.L19:
 194 0024 00000000 		.word	.LC1
 195              		.cfi_endproc
 196              	.LFE257:
 197              		.size	_lseek_r, .-_lseek_r
 198              		.section	.rodata._write_r.cst4,"aM",%progbits,4
 199              		.align	2
 200              	.LC2:
 201 0000 00000000 		.word	__stack_chk_guard
 202              		.section	.text._write_r,"ax",%progbits
 203              		.align	1
 204              		.p2align 4,,15
 205              		.global	_write_r
 206              		.syntax unified
 207              		.thumb
 208              		.thumb_func
 209              		.fpu fpv4-sp-d16
 210              		.type	_write_r, %function
 211              	_write_r:
 212              	.LVL17:
 213              	.LFB258:
 214              		.loc 1 45 1 is_stmt 1 view -0
 215              		.cfi_startproc
 216              		@ args = 0, pretend = 0, frame = 8
 217              		@ frame_needed = 0, uses_anonymous_args = 0
 218              		.loc 1 45 1 is_stmt 0 view .LVU39
 219 0000 10B5     		push	{r4, lr}
 220              		.cfi_def_cfa_offset 8
 221              		.cfi_offset 4, -8
 222              		.cfi_offset 14, -4
 223 0002 1C46     		mov	r4, r3
 224 0004 0E4B     		ldr	r3, .L28
 225              	.LVL18:
 226              		.loc 1 45 1 view .LVU40
 227 0006 82B0     		sub	sp, sp, #8
 228              		.cfi_def_cfa_offset 16
ARM GAS  /tmp/ccSoseK0.s 			page 5


 229              		.loc 1 50 8 view .LVU41
 230 0008 0129     		cmp	r1, #1
 231              		.loc 1 45 1 view .LVU42
 232 000a 1B68     		ldr	r3, [r3]
 233 000c 0193     		str	r3, [sp, #4]
 234 000e 4FF00003 		mov	r3,#0
 235              		.loc 1 46 5 is_stmt 1 view .LVU43
 236              		.loc 1 47 5 view .LVU44
 237              		.loc 1 48 5 view .LVU45
 238              		.loc 1 50 5 view .LVU46
 239              		.loc 1 50 8 is_stmt 0 view .LVU47
 240 0012 0DD1     		bne	.L26
 241              		.loc 1 54 5 is_stmt 1 view .LVU48
 242 0014 0B48     		ldr	r0, .L28+4
 243              	.LVL19:
 244              		.loc 1 54 5 is_stmt 0 view .LVU49
 245 0016 0368     		ldr	r3, [r0]
 246 0018 1146     		mov	r1, r2
 247              	.LVL20:
 248              		.loc 1 54 5 view .LVU50
 249 001a 1B68     		ldr	r3, [r3]
 250 001c 2246     		mov	r2, r4
 251              	.LVL21:
 252              		.loc 1 54 5 view .LVU51
 253 001e 9847     		blx	r3
 254              	.LVL22:
 255              		.loc 1 56 5 is_stmt 1 view .LVU52
 256              		.loc 1 56 12 is_stmt 0 view .LVU53
 257 0020 2046     		mov	r0, r4
 258              	.L21:
 259              		.loc 1 57 1 view .LVU54
 260 0022 074B     		ldr	r3, .L28
 261 0024 1A68     		ldr	r2, [r3]
 262 0026 019B     		ldr	r3, [sp, #4]
 263 0028 5A40     		eors	r2, r3, r2
 264 002a 06D1     		bne	.L27
 265 002c 02B0     		add	sp, sp, #8
 266              		.cfi_remember_state
 267              		.cfi_def_cfa_offset 8
 268              		@ sp needed
 269 002e 10BD     		pop	{r4, pc}
 270              	.LVL23:
 271              	.L26:
 272              		.cfi_restore_state
 273              		.loc 1 51 9 is_stmt 1 view .LVU55
 274              		.loc 1 51 22 is_stmt 0 view .LVU56
 275 0030 1623     		movs	r3, #22
 276 0032 0360     		str	r3, [r0]
 277              		.loc 1 52 9 is_stmt 1 view .LVU57
 278              		.loc 1 52 16 is_stmt 0 view .LVU58
 279 0034 4FF0FF30 		mov	r0, #-1
 280              	.LVL24:
 281              		.loc 1 52 16 view .LVU59
 282 0038 F3E7     		b	.L21
 283              	.LVL25:
 284              	.L27:
 285              		.loc 1 57 1 view .LVU60
ARM GAS  /tmp/ccSoseK0.s 			page 6


 286 003a FFF7FEFF 		bl	__stack_chk_fail
 287              	.LVL26:
 288              	.L29:
 289 003e 00BF     		.align	2
 290              	.L28:
 291 0040 00000000 		.word	.LC2
 292 0044 00000000 		.word	SDU1
 293              		.cfi_endproc
 294              	.LFE258:
 295              		.size	_write_r, .-_write_r
 296              		.section	.rodata._close_r.cst4,"aM",%progbits,4
 297              		.align	2
 298              	.LC3:
 299 0000 00000000 		.word	__stack_chk_guard
 300              		.section	.text._close_r,"ax",%progbits
 301              		.align	1
 302              		.p2align 4,,15
 303              		.global	_close_r
 304              		.syntax unified
 305              		.thumb
 306              		.thumb_func
 307              		.fpu fpv4-sp-d16
 308              		.type	_close_r, %function
 309              	_close_r:
 310              	.LVL27:
 311              	.LFB259:
 312              		.loc 1 60 1 is_stmt 1 view -0
 313              		.cfi_startproc
 314              		@ args = 0, pretend = 0, frame = 8
 315              		@ frame_needed = 0, uses_anonymous_args = 0
 316              		.loc 1 60 1 is_stmt 0 view .LVU62
 317 0000 00B5     		push	{lr}
 318              		.cfi_def_cfa_offset 4
 319              		.cfi_offset 14, -4
 320 0002 084B     		ldr	r3, .L34
 321 0004 83B0     		sub	sp, sp, #12
 322              		.cfi_def_cfa_offset 16
 323              		.loc 1 60 1 view .LVU63
 324 0006 1B68     		ldr	r3, [r3]
 325 0008 0193     		str	r3, [sp, #4]
 326 000a 4FF00003 		mov	r3,#0
 327              		.loc 1 61 5 is_stmt 1 view .LVU64
 328              		.loc 1 62 5 view .LVU65
 329              		.loc 1 64 5 view .LVU66
 330              		.loc 1 65 1 is_stmt 0 view .LVU67
 331 000e 054B     		ldr	r3, .L34
 332 0010 1A68     		ldr	r2, [r3]
 333 0012 019B     		ldr	r3, [sp, #4]
 334 0014 5A40     		eors	r2, r3, r2
 335 0016 03D1     		bne	.L33
 336 0018 0020     		movs	r0, #0
 337              	.LVL28:
 338              		.loc 1 65 1 view .LVU68
 339 001a 03B0     		add	sp, sp, #12
 340              		.cfi_remember_state
 341              		.cfi_def_cfa_offset 4
 342              		@ sp needed
ARM GAS  /tmp/ccSoseK0.s 			page 7


 343 001c 5DF804FB 		ldr	pc, [sp], #4
 344              	.LVL29:
 345              	.L33:
 346              		.cfi_restore_state
 347              		.loc 1 65 1 view .LVU69
 348 0020 FFF7FEFF 		bl	__stack_chk_fail
 349              	.LVL30:
 350              	.L35:
 351              		.loc 1 65 1 view .LVU70
 352              		.align	2
 353              	.L34:
 354 0024 00000000 		.word	.LC3
 355              		.cfi_endproc
 356              	.LFE259:
 357              		.size	_close_r, .-_close_r
 358              		.section	.rodata._sbrk_r.cst4,"aM",%progbits,4
 359              		.align	2
 360              	.LC4:
 361 0000 00000000 		.word	__stack_chk_guard
 362              		.section	.text._sbrk_r,"ax",%progbits
 363              		.align	1
 364              		.p2align 4,,15
 365              		.global	_sbrk_r
 366              		.syntax unified
 367              		.thumb
 368              		.thumb_func
 369              		.fpu fpv4-sp-d16
 370              		.type	_sbrk_r, %function
 371              	_sbrk_r:
 372              	.LVL31:
 373              	.LFB260:
 374              		.loc 1 68 1 is_stmt 1 view -0
 375              		.cfi_startproc
 376              		@ args = 0, pretend = 0, frame = 8
 377              		@ frame_needed = 0, uses_anonymous_args = 0
 378              		.loc 1 68 1 is_stmt 0 view .LVU72
 379 0000 30B5     		push	{r4, r5, lr}
 380              		.cfi_def_cfa_offset 12
 381              		.cfi_offset 4, -12
 382              		.cfi_offset 5, -8
 383              		.cfi_offset 14, -4
 384 0002 114B     		ldr	r3, .L44
 385 0004 83B0     		sub	sp, sp, #12
 386              		.cfi_def_cfa_offset 24
 387              		.loc 1 72 5 view .LVU73
 388 0006 0C1E     		subs	r4, r1, #0
 389              		.loc 1 68 1 view .LVU74
 390 0008 0546     		mov	r5, r0
 391 000a 1B68     		ldr	r3, [r3]
 392 000c 0193     		str	r3, [sp, #4]
 393 000e 4FF00003 		mov	r3,#0
 394              		.loc 1 70 5 is_stmt 1 view .LVU75
 395              		.loc 1 72 5 view .LVU76
 396              		.loc 1 72 5 view .LVU77
 397              		.loc 1 72 5 view .LVU78
 398 0012 0ADD     		ble	.L41
 399              		.loc 1 72 5 discriminator 5 view .LVU79
ARM GAS  /tmp/ccSoseK0.s 			page 8


 400              		.loc 1 74 5 discriminator 5 view .LVU80
 401              		.loc 1 74 9 is_stmt 0 discriminator 5 view .LVU81
 402 0014 2046     		mov	r0, r4
 403              	.LVL32:
 404              		.loc 1 74 9 discriminator 5 view .LVU82
 405 0016 FFF7FEFF 		bl	chCoreAlloc
 406              	.LVL33:
 407              		.loc 1 75 5 is_stmt 1 discriminator 5 view .LVU83
 408              		.loc 1 75 8 is_stmt 0 discriminator 5 view .LVU84
 409 001a 70B1     		cbz	r0, .L42
 410              	.LVL34:
 411              	.L36:
 412              		.loc 1 85 1 view .LVU85
 413 001c 0A4B     		ldr	r3, .L44
 414 001e 1A68     		ldr	r2, [r3]
 415 0020 019B     		ldr	r3, [sp, #4]
 416 0022 5A40     		eors	r2, r3, r2
 417 0024 0ED1     		bne	.L43
 418 0026 03B0     		add	sp, sp, #12
 419              		.cfi_remember_state
 420              		.cfi_def_cfa_offset 12
 421              		@ sp needed
 422 0028 30BD     		pop	{r4, r5, pc}
 423              	.LVL35:
 424              	.L41:
 425              		.cfi_restore_state
 426              		.loc 1 72 5 is_stmt 1 discriminator 3 view .LVU86
 427 002a 0848     		ldr	r0, .L44+4
 428              	.LVL36:
 429              		.loc 1 72 5 is_stmt 0 discriminator 3 view .LVU87
 430 002c FFF7FEFF 		bl	chSysHalt
 431              	.LVL37:
 432              		.loc 1 72 5 is_stmt 1 discriminator 3 view .LVU88
 433              		.loc 1 74 5 discriminator 3 view .LVU89
 434              		.loc 1 74 9 is_stmt 0 discriminator 3 view .LVU90
 435 0030 2046     		mov	r0, r4
 436 0032 FFF7FEFF 		bl	chCoreAlloc
 437              	.LVL38:
 438              		.loc 1 75 5 is_stmt 1 discriminator 3 view .LVU91
 439              		.loc 1 75 8 is_stmt 0 discriminator 3 view .LVU92
 440 0036 0028     		cmp	r0, #0
 441 0038 F0D1     		bne	.L36
 442              	.L42:
 443              		.loc 1 76 9 is_stmt 1 view .LVU93
 444              		.loc 1 76 22 is_stmt 0 view .LVU94
 445 003a 0C23     		movs	r3, #12
 446 003c 2B60     		str	r3, [r5]
 447              		.loc 1 77 9 is_stmt 1 view .LVU95
 448              		.loc 1 77 16 is_stmt 0 view .LVU96
 449 003e 4FF0FF30 		mov	r0, #-1
 450              	.LVL39:
 451              		.loc 1 77 16 view .LVU97
 452 0042 EBE7     		b	.L36
 453              	.L43:
 454              		.loc 1 85 1 view .LVU98
 455 0044 FFF7FEFF 		bl	__stack_chk_fail
 456              	.LVL40:
ARM GAS  /tmp/ccSoseK0.s 			page 9


 457              	.L45:
 458              		.align	2
 459              	.L44:
 460 0048 00000000 		.word	.LC4
 461 004c 00000000 		.word	.LANCHOR0
 462              		.cfi_endproc
 463              	.LFE260:
 464              		.size	_sbrk_r, .-_sbrk_r
 465              		.section	.rodata._fstat_r.cst4,"aM",%progbits,4
 466              		.align	2
 467              	.LC5:
 468 0000 00000000 		.word	__stack_chk_guard
 469              		.section	.text._fstat_r,"ax",%progbits
 470              		.align	1
 471              		.p2align 4,,15
 472              		.global	_fstat_r
 473              		.syntax unified
 474              		.thumb
 475              		.thumb_func
 476              		.fpu fpv4-sp-d16
 477              		.type	_fstat_r, %function
 478              	_fstat_r:
 479              	.LVL41:
 480              	.LFB261:
 481              		.loc 1 88 1 is_stmt 1 view -0
 482              		.cfi_startproc
 483              		@ args = 0, pretend = 0, frame = 8
 484              		@ frame_needed = 0, uses_anonymous_args = 0
 485              		.loc 1 88 1 is_stmt 0 view .LVU100
 486 0000 00B5     		push	{lr}
 487              		.cfi_def_cfa_offset 4
 488              		.cfi_offset 14, -4
 489 0002 0C4B     		ldr	r3, .L50
 490 0004 83B0     		sub	sp, sp, #12
 491              		.cfi_def_cfa_offset 16
 492              		.loc 1 92 5 view .LVU101
 493 0006 1046     		mov	r0, r2
 494              	.LVL42:
 495              		.loc 1 92 5 view .LVU102
 496 0008 0021     		movs	r1, #0
 497              	.LVL43:
 498              		.loc 1 92 5 view .LVU103
 499 000a 5822     		movs	r2, #88
 500              	.LVL44:
 501              		.loc 1 88 1 view .LVU104
 502 000c 1B68     		ldr	r3, [r3]
 503 000e 0193     		str	r3, [sp, #4]
 504 0010 4FF00003 		mov	r3,#0
 505              		.loc 1 89 5 is_stmt 1 view .LVU105
 506              		.loc 1 90 5 view .LVU106
 507              		.loc 1 92 5 view .LVU107
 508 0014 FFF7FEFF 		bl	memset
 509              	.LVL45:
 510              		.loc 1 93 5 view .LVU108
 511              		.loc 1 93 17 is_stmt 0 view .LVU109
 512 0018 4FF40052 		mov	r2, #8192
 513              		.loc 1 95 1 view .LVU110
ARM GAS  /tmp/ccSoseK0.s 			page 10


 514 001c 054B     		ldr	r3, .L50
 515              		.loc 1 93 17 view .LVU111
 516 001e 4260     		str	r2, [r0, #4]
 517              		.loc 1 94 5 is_stmt 1 view .LVU112
 518              		.loc 1 95 1 is_stmt 0 view .LVU113
 519 0020 1A68     		ldr	r2, [r3]
 520 0022 019B     		ldr	r3, [sp, #4]
 521 0024 5A40     		eors	r2, r3, r2
 522 0026 03D1     		bne	.L49
 523 0028 0020     		movs	r0, #0
 524 002a 03B0     		add	sp, sp, #12
 525              		.cfi_remember_state
 526              		.cfi_def_cfa_offset 4
 527              		@ sp needed
 528 002c 5DF804FB 		ldr	pc, [sp], #4
 529              	.L49:
 530              		.cfi_restore_state
 531 0030 FFF7FEFF 		bl	__stack_chk_fail
 532              	.LVL46:
 533              	.L51:
 534              		.align	2
 535              	.L50:
 536 0034 00000000 		.word	.LC5
 537              		.cfi_endproc
 538              	.LFE261:
 539              		.size	_fstat_r, .-_fstat_r
 540              		.section	.rodata._isatty_r.cst4,"aM",%progbits,4
 541              		.align	2
 542              	.LC6:
 543 0000 00000000 		.word	__stack_chk_guard
 544              		.section	.text._isatty_r,"ax",%progbits
 545              		.align	1
 546              		.p2align 4,,15
 547              		.global	_isatty_r
 548              		.syntax unified
 549              		.thumb
 550              		.thumb_func
 551              		.fpu fpv4-sp-d16
 552              		.type	_isatty_r, %function
 553              	_isatty_r:
 554              	.LVL47:
 555              	.LFB262:
 556              		.loc 1 98 1 is_stmt 1 view -0
 557              		.cfi_startproc
 558              		@ args = 0, pretend = 0, frame = 8
 559              		@ frame_needed = 0, uses_anonymous_args = 0
 560              		.loc 1 98 1 is_stmt 0 view .LVU115
 561 0000 00B5     		push	{lr}
 562              		.cfi_def_cfa_offset 4
 563              		.cfi_offset 14, -4
 564 0002 084B     		ldr	r3, .L56
 565 0004 83B0     		sub	sp, sp, #12
 566              		.cfi_def_cfa_offset 16
 567              		.loc 1 98 1 view .LVU116
 568 0006 1B68     		ldr	r3, [r3]
 569 0008 0193     		str	r3, [sp, #4]
 570 000a 4FF00003 		mov	r3,#0
ARM GAS  /tmp/ccSoseK0.s 			page 11


 571              		.loc 1 99 5 is_stmt 1 view .LVU117
 572              		.loc 1 100 5 view .LVU118
 573              		.loc 1 102 5 view .LVU119
 574              		.loc 1 103 1 is_stmt 0 view .LVU120
 575 000e 054B     		ldr	r3, .L56
 576 0010 1A68     		ldr	r2, [r3]
 577 0012 019B     		ldr	r3, [sp, #4]
 578 0014 5A40     		eors	r2, r3, r2
 579 0016 03D1     		bne	.L55
 580 0018 0120     		movs	r0, #1
 581              	.LVL48:
 582              		.loc 1 103 1 view .LVU121
 583 001a 03B0     		add	sp, sp, #12
 584              		.cfi_remember_state
 585              		.cfi_def_cfa_offset 4
 586              		@ sp needed
 587 001c 5DF804FB 		ldr	pc, [sp], #4
 588              	.LVL49:
 589              	.L55:
 590              		.cfi_restore_state
 591              		.loc 1 103 1 view .LVU122
 592 0020 FFF7FEFF 		bl	__stack_chk_fail
 593              	.LVL50:
 594              	.L57:
 595              		.loc 1 103 1 view .LVU123
 596              		.align	2
 597              	.L56:
 598 0024 00000000 		.word	.LC6
 599              		.cfi_endproc
 600              	.LFE262:
 601              		.size	_isatty_r, .-_isatty_r
 602              		.section	.rodata._fini.cst4,"aM",%progbits,4
 603              		.align	2
 604              	.LC7:
 605 0000 00000000 		.word	__stack_chk_guard
 606              		.section	.text._fini,"ax",%progbits
 607              		.align	1
 608              		.p2align 4,,15
 609              		.global	_fini
 610              		.syntax unified
 611              		.thumb
 612              		.thumb_func
 613              		.fpu fpv4-sp-d16
 614              		.type	_fini, %function
 615              	_fini:
 616              	.LFB263:
 617              		.loc 1 107 1 is_stmt 1 view -0
 618              		.cfi_startproc
 619              		@ args = 0, pretend = 0, frame = 8
 620              		@ frame_needed = 0, uses_anonymous_args = 0
 621 0000 00B5     		push	{lr}
 622              		.cfi_def_cfa_offset 4
 623              		.cfi_offset 14, -4
 624 0002 084B     		ldr	r3, .L62
 625 0004 83B0     		sub	sp, sp, #12
 626              		.cfi_def_cfa_offset 16
 627              		.loc 1 107 1 is_stmt 0 view .LVU125
ARM GAS  /tmp/ccSoseK0.s 			page 12


 628 0006 1B68     		ldr	r3, [r3]
 629 0008 0193     		str	r3, [sp, #4]
 630 000a 4FF00003 		mov	r3,#0
 631              		.loc 1 109 1 is_stmt 1 view .LVU126
 632 000e 054B     		ldr	r3, .L62
 633 0010 1A68     		ldr	r2, [r3]
 634 0012 019B     		ldr	r3, [sp, #4]
 635 0014 5A40     		eors	r2, r3, r2
 636 0016 02D1     		bne	.L61
 637 0018 03B0     		add	sp, sp, #12
 638              		.cfi_remember_state
 639              		.cfi_def_cfa_offset 4
 640              		@ sp needed
 641 001a 5DF804FB 		ldr	pc, [sp], #4
 642              	.L61:
 643              		.cfi_restore_state
 644 001e FFF7FEFF 		bl	__stack_chk_fail
 645              	.LVL51:
 646              	.L63:
 647 0022 00BF     		.align	2
 648              	.L62:
 649 0024 00000000 		.word	.LC7
 650              		.cfi_endproc
 651              	.LFE263:
 652              		.size	_fini, .-_fini
 653              		.section	.rodata.__func__.11042,"a"
 654              		.align	2
 655              		.set	.LANCHOR0,. + 0
 656              		.type	__func__.11042, %object
 657              		.size	__func__.11042, 8
 658              	__func__.11042:
 659 0000 5F736272 		.ascii	"_sbrk_r\000"
 659      6B5F7200 
 660              		.text
 661              	.Letext0:
 662              		.file 2 "/usr/lib/gcc/arm-none-eabi/9.2.1/include/stddef.h"
 663              		.file 3 "/usr/include/newlib/machine/_default_types.h"
 664              		.file 4 "/usr/include/newlib/sys/_types.h"
 665              		.file 5 "/usr/include/newlib/sys/reent.h"
 666              		.file 6 "/usr/include/newlib/sys/lock.h"
 667              		.file 7 "/usr/include/newlib/stdlib.h"
 668              		.file 8 "/usr/include/newlib/sys/errno.h"
 669              		.file 9 "/usr/include/newlib/sys/_stdint.h"
 670              		.file 10 "/usr/include/newlib/sys/_timeval.h"
 671              		.file 11 "/usr/include/newlib/sys/_timespec.h"
 672              		.file 12 "/usr/include/newlib/sys/types.h"
 673              		.file 13 "/usr/include/newlib/time.h"
 674              		.file 14 "/usr/include/newlib/sys/stat.h"
 675              		.file 15 ".//ChibiOS//os/rt/ports/ARMCMx/compilers/GCC/chtypes.h"
 676              		.file 16 ".//ChibiOS//os/rt/include/chsystypes.h"
 677              		.file 17 ".//ChibiOS//os/rt/include/chschd.h"
 678              		.file 18 ".//ChibiOS//os/ext/CMSIS/include/core_cm4.h"
 679              		.file 19 ".//ChibiOS//os/ext/CMSIS/ST/system_stm32f4xx.h"
 680              		.file 20 ".//ChibiOS//os/ext/CMSIS/ST/stm32f407xx.h"
 681              		.file 21 ".//ChibiOS//os/rt/ports/ARMCMx/chcore.h"
 682              		.file 22 ".//ChibiOS//os/rt/ports/ARMCMx/chcore_v7m.h"
 683              		.file 23 ".//ChibiOS//os/rt/include/chdebug.h"
ARM GAS  /tmp/ccSoseK0.s 			page 13


 684              		.file 24 ".//ChibiOS//os/rt/include/chtm.h"
 685              		.file 25 ".//ChibiOS//os/rt/include/chstats.h"
 686              		.file 26 ".//ChibiOS//os/rt/include/chsem.h"
 687              		.file 27 ".//ChibiOS//os/rt/include/chmtx.h"
 688              		.file 28 ".//ChibiOS//os/rt/include/chregistry.h"
 689              		.file 29 ".//ChibiOS//os/rt/include/chevents.h"
 690              		.file 30 ".//ChibiOS//os/rt/include/chqueues.h"
 691              		.file 31 ".//ChibiOS//os/rt/include/chstreams.h"
 692              		.file 32 ".//ChibiOS//os/hal/ports/STM32/STM32F4xx/stm32_dma.h"
 693              		.file 33 ".//ChibiOS//os/hal/include/hal_ioblock.h"
 694              		.file 34 ".//ChibiOS//os/hal/ports/STM32/LLD/GPIOv2/pal_lld.h"
 695              		.file 35 ".//ChibiOS//os/hal/include/adc.h"
 696              		.file 36 ".//ChibiOS//os/hal/ports/STM32/STM32F4xx/adc_lld.h"
 697              		.file 37 ".//ChibiOS//os/hal/include/can.h"
 698              		.file 38 ".//ChibiOS//os/hal/ports/STM32/LLD/can_lld.h"
 699              		.file 39 ".//ChibiOS//os/hal/include/dac.h"
 700              		.file 40 ".//ChibiOS//os/hal/ports/STM32/LLD/DACv1/dac_lld.h"
 701              		.file 41 ".//ChibiOS//os/hal/include/ext.h"
 702              		.file 42 ".//ChibiOS//os/hal/ports/STM32/LLD/ext_lld.h"
 703              		.file 43 ".//ChibiOS//os/hal/include/gpt.h"
 704              		.file 44 ".//ChibiOS//os/hal/ports/STM32/LLD/TIMv1/gpt_lld.h"
 705              		.file 45 ".//ChibiOS//os/hal/ports/STM32/LLD/TIMv1/stm32_tim.h"
 706              		.file 46 ".//ChibiOS//os/hal/include/i2c.h"
 707              		.file 47 ".//ChibiOS//os/hal/ports/STM32/LLD/I2Cv1/i2c_lld.h"
 708              		.file 48 ".//ChibiOS//os/hal/include/i2s.h"
 709              		.file 49 ".//ChibiOS//os/hal/ports/STM32/LLD/SPIv1/i2s_lld.h"
 710              		.file 50 ".//ChibiOS//os/hal/include/pwm.h"
 711              		.file 51 ".//ChibiOS//os/hal/ports/STM32/LLD/TIMv1/pwm_lld.h"
 712              		.file 52 ".//ChibiOS//os/hal/include/serial.h"
 713              		.file 53 ".//ChibiOS//os/hal/ports/STM32/LLD/USARTv1/serial_lld.h"
 714              		.file 54 ".//ChibiOS//os/hal/include/sdc.h"
 715              		.file 55 ".//ChibiOS//os/hal/ports/STM32/LLD/sdc_lld.h"
 716              		.file 56 ".//ChibiOS//os/hal/include/spi.h"
 717              		.file 57 ".//ChibiOS//os/hal/ports/STM32/LLD/SPIv1/spi_lld.h"
 718              		.file 58 ".//ChibiOS//os/hal/include/usb.h"
 719              		.file 59 ".//ChibiOS//os/hal/ports/STM32/LLD/OTGv1/usb_lld.h"
 720              		.file 60 ".//ChibiOS//os/hal/ports/STM32/LLD/OTGv1/stm32_otg.h"
 721              		.file 61 ".//ChibiOS//os/rt/include/chmemcore.h"
 722              		.file 62 ".//ChibiOS//os/rt/include/chsys.h"
 723              		.file 63 "<built-in>"