ARM GAS  /tmp/cciH6xaL.s 			page 1


   1              		.cpu cortex-m4
   2              		.eabi_attribute 27, 1
   3              		.eabi_attribute 28, 1
   4              		.eabi_attribute 20, 1
   5              		.eabi_attribute 21, 1
   6              		.eabi_attribute 23, 3
   7              		.eabi_attribute 24, 1
   8              		.eabi_attribute 25, 1
   9              		.eabi_attribute 26, 1
  10              		.eabi_attribute 30, 2
  11              		.eabi_attribute 34, 1
  12              		.eabi_attribute 18, 4
  13              		.file	"nvic.c"
  14              		.text
  15              	.Ltext0:
  16              		.cfi_sections	.debug_frame
  17              		.section	.rodata.nvicEnableVector.cst4,"aM",%progbits,4
  18              		.align	2
  19              	.LC0:
  20 0000 00000000 		.word	__stack_chk_guard
  21              		.section	.text.nvicEnableVector,"ax",%progbits
  22              		.align	1
  23              		.p2align 4,,15
  24              		.global	nvicEnableVector
  25              		.arch armv7e-m
  26              		.syntax unified
  27              		.thumb
  28              		.thumb_func
  29              		.fpu fpv4-sp-d16
  30              		.type	nvicEnableVector, %function
  31              	nvicEnableVector:
  32              	.LVL0:
  33              	.LFB256:
  34              		.file 1 ".//ChibiOS//os/hal/ports/common/ARMCMx/nvic.c"
  35              		.loc 1 57 50 view -0
  36              		.cfi_startproc
  37              		@ args = 0, pretend = 0, frame = 8
  38              		@ frame_needed = 0, uses_anonymous_args = 0
  39              		.loc 1 57 50 is_stmt 0 view .LVU1
  40 0000 10B5     		push	{r4, lr}
  41              		.cfi_def_cfa_offset 8
  42              		.cfi_offset 4, -8
  43              		.cfi_offset 14, -4
  44              		.loc 1 60 16 view .LVU2
  45 0002 4309     		lsrs	r3, r0, #5
  46 0004 9B00     		lsls	r3, r3, #2
  47              		.loc 1 59 22 view .LVU3
  48 0006 00F16044 		add	r4, r0, #-536870912
  49              		.loc 1 60 26 view .LVU4
  50 000a 0122     		movs	r2, #1
  51 000c 03F16043 		add	r3, r3, #-536870912
  52              		.loc 1 60 32 view .LVU5
  53 0010 00F01F00 		and	r0, r0, #31
  54              	.LVL1:
  55              		.loc 1 60 32 view .LVU6
  56 0014 03F56143 		add	r3, r3, #57600
  57              		.loc 1 60 26 view .LVU7
ARM GAS  /tmp/cciH6xaL.s 			page 2


  58 0018 02FA00F0 		lsl	r0, r2, r0
  59              		.loc 1 59 24 view .LVU8
  60 001c 0901     		lsls	r1, r1, #4
  61              	.LVL2:
  62              		.loc 1 57 50 view .LVU9
  63 001e 0B4A     		ldr	r2, .L6
  64              		.loc 1 59 22 view .LVU10
  65 0020 04F56144 		add	r4, r4, #57600
  66              	.LVL3:
  67              		.loc 1 57 50 view .LVU11
  68 0024 82B0     		sub	sp, sp, #8
  69              		.cfi_def_cfa_offset 16
  70              		.loc 1 59 24 view .LVU12
  71 0026 C9B2     		uxtb	r1, r1
  72              		.loc 1 57 50 view .LVU13
  73 0028 1268     		ldr	r2, [r2]
  74 002a 0192     		str	r2, [sp, #4]
  75 002c 4FF00002 		mov	r2,#0
  76              		.loc 1 59 3 is_stmt 1 view .LVU14
  77              		.loc 1 59 22 is_stmt 0 view .LVU15
  78 0030 84F80013 		strb	r1, [r4, #768]
  79              		.loc 1 60 3 is_stmt 1 view .LVU16
  80              		.loc 1 60 22 is_stmt 0 view .LVU17
  81 0034 C3F88001 		str	r0, [r3, #384]
  82              		.loc 1 61 3 is_stmt 1 view .LVU18
  83              		.loc 1 61 22 is_stmt 0 view .LVU19
  84 0038 1860     		str	r0, [r3]
  85              		.loc 1 62 1 view .LVU20
  86 003a 044B     		ldr	r3, .L6
  87 003c 1A68     		ldr	r2, [r3]
  88 003e 019B     		ldr	r3, [sp, #4]
  89 0040 5A40     		eors	r2, r3, r2
  90 0042 01D1     		bne	.L5
  91 0044 02B0     		add	sp, sp, #8
  92              		.cfi_remember_state
  93              		.cfi_def_cfa_offset 8
  94              		@ sp needed
  95 0046 10BD     		pop	{r4, pc}
  96              	.LVL4:
  97              	.L5:
  98              		.cfi_restore_state
  99              		.loc 1 62 1 view .LVU21
 100 0048 FFF7FEFF 		bl	__stack_chk_fail
 101              	.LVL5:
 102              	.L7:
 103              		.align	2
 104              	.L6:
 105 004c 00000000 		.word	.LC0
 106              		.cfi_endproc
 107              	.LFE256:
 108              		.size	nvicEnableVector, .-nvicEnableVector
 109              		.section	.rodata.nvicDisableVector.cst4,"aM",%progbits,4
 110              		.align	2
 111              	.LC1:
 112 0000 00000000 		.word	__stack_chk_guard
 113              		.section	.text.nvicDisableVector,"ax",%progbits
 114              		.align	1
ARM GAS  /tmp/cciH6xaL.s 			page 3


 115              		.p2align 4,,15
 116              		.global	nvicDisableVector
 117              		.syntax unified
 118              		.thumb
 119              		.thumb_func
 120              		.fpu fpv4-sp-d16
 121              		.type	nvicDisableVector, %function
 122              	nvicDisableVector:
 123              	.LVL6:
 124              	.LFB257:
 125              		.loc 1 69 36 is_stmt 1 view -0
 126              		.cfi_startproc
 127              		@ args = 0, pretend = 0, frame = 8
 128              		@ frame_needed = 0, uses_anonymous_args = 0
 129              		.loc 1 69 36 is_stmt 0 view .LVU23
 130 0000 10B5     		push	{r4, lr}
 131              		.cfi_def_cfa_offset 8
 132              		.cfi_offset 4, -8
 133              		.cfi_offset 14, -4
 134 0002 0E4A     		ldr	r2, .L12
 135              		.loc 1 71 22 view .LVU24
 136 0004 0E49     		ldr	r1, .L12+4
 137              		.loc 1 69 36 view .LVU25
 138 0006 82B0     		sub	sp, sp, #8
 139              		.cfi_def_cfa_offset 16
 140              		.loc 1 71 16 view .LVU26
 141 0008 4309     		lsrs	r3, r0, #5
 142              		.loc 1 69 36 view .LVU27
 143 000a 1268     		ldr	r2, [r2]
 144 000c 0192     		str	r2, [sp, #4]
 145 000e 4FF00002 		mov	r2,#0
 146              		.loc 1 71 3 is_stmt 1 view .LVU28
 147              		.loc 1 71 22 is_stmt 0 view .LVU29
 148 0012 2033     		adds	r3, r3, #32
 149              		.loc 1 71 32 view .LVU30
 150 0014 00F01F04 		and	r4, r0, #31
 151              		.loc 1 71 26 view .LVU31
 152 0018 0122     		movs	r2, #1
 153 001a A240     		lsls	r2, r2, r4
 154              		.loc 1 72 22 view .LVU32
 155 001c 0844     		add	r0, r0, r1
 156              	.LVL7:
 157              		.loc 1 71 22 view .LVU33
 158 001e 41F82320 		str	r2, [r1, r3, lsl #2]
 159              		.loc 1 72 3 is_stmt 1 view .LVU34
 160              		.loc 1 72 22 is_stmt 0 view .LVU35
 161 0022 0023     		movs	r3, #0
 162 0024 80F80033 		strb	r3, [r0, #768]
 163              		.loc 1 73 1 view .LVU36
 164 0028 044B     		ldr	r3, .L12
 165 002a 1A68     		ldr	r2, [r3]
 166 002c 019B     		ldr	r3, [sp, #4]
 167 002e 5A40     		eors	r2, r3, r2
 168 0030 01D1     		bne	.L11
 169 0032 02B0     		add	sp, sp, #8
 170              		.cfi_remember_state
 171              		.cfi_def_cfa_offset 8
ARM GAS  /tmp/cciH6xaL.s 			page 4


 172              		@ sp needed
 173 0034 10BD     		pop	{r4, pc}
 174              	.L11:
 175              		.cfi_restore_state
 176 0036 FFF7FEFF 		bl	__stack_chk_fail
 177              	.LVL8:
 178              	.L13:
 179              		.loc 1 73 1 view .LVU37
 180 003a 00BF     		.align	2
 181              	.L12:
 182 003c 00000000 		.word	.LC1
 183 0040 00E100E0 		.word	-536813312
 184              		.cfi_endproc
 185              	.LFE257:
 186              		.size	nvicDisableVector, .-nvicDisableVector
 187              		.section	.rodata.nvicSetSystemHandlerPriority.cst4,"aM",%progbits,4
 188              		.align	2
 189              	.LC2:
 190 0000 00000000 		.word	__stack_chk_guard
 191              		.section	.text.nvicSetSystemHandlerPriority,"ax",%progbits
 192              		.align	1
 193              		.p2align 4,,15
 194              		.global	nvicSetSystemHandlerPriority
 195              		.syntax unified
 196              		.thumb
 197              		.thumb_func
 198              		.fpu fpv4-sp-d16
 199              		.type	nvicSetSystemHandlerPriority, %function
 200              	nvicSetSystemHandlerPriority:
 201              	.LVL9:
 202              	.LFB258:
 203              		.loc 1 81 68 is_stmt 1 view -0
 204              		.cfi_startproc
 205              		@ args = 0, pretend = 0, frame = 8
 206              		@ frame_needed = 0, uses_anonymous_args = 0
 207              		.loc 1 81 68 is_stmt 0 view .LVU39
 208 0000 30B5     		push	{r4, r5, lr}
 209              		.cfi_def_cfa_offset 12
 210              		.cfi_offset 4, -12
 211              		.cfi_offset 5, -8
 212              		.cfi_offset 14, -4
 213 0002 0F4B     		ldr	r3, .L20
 214 0004 83B0     		sub	sp, sp, #12
 215              		.cfi_def_cfa_offset 24
 216              		.loc 1 83 3 view .LVU40
 217 0006 0C28     		cmp	r0, #12
 218              		.loc 1 81 68 view .LVU41
 219 0008 0446     		mov	r4, r0
 220 000a 0D46     		mov	r5, r1
 221 000c 1B68     		ldr	r3, [r3]
 222 000e 0193     		str	r3, [sp, #4]
 223 0010 4FF00003 		mov	r3,#0
 224              		.loc 1 83 3 is_stmt 1 view .LVU42
 225              		.loc 1 83 3 view .LVU43
 226              		.loc 1 83 3 view .LVU44
 227 0014 0DD8     		bhi	.L18
 228              	.LVL10:
ARM GAS  /tmp/cciH6xaL.s 			page 5


 229              	.L15:
 230              		.loc 1 83 3 discriminator 5 view .LVU45
 231              		.loc 1 85 3 discriminator 5 view .LVU46
 232              		.loc 1 85 21 is_stmt 0 discriminator 5 view .LVU47
 233 0016 04F16040 		add	r0, r4, #-536870912
 234 001a 00F56D40 		add	r0, r0, #60672
 235              		.loc 1 85 23 discriminator 5 view .LVU48
 236 001e 2D01     		lsls	r5, r5, #4
 237              	.LVL11:
 238              		.loc 1 86 1 discriminator 5 view .LVU49
 239 0020 074B     		ldr	r3, .L20
 240              		.loc 1 85 23 discriminator 5 view .LVU50
 241 0022 EDB2     		uxtb	r5, r5
 242              		.loc 1 85 21 discriminator 5 view .LVU51
 243 0024 0576     		strb	r5, [r0, #24]
 244              		.loc 1 86 1 discriminator 5 view .LVU52
 245 0026 1A68     		ldr	r2, [r3]
 246 0028 019B     		ldr	r3, [sp, #4]
 247 002a 5A40     		eors	r2, r3, r2
 248 002c 05D1     		bne	.L19
 249              		.loc 1 86 1 view .LVU53
 250 002e 03B0     		add	sp, sp, #12
 251              		.cfi_remember_state
 252              		.cfi_def_cfa_offset 12
 253              		@ sp needed
 254 0030 30BD     		pop	{r4, r5, pc}
 255              	.LVL12:
 256              	.L18:
 257              		.cfi_restore_state
 258              		.loc 1 83 3 is_stmt 1 discriminator 3 view .LVU54
 259 0032 0448     		ldr	r0, .L20+4
 260              	.LVL13:
 261              		.loc 1 83 3 is_stmt 0 discriminator 3 view .LVU55
 262 0034 FFF7FEFF 		bl	chSysHalt
 263              	.LVL14:
 264              		.loc 1 83 3 discriminator 3 view .LVU56
 265 0038 EDE7     		b	.L15
 266              	.LVL15:
 267              	.L19:
 268              		.loc 1 86 1 view .LVU57
 269 003a FFF7FEFF 		bl	__stack_chk_fail
 270              	.LVL16:
 271              	.L21:
 272 003e 00BF     		.align	2
 273              	.L20:
 274 0040 00000000 		.word	.LC2
 275 0044 00000000 		.word	.LANCHOR0
 276              		.cfi_endproc
 277              	.LFE258:
 278              		.size	nvicSetSystemHandlerPriority, .-nvicSetSystemHandlerPriority
 279              		.section	.rodata.nvicClearPending.cst4,"aM",%progbits,4
 280              		.align	2
 281              	.LC3:
 282 0000 00000000 		.word	__stack_chk_guard
 283              		.section	.text.nvicClearPending,"ax",%progbits
 284              		.align	1
 285              		.p2align 4,,15
ARM GAS  /tmp/cciH6xaL.s 			page 6


 286              		.global	nvicClearPending
 287              		.syntax unified
 288              		.thumb
 289              		.thumb_func
 290              		.fpu fpv4-sp-d16
 291              		.type	nvicClearPending, %function
 292              	nvicClearPending:
 293              	.LVL17:
 294              	.LFB259:
 295              		.loc 1 93 35 is_stmt 1 view -0
 296              		.cfi_startproc
 297              		@ args = 0, pretend = 0, frame = 8
 298              		@ frame_needed = 0, uses_anonymous_args = 0
 299              		.loc 1 93 35 is_stmt 0 view .LVU59
 300 0000 00B5     		push	{lr}
 301              		.cfi_def_cfa_offset 4
 302              		.cfi_offset 14, -4
 303              		.loc 1 95 16 view .LVU60
 304 0002 4309     		lsrs	r3, r0, #5
 305              		.loc 1 95 22 view .LVU61
 306 0004 6033     		adds	r3, r3, #96
 307              		.loc 1 95 26 view .LVU62
 308 0006 0122     		movs	r2, #1
 309              		.loc 1 95 22 view .LVU63
 310 0008 0C49     		ldr	r1, .L26
 311              		.loc 1 93 35 view .LVU64
 312 000a DFF834C0 		ldr	ip, .L26+4
 313              		.loc 1 95 32 view .LVU65
 314 000e 00F01F00 		and	r0, r0, #31
 315              	.LVL18:
 316              		.loc 1 93 35 view .LVU66
 317 0012 83B0     		sub	sp, sp, #12
 318              		.cfi_def_cfa_offset 16
 319              		.loc 1 95 26 view .LVU67
 320 0014 02FA00F0 		lsl	r0, r2, r0
 321              		.loc 1 93 35 view .LVU68
 322 0018 DCF800C0 		ldr	ip, [ip]
 323 001c CDF804C0 		str	ip, [sp, #4]
 324 0020 4FF0000C 		mov	ip,#0
 325              		.loc 1 95 3 is_stmt 1 view .LVU69
 326              		.loc 1 95 22 is_stmt 0 view .LVU70
 327 0024 41F82300 		str	r0, [r1, r3, lsl #2]
 328              		.loc 1 96 1 view .LVU71
 329 0028 054B     		ldr	r3, .L26+4
 330 002a 1A68     		ldr	r2, [r3]
 331 002c 019B     		ldr	r3, [sp, #4]
 332 002e 5A40     		eors	r2, r3, r2
 333 0030 02D1     		bne	.L25
 334 0032 03B0     		add	sp, sp, #12
 335              		.cfi_remember_state
 336              		.cfi_def_cfa_offset 4
 337              		@ sp needed
 338 0034 5DF804FB 		ldr	pc, [sp], #4
 339              	.L25:
 340              		.cfi_restore_state
 341 0038 FFF7FEFF 		bl	__stack_chk_fail
 342              	.LVL19:
ARM GAS  /tmp/cciH6xaL.s 			page 7


 343              	.L27:
 344              		.align	2
 345              	.L26:
 346 003c 00E100E0 		.word	-536813312
 347 0040 00000000 		.word	.LC3
 348              		.cfi_endproc
 349              	.LFE259:
 350              		.size	nvicClearPending, .-nvicClearPending
 351              		.section	.rodata.__func__.9957,"a"
 352              		.align	2
 353              		.set	.LANCHOR0,. + 0
 354              		.type	__func__.9957, %object
 355              		.size	__func__.9957, 29
 356              	__func__.9957:
 357 0000 6E766963 		.ascii	"nvicSetSystemHandlerPriority\000"
 357      53657453 
 357      79737465 
 357      6D48616E 
 357      646C6572 
 358              		.text
 359              	.Letext0:
 360              		.file 2 "/usr/lib/gcc/arm-none-eabi/9.2.1/include/stddef.h"
 361              		.file 3 "/usr/lib/gcc/arm-none-eabi/9.2.1/include/stdint.h"
 362              		.file 4 ".//ChibiOS//os/rt/ports/ARMCMx/compilers/GCC/chtypes.h"
 363              		.file 5 ".//ChibiOS//os/rt/include/chsystypes.h"
 364              		.file 6 ".//ChibiOS//os/rt/include/chschd.h"
 365              		.file 7 ".//ChibiOS//os/ext/CMSIS/include/core_cm4.h"
 366              		.file 8 ".//ChibiOS//os/ext/CMSIS/ST/system_stm32f4xx.h"
 367              		.file 9 ".//ChibiOS//os/ext/CMSIS/ST/stm32f407xx.h"
 368              		.file 10 ".//ChibiOS//os/rt/ports/ARMCMx/chcore.h"
 369              		.file 11 ".//ChibiOS//os/rt/ports/ARMCMx/chcore_v7m.h"
 370              		.file 12 ".//ChibiOS//os/rt/include/chdebug.h"
 371              		.file 13 ".//ChibiOS//os/rt/include/chtm.h"
 372              		.file 14 ".//ChibiOS//os/rt/include/chstats.h"
 373              		.file 15 ".//ChibiOS//os/rt/include/chsem.h"
 374              		.file 16 ".//ChibiOS//os/rt/include/chmtx.h"
 375              		.file 17 ".//ChibiOS//os/rt/include/chregistry.h"
 376              		.file 18 ".//ChibiOS//os/rt/include/chevents.h"
 377              		.file 19 ".//ChibiOS//os/rt/include/chqueues.h"
 378              		.file 20 ".//ChibiOS//os/hal/ports/STM32/STM32F4xx/stm32_dma.h"
 379              		.file 21 ".//ChibiOS//os/hal/include/hal_ioblock.h"
 380              		.file 22 ".//ChibiOS//os/hal/ports/STM32/LLD/GPIOv2/pal_lld.h"
 381              		.file 23 ".//ChibiOS//os/hal/include/adc.h"
 382              		.file 24 ".//ChibiOS//os/hal/ports/STM32/STM32F4xx/adc_lld.h"
 383              		.file 25 ".//ChibiOS//os/hal/include/can.h"
 384              		.file 26 ".//ChibiOS//os/hal/ports/STM32/LLD/can_lld.h"
 385              		.file 27 ".//ChibiOS//os/hal/include/dac.h"
 386              		.file 28 ".//ChibiOS//os/hal/ports/STM32/LLD/DACv1/dac_lld.h"
 387              		.file 29 ".//ChibiOS//os/hal/include/ext.h"
 388              		.file 30 ".//ChibiOS//os/hal/ports/STM32/LLD/ext_lld.h"
 389              		.file 31 ".//ChibiOS//os/hal/include/gpt.h"
 390              		.file 32 ".//ChibiOS//os/hal/ports/STM32/LLD/TIMv1/gpt_lld.h"
 391              		.file 33 ".//ChibiOS//os/hal/ports/STM32/LLD/TIMv1/stm32_tim.h"
 392              		.file 34 ".//ChibiOS//os/hal/include/i2c.h"
 393              		.file 35 ".//ChibiOS//os/hal/ports/STM32/LLD/I2Cv1/i2c_lld.h"
 394              		.file 36 ".//ChibiOS//os/hal/include/i2s.h"
 395              		.file 37 ".//ChibiOS//os/hal/ports/STM32/LLD/SPIv1/i2s_lld.h"
ARM GAS  /tmp/cciH6xaL.s 			page 8


 396              		.file 38 ".//ChibiOS//os/hal/include/pwm.h"
 397              		.file 39 ".//ChibiOS//os/hal/ports/STM32/LLD/TIMv1/pwm_lld.h"
 398              		.file 40 ".//ChibiOS//os/hal/include/serial.h"
 399              		.file 41 ".//ChibiOS//os/hal/ports/STM32/LLD/USARTv1/serial_lld.h"
 400              		.file 42 ".//ChibiOS//os/hal/include/sdc.h"
 401              		.file 43 ".//ChibiOS//os/hal/ports/STM32/LLD/sdc_lld.h"
 402              		.file 44 ".//ChibiOS//os/hal/include/spi.h"
 403              		.file 45 ".//ChibiOS//os/hal/ports/STM32/LLD/SPIv1/spi_lld.h"
 404              		.file 46 ".//ChibiOS//os/hal/include/usb.h"
 405              		.file 47 ".//ChibiOS//os/hal/ports/STM32/LLD/OTGv1/usb_lld.h"
 406              		.file 48 ".//ChibiOS//os/hal/ports/STM32/LLD/OTGv1/stm32_otg.h"
 407              		.file 49 ".//ChibiOS//os/rt/include/chsys.h"