ARM GAS  /tmp/ccz3UaWL.s 			page 1


   1              		.cpu cortex-m4
   2              		.eabi_attribute 27, 1
   3              		.eabi_attribute 28, 1
   4              		.eabi_attribute 20, 1
   5              		.eabi_attribute 21, 1
   6              		.eabi_attribute 23, 3
   7              		.eabi_attribute 24, 1
   8              		.eabi_attribute 25, 1
   9              		.eabi_attribute 26, 1
  10              		.eabi_attribute 30, 2
  11              		.eabi_attribute 34, 1
  12              		.eabi_attribute 18, 4
  13              		.file	"pal_lld.c"
  14              		.text
  15              	.Ltext0:
  16              		.cfi_sections	.debug_frame
  17              		.section	.rodata._pal_lld_init.cst4,"aM",%progbits,4
  18              		.align	2
  19              	.LC0:
  20 0000 00000000 		.word	__stack_chk_guard
  21              		.section	.text._pal_lld_init,"ax",%progbits
  22              		.align	1
  23              		.p2align 4,,15
  24              		.global	_pal_lld_init
  25              		.arch armv7e-m
  26              		.syntax unified
  27              		.thumb
  28              		.thumb_func
  29              		.fpu fpv4-sp-d16
  30              		.type	_pal_lld_init, %function
  31              	_pal_lld_init:
  32              	.LVL0:
  33              	.LFB257:
  34              		.file 1 ".//ChibiOS//os/hal/ports/STM32/LLD/GPIOv2/pal_lld.c"
  35              		.loc 1 92 45 view -0
  36              		.cfi_startproc
  37              		@ args = 0, pretend = 0, frame = 8
  38              		@ frame_needed = 0, uses_anonymous_args = 0
  39              		.loc 1 92 45 is_stmt 0 view .LVU1
  40 0000 70B5     		push	{r4, r5, r6, lr}
  41              		.cfi_def_cfa_offset 16
  42              		.cfi_offset 4, -16
  43              		.cfi_offset 5, -12
  44              		.cfi_offset 6, -8
  45              		.cfi_offset 14, -4
  46 0002 6F4B     		ldr	r3, .L6
  47              		.loc 1 105 18 view .LVU2
  48 0004 6F49     		ldr	r1, .L6+4
  49              	.LBB20:
  50              	.LBB21:
  51              		.loc 1 67 18 view .LVU3
  52 0006 704A     		ldr	r2, .L6+8
  53              	.LBE21:
  54              	.LBE20:
  55              		.loc 1 92 45 view .LVU4
  56 0008 82B0     		sub	sp, sp, #8
  57              		.cfi_def_cfa_offset 24
ARM GAS  /tmp/ccz3UaWL.s 			page 2


  58              		.loc 1 92 45 view .LVU5
  59 000a 1B68     		ldr	r3, [r3]
  60 000c 0193     		str	r3, [sp, #4]
  61 000e 4FF00003 		mov	r3,#0
  62              		.loc 1 105 3 is_stmt 1 view .LVU6
  63              		.loc 1 105 18 is_stmt 0 view .LVU7
  64 0012 40F2FF16 		movw	r6, #511
  65 0016 0D6B     		ldr	r5, [r1, #48]
  66              	.LBB23:
  67              	.LBB24:
  68              		.loc 1 67 18 view .LVU8
  69 0018 6C4B     		ldr	r3, .L6+12
  70              	.LBE24:
  71              	.LBE23:
  72              		.loc 1 105 18 view .LVU9
  73 001a 3543     		orrs	r5, r5, r6
  74 001c 0D63     		str	r5, [r1, #48]
  75              		.loc 1 106 3 is_stmt 1 view .LVU10
  76              		.loc 1 106 18 is_stmt 0 view .LVU11
  77 001e 0C6D     		ldr	r4, [r1, #80]
  78 0020 3443     		orrs	r4, r4, r6
  79 0022 0C65     		str	r4, [r1, #80]
  80              		.loc 1 113 3 is_stmt 1 view .LVU12
  81              	.LVL1:
  82              	.LBB26:
  83              	.LBI20:
  84              		.loc 1 65 13 view .LVU13
  85              	.LBB22:
  86              		.loc 1 67 3 view .LVU14
  87              		.loc 1 67 26 is_stmt 0 view .LVU15
  88 0024 4168     		ldr	r1, [r0, #4]
  89              		.loc 1 67 18 view .LVU16
  90 0026 5160     		str	r1, [r2, #4]
  91              		.loc 1 68 3 is_stmt 1 view .LVU17
  92              		.loc 1 68 26 is_stmt 0 view .LVU18
  93 0028 8168     		ldr	r1, [r0, #8]
  94              		.loc 1 68 18 view .LVU19
  95 002a 9160     		str	r1, [r2, #8]
  96              		.loc 1 69 3 is_stmt 1 view .LVU20
  97              		.loc 1 69 26 is_stmt 0 view .LVU21
  98 002c C168     		ldr	r1, [r0, #12]
  99              		.loc 1 69 18 view .LVU22
 100 002e D160     		str	r1, [r2, #12]
 101              		.loc 1 70 3 is_stmt 1 view .LVU23
 102              		.loc 1 70 26 is_stmt 0 view .LVU24
 103 0030 0169     		ldr	r1, [r0, #16]
 104              		.loc 1 70 18 view .LVU25
 105 0032 5161     		str	r1, [r2, #20]
 106              		.loc 1 71 3 is_stmt 1 view .LVU26
 107              		.loc 1 71 26 is_stmt 0 view .LVU27
 108 0034 4169     		ldr	r1, [r0, #20]
 109              		.loc 1 71 18 view .LVU28
 110 0036 1162     		str	r1, [r2, #32]
 111              		.loc 1 72 3 is_stmt 1 view .LVU29
 112              		.loc 1 72 26 is_stmt 0 view .LVU30
 113 0038 8169     		ldr	r1, [r0, #24]
 114              		.loc 1 72 18 view .LVU31
ARM GAS  /tmp/ccz3UaWL.s 			page 3


 115 003a 5162     		str	r1, [r2, #36]
 116              		.loc 1 73 3 is_stmt 1 view .LVU32
 117              		.loc 1 73 26 is_stmt 0 view .LVU33
 118 003c 0168     		ldr	r1, [r0]
 119              		.loc 1 73 18 view .LVU34
 120 003e 1160     		str	r1, [r2]
 121              	.LVL2:
 122              		.loc 1 73 18 view .LVU35
 123              	.LBE22:
 124              	.LBE26:
 125              		.loc 1 116 3 is_stmt 1 view .LVU36
 126              	.LBB27:
 127              	.LBI23:
 128              		.loc 1 65 13 view .LVU37
 129              	.LBB25:
 130              		.loc 1 67 3 view .LVU38
 131              		.loc 1 67 26 is_stmt 0 view .LVU39
 132 0040 026A     		ldr	r2, [r0, #32]
 133              		.loc 1 67 18 view .LVU40
 134 0042 5A60     		str	r2, [r3, #4]
 135              		.loc 1 68 3 is_stmt 1 view .LVU41
 136              		.loc 1 68 26 is_stmt 0 view .LVU42
 137 0044 426A     		ldr	r2, [r0, #36]
 138              		.loc 1 68 18 view .LVU43
 139 0046 9A60     		str	r2, [r3, #8]
 140              		.loc 1 69 3 is_stmt 1 view .LVU44
 141              		.loc 1 69 26 is_stmt 0 view .LVU45
 142 0048 826A     		ldr	r2, [r0, #40]
 143              		.loc 1 69 18 view .LVU46
 144 004a DA60     		str	r2, [r3, #12]
 145              		.loc 1 70 3 is_stmt 1 view .LVU47
 146              		.loc 1 70 26 is_stmt 0 view .LVU48
 147 004c C26A     		ldr	r2, [r0, #44]
 148              		.loc 1 70 18 view .LVU49
 149 004e 5A61     		str	r2, [r3, #20]
 150              		.loc 1 71 3 is_stmt 1 view .LVU50
 151              		.loc 1 71 26 is_stmt 0 view .LVU51
 152 0050 026B     		ldr	r2, [r0, #48]
 153              		.loc 1 71 18 view .LVU52
 154 0052 1A62     		str	r2, [r3, #32]
 155              		.loc 1 72 3 is_stmt 1 view .LVU53
 156              		.loc 1 72 26 is_stmt 0 view .LVU54
 157 0054 426B     		ldr	r2, [r0, #52]
 158              		.loc 1 72 18 view .LVU55
 159 0056 5A62     		str	r2, [r3, #36]
 160              		.loc 1 73 3 is_stmt 1 view .LVU56
 161              		.loc 1 73 26 is_stmt 0 view .LVU57
 162 0058 C269     		ldr	r2, [r0, #28]
 163              		.loc 1 73 18 view .LVU58
 164 005a 1A60     		str	r2, [r3]
 165              	.LVL3:
 166              		.loc 1 73 18 view .LVU59
 167              	.LBE25:
 168              	.LBE27:
 169              		.loc 1 119 3 is_stmt 1 view .LVU60
 170              	.LBB28:
 171              	.LBI28:
ARM GAS  /tmp/ccz3UaWL.s 			page 4


 172              		.loc 1 65 13 view .LVU61
 173              	.LBB29:
 174              		.loc 1 67 3 view .LVU62
 175              		.loc 1 67 26 is_stmt 0 view .LVU63
 176 005c C26B     		ldr	r2, [r0, #60]
 177              		.loc 1 67 18 view .LVU64
 178 005e C3F80424 		str	r2, [r3, #1028]
 179              		.loc 1 68 3 is_stmt 1 view .LVU65
 180              		.loc 1 68 26 is_stmt 0 view .LVU66
 181 0062 026C     		ldr	r2, [r0, #64]
 182              		.loc 1 68 18 view .LVU67
 183 0064 C3F80824 		str	r2, [r3, #1032]
 184              		.loc 1 69 3 is_stmt 1 view .LVU68
 185              		.loc 1 69 26 is_stmt 0 view .LVU69
 186 0068 426C     		ldr	r2, [r0, #68]
 187              		.loc 1 69 18 view .LVU70
 188 006a C3F80C24 		str	r2, [r3, #1036]
 189              		.loc 1 70 3 is_stmt 1 view .LVU71
 190              		.loc 1 70 26 is_stmt 0 view .LVU72
 191 006e 826C     		ldr	r2, [r0, #72]
 192              		.loc 1 70 18 view .LVU73
 193 0070 C3F81424 		str	r2, [r3, #1044]
 194              		.loc 1 71 3 is_stmt 1 view .LVU74
 195              		.loc 1 71 26 is_stmt 0 view .LVU75
 196 0074 C26C     		ldr	r2, [r0, #76]
 197              		.loc 1 71 18 view .LVU76
 198 0076 C3F82024 		str	r2, [r3, #1056]
 199              		.loc 1 72 3 is_stmt 1 view .LVU77
 200              		.loc 1 72 26 is_stmt 0 view .LVU78
 201 007a 026D     		ldr	r2, [r0, #80]
 202              		.loc 1 72 18 view .LVU79
 203 007c C3F82424 		str	r2, [r3, #1060]
 204              		.loc 1 73 3 is_stmt 1 view .LVU80
 205              		.loc 1 73 26 is_stmt 0 view .LVU81
 206 0080 826B     		ldr	r2, [r0, #56]
 207              		.loc 1 73 18 view .LVU82
 208 0082 C3F80024 		str	r2, [r3, #1024]
 209              	.LVL4:
 210              		.loc 1 73 18 view .LVU83
 211              	.LBE29:
 212              	.LBE28:
 213              		.loc 1 122 3 is_stmt 1 view .LVU84
 214              	.LBB30:
 215              	.LBI30:
 216              		.loc 1 65 13 view .LVU85
 217              	.LBB31:
 218              		.loc 1 67 3 view .LVU86
 219              		.loc 1 67 18 is_stmt 0 view .LVU87
 220 0086 03F50063 		add	r3, r3, #2048
 221              		.loc 1 67 26 view .LVU88
 222 008a 826D     		ldr	r2, [r0, #88]
 223              		.loc 1 67 18 view .LVU89
 224 008c 5A60     		str	r2, [r3, #4]
 225              		.loc 1 68 3 is_stmt 1 view .LVU90
 226              		.loc 1 68 26 is_stmt 0 view .LVU91
 227 008e C26D     		ldr	r2, [r0, #92]
 228              		.loc 1 68 18 view .LVU92
ARM GAS  /tmp/ccz3UaWL.s 			page 5


 229 0090 9A60     		str	r2, [r3, #8]
 230              		.loc 1 69 3 is_stmt 1 view .LVU93
 231              		.loc 1 69 26 is_stmt 0 view .LVU94
 232 0092 026E     		ldr	r2, [r0, #96]
 233              		.loc 1 69 18 view .LVU95
 234 0094 DA60     		str	r2, [r3, #12]
 235              		.loc 1 70 3 is_stmt 1 view .LVU96
 236              		.loc 1 70 26 is_stmt 0 view .LVU97
 237 0096 426E     		ldr	r2, [r0, #100]
 238              		.loc 1 70 18 view .LVU98
 239 0098 5A61     		str	r2, [r3, #20]
 240              		.loc 1 71 3 is_stmt 1 view .LVU99
 241              		.loc 1 71 26 is_stmt 0 view .LVU100
 242 009a 826E     		ldr	r2, [r0, #104]
 243              		.loc 1 71 18 view .LVU101
 244 009c 1A62     		str	r2, [r3, #32]
 245              		.loc 1 72 3 is_stmt 1 view .LVU102
 246              		.loc 1 72 26 is_stmt 0 view .LVU103
 247 009e C26E     		ldr	r2, [r0, #108]
 248              		.loc 1 72 18 view .LVU104
 249 00a0 5A62     		str	r2, [r3, #36]
 250              		.loc 1 73 3 is_stmt 1 view .LVU105
 251              		.loc 1 73 26 is_stmt 0 view .LVU106
 252 00a2 426D     		ldr	r2, [r0, #84]
 253              		.loc 1 73 18 view .LVU107
 254 00a4 1A60     		str	r2, [r3]
 255              	.LVL5:
 256              		.loc 1 73 18 view .LVU108
 257              	.LBE31:
 258              	.LBE30:
 259              		.loc 1 125 3 is_stmt 1 view .LVU109
 260              	.LBB32:
 261              	.LBI32:
 262              		.loc 1 65 13 view .LVU110
 263              	.LBB33:
 264              		.loc 1 67 3 view .LVU111
 265              		.loc 1 67 26 is_stmt 0 view .LVU112
 266 00a6 426F     		ldr	r2, [r0, #116]
 267              		.loc 1 67 18 view .LVU113
 268 00a8 C3F80424 		str	r2, [r3, #1028]
 269              		.loc 1 68 3 is_stmt 1 view .LVU114
 270              		.loc 1 68 26 is_stmt 0 view .LVU115
 271 00ac 826F     		ldr	r2, [r0, #120]
 272              		.loc 1 68 18 view .LVU116
 273 00ae C3F80824 		str	r2, [r3, #1032]
 274              		.loc 1 69 3 is_stmt 1 view .LVU117
 275              		.loc 1 69 26 is_stmt 0 view .LVU118
 276 00b2 C26F     		ldr	r2, [r0, #124]
 277              		.loc 1 69 18 view .LVU119
 278 00b4 C3F80C24 		str	r2, [r3, #1036]
 279              		.loc 1 70 3 is_stmt 1 view .LVU120
 280              		.loc 1 70 26 is_stmt 0 view .LVU121
 281 00b8 D0F88020 		ldr	r2, [r0, #128]
 282              		.loc 1 70 18 view .LVU122
 283 00bc C3F81424 		str	r2, [r3, #1044]
 284              		.loc 1 71 3 is_stmt 1 view .LVU123
 285              		.loc 1 71 26 is_stmt 0 view .LVU124
ARM GAS  /tmp/ccz3UaWL.s 			page 6


 286 00c0 D0F88420 		ldr	r2, [r0, #132]
 287              		.loc 1 71 18 view .LVU125
 288 00c4 C3F82024 		str	r2, [r3, #1056]
 289              		.loc 1 72 3 is_stmt 1 view .LVU126
 290              		.loc 1 72 26 is_stmt 0 view .LVU127
 291 00c8 D0F88820 		ldr	r2, [r0, #136]
 292              		.loc 1 72 18 view .LVU128
 293 00cc C3F82424 		str	r2, [r3, #1060]
 294              		.loc 1 73 3 is_stmt 1 view .LVU129
 295              		.loc 1 73 26 is_stmt 0 view .LVU130
 296 00d0 026F     		ldr	r2, [r0, #112]
 297              		.loc 1 73 18 view .LVU131
 298 00d2 C3F80024 		str	r2, [r3, #1024]
 299              	.LVL6:
 300              		.loc 1 73 18 view .LVU132
 301              	.LBE33:
 302              	.LBE32:
 303              		.loc 1 128 3 is_stmt 1 view .LVU133
 304              	.LBB34:
 305              	.LBI34:
 306              		.loc 1 65 13 view .LVU134
 307              	.LBB35:
 308              		.loc 1 67 3 view .LVU135
 309              		.loc 1 67 26 is_stmt 0 view .LVU136
 310 00d6 D0F89020 		ldr	r2, [r0, #144]
 311              		.loc 1 67 18 view .LVU137
 312 00da C3F80428 		str	r2, [r3, #2052]
 313              		.loc 1 68 3 is_stmt 1 view .LVU138
 314              		.loc 1 68 26 is_stmt 0 view .LVU139
 315 00de D0F89420 		ldr	r2, [r0, #148]
 316              		.loc 1 68 18 view .LVU140
 317 00e2 C3F80828 		str	r2, [r3, #2056]
 318              		.loc 1 69 3 is_stmt 1 view .LVU141
 319              		.loc 1 69 26 is_stmt 0 view .LVU142
 320 00e6 D0F89820 		ldr	r2, [r0, #152]
 321              		.loc 1 69 18 view .LVU143
 322 00ea C3F80C28 		str	r2, [r3, #2060]
 323              		.loc 1 70 3 is_stmt 1 view .LVU144
 324              		.loc 1 70 26 is_stmt 0 view .LVU145
 325 00ee D0F89C20 		ldr	r2, [r0, #156]
 326              		.loc 1 70 18 view .LVU146
 327 00f2 C3F81428 		str	r2, [r3, #2068]
 328              		.loc 1 71 3 is_stmt 1 view .LVU147
 329              		.loc 1 71 26 is_stmt 0 view .LVU148
 330 00f6 D0F8A020 		ldr	r2, [r0, #160]
 331              		.loc 1 71 18 view .LVU149
 332 00fa C3F82028 		str	r2, [r3, #2080]
 333              		.loc 1 72 3 is_stmt 1 view .LVU150
 334              		.loc 1 72 26 is_stmt 0 view .LVU151
 335 00fe D0F8A420 		ldr	r2, [r0, #164]
 336              		.loc 1 72 18 view .LVU152
 337 0102 C3F82428 		str	r2, [r3, #2084]
 338              		.loc 1 73 3 is_stmt 1 view .LVU153
 339              		.loc 1 73 26 is_stmt 0 view .LVU154
 340 0106 D0F88C20 		ldr	r2, [r0, #140]
 341              		.loc 1 73 18 view .LVU155
 342 010a C3F80028 		str	r2, [r3, #2048]
ARM GAS  /tmp/ccz3UaWL.s 			page 7


 343              	.LVL7:
 344              		.loc 1 73 18 view .LVU156
 345              	.LBE35:
 346              	.LBE34:
 347              		.loc 1 131 3 is_stmt 1 view .LVU157
 348              	.LBB36:
 349              	.LBI36:
 350              		.loc 1 65 13 view .LVU158
 351              	.LBB37:
 352              		.loc 1 67 3 view .LVU159
 353              		.loc 1 67 18 is_stmt 0 view .LVU160
 354 010e 03F54063 		add	r3, r3, #3072
 355              		.loc 1 67 26 view .LVU161
 356 0112 D0F8AC20 		ldr	r2, [r0, #172]
 357              		.loc 1 67 18 view .LVU162
 358 0116 5A60     		str	r2, [r3, #4]
 359              		.loc 1 68 3 is_stmt 1 view .LVU163
 360              		.loc 1 68 26 is_stmt 0 view .LVU164
 361 0118 D0F8B020 		ldr	r2, [r0, #176]
 362              		.loc 1 68 18 view .LVU165
 363 011c 9A60     		str	r2, [r3, #8]
 364              		.loc 1 69 3 is_stmt 1 view .LVU166
 365              		.loc 1 69 26 is_stmt 0 view .LVU167
 366 011e D0F8B420 		ldr	r2, [r0, #180]
 367              		.loc 1 69 18 view .LVU168
 368 0122 DA60     		str	r2, [r3, #12]
 369              		.loc 1 70 3 is_stmt 1 view .LVU169
 370              		.loc 1 70 26 is_stmt 0 view .LVU170
 371 0124 D0F8B820 		ldr	r2, [r0, #184]
 372              		.loc 1 70 18 view .LVU171
 373 0128 5A61     		str	r2, [r3, #20]
 374              		.loc 1 71 3 is_stmt 1 view .LVU172
 375              		.loc 1 71 26 is_stmt 0 view .LVU173
 376 012a D0F8BC20 		ldr	r2, [r0, #188]
 377              		.loc 1 71 18 view .LVU174
 378 012e 1A62     		str	r2, [r3, #32]
 379              		.loc 1 72 3 is_stmt 1 view .LVU175
 380              		.loc 1 72 26 is_stmt 0 view .LVU176
 381 0130 D0F8C020 		ldr	r2, [r0, #192]
 382              		.loc 1 72 18 view .LVU177
 383 0134 5A62     		str	r2, [r3, #36]
 384              		.loc 1 73 3 is_stmt 1 view .LVU178
 385              		.loc 1 73 26 is_stmt 0 view .LVU179
 386 0136 D0F8A820 		ldr	r2, [r0, #168]
 387              		.loc 1 73 18 view .LVU180
 388 013a 1A60     		str	r2, [r3]
 389              	.LVL8:
 390              		.loc 1 73 18 view .LVU181
 391              	.LBE37:
 392              	.LBE36:
 393              		.loc 1 134 3 is_stmt 1 view .LVU182
 394              	.LBB38:
 395              	.LBI38:
 396              		.loc 1 65 13 view .LVU183
 397              	.LBB39:
 398              		.loc 1 67 3 view .LVU184
 399              		.loc 1 67 26 is_stmt 0 view .LVU185
ARM GAS  /tmp/ccz3UaWL.s 			page 8


 400 013c D0F8C820 		ldr	r2, [r0, #200]
 401              		.loc 1 67 18 view .LVU186
 402 0140 C3F80424 		str	r2, [r3, #1028]
 403              		.loc 1 68 3 is_stmt 1 view .LVU187
 404              		.loc 1 68 26 is_stmt 0 view .LVU188
 405 0144 D0F8CC20 		ldr	r2, [r0, #204]
 406              		.loc 1 68 18 view .LVU189
 407 0148 C3F80824 		str	r2, [r3, #1032]
 408              		.loc 1 69 3 is_stmt 1 view .LVU190
 409              		.loc 1 69 26 is_stmt 0 view .LVU191
 410 014c D0F8D020 		ldr	r2, [r0, #208]
 411              		.loc 1 69 18 view .LVU192
 412 0150 C3F80C24 		str	r2, [r3, #1036]
 413              		.loc 1 70 3 is_stmt 1 view .LVU193
 414              		.loc 1 70 26 is_stmt 0 view .LVU194
 415 0154 D0F8D420 		ldr	r2, [r0, #212]
 416              		.loc 1 70 18 view .LVU195
 417 0158 C3F81424 		str	r2, [r3, #1044]
 418              		.loc 1 71 3 is_stmt 1 view .LVU196
 419              		.loc 1 71 26 is_stmt 0 view .LVU197
 420 015c D0F8D820 		ldr	r2, [r0, #216]
 421              		.loc 1 71 18 view .LVU198
 422 0160 C3F82024 		str	r2, [r3, #1056]
 423              		.loc 1 72 3 is_stmt 1 view .LVU199
 424              		.loc 1 72 26 is_stmt 0 view .LVU200
 425 0164 D0F8DC20 		ldr	r2, [r0, #220]
 426              		.loc 1 72 18 view .LVU201
 427 0168 C3F82424 		str	r2, [r3, #1060]
 428              		.loc 1 73 3 is_stmt 1 view .LVU202
 429              		.loc 1 73 26 is_stmt 0 view .LVU203
 430 016c D0F8C420 		ldr	r2, [r0, #196]
 431              		.loc 1 73 18 view .LVU204
 432 0170 C3F80024 		str	r2, [r3, #1024]
 433              	.LVL9:
 434              		.loc 1 73 18 view .LVU205
 435              	.LBE39:
 436              	.LBE38:
 437              		.loc 1 137 3 is_stmt 1 view .LVU206
 438              	.LBB40:
 439              	.LBI40:
 440              		.loc 1 65 13 view .LVU207
 441              	.LBB41:
 442              		.loc 1 67 3 view .LVU208
 443              		.loc 1 67 26 is_stmt 0 view .LVU209
 444 0174 D0F8E420 		ldr	r2, [r0, #228]
 445              		.loc 1 67 18 view .LVU210
 446 0178 C3F80428 		str	r2, [r3, #2052]
 447              		.loc 1 68 3 is_stmt 1 view .LVU211
 448              		.loc 1 68 26 is_stmt 0 view .LVU212
 449 017c D0F8E820 		ldr	r2, [r0, #232]
 450              		.loc 1 68 18 view .LVU213
 451 0180 C3F80828 		str	r2, [r3, #2056]
 452              		.loc 1 69 3 is_stmt 1 view .LVU214
 453              		.loc 1 69 26 is_stmt 0 view .LVU215
 454 0184 D0F8EC20 		ldr	r2, [r0, #236]
 455              		.loc 1 69 18 view .LVU216
 456 0188 C3F80C28 		str	r2, [r3, #2060]
ARM GAS  /tmp/ccz3UaWL.s 			page 9


 457              		.loc 1 70 3 is_stmt 1 view .LVU217
 458              		.loc 1 70 26 is_stmt 0 view .LVU218
 459 018c D0F8F020 		ldr	r2, [r0, #240]
 460              		.loc 1 70 18 view .LVU219
 461 0190 C3F81428 		str	r2, [r3, #2068]
 462              		.loc 1 71 3 is_stmt 1 view .LVU220
 463              		.loc 1 71 26 is_stmt 0 view .LVU221
 464 0194 D0F8F420 		ldr	r2, [r0, #244]
 465              		.loc 1 71 18 view .LVU222
 466 0198 C3F82028 		str	r2, [r3, #2080]
 467              		.loc 1 72 3 is_stmt 1 view .LVU223
 468              		.loc 1 72 26 is_stmt 0 view .LVU224
 469 019c D0F8F820 		ldr	r2, [r0, #248]
 470              		.loc 1 72 18 view .LVU225
 471 01a0 C3F82428 		str	r2, [r3, #2084]
 472              		.loc 1 73 3 is_stmt 1 view .LVU226
 473              		.loc 1 73 26 is_stmt 0 view .LVU227
 474 01a4 D0F8E020 		ldr	r2, [r0, #224]
 475              		.loc 1 73 18 view .LVU228
 476 01a8 C3F80028 		str	r2, [r3, #2048]
 477              	.LVL10:
 478              		.loc 1 73 18 view .LVU229
 479              	.LBE41:
 480              	.LBE40:
 481              		.loc 1 139 1 view .LVU230
 482 01ac 044B     		ldr	r3, .L6
 483 01ae 1A68     		ldr	r2, [r3]
 484 01b0 019B     		ldr	r3, [sp, #4]
 485 01b2 5A40     		eors	r2, r3, r2
 486 01b4 01D1     		bne	.L5
 487 01b6 02B0     		add	sp, sp, #8
 488              		.cfi_remember_state
 489              		.cfi_def_cfa_offset 16
 490              		@ sp needed
 491 01b8 70BD     		pop	{r4, r5, r6, pc}
 492              	.L5:
 493              		.cfi_restore_state
 494 01ba FFF7FEFF 		bl	__stack_chk_fail
 495              	.LVL11:
 496              	.L7:
 497              		.loc 1 139 1 view .LVU231
 498 01be 00BF     		.align	2
 499              	.L6:
 500 01c0 00000000 		.word	.LC0
 501 01c4 00380240 		.word	1073887232
 502 01c8 00000240 		.word	1073872896
 503 01cc 00040240 		.word	1073873920
 504              		.cfi_endproc
 505              	.LFE257:
 506              		.size	_pal_lld_init, .-_pal_lld_init
 507              		.section	.rodata._pal_lld_setgroupmode.cst4,"aM",%progbits,4
 508              		.align	2
 509              	.LC1:
 510 0000 00000000 		.word	__stack_chk_guard
 511              		.section	.text._pal_lld_setgroupmode,"ax",%progbits
 512              		.align	1
 513              		.p2align 4,,15
ARM GAS  /tmp/ccz3UaWL.s 			page 10


 514              		.global	_pal_lld_setgroupmode
 515              		.syntax unified
 516              		.thumb
 517              		.thumb_func
 518              		.fpu fpv4-sp-d16
 519              		.type	_pal_lld_setgroupmode, %function
 520              	_pal_lld_setgroupmode:
 521              	.LVL12:
 522              	.LFB258:
 523              		.loc 1 157 43 is_stmt 1 view -0
 524              		.cfi_startproc
 525              		@ args = 0, pretend = 0, frame = 8
 526              		@ frame_needed = 0, uses_anonymous_args = 0
 527              		.loc 1 157 43 is_stmt 0 view .LVU233
 528 0000 2DE9F04F 		push	{r4, r5, r6, r7, r8, r9, r10, fp, lr}
 529              		.cfi_def_cfa_offset 36
 530              		.cfi_offset 4, -36
 531              		.cfi_offset 5, -32
 532              		.cfi_offset 6, -28
 533              		.cfi_offset 7, -24
 534              		.cfi_offset 8, -20
 535              		.cfi_offset 9, -16
 536              		.cfi_offset 10, -12
 537              		.cfi_offset 11, -8
 538              		.cfi_offset 14, -4
 539              		.loc 1 163 12 view .LVU234
 540 0004 C2F3C31C 		ubfx	ip, r2, #7, #4
 541              		.loc 1 159 12 view .LVU235
 542 0008 02F00307 		and	r7, r2, #3
 543              		.loc 1 160 12 view .LVU236
 544 000c C2F38006 		ubfx	r6, r2, #2, #1
 545              		.loc 1 161 12 view .LVU237
 546 0010 C2F3C105 		ubfx	r5, r2, #3, #2
 547              		.loc 1 162 12 view .LVU238
 548 0014 C2F34114 		ubfx	r4, r2, #5, #2
 549              		.loc 1 157 43 view .LVU239
 550 0018 294A     		ldr	r2, .L22
 551              	.LVL13:
 552              		.loc 1 157 43 view .LVU240
 553 001a 83B0     		sub	sp, sp, #12
 554              		.cfi_def_cfa_offset 48
 555              		.loc 1 164 12 view .LVU241
 556 001c 0023     		movs	r3, #0
 557              	.LBB42:
 558              		.loc 1 170 15 view .LVU242
 559 001e 4FF00F09 		mov	r9, #15
 560              		.loc 1 175 14 view .LVU243
 561 0022 4FF00108 		mov	r8, #1
 562              		.loc 1 177 14 view .LVU244
 563 0026 4FF0030E 		mov	lr, #3
 564              	.LBE42:
 565              		.loc 1 157 43 view .LVU245
 566 002a 1268     		ldr	r2, [r2]
 567 002c 0192     		str	r2, [sp, #4]
 568 002e 4FF00002 		mov	r2,#0
 569              		.loc 1 159 3 is_stmt 1 view .LVU246
 570              	.LVL14:
ARM GAS  /tmp/ccz3UaWL.s 			page 11


 571              		.loc 1 160 3 view .LVU247
 572              		.loc 1 161 3 view .LVU248
 573              		.loc 1 162 3 view .LVU249
 574              		.loc 1 163 3 view .LVU250
 575              		.loc 1 164 3 view .LVU251
 576              		.loc 1 164 3 is_stmt 0 view .LVU252
 577 0032 27E0     		b	.L13
 578              	.LVL15:
 579              	.L20:
 580              	.LBB43:
 581              		.loc 1 172 9 is_stmt 1 view .LVU253
 582              		.loc 1 172 27 is_stmt 0 view .LVU254
 583 0034 D0F820B0 		ldr	fp, [r0, #32]
 584              		.loc 1 172 34 view .LVU255
 585 0038 2BEA0202 		bic	r2, fp, r2
 586              	.LVL16:
 587              		.loc 1 172 41 view .LVU256
 588 003c 42EA0A02 		orr	r2, r2, r10
 589              		.loc 1 172 20 view .LVU257
 590 0040 0262     		str	r2, [r0, #32]
 591              	.L11:
 592              		.loc 1 175 7 is_stmt 1 view .LVU258
 593              	.LVL17:
 594              		.loc 1 176 7 view .LVU259
 595              		.loc 1 176 28 is_stmt 0 view .LVU260
 596 0042 4268     		ldr	r2, [r0, #4]
 597              		.loc 1 175 14 view .LVU261
 598 0044 08FA03FA 		lsl	r10, r8, r3
 599              	.LVL18:
 600              		.loc 1 176 37 view .LVU262
 601 0048 22EA0A02 		bic	r2, r2, r10
 602              		.loc 1 176 44 view .LVU263
 603 004c 3243     		orrs	r2, r2, r6
 604              		.loc 1 176 21 view .LVU264
 605 004e 4260     		str	r2, [r0, #4]
 606              		.loc 1 177 7 is_stmt 1 view .LVU265
 607              	.LVL19:
 608              		.loc 1 178 7 view .LVU266
 609              		.loc 1 178 28 is_stmt 0 view .LVU267
 610 0050 8268     		ldr	r2, [r0, #8]
 611              		.loc 1 177 14 view .LVU268
 612 0052 4FEA430A 		lsl	r10, r3, #1
 613 0056 0EFA0AFA 		lsl	r10, lr, r10
 614              		.loc 1 178 38 view .LVU269
 615 005a 22EA0A02 		bic	r2, r2, r10
 616              		.loc 1 178 45 view .LVU270
 617 005e 2A43     		orrs	r2, r2, r5
 618              		.loc 1 178 21 view .LVU271
 619 0060 8260     		str	r2, [r0, #8]
 620              		.loc 1 179 7 is_stmt 1 view .LVU272
 621              		.loc 1 179 28 is_stmt 0 view .LVU273
 622 0062 C268     		ldr	r2, [r0, #12]
 623              		.loc 1 179 36 view .LVU274
 624 0064 22EA0A02 		bic	r2, r2, r10
 625              		.loc 1 179 43 view .LVU275
 626 0068 2243     		orrs	r2, r2, r4
 627              		.loc 1 179 21 view .LVU276
ARM GAS  /tmp/ccz3UaWL.s 			page 12


 628 006a C260     		str	r2, [r0, #12]
 629              		.loc 1 180 7 is_stmt 1 view .LVU277
 630              		.loc 1 180 28 is_stmt 0 view .LVU278
 631 006c 0268     		ldr	r2, [r0]
 632              		.loc 1 180 36 view .LVU279
 633 006e 22EA0A02 		bic	r2, r2, r10
 634              		.loc 1 180 43 view .LVU280
 635 0072 3A43     		orrs	r2, r2, r7
 636              		.loc 1 180 21 view .LVU281
 637 0074 0260     		str	r2, [r0]
 638              	.LVL20:
 639              	.L9:
 640              		.loc 1 180 21 view .LVU282
 641              	.LBE43:
 642              		.loc 1 182 5 is_stmt 1 view .LVU283
 643              		.loc 1 183 5 view .LVU284
 644              		.loc 1 183 8 is_stmt 0 view .LVU285
 645 0076 4908     		lsrs	r1, r1, #1
 646              	.LVL21:
 647              		.loc 1 183 8 view .LVU286
 648 0078 17D0     		beq	.L18
 649              		.loc 1 185 5 is_stmt 1 view .LVU287
 650              		.loc 1 185 12 is_stmt 0 view .LVU288
 651 007a 7600     		lsls	r6, r6, #1
 652              	.LVL22:
 653              		.loc 1 186 5 is_stmt 1 view .LVU289
 654              		.loc 1 186 13 is_stmt 0 view .LVU290
 655 007c AD00     		lsls	r5, r5, #2
 656              	.LVL23:
 657              		.loc 1 187 5 is_stmt 1 view .LVU291
 658              		.loc 1 187 11 is_stmt 0 view .LVU292
 659 007e A400     		lsls	r4, r4, #2
 660              	.LVL24:
 661              		.loc 1 188 5 is_stmt 1 view .LVU293
 662              		.loc 1 188 11 is_stmt 0 view .LVU294
 663 0080 BF00     		lsls	r7, r7, #2
 664              	.LVL25:
 665              		.loc 1 189 5 is_stmt 1 view .LVU295
 666              		.loc 1 189 8 is_stmt 0 view .LVU296
 667 0082 0133     		adds	r3, r3, #1
 668              	.LVL26:
 669              		.loc 1 165 9 is_stmt 1 view .LVU297
 670              	.L13:
 671              		.loc 1 165 3 view .LVU298
 672              		.loc 1 166 5 view .LVU299
 673              		.loc 1 166 8 is_stmt 0 view .LVU300
 674 0084 CA07     		lsls	r2, r1, #31
 675 0086 F6D5     		bpl	.L9
 676              	.LBB44:
 677              		.loc 1 167 7 is_stmt 1 view .LVU301
 678              		.loc 1 169 7 view .LVU302
 679              		.loc 1 169 32 is_stmt 0 view .LVU303
 680 0088 03F00702 		and	r2, r3, #7
 681              		.loc 1 169 37 view .LVU304
 682 008c 9200     		lsls	r2, r2, #2
 683              		.loc 1 171 10 view .LVU305
 684 008e 072B     		cmp	r3, #7
ARM GAS  /tmp/ccz3UaWL.s 			page 13


 685              		.loc 1 169 16 view .LVU306
 686 0090 0CFA02FA 		lsl	r10, ip, r2
 687              	.LVL27:
 688              		.loc 1 170 7 is_stmt 1 view .LVU307
 689              		.loc 1 170 15 is_stmt 0 view .LVU308
 690 0094 09FA02F2 		lsl	r2, r9, r2
 691              	.LVL28:
 692              		.loc 1 171 7 is_stmt 1 view .LVU309
 693              		.loc 1 171 10 is_stmt 0 view .LVU310
 694 0098 CCD9     		bls	.L20
 695              		.loc 1 174 9 is_stmt 1 view .LVU311
 696              		.loc 1 174 27 is_stmt 0 view .LVU312
 697 009a D0F824B0 		ldr	fp, [r0, #36]
 698              		.loc 1 174 34 view .LVU313
 699 009e 2BEA0202 		bic	r2, fp, r2
 700              	.LVL29:
 701              		.loc 1 174 41 view .LVU314
 702 00a2 42EA0A02 		orr	r2, r2, r10
 703              		.loc 1 174 20 view .LVU315
 704 00a6 4262     		str	r2, [r0, #36]
 705 00a8 CBE7     		b	.L11
 706              	.LVL30:
 707              	.L18:
 708              		.loc 1 174 20 view .LVU316
 709              	.LBE44:
 710              		.loc 1 191 1 view .LVU317
 711 00aa 054B     		ldr	r3, .L22
 712              	.LVL31:
 713              		.loc 1 191 1 view .LVU318
 714 00ac 1A68     		ldr	r2, [r3]
 715 00ae 019B     		ldr	r3, [sp, #4]
 716 00b0 5A40     		eors	r2, r3, r2
 717 00b2 02D1     		bne	.L21
 718 00b4 03B0     		add	sp, sp, #12
 719              		.cfi_remember_state
 720              		.cfi_def_cfa_offset 36
 721              		@ sp needed
 722 00b6 BDE8F08F 		pop	{r4, r5, r6, r7, r8, r9, r10, fp, pc}
 723              	.LVL32:
 724              	.L21:
 725              		.cfi_restore_state
 726              		.loc 1 191 1 view .LVU319
 727 00ba FFF7FEFF 		bl	__stack_chk_fail
 728              	.LVL33:
 729              	.L23:
 730              		.loc 1 191 1 view .LVU320
 731 00be 00BF     		.align	2
 732              	.L22:
 733 00c0 00000000 		.word	.LC1
 734              		.cfi_endproc
 735              	.LFE258:
 736              		.size	_pal_lld_setgroupmode, .-_pal_lld_setgroupmode
 737              		.text
 738              	.Letext0:
 739              		.file 2 "/usr/lib/gcc/arm-none-eabi/9.2.1/include/stddef.h"
 740              		.file 3 "/usr/lib/gcc/arm-none-eabi/9.2.1/include/stdint.h"
 741              		.file 4 ".//ChibiOS//os/rt/ports/ARMCMx/compilers/GCC/chtypes.h"
ARM GAS  /tmp/ccz3UaWL.s 			page 14


 742              		.file 5 ".//ChibiOS//os/rt/include/chsystypes.h"
 743              		.file 6 ".//ChibiOS//os/rt/include/chschd.h"
 744              		.file 7 ".//ChibiOS//os/ext/CMSIS/include/core_cm4.h"
 745              		.file 8 ".//ChibiOS//os/ext/CMSIS/ST/system_stm32f4xx.h"
 746              		.file 9 ".//ChibiOS//os/ext/CMSIS/ST/stm32f407xx.h"
 747              		.file 10 ".//ChibiOS//os/rt/ports/ARMCMx/chcore.h"
 748              		.file 11 ".//ChibiOS//os/rt/ports/ARMCMx/chcore_v7m.h"
 749              		.file 12 ".//ChibiOS//os/rt/include/chdebug.h"
 750              		.file 13 ".//ChibiOS//os/rt/include/chtm.h"
 751              		.file 14 ".//ChibiOS//os/rt/include/chstats.h"
 752              		.file 15 ".//ChibiOS//os/rt/include/chsem.h"
 753              		.file 16 ".//ChibiOS//os/rt/include/chmtx.h"
 754              		.file 17 ".//ChibiOS//os/rt/include/chregistry.h"
 755              		.file 18 ".//ChibiOS//os/rt/include/chevents.h"
 756              		.file 19 ".//ChibiOS//os/rt/include/chqueues.h"
 757              		.file 20 ".//ChibiOS//os/hal/ports/STM32/STM32F4xx/stm32_dma.h"
 758              		.file 21 ".//ChibiOS//os/hal/include/hal_ioblock.h"
 759              		.file 22 ".//ChibiOS//os/hal/ports/STM32/LLD/GPIOv2/pal_lld.h"
 760              		.file 23 ".//ChibiOS//os/hal/include/adc.h"
 761              		.file 24 ".//ChibiOS//os/hal/ports/STM32/STM32F4xx/adc_lld.h"
 762              		.file 25 ".//ChibiOS//os/hal/include/can.h"
 763              		.file 26 ".//ChibiOS//os/hal/ports/STM32/LLD/can_lld.h"
 764              		.file 27 ".//ChibiOS//os/hal/include/dac.h"
 765              		.file 28 ".//ChibiOS//os/hal/ports/STM32/LLD/DACv1/dac_lld.h"
 766              		.file 29 ".//ChibiOS//os/hal/include/ext.h"
 767              		.file 30 ".//ChibiOS//os/hal/ports/STM32/LLD/ext_lld.h"
 768              		.file 31 ".//ChibiOS//os/hal/include/gpt.h"
 769              		.file 32 ".//ChibiOS//os/hal/ports/STM32/LLD/TIMv1/gpt_lld.h"
 770              		.file 33 ".//ChibiOS//os/hal/ports/STM32/LLD/TIMv1/stm32_tim.h"
 771              		.file 34 ".//ChibiOS//os/hal/include/i2c.h"
 772              		.file 35 ".//ChibiOS//os/hal/ports/STM32/LLD/I2Cv1/i2c_lld.h"
 773              		.file 36 ".//ChibiOS//os/hal/include/i2s.h"
 774              		.file 37 ".//ChibiOS//os/hal/ports/STM32/LLD/SPIv1/i2s_lld.h"
 775              		.file 38 ".//ChibiOS//os/hal/include/pwm.h"
 776              		.file 39 ".//ChibiOS//os/hal/ports/STM32/LLD/TIMv1/pwm_lld.h"
 777              		.file 40 ".//ChibiOS//os/hal/include/serial.h"
 778              		.file 41 ".//ChibiOS//os/hal/ports/STM32/LLD/USARTv1/serial_lld.h"
 779              		.file 42 ".//ChibiOS//os/hal/include/sdc.h"
 780              		.file 43 ".//ChibiOS//os/hal/ports/STM32/LLD/sdc_lld.h"
 781              		.file 44 ".//ChibiOS//os/hal/include/spi.h"
 782              		.file 45 ".//ChibiOS//os/hal/ports/STM32/LLD/SPIv1/spi_lld.h"
 783              		.file 46 ".//ChibiOS//os/hal/include/usb.h"
 784              		.file 47 ".//ChibiOS//os/hal/ports/STM32/LLD/OTGv1/usb_lld.h"
 785              		.file 48 ".//ChibiOS//os/hal/ports/STM32/LLD/OTGv1/stm32_otg.h"