ARM GAS  /tmp/ccHALXLw.s 			page 1


   1              		.cpu cortex-m4
   2              		.eabi_attribute 27, 1
   3              		.eabi_attribute 28, 1
   4              		.eabi_attribute 20, 1
   5              		.eabi_attribute 21, 1
   6              		.eabi_attribute 23, 3
   7              		.eabi_attribute 24, 1
   8              		.eabi_attribute 25, 1
   9              		.eabi_attribute 26, 1
  10              		.eabi_attribute 30, 2
  11              		.eabi_attribute 34, 1
  12              		.eabi_attribute 18, 4
  13              		.file	"parameter_msgpack.c"
  14              		.text
  15              	.Ltext0:
  16              		.cfi_sections	.debug_frame
  17              		.section	.rodata.err_ignore_cb.cst4,"aM",%progbits,4
  18              		.align	2
  19              	.LC0:
  20 0000 00000000 		.word	__stack_chk_guard
  21              		.section	.text.err_ignore_cb,"ax",%progbits
  22              		.align	1
  23              		.p2align 4,,15
  24              		.arch armv7e-m
  25              		.syntax unified
  26              		.thumb
  27              		.thumb_func
  28              		.fpu fpv4-sp-d16
  29              		.type	err_ignore_cb, %function
  30              	err_ignore_cb:
  31              	.LVL0:
  32              	.LFB263:
  33              		.file 1 ".//src/parameter/parameter_msgpack.c"
  34              		.loc 1 372 1 view -0
  35              		.cfi_startproc
  36              		@ args = 0, pretend = 0, frame = 8
  37              		@ frame_needed = 0, uses_anonymous_args = 0
  38              		.loc 1 372 1 is_stmt 0 view .LVU1
  39 0000 00B5     		push	{lr}
  40              		.cfi_def_cfa_offset 4
  41              		.cfi_offset 14, -4
  42 0002 084B     		ldr	r3, .L6
  43 0004 83B0     		sub	sp, sp, #12
  44              		.cfi_def_cfa_offset 16
  45              		.loc 1 372 1 view .LVU2
  46 0006 1B68     		ldr	r3, [r3]
  47 0008 0193     		str	r3, [sp, #4]
  48 000a 4FF00003 		mov	r3,#0
  49              		.loc 1 373 5 is_stmt 1 view .LVU3
  50              		.loc 1 374 5 view .LVU4
  51              		.loc 1 375 5 view .LVU5
  52              		.loc 1 376 1 is_stmt 0 view .LVU6
  53 000e 054B     		ldr	r3, .L6
  54 0010 1A68     		ldr	r2, [r3]
  55 0012 019B     		ldr	r3, [sp, #4]
  56 0014 5A40     		eors	r2, r3, r2
  57              	.LVL1:
ARM GAS  /tmp/ccHALXLw.s 			page 2


  58              		.loc 1 376 1 view .LVU7
  59 0016 02D1     		bne	.L5
  60 0018 03B0     		add	sp, sp, #12
  61              		.cfi_remember_state
  62              		.cfi_def_cfa_offset 4
  63              		@ sp needed
  64 001a 5DF804FB 		ldr	pc, [sp], #4
  65              	.L5:
  66              		.cfi_restore_state
  67 001e FFF7FEFF 		bl	__stack_chk_fail
  68              	.LVL2:
  69              	.L7:
  70              		.loc 1 376 1 view .LVU8
  71 0022 00BF     		.align	2
  72              	.L6:
  73 0024 00000000 		.word	.LC0
  74              		.cfi_endproc
  75              	.LFE263:
  76              		.size	err_ignore_cb, .-err_ignore_cb
  77              		.section	.rodata.discard_msgpack_element.isra.0.str1.4,"aMS",%progbits,1
  78              		.align	2
  79              	.LC1:
  80 0000 64697363 		.ascii	"discarding failed\000"
  80      61726469 
  80      6E672066 
  80      61696C65 
  80      6400
  81              		.section	.rodata.discard_msgpack_element.isra.0.cst4,"aM",%progbits,4
  82              		.align	2
  83              	.LC2:
  84 0000 00000000 		.word	__stack_chk_guard
  85              		.section	.text.discard_msgpack_element.isra.0,"ax",%progbits
  86              		.align	1
  87              		.p2align 4,,15
  88              		.syntax unified
  89              		.thumb
  90              		.thumb_func
  91              		.fpu fpv4-sp-d16
  92              		.type	discard_msgpack_element.isra.0, %function
  93              	discard_msgpack_element.isra.0:
  94              	.LVL3:
  95              	.LFB269:
  96              		.loc 1 7 12 is_stmt 1 view -0
  97              		.cfi_startproc
  98              		@ args = 0, pretend = 0, frame = 8
  99              		@ frame_needed = 0, uses_anonymous_args = 0
 100              		.loc 1 7 12 is_stmt 0 view .LVU10
 101 0000 10B5     		push	{r4, lr}
 102              		.cfi_def_cfa_offset 8
 103              		.cfi_offset 4, -8
 104              		.cfi_offset 14, -4
 105 0002 0C46     		mov	r4, r1
 106 0004 1649     		ldr	r1, .L16
 107              	.LVL4:
 108              		.loc 1 7 12 view .LVU11
 109 0006 82B0     		sub	sp, sp, #8
 110              		.cfi_def_cfa_offset 16
ARM GAS  /tmp/ccHALXLw.s 			page 3


 111              		.loc 1 7 12 view .LVU12
 112 0008 0968     		ldr	r1, [r1]
 113 000a 0191     		str	r1, [sp, #4]
 114 000c 4FF00001 		mov	r1,#0
 115              	.LVL5:
 116              		.loc 1 13 5 is_stmt 1 view .LVU13
 117              		.loc 1 14 5 view .LVU14
 118 0010 2228     		cmp	r0, #34
 119 0012 1BD8     		bhi	.L9
 120 0014 DFE800F0 		tbb	[pc, r0]
 121              	.L11:
 122 0018 12       		.byte	(.L13-.L11)/2
 123 0019 1A       		.byte	(.L9-.L11)/2
 124 001a 1A       		.byte	(.L9-.L11)/2
 125 001b 1A       		.byte	(.L9-.L11)/2
 126 001c 12       		.byte	(.L13-.L11)/2
 127 001d 12       		.byte	(.L13-.L11)/2
 128 001e 1A       		.byte	(.L9-.L11)/2
 129 001f 1A       		.byte	(.L9-.L11)/2
 130 0020 1A       		.byte	(.L9-.L11)/2
 131 0021 1A       		.byte	(.L9-.L11)/2
 132 0022 1A       		.byte	(.L9-.L11)/2
 133 0023 1A       		.byte	(.L9-.L11)/2
 134 0024 12       		.byte	(.L13-.L11)/2
 135 0025 12       		.byte	(.L13-.L11)/2
 136 0026 12       		.byte	(.L13-.L11)/2
 137 0027 12       		.byte	(.L13-.L11)/2
 138 0028 12       		.byte	(.L13-.L11)/2
 139 0029 12       		.byte	(.L13-.L11)/2
 140 002a 12       		.byte	(.L13-.L11)/2
 141 002b 12       		.byte	(.L13-.L11)/2
 142 002c 12       		.byte	(.L13-.L11)/2
 143 002d 12       		.byte	(.L13-.L11)/2
 144 002e 1A       		.byte	(.L9-.L11)/2
 145 002f 1A       		.byte	(.L9-.L11)/2
 146 0030 1A       		.byte	(.L9-.L11)/2
 147 0031 1A       		.byte	(.L9-.L11)/2
 148 0032 1A       		.byte	(.L9-.L11)/2
 149 0033 1A       		.byte	(.L9-.L11)/2
 150 0034 1A       		.byte	(.L9-.L11)/2
 151 0035 1A       		.byte	(.L9-.L11)/2
 152 0036 1A       		.byte	(.L9-.L11)/2
 153 0037 1A       		.byte	(.L9-.L11)/2
 154 0038 1A       		.byte	(.L9-.L11)/2
 155 0039 1A       		.byte	(.L9-.L11)/2
 156 003a 12       		.byte	(.L13-.L11)/2
 157 003b 00       		.p2align 1
 158              	.L13:
 159              	.LBB34:
 160              	.LBB35:
 161              		.loc 1 32 9 is_stmt 0 view .LVU15
 162 003c 0020     		movs	r0, #0
 163              	.LVL6:
 164              	.L8:
 165              		.loc 1 32 9 view .LVU16
 166              	.LBE35:
 167              	.LBE34:
ARM GAS  /tmp/ccHALXLw.s 			page 4


 168              		.loc 1 35 1 view .LVU17
 169 003e 084B     		ldr	r3, .L16
 170 0040 1A68     		ldr	r2, [r3]
 171 0042 019B     		ldr	r3, [sp, #4]
 172 0044 5A40     		eors	r2, r3, r2
 173 0046 08D1     		bne	.L15
 174 0048 02B0     		add	sp, sp, #8
 175              		.cfi_remember_state
 176              		.cfi_def_cfa_offset 8
 177              		@ sp needed
 178 004a 10BD     		pop	{r4, pc}
 179              	.LVL7:
 180              	.L9:
 181              		.cfi_restore_state
 182              	.LBB37:
 183              	.LBI34:
 184              		.loc 1 7 12 is_stmt 1 view .LVU18
 185              	.LBB36:
 186              		.loc 1 32 9 view .LVU19
 187 004c 1046     		mov	r0, r2
 188 004e 1946     		mov	r1, r3
 189 0050 044A     		ldr	r2, .L16+4
 190              	.LVL8:
 191              		.loc 1 32 9 is_stmt 0 view .LVU20
 192 0052 A047     		blx	r4
 193              	.LVL9:
 194              		.loc 1 33 9 is_stmt 1 view .LVU21
 195              		.loc 1 32 9 is_stmt 0 view .LVU22
 196 0054 4FF0FF30 		mov	r0, #-1
 197 0058 F1E7     		b	.L8
 198              	.L15:
 199              		.loc 1 32 9 view .LVU23
 200              	.LBE36:
 201              	.LBE37:
 202              		.loc 1 35 1 view .LVU24
 203 005a FFF7FEFF 		bl	__stack_chk_fail
 204              	.LVL10:
 205              	.L17:
 206 005e 00BF     		.align	2
 207              	.L16:
 208 0060 00000000 		.word	.LC2
 209 0064 00000000 		.word	.LC1
 210              		.cfi_endproc
 211              	.LFE269:
 212              		.size	discard_msgpack_element.isra.0, .-discard_msgpack_element.isra.0
 213              		.global	__aeabi_l2f
 214              		.section	.rodata.get_float.cst4,"aM",%progbits,4
 215              		.align	2
 216              	.LC3:
 217 0000 00000000 		.word	__stack_chk_guard
 218              		.section	.text.get_float,"ax",%progbits
 219              		.align	1
 220              		.p2align 4,,15
 221              		.syntax unified
 222              		.thumb
 223              		.thumb_func
 224              		.fpu fpv4-sp-d16
ARM GAS  /tmp/ccHALXLw.s 			page 5


 225              		.type	get_float, %function
 226              	get_float:
 227              	.LVL11:
 228              	.LFB251:
 229              		.loc 1 39 1 is_stmt 1 view -0
 230              		.cfi_startproc
 231              		@ args = 0, pretend = 0, frame = 24
 232              		@ frame_needed = 0, uses_anonymous_args = 0
 233              		.loc 1 39 1 is_stmt 0 view .LVU26
 234 0000 70B5     		push	{r4, r5, r6, lr}
 235              		.cfi_def_cfa_offset 16
 236              		.cfi_offset 4, -16
 237              		.cfi_offset 5, -12
 238              		.cfi_offset 6, -8
 239              		.cfi_offset 14, -4
 240 0002 134B     		ldr	r3, .L28
 241 0004 86B0     		sub	sp, sp, #24
 242              		.cfi_def_cfa_offset 40
 243              		.loc 1 39 1 view .LVU27
 244 0006 0D46     		mov	r5, r1
 245              		.loc 1 42 9 view .LVU28
 246 0008 01A9     		add	r1, sp, #4
 247              	.LVL12:
 248              		.loc 1 39 1 view .LVU29
 249 000a 1B68     		ldr	r3, [r3]
 250 000c 0593     		str	r3, [sp, #20]
 251 000e 4FF00003 		mov	r3,#0
 252              		.loc 1 40 5 is_stmt 1 view .LVU30
 253              		.loc 1 41 5 view .LVU31
 254              		.loc 1 42 5 view .LVU32
 255              		.loc 1 39 1 is_stmt 0 view .LVU33
 256 0012 0646     		mov	r6, r0
 257              		.loc 1 42 9 view .LVU34
 258 0014 FFF7FEFF 		bl	cmp_object_as_float
 259              	.LVL13:
 260              		.loc 1 42 8 view .LVU35
 261 0018 50B1     		cbz	r0, .L19
 262              		.loc 1 43 14 view .LVU36
 263 001a 019B     		ldr	r3, [sp, #4]	@ float
 264 001c 2B60     		str	r3, [r5]	@ float
 265 001e 0446     		mov	r4, r0
 266              		.loc 1 43 9 is_stmt 1 view .LVU37
 267              		.loc 1 44 9 view .LVU38
 268              	.L20:
 269              		.loc 1 50 1 is_stmt 0 view .LVU39
 270 0020 0B4B     		ldr	r3, .L28
 271 0022 1A68     		ldr	r2, [r3]
 272 0024 059B     		ldr	r3, [sp, #20]
 273 0026 5A40     		eors	r2, r3, r2
 274 0028 0FD1     		bne	.L27
 275 002a 2046     		mov	r0, r4
 276 002c 06B0     		add	sp, sp, #24
 277              		.cfi_remember_state
 278              		.cfi_def_cfa_offset 16
 279              		@ sp needed
 280 002e 70BD     		pop	{r4, r5, r6, pc}
 281              	.LVL14:
ARM GAS  /tmp/ccHALXLw.s 			page 6


 282              	.L19:
 283              		.cfi_restore_state
 284              	.LBB40:
 285              	.LBI40:
 286              		.loc 1 38 13 is_stmt 1 view .LVU40
 287              	.LBB41:
 288              		.loc 1 45 12 view .LVU41
 289              		.loc 1 45 16 is_stmt 0 view .LVU42
 290 0030 3046     		mov	r0, r6
 291 0032 02A9     		add	r1, sp, #8
 292 0034 FFF7FEFF 		bl	cmp_object_as_sinteger
 293              	.LVL15:
 294              		.loc 1 45 15 view .LVU43
 295 0038 0446     		mov	r4, r0
 296 003a 0028     		cmp	r0, #0
 297 003c F0D0     		beq	.L20
 298              		.loc 1 46 9 is_stmt 1 view .LVU44
 299              		.loc 1 46 14 is_stmt 0 view .LVU45
 300 003e DDE90201 		ldrd	r0, [sp, #8]
 301 0042 FFF7FEFF 		bl	__aeabi_l2f
 302              	.LVL16:
 303 0046 2860     		str	r0, [r5]	@ float
 304              		.loc 1 47 9 is_stmt 1 view .LVU46
 305              	.LVL17:
 306              		.loc 1 47 16 is_stmt 0 view .LVU47
 307 0048 EAE7     		b	.L20
 308              	.L27:
 309              		.loc 1 47 16 view .LVU48
 310              	.LBE41:
 311              	.LBE40:
 312              		.loc 1 50 1 view .LVU49
 313 004a FFF7FEFF 		bl	__stack_chk_fail
 314              	.LVL18:
 315              	.L29:
 316 004e 00BF     		.align	2
 317              	.L28:
 318 0050 00000000 		.word	.LC3
 319              		.cfi_endproc
 320              	.LFE251:
 321              		.size	get_float, .-get_float
 322              		.section	.rodata.get_vector.str1.4,"aMS",%progbits,1
 323              		.align	2
 324              	.LC4:
 325 0000 636F756C 		.ascii	"could not read object\000"
 325      64206E6F 
 325      74207265 
 325      6164206F 
 325      626A6563 
 326 0016 0000     		.align	2
 327              	.LC5:
 328 0018 7761726E 		.ascii	"warning: type mismatch\000"
 328      696E673A 
 328      20747970 
 328      65206D69 
 328      736D6174 
 329              		.section	.rodata.get_vector.cst4,"aM",%progbits,4
 330              		.align	2
ARM GAS  /tmp/ccHALXLw.s 			page 7


 331              	.LC6:
 332 0000 00000000 		.word	__stack_chk_guard
 333              		.section	.text.get_vector,"ax",%progbits
 334              		.align	1
 335              		.p2align 4,,15
 336              		.syntax unified
 337              		.thumb
 338              		.thumb_func
 339              		.fpu fpv4-sp-d16
 340              		.type	get_vector, %function
 341              	get_vector:
 342              	.LVL19:
 343              	.LFB254:
 344              		.loc 1 74 1 is_stmt 1 view -0
 345              		.cfi_startproc
 346              		@ args = 8, pretend = 0, frame = 40
 347              		@ frame_needed = 0, uses_anonymous_args = 0
 348              		.loc 1 74 1 is_stmt 0 view .LVU51
 349 0000 2DE9F04F 		push	{r4, r5, r6, r7, r8, r9, r10, fp, lr}
 350              		.cfi_def_cfa_offset 36
 351              		.cfi_offset 4, -36
 352              		.cfi_offset 5, -32
 353              		.cfi_offset 6, -28
 354              		.cfi_offset 7, -24
 355              		.cfi_offset 8, -20
 356              		.cfi_offset 9, -16
 357              		.cfi_offset 10, -12
 358              		.cfi_offset 11, -8
 359              		.cfi_offset 14, -4
 360 0004 8BB0     		sub	sp, sp, #44
 361              		.cfi_def_cfa_offset 80
 362              		.loc 1 74 1 view .LVU52
 363 0006 1F46     		mov	r7, r3
 364 0008 244B     		ldr	r3, .L47
 365              	.LVL20:
 366              		.loc 1 74 1 view .LVU53
 367 000a 0191     		str	r1, [sp, #4]
 368              		.loc 1 77 5 view .LVU54
 369 000c B2F10008 		subs	r8, r2, #0
 370              		.loc 1 74 1 view .LVU55
 371 0010 DDE9149A 		ldrd	r9, r10, [sp, #80]
 372 0014 1B68     		ldr	r3, [r3]
 373 0016 0993     		str	r3, [sp, #36]
 374 0018 4FF00003 		mov	r3,#0
 375              		.loc 1 75 5 is_stmt 1 view .LVU56
 376              	.LVL21:
 377              		.loc 1 76 5 view .LVU57
 378              		.loc 1 77 5 view .LVU58
 379              		.loc 1 77 17 view .LVU59
 380              		.loc 1 77 5 is_stmt 0 view .LVU60
 381 001c 39DD     		ble	.L40
 382              		.loc 1 77 12 view .LVU61
 383 001e 0026     		movs	r6, #0
 384 0020 8346     		mov	fp, r0
 385              		.loc 1 75 10 view .LVU62
 386 0022 3446     		mov	r4, r6
 387 0024 0BE0     		b	.L37
ARM GAS  /tmp/ccHALXLw.s 			page 8


 388              	.LVL22:
 389              	.L34:
 390              	.LBB42:
 391              	.LBB43:
 392              		.loc 1 91 13 is_stmt 1 view .LVU63
 393              		.loc 1 91 23 is_stmt 0 view .LVU64
 394 0026 9DF81000 		ldrb	r0, [sp, #16]	@ zero_extendqisi2
 395 002a 5346     		mov	r3, r10
 396 002c 4A46     		mov	r2, r9
 397 002e 3946     		mov	r1, r7
 398 0030 FFF7FEFF 		bl	discard_msgpack_element.isra.0
 399              	.LVL23:
 400              		.loc 1 92 13 is_stmt 1 view .LVU65
 401              		.loc 1 92 16 is_stmt 0 view .LVU66
 402 0034 C8B9     		cbnz	r0, .L30
 403              	.LBE43:
 404              	.LBE42:
 405              		.loc 1 77 27 view .LVU67
 406 0036 0136     		adds	r6, r6, #1
 407              	.LVL24:
 408              		.loc 1 77 5 view .LVU68
 409 0038 B045     		cmp	r8, r6
 410              	.LBB46:
 411              	.LBB44:
 412 003a 2C46     		mov	r4, r5
 413              	.LVL25:
 414              		.loc 1 77 5 view .LVU69
 415              	.LBE44:
 416              	.LBE46:
 417              		.loc 1 77 26 is_stmt 1 view .LVU70
 418              		.loc 1 77 17 view .LVU71
 419              		.loc 1 77 5 is_stmt 0 view .LVU72
 420 003c 14D0     		beq	.L44
 421              	.LVL26:
 422              	.L37:
 423              	.LBB47:
 424              		.loc 1 78 9 is_stmt 1 view .LVU73
 425              		.loc 1 79 9 view .LVU74
 426              		.loc 1 79 14 is_stmt 0 view .LVU75
 427 003e 04A9     		add	r1, sp, #16
 428 0040 5846     		mov	r0, fp
 429 0042 FFF7FEFF 		bl	cmp_read_object
 430              	.LVL27:
 431              		.loc 1 79 12 view .LVU76
 432 0046 0546     		mov	r5, r0
 433 0048 E0B1     		cbz	r0, .L45
 434              		.loc 1 83 9 is_stmt 1 view .LVU77
 435              		.loc 1 84 9 view .LVU78
 436              		.loc 1 84 12 is_stmt 0 view .LVU79
 437 004a 002C     		cmp	r4, #0
 438 004c EBD1     		bne	.L34
 439              		.loc 1 84 21 discriminator 1 view .LVU80
 440 004e 03A9     		add	r1, sp, #12
 441 0050 04A8     		add	r0, sp, #16
 442 0052 FFF7FEFF 		bl	get_float
 443              	.LVL28:
 444              		.loc 1 84 18 discriminator 1 view .LVU81
ARM GAS  /tmp/ccHALXLw.s 			page 9


 445 0056 80B1     		cbz	r0, .L35
 446              		.loc 1 85 13 is_stmt 1 view .LVU82
 447              		.loc 1 85 20 is_stmt 0 view .LVU83
 448 0058 019B     		ldr	r3, [sp, #4]
 449 005a 039A     		ldr	r2, [sp, #12]	@ float
 450 005c 03EB8603 		add	r3, r3, r6, lsl #2
 451              	.LBE47:
 452              		.loc 1 77 27 view .LVU84
 453 0060 0136     		adds	r6, r6, #1
 454              	.LVL29:
 455              		.loc 1 77 5 view .LVU85
 456 0062 B045     		cmp	r8, r6
 457              	.LBB48:
 458              		.loc 1 85 20 view .LVU86
 459 0064 1A60     		str	r2, [r3]	@ float
 460              		.loc 1 85 20 view .LVU87
 461              	.LBE48:
 462              		.loc 1 77 26 is_stmt 1 view .LVU88
 463              	.LVL30:
 464              		.loc 1 77 17 view .LVU89
 465              		.loc 1 77 5 is_stmt 0 view .LVU90
 466 0066 EAD1     		bne	.L37
 467              	.L44:
 468              		.loc 1 77 5 view .LVU91
 469 0068 6042     		rsbs	r0, r4, #0
 470              	.LVL31:
 471              	.L30:
 472              		.loc 1 102 1 view .LVU92
 473 006a 0C4B     		ldr	r3, .L47
 474 006c 1A68     		ldr	r2, [r3]
 475 006e 099B     		ldr	r3, [sp, #36]
 476 0070 5A40     		eors	r2, r3, r2
 477 0072 10D1     		bne	.L46
 478 0074 0BB0     		add	sp, sp, #44
 479              		.cfi_remember_state
 480              		.cfi_def_cfa_offset 36
 481              		@ sp needed
 482 0076 BDE8F08F 		pop	{r4, r5, r6, r7, r8, r9, r10, fp, pc}
 483              	.LVL32:
 484              	.L35:
 485              		.cfi_restore_state
 486              	.LBB49:
 487              	.LBB45:
 488              		.loc 1 87 13 is_stmt 1 view .LVU93
 489              		.loc 1 88 17 view .LVU94
 490              		.loc 1 89 17 view .LVU95
 491 007a 094A     		ldr	r2, .L47+4
 492 007c 5146     		mov	r1, r10
 493 007e 4846     		mov	r0, r9
 494 0080 B847     		blx	r7
 495              	.LVL33:
 496 0082 D0E7     		b	.L34
 497              	.LVL34:
 498              	.L45:
 499              		.loc 1 89 17 is_stmt 0 view .LVU96
 500              	.LBE45:
 501              		.loc 1 80 13 is_stmt 1 view .LVU97
ARM GAS  /tmp/ccHALXLw.s 			page 10


 502 0084 4846     		mov	r0, r9
 503 0086 074A     		ldr	r2, .L47+8
 504 0088 5146     		mov	r1, r10
 505 008a B847     		blx	r7
 506              	.LVL35:
 507              		.loc 1 81 13 view .LVU98
 508              		.loc 1 81 20 is_stmt 0 view .LVU99
 509 008c 4FF0FF30 		mov	r0, #-1
 510 0090 EBE7     		b	.L30
 511              	.LVL36:
 512              	.L40:
 513              		.loc 1 81 20 view .LVU100
 514              	.LBE49:
 515              		.loc 1 77 5 view .LVU101
 516 0092 0020     		movs	r0, #0
 517              	.LVL37:
 518              		.loc 1 97 5 is_stmt 1 view .LVU102
 519 0094 E9E7     		b	.L30
 520              	.LVL38:
 521              	.L46:
 522              		.loc 1 102 1 is_stmt 0 view .LVU103
 523 0096 FFF7FEFF 		bl	__stack_chk_fail
 524              	.LVL39:
 525              	.L48:
 526 009a 00BF     		.align	2
 527              	.L47:
 528 009c 00000000 		.word	.LC6
 529 00a0 18000000 		.word	.LC5
 530 00a4 00000000 		.word	.LC4
 531              		.cfi_endproc
 532              	.LFE254:
 533              		.size	get_vector, .-get_vector
 534              		.section	.rodata.read_namespace.str1.4,"aMS",%progbits,1
 535              		.align	2
 536              	.LC7:
 537 0000 636F756C 		.ascii	"could not read id\000"
 537      64206E6F 
 537      74207265 
 537      61642069 
 537      6400
 538 0012 0000     		.align	2
 539              	.LC8:
 540 0014 616C6C6F 		.ascii	"allocation failed\000"
 540      63617469 
 540      6F6E2066 
 540      61696C65 
 540      6400
 541 0026 0000     		.align	2
 542              	.LC9:
 543 0028 636F756C 		.ascii	"could not read value\000"
 543      64206E6F 
 543      74207265 
 543      61642076 
 543      616C7565 
 544 003d 000000   		.align	2
 545              	.LC10:
 546 0040 7761726E 		.ascii	"warning: namespace doesn't exist\000"
ARM GAS  /tmp/ccHALXLw.s 			page 11


 546      696E673A 
 546      206E616D 
 546      65737061 
 546      63652064 
 547 0061 000000   		.align	2
 548              	.LC11:
 549 0064 7761726E 		.ascii	"warning: parameter doesn't exist\000"
 549      696E673A 
 549      20706172 
 549      616D6574 
 549      65722064 
 550 0085 000000   		.align	2
 551              	.LC12:
 552 0088 7761726E 		.ascii	"warning: wrong vector dimension\000"
 552      696E673A 
 552      2077726F 
 552      6E672076 
 552      6563746F 
 553              		.align	2
 554              	.LC13:
 555 00a8 7761726E 		.ascii	"warning: allocation failed\000"
 555      696E673A 
 555      20616C6C 
 555      6F636174 
 555      696F6E20 
 556 00c3 00       		.align	2
 557              	.LC14:
 558 00c4 7761726E 		.ascii	"warning: vector dimension too big\000"
 558      696E673A 
 558      20766563 
 558      746F7220 
 558      64696D65 
 559 00e6 0000     		.align	2
 560              	.LC15:
 561 00e8 7761726E 		.ascii	"warning: string is too long\000"
 561      696E673A 
 561      20737472 
 561      696E6720 
 561      69732074 
 562              		.align	2
 563              	.LC16:
 564 0104 72656164 		.ascii	"read error\000"
 564      20657272 
 564      6F7200
 565 010f 00       		.align	2
 566              	.LC17:
 567 0110 544F444F 		.ascii	"TODO not implemented yet\000"
 567      206E6F74 
 567      20696D70 
 567      6C656D65 
 567      6E746564 
 568              		.section	.rodata.read_namespace.cst4,"aM",%progbits,4
 569              		.align	2
 570              	.LC18:
 571 0000 00000000 		.word	__stack_chk_guard
 572              		.section	.text.read_namespace,"ax",%progbits
 573              		.align	1
ARM GAS  /tmp/ccHALXLw.s 			page 12


 574              		.p2align 4,,15
 575              		.syntax unified
 576              		.thumb
 577              		.thumb_func
 578              		.fpu fpv4-sp-d16
 579              		.type	read_namespace, %function
 580              	read_namespace:
 581              	.LVL40:
 582              	.LFB262:
 583              		.loc 1 303 1 is_stmt 1 view -0
 584              		.cfi_startproc
 585              		@ args = 4, pretend = 0, frame = 40
 586              		@ frame_needed = 0, uses_anonymous_args = 0
 587              		.loc 1 303 1 is_stmt 0 view .LVU105
 588 0000 2DE9F04F 		push	{r4, r5, r6, r7, r8, r9, r10, fp, lr}
 589              		.cfi_def_cfa_offset 36
 590              		.cfi_offset 4, -36
 591              		.cfi_offset 5, -32
 592              		.cfi_offset 6, -28
 593              		.cfi_offset 7, -24
 594              		.cfi_offset 8, -20
 595              		.cfi_offset 9, -16
 596              		.cfi_offset 10, -12
 597              		.cfi_offset 11, -8
 598              		.cfi_offset 14, -4
 599 0004 9846     		mov	r8, r3
 600 0006 8DB0     		sub	sp, sp, #52
 601              		.cfi_def_cfa_offset 88
 602              		.loc 1 303 1 view .LVU106
 603 0008 AF4B     		ldr	r3, .L123
 604              	.LVL41:
 605              		.loc 1 303 1 view .LVU107
 606 000a DDF85890 		ldr	r9, [sp, #88]
 607 000e 1B68     		ldr	r3, [r3]
 608 0010 0B93     		str	r3, [sp, #44]
 609 0012 4FF00003 		mov	r3,#0
 610              		.loc 1 304 5 is_stmt 1 view .LVU108
 611              		.loc 1 305 5 view .LVU109
 612              	.LVL42:
 613              		.loc 1 305 17 view .LVU110
 614              		.loc 1 305 5 is_stmt 0 view .LVU111
 615 0016 0029     		cmp	r1, #0
 616 0018 42D0     		beq	.L90
 617 001a 8346     		mov	fp, r0
 618 001c 1546     		mov	r5, r2
 619 001e 8A46     		mov	r10, r1
 620              		.loc 1 305 12 view .LVU112
 621 0020 0026     		movs	r6, #0
 622              	.LVL43:
 623              	.L50:
 624              	.LBB86:
 625              		.loc 1 306 9 is_stmt 1 view .LVU113
 626              		.loc 1 307 9 view .LVU114
 627              		.loc 1 307 14 is_stmt 0 view .LVU115
 628 0022 04A9     		add	r1, sp, #16
 629 0024 2846     		mov	r0, r5
 630 0026 FFF7FEFF 		bl	cmp_read_str_size
ARM GAS  /tmp/ccHALXLw.s 			page 13


 631              	.LVL44:
 632              		.loc 1 307 12 view .LVU116
 633 002a 0028     		cmp	r0, #0
 634 002c 00F02381 		beq	.L111
 635              		.loc 1 311 9 is_stmt 1 view .LVU117
 636              		.loc 1 311 20 is_stmt 0 view .LVU118
 637 0030 049F     		ldr	r7, [sp, #16]
 638 0032 781C     		adds	r0, r7, #1
 639 0034 FFF7FEFF 		bl	malloc
 640              	.LVL45:
 641              		.loc 1 312 9 is_stmt 1 view .LVU119
 642              		.loc 1 312 12 is_stmt 0 view .LVU120
 643 0038 0446     		mov	r4, r0
 644 003a 0028     		cmp	r0, #0
 645 003c 00F07181 		beq	.L112
 646              		.loc 1 317 9 is_stmt 1 view .LVU121
 647              		.loc 1 317 14 is_stmt 0 view .LVU122
 648 0040 0146     		mov	r1, r0
 649 0042 AB68     		ldr	r3, [r5, #8]
 650 0044 3A46     		mov	r2, r7
 651 0046 2846     		mov	r0, r5
 652              	.LVL46:
 653              		.loc 1 317 14 view .LVU123
 654 0048 9847     		blx	r3
 655              	.LVL47:
 656              		.loc 1 317 12 view .LVU124
 657 004a 0028     		cmp	r0, #0
 658 004c 00F03281 		beq	.L113
 659              		.loc 1 322 9 is_stmt 1 view .LVU125
 660              		.loc 1 322 21 is_stmt 0 view .LVU126
 661 0050 049B     		ldr	r3, [sp, #16]
 662 0052 0022     		movs	r2, #0
 663 0054 E254     		strb	r2, [r4, r3]
 664              		.loc 1 323 9 is_stmt 1 view .LVU127
 665              		.loc 1 324 9 view .LVU128
 666              		.loc 1 324 14 is_stmt 0 view .LVU129
 667 0056 06A9     		add	r1, sp, #24
 668 0058 2846     		mov	r0, r5
 669 005a FFF7FEFF 		bl	cmp_read_object
 670              	.LVL48:
 671              		.loc 1 324 12 view .LVU130
 672 005e 0028     		cmp	r0, #0
 673 0060 00F04281 		beq	.L114
 674              		.loc 1 329 9 is_stmt 1 view .LVU131
 675              		.loc 1 329 13 is_stmt 0 view .LVU132
 676 0064 06A8     		add	r0, sp, #24
 677 0066 FFF7FEFF 		bl	cmp_object_is_map
 678              	.LVL49:
 679              	.LBB87:
 680              		.loc 1 330 42 view .LVU133
 681 006a 049A     		ldr	r2, [sp, #16]
 682 006c 2146     		mov	r1, r4
 683              	.LBE87:
 684              		.loc 1 329 12 view .LVU134
 685 006e C8B1     		cbz	r0, .L57
 686              	.LBB89:
 687              		.loc 1 330 13 is_stmt 1 view .LVU135
ARM GAS  /tmp/ccHALXLw.s 			page 14


 688              		.loc 1 330 42 is_stmt 0 view .LVU136
 689 0070 5846     		mov	r0, fp
 690 0072 FFF7FEFF 		bl	_parameter_namespace_find_w_id_len
 691              	.LVL50:
 692              		.loc 1 331 13 is_stmt 1 view .LVU137
 693              		.loc 1 331 16 is_stmt 0 view .LVU138
 694 0076 0746     		mov	r7, r0
 695 0078 48B3     		cbz	r0, .L115
 696              		.loc 1 334 13 is_stmt 1 view .LVU139
 697 007a 2046     		mov	r0, r4
 698              	.LVL51:
 699              		.loc 1 334 13 is_stmt 0 view .LVU140
 700 007c FFF7FEFF 		bl	free
 701              	.LVL52:
 702              		.loc 1 335 13 is_stmt 1 view .LVU141
 703              	.LBB88:
 704              		.loc 1 336 17 view .LVU142
 705              		.loc 1 337 17 view .LVU143
 706 0080 05A9     		add	r1, sp, #20
 707 0082 06A8     		add	r0, sp, #24
 708 0084 FFF7FEFF 		bl	cmp_object_as_map
 709              	.LVL53:
 710              		.loc 1 338 17 view .LVU144
 711              		.loc 1 338 27 is_stmt 0 view .LVU145
 712 0088 0599     		ldr	r1, [sp, #20]
 713 008a CDF80090 		str	r9, [sp]
 714 008e 3846     		mov	r0, r7
 715 0090 4346     		mov	r3, r8
 716 0092 2A46     		mov	r2, r5
 717 0094 FFF7B4FF 		bl	read_namespace
 718              	.LVL54:
 719              	.L105:
 720              		.loc 1 339 17 is_stmt 1 view .LVU146
 721              		.loc 1 339 20 is_stmt 0 view .LVU147
 722 0098 48BB     		cbnz	r0, .L101
 723              	.LVL55:
 724              	.L59:
 725              		.loc 1 339 20 view .LVU148
 726              	.LBE88:
 727              	.LBE89:
 728              	.LBE86:
 729              		.loc 1 305 31 is_stmt 1 discriminator 2 view .LVU149
 730              		.loc 1 305 32 is_stmt 0 discriminator 2 view .LVU150
 731 009a 0136     		adds	r6, r6, #1
 732              	.LVL56:
 733              		.loc 1 305 17 is_stmt 1 discriminator 2 view .LVU151
 734              		.loc 1 305 5 is_stmt 0 discriminator 2 view .LVU152
 735 009c B245     		cmp	r10, r6
 736 009e C0D1     		bne	.L50
 737              	.LVL57:
 738              	.L90:
 739              		.loc 1 367 12 view .LVU153
 740 00a0 0023     		movs	r3, #0
 741 00a2 25E0     		b	.L49
 742              	.LVL58:
 743              	.L57:
 744              	.LBB178:
ARM GAS  /tmp/ccHALXLw.s 			page 15


 745              	.LBB90:
 746              		.loc 1 349 13 is_stmt 1 view .LVU154
 747              		.loc 1 349 30 is_stmt 0 view .LVU155
 748 00a4 5846     		mov	r0, fp
 749 00a6 FFF7FEFF 		bl	_parameter_find_w_id_len
 750              	.LVL59:
 751              		.loc 1 350 13 is_stmt 1 view .LVU156
 752              		.loc 1 350 16 is_stmt 0 view .LVU157
 753 00aa 0746     		mov	r7, r0
 754 00ac 50B3     		cbz	r0, .L116
 755              		.loc 1 353 13 is_stmt 1 view .LVU158
 756 00ae 2046     		mov	r0, r4
 757              	.LVL60:
 758              		.loc 1 353 13 is_stmt 0 view .LVU159
 759 00b0 FFF7FEFF 		bl	free
 760              	.LVL61:
 761              		.loc 1 354 13 is_stmt 1 view .LVU160
 762              	.LBB91:
 763              		.loc 1 355 17 view .LVU161
 764              	.LBB92:
 765              	.LBI92:
 766              		.loc 1 272 12 view .LVU162
 767              	.LBB93:
 768              		.loc 1 278 5 view .LVU163
 769 00b4 BB7B     		ldrb	r3, [r7, #14]	@ zero_extendqisi2
 770 00b6 013B     		subs	r3, r3, #1
 771 00b8 052B     		cmp	r3, #5
 772 00ba 00F26781 		bhi	.L89
 773 00be DFE813F0 		tbh	[pc, r3, lsl #1]
 774              	.L93:
 775 00c2 CE00     		.2byte	(.L62-.L93)/2
 776 00c4 B900     		.2byte	(.L68-.L93)/2
 777 00c6 8D00     		.2byte	(.L65-.L93)/2
 778 00c8 A300     		.2byte	(.L83-.L93)/2
 779 00ca 5900     		.2byte	(.L71-.L93)/2
 780 00cc 2300     		.2byte	(.L77-.L93)/2
 781              	.LVL62:
 782              		.p2align 1
 783              	.L115:
 784              		.loc 1 278 5 is_stmt 0 view .LVU164
 785              	.LBE93:
 786              	.LBE92:
 787              	.LBE91:
 788              	.LBE90:
 789              	.LBB171:
 790              		.loc 1 332 17 is_stmt 1 view .LVU165
 791 00ce 7F4A     		ldr	r2, .L123+4
 792              	.LVL63:
 793              	.L107:
 794              		.loc 1 332 17 is_stmt 0 view .LVU166
 795              	.LBE171:
 796              	.LBB172:
 797              		.loc 1 351 17 view .LVU167
 798 00d0 2146     		mov	r1, r4
 799 00d2 4846     		mov	r0, r9
 800 00d4 C047     		blx	r8
 801              	.LVL64:
ARM GAS  /tmp/ccHALXLw.s 			page 16


 802              		.loc 1 353 13 is_stmt 1 view .LVU168
 803 00d6 2046     		mov	r0, r4
 804 00d8 FFF7FEFF 		bl	free
 805              	.LVL65:
 806              		.loc 1 354 13 view .LVU169
 807              	.LBB165:
 808              		.loc 1 360 17 view .LVU170
 809              		.loc 1 360 27 is_stmt 0 view .LVU171
 810 00dc 9DF81800 		ldrb	r0, [sp, #24]	@ zero_extendqisi2
 811 00e0 3B46     		mov	r3, r7
 812 00e2 4A46     		mov	r2, r9
 813 00e4 4146     		mov	r1, r8
 814 00e6 FFF7FEFF 		bl	discard_msgpack_element.isra.0
 815              	.LVL66:
 816              		.loc 1 361 17 is_stmt 1 view .LVU172
 817              		.loc 1 361 20 is_stmt 0 view .LVU173
 818 00ea 0028     		cmp	r0, #0
 819 00ec D5D0     		beq	.L59
 820              	.LVL67:
 821              	.L101:
 822              		.loc 1 361 20 view .LVU174
 823 00ee 0346     		mov	r3, r0
 824              	.LVL68:
 825              	.L49:
 826              		.loc 1 361 20 view .LVU175
 827              	.LBE165:
 828              	.LBE172:
 829              	.LBE178:
 830              		.loc 1 368 1 view .LVU176
 831 00f0 754A     		ldr	r2, .L123
 832 00f2 1168     		ldr	r1, [r2]
 833 00f4 0B9A     		ldr	r2, [sp, #44]
 834 00f6 5140     		eors	r1, r2, r1
 835 00f8 40F04681 		bne	.L117
 836 00fc 1846     		mov	r0, r3
 837 00fe 0DB0     		add	sp, sp, #52
 838              		.cfi_remember_state
 839              		.cfi_def_cfa_offset 36
 840              		@ sp needed
 841 0100 BDE8F08F 		pop	{r4, r5, r6, r7, r8, r9, r10, fp, pc}
 842              	.LVL69:
 843              	.L116:
 844              		.cfi_restore_state
 845              	.LBB179:
 846              	.LBB173:
 847              		.loc 1 351 17 is_stmt 1 view .LVU177
 848 0104 724A     		ldr	r2, .L123+8
 849 0106 E3E7     		b	.L107
 850              	.LVL70:
 851              	.L77:
 852              	.LBB166:
 853              	.LBB155:
 854              	.LBB145:
 855              		.loc 1 288 9 view .LVU178
 856              	.LBB94:
 857              	.LBI94:
 858              		.loc 1 201 12 view .LVU179
ARM GAS  /tmp/ccHALXLw.s 			page 17


 859              	.LBB95:
 860              		.loc 1 207 5 view .LVU180
 861              		.loc 1 208 5 view .LVU181
 862              		.loc 1 208 9 is_stmt 0 view .LVU182
 863 0108 06A8     		add	r0, sp, #24
 864              	.LVL71:
 865              		.loc 1 208 9 view .LVU183
 866 010a 05A9     		add	r1, sp, #20
 867 010c FFF7FEFF 		bl	cmp_object_as_array
 868              	.LVL72:
 869              		.loc 1 208 8 view .LVU184
 870 0110 0028     		cmp	r0, #0
 871 0112 6AD0     		beq	.L78
 872              	.LBB96:
 873              		.loc 1 209 9 is_stmt 1 view .LVU185
 874              		.loc 1 209 24 is_stmt 0 view .LVU186
 875 0114 059A     		ldr	r2, [sp, #20]
 876              		.loc 1 209 39 view .LVU187
 877 0116 BB8A     		ldrh	r3, [r7, #20]
 878              		.loc 1 209 12 view .LVU188
 879 0118 9342     		cmp	r3, r2
 880 011a 0DD2     		bcs	.L79
 881              	.LBB97:
 882              		.loc 1 210 13 is_stmt 1 view .LVU189
 883 011c 6D4A     		ldr	r2, .L123+12
 884 011e 3968     		ldr	r1, [r7]
 885 0120 4846     		mov	r0, r9
 886 0122 C047     		blx	r8
 887              	.LVL73:
 888              		.loc 1 211 13 view .LVU190
 889              		.loc 1 211 23 is_stmt 0 view .LVU191
 890 0124 3B68     		ldr	r3, [r7]
 891 0126 9DF81800 		ldrb	r0, [sp, #24]	@ zero_extendqisi2
 892 012a 4A46     		mov	r2, r9
 893 012c 4146     		mov	r1, r8
 894 012e FFF7FEFF 		bl	discard_msgpack_element.isra.0
 895              	.LVL74:
 896              		.loc 1 212 13 is_stmt 1 view .LVU192
 897              		.loc 1 212 16 is_stmt 0 view .LVU193
 898 0132 0028     		cmp	r0, #0
 899 0134 DBD1     		bne	.L101
 900 0136 059A     		ldr	r2, [sp, #20]
 901              	.LVL75:
 902              	.L79:
 903              		.loc 1 212 16 view .LVU194
 904              	.LBE97:
 905              		.loc 1 216 9 is_stmt 1 view .LVU195
 906              		.loc 1 216 22 is_stmt 0 view .LVU196
 907 0138 0392     		str	r2, [sp, #12]
 908 013a 9000     		lsls	r0, r2, #2
 909 013c FFF7FEFF 		bl	malloc
 910              	.LVL76:
 911              		.loc 1 217 9 is_stmt 1 view .LVU197
 912              		.loc 1 217 12 is_stmt 0 view .LVU198
 913 0140 039A     		ldr	r2, [sp, #12]
 914 0142 0446     		mov	r4, r0
 915              	.LVL77:
ARM GAS  /tmp/ccHALXLw.s 			page 18


 916              		.loc 1 217 12 view .LVU199
 917 0144 0028     		cmp	r0, #0
 918 0146 00F0FF80 		beq	.L118
 919              	.LVL78:
 920              	.L81:
 921              		.loc 1 224 9 is_stmt 1 view .LVU200
 922              		.loc 1 224 19 is_stmt 0 view .LVU201
 923 014a 3B68     		ldr	r3, [r7]
 924 014c 2146     		mov	r1, r4
 925 014e CDE90093 		strd	r9, r3, [sp]
 926 0152 2846     		mov	r0, r5
 927 0154 4346     		mov	r3, r8
 928 0156 FFF7FEFF 		bl	get_vector
 929              	.LVL79:
 930              		.loc 1 225 9 is_stmt 1 view .LVU202
 931              		.loc 1 225 12 is_stmt 0 view .LVU203
 932 015a 0028     		cmp	r0, #0
 933 015c 40F0DB80 		bne	.L104
 934              		.loc 1 229 9 is_stmt 1 view .LVU204
 935 0160 3846     		mov	r0, r7
 936              	.LVL80:
 937              		.loc 1 229 9 is_stmt 0 view .LVU205
 938 0162 BDF81420 		ldrh	r2, [sp, #20]
 939 0166 2146     		mov	r1, r4
 940 0168 FFF7FEFF 		bl	parameter_variable_vector_set
 941              	.LVL81:
 942              		.loc 1 230 9 is_stmt 1 view .LVU206
 943 016c 2046     		mov	r0, r4
 944 016e FFF7FEFF 		bl	free
 945              	.LVL82:
 946              		.loc 1 230 9 is_stmt 0 view .LVU207
 947              	.LBE96:
 948              	.LBE95:
 949              	.LBE94:
 950              	.LBE145:
 951              	.LBE155:
 952              		.loc 1 356 17 is_stmt 1 view .LVU208
 953 0172 92E7     		b	.L59
 954              	.LVL83:
 955              	.L71:
 956              	.LBB156:
 957              	.LBB146:
 958              		.loc 1 286 9 view .LVU209
 959              	.LBB105:
 960              	.LBI105:
 961              		.loc 1 161 12 view .LVU210
 962              	.LBB106:
 963              		.loc 1 167 5 view .LVU211
 964              		.loc 1 168 5 view .LVU212
 965              		.loc 1 168 9 is_stmt 0 view .LVU213
 966 0174 06A8     		add	r0, sp, #24
 967              	.LVL84:
 968              		.loc 1 168 9 view .LVU214
 969 0176 05A9     		add	r1, sp, #20
 970 0178 FFF7FEFF 		bl	cmp_object_as_array
 971              	.LVL85:
 972              		.loc 1 168 8 view .LVU215
ARM GAS  /tmp/ccHALXLw.s 			page 19


 973 017c 0028     		cmp	r0, #0
 974 017e 34D0     		beq	.L78
 975              	.LBB107:
 976              		.loc 1 169 9 is_stmt 1 view .LVU216
 977              		.loc 1 169 24 is_stmt 0 view .LVU217
 978 0180 059A     		ldr	r2, [sp, #20]
 979              		.loc 1 169 40 view .LVU218
 980 0182 FB8A     		ldrh	r3, [r7, #22]
 981              		.loc 1 169 12 view .LVU219
 982 0184 9342     		cmp	r3, r2
 983 0186 0DD0     		beq	.L73
 984              	.LBB108:
 985              		.loc 1 170 13 is_stmt 1 view .LVU220
 986 0188 534A     		ldr	r2, .L123+16
 987 018a 3968     		ldr	r1, [r7]
 988 018c 4846     		mov	r0, r9
 989 018e C047     		blx	r8
 990              	.LVL86:
 991              		.loc 1 171 13 view .LVU221
 992              		.loc 1 171 23 is_stmt 0 view .LVU222
 993 0190 3B68     		ldr	r3, [r7]
 994 0192 9DF81800 		ldrb	r0, [sp, #24]	@ zero_extendqisi2
 995 0196 4A46     		mov	r2, r9
 996 0198 4146     		mov	r1, r8
 997 019a FFF7FEFF 		bl	discard_msgpack_element.isra.0
 998              	.LVL87:
 999              		.loc 1 172 13 is_stmt 1 view .LVU223
 1000              		.loc 1 172 16 is_stmt 0 view .LVU224
 1001 019e 0028     		cmp	r0, #0
 1002 01a0 A5D1     		bne	.L101
 1003 01a2 059A     		ldr	r2, [sp, #20]
 1004              	.LVL88:
 1005              	.L73:
 1006              		.loc 1 172 16 view .LVU225
 1007              	.LBE108:
 1008              		.loc 1 176 9 is_stmt 1 view .LVU226
 1009              		.loc 1 176 22 is_stmt 0 view .LVU227
 1010 01a4 0392     		str	r2, [sp, #12]
 1011 01a6 9000     		lsls	r0, r2, #2
 1012 01a8 FFF7FEFF 		bl	malloc
 1013              	.LVL89:
 1014              		.loc 1 177 9 is_stmt 1 view .LVU228
 1015              		.loc 1 177 12 is_stmt 0 view .LVU229
 1016 01ac 039A     		ldr	r2, [sp, #12]
 1017 01ae 0446     		mov	r4, r0
 1018              	.LVL90:
 1019              		.loc 1 177 12 view .LVU230
 1020 01b0 0028     		cmp	r0, #0
 1021 01b2 00F0D980 		beq	.L119
 1022              	.LVL91:
 1023              	.L75:
 1024              		.loc 1 184 9 is_stmt 1 view .LVU231
 1025              		.loc 1 184 19 is_stmt 0 view .LVU232
 1026 01b6 3B68     		ldr	r3, [r7]
 1027 01b8 2146     		mov	r1, r4
 1028 01ba CDE90093 		strd	r9, r3, [sp]
 1029 01be 2846     		mov	r0, r5
ARM GAS  /tmp/ccHALXLw.s 			page 20


 1030 01c0 4346     		mov	r3, r8
 1031 01c2 FFF7FEFF 		bl	get_vector
 1032              	.LVL92:
 1033              		.loc 1 185 9 is_stmt 1 view .LVU233
 1034              		.loc 1 185 12 is_stmt 0 view .LVU234
 1035 01c6 0028     		cmp	r0, #0
 1036 01c8 40F0A580 		bne	.L104
 1037              		.loc 1 189 9 is_stmt 1 view .LVU235
 1038 01cc 3846     		mov	r0, r7
 1039              	.LVL93:
 1040              		.loc 1 189 9 is_stmt 0 view .LVU236
 1041 01ce 2146     		mov	r1, r4
 1042 01d0 FFF7FEFF 		bl	parameter_vector_set
 1043              	.LVL94:
 1044              		.loc 1 190 9 is_stmt 1 view .LVU237
 1045 01d4 2046     		mov	r0, r4
 1046 01d6 FFF7FEFF 		bl	free
 1047              	.LVL95:
 1048              		.loc 1 190 9 is_stmt 0 view .LVU238
 1049              	.LBE107:
 1050              	.LBE106:
 1051              	.LBE105:
 1052              	.LBE146:
 1053              	.LBE156:
 1054              		.loc 1 356 17 is_stmt 1 view .LVU239
 1055 01da 5EE7     		b	.L59
 1056              	.LVL96:
 1057              	.L65:
 1058              	.LBB157:
 1059              	.LBB147:
 1060              		.loc 1 282 9 view .LVU240
 1061              	.LBB112:
 1062              	.LBI112:
 1063              		.loc 1 123 12 view .LVU241
 1064              	.LBB113:
 1065              		.loc 1 129 5 view .LVU242
 1066              		.loc 1 130 5 view .LVU243
 1067              	.LBB114:
 1068              	.LBI114:
 1069              		.loc 1 52 13 view .LVU244
 1070              	.LBB115:
 1071              		.loc 1 54 5 view .LVU245
 1072              		.loc 1 54 9 is_stmt 0 view .LVU246
 1073 01dc 06A8     		add	r0, sp, #24
 1074              	.LVL97:
 1075              		.loc 1 54 9 view .LVU247
 1076 01de 05A9     		add	r1, sp, #20
 1077              	.LVL98:
 1078              		.loc 1 54 9 view .LVU248
 1079 01e0 FFF7FEFF 		bl	cmp_object_as_int
 1080              	.LVL99:
 1081              		.loc 1 54 8 view .LVU249
 1082 01e4 0028     		cmp	r0, #0
 1083 01e6 40F09180 		bne	.L66
 1084              	.LVL100:
 1085              	.L78:
 1086              		.loc 1 54 8 view .LVU250
ARM GAS  /tmp/ccHALXLw.s 			page 21


 1087              	.LBE115:
 1088              	.LBE114:
 1089              	.LBE113:
 1090              	.LBE112:
 1091              	.LBB119:
 1092              	.LBB102:
 1093              	.LBB99:
 1094              		.loc 1 232 9 is_stmt 1 view .LVU251
 1095 01ea 3C4A     		ldr	r2, .L123+20
 1096 01ec 3968     		ldr	r1, [r7]
 1097 01ee 4846     		mov	r0, r9
 1098 01f0 C047     		blx	r8
 1099              	.LVL101:
 1100              		.loc 1 233 9 view .LVU252
 1101              		.loc 1 233 19 is_stmt 0 view .LVU253
 1102 01f2 3B68     		ldr	r3, [r7]
 1103 01f4 9DF81800 		ldrb	r0, [sp, #24]	@ zero_extendqisi2
 1104 01f8 4A46     		mov	r2, r9
 1105 01fa 4146     		mov	r1, r8
 1106 01fc FFF7FEFF 		bl	discard_msgpack_element.isra.0
 1107              	.LVL102:
 1108              		.loc 1 234 9 is_stmt 1 view .LVU254
 1109              		.loc 1 234 12 is_stmt 0 view .LVU255
 1110 0200 0028     		cmp	r0, #0
 1111 0202 3FF44AAF 		beq	.L59
 1112 0206 72E7     		b	.L101
 1113              	.LVL103:
 1114              	.L83:
 1115              		.loc 1 234 12 view .LVU256
 1116              	.LBE99:
 1117              	.LBE102:
 1118              	.LBE119:
 1119              		.loc 1 290 9 is_stmt 1 view .LVU257
 1120              	.LBB120:
 1121              	.LBI120:
 1122              		.loc 1 242 12 view .LVU258
 1123              	.LBB121:
 1124              		.loc 1 248 5 view .LVU259
 1125              		.loc 1 249 5 view .LVU260
 1126              		.loc 1 249 10 is_stmt 0 view .LVU261
 1127 0208 06A8     		add	r0, sp, #24
 1128              	.LVL104:
 1129              		.loc 1 249 10 view .LVU262
 1130 020a 05A9     		add	r1, sp, #20
 1131 020c FFF7FEFF 		bl	cmp_object_as_str
 1132              	.LVL105:
 1133              		.loc 1 249 8 view .LVU263
 1134 0210 0028     		cmp	r0, #0
 1135 0212 79D0     		beq	.L120
 1136              		.loc 1 253 5 is_stmt 1 view .LVU264
 1137              		.loc 1 253 17 is_stmt 0 view .LVU265
 1138 0214 059A     		ldr	r2, [sp, #20]
 1139              		.loc 1 253 32 view .LVU266
 1140 0216 BB8A     		ldrh	r3, [r7, #20]
 1141              		.loc 1 253 8 view .LVU267
 1142 0218 9342     		cmp	r3, r2
 1143 021a 33D8     		bhi	.L86
ARM GAS  /tmp/ccHALXLw.s 			page 22


 1144              		.loc 1 254 9 is_stmt 1 view .LVU268
 1145 021c 304A     		ldr	r2, .L123+24
 1146              	.LVL106:
 1147              	.L103:
 1148              		.loc 1 254 9 is_stmt 0 view .LVU269
 1149              	.LBE121:
 1150              	.LBE120:
 1151              		.loc 1 292 9 view .LVU270
 1152 021e 3968     		ldr	r1, [r7]
 1153 0220 4846     		mov	r0, r9
 1154 0222 C047     		blx	r8
 1155              	.LVL107:
 1156              		.loc 1 293 9 is_stmt 1 view .LVU271
 1157              		.loc 1 293 16 is_stmt 0 view .LVU272
 1158 0224 3B68     		ldr	r3, [r7]
 1159 0226 9DF81800 		ldrb	r0, [sp, #24]	@ zero_extendqisi2
 1160 022a 4A46     		mov	r2, r9
 1161 022c 4146     		mov	r1, r8
 1162 022e FFF7FEFF 		bl	discard_msgpack_element.isra.0
 1163              	.LVL108:
 1164 0232 31E7     		b	.L105
 1165              	.LVL109:
 1166              	.L68:
 1167              		.loc 1 284 9 is_stmt 1 view .LVU273
 1168              	.LBB126:
 1169              	.LBI126:
 1170              		.loc 1 142 13 view .LVU274
 1171              	.LBB127:
 1172              		.loc 1 148 5 view .LVU275
 1173              		.loc 1 149 5 view .LVU276
 1174              	.LBB128:
 1175              	.LBI128:
 1176              		.loc 1 60 13 view .LVU277
 1177              	.LBB129:
 1178              		.loc 1 62 5 view .LVU278
 1179              		.loc 1 62 9 is_stmt 0 view .LVU279
 1180 0234 06A8     		add	r0, sp, #24
 1181              	.LVL110:
 1182              		.loc 1 62 9 view .LVU280
 1183 0236 05A9     		add	r1, sp, #20
 1184              	.LVL111:
 1185              		.loc 1 62 9 view .LVU281
 1186 0238 FFF7FEFF 		bl	cmp_object_as_bool
 1187              	.LVL112:
 1188              		.loc 1 62 8 view .LVU282
 1189 023c 0028     		cmp	r0, #0
 1190 023e 5DD1     		bne	.L69
 1191              	.LVL113:
 1192              		.loc 1 62 8 view .LVU283
 1193              	.LBE129:
 1194              	.LBE128:
 1195              	.LBB131:
 1196              		.loc 1 152 9 is_stmt 1 view .LVU284
 1197 0240 264A     		ldr	r2, .L123+20
 1198 0242 3968     		ldr	r1, [r7]
 1199 0244 4846     		mov	r0, r9
 1200 0246 C047     		blx	r8
ARM GAS  /tmp/ccHALXLw.s 			page 23


 1201              	.LVL114:
 1202              		.loc 1 153 9 view .LVU285
 1203              		.loc 1 153 19 is_stmt 0 view .LVU286
 1204 0248 3B68     		ldr	r3, [r7]
 1205 024a 9DF81800 		ldrb	r0, [sp, #24]	@ zero_extendqisi2
 1206 024e 4A46     		mov	r2, r9
 1207 0250 4146     		mov	r1, r8
 1208 0252 FFF7FEFF 		bl	discard_msgpack_element.isra.0
 1209              	.LVL115:
 1210              		.loc 1 154 9 is_stmt 1 view .LVU287
 1211              		.loc 1 154 12 is_stmt 0 view .LVU288
 1212 0256 0038     		subs	r0, r0, #0
 1213              		.loc 1 154 12 view .LVU289
 1214 0258 18BF     		it	ne
 1215 025a 0120     		movne	r0, #1
 1216              	.LVL116:
 1217              		.loc 1 154 12 view .LVU290
 1218              	.LBE131:
 1219              	.LBE127:
 1220              	.LBE126:
 1221              		.loc 1 284 16 view .LVU291
 1222 025c 1CE7     		b	.L105
 1223              	.L62:
 1224              		.loc 1 280 9 is_stmt 1 view .LVU292
 1225              	.LVL117:
 1226              	.LBB134:
 1227              	.LBI134:
 1228              		.loc 1 104 12 view .LVU293
 1229              	.LBB135:
 1230              		.loc 1 110 5 view .LVU294
 1231              		.loc 1 111 5 view .LVU295
 1232              		.loc 1 111 9 is_stmt 0 view .LVU296
 1233 025e 06A8     		add	r0, sp, #24
 1234              	.LVL118:
 1235              		.loc 1 111 9 view .LVU297
 1236 0260 05A9     		add	r1, sp, #20
 1237 0262 FFF7FEFF 		bl	get_float
 1238              	.LVL119:
 1239              		.loc 1 111 8 view .LVU298
 1240 0266 0028     		cmp	r0, #0
 1241 0268 BFD0     		beq	.L78
 1242              		.loc 1 112 9 is_stmt 1 view .LVU299
 1243 026a 9DED050A 		vldr.32	s0, [sp, #20]
 1244 026e 3846     		mov	r0, r7
 1245 0270 FFF7FEFF 		bl	parameter_scalar_set
 1246              	.LVL120:
 1247              		.loc 1 112 9 is_stmt 0 view .LVU300
 1248              	.LBE135:
 1249              	.LBE134:
 1250              	.LBE147:
 1251              	.LBE157:
 1252              		.loc 1 356 17 is_stmt 1 view .LVU301
 1253 0274 11E7     		b	.L59
 1254              	.LVL121:
 1255              	.L111:
 1256              		.loc 1 356 17 is_stmt 0 view .LVU302
 1257              	.LBE166:
ARM GAS  /tmp/ccHALXLw.s 			page 24


 1258              	.LBE173:
 1259              		.loc 1 308 13 is_stmt 1 view .LVU303
 1260 0276 0146     		mov	r1, r0
 1261 0278 1A4A     		ldr	r2, .L123+28
 1262 027a 4846     		mov	r0, r9
 1263 027c C047     		blx	r8
 1264              	.LVL122:
 1265              		.loc 1 309 13 view .LVU304
 1266              		.loc 1 309 20 is_stmt 0 view .LVU305
 1267 027e 4FF0FF33 		mov	r3, #-1
 1268 0282 35E7     		b	.L49
 1269              	.LVL123:
 1270              	.L86:
 1271              	.LBB174:
 1272              	.LBB167:
 1273              	.LBB158:
 1274              	.LBB148:
 1275              	.LBB136:
 1276              	.LBB122:
 1277              		.loc 1 257 5 is_stmt 1 view .LVU306
 1278              		.loc 1 257 21 is_stmt 0 view .LVU307
 1279 0284 1046     		mov	r0, r2
 1280 0286 0392     		str	r2, [sp, #12]
 1281 0288 FFF7FEFF 		bl	malloc
 1282              	.LVL124:
 1283              		.loc 1 258 5 is_stmt 1 view .LVU308
 1284              		.loc 1 258 8 is_stmt 0 view .LVU309
 1285 028c 039A     		ldr	r2, [sp, #12]
 1286 028e 0446     		mov	r4, r0
 1287              	.LVL125:
 1288              		.loc 1 258 8 view .LVU310
 1289 0290 0028     		cmp	r0, #0
 1290 0292 57D0     		beq	.L121
 1291              		.loc 1 262 5 is_stmt 1 view .LVU311
 1292              		.loc 1 262 10 is_stmt 0 view .LVU312
 1293 0294 0146     		mov	r1, r0
 1294 0296 AB68     		ldr	r3, [r5, #8]
 1295 0298 2846     		mov	r0, r5
 1296              	.LVL126:
 1297              		.loc 1 262 10 view .LVU313
 1298 029a 9847     		blx	r3
 1299              	.LVL127:
 1300              		.loc 1 262 8 view .LVU314
 1301 029c 0028     		cmp	r0, #0
 1302 029e 47D0     		beq	.L122
 1303              		.loc 1 267 5 is_stmt 1 view .LVU315
 1304 02a0 3846     		mov	r0, r7
 1305 02a2 BDF81420 		ldrh	r2, [sp, #20]
 1306 02a6 2146     		mov	r1, r4
 1307 02a8 FFF7FEFF 		bl	parameter_string_set_w_len
 1308              	.LVL128:
 1309              		.loc 1 268 5 view .LVU316
 1310 02ac 2046     		mov	r0, r4
 1311 02ae FFF7FEFF 		bl	free
 1312              	.LVL129:
 1313              		.loc 1 269 5 view .LVU317
 1314              		.loc 1 269 5 is_stmt 0 view .LVU318
ARM GAS  /tmp/ccHALXLw.s 			page 25


 1315              	.LBE122:
 1316              	.LBE136:
 1317              	.LBE148:
 1318              	.LBE158:
 1319              		.loc 1 356 17 is_stmt 1 view .LVU319
 1320 02b2 F2E6     		b	.L59
 1321              	.LVL130:
 1322              	.L113:
 1323              		.loc 1 356 17 is_stmt 0 view .LVU320
 1324              	.LBE167:
 1325              	.LBE174:
 1326              		.loc 1 318 13 is_stmt 1 view .LVU321
 1327 02b4 0146     		mov	r1, r0
 1328 02b6 0B4A     		ldr	r2, .L123+28
 1329 02b8 4846     		mov	r0, r9
 1330 02ba C047     		blx	r8
 1331              	.LVL131:
 1332              		.loc 1 319 13 view .LVU322
 1333 02bc 2046     		mov	r0, r4
 1334 02be FFF7FEFF 		bl	free
 1335              	.LVL132:
 1336              		.loc 1 320 13 view .LVU323
 1337              		.loc 1 320 20 is_stmt 0 view .LVU324
 1338 02c2 4FF0FF33 		mov	r3, #-1
 1339 02c6 13E7     		b	.L49
 1340              	.L124:
 1341              		.align	2
 1342              	.L123:
 1343 02c8 00000000 		.word	.LC18
 1344 02cc 40000000 		.word	.LC10
 1345 02d0 64000000 		.word	.LC11
 1346 02d4 C4000000 		.word	.LC14
 1347 02d8 88000000 		.word	.LC12
 1348 02dc 18000000 		.word	.LC5
 1349 02e0 E8000000 		.word	.LC15
 1350 02e4 00000000 		.word	.LC7
 1351              	.L114:
 1352              		.loc 1 325 13 is_stmt 1 view .LVU325
 1353 02e8 294A     		ldr	r2, .L125
 1354 02ea 4846     		mov	r0, r9
 1355 02ec 2146     		mov	r1, r4
 1356 02ee C047     		blx	r8
 1357              	.LVL133:
 1358              		.loc 1 326 13 view .LVU326
 1359 02f0 2046     		mov	r0, r4
 1360 02f2 FFF7FEFF 		bl	free
 1361              	.LVL134:
 1362              		.loc 1 327 13 view .LVU327
 1363              		.loc 1 327 20 is_stmt 0 view .LVU328
 1364 02f6 4FF0FF33 		mov	r3, #-1
 1365 02fa F9E6     		b	.L49
 1366              	.LVL135:
 1367              	.L69:
 1368              	.LBB175:
 1369              	.LBB168:
 1370              	.LBB159:
 1371              	.LBB149:
ARM GAS  /tmp/ccHALXLw.s 			page 26


 1372              	.LBB137:
 1373              	.LBB133:
 1374              	.LBB132:
 1375              	.LBB130:
 1376              		.loc 1 63 9 is_stmt 1 view .LVU329
 1377              		.loc 1 63 9 is_stmt 0 view .LVU330
 1378              	.LBE130:
 1379              	.LBE132:
 1380              		.loc 1 150 9 is_stmt 1 view .LVU331
 1381 02fc 9DF81410 		ldrb	r1, [sp, #20]	@ zero_extendqisi2
 1382 0300 3846     		mov	r0, r7
 1383 0302 FFF7FEFF 		bl	parameter_boolean_set
 1384              	.LVL136:
 1385              		.loc 1 150 9 is_stmt 0 view .LVU332
 1386              	.LBE133:
 1387              	.LBE137:
 1388              	.LBE149:
 1389              	.LBE159:
 1390              		.loc 1 356 17 is_stmt 1 view .LVU333
 1391 0306 C8E6     		b	.L59
 1392              	.LVL137:
 1393              	.L120:
 1394              	.LBB160:
 1395              	.LBB150:
 1396              	.LBB138:
 1397              	.LBB123:
 1398              		.loc 1 250 9 view .LVU334
 1399 0308 224A     		ldr	r2, .L125+4
 1400 030a 88E7     		b	.L103
 1401              	.LVL138:
 1402              	.L66:
 1403              		.loc 1 250 9 is_stmt 0 view .LVU335
 1404              	.LBE123:
 1405              	.LBE138:
 1406              	.LBB139:
 1407              	.LBB118:
 1408              	.LBB117:
 1409              	.LBB116:
 1410              		.loc 1 55 9 is_stmt 1 view .LVU336
 1411              		.loc 1 55 9 is_stmt 0 view .LVU337
 1412              	.LBE116:
 1413              	.LBE117:
 1414              		.loc 1 131 9 is_stmt 1 view .LVU338
 1415 030c 0599     		ldr	r1, [sp, #20]
 1416 030e 3846     		mov	r0, r7
 1417 0310 FFF7FEFF 		bl	parameter_integer_set
 1418              	.LVL139:
 1419              		.loc 1 131 9 is_stmt 0 view .LVU339
 1420              	.LBE118:
 1421              	.LBE139:
 1422              	.LBE150:
 1423              	.LBE160:
 1424              		.loc 1 356 17 is_stmt 1 view .LVU340
 1425 0314 C1E6     		b	.L59
 1426              	.LVL140:
 1427              	.L104:
 1428              		.loc 1 356 17 is_stmt 0 view .LVU341
ARM GAS  /tmp/ccHALXLw.s 			page 27


 1429 0316 0390     		str	r0, [sp, #12]
 1430              	.LBB161:
 1431              	.LBB151:
 1432              	.LBB140:
 1433              	.LBB103:
 1434              	.LBB100:
 1435              		.loc 1 226 13 is_stmt 1 view .LVU342
 1436 0318 2046     		mov	r0, r4
 1437 031a FFF7FEFF 		bl	free
 1438              	.LVL141:
 1439              		.loc 1 227 13 view .LVU343
 1440              		.loc 1 227 20 is_stmt 0 view .LVU344
 1441 031e 039B     		ldr	r3, [sp, #12]
 1442 0320 E6E6     		b	.L49
 1443              	.LVL142:
 1444              	.L112:
 1445              		.loc 1 227 20 view .LVU345
 1446              	.LBE100:
 1447              	.LBE103:
 1448              	.LBE140:
 1449              	.LBE151:
 1450              	.LBE161:
 1451              	.LBE168:
 1452              	.LBE175:
 1453              		.loc 1 313 13 is_stmt 1 view .LVU346
 1454 0322 0146     		mov	r1, r0
 1455 0324 1C4A     		ldr	r2, .L125+8
 1456 0326 4846     		mov	r0, r9
 1457              	.LVL143:
 1458              		.loc 1 313 13 is_stmt 0 view .LVU347
 1459 0328 C047     		blx	r8
 1460              	.LVL144:
 1461              		.loc 1 314 13 is_stmt 1 view .LVU348
 1462              		.loc 1 314 20 is_stmt 0 view .LVU349
 1463 032a 4FF0FF33 		mov	r3, #-1
 1464 032e DFE6     		b	.L49
 1465              	.LVL145:
 1466              	.L122:
 1467              	.LBB176:
 1468              	.LBB169:
 1469              	.LBB162:
 1470              	.LBB152:
 1471              	.LBB141:
 1472              	.LBB124:
 1473              		.loc 1 263 9 is_stmt 1 view .LVU350
 1474 0330 3968     		ldr	r1, [r7]
 1475 0332 1A4A     		ldr	r2, .L125+12
 1476 0334 4846     		mov	r0, r9
 1477 0336 C047     		blx	r8
 1478              	.LVL146:
 1479              		.loc 1 264 9 view .LVU351
 1480 0338 2046     		mov	r0, r4
 1481 033a FFF7FEFF 		bl	free
 1482              	.LVL147:
 1483              		.loc 1 265 9 view .LVU352
 1484              		.loc 1 265 9 is_stmt 0 view .LVU353
 1485              	.LBE124:
ARM GAS  /tmp/ccHALXLw.s 			page 28


 1486              	.LBE141:
 1487              	.LBE152:
 1488              	.LBE162:
 1489              		.loc 1 356 17 is_stmt 1 view .LVU354
 1490              	.LBB163:
 1491              	.LBB153:
 1492              	.LBB142:
 1493              	.LBB125:
 1494              		.loc 1 265 16 is_stmt 0 view .LVU355
 1495 033e 4FF0FF33 		mov	r3, #-1
 1496 0342 D5E6     		b	.L49
 1497              	.LVL148:
 1498              	.L121:
 1499              		.loc 1 259 9 is_stmt 1 view .LVU356
 1500 0344 164A     		ldr	r2, .L125+16
 1501 0346 6AE7     		b	.L103
 1502              	.LVL149:
 1503              	.L118:
 1504              		.loc 1 259 9 is_stmt 0 view .LVU357
 1505              	.LBE125:
 1506              	.LBE142:
 1507              	.LBB143:
 1508              	.LBB104:
 1509              	.LBB101:
 1510              	.LBB98:
 1511              		.loc 1 218 13 is_stmt 1 view .LVU358
 1512 0348 154A     		ldr	r2, .L125+16
 1513 034a 3968     		ldr	r1, [r7]
 1514 034c 4846     		mov	r0, r9
 1515              	.LVL150:
 1516              		.loc 1 218 13 is_stmt 0 view .LVU359
 1517 034e C047     		blx	r8
 1518              	.LVL151:
 1519              		.loc 1 219 13 is_stmt 1 view .LVU360
 1520              		.loc 1 219 23 is_stmt 0 view .LVU361
 1521 0350 3B68     		ldr	r3, [r7]
 1522 0352 9DF81800 		ldrb	r0, [sp, #24]	@ zero_extendqisi2
 1523 0356 4A46     		mov	r2, r9
 1524 0358 4146     		mov	r1, r8
 1525 035a FFF7FEFF 		bl	discard_msgpack_element.isra.0
 1526              	.LVL152:
 1527              		.loc 1 220 13 is_stmt 1 view .LVU362
 1528              		.loc 1 220 16 is_stmt 0 view .LVU363
 1529 035e 0028     		cmp	r0, #0
 1530 0360 7FF4C5AE 		bne	.L101
 1531 0364 059A     		ldr	r2, [sp, #20]
 1532 0366 F0E6     		b	.L81
 1533              	.LVL153:
 1534              	.L119:
 1535              		.loc 1 220 16 view .LVU364
 1536              	.LBE98:
 1537              	.LBE101:
 1538              	.LBE104:
 1539              	.LBE143:
 1540              	.LBB144:
 1541              	.LBB111:
 1542              	.LBB110:
ARM GAS  /tmp/ccHALXLw.s 			page 29


 1543              	.LBB109:
 1544              		.loc 1 178 13 is_stmt 1 view .LVU365
 1545 0368 0D4A     		ldr	r2, .L125+16
 1546 036a 3968     		ldr	r1, [r7]
 1547 036c 4846     		mov	r0, r9
 1548              	.LVL154:
 1549              		.loc 1 178 13 is_stmt 0 view .LVU366
 1550 036e C047     		blx	r8
 1551              	.LVL155:
 1552              		.loc 1 179 13 is_stmt 1 view .LVU367
 1553              		.loc 1 179 23 is_stmt 0 view .LVU368
 1554 0370 3B68     		ldr	r3, [r7]
 1555 0372 9DF81800 		ldrb	r0, [sp, #24]	@ zero_extendqisi2
 1556 0376 4A46     		mov	r2, r9
 1557 0378 4146     		mov	r1, r8
 1558 037a FFF7FEFF 		bl	discard_msgpack_element.isra.0
 1559              	.LVL156:
 1560              		.loc 1 180 13 is_stmt 1 view .LVU369
 1561              		.loc 1 180 16 is_stmt 0 view .LVU370
 1562 037e 0028     		cmp	r0, #0
 1563 0380 7FF4B5AE 		bne	.L101
 1564 0384 059A     		ldr	r2, [sp, #20]
 1565 0386 16E7     		b	.L75
 1566              	.LVL157:
 1567              	.L117:
 1568              		.loc 1 180 16 view .LVU371
 1569              	.LBE109:
 1570              	.LBE110:
 1571              	.LBE111:
 1572              	.LBE144:
 1573              	.LBE153:
 1574              	.LBE163:
 1575              	.LBE169:
 1576              	.LBE176:
 1577              	.LBE179:
 1578              		.loc 1 368 1 view .LVU372
 1579 0388 FFF7FEFF 		bl	__stack_chk_fail
 1580              	.LVL158:
 1581              	.L89:
 1582              	.LBB180:
 1583              	.LBB177:
 1584              	.LBB170:
 1585              	.LBB164:
 1586              	.LBB154:
 1587              		.loc 1 292 9 is_stmt 1 view .LVU373
 1588 038c 054A     		ldr	r2, .L125+20
 1589 038e 46E7     		b	.L103
 1590              	.L126:
 1591              		.align	2
 1592              	.L125:
 1593 0390 28000000 		.word	.LC9
 1594 0394 18000000 		.word	.LC5
 1595 0398 14000000 		.word	.LC8
 1596 039c 04010000 		.word	.LC16
 1597 03a0 A8000000 		.word	.LC13
 1598 03a4 10010000 		.word	.LC17
 1599              	.LBE154:
ARM GAS  /tmp/ccHALXLw.s 			page 30


 1600              	.LBE164:
 1601              	.LBE170:
 1602              	.LBE177:
 1603              	.LBE180:
 1604              		.cfi_endproc
 1605              	.LFE262:
 1606              		.size	read_namespace, .-read_namespace
 1607              		.section	.rodata.parameter_msgpack_write_subtree.isra.0.str1.4,"aMS",%progbits,1
 1608              		.align	2
 1609              	.LC19:
 1610 0000 756E7375 		.ascii	"unsupported type for saving\000"
 1610      70706F72 
 1610      74656420 
 1610      74797065 
 1610      20666F72 
 1611              		.align	2
 1612              	.LC20:
 1613 001c 636D705F 		.ascii	"cmp_write failed\000"
 1613      77726974 
 1613      65206661 
 1613      696C6564 
 1613      00
 1614              		.section	.rodata.parameter_msgpack_write_subtree.isra.0.cst4,"aM",%progbits,4
 1615              		.align	2
 1616              	.LC21:
 1617 0000 00000000 		.word	__stack_chk_guard
 1618              		.section	.text.parameter_msgpack_write_subtree.isra.0,"ax",%progbits
 1619              		.align	1
 1620              		.p2align 4,,15
 1621              		.syntax unified
 1622              		.thumb
 1623              		.thumb_func
 1624              		.fpu fpv4-sp-d16
 1625              		.type	parameter_msgpack_write_subtree.isra.0, %function
 1626              	parameter_msgpack_write_subtree.isra.0:
 1627              	.LVL159:
 1628              	.LFB275:
 1629              		.loc 1 409 13 view -0
 1630              		.cfi_startproc
 1631              		@ args = 4, pretend = 0, frame = 16
 1632              		@ frame_needed = 0, uses_anonymous_args = 0
 1633              		.loc 1 409 13 is_stmt 0 view .LVU375
 1634 0000 2DE9F04F 		push	{r4, r5, r6, r7, r8, r9, r10, fp, lr}
 1635              		.cfi_def_cfa_offset 36
 1636              		.cfi_offset 4, -36
 1637              		.cfi_offset 5, -32
 1638              		.cfi_offset 6, -28
 1639              		.cfi_offset 7, -24
 1640              		.cfi_offset 8, -20
 1641              		.cfi_offset 9, -16
 1642              		.cfi_offset 10, -12
 1643              		.cfi_offset 11, -8
 1644              		.cfi_offset 14, -4
 1645 0004 0646     		mov	r6, r0
 1646 0006 87B0     		sub	sp, sp, #28
 1647              		.cfi_def_cfa_offset 64
 1648              		.loc 1 421 15 view .LVU376
ARM GAS  /tmp/ccHALXLw.s 			page 31


 1649 0008 0468     		ldr	r4, [r0]
 1650              		.loc 1 409 13 view .LVU377
 1651 000a 6848     		ldr	r0, .L173
 1652 000c DDF84090 		ldr	r9, [sp, #64]
 1653 0010 0068     		ldr	r0, [r0]
 1654 0012 0590     		str	r0, [sp, #20]
 1655 0014 4FF00000 		mov	r0,#0
 1656              		.loc 1 414 5 is_stmt 1 view .LVU378
 1657              	.LVL160:
 1658              		.loc 1 415 5 view .LVU379
 1659              		.loc 1 417 5 view .LVU380
 1660              		.loc 1 418 5 view .LVU381
 1661              		.loc 1 419 5 view .LVU382
 1662              		.loc 1 421 5 view .LVU383
 1663              		.loc 1 421 31 view .LVU384
 1664              		.loc 1 409 13 is_stmt 0 view .LVU385
 1665 0018 0D46     		mov	r5, r1
 1666 001a 1746     		mov	r7, r2
 1667 001c 9846     		mov	r8, r3
 1668              		.loc 1 421 5 view .LVU386
 1669 001e 002C     		cmp	r4, #0
 1670 0020 00F0BA80 		beq	.L150
 1671              		.loc 1 414 14 view .LVU387
 1672 0024 0021     		movs	r1, #0
 1673              	.LVL161:
 1674              	.L129:
 1675              		.loc 1 422 9 is_stmt 1 view .LVU388
 1676              		.loc 1 421 51 is_stmt 0 view .LVU389
 1677 0026 2469     		ldr	r4, [r4, #16]
 1678              	.LVL162:
 1679              		.loc 1 422 18 view .LVU390
 1680 0028 0131     		adds	r1, r1, #1
 1681              	.LVL163:
 1682              		.loc 1 421 46 is_stmt 1 view .LVU391
 1683              		.loc 1 421 31 view .LVU392
 1684              		.loc 1 421 5 is_stmt 0 view .LVU393
 1685 002a 002C     		cmp	r4, #0
 1686 002c FBD1     		bne	.L129
 1687              	.LVL164:
 1688              	.L128:
 1689              		.loc 1 425 5 is_stmt 1 view .LVU394
 1690              		.loc 1 425 15 is_stmt 0 view .LVU395
 1691 002e 2C68     		ldr	r4, [r5]
 1692              	.LVL165:
 1693              		.loc 1 425 36 is_stmt 1 view .LVU396
 1694              		.loc 1 425 5 is_stmt 0 view .LVU397
 1695 0030 2CB1     		cbz	r4, .L130
 1696              	.LVL166:
 1697              	.L132:
 1698              		.loc 1 426 9 is_stmt 1 view .LVU398
 1699              		.loc 1 426 12 is_stmt 0 view .LVU399
 1700 0032 637B     		ldrb	r3, [r4, #13]	@ zero_extendqisi2
 1701 0034 03B1     		cbz	r3, .L131
 1702              		.loc 1 427 13 is_stmt 1 view .LVU400
 1703              		.loc 1 427 22 is_stmt 0 view .LVU401
 1704 0036 0131     		adds	r1, r1, #1
 1705              	.LVL167:
ARM GAS  /tmp/ccHALXLw.s 			page 32


 1706              	.L131:
 1707              		.loc 1 425 49 is_stmt 1 view .LVU402
 1708              		.loc 1 425 54 is_stmt 0 view .LVU403
 1709 0038 A468     		ldr	r4, [r4, #8]
 1710              	.LVL168:
 1711              		.loc 1 425 36 is_stmt 1 view .LVU404
 1712              		.loc 1 425 5 is_stmt 0 view .LVU405
 1713 003a 002C     		cmp	r4, #0
 1714 003c F9D1     		bne	.L132
 1715              	.L130:
 1716              		.loc 1 431 5 is_stmt 1 view .LVU406
 1717 003e 3846     		mov	r0, r7
 1718 0040 FFF7FEFF 		bl	cmp_write_map
 1719              	.LVL169:
 1720              		.loc 1 434 5 view .LVU407
 1721              		.loc 1 434 15 is_stmt 0 view .LVU408
 1722 0044 3468     		ldr	r4, [r6]
 1723              	.LVL170:
 1724              		.loc 1 434 31 is_stmt 1 view .LVU409
 1725              		.loc 1 434 5 is_stmt 0 view .LVU410
 1726 0046 BCB1     		cbz	r4, .L133
 1727              	.L134:
 1728              		.loc 1 435 9 is_stmt 1 view .LVU411
 1729 0048 2646     		mov	r6, r4
 1730 004a 56F8141B 		ldr	r1, [r6], #20
 1731              		.loc 1 435 39 is_stmt 0 view .LVU412
 1732 004e 0391     		str	r1, [sp, #12]
 1733 0050 0846     		mov	r0, r1
 1734 0052 FFF7FEFF 		bl	strlen
 1735              	.LVL171:
 1736              		.loc 1 435 9 view .LVU413
 1737 0056 0399     		ldr	r1, [sp, #12]
 1738              		.loc 1 435 39 view .LVU414
 1739 0058 0246     		mov	r2, r0
 1740              		.loc 1 435 9 view .LVU415
 1741 005a 3846     		mov	r0, r7
 1742 005c FFF7FEFF 		bl	cmp_write_str
 1743              	.LVL172:
 1744              		.loc 1 436 9 is_stmt 1 view .LVU416
 1745 0060 04F10C00 		add	r0, r4, #12
 1746 0064 3146     		mov	r1, r6
 1747 0066 CDF80090 		str	r9, [sp]
 1748 006a 4346     		mov	r3, r8
 1749 006c 3A46     		mov	r2, r7
 1750 006e FFF7C7FF 		bl	parameter_msgpack_write_subtree.isra.0
 1751              	.LVL173:
 1752              		.loc 1 434 46 view .LVU417
 1753              		.loc 1 434 51 is_stmt 0 view .LVU418
 1754 0072 2469     		ldr	r4, [r4, #16]
 1755              	.LVL174:
 1756              		.loc 1 434 31 is_stmt 1 view .LVU419
 1757              		.loc 1 434 5 is_stmt 0 view .LVU420
 1758 0074 002C     		cmp	r4, #0
 1759 0076 E7D1     		bne	.L134
 1760              	.L133:
 1761              		.loc 1 440 5 is_stmt 1 view .LVU421
 1762              		.loc 1 440 15 is_stmt 0 view .LVU422
ARM GAS  /tmp/ccHALXLw.s 			page 33


 1763 0078 2C68     		ldr	r4, [r5]
 1764              	.LVL175:
 1765              		.loc 1 440 36 is_stmt 1 view .LVU423
 1766              		.loc 1 440 5 is_stmt 0 view .LVU424
 1767 007a 002C     		cmp	r4, #0
 1768 007c 3AD0     		beq	.L127
 1769              		.loc 1 484 13 view .LVU425
 1770 007e DFF830A1 		ldr	r10, .L173+4
 1771              		.loc 1 479 17 view .LVU426
 1772 0082 DFF830B1 		ldr	fp, .L173+8
 1773              	.L148:
 1774              		.loc 1 441 9 is_stmt 1 view .LVU427
 1775              	.LVL176:
 1776              		.loc 1 443 9 view .LVU428
 1777              		.loc 1 443 12 is_stmt 0 view .LVU429
 1778 0086 637B     		ldrb	r3, [r4, #13]	@ zero_extendqisi2
 1779 0088 002B     		cmp	r3, #0
 1780 008a 30D0     		beq	.L137
 1781              		.loc 1 447 9 is_stmt 1 view .LVU430
 1782 008c A37B     		ldrb	r3, [r4, #14]	@ zero_extendqisi2
 1783 008e 013B     		subs	r3, r3, #1
 1784 0090 052B     		cmp	r3, #5
 1785 0092 00F28580 		bhi	.L138
 1786 0096 DFE803F0 		tbb	[pc, r3]
 1787              	.L140:
 1788 009a 5A       		.byte	(.L144-.L140)/2
 1789 009b 48       		.byte	(.L143-.L140)/2
 1790 009c 6D       		.byte	(.L142-.L140)/2
 1791 009d 35       		.byte	(.L141-.L140)/2
 1792 009e 03       		.byte	(.L139-.L140)/2
 1793 009f 03       		.byte	(.L139-.L140)/2
 1794              		.p2align 1
 1795              	.L139:
 1796              		.loc 1 471 17 view .LVU431
 1797              		.loc 1 471 28 is_stmt 0 view .LVU432
 1798 00a0 2168     		ldr	r1, [r4]
 1799              		.loc 1 471 58 view .LVU433
 1800 00a2 0391     		str	r1, [sp, #12]
 1801 00a4 0846     		mov	r0, r1
 1802 00a6 FFF7FEFF 		bl	strlen
 1803              	.LVL177:
 1804              		.loc 1 471 28 view .LVU434
 1805 00aa 0399     		ldr	r1, [sp, #12]
 1806              		.loc 1 471 58 view .LVU435
 1807 00ac 0246     		mov	r2, r0
 1808              		.loc 1 471 28 view .LVU436
 1809 00ae 3846     		mov	r0, r7
 1810 00b0 FFF7FEFF 		bl	cmp_write_str
 1811              	.LVL178:
 1812              		.loc 1 472 28 view .LVU437
 1813 00b4 E18A     		ldrh	r1, [r4, #22]
 1814              		.loc 1 471 28 view .LVU438
 1815 00b6 0546     		mov	r5, r0
 1816              		.loc 1 472 28 view .LVU439
 1817 00b8 3846     		mov	r0, r7
 1818              	.LVL179:
 1819              		.loc 1 472 17 is_stmt 1 view .LVU440
ARM GAS  /tmp/ccHALXLw.s 			page 34


 1820              		.loc 1 472 28 is_stmt 0 view .LVU441
 1821 00ba FFF7FEFF 		bl	cmp_write_array
 1822              	.LVL180:
 1823              		.loc 1 473 17 view .LVU442
 1824 00be E38A     		ldrh	r3, [r4, #22]
 1825 00c0 2840     		ands	r0, r0, r5
 1826 00c2 C5B2     		uxtb	r5, r0
 1827              	.LVL181:
 1828              		.loc 1 473 17 is_stmt 1 view .LVU443
 1829              		.loc 1 473 27 view .LVU444
 1830              		.loc 1 473 17 is_stmt 0 view .LVU445
 1831 00c4 73B1     		cbz	r3, .L145
 1832              		.loc 1 473 23 view .LVU446
 1833 00c6 0026     		movs	r6, #0
 1834              	.LVL182:
 1835              	.L146:
 1836              		.loc 1 474 21 is_stmt 1 view .LVU447
 1837              		.loc 1 474 32 is_stmt 0 view .LVU448
 1838 00c8 2369     		ldr	r3, [r4, #16]
 1839 00ca 03EB8603 		add	r3, r3, r6, lsl #2
 1840 00ce 93ED000A 		vldr.32	s0, [r3]
 1841 00d2 3846     		mov	r0, r7
 1842 00d4 FFF7FEFF 		bl	cmp_write_float
 1843              	.LVL183:
 1844              		.loc 1 473 46 view .LVU449
 1845 00d8 E38A     		ldrh	r3, [r4, #22]
 1846              		.loc 1 473 53 view .LVU450
 1847 00da 0136     		adds	r6, r6, #1
 1848              	.LVL184:
 1849              		.loc 1 473 17 view .LVU451
 1850 00dc 9E42     		cmp	r6, r3
 1851 00de 05EA0005 		and	r5, r5, r0
 1852              	.LVL185:
 1853              		.loc 1 473 52 is_stmt 1 view .LVU452
 1854              		.loc 1 473 27 view .LVU453
 1855              		.loc 1 473 17 is_stmt 0 view .LVU454
 1856 00e2 F1D3     		bcc	.L146
 1857              	.LVL186:
 1858              	.L145:
 1859              		.loc 1 483 9 is_stmt 1 view .LVU455
 1860              		.loc 1 483 12 is_stmt 0 view .LVU456
 1861 00e4 1DB9     		cbnz	r5, .L137
 1862              		.loc 1 484 13 is_stmt 1 view .LVU457
 1863 00e6 2168     		ldr	r1, [r4]
 1864 00e8 5246     		mov	r2, r10
 1865 00ea 4846     		mov	r0, r9
 1866 00ec C047     		blx	r8
 1867              	.LVL187:
 1868              	.L137:
 1869              		.loc 1 440 49 view .LVU458
 1870              		.loc 1 440 54 is_stmt 0 view .LVU459
 1871 00ee A468     		ldr	r4, [r4, #8]
 1872              	.LVL188:
 1873              		.loc 1 440 36 is_stmt 1 view .LVU460
 1874              		.loc 1 440 5 is_stmt 0 view .LVU461
 1875 00f0 002C     		cmp	r4, #0
 1876 00f2 C8D1     		bne	.L148
ARM GAS  /tmp/ccHALXLw.s 			page 35


 1877              	.L127:
 1878              		.loc 1 487 1 view .LVU462
 1879 00f4 2D4B     		ldr	r3, .L173
 1880 00f6 1A68     		ldr	r2, [r3]
 1881 00f8 059B     		ldr	r3, [sp, #20]
 1882 00fa 5A40     		eors	r2, r3, r2
 1883 00fc 4ED1     		bne	.L172
 1884 00fe 07B0     		add	sp, sp, #28
 1885              		.cfi_remember_state
 1886              		.cfi_def_cfa_offset 36
 1887              		@ sp needed
 1888 0100 BDE8F08F 		pop	{r4, r5, r6, r7, r8, r9, r10, fp, pc}
 1889              	.LVL189:
 1890              	.L141:
 1891              		.cfi_restore_state
 1892              		.loc 1 464 17 is_stmt 1 view .LVU463
 1893              		.loc 1 464 28 is_stmt 0 view .LVU464
 1894 0104 2168     		ldr	r1, [r4]
 1895              		.loc 1 464 58 view .LVU465
 1896 0106 0391     		str	r1, [sp, #12]
 1897 0108 0846     		mov	r0, r1
 1898 010a FFF7FEFF 		bl	strlen
 1899              	.LVL190:
 1900              		.loc 1 464 28 view .LVU466
 1901 010e 0399     		ldr	r1, [sp, #12]
 1902              		.loc 1 464 58 view .LVU467
 1903 0110 0246     		mov	r2, r0
 1904              		.loc 1 464 28 view .LVU468
 1905 0112 3846     		mov	r0, r7
 1906 0114 FFF7FEFF 		bl	cmp_write_str
 1907              	.LVL191:
 1908              		.loc 1 465 28 view .LVU469
 1909 0118 E28A     		ldrh	r2, [r4, #22]
 1910 011a 2169     		ldr	r1, [r4, #16]
 1911              		.loc 1 464 28 view .LVU470
 1912 011c 0546     		mov	r5, r0
 1913              		.loc 1 465 28 view .LVU471
 1914 011e 3846     		mov	r0, r7
 1915              	.LVL192:
 1916              		.loc 1 465 17 is_stmt 1 view .LVU472
 1917              		.loc 1 465 28 is_stmt 0 view .LVU473
 1918 0120 FFF7FEFF 		bl	cmp_write_str
 1919              	.LVL193:
 1920 0124 2840     		ands	r0, r0, r5
 1921 0126 C5B2     		uxtb	r5, r0
 1922              	.LVL194:
 1923              		.loc 1 467 17 is_stmt 1 view .LVU474
 1924 0128 DCE7     		b	.L145
 1925              	.LVL195:
 1926              	.L143:
 1927              		.loc 1 459 17 view .LVU475
 1928              		.loc 1 459 28 is_stmt 0 view .LVU476
 1929 012a 2168     		ldr	r1, [r4]
 1930              		.loc 1 459 58 view .LVU477
 1931 012c 0391     		str	r1, [sp, #12]
 1932 012e 0846     		mov	r0, r1
 1933 0130 FFF7FEFF 		bl	strlen
ARM GAS  /tmp/ccHALXLw.s 			page 36


 1934              	.LVL196:
 1935              		.loc 1 459 28 view .LVU478
 1936 0134 0399     		ldr	r1, [sp, #12]
 1937              		.loc 1 459 58 view .LVU479
 1938 0136 0246     		mov	r2, r0
 1939              		.loc 1 459 28 view .LVU480
 1940 0138 3846     		mov	r0, r7
 1941 013a FFF7FEFF 		bl	cmp_write_str
 1942              	.LVL197:
 1943              		.loc 1 460 28 view .LVU481
 1944 013e 217C     		ldrb	r1, [r4, #16]	@ zero_extendqisi2
 1945              		.loc 1 459 28 view .LVU482
 1946 0140 0546     		mov	r5, r0
 1947              		.loc 1 460 28 view .LVU483
 1948 0142 3846     		mov	r0, r7
 1949              	.LVL198:
 1950              		.loc 1 460 17 is_stmt 1 view .LVU484
 1951              		.loc 1 460 28 is_stmt 0 view .LVU485
 1952 0144 FFF7FEFF 		bl	cmp_write_bool
 1953              	.LVL199:
 1954 0148 2840     		ands	r0, r0, r5
 1955 014a C5B2     		uxtb	r5, r0
 1956              	.LVL200:
 1957              		.loc 1 461 17 is_stmt 1 view .LVU486
 1958 014c CAE7     		b	.L145
 1959              	.LVL201:
 1960              	.L144:
 1961              		.loc 1 449 17 view .LVU487
 1962              		.loc 1 449 28 is_stmt 0 view .LVU488
 1963 014e 2168     		ldr	r1, [r4]
 1964              		.loc 1 449 58 view .LVU489
 1965 0150 0391     		str	r1, [sp, #12]
 1966 0152 0846     		mov	r0, r1
 1967 0154 FFF7FEFF 		bl	strlen
 1968              	.LVL202:
 1969              		.loc 1 449 28 view .LVU490
 1970 0158 0399     		ldr	r1, [sp, #12]
 1971              		.loc 1 449 58 view .LVU491
 1972 015a 0246     		mov	r2, r0
 1973              		.loc 1 449 28 view .LVU492
 1974 015c 3846     		mov	r0, r7
 1975 015e FFF7FEFF 		bl	cmp_write_str
 1976              	.LVL203:
 1977              		.loc 1 450 28 view .LVU493
 1978 0162 94ED040A 		vldr.32	s0, [r4, #16]
 1979              		.loc 1 449 28 view .LVU494
 1980 0166 0546     		mov	r5, r0
 1981              		.loc 1 450 28 view .LVU495
 1982 0168 3846     		mov	r0, r7
 1983              	.LVL204:
 1984              		.loc 1 450 17 is_stmt 1 view .LVU496
 1985              		.loc 1 450 28 is_stmt 0 view .LVU497
 1986 016a FFF7FEFF 		bl	cmp_write_float
 1987              	.LVL205:
 1988 016e 2840     		ands	r0, r0, r5
 1989 0170 C5B2     		uxtb	r5, r0
 1990              	.LVL206:
ARM GAS  /tmp/ccHALXLw.s 			page 37


 1991              		.loc 1 451 17 is_stmt 1 view .LVU498
 1992 0172 B7E7     		b	.L145
 1993              	.LVL207:
 1994              	.L142:
 1995              		.loc 1 454 17 view .LVU499
 1996              		.loc 1 454 28 is_stmt 0 view .LVU500
 1997 0174 2168     		ldr	r1, [r4]
 1998              		.loc 1 454 58 view .LVU501
 1999 0176 0391     		str	r1, [sp, #12]
 2000 0178 0846     		mov	r0, r1
 2001 017a FFF7FEFF 		bl	strlen
 2002              	.LVL208:
 2003              		.loc 1 454 28 view .LVU502
 2004 017e 0399     		ldr	r1, [sp, #12]
 2005              		.loc 1 454 58 view .LVU503
 2006 0180 0246     		mov	r2, r0
 2007              		.loc 1 454 28 view .LVU504
 2008 0182 3846     		mov	r0, r7
 2009 0184 FFF7FEFF 		bl	cmp_write_str
 2010              	.LVL209:
 2011              		.loc 1 455 28 view .LVU505
 2012 0188 2169     		ldr	r1, [r4, #16]
 2013              		.loc 1 454 28 view .LVU506
 2014 018a 0546     		mov	r5, r0
 2015              		.loc 1 455 28 view .LVU507
 2016 018c 3846     		mov	r0, r7
 2017              	.LVL210:
 2018              		.loc 1 455 17 is_stmt 1 view .LVU508
 2019              		.loc 1 455 28 is_stmt 0 view .LVU509
 2020 018e FFF7FEFF 		bl	cmp_write_s32
 2021              	.LVL211:
 2022 0192 2840     		ands	r0, r0, r5
 2023 0194 C5B2     		uxtb	r5, r0
 2024              	.LVL212:
 2025              		.loc 1 456 17 is_stmt 1 view .LVU510
 2026 0196 A5E7     		b	.L145
 2027              	.LVL213:
 2028              	.L150:
 2029              		.loc 1 414 14 is_stmt 0 view .LVU511
 2030 0198 2146     		mov	r1, r4
 2031 019a 48E7     		b	.L128
 2032              	.LVL214:
 2033              	.L172:
 2034              		.loc 1 487 1 view .LVU512
 2035 019c FFF7FEFF 		bl	__stack_chk_fail
 2036              	.LVL215:
 2037              	.L138:
 2038              		.loc 1 479 17 is_stmt 1 view .LVU513
 2039 01a0 2168     		ldr	r1, [r4]
 2040 01a2 5A46     		mov	r2, fp
 2041 01a4 4846     		mov	r0, r9
 2042 01a6 C047     		blx	r8
 2043              	.LVL216:
 2044              		.loc 1 480 17 view .LVU514
 2045              		.loc 1 483 9 view .LVU515
 2046 01a8 A1E7     		b	.L137
 2047              	.L174:
ARM GAS  /tmp/ccHALXLw.s 			page 38


 2048 01aa 00BF     		.align	2
 2049              	.L173:
 2050 01ac 00000000 		.word	.LC21
 2051 01b0 1C000000 		.word	.LC20
 2052 01b4 00000000 		.word	.LC19
 2053              		.cfi_endproc
 2054              	.LFE275:
 2055              		.size	parameter_msgpack_write_subtree.isra.0, .-parameter_msgpack_write_subtree.isra.0
 2056              		.section	.rodata.parameter_msgpack_read_cmp.str1.4,"aMS",%progbits,1
 2057              		.align	2
 2058              	.LC22:
 2059 0000 636F756C 		.ascii	"could not read namespace map\000"
 2059      64206E6F 
 2059      74207265 
 2059      6164206E 
 2059      616D6573 
 2060              		.section	.rodata.parameter_msgpack_read_cmp.cst4,"aM",%progbits,4
 2061              		.align	2
 2062              	.LC23:
 2063 0000 00000000 		.word	__stack_chk_guard
 2064              		.section	.text.parameter_msgpack_read_cmp,"ax",%progbits
 2065              		.align	1
 2066              		.p2align 4,,15
 2067              		.global	parameter_msgpack_read_cmp
 2068              		.syntax unified
 2069              		.thumb
 2070              		.thumb_func
 2071              		.fpu fpv4-sp-d16
 2072              		.type	parameter_msgpack_read_cmp, %function
 2073              	parameter_msgpack_read_cmp:
 2074              	.LVL217:
 2075              	.LFB264:
 2076              		.loc 1 383 1 view -0
 2077              		.cfi_startproc
 2078              		@ args = 0, pretend = 0, frame = 8
 2079              		@ frame_needed = 0, uses_anonymous_args = 0
 2080              		.loc 1 383 1 is_stmt 0 view .LVU517
 2081 0000 F0B5     		push	{r4, r5, r6, r7, lr}
 2082              		.cfi_def_cfa_offset 20
 2083              		.cfi_offset 4, -20
 2084              		.cfi_offset 5, -16
 2085              		.cfi_offset 6, -12
 2086              		.cfi_offset 7, -8
 2087              		.cfi_offset 14, -4
 2088 0002 0D46     		mov	r5, r1
 2089 0004 1349     		ldr	r1, .L183
 2090              	.LVL218:
 2091              		.loc 1 385 16 view .LVU518
 2092 0006 144C     		ldr	r4, .L183+4
 2093              		.loc 1 383 1 view .LVU519
 2094 0008 85B0     		sub	sp, sp, #20
 2095              		.cfi_def_cfa_offset 40
 2096              		.loc 1 383 1 view .LVU520
 2097 000a 0968     		ldr	r1, [r1]
 2098 000c 0391     		str	r1, [sp, #12]
 2099 000e 4FF00001 		mov	r1,#0
 2100              		.loc 1 384 5 is_stmt 1 view .LVU521
ARM GAS  /tmp/ccHALXLw.s 			page 39


 2101              		.loc 1 383 1 is_stmt 0 view .LVU522
 2102 0012 0746     		mov	r7, r0
 2103              		.loc 1 388 10 view .LVU523
 2104 0014 02A9     		add	r1, sp, #8
 2105 0016 2846     		mov	r0, r5
 2106              	.LVL219:
 2107              		.loc 1 383 1 view .LVU524
 2108 0018 1E46     		mov	r6, r3
 2109              		.loc 1 385 16 view .LVU525
 2110 001a 002A     		cmp	r2, #0
 2111 001c 18BF     		it	ne
 2112 001e 1446     		movne	r4, r2
 2113              	.LVL220:
 2114              		.loc 1 387 5 is_stmt 1 view .LVU526
 2115              		.loc 1 388 5 view .LVU527
 2116              		.loc 1 388 10 is_stmt 0 view .LVU528
 2117 0020 FFF7FEFF 		bl	cmp_read_map
 2118              	.LVL221:
 2119              		.loc 1 388 8 view .LVU529
 2120 0024 68B1     		cbz	r0, .L181
 2121              		.loc 1 392 5 is_stmt 1 view .LVU530
 2122              		.loc 1 392 12 is_stmt 0 view .LVU531
 2123 0026 0299     		ldr	r1, [sp, #8]
 2124 0028 0096     		str	r6, [sp]
 2125 002a 2346     		mov	r3, r4
 2126 002c 2A46     		mov	r2, r5
 2127 002e 3846     		mov	r0, r7
 2128 0030 FFF7FEFF 		bl	read_namespace
 2129              	.LVL222:
 2130              	.L175:
 2131              		.loc 1 393 1 view .LVU532
 2132 0034 074B     		ldr	r3, .L183
 2133 0036 1A68     		ldr	r2, [r3]
 2134 0038 039B     		ldr	r3, [sp, #12]
 2135 003a 5A40     		eors	r2, r3, r2
 2136 003c 08D1     		bne	.L182
 2137 003e 05B0     		add	sp, sp, #20
 2138              		.cfi_remember_state
 2139              		.cfi_def_cfa_offset 20
 2140              		@ sp needed
 2141 0040 F0BD     		pop	{r4, r5, r6, r7, pc}
 2142              	.LVL223:
 2143              	.L181:
 2144              		.cfi_restore_state
 2145              		.loc 1 389 9 is_stmt 1 view .LVU533
 2146 0042 0146     		mov	r1, r0
 2147 0044 054A     		ldr	r2, .L183+8
 2148 0046 3046     		mov	r0, r6
 2149 0048 A047     		blx	r4
 2150              	.LVL224:
 2151              		.loc 1 390 9 view .LVU534
 2152              		.loc 1 390 16 is_stmt 0 view .LVU535
 2153 004a 4FF0FF30 		mov	r0, #-1
 2154 004e F1E7     		b	.L175
 2155              	.L182:
 2156              		.loc 1 393 1 view .LVU536
 2157 0050 FFF7FEFF 		bl	__stack_chk_fail
ARM GAS  /tmp/ccHALXLw.s 			page 40


 2158              	.LVL225:
 2159              	.L184:
 2160              		.align	2
 2161              	.L183:
 2162 0054 00000000 		.word	.LC23
 2163 0058 00000000 		.word	err_ignore_cb
 2164 005c 00000000 		.word	.LC22
 2165              		.cfi_endproc
 2166              	.LFE264:
 2167              		.size	parameter_msgpack_read_cmp, .-parameter_msgpack_read_cmp
 2168              		.section	.rodata.parameter_msgpack_read.cst4,"aM",%progbits,4
 2169              		.align	2
 2170              	.LC24:
 2171 0000 00000000 		.word	__stack_chk_guard
 2172              		.section	.text.parameter_msgpack_read,"ax",%progbits
 2173              		.align	1
 2174              		.p2align 4,,15
 2175              		.global	parameter_msgpack_read
 2176              		.syntax unified
 2177              		.thumb
 2178              		.thumb_func
 2179              		.fpu fpv4-sp-d16
 2180              		.type	parameter_msgpack_read, %function
 2181              	parameter_msgpack_read:
 2182              	.LVL226:
 2183              	.LFB265:
 2184              		.loc 1 401 1 is_stmt 1 view -0
 2185              		.cfi_startproc
 2186              		@ args = 4, pretend = 0, frame = 32
 2187              		@ frame_needed = 0, uses_anonymous_args = 0
 2188              		.loc 1 401 1 is_stmt 0 view .LVU538
 2189 0000 70B5     		push	{r4, r5, r6, lr}
 2190              		.cfi_def_cfa_offset 16
 2191              		.cfi_offset 4, -16
 2192              		.cfi_offset 5, -12
 2193              		.cfi_offset 6, -8
 2194              		.cfi_offset 14, -4
 2195 0002 88B0     		sub	sp, sp, #32
 2196              		.cfi_def_cfa_offset 48
 2197              		.loc 1 401 1 view .LVU539
 2198 0004 1646     		mov	r6, r2
 2199              		.loc 1 404 5 view .LVU540
 2200 0006 0A46     		mov	r2, r1
 2201              	.LVL227:
 2202              		.loc 1 401 1 view .LVU541
 2203 0008 0D49     		ldr	r1, .L189
 2204              	.LVL228:
 2205              		.loc 1 401 1 view .LVU542
 2206 000a 1D46     		mov	r5, r3
 2207              		.loc 1 404 5 view .LVU543
 2208 000c 3346     		mov	r3, r6
 2209              	.LVL229:
 2210              		.loc 1 401 1 view .LVU544
 2211 000e 0C9E     		ldr	r6, [sp, #48]
 2212              	.LVL230:
 2213              		.loc 1 401 1 view .LVU545
 2214 0010 0446     		mov	r4, r0
ARM GAS  /tmp/ccHALXLw.s 			page 41


 2215 0012 0968     		ldr	r1, [r1]
 2216 0014 0791     		str	r1, [sp, #28]
 2217 0016 4FF00001 		mov	r1,#0
 2218              		.loc 1 402 5 is_stmt 1 view .LVU546
 2219              		.loc 1 403 5 view .LVU547
 2220              		.loc 1 404 5 view .LVU548
 2221 001a 03A8     		add	r0, sp, #12
 2222              	.LVL231:
 2223              		.loc 1 404 5 is_stmt 0 view .LVU549
 2224 001c 6946     		mov	r1, sp
 2225 001e FFF7FEFF 		bl	cmp_mem_access_ro_init
 2226              	.LVL232:
 2227              		.loc 1 405 5 is_stmt 1 view .LVU550
 2228              		.loc 1 405 12 is_stmt 0 view .LVU551
 2229 0022 3346     		mov	r3, r6
 2230 0024 2A46     		mov	r2, r5
 2231 0026 03A9     		add	r1, sp, #12
 2232 0028 2046     		mov	r0, r4
 2233 002a FFF7FEFF 		bl	parameter_msgpack_read_cmp
 2234              	.LVL233:
 2235              		.loc 1 406 1 view .LVU552
 2236 002e 044B     		ldr	r3, .L189
 2237 0030 1A68     		ldr	r2, [r3]
 2238 0032 079B     		ldr	r3, [sp, #28]
 2239 0034 5A40     		eors	r2, r3, r2
 2240 0036 01D1     		bne	.L188
 2241 0038 08B0     		add	sp, sp, #32
 2242              		.cfi_remember_state
 2243              		.cfi_def_cfa_offset 16
 2244              		@ sp needed
 2245 003a 70BD     		pop	{r4, r5, r6, pc}
 2246              	.LVL234:
 2247              	.L188:
 2248              		.cfi_restore_state
 2249              		.loc 1 406 1 view .LVU553
 2250 003c FFF7FEFF 		bl	__stack_chk_fail
 2251              	.LVL235:
 2252              	.L190:
 2253              		.align	2
 2254              	.L189:
 2255 0040 00000000 		.word	.LC24
 2256              		.cfi_endproc
 2257              	.LFE265:
 2258              		.size	parameter_msgpack_read, .-parameter_msgpack_read
 2259              		.section	.rodata.parameter_msgpack_write_cmp.cst4,"aM",%progbits,4
 2260              		.align	2
 2261              	.LC25:
 2262 0000 00000000 		.word	__stack_chk_guard
 2263              		.section	.text.parameter_msgpack_write_cmp,"ax",%progbits
 2264              		.align	1
 2265              		.p2align 4,,15
 2266              		.global	parameter_msgpack_write_cmp
 2267              		.syntax unified
 2268              		.thumb
 2269              		.thumb_func
 2270              		.fpu fpv4-sp-d16
 2271              		.type	parameter_msgpack_write_cmp, %function
ARM GAS  /tmp/ccHALXLw.s 			page 42


 2272              	parameter_msgpack_write_cmp:
 2273              	.LVL236:
 2274              	.LFB267:
 2275              		.loc 1 493 1 is_stmt 1 view -0
 2276              		.cfi_startproc
 2277              		@ args = 0, pretend = 0, frame = 8
 2278              		@ frame_needed = 0, uses_anonymous_args = 0
 2279              		.loc 1 493 1 is_stmt 0 view .LVU555
 2280 0000 F0B5     		push	{r4, r5, r6, r7, lr}
 2281              		.cfi_def_cfa_offset 20
 2282              		.cfi_offset 4, -20
 2283              		.cfi_offset 5, -16
 2284              		.cfi_offset 6, -12
 2285              		.cfi_offset 7, -8
 2286              		.cfi_offset 14, -4
 2287 0002 1F46     		mov	r7, r3
 2288 0004 1A4B     		ldr	r3, .L197
 2289              	.LVL237:
 2290              		.loc 1 493 1 view .LVU556
 2291 0006 85B0     		sub	sp, sp, #20
 2292              		.cfi_def_cfa_offset 40
 2293              		.loc 1 493 1 view .LVU557
 2294 0008 1B68     		ldr	r3, [r3]
 2295 000a 0393     		str	r3, [sp, #12]
 2296 000c 4FF00003 		mov	r3,#0
 2297              		.loc 1 494 5 is_stmt 1 view .LVU558
 2298              	.LBB191:
 2299              	.LBI191:
 2300              		.file 2 ".//ChibiOS//os/rt/include/chsys.h"
 2301              		.loc 2 346 20 view .LVU559
 2302              	.LBB192:
 2303              		.loc 2 348 3 view .LVU560
 2304              	.LBB193:
 2305              	.LBI193:
 2306              		.file 3 ".//ChibiOS//os/rt/ports/ARMCMx/chcore_v7m.h"
 2307              		.loc 3 444 20 view .LVU561
 2308              	.LBE193:
 2309              	.LBE192:
 2310              	.LBE191:
 2311              		.loc 3 447 3 view .LVU562
 2312              	.LVL238:
 2313              	.LBB202:
 2314              	.LBB200:
 2315              	.LBB198:
 2316              	.LBB194:
 2317              	.LBI194:
 2318              		.file 4 ".//ChibiOS//os/ext/CMSIS/include/core_cmFunc.h"
 2319              		.loc 4 544 57 view .LVU563
 2320              	.LBB195:
 2321              		.loc 4 546 3 view .LVU564
 2322              	.LBE195:
 2323              	.LBE194:
 2324              	.LBE198:
 2325              	.LBE200:
 2326              	.LBE202:
 2327              		.loc 1 493 1 is_stmt 0 view .LVU565
 2328 0010 0446     		mov	r4, r0
ARM GAS  /tmp/ccHALXLw.s 			page 43


 2329 0012 0D46     		mov	r5, r1
 2330 0014 1646     		mov	r6, r2
 2331              	.LBB203:
 2332              	.LBB201:
 2333              	.LBB199:
 2334              	.LBB197:
 2335              	.LBB196:
 2336              		.loc 4 546 3 view .LVU566
 2337 0016 2023     		movs	r3, #32
 2338              		.syntax unified
 2339              	@ 546 ".//ChibiOS//os/ext/CMSIS/include/core_cmFunc.h" 1
 2340 0018 83F31188 		MSR basepri, r3
 2341              	@ 0 "" 2
 2342              	.LVL239:
 2343              		.loc 4 546 3 view .LVU567
 2344              		.thumb
 2345              		.syntax unified
 2346              	.LBE196:
 2347              	.LBE197:
 2348              	.LBE199:
 2349              		.loc 2 349 3 is_stmt 1 view .LVU568
 2350 001c FFF7FEFF 		bl	_stats_start_measure_crit_thd
 2351              	.LVL240:
 2352              		.loc 2 350 3 view .LVU569
 2353 0020 FFF7FEFF 		bl	_dbg_check_lock
 2354              	.LVL241:
 2355              	.LBE201:
 2356              	.LBE203:
 2357              		.loc 1 494 21 view .LVU570
 2358              		.loc 1 495 5 view .LVU571
 2359 0024 3346     		mov	r3, r6
 2360 0026 2A46     		mov	r2, r5
 2361 0028 04F11401 		add	r1, r4, #20
 2362 002c 04F10C00 		add	r0, r4, #12
 2363 0030 0097     		str	r7, [sp]
 2364 0032 FFF7FEFF 		bl	parameter_msgpack_write_subtree.isra.0
 2365              	.LVL242:
 2366              		.loc 1 496 5 view .LVU572
 2367              	.LBB204:
 2368              	.LBI204:
 2369              		.loc 2 358 20 view .LVU573
 2370              	.LBB205:
 2371              		.loc 2 360 3 view .LVU574
 2372 0036 FFF7FEFF 		bl	_dbg_check_unlock
 2373              	.LVL243:
 2374              		.loc 2 361 3 view .LVU575
 2375 003a FFF7FEFF 		bl	_stats_stop_measure_crit_thd
 2376              	.LVL244:
 2377              		.loc 2 367 3 view .LVU576
 2378              		.loc 2 367 3 view .LVU577
 2379              		.loc 2 367 3 view .LVU578
 2380 003e 0D4B     		ldr	r3, .L197+4
 2381 0040 1A68     		ldr	r2, [r3]
 2382 0042 9A42     		cmp	r2, r3
 2383 0044 04D0     		beq	.L192
 2384 0046 9969     		ldr	r1, [r3, #24]
 2385 0048 9368     		ldr	r3, [r2, #8]
ARM GAS  /tmp/ccHALXLw.s 			page 44


 2386 004a 8A68     		ldr	r2, [r1, #8]
 2387 004c 9A42     		cmp	r2, r3
 2388 004e 09D3     		bcc	.L195
 2389              	.L192:
 2390              		.loc 2 367 3 view .LVU579
 2391              		.loc 2 371 3 view .LVU580
 2392              	.LBB206:
 2393              	.LBI206:
 2394              		.loc 3 458 20 view .LVU581
 2395              	.LBE206:
 2396              	.LBE205:
 2397              	.LBE204:
 2398              		.loc 3 461 3 view .LVU582
 2399              	.LVL245:
 2400              	.LBB212:
 2401              	.LBB210:
 2402              	.LBB209:
 2403              	.LBB207:
 2404              	.LBI207:
 2405              		.loc 4 544 57 view .LVU583
 2406              	.LBB208:
 2407              		.loc 4 546 3 view .LVU584
 2408 0050 0023     		movs	r3, #0
 2409              		.syntax unified
 2410              	@ 546 ".//ChibiOS//os/ext/CMSIS/include/core_cmFunc.h" 1
 2411 0052 83F31188 		MSR basepri, r3
 2412              	@ 0 "" 2
 2413              	.LVL246:
 2414              		.loc 4 546 3 is_stmt 0 view .LVU585
 2415              		.thumb
 2416              		.syntax unified
 2417              	.LBE208:
 2418              	.LBE207:
 2419              	.LBE209:
 2420              	.LBE210:
 2421              	.LBE212:
 2422              		.loc 1 496 23 is_stmt 1 view .LVU586
 2423              		.loc 1 497 1 is_stmt 0 view .LVU587
 2424 0056 064B     		ldr	r3, .L197
 2425 0058 1A68     		ldr	r2, [r3]
 2426 005a 039B     		ldr	r3, [sp, #12]
 2427 005c 5A40     		eors	r2, r3, r2
 2428 005e 05D1     		bne	.L196
 2429 0060 05B0     		add	sp, sp, #20
 2430              		.cfi_remember_state
 2431              		.cfi_def_cfa_offset 20
 2432              		@ sp needed
 2433 0062 F0BD     		pop	{r4, r5, r6, r7, pc}
 2434              	.LVL247:
 2435              	.L195:
 2436              		.cfi_restore_state
 2437              	.LBB213:
 2438              	.LBB211:
 2439              		.loc 2 367 3 is_stmt 1 view .LVU588
 2440 0064 0448     		ldr	r0, .L197+8
 2441 0066 FFF7FEFF 		bl	chSysHalt
 2442              	.LVL248:
ARM GAS  /tmp/ccHALXLw.s 			page 45


 2443 006a F1E7     		b	.L192
 2444              	.L196:
 2445              	.LBE211:
 2446              	.LBE213:
 2447              		.loc 1 497 1 is_stmt 0 view .LVU589
 2448 006c FFF7FEFF 		bl	__stack_chk_fail
 2449              	.LVL249:
 2450              	.L198:
 2451              		.align	2
 2452              	.L197:
 2453 0070 00000000 		.word	.LC25
 2454 0074 00000000 		.word	ch
 2455 0078 00000000 		.word	.LANCHOR0
 2456              		.cfi_endproc
 2457              	.LFE267:
 2458              		.size	parameter_msgpack_write_cmp, .-parameter_msgpack_write_cmp
 2459              		.section	.rodata.parameter_msgpack_write.cst4,"aM",%progbits,4
 2460              		.align	2
 2461              	.LC26:
 2462 0000 00000000 		.word	__stack_chk_guard
 2463              		.section	.text.parameter_msgpack_write,"ax",%progbits
 2464              		.align	1
 2465              		.p2align 4,,15
 2466              		.global	parameter_msgpack_write
 2467              		.syntax unified
 2468              		.thumb
 2469              		.thumb_func
 2470              		.fpu fpv4-sp-d16
 2471              		.type	parameter_msgpack_write, %function
 2472              	parameter_msgpack_write:
 2473              	.LVL250:
 2474              	.LFB268:
 2475              		.loc 1 505 1 is_stmt 1 view -0
 2476              		.cfi_startproc
 2477              		@ args = 4, pretend = 0, frame = 32
 2478              		@ frame_needed = 0, uses_anonymous_args = 0
 2479              		.loc 1 505 1 is_stmt 0 view .LVU591
 2480 0000 70B5     		push	{r4, r5, r6, lr}
 2481              		.cfi_def_cfa_offset 16
 2482              		.cfi_offset 4, -16
 2483              		.cfi_offset 5, -12
 2484              		.cfi_offset 6, -8
 2485              		.cfi_offset 14, -4
 2486 0002 88B0     		sub	sp, sp, #32
 2487              		.cfi_def_cfa_offset 48
 2488              		.loc 1 505 1 view .LVU592
 2489 0004 1646     		mov	r6, r2
 2490              		.loc 1 508 5 view .LVU593
 2491 0006 0A46     		mov	r2, r1
 2492              	.LVL251:
 2493              		.loc 1 505 1 view .LVU594
 2494 0008 0D49     		ldr	r1, .L203
 2495              	.LVL252:
 2496              		.loc 1 505 1 view .LVU595
 2497 000a 1D46     		mov	r5, r3
 2498              		.loc 1 508 5 view .LVU596
 2499 000c 3346     		mov	r3, r6
ARM GAS  /tmp/ccHALXLw.s 			page 46


 2500              	.LVL253:
 2501              		.loc 1 505 1 view .LVU597
 2502 000e 0C9E     		ldr	r6, [sp, #48]
 2503              	.LVL254:
 2504              		.loc 1 505 1 view .LVU598
 2505 0010 0446     		mov	r4, r0
 2506 0012 0968     		ldr	r1, [r1]
 2507 0014 0791     		str	r1, [sp, #28]
 2508 0016 4FF00001 		mov	r1,#0
 2509              		.loc 1 506 5 is_stmt 1 view .LVU599
 2510              		.loc 1 507 5 view .LVU600
 2511              		.loc 1 508 5 view .LVU601
 2512 001a 03A8     		add	r0, sp, #12
 2513              	.LVL255:
 2514              		.loc 1 508 5 is_stmt 0 view .LVU602
 2515 001c 6946     		mov	r1, sp
 2516 001e FFF7FEFF 		bl	cmp_mem_access_init
 2517              	.LVL256:
 2518              		.loc 1 509 5 is_stmt 1 view .LVU603
 2519 0022 3346     		mov	r3, r6
 2520 0024 2A46     		mov	r2, r5
 2521 0026 03A9     		add	r1, sp, #12
 2522 0028 2046     		mov	r0, r4
 2523 002a FFF7FEFF 		bl	parameter_msgpack_write_cmp
 2524              	.LVL257:
 2525              		.loc 1 510 1 is_stmt 0 view .LVU604
 2526 002e 044B     		ldr	r3, .L203
 2527 0030 1A68     		ldr	r2, [r3]
 2528 0032 079B     		ldr	r3, [sp, #28]
 2529 0034 5A40     		eors	r2, r3, r2
 2530 0036 01D1     		bne	.L202
 2531 0038 08B0     		add	sp, sp, #32
 2532              		.cfi_remember_state
 2533              		.cfi_def_cfa_offset 16
 2534              		@ sp needed
 2535 003a 70BD     		pop	{r4, r5, r6, pc}
 2536              	.LVL258:
 2537              	.L202:
 2538              		.cfi_restore_state
 2539              		.loc 1 510 1 view .LVU605
 2540 003c FFF7FEFF 		bl	__stack_chk_fail
 2541              	.LVL259:
 2542              	.L204:
 2543              		.align	2
 2544              	.L203:
 2545 0040 00000000 		.word	.LC26
 2546              		.cfi_endproc
 2547              	.LFE268:
 2548              		.size	parameter_msgpack_write, .-parameter_msgpack_write
 2549              		.section	.rodata.__func__.8677,"a"
 2550              		.align	2
 2551              		.set	.LANCHOR0,. + 0
 2552              		.type	__func__.8677, %object
 2553              		.size	__func__.8677, 12
 2554              	__func__.8677:
 2555 0000 63685379 		.ascii	"chSysUnlock\000"
 2555      73556E6C 
ARM GAS  /tmp/ccHALXLw.s 			page 47


 2555      6F636B00 
 2556              		.text
 2557              	.Letext0:
 2558              		.file 5 "/usr/lib/gcc/arm-none-eabi/9.2.1/include/stddef.h"
 2559              		.file 6 "/usr/include/newlib/sys/_types.h"
 2560              		.file 7 "/usr/include/newlib/sys/reent.h"
 2561              		.file 8 "/usr/include/newlib/sys/lock.h"
 2562              		.file 9 "/usr/include/newlib/stdlib.h"
 2563              		.file 10 "/usr/lib/gcc/arm-none-eabi/9.2.1/include/stdint.h"
 2564              		.file 11 ".//src/cmp/cmp.h"
 2565              		.file 12 ".//src/cmp_mem_access/cmp_mem_access.h"
 2566              		.file 13 ".//ChibiOS//os/rt/ports/ARMCMx/compilers/GCC/chtypes.h"
 2567              		.file 14 ".//ChibiOS//os/rt/include/chsystypes.h"
 2568              		.file 15 ".//ChibiOS//os/rt/include/chschd.h"
 2569              		.file 16 ".//ChibiOS//os/ext/CMSIS/include/core_cm4.h"
 2570              		.file 17 ".//ChibiOS//os/ext/CMSIS/ST/system_stm32f4xx.h"
 2571              		.file 18 ".//ChibiOS//os/rt/ports/ARMCMx/chcore.h"
 2572              		.file 19 ".//ChibiOS//os/rt/include/chdebug.h"
 2573              		.file 20 ".//ChibiOS//os/rt/include/chtm.h"
 2574              		.file 21 ".//ChibiOS//os/rt/include/chstats.h"
 2575              		.file 22 ".//ChibiOS//os/rt/include/chsem.h"
 2576              		.file 23 ".//ChibiOS//os/rt/include/chmtx.h"
 2577              		.file 24 ".//ChibiOS//os/rt/include/chregistry.h"
 2578              		.file 25 ".//src/parameter/parameter.h"
 2579              		.file 26 ".//src/parameter/parameter_msgpack.h"
 2580              		.file 27 "/usr/include/newlib/string.h"