ARM GAS  /tmp/ccjy9eIL.s 			page 1


   1              		.cpu cortex-m4
   2              		.eabi_attribute 27, 1
   3              		.eabi_attribute 28, 1
   4              		.eabi_attribute 20, 1
   5              		.eabi_attribute 21, 1
   6              		.eabi_attribute 23, 3
   7              		.eabi_attribute 24, 1
   8              		.eabi_attribute 25, 1
   9              		.eabi_attribute 26, 1
  10              		.eabi_attribute 30, 2
  11              		.eabi_attribute 34, 1
  12              		.eabi_attribute 18, 4
  13              		.file	"parameter_print.c"
  14              		.text
  15              	.Ltext0:
  16              		.cfi_sections	.debug_frame
  17              		.section	.rodata.print_array.str1.4,"aMS",%progbits,1
  18              		.align	2
  19              	.LC0:
  20 0000 5B00     		.ascii	"[\000"
  21 0002 0000     		.align	2
  22              	.LC1:
  23 0004 5D0A00   		.ascii	"]\012\000"
  24              		.global	__aeabi_f2d
  25 0007 00       		.align	2
  26              	.LC2:
  27 0008 256600   		.ascii	"%f\000"
  28 000b 00       		.align	2
  29              	.LC3:
  30 000c 25662C20 		.ascii	"%f, \000"
  30      00
  31              		.section	.rodata.print_array.cst4,"aM",%progbits,4
  32              		.align	2
  33              	.LC4:
  34 0000 00000000 		.word	__stack_chk_guard
  35              		.section	.text.print_array,"ax",%progbits
  36              		.align	1
  37              		.p2align 4,,15
  38              		.arch armv7e-m
  39              		.syntax unified
  40              		.thumb
  41              		.thumb_func
  42              		.fpu fpv4-sp-d16
  43              		.type	print_array, %function
  44              	print_array:
  45              	.LVL0:
  46              	.LFB1:
  47              		.file 1 ".//src/parameter/parameter_print.c"
  48              		.loc 1 22 1 view -0
  49              		.cfi_startproc
  50              		@ args = 0, pretend = 0, frame = 8
  51              		@ frame_needed = 0, uses_anonymous_args = 0
  52              		.loc 1 22 1 is_stmt 0 view .LVU1
  53 0000 2DE9F04F 		push	{r4, r5, r6, r7, r8, r9, r10, fp, lr}
  54              		.cfi_def_cfa_offset 36
  55              		.cfi_offset 4, -36
  56              		.cfi_offset 5, -32
ARM GAS  /tmp/ccjy9eIL.s 			page 2


  57              		.cfi_offset 6, -28
  58              		.cfi_offset 7, -24
  59              		.cfi_offset 8, -20
  60              		.cfi_offset 9, -16
  61              		.cfi_offset 10, -12
  62              		.cfi_offset 11, -8
  63              		.cfi_offset 14, -4
  64 0004 1F46     		mov	r7, r3
  65 0006 204B     		ldr	r3, .L13
  66              	.LVL1:
  67              		.loc 1 22 1 view .LVU2
  68 0008 83B0     		sub	sp, sp, #12
  69              		.cfi_def_cfa_offset 48
  70              		.loc 1 22 1 view .LVU3
  71 000a 8846     		mov	r8, r1
  72 000c 0546     		mov	r5, r0
  73              		.loc 1 23 5 view .LVU4
  74 000e 1F49     		ldr	r1, .L13+4
  75              	.LVL2:
  76              		.loc 1 22 1 view .LVU5
  77 0010 1B68     		ldr	r3, [r3]
  78 0012 0193     		str	r3, [sp, #4]
  79 0014 4FF00003 		mov	r3,#0
  80              		.loc 1 23 5 is_stmt 1 view .LVU6
  81 0018 3846     		mov	r0, r7
  82              	.LVL3:
  83              		.loc 1 22 1 is_stmt 0 view .LVU7
  84 001a 1646     		mov	r6, r2
  85              		.loc 1 23 5 view .LVU8
  86 001c 9047     		blx	r2
  87              	.LVL4:
  88              		.loc 1 24 5 is_stmt 1 view .LVU9
  89              		.loc 1 25 5 view .LVU10
  90              		.loc 1 25 17 view .LVU11
  91              		.loc 1 25 5 is_stmt 0 view .LVU12
  92 001e B8F1000F 		cmp	r8, #0
  93 0022 22D0     		beq	.L7
  94              		.loc 1 29 13 view .LVU13
  95 0024 DFF86CA0 		ldr	r10, .L13+12
  96              		.loc 1 27 13 view .LVU14
  97 0028 DFF86CB0 		ldr	fp, .L13+16
  98 002c 08F1FF39 		add	r9, r8, #-1
  99              		.loc 1 25 12 view .LVU15
 100 0030 0024     		movs	r4, #0
 101 0032 0BE0     		b	.L6
 102              	.LVL5:
 103              	.L4:
 104              		.loc 1 29 13 is_stmt 1 view .LVU16
 105 0034 FFF7FEFF 		bl	__aeabi_f2d
 106              	.LVL6:
 107              		.loc 1 25 27 is_stmt 0 view .LVU17
 108 0038 0134     		adds	r4, r4, #1
 109              	.LVL7:
 110              		.loc 1 29 13 view .LVU18
 111 003a 0246     		mov	r2, r0
 112 003c 0B46     		mov	r3, r1
 113 003e 3846     		mov	r0, r7
ARM GAS  /tmp/ccjy9eIL.s 			page 3


 114 0040 5146     		mov	r1, r10
 115 0042 B047     		blx	r6
 116              	.LVL8:
 117              		.loc 1 25 26 is_stmt 1 view .LVU19
 118              		.loc 1 25 17 view .LVU20
 119              		.loc 1 25 5 is_stmt 0 view .LVU21
 120 0044 A045     		cmp	r8, r4
 121 0046 05F10405 		add	r5, r5, #4
 122 004a 0ED0     		beq	.L7
 123              	.LVL9:
 124              	.L6:
 125              		.loc 1 26 9 is_stmt 1 view .LVU22
 126              		.loc 1 26 12 is_stmt 0 view .LVU23
 127 004c 4C45     		cmp	r4, r9
 128              		.loc 1 27 13 view .LVU24
 129 004e 2868     		ldr	r0, [r5]	@ float
 130              		.loc 1 26 12 view .LVU25
 131 0050 F0D1     		bne	.L4
 132              		.loc 1 27 13 is_stmt 1 view .LVU26
 133 0052 FFF7FEFF 		bl	__aeabi_f2d
 134              	.LVL10:
 135              		.loc 1 25 27 is_stmt 0 view .LVU27
 136 0056 0134     		adds	r4, r4, #1
 137              	.LVL11:
 138              		.loc 1 27 13 view .LVU28
 139 0058 0246     		mov	r2, r0
 140 005a 0B46     		mov	r3, r1
 141 005c 3846     		mov	r0, r7
 142 005e 5946     		mov	r1, fp
 143 0060 B047     		blx	r6
 144              	.LVL12:
 145              		.loc 1 25 26 is_stmt 1 view .LVU29
 146              		.loc 1 25 17 view .LVU30
 147              		.loc 1 25 5 is_stmt 0 view .LVU31
 148 0062 A045     		cmp	r8, r4
 149 0064 05F10405 		add	r5, r5, #4
 150 0068 F0D1     		bne	.L6
 151              	.LVL13:
 152              	.L7:
 153              		.loc 1 32 5 is_stmt 1 view .LVU32
 154 006a 074B     		ldr	r3, .L13
 155 006c 1A68     		ldr	r2, [r3]
 156 006e 019B     		ldr	r3, [sp, #4]
 157 0070 5A40     		eors	r2, r3, r2
 158 0072 06D1     		bne	.L12
 159 0074 0649     		ldr	r1, .L13+8
 160 0076 3846     		mov	r0, r7
 161 0078 3346     		mov	r3, r6
 162              		.loc 1 33 1 is_stmt 0 view .LVU33
 163 007a 03B0     		add	sp, sp, #12
 164              		.cfi_remember_state
 165              		.cfi_def_cfa_offset 36
 166              		@ sp needed
 167 007c BDE8F04F 		pop	{r4, r5, r6, r7, r8, r9, r10, fp, lr}
 168              		.cfi_restore 14
 169              		.cfi_restore 11
 170              		.cfi_restore 10
ARM GAS  /tmp/ccjy9eIL.s 			page 4


 171              		.cfi_restore 9
 172              		.cfi_restore 8
 173              		.cfi_restore 7
 174              		.cfi_restore 6
 175              		.cfi_restore 5
 176              		.cfi_restore 4
 177              		.cfi_def_cfa_offset 0
 178              	.LVL14:
 179              		.loc 1 32 5 view .LVU34
 180 0080 1847     		bx	r3
 181              	.LVL15:
 182              	.L12:
 183              		.cfi_restore_state
 184              		.loc 1 32 5 view .LVU35
 185 0082 FFF7FEFF 		bl	__stack_chk_fail
 186              	.LVL16:
 187              	.L14:
 188 0086 00BF     		.align	2
 189              	.L13:
 190 0088 00000000 		.word	.LC4
 191 008c 00000000 		.word	.LC0
 192 0090 04000000 		.word	.LC1
 193 0094 0C000000 		.word	.LC3
 194 0098 08000000 		.word	.LC2
 195              		.cfi_endproc
 196              	.LFE1:
 197              		.size	print_array, .-print_array
 198              		.section	.rodata.param_ns_print.isra.0.str1.4,"aMS",%progbits,1
 199              		.align	2
 200              	.LC5:
 201 0000 74727565 		.ascii	"true\000"
 201      00
 202 0005 000000   		.align	2
 203              	.LC6:
 204 0008 66616C73 		.ascii	"false\000"
 204      6500
 205 000e 0000     		.align	2
 206              	.LC7:
 207 0010 202000   		.ascii	"  \000"
 208 0013 00       		.align	2
 209              	.LC8:
 210 0014 25733A20 		.ascii	"%s: \000"
 210      00
 211 0019 000000   		.align	2
 212              	.LC9:
 213 001c 7E0A00   		.ascii	"~\012\000"
 214 001f 00       		.align	2
 215              	.LC10:
 216 0020 25660A00 		.ascii	"%f\012\000"
 217              		.align	2
 218              	.LC11:
 219 0024 25640A00 		.ascii	"%d\012\000"
 220              		.align	2
 221              	.LC12:
 222 0028 25730A00 		.ascii	"%s\012\000"
 223              		.align	2
 224              	.LC13:
ARM GAS  /tmp/ccjy9eIL.s 			page 5


 225 002c 22257322 		.ascii	"\"%s\"\012\000"
 225      0A00
 226 0032 0000     		.align	2
 227              	.LC14:
 228 0034 23207761 		.ascii	"# warning: malloc failed during serialization!\000"
 228      726E696E 
 228      673A206D 
 228      616C6C6F 
 228      63206661 
 229 0063 00       		.align	2
 230              	.LC15:
 231 0064 22222025 		.ascii	"\"\" %s\012\000"
 231      730A00
 232 006b 00       		.align	2
 233              	.LC16:
 234 006c 5B5D2025 		.ascii	"[] %s\012\000"
 234      730A00
 235 0073 00       		.align	2
 236              	.LC17:
 237 0074 25733A0A 		.ascii	"%s:\012\000"
 237      00
 238              		.section	.rodata.param_ns_print.isra.0.cst4,"aM",%progbits,4
 239              		.align	2
 240              	.LC18:
 241 0000 00000000 		.word	__stack_chk_guard
 242              		.section	.text.param_ns_print.isra.0,"ax",%progbits
 243              		.align	1
 244              		.p2align 4,,15
 245              		.syntax unified
 246              		.thumb
 247              		.thumb_func
 248              		.fpu fpv4-sp-d16
 249              		.type	param_ns_print.isra.0, %function
 250              	param_ns_print.isra.0:
 251              	.LVL17:
 252              	.LFB5:
 253              		.loc 1 100 13 is_stmt 1 view -0
 254              		.cfi_startproc
 255              		@ args = 4, pretend = 0, frame = 16
 256              		@ frame_needed = 0, uses_anonymous_args = 0
 257              		.loc 1 100 13 is_stmt 0 view .LVU37
 258 0000 2DE9F04F 		push	{r4, r5, r6, r7, r8, r9, r10, fp, lr}
 259              		.cfi_def_cfa_offset 36
 260              		.cfi_offset 4, -36
 261              		.cfi_offset 5, -32
 262              		.cfi_offset 6, -28
 263              		.cfi_offset 7, -24
 264              		.cfi_offset 8, -20
 265              		.cfi_offset 9, -16
 266              		.cfi_offset 10, -12
 267              		.cfi_offset 11, -8
 268              		.cfi_offset 14, -4
 269 0004 87B0     		sub	sp, sp, #28
 270              		.cfi_def_cfa_offset 64
 271              		.loc 1 100 13 view .LVU38
 272 0006 1C46     		mov	r4, r3
 273 0008 6B4B     		ldr	r3, .L62
ARM GAS  /tmp/ccjy9eIL.s 			page 6


 274              	.LVL18:
 275              		.loc 1 100 13 view .LVU39
 276 000a 0290     		str	r0, [sp, #8]
 277 000c 109D     		ldr	r5, [sp, #64]
 278 000e 1646     		mov	r6, r2
 279 0010 1B68     		ldr	r3, [r3]
 280 0012 0593     		str	r3, [sp, #20]
 281 0014 4FF00003 		mov	r3,#0
 282              		.loc 1 105 5 is_stmt 1 view .LVU40
 283              	.LVL19:
 284              		.loc 1 106 5 view .LVU41
 285              		.loc 1 106 11 view .LVU42
 286 0018 0029     		cmp	r1, #0
 287 001a 3DD0     		beq	.L17
 288              	.LBB20:
 289              	.LBB21:
 290              	.LBB22:
 291              	.LBB23:
 292              		.loc 1 13 9 is_stmt 0 view .LVU43
 293 001c DFF8C481 		ldr	r8, .L62+44
 294              	.LBE23:
 295              	.LBE22:
 296              		.loc 1 42 5 view .LVU44
 297 0020 DFF8C491 		ldr	r9, .L62+48
 298 0024 0F46     		mov	r7, r1
 299              	.LVL20:
 300              	.L16:
 301              	.LBB25:
 302              	.LBB24:
 303              		.loc 1 12 17 is_stmt 1 view .LVU45
 304              		.loc 1 12 5 is_stmt 0 view .LVU46
 305 0026 002E     		cmp	r6, #0
 306              		.loc 1 12 12 view .LVU47
 307 0028 C8BF     		it	gt
 308 002a 4FF0000A 		movgt	r10, #0
 309              		.loc 1 12 5 view .LVU48
 310 002e 06DD     		ble	.L31
 311              	.LVL21:
 312              	.L18:
 313              		.loc 1 13 9 is_stmt 1 view .LVU49
 314              		.loc 1 12 34 is_stmt 0 view .LVU50
 315 0030 0AF1010A 		add	r10, r10, #1
 316              	.LVL22:
 317              		.loc 1 13 9 view .LVU51
 318 0034 4146     		mov	r1, r8
 319 0036 2846     		mov	r0, r5
 320 0038 A047     		blx	r4
 321              	.LVL23:
 322              		.loc 1 12 33 is_stmt 1 view .LVU52
 323              		.loc 1 12 17 view .LVU53
 324              		.loc 1 12 5 is_stmt 0 view .LVU54
 325 003a 5645     		cmp	r6, r10
 326 003c F8D1     		bne	.L18
 327              	.LVL24:
 328              	.L31:
 329              		.loc 1 12 5 view .LVU55
 330              	.LBE24:
ARM GAS  /tmp/ccjy9eIL.s 			page 7


 331              	.LBE25:
 332              		.loc 1 42 5 is_stmt 1 view .LVU56
 333 003e 3A68     		ldr	r2, [r7]
 334 0040 4946     		mov	r1, r9
 335 0042 2846     		mov	r0, r5
 336 0044 A047     		blx	r4
 337              	.LVL25:
 338              		.loc 1 43 5 view .LVU57
 339              		.loc 1 43 10 is_stmt 0 view .LVU58
 340 0046 3846     		mov	r0, r7
 341 0048 FFF7FEFF 		bl	parameter_defined
 342              	.LVL26:
 343              		.loc 1 43 8 view .LVU59
 344 004c 0028     		cmp	r0, #0
 345 004e 00F0A380 		beq	.L60
 346              		.loc 1 47 5 is_stmt 1 view .LVU60
 347 0052 BB7B     		ldrb	r3, [r7, #14]	@ zero_extendqisi2
 348 0054 013B     		subs	r3, r3, #1
 349 0056 052B     		cmp	r3, #5
 350 0058 1BD8     		bhi	.L20
 351 005a DFE803F0 		tbb	[pc, r3]
 352              	.L22:
 353 005e 7C       		.byte	(.L27-.L22)/2
 354 005f 91       		.byte	(.L26-.L22)/2
 355 0060 89       		.byte	(.L25-.L22)/2
 356 0061 66       		.byte	(.L24-.L22)/2
 357 0062 4E       		.byte	(.L23-.L22)/2
 358 0063 03       		.byte	(.L21-.L22)/2
 359              		.p2align 1
 360              	.L21:
 361              	.LBB26:
 362              		.loc 1 85 9 view .LVU61
 363              		.loc 1 85 19 is_stmt 0 view .LVU62
 364 0064 3846     		mov	r0, r7
 365 0066 FFF7FEFF 		bl	parameter_variable_vector_max_dim
 366              	.LVL27:
 367              		.loc 1 86 9 is_stmt 1 view .LVU63
 368              		.loc 1 86 20 is_stmt 0 view .LVU64
 369 006a 8000     		lsls	r0, r0, #2
 370              	.LVL28:
 371              		.loc 1 86 20 view .LVU65
 372 006c FFF7FEFF 		bl	malloc
 373              	.LVL29:
 374              		.loc 1 87 9 is_stmt 1 view .LVU66
 375              		.loc 1 87 12 is_stmt 0 view .LVU67
 376 0070 8246     		mov	r10, r0
 377 0072 0028     		cmp	r0, #0
 378 0074 00F09480 		beq	.L30
 379              		.loc 1 88 13 is_stmt 1 view .LVU68
 380              		.loc 1 88 19 is_stmt 0 view .LVU69
 381 0078 0146     		mov	r1, r0
 382 007a 3846     		mov	r0, r7
 383              	.LVL30:
 384              		.loc 1 88 19 view .LVU70
 385 007c FFF7FEFF 		bl	parameter_variable_vector_read
 386              	.LVL31:
 387              		.loc 1 89 13 view .LVU71
ARM GAS  /tmp/ccjy9eIL.s 			page 8


 388 0080 2B46     		mov	r3, r5
 389              		.loc 1 88 19 view .LVU72
 390 0082 0146     		mov	r1, r0
 391              	.LVL32:
 392              		.loc 1 89 13 is_stmt 1 view .LVU73
 393 0084 2246     		mov	r2, r4
 394 0086 5046     		mov	r0, r10
 395 0088 FFF7FEFF 		bl	print_array
 396              	.LVL33:
 397              		.loc 1 90 13 view .LVU74
 398 008c 5046     		mov	r0, r10
 399 008e FFF7FEFF 		bl	free
 400              	.LVL34:
 401              	.L20:
 402              		.loc 1 90 13 is_stmt 0 view .LVU75
 403              	.LBE26:
 404              	.LBE21:
 405              	.LBE20:
 406              		.loc 1 108 9 is_stmt 1 view .LVU76
 407              		.loc 1 108 11 is_stmt 0 view .LVU77
 408 0092 BF68     		ldr	r7, [r7, #8]
 409              	.LVL35:
 410              		.loc 1 106 11 is_stmt 1 view .LVU78
 411 0094 002F     		cmp	r7, #0
 412 0096 C6D1     		bne	.L16
 413              	.LVL36:
 414              	.L17:
 415              		.loc 1 110 5 view .LVU79
 416              		.loc 1 110 28 is_stmt 0 view .LVU80
 417 0098 029B     		ldr	r3, [sp, #8]
 418 009a D3F80090 		ldr	r9, [r3]
 419              	.LVL37:
 420              		.loc 1 111 5 is_stmt 1 view .LVU81
 421              		.loc 1 111 11 view .LVU82
 422 009e B9F1000F 		cmp	r9, #0
 423 00a2 22D0     		beq	.L15
 424              	.LBB33:
 425              	.LBB34:
 426              		.loc 1 13 9 is_stmt 0 view .LVU83
 427 00a4 DFF83C81 		ldr	r8, .L62+44
 428              	.LBE34:
 429              	.LBE33:
 430              		.loc 1 113 9 view .LVU84
 431 00a8 DFF840A1 		ldr	r10, .L62+52
 432 00ac 06F1010B 		add	fp, r6, #1
 433              	.L33:
 434              	.LVL38:
 435              	.LBB36:
 436              	.LBB35:
 437              		.loc 1 12 17 is_stmt 1 view .LVU85
 438              		.loc 1 12 5 is_stmt 0 view .LVU86
 439 00b0 002E     		cmp	r6, #0
 440              		.loc 1 12 12 view .LVU87
 441 00b2 C8BF     		it	gt
 442 00b4 0027     		movgt	r7, #0
 443              		.loc 1 12 5 view .LVU88
 444 00b6 05DD     		ble	.L35
ARM GAS  /tmp/ccjy9eIL.s 			page 9


 445              	.LVL39:
 446              	.L34:
 447              		.loc 1 13 9 is_stmt 1 view .LVU89
 448              		.loc 1 12 34 is_stmt 0 view .LVU90
 449 00b8 0137     		adds	r7, r7, #1
 450              	.LVL40:
 451              		.loc 1 13 9 view .LVU91
 452 00ba 4146     		mov	r1, r8
 453 00bc 2846     		mov	r0, r5
 454 00be A047     		blx	r4
 455              	.LVL41:
 456              		.loc 1 12 33 is_stmt 1 view .LVU92
 457              		.loc 1 12 17 view .LVU93
 458              		.loc 1 12 5 is_stmt 0 view .LVU94
 459 00c0 BE42     		cmp	r6, r7
 460 00c2 F9D1     		bne	.L34
 461              	.LVL42:
 462              	.L35:
 463              		.loc 1 12 5 view .LVU95
 464              	.LBE35:
 465              	.LBE36:
 466              		.loc 1 113 9 is_stmt 1 view .LVU96
 467 00c4 D9F80020 		ldr	r2, [r9]
 468 00c8 5146     		mov	r1, r10
 469 00ca 2846     		mov	r0, r5
 470 00cc A047     		blx	r4
 471              	.LVL43:
 472              		.loc 1 114 9 view .LVU97
 473 00ce D9F81410 		ldr	r1, [r9, #20]
 474 00d2 0095     		str	r5, [sp]
 475 00d4 09F10C00 		add	r0, r9, #12
 476 00d8 2346     		mov	r3, r4
 477 00da 5A46     		mov	r2, fp
 478 00dc FFF790FF 		bl	param_ns_print.isra.0
 479              	.LVL44:
 480              		.loc 1 115 9 view .LVU98
 481              		.loc 1 115 11 is_stmt 0 view .LVU99
 482 00e0 D9F81090 		ldr	r9, [r9, #16]
 483              	.LVL45:
 484              		.loc 1 111 11 is_stmt 1 view .LVU100
 485 00e4 B9F1000F 		cmp	r9, #0
 486 00e8 E2D1     		bne	.L33
 487              	.L15:
 488              		.loc 1 117 1 is_stmt 0 view .LVU101
 489 00ea 334B     		ldr	r3, .L62
 490 00ec 1A68     		ldr	r2, [r3]
 491 00ee 059B     		ldr	r3, [sp, #20]
 492 00f0 5A40     		eors	r2, r3, r2
 493 00f2 5AD1     		bne	.L61
 494 00f4 07B0     		add	sp, sp, #28
 495              		.cfi_remember_state
 496              		.cfi_def_cfa_offset 36
 497              		@ sp needed
 498 00f6 BDE8F08F 		pop	{r4, r5, r6, r7, r8, r9, r10, fp, pc}
 499              	.LVL46:
 500              	.L23:
 501              		.cfi_restore_state
ARM GAS  /tmp/ccjy9eIL.s 			page 10


 502              	.LBB37:
 503              	.LBB31:
 504              	.LBB27:
 505              		.loc 1 73 9 is_stmt 1 view .LVU102
 506              		.loc 1 73 19 is_stmt 0 view .LVU103
 507 00fa 3846     		mov	r0, r7
 508 00fc FFF7FEFF 		bl	parameter_vector_dim
 509              	.LVL47:
 510 0100 8346     		mov	fp, r0
 511              	.LVL48:
 512              		.loc 1 74 9 is_stmt 1 view .LVU104
 513              		.loc 1 74 20 is_stmt 0 view .LVU105
 514 0102 8000     		lsls	r0, r0, #2
 515              	.LVL49:
 516              		.loc 1 74 20 view .LVU106
 517 0104 FFF7FEFF 		bl	malloc
 518              	.LVL50:
 519              		.loc 1 75 9 is_stmt 1 view .LVU107
 520              		.loc 1 75 12 is_stmt 0 view .LVU108
 521 0108 8246     		mov	r10, r0
 522 010a 0028     		cmp	r0, #0
 523 010c 48D0     		beq	.L30
 524              		.loc 1 76 13 is_stmt 1 view .LVU109
 525 010e 0146     		mov	r1, r0
 526 0110 3846     		mov	r0, r7
 527              	.LVL51:
 528              		.loc 1 76 13 is_stmt 0 view .LVU110
 529 0112 FFF7FEFF 		bl	parameter_vector_read
 530              	.LVL52:
 531              		.loc 1 77 13 is_stmt 1 view .LVU111
 532 0116 5046     		mov	r0, r10
 533 0118 2B46     		mov	r3, r5
 534 011a 2246     		mov	r2, r4
 535 011c 5946     		mov	r1, fp
 536 011e FFF7FEFF 		bl	print_array
 537              	.LVL53:
 538              		.loc 1 78 13 view .LVU112
 539 0122 5046     		mov	r0, r10
 540 0124 FFF7FEFF 		bl	free
 541              	.LVL54:
 542 0128 B3E7     		b	.L20
 543              	.LVL55:
 544              	.L24:
 545              		.loc 1 78 13 is_stmt 0 view .LVU113
 546              	.LBE27:
 547              	.LBB28:
 548              		.loc 1 61 9 is_stmt 1 view .LVU114
 549              		.loc 1 61 19 is_stmt 0 view .LVU115
 550 012a 3846     		mov	r0, r7
 551 012c FFF7FEFF 		bl	parameter_string_max_len
 552              	.LVL56:
 553 0130 0390     		str	r0, [sp, #12]
 554              	.LVL57:
 555              		.loc 1 62 9 is_stmt 1 view .LVU116
 556              		.loc 1 62 19 is_stmt 0 view .LVU117
 557 0132 FFF7FEFF 		bl	malloc
 558              	.LVL58:
ARM GAS  /tmp/ccjy9eIL.s 			page 11


 559              		.loc 1 63 9 is_stmt 1 view .LVU118
 560              		.loc 1 63 12 is_stmt 0 view .LVU119
 561 0136 8246     		mov	r10, r0
 562 0138 0028     		cmp	r0, #0
 563 013a 38D0     		beq	.L29
 564              		.loc 1 64 13 is_stmt 1 view .LVU120
 565 013c 039A     		ldr	r2, [sp, #12]
 566 013e 0146     		mov	r1, r0
 567 0140 3846     		mov	r0, r7
 568              	.LVL59:
 569              		.loc 1 64 13 is_stmt 0 view .LVU121
 570 0142 FFF7FEFF 		bl	parameter_string_read
 571              	.LVL60:
 572              		.loc 1 65 13 is_stmt 1 view .LVU122
 573 0146 1D49     		ldr	r1, .L62+4
 574 0148 5246     		mov	r2, r10
 575 014a 2846     		mov	r0, r5
 576 014c A047     		blx	r4
 577              	.LVL61:
 578              		.loc 1 66 13 view .LVU123
 579 014e 5046     		mov	r0, r10
 580 0150 FFF7FEFF 		bl	free
 581              	.LVL62:
 582 0154 9DE7     		b	.L20
 583              	.LVL63:
 584              	.L27:
 585              		.loc 1 66 13 is_stmt 0 view .LVU124
 586              	.LBE28:
 587              		.loc 1 49 9 is_stmt 1 view .LVU125
 588              		.loc 1 49 38 is_stmt 0 view .LVU126
 589 0156 3846     		mov	r0, r7
 590 0158 FFF7FEFF 		bl	parameter_scalar_read
 591              	.LVL64:
 592 015c 10EE100A 		vmov	r0, s0
 593              		.loc 1 49 9 view .LVU127
 594 0160 FFF7FEFF 		bl	__aeabi_f2d
 595              	.LVL65:
 596 0164 0246     		mov	r2, r0
 597 0166 0B46     		mov	r3, r1
 598 0168 2846     		mov	r0, r5
 599 016a 1549     		ldr	r1, .L62+8
 600 016c A047     		blx	r4
 601              	.LVL66:
 602              		.loc 1 50 9 is_stmt 1 view .LVU128
 603 016e 90E7     		b	.L20
 604              	.L25:
 605              		.loc 1 53 9 view .LVU129
 606 0170 3846     		mov	r0, r7
 607 0172 FFF7FEFF 		bl	parameter_integer_read
 608              	.LVL67:
 609 0176 1349     		ldr	r1, .L62+12
 610 0178 0246     		mov	r2, r0
 611 017a 2846     		mov	r0, r5
 612 017c A047     		blx	r4
 613              	.LVL68:
 614              		.loc 1 54 9 view .LVU130
 615 017e 88E7     		b	.L20
ARM GAS  /tmp/ccjy9eIL.s 			page 12


 616              	.L26:
 617              		.loc 1 57 9 view .LVU131
 618              		.loc 1 57 38 is_stmt 0 view .LVU132
 619 0180 3846     		mov	r0, r7
 620 0182 FFF7FEFF 		bl	parameter_boolean_read
 621              	.LVL69:
 622              		.loc 1 57 9 view .LVU133
 623 0186 104B     		ldr	r3, .L62+16
 624 0188 104A     		ldr	r2, .L62+20
 625 018a 1149     		ldr	r1, .L62+24
 626 018c 0028     		cmp	r0, #0
 627 018e 08BF     		it	eq
 628 0190 1A46     		moveq	r2, r3
 629 0192 2846     		mov	r0, r5
 630 0194 A047     		blx	r4
 631              	.LVL70:
 632              		.loc 1 58 9 is_stmt 1 view .LVU134
 633 0196 7CE7     		b	.L20
 634              	.L60:
 635              		.loc 1 44 9 view .LVU135
 636 0198 0E49     		ldr	r1, .L62+28
 637 019a 2846     		mov	r0, r5
 638 019c A047     		blx	r4
 639              	.LVL71:
 640              		.loc 1 45 9 view .LVU136
 641 019e 78E7     		b	.L20
 642              	.L30:
 643              	.LBB29:
 644              		.loc 1 80 13 view .LVU137
 645 01a0 0D4A     		ldr	r2, .L62+32
 646 01a2 0E49     		ldr	r1, .L62+36
 647 01a4 2846     		mov	r0, r5
 648 01a6 A047     		blx	r4
 649              	.LVL72:
 650 01a8 73E7     		b	.L20
 651              	.LVL73:
 652              	.L61:
 653              		.loc 1 80 13 is_stmt 0 view .LVU138
 654              	.LBE29:
 655              	.LBE31:
 656              	.LBE37:
 657              		.loc 1 117 1 view .LVU139
 658 01aa FFF7FEFF 		bl	__stack_chk_fail
 659              	.LVL74:
 660              	.L29:
 661              	.LBB38:
 662              	.LBB32:
 663              	.LBB30:
 664              		.loc 1 68 13 is_stmt 1 view .LVU140
 665 01ae 0A4A     		ldr	r2, .L62+32
 666 01b0 0B49     		ldr	r1, .L62+40
 667 01b2 2846     		mov	r0, r5
 668              	.LVL75:
 669              		.loc 1 68 13 is_stmt 0 view .LVU141
 670 01b4 A047     		blx	r4
 671              	.LVL76:
 672 01b6 6CE7     		b	.L20
ARM GAS  /tmp/ccjy9eIL.s 			page 13


 673              	.L63:
 674              		.align	2
 675              	.L62:
 676 01b8 00000000 		.word	.LC18
 677 01bc 2C000000 		.word	.LC13
 678 01c0 20000000 		.word	.LC10
 679 01c4 24000000 		.word	.LC11
 680 01c8 08000000 		.word	.LC6
 681 01cc 00000000 		.word	.LC5
 682 01d0 28000000 		.word	.LC12
 683 01d4 1C000000 		.word	.LC9
 684 01d8 34000000 		.word	.LC14
 685 01dc 6C000000 		.word	.LC16
 686 01e0 64000000 		.word	.LC15
 687 01e4 10000000 		.word	.LC7
 688 01e8 14000000 		.word	.LC8
 689 01ec 74000000 		.word	.LC17
 690              	.LBE30:
 691              	.LBE32:
 692              	.LBE38:
 693              		.cfi_endproc
 694              	.LFE5:
 695              		.size	param_ns_print.isra.0, .-param_ns_print.isra.0
 696              		.section	.rodata.parameter_print.cst4,"aM",%progbits,4
 697              		.align	2
 698              	.LC19:
 699 0000 00000000 		.word	__stack_chk_guard
 700              		.section	.text.parameter_print,"ax",%progbits
 701              		.align	1
 702              		.p2align 4,,15
 703              		.global	parameter_print
 704              		.syntax unified
 705              		.thumb
 706              		.thumb_func
 707              		.fpu fpv4-sp-d16
 708              		.type	parameter_print, %function
 709              	parameter_print:
 710              	.LVL77:
 711              	.LFB4:
 712              		.loc 1 123 1 is_stmt 1 view -0
 713              		.cfi_startproc
 714              		@ args = 0, pretend = 0, frame = 8
 715              		@ frame_needed = 0, uses_anonymous_args = 0
 716              		.loc 1 123 1 is_stmt 0 view .LVU143
 717 0000 00B5     		push	{lr}
 718              		.cfi_def_cfa_offset 4
 719              		.cfi_offset 14, -4
 720 0002 85B0     		sub	sp, sp, #20
 721              		.cfi_def_cfa_offset 24
 722              		.loc 1 123 1 view .LVU144
 723 0004 0B46     		mov	r3, r1
 724              		.loc 1 124 5 view .LVU145
 725 0006 0092     		str	r2, [sp]
 726              		.loc 1 123 1 view .LVU146
 727 0008 094A     		ldr	r2, .L68
 728              	.LVL78:
 729              		.loc 1 124 5 view .LVU147
ARM GAS  /tmp/ccjy9eIL.s 			page 14


 730 000a 4169     		ldr	r1, [r0, #20]
 731              	.LVL79:
 732              		.loc 1 123 1 view .LVU148
 733 000c 1268     		ldr	r2, [r2]
 734 000e 0392     		str	r2, [sp, #12]
 735 0010 4FF00002 		mov	r2,#0
 736              		.loc 1 124 5 is_stmt 1 view .LVU149
 737 0014 0C30     		adds	r0, r0, #12
 738              	.LVL80:
 739              		.loc 1 124 5 is_stmt 0 view .LVU150
 740 0016 0022     		movs	r2, #0
 741 0018 FFF7FEFF 		bl	param_ns_print.isra.0
 742              	.LVL81:
 743              		.loc 1 125 1 view .LVU151
 744 001c 044B     		ldr	r3, .L68
 745 001e 1A68     		ldr	r2, [r3]
 746 0020 039B     		ldr	r3, [sp, #12]
 747 0022 5A40     		eors	r2, r3, r2
 748 0024 02D1     		bne	.L67
 749 0026 05B0     		add	sp, sp, #20
 750              		.cfi_remember_state
 751              		.cfi_def_cfa_offset 4
 752              		@ sp needed
 753 0028 5DF804FB 		ldr	pc, [sp], #4
 754              	.L67:
 755              		.cfi_restore_state
 756 002c FFF7FEFF 		bl	__stack_chk_fail
 757              	.LVL82:
 758              	.L69:
 759              		.align	2
 760              	.L68:
 761 0030 00000000 		.word	.LC19
 762              		.cfi_endproc
 763              	.LFE4:
 764              		.size	parameter_print, .-parameter_print
 765              		.text
 766              	.Letext0:
 767              		.file 2 "/usr/lib/gcc/arm-none-eabi/9.2.1/include/stdint.h"
 768              		.file 3 "/usr/lib/gcc/arm-none-eabi/9.2.1/include/stddef.h"
 769              		.file 4 "/usr/include/newlib/sys/_types.h"
 770              		.file 5 "/usr/include/newlib/sys/reent.h"
 771              		.file 6 "/usr/include/newlib/sys/lock.h"
 772              		.file 7 "/usr/include/newlib/stdlib.h"
 773              		.file 8 ".//src/parameter/parameter.h"
 774              		.file 9 ".//src/parameter/parameter_print.h"