ARM GAS  /tmp/ccPTbuCn.s 			page 1


   1              		.cpu cortex-m4
   2              		.eabi_attribute 27, 1
   3              		.eabi_attribute 28, 1
   4              		.eabi_attribute 20, 1
   5              		.eabi_attribute 21, 1
   6              		.eabi_attribute 23, 3
   7              		.eabi_attribute 24, 1
   8              		.eabi_attribute 25, 1
   9              		.eabi_attribute 26, 1
  10              		.eabi_attribute 30, 2
  11              		.eabi_attribute 34, 1
  12              		.eabi_attribute 18, 4
  13              		.file	"play_sound_file.c"
  14              		.text
  15              	.Ltext0:
  16              		.cfi_sections	.debug_frame
  17              		.section	.rodata.end_cb.cst4,"aM",%progbits,4
  18              		.align	2
  19              	.LC0:
  20 0000 00000000 		.word	__stack_chk_guard
  21              		.section	.text.end_cb,"ax",%progbits
  22              		.align	1
  23              		.p2align 4,,15
  24              		.arch armv7e-m
  25              		.syntax unified
  26              		.thumb
  27              		.thumb_func
  28              		.fpu fpv4-sp-d16
  29              		.type	end_cb, %function
  30              	end_cb:
  31              	.LVL0:
  32              	.LFB257:
  33              		.file 1 ".//src/audio/play_sound_file.c"
  34              		.loc 1 54 74 view -0
  35              		.cfi_startproc
  36              		@ args = 0, pretend = 0, frame = 8
  37              		@ frame_needed = 0, uses_anonymous_args = 0
  38              		.loc 1 54 74 is_stmt 0 view .LVU1
  39 0000 30B5     		push	{r4, r5, lr}
  40              		.cfi_def_cfa_offset 12
  41              		.cfi_offset 4, -12
  42              		.cfi_offset 5, -8
  43              		.cfi_offset 14, -4
  44              		.loc 1 62 7 view .LVU2
  45 0002 284B     		ldr	r3, .L17
  46              		.loc 1 54 74 view .LVU3
  47 0004 284A     		ldr	r2, .L17+4
  48              	.LVL1:
  49              		.loc 1 54 74 view .LVU4
  50 0006 83B0     		sub	sp, sp, #12
  51              		.cfi_def_cfa_offset 24
  52              		.loc 1 62 7 view .LVU5
  53 0008 9942     		cmp	r1, r3
  54              		.loc 1 54 74 view .LVU6
  55 000a 1268     		ldr	r2, [r2]
  56 000c 0192     		str	r2, [sp, #4]
  57 000e 4FF00002 		mov	r2,#0
ARM GAS  /tmp/ccPTbuCn.s 			page 2


  58              		.loc 1 56 5 is_stmt 1 view .LVU7
  59              		.loc 1 57 5 view .LVU8
  60              		.loc 1 58 5 view .LVU9
  61              		.loc 1 62 5 view .LVU10
  62              		.loc 1 62 7 is_stmt 0 view .LVU11
  63 0012 31D0     		beq	.L1
  64              		.loc 1 62 32 discriminator 1 view .LVU12
  65 0014 254A     		ldr	r2, .L17+8
  66 0016 9142     		cmp	r1, r2
  67 0018 2ED0     		beq	.L1
  68              	.LBB89:
  69              	.LBI89:
  70              		.loc 1 54 13 is_stmt 1 view .LVU13
  71              	.LVL2:
  72              	.LBB90:
  73              		.loc 1 67 5 view .LVU14
  74              		.loc 1 67 23 is_stmt 0 view .LVU15
  75 001a 254C     		ldr	r4, .L17+12
  76              		.loc 1 67 7 view .LVU16
  77 001c 2168     		ldr	r1, [r4]
  78              	.LVL3:
  79              		.loc 1 70 24 view .LVU17
  80 001e 9942     		cmp	r1, r3
  81 0020 08BF     		it	eq
  82 0022 1346     		moveq	r3, r2
  83 0024 2360     		str	r3, [r4]
  84              		.loc 1 74 5 is_stmt 1 view .LVU18
  85              	.LBB91:
  86              	.LBI91:
  87              		.file 2 ".//ChibiOS//os/rt/include/chsys.h"
  88              		.loc 2 386 20 view .LVU19
  89              	.LBB92:
  90              		.loc 2 388 3 view .LVU20
  91              	.LBB93:
  92              	.LBI93:
  93              		.file 3 ".//ChibiOS//os/rt/ports/ARMCMx/chcore_v7m.h"
  94              		.loc 3 473 20 view .LVU21
  95              	.LBE93:
  96              	.LBE92:
  97              	.LBE91:
  98              	.LBE90:
  99              	.LBE89:
 100              		.loc 3 475 3 view .LVU22
 101              	.LBB141:
 102              	.LBB134:
 103              	.LBB103:
 104              	.LBB100:
 105              	.LBB98:
 106              	.LBB94:
 107              	.LBI94:
 108              		.loc 3 444 20 view .LVU23
 109              	.LBE94:
 110              	.LBE98:
 111              	.LBE100:
 112              	.LBE103:
 113              	.LBE134:
 114              	.LBE141:
ARM GAS  /tmp/ccPTbuCn.s 			page 3


 115              		.loc 3 447 3 view .LVU24
 116              	.LVL4:
 117              	.LBB142:
 118              	.LBB135:
 119              	.LBB104:
 120              	.LBB101:
 121              	.LBB99:
 122              	.LBB97:
 123              	.LBB95:
 124              	.LBI95:
 125              		.file 4 ".//ChibiOS//os/ext/CMSIS/include/core_cmFunc.h"
 126              		.loc 4 544 57 view .LVU25
 127              	.LBB96:
 128              		.loc 4 546 3 view .LVU26
 129 0026 2023     		movs	r3, #32
 130              		.syntax unified
 131              	@ 546 ".//ChibiOS//os/ext/CMSIS/include/core_cmFunc.h" 1
 132 0028 83F31188 		MSR basepri, r3
 133              	@ 0 "" 2
 134              	.LVL5:
 135              		.loc 4 546 3 is_stmt 0 view .LVU27
 136              		.thumb
 137              		.syntax unified
 138              	.LBE96:
 139              	.LBE95:
 140              	.LBE97:
 141              	.LBE99:
 142              		.loc 2 389 3 is_stmt 1 view .LVU28
 143              	.LBE101:
 144              	.LBE104:
 145              		.loc 1 75 8 is_stmt 0 view .LVU29
 146 002c 214D     		ldr	r5, .L17+16
 147              	.LBB105:
 148              	.LBB102:
 149              		.loc 2 389 3 view .LVU30
 150 002e FFF7FEFF 		bl	_stats_start_measure_crit_isr
 151              	.LVL6:
 152              		.loc 2 390 3 is_stmt 1 view .LVU31
 153 0032 FFF7FEFF 		bl	_dbg_check_lock_from_isr
 154              	.LVL7:
 155              	.LBE102:
 156              	.LBE105:
 157              		.loc 1 75 5 view .LVU32
 158              		.loc 1 75 8 is_stmt 0 view .LVU33
 159 0036 2968     		ldr	r1, [r5]
 160              		.loc 1 75 7 view .LVU34
 161 0038 29B3     		cbz	r1, .L4
 162              		.loc 1 78 9 is_stmt 1 view .LVU35
 163              		.loc 1 78 11 is_stmt 0 view .LVU36
 164 003a 0129     		cmp	r1, #1
 165 003c 2DD9     		bls	.L10
 166              		.loc 1 78 36 view .LVU37
 167 003e CB07     		lsls	r3, r1, #31
 168 0040 01D5     		bpl	.L5
 169              		.loc 1 79 13 is_stmt 1 view .LVU38
 170              		.loc 1 79 33 is_stmt 0 view .LVU39
 171 0042 0139     		subs	r1, r1, #1
ARM GAS  /tmp/ccPTbuCn.s 			page 4


 172 0044 2960     		str	r1, [r5]
 173              	.L5:
 174              		.loc 1 81 9 is_stmt 1 view .LVU40
 175 0046 2068     		ldr	r0, [r4]
 176 0048 4AF64442 		movw	r2, #44100
 177 004c FFF7FEFF 		bl	dac_change_bufferI
 178              	.LVL8:
 179              		.loc 1 84 9 view .LVU41
 180              		.loc 1 84 11 is_stmt 0 view .LVU42
 181 0050 2B68     		ldr	r3, [r5]
 182 0052 FF2B     		cmp	r3, #255
 183              		.loc 1 85 13 is_stmt 1 view .LVU43
 184              		.loc 1 85 33 is_stmt 0 view .LVU44
 185 0054 9CBF     		itt	ls
 186 0056 0023     		movls	r3, #0
 187 0058 2B60     		strls	r3, [r5]
 188              		.loc 1 88 9 is_stmt 1 view .LVU45
 189              	.LVL9:
 190              	.LBB106:
 191              	.LBI106:
 192              		.file 5 ".//ChibiOS//os/rt/include/chbsem.h"
 193              		.loc 5 266 20 view .LVU46
 194              	.LBB107:
 195              		.loc 5 268 3 view .LVU47
 196 005a FFF7FEFF 		bl	chDbgCheckClassI
 197              	.LVL10:
 198              		.loc 5 270 3 view .LVU48
 199              		.loc 5 270 18 is_stmt 0 view .LVU49
 200 005e 1648     		ldr	r0, .L17+20
 201              		.loc 5 270 6 view .LVU50
 202 0060 8368     		ldr	r3, [r0, #8]
 203 0062 002B     		cmp	r3, #0
 204 0064 11DC     		bgt	.L7
 205              		.loc 5 271 5 is_stmt 1 view .LVU51
 206 0066 FFF7FEFF 		bl	chSemSignalI
 207              	.LVL11:
 208              		.loc 5 271 5 is_stmt 0 view .LVU52
 209              	.LBE107:
 210              	.LBE106:
 211              		.loc 1 92 5 is_stmt 1 view .LVU53
 212              	.LBB108:
 213              	.LBI108:
 214              		.loc 2 406 20 view .LVU54
 215              	.LBB109:
 216              		.loc 2 408 3 view .LVU55
 217 006a FFF7FEFF 		bl	_dbg_check_unlock_from_isr
 218              	.LVL12:
 219              		.loc 2 409 3 view .LVU56
 220 006e FFF7FEFF 		bl	_stats_stop_measure_crit_isr
 221              	.LVL13:
 222              		.loc 2 410 3 view .LVU57
 223              	.LBB110:
 224              	.LBI110:
 225              		.loc 3 484 20 view .LVU58
 226              	.LBE110:
 227              	.LBE109:
 228              	.LBE108:
ARM GAS  /tmp/ccPTbuCn.s 			page 5


 229              	.LBE135:
 230              	.LBE142:
 231              		.loc 3 486 3 view .LVU59
 232              	.LBB143:
 233              	.LBB136:
 234              	.LBB129:
 235              	.LBB124:
 236              	.LBB119:
 237              	.LBB111:
 238              	.LBI111:
 239              		.loc 3 458 20 view .LVU60
 240              	.LBE111:
 241              	.LBE119:
 242              	.LBE124:
 243              	.LBE129:
 244              	.LBE136:
 245              	.LBE143:
 246              		.loc 3 461 3 view .LVU61
 247              	.LBB144:
 248              	.LBB137:
 249              	.LBB130:
 250              	.LBB125:
 251              	.LBB120:
 252              	.LBB116:
 253              	.LBB112:
 254              	.LBI112:
 255              		.loc 4 544 57 view .LVU62
 256              	.LBB113:
 257              		.loc 4 546 3 view .LVU63
 258 0072 0023     		movs	r3, #0
 259              		.syntax unified
 260              	@ 546 ".//ChibiOS//os/ext/CMSIS/include/core_cmFunc.h" 1
 261 0074 83F31188 		MSR basepri, r3
 262              	@ 0 "" 2
 263              	.LVL14:
 264              		.thumb
 265              		.syntax unified
 266              	.L1:
 267              		.loc 4 546 3 is_stmt 0 view .LVU64
 268              	.LBE113:
 269              	.LBE112:
 270              	.LBE116:
 271              	.LBE120:
 272              	.LBE125:
 273              	.LBE130:
 274              	.LBE137:
 275              	.LBE144:
 276              		.loc 1 93 1 view .LVU65
 277 0078 0B4B     		ldr	r3, .L17+4
 278 007a 1A68     		ldr	r2, [r3]
 279 007c 019B     		ldr	r3, [sp, #4]
 280 007e 5A40     		eors	r2, r3, r2
 281 0080 0DD1     		bne	.L16
 282 0082 03B0     		add	sp, sp, #12
 283              		.cfi_remember_state
 284              		.cfi_def_cfa_offset 12
 285              		@ sp needed
ARM GAS  /tmp/ccPTbuCn.s 			page 6


 286 0084 30BD     		pop	{r4, r5, pc}
 287              	.LVL15:
 288              	.L4:
 289              		.cfi_restore_state
 290              	.LBB145:
 291              	.LBB138:
 292              		.loc 1 90 9 is_stmt 1 view .LVU66
 293 0086 FFF7FEFF 		bl	dac_stopI
 294              	.LVL16:
 295              	.L7:
 296              		.loc 1 92 5 view .LVU67
 297              	.LBB131:
 298              		.loc 2 406 20 view .LVU68
 299              	.LBB126:
 300              		.loc 2 408 3 view .LVU69
 301 008a FFF7FEFF 		bl	_dbg_check_unlock_from_isr
 302              	.LVL17:
 303              		.loc 2 409 3 view .LVU70
 304 008e FFF7FEFF 		bl	_stats_stop_measure_crit_isr
 305              	.LVL18:
 306              		.loc 2 410 3 view .LVU71
 307              	.LBB121:
 308              		.loc 3 484 20 view .LVU72
 309              	.LBE121:
 310              	.LBE126:
 311              	.LBE131:
 312              	.LBE138:
 313              	.LBE145:
 314              		.loc 3 486 3 view .LVU73
 315              	.LBB146:
 316              	.LBB139:
 317              	.LBB132:
 318              	.LBB127:
 319              	.LBB122:
 320              	.LBB117:
 321              		.loc 3 458 20 view .LVU74
 322              	.LBE117:
 323              	.LBE122:
 324              	.LBE127:
 325              	.LBE132:
 326              	.LBE139:
 327              	.LBE146:
 328              		.loc 3 461 3 view .LVU75
 329              	.LBB147:
 330              	.LBB140:
 331              	.LBB133:
 332              	.LBB128:
 333              	.LBB123:
 334              	.LBB118:
 335              	.LBB115:
 336              		.loc 4 544 57 view .LVU76
 337              	.LBB114:
 338              		.loc 4 546 3 view .LVU77
 339 0092 0023     		movs	r3, #0
 340              		.syntax unified
 341              	@ 546 ".//ChibiOS//os/ext/CMSIS/include/core_cmFunc.h" 1
 342 0094 83F31188 		MSR basepri, r3
ARM GAS  /tmp/ccPTbuCn.s 			page 7


 343              	@ 0 "" 2
 344              	.LVL19:
 345              		.loc 4 546 3 is_stmt 0 view .LVU78
 346              		.thumb
 347              		.syntax unified
 348 0098 EEE7     		b	.L1
 349              	.LVL20:
 350              	.L10:
 351              		.loc 4 546 3 view .LVU79
 352              	.LBE114:
 353              	.LBE115:
 354              	.LBE118:
 355              	.LBE123:
 356              	.LBE128:
 357              	.LBE133:
 358 009a 0121     		movs	r1, #1
 359 009c D3E7     		b	.L5
 360              	.LVL21:
 361              	.L16:
 362              		.loc 4 546 3 view .LVU80
 363              	.LBE140:
 364              	.LBE147:
 365              		.loc 1 93 1 view .LVU81
 366 009e FFF7FEFF 		bl	__stack_chk_fail
 367              	.LVL22:
 368              	.L18:
 369 00a2 00BF     		.align	2
 370              	.L17:
 371 00a4 00000000 		.word	.LANCHOR1
 372 00a8 00000000 		.word	.LC0
 373 00ac 00000000 		.word	.LANCHOR0
 374 00b0 00000000 		.word	.LANCHOR2
 375 00b4 00000000 		.word	.LANCHOR3
 376 00b8 00000000 		.word	.LANCHOR4
 377              		.cfi_endproc
 378              	.LFE257:
 379              		.size	end_cb, .-end_cb
 380              		.section	.rodata.waitSoundFileHasFinished.part.0.cst4,"aM",%progbits,4
 381              		.align	2
 382              	.LC1:
 383 0000 00000000 		.word	__stack_chk_guard
 384              		.section	.text.waitSoundFileHasFinished.part.0,"ax",%progbits
 385              		.align	1
 386              		.p2align 4,,15
 387              		.syntax unified
 388              		.thumb
 389              		.thumb_func
 390              		.fpu fpv4-sp-d16
 391              		.type	waitSoundFileHasFinished.part.0, %function
 392              	waitSoundFileHasFinished.part.0:
 393              	.LFB266:
 394              		.loc 1 251 6 is_stmt 1 view -0
 395              		.cfi_startproc
 396              		@ args = 0, pretend = 0, frame = 8
 397              		@ frame_needed = 0, uses_anonymous_args = 0
 398 0000 00B5     		push	{lr}
 399              		.cfi_def_cfa_offset 4
ARM GAS  /tmp/ccPTbuCn.s 			page 8


 400              		.cfi_offset 14, -4
 401 0002 0C4B     		ldr	r3, .L24
 402              		.loc 1 255 5 is_stmt 0 view .LVU83
 403 0004 0C48     		ldr	r0, .L24+4
 404              		.loc 1 251 6 view .LVU84
 405 0006 83B0     		sub	sp, sp, #12
 406              		.cfi_def_cfa_offset 16
 407              		.loc 1 251 6 view .LVU85
 408 0008 1B68     		ldr	r3, [r3]
 409 000a 0193     		str	r3, [sp, #4]
 410 000c 4FF00003 		mov	r3,#0
 411              		.loc 1 255 5 is_stmt 1 view .LVU86
 412 0010 FFF7FEFF 		bl	chMtxLock
 413              	.LVL23:
 414              		.loc 1 256 5 view .LVU87
 415 0014 0948     		ldr	r0, .L24+8
 416 0016 FFF7FEFF 		bl	chCondWait
 417              	.LVL24:
 418              		.loc 1 257 5 view .LVU88
 419 001a 064B     		ldr	r3, .L24
 420 001c 1A68     		ldr	r2, [r3]
 421 001e 019B     		ldr	r3, [sp, #4]
 422 0020 5A40     		eors	r2, r3, r2
 423 0022 05D1     		bne	.L23
 424 0024 0448     		ldr	r0, .L24+4
 425              		.loc 1 259 1 is_stmt 0 view .LVU89
 426 0026 03B0     		add	sp, sp, #12
 427              		.cfi_remember_state
 428              		.cfi_def_cfa_offset 4
 429              		@ sp needed
 430 0028 5DF804EB 		ldr	lr, [sp], #4
 431              		.cfi_restore 14
 432              		.cfi_def_cfa_offset 0
 433              		.loc 1 257 5 view .LVU90
 434 002c FFF7FEBF 		b	chMtxUnlock
 435              	.LVL25:
 436              	.L23:
 437              		.cfi_restore_state
 438 0030 FFF7FEFF 		bl	__stack_chk_fail
 439              	.LVL26:
 440              	.L25:
 441              		.align	2
 442              	.L24:
 443 0034 00000000 		.word	.LC1
 444 0038 00000000 		.word	.LANCHOR5
 445 003c 00000000 		.word	.LANCHOR6
 446              		.cfi_endproc
 447              	.LFE266:
 448              		.size	waitSoundFileHasFinished.part.0, .-waitSoundFileHasFinished.part.0
 449              		.section	.rodata.playWAVFile.cst4,"aM",%progbits,4
 450              		.align	2
 451              	.LC2:
 452 0000 00000000 		.word	__stack_chk_guard
 453              		.section	.text.playWAVFile,"ax",%progbits
 454              		.align	1
 455              		.p2align 4,,15
 456              		.global	playWAVFile
ARM GAS  /tmp/ccPTbuCn.s 			page 9


 457              		.syntax unified
 458              		.thumb
 459              		.thumb_func
 460              		.fpu fpv4-sp-d16
 461              		.type	playWAVFile, %function
 462              	playWAVFile:
 463              	.LVL27:
 464              	.LFB258:
 465              		.loc 1 101 38 is_stmt 1 view -0
 466              		.cfi_startproc
 467              		@ args = 0, pretend = 0, frame = 560
 468              		@ frame_needed = 0, uses_anonymous_args = 0
 469              		.loc 1 101 38 is_stmt 0 view .LVU92
 470 0000 2DE9F04F 		push	{r4, r5, r6, r7, r8, r9, r10, fp, lr}
 471              		.cfi_def_cfa_offset 36
 472              		.cfi_offset 4, -36
 473              		.cfi_offset 5, -32
 474              		.cfi_offset 6, -28
 475              		.cfi_offset 7, -24
 476              		.cfi_offset 8, -20
 477              		.cfi_offset 9, -16
 478              		.cfi_offset 10, -12
 479              		.cfi_offset 11, -8
 480              		.cfi_offset 14, -4
 481 0004 3D4A     		ldr	r2, .L51
 482 0006 ADF50D7D 		sub	sp, sp, #564
 483              		.cfi_def_cfa_offset 600
 484              		.loc 1 105 10 view .LVU93
 485 000a 0023     		movs	r3, #0
 486              		.loc 1 101 38 view .LVU94
 487 000c 1268     		ldr	r2, [r2]
 488 000e 8B92     		str	r2, [sp, #556]
 489 0010 4FF00002 		mov	r2,#0
 490              		.loc 1 102 5 is_stmt 1 view .LVU95
 491              		.loc 1 103 5 view .LVU96
 492              		.loc 1 105 5 view .LVU97
 493              		.loc 1 101 38 is_stmt 0 view .LVU98
 494 0014 0446     		mov	r4, r0
 495              		.loc 1 105 10 view .LVU99
 496 0016 0093     		str	r3, [sp]
 497              		.loc 1 106 5 is_stmt 1 view .LVU100
 498              	.LVL28:
 499              		.loc 1 107 5 view .LVU101
 500              		.loc 1 108 5 view .LVU102
 501              		.loc 1 112 5 view .LVU103
 502              		.loc 1 112 9 is_stmt 0 view .LVU104
 503 0018 FFF7FEFF 		bl	mountSDCard
 504              	.LVL29:
 505              		.loc 1 112 7 view .LVU105
 506 001c 58B9     		cbnz	r0, .L27
 507              	.LVL30:
 508              	.L48:
 509              		.loc 1 131 9 is_stmt 1 view .LVU106
 510              		.loc 1 131 16 is_stmt 0 view .LVU107
 511 001e 4FF00108 		mov	r8, #1
 512              	.L28:
 513              		.loc 1 185 1 view .LVU108
ARM GAS  /tmp/ccPTbuCn.s 			page 10


 514 0022 364B     		ldr	r3, .L51
 515 0024 1A68     		ldr	r2, [r3]
 516 0026 8B9B     		ldr	r3, [sp, #556]
 517 0028 5A40     		eors	r2, r3, r2
 518 002a 64D1     		bne	.L49
 519 002c 4046     		mov	r0, r8
 520 002e 0DF50D7D 		add	sp, sp, #564
 521              		.cfi_remember_state
 522              		.cfi_def_cfa_offset 36
 523              		@ sp needed
 524 0032 BDE8F08F 		pop	{r4, r5, r6, r7, r8, r9, r10, fp, pc}
 525              	.LVL31:
 526              	.L27:
 527              		.cfi_restore_state
 528              		.loc 1 117 5 is_stmt 1 view .LVU109
 529              		.loc 1 117 11 is_stmt 0 view .LVU110
 530 0036 2146     		mov	r1, r4
 531 0038 01A8     		add	r0, sp, #4
 532 003a 0122     		movs	r2, #1
 533 003c FFF7FEFF 		bl	f_open
 534              	.LVL32:
 535              		.loc 1 118 5 is_stmt 1 view .LVU111
 536              		.loc 1 118 8 is_stmt 0 view .LVU112
 537 0040 0028     		cmp	r0, #0
 538 0042 ECD1     		bne	.L48
 539              		.loc 1 123 5 is_stmt 1 view .LVU113
 540              		.loc 1 123 20 is_stmt 0 view .LVU114
 541 0044 DFF8C890 		ldr	r9, .L51+20
 542 0048 2D4C     		ldr	r4, .L51+4
 543              	.LVL33:
 544              		.loc 1 128 11 view .LVU115
 545 004a 4946     		mov	r1, r9
 546 004c 6B46     		mov	r3, sp
 547 004e 2C22     		movs	r2, #44
 548 0050 01A8     		add	r0, sp, #4
 549              	.LVL34:
 550              		.loc 1 123 20 view .LVU116
 551 0052 C4F80090 		str	r9, [r4]
 552              		.loc 1 124 5 is_stmt 1 view .LVU117
 553              	.LVL35:
 554              		.loc 1 128 5 view .LVU118
 555              		.loc 1 128 11 is_stmt 0 view .LVU119
 556 0056 FFF7FEFF 		bl	f_read
 557              	.LVL36:
 558              		.loc 1 129 5 is_stmt 1 view .LVU120
 559              		.loc 1 129 8 is_stmt 0 view .LVU121
 560 005a 8046     		mov	r8, r0
 561 005c 0028     		cmp	r0, #0
 562 005e 3CD1     		bne	.L33
 563 0060 DFF8B8A0 		ldr	r10, .L51+32
 564              		.loc 1 151 29 view .LVU122
 565 0064 274E     		ldr	r6, .L51+8
 566              		.loc 1 157 52 view .LVU123
 567 0066 DFF8B8B0 		ldr	fp, .L51+36
 568              		.loc 1 157 72 view .LVU124
 569 006a 274D     		ldr	r5, .L51+12
 570              		.loc 1 124 20 view .LVU125
ARM GAS  /tmp/ccPTbuCn.s 			page 11


 571 006c 4C46     		mov	r4, r9
 572              		.loc 1 106 13 view .LVU126
 573 006e 0127     		movs	r7, #1
 574              	.LVL37:
 575              	.L30:
 576              		.loc 1 135 5 is_stmt 1 view .LVU127
 577              		.loc 1 137 9 view .LVU128
 578              		.loc 1 137 11 is_stmt 0 view .LVU129
 579 0070 9AF80030 		ldrb	r3, [r10]	@ zero_extendqisi2
 580 0074 002B     		cmp	r3, #0
 581 0076 38D0     		beq	.L50
 582              		.loc 1 144 9 is_stmt 1 view .LVU130
 583              		.loc 1 144 15 is_stmt 0 view .LVU131
 584 0078 6B46     		mov	r3, sp
 585 007a 4FF40072 		mov	r2, #512
 586 007e 2146     		mov	r1, r4
 587 0080 01A8     		add	r0, sp, #4
 588 0082 FFF7FEFF 		bl	f_read
 589              	.LVL38:
 590              		.loc 1 145 9 is_stmt 1 view .LVU132
 591              		.loc 1 145 12 is_stmt 0 view .LVU133
 592 0086 40BB     		cbnz	r0, .L33
 593              		.loc 1 151 9 is_stmt 1 view .LVU134
 594              		.loc 1 151 40 is_stmt 0 view .LVU135
 595 0088 0099     		ldr	r1, [sp]
 596 008a 4908     		lsrs	r1, r1, #1
 597              		.loc 1 151 29 view .LVU136
 598 008c 3160     		str	r1, [r6]
 599              		.loc 1 155 9 is_stmt 1 view .LVU137
 600              	.LVL39:
 601              		.loc 1 155 21 view .LVU138
 602              		.loc 1 155 9 is_stmt 0 view .LVU139
 603 008e 99B1     		cbz	r1, .L34
 604              		.loc 1 157 52 view .LVU140
 605 0090 9BF800C0 		ldrb	ip, [fp]	@ zero_extendqisi2
 606              		.loc 1 155 23 view .LVU141
 607 0094 0246     		mov	r2, r0
 608              	.LVL40:
 609              	.L35:
 610              		.loc 1 156 13 is_stmt 1 discriminator 3 view .LVU142
 611              		.loc 1 157 13 discriminator 3 view .LVU143
 612              		.loc 1 156 45 is_stmt 0 discriminator 3 view .LVU144
 613 0096 34F91230 		ldrsh	r3, [r4, r2, lsl #1]
 614              		.loc 1 156 72 discriminator 3 view .LVU145
 615 009a 03F50043 		add	r3, r3, #32768
 616              		.loc 1 156 98 discriminator 3 view .LVU146
 617 009e 1B11     		asrs	r3, r3, #4
 618              		.loc 1 157 52 discriminator 3 view .LVU147
 619 00a0 0CFB03F3 		mul	r3, ip, r3
 620              		.loc 1 155 48 discriminator 3 view .LVU148
 621 00a4 0130     		adds	r0, r0, #1
 622              	.LVL41:
 623              		.loc 1 155 48 discriminator 3 view .LVU149
 624 00a6 80B2     		uxth	r0, r0
 625              		.loc 1 157 72 discriminator 3 view .LVU150
 626 00a8 A5FB03E3 		umull	lr, r3, r5, r3
 627 00ac 5B09     		lsrs	r3, r3, #5
ARM GAS  /tmp/ccPTbuCn.s 			page 12


 628              		.loc 1 155 9 discriminator 3 view .LVU151
 629 00ae 8142     		cmp	r1, r0
 630              		.loc 1 157 31 discriminator 3 view .LVU152
 631 00b0 24F81230 		strh	r3, [r4, r2, lsl #1]	@ movhi
 632              		.loc 1 155 47 is_stmt 1 discriminator 3 view .LVU153
 633              	.LVL42:
 634              		.loc 1 155 21 discriminator 3 view .LVU154
 635              		.loc 1 155 23 is_stmt 0 discriminator 3 view .LVU155
 636 00b4 0246     		mov	r2, r0
 637              		.loc 1 155 9 discriminator 3 view .LVU156
 638 00b6 EED8     		bhi	.L35
 639              	.LVL43:
 640              	.L34:
 641              		.loc 1 163 9 is_stmt 1 view .LVU157
 642              		.loc 1 163 11 is_stmt 0 view .LVU158
 643 00b8 9FB1     		cbz	r7, .L36
 644              		.loc 1 164 13 is_stmt 1 view .LVU159
 645 00ba 114A     		ldr	r2, .L51+4
 646 00bc 134B     		ldr	r3, .L51+16
 647 00be 1068     		ldr	r0, [r2]
 648 00c0 4AF64442 		movw	r2, #44100
 649 00c4 FFF7FEFF 		bl	dac_play_buffer
 650              	.LVL44:
 651              		.loc 1 165 13 view .LVU160
 652              	.L37:
 653              		.loc 1 171 9 view .LVU161
 654              		.loc 1 177 5 is_stmt 0 view .LVU162
 655 00c8 3368     		ldr	r3, [r6]
 656              		.loc 1 171 11 view .LVU163
 657 00ca 4C45     		cmp	r4, r9
 658              		.loc 1 174 28 view .LVU164
 659 00cc 14BF     		ite	ne
 660 00ce 104C     		ldrne	r4, .L51+20
 661              	.LVL45:
 662              		.loc 1 172 28 view .LVU165
 663 00d0 104C     		ldreq	r4, .L51+24
 664              	.LVL46:
 665              		.loc 1 177 11 is_stmt 1 view .LVU166
 666              		.loc 1 177 5 is_stmt 0 view .LVU167
 667 00d2 FF2B     		cmp	r3, #255
 668 00d4 0BD9     		bls	.L32
 669 00d6 0027     		movs	r7, #0
 670 00d8 CAE7     		b	.L30
 671              	.LVL47:
 672              	.L33:
 673              		.loc 1 130 9 is_stmt 1 view .LVU168
 674 00da 01A8     		add	r0, sp, #4
 675              	.LVL48:
 676              		.loc 1 130 9 is_stmt 0 view .LVU169
 677 00dc FFF7FEFF 		bl	f_close
 678              	.LVL49:
 679 00e0 9DE7     		b	.L48
 680              	.LVL50:
 681              	.L36:
 682              		.loc 1 167 13 is_stmt 1 view .LVU170
 683              	.LBB148:
 684              	.LBI148:
ARM GAS  /tmp/ccPTbuCn.s 			page 13


 685              		.loc 5 141 21 view .LVU171
 686              	.LBB149:
 687              		.loc 5 143 3 view .LVU172
 688              		.loc 5 143 10 is_stmt 0 view .LVU173
 689 00e2 0D48     		ldr	r0, .L51+28
 690 00e4 FFF7FEFF 		bl	chSemWait
 691              	.LVL51:
 692 00e8 EEE7     		b	.L37
 693              	.LVL52:
 694              	.L50:
 695              		.loc 5 143 10 view .LVU174
 696              	.LBE149:
 697              	.LBE148:
 698              		.loc 1 139 13 is_stmt 1 view .LVU175
 699 00ea FFF7FEFF 		bl	dac_stop
 700              	.LVL53:
 701              		.loc 1 140 13 view .LVU176
 702              	.L32:
 703              		.loc 1 181 5 view .LVU177
 704 00ee 01A8     		add	r0, sp, #4
 705 00f0 FFF7FEFF 		bl	f_close
 706              	.LVL54:
 707              		.loc 1 183 5 view .LVU178
 708              		.loc 1 183 12 is_stmt 0 view .LVU179
 709 00f4 95E7     		b	.L28
 710              	.LVL55:
 711              	.L49:
 712              		.loc 1 185 1 view .LVU180
 713 00f6 FFF7FEFF 		bl	__stack_chk_fail
 714              	.LVL56:
 715              	.L52:
 716 00fa 00BF     		.align	2
 717              	.L51:
 718 00fc 00000000 		.word	.LC2
 719 0100 00000000 		.word	.LANCHOR2
 720 0104 00000000 		.word	.LANCHOR3
 721 0108 1F85EB51 		.word	1374389535
 722 010c 00000000 		.word	end_cb
 723 0110 00000000 		.word	.LANCHOR1
 724 0114 00000000 		.word	.LANCHOR0
 725 0118 00000000 		.word	.LANCHOR4
 726 011c 00000000 		.word	.LANCHOR7
 727 0120 00000000 		.word	.LANCHOR8
 728              		.cfi_endproc
 729              	.LFE258:
 730              		.size	playWAVFile, .-playWAVFile
 731              		.section	.rodata.PlaySoundFileThd.str1.4,"aMS",%progbits,1
 732              		.align	2
 733              	.LC3:
 734 0000 506C6179 		.ascii	"PlaySoundFile Thd\000"
 734      536F756E 
 734      6446696C 
 734      65205468 
 734      6400
 735              		.section	.rodata.PlaySoundFileThd.cst4,"aM",%progbits,4
 736              		.align	2
 737              	.LC4:
ARM GAS  /tmp/ccPTbuCn.s 			page 14


 738 0000 00000000 		.word	__stack_chk_guard
 739              		.section	.text.PlaySoundFileThd,"ax",%progbits
 740              		.align	1
 741              		.p2align 4,,15
 742              		.syntax unified
 743              		.thumb
 744              		.thumb_func
 745              		.fpu fpv4-sp-d16
 746              		.type	PlaySoundFileThd, %function
 747              	PlaySoundFileThd:
 748              	.LVL57:
 749              	.LFB259:
 750              		.loc 1 188 44 is_stmt 1 view -0
 751              		.cfi_startproc
 752              		@ args = 0, pretend = 0, frame = 8
 753              		@ frame_needed = 0, uses_anonymous_args = 0
 754              		.loc 1 188 44 is_stmt 0 view .LVU182
 755 0000 2DE9F047 		push	{r4, r5, r6, r7, r8, r9, r10, lr}
 756              		.cfi_def_cfa_offset 32
 757              		.cfi_offset 4, -32
 758              		.cfi_offset 5, -28
 759              		.cfi_offset 6, -24
 760              		.cfi_offset 7, -20
 761              		.cfi_offset 8, -16
 762              		.cfi_offset 9, -12
 763              		.cfi_offset 10, -8
 764              		.cfi_offset 14, -4
 765              	.LBB162:
 766              	.LBB163:
 767              		.file 6 ".//ChibiOS//os/rt/include/chregistry.h"
 768              		.loc 6 135 11 view .LVU183
 769 0004 1D4E     		ldr	r6, .L58
 770              		.loc 6 135 30 view .LVU184
 771 0006 1E4A     		ldr	r2, .L58+4
 772              		.loc 6 135 11 view .LVU185
 773 0008 B369     		ldr	r3, [r6, #24]
 774 000a DFF88090 		ldr	r9, .L58+16
 775              		.loc 6 135 30 view .LVU186
 776 000e 9A61     		str	r2, [r3, #24]
 777              	.LBE163:
 778              	.LBE162:
 779              		.loc 1 188 44 view .LVU187
 780 0010 1C4B     		ldr	r3, .L58+8
 781              		.loc 1 199 30 view .LVU188
 782 0012 DFF87C80 		ldr	r8, .L58+20
 783              	.LBB165:
 784              	.LBB166:
 785              		.loc 2 367 3 view .LVU189
 786 0016 DFF87CA0 		ldr	r10, .L58+24
 787              	.LBE166:
 788              	.LBE165:
 789              		.loc 1 207 9 view .LVU190
 790 001a 1B4F     		ldr	r7, .L58+12
 791              		.loc 1 188 44 view .LVU191
 792 001c 82B0     		sub	sp, sp, #8
 793              		.cfi_def_cfa_offset 40
 794              		.loc 1 188 44 view .LVU192
ARM GAS  /tmp/ccPTbuCn.s 			page 15


 795 001e 1B68     		ldr	r3, [r3]
 796 0020 0193     		str	r3, [sp, #4]
 797 0022 4FF00003 		mov	r3,#0
 798              		.loc 1 190 3 is_stmt 1 view .LVU193
 799              	.LVL58:
 800              	.LBB177:
 801              	.LBI162:
 802              		.loc 6 132 20 view .LVU194
 803              	.LBB164:
 804              		.loc 6 135 3 view .LVU195
 805              		.loc 6 135 3 is_stmt 0 view .LVU196
 806              	.LBE164:
 807              	.LBE177:
 808              		.loc 1 192 5 is_stmt 1 view .LVU197
 809              		.loc 1 194 5 view .LVU198
 810              		.loc 1 194 5 is_stmt 0 view .LVU199
 811 0026 0CE0     		b	.L55
 812              	.LVL59:
 813              	.L54:
 814              	.LBB178:
 815              	.LBB174:
 816              		.loc 2 367 3 is_stmt 1 view .LVU200
 817              		.loc 2 371 3 view .LVU201
 818              	.LBB167:
 819              	.LBI167:
 820              		.loc 3 458 20 view .LVU202
 821              	.LBE167:
 822              	.LBE174:
 823              	.LBE178:
 824              		.loc 3 461 3 view .LVU203
 825              	.LBB179:
 826              	.LBB175:
 827              	.LBB172:
 828              	.LBB168:
 829              	.LBI168:
 830              		.loc 4 544 57 view .LVU204
 831              	.LBB169:
 832              		.loc 4 546 3 view .LVU205
 833              		.syntax unified
 834              	@ 546 ".//ChibiOS//os/ext/CMSIS/include/core_cmFunc.h" 1
 835 0028 85F31188 		MSR basepri, r5
 836              	@ 0 "" 2
 837              	.LVL60:
 838              		.loc 4 546 3 is_stmt 0 view .LVU206
 839              		.thumb
 840              		.syntax unified
 841              	.LBE169:
 842              	.LBE168:
 843              	.LBE172:
 844              	.LBE175:
 845              	.LBE179:
 846              		.loc 1 202 9 is_stmt 1 view .LVU207
 847 002c 2046     		mov	r0, r4
 848 002e FFF7FEFF 		bl	playWAVFile
 849              	.LVL61:
 850              		.loc 1 203 9 view .LVU208
 851              		.loc 1 205 9 is_stmt 0 view .LVU209
ARM GAS  /tmp/ccPTbuCn.s 			page 16


 852 0032 0A20     		movs	r0, #10
 853              		.loc 1 203 14 view .LVU210
 854 0034 89F80050 		strb	r5, [r9]
 855              		.loc 1 205 9 is_stmt 1 view .LVU211
 856 0038 FFF7FEFF 		bl	chThdSleep
 857              	.LVL62:
 858              		.loc 1 207 9 view .LVU212
 859 003c 3846     		mov	r0, r7
 860 003e FFF7FEFF 		bl	chCondBroadcast
 861              	.LVL63:
 862              		.loc 1 196 10 view .LVU213
 863              	.L55:
 864              		.loc 1 196 5 discriminator 1 view .LVU214
 865              		.loc 1 198 9 discriminator 1 view .LVU215
 866              	.LBB180:
 867              	.LBI180:
 868              		.loc 2 346 20 discriminator 1 view .LVU216
 869              	.LBB181:
 870              		.loc 2 348 3 discriminator 1 view .LVU217
 871              	.LBB182:
 872              	.LBI182:
 873              		.loc 3 444 20 discriminator 1 view .LVU218
 874              	.LBE182:
 875              	.LBE181:
 876              	.LBE180:
 877              		.loc 3 447 3 discriminator 1 view .LVU219
 878              	.LBB187:
 879              	.LBB186:
 880              	.LBB185:
 881              	.LBB183:
 882              	.LBI183:
 883              		.loc 4 544 57 discriminator 1 view .LVU220
 884              	.LBB184:
 885              		.loc 4 546 3 discriminator 1 view .LVU221
 886 0042 2023     		movs	r3, #32
 887              		.syntax unified
 888              	@ 546 ".//ChibiOS//os/ext/CMSIS/include/core_cmFunc.h" 1
 889 0044 83F31188 		MSR basepri, r3
 890              	@ 0 "" 2
 891              	.LVL64:
 892              		.loc 4 546 3 is_stmt 0 discriminator 1 view .LVU222
 893              		.thumb
 894              		.syntax unified
 895              	.LBE184:
 896              	.LBE183:
 897              	.LBE185:
 898              		.loc 2 349 3 is_stmt 1 discriminator 1 view .LVU223
 899 0048 FFF7FEFF 		bl	_stats_start_measure_crit_thd
 900              	.LVL65:
 901              		.loc 2 350 3 discriminator 1 view .LVU224
 902 004c FFF7FEFF 		bl	_dbg_check_lock
 903              	.LVL66:
 904              	.LBE186:
 905              	.LBE187:
 906              		.loc 1 199 9 discriminator 1 view .LVU225
 907              		.loc 1 199 30 is_stmt 0 discriminator 1 view .LVU226
 908 0050 4046     		mov	r0, r8
ARM GAS  /tmp/ccPTbuCn.s 			page 17


 909 0052 FFF7FEFF 		bl	chThdSuspendS
 910              	.LVL67:
 911 0056 0446     		mov	r4, r0
 912              	.LVL68:
 913              		.loc 1 200 9 is_stmt 1 discriminator 1 view .LVU227
 914              	.LBB188:
 915              	.LBI165:
 916              		.loc 2 358 20 discriminator 1 view .LVU228
 917              	.LBB176:
 918              		.loc 2 360 3 discriminator 1 view .LVU229
 919 0058 FFF7FEFF 		bl	_dbg_check_unlock
 920              	.LVL69:
 921              		.loc 2 361 3 discriminator 1 view .LVU230
 922 005c FFF7FEFF 		bl	_stats_stop_measure_crit_thd
 923              	.LVL70:
 924              		.loc 2 367 3 discriminator 1 view .LVU231
 925              		.loc 2 367 3 discriminator 1 view .LVU232
 926              		.loc 2 367 3 discriminator 1 view .LVU233
 927 0060 3368     		ldr	r3, [r6]
 928 0062 B342     		cmp	r3, r6
 929              	.LBB173:
 930              	.LBB171:
 931              	.LBB170:
 932              		.loc 4 546 3 is_stmt 0 discriminator 1 view .LVU234
 933 0064 4FF00005 		mov	r5, #0
 934              	.LBE170:
 935              	.LBE171:
 936              	.LBE173:
 937              		.loc 2 367 3 discriminator 1 view .LVU235
 938 0068 DED0     		beq	.L54
 939              		.loc 2 367 3 view .LVU236
 940 006a B269     		ldr	r2, [r6, #24]
 941 006c 9B68     		ldr	r3, [r3, #8]
 942 006e 9268     		ldr	r2, [r2, #8]
 943 0070 9A42     		cmp	r2, r3
 944 0072 D9D2     		bcs	.L54
 945              		.loc 2 367 3 is_stmt 1 view .LVU237
 946 0074 5046     		mov	r0, r10
 947 0076 FFF7FEFF 		bl	chSysHalt
 948              	.LVL71:
 949 007a D5E7     		b	.L54
 950              	.L59:
 951              		.align	2
 952              	.L58:
 953 007c 00000000 		.word	ch
 954 0080 00000000 		.word	.LC3
 955 0084 00000000 		.word	.LC4
 956 0088 00000000 		.word	.LANCHOR6
 957 008c 00000000 		.word	.LANCHOR7
 958 0090 00000000 		.word	.LANCHOR9
 959 0094 00000000 		.word	.LANCHOR10
 960              	.LBE176:
 961              	.LBE188:
 962              		.cfi_endproc
 963              	.LFE259:
 964              		.size	PlaySoundFileThd, .-PlaySoundFileThd
 965              		.section	.rodata.playSoundFileStart.cst4,"aM",%progbits,4
ARM GAS  /tmp/ccPTbuCn.s 			page 18


 966              		.align	2
 967              	.LC5:
 968 0000 00000000 		.word	__stack_chk_guard
 969              		.section	.text.playSoundFileStart,"ax",%progbits
 970              		.align	1
 971              		.p2align 4,,15
 972              		.global	playSoundFileStart
 973              		.syntax unified
 974              		.thumb
 975              		.thumb_func
 976              		.fpu fpv4-sp-d16
 977              		.type	playSoundFileStart, %function
 978              	playSoundFileStart:
 979              	.LFB260:
 980              		.loc 1 214 30 view -0
 981              		.cfi_startproc
 982              		@ args = 0, pretend = 0, frame = 8
 983              		@ frame_needed = 0, uses_anonymous_args = 0
 984 0000 00B5     		push	{lr}
 985              		.cfi_def_cfa_offset 4
 986              		.cfi_offset 14, -4
 987 0002 85B0     		sub	sp, sp, #20
 988              		.cfi_def_cfa_offset 24
 989              		.loc 1 214 30 is_stmt 0 view .LVU239
 990 0004 0B4A     		ldr	r2, .L64
 991              		.loc 1 217 5 view .LVU240
 992 0006 0C48     		ldr	r0, .L64+4
 993 0008 0023     		movs	r3, #0
 994 000a 0093     		str	r3, [sp]
 995              		.loc 1 214 30 view .LVU241
 996 000c 1268     		ldr	r2, [r2]
 997 000e 0392     		str	r2, [sp, #12]
 998 0010 4FF00002 		mov	r2,#0
 999              		.loc 1 217 5 is_stmt 1 view .LVU242
 1000 0014 094B     		ldr	r3, .L64+8
 1001 0016 4022     		movs	r2, #64
 1002 0018 4FF4EF61 		mov	r1, #1912
 1003 001c FFF7FEFF 		bl	chThdCreateStatic
 1004              	.LVL72:
 1005              		.loc 1 218 1 is_stmt 0 view .LVU243
 1006 0020 044B     		ldr	r3, .L64
 1007 0022 1A68     		ldr	r2, [r3]
 1008 0024 039B     		ldr	r3, [sp, #12]
 1009 0026 5A40     		eors	r2, r3, r2
 1010 0028 02D1     		bne	.L63
 1011 002a 05B0     		add	sp, sp, #20
 1012              		.cfi_remember_state
 1013              		.cfi_def_cfa_offset 4
 1014              		@ sp needed
 1015 002c 5DF804FB 		ldr	pc, [sp], #4
 1016              	.L63:
 1017              		.cfi_restore_state
 1018 0030 FFF7FEFF 		bl	__stack_chk_fail
 1019              	.LVL73:
 1020              	.L65:
 1021              		.align	2
 1022              	.L64:
ARM GAS  /tmp/ccPTbuCn.s 			page 19


 1023 0034 00000000 		.word	.LC5
 1024 0038 00000000 		.word	.LANCHOR11
 1025 003c 00000000 		.word	PlaySoundFileThd
 1026              		.cfi_endproc
 1027              	.LFE260:
 1028              		.size	playSoundFileStart, .-playSoundFileStart
 1029              		.section	.rodata.playSoundFile.cst4,"aM",%progbits,4
 1030              		.align	2
 1031              	.LC6:
 1032 0000 00000000 		.word	__stack_chk_guard
 1033              		.section	.text.playSoundFile,"ax",%progbits
 1034              		.align	1
 1035              		.p2align 4,,15
 1036              		.global	playSoundFile
 1037              		.syntax unified
 1038              		.thumb
 1039              		.thumb_func
 1040              		.fpu fpv4-sp-d16
 1041              		.type	playSoundFile, %function
 1042              	playSoundFile:
 1043              	.LVL74:
 1044              	.LFB261:
 1045              		.loc 1 220 67 is_stmt 1 view -0
 1046              		.cfi_startproc
 1047              		@ args = 0, pretend = 0, frame = 16
 1048              		@ frame_needed = 0, uses_anonymous_args = 0
 1049              		.loc 1 220 67 is_stmt 0 view .LVU245
 1050 0000 10B5     		push	{r4, lr}
 1051              		.cfi_def_cfa_offset 8
 1052              		.cfi_offset 4, -8
 1053              		.cfi_offset 14, -4
 1054 0002 184B     		ldr	r3, .L85
 1055 0004 84B0     		sub	sp, sp, #16
 1056              		.cfi_def_cfa_offset 24
 1057              		.loc 1 220 67 view .LVU246
 1058 0006 1B68     		ldr	r3, [r3]
 1059 0008 0393     		str	r3, [sp, #12]
 1060 000a 4FF00003 		mov	r3,#0
 1061              		.loc 1 222 5 is_stmt 1 view .LVU247
 1062              		.loc 1 222 7 is_stmt 0 view .LVU248
 1063 000e D8B1     		cbz	r0, .L66
 1064              		.loc 1 227 5 is_stmt 1 view .LVU249
 1065              		.loc 1 227 7 is_stmt 0 view .LVU250
 1066 0010 A9B1     		cbz	r1, .L83
 1067              		.loc 1 237 9 is_stmt 1 view .LVU251
 1068              		.loc 1 237 11 is_stmt 0 view .LVU252
 1069 0012 0229     		cmp	r1, #2
 1070              		.loc 1 238 13 is_stmt 1 view .LVU253
 1071              	.LBB189:
 1072              	.LBI189:
 1073              		.loc 1 247 6 view .LVU254
 1074              	.LBB190:
 1075              		.loc 1 248 5 view .LVU255
 1076              	.LBE190:
 1077              	.LBE189:
 1078              		.loc 1 240 9 view .LVU256
 1079              	.LBB192:
ARM GAS  /tmp/ccPTbuCn.s 			page 20


 1080              	.LBI192:
 1081              		.loc 1 251 6 view .LVU257
 1082              	.LBB193:
 1083              		.loc 1 253 3 view .LVU258
 1084              	.LBE193:
 1085              	.LBE192:
 1086              	.LBB196:
 1087              	.LBB191:
 1088              		.loc 1 248 10 is_stmt 0 view .LVU259
 1089 0014 144C     		ldr	r4, .L85+4
 1090 0016 04BF     		itt	eq
 1091 0018 0023     		moveq	r3, #0
 1092 001a 2370     		strbeq	r3, [r4]
 1093              	.LBE191:
 1094              	.LBE196:
 1095              	.LBB197:
 1096              	.LBB194:
 1097              		.loc 1 253 26 view .LVU260
 1098 001c 134B     		ldr	r3, .L85+8
 1099              		.loc 1 253 5 view .LVU261
 1100 001e 1B68     		ldr	r3, [r3]
 1101 0020 CBB1     		cbz	r3, .L84
 1102              	.LVL75:
 1103              	.L71:
 1104              		.loc 1 253 5 view .LVU262
 1105              	.LBE194:
 1106              	.LBE197:
 1107              		.loc 1 231 13 is_stmt 1 view .LVU263
 1108              		.loc 1 231 18 is_stmt 0 view .LVU264
 1109 0022 0123     		movs	r3, #1
 1110 0024 2370     		strb	r3, [r4]
 1111              		.loc 1 233 13 is_stmt 1 view .LVU265
 1112 0026 0F4B     		ldr	r3, .L85
 1113 0028 1A68     		ldr	r2, [r3]
 1114 002a 039B     		ldr	r3, [sp, #12]
 1115 002c 5A40     		eors	r2, r3, r2
 1116 002e 17D1     		bne	.L82
 1117 0030 0146     		mov	r1, r0
 1118 0032 0E48     		ldr	r0, .L85+8
 1119              		.loc 1 245 1 is_stmt 0 view .LVU266
 1120 0034 04B0     		add	sp, sp, #16
 1121              		.cfi_remember_state
 1122              		.cfi_def_cfa_offset 8
 1123              		@ sp needed
 1124 0036 BDE81040 		pop	{r4, lr}
 1125              		.cfi_restore 14
 1126              		.cfi_restore 4
 1127              		.cfi_def_cfa_offset 0
 1128              		.loc 1 233 13 view .LVU267
 1129 003a FFF7FEBF 		b	chThdResume
 1130              	.LVL76:
 1131              	.L83:
 1132              		.cfi_restore_state
 1133              		.loc 1 230 9 is_stmt 1 view .LVU268
 1134              		.loc 1 230 32 is_stmt 0 view .LVU269
 1135 003e 0B4B     		ldr	r3, .L85+8
 1136              		.loc 1 230 11 view .LVU270
ARM GAS  /tmp/ccPTbuCn.s 			page 21


 1137 0040 1B68     		ldr	r3, [r3]
 1138 0042 0BB1     		cbz	r3, .L66
 1139 0044 084C     		ldr	r4, .L85+4
 1140 0046 ECE7     		b	.L71
 1141              	.L66:
 1142              		.loc 1 245 1 view .LVU271
 1143 0048 064B     		ldr	r3, .L85
 1144 004a 1A68     		ldr	r2, [r3]
 1145 004c 039B     		ldr	r3, [sp, #12]
 1146 004e 5A40     		eors	r2, r3, r2
 1147 0050 06D1     		bne	.L82
 1148 0052 04B0     		add	sp, sp, #16
 1149              		.cfi_remember_state
 1150              		.cfi_def_cfa_offset 8
 1151              		@ sp needed
 1152 0054 10BD     		pop	{r4, pc}
 1153              	.L84:
 1154              		.cfi_restore_state
 1155 0056 0190     		str	r0, [sp, #4]
 1156              	.LBB198:
 1157              	.LBB195:
 1158 0058 FFF7FEFF 		bl	waitSoundFileHasFinished.part.0
 1159              	.LVL77:
 1160              		.loc 1 245 1 view .LVU272
 1161 005c 0198     		ldr	r0, [sp, #4]
 1162 005e E0E7     		b	.L71
 1163              	.LVL78:
 1164              	.L82:
 1165              		.loc 1 245 1 view .LVU273
 1166              	.LBE195:
 1167              	.LBE198:
 1168 0060 FFF7FEFF 		bl	__stack_chk_fail
 1169              	.LVL79:
 1170              	.L86:
 1171              		.align	2
 1172              	.L85:
 1173 0064 00000000 		.word	.LC6
 1174 0068 00000000 		.word	.LANCHOR7
 1175 006c 00000000 		.word	.LANCHOR9
 1176              		.cfi_endproc
 1177              	.LFE261:
 1178              		.size	playSoundFile, .-playSoundFile
 1179              		.section	.rodata.stopCurrentSoundFile.cst4,"aM",%progbits,4
 1180              		.align	2
 1181              	.LC7:
 1182 0000 00000000 		.word	__stack_chk_guard
 1183              		.section	.text.stopCurrentSoundFile,"ax",%progbits
 1184              		.align	1
 1185              		.p2align 4,,15
 1186              		.global	stopCurrentSoundFile
 1187              		.syntax unified
 1188              		.thumb
 1189              		.thumb_func
 1190              		.fpu fpv4-sp-d16
 1191              		.type	stopCurrentSoundFile, %function
 1192              	stopCurrentSoundFile:
 1193              	.LFB262:
ARM GAS  /tmp/ccPTbuCn.s 			page 22


 1194              		.loc 1 247 32 is_stmt 1 view -0
 1195              		.cfi_startproc
 1196              		@ args = 0, pretend = 0, frame = 8
 1197              		@ frame_needed = 0, uses_anonymous_args = 0
 1198 0000 00B5     		push	{lr}
 1199              		.cfi_def_cfa_offset 4
 1200              		.cfi_offset 14, -4
 1201 0002 094A     		ldr	r2, .L91
 1202              		.loc 1 248 10 is_stmt 0 view .LVU275
 1203 0004 094B     		ldr	r3, .L91+4
 1204              		.loc 1 247 32 view .LVU276
 1205 0006 83B0     		sub	sp, sp, #12
 1206              		.cfi_def_cfa_offset 16
 1207              		.loc 1 247 32 view .LVU277
 1208 0008 1268     		ldr	r2, [r2]
 1209 000a 0192     		str	r2, [sp, #4]
 1210 000c 4FF00002 		mov	r2,#0
 1211              		.loc 1 248 5 is_stmt 1 view .LVU278
 1212              		.loc 1 248 10 is_stmt 0 view .LVU279
 1213 0010 0022     		movs	r2, #0
 1214 0012 1A70     		strb	r2, [r3]
 1215              		.loc 1 249 1 view .LVU280
 1216 0014 044B     		ldr	r3, .L91
 1217 0016 1A68     		ldr	r2, [r3]
 1218 0018 019B     		ldr	r3, [sp, #4]
 1219 001a 5A40     		eors	r2, r3, r2
 1220 001c 02D1     		bne	.L90
 1221 001e 03B0     		add	sp, sp, #12
 1222              		.cfi_remember_state
 1223              		.cfi_def_cfa_offset 4
 1224              		@ sp needed
 1225 0020 5DF804FB 		ldr	pc, [sp], #4
 1226              	.L90:
 1227              		.cfi_restore_state
 1228 0024 FFF7FEFF 		bl	__stack_chk_fail
 1229              	.LVL80:
 1230              	.L92:
 1231              		.align	2
 1232              	.L91:
 1233 0028 00000000 		.word	.LC7
 1234 002c 00000000 		.word	.LANCHOR7
 1235              		.cfi_endproc
 1236              	.LFE262:
 1237              		.size	stopCurrentSoundFile, .-stopCurrentSoundFile
 1238              		.section	.rodata.waitSoundFileHasFinished.cst4,"aM",%progbits,4
 1239              		.align	2
 1240              	.LC8:
 1241 0000 00000000 		.word	__stack_chk_guard
 1242              		.section	.text.waitSoundFileHasFinished,"ax",%progbits
 1243              		.align	1
 1244              		.p2align 4,,15
 1245              		.global	waitSoundFileHasFinished
 1246              		.syntax unified
 1247              		.thumb
 1248              		.thumb_func
 1249              		.fpu fpv4-sp-d16
 1250              		.type	waitSoundFileHasFinished, %function
ARM GAS  /tmp/ccPTbuCn.s 			page 23


 1251              	waitSoundFileHasFinished:
 1252              	.LFB263:
 1253              		.loc 1 251 37 is_stmt 1 view -0
 1254              		.cfi_startproc
 1255              		@ args = 0, pretend = 0, frame = 8
 1256              		@ frame_needed = 0, uses_anonymous_args = 0
 1257 0000 00B5     		push	{lr}
 1258              		.cfi_def_cfa_offset 4
 1259              		.cfi_offset 14, -4
 1260              		.loc 1 253 26 is_stmt 0 view .LVU282
 1261 0002 0E4B     		ldr	r3, .L100
 1262              		.loc 1 251 37 view .LVU283
 1263 0004 0E4A     		ldr	r2, .L100+4
 1264              		.loc 1 253 5 view .LVU284
 1265 0006 1B68     		ldr	r3, [r3]
 1266              		.loc 1 251 37 view .LVU285
 1267 0008 83B0     		sub	sp, sp, #12
 1268              		.cfi_def_cfa_offset 16
 1269              		.loc 1 251 37 view .LVU286
 1270 000a 1268     		ldr	r2, [r2]
 1271 000c 0192     		str	r2, [sp, #4]
 1272 000e 4FF00002 		mov	r2,#0
 1273              		.loc 1 253 3 is_stmt 1 view .LVU287
 1274              		.loc 1 253 5 is_stmt 0 view .LVU288
 1275 0012 3BB1     		cbz	r3, .L99
 1276              		.loc 1 259 1 view .LVU289
 1277 0014 0A4B     		ldr	r3, .L100+4
 1278 0016 1A68     		ldr	r2, [r3]
 1279 0018 019B     		ldr	r3, [sp, #4]
 1280 001a 5A40     		eors	r2, r3, r2
 1281 001c 0CD1     		bne	.L98
 1282 001e 03B0     		add	sp, sp, #12
 1283              		.cfi_remember_state
 1284              		.cfi_def_cfa_offset 4
 1285              		@ sp needed
 1286 0020 5DF804FB 		ldr	pc, [sp], #4
 1287              	.L99:
 1288              		.cfi_restore_state
 1289 0024 064B     		ldr	r3, .L100+4
 1290 0026 1A68     		ldr	r2, [r3]
 1291 0028 019B     		ldr	r3, [sp, #4]
 1292 002a 5A40     		eors	r2, r3, r2
 1293 002c 04D1     		bne	.L98
 1294 002e 03B0     		add	sp, sp, #12
 1295              		.cfi_remember_state
 1296              		.cfi_def_cfa_offset 4
 1297              		@ sp needed
 1298 0030 5DF804EB 		ldr	lr, [sp], #4
 1299              		.cfi_restore 14
 1300              		.cfi_def_cfa_offset 0
 1301 0034 FFF7FEBF 		b	waitSoundFileHasFinished.part.0
 1302              	.LVL81:
 1303              	.L98:
 1304              		.cfi_restore_state
 1305 0038 FFF7FEFF 		bl	__stack_chk_fail
 1306              	.LVL82:
 1307              	.L101:
ARM GAS  /tmp/ccPTbuCn.s 			page 24


 1308              		.align	2
 1309              	.L100:
 1310 003c 00000000 		.word	.LANCHOR9
 1311 0040 00000000 		.word	.LC8
 1312              		.cfi_endproc
 1313              	.LFE263:
 1314              		.size	waitSoundFileHasFinished, .-waitSoundFileHasFinished
 1315              		.section	.rodata.setSoundFileVolume.cst4,"aM",%progbits,4
 1316              		.align	2
 1317              	.LC9:
 1318 0000 00000000 		.word	__stack_chk_guard
 1319              		.section	.text.setSoundFileVolume,"ax",%progbits
 1320              		.align	1
 1321              		.p2align 4,,15
 1322              		.global	setSoundFileVolume
 1323              		.syntax unified
 1324              		.thumb
 1325              		.thumb_func
 1326              		.fpu fpv4-sp-d16
 1327              		.type	setSoundFileVolume, %function
 1328              	setSoundFileVolume:
 1329              	.LVL83:
 1330              	.LFB264:
 1331              		.loc 1 261 40 is_stmt 1 view -0
 1332              		.cfi_startproc
 1333              		@ args = 0, pretend = 0, frame = 8
 1334              		@ frame_needed = 0, uses_anonymous_args = 0
 1335              		.loc 1 261 40 is_stmt 0 view .LVU291
 1336 0000 10B5     		push	{r4, lr}
 1337              		.cfi_def_cfa_offset 8
 1338              		.cfi_offset 4, -8
 1339              		.cfi_offset 14, -4
 1340              		.loc 1 268 8 view .LVU292
 1341 0002 0F4B     		ldr	r3, .L111
 1342              		.loc 1 261 40 view .LVU293
 1343 0004 0F4A     		ldr	r2, .L111+4
 1344              		.loc 1 268 7 view .LVU294
 1345 0006 1B78     		ldrb	r3, [r3]	@ zero_extendqisi2
 1346              		.loc 1 261 40 view .LVU295
 1347 0008 82B0     		sub	sp, sp, #8
 1348              		.cfi_def_cfa_offset 16
 1349 000a 3228     		cmp	r0, #50
 1350 000c 0446     		mov	r4, r0
 1351              		.loc 1 261 40 view .LVU296
 1352 000e 1268     		ldr	r2, [r2]
 1353 0010 0192     		str	r2, [sp, #4]
 1354 0012 4FF00002 		mov	r2,#0
 1355              		.loc 1 262 5 is_stmt 1 view .LVU297
 1356 0016 28BF     		it	cs
 1357 0018 3224     		movcs	r4, #50
 1358              	.LVL84:
 1359              		.loc 1 268 5 view .LVU298
 1360              		.loc 1 268 7 is_stmt 0 view .LVU299
 1361 001a 2BB1     		cbz	r3, .L103
 1362              		.loc 1 269 9 is_stmt 1 view .LVU300
 1363              		.loc 1 269 11 is_stmt 0 view .LVU301
 1364 001c 0428     		cmp	r0, #4
ARM GAS  /tmp/ccPTbuCn.s 			page 25


 1365              		.loc 1 270 13 is_stmt 1 view .LVU302
 1366 001e 94BF     		ite	ls
 1367 0020 0020     		movls	r0, #0
 1368              		.loc 1 272 13 view .LVU303
 1369 0022 0120     		movhi	r0, #1
 1370 0024 FFF7FEFF 		bl	dac_power_speaker
 1371              	.LVL85:
 1372              	.L103:
 1373              		.loc 1 276 5 view .LVU304
 1374              		.loc 1 276 23 is_stmt 0 view .LVU305
 1375 0028 074B     		ldr	r3, .L111+8
 1376 002a 1C70     		strb	r4, [r3]
 1377              		.loc 1 277 1 view .LVU306
 1378 002c 054B     		ldr	r3, .L111+4
 1379 002e 1A68     		ldr	r2, [r3]
 1380 0030 019B     		ldr	r3, [sp, #4]
 1381 0032 5A40     		eors	r2, r3, r2
 1382 0034 01D1     		bne	.L110
 1383              		.loc 1 277 1 view .LVU307
 1384 0036 02B0     		add	sp, sp, #8
 1385              		.cfi_remember_state
 1386              		.cfi_def_cfa_offset 8
 1387              		@ sp needed
 1388 0038 10BD     		pop	{r4, pc}
 1389              	.LVL86:
 1390              	.L110:
 1391              		.cfi_restore_state
 1392              		.loc 1 277 1 view .LVU308
 1393 003a FFF7FEFF 		bl	__stack_chk_fail
 1394              	.LVL87:
 1395              	.L112:
 1396 003e 00BF     		.align	2
 1397              	.L111:
 1398 0040 00000000 		.word	.LANCHOR7
 1399 0044 00000000 		.word	.LC9
 1400 0048 00000000 		.word	.LANCHOR8
 1401              		.cfi_endproc
 1402              	.LFE264:
 1403              		.size	setSoundFileVolume, .-setSoundFileVolume
 1404              		.section	.bss.buffer_to_read,"aw",%nobits
 1405              		.align	2
 1406              		.set	.LANCHOR2,. + 0
 1407              		.type	buffer_to_read, %object
 1408              		.size	buffer_to_read, 4
 1409              	buffer_to_read:
 1410 0000 00000000 		.space	4
 1411              		.section	.bss.play,"aw",%nobits
 1412              		.set	.LANCHOR7,. + 0
 1413              		.type	play, %object
 1414              		.size	play, 1
 1415              	play:
 1416 0000 00       		.space	1
 1417              		.section	.bss.play_sound_file_ref,"aw",%nobits
 1418              		.align	2
 1419              		.set	.LANCHOR9,. + 0
 1420              		.type	play_sound_file_ref, %object
 1421              		.size	play_sound_file_ref, 4
ARM GAS  /tmp/ccPTbuCn.s 			page 26


 1422              	play_sound_file_ref:
 1423 0000 00000000 		.space	4
 1424              		.section	.bss.size_buffer_to_read,"aw",%nobits
 1425              		.align	2
 1426              		.set	.LANCHOR3,. + 0
 1427              		.type	size_buffer_to_read, %object
 1428              		.size	size_buffer_to_read, 4
 1429              	size_buffer_to_read:
 1430 0000 00000000 		.space	4
 1431              		.section	.bss.sound_buffer1,"aw",%nobits
 1432              		.align	2
 1433              		.set	.LANCHOR1,. + 0
 1434              		.type	sound_buffer1, %object
 1435              		.size	sound_buffer1, 512
 1436              	sound_buffer1:
 1437 0000 00000000 		.space	512
 1437      00000000 
 1437      00000000 
 1437      00000000 
 1437      00000000 
 1438              		.section	.bss.sound_buffer2,"aw",%nobits
 1439              		.align	2
 1440              		.set	.LANCHOR0,. + 0
 1441              		.type	sound_buffer2, %object
 1442              		.size	sound_buffer2, 512
 1443              	sound_buffer2:
 1444 0000 00000000 		.space	512
 1444      00000000 
 1444      00000000 
 1444      00000000 
 1444      00000000 
 1445              		.section	.bss.waPlaySoundFileThd,"aw",%nobits
 1446              		.align	3
 1447              		.set	.LANCHOR11,. + 0
 1448              		.type	waPlaySoundFileThd, %object
 1449              		.size	waPlaySoundFileThd, 1912
 1450              	waPlaySoundFileThd:
 1451 0000 00000000 		.space	1912
 1451      00000000 
 1451      00000000 
 1451      00000000 
 1451      00000000 
 1452              		.section	.data.change_buffer,"aw"
 1453              		.align	2
 1454              		.set	.LANCHOR4,. + 0
 1455              		.type	change_buffer, %object
 1456              		.size	change_buffer, 12
 1457              	change_buffer:
 1458 0000 00000000 		.word	change_buffer
 1459 0004 00000000 		.word	change_buffer
 1460 0008 00000000 		.word	0
 1461              		.section	.data.play_sound_file_condvar,"aw"
 1462              		.align	2
 1463              		.set	.LANCHOR6,. + 0
 1464              		.type	play_sound_file_condvar, %object
 1465              		.size	play_sound_file_condvar, 8
 1466              	play_sound_file_condvar:
ARM GAS  /tmp/ccPTbuCn.s 			page 27


 1467 0000 00000000 		.word	play_sound_file_condvar
 1468 0004 00000000 		.word	play_sound_file_condvar
 1469              		.section	.data.play_sound_file_lock,"aw"
 1470              		.align	2
 1471              		.set	.LANCHOR5,. + 0
 1472              		.type	play_sound_file_lock, %object
 1473              		.size	play_sound_file_lock, 20
 1474              	play_sound_file_lock:
 1475 0000 00000000 		.word	play_sound_file_lock
 1476 0004 00000000 		.word	play_sound_file_lock
 1477 0008 00000000 		.word	0
 1478 000c 00000000 		.word	0
 1479 0010 00000000 		.word	0
 1480              		.section	.data.sound_file_volume,"aw"
 1481              		.set	.LANCHOR8,. + 0
 1482              		.type	sound_file_volume, %object
 1483              		.size	sound_file_volume, 1
 1484              	sound_file_volume:
 1485 0000 0A       		.byte	10
 1486              		.section	.rodata.__func__.7261,"a"
 1487              		.align	2
 1488              		.set	.LANCHOR10,. + 0
 1489              		.type	__func__.7261, %object
 1490              		.size	__func__.7261, 12
 1491              	__func__.7261:
 1492 0000 63685379 		.ascii	"chSysUnlock\000"
 1492      73556E6C 
 1492      6F636B00 
 1493              		.text
 1494              	.Letext0:
 1495              		.file 7 "/usr/lib/gcc/arm-none-eabi/9.2.1/include/stddef.h"
 1496              		.file 8 "/usr/lib/gcc/arm-none-eabi/9.2.1/include/stdint.h"
 1497              		.file 9 ".//ChibiOS//os/rt/ports/ARMCMx/compilers/GCC/chtypes.h"
 1498              		.file 10 ".//ChibiOS//os/rt/include/chsystypes.h"
 1499              		.file 11 ".//ChibiOS//os/rt/include/chschd.h"
 1500              		.file 12 ".//ChibiOS//os/ext/CMSIS/include/core_cm4.h"
 1501              		.file 13 ".//ChibiOS//os/ext/CMSIS/ST/system_stm32f4xx.h"
 1502              		.file 14 ".//ChibiOS//os/ext/CMSIS/ST/stm32f407xx.h"
 1503              		.file 15 ".//ChibiOS//os/rt/ports/ARMCMx/chcore.h"
 1504              		.file 16 ".//ChibiOS//os/rt/include/chdebug.h"
 1505              		.file 17 ".//ChibiOS//os/rt/include/chtm.h"
 1506              		.file 18 ".//ChibiOS//os/rt/include/chstats.h"
 1507              		.file 19 ".//ChibiOS//os/rt/include/chsem.h"
 1508              		.file 20 ".//ChibiOS//os/rt/include/chmtx.h"
 1509              		.file 21 ".//ChibiOS//os/rt/include/chcond.h"
 1510              		.file 22 ".//ChibiOS//os/rt/include/chevents.h"
 1511              		.file 23 ".//ChibiOS//os/rt/include/chqueues.h"
 1512              		.file 24 ".//ChibiOS//os/hal/ports/STM32/STM32F4xx/stm32_dma.h"
 1513              		.file 25 ".//ChibiOS//os/hal/include/hal_ioblock.h"
 1514              		.file 26 ".//ChibiOS//os/hal/ports/STM32/LLD/GPIOv2/pal_lld.h"
 1515              		.file 27 ".//ChibiOS//os/hal/include/adc.h"
 1516              		.file 28 ".//ChibiOS//os/hal/ports/STM32/STM32F4xx/adc_lld.h"
 1517              		.file 29 ".//ChibiOS//os/hal/include/can.h"
 1518              		.file 30 ".//ChibiOS//os/hal/ports/STM32/LLD/can_lld.h"
 1519              		.file 31 ".//ChibiOS//os/hal/include/dac.h"
 1520              		.file 32 ".//ChibiOS//os/hal/ports/STM32/LLD/DACv1/dac_lld.h"
 1521              		.file 33 ".//ChibiOS//os/hal/include/ext.h"
ARM GAS  /tmp/ccPTbuCn.s 			page 28


 1522              		.file 34 ".//ChibiOS//os/hal/ports/STM32/LLD/ext_lld.h"
 1523              		.file 35 ".//ChibiOS//os/hal/include/gpt.h"
 1524              		.file 36 ".//ChibiOS//os/hal/ports/STM32/LLD/TIMv1/gpt_lld.h"
 1525              		.file 37 ".//ChibiOS//os/hal/ports/STM32/LLD/TIMv1/stm32_tim.h"
 1526              		.file 38 ".//ChibiOS//os/hal/include/i2c.h"
 1527              		.file 39 ".//ChibiOS//os/hal/ports/STM32/LLD/I2Cv1/i2c_lld.h"
 1528              		.file 40 ".//ChibiOS//os/hal/include/i2s.h"
 1529              		.file 41 ".//ChibiOS//os/hal/ports/STM32/LLD/SPIv1/i2s_lld.h"
 1530              		.file 42 ".//ChibiOS//os/hal/include/pwm.h"
 1531              		.file 43 ".//ChibiOS//os/hal/ports/STM32/LLD/TIMv1/pwm_lld.h"
 1532              		.file 44 ".//ChibiOS//os/hal/include/serial.h"
 1533              		.file 45 ".//ChibiOS//os/hal/ports/STM32/LLD/USARTv1/serial_lld.h"
 1534              		.file 46 ".//ChibiOS//os/hal/include/sdc.h"
 1535              		.file 47 ".//ChibiOS//os/hal/ports/STM32/LLD/sdc_lld.h"
 1536              		.file 48 ".//ChibiOS//os/hal/include/spi.h"
 1537              		.file 49 ".//ChibiOS//os/hal/ports/STM32/LLD/SPIv1/spi_lld.h"
 1538              		.file 50 ".//ChibiOS//os/hal/include/usb.h"
 1539              		.file 51 ".//ChibiOS//os/hal/ports/STM32/LLD/OTGv1/usb_lld.h"
 1540              		.file 52 ".//ChibiOS//os/hal/ports/STM32/LLD/OTGv1/stm32_otg.h"
 1541              		.file 53 ".//ChibiOS_ext//ext/fatfs/src/integer.h"
 1542              		.file 54 ".//ChibiOS_ext//ext/fatfs/src/ff.h"
 1543              		.file 55 ".//src/audio/play_sound_file.h"
 1544              		.file 56 ".//src/audio/audio_thread.h"
 1545              		.file 57 ".//ChibiOS//os/rt/include/chthreads.h"
 1546              		.file 58 ".//src/fat.h"