ARM GAS  /tmp/cczbsEFl.s 			page 1


   1              		.cpu cortex-m4
   2              		.eabi_attribute 27, 1
   3              		.eabi_attribute 28, 1
   4              		.eabi_attribute 20, 1
   5              		.eabi_attribute 21, 1
   6              		.eabi_attribute 23, 3
   7              		.eabi_attribute 24, 1
   8              		.eabi_attribute 25, 1
   9              		.eabi_attribute 26, 1
  10              		.eabi_attribute 30, 2
  11              		.eabi_attribute 34, 1
  12              		.eabi_attribute 18, 4
  13              		.file	"po8030.c"
  14              		.text
  15              	.Ltext0:
  16              		.cfi_sections	.debug_frame
  17              		.section	.rodata.po8030_read_id.cst4,"aM",%progbits,4
  18              		.align	2
  19              	.LC0:
  20 0000 00000000 		.word	__stack_chk_guard
  21              		.section	.text.po8030_read_id,"ax",%progbits
  22              		.align	1
  23              		.p2align 4,,15
  24              		.global	po8030_read_id
  25              		.arch armv7e-m
  26              		.syntax unified
  27              		.thumb
  28              		.thumb_func
  29              		.fpu fpv4-sp-d16
  30              		.type	po8030_read_id, %function
  31              	po8030_read_id:
  32              	.LVL0:
  33              	.LFB257:
  34              		.file 1 ".//src/camera/po8030.c"
  35              		.loc 1 93 37 view -0
  36              		.cfi_startproc
  37              		@ args = 0, pretend = 0, frame = 8
  38              		@ frame_needed = 0, uses_anonymous_args = 0
  39              		.loc 1 93 37 is_stmt 0 view .LVU1
  40 0000 10B5     		push	{r4, lr}
  41              		.cfi_def_cfa_offset 8
  42              		.cfi_offset 4, -8
  43              		.cfi_offset 14, -4
  44 0002 134B     		ldr	r3, .L8
  45 0004 82B0     		sub	sp, sp, #8
  46              		.cfi_def_cfa_offset 16
  47              		.loc 1 94 13 view .LVU2
  48 0006 0021     		movs	r1, #0
  49              		.loc 1 93 37 view .LVU3
  50 0008 0446     		mov	r4, r0
  51              		.loc 1 97 15 view .LVU4
  52 000a 6A46     		mov	r2, sp
  53 000c 6E20     		movs	r0, #110
  54              	.LVL1:
  55              		.loc 1 93 37 view .LVU5
  56 000e 1B68     		ldr	r3, [r3]
  57 0010 0193     		str	r3, [sp, #4]
ARM GAS  /tmp/cczbsEFl.s 			page 2


  58 0012 4FF00003 		mov	r3,#0
  59              		.loc 1 94 5 is_stmt 1 view .LVU6
  60              		.loc 1 94 13 is_stmt 0 view .LVU7
  61 0016 ADF80010 		strh	r1, [sp]	@ movhi
  62              		.loc 1 95 5 is_stmt 1 view .LVU8
  63              	.LVL2:
  64              		.loc 1 97 5 view .LVU9
  65              		.loc 1 97 15 is_stmt 0 view .LVU10
  66 001a FFF7FEFF 		bl	read_reg
  67              	.LVL3:
  68              		.loc 1 97 7 view .LVU11
  69 001e 30B1     		cbz	r0, .L6
  70              	.L2:
  71              		.loc 1 106 1 view .LVU12
  72 0020 0B4B     		ldr	r3, .L8
  73 0022 1A68     		ldr	r2, [r3]
  74 0024 019B     		ldr	r3, [sp, #4]
  75 0026 5A40     		eors	r2, r3, r2
  76 0028 10D1     		bne	.L7
  77 002a 02B0     		add	sp, sp, #8
  78              		.cfi_remember_state
  79              		.cfi_def_cfa_offset 8
  80              		@ sp needed
  81 002c 10BD     		pop	{r4, pc}
  82              	.LVL4:
  83              	.L6:
  84              		.cfi_restore_state
  85              		.loc 1 100 5 is_stmt 1 view .LVU13
  86              		.loc 1 100 15 is_stmt 0 view .LVU14
  87 002e 0DF10102 		add	r2, sp, #1
  88 0032 0121     		movs	r1, #1
  89 0034 6E20     		movs	r0, #110
  90              	.LVL5:
  91              		.loc 1 100 15 view .LVU15
  92 0036 FFF7FEFF 		bl	read_reg
  93              	.LVL6:
  94              		.loc 1 100 7 view .LVU16
  95 003a 0028     		cmp	r0, #0
  96 003c F0D1     		bne	.L2
  97              		.loc 1 103 5 is_stmt 1 view .LVU17
  98              		.loc 1 103 9 is_stmt 0 view .LVU18
  99 003e 9DF80030 		ldrb	r3, [sp]	@ zero_extendqisi2
 100 0042 9DF80120 		ldrb	r2, [sp, #1]	@ zero_extendqisi2
 101 0046 1343     		orrs	r3, r3, r2
 102 0048 2380     		strh	r3, [r4]	@ movhi
 103              		.loc 1 105 5 is_stmt 1 view .LVU19
 104              		.loc 1 105 12 is_stmt 0 view .LVU20
 105 004a E9E7     		b	.L2
 106              	.L7:
 107              		.loc 1 106 1 view .LVU21
 108 004c FFF7FEFF 		bl	__stack_chk_fail
 109              	.LVL7:
 110              	.L9:
 111              		.loc 1 106 1 view .LVU22
 112              		.align	2
 113              	.L8:
 114 0050 00000000 		.word	.LC0
ARM GAS  /tmp/cczbsEFl.s 			page 3


 115              		.cfi_endproc
 116              	.LFE257:
 117              		.size	po8030_read_id, .-po8030_read_id
 118              		.section	.rodata.po8030_set_bank.cst4,"aM",%progbits,4
 119              		.align	2
 120              	.LC1:
 121 0000 00000000 		.word	__stack_chk_guard
 122              		.section	.text.po8030_set_bank,"ax",%progbits
 123              		.align	1
 124              		.p2align 4,,15
 125              		.global	po8030_set_bank
 126              		.syntax unified
 127              		.thumb
 128              		.thumb_func
 129              		.fpu fpv4-sp-d16
 130              		.type	po8030_set_bank, %function
 131              	po8030_set_bank:
 132              	.LVL8:
 133              	.LFB258:
 134              		.loc 1 118 38 is_stmt 1 view -0
 135              		.cfi_startproc
 136              		@ args = 0, pretend = 0, frame = 8
 137              		@ frame_needed = 0, uses_anonymous_args = 0
 138              		.loc 1 118 38 is_stmt 0 view .LVU24
 139 0000 00B5     		push	{lr}
 140              		.cfi_def_cfa_offset 4
 141              		.cfi_offset 14, -4
 142 0002 0A4B     		ldr	r3, .L15
 143 0004 83B0     		sub	sp, sp, #12
 144              		.cfi_def_cfa_offset 16
 145              		.loc 1 118 38 view .LVU25
 146 0006 1B68     		ldr	r3, [r3]
 147 0008 0193     		str	r3, [sp, #4]
 148 000a 4FF00003 		mov	r3,#0
 149              		.loc 1 119 5 is_stmt 1 view .LVU26
 150              		.loc 1 119 12 is_stmt 0 view .LVU27
 151 000e 074B     		ldr	r3, .L15
 152 0010 1968     		ldr	r1, [r3]
 153 0012 019B     		ldr	r3, [sp, #4]
 154 0014 5940     		eors	r1, r3, r1
 155 0016 07D1     		bne	.L14
 156 0018 0246     		mov	r2, r0
 157 001a 0321     		movs	r1, #3
 158 001c 6E20     		movs	r0, #110
 159              	.LVL9:
 160              		.loc 1 120 1 view .LVU28
 161 001e 03B0     		add	sp, sp, #12
 162              		.cfi_remember_state
 163              		.cfi_def_cfa_offset 4
 164              		@ sp needed
 165 0020 5DF804EB 		ldr	lr, [sp], #4
 166              		.cfi_restore 14
 167              		.cfi_def_cfa_offset 0
 168              		.loc 1 119 12 view .LVU29
 169 0024 FFF7FEBF 		b	write_reg
 170              	.LVL10:
 171              	.L14:
ARM GAS  /tmp/cczbsEFl.s 			page 4


 172              		.cfi_restore_state
 173              		.loc 1 119 12 view .LVU30
 174 0028 FFF7FEFF 		bl	__stack_chk_fail
 175              	.LVL11:
 176              	.L16:
 177              		.loc 1 119 12 view .LVU31
 178              		.align	2
 179              	.L15:
 180 002c 00000000 		.word	.LC1
 181              		.cfi_endproc
 182              	.LFE258:
 183              		.size	po8030_set_bank, .-po8030_set_bank
 184              		.section	.rodata.po8030_set_format.cst4,"aM",%progbits,4
 185              		.align	2
 186              	.LC2:
 187 0000 00000000 		.word	__stack_chk_guard
 188              		.section	.text.po8030_set_format,"ax",%progbits
 189              		.align	1
 190              		.p2align 4,,15
 191              		.global	po8030_set_format
 192              		.syntax unified
 193              		.thumb
 194              		.thumb_func
 195              		.fpu fpv4-sp-d16
 196              		.type	po8030_set_format, %function
 197              	po8030_set_format:
 198              	.LVL12:
 199              	.LFB259:
 200              		.loc 1 132 40 is_stmt 1 view -0
 201              		.cfi_startproc
 202              		@ args = 0, pretend = 0, frame = 8
 203              		@ frame_needed = 0, uses_anonymous_args = 0
 204              		.loc 1 132 40 is_stmt 0 view .LVU33
 205 0000 30B5     		push	{r4, r5, lr}
 206              		.cfi_def_cfa_offset 12
 207              		.cfi_offset 4, -12
 208              		.cfi_offset 5, -8
 209              		.cfi_offset 14, -4
 210 0002 284B     		ldr	r3, .L35
 211 0004 83B0     		sub	sp, sp, #12
 212              		.cfi_def_cfa_offset 24
 213              		.loc 1 132 40 view .LVU34
 214 0006 0546     		mov	r5, r0
 215              	.LBB76:
 216              	.LBB77:
 217              		.loc 1 119 12 view .LVU35
 218 0008 0122     		movs	r2, #1
 219 000a 0321     		movs	r1, #3
 220 000c 6E20     		movs	r0, #110
 221              	.LVL13:
 222              		.loc 1 119 12 view .LVU36
 223              	.LBE77:
 224              	.LBE76:
 225              		.loc 1 132 40 view .LVU37
 226 000e 1B68     		ldr	r3, [r3]
 227 0010 0193     		str	r3, [sp, #4]
 228 0012 4FF00003 		mov	r3,#0
ARM GAS  /tmp/cczbsEFl.s 			page 5


 229              		.loc 1 133 5 is_stmt 1 view .LVU38
 230              	.LVL14:
 231              		.loc 1 135 5 view .LVU39
 232              	.LBB79:
 233              	.LBI76:
 234              		.loc 1 118 8 view .LVU40
 235              	.LBB78:
 236              		.loc 1 119 5 view .LVU41
 237              		.loc 1 119 12 is_stmt 0 view .LVU42
 238 0016 FFF7FEFF 		bl	write_reg
 239              	.LVL15:
 240              		.loc 1 119 12 view .LVU43
 241              	.LBE78:
 242              	.LBE79:
 243              		.loc 1 135 7 view .LVU44
 244 001a 0446     		mov	r4, r0
 245 001c 38B1     		cbz	r0, .L31
 246              	.LVL16:
 247              	.L18:
 248              		.loc 1 168 1 view .LVU45
 249 001e 214B     		ldr	r3, .L35
 250 0020 1A68     		ldr	r2, [r3]
 251 0022 019B     		ldr	r3, [sp, #4]
 252 0024 5A40     		eors	r2, r3, r2
 253 0026 3BD1     		bne	.L32
 254 0028 2046     		mov	r0, r4
 255 002a 03B0     		add	sp, sp, #12
 256              		.cfi_remember_state
 257              		.cfi_def_cfa_offset 12
 258              		@ sp needed
 259 002c 30BD     		pop	{r4, r5, pc}
 260              	.LVL17:
 261              	.L31:
 262              		.cfi_restore_state
 263              		.loc 1 139 5 is_stmt 1 view .LVU46
 264              		.loc 1 139 15 is_stmt 0 view .LVU47
 265 002e 2A46     		mov	r2, r5
 266 0030 4E21     		movs	r1, #78
 267 0032 6E20     		movs	r0, #110
 268              	.LVL18:
 269              		.loc 1 139 15 view .LVU48
 270 0034 FFF7FEFF 		bl	write_reg
 271              	.LVL19:
 272              		.loc 1 139 7 view .LVU49
 273 0038 0446     		mov	r4, r0
 274 003a 0028     		cmp	r0, #0
 275 003c EFD1     		bne	.L18
 276              	.LVL20:
 277              	.LBB80:
 278              	.LBI80:
 279              		.loc 1 132 8 is_stmt 1 view .LVU50
 280              	.LBB81:
 281              		.loc 1 143 5 view .LVU51
 282              		.loc 1 143 7 is_stmt 0 view .LVU52
 283 003e 442D     		cmp	r5, #68
 284 0040 18D0     		beq	.L33
 285              		.loc 1 154 9 is_stmt 1 view .LVU53
ARM GAS  /tmp/cczbsEFl.s 			page 6


 286              		.loc 1 154 19 is_stmt 0 view .LVU54
 287 0042 0246     		mov	r2, r0
 288 0044 B721     		movs	r1, #183
 289 0046 6E20     		movs	r0, #110
 290              	.LVL21:
 291              		.loc 1 154 19 view .LVU55
 292 0048 FFF7FEFF 		bl	write_reg
 293              	.LVL22:
 294              		.loc 1 154 11 view .LVU56
 295 004c 08B1     		cbz	r0, .L34
 296              	.L26:
 297              		.loc 1 154 11 view .LVU57
 298 004e 0446     		mov	r4, r0
 299 0050 E5E7     		b	.L18
 300              	.L34:
 301              		.loc 1 157 9 is_stmt 1 view .LVU58
 302              	.LVL23:
 303              	.LBB82:
 304              	.LBI82:
 305              		.loc 1 118 8 view .LVU59
 306              	.LBB83:
 307              		.loc 1 119 5 view .LVU60
 308              		.loc 1 119 12 is_stmt 0 view .LVU61
 309 0052 2246     		mov	r2, r4
 310 0054 0321     		movs	r1, #3
 311 0056 6E20     		movs	r0, #110
 312              	.LVL24:
 313              		.loc 1 119 12 view .LVU62
 314 0058 FFF7FEFF 		bl	write_reg
 315              	.LVL25:
 316              		.loc 1 119 12 view .LVU63
 317              	.LBE83:
 318              	.LBE82:
 319              		.loc 1 157 11 view .LVU64
 320 005c 0028     		cmp	r0, #0
 321 005e F6D1     		bne	.L26
 322              		.loc 1 160 9 is_stmt 1 view .LVU65
 323              		.loc 1 160 19 is_stmt 0 view .LVU66
 324 0060 0A22     		movs	r2, #10
 325 0062 1121     		movs	r1, #17
 326 0064 6E20     		movs	r0, #110
 327              	.LVL26:
 328              		.loc 1 160 19 view .LVU67
 329 0066 FFF7FEFF 		bl	write_reg
 330              	.LVL27:
 331              		.loc 1 160 11 view .LVU68
 332 006a 0028     		cmp	r0, #0
 333 006c EFD1     		bne	.L26
 334              	.L20:
 335              		.loc 1 165 2 is_stmt 1 view .LVU69
 336              		.loc 1 165 26 is_stmt 0 view .LVU70
 337 006e 0E4B     		ldr	r3, .L35+4
 338 0070 1D71     		strb	r5, [r3, #4]
 339              		.loc 1 167 5 is_stmt 1 view .LVU71
 340              		.loc 1 167 12 is_stmt 0 view .LVU72
 341 0072 D4E7     		b	.L18
 342              	.LVL28:
ARM GAS  /tmp/cczbsEFl.s 			page 7


 343              	.L33:
 344              		.loc 1 144 9 is_stmt 1 view .LVU73
 345              		.loc 1 144 19 is_stmt 0 view .LVU74
 346 0074 0122     		movs	r2, #1
 347 0076 B721     		movs	r1, #183
 348 0078 6E20     		movs	r0, #110
 349              	.LVL29:
 350              		.loc 1 144 19 view .LVU75
 351 007a FFF7FEFF 		bl	write_reg
 352              	.LVL30:
 353              		.loc 1 144 11 view .LVU76
 354 007e 0028     		cmp	r0, #0
 355 0080 E5D1     		bne	.L26
 356              		.loc 1 147 9 is_stmt 1 view .LVU77
 357              	.LVL31:
 358              	.LBB84:
 359              	.LBI84:
 360              		.loc 1 118 8 view .LVU78
 361              	.LBB85:
 362              		.loc 1 119 5 view .LVU79
 363              		.loc 1 119 12 is_stmt 0 view .LVU80
 364 0082 2246     		mov	r2, r4
 365 0084 0321     		movs	r1, #3
 366 0086 6E20     		movs	r0, #110
 367              	.LVL32:
 368              		.loc 1 119 12 view .LVU81
 369 0088 FFF7FEFF 		bl	write_reg
 370              	.LVL33:
 371              		.loc 1 119 12 view .LVU82
 372              	.LBE85:
 373              	.LBE84:
 374              		.loc 1 147 11 view .LVU83
 375 008c 0028     		cmp	r0, #0
 376 008e DED1     		bne	.L26
 377              		.loc 1 150 9 is_stmt 1 view .LVU84
 378              		.loc 1 150 19 is_stmt 0 view .LVU85
 379 0090 0322     		movs	r2, #3
 380 0092 1121     		movs	r1, #17
 381 0094 6E20     		movs	r0, #110
 382              	.LVL34:
 383              		.loc 1 150 19 view .LVU86
 384 0096 FFF7FEFF 		bl	write_reg
 385              	.LVL35:
 386              		.loc 1 150 11 view .LVU87
 387 009a 0028     		cmp	r0, #0
 388 009c E7D0     		beq	.L20
 389 009e D6E7     		b	.L26
 390              	.LVL36:
 391              	.L32:
 392              		.loc 1 150 11 view .LVU88
 393              	.LBE81:
 394              	.LBE80:
 395              		.loc 1 168 1 view .LVU89
 396 00a0 FFF7FEFF 		bl	__stack_chk_fail
 397              	.LVL37:
 398              	.L36:
 399              		.align	2
ARM GAS  /tmp/cczbsEFl.s 			page 8


 400              	.L35:
 401 00a4 00000000 		.word	.LC2
 402 00a8 00000000 		.word	.LANCHOR0
 403              		.cfi_endproc
 404              	.LFE259:
 405              		.size	po8030_set_format, .-po8030_set_format
 406              		.section	.rodata.po8030_set_vga.cst4,"aM",%progbits,4
 407              		.align	2
 408              	.LC3:
 409 0000 00000000 		.word	__stack_chk_guard
 410              		.section	.text.po8030_set_vga,"ax",%progbits
 411              		.align	1
 412              		.p2align 4,,15
 413              		.global	po8030_set_vga
 414              		.syntax unified
 415              		.thumb
 416              		.thumb_func
 417              		.fpu fpv4-sp-d16
 418              		.type	po8030_set_vga, %function
 419              	po8030_set_vga:
 420              	.LFB260:
 421              		.loc 1 178 29 is_stmt 1 view -0
 422              		.cfi_startproc
 423              		@ args = 0, pretend = 0, frame = 8
 424              		@ frame_needed = 0, uses_anonymous_args = 0
 425 0000 00B5     		push	{lr}
 426              		.cfi_def_cfa_offset 4
 427              		.cfi_offset 14, -4
 428 0002 734B     		ldr	r3, .L43
 429 0004 83B0     		sub	sp, sp, #12
 430              		.cfi_def_cfa_offset 16
 431              	.LBB94:
 432              	.LBB95:
 433              		.loc 1 119 12 is_stmt 0 view .LVU91
 434 0006 0022     		movs	r2, #0
 435 0008 0321     		movs	r1, #3
 436 000a 6E20     		movs	r0, #110
 437              	.LBE95:
 438              	.LBE94:
 439              		.loc 1 178 29 view .LVU92
 440 000c 1B68     		ldr	r3, [r3]
 441 000e 0193     		str	r3, [sp, #4]
 442 0010 4FF00003 		mov	r3,#0
 443              		.loc 1 179 5 is_stmt 1 view .LVU93
 444              	.LVL38:
 445              		.loc 1 181 5 view .LVU94
 446              	.LBB97:
 447              	.LBI94:
 448              		.loc 1 118 8 view .LVU95
 449              	.LBB96:
 450              		.loc 1 119 5 view .LVU96
 451              		.loc 1 119 12 is_stmt 0 view .LVU97
 452 0014 FFF7FEFF 		bl	write_reg
 453              	.LVL39:
 454              		.loc 1 119 12 view .LVU98
 455              	.LBE96:
 456              	.LBE97:
ARM GAS  /tmp/cczbsEFl.s 			page 9


 457              		.loc 1 181 7 view .LVU99
 458 0018 40B1     		cbz	r0, .L41
 459              	.LVL40:
 460              	.L38:
 461              		.loc 1 277 1 view .LVU100
 462 001a 6D4B     		ldr	r3, .L43
 463 001c 1A68     		ldr	r2, [r3]
 464 001e 019B     		ldr	r3, [sp, #4]
 465 0020 5A40     		eors	r2, r3, r2
 466 0022 40F0D280 		bne	.L42
 467 0026 03B0     		add	sp, sp, #12
 468              		.cfi_remember_state
 469              		.cfi_def_cfa_offset 4
 470              		@ sp needed
 471 0028 5DF804FB 		ldr	pc, [sp], #4
 472              	.LVL41:
 473              	.L41:
 474              		.cfi_restore_state
 475              		.loc 1 185 5 is_stmt 1 view .LVU101
 476              		.loc 1 185 15 is_stmt 0 view .LVU102
 477 002c 0246     		mov	r2, r0
 478 002e 0821     		movs	r1, #8
 479 0030 6E20     		movs	r0, #110
 480              	.LVL42:
 481              		.loc 1 185 15 view .LVU103
 482 0032 FFF7FEFF 		bl	write_reg
 483              	.LVL43:
 484              		.loc 1 185 7 view .LVU104
 485 0036 0028     		cmp	r0, #0
 486 0038 EFD1     		bne	.L38
 487              		.loc 1 188 5 is_stmt 1 view .LVU105
 488              		.loc 1 188 15 is_stmt 0 view .LVU106
 489 003a 0122     		movs	r2, #1
 490 003c 0921     		movs	r1, #9
 491 003e 6E20     		movs	r0, #110
 492              	.LVL44:
 493              		.loc 1 188 15 view .LVU107
 494 0040 FFF7FEFF 		bl	write_reg
 495              	.LVL45:
 496              		.loc 1 188 7 view .LVU108
 497 0044 0028     		cmp	r0, #0
 498 0046 E8D1     		bne	.L38
 499              		.loc 1 191 5 is_stmt 1 view .LVU109
 500              		.loc 1 191 15 is_stmt 0 view .LVU110
 501 0048 0246     		mov	r2, r0
 502 004a 0A21     		movs	r1, #10
 503 004c 6E20     		movs	r0, #110
 504              	.LVL46:
 505              		.loc 1 191 15 view .LVU111
 506 004e FFF7FEFF 		bl	write_reg
 507              	.LVL47:
 508              		.loc 1 191 7 view .LVU112
 509 0052 0028     		cmp	r0, #0
 510 0054 E1D1     		bne	.L38
 511              		.loc 1 194 5 is_stmt 1 view .LVU113
 512              		.loc 1 194 15 is_stmt 0 view .LVU114
 513 0056 0122     		movs	r2, #1
ARM GAS  /tmp/cczbsEFl.s 			page 10


 514 0058 0B21     		movs	r1, #11
 515 005a 6E20     		movs	r0, #110
 516              	.LVL48:
 517              		.loc 1 194 15 view .LVU115
 518 005c FFF7FEFF 		bl	write_reg
 519              	.LVL49:
 520              		.loc 1 194 7 view .LVU116
 521 0060 0028     		cmp	r0, #0
 522 0062 DAD1     		bne	.L38
 523              	.LBB98:
 524              	.LBI98:
 525              		.loc 1 178 8 is_stmt 1 view .LVU117
 526              	.LBB99:
 527              		.loc 1 197 5 view .LVU118
 528              		.loc 1 197 15 is_stmt 0 view .LVU119
 529 0064 0222     		movs	r2, #2
 530 0066 0C21     		movs	r1, #12
 531 0068 6E20     		movs	r0, #110
 532              	.LVL50:
 533              		.loc 1 197 15 view .LVU120
 534 006a FFF7FEFF 		bl	write_reg
 535              	.LVL51:
 536              		.loc 1 197 7 view .LVU121
 537 006e 0028     		cmp	r0, #0
 538 0070 D3D1     		bne	.L38
 539              		.loc 1 200 5 is_stmt 1 view .LVU122
 540              		.loc 1 200 15 is_stmt 0 view .LVU123
 541 0072 8022     		movs	r2, #128
 542 0074 0D21     		movs	r1, #13
 543 0076 6E20     		movs	r0, #110
 544              	.LVL52:
 545              		.loc 1 200 15 view .LVU124
 546 0078 FFF7FEFF 		bl	write_reg
 547              	.LVL53:
 548              		.loc 1 200 7 view .LVU125
 549 007c 0028     		cmp	r0, #0
 550 007e CCD1     		bne	.L38
 551              		.loc 1 203 5 is_stmt 1 view .LVU126
 552              		.loc 1 203 15 is_stmt 0 view .LVU127
 553 0080 0122     		movs	r2, #1
 554 0082 0E21     		movs	r1, #14
 555 0084 6E20     		movs	r0, #110
 556              	.LVL54:
 557              		.loc 1 203 15 view .LVU128
 558 0086 FFF7FEFF 		bl	write_reg
 559              	.LVL55:
 560              		.loc 1 203 7 view .LVU129
 561 008a 0028     		cmp	r0, #0
 562 008c C5D1     		bne	.L38
 563              		.loc 1 206 5 is_stmt 1 view .LVU130
 564              		.loc 1 206 15 is_stmt 0 view .LVU131
 565 008e E022     		movs	r2, #224
 566 0090 0F21     		movs	r1, #15
 567 0092 6E20     		movs	r0, #110
 568              	.LVL56:
 569              		.loc 1 206 15 view .LVU132
 570 0094 FFF7FEFF 		bl	write_reg
ARM GAS  /tmp/cczbsEFl.s 			page 11


 571              	.LVL57:
 572              		.loc 1 206 7 view .LVU133
 573 0098 0028     		cmp	r0, #0
 574 009a BED1     		bne	.L38
 575              		.loc 1 210 5 is_stmt 1 view .LVU134
 576              		.loc 1 210 15 is_stmt 0 view .LVU135
 577 009c 0246     		mov	r2, r0
 578 009e 3521     		movs	r1, #53
 579 00a0 6E20     		movs	r0, #110
 580              	.LVL58:
 581              		.loc 1 210 15 view .LVU136
 582 00a2 FFF7FEFF 		bl	write_reg
 583              	.LVL59:
 584              		.loc 1 210 7 view .LVU137
 585 00a6 0028     		cmp	r0, #0
 586 00a8 B7D1     		bne	.L38
 587              		.loc 1 213 5 is_stmt 1 view .LVU138
 588              		.loc 1 213 15 is_stmt 0 view .LVU139
 589 00aa 0122     		movs	r2, #1
 590 00ac 3621     		movs	r1, #54
 591 00ae 6E20     		movs	r0, #110
 592              	.LVL60:
 593              		.loc 1 213 15 view .LVU140
 594 00b0 FFF7FEFF 		bl	write_reg
 595              	.LVL61:
 596              		.loc 1 213 7 view .LVU141
 597 00b4 0028     		cmp	r0, #0
 598 00b6 B0D1     		bne	.L38
 599              		.loc 1 216 5 is_stmt 1 view .LVU142
 600              		.loc 1 216 15 is_stmt 0 view .LVU143
 601 00b8 0222     		movs	r2, #2
 602 00ba 3721     		movs	r1, #55
 603 00bc 6E20     		movs	r0, #110
 604              	.LVL62:
 605              		.loc 1 216 15 view .LVU144
 606 00be FFF7FEFF 		bl	write_reg
 607              	.LVL63:
 608              		.loc 1 216 7 view .LVU145
 609 00c2 0028     		cmp	r0, #0
 610 00c4 A9D1     		bne	.L38
 611              		.loc 1 219 5 is_stmt 1 view .LVU146
 612              		.loc 1 219 15 is_stmt 0 view .LVU147
 613 00c6 8022     		movs	r2, #128
 614 00c8 3821     		movs	r1, #56
 615 00ca 6E20     		movs	r0, #110
 616              	.LVL64:
 617              		.loc 1 219 15 view .LVU148
 618 00cc FFF7FEFF 		bl	write_reg
 619              	.LVL65:
 620              		.loc 1 219 7 view .LVU149
 621 00d0 0028     		cmp	r0, #0
 622 00d2 A2D1     		bne	.L38
 623              		.loc 1 222 5 is_stmt 1 view .LVU150
 624              		.loc 1 222 15 is_stmt 0 view .LVU151
 625 00d4 0246     		mov	r2, r0
 626 00d6 3921     		movs	r1, #57
 627 00d8 6E20     		movs	r0, #110
ARM GAS  /tmp/cczbsEFl.s 			page 12


 628              	.LVL66:
 629              		.loc 1 222 15 view .LVU152
 630 00da FFF7FEFF 		bl	write_reg
 631              	.LVL67:
 632              		.loc 1 222 7 view .LVU153
 633 00de 0028     		cmp	r0, #0
 634 00e0 9BD1     		bne	.L38
 635              		.loc 1 225 5 is_stmt 1 view .LVU154
 636              		.loc 1 225 15 is_stmt 0 view .LVU155
 637 00e2 0122     		movs	r2, #1
 638 00e4 3A21     		movs	r1, #58
 639 00e6 6E20     		movs	r0, #110
 640              	.LVL68:
 641              		.loc 1 225 15 view .LVU156
 642 00e8 FFF7FEFF 		bl	write_reg
 643              	.LVL69:
 644              		.loc 1 225 7 view .LVU157
 645 00ec 0028     		cmp	r0, #0
 646 00ee 94D1     		bne	.L38
 647              		.loc 1 228 5 is_stmt 1 view .LVU158
 648              		.loc 1 228 15 is_stmt 0 view .LVU159
 649 00f0 0122     		movs	r2, #1
 650 00f2 3B21     		movs	r1, #59
 651 00f4 6E20     		movs	r0, #110
 652              	.LVL70:
 653              		.loc 1 228 15 view .LVU160
 654 00f6 FFF7FEFF 		bl	write_reg
 655              	.LVL71:
 656              		.loc 1 228 7 view .LVU161
 657 00fa 0028     		cmp	r0, #0
 658 00fc 8DD1     		bne	.L38
 659              		.loc 1 231 5 is_stmt 1 view .LVU162
 660              		.loc 1 231 15 is_stmt 0 view .LVU163
 661 00fe E022     		movs	r2, #224
 662 0100 3C21     		movs	r1, #60
 663 0102 6E20     		movs	r0, #110
 664              	.LVL72:
 665              		.loc 1 231 15 view .LVU164
 666 0104 FFF7FEFF 		bl	write_reg
 667              	.LVL73:
 668              		.loc 1 231 7 view .LVU165
 669 0108 0028     		cmp	r0, #0
 670 010a 86D1     		bne	.L38
 671              		.loc 1 235 5 is_stmt 1 view .LVU166
 672              		.loc 1 235 15 is_stmt 0 view .LVU167
 673 010c 0246     		mov	r2, r0
 674 010e 3D21     		movs	r1, #61
 675 0110 6E20     		movs	r0, #110
 676              	.LVL74:
 677              		.loc 1 235 15 view .LVU168
 678 0112 FFF7FEFF 		bl	write_reg
 679              	.LVL75:
 680              		.loc 1 235 7 view .LVU169
 681 0116 0028     		cmp	r0, #0
 682 0118 7FF47FAF 		bne	.L38
 683              		.loc 1 238 5 is_stmt 1 view .LVU170
 684              		.loc 1 238 15 is_stmt 0 view .LVU171
ARM GAS  /tmp/cczbsEFl.s 			page 13


 685 011c D622     		movs	r2, #214
 686 011e 3E21     		movs	r1, #62
 687 0120 6E20     		movs	r0, #110
 688              	.LVL76:
 689              		.loc 1 238 15 view .LVU172
 690 0122 FFF7FEFF 		bl	write_reg
 691              	.LVL77:
 692              		.loc 1 238 7 view .LVU173
 693 0126 0028     		cmp	r0, #0
 694 0128 7FF477AF 		bne	.L38
 695              		.loc 1 241 5 is_stmt 1 view .LVU174
 696              		.loc 1 241 15 is_stmt 0 view .LVU175
 697 012c 0122     		movs	r2, #1
 698 012e 3F21     		movs	r1, #63
 699 0130 6E20     		movs	r0, #110
 700              	.LVL78:
 701              		.loc 1 241 15 view .LVU176
 702 0132 FFF7FEFF 		bl	write_reg
 703              	.LVL79:
 704              		.loc 1 241 7 view .LVU177
 705 0136 0028     		cmp	r0, #0
 706 0138 7FF46FAF 		bne	.L38
 707              		.loc 1 244 5 is_stmt 1 view .LVU178
 708              		.loc 1 244 15 is_stmt 0 view .LVU179
 709 013c AB22     		movs	r2, #171
 710 013e 4021     		movs	r1, #64
 711 0140 6E20     		movs	r0, #110
 712              	.LVL80:
 713              		.loc 1 244 15 view .LVU180
 714 0142 FFF7FEFF 		bl	write_reg
 715              	.LVL81:
 716              		.loc 1 244 7 view .LVU181
 717 0146 0028     		cmp	r0, #0
 718 0148 7FF467AF 		bne	.L38
 719              		.loc 1 247 5 is_stmt 1 view .LVU182
 720              		.loc 1 247 15 is_stmt 0 view .LVU183
 721 014c 0246     		mov	r2, r0
 722 014e 4121     		movs	r1, #65
 723 0150 6E20     		movs	r0, #110
 724              	.LVL82:
 725              		.loc 1 247 15 view .LVU184
 726 0152 FFF7FEFF 		bl	write_reg
 727              	.LVL83:
 728              		.loc 1 247 7 view .LVU185
 729 0156 0028     		cmp	r0, #0
 730 0158 7FF45FAF 		bne	.L38
 731              		.loc 1 250 5 is_stmt 1 view .LVU186
 732              		.loc 1 250 15 is_stmt 0 view .LVU187
 733 015c A122     		movs	r2, #161
 734 015e 4221     		movs	r1, #66
 735 0160 6E20     		movs	r0, #110
 736              	.LVL84:
 737              		.loc 1 250 15 view .LVU188
 738 0162 FFF7FEFF 		bl	write_reg
 739              	.LVL85:
 740              		.loc 1 250 7 view .LVU189
 741 0166 0028     		cmp	r0, #0
ARM GAS  /tmp/cczbsEFl.s 			page 14


 742 0168 7FF457AF 		bne	.L38
 743              		.loc 1 253 5 is_stmt 1 view .LVU190
 744              		.loc 1 253 15 is_stmt 0 view .LVU191
 745 016c 0122     		movs	r2, #1
 746 016e 4321     		movs	r1, #67
 747 0170 6E20     		movs	r0, #110
 748              	.LVL86:
 749              		.loc 1 253 15 view .LVU192
 750 0172 FFF7FEFF 		bl	write_reg
 751              	.LVL87:
 752              		.loc 1 253 7 view .LVU193
 753 0176 0028     		cmp	r0, #0
 754 0178 7FF44FAF 		bne	.L38
 755              		.loc 1 256 5 is_stmt 1 view .LVU194
 756              		.loc 1 256 15 is_stmt 0 view .LVU195
 757 017c 4022     		movs	r2, #64
 758 017e 4421     		movs	r1, #68
 759 0180 6E20     		movs	r0, #110
 760              	.LVL88:
 761              		.loc 1 256 15 view .LVU196
 762 0182 FFF7FEFF 		bl	write_reg
 763              	.LVL89:
 764              		.loc 1 256 7 view .LVU197
 765 0186 0028     		cmp	r0, #0
 766 0188 7FF447AF 		bne	.L38
 767              		.loc 1 260 5 is_stmt 1 view .LVU198
 768              	.LVL90:
 769              	.LBB100:
 770              	.LBI100:
 771              		.loc 1 118 8 view .LVU199
 772              	.LBB101:
 773              		.loc 1 119 5 view .LVU200
 774              		.loc 1 119 12 is_stmt 0 view .LVU201
 775 018c 0122     		movs	r2, #1
 776 018e 0321     		movs	r1, #3
 777 0190 6E20     		movs	r0, #110
 778              	.LVL91:
 779              		.loc 1 119 12 view .LVU202
 780 0192 FFF7FEFF 		bl	write_reg
 781              	.LVL92:
 782              		.loc 1 119 12 view .LVU203
 783              	.LBE101:
 784              	.LBE100:
 785              		.loc 1 260 7 view .LVU204
 786 0196 0028     		cmp	r0, #0
 787 0198 7FF43FAF 		bne	.L38
 788              		.loc 1 264 5 is_stmt 1 view .LVU205
 789              		.loc 1 264 15 is_stmt 0 view .LVU206
 790 019c 2022     		movs	r2, #32
 791 019e 9321     		movs	r1, #147
 792 01a0 6E20     		movs	r0, #110
 793              	.LVL93:
 794              		.loc 1 264 15 view .LVU207
 795 01a2 FFF7FEFF 		bl	write_reg
 796              	.LVL94:
 797              		.loc 1 264 7 view .LVU208
 798 01a6 0028     		cmp	r0, #0
ARM GAS  /tmp/cczbsEFl.s 			page 15


 799 01a8 7FF437AF 		bne	.L38
 800              		.loc 1 267 5 is_stmt 1 view .LVU209
 801              		.loc 1 267 15 is_stmt 0 view .LVU210
 802 01ac 2022     		movs	r2, #32
 803 01ae 9421     		movs	r1, #148
 804 01b0 6E20     		movs	r0, #110
 805              	.LVL95:
 806              		.loc 1 267 15 view .LVU211
 807 01b2 FFF7FEFF 		bl	write_reg
 808              	.LVL96:
 809              		.loc 1 267 7 view .LVU212
 810 01b6 0028     		cmp	r0, #0
 811 01b8 7FF42FAF 		bne	.L38
 812              		.loc 1 271 2 is_stmt 1 view .LVU213
 813              		.loc 1 272 2 view .LVU214
 814              		.loc 1 271 20 is_stmt 0 view .LVU215
 815 01bc 054B     		ldr	r3, .L43+4
 816 01be 064A     		ldr	r2, .L43+8
 817 01c0 1A60     		str	r2, [r3]
 818              		.loc 1 273 2 is_stmt 1 view .LVU216
 819              		.loc 1 273 33 is_stmt 0 view .LVU217
 820 01c2 2022     		movs	r2, #32
 821 01c4 5A71     		strb	r2, [r3, #5]
 822              		.loc 1 274 2 is_stmt 1 view .LVU218
 823              		.loc 1 274 33 is_stmt 0 view .LVU219
 824 01c6 9A71     		strb	r2, [r3, #6]
 825              		.loc 1 276 5 is_stmt 1 view .LVU220
 826              		.loc 1 276 12 is_stmt 0 view .LVU221
 827 01c8 27E7     		b	.L38
 828              	.LVL97:
 829              	.L42:
 830              		.loc 1 276 12 view .LVU222
 831              	.LBE99:
 832              	.LBE98:
 833              		.loc 1 277 1 view .LVU223
 834 01ca FFF7FEFF 		bl	__stack_chk_fail
 835              	.LVL98:
 836              	.L44:
 837 01ce 00BF     		.align	2
 838              	.L43:
 839 01d0 00000000 		.word	.LC3
 840 01d4 00000000 		.word	.LANCHOR0
 841 01d8 8002E001 		.word	31457920
 842              		.cfi_endproc
 843              	.LFE260:
 844              		.size	po8030_set_vga, .-po8030_set_vga
 845              		.section	.rodata.po8030_set_qvga.cst4,"aM",%progbits,4
 846              		.align	2
 847              	.LC4:
 848 0000 00000000 		.word	__stack_chk_guard
 849              		.section	.text.po8030_set_qvga,"ax",%progbits
 850              		.align	1
 851              		.p2align 4,,15
 852              		.global	po8030_set_qvga
 853              		.syntax unified
 854              		.thumb
 855              		.thumb_func
ARM GAS  /tmp/cczbsEFl.s 			page 16


 856              		.fpu fpv4-sp-d16
 857              		.type	po8030_set_qvga, %function
 858              	po8030_set_qvga:
 859              	.LFB261:
 860              		.loc 1 287 30 is_stmt 1 view -0
 861              		.cfi_startproc
 862              		@ args = 0, pretend = 0, frame = 8
 863              		@ frame_needed = 0, uses_anonymous_args = 0
 864 0000 00B5     		push	{lr}
 865              		.cfi_def_cfa_offset 4
 866              		.cfi_offset 14, -4
 867 0002 734B     		ldr	r3, .L51
 868 0004 83B0     		sub	sp, sp, #12
 869              		.cfi_def_cfa_offset 16
 870              	.LBB110:
 871              	.LBB111:
 872              		.loc 1 119 12 is_stmt 0 view .LVU225
 873 0006 0022     		movs	r2, #0
 874 0008 0321     		movs	r1, #3
 875 000a 6E20     		movs	r0, #110
 876              	.LBE111:
 877              	.LBE110:
 878              		.loc 1 287 30 view .LVU226
 879 000c 1B68     		ldr	r3, [r3]
 880 000e 0193     		str	r3, [sp, #4]
 881 0010 4FF00003 		mov	r3,#0
 882              		.loc 1 288 5 is_stmt 1 view .LVU227
 883              	.LVL99:
 884              		.loc 1 290 5 view .LVU228
 885              	.LBB113:
 886              	.LBI110:
 887              		.loc 1 118 8 view .LVU229
 888              	.LBB112:
 889              		.loc 1 119 5 view .LVU230
 890              		.loc 1 119 12 is_stmt 0 view .LVU231
 891 0014 FFF7FEFF 		bl	write_reg
 892              	.LVL100:
 893              		.loc 1 119 12 view .LVU232
 894              	.LBE112:
 895              	.LBE113:
 896              		.loc 1 290 7 view .LVU233
 897 0018 40B1     		cbz	r0, .L49
 898              	.LVL101:
 899              	.L46:
 900              		.loc 1 386 1 view .LVU234
 901 001a 6D4B     		ldr	r3, .L51
 902 001c 1A68     		ldr	r2, [r3]
 903 001e 019B     		ldr	r3, [sp, #4]
 904 0020 5A40     		eors	r2, r3, r2
 905 0022 40F0D280 		bne	.L50
 906 0026 03B0     		add	sp, sp, #12
 907              		.cfi_remember_state
 908              		.cfi_def_cfa_offset 4
 909              		@ sp needed
 910 0028 5DF804FB 		ldr	pc, [sp], #4
 911              	.LVL102:
 912              	.L49:
ARM GAS  /tmp/cczbsEFl.s 			page 17


 913              		.cfi_restore_state
 914              		.loc 1 294 5 is_stmt 1 view .LVU235
 915              		.loc 1 294 15 is_stmt 0 view .LVU236
 916 002c 0246     		mov	r2, r0
 917 002e 0821     		movs	r1, #8
 918 0030 6E20     		movs	r0, #110
 919              	.LVL103:
 920              		.loc 1 294 15 view .LVU237
 921 0032 FFF7FEFF 		bl	write_reg
 922              	.LVL104:
 923              		.loc 1 294 7 view .LVU238
 924 0036 0028     		cmp	r0, #0
 925 0038 EFD1     		bne	.L46
 926              		.loc 1 297 5 is_stmt 1 view .LVU239
 927              		.loc 1 297 15 is_stmt 0 view .LVU240
 928 003a 0122     		movs	r2, #1
 929 003c 0921     		movs	r1, #9
 930 003e 6E20     		movs	r0, #110
 931              	.LVL105:
 932              		.loc 1 297 15 view .LVU241
 933 0040 FFF7FEFF 		bl	write_reg
 934              	.LVL106:
 935              		.loc 1 297 7 view .LVU242
 936 0044 0028     		cmp	r0, #0
 937 0046 E8D1     		bne	.L46
 938              		.loc 1 300 5 is_stmt 1 view .LVU243
 939              		.loc 1 300 15 is_stmt 0 view .LVU244
 940 0048 0246     		mov	r2, r0
 941 004a 0A21     		movs	r1, #10
 942 004c 6E20     		movs	r0, #110
 943              	.LVL107:
 944              		.loc 1 300 15 view .LVU245
 945 004e FFF7FEFF 		bl	write_reg
 946              	.LVL108:
 947              		.loc 1 300 7 view .LVU246
 948 0052 0028     		cmp	r0, #0
 949 0054 E1D1     		bne	.L46
 950              		.loc 1 303 5 is_stmt 1 view .LVU247
 951              		.loc 1 303 15 is_stmt 0 view .LVU248
 952 0056 0122     		movs	r2, #1
 953 0058 0B21     		movs	r1, #11
 954 005a 6E20     		movs	r0, #110
 955              	.LVL109:
 956              		.loc 1 303 15 view .LVU249
 957 005c FFF7FEFF 		bl	write_reg
 958              	.LVL110:
 959              		.loc 1 303 7 view .LVU250
 960 0060 0028     		cmp	r0, #0
 961 0062 DAD1     		bne	.L46
 962              	.LBB114:
 963              	.LBI114:
 964              		.loc 1 287 8 is_stmt 1 view .LVU251
 965              	.LBB115:
 966              		.loc 1 306 5 view .LVU252
 967              		.loc 1 306 15 is_stmt 0 view .LVU253
 968 0064 0122     		movs	r2, #1
 969 0066 0C21     		movs	r1, #12
ARM GAS  /tmp/cczbsEFl.s 			page 18


 970 0068 6E20     		movs	r0, #110
 971              	.LVL111:
 972              		.loc 1 306 15 view .LVU254
 973 006a FFF7FEFF 		bl	write_reg
 974              	.LVL112:
 975              		.loc 1 306 7 view .LVU255
 976 006e 0028     		cmp	r0, #0
 977 0070 D3D1     		bne	.L46
 978              		.loc 1 309 5 is_stmt 1 view .LVU256
 979              		.loc 1 309 15 is_stmt 0 view .LVU257
 980 0072 4022     		movs	r2, #64
 981 0074 0D21     		movs	r1, #13
 982 0076 6E20     		movs	r0, #110
 983              	.LVL113:
 984              		.loc 1 309 15 view .LVU258
 985 0078 FFF7FEFF 		bl	write_reg
 986              	.LVL114:
 987              		.loc 1 309 7 view .LVU259
 988 007c 0028     		cmp	r0, #0
 989 007e CCD1     		bne	.L46
 990              		.loc 1 312 5 is_stmt 1 view .LVU260
 991              		.loc 1 312 15 is_stmt 0 view .LVU261
 992 0080 0246     		mov	r2, r0
 993 0082 0E21     		movs	r1, #14
 994 0084 6E20     		movs	r0, #110
 995              	.LVL115:
 996              		.loc 1 312 15 view .LVU262
 997 0086 FFF7FEFF 		bl	write_reg
 998              	.LVL116:
 999              		.loc 1 312 7 view .LVU263
 1000 008a 0028     		cmp	r0, #0
 1001 008c C5D1     		bne	.L46
 1002              		.loc 1 315 5 is_stmt 1 view .LVU264
 1003              		.loc 1 315 15 is_stmt 0 view .LVU265
 1004 008e F022     		movs	r2, #240
 1005 0090 0F21     		movs	r1, #15
 1006 0092 6E20     		movs	r0, #110
 1007              	.LVL117:
 1008              		.loc 1 315 15 view .LVU266
 1009 0094 FFF7FEFF 		bl	write_reg
 1010              	.LVL118:
 1011              		.loc 1 315 7 view .LVU267
 1012 0098 0028     		cmp	r0, #0
 1013 009a BED1     		bne	.L46
 1014              		.loc 1 319 5 is_stmt 1 view .LVU268
 1015              		.loc 1 319 15 is_stmt 0 view .LVU269
 1016 009c 0246     		mov	r2, r0
 1017 009e 3521     		movs	r1, #53
 1018 00a0 6E20     		movs	r0, #110
 1019              	.LVL119:
 1020              		.loc 1 319 15 view .LVU270
 1021 00a2 FFF7FEFF 		bl	write_reg
 1022              	.LVL120:
 1023              		.loc 1 319 7 view .LVU271
 1024 00a6 0028     		cmp	r0, #0
 1025 00a8 B7D1     		bne	.L46
 1026              		.loc 1 322 5 is_stmt 1 view .LVU272
ARM GAS  /tmp/cczbsEFl.s 			page 19


 1027              		.loc 1 322 15 is_stmt 0 view .LVU273
 1028 00aa 0122     		movs	r2, #1
 1029 00ac 3621     		movs	r1, #54
 1030 00ae 6E20     		movs	r0, #110
 1031              	.LVL121:
 1032              		.loc 1 322 15 view .LVU274
 1033 00b0 FFF7FEFF 		bl	write_reg
 1034              	.LVL122:
 1035              		.loc 1 322 7 view .LVU275
 1036 00b4 0028     		cmp	r0, #0
 1037 00b6 B0D1     		bne	.L46
 1038              		.loc 1 325 5 is_stmt 1 view .LVU276
 1039              		.loc 1 325 15 is_stmt 0 view .LVU277
 1040 00b8 0122     		movs	r2, #1
 1041 00ba 3721     		movs	r1, #55
 1042 00bc 6E20     		movs	r0, #110
 1043              	.LVL123:
 1044              		.loc 1 325 15 view .LVU278
 1045 00be FFF7FEFF 		bl	write_reg
 1046              	.LVL124:
 1047              		.loc 1 325 7 view .LVU279
 1048 00c2 0028     		cmp	r0, #0
 1049 00c4 A9D1     		bne	.L46
 1050              		.loc 1 328 5 is_stmt 1 view .LVU280
 1051              		.loc 1 328 15 is_stmt 0 view .LVU281
 1052 00c6 4022     		movs	r2, #64
 1053 00c8 3821     		movs	r1, #56
 1054 00ca 6E20     		movs	r0, #110
 1055              	.LVL125:
 1056              		.loc 1 328 15 view .LVU282
 1057 00cc FFF7FEFF 		bl	write_reg
 1058              	.LVL126:
 1059              		.loc 1 328 7 view .LVU283
 1060 00d0 0028     		cmp	r0, #0
 1061 00d2 A2D1     		bne	.L46
 1062              		.loc 1 331 5 is_stmt 1 view .LVU284
 1063              		.loc 1 331 15 is_stmt 0 view .LVU285
 1064 00d4 0246     		mov	r2, r0
 1065 00d6 3921     		movs	r1, #57
 1066 00d8 6E20     		movs	r0, #110
 1067              	.LVL127:
 1068              		.loc 1 331 15 view .LVU286
 1069 00da FFF7FEFF 		bl	write_reg
 1070              	.LVL128:
 1071              		.loc 1 331 7 view .LVU287
 1072 00de 0028     		cmp	r0, #0
 1073 00e0 9BD1     		bne	.L46
 1074              		.loc 1 334 5 is_stmt 1 view .LVU288
 1075              		.loc 1 334 15 is_stmt 0 view .LVU289
 1076 00e2 0122     		movs	r2, #1
 1077 00e4 3A21     		movs	r1, #58
 1078 00e6 6E20     		movs	r0, #110
 1079              	.LVL129:
 1080              		.loc 1 334 15 view .LVU290
 1081 00e8 FFF7FEFF 		bl	write_reg
 1082              	.LVL130:
 1083              		.loc 1 334 7 view .LVU291
ARM GAS  /tmp/cczbsEFl.s 			page 20


 1084 00ec 0028     		cmp	r0, #0
 1085 00ee 94D1     		bne	.L46
 1086              		.loc 1 337 5 is_stmt 1 view .LVU292
 1087              		.loc 1 337 15 is_stmt 0 view .LVU293
 1088 00f0 0246     		mov	r2, r0
 1089 00f2 3B21     		movs	r1, #59
 1090 00f4 6E20     		movs	r0, #110
 1091              	.LVL131:
 1092              		.loc 1 337 15 view .LVU294
 1093 00f6 FFF7FEFF 		bl	write_reg
 1094              	.LVL132:
 1095              		.loc 1 337 7 view .LVU295
 1096 00fa 0028     		cmp	r0, #0
 1097 00fc 8DD1     		bne	.L46
 1098              		.loc 1 340 5 is_stmt 1 view .LVU296
 1099              		.loc 1 340 15 is_stmt 0 view .LVU297
 1100 00fe F022     		movs	r2, #240
 1101 0100 3C21     		movs	r1, #60
 1102 0102 6E20     		movs	r0, #110
 1103              	.LVL133:
 1104              		.loc 1 340 15 view .LVU298
 1105 0104 FFF7FEFF 		bl	write_reg
 1106              	.LVL134:
 1107              		.loc 1 340 7 view .LVU299
 1108 0108 0028     		cmp	r0, #0
 1109 010a 86D1     		bne	.L46
 1110              		.loc 1 344 5 is_stmt 1 view .LVU300
 1111              		.loc 1 344 15 is_stmt 0 view .LVU301
 1112 010c 0246     		mov	r2, r0
 1113 010e 3D21     		movs	r1, #61
 1114 0110 6E20     		movs	r0, #110
 1115              	.LVL135:
 1116              		.loc 1 344 15 view .LVU302
 1117 0112 FFF7FEFF 		bl	write_reg
 1118              	.LVL136:
 1119              		.loc 1 344 7 view .LVU303
 1120 0116 0028     		cmp	r0, #0
 1121 0118 7FF47FAF 		bne	.L46
 1122              		.loc 1 347 5 is_stmt 1 view .LVU304
 1123              		.loc 1 347 15 is_stmt 0 view .LVU305
 1124 011c 6B22     		movs	r2, #107
 1125 011e 3E21     		movs	r1, #62
 1126 0120 6E20     		movs	r0, #110
 1127              	.LVL137:
 1128              		.loc 1 347 15 view .LVU306
 1129 0122 FFF7FEFF 		bl	write_reg
 1130              	.LVL138:
 1131              		.loc 1 347 7 view .LVU307
 1132 0126 0028     		cmp	r0, #0
 1133 0128 7FF477AF 		bne	.L46
 1134              		.loc 1 350 5 is_stmt 1 view .LVU308
 1135              		.loc 1 350 15 is_stmt 0 view .LVU309
 1136 012c 0246     		mov	r2, r0
 1137 012e 3F21     		movs	r1, #63
 1138 0130 6E20     		movs	r0, #110
 1139              	.LVL139:
 1140              		.loc 1 350 15 view .LVU310
ARM GAS  /tmp/cczbsEFl.s 			page 21


 1141 0132 FFF7FEFF 		bl	write_reg
 1142              	.LVL140:
 1143              		.loc 1 350 7 view .LVU311
 1144 0136 0028     		cmp	r0, #0
 1145 0138 7FF46FAF 		bne	.L46
 1146              		.loc 1 353 5 is_stmt 1 view .LVU312
 1147              		.loc 1 353 15 is_stmt 0 view .LVU313
 1148 013c D622     		movs	r2, #214
 1149 013e 4021     		movs	r1, #64
 1150 0140 6E20     		movs	r0, #110
 1151              	.LVL141:
 1152              		.loc 1 353 15 view .LVU314
 1153 0142 FFF7FEFF 		bl	write_reg
 1154              	.LVL142:
 1155              		.loc 1 353 7 view .LVU315
 1156 0146 0028     		cmp	r0, #0
 1157 0148 7FF467AF 		bne	.L46
 1158              		.loc 1 356 5 is_stmt 1 view .LVU316
 1159              		.loc 1 356 15 is_stmt 0 view .LVU317
 1160 014c 0246     		mov	r2, r0
 1161 014e 4121     		movs	r1, #65
 1162 0150 6E20     		movs	r0, #110
 1163              	.LVL143:
 1164              		.loc 1 356 15 view .LVU318
 1165 0152 FFF7FEFF 		bl	write_reg
 1166              	.LVL144:
 1167              		.loc 1 356 7 view .LVU319
 1168 0156 0028     		cmp	r0, #0
 1169 0158 7FF45FAF 		bne	.L46
 1170              		.loc 1 359 5 is_stmt 1 view .LVU320
 1171              		.loc 1 359 15 is_stmt 0 view .LVU321
 1172 015c 5022     		movs	r2, #80
 1173 015e 4221     		movs	r1, #66
 1174 0160 6E20     		movs	r0, #110
 1175              	.LVL145:
 1176              		.loc 1 359 15 view .LVU322
 1177 0162 FFF7FEFF 		bl	write_reg
 1178              	.LVL146:
 1179              		.loc 1 359 7 view .LVU323
 1180 0166 0028     		cmp	r0, #0
 1181 0168 7FF457AF 		bne	.L46
 1182              		.loc 1 362 5 is_stmt 1 view .LVU324
 1183              		.loc 1 362 15 is_stmt 0 view .LVU325
 1184 016c 0246     		mov	r2, r0
 1185 016e 4321     		movs	r1, #67
 1186 0170 6E20     		movs	r0, #110
 1187              	.LVL147:
 1188              		.loc 1 362 15 view .LVU326
 1189 0172 FFF7FEFF 		bl	write_reg
 1190              	.LVL148:
 1191              		.loc 1 362 7 view .LVU327
 1192 0176 0028     		cmp	r0, #0
 1193 0178 7FF44FAF 		bne	.L46
 1194              		.loc 1 365 5 is_stmt 1 view .LVU328
 1195              		.loc 1 365 15 is_stmt 0 view .LVU329
 1196 017c A022     		movs	r2, #160
 1197 017e 4421     		movs	r1, #68
ARM GAS  /tmp/cczbsEFl.s 			page 22


 1198 0180 6E20     		movs	r0, #110
 1199              	.LVL149:
 1200              		.loc 1 365 15 view .LVU330
 1201 0182 FFF7FEFF 		bl	write_reg
 1202              	.LVL150:
 1203              		.loc 1 365 7 view .LVU331
 1204 0186 0028     		cmp	r0, #0
 1205 0188 7FF447AF 		bne	.L46
 1206              		.loc 1 369 5 is_stmt 1 view .LVU332
 1207              	.LVL151:
 1208              	.LBB116:
 1209              	.LBI116:
 1210              		.loc 1 118 8 view .LVU333
 1211              	.LBB117:
 1212              		.loc 1 119 5 view .LVU334
 1213              		.loc 1 119 12 is_stmt 0 view .LVU335
 1214 018c 0122     		movs	r2, #1
 1215 018e 0321     		movs	r1, #3
 1216 0190 6E20     		movs	r0, #110
 1217              	.LVL152:
 1218              		.loc 1 119 12 view .LVU336
 1219 0192 FFF7FEFF 		bl	write_reg
 1220              	.LVL153:
 1221              		.loc 1 119 12 view .LVU337
 1222              	.LBE117:
 1223              	.LBE116:
 1224              		.loc 1 369 7 view .LVU338
 1225 0196 0028     		cmp	r0, #0
 1226 0198 7FF43FAF 		bne	.L46
 1227              		.loc 1 373 5 is_stmt 1 view .LVU339
 1228              		.loc 1 373 15 is_stmt 0 view .LVU340
 1229 019c 4022     		movs	r2, #64
 1230 019e 9321     		movs	r1, #147
 1231 01a0 6E20     		movs	r0, #110
 1232              	.LVL154:
 1233              		.loc 1 373 15 view .LVU341
 1234 01a2 FFF7FEFF 		bl	write_reg
 1235              	.LVL155:
 1236              		.loc 1 373 7 view .LVU342
 1237 01a6 0028     		cmp	r0, #0
 1238 01a8 7FF437AF 		bne	.L46
 1239              		.loc 1 376 5 is_stmt 1 view .LVU343
 1240              		.loc 1 376 15 is_stmt 0 view .LVU344
 1241 01ac 4022     		movs	r2, #64
 1242 01ae 9421     		movs	r1, #148
 1243 01b0 6E20     		movs	r0, #110
 1244              	.LVL156:
 1245              		.loc 1 376 15 view .LVU345
 1246 01b2 FFF7FEFF 		bl	write_reg
 1247              	.LVL157:
 1248              		.loc 1 376 7 view .LVU346
 1249 01b6 0028     		cmp	r0, #0
 1250 01b8 7FF42FAF 		bne	.L46
 1251              		.loc 1 380 2 is_stmt 1 view .LVU347
 1252              		.loc 1 381 2 view .LVU348
 1253              		.loc 1 380 20 is_stmt 0 view .LVU349
 1254 01bc 054B     		ldr	r3, .L51+4
ARM GAS  /tmp/cczbsEFl.s 			page 23


 1255 01be 064A     		ldr	r2, .L51+8
 1256 01c0 1A60     		str	r2, [r3]
 1257              		.loc 1 382 2 is_stmt 1 view .LVU350
 1258              		.loc 1 382 33 is_stmt 0 view .LVU351
 1259 01c2 2022     		movs	r2, #32
 1260 01c4 5A71     		strb	r2, [r3, #5]
 1261              		.loc 1 383 2 is_stmt 1 view .LVU352
 1262              		.loc 1 383 33 is_stmt 0 view .LVU353
 1263 01c6 9A71     		strb	r2, [r3, #6]
 1264              		.loc 1 385 5 is_stmt 1 view .LVU354
 1265              		.loc 1 385 12 is_stmt 0 view .LVU355
 1266 01c8 27E7     		b	.L46
 1267              	.LVL158:
 1268              	.L50:
 1269              		.loc 1 385 12 view .LVU356
 1270              	.LBE115:
 1271              	.LBE114:
 1272              		.loc 1 386 1 view .LVU357
 1273 01ca FFF7FEFF 		bl	__stack_chk_fail
 1274              	.LVL159:
 1275              	.L52:
 1276 01ce 00BF     		.align	2
 1277              	.L51:
 1278 01d0 00000000 		.word	.LC4
 1279 01d4 00000000 		.word	.LANCHOR0
 1280 01d8 4001F000 		.word	15728960
 1281              		.cfi_endproc
 1282              	.LFE261:
 1283              		.size	po8030_set_qvga, .-po8030_set_qvga
 1284              		.section	.rodata.po8030_set_qqvga.cst4,"aM",%progbits,4
 1285              		.align	2
 1286              	.LC5:
 1287 0000 00000000 		.word	__stack_chk_guard
 1288              		.section	.text.po8030_set_qqvga,"ax",%progbits
 1289              		.align	1
 1290              		.p2align 4,,15
 1291              		.global	po8030_set_qqvga
 1292              		.syntax unified
 1293              		.thumb
 1294              		.thumb_func
 1295              		.fpu fpv4-sp-d16
 1296              		.type	po8030_set_qqvga, %function
 1297              	po8030_set_qqvga:
 1298              	.LFB262:
 1299              		.loc 1 396 31 is_stmt 1 view -0
 1300              		.cfi_startproc
 1301              		@ args = 0, pretend = 0, frame = 8
 1302              		@ frame_needed = 0, uses_anonymous_args = 0
 1303 0000 00B5     		push	{lr}
 1304              		.cfi_def_cfa_offset 4
 1305              		.cfi_offset 14, -4
 1306 0002 734B     		ldr	r3, .L59
 1307 0004 83B0     		sub	sp, sp, #12
 1308              		.cfi_def_cfa_offset 16
 1309              	.LBB126:
 1310              	.LBB127:
 1311              		.loc 1 119 12 is_stmt 0 view .LVU359
ARM GAS  /tmp/cczbsEFl.s 			page 24


 1312 0006 0022     		movs	r2, #0
 1313 0008 0321     		movs	r1, #3
 1314 000a 6E20     		movs	r0, #110
 1315              	.LBE127:
 1316              	.LBE126:
 1317              		.loc 1 396 31 view .LVU360
 1318 000c 1B68     		ldr	r3, [r3]
 1319 000e 0193     		str	r3, [sp, #4]
 1320 0010 4FF00003 		mov	r3,#0
 1321              		.loc 1 397 5 is_stmt 1 view .LVU361
 1322              	.LVL160:
 1323              		.loc 1 399 5 view .LVU362
 1324              	.LBB129:
 1325              	.LBI126:
 1326              		.loc 1 118 8 view .LVU363
 1327              	.LBB128:
 1328              		.loc 1 119 5 view .LVU364
 1329              		.loc 1 119 12 is_stmt 0 view .LVU365
 1330 0014 FFF7FEFF 		bl	write_reg
 1331              	.LVL161:
 1332              		.loc 1 119 12 view .LVU366
 1333              	.LBE128:
 1334              	.LBE129:
 1335              		.loc 1 399 7 view .LVU367
 1336 0018 40B1     		cbz	r0, .L57
 1337              	.LVL162:
 1338              	.L54:
 1339              		.loc 1 495 1 view .LVU368
 1340 001a 6D4B     		ldr	r3, .L59
 1341 001c 1A68     		ldr	r2, [r3]
 1342 001e 019B     		ldr	r3, [sp, #4]
 1343 0020 5A40     		eors	r2, r3, r2
 1344 0022 40F0D280 		bne	.L58
 1345 0026 03B0     		add	sp, sp, #12
 1346              		.cfi_remember_state
 1347              		.cfi_def_cfa_offset 4
 1348              		@ sp needed
 1349 0028 5DF804FB 		ldr	pc, [sp], #4
 1350              	.LVL163:
 1351              	.L57:
 1352              		.cfi_restore_state
 1353              		.loc 1 403 5 is_stmt 1 view .LVU369
 1354              		.loc 1 403 15 is_stmt 0 view .LVU370
 1355 002c 0246     		mov	r2, r0
 1356 002e 0821     		movs	r1, #8
 1357 0030 6E20     		movs	r0, #110
 1358              	.LVL164:
 1359              		.loc 1 403 15 view .LVU371
 1360 0032 FFF7FEFF 		bl	write_reg
 1361              	.LVL165:
 1362              		.loc 1 403 7 view .LVU372
 1363 0036 0028     		cmp	r0, #0
 1364 0038 EFD1     		bne	.L54
 1365              		.loc 1 406 5 is_stmt 1 view .LVU373
 1366              		.loc 1 406 15 is_stmt 0 view .LVU374
 1367 003a 0122     		movs	r2, #1
 1368 003c 0921     		movs	r1, #9
ARM GAS  /tmp/cczbsEFl.s 			page 25


 1369 003e 6E20     		movs	r0, #110
 1370              	.LVL166:
 1371              		.loc 1 406 15 view .LVU375
 1372 0040 FFF7FEFF 		bl	write_reg
 1373              	.LVL167:
 1374              		.loc 1 406 7 view .LVU376
 1375 0044 0028     		cmp	r0, #0
 1376 0046 E8D1     		bne	.L54
 1377              		.loc 1 409 5 is_stmt 1 view .LVU377
 1378              		.loc 1 409 15 is_stmt 0 view .LVU378
 1379 0048 0246     		mov	r2, r0
 1380 004a 0A21     		movs	r1, #10
 1381 004c 6E20     		movs	r0, #110
 1382              	.LVL168:
 1383              		.loc 1 409 15 view .LVU379
 1384 004e FFF7FEFF 		bl	write_reg
 1385              	.LVL169:
 1386              		.loc 1 409 7 view .LVU380
 1387 0052 0028     		cmp	r0, #0
 1388 0054 E1D1     		bne	.L54
 1389              		.loc 1 412 5 is_stmt 1 view .LVU381
 1390              		.loc 1 412 15 is_stmt 0 view .LVU382
 1391 0056 0122     		movs	r2, #1
 1392 0058 0B21     		movs	r1, #11
 1393 005a 6E20     		movs	r0, #110
 1394              	.LVL170:
 1395              		.loc 1 412 15 view .LVU383
 1396 005c FFF7FEFF 		bl	write_reg
 1397              	.LVL171:
 1398              		.loc 1 412 7 view .LVU384
 1399 0060 0028     		cmp	r0, #0
 1400 0062 DAD1     		bne	.L54
 1401              	.LBB130:
 1402              	.LBI130:
 1403              		.loc 1 396 8 is_stmt 1 view .LVU385
 1404              	.LBB131:
 1405              		.loc 1 415 5 view .LVU386
 1406              		.loc 1 415 15 is_stmt 0 view .LVU387
 1407 0064 0246     		mov	r2, r0
 1408 0066 0C21     		movs	r1, #12
 1409 0068 6E20     		movs	r0, #110
 1410              	.LVL172:
 1411              		.loc 1 415 15 view .LVU388
 1412 006a FFF7FEFF 		bl	write_reg
 1413              	.LVL173:
 1414              		.loc 1 415 7 view .LVU389
 1415 006e 0028     		cmp	r0, #0
 1416 0070 D3D1     		bne	.L54
 1417              		.loc 1 418 5 is_stmt 1 view .LVU390
 1418              		.loc 1 418 15 is_stmt 0 view .LVU391
 1419 0072 A022     		movs	r2, #160
 1420 0074 0D21     		movs	r1, #13
 1421 0076 6E20     		movs	r0, #110
 1422              	.LVL174:
 1423              		.loc 1 418 15 view .LVU392
 1424 0078 FFF7FEFF 		bl	write_reg
 1425              	.LVL175:
ARM GAS  /tmp/cczbsEFl.s 			page 26


 1426              		.loc 1 418 7 view .LVU393
 1427 007c 0028     		cmp	r0, #0
 1428 007e CCD1     		bne	.L54
 1429              		.loc 1 421 5 is_stmt 1 view .LVU394
 1430              		.loc 1 421 15 is_stmt 0 view .LVU395
 1431 0080 0246     		mov	r2, r0
 1432 0082 0E21     		movs	r1, #14
 1433 0084 6E20     		movs	r0, #110
 1434              	.LVL176:
 1435              		.loc 1 421 15 view .LVU396
 1436 0086 FFF7FEFF 		bl	write_reg
 1437              	.LVL177:
 1438              		.loc 1 421 7 view .LVU397
 1439 008a 0028     		cmp	r0, #0
 1440 008c C5D1     		bne	.L54
 1441              		.loc 1 424 5 is_stmt 1 view .LVU398
 1442              		.loc 1 424 15 is_stmt 0 view .LVU399
 1443 008e 7822     		movs	r2, #120
 1444 0090 0F21     		movs	r1, #15
 1445 0092 6E20     		movs	r0, #110
 1446              	.LVL178:
 1447              		.loc 1 424 15 view .LVU400
 1448 0094 FFF7FEFF 		bl	write_reg
 1449              	.LVL179:
 1450              		.loc 1 424 7 view .LVU401
 1451 0098 0028     		cmp	r0, #0
 1452 009a BED1     		bne	.L54
 1453              		.loc 1 428 5 is_stmt 1 view .LVU402
 1454              		.loc 1 428 15 is_stmt 0 view .LVU403
 1455 009c 0246     		mov	r2, r0
 1456 009e 3521     		movs	r1, #53
 1457 00a0 6E20     		movs	r0, #110
 1458              	.LVL180:
 1459              		.loc 1 428 15 view .LVU404
 1460 00a2 FFF7FEFF 		bl	write_reg
 1461              	.LVL181:
 1462              		.loc 1 428 7 view .LVU405
 1463 00a6 0028     		cmp	r0, #0
 1464 00a8 B7D1     		bne	.L54
 1465              		.loc 1 431 5 is_stmt 1 view .LVU406
 1466              		.loc 1 431 15 is_stmt 0 view .LVU407
 1467 00aa 0122     		movs	r2, #1
 1468 00ac 3621     		movs	r1, #54
 1469 00ae 6E20     		movs	r0, #110
 1470              	.LVL182:
 1471              		.loc 1 431 15 view .LVU408
 1472 00b0 FFF7FEFF 		bl	write_reg
 1473              	.LVL183:
 1474              		.loc 1 431 7 view .LVU409
 1475 00b4 0028     		cmp	r0, #0
 1476 00b6 B0D1     		bne	.L54
 1477              		.loc 1 434 5 is_stmt 1 view .LVU410
 1478              		.loc 1 434 15 is_stmt 0 view .LVU411
 1479 00b8 0246     		mov	r2, r0
 1480 00ba 3721     		movs	r1, #55
 1481 00bc 6E20     		movs	r0, #110
 1482              	.LVL184:
ARM GAS  /tmp/cczbsEFl.s 			page 27


 1483              		.loc 1 434 15 view .LVU412
 1484 00be FFF7FEFF 		bl	write_reg
 1485              	.LVL185:
 1486              		.loc 1 434 7 view .LVU413
 1487 00c2 0028     		cmp	r0, #0
 1488 00c4 A9D1     		bne	.L54
 1489              		.loc 1 437 5 is_stmt 1 view .LVU414
 1490              		.loc 1 437 15 is_stmt 0 view .LVU415
 1491 00c6 A022     		movs	r2, #160
 1492 00c8 3821     		movs	r1, #56
 1493 00ca 6E20     		movs	r0, #110
 1494              	.LVL186:
 1495              		.loc 1 437 15 view .LVU416
 1496 00cc FFF7FEFF 		bl	write_reg
 1497              	.LVL187:
 1498              		.loc 1 437 7 view .LVU417
 1499 00d0 0028     		cmp	r0, #0
 1500 00d2 A2D1     		bne	.L54
 1501              		.loc 1 440 5 is_stmt 1 view .LVU418
 1502              		.loc 1 440 15 is_stmt 0 view .LVU419
 1503 00d4 0246     		mov	r2, r0
 1504 00d6 3921     		movs	r1, #57
 1505 00d8 6E20     		movs	r0, #110
 1506              	.LVL188:
 1507              		.loc 1 440 15 view .LVU420
 1508 00da FFF7FEFF 		bl	write_reg
 1509              	.LVL189:
 1510              		.loc 1 440 7 view .LVU421
 1511 00de 0028     		cmp	r0, #0
 1512 00e0 9BD1     		bne	.L54
 1513              		.loc 1 443 5 is_stmt 1 view .LVU422
 1514              		.loc 1 443 15 is_stmt 0 view .LVU423
 1515 00e2 0122     		movs	r2, #1
 1516 00e4 3A21     		movs	r1, #58
 1517 00e6 6E20     		movs	r0, #110
 1518              	.LVL190:
 1519              		.loc 1 443 15 view .LVU424
 1520 00e8 FFF7FEFF 		bl	write_reg
 1521              	.LVL191:
 1522              		.loc 1 443 7 view .LVU425
 1523 00ec 0028     		cmp	r0, #0
 1524 00ee 94D1     		bne	.L54
 1525              		.loc 1 446 5 is_stmt 1 view .LVU426
 1526              		.loc 1 446 15 is_stmt 0 view .LVU427
 1527 00f0 0246     		mov	r2, r0
 1528 00f2 3B21     		movs	r1, #59
 1529 00f4 6E20     		movs	r0, #110
 1530              	.LVL192:
 1531              		.loc 1 446 15 view .LVU428
 1532 00f6 FFF7FEFF 		bl	write_reg
 1533              	.LVL193:
 1534              		.loc 1 446 7 view .LVU429
 1535 00fa 0028     		cmp	r0, #0
 1536 00fc 8DD1     		bne	.L54
 1537              		.loc 1 449 5 is_stmt 1 view .LVU430
 1538              		.loc 1 449 15 is_stmt 0 view .LVU431
 1539 00fe 7822     		movs	r2, #120
ARM GAS  /tmp/cczbsEFl.s 			page 28


 1540 0100 3C21     		movs	r1, #60
 1541 0102 6E20     		movs	r0, #110
 1542              	.LVL194:
 1543              		.loc 1 449 15 view .LVU432
 1544 0104 FFF7FEFF 		bl	write_reg
 1545              	.LVL195:
 1546              		.loc 1 449 7 view .LVU433
 1547 0108 0028     		cmp	r0, #0
 1548 010a 86D1     		bne	.L54
 1549              		.loc 1 453 5 is_stmt 1 view .LVU434
 1550              		.loc 1 453 15 is_stmt 0 view .LVU435
 1551 010c 0246     		mov	r2, r0
 1552 010e 3D21     		movs	r1, #61
 1553 0110 6E20     		movs	r0, #110
 1554              	.LVL196:
 1555              		.loc 1 453 15 view .LVU436
 1556 0112 FFF7FEFF 		bl	write_reg
 1557              	.LVL197:
 1558              		.loc 1 453 7 view .LVU437
 1559 0116 0028     		cmp	r0, #0
 1560 0118 7FF47FAF 		bne	.L54
 1561              		.loc 1 456 5 is_stmt 1 view .LVU438
 1562              		.loc 1 456 15 is_stmt 0 view .LVU439
 1563 011c 3622     		movs	r2, #54
 1564 011e 3E21     		movs	r1, #62
 1565 0120 6E20     		movs	r0, #110
 1566              	.LVL198:
 1567              		.loc 1 456 15 view .LVU440
 1568 0122 FFF7FEFF 		bl	write_reg
 1569              	.LVL199:
 1570              		.loc 1 456 7 view .LVU441
 1571 0126 0028     		cmp	r0, #0
 1572 0128 7FF477AF 		bne	.L54
 1573              		.loc 1 459 5 is_stmt 1 view .LVU442
 1574              		.loc 1 459 15 is_stmt 0 view .LVU443
 1575 012c 0246     		mov	r2, r0
 1576 012e 3F21     		movs	r1, #63
 1577 0130 6E20     		movs	r0, #110
 1578              	.LVL200:
 1579              		.loc 1 459 15 view .LVU444
 1580 0132 FFF7FEFF 		bl	write_reg
 1581              	.LVL201:
 1582              		.loc 1 459 7 view .LVU445
 1583 0136 0028     		cmp	r0, #0
 1584 0138 7FF46FAF 		bne	.L54
 1585              		.loc 1 462 5 is_stmt 1 view .LVU446
 1586              		.loc 1 462 15 is_stmt 0 view .LVU447
 1587 013c 6B22     		movs	r2, #107
 1588 013e 4021     		movs	r1, #64
 1589 0140 6E20     		movs	r0, #110
 1590              	.LVL202:
 1591              		.loc 1 462 15 view .LVU448
 1592 0142 FFF7FEFF 		bl	write_reg
 1593              	.LVL203:
 1594              		.loc 1 462 7 view .LVU449
 1595 0146 0028     		cmp	r0, #0
 1596 0148 7FF467AF 		bne	.L54
ARM GAS  /tmp/cczbsEFl.s 			page 29


 1597              		.loc 1 465 5 is_stmt 1 view .LVU450
 1598              		.loc 1 465 15 is_stmt 0 view .LVU451
 1599 014c 0246     		mov	r2, r0
 1600 014e 4121     		movs	r1, #65
 1601 0150 6E20     		movs	r0, #110
 1602              	.LVL204:
 1603              		.loc 1 465 15 view .LVU452
 1604 0152 FFF7FEFF 		bl	write_reg
 1605              	.LVL205:
 1606              		.loc 1 465 7 view .LVU453
 1607 0156 0028     		cmp	r0, #0
 1608 0158 7FF45FAF 		bne	.L54
 1609              		.loc 1 468 5 is_stmt 1 view .LVU454
 1610              		.loc 1 468 15 is_stmt 0 view .LVU455
 1611 015c 2922     		movs	r2, #41
 1612 015e 4221     		movs	r1, #66
 1613 0160 6E20     		movs	r0, #110
 1614              	.LVL206:
 1615              		.loc 1 468 15 view .LVU456
 1616 0162 FFF7FEFF 		bl	write_reg
 1617              	.LVL207:
 1618              		.loc 1 468 7 view .LVU457
 1619 0166 0028     		cmp	r0, #0
 1620 0168 7FF457AF 		bne	.L54
 1621              		.loc 1 471 5 is_stmt 1 view .LVU458
 1622              		.loc 1 471 15 is_stmt 0 view .LVU459
 1623 016c 0246     		mov	r2, r0
 1624 016e 4321     		movs	r1, #67
 1625 0170 6E20     		movs	r0, #110
 1626              	.LVL208:
 1627              		.loc 1 471 15 view .LVU460
 1628 0172 FFF7FEFF 		bl	write_reg
 1629              	.LVL209:
 1630              		.loc 1 471 7 view .LVU461
 1631 0176 0028     		cmp	r0, #0
 1632 0178 7FF44FAF 		bne	.L54
 1633              		.loc 1 474 5 is_stmt 1 view .LVU462
 1634              		.loc 1 474 15 is_stmt 0 view .LVU463
 1635 017c 5022     		movs	r2, #80
 1636 017e 4421     		movs	r1, #68
 1637 0180 6E20     		movs	r0, #110
 1638              	.LVL210:
 1639              		.loc 1 474 15 view .LVU464
 1640 0182 FFF7FEFF 		bl	write_reg
 1641              	.LVL211:
 1642              		.loc 1 474 7 view .LVU465
 1643 0186 0028     		cmp	r0, #0
 1644 0188 7FF447AF 		bne	.L54
 1645              		.loc 1 478 5 is_stmt 1 view .LVU466
 1646              	.LVL212:
 1647              	.LBB132:
 1648              	.LBI132:
 1649              		.loc 1 118 8 view .LVU467
 1650              	.LBB133:
 1651              		.loc 1 119 5 view .LVU468
 1652              		.loc 1 119 12 is_stmt 0 view .LVU469
 1653 018c 0122     		movs	r2, #1
ARM GAS  /tmp/cczbsEFl.s 			page 30


 1654 018e 0321     		movs	r1, #3
 1655 0190 6E20     		movs	r0, #110
 1656              	.LVL213:
 1657              		.loc 1 119 12 view .LVU470
 1658 0192 FFF7FEFF 		bl	write_reg
 1659              	.LVL214:
 1660              		.loc 1 119 12 view .LVU471
 1661              	.LBE133:
 1662              	.LBE132:
 1663              		.loc 1 478 7 view .LVU472
 1664 0196 0028     		cmp	r0, #0
 1665 0198 7FF43FAF 		bne	.L54
 1666              		.loc 1 482 5 is_stmt 1 view .LVU473
 1667              		.loc 1 482 15 is_stmt 0 view .LVU474
 1668 019c 8022     		movs	r2, #128
 1669 019e 9321     		movs	r1, #147
 1670 01a0 6E20     		movs	r0, #110
 1671              	.LVL215:
 1672              		.loc 1 482 15 view .LVU475
 1673 01a2 FFF7FEFF 		bl	write_reg
 1674              	.LVL216:
 1675              		.loc 1 482 7 view .LVU476
 1676 01a6 0028     		cmp	r0, #0
 1677 01a8 7FF437AF 		bne	.L54
 1678              		.loc 1 485 5 is_stmt 1 view .LVU477
 1679              		.loc 1 485 15 is_stmt 0 view .LVU478
 1680 01ac 8022     		movs	r2, #128
 1681 01ae 9421     		movs	r1, #148
 1682 01b0 6E20     		movs	r0, #110
 1683              	.LVL217:
 1684              		.loc 1 485 15 view .LVU479
 1685 01b2 FFF7FEFF 		bl	write_reg
 1686              	.LVL218:
 1687              		.loc 1 485 7 view .LVU480
 1688 01b6 0028     		cmp	r0, #0
 1689 01b8 7FF42FAF 		bne	.L54
 1690              		.loc 1 489 2 is_stmt 1 view .LVU481
 1691              		.loc 1 490 2 view .LVU482
 1692              		.loc 1 489 20 is_stmt 0 view .LVU483
 1693 01bc 054B     		ldr	r3, .L59+4
 1694 01be 064A     		ldr	r2, .L59+8
 1695 01c0 1A60     		str	r2, [r3]
 1696              		.loc 1 491 2 is_stmt 1 view .LVU484
 1697              		.loc 1 491 33 is_stmt 0 view .LVU485
 1698 01c2 2022     		movs	r2, #32
 1699 01c4 5A71     		strb	r2, [r3, #5]
 1700              		.loc 1 492 2 is_stmt 1 view .LVU486
 1701              		.loc 1 492 33 is_stmt 0 view .LVU487
 1702 01c6 9A71     		strb	r2, [r3, #6]
 1703              		.loc 1 494 5 is_stmt 1 view .LVU488
 1704              		.loc 1 494 12 is_stmt 0 view .LVU489
 1705 01c8 27E7     		b	.L54
 1706              	.LVL219:
 1707              	.L58:
 1708              		.loc 1 494 12 view .LVU490
 1709              	.LBE131:
 1710              	.LBE130:
ARM GAS  /tmp/cczbsEFl.s 			page 31


 1711              		.loc 1 495 1 view .LVU491
 1712 01ca FFF7FEFF 		bl	__stack_chk_fail
 1713              	.LVL220:
 1714              	.L60:
 1715 01ce 00BF     		.align	2
 1716              	.L59:
 1717 01d0 00000000 		.word	.LC5
 1718 01d4 00000000 		.word	.LANCHOR0
 1719 01d8 A0007800 		.word	7864480
 1720              		.cfi_endproc
 1721              	.LFE262:
 1722              		.size	po8030_set_qqvga, .-po8030_set_qqvga
 1723              		.section	.rodata.po8030_set_size.cst4,"aM",%progbits,4
 1724              		.align	2
 1725              	.LC6:
 1726 0000 00000000 		.word	__stack_chk_guard
 1727              		.section	.text.po8030_set_size,"ax",%progbits
 1728              		.align	1
 1729              		.p2align 4,,15
 1730              		.global	po8030_set_size
 1731              		.syntax unified
 1732              		.thumb
 1733              		.thumb_func
 1734              		.fpu fpv4-sp-d16
 1735              		.type	po8030_set_size, %function
 1736              	po8030_set_size:
 1737              	.LVL221:
 1738              	.LFB263:
 1739              		.loc 1 507 46 is_stmt 1 view -0
 1740              		.cfi_startproc
 1741              		@ args = 0, pretend = 0, frame = 8
 1742              		@ frame_needed = 0, uses_anonymous_args = 0
 1743              		.loc 1 507 46 is_stmt 0 view .LVU493
 1744 0000 00B5     		push	{lr}
 1745              		.cfi_def_cfa_offset 4
 1746              		.cfi_offset 14, -4
 1747 0002 194B     		ldr	r3, .L74
 1748 0004 83B0     		sub	sp, sp, #12
 1749              		.cfi_def_cfa_offset 16
 1750              		.loc 1 507 46 view .LVU494
 1751 0006 1B68     		ldr	r3, [r3]
 1752 0008 0193     		str	r3, [sp, #4]
 1753 000a 4FF00003 		mov	r3,#0
 1754              		.loc 1 508 5 is_stmt 1 view .LVU495
 1755              		.loc 1 509 16 is_stmt 0 view .LVU496
 1756 000e 164B     		ldr	r3, .L74
 1757              		.loc 1 508 7 view .LVU497
 1758 0010 60B1     		cbz	r0, .L72
 1759              		.loc 1 510 12 is_stmt 1 view .LVU498
 1760              		.loc 1 510 14 is_stmt 0 view .LVU499
 1761 0012 0128     		cmp	r0, #1
 1762 0014 13D0     		beq	.L73
 1763              		.loc 1 512 12 is_stmt 1 view .LVU500
 1764              		.loc 1 512 14 is_stmt 0 view .LVU501
 1765 0016 0228     		cmp	r0, #2
 1766 0018 1AD1     		bne	.L66
 1767              		.loc 1 513 9 is_stmt 1 view .LVU502
ARM GAS  /tmp/cczbsEFl.s 			page 32


 1768              		.loc 1 513 16 is_stmt 0 view .LVU503
 1769 001a 1A68     		ldr	r2, [r3]
 1770 001c 019B     		ldr	r3, [sp, #4]
 1771 001e 5A40     		eors	r2, r3, r2
 1772 0020 1FD1     		bne	.L71
 1773              		.loc 1 517 1 view .LVU504
 1774 0022 03B0     		add	sp, sp, #12
 1775              		.cfi_remember_state
 1776              		.cfi_def_cfa_offset 4
 1777              		@ sp needed
 1778 0024 5DF804EB 		ldr	lr, [sp], #4
 1779              		.cfi_restore 14
 1780              		.cfi_def_cfa_offset 0
 1781              		.loc 1 513 16 view .LVU505
 1782 0028 FFF7FEBF 		b	po8030_set_qqvga
 1783              	.LVL222:
 1784              	.L72:
 1785              		.cfi_restore_state
 1786              		.loc 1 509 9 is_stmt 1 view .LVU506
 1787              		.loc 1 509 16 is_stmt 0 view .LVU507
 1788 002c 1A68     		ldr	r2, [r3]
 1789 002e 019B     		ldr	r3, [sp, #4]
 1790 0030 5A40     		eors	r2, r3, r2
 1791 0032 16D1     		bne	.L71
 1792              		.loc 1 517 1 view .LVU508
 1793 0034 03B0     		add	sp, sp, #12
 1794              		.cfi_remember_state
 1795              		.cfi_def_cfa_offset 4
 1796              		@ sp needed
 1797 0036 5DF804EB 		ldr	lr, [sp], #4
 1798              		.cfi_restore 14
 1799              		.cfi_def_cfa_offset 0
 1800              		.loc 1 509 16 view .LVU509
 1801 003a FFF7FEBF 		b	po8030_set_vga
 1802              	.LVL223:
 1803              	.L73:
 1804              		.cfi_restore_state
 1805              		.loc 1 511 9 is_stmt 1 view .LVU510
 1806              		.loc 1 511 16 is_stmt 0 view .LVU511
 1807 003e 1A68     		ldr	r2, [r3]
 1808 0040 019B     		ldr	r3, [sp, #4]
 1809 0042 5A40     		eors	r2, r3, r2
 1810 0044 0DD1     		bne	.L71
 1811              		.loc 1 517 1 view .LVU512
 1812 0046 03B0     		add	sp, sp, #12
 1813              		.cfi_remember_state
 1814              		.cfi_def_cfa_offset 4
 1815              		@ sp needed
 1816 0048 5DF804EB 		ldr	lr, [sp], #4
 1817              		.cfi_restore 14
 1818              		.cfi_def_cfa_offset 0
 1819              		.loc 1 511 16 view .LVU513
 1820 004c FFF7FEBF 		b	po8030_set_qvga
 1821              	.LVL224:
 1822              	.L66:
 1823              		.cfi_restore_state
 1824              		.loc 1 517 1 view .LVU514
ARM GAS  /tmp/cczbsEFl.s 			page 33


 1825 0050 1A68     		ldr	r2, [r3]
 1826 0052 019B     		ldr	r3, [sp, #4]
 1827 0054 5A40     		eors	r2, r3, r2
 1828 0056 04D1     		bne	.L71
 1829 0058 4FF0FF30 		mov	r0, #-1
 1830              	.LVL225:
 1831              		.loc 1 517 1 view .LVU515
 1832 005c 03B0     		add	sp, sp, #12
 1833              		.cfi_remember_state
 1834              		.cfi_def_cfa_offset 4
 1835              		@ sp needed
 1836 005e 5DF804FB 		ldr	pc, [sp], #4
 1837              	.LVL226:
 1838              	.L71:
 1839              		.cfi_restore_state
 1840              		.loc 1 517 1 view .LVU516
 1841 0062 FFF7FEFF 		bl	__stack_chk_fail
 1842              	.LVL227:
 1843              	.L75:
 1844              		.loc 1 517 1 view .LVU517
 1845 0066 00BF     		.align	2
 1846              	.L74:
 1847 0068 00000000 		.word	.LC6
 1848              		.cfi_endproc
 1849              	.LFE263:
 1850              		.size	po8030_set_size, .-po8030_set_size
 1851              		.section	.rodata.po8030_set_scale_buffer_size.cst4,"aM",%progbits,4
 1852              		.align	2
 1853              	.LC7:
 1854 0000 00000000 		.word	__stack_chk_guard
 1855              		.section	.text.po8030_set_scale_buffer_size,"ax",%progbits
 1856              		.align	1
 1857              		.p2align 4,,15
 1858              		.global	po8030_set_scale_buffer_size
 1859              		.syntax unified
 1860              		.thumb
 1861              		.thumb_func
 1862              		.fpu fpv4-sp-d16
 1863              		.type	po8030_set_scale_buffer_size, %function
 1864              	po8030_set_scale_buffer_size:
 1865              	.LVL228:
 1866              	.LFB264:
 1867              		.loc 1 530 73 is_stmt 1 view -0
 1868              		.cfi_startproc
 1869              		@ args = 0, pretend = 0, frame = 8
 1870              		@ frame_needed = 0, uses_anonymous_args = 0
 1871              		.loc 1 530 73 is_stmt 0 view .LVU519
 1872 0000 30B5     		push	{r4, r5, lr}
 1873              		.cfi_def_cfa_offset 12
 1874              		.cfi_offset 4, -12
 1875              		.cfi_offset 5, -8
 1876              		.cfi_offset 14, -4
 1877 0002 414B     		ldr	r3, .L95
 1878 0004 83B0     		sub	sp, sp, #12
 1879              		.cfi_def_cfa_offset 24
 1880              		.loc 1 530 73 view .LVU520
 1881 0006 0546     		mov	r5, r0
ARM GAS  /tmp/cczbsEFl.s 			page 34


 1882 0008 0C46     		mov	r4, r1
 1883              	.LBB140:
 1884              	.LBB141:
 1885              		.loc 1 119 12 view .LVU521
 1886 000a 0122     		movs	r2, #1
 1887 000c 0321     		movs	r1, #3
 1888              	.LVL229:
 1889              		.loc 1 119 12 view .LVU522
 1890 000e 6E20     		movs	r0, #110
 1891              	.LVL230:
 1892              		.loc 1 119 12 view .LVU523
 1893              	.LBE141:
 1894              	.LBE140:
 1895              		.loc 1 530 73 view .LVU524
 1896 0010 1B68     		ldr	r3, [r3]
 1897 0012 0193     		str	r3, [sp, #4]
 1898 0014 4FF00003 		mov	r3,#0
 1899              		.loc 1 531 5 is_stmt 1 view .LVU525
 1900              	.LVL231:
 1901              		.loc 1 533 5 view .LVU526
 1902              	.LBB143:
 1903              	.LBI140:
 1904              		.loc 1 118 8 view .LVU527
 1905              	.LBB142:
 1906              		.loc 1 119 5 view .LVU528
 1907              		.loc 1 119 12 is_stmt 0 view .LVU529
 1908 0018 FFF7FEFF 		bl	write_reg
 1909              	.LVL232:
 1910              		.loc 1 119 12 view .LVU530
 1911              	.LBE142:
 1912              	.LBE143:
 1913              		.loc 1 533 7 view .LVU531
 1914 001c 30B9     		cbnz	r0, .L77
 1915              	.LVL233:
 1916              	.LBB144:
 1917              	.LBI144:
 1918              		.loc 1 530 8 is_stmt 1 view .LVU532
 1919              	.LBB145:
 1920              		.loc 1 537 5 view .LVU533
 1921              		.loc 1 537 7 is_stmt 0 view .LVU534
 1922 001e 442D     		cmp	r5, #68
 1923 0020 0BD0     		beq	.L93
 1924              		.loc 1 567 9 is_stmt 1 view .LVU535
 1925 0022 012C     		cmp	r4, #1
 1926 0024 61D0     		beq	.L84
 1927 0026 022C     		cmp	r4, #2
 1928 0028 50D0     		beq	.L85
 1929 002a DCB1     		cbz	r4, .L94
 1930              	.LVL234:
 1931              	.L77:
 1932              		.loc 1 567 9 is_stmt 0 view .LVU536
 1933              	.LBE145:
 1934              	.LBE144:
 1935              		.loc 1 598 1 view .LVU537
 1936 002c 364B     		ldr	r3, .L95
 1937 002e 1A68     		ldr	r2, [r3]
 1938 0030 019B     		ldr	r3, [sp, #4]
ARM GAS  /tmp/cczbsEFl.s 			page 35


 1939 0032 5A40     		eors	r2, r3, r2
 1940 0034 48D1     		bne	.L92
 1941 0036 03B0     		add	sp, sp, #12
 1942              		.cfi_remember_state
 1943              		.cfi_def_cfa_offset 12
 1944              		@ sp needed
 1945 0038 30BD     		pop	{r4, r5, pc}
 1946              	.LVL235:
 1947              	.L93:
 1948              		.cfi_restore_state
 1949              	.LBB149:
 1950              	.LBB146:
 1951              		.loc 1 538 9 is_stmt 1 view .LVU538
 1952 003a 012C     		cmp	r4, #1
 1953 003c 36D0     		beq	.L79
 1954 003e 022C     		cmp	r4, #2
 1955 0040 25D0     		beq	.L80
 1956 0042 002C     		cmp	r4, #0
 1957 0044 F2D1     		bne	.L77
 1958              		.loc 1 540 17 view .LVU539
 1959              		.loc 1 540 27 is_stmt 0 view .LVU540
 1960 0046 2246     		mov	r2, r4
 1961 0048 9521     		movs	r1, #149
 1962 004a 6E20     		movs	r0, #110
 1963              	.LVL236:
 1964              		.loc 1 540 27 view .LVU541
 1965 004c FFF7FEFF 		bl	write_reg
 1966              	.LVL237:
 1967              		.loc 1 540 19 view .LVU542
 1968 0050 0028     		cmp	r0, #0
 1969 0052 EBD1     		bne	.L77
 1970              		.loc 1 543 17 is_stmt 1 view .LVU543
 1971              		.loc 1 543 27 is_stmt 0 view .LVU544
 1972 0054 2C4B     		ldr	r3, .L95
 1973 0056 1A68     		ldr	r2, [r3]
 1974 0058 019B     		ldr	r3, [sp, #4]
 1975 005a 5A40     		eors	r2, r3, r2
 1976 005c 08BF     		it	eq
 1977 005e 0822     		moveq	r2, #8
 1978 0060 0ED0     		beq	.L91
 1979 0062 31E0     		b	.L92
 1980              	.LVL238:
 1981              	.L94:
 1982              		.loc 1 569 17 is_stmt 1 view .LVU545
 1983              		.loc 1 569 27 is_stmt 0 view .LVU546
 1984 0064 2246     		mov	r2, r4
 1985 0066 9521     		movs	r1, #149
 1986 0068 6E20     		movs	r0, #110
 1987              	.LVL239:
 1988              		.loc 1 569 27 view .LVU547
 1989 006a FFF7FEFF 		bl	write_reg
 1990              	.LVL240:
 1991              		.loc 1 569 19 view .LVU548
 1992 006e 0028     		cmp	r0, #0
 1993 0070 DCD1     		bne	.L77
 1994              		.loc 1 572 17 is_stmt 1 view .LVU549
 1995              		.loc 1 572 27 is_stmt 0 view .LVU550
ARM GAS  /tmp/cczbsEFl.s 			page 36


 1996 0072 254B     		ldr	r3, .L95
 1997 0074 1A68     		ldr	r2, [r3]
 1998 0076 019B     		ldr	r3, [sp, #4]
 1999 0078 5A40     		eors	r2, r3, r2
 2000 007a 08BF     		it	eq
 2001 007c 0A22     		moveq	r2, #10
 2002 007e 23D1     		bne	.L92
 2003              	.L91:
 2004              		.loc 1 590 27 view .LVU551
 2005 0080 9621     		movs	r1, #150
 2006 0082 6E20     		movs	r0, #110
 2007              	.LVL241:
 2008              		.loc 1 590 27 view .LVU552
 2009              	.LBE146:
 2010              	.LBE149:
 2011              		.loc 1 598 1 view .LVU553
 2012 0084 03B0     		add	sp, sp, #12
 2013              		.cfi_remember_state
 2014              		.cfi_def_cfa_offset 12
 2015              		@ sp needed
 2016 0086 BDE83040 		pop	{r4, r5, lr}
 2017              		.cfi_restore 14
 2018              		.cfi_restore 5
 2019              		.cfi_restore 4
 2020              		.cfi_def_cfa_offset 0
 2021              	.LVL242:
 2022              	.LBB150:
 2023              	.LBB147:
 2024              		.loc 1 590 27 view .LVU554
 2025 008a FFF7FEBF 		b	write_reg
 2026              	.LVL243:
 2027              	.L80:
 2028              		.cfi_restore_state
 2029              		.loc 1 558 17 is_stmt 1 view .LVU555
 2030              		.loc 1 558 27 is_stmt 0 view .LVU556
 2031 008e 0246     		mov	r2, r0
 2032 0090 9521     		movs	r1, #149
 2033 0092 6E20     		movs	r0, #110
 2034              	.LVL244:
 2035              		.loc 1 558 27 view .LVU557
 2036 0094 FFF7FEFF 		bl	write_reg
 2037              	.LVL245:
 2038              		.loc 1 558 19 view .LVU558
 2039 0098 0028     		cmp	r0, #0
 2040 009a C7D1     		bne	.L77
 2041              		.loc 1 561 17 is_stmt 1 view .LVU559
 2042              		.loc 1 561 27 is_stmt 0 view .LVU560
 2043 009c 1A4B     		ldr	r3, .L95
 2044 009e 1A68     		ldr	r2, [r3]
 2045 00a0 019B     		ldr	r3, [sp, #4]
 2046 00a2 5A40     		eors	r2, r3, r2
 2047 00a4 08BF     		it	eq
 2048 00a6 7C22     		moveq	r2, #124
 2049 00a8 EAD0     		beq	.L91
 2050 00aa 0DE0     		b	.L92
 2051              	.LVL246:
 2052              	.L79:
ARM GAS  /tmp/cczbsEFl.s 			page 37


 2053              		.loc 1 549 17 is_stmt 1 view .LVU561
 2054              		.loc 1 549 27 is_stmt 0 view .LVU562
 2055 00ac 0246     		mov	r2, r0
 2056 00ae 9521     		movs	r1, #149
 2057 00b0 6E20     		movs	r0, #110
 2058              	.LVL247:
 2059              		.loc 1 549 27 view .LVU563
 2060 00b2 FFF7FEFF 		bl	write_reg
 2061              	.LVL248:
 2062              		.loc 1 549 19 view .LVU564
 2063 00b6 0028     		cmp	r0, #0
 2064 00b8 B8D1     		bne	.L77
 2065              		.loc 1 552 17 is_stmt 1 view .LVU565
 2066              		.loc 1 552 27 is_stmt 0 view .LVU566
 2067 00ba 134B     		ldr	r3, .L95
 2068 00bc 1A68     		ldr	r2, [r3]
 2069 00be 019B     		ldr	r3, [sp, #4]
 2070 00c0 5A40     		eors	r2, r3, r2
 2071 00c2 08BF     		it	eq
 2072 00c4 A422     		moveq	r2, #164
 2073 00c6 DBD0     		beq	.L91
 2074              	.LVL249:
 2075              	.L92:
 2076              		.loc 1 552 27 view .LVU567
 2077              	.LBE147:
 2078              	.LBE150:
 2079              		.loc 1 598 1 view .LVU568
 2080 00c8 FFF7FEFF 		bl	__stack_chk_fail
 2081              	.LVL250:
 2082              	.L85:
 2083              	.LBB151:
 2084              	.LBB148:
 2085              		.loc 1 587 17 is_stmt 1 view .LVU569
 2086              		.loc 1 587 27 is_stmt 0 view .LVU570
 2087 00cc 0246     		mov	r2, r0
 2088 00ce 9521     		movs	r1, #149
 2089 00d0 6E20     		movs	r0, #110
 2090              	.LVL251:
 2091              		.loc 1 587 27 view .LVU571
 2092 00d2 FFF7FEFF 		bl	write_reg
 2093              	.LVL252:
 2094              		.loc 1 587 19 view .LVU572
 2095 00d6 0028     		cmp	r0, #0
 2096 00d8 A8D1     		bne	.L77
 2097              		.loc 1 590 17 is_stmt 1 view .LVU573
 2098              		.loc 1 590 27 is_stmt 0 view .LVU574
 2099 00da 0B4B     		ldr	r3, .L95
 2100 00dc 1A68     		ldr	r2, [r3]
 2101 00de 019B     		ldr	r3, [sp, #4]
 2102 00e0 5A40     		eors	r2, r3, r2
 2103 00e2 08BF     		it	eq
 2104 00e4 F522     		moveq	r2, #245
 2105 00e6 CBD0     		beq	.L91
 2106 00e8 EEE7     		b	.L92
 2107              	.LVL253:
 2108              	.L84:
 2109              		.loc 1 578 17 is_stmt 1 view .LVU575
ARM GAS  /tmp/cczbsEFl.s 			page 38


 2110              		.loc 1 578 27 is_stmt 0 view .LVU576
 2111 00ea 2246     		mov	r2, r4
 2112 00ec 9521     		movs	r1, #149
 2113 00ee 6E20     		movs	r0, #110
 2114              	.LVL254:
 2115              		.loc 1 578 27 view .LVU577
 2116 00f0 FFF7FEFF 		bl	write_reg
 2117              	.LVL255:
 2118              		.loc 1 578 19 view .LVU578
 2119 00f4 0028     		cmp	r0, #0
 2120 00f6 99D1     		bne	.L77
 2121              		.loc 1 581 17 is_stmt 1 view .LVU579
 2122              		.loc 1 581 27 is_stmt 0 view .LVU580
 2123 00f8 034B     		ldr	r3, .L95
 2124 00fa 1A68     		ldr	r2, [r3]
 2125 00fc 019B     		ldr	r3, [sp, #4]
 2126 00fe 5A40     		eors	r2, r3, r2
 2127 0100 08BF     		it	eq
 2128 0102 4622     		moveq	r2, #70
 2129 0104 BCD0     		beq	.L91
 2130 0106 DFE7     		b	.L92
 2131              	.L96:
 2132              		.align	2
 2133              	.L95:
 2134 0108 00000000 		.word	.LC7
 2135              	.LBE148:
 2136              	.LBE151:
 2137              		.cfi_endproc
 2138              	.LFE264:
 2139              		.size	po8030_set_scale_buffer_size, .-po8030_set_scale_buffer_size
 2140              		.section	.rodata.po8030_config.cst4,"aM",%progbits,4
 2141              		.align	2
 2142              	.LC8:
 2143 0000 00000000 		.word	__stack_chk_guard
 2144              		.section	.text.po8030_config,"ax",%progbits
 2145              		.align	1
 2146              		.p2align 4,,15
 2147              		.global	po8030_config
 2148              		.syntax unified
 2149              		.thumb
 2150              		.thumb_func
 2151              		.fpu fpv4-sp-d16
 2152              		.type	po8030_config, %function
 2153              	po8030_config:
 2154              	.LVL256:
 2155              	.LFB266:
 2156              		.loc 1 631 58 is_stmt 1 view -0
 2157              		.cfi_startproc
 2158              		@ args = 0, pretend = 0, frame = 8
 2159              		@ frame_needed = 0, uses_anonymous_args = 0
 2160              		.loc 1 631 58 is_stmt 0 view .LVU582
 2161 0000 30B5     		push	{r4, r5, lr}
 2162              		.cfi_def_cfa_offset 12
 2163              		.cfi_offset 4, -12
 2164              		.cfi_offset 5, -8
 2165              		.cfi_offset 14, -4
 2166 0002 1A4B     		ldr	r3, .L104
ARM GAS  /tmp/cczbsEFl.s 			page 39


 2167 0004 83B0     		sub	sp, sp, #12
 2168              		.cfi_def_cfa_offset 24
 2169              		.loc 1 631 58 view .LVU583
 2170 0006 0446     		mov	r4, r0
 2171 0008 0D46     		mov	r5, r1
 2172              	.LBB152:
 2173              	.LBB153:
 2174              		.loc 1 119 12 view .LVU584
 2175 000a 0022     		movs	r2, #0
 2176 000c 0321     		movs	r1, #3
 2177              	.LVL257:
 2178              		.loc 1 119 12 view .LVU585
 2179 000e 6E20     		movs	r0, #110
 2180              	.LVL258:
 2181              		.loc 1 119 12 view .LVU586
 2182              	.LBE153:
 2183              	.LBE152:
 2184              		.loc 1 631 58 view .LVU587
 2185 0010 1B68     		ldr	r3, [r3]
 2186 0012 0193     		str	r3, [sp, #4]
 2187 0014 4FF00003 		mov	r3,#0
 2188              		.loc 1 633 5 is_stmt 1 view .LVU588
 2189              	.LVL259:
 2190              		.loc 1 635 5 view .LVU589
 2191              	.LBB155:
 2192              	.LBI152:
 2193              		.loc 1 118 8 view .LVU590
 2194              	.LBB154:
 2195              		.loc 1 119 5 view .LVU591
 2196              		.loc 1 119 12 is_stmt 0 view .LVU592
 2197 0018 FFF7FEFF 		bl	write_reg
 2198              	.LVL260:
 2199              		.loc 1 119 12 view .LVU593
 2200              	.LBE154:
 2201              	.LBE155:
 2202              		.loc 1 635 7 view .LVU594
 2203 001c 30B1     		cbz	r0, .L103
 2204              	.L98:
 2205              		.loc 1 655 1 view .LVU595
 2206 001e 134B     		ldr	r3, .L104
 2207 0020 1A68     		ldr	r2, [r3]
 2208 0022 019B     		ldr	r3, [sp, #4]
 2209 0024 5A40     		eors	r2, r3, r2
 2210 0026 1ED1     		bne	.L102
 2211 0028 03B0     		add	sp, sp, #12
 2212              		.cfi_remember_state
 2213              		.cfi_def_cfa_offset 12
 2214              		@ sp needed
 2215 002a 30BD     		pop	{r4, r5, pc}
 2216              	.L103:
 2217              		.cfi_restore_state
 2218              		.loc 1 638 5 is_stmt 1 view .LVU596
 2219              		.loc 1 638 15 is_stmt 0 view .LVU597
 2220 002c 0246     		mov	r2, r0
 2221 002e 5B21     		movs	r1, #91
 2222 0030 6E20     		movs	r0, #110
 2223              	.LVL261:
ARM GAS  /tmp/cczbsEFl.s 			page 40


 2224              		.loc 1 638 15 view .LVU598
 2225 0032 FFF7FEFF 		bl	write_reg
 2226              	.LVL262:
 2227              		.loc 1 638 7 view .LVU599
 2228 0036 0028     		cmp	r0, #0
 2229 0038 F1D1     		bne	.L98
 2230              		.loc 1 642 5 is_stmt 1 view .LVU600
 2231              		.loc 1 642 15 is_stmt 0 view .LVU601
 2232 003a 2046     		mov	r0, r4
 2233              	.LVL263:
 2234              		.loc 1 642 15 view .LVU602
 2235 003c FFF7FEFF 		bl	po8030_set_format
 2236              	.LVL264:
 2237              		.loc 1 642 7 view .LVU603
 2238 0040 0028     		cmp	r0, #0
 2239 0042 ECD1     		bne	.L98
 2240              		.loc 1 646 5 is_stmt 1 view .LVU604
 2241              		.loc 1 646 15 is_stmt 0 view .LVU605
 2242 0044 2846     		mov	r0, r5
 2243              	.LVL265:
 2244              		.loc 1 646 15 view .LVU606
 2245 0046 FFF7FEFF 		bl	po8030_set_size
 2246              	.LVL266:
 2247              		.loc 1 646 7 view .LVU607
 2248 004a 0028     		cmp	r0, #0
 2249 004c E7D1     		bne	.L98
 2250              		.loc 1 650 5 is_stmt 1 view .LVU608
 2251              		.loc 1 650 15 is_stmt 0 view .LVU609
 2252 004e 074B     		ldr	r3, .L104
 2253 0050 1A68     		ldr	r2, [r3]
 2254 0052 019B     		ldr	r3, [sp, #4]
 2255 0054 5A40     		eors	r2, r3, r2
 2256 0056 06D1     		bne	.L102
 2257 0058 2946     		mov	r1, r5
 2258 005a 2046     		mov	r0, r4
 2259              	.LVL267:
 2260              		.loc 1 655 1 view .LVU610
 2261 005c 03B0     		add	sp, sp, #12
 2262              		.cfi_remember_state
 2263              		.cfi_def_cfa_offset 12
 2264              		@ sp needed
 2265 005e BDE83040 		pop	{r4, r5, lr}
 2266              		.cfi_restore 14
 2267              		.cfi_restore 5
 2268              		.cfi_restore 4
 2269              		.cfi_def_cfa_offset 0
 2270              		.loc 1 650 15 view .LVU611
 2271 0062 FFF7FEBF 		b	po8030_set_scale_buffer_size
 2272              	.LVL268:
 2273              	.L102:
 2274              		.cfi_restore_state
 2275              		.loc 1 655 1 view .LVU612
 2276 0066 FFF7FEFF 		bl	__stack_chk_fail
 2277              	.LVL269:
 2278              	.L105:
 2279              		.loc 1 655 1 view .LVU613
 2280 006a 00BF     		.align	2
ARM GAS  /tmp/cczbsEFl.s 			page 41


 2281              	.L104:
 2282 006c 00000000 		.word	.LC8
 2283              		.cfi_endproc
 2284              	.LFE266:
 2285              		.size	po8030_config, .-po8030_config
 2286              		.section	.rodata.po8030_advanced_config.cst4,"aM",%progbits,4
 2287              		.align	2
 2288              	.LC9:
 2289 0000 00000000 		.word	__stack_chk_guard
 2290              		.section	.text.po8030_advanced_config,"ax",%progbits
 2291              		.align	1
 2292              		.p2align 4,,15
 2293              		.global	po8030_advanced_config
 2294              		.syntax unified
 2295              		.thumb
 2296              		.thumb_func
 2297              		.fpu fpv4-sp-d16
 2298              		.type	po8030_advanced_config, %function
 2299              	po8030_advanced_config:
 2300              	.LVL270:
 2301              	.LFB267:
 2302              		.loc 1 659 91 is_stmt 1 view -0
 2303              		.cfi_startproc
 2304              		@ args = 12, pretend = 0, frame = 24
 2305              		@ frame_needed = 0, uses_anonymous_args = 0
 2306              		.loc 1 659 91 is_stmt 0 view .LVU615
 2307 0000 2DE9F04F 		push	{r4, r5, r6, r7, r8, r9, r10, fp, lr}
 2308              		.cfi_def_cfa_offset 36
 2309              		.cfi_offset 4, -36
 2310              		.cfi_offset 5, -32
 2311              		.cfi_offset 6, -28
 2312              		.cfi_offset 7, -24
 2313              		.cfi_offset 8, -20
 2314              		.cfi_offset 9, -16
 2315              		.cfi_offset 10, -12
 2316              		.cfi_offset 11, -8
 2317              		.cfi_offset 14, -4
 2318 0004 2DED088B 		vpush.64	{d8, d9, d10, d11}
 2319              		.cfi_def_cfa_offset 68
 2320              		.cfi_offset 80, -68
 2321              		.cfi_offset 81, -64
 2322              		.cfi_offset 82, -60
 2323              		.cfi_offset 83, -56
 2324              		.cfi_offset 84, -52
 2325              		.cfi_offset 85, -48
 2326              		.cfi_offset 86, -44
 2327              		.cfi_offset 87, -40
 2328 0008 87B0     		sub	sp, sp, #28
 2329              		.cfi_def_cfa_offset 96
 2330              		.loc 1 659 91 view .LVU616
 2331 000a 314C     		ldr	r4, .L138
 2332 000c DDF860C0 		ldr	ip, [sp, #96]
 2333 0010 9DF864A0 		ldrb	r10, [sp, #100]	@ zero_extendqisi2
 2334 0014 9DF868B0 		ldrb	fp, [sp, #104]	@ zero_extendqisi2
 2335              		.loc 1 661 15 view .LVU617
 2336 0018 5E1E     		subs	r6, r3, #1
 2337              		.loc 1 662 15 view .LVU618
ARM GAS  /tmp/cczbsEFl.s 			page 42


 2338 001a 0CF1FF37 		add	r7, ip, #-1
 2339              		.loc 1 668 4 view .LVU619
 2340 001e B3F5207F 		cmp	r3, #640
 2341              		.loc 1 659 91 view .LVU620
 2342 0022 2468     		ldr	r4, [r4]
 2343 0024 0594     		str	r4, [sp, #20]
 2344 0026 4FF00004 		mov	r4,#0
 2345              		.loc 1 660 5 is_stmt 1 view .LVU621
 2346              	.LVL271:
 2347              		.loc 1 661 2 view .LVU622
 2348              		.loc 1 661 15 is_stmt 0 view .LVU623
 2349 002a 0E44     		add	r6, r6, r1
 2350              	.LVL272:
 2351              		.loc 1 662 2 is_stmt 1 view .LVU624
 2352              		.loc 1 659 91 is_stmt 0 view .LVU625
 2353 002c 0390     		str	r0, [sp, #12]
 2354              		.loc 1 662 15 view .LVU626
 2355 002e 1744     		add	r7, r7, r2
 2356              	.LVL273:
 2357              		.loc 1 663 2 is_stmt 1 view .LVU627
 2358              		.loc 1 664 2 view .LVU628
 2359              		.loc 1 665 2 view .LVU629
 2360              		.loc 1 666 2 view .LVU630
 2361              		.loc 1 668 2 view .LVU631
 2362              		.loc 1 668 4 is_stmt 0 view .LVU632
 2363 0030 00F21B82 		bhi	.L118
 2364              		.loc 1 668 28 discriminator 1 view .LVU633
 2365 0034 BCF5F07F 		cmp	ip, #480
 2366 0038 00F21782 		bhi	.L118
 2367              		.loc 1 672 4 view .LVU634
 2368 003c B1F5207F 		cmp	r1, #640
 2369 0040 0C46     		mov	r4, r1
 2370              		.loc 1 672 2 is_stmt 1 view .LVU635
 2371              		.loc 1 672 4 is_stmt 0 view .LVU636
 2372 0042 00F21B82 		bhi	.L119
 2373              		.loc 1 676 4 view .LVU637
 2374 0046 B2F5F07F 		cmp	r2, #480
 2375 004a 1546     		mov	r5, r2
 2376              		.loc 1 676 2 is_stmt 1 view .LVU638
 2377              		.loc 1 676 4 is_stmt 0 view .LVU639
 2378 004c 00F21982 		bhi	.L120
 2379              		.loc 1 680 2 is_stmt 1 view .LVU640
 2380              		.loc 1 680 4 is_stmt 0 view .LVU641
 2381 0050 B142     		cmp	r1, r6
 2382 0052 80F00D82 		bcs	.L122
 2383              		.loc 1 680 12 discriminator 1 view .LVU642
 2384 0056 B6F5207F 		cmp	r6, #640
 2385 005a 00F20982 		bhi	.L122
 2386              		.loc 1 684 2 is_stmt 1 view .LVU643
 2387              		.loc 1 684 4 is_stmt 0 view .LVU644
 2388 005e BA42     		cmp	r2, r7
 2389 0060 80F00982 		bcs	.L124
 2390              		.loc 1 684 12 discriminator 1 view .LVU645
 2391 0064 B7F5F07F 		cmp	r7, #480
 2392 0068 00F20582 		bhi	.L124
 2393              		.loc 1 688 2 is_stmt 1 view .LVU646
 2394 006c BAF1400F 		cmp	r10, #64
ARM GAS  /tmp/cczbsEFl.s 			page 43


 2395 0070 00F0C781 		beq	.L108
 2396 0074 BAF1800F 		cmp	r10, #128
 2397 0078 00F0B081 		beq	.L109
 2398 007c BAF1200F 		cmp	r10, #32
 2399 0080 00F08881 		beq	.L132
 2400 0084 4FF00008 		mov	r8, #0
 2401 0088 CDF80480 		str	r8, [sp, #4]
 2402              	.LVL274:
 2403              	.L110:
 2404              		.loc 1 719 2 view .LVU647
 2405 008c BBF1400F 		cmp	fp, #64
 2406 0090 00F09081 		beq	.L111
 2407              	.L137:
 2408              		.loc 1 719 2 is_stmt 0 view .LVU648
 2409 0094 BBF1800F 		cmp	fp, #128
 2410 0098 00F0D381 		beq	.L112
 2411 009c BBF1200F 		cmp	fp, #32
 2412 00a0 00F0C281 		beq	.L133
 2413 00a4 4FF00009 		mov	r9, #0
 2414 00a8 CDF80890 		str	r9, [sp, #8]
 2415              	.LVL275:
 2416              	.L113:
 2417              		.loc 1 750 5 is_stmt 1 view .LVU649
 2418              	.LBB156:
 2419              	.LBI156:
 2420              		.loc 1 118 8 view .LVU650
 2421              	.LBB157:
 2422              		.loc 1 119 5 view .LVU651
 2423              		.loc 1 119 12 is_stmt 0 view .LVU652
 2424 00ac 0022     		movs	r2, #0
 2425 00ae 0321     		movs	r1, #3
 2426 00b0 6E20     		movs	r0, #110
 2427              	.LVL276:
 2428              		.loc 1 119 12 view .LVU653
 2429 00b2 FFF7FEFF 		bl	write_reg
 2430              	.LVL277:
 2431              		.loc 1 119 12 view .LVU654
 2432              	.LBE157:
 2433              	.LBE156:
 2434              		.loc 1 750 7 view .LVU655
 2435 00b6 88B1     		cbz	r0, .L134
 2436              	.LVL278:
 2437              	.L107:
 2438              		.loc 1 882 1 view .LVU656
 2439 00b8 054B     		ldr	r3, .L138
 2440 00ba 1A68     		ldr	r2, [r3]
 2441 00bc 059B     		ldr	r3, [sp, #20]
 2442 00be 5A40     		eors	r2, r3, r2
 2443 00c0 40F0E881 		bne	.L135
 2444 00c4 07B0     		add	sp, sp, #28
 2445              		.cfi_remember_state
 2446              		.cfi_def_cfa_offset 68
 2447              		@ sp needed
 2448 00c6 BDEC088B 		vldm	sp!, {d8-d11}
 2449              		.cfi_restore 86
 2450              		.cfi_restore 87
 2451              		.cfi_restore 84
ARM GAS  /tmp/cczbsEFl.s 			page 44


 2452              		.cfi_restore 85
 2453              		.cfi_restore 82
 2454              		.cfi_restore 83
 2455              		.cfi_restore 80
 2456              		.cfi_restore 81
 2457              		.cfi_def_cfa_offset 36
 2458 00ca BDE8F08F 		pop	{r4, r5, r6, r7, r8, r9, r10, fp, pc}
 2459              	.LVL279:
 2460              	.L139:
 2461              		.loc 1 882 1 view .LVU657
 2462 00ce 00BF     		.align	2
 2463              	.L138:
 2464 00d0 00000000 		.word	.LC9
 2465 00d4 00002244 		.word	1143078912
 2466 00d8 0000A344 		.word	1151533056
 2467              	.LVL280:
 2468              	.L134:
 2469              		.cfi_restore_state
 2470              		.loc 1 753 5 is_stmt 1 view .LVU658
 2471              		.loc 1 753 15 is_stmt 0 view .LVU659
 2472 00dc 0246     		mov	r2, r0
 2473 00de 5B21     		movs	r1, #91
 2474 00e0 6E20     		movs	r0, #110
 2475              	.LVL281:
 2476              		.loc 1 753 15 view .LVU660
 2477 00e2 FFF7FEFF 		bl	write_reg
 2478              	.LVL282:
 2479              		.loc 1 753 7 view .LVU661
 2480 00e6 0028     		cmp	r0, #0
 2481 00e8 E6D1     		bne	.L107
 2482              		.loc 1 757 5 is_stmt 1 view .LVU662
 2483              		.loc 1 757 15 is_stmt 0 view .LVU663
 2484 00ea 0398     		ldr	r0, [sp, #12]
 2485              	.LVL283:
 2486              		.loc 1 757 15 view .LVU664
 2487 00ec FFF7FEFF 		bl	po8030_set_format
 2488              	.LVL284:
 2489              		.loc 1 757 7 view .LVU665
 2490 00f0 0028     		cmp	r0, #0
 2491 00f2 E1D1     		bne	.L107
 2492              		.loc 1 761 5 is_stmt 1 view .LVU666
 2493              	.LVL285:
 2494              	.LBB158:
 2495              	.LBI158:
 2496              		.loc 1 118 8 view .LVU667
 2497              	.LBB159:
 2498              		.loc 1 119 5 view .LVU668
 2499              		.loc 1 119 12 is_stmt 0 view .LVU669
 2500 00f4 0246     		mov	r2, r0
 2501 00f6 0321     		movs	r1, #3
 2502 00f8 6E20     		movs	r0, #110
 2503              	.LVL286:
 2504              		.loc 1 119 12 view .LVU670
 2505 00fa FFF7FEFF 		bl	write_reg
 2506              	.LVL287:
 2507              		.loc 1 119 12 view .LVU671
 2508              	.LBE159:
ARM GAS  /tmp/cczbsEFl.s 			page 45


 2509              	.LBE158:
 2510              		.loc 1 761 7 view .LVU672
 2511 00fe 0028     		cmp	r0, #0
 2512 0100 DAD1     		bne	.L107
 2513              		.loc 1 765 5 is_stmt 1 view .LVU673
 2514              		.loc 1 765 15 is_stmt 0 view .LVU674
 2515 0102 C4F30723 		ubfx	r3, r4, #8, #8
 2516 0106 1A46     		mov	r2, r3
 2517 0108 0821     		movs	r1, #8
 2518 010a 6E20     		movs	r0, #110
 2519              	.LVL288:
 2520              		.loc 1 765 15 view .LVU675
 2521 010c 08EE103A 		vmov	s16, r3	@ int
 2522 0110 FFF7FEFF 		bl	write_reg
 2523              	.LVL289:
 2524              		.loc 1 765 7 view .LVU676
 2525 0114 0028     		cmp	r0, #0
 2526 0116 CFD1     		bne	.L107
 2527              		.loc 1 768 5 is_stmt 1 view .LVU677
 2528              		.loc 1 768 15 is_stmt 0 view .LVU678
 2529 0118 E1B2     		uxtb	r1, r4
 2530 011a 08EE901A 		vmov	s17, r1	@ int
 2531 011e 0A46     		mov	r2, r1
 2532 0120 6E20     		movs	r0, #110
 2533              	.LVL290:
 2534              		.loc 1 768 15 view .LVU679
 2535 0122 0921     		movs	r1, #9
 2536 0124 FFF7FEFF 		bl	write_reg
 2537              	.LVL291:
 2538              		.loc 1 768 7 view .LVU680
 2539 0128 0028     		cmp	r0, #0
 2540 012a C5D1     		bne	.L107
 2541              		.loc 1 771 5 is_stmt 1 view .LVU681
 2542              		.loc 1 771 15 is_stmt 0 view .LVU682
 2543 012c C5F3072C 		ubfx	ip, r5, #8, #8
 2544 0130 6246     		mov	r2, ip
 2545 0132 0A21     		movs	r1, #10
 2546 0134 6E20     		movs	r0, #110
 2547              	.LVL292:
 2548              		.loc 1 771 15 view .LVU683
 2549 0136 09EE10CA 		vmov	s18, ip	@ int
 2550 013a FFF7FEFF 		bl	write_reg
 2551              	.LVL293:
 2552              		.loc 1 771 7 view .LVU684
 2553 013e 0028     		cmp	r0, #0
 2554 0140 BAD1     		bne	.L107
 2555              		.loc 1 774 5 is_stmt 1 view .LVU685
 2556              		.loc 1 774 15 is_stmt 0 view .LVU686
 2557 0142 5FFA85FC 		uxtb	ip, r5
 2558 0146 6246     		mov	r2, ip
 2559 0148 0B21     		movs	r1, #11
 2560 014a 6E20     		movs	r0, #110
 2561              	.LVL294:
 2562              		.loc 1 774 15 view .LVU687
 2563 014c 09EE90CA 		vmov	s19, ip	@ int
 2564 0150 FFF7FEFF 		bl	write_reg
 2565              	.LVL295:
ARM GAS  /tmp/cczbsEFl.s 			page 46


 2566              		.loc 1 774 7 view .LVU688
 2567 0154 0028     		cmp	r0, #0
 2568 0156 AFD1     		bne	.L107
 2569              		.loc 1 777 5 is_stmt 1 view .LVU689
 2570              		.loc 1 777 15 is_stmt 0 view .LVU690
 2571 0158 C6F3072C 		ubfx	ip, r6, #8, #8
 2572 015c 6246     		mov	r2, ip
 2573 015e 0C21     		movs	r1, #12
 2574 0160 6E20     		movs	r0, #110
 2575              	.LVL296:
 2576              		.loc 1 777 15 view .LVU691
 2577 0162 0AEE10CA 		vmov	s20, ip	@ int
 2578 0166 FFF7FEFF 		bl	write_reg
 2579              	.LVL297:
 2580              		.loc 1 777 7 view .LVU692
 2581 016a 0028     		cmp	r0, #0
 2582 016c A4D1     		bne	.L107
 2583              		.loc 1 780 5 is_stmt 1 view .LVU693
 2584              		.loc 1 780 15 is_stmt 0 view .LVU694
 2585 016e 5FFA86FC 		uxtb	ip, r6
 2586 0172 6246     		mov	r2, ip
 2587 0174 0D21     		movs	r1, #13
 2588 0176 6E20     		movs	r0, #110
 2589              	.LVL298:
 2590              		.loc 1 780 15 view .LVU695
 2591 0178 0BEE90CA 		vmov	s23, ip	@ int
 2592 017c FFF7FEFF 		bl	write_reg
 2593              	.LVL299:
 2594              		.loc 1 780 7 view .LVU696
 2595 0180 0028     		cmp	r0, #0
 2596 0182 99D1     		bne	.L107
 2597              		.loc 1 783 5 is_stmt 1 view .LVU697
 2598              		.loc 1 783 15 is_stmt 0 view .LVU698
 2599 0184 C7F3072C 		ubfx	ip, r7, #8, #8
 2600 0188 6246     		mov	r2, ip
 2601 018a 0E21     		movs	r1, #14
 2602 018c 6E20     		movs	r0, #110
 2603              	.LVL300:
 2604              		.loc 1 783 15 view .LVU699
 2605 018e 0BEE10CA 		vmov	s22, ip	@ int
 2606 0192 FFF7FEFF 		bl	write_reg
 2607              	.LVL301:
 2608              		.loc 1 783 7 view .LVU700
 2609 0196 0028     		cmp	r0, #0
 2610 0198 8ED1     		bne	.L107
 2611              		.loc 1 786 5 is_stmt 1 view .LVU701
 2612              		.loc 1 786 15 is_stmt 0 view .LVU702
 2613 019a 5FFA87FC 		uxtb	ip, r7
 2614 019e 6246     		mov	r2, ip
 2615 01a0 0F21     		movs	r1, #15
 2616 01a2 6E20     		movs	r0, #110
 2617              	.LVL302:
 2618              		.loc 1 786 15 view .LVU703
 2619 01a4 0AEE90CA 		vmov	s21, ip	@ int
 2620 01a8 FFF7FEFF 		bl	write_reg
 2621              	.LVL303:
 2622              		.loc 1 786 7 view .LVU704
ARM GAS  /tmp/cczbsEFl.s 			page 47


 2623 01ac 0028     		cmp	r0, #0
 2624 01ae 83D1     		bne	.L107
 2625              		.loc 1 790 5 is_stmt 1 view .LVU705
 2626              		.loc 1 790 15 is_stmt 0 view .LVU706
 2627 01b0 18EE102A 		vmov	r2, s16	@ int
 2628 01b4 3521     		movs	r1, #53
 2629 01b6 6E20     		movs	r0, #110
 2630              	.LVL304:
 2631              		.loc 1 790 15 view .LVU707
 2632 01b8 FFF7FEFF 		bl	write_reg
 2633              	.LVL305:
 2634              		.loc 1 790 7 view .LVU708
 2635 01bc 0028     		cmp	r0, #0
 2636 01be 7FF47BAF 		bne	.L107
 2637              		.loc 1 793 5 is_stmt 1 view .LVU709
 2638              		.loc 1 793 15 is_stmt 0 view .LVU710
 2639 01c2 18EE902A 		vmov	r2, s17	@ int
 2640 01c6 3621     		movs	r1, #54
 2641 01c8 6E20     		movs	r0, #110
 2642              	.LVL306:
 2643              		.loc 1 793 15 view .LVU711
 2644 01ca FFF7FEFF 		bl	write_reg
 2645              	.LVL307:
 2646              		.loc 1 793 7 view .LVU712
 2647 01ce 0028     		cmp	r0, #0
 2648 01d0 7FF472AF 		bne	.L107
 2649              		.loc 1 796 5 is_stmt 1 view .LVU713
 2650              		.loc 1 796 15 is_stmt 0 view .LVU714
 2651 01d4 1AEE102A 		vmov	r2, s20	@ int
 2652 01d8 3721     		movs	r1, #55
 2653 01da 6E20     		movs	r0, #110
 2654              	.LVL308:
 2655              		.loc 1 796 15 view .LVU715
 2656 01dc FFF7FEFF 		bl	write_reg
 2657              	.LVL309:
 2658              		.loc 1 796 7 view .LVU716
 2659 01e0 0028     		cmp	r0, #0
 2660 01e2 7FF469AF 		bne	.L107
 2661              		.loc 1 799 5 is_stmt 1 view .LVU717
 2662              		.loc 1 799 15 is_stmt 0 view .LVU718
 2663 01e6 1BEE902A 		vmov	r2, s23	@ int
 2664 01ea 3821     		movs	r1, #56
 2665 01ec 6E20     		movs	r0, #110
 2666              	.LVL310:
 2667              		.loc 1 799 15 view .LVU719
 2668 01ee FFF7FEFF 		bl	write_reg
 2669              	.LVL311:
 2670              		.loc 1 799 7 view .LVU720
 2671 01f2 0028     		cmp	r0, #0
 2672 01f4 7FF460AF 		bne	.L107
 2673              		.loc 1 802 5 is_stmt 1 view .LVU721
 2674              		.loc 1 802 15 is_stmt 0 view .LVU722
 2675 01f8 19EE102A 		vmov	r2, s18	@ int
 2676 01fc 3921     		movs	r1, #57
 2677 01fe 6E20     		movs	r0, #110
 2678              	.LVL312:
 2679              		.loc 1 802 15 view .LVU723
ARM GAS  /tmp/cczbsEFl.s 			page 48


 2680 0200 FFF7FEFF 		bl	write_reg
 2681              	.LVL313:
 2682              		.loc 1 802 7 view .LVU724
 2683 0204 0028     		cmp	r0, #0
 2684 0206 7FF457AF 		bne	.L107
 2685              		.loc 1 805 5 is_stmt 1 view .LVU725
 2686              		.loc 1 805 15 is_stmt 0 view .LVU726
 2687 020a 19EE902A 		vmov	r2, s19	@ int
 2688 020e 3A21     		movs	r1, #58
 2689 0210 6E20     		movs	r0, #110
 2690              	.LVL314:
 2691              		.loc 1 805 15 view .LVU727
 2692 0212 FFF7FEFF 		bl	write_reg
 2693              	.LVL315:
 2694              		.loc 1 805 7 view .LVU728
 2695 0216 0028     		cmp	r0, #0
 2696 0218 7FF44EAF 		bne	.L107
 2697              		.loc 1 808 5 is_stmt 1 view .LVU729
 2698              		.loc 1 808 15 is_stmt 0 view .LVU730
 2699 021c 1BEE102A 		vmov	r2, s22	@ int
 2700 0220 3B21     		movs	r1, #59
 2701 0222 6E20     		movs	r0, #110
 2702              	.LVL316:
 2703              		.loc 1 808 15 view .LVU731
 2704 0224 FFF7FEFF 		bl	write_reg
 2705              	.LVL317:
 2706              		.loc 1 808 7 view .LVU732
 2707 0228 0028     		cmp	r0, #0
 2708 022a 7FF445AF 		bne	.L107
 2709              		.loc 1 811 5 is_stmt 1 view .LVU733
 2710              		.loc 1 811 15 is_stmt 0 view .LVU734
 2711 022e 1AEE902A 		vmov	r2, s21	@ int
 2712 0232 3C21     		movs	r1, #60
 2713 0234 6E20     		movs	r0, #110
 2714              	.LVL318:
 2715              		.loc 1 811 15 view .LVU735
 2716 0236 FFF7FEFF 		bl	write_reg
 2717              	.LVL319:
 2718              		.loc 1 811 7 view .LVU736
 2719 023a 0028     		cmp	r0, #0
 2720 023c 7FF43CAF 		bne	.L107
 2721              		.loc 1 815 5 is_stmt 1 view .LVU737
 2722              		.loc 1 815 15 is_stmt 0 view .LVU738
 2723 0240 019B     		ldr	r3, [sp, #4]
 2724 0242 3D21     		movs	r1, #61
 2725 0244 C3F30722 		ubfx	r2, r3, #8, #8
 2726 0248 6E20     		movs	r0, #110
 2727              	.LVL320:
 2728              		.loc 1 815 15 view .LVU739
 2729 024a FFF7FEFF 		bl	write_reg
 2730              	.LVL321:
 2731              		.loc 1 815 7 view .LVU740
 2732 024e 0028     		cmp	r0, #0
 2733 0250 7FF432AF 		bne	.L107
 2734              		.loc 1 818 5 is_stmt 1 view .LVU741
 2735              		.loc 1 818 15 is_stmt 0 view .LVU742
 2736 0254 9DF80420 		ldrb	r2, [sp, #4]	@ zero_extendqisi2
ARM GAS  /tmp/cczbsEFl.s 			page 49


 2737 0258 3E21     		movs	r1, #62
 2738 025a 6E20     		movs	r0, #110
 2739              	.LVL322:
 2740              		.loc 1 818 15 view .LVU743
 2741 025c FFF7FEFF 		bl	write_reg
 2742              	.LVL323:
 2743              		.loc 1 818 7 view .LVU744
 2744 0260 0028     		cmp	r0, #0
 2745 0262 7FF429AF 		bne	.L107
 2746              		.loc 1 821 5 is_stmt 1 view .LVU745
 2747              		.loc 1 821 15 is_stmt 0 view .LVU746
 2748 0266 C8F30722 		ubfx	r2, r8, #8, #8
 2749 026a 3F21     		movs	r1, #63
 2750 026c 6E20     		movs	r0, #110
 2751              	.LVL324:
 2752              		.loc 1 821 15 view .LVU747
 2753 026e FFF7FEFF 		bl	write_reg
 2754              	.LVL325:
 2755              		.loc 1 821 7 view .LVU748
 2756 0272 0028     		cmp	r0, #0
 2757 0274 7FF420AF 		bne	.L107
 2758              		.loc 1 824 5 is_stmt 1 view .LVU749
 2759              		.loc 1 824 15 is_stmt 0 view .LVU750
 2760 0278 5FFA88F2 		uxtb	r2, r8
 2761 027c 4021     		movs	r1, #64
 2762 027e 6E20     		movs	r0, #110
 2763              	.LVL326:
 2764              		.loc 1 824 15 view .LVU751
 2765 0280 FFF7FEFF 		bl	write_reg
 2766              	.LVL327:
 2767              		.loc 1 824 7 view .LVU752
 2768 0284 0028     		cmp	r0, #0
 2769 0286 7FF417AF 		bne	.L107
 2770              		.loc 1 827 5 is_stmt 1 view .LVU753
 2771              		.loc 1 827 15 is_stmt 0 view .LVU754
 2772 028a 029B     		ldr	r3, [sp, #8]
 2773 028c 4121     		movs	r1, #65
 2774 028e C3F30722 		ubfx	r2, r3, #8, #8
 2775 0292 6E20     		movs	r0, #110
 2776              	.LVL328:
 2777              		.loc 1 827 15 view .LVU755
 2778 0294 FFF7FEFF 		bl	write_reg
 2779              	.LVL329:
 2780              		.loc 1 827 7 view .LVU756
 2781 0298 0028     		cmp	r0, #0
 2782 029a 7FF40DAF 		bne	.L107
 2783              		.loc 1 830 5 is_stmt 1 view .LVU757
 2784              		.loc 1 830 15 is_stmt 0 view .LVU758
 2785 029e 9DF80820 		ldrb	r2, [sp, #8]	@ zero_extendqisi2
 2786 02a2 4221     		movs	r1, #66
 2787 02a4 6E20     		movs	r0, #110
 2788              	.LVL330:
 2789              		.loc 1 830 15 view .LVU759
 2790 02a6 FFF7FEFF 		bl	write_reg
 2791              	.LVL331:
 2792              		.loc 1 830 7 view .LVU760
 2793 02aa 0028     		cmp	r0, #0
ARM GAS  /tmp/cczbsEFl.s 			page 50


 2794 02ac 7FF404AF 		bne	.L107
 2795              		.loc 1 833 5 is_stmt 1 view .LVU761
 2796              		.loc 1 833 15 is_stmt 0 view .LVU762
 2797 02b0 C9F30722 		ubfx	r2, r9, #8, #8
 2798 02b4 4321     		movs	r1, #67
 2799 02b6 6E20     		movs	r0, #110
 2800              	.LVL332:
 2801              		.loc 1 833 15 view .LVU763
 2802 02b8 FFF7FEFF 		bl	write_reg
 2803              	.LVL333:
 2804              		.loc 1 833 7 view .LVU764
 2805 02bc 0028     		cmp	r0, #0
 2806 02be 7FF4FBAE 		bne	.L107
 2807              		.loc 1 836 5 is_stmt 1 view .LVU765
 2808              		.loc 1 836 15 is_stmt 0 view .LVU766
 2809 02c2 5FFA89F2 		uxtb	r2, r9
 2810 02c6 4421     		movs	r1, #68
 2811 02c8 6E20     		movs	r0, #110
 2812              	.LVL334:
 2813              		.loc 1 836 15 view .LVU767
 2814 02ca FFF7FEFF 		bl	write_reg
 2815              	.LVL335:
 2816              		.loc 1 836 7 view .LVU768
 2817 02ce 0028     		cmp	r0, #0
 2818 02d0 7FF4F2AE 		bne	.L107
 2819              		.loc 1 840 5 is_stmt 1 view .LVU769
 2820              	.LVL336:
 2821              	.LBB160:
 2822              	.LBI160:
 2823              		.loc 1 118 8 view .LVU770
 2824              	.LBB161:
 2825              		.loc 1 119 5 view .LVU771
 2826              		.loc 1 119 12 is_stmt 0 view .LVU772
 2827 02d4 0122     		movs	r2, #1
 2828 02d6 0321     		movs	r1, #3
 2829 02d8 6E20     		movs	r0, #110
 2830              	.LVL337:
 2831              		.loc 1 119 12 view .LVU773
 2832 02da FFF7FEFF 		bl	write_reg
 2833              	.LVL338:
 2834              		.loc 1 119 12 view .LVU774
 2835              	.LBE161:
 2836              	.LBE160:
 2837              		.loc 1 840 7 view .LVU775
 2838 02de 0028     		cmp	r0, #0
 2839 02e0 7FF4EAAE 		bne	.L107
 2840              		.loc 1 844 5 is_stmt 1 view .LVU776
 2841              		.loc 1 844 15 is_stmt 0 view .LVU777
 2842 02e4 5246     		mov	r2, r10
 2843 02e6 9321     		movs	r1, #147
 2844 02e8 6E20     		movs	r0, #110
 2845              	.LVL339:
 2846              		.loc 1 844 15 view .LVU778
 2847 02ea FFF7FEFF 		bl	write_reg
 2848              	.LVL340:
 2849              		.loc 1 844 7 view .LVU779
 2850 02ee 0028     		cmp	r0, #0
ARM GAS  /tmp/cczbsEFl.s 			page 51


 2851 02f0 7FF4E2AE 		bne	.L107
 2852              		.loc 1 847 5 is_stmt 1 view .LVU780
 2853              		.loc 1 847 15 is_stmt 0 view .LVU781
 2854 02f4 5A46     		mov	r2, fp
 2855 02f6 9421     		movs	r1, #148
 2856 02f8 6E20     		movs	r0, #110
 2857              	.LVL341:
 2858              		.loc 1 847 15 view .LVU782
 2859 02fa FFF7FEFF 		bl	write_reg
 2860              	.LVL342:
 2861              		.loc 1 847 7 view .LVU783
 2862 02fe 0028     		cmp	r0, #0
 2863 0300 7FF4DAAE 		bne	.L107
 2864              		.loc 1 852 5 is_stmt 1 view .LVU784
 2865              	.LVL343:
 2866              	.LBB162:
 2867              	.LBI162:
 2868              		.loc 1 118 8 view .LVU785
 2869              	.LBB163:
 2870              		.loc 1 119 5 view .LVU786
 2871              		.loc 1 119 12 is_stmt 0 view .LVU787
 2872 0304 0122     		movs	r2, #1
 2873 0306 0321     		movs	r1, #3
 2874 0308 6E20     		movs	r0, #110
 2875              	.LVL344:
 2876              		.loc 1 119 12 view .LVU788
 2877 030a FFF7FEFF 		bl	write_reg
 2878              	.LVL345:
 2879              		.loc 1 119 12 view .LVU789
 2880              	.LBE163:
 2881              	.LBE162:
 2882              		.loc 1 852 7 view .LVU790
 2883 030e 0028     		cmp	r0, #0
 2884 0310 7FF4D2AE 		bne	.L107
 2885              		.loc 1 856 5 is_stmt 1 view .LVU791
 2886              		.loc 1 856 7 is_stmt 0 view .LVU792
 2887 0314 039B     		ldr	r3, [sp, #12]
 2888              		.loc 1 857 36 view .LVU793
 2889 0316 0136     		adds	r6, r6, #1
 2890              	.LVL346:
 2891              		.loc 1 856 7 view .LVU794
 2892 0318 442B     		cmp	r3, #68
 2893              		.loc 1 857 36 view .LVU795
 2894 031a A6EB0403 		sub	r3, r6, r4
 2895 031e 07EE903A 		vmov	s15, r3	@ int
 2896              		.loc 1 856 7 view .LVU796
 2897 0322 00F0B980 		beq	.L136
 2898              		.loc 1 860 3 is_stmt 1 view .LVU797
 2899              		.loc 1 860 24 is_stmt 0 view .LVU798
 2900 0326 B8EE677A 		vcvt.f32.u32	s14, s15
 2901              		.loc 1 860 23 view .LVU799
 2902 032a 5FED967A 		vldr.32	s15, .L138+4
 2903              		.loc 1 860 14 view .LVU800
 2904 032e 1FED966A 		vldr.32	s12, .L138+8
 2905              		.loc 1 860 68 view .LVU801
 2906 0332 F0EE005A 		vmov.f32	s11, #2.0e+0
 2907 0336 F2EE006A 		vmov.f32	s13, #8.0e+0
ARM GAS  /tmp/cczbsEFl.s 			page 52


 2908 033a E7EE256A 		vfma.f32	s13, s14, s11
 2909              	.LVL347:
 2910              		.loc 1 861 3 is_stmt 1 view .LVU802
 2911              		.loc 1 860 23 is_stmt 0 view .LVU803
 2912 033e 77EEC77A 		vsub.f32	s15, s15, s14
 2913              		.loc 1 860 41 view .LVU804
 2914 0342 77EEA77A 		vadd.f32	s15, s15, s15
 2915              		.loc 1 860 46 view .LVU805
 2916 0346 67EEA67A 		vmul.f32	s15, s15, s13
 2917              		.loc 1 860 14 view .LVU806
 2918 034a 87EE867A 		vdiv.f32	s14, s15, s12
 2919              	.LVL348:
 2920              		.loc 1 861 12 view .LVU807
 2921 034e FCEEC77A 		vcvt.u32.f32	s15, s14
 2922 0352 17EE908A 		vmov	r8, s15	@ int
 2923              	.LVL349:
 2924              	.L115:
 2925              		.loc 1 864 2 is_stmt 1 view .LVU808
 2926              		.loc 1 864 12 is_stmt 0 view .LVU809
 2927 0356 C8F30722 		ubfx	r2, r8, #8, #8
 2928 035a 9521     		movs	r1, #149
 2929 035c 6E20     		movs	r0, #110
 2930              	.LVL350:
 2931              		.loc 1 864 12 view .LVU810
 2932 035e FFF7FEFF 		bl	write_reg
 2933              	.LVL351:
 2934              		.loc 1 864 4 view .LVU811
 2935 0362 0028     		cmp	r0, #0
 2936 0364 7FF4A8AE 		bne	.L107
 2937              		.loc 1 867 2 is_stmt 1 view .LVU812
 2938              		.loc 1 867 12 is_stmt 0 view .LVU813
 2939 0368 5FFA88F2 		uxtb	r2, r8
 2940 036c 9621     		movs	r1, #150
 2941 036e 6E20     		movs	r0, #110
 2942              	.LVL352:
 2943              		.loc 1 867 12 view .LVU814
 2944 0370 FFF7FEFF 		bl	write_reg
 2945              	.LVL353:
 2946              		.loc 1 867 4 view .LVU815
 2947 0374 0028     		cmp	r0, #0
 2948 0376 7FF49FAE 		bne	.L107
 2949              		.loc 1 871 2 is_stmt 1 view .LVU816
 2950              		.loc 1 871 20 is_stmt 0 view .LVU817
 2951 037a 524B     		ldr	r3, .L140
 2952              		.loc 1 873 26 view .LVU818
 2953 037c 039A     		ldr	r2, [sp, #12]
 2954 037e 1A71     		strb	r2, [r3, #4]
 2955              		.loc 1 872 31 view .LVU819
 2956 0380 0137     		adds	r7, r7, #1
 2957              	.LVL354:
 2958              		.loc 1 872 31 view .LVU820
 2959 0382 7D1B     		subs	r5, r7, r5
 2960              	.LVL355:
 2961              		.loc 1 871 30 view .LVU821
 2962 0384 361B     		subs	r6, r6, r4
 2963              	.LVL356:
 2964              		.loc 1 872 21 view .LVU822
ARM GAS  /tmp/cczbsEFl.s 			page 53


 2965 0386 5D80     		strh	r5, [r3, #2]	@ movhi
 2966              		.loc 1 871 20 view .LVU823
 2967 0388 1E80     		strh	r6, [r3]	@ movhi
 2968              		.loc 1 872 2 is_stmt 1 view .LVU824
 2969              		.loc 1 873 2 view .LVU825
 2970              		.loc 1 874 2 view .LVU826
 2971              		.loc 1 874 33 is_stmt 0 view .LVU827
 2972 038a 83F805A0 		strb	r10, [r3, #5]
 2973              		.loc 1 875 2 is_stmt 1 view .LVU828
 2974              		.loc 1 875 33 is_stmt 0 view .LVU829
 2975 038e 83F806B0 		strb	fp, [r3, #6]
 2976              		.loc 1 877 5 is_stmt 1 view .LVU830
 2977              		.loc 1 878 9 view .LVU831
 2978              		.loc 1 881 5 view .LVU832
 2979              		.loc 1 881 12 is_stmt 0 view .LVU833
 2980 0392 91E6     		b	.L107
 2981              	.LVL357:
 2982              	.L132:
 2983              		.loc 1 690 4 is_stmt 1 view .LVU834
 2984              		.loc 1 690 28 is_stmt 0 view .LVU835
 2985 0394 4C4A     		ldr	r2, .L140+4
 2986              	.LVL358:
 2987              		.loc 1 691 28 view .LVU836
 2988 0396 4FEA4308 		lsl	r8, r3, #1
 2989              		.loc 1 690 28 view .LVU837
 2990 039a A2FB0313 		umull	r1, r3, r2, r3
 2991              	.LVL359:
 2992              		.loc 1 690 15 view .LVU838
 2993 039e 04EB5303 		add	r3, r4, r3, lsr #1
 2994              		.loc 1 691 30 view .LVU839
 2995 03a2 A2FB0828 		umull	r2, r8, r2, r8
 2996              		.loc 1 719 2 view .LVU840
 2997 03a6 BBF1400F 		cmp	fp, #64
 2998              		.loc 1 690 15 view .LVU841
 2999 03aa 0193     		str	r3, [sp, #4]
 3000              	.LVL360:
 3001              		.loc 1 691 4 is_stmt 1 view .LVU842
 3002              		.loc 1 691 15 is_stmt 0 view .LVU843
 3003 03ac 04EB5808 		add	r8, r4, r8, lsr #1
 3004              	.LVL361:
 3005              		.loc 1 692 4 is_stmt 1 view .LVU844
 3006              		.loc 1 719 2 view .LVU845
 3007 03b0 7FF470AE 		bne	.L137
 3008              	.LVL362:
 3009              	.L111:
 3010              		.loc 1 727 4 view .LVU846
 3011              		.loc 1 727 6 is_stmt 0 view .LVU847
 3012 03b4 1CF0010F 		tst	ip, #1
 3013 03b8 66D1     		bne	.L130
 3014              		.loc 1 730 5 is_stmt 1 view .LVU848
 3015              		.loc 1 732 30 is_stmt 0 view .LVU849
 3016 03ba 434B     		ldr	r3, .L140+4
 3017              		.loc 1 730 12 view .LVU850
 3018 03bc 6F08     		lsrs	r7, r5, #1
 3019              	.LVL363:
 3020              		.loc 1 731 5 is_stmt 1 view .LVU851
 3021              		.loc 1 733 30 is_stmt 0 view .LVU852
ARM GAS  /tmp/cczbsEFl.s 			page 54


 3022 03be 4FEA4C09 		lsl	r9, ip, #1
 3023              		.loc 1 731 8 view .LVU853
 3024 03c2 7D1C     		adds	r5, r7, #1
 3025              	.LVL364:
 3026              		.loc 1 733 32 view .LVU854
 3027 03c4 A3FB0929 		umull	r2, r9, r3, r9
 3028              		.loc 1 732 30 view .LVU855
 3029 03c8 A3FB0C23 		umull	r2, r3, r3, ip
 3030              		.loc 1 732 16 view .LVU856
 3031 03cc 05EB9303 		add	r3, r5, r3, lsr #2
 3032              		.loc 1 731 8 view .LVU857
 3033 03d0 07EB5C07 		add	r7, r7, ip, lsr #1
 3034              	.LVL365:
 3035              		.loc 1 732 5 is_stmt 1 view .LVU858
 3036              		.loc 1 732 16 is_stmt 0 view .LVU859
 3037 03d4 0293     		str	r3, [sp, #8]
 3038              	.LVL366:
 3039              		.loc 1 733 5 is_stmt 1 view .LVU860
 3040              		.loc 1 733 16 is_stmt 0 view .LVU861
 3041 03d6 05EB9909 		add	r9, r5, r9, lsr #2
 3042              	.LVL367:
 3043              		.loc 1 735 4 is_stmt 1 view .LVU862
 3044 03da 67E6     		b	.L113
 3045              	.LVL368:
 3046              	.L109:
 3047              		.loc 1 708 4 view .LVU863
 3048              		.loc 1 708 6 is_stmt 0 view .LVU864
 3049 03dc 9A07     		lsls	r2, r3, #30
 3050              	.LVL369:
 3051              		.loc 1 708 6 view .LVU865
 3052 03de 56D1     		bne	.L127
 3053              		.loc 1 711 5 is_stmt 1 view .LVU866
 3054              		.loc 1 713 29 is_stmt 0 view .LVU867
 3055 03e0 394A     		ldr	r2, .L140+4
 3056              		.loc 1 711 12 view .LVU868
 3057 03e2 8E08     		lsrs	r6, r1, #2
 3058              	.LVL370:
 3059              		.loc 1 712 5 is_stmt 1 view .LVU869
 3060              		.loc 1 714 29 is_stmt 0 view .LVU870
 3061 03e4 4FEA4308 		lsl	r8, r3, #1
 3062              		.loc 1 712 8 view .LVU871
 3063 03e8 741C     		adds	r4, r6, #1
 3064              	.LVL371:
 3065              		.loc 1 714 31 view .LVU872
 3066 03ea A2FB0818 		umull	r1, r8, r2, r8
 3067              	.LVL372:
 3068              		.loc 1 713 29 view .LVU873
 3069 03ee A2FB0312 		umull	r1, r2, r2, r3
 3070              		.loc 1 712 8 view .LVU874
 3071 03f2 06EB9306 		add	r6, r6, r3, lsr #2
 3072              	.LVL373:
 3073              		.loc 1 713 5 is_stmt 1 view .LVU875
 3074              		.loc 1 713 16 is_stmt 0 view .LVU876
 3075 03f6 04EBD203 		add	r3, r4, r2, lsr #3
 3076              	.LVL374:
 3077              		.loc 1 713 16 view .LVU877
 3078 03fa 0193     		str	r3, [sp, #4]
ARM GAS  /tmp/cczbsEFl.s 			page 55


 3079              	.LVL375:
 3080              		.loc 1 714 5 is_stmt 1 view .LVU878
 3081              		.loc 1 714 16 is_stmt 0 view .LVU879
 3082 03fc 04EBD808 		add	r8, r4, r8, lsr #3
 3083              	.LVL376:
 3084              		.loc 1 716 4 is_stmt 1 view .LVU880
 3085 0400 44E6     		b	.L110
 3086              	.LVL377:
 3087              	.L108:
 3088              		.loc 1 696 4 view .LVU881
 3089              		.loc 1 696 6 is_stmt 0 view .LVU882
 3090 0402 D907     		lsls	r1, r3, #31
 3091              	.LVL378:
 3092              		.loc 1 696 6 view .LVU883
 3093 0404 43D4     		bmi	.L127
 3094              		.loc 1 699 5 is_stmt 1 view .LVU884
 3095              		.loc 1 701 29 is_stmt 0 view .LVU885
 3096 0406 304A     		ldr	r2, .L140+4
 3097              	.LVL379:
 3098              		.loc 1 699 12 view .LVU886
 3099 0408 6608     		lsrs	r6, r4, #1
 3100              	.LVL380:
 3101              		.loc 1 700 5 is_stmt 1 view .LVU887
 3102              		.loc 1 702 29 is_stmt 0 view .LVU888
 3103 040a 4FEA4308 		lsl	r8, r3, #1
 3104              		.loc 1 700 8 view .LVU889
 3105 040e 741C     		adds	r4, r6, #1
 3106              	.LVL381:
 3107              		.loc 1 702 31 view .LVU890
 3108 0410 A2FB0818 		umull	r1, r8, r2, r8
 3109              		.loc 1 701 29 view .LVU891
 3110 0414 A2FB0312 		umull	r1, r2, r2, r3
 3111              		.loc 1 700 8 view .LVU892
 3112 0418 06EB5306 		add	r6, r6, r3, lsr #1
 3113              	.LVL382:
 3114              		.loc 1 701 5 is_stmt 1 view .LVU893
 3115              		.loc 1 701 16 is_stmt 0 view .LVU894
 3116 041c 04EB9203 		add	r3, r4, r2, lsr #2
 3117              	.LVL383:
 3118              		.loc 1 701 16 view .LVU895
 3119 0420 0193     		str	r3, [sp, #4]
 3120              	.LVL384:
 3121              		.loc 1 702 5 is_stmt 1 view .LVU896
 3122              		.loc 1 702 16 is_stmt 0 view .LVU897
 3123 0422 04EB9808 		add	r8, r4, r8, lsr #2
 3124              	.LVL385:
 3125              		.loc 1 704 4 is_stmt 1 view .LVU898
 3126 0426 31E6     		b	.L110
 3127              	.LVL386:
 3128              	.L133:
 3129              		.loc 1 721 4 view .LVU899
 3130              		.loc 1 721 29 is_stmt 0 view .LVU900
 3131 0428 274B     		ldr	r3, .L140+4
 3132              		.loc 1 722 29 view .LVU901
 3133 042a 4FEA4C09 		lsl	r9, ip, #1
 3134              		.loc 1 721 29 view .LVU902
 3135 042e A3FB0C2C 		umull	r2, ip, r3, ip
ARM GAS  /tmp/cczbsEFl.s 			page 56


 3136              		.loc 1 722 31 view .LVU903
 3137 0432 A3FB0939 		umull	r3, r9, r3, r9
 3138              		.loc 1 721 15 view .LVU904
 3139 0436 05EB5C03 		add	r3, r5, ip, lsr #1
 3140 043a 0293     		str	r3, [sp, #8]
 3141              	.LVL387:
 3142              		.loc 1 722 4 is_stmt 1 view .LVU905
 3143              		.loc 1 722 15 is_stmt 0 view .LVU906
 3144 043c 05EB5909 		add	r9, r5, r9, lsr #1
 3145              	.LVL388:
 3146              		.loc 1 723 4 is_stmt 1 view .LVU907
 3147 0440 34E6     		b	.L113
 3148              	.LVL389:
 3149              	.L112:
 3150              		.loc 1 739 4 view .LVU908
 3151              		.loc 1 739 6 is_stmt 0 view .LVU909
 3152 0442 1CF0030F 		tst	ip, #3
 3153 0446 1FD1     		bne	.L130
 3154              		.loc 1 742 5 is_stmt 1 view .LVU910
 3155              		.loc 1 744 30 is_stmt 0 view .LVU911
 3156 0448 1F4B     		ldr	r3, .L140+4
 3157              		.loc 1 742 12 view .LVU912
 3158 044a AF08     		lsrs	r7, r5, #2
 3159              	.LVL390:
 3160              		.loc 1 743 5 is_stmt 1 view .LVU913
 3161              		.loc 1 745 30 is_stmt 0 view .LVU914
 3162 044c 4FEA4C09 		lsl	r9, ip, #1
 3163              		.loc 1 743 8 view .LVU915
 3164 0450 7D1C     		adds	r5, r7, #1
 3165              	.LVL391:
 3166              		.loc 1 745 32 view .LVU916
 3167 0452 A3FB0929 		umull	r2, r9, r3, r9
 3168              		.loc 1 744 30 view .LVU917
 3169 0456 A3FB0C23 		umull	r2, r3, r3, ip
 3170              		.loc 1 744 16 view .LVU918
 3171 045a 05EBD303 		add	r3, r5, r3, lsr #3
 3172              		.loc 1 743 8 view .LVU919
 3173 045e 07EB9C07 		add	r7, r7, ip, lsr #2
 3174              	.LVL392:
 3175              		.loc 1 744 5 is_stmt 1 view .LVU920
 3176              		.loc 1 744 16 is_stmt 0 view .LVU921
 3177 0462 0293     		str	r3, [sp, #8]
 3178              	.LVL393:
 3179              		.loc 1 745 5 is_stmt 1 view .LVU922
 3180              		.loc 1 745 16 is_stmt 0 view .LVU923
 3181 0464 05EBD909 		add	r9, r5, r9, lsr #3
 3182              	.LVL394:
 3183              		.loc 1 747 4 is_stmt 1 view .LVU924
 3184 0468 20E6     		b	.L113
 3185              	.LVL395:
 3186              	.L118:
 3187              		.loc 1 669 10 is_stmt 0 view .LVU925
 3188 046a 6FF00700 		mvn	r0, #7
 3189              	.LVL396:
 3190              		.loc 1 669 10 view .LVU926
 3191 046e 23E6     		b	.L107
 3192              	.LVL397:
ARM GAS  /tmp/cczbsEFl.s 			page 57


 3193              	.L122:
 3194              		.loc 1 681 10 view .LVU927
 3195 0470 6FF00300 		mvn	r0, #3
 3196              	.LVL398:
 3197              		.loc 1 681 10 view .LVU928
 3198 0474 20E6     		b	.L107
 3199              	.LVL399:
 3200              	.L124:
 3201              		.loc 1 685 10 view .LVU929
 3202 0476 6FF00400 		mvn	r0, #4
 3203              	.LVL400:
 3204              		.loc 1 685 10 view .LVU930
 3205 047a 1DE6     		b	.L107
 3206              	.LVL401:
 3207              	.L119:
 3208              		.loc 1 673 10 view .LVU931
 3209 047c 6FF00100 		mvn	r0, #1
 3210              	.LVL402:
 3211              		.loc 1 673 10 view .LVU932
 3212 0480 1AE6     		b	.L107
 3213              	.LVL403:
 3214              	.L120:
 3215              		.loc 1 677 10 view .LVU933
 3216 0482 6FF00200 		mvn	r0, #2
 3217              	.LVL404:
 3218              		.loc 1 677 10 view .LVU934
 3219 0486 17E6     		b	.L107
 3220              	.LVL405:
 3221              	.L130:
 3222              		.loc 1 728 12 view .LVU935
 3223 0488 6FF00600 		mvn	r0, #6
 3224              	.LVL406:
 3225              		.loc 1 728 12 view .LVU936
 3226 048c 14E6     		b	.L107
 3227              	.LVL407:
 3228              	.L127:
 3229              		.loc 1 697 12 view .LVU937
 3230 048e 6FF00500 		mvn	r0, #5
 3231              	.LVL408:
 3232              		.loc 1 697 12 view .LVU938
 3233 0492 11E6     		b	.L107
 3234              	.LVL409:
 3235              	.L135:
 3236              		.loc 1 882 1 view .LVU939
 3237 0494 FFF7FEFF 		bl	__stack_chk_fail
 3238              	.LVL410:
 3239              	.L136:
 3240              		.loc 1 857 3 is_stmt 1 view .LVU940
 3241              		.loc 1 857 23 is_stmt 0 view .LVU941
 3242 0498 F8EE677A 		vcvt.f32.u32	s15, s15
 3243              	.LVL411:
 3244              		.loc 1 858 3 is_stmt 1 view .LVU942
 3245              		.loc 1 857 22 is_stmt 0 view .LVU943
 3246 049c 9FED0B7A 		vldr.32	s14, .L140+8
 3247              		.loc 1 857 14 view .LVU944
 3248 04a0 DFED0B6A 		vldr.32	s13, .L140+12
 3249              		.loc 1 857 58 view .LVU945
ARM GAS  /tmp/cczbsEFl.s 			page 58


 3250 04a4 B2EE006A 		vmov.f32	s12, #8.0e+0
 3251              		.loc 1 857 22 view .LVU946
 3252 04a8 37EE677A 		vsub.f32	s14, s14, s15
 3253              		.loc 1 857 58 view .LVU947
 3254 04ac 77EE867A 		vadd.f32	s15, s15, s12
 3255              	.LVL412:
 3256              		.loc 1 857 40 view .LVU948
 3257 04b0 67EE277A 		vmul.f32	s15, s14, s15
 3258              		.loc 1 857 14 view .LVU949
 3259 04b4 87EEA67A 		vdiv.f32	s14, s15, s13
 3260              	.LVL413:
 3261              		.loc 1 858 12 view .LVU950
 3262 04b8 FCEEC77A 		vcvt.u32.f32	s15, s14
 3263 04bc 17EE908A 		vmov	r8, s15	@ int
 3264              	.LVL414:
 3265              		.loc 1 858 12 view .LVU951
 3266 04c0 49E7     		b	.L115
 3267              	.L141:
 3268 04c2 00BF     		.align	2
 3269              	.L140:
 3270 04c4 00000000 		.word	.LANCHOR0
 3271 04c8 ABAAAAAA 		.word	-1431655765
 3272 04cc 00002244 		.word	1143078912
 3273 04d0 00002444 		.word	1143209984
 3274              		.cfi_endproc
 3275              	.LFE267:
 3276              		.size	po8030_advanced_config, .-po8030_advanced_config
 3277              		.section	.rodata.po8030_start.cst4,"aM",%progbits,4
 3278              		.align	2
 3279              	.LC10:
 3280 0000 00000000 		.word	__stack_chk_guard
 3281              		.section	.text.po8030_start,"ax",%progbits
 3282              		.align	1
 3283              		.p2align 4,,15
 3284              		.global	po8030_start
 3285              		.syntax unified
 3286              		.thumb
 3287              		.thumb_func
 3288              		.fpu fpv4-sp-d16
 3289              		.type	po8030_start, %function
 3290              	po8030_start:
 3291              	.LFB265:
 3292              		.loc 1 605 25 is_stmt 1 view -0
 3293              		.cfi_startproc
 3294              		@ args = 0, pretend = 0, frame = 8
 3295              		@ frame_needed = 0, uses_anonymous_args = 0
 3296 0000 00B5     		push	{lr}
 3297              		.cfi_def_cfa_offset 4
 3298              		.cfi_offset 14, -4
 3299 0002 134B     		ldr	r3, .L146
 3300 0004 87B0     		sub	sp, sp, #28
 3301              		.cfi_def_cfa_offset 32
 3302              		.loc 1 605 25 is_stmt 0 view .LVU953
 3303 0006 1B68     		ldr	r3, [r3]
 3304 0008 0593     		str	r3, [sp, #20]
 3305 000a 4FF00003 		mov	r3,#0
 3306              		.loc 1 607 2 is_stmt 1 view .LVU954
ARM GAS  /tmp/cczbsEFl.s 			page 59


 3307 000e FFF7FEFF 		bl	i2c_start
 3308              	.LVL415:
 3309              		.loc 1 610 5 view .LVU955
 3310              		.loc 1 623 5 view .LVU956
 3311 0012 1049     		ldr	r1, .L146+4
 3312 0014 1048     		ldr	r0, .L146+8
 3313 0016 FFF7FEFF 		bl	pwmStart
 3314              	.LVL416:
 3315              		.loc 1 625 5 view .LVU957
 3316 001a 0F48     		ldr	r0, .L146+8
 3317 001c 0122     		movs	r2, #1
 3318 001e 0021     		movs	r1, #0
 3319 0020 FFF7FEFF 		bl	pwmEnableChannel
 3320              	.LVL417:
 3321              		.loc 1 628 2 view .LVU958
 3322 0024 2023     		movs	r3, #32
 3323 0026 7822     		movs	r2, #120
 3324 0028 CDE90133 		strd	r3, r3, [sp, #4]
 3325 002c 0092     		str	r2, [sp]
 3326 002e A023     		movs	r3, #160
 3327 0030 B422     		movs	r2, #180
 3328 0032 F021     		movs	r1, #240
 3329 0034 0220     		movs	r0, #2
 3330 0036 FFF7FEFF 		bl	po8030_advanced_config
 3331              	.LVL418:
 3332              		.loc 1 629 1 is_stmt 0 view .LVU959
 3333 003a 054B     		ldr	r3, .L146
 3334 003c 1A68     		ldr	r2, [r3]
 3335 003e 059B     		ldr	r3, [sp, #20]
 3336 0040 5A40     		eors	r2, r3, r2
 3337 0042 02D1     		bne	.L145
 3338 0044 07B0     		add	sp, sp, #28
 3339              		.cfi_remember_state
 3340              		.cfi_def_cfa_offset 4
 3341              		@ sp needed
 3342 0046 5DF804FB 		ldr	pc, [sp], #4
 3343              	.L145:
 3344              		.cfi_restore_state
 3345 004a FFF7FEFF 		bl	__stack_chk_fail
 3346              	.LVL419:
 3347              	.L147:
 3348 004e 00BF     		.align	2
 3349              	.L146:
 3350 0050 00000000 		.word	.LC10
 3351 0054 00000000 		.word	.LANCHOR1
 3352 0058 00000000 		.word	PWMD5
 3353              		.cfi_endproc
 3354              	.LFE265:
 3355              		.size	po8030_start, .-po8030_start
 3356              		.section	.rodata.po8030_set_brightness.cst4,"aM",%progbits,4
 3357              		.align	2
 3358              	.LC11:
 3359 0000 00000000 		.word	__stack_chk_guard
 3360              		.section	.text.po8030_set_brightness,"ax",%progbits
 3361              		.align	1
 3362              		.p2align 4,,15
 3363              		.global	po8030_set_brightness
ARM GAS  /tmp/cczbsEFl.s 			page 60


 3364              		.syntax unified
 3365              		.thumb
 3366              		.thumb_func
 3367              		.fpu fpv4-sp-d16
 3368              		.type	po8030_set_brightness, %function
 3369              	po8030_set_brightness:
 3370              	.LVL420:
 3371              	.LFB268:
 3372              		.loc 1 887 45 is_stmt 1 view -0
 3373              		.cfi_startproc
 3374              		@ args = 0, pretend = 0, frame = 8
 3375              		@ frame_needed = 0, uses_anonymous_args = 0
 3376              		.loc 1 887 45 is_stmt 0 view .LVU961
 3377 0000 10B5     		push	{r4, lr}
 3378              		.cfi_def_cfa_offset 8
 3379              		.cfi_offset 4, -8
 3380              		.cfi_offset 14, -4
 3381 0002 114B     		ldr	r3, .L155
 3382 0004 82B0     		sub	sp, sp, #8
 3383              		.cfi_def_cfa_offset 16
 3384              		.loc 1 887 45 view .LVU962
 3385 0006 0446     		mov	r4, r0
 3386              	.LBB164:
 3387              	.LBB165:
 3388              		.loc 1 119 12 view .LVU963
 3389 0008 0122     		movs	r2, #1
 3390 000a 0321     		movs	r1, #3
 3391 000c 6E20     		movs	r0, #110
 3392              	.LVL421:
 3393              		.loc 1 119 12 view .LVU964
 3394              	.LBE165:
 3395              	.LBE164:
 3396              		.loc 1 887 45 view .LVU965
 3397 000e 1B68     		ldr	r3, [r3]
 3398 0010 0193     		str	r3, [sp, #4]
 3399 0012 4FF00003 		mov	r3,#0
 3400              		.loc 1 888 5 is_stmt 1 view .LVU966
 3401              	.LVL422:
 3402              		.loc 1 889 5 view .LVU967
 3403              	.LBB167:
 3404              	.LBI164:
 3405              		.loc 1 118 8 view .LVU968
 3406              	.LBB166:
 3407              		.loc 1 119 5 view .LVU969
 3408              		.loc 1 119 12 is_stmt 0 view .LVU970
 3409 0016 FFF7FEFF 		bl	write_reg
 3410              	.LVL423:
 3411              		.loc 1 119 12 view .LVU971
 3412              	.LBE166:
 3413              	.LBE167:
 3414              		.loc 1 893 1 view .LVU972
 3415 001a 0B4B     		ldr	r3, .L155
 3416              		.loc 1 889 7 view .LVU973
 3417 001c 28B1     		cbz	r0, .L154
 3418              		.loc 1 893 1 view .LVU974
 3419 001e 1A68     		ldr	r2, [r3]
 3420 0020 019B     		ldr	r3, [sp, #4]
ARM GAS  /tmp/cczbsEFl.s 			page 61


 3421 0022 5A40     		eors	r2, r3, r2
 3422 0024 0DD1     		bne	.L153
 3423 0026 02B0     		add	sp, sp, #8
 3424              		.cfi_remember_state
 3425              		.cfi_def_cfa_offset 8
 3426              		@ sp needed
 3427 0028 10BD     		pop	{r4, pc}
 3428              	.L154:
 3429              		.cfi_restore_state
 3430              		.loc 1 892 5 is_stmt 1 view .LVU975
 3431              		.loc 1 892 12 is_stmt 0 view .LVU976
 3432 002a 1A68     		ldr	r2, [r3]
 3433 002c 019B     		ldr	r3, [sp, #4]
 3434 002e 5A40     		eors	r2, r3, r2
 3435 0030 07D1     		bne	.L153
 3436 0032 2246     		mov	r2, r4
 3437 0034 9E21     		movs	r1, #158
 3438 0036 6E20     		movs	r0, #110
 3439              	.LVL424:
 3440              		.loc 1 893 1 view .LVU977
 3441 0038 02B0     		add	sp, sp, #8
 3442              		.cfi_remember_state
 3443              		.cfi_def_cfa_offset 8
 3444              		@ sp needed
 3445 003a BDE81040 		pop	{r4, lr}
 3446              		.cfi_restore 14
 3447              		.cfi_restore 4
 3448              		.cfi_def_cfa_offset 0
 3449              		.loc 1 892 12 view .LVU978
 3450 003e FFF7FEBF 		b	write_reg
 3451              	.LVL425:
 3452              	.L153:
 3453              		.cfi_restore_state
 3454              		.loc 1 893 1 view .LVU979
 3455 0042 FFF7FEFF 		bl	__stack_chk_fail
 3456              	.LVL426:
 3457              	.L156:
 3458              		.loc 1 893 1 view .LVU980
 3459 0046 00BF     		.align	2
 3460              	.L155:
 3461 0048 00000000 		.word	.LC11
 3462              		.cfi_endproc
 3463              	.LFE268:
 3464              		.size	po8030_set_brightness, .-po8030_set_brightness
 3465              		.section	.rodata.po8030_set_contrast.cst4,"aM",%progbits,4
 3466              		.align	2
 3467              	.LC12:
 3468 0000 00000000 		.word	__stack_chk_guard
 3469              		.section	.text.po8030_set_contrast,"ax",%progbits
 3470              		.align	1
 3471              		.p2align 4,,15
 3472              		.global	po8030_set_contrast
 3473              		.syntax unified
 3474              		.thumb
 3475              		.thumb_func
 3476              		.fpu fpv4-sp-d16
 3477              		.type	po8030_set_contrast, %function
ARM GAS  /tmp/cczbsEFl.s 			page 62


 3478              	po8030_set_contrast:
 3479              	.LVL427:
 3480              	.LFB269:
 3481              		.loc 1 898 43 is_stmt 1 view -0
 3482              		.cfi_startproc
 3483              		@ args = 0, pretend = 0, frame = 8
 3484              		@ frame_needed = 0, uses_anonymous_args = 0
 3485              		.loc 1 898 43 is_stmt 0 view .LVU982
 3486 0000 10B5     		push	{r4, lr}
 3487              		.cfi_def_cfa_offset 8
 3488              		.cfi_offset 4, -8
 3489              		.cfi_offset 14, -4
 3490 0002 114B     		ldr	r3, .L164
 3491 0004 82B0     		sub	sp, sp, #8
 3492              		.cfi_def_cfa_offset 16
 3493              		.loc 1 898 43 view .LVU983
 3494 0006 0446     		mov	r4, r0
 3495              	.LBB168:
 3496              	.LBB169:
 3497              		.loc 1 119 12 view .LVU984
 3498 0008 0122     		movs	r2, #1
 3499 000a 0321     		movs	r1, #3
 3500 000c 6E20     		movs	r0, #110
 3501              	.LVL428:
 3502              		.loc 1 119 12 view .LVU985
 3503              	.LBE169:
 3504              	.LBE168:
 3505              		.loc 1 898 43 view .LVU986
 3506 000e 1B68     		ldr	r3, [r3]
 3507 0010 0193     		str	r3, [sp, #4]
 3508 0012 4FF00003 		mov	r3,#0
 3509              		.loc 1 899 5 is_stmt 1 view .LVU987
 3510              	.LVL429:
 3511              		.loc 1 900 5 view .LVU988
 3512              	.LBB171:
 3513              	.LBI168:
 3514              		.loc 1 118 8 view .LVU989
 3515              	.LBB170:
 3516              		.loc 1 119 5 view .LVU990
 3517              		.loc 1 119 12 is_stmt 0 view .LVU991
 3518 0016 FFF7FEFF 		bl	write_reg
 3519              	.LVL430:
 3520              		.loc 1 119 12 view .LVU992
 3521              	.LBE170:
 3522              	.LBE171:
 3523              		.loc 1 904 1 view .LVU993
 3524 001a 0B4B     		ldr	r3, .L164
 3525              		.loc 1 900 7 view .LVU994
 3526 001c 28B1     		cbz	r0, .L163
 3527              		.loc 1 904 1 view .LVU995
 3528 001e 1A68     		ldr	r2, [r3]
 3529 0020 019B     		ldr	r3, [sp, #4]
 3530 0022 5A40     		eors	r2, r3, r2
 3531 0024 0DD1     		bne	.L162
 3532 0026 02B0     		add	sp, sp, #8
 3533              		.cfi_remember_state
 3534              		.cfi_def_cfa_offset 8
ARM GAS  /tmp/cczbsEFl.s 			page 63


 3535              		@ sp needed
 3536 0028 10BD     		pop	{r4, pc}
 3537              	.L163:
 3538              		.cfi_restore_state
 3539              		.loc 1 903 5 is_stmt 1 view .LVU996
 3540              		.loc 1 903 12 is_stmt 0 view .LVU997
 3541 002a 1A68     		ldr	r2, [r3]
 3542 002c 019B     		ldr	r3, [sp, #4]
 3543 002e 5A40     		eors	r2, r3, r2
 3544 0030 07D1     		bne	.L162
 3545 0032 2246     		mov	r2, r4
 3546 0034 9D21     		movs	r1, #157
 3547 0036 6E20     		movs	r0, #110
 3548              	.LVL431:
 3549              		.loc 1 904 1 view .LVU998
 3550 0038 02B0     		add	sp, sp, #8
 3551              		.cfi_remember_state
 3552              		.cfi_def_cfa_offset 8
 3553              		@ sp needed
 3554 003a BDE81040 		pop	{r4, lr}
 3555              		.cfi_restore 14
 3556              		.cfi_restore 4
 3557              		.cfi_def_cfa_offset 0
 3558              		.loc 1 903 12 view .LVU999
 3559 003e FFF7FEBF 		b	write_reg
 3560              	.LVL432:
 3561              	.L162:
 3562              		.cfi_restore_state
 3563              		.loc 1 904 1 view .LVU1000
 3564 0042 FFF7FEFF 		bl	__stack_chk_fail
 3565              	.LVL433:
 3566              	.L165:
 3567              		.loc 1 904 1 view .LVU1001
 3568 0046 00BF     		.align	2
 3569              	.L164:
 3570 0048 00000000 		.word	.LC12
 3571              		.cfi_endproc
 3572              	.LFE269:
 3573              		.size	po8030_set_contrast, .-po8030_set_contrast
 3574              		.section	.rodata.po8030_set_mirror.cst4,"aM",%progbits,4
 3575              		.align	2
 3576              	.LC13:
 3577 0000 00000000 		.word	__stack_chk_guard
 3578              		.section	.text.po8030_set_mirror,"ax",%progbits
 3579              		.align	1
 3580              		.p2align 4,,15
 3581              		.global	po8030_set_mirror
 3582              		.syntax unified
 3583              		.thumb
 3584              		.thumb_func
 3585              		.fpu fpv4-sp-d16
 3586              		.type	po8030_set_mirror, %function
 3587              	po8030_set_mirror:
 3588              	.LVL434:
 3589              	.LFB270:
 3590              		.loc 1 910 64 is_stmt 1 view -0
 3591              		.cfi_startproc
ARM GAS  /tmp/cczbsEFl.s 			page 64


 3592              		@ args = 0, pretend = 0, frame = 8
 3593              		@ frame_needed = 0, uses_anonymous_args = 0
 3594              		.loc 1 910 64 is_stmt 0 view .LVU1003
 3595 0000 30B5     		push	{r4, r5, lr}
 3596              		.cfi_def_cfa_offset 12
 3597              		.cfi_offset 4, -12
 3598              		.cfi_offset 5, -8
 3599              		.cfi_offset 14, -4
 3600 0002 0B46     		mov	r3, r1
 3601 0004 1C46     		mov	r4, r3
 3602 0006 154B     		ldr	r3, .L175
 3603 0008 83B0     		sub	sp, sp, #12
 3604              		.cfi_def_cfa_offset 24
 3605              		.loc 1 910 64 view .LVU1004
 3606 000a 0546     		mov	r5, r0
 3607              	.LBB172:
 3608              	.LBB173:
 3609              		.loc 1 119 12 view .LVU1005
 3610 000c 0022     		movs	r2, #0
 3611 000e 0321     		movs	r1, #3
 3612              	.LVL435:
 3613              		.loc 1 119 12 view .LVU1006
 3614 0010 6E20     		movs	r0, #110
 3615              	.LVL436:
 3616              		.loc 1 119 12 view .LVU1007
 3617              	.LBE173:
 3618              	.LBE172:
 3619              		.loc 1 910 64 view .LVU1008
 3620 0012 1B68     		ldr	r3, [r3]
 3621 0014 0193     		str	r3, [sp, #4]
 3622 0016 4FF00003 		mov	r3,#0
 3623              		.loc 1 911 5 is_stmt 1 view .LVU1009
 3624              	.LVL437:
 3625              		.loc 1 912 5 view .LVU1010
 3626              		.loc 1 914 5 view .LVU1011
 3627              	.LBB175:
 3628              	.LBI172:
 3629              		.loc 1 118 8 view .LVU1012
 3630              	.LBB174:
 3631              		.loc 1 119 5 view .LVU1013
 3632              		.loc 1 119 12 is_stmt 0 view .LVU1014
 3633 001a FFF7FEFF 		bl	write_reg
 3634              	.LVL438:
 3635              		.loc 1 119 12 view .LVU1015
 3636              	.LBE174:
 3637              	.LBE175:
 3638              		.loc 1 914 7 view .LVU1016
 3639 001e 98B9     		cbnz	r0, .L167
 3640              		.loc 1 918 5 is_stmt 1 view .LVU1017
 3641              		.loc 1 918 7 is_stmt 0 view .LVU1018
 3642 0020 012D     		cmp	r5, #1
 3643              		.loc 1 925 12 view .LVU1019
 3644 0022 0E4B     		ldr	r3, .L175
 3645              		.loc 1 919 15 view .LVU1020
 3646 0024 0CBF     		ite	eq
 3647 0026 8022     		moveq	r2, #128
 3648 0028 0022     		movne	r2, #0
ARM GAS  /tmp/cczbsEFl.s 			page 65


 3649              	.LVL439:
 3650              		.loc 1 921 5 is_stmt 1 view .LVU1021
 3651              		.loc 1 922 9 view .LVU1022
 3652              		.loc 1 921 7 is_stmt 0 view .LVU1023
 3653 002a 012C     		cmp	r4, #1
 3654              		.loc 1 922 15 view .LVU1024
 3655 002c 08BF     		it	eq
 3656 002e 42F04002 		orreq	r2, r2, #64
 3657              	.LVL440:
 3658              		.loc 1 925 5 is_stmt 1 view .LVU1025
 3659              		.loc 1 925 12 is_stmt 0 view .LVU1026
 3660 0032 1968     		ldr	r1, [r3]
 3661 0034 019B     		ldr	r3, [sp, #4]
 3662 0036 5940     		eors	r1, r3, r1
 3663 0038 0DD1     		bne	.L174
 3664 003a 6C21     		movs	r1, #108
 3665 003c 6E20     		movs	r0, #110
 3666              	.LVL441:
 3667              		.loc 1 926 1 view .LVU1027
 3668 003e 03B0     		add	sp, sp, #12
 3669              		.cfi_remember_state
 3670              		.cfi_def_cfa_offset 12
 3671              		@ sp needed
 3672 0040 BDE83040 		pop	{r4, r5, lr}
 3673              		.cfi_restore 14
 3674              		.cfi_restore 5
 3675              		.cfi_restore 4
 3676              		.cfi_def_cfa_offset 0
 3677              		.loc 1 925 12 view .LVU1028
 3678 0044 FFF7FEBF 		b	write_reg
 3679              	.LVL442:
 3680              	.L167:
 3681              		.cfi_restore_state
 3682              		.loc 1 926 1 view .LVU1029
 3683 0048 044B     		ldr	r3, .L175
 3684 004a 1A68     		ldr	r2, [r3]
 3685 004c 019B     		ldr	r3, [sp, #4]
 3686 004e 5A40     		eors	r2, r3, r2
 3687 0050 01D1     		bne	.L174
 3688 0052 03B0     		add	sp, sp, #12
 3689              		.cfi_remember_state
 3690              		.cfi_def_cfa_offset 12
 3691              		@ sp needed
 3692 0054 30BD     		pop	{r4, r5, pc}
 3693              	.LVL443:
 3694              	.L174:
 3695              		.cfi_restore_state
 3696              		.loc 1 926 1 view .LVU1030
 3697 0056 FFF7FEFF 		bl	__stack_chk_fail
 3698              	.LVL444:
 3699              	.L176:
 3700              		.loc 1 926 1 view .LVU1031
 3701 005a 00BF     		.align	2
 3702              	.L175:
 3703 005c 00000000 		.word	.LC13
 3704              		.cfi_endproc
 3705              	.LFE270:
ARM GAS  /tmp/cczbsEFl.s 			page 66


 3706              		.size	po8030_set_mirror, .-po8030_set_mirror
 3707              		.section	.rodata.po8030_set_awb.cst4,"aM",%progbits,4
 3708              		.align	2
 3709              	.LC14:
 3710 0000 00000000 		.word	__stack_chk_guard
 3711              		.section	.text.po8030_set_awb,"ax",%progbits
 3712              		.align	1
 3713              		.p2align 4,,15
 3714              		.global	po8030_set_awb
 3715              		.syntax unified
 3716              		.thumb
 3717              		.thumb_func
 3718              		.fpu fpv4-sp-d16
 3719              		.type	po8030_set_awb, %function
 3720              	po8030_set_awb:
 3721              	.LVL445:
 3722              	.LFB271:
 3723              		.loc 1 931 36 is_stmt 1 view -0
 3724              		.cfi_startproc
 3725              		@ args = 0, pretend = 0, frame = 8
 3726              		@ frame_needed = 0, uses_anonymous_args = 0
 3727              		.loc 1 931 36 is_stmt 0 view .LVU1033
 3728 0000 30B5     		push	{r4, r5, lr}
 3729              		.cfi_def_cfa_offset 12
 3730              		.cfi_offset 4, -12
 3731              		.cfi_offset 5, -8
 3732              		.cfi_offset 14, -4
 3733 0002 184B     		ldr	r3, .L185
 3734 0004 83B0     		sub	sp, sp, #12
 3735              		.cfi_def_cfa_offset 24
 3736              		.loc 1 931 36 view .LVU1034
 3737 0006 0446     		mov	r4, r0
 3738              		.loc 1 933 13 view .LVU1035
 3739 0008 0025     		movs	r5, #0
 3740              	.LBB176:
 3741              	.LBB177:
 3742              		.loc 1 119 12 view .LVU1036
 3743 000a 0222     		movs	r2, #2
 3744 000c 0321     		movs	r1, #3
 3745 000e 6E20     		movs	r0, #110
 3746              	.LVL446:
 3747              		.loc 1 119 12 view .LVU1037
 3748              	.LBE177:
 3749              	.LBE176:
 3750              		.loc 1 931 36 view .LVU1038
 3751 0010 1B68     		ldr	r3, [r3]
 3752 0012 0193     		str	r3, [sp, #4]
 3753 0014 4FF00003 		mov	r3,#0
 3754              		.loc 1 932 5 is_stmt 1 view .LVU1039
 3755              	.LVL447:
 3756              		.loc 1 933 5 view .LVU1040
 3757              		.loc 1 933 13 is_stmt 0 view .LVU1041
 3758 0018 8DF80350 		strb	r5, [sp, #3]
 3759              		.loc 1 935 5 is_stmt 1 view .LVU1042
 3760              	.LVL448:
 3761              	.LBB179:
 3762              	.LBI176:
ARM GAS  /tmp/cczbsEFl.s 			page 67


 3763              		.loc 1 118 8 view .LVU1043
 3764              	.LBB178:
 3765              		.loc 1 119 5 view .LVU1044
 3766              		.loc 1 119 12 is_stmt 0 view .LVU1045
 3767 001c FFF7FEFF 		bl	write_reg
 3768              	.LVL449:
 3769              		.loc 1 119 12 view .LVU1046
 3770              	.LBE178:
 3771              	.LBE179:
 3772              		.loc 1 935 7 view .LVU1047
 3773 0020 30B1     		cbz	r0, .L183
 3774              	.LVL450:
 3775              	.L178:
 3776              		.loc 1 950 1 view .LVU1048
 3777 0022 104B     		ldr	r3, .L185
 3778 0024 1A68     		ldr	r2, [r3]
 3779 0026 019B     		ldr	r3, [sp, #4]
 3780 0028 5A40     		eors	r2, r3, r2
 3781 002a 18D1     		bne	.L184
 3782 002c 03B0     		add	sp, sp, #12
 3783              		.cfi_remember_state
 3784              		.cfi_def_cfa_offset 12
 3785              		@ sp needed
 3786 002e 30BD     		pop	{r4, r5, pc}
 3787              	.LVL451:
 3788              	.L183:
 3789              		.cfi_restore_state
 3790              		.loc 1 939 5 is_stmt 1 view .LVU1049
 3791              		.loc 1 939 15 is_stmt 0 view .LVU1050
 3792 0030 0DF10302 		add	r2, sp, #3
 3793 0034 0421     		movs	r1, #4
 3794 0036 6E20     		movs	r0, #110
 3795              	.LVL452:
 3796              		.loc 1 939 15 view .LVU1051
 3797 0038 FFF7FEFF 		bl	read_reg
 3798              	.LVL453:
 3799              		.loc 1 939 7 view .LVU1052
 3800 003c 0028     		cmp	r0, #0
 3801 003e F0D1     		bne	.L178
 3802              		.loc 1 943 5 is_stmt 1 view .LVU1053
 3803              		.loc 1 944 9 view .LVU1054
 3804              		.loc 1 946 9 view .LVU1055
 3805              		.loc 1 944 15 is_stmt 0 view .LVU1056
 3806 0040 9DF80320 		ldrb	r2, [sp, #3]	@ zero_extendqisi2
 3807              		.loc 1 943 7 view .LVU1057
 3808 0044 012C     		cmp	r4, #1
 3809              		.loc 1 944 15 view .LVU1058
 3810 0046 0CBF     		ite	eq
 3811 0048 02F0FB02 		andeq	r2, r2, #251
 3812              		.loc 1 946 15 view .LVU1059
 3813 004c 42F00402 		orrne	r2, r2, #4
 3814              		.loc 1 949 12 view .LVU1060
 3815 0050 0421     		movs	r1, #4
 3816 0052 6E20     		movs	r0, #110
 3817              	.LVL454:
 3818              		.loc 1 949 12 view .LVU1061
 3819 0054 8DF80320 		strb	r2, [sp, #3]
ARM GAS  /tmp/cczbsEFl.s 			page 68


 3820              		.loc 1 949 5 is_stmt 1 view .LVU1062
 3821              		.loc 1 949 12 is_stmt 0 view .LVU1063
 3822 0058 FFF7FEFF 		bl	write_reg
 3823              	.LVL455:
 3824 005c E1E7     		b	.L178
 3825              	.L184:
 3826              		.loc 1 950 1 view .LVU1064
 3827 005e FFF7FEFF 		bl	__stack_chk_fail
 3828              	.LVL456:
 3829              	.L186:
 3830 0062 00BF     		.align	2
 3831              	.L185:
 3832 0064 00000000 		.word	.LC14
 3833              		.cfi_endproc
 3834              	.LFE271:
 3835              		.size	po8030_set_awb, .-po8030_set_awb
 3836              		.section	.rodata.po8030_set_rgb_gain.cst4,"aM",%progbits,4
 3837              		.align	2
 3838              	.LC15:
 3839 0000 00000000 		.word	__stack_chk_guard
 3840              		.section	.text.po8030_set_rgb_gain,"ax",%progbits
 3841              		.align	1
 3842              		.p2align 4,,15
 3843              		.global	po8030_set_rgb_gain
 3844              		.syntax unified
 3845              		.thumb
 3846              		.thumb_func
 3847              		.fpu fpv4-sp-d16
 3848              		.type	po8030_set_rgb_gain, %function
 3849              	po8030_set_rgb_gain:
 3850              	.LVL457:
 3851              	.LFB272:
 3852              		.loc 1 958 61 is_stmt 1 view -0
 3853              		.cfi_startproc
 3854              		@ args = 0, pretend = 0, frame = 8
 3855              		@ frame_needed = 0, uses_anonymous_args = 0
 3856              		.loc 1 958 61 is_stmt 0 view .LVU1066
 3857 0000 70B5     		push	{r4, r5, r6, lr}
 3858              		.cfi_def_cfa_offset 16
 3859              		.cfi_offset 4, -16
 3860              		.cfi_offset 5, -12
 3861              		.cfi_offset 6, -8
 3862              		.cfi_offset 14, -4
 3863 0002 1C4B     		ldr	r3, .L194
 3864 0004 82B0     		sub	sp, sp, #8
 3865              		.cfi_def_cfa_offset 24
 3866              		.loc 1 958 61 view .LVU1067
 3867 0006 0446     		mov	r4, r0
 3868              		.loc 1 961 15 view .LVU1068
 3869 0008 0020     		movs	r0, #0
 3870              	.LVL458:
 3871              		.loc 1 958 61 view .LVU1069
 3872 000a 0D46     		mov	r5, r1
 3873 000c 1646     		mov	r6, r2
 3874 000e 1B68     		ldr	r3, [r3]
 3875 0010 0193     		str	r3, [sp, #4]
 3876 0012 4FF00003 		mov	r3,#0
ARM GAS  /tmp/cczbsEFl.s 			page 69


 3877              		.loc 1 959 5 is_stmt 1 view .LVU1070
 3878              	.LVL459:
 3879              		.loc 1 961 5 view .LVU1071
 3880              		.loc 1 961 15 is_stmt 0 view .LVU1072
 3881 0016 FFF7FEFF 		bl	po8030_set_awb
 3882              	.LVL460:
 3883              		.loc 1 961 7 view .LVU1073
 3884 001a 30B1     		cbz	r0, .L193
 3885              	.L188:
 3886              		.loc 1 980 1 view .LVU1074
 3887 001c 154B     		ldr	r3, .L194
 3888 001e 1A68     		ldr	r2, [r3]
 3889 0020 019B     		ldr	r3, [sp, #4]
 3890 0022 5A40     		eors	r2, r3, r2
 3891 0024 23D1     		bne	.L192
 3892 0026 02B0     		add	sp, sp, #8
 3893              		.cfi_remember_state
 3894              		.cfi_def_cfa_offset 16
 3895              		@ sp needed
 3896 0028 70BD     		pop	{r4, r5, r6, pc}
 3897              	.L193:
 3898              		.cfi_restore_state
 3899              		.loc 1 965 5 is_stmt 1 view .LVU1075
 3900              	.LVL461:
 3901              	.LBB180:
 3902              	.LBI180:
 3903              		.loc 1 118 8 view .LVU1076
 3904              	.LBB181:
 3905              		.loc 1 119 5 view .LVU1077
 3906              		.loc 1 119 12 is_stmt 0 view .LVU1078
 3907 002a 0246     		mov	r2, r0
 3908 002c 0321     		movs	r1, #3
 3909 002e 6E20     		movs	r0, #110
 3910              	.LVL462:
 3911              		.loc 1 119 12 view .LVU1079
 3912 0030 FFF7FEFF 		bl	write_reg
 3913              	.LVL463:
 3914              		.loc 1 119 12 view .LVU1080
 3915              	.LBE181:
 3916              	.LBE180:
 3917              		.loc 1 965 7 view .LVU1081
 3918 0034 0028     		cmp	r0, #0
 3919 0036 F1D1     		bne	.L188
 3920              		.loc 1 969 5 is_stmt 1 view .LVU1082
 3921              		.loc 1 969 15 is_stmt 0 view .LVU1083
 3922 0038 2246     		mov	r2, r4
 3923 003a 2321     		movs	r1, #35
 3924 003c 6E20     		movs	r0, #110
 3925              	.LVL464:
 3926              		.loc 1 969 15 view .LVU1084
 3927 003e FFF7FEFF 		bl	write_reg
 3928              	.LVL465:
 3929              		.loc 1 969 7 view .LVU1085
 3930 0042 0028     		cmp	r0, #0
 3931 0044 EAD1     		bne	.L188
 3932              		.loc 1 972 5 is_stmt 1 view .LVU1086
 3933              		.loc 1 972 15 is_stmt 0 view .LVU1087
ARM GAS  /tmp/cczbsEFl.s 			page 70


 3934 0046 2A46     		mov	r2, r5
 3935 0048 2421     		movs	r1, #36
 3936 004a 6E20     		movs	r0, #110
 3937              	.LVL466:
 3938              		.loc 1 972 15 view .LVU1088
 3939 004c FFF7FEFF 		bl	write_reg
 3940              	.LVL467:
 3941              		.loc 1 972 7 view .LVU1089
 3942 0050 0028     		cmp	r0, #0
 3943 0052 E3D1     		bne	.L188
 3944              		.loc 1 975 5 is_stmt 1 view .LVU1090
 3945              		.loc 1 975 15 is_stmt 0 view .LVU1091
 3946 0054 074B     		ldr	r3, .L194
 3947 0056 1A68     		ldr	r2, [r3]
 3948 0058 019B     		ldr	r3, [sp, #4]
 3949 005a 5A40     		eors	r2, r3, r2
 3950 005c 07D1     		bne	.L192
 3951 005e 3246     		mov	r2, r6
 3952 0060 2521     		movs	r1, #37
 3953 0062 6E20     		movs	r0, #110
 3954              	.LVL468:
 3955              		.loc 1 980 1 view .LVU1092
 3956 0064 02B0     		add	sp, sp, #8
 3957              		.cfi_remember_state
 3958              		.cfi_def_cfa_offset 16
 3959              		@ sp needed
 3960 0066 BDE87040 		pop	{r4, r5, r6, lr}
 3961              		.cfi_restore 14
 3962              		.cfi_restore 6
 3963              		.cfi_restore 5
 3964              		.cfi_restore 4
 3965              		.cfi_def_cfa_offset 0
 3966              		.loc 1 975 15 view .LVU1093
 3967 006a FFF7FEBF 		b	write_reg
 3968              	.LVL469:
 3969              	.L192:
 3970              		.cfi_restore_state
 3971              		.loc 1 980 1 view .LVU1094
 3972 006e FFF7FEFF 		bl	__stack_chk_fail
 3973              	.LVL470:
 3974              	.L195:
 3975              		.loc 1 980 1 view .LVU1095
 3976 0072 00BF     		.align	2
 3977              	.L194:
 3978 0074 00000000 		.word	.LC15
 3979              		.cfi_endproc
 3980              	.LFE272:
 3981              		.size	po8030_set_rgb_gain, .-po8030_set_rgb_gain
 3982              		.section	.rodata.po8030_set_ae.cst4,"aM",%progbits,4
 3983              		.align	2
 3984              	.LC16:
 3985 0000 00000000 		.word	__stack_chk_guard
 3986              		.section	.text.po8030_set_ae,"ax",%progbits
 3987              		.align	1
 3988              		.p2align 4,,15
 3989              		.global	po8030_set_ae
 3990              		.syntax unified
ARM GAS  /tmp/cczbsEFl.s 			page 71


 3991              		.thumb
 3992              		.thumb_func
 3993              		.fpu fpv4-sp-d16
 3994              		.type	po8030_set_ae, %function
 3995              	po8030_set_ae:
 3996              	.LVL471:
 3997              	.LFB273:
 3998              		.loc 1 985 34 is_stmt 1 view -0
 3999              		.cfi_startproc
 4000              		@ args = 0, pretend = 0, frame = 8
 4001              		@ frame_needed = 0, uses_anonymous_args = 0
 4002              		.loc 1 985 34 is_stmt 0 view .LVU1097
 4003 0000 30B5     		push	{r4, r5, lr}
 4004              		.cfi_def_cfa_offset 12
 4005              		.cfi_offset 4, -12
 4006              		.cfi_offset 5, -8
 4007              		.cfi_offset 14, -4
 4008 0002 184B     		ldr	r3, .L204
 4009 0004 83B0     		sub	sp, sp, #12
 4010              		.cfi_def_cfa_offset 24
 4011              		.loc 1 985 34 view .LVU1098
 4012 0006 0446     		mov	r4, r0
 4013              		.loc 1 987 13 view .LVU1099
 4014 0008 0025     		movs	r5, #0
 4015              	.LBB182:
 4016              	.LBB183:
 4017              		.loc 1 119 12 view .LVU1100
 4018 000a 0222     		movs	r2, #2
 4019 000c 0321     		movs	r1, #3
 4020 000e 6E20     		movs	r0, #110
 4021              	.LVL472:
 4022              		.loc 1 119 12 view .LVU1101
 4023              	.LBE183:
 4024              	.LBE182:
 4025              		.loc 1 985 34 view .LVU1102
 4026 0010 1B68     		ldr	r3, [r3]
 4027 0012 0193     		str	r3, [sp, #4]
 4028 0014 4FF00003 		mov	r3,#0
 4029              		.loc 1 986 5 is_stmt 1 view .LVU1103
 4030              	.LVL473:
 4031              		.loc 1 987 5 view .LVU1104
 4032              		.loc 1 987 13 is_stmt 0 view .LVU1105
 4033 0018 8DF80350 		strb	r5, [sp, #3]
 4034              		.loc 1 989 5 is_stmt 1 view .LVU1106
 4035              	.LVL474:
 4036              	.LBB185:
 4037              	.LBI182:
 4038              		.loc 1 118 8 view .LVU1107
 4039              	.LBB184:
 4040              		.loc 1 119 5 view .LVU1108
 4041              		.loc 1 119 12 is_stmt 0 view .LVU1109
 4042 001c FFF7FEFF 		bl	write_reg
 4043              	.LVL475:
 4044              		.loc 1 119 12 view .LVU1110
 4045              	.LBE184:
 4046              	.LBE185:
 4047              		.loc 1 989 7 view .LVU1111
ARM GAS  /tmp/cczbsEFl.s 			page 72


 4048 0020 30B1     		cbz	r0, .L202
 4049              	.LVL476:
 4050              	.L197:
 4051              		.loc 1 1004 1 view .LVU1112
 4052 0022 104B     		ldr	r3, .L204
 4053 0024 1A68     		ldr	r2, [r3]
 4054 0026 019B     		ldr	r3, [sp, #4]
 4055 0028 5A40     		eors	r2, r3, r2
 4056 002a 18D1     		bne	.L203
 4057 002c 03B0     		add	sp, sp, #12
 4058              		.cfi_remember_state
 4059              		.cfi_def_cfa_offset 12
 4060              		@ sp needed
 4061 002e 30BD     		pop	{r4, r5, pc}
 4062              	.LVL477:
 4063              	.L202:
 4064              		.cfi_restore_state
 4065              		.loc 1 993 5 is_stmt 1 view .LVU1113
 4066              		.loc 1 993 15 is_stmt 0 view .LVU1114
 4067 0030 0DF10302 		add	r2, sp, #3
 4068 0034 0421     		movs	r1, #4
 4069 0036 6E20     		movs	r0, #110
 4070              	.LVL478:
 4071              		.loc 1 993 15 view .LVU1115
 4072 0038 FFF7FEFF 		bl	read_reg
 4073              	.LVL479:
 4074              		.loc 1 993 7 view .LVU1116
 4075 003c 0028     		cmp	r0, #0
 4076 003e F0D1     		bne	.L197
 4077              		.loc 1 997 5 is_stmt 1 view .LVU1117
 4078              		.loc 1 998 9 view .LVU1118
 4079              		.loc 1 1000 9 view .LVU1119
 4080              		.loc 1 998 15 is_stmt 0 view .LVU1120
 4081 0040 9DF80320 		ldrb	r2, [sp, #3]	@ zero_extendqisi2
 4082              		.loc 1 997 7 view .LVU1121
 4083 0044 012C     		cmp	r4, #1
 4084              		.loc 1 998 15 view .LVU1122
 4085 0046 0CBF     		ite	eq
 4086 0048 02F0FC02 		andeq	r2, r2, #252
 4087              		.loc 1 1000 15 view .LVU1123
 4088 004c 42F00302 		orrne	r2, r2, #3
 4089              		.loc 1 1003 12 view .LVU1124
 4090 0050 0421     		movs	r1, #4
 4091 0052 6E20     		movs	r0, #110
 4092              	.LVL480:
 4093              		.loc 1 1003 12 view .LVU1125
 4094 0054 8DF80320 		strb	r2, [sp, #3]
 4095              		.loc 1 1003 5 is_stmt 1 view .LVU1126
 4096              		.loc 1 1003 12 is_stmt 0 view .LVU1127
 4097 0058 FFF7FEFF 		bl	write_reg
 4098              	.LVL481:
 4099 005c E1E7     		b	.L197
 4100              	.L203:
 4101              		.loc 1 1004 1 view .LVU1128
 4102 005e FFF7FEFF 		bl	__stack_chk_fail
 4103              	.LVL482:
 4104              	.L205:
ARM GAS  /tmp/cczbsEFl.s 			page 73


 4105 0062 00BF     		.align	2
 4106              	.L204:
 4107 0064 00000000 		.word	.LC16
 4108              		.cfi_endproc
 4109              	.LFE273:
 4110              		.size	po8030_set_ae, .-po8030_set_ae
 4111              		.section	.rodata.po8030_set_exposure.cst4,"aM",%progbits,4
 4112              		.align	2
 4113              	.LC17:
 4114 0000 00000000 		.word	__stack_chk_guard
 4115              		.section	.text.po8030_set_exposure,"ax",%progbits
 4116              		.align	1
 4117              		.p2align 4,,15
 4118              		.global	po8030_set_exposure
 4119              		.syntax unified
 4120              		.thumb
 4121              		.thumb_func
 4122              		.fpu fpv4-sp-d16
 4123              		.type	po8030_set_exposure, %function
 4124              	po8030_set_exposure:
 4125              	.LVL483:
 4126              	.LFB274:
 4127              		.loc 1 1011 67 is_stmt 1 view -0
 4128              		.cfi_startproc
 4129              		@ args = 0, pretend = 0, frame = 8
 4130              		@ frame_needed = 0, uses_anonymous_args = 0
 4131              		.loc 1 1011 67 is_stmt 0 view .LVU1130
 4132 0000 30B5     		push	{r4, r5, lr}
 4133              		.cfi_def_cfa_offset 12
 4134              		.cfi_offset 4, -12
 4135              		.cfi_offset 5, -8
 4136              		.cfi_offset 14, -4
 4137 0002 1B4B     		ldr	r3, .L213
 4138 0004 83B0     		sub	sp, sp, #12
 4139              		.cfi_def_cfa_offset 24
 4140              		.loc 1 1011 67 view .LVU1131
 4141 0006 0446     		mov	r4, r0
 4142              		.loc 1 1014 15 view .LVU1132
 4143 0008 0020     		movs	r0, #0
 4144              	.LVL484:
 4145              		.loc 1 1011 67 view .LVU1133
 4146 000a 0D46     		mov	r5, r1
 4147 000c 1B68     		ldr	r3, [r3]
 4148 000e 0193     		str	r3, [sp, #4]
 4149 0010 4FF00003 		mov	r3,#0
 4150              		.loc 1 1012 5 is_stmt 1 view .LVU1134
 4151              	.LVL485:
 4152              		.loc 1 1014 5 view .LVU1135
 4153              		.loc 1 1014 15 is_stmt 0 view .LVU1136
 4154 0014 FFF7FEFF 		bl	po8030_set_ae
 4155              	.LVL486:
 4156              		.loc 1 1014 7 view .LVU1137
 4157 0018 30B1     		cbz	r0, .L212
 4158              	.L207:
 4159              		.loc 1 1033 1 view .LVU1138
 4160 001a 154B     		ldr	r3, .L213
 4161 001c 1A68     		ldr	r2, [r3]
ARM GAS  /tmp/cczbsEFl.s 			page 74


 4162 001e 019B     		ldr	r3, [sp, #4]
 4163 0020 5A40     		eors	r2, r3, r2
 4164 0022 23D1     		bne	.L211
 4165 0024 03B0     		add	sp, sp, #12
 4166              		.cfi_remember_state
 4167              		.cfi_def_cfa_offset 12
 4168              		@ sp needed
 4169 0026 30BD     		pop	{r4, r5, pc}
 4170              	.L212:
 4171              		.cfi_restore_state
 4172              		.loc 1 1018 5 is_stmt 1 view .LVU1139
 4173              	.LVL487:
 4174              	.LBB186:
 4175              	.LBI186:
 4176              		.loc 1 118 8 view .LVU1140
 4177              	.LBB187:
 4178              		.loc 1 119 5 view .LVU1141
 4179              		.loc 1 119 12 is_stmt 0 view .LVU1142
 4180 0028 0246     		mov	r2, r0
 4181 002a 0321     		movs	r1, #3
 4182 002c 6E20     		movs	r0, #110
 4183              	.LVL488:
 4184              		.loc 1 119 12 view .LVU1143
 4185 002e FFF7FEFF 		bl	write_reg
 4186              	.LVL489:
 4187              		.loc 1 119 12 view .LVU1144
 4188              	.LBE187:
 4189              	.LBE186:
 4190              		.loc 1 1018 7 view .LVU1145
 4191 0032 0028     		cmp	r0, #0
 4192 0034 F1D1     		bne	.L207
 4193              		.loc 1 1022 5 is_stmt 1 view .LVU1146
 4194              		.loc 1 1022 15 is_stmt 0 view .LVU1147
 4195 0036 220A     		lsrs	r2, r4, #8
 4196 0038 1721     		movs	r1, #23
 4197 003a 6E20     		movs	r0, #110
 4198              	.LVL490:
 4199              		.loc 1 1022 15 view .LVU1148
 4200 003c FFF7FEFF 		bl	write_reg
 4201              	.LVL491:
 4202              		.loc 1 1022 7 view .LVU1149
 4203 0040 0028     		cmp	r0, #0
 4204 0042 EAD1     		bne	.L207
 4205              		.loc 1 1025 5 is_stmt 1 view .LVU1150
 4206              		.loc 1 1025 15 is_stmt 0 view .LVU1151
 4207 0044 E2B2     		uxtb	r2, r4
 4208 0046 1821     		movs	r1, #24
 4209 0048 6E20     		movs	r0, #110
 4210              	.LVL492:
 4211              		.loc 1 1025 15 view .LVU1152
 4212 004a FFF7FEFF 		bl	write_reg
 4213              	.LVL493:
 4214              		.loc 1 1025 7 view .LVU1153
 4215 004e 0028     		cmp	r0, #0
 4216 0050 E3D1     		bne	.L207
 4217              		.loc 1 1028 5 is_stmt 1 view .LVU1154
 4218              		.loc 1 1028 15 is_stmt 0 view .LVU1155
ARM GAS  /tmp/cczbsEFl.s 			page 75


 4219 0052 074B     		ldr	r3, .L213
 4220 0054 1A68     		ldr	r2, [r3]
 4221 0056 019B     		ldr	r3, [sp, #4]
 4222 0058 5A40     		eors	r2, r3, r2
 4223 005a 07D1     		bne	.L211
 4224 005c 2A46     		mov	r2, r5
 4225 005e 1921     		movs	r1, #25
 4226 0060 6E20     		movs	r0, #110
 4227              	.LVL494:
 4228              		.loc 1 1033 1 view .LVU1156
 4229 0062 03B0     		add	sp, sp, #12
 4230              		.cfi_remember_state
 4231              		.cfi_def_cfa_offset 12
 4232              		@ sp needed
 4233 0064 BDE83040 		pop	{r4, r5, lr}
 4234              		.cfi_restore 14
 4235              		.cfi_restore 5
 4236              		.cfi_restore 4
 4237              		.cfi_def_cfa_offset 0
 4238              		.loc 1 1028 15 view .LVU1157
 4239 0068 FFF7FEBF 		b	write_reg
 4240              	.LVL495:
 4241              	.L211:
 4242              		.cfi_restore_state
 4243              		.loc 1 1033 1 view .LVU1158
 4244 006c FFF7FEFF 		bl	__stack_chk_fail
 4245              	.LVL496:
 4246              	.L214:
 4247              		.loc 1 1033 1 view .LVU1159
 4248              		.align	2
 4249              	.L213:
 4250 0070 00000000 		.word	.LC17
 4251              		.cfi_endproc
 4252              	.LFE274:
 4253              		.size	po8030_set_exposure, .-po8030_set_exposure
 4254              		.section	.rodata.po8030_get_image_size.cst4,"aM",%progbits,4
 4255              		.align	2
 4256              	.LC18:
 4257 0000 00000000 		.word	__stack_chk_guard
 4258              		.section	.text.po8030_get_image_size,"ax",%progbits
 4259              		.align	1
 4260              		.p2align 4,,15
 4261              		.global	po8030_get_image_size
 4262              		.syntax unified
 4263              		.thumb
 4264              		.thumb_func
 4265              		.fpu fpv4-sp-d16
 4266              		.type	po8030_get_image_size, %function
 4267              	po8030_get_image_size:
 4268              	.LFB275:
 4269              		.loc 1 1037 38 is_stmt 1 view -0
 4270              		.cfi_startproc
 4271              		@ args = 0, pretend = 0, frame = 8
 4272              		@ frame_needed = 0, uses_anonymous_args = 0
 4273 0000 00B5     		push	{lr}
 4274              		.cfi_def_cfa_offset 4
 4275              		.cfi_offset 14, -4
ARM GAS  /tmp/cczbsEFl.s 			page 76


 4276              		.loc 1 1038 19 is_stmt 0 view .LVU1161
 4277 0002 0C4B     		ldr	r3, .L221
 4278              		.loc 1 1037 38 view .LVU1162
 4279 0004 0C4A     		ldr	r2, .L221+4
 4280              		.loc 1 1039 46 view .LVU1163
 4281 0006 5888     		ldrh	r0, [r3, #2]
 4282              		.loc 1 1037 38 view .LVU1164
 4283 0008 83B0     		sub	sp, sp, #12
 4284              		.cfi_def_cfa_offset 16
 4285              		.loc 1 1037 38 view .LVU1165
 4286 000a 1268     		ldr	r2, [r2]
 4287 000c 0192     		str	r2, [sp, #4]
 4288 000e 4FF00002 		mov	r2,#0
 4289              		.loc 1 1038 5 is_stmt 1 view .LVU1166
 4290              		.loc 1 1038 7 is_stmt 0 view .LVU1167
 4291 0012 1A79     		ldrb	r2, [r3, #4]	@ zero_extendqisi2
 4292 0014 442A     		cmp	r2, #68
 4293              		.loc 1 1039 16 view .LVU1168
 4294 0016 1A88     		ldrh	r2, [r3]
 4295              		.loc 1 1043 1 view .LVU1169
 4296 0018 074B     		ldr	r3, .L221+4
 4297              		.loc 1 1039 44 view .LVU1170
 4298 001a 00FB02F0 		mul	r0, r0, r2
 4299              		.loc 1 1039 9 is_stmt 1 view .LVU1171
 4300              		.loc 1 1041 9 view .LVU1172
 4301              		.loc 1 1041 75 is_stmt 0 view .LVU1173
 4302 001e 18BF     		it	ne
 4303 0020 4000     		lslne	r0, r0, #1
 4304              		.loc 1 1043 1 view .LVU1174
 4305 0022 1A68     		ldr	r2, [r3]
 4306 0024 019B     		ldr	r3, [sp, #4]
 4307 0026 5A40     		eors	r2, r3, r2
 4308 0028 02D1     		bne	.L220
 4309 002a 03B0     		add	sp, sp, #12
 4310              		.cfi_remember_state
 4311              		.cfi_def_cfa_offset 4
 4312              		@ sp needed
 4313 002c 5DF804FB 		ldr	pc, [sp], #4
 4314              	.L220:
 4315              		.cfi_restore_state
 4316 0030 FFF7FEFF 		bl	__stack_chk_fail
 4317              	.LVL497:
 4318              	.L222:
 4319              		.align	2
 4320              	.L221:
 4321 0034 00000000 		.word	.LANCHOR0
 4322 0038 00000000 		.word	.LC18
 4323              		.cfi_endproc
 4324              	.LFE275:
 4325              		.size	po8030_get_image_size, .-po8030_get_image_size
 4326              		.section	.bss.po8030_conf,"aw",%nobits
 4327              		.align	2
 4328              		.set	.LANCHOR0,. + 0
 4329              		.type	po8030_conf, %object
 4330              		.size	po8030_conf, 8
 4331              	po8030_conf:
 4332 0000 00000000 		.space	8
ARM GAS  /tmp/cczbsEFl.s 			page 77


 4332      00000000 
 4333              		.section	.rodata.pwmcfg_cam.10100,"a"
 4334              		.align	2
 4335              		.set	.LANCHOR1,. + 0
 4336              		.type	pwmcfg_cam.10100, %object
 4337              		.size	pwmcfg_cam.10100, 52
 4338              	pwmcfg_cam.10100:
 4339 0000 80DE8002 		.word	42000000
 4340 0004 02000000 		.word	2
 4341 0008 00000000 		.word	0
 4342 000c 01000000 		.word	1
 4343 0010 00000000 		.word	0
 4344 0014 00000000 		.word	0
 4345 0018 00000000 		.word	0
 4346 001c 00000000 		.word	0
 4347 0020 00000000 		.word	0
 4348 0024 00000000 		.word	0
 4349 0028 00000000 		.word	0
 4350 002c 00000000 		.word	0
 4351 0030 00000000 		.space	4
 4352              		.text
 4353              	.Letext0:
 4354              		.file 2 "/usr/lib/gcc/arm-none-eabi/9.2.1/include/stddef.h"
 4355              		.file 3 "/usr/lib/gcc/arm-none-eabi/9.2.1/include/stdint.h"
 4356              		.file 4 ".//ChibiOS//os/rt/ports/ARMCMx/compilers/GCC/chtypes.h"
 4357              		.file 5 ".//ChibiOS//os/rt/include/chsystypes.h"
 4358              		.file 6 ".//ChibiOS//os/rt/include/chschd.h"
 4359              		.file 7 ".//ChibiOS//os/ext/CMSIS/include/core_cm4.h"
 4360              		.file 8 ".//ChibiOS//os/ext/CMSIS/ST/system_stm32f4xx.h"
 4361              		.file 9 ".//ChibiOS//os/ext/CMSIS/ST/stm32f407xx.h"
 4362              		.file 10 ".//ChibiOS//os/rt/ports/ARMCMx/chcore.h"
 4363              		.file 11 ".//ChibiOS//os/rt/ports/ARMCMx/chcore_v7m.h"
 4364              		.file 12 ".//ChibiOS//os/rt/include/chdebug.h"
 4365              		.file 13 ".//ChibiOS//os/rt/include/chtm.h"
 4366              		.file 14 ".//ChibiOS//os/rt/include/chstats.h"
 4367              		.file 15 ".//ChibiOS//os/rt/include/chsem.h"
 4368              		.file 16 ".//ChibiOS//os/rt/include/chmtx.h"
 4369              		.file 17 ".//ChibiOS//os/rt/include/chregistry.h"
 4370              		.file 18 ".//ChibiOS//os/rt/include/chevents.h"
 4371              		.file 19 ".//ChibiOS//os/rt/include/chqueues.h"
 4372              		.file 20 ".//ChibiOS//os/hal/ports/STM32/STM32F4xx/stm32_dma.h"
 4373              		.file 21 ".//ChibiOS//os/hal/include/hal_ioblock.h"
 4374              		.file 22 ".//ChibiOS//os/hal/ports/STM32/LLD/GPIOv2/pal_lld.h"
 4375              		.file 23 ".//ChibiOS//os/hal/include/adc.h"
 4376              		.file 24 ".//ChibiOS//os/hal/ports/STM32/STM32F4xx/adc_lld.h"
 4377              		.file 25 ".//ChibiOS//os/hal/include/can.h"
 4378              		.file 26 ".//ChibiOS//os/hal/ports/STM32/LLD/can_lld.h"
 4379              		.file 27 ".//ChibiOS//os/hal/include/dac.h"
 4380              		.file 28 ".//ChibiOS//os/hal/ports/STM32/LLD/DACv1/dac_lld.h"
 4381              		.file 29 ".//ChibiOS//os/hal/include/ext.h"
 4382              		.file 30 ".//ChibiOS//os/hal/ports/STM32/LLD/ext_lld.h"
 4383              		.file 31 ".//ChibiOS//os/hal/include/gpt.h"
 4384              		.file 32 ".//ChibiOS//os/hal/ports/STM32/LLD/TIMv1/gpt_lld.h"
 4385              		.file 33 ".//ChibiOS//os/hal/ports/STM32/LLD/TIMv1/stm32_tim.h"
 4386              		.file 34 ".//ChibiOS//os/hal/include/i2c.h"
 4387              		.file 35 ".//ChibiOS//os/hal/ports/STM32/LLD/I2Cv1/i2c_lld.h"
 4388              		.file 36 ".//ChibiOS//os/hal/include/i2s.h"
ARM GAS  /tmp/cczbsEFl.s 			page 78


 4389              		.file 37 ".//ChibiOS//os/hal/ports/STM32/LLD/SPIv1/i2s_lld.h"
 4390              		.file 38 ".//ChibiOS//os/hal/include/pwm.h"
 4391              		.file 39 ".//ChibiOS//os/hal/ports/STM32/LLD/TIMv1/pwm_lld.h"
 4392              		.file 40 ".//ChibiOS//os/hal/include/serial.h"
 4393              		.file 41 ".//ChibiOS//os/hal/ports/STM32/LLD/USARTv1/serial_lld.h"
 4394              		.file 42 ".//ChibiOS//os/hal/include/sdc.h"
 4395              		.file 43 ".//ChibiOS//os/hal/ports/STM32/LLD/sdc_lld.h"
 4396              		.file 44 ".//ChibiOS//os/hal/include/spi.h"
 4397              		.file 45 ".//ChibiOS//os/hal/ports/STM32/LLD/SPIv1/spi_lld.h"
 4398              		.file 46 ".//ChibiOS//os/hal/include/usb.h"
 4399              		.file 47 ".//ChibiOS//os/hal/ports/STM32/LLD/OTGv1/usb_lld.h"
 4400              		.file 48 ".//ChibiOS//os/hal/ports/STM32/LLD/OTGv1/stm32_otg.h"
 4401              		.file 49 ".//ChibiOS//os/hal/include/serial_usb.h"
 4402              		.file 50 ".//src/camera/po8030.h"
 4403              		.file 51 ".//src/usbcfg.h"
 4404              		.file 52 ".//src/camera/../i2c_bus.h"
 4405              		.section	.debug_info,"",%progbits
 4406              	.Ldebug_info0:
 4407 0000 4D5A0000 		.4byte	0x5a4d
 4408 0004 0400     		.2byte	0x4
 4409 0006 00000000 		.4byte	.Ldebug_abbrev0
 4410 000a 04       		.byte	0x4
 4411 000b 01       		.uleb128 0x1
 4412 000c 03100000 		.4byte	.LASF791
 4413 0010 0C       		.byte	0xc
 4414 0011 430B0000 		.4byte	.LASF792
 4415 0015 62170000 		.4byte	.LASF793
 4416 0019 30010000 		.4byte	.Ldebug_ranges0+0x130
 4417 001d 00000000 		.4byte	0
 4418 0021 00000000 		.4byte	.Ldebug_line0
 4419 0025 02       		.uleb128 0x2
 4420 0026 04       		.byte	0x4
 4421 0027 04       		.byte	0x4
 4422 0028 2A080000 		.4byte	.LASF0
 4423 002c 02       		.uleb128 0x2
 4424 002d 04       		.byte	0x4
 4425 002e 07       		.byte	0x7
 4426 002f 28200000 		.4byte	.LASF1
 4427 0033 03       		.uleb128 0x3
 4428 0034 04       		.byte	0x4
 4429 0035 05       		.byte	0x5
 4430 0036 696E7400 		.ascii	"int\000"
 4431 003a 04       		.uleb128 0x4
 4432 003b 1E0B0000 		.4byte	.LASF4
 4433 003f 02       		.byte	0x2
 4434 0040 D1       		.byte	0xd1
 4435 0041 17       		.byte	0x17
 4436 0042 2C000000 		.4byte	0x2c
 4437 0046 02       		.uleb128 0x2
 4438 0047 08       		.byte	0x8
 4439 0048 05       		.byte	0x5
 4440 0049 FB1D0000 		.4byte	.LASF2
 4441 004d 02       		.uleb128 0x2
 4442 004e 08       		.byte	0x8
 4443 004f 04       		.byte	0x4
 4444 0050 89150000 		.4byte	.LASF3
 4445 0054 04       		.uleb128 0x4
ARM GAS  /tmp/cczbsEFl.s 			page 79


 4446 0055 E50F0000 		.4byte	.LASF5
 4447 0059 03       		.byte	0x3
 4448 005a 22       		.byte	0x22
 4449 005b 17       		.byte	0x17
 4450 005c 60000000 		.4byte	0x60
 4451 0060 02       		.uleb128 0x2
 4452 0061 01       		.byte	0x1
 4453 0062 06       		.byte	0x6
 4454 0063 4C120000 		.4byte	.LASF6
 4455 0067 04       		.uleb128 0x4
 4456 0068 14120000 		.4byte	.LASF7
 4457 006c 03       		.byte	0x3
 4458 006d 25       		.byte	0x25
 4459 006e 18       		.byte	0x18
 4460 006f 73000000 		.4byte	0x73
 4461 0073 02       		.uleb128 0x2
 4462 0074 02       		.byte	0x2
 4463 0075 05       		.byte	0x5
 4464 0076 90200000 		.4byte	.LASF8
 4465 007a 04       		.uleb128 0x4
 4466 007b ED020000 		.4byte	.LASF9
 4467 007f 03       		.byte	0x3
 4468 0080 28       		.byte	0x28
 4469 0081 18       		.byte	0x18
 4470 0082 8B000000 		.4byte	0x8b
 4471 0086 05       		.uleb128 0x5
 4472 0087 7A000000 		.4byte	0x7a
 4473 008b 02       		.uleb128 0x2
 4474 008c 04       		.byte	0x4
 4475 008d 05       		.byte	0x5
 4476 008e 77140000 		.4byte	.LASF10
 4477 0092 04       		.uleb128 0x4
 4478 0093 3B0B0000 		.4byte	.LASF11
 4479 0097 03       		.byte	0x3
 4480 0098 2E       		.byte	0x2e
 4481 0099 18       		.byte	0x18
 4482 009a A3000000 		.4byte	0xa3
 4483 009e 06       		.uleb128 0x6
 4484 009f 92000000 		.4byte	0x92
 4485 00a3 02       		.uleb128 0x2
 4486 00a4 01       		.byte	0x1
 4487 00a5 08       		.byte	0x8
 4488 00a6 C5070000 		.4byte	.LASF12
 4489 00aa 04       		.uleb128 0x4
 4490 00ab 6F010000 		.4byte	.LASF13
 4491 00af 03       		.byte	0x3
 4492 00b0 31       		.byte	0x31
 4493 00b1 19       		.byte	0x19
 4494 00b2 B6000000 		.4byte	0xb6
 4495 00b6 02       		.uleb128 0x2
 4496 00b7 02       		.byte	0x2
 4497 00b8 07       		.byte	0x7
 4498 00b9 31120000 		.4byte	.LASF14
 4499 00bd 04       		.uleb128 0x4
 4500 00be 64150000 		.4byte	.LASF15
 4501 00c2 03       		.byte	0x3
 4502 00c3 34       		.byte	0x34
ARM GAS  /tmp/cczbsEFl.s 			page 80


 4503 00c4 19       		.byte	0x19
 4504 00c5 D3000000 		.4byte	0xd3
 4505 00c9 05       		.uleb128 0x5
 4506 00ca BD000000 		.4byte	0xbd
 4507 00ce 06       		.uleb128 0x6
 4508 00cf C9000000 		.4byte	0xc9
 4509 00d3 02       		.uleb128 0x2
 4510 00d4 04       		.byte	0x4
 4511 00d5 07       		.byte	0x7
 4512 00d6 CE150000 		.4byte	.LASF16
 4513 00da 04       		.uleb128 0x4
 4514 00db EC080000 		.4byte	.LASF17
 4515 00df 03       		.byte	0x3
 4516 00e0 37       		.byte	0x37
 4517 00e1 19       		.byte	0x19
 4518 00e2 E6000000 		.4byte	0xe6
 4519 00e6 02       		.uleb128 0x2
 4520 00e7 08       		.byte	0x8
 4521 00e8 07       		.byte	0x7
 4522 00e9 CF1B0000 		.4byte	.LASF18
 4523 00ed 04       		.uleb128 0x4
 4524 00ee 9C0A0000 		.4byte	.LASF19
 4525 00f2 04       		.byte	0x4
 4526 00f3 45       		.byte	0x45
 4527 00f4 1D       		.byte	0x1d
 4528 00f5 BD000000 		.4byte	0xbd
 4529 00f9 04       		.uleb128 0x4
 4530 00fa C0040000 		.4byte	.LASF20
 4531 00fe 04       		.byte	0x4
 4532 00ff 46       		.byte	0x46
 4533 0100 1D       		.byte	0x1d
 4534 0101 DA000000 		.4byte	0xda
 4535 0105 04       		.uleb128 0x4
 4536 0106 240F0000 		.4byte	.LASF21
 4537 010a 04       		.byte	0x4
 4538 010b 48       		.byte	0x48
 4539 010c 1D       		.byte	0x1d
 4540 010d 92000000 		.4byte	0x92
 4541 0111 04       		.uleb128 0x4
 4542 0112 D01C0000 		.4byte	.LASF22
 4543 0116 04       		.byte	0x4
 4544 0117 49       		.byte	0x49
 4545 0118 1D       		.byte	0x1d
 4546 0119 92000000 		.4byte	0x92
 4547 011d 04       		.uleb128 0x4
 4548 011e BC0E0000 		.4byte	.LASF23
 4549 0122 04       		.byte	0x4
 4550 0123 4A       		.byte	0x4a
 4551 0124 1D       		.byte	0x1d
 4552 0125 92000000 		.4byte	0x92
 4553 0129 04       		.uleb128 0x4
 4554 012a AC110000 		.4byte	.LASF24
 4555 012e 04       		.byte	0x4
 4556 012f 4B       		.byte	0x4b
 4557 0130 1D       		.byte	0x1d
 4558 0131 92000000 		.4byte	0x92
 4559 0135 04       		.uleb128 0x4
ARM GAS  /tmp/cczbsEFl.s 			page 81


 4560 0136 6C050000 		.4byte	.LASF25
 4561 013a 04       		.byte	0x4
 4562 013b 4C       		.byte	0x4c
 4563 013c 1D       		.byte	0x1d
 4564 013d BD000000 		.4byte	0xbd
 4565 0141 04       		.uleb128 0x4
 4566 0142 45000000 		.4byte	.LASF26
 4567 0146 04       		.byte	0x4
 4568 0147 4D       		.byte	0x4d
 4569 0148 1D       		.byte	0x1d
 4570 0149 7A000000 		.4byte	0x7a
 4571 014d 04       		.uleb128 0x4
 4572 014e A9150000 		.4byte	.LASF27
 4573 0152 04       		.byte	0x4
 4574 0153 4F       		.byte	0x4f
 4575 0154 1D       		.byte	0x1d
 4576 0155 BD000000 		.4byte	0xbd
 4577 0159 04       		.uleb128 0x4
 4578 015a 681E0000 		.4byte	.LASF28
 4579 015e 04       		.byte	0x4
 4580 015f 50       		.byte	0x50
 4581 0160 1D       		.byte	0x1d
 4582 0161 BD000000 		.4byte	0xbd
 4583 0165 04       		.uleb128 0x4
 4584 0166 D7170000 		.4byte	.LASF29
 4585 016a 04       		.byte	0x4
 4586 016b 51       		.byte	0x51
 4587 016c 1D       		.byte	0x1d
 4588 016d 7A000000 		.4byte	0x7a
 4589 0171 04       		.uleb128 0x4
 4590 0172 7A120000 		.4byte	.LASF30
 4591 0176 04       		.byte	0x4
 4592 0177 52       		.byte	0x52
 4593 0178 1D       		.byte	0x1d
 4594 0179 BD000000 		.4byte	0xbd
 4595 017d 04       		.uleb128 0x4
 4596 017e 01030000 		.4byte	.LASF31
 4597 0182 05       		.byte	0x5
 4598 0183 33       		.byte	0x33
 4599 0184 12       		.byte	0x12
 4600 0185 BD000000 		.4byte	0xbd
 4601 0189 05       		.uleb128 0x5
 4602 018a 7D010000 		.4byte	0x17d
 4603 018e 04       		.uleb128 0x4
 4604 018f A5020000 		.4byte	.LASF32
 4605 0193 05       		.byte	0x5
 4606 0194 3F       		.byte	0x3f
 4607 0195 1A       		.byte	0x1a
 4608 0196 9A010000 		.4byte	0x19a
 4609 019a 07       		.uleb128 0x7
 4610 019b 06080000 		.4byte	.LASF56
 4611 019f 68       		.byte	0x68
 4612 01a0 06       		.byte	0x6
 4613 01a1 C2       		.byte	0xc2
 4614 01a2 08       		.byte	0x8
 4615 01a3 CF020000 		.4byte	0x2cf
 4616 01a7 08       		.uleb128 0x8
ARM GAS  /tmp/cczbsEFl.s 			page 82


 4617 01a8 590E0000 		.4byte	.LASF33
 4618 01ac 06       		.byte	0x6
 4619 01ad C3       		.byte	0xc3
 4620 01ae 1A       		.byte	0x1a
 4621 01af DB020000 		.4byte	0x2db
 4622 01b3 00       		.byte	0
 4623 01b4 08       		.uleb128 0x8
 4624 01b5 720B0000 		.4byte	.LASF34
 4625 01b9 06       		.byte	0x6
 4626 01ba C5       		.byte	0xc5
 4627 01bb 1A       		.byte	0x1a
 4628 01bc DB020000 		.4byte	0x2db
 4629 01c0 04       		.byte	0x4
 4630 01c1 08       		.uleb128 0x8
 4631 01c2 910D0000 		.4byte	.LASF35
 4632 01c6 06       		.byte	0x6
 4633 01c7 C7       		.byte	0xc7
 4634 01c8 19       		.byte	0x19
 4635 01c9 35010000 		.4byte	0x135
 4636 01cd 08       		.byte	0x8
 4637 01ce 08       		.uleb128 0x8
 4638 01cf 8D080000 		.4byte	.LASF36
 4639 01d3 06       		.byte	0x6
 4640 01d4 C8       		.byte	0xc8
 4641 01d5 19       		.byte	0x19
 4642 01d6 A10D0000 		.4byte	0xda1
 4643 01da 0C       		.byte	0xc
 4644 01db 08       		.uleb128 0x8
 4645 01dc F1010000 		.4byte	.LASF37
 4646 01e0 06       		.byte	0x6
 4647 01e1 CA       		.byte	0xca
 4648 01e2 1A       		.byte	0x1a
 4649 01e3 DB020000 		.4byte	0x2db
 4650 01e7 10       		.byte	0x10
 4651 01e8 08       		.uleb128 0x8
 4652 01e9 FD1E0000 		.4byte	.LASF38
 4653 01ed 06       		.byte	0x6
 4654 01ee CB       		.byte	0xcb
 4655 01ef 1A       		.byte	0x1a
 4656 01f0 DB020000 		.4byte	0x2db
 4657 01f4 14       		.byte	0x14
 4658 01f5 08       		.uleb128 0x8
 4659 01f6 321D0000 		.4byte	.LASF39
 4660 01fa 06       		.byte	0x6
 4661 01fb D2       		.byte	0xd2
 4662 01fc 1A       		.byte	0x1a
 4663 01fd 5E110000 		.4byte	0x115e
 4664 0201 18       		.byte	0x18
 4665 0202 08       		.uleb128 0x8
 4666 0203 CC170000 		.4byte	.LASF40
 4667 0207 06       		.byte	0x6
 4668 0208 D8       		.byte	0xd8
 4669 0209 1A       		.byte	0x1a
 4670 020a 75110000 		.4byte	0x1175
 4671 020e 1C       		.byte	0x1c
 4672 020f 08       		.uleb128 0x8
 4673 0210 1B210000 		.4byte	.LASF41
ARM GAS  /tmp/cczbsEFl.s 			page 83


 4674 0214 06       		.byte	0x6
 4675 0215 DD       		.byte	0xdd
 4676 0216 19       		.byte	0x19
 4677 0217 11010000 		.4byte	0x111
 4678 021b 20       		.byte	0x20
 4679 021c 08       		.uleb128 0x8
 4680 021d 961C0000 		.4byte	.LASF42
 4681 0221 06       		.byte	0x6
 4682 0222 E1       		.byte	0xe1
 4683 0223 19       		.byte	0x19
 4684 0224 05010000 		.4byte	0x105
 4685 0228 21       		.byte	0x21
 4686 0229 08       		.uleb128 0x8
 4687 022a 56140000 		.4byte	.LASF43
 4688 022e 06       		.byte	0x6
 4689 022f E6       		.byte	0xe6
 4690 0230 19       		.byte	0x19
 4691 0231 1D010000 		.4byte	0x11d
 4692 0235 22       		.byte	0x22
 4693 0236 08       		.uleb128 0x8
 4694 0237 61120000 		.4byte	.LASF44
 4695 023b 06       		.byte	0x6
 4696 023c EC       		.byte	0xec
 4697 023d 19       		.byte	0x19
 4698 023e 29010000 		.4byte	0x129
 4699 0242 23       		.byte	0x23
 4700 0243 08       		.uleb128 0x8
 4701 0244 4F140000 		.4byte	.LASF45
 4702 0248 06       		.byte	0x6
 4703 0249 F3       		.byte	0xf3
 4704 024a 19       		.byte	0x19
 4705 024b 89010000 		.4byte	0x189
 4706 024f 24       		.byte	0x24
 4707 0250 09       		.uleb128 0x9
 4708 0251 705F7500 		.ascii	"p_u\000"
 4709 0255 06       		.byte	0x6
 4710 0256 3101     		.2byte	0x131
 4711 0258 19       		.byte	0x19
 4712 0259 7D100000 		.4byte	0x107d
 4713 025d 28       		.byte	0x28
 4714 025e 0A       		.uleb128 0xa
 4715 025f 1B040000 		.4byte	.LASF46
 4716 0263 06       		.byte	0x6
 4717 0264 3601     		.2byte	0x136
 4718 0266 19       		.byte	0x19
 4719 0267 E1020000 		.4byte	0x2e1
 4720 026b 2C       		.byte	0x2c
 4721 026c 0A       		.uleb128 0xa
 4722 026d E2120000 		.4byte	.LASF47
 4723 0271 06       		.byte	0x6
 4724 0272 3C01     		.2byte	0x13c
 4725 0274 19       		.byte	0x19
 4726 0275 08030000 		.4byte	0x308
 4727 0279 30       		.byte	0x30
 4728 027a 0A       		.uleb128 0xa
 4729 027b 71060000 		.4byte	.LASF48
 4730 027f 06       		.byte	0x6
ARM GAS  /tmp/cczbsEFl.s 			page 84


 4731 0280 4001     		.2byte	0x140
 4732 0282 19       		.byte	0x19
 4733 0283 41010000 		.4byte	0x141
 4734 0287 38       		.byte	0x38
 4735 0288 0A       		.uleb128 0xa
 4736 0289 5F1A0000 		.4byte	.LASF49
 4737 028d 06       		.byte	0x6
 4738 028e 4601     		.2byte	0x146
 4739 0290 19       		.byte	0x19
 4740 0291 4D010000 		.4byte	0x14d
 4741 0295 3C       		.byte	0x3c
 4742 0296 0A       		.uleb128 0xa
 4743 0297 BB1C0000 		.4byte	.LASF50
 4744 029b 06       		.byte	0x6
 4745 029c 4D01     		.2byte	0x14d
 4746 029e 1A       		.byte	0x1a
 4747 029f 58110000 		.4byte	0x1158
 4748 02a3 40       		.byte	0x40
 4749 02a4 0A       		.uleb128 0xa
 4750 02a5 23190000 		.4byte	.LASF51
 4751 02a9 06       		.byte	0x6
 4752 02aa 5101     		.2byte	0x151
 4753 02ac 19       		.byte	0x19
 4754 02ad 35010000 		.4byte	0x135
 4755 02b1 44       		.byte	0x44
 4756 02b2 0A       		.uleb128 0xa
 4757 02b3 C40E0000 		.4byte	.LASF52
 4758 02b7 06       		.byte	0x6
 4759 02b8 5801     		.2byte	0x158
 4760 02ba 1A       		.byte	0x1a
 4761 02bb C8030000 		.4byte	0x3c8
 4762 02bf 48       		.byte	0x48
 4763 02c0 0A       		.uleb128 0xa
 4764 02c1 56210000 		.4byte	.LASF53
 4765 02c5 06       		.byte	0x6
 4766 02c6 5E01     		.2byte	0x15e
 4767 02c8 19       		.byte	0x19
 4768 02c9 27100000 		.4byte	0x1027
 4769 02cd 50       		.byte	0x50
 4770 02ce 00       		.byte	0
 4771 02cf 04       		.uleb128 0x4
 4772 02d0 571F0000 		.4byte	.LASF54
 4773 02d4 05       		.byte	0x5
 4774 02d5 44       		.byte	0x44
 4775 02d6 14       		.byte	0x14
 4776 02d7 DB020000 		.4byte	0x2db
 4777 02db 0B       		.uleb128 0xb
 4778 02dc 04       		.byte	0x4
 4779 02dd 8E010000 		.4byte	0x18e
 4780 02e1 04       		.uleb128 0x4
 4781 02e2 5A040000 		.4byte	.LASF55
 4782 02e6 05       		.byte	0x5
 4783 02e7 49       		.byte	0x49
 4784 02e8 20       		.byte	0x20
 4785 02e9 ED020000 		.4byte	0x2ed
 4786 02ed 07       		.uleb128 0x7
 4787 02ee 35210000 		.4byte	.LASF57
ARM GAS  /tmp/cczbsEFl.s 			page 85


 4788 02f2 04       		.byte	0x4
 4789 02f3 06       		.byte	0x6
 4790 02f4 B0       		.byte	0xb0
 4791 02f5 08       		.byte	0x8
 4792 02f6 08030000 		.4byte	0x308
 4793 02fa 08       		.uleb128 0x8
 4794 02fb 590E0000 		.4byte	.LASF33
 4795 02ff 06       		.byte	0x6
 4796 0300 B1       		.byte	0xb1
 4797 0301 1A       		.byte	0x1a
 4798 0302 DB020000 		.4byte	0x2db
 4799 0306 00       		.byte	0
 4800 0307 00       		.byte	0
 4801 0308 04       		.uleb128 0x4
 4802 0309 34140000 		.4byte	.LASF58
 4803 030d 05       		.byte	0x5
 4804 030e 50       		.byte	0x50
 4805 030f 21       		.byte	0x21
 4806 0310 14030000 		.4byte	0x314
 4807 0314 07       		.uleb128 0x7
 4808 0315 D2010000 		.4byte	.LASF59
 4809 0319 08       		.byte	0x8
 4810 031a 06       		.byte	0x6
 4811 031b B7       		.byte	0xb7
 4812 031c 08       		.byte	0x8
 4813 031d 3C030000 		.4byte	0x33c
 4814 0321 08       		.uleb128 0x8
 4815 0322 590E0000 		.4byte	.LASF33
 4816 0326 06       		.byte	0x6
 4817 0327 B8       		.byte	0xb8
 4818 0328 1A       		.byte	0x1a
 4819 0329 DB020000 		.4byte	0x2db
 4820 032d 00       		.byte	0
 4821 032e 08       		.uleb128 0x8
 4822 032f 720B0000 		.4byte	.LASF34
 4823 0333 06       		.byte	0x6
 4824 0334 B9       		.byte	0xb9
 4825 0335 1A       		.byte	0x1a
 4826 0336 DB020000 		.4byte	0x2db
 4827 033a 04       		.byte	0x4
 4828 033b 00       		.byte	0
 4829 033c 04       		.uleb128 0x4
 4830 033d F9070000 		.4byte	.LASF60
 4831 0341 05       		.byte	0x5
 4832 0342 57       		.byte	0x57
 4833 0343 1E       		.byte	0x1e
 4834 0344 48030000 		.4byte	0x348
 4835 0348 0C       		.uleb128 0xc
 4836 0349 BE190000 		.4byte	.LASF61
 4837 034d 1C       		.byte	0x1c
 4838 034e 06       		.byte	0x6
 4839 034f 9001     		.2byte	0x190
 4840 0351 08       		.byte	0x8
 4841 0352 AB030000 		.4byte	0x3ab
 4842 0356 0A       		.uleb128 0xa
 4843 0357 73160000 		.4byte	.LASF62
 4844 035b 06       		.byte	0x6
ARM GAS  /tmp/cczbsEFl.s 			page 86


 4845 035c 9101     		.2byte	0x191
 4846 035e 19       		.byte	0x19
 4847 035f 08030000 		.4byte	0x308
 4848 0363 00       		.byte	0
 4849 0364 0A       		.uleb128 0xa
 4850 0365 A41B0000 		.4byte	.LASF63
 4851 0369 06       		.byte	0x6
 4852 036a 9201     		.2byte	0x192
 4853 036c 19       		.byte	0x19
 4854 036d 35010000 		.4byte	0x135
 4855 0371 08       		.byte	0x8
 4856 0372 0A       		.uleb128 0xa
 4857 0373 7C0A0000 		.4byte	.LASF64
 4858 0377 06       		.byte	0x6
 4859 0378 9401     		.2byte	0x194
 4860 037a 19       		.byte	0x19
 4861 037b A10D0000 		.4byte	0xda1
 4862 037f 0C       		.byte	0xc
 4863 0380 0A       		.uleb128 0xa
 4864 0381 55110000 		.4byte	.LASF65
 4865 0385 06       		.byte	0x6
 4866 0386 9701     		.2byte	0x197
 4867 0388 1A       		.byte	0x1a
 4868 0389 DB020000 		.4byte	0x2db
 4869 038d 10       		.byte	0x10
 4870 038e 0A       		.uleb128 0xa
 4871 038f 6A0B0000 		.4byte	.LASF66
 4872 0393 06       		.byte	0x6
 4873 0394 9801     		.2byte	0x198
 4874 0396 1A       		.byte	0x1a
 4875 0397 DB020000 		.4byte	0x2db
 4876 039b 14       		.byte	0x14
 4877 039c 0A       		.uleb128 0xa
 4878 039d B2080000 		.4byte	.LASF67
 4879 03a1 06       		.byte	0x6
 4880 03a2 9B01     		.2byte	0x19b
 4881 03a4 1A       		.byte	0x1a
 4882 03a5 DB020000 		.4byte	0x2db
 4883 03a9 18       		.byte	0x18
 4884 03aa 00       		.byte	0
 4885 03ab 04       		.uleb128 0x4
 4886 03ac DA180000 		.4byte	.LASF68
 4887 03b0 05       		.byte	0x5
 4888 03b1 5C       		.byte	0x5c
 4889 03b2 10       		.byte	0x10
 4890 03b3 B7030000 		.4byte	0x3b7
 4891 03b7 0B       		.uleb128 0xb
 4892 03b8 04       		.byte	0x4
 4893 03b9 BD030000 		.4byte	0x3bd
 4894 03bd 0D       		.uleb128 0xd
 4895 03be C8030000 		.4byte	0x3c8
 4896 03c2 0E       		.uleb128 0xe
 4897 03c3 C8030000 		.4byte	0x3c8
 4898 03c7 00       		.byte	0
 4899 03c8 0F       		.uleb128 0xf
 4900 03c9 04       		.byte	0x4
 4901 03ca 04       		.uleb128 0x4
ARM GAS  /tmp/cczbsEFl.s 			page 87


 4902 03cb 600A0000 		.4byte	.LASF69
 4903 03cf 05       		.byte	0x5
 4904 03d0 61       		.byte	0x61
 4905 03d1 21       		.byte	0x21
 4906 03d2 D6030000 		.4byte	0x3d6
 4907 03d6 0C       		.uleb128 0xc
 4908 03d7 851C0000 		.4byte	.LASF70
 4909 03db 14       		.byte	0x14
 4910 03dc 06       		.byte	0x6
 4911 03dd 6B01     		.2byte	0x16b
 4912 03df 08       		.byte	0x8
 4913 03e0 2B040000 		.4byte	0x42b
 4914 03e4 0A       		.uleb128 0xa
 4915 03e5 820A0000 		.4byte	.LASF71
 4916 03e9 06       		.byte	0x6
 4917 03ea 6C01     		.2byte	0x16c
 4918 03ec 1A       		.byte	0x1a
 4919 03ed 7B110000 		.4byte	0x117b
 4920 03f1 00       		.byte	0
 4921 03f2 0A       		.uleb128 0xa
 4922 03f3 AD070000 		.4byte	.LASF72
 4923 03f7 06       		.byte	0x6
 4924 03f8 6D01     		.2byte	0x16d
 4925 03fa 1A       		.byte	0x1a
 4926 03fb 7B110000 		.4byte	0x117b
 4927 03ff 04       		.byte	0x4
 4928 0400 0A       		.uleb128 0xa
 4929 0401 EA110000 		.4byte	.LASF73
 4930 0405 06       		.byte	0x6
 4931 0406 6E01     		.2byte	0x16e
 4932 0408 19       		.byte	0x19
 4933 0409 7D010000 		.4byte	0x17d
 4934 040d 08       		.byte	0x8
 4935 040e 0A       		.uleb128 0xa
 4936 040f 521C0000 		.4byte	.LASF74
 4937 0413 06       		.byte	0x6
 4938 0414 6F01     		.2byte	0x16f
 4939 0416 19       		.byte	0x19
 4940 0417 AB030000 		.4byte	0x3ab
 4941 041b 0C       		.byte	0xc
 4942 041c 0A       		.uleb128 0xa
 4943 041d 93080000 		.4byte	.LASF75
 4944 0421 06       		.byte	0x6
 4945 0422 7101     		.2byte	0x171
 4946 0424 1A       		.byte	0x1a
 4947 0425 C8030000 		.4byte	0x3c8
 4948 0429 10       		.byte	0x10
 4949 042a 00       		.byte	0
 4950 042b 04       		.uleb128 0x4
 4951 042c 7B1D0000 		.4byte	.LASF76
 4952 0430 05       		.byte	0x5
 4953 0431 66       		.byte	0x66
 4954 0432 28       		.byte	0x28
 4955 0433 37040000 		.4byte	0x437
 4956 0437 0C       		.uleb128 0xc
 4957 0438 CF020000 		.4byte	.LASF77
 4958 043c 10       		.byte	0x10
ARM GAS  /tmp/cczbsEFl.s 			page 88


 4959 043d 06       		.byte	0x6
 4960 043e 7B01     		.2byte	0x17b
 4961 0440 08       		.byte	0x8
 4962 0441 7E040000 		.4byte	0x47e
 4963 0445 0A       		.uleb128 0xa
 4964 0446 820A0000 		.4byte	.LASF71
 4965 044a 06       		.byte	0x6
 4966 044b 7C01     		.2byte	0x17c
 4967 044d 1A       		.byte	0x1a
 4968 044e 7B110000 		.4byte	0x117b
 4969 0452 00       		.byte	0
 4970 0453 0A       		.uleb128 0xa
 4971 0454 AD070000 		.4byte	.LASF72
 4972 0458 06       		.byte	0x6
 4973 0459 7E01     		.2byte	0x17e
 4974 045b 1A       		.byte	0x1a
 4975 045c 7B110000 		.4byte	0x117b
 4976 0460 04       		.byte	0x4
 4977 0461 0A       		.uleb128 0xa
 4978 0462 EA110000 		.4byte	.LASF73
 4979 0466 06       		.byte	0x6
 4980 0467 8001     		.2byte	0x180
 4981 0469 19       		.byte	0x19
 4982 046a 7D010000 		.4byte	0x17d
 4983 046e 08       		.byte	0x8
 4984 046f 0A       		.uleb128 0xa
 4985 0470 18010000 		.4byte	.LASF78
 4986 0474 06       		.byte	0x6
 4987 0475 8201     		.2byte	0x182
 4988 0477 19       		.byte	0x19
 4989 0478 89010000 		.4byte	0x189
 4990 047c 0C       		.byte	0xc
 4991 047d 00       		.byte	0
 4992 047e 04       		.uleb128 0x4
 4993 047f 6B080000 		.4byte	.LASF79
 4994 0483 05       		.byte	0x5
 4995 0484 6B       		.byte	0x6b
 4996 0485 20       		.byte	0x20
 4997 0486 8A040000 		.4byte	0x48a
 4998 048a 10       		.uleb128 0x10
 4999 048b DC190000 		.4byte	.LASF80
 5000 048f 1404     		.2byte	0x414
 5001 0491 06       		.byte	0x6
 5002 0492 A201     		.2byte	0x1a2
 5003 0494 08       		.byte	0x8
 5004 0495 D2040000 		.4byte	0x4d2
 5005 0499 0A       		.uleb128 0xa
 5006 049a EC0F0000 		.4byte	.LASF81
 5007 049e 06       		.byte	0x6
 5008 049f AA01     		.2byte	0x1aa
 5009 04a1 24       		.byte	0x24
 5010 04a2 64110000 		.4byte	0x1164
 5011 04a6 00       		.byte	0
 5012 04a7 0A       		.uleb128 0xa
 5013 04a8 BA0F0000 		.4byte	.LASF82
 5014 04ac 06       		.byte	0x6
 5015 04ad AF01     		.2byte	0x1af
ARM GAS  /tmp/cczbsEFl.s 			page 89


 5016 04af 19       		.byte	0x19
 5017 04b0 65010000 		.4byte	0x165
 5018 04b4 04       		.byte	0x4
 5019 04b5 0A       		.uleb128 0xa
 5020 04b6 C9010000 		.4byte	.LASF83
 5021 04ba 06       		.byte	0x6
 5022 04bb B301     		.2byte	0x1b3
 5023 04bd 19       		.byte	0x19
 5024 04be 65010000 		.4byte	0x165
 5025 04c2 08       		.byte	0x8
 5026 04c3 0A       		.uleb128 0xa
 5027 04c4 C4130000 		.4byte	.LASF84
 5028 04c8 06       		.byte	0x6
 5029 04c9 B901     		.2byte	0x1b9
 5030 04cb 19       		.byte	0x19
 5031 04cc AF0F0000 		.4byte	0xfaf
 5032 04d0 0C       		.byte	0xc
 5033 04d1 00       		.byte	0
 5034 04d2 04       		.uleb128 0x4
 5035 04d3 A7000000 		.4byte	.LASF85
 5036 04d7 05       		.byte	0x5
 5037 04d8 70       		.byte	0x70
 5038 04d9 1A       		.byte	0x1a
 5039 04da DE040000 		.4byte	0x4de
 5040 04de 10       		.uleb128 0x10
 5041 04df B4130000 		.4byte	.LASF86
 5042 04e3 7006     		.2byte	0x670
 5043 04e5 06       		.byte	0x6
 5044 04e6 C201     		.2byte	0x1c2
 5045 04e8 08       		.byte	0x8
 5046 04e9 53050000 		.4byte	0x553
 5047 04ed 0A       		.uleb128 0xa
 5048 04ee 54040000 		.4byte	.LASF87
 5049 04f2 06       		.byte	0x6
 5050 04f3 C601     		.2byte	0x1c6
 5051 04f5 19       		.byte	0x19
 5052 04f6 3C030000 		.4byte	0x33c
 5053 04fa 00       		.byte	0
 5054 04fb 0A       		.uleb128 0xa
 5055 04fc F1030000 		.4byte	.LASF88
 5056 0500 06       		.byte	0x6
 5057 0501 CA01     		.2byte	0x1ca
 5058 0503 19       		.byte	0x19
 5059 0504 2B040000 		.4byte	0x42b
 5060 0508 1C       		.byte	0x1c
 5061 0509 09       		.uleb128 0x9
 5062 050a 64626700 		.ascii	"dbg\000"
 5063 050e 06       		.byte	0x6
 5064 050f CE01     		.2byte	0x1ce
 5065 0511 19       		.byte	0x19
 5066 0512 7E040000 		.4byte	0x47e
 5067 0516 2C       		.byte	0x2c
 5068 0517 11       		.uleb128 0x11
 5069 0518 80140000 		.4byte	.LASF89
 5070 051c 06       		.byte	0x6
 5071 051d D201     		.2byte	0x1d2
 5072 051f 19       		.byte	0x19
ARM GAS  /tmp/cczbsEFl.s 			page 90


 5073 0520 8E010000 		.4byte	0x18e
 5074 0524 4004     		.2byte	0x440
 5075 0526 12       		.uleb128 0x12
 5076 0527 746D00   		.ascii	"tm\000"
 5077 052a 06       		.byte	0x6
 5078 052b D701     		.2byte	0x1d7
 5079 052d 19       		.byte	0x19
 5080 052e D20F0000 		.4byte	0xfd2
 5081 0532 A804     		.2byte	0x4a8
 5082 0534 11       		.uleb128 0x11
 5083 0535 250B0000 		.4byte	.LASF90
 5084 0539 06       		.byte	0x6
 5085 053a DD01     		.2byte	0x1dd
 5086 053c 19       		.byte	0x19
 5087 053d 71100000 		.4byte	0x1071
 5088 0541 B004     		.2byte	0x4b0
 5089 0543 11       		.uleb128 0x11
 5090 0544 2F1C0000 		.4byte	.LASF91
 5091 0548 06       		.byte	0x6
 5092 0549 E301     		.2byte	0x1e3
 5093 054b 03       		.byte	0x3
 5094 054c 81110000 		.4byte	0x1181
 5095 0550 E804     		.2byte	0x4e8
 5096 0552 00       		.byte	0
 5097 0553 13       		.uleb128 0x13
 5098 0554 BD000000 		.4byte	0xbd
 5099 0558 63050000 		.4byte	0x563
 5100 055c 14       		.uleb128 0x14
 5101 055d 2C000000 		.4byte	0x2c
 5102 0561 01       		.byte	0x1
 5103 0562 00       		.byte	0
 5104 0563 13       		.uleb128 0x13
 5105 0564 BD000000 		.4byte	0xbd
 5106 0568 73050000 		.4byte	0x573
 5107 056c 14       		.uleb128 0x14
 5108 056d 2C000000 		.4byte	0x2c
 5109 0571 07       		.byte	0x7
 5110 0572 00       		.byte	0
 5111 0573 15       		.uleb128 0x15
 5112 0574 B21B0000 		.4byte	.LASF92
 5113 0578 07       		.byte	0x7
 5114 0579 A706     		.2byte	0x6a7
 5115 057b 19       		.byte	0x19
 5116 057c 86000000 		.4byte	0x86
 5117 0580 16       		.uleb128 0x16
 5118 0581 0B130000 		.4byte	.LASF93
 5119 0585 08       		.byte	0x8
 5120 0586 4C       		.byte	0x4c
 5121 0587 11       		.byte	0x11
 5122 0588 BD000000 		.4byte	0xbd
 5123 058c 17       		.uleb128 0x17
 5124 058d 50       		.byte	0x50
 5125 058e 09       		.byte	0x9
 5126 058f C4       		.byte	0xc4
 5127 0590 09       		.byte	0x9
 5128 0591 98060000 		.4byte	0x698
 5129 0595 18       		.uleb128 0x18
ARM GAS  /tmp/cczbsEFl.s 			page 91


 5130 0596 535200   		.ascii	"SR\000"
 5131 0599 09       		.byte	0x9
 5132 059a C6       		.byte	0xc6
 5133 059b 11       		.byte	0x11
 5134 059c C9000000 		.4byte	0xc9
 5135 05a0 00       		.byte	0
 5136 05a1 18       		.uleb128 0x18
 5137 05a2 43523100 		.ascii	"CR1\000"
 5138 05a6 09       		.byte	0x9
 5139 05a7 C7       		.byte	0xc7
 5140 05a8 11       		.byte	0x11
 5141 05a9 C9000000 		.4byte	0xc9
 5142 05ad 04       		.byte	0x4
 5143 05ae 18       		.uleb128 0x18
 5144 05af 43523200 		.ascii	"CR2\000"
 5145 05b3 09       		.byte	0x9
 5146 05b4 C8       		.byte	0xc8
 5147 05b5 11       		.byte	0x11
 5148 05b6 C9000000 		.4byte	0xc9
 5149 05ba 08       		.byte	0x8
 5150 05bb 08       		.uleb128 0x8
 5151 05bc 1A020000 		.4byte	.LASF94
 5152 05c0 09       		.byte	0x9
 5153 05c1 C9       		.byte	0xc9
 5154 05c2 11       		.byte	0x11
 5155 05c3 C9000000 		.4byte	0xc9
 5156 05c7 0C       		.byte	0xc
 5157 05c8 08       		.uleb128 0x8
 5158 05c9 20020000 		.4byte	.LASF95
 5159 05cd 09       		.byte	0x9
 5160 05ce CA       		.byte	0xca
 5161 05cf 11       		.byte	0x11
 5162 05d0 C9000000 		.4byte	0xc9
 5163 05d4 10       		.byte	0x10
 5164 05d5 08       		.uleb128 0x8
 5165 05d6 9A080000 		.4byte	.LASF96
 5166 05da 09       		.byte	0x9
 5167 05db CB       		.byte	0xcb
 5168 05dc 11       		.byte	0x11
 5169 05dd C9000000 		.4byte	0xc9
 5170 05e1 14       		.byte	0x14
 5171 05e2 08       		.uleb128 0x8
 5172 05e3 A0080000 		.4byte	.LASF97
 5173 05e7 09       		.byte	0x9
 5174 05e8 CC       		.byte	0xcc
 5175 05e9 11       		.byte	0x11
 5176 05ea C9000000 		.4byte	0xc9
 5177 05ee 18       		.byte	0x18
 5178 05ef 08       		.uleb128 0x8
 5179 05f0 A6080000 		.4byte	.LASF98
 5180 05f4 09       		.byte	0x9
 5181 05f5 CD       		.byte	0xcd
 5182 05f6 11       		.byte	0x11
 5183 05f7 C9000000 		.4byte	0xc9
 5184 05fb 1C       		.byte	0x1c
 5185 05fc 08       		.uleb128 0x8
 5186 05fd AC080000 		.4byte	.LASF99
ARM GAS  /tmp/cczbsEFl.s 			page 92


 5187 0601 09       		.byte	0x9
 5188 0602 CE       		.byte	0xce
 5189 0603 11       		.byte	0x11
 5190 0604 C9000000 		.4byte	0xc9
 5191 0608 20       		.byte	0x20
 5192 0609 18       		.uleb128 0x18
 5193 060a 48545200 		.ascii	"HTR\000"
 5194 060e 09       		.byte	0x9
 5195 060f CF       		.byte	0xcf
 5196 0610 11       		.byte	0x11
 5197 0611 C9000000 		.4byte	0xc9
 5198 0615 24       		.byte	0x24
 5199 0616 18       		.uleb128 0x18
 5200 0617 4C545200 		.ascii	"LTR\000"
 5201 061b 09       		.byte	0x9
 5202 061c D0       		.byte	0xd0
 5203 061d 11       		.byte	0x11
 5204 061e C9000000 		.4byte	0xc9
 5205 0622 28       		.byte	0x28
 5206 0623 08       		.uleb128 0x8
 5207 0624 370F0000 		.4byte	.LASF100
 5208 0628 09       		.byte	0x9
 5209 0629 D1       		.byte	0xd1
 5210 062a 11       		.byte	0x11
 5211 062b C9000000 		.4byte	0xc9
 5212 062f 2C       		.byte	0x2c
 5213 0630 08       		.uleb128 0x8
 5214 0631 3C0F0000 		.4byte	.LASF101
 5215 0635 09       		.byte	0x9
 5216 0636 D2       		.byte	0xd2
 5217 0637 11       		.byte	0x11
 5218 0638 C9000000 		.4byte	0xc9
 5219 063c 30       		.byte	0x30
 5220 063d 08       		.uleb128 0x8
 5221 063e 410F0000 		.4byte	.LASF102
 5222 0642 09       		.byte	0x9
 5223 0643 D3       		.byte	0xd3
 5224 0644 11       		.byte	0x11
 5225 0645 C9000000 		.4byte	0xc9
 5226 0649 34       		.byte	0x34
 5227 064a 08       		.uleb128 0x8
 5228 064b 3E0A0000 		.4byte	.LASF103
 5229 064f 09       		.byte	0x9
 5230 0650 D4       		.byte	0xd4
 5231 0651 11       		.byte	0x11
 5232 0652 C9000000 		.4byte	0xc9
 5233 0656 38       		.byte	0x38
 5234 0657 08       		.uleb128 0x8
 5235 0658 461D0000 		.4byte	.LASF104
 5236 065c 09       		.byte	0x9
 5237 065d D5       		.byte	0xd5
 5238 065e 11       		.byte	0x11
 5239 065f C9000000 		.4byte	0xc9
 5240 0663 3C       		.byte	0x3c
 5241 0664 08       		.uleb128 0x8
 5242 0665 4B1D0000 		.4byte	.LASF105
 5243 0669 09       		.byte	0x9
ARM GAS  /tmp/cczbsEFl.s 			page 93


 5244 066a D6       		.byte	0xd6
 5245 066b 11       		.byte	0x11
 5246 066c C9000000 		.4byte	0xc9
 5247 0670 40       		.byte	0x40
 5248 0671 08       		.uleb128 0x8
 5249 0672 501D0000 		.4byte	.LASF106
 5250 0676 09       		.byte	0x9
 5251 0677 D7       		.byte	0xd7
 5252 0678 11       		.byte	0x11
 5253 0679 C9000000 		.4byte	0xc9
 5254 067d 44       		.byte	0x44
 5255 067e 08       		.uleb128 0x8
 5256 067f 551D0000 		.4byte	.LASF107
 5257 0683 09       		.byte	0x9
 5258 0684 D8       		.byte	0xd8
 5259 0685 11       		.byte	0x11
 5260 0686 C9000000 		.4byte	0xc9
 5261 068a 48       		.byte	0x48
 5262 068b 18       		.uleb128 0x18
 5263 068c 445200   		.ascii	"DR\000"
 5264 068f 09       		.byte	0x9
 5265 0690 D9       		.byte	0xd9
 5266 0691 11       		.byte	0x11
 5267 0692 C9000000 		.4byte	0xc9
 5268 0696 4C       		.byte	0x4c
 5269 0697 00       		.byte	0
 5270 0698 04       		.uleb128 0x4
 5271 0699 25120000 		.4byte	.LASF108
 5272 069d 09       		.byte	0x9
 5273 069e DA       		.byte	0xda
 5274 069f 03       		.byte	0x3
 5275 06a0 8C050000 		.4byte	0x58c
 5276 06a4 17       		.uleb128 0x17
 5277 06a5 10       		.byte	0x10
 5278 06a6 09       		.byte	0x9
 5279 06a7 E9       		.byte	0xe9
 5280 06a8 09       		.byte	0x9
 5281 06a9 E2060000 		.4byte	0x6e2
 5282 06ad 18       		.uleb128 0x18
 5283 06ae 54495200 		.ascii	"TIR\000"
 5284 06b2 09       		.byte	0x9
 5285 06b3 EB       		.byte	0xeb
 5286 06b4 11       		.byte	0x11
 5287 06b5 C9000000 		.4byte	0xc9
 5288 06b9 00       		.byte	0
 5289 06ba 08       		.uleb128 0x8
 5290 06bb 3D0D0000 		.4byte	.LASF109
 5291 06bf 09       		.byte	0x9
 5292 06c0 EC       		.byte	0xec
 5293 06c1 11       		.byte	0x11
 5294 06c2 C9000000 		.4byte	0xc9
 5295 06c6 04       		.byte	0x4
 5296 06c7 08       		.uleb128 0x8
 5297 06c8 72140000 		.4byte	.LASF110
 5298 06cc 09       		.byte	0x9
 5299 06cd ED       		.byte	0xed
 5300 06ce 11       		.byte	0x11
ARM GAS  /tmp/cczbsEFl.s 			page 94


 5301 06cf C9000000 		.4byte	0xc9
 5302 06d3 08       		.byte	0x8
 5303 06d4 08       		.uleb128 0x8
 5304 06d5 81120000 		.4byte	.LASF111
 5305 06d9 09       		.byte	0x9
 5306 06da EE       		.byte	0xee
 5307 06db 11       		.byte	0x11
 5308 06dc C9000000 		.4byte	0xc9
 5309 06e0 0C       		.byte	0xc
 5310 06e1 00       		.byte	0
 5311 06e2 04       		.uleb128 0x4
 5312 06e3 3E040000 		.4byte	.LASF112
 5313 06e7 09       		.byte	0x9
 5314 06e8 EF       		.byte	0xef
 5315 06e9 03       		.byte	0x3
 5316 06ea A4060000 		.4byte	0x6a4
 5317 06ee 17       		.uleb128 0x17
 5318 06ef 10       		.byte	0x10
 5319 06f0 09       		.byte	0x9
 5320 06f1 F5       		.byte	0xf5
 5321 06f2 09       		.byte	0x9
 5322 06f3 2C070000 		.4byte	0x72c
 5323 06f7 18       		.uleb128 0x18
 5324 06f8 52495200 		.ascii	"RIR\000"
 5325 06fc 09       		.byte	0x9
 5326 06fd F7       		.byte	0xf7
 5327 06fe 11       		.byte	0x11
 5328 06ff C9000000 		.4byte	0xc9
 5329 0703 00       		.byte	0
 5330 0704 08       		.uleb128 0x8
 5331 0705 74190000 		.4byte	.LASF113
 5332 0709 09       		.byte	0x9
 5333 070a F8       		.byte	0xf8
 5334 070b 11       		.byte	0x11
 5335 070c C9000000 		.4byte	0xc9
 5336 0710 04       		.byte	0x4
 5337 0711 08       		.uleb128 0x8
 5338 0712 84150000 		.4byte	.LASF114
 5339 0716 09       		.byte	0x9
 5340 0717 F9       		.byte	0xf9
 5341 0718 11       		.byte	0x11
 5342 0719 C9000000 		.4byte	0xc9
 5343 071d 08       		.byte	0x8
 5344 071e 08       		.uleb128 0x8
 5345 071f 85130000 		.4byte	.LASF115
 5346 0723 09       		.byte	0x9
 5347 0724 FA       		.byte	0xfa
 5348 0725 11       		.byte	0x11
 5349 0726 C9000000 		.4byte	0xc9
 5350 072a 0C       		.byte	0xc
 5351 072b 00       		.byte	0
 5352 072c 04       		.uleb128 0x4
 5353 072d E3180000 		.4byte	.LASF116
 5354 0731 09       		.byte	0x9
 5355 0732 FB       		.byte	0xfb
 5356 0733 03       		.byte	0x3
 5357 0734 EE060000 		.4byte	0x6ee
ARM GAS  /tmp/cczbsEFl.s 			page 95


 5358 0738 19       		.uleb128 0x19
 5359 0739 08       		.byte	0x8
 5360 073a 09       		.byte	0x9
 5361 073b 0101     		.2byte	0x101
 5362 073d 09       		.byte	0x9
 5363 073e 5F070000 		.4byte	0x75f
 5364 0742 09       		.uleb128 0x9
 5365 0743 46523100 		.ascii	"FR1\000"
 5366 0747 09       		.byte	0x9
 5367 0748 0301     		.2byte	0x103
 5368 074a 11       		.byte	0x11
 5369 074b C9000000 		.4byte	0xc9
 5370 074f 00       		.byte	0
 5371 0750 09       		.uleb128 0x9
 5372 0751 46523200 		.ascii	"FR2\000"
 5373 0755 09       		.byte	0x9
 5374 0756 0401     		.2byte	0x104
 5375 0758 11       		.byte	0x11
 5376 0759 C9000000 		.4byte	0xc9
 5377 075d 04       		.byte	0x4
 5378 075e 00       		.byte	0
 5379 075f 1A       		.uleb128 0x1a
 5380 0760 420D0000 		.4byte	.LASF117
 5381 0764 09       		.byte	0x9
 5382 0765 0501     		.2byte	0x105
 5383 0767 03       		.byte	0x3
 5384 0768 38070000 		.4byte	0x738
 5385 076c 1B       		.uleb128 0x1b
 5386 076d 2003     		.2byte	0x320
 5387 076f 09       		.byte	0x9
 5388 0770 0B01     		.2byte	0x10b
 5389 0772 09       		.byte	0x9
 5390 0773 B9080000 		.4byte	0x8b9
 5391 0777 09       		.uleb128 0x9
 5392 0778 4D435200 		.ascii	"MCR\000"
 5393 077c 09       		.byte	0x9
 5394 077d 0D01     		.2byte	0x10d
 5395 077f 1E       		.byte	0x1e
 5396 0780 C9000000 		.4byte	0xc9
 5397 0784 00       		.byte	0
 5398 0785 09       		.uleb128 0x9
 5399 0786 4D535200 		.ascii	"MSR\000"
 5400 078a 09       		.byte	0x9
 5401 078b 0E01     		.2byte	0x10e
 5402 078d 1E       		.byte	0x1e
 5403 078e C9000000 		.4byte	0xc9
 5404 0792 04       		.byte	0x4
 5405 0793 09       		.uleb128 0x9
 5406 0794 54535200 		.ascii	"TSR\000"
 5407 0798 09       		.byte	0x9
 5408 0799 0F01     		.2byte	0x10f
 5409 079b 1E       		.byte	0x1e
 5410 079c C9000000 		.4byte	0xc9
 5411 07a0 08       		.byte	0x8
 5412 07a1 0A       		.uleb128 0xa
 5413 07a2 0E0C0000 		.4byte	.LASF118
 5414 07a6 09       		.byte	0x9
ARM GAS  /tmp/cczbsEFl.s 			page 96


 5415 07a7 1001     		.2byte	0x110
 5416 07a9 1E       		.byte	0x1e
 5417 07aa C9000000 		.4byte	0xc9
 5418 07ae 0C       		.byte	0xc
 5419 07af 0A       		.uleb128 0xa
 5420 07b0 9E0C0000 		.4byte	.LASF119
 5421 07b4 09       		.byte	0x9
 5422 07b5 1101     		.2byte	0x111
 5423 07b7 1E       		.byte	0x1e
 5424 07b8 C9000000 		.4byte	0xc9
 5425 07bc 10       		.byte	0x10
 5426 07bd 09       		.uleb128 0x9
 5427 07be 49455200 		.ascii	"IER\000"
 5428 07c2 09       		.byte	0x9
 5429 07c3 1201     		.2byte	0x112
 5430 07c5 1E       		.byte	0x1e
 5431 07c6 C9000000 		.4byte	0xc9
 5432 07ca 14       		.byte	0x14
 5433 07cb 09       		.uleb128 0x9
 5434 07cc 45535200 		.ascii	"ESR\000"
 5435 07d0 09       		.byte	0x9
 5436 07d1 1301     		.2byte	0x113
 5437 07d3 1E       		.byte	0x1e
 5438 07d4 C9000000 		.4byte	0xc9
 5439 07d8 18       		.byte	0x18
 5440 07d9 09       		.uleb128 0x9
 5441 07da 42545200 		.ascii	"BTR\000"
 5442 07de 09       		.byte	0x9
 5443 07df 1401     		.2byte	0x114
 5444 07e1 1E       		.byte	0x1e
 5445 07e2 C9000000 		.4byte	0xc9
 5446 07e6 1C       		.byte	0x1c
 5447 07e7 0A       		.uleb128 0xa
 5448 07e8 AC1A0000 		.4byte	.LASF120
 5449 07ec 09       		.byte	0x9
 5450 07ed 1501     		.2byte	0x115
 5451 07ef 1E       		.byte	0x1e
 5452 07f0 B9080000 		.4byte	0x8b9
 5453 07f4 20       		.byte	0x20
 5454 07f5 11       		.uleb128 0x11
 5455 07f6 2B0E0000 		.4byte	.LASF121
 5456 07fa 09       		.byte	0x9
 5457 07fb 1601     		.2byte	0x116
 5458 07fd 1E       		.byte	0x1e
 5459 07fe C9080000 		.4byte	0x8c9
 5460 0802 8001     		.2byte	0x180
 5461 0804 11       		.uleb128 0x11
 5462 0805 7F1E0000 		.4byte	.LASF122
 5463 0809 09       		.byte	0x9
 5464 080a 1701     		.2byte	0x117
 5465 080c 1E       		.byte	0x1e
 5466 080d D9080000 		.4byte	0x8d9
 5467 0811 B001     		.2byte	0x1b0
 5468 0813 11       		.uleb128 0x11
 5469 0814 B61A0000 		.4byte	.LASF123
 5470 0818 09       		.byte	0x9
 5471 0819 1801     		.2byte	0x118
ARM GAS  /tmp/cczbsEFl.s 			page 97


 5472 081b 1E       		.byte	0x1e
 5473 081c E9080000 		.4byte	0x8e9
 5474 0820 D001     		.2byte	0x1d0
 5475 0822 12       		.uleb128 0x12
 5476 0823 464D5200 		.ascii	"FMR\000"
 5477 0827 09       		.byte	0x9
 5478 0828 1901     		.2byte	0x119
 5479 082a 1E       		.byte	0x1e
 5480 082b C9000000 		.4byte	0xc9
 5481 082f 0002     		.2byte	0x200
 5482 0831 11       		.uleb128 0x11
 5483 0832 0C090000 		.4byte	.LASF124
 5484 0836 09       		.byte	0x9
 5485 0837 1A01     		.2byte	0x11a
 5486 0839 1E       		.byte	0x1e
 5487 083a C9000000 		.4byte	0xc9
 5488 083e 0402     		.2byte	0x204
 5489 0840 11       		.uleb128 0x11
 5490 0841 C01A0000 		.4byte	.LASF125
 5491 0845 09       		.byte	0x9
 5492 0846 1B01     		.2byte	0x11b
 5493 0848 1E       		.byte	0x1e
 5494 0849 BD000000 		.4byte	0xbd
 5495 084d 0802     		.2byte	0x208
 5496 084f 11       		.uleb128 0x11
 5497 0850 CB1C0000 		.4byte	.LASF126
 5498 0854 09       		.byte	0x9
 5499 0855 1C01     		.2byte	0x11c
 5500 0857 1E       		.byte	0x1e
 5501 0858 C9000000 		.4byte	0xc9
 5502 085c 0C02     		.2byte	0x20c
 5503 085e 11       		.uleb128 0x11
 5504 085f CA1A0000 		.4byte	.LASF127
 5505 0863 09       		.byte	0x9
 5506 0864 1D01     		.2byte	0x11d
 5507 0866 1E       		.byte	0x1e
 5508 0867 BD000000 		.4byte	0xbd
 5509 086b 1002     		.2byte	0x210
 5510 086d 11       		.uleb128 0x11
 5511 086e BB150000 		.4byte	.LASF128
 5512 0872 09       		.byte	0x9
 5513 0873 1E01     		.2byte	0x11e
 5514 0875 1E       		.byte	0x1e
 5515 0876 C9000000 		.4byte	0xc9
 5516 087a 1402     		.2byte	0x214
 5517 087c 11       		.uleb128 0x11
 5518 087d D41A0000 		.4byte	.LASF129
 5519 0881 09       		.byte	0x9
 5520 0882 1F01     		.2byte	0x11f
 5521 0884 1E       		.byte	0x1e
 5522 0885 BD000000 		.4byte	0xbd
 5523 0889 1802     		.2byte	0x218
 5524 088b 11       		.uleb128 0x11
 5525 088c 49030000 		.4byte	.LASF130
 5526 0890 09       		.byte	0x9
 5527 0891 2001     		.2byte	0x120
 5528 0893 1E       		.byte	0x1e
ARM GAS  /tmp/cczbsEFl.s 			page 98


 5529 0894 C9000000 		.4byte	0xc9
 5530 0898 1C02     		.2byte	0x21c
 5531 089a 11       		.uleb128 0x11
 5532 089b DE1A0000 		.4byte	.LASF131
 5533 089f 09       		.byte	0x9
 5534 08a0 2101     		.2byte	0x121
 5535 08a2 1E       		.byte	0x1e
 5536 08a3 63050000 		.4byte	0x563
 5537 08a7 2002     		.2byte	0x220
 5538 08a9 11       		.uleb128 0x11
 5539 08aa E3040000 		.4byte	.LASF132
 5540 08ae 09       		.byte	0x9
 5541 08af 2201     		.2byte	0x122
 5542 08b1 1E       		.byte	0x1e
 5543 08b2 F9080000 		.4byte	0x8f9
 5544 08b6 4002     		.2byte	0x240
 5545 08b8 00       		.byte	0
 5546 08b9 13       		.uleb128 0x13
 5547 08ba BD000000 		.4byte	0xbd
 5548 08be C9080000 		.4byte	0x8c9
 5549 08c2 14       		.uleb128 0x14
 5550 08c3 2C000000 		.4byte	0x2c
 5551 08c7 57       		.byte	0x57
 5552 08c8 00       		.byte	0
 5553 08c9 13       		.uleb128 0x13
 5554 08ca E2060000 		.4byte	0x6e2
 5555 08ce D9080000 		.4byte	0x8d9
 5556 08d2 14       		.uleb128 0x14
 5557 08d3 2C000000 		.4byte	0x2c
 5558 08d7 02       		.byte	0x2
 5559 08d8 00       		.byte	0
 5560 08d9 13       		.uleb128 0x13
 5561 08da 2C070000 		.4byte	0x72c
 5562 08de E9080000 		.4byte	0x8e9
 5563 08e2 14       		.uleb128 0x14
 5564 08e3 2C000000 		.4byte	0x2c
 5565 08e7 01       		.byte	0x1
 5566 08e8 00       		.byte	0
 5567 08e9 13       		.uleb128 0x13
 5568 08ea BD000000 		.4byte	0xbd
 5569 08ee F9080000 		.4byte	0x8f9
 5570 08f2 14       		.uleb128 0x14
 5571 08f3 2C000000 		.4byte	0x2c
 5572 08f7 0B       		.byte	0xb
 5573 08f8 00       		.byte	0
 5574 08f9 13       		.uleb128 0x13
 5575 08fa 5F070000 		.4byte	0x75f
 5576 08fe 09090000 		.4byte	0x909
 5577 0902 14       		.uleb128 0x14
 5578 0903 2C000000 		.4byte	0x2c
 5579 0907 1B       		.byte	0x1b
 5580 0908 00       		.byte	0
 5581 0909 1A       		.uleb128 0x1a
 5582 090a F40A0000 		.4byte	.LASF133
 5583 090e 09       		.byte	0x9
 5584 090f 2301     		.2byte	0x123
 5585 0911 03       		.byte	0x3
ARM GAS  /tmp/cczbsEFl.s 			page 99


 5586 0912 6C070000 		.4byte	0x76c
 5587 0916 19       		.uleb128 0x19
 5588 0917 38       		.byte	0x38
 5589 0918 09       		.byte	0x9
 5590 0919 3601     		.2byte	0x136
 5591 091b 09       		.byte	0x9
 5592 091c E3090000 		.4byte	0x9e3
 5593 0920 09       		.uleb128 0x9
 5594 0921 435200   		.ascii	"CR\000"
 5595 0924 09       		.byte	0x9
 5596 0925 3801     		.2byte	0x138
 5597 0927 11       		.byte	0x11
 5598 0928 C9000000 		.4byte	0xc9
 5599 092c 00       		.byte	0
 5600 092d 0A       		.uleb128 0xa
 5601 092e 5D130000 		.4byte	.LASF134
 5602 0932 09       		.byte	0x9
 5603 0933 3901     		.2byte	0x139
 5604 0935 11       		.byte	0x11
 5605 0936 C9000000 		.4byte	0xc9
 5606 093a 04       		.byte	0x4
 5607 093b 0A       		.uleb128 0xa
 5608 093c FA1A0000 		.4byte	.LASF135
 5609 0940 09       		.byte	0x9
 5610 0941 3A01     		.2byte	0x13a
 5611 0943 11       		.byte	0x11
 5612 0944 C9000000 		.4byte	0xc9
 5613 0948 08       		.byte	0x8
 5614 0949 0A       		.uleb128 0xa
 5615 094a 45170000 		.4byte	.LASF136
 5616 094e 09       		.byte	0x9
 5617 094f 3B01     		.2byte	0x13b
 5618 0951 11       		.byte	0x11
 5619 0952 C9000000 		.4byte	0xc9
 5620 0956 0C       		.byte	0xc
 5621 0957 0A       		.uleb128 0xa
 5622 0958 7A080000 		.4byte	.LASF137
 5623 095c 09       		.byte	0x9
 5624 095d 3C01     		.2byte	0x13c
 5625 095f 11       		.byte	0x11
 5626 0960 C9000000 		.4byte	0xc9
 5627 0964 10       		.byte	0x10
 5628 0965 0A       		.uleb128 0xa
 5629 0966 021B0000 		.4byte	.LASF138
 5630 096a 09       		.byte	0x9
 5631 096b 3D01     		.2byte	0x13d
 5632 096d 11       		.byte	0x11
 5633 096e C9000000 		.4byte	0xc9
 5634 0972 14       		.byte	0x14
 5635 0973 0A       		.uleb128 0xa
 5636 0974 4D170000 		.4byte	.LASF139
 5637 0978 09       		.byte	0x9
 5638 0979 3E01     		.2byte	0x13e
 5639 097b 11       		.byte	0x11
 5640 097c C9000000 		.4byte	0xc9
 5641 0980 18       		.byte	0x18
 5642 0981 0A       		.uleb128 0xa
ARM GAS  /tmp/cczbsEFl.s 			page 100


 5643 0982 81080000 		.4byte	.LASF140
 5644 0986 09       		.byte	0x9
 5645 0987 3F01     		.2byte	0x13f
 5646 0989 11       		.byte	0x11
 5647 098a C9000000 		.4byte	0xc9
 5648 098e 1C       		.byte	0x1c
 5649 098f 0A       		.uleb128 0xa
 5650 0990 491B0000 		.4byte	.LASF141
 5651 0994 09       		.byte	0x9
 5652 0995 4001     		.2byte	0x140
 5653 0997 11       		.byte	0x11
 5654 0998 C9000000 		.4byte	0xc9
 5655 099c 20       		.byte	0x20
 5656 099d 0A       		.uleb128 0xa
 5657 099e B6170000 		.4byte	.LASF142
 5658 09a2 09       		.byte	0x9
 5659 09a3 4101     		.2byte	0x141
 5660 09a5 11       		.byte	0x11
 5661 09a6 C9000000 		.4byte	0xc9
 5662 09aa 24       		.byte	0x24
 5663 09ab 0A       		.uleb128 0xa
 5664 09ac 961E0000 		.4byte	.LASF143
 5665 09b0 09       		.byte	0x9
 5666 09b1 4201     		.2byte	0x142
 5667 09b3 11       		.byte	0x11
 5668 09b4 C9000000 		.4byte	0xc9
 5669 09b8 28       		.byte	0x28
 5670 09b9 0A       		.uleb128 0xa
 5671 09ba 23010000 		.4byte	.LASF144
 5672 09be 09       		.byte	0x9
 5673 09bf 4301     		.2byte	0x143
 5674 09c1 11       		.byte	0x11
 5675 09c2 C9000000 		.4byte	0xc9
 5676 09c6 2C       		.byte	0x2c
 5677 09c7 0A       		.uleb128 0xa
 5678 09c8 28010000 		.4byte	.LASF145
 5679 09cc 09       		.byte	0x9
 5680 09cd 4401     		.2byte	0x144
 5681 09cf 11       		.byte	0x11
 5682 09d0 C9000000 		.4byte	0xc9
 5683 09d4 30       		.byte	0x30
 5684 09d5 09       		.uleb128 0x9
 5685 09d6 535200   		.ascii	"SR\000"
 5686 09d9 09       		.byte	0x9
 5687 09da 4501     		.2byte	0x145
 5688 09dc 11       		.byte	0x11
 5689 09dd C9000000 		.4byte	0xc9
 5690 09e1 34       		.byte	0x34
 5691 09e2 00       		.byte	0
 5692 09e3 1A       		.uleb128 0x1a
 5693 09e4 FB180000 		.4byte	.LASF146
 5694 09e8 09       		.byte	0x9
 5695 09e9 4601     		.2byte	0x146
 5696 09eb 03       		.byte	0x3
 5697 09ec 16090000 		.4byte	0x916
 5698 09f0 19       		.uleb128 0x19
 5699 09f1 18       		.byte	0x18
ARM GAS  /tmp/cczbsEFl.s 			page 101


 5700 09f2 09       		.byte	0x9
 5701 09f3 6B01     		.2byte	0x16b
 5702 09f5 09       		.byte	0x9
 5703 09f6 4E0A0000 		.4byte	0xa4e
 5704 09fa 09       		.uleb128 0x9
 5705 09fb 435200   		.ascii	"CR\000"
 5706 09fe 09       		.byte	0x9
 5707 09ff 6D01     		.2byte	0x16d
 5708 0a01 11       		.byte	0x11
 5709 0a02 C9000000 		.4byte	0xc9
 5710 0a06 00       		.byte	0
 5711 0a07 0A       		.uleb128 0xa
 5712 0a08 081C0000 		.4byte	.LASF147
 5713 0a0c 09       		.byte	0x9
 5714 0a0d 6E01     		.2byte	0x16e
 5715 0a0f 11       		.byte	0x11
 5716 0a10 C9000000 		.4byte	0xc9
 5717 0a14 04       		.byte	0x4
 5718 0a15 09       		.uleb128 0x9
 5719 0a16 50415200 		.ascii	"PAR\000"
 5720 0a1a 09       		.byte	0x9
 5721 0a1b 6F01     		.2byte	0x16f
 5722 0a1d 11       		.byte	0x11
 5723 0a1e C9000000 		.4byte	0xc9
 5724 0a22 08       		.byte	0x8
 5725 0a23 0A       		.uleb128 0xa
 5726 0a24 2B030000 		.4byte	.LASF148
 5727 0a28 09       		.byte	0x9
 5728 0a29 7001     		.2byte	0x170
 5729 0a2b 11       		.byte	0x11
 5730 0a2c C9000000 		.4byte	0xc9
 5731 0a30 0C       		.byte	0xc
 5732 0a31 0A       		.uleb128 0xa
 5733 0a32 A3060000 		.4byte	.LASF149
 5734 0a36 09       		.byte	0x9
 5735 0a37 7101     		.2byte	0x171
 5736 0a39 11       		.byte	0x11
 5737 0a3a C9000000 		.4byte	0xc9
 5738 0a3e 10       		.byte	0x10
 5739 0a3f 09       		.uleb128 0x9
 5740 0a40 46435200 		.ascii	"FCR\000"
 5741 0a44 09       		.byte	0x9
 5742 0a45 7201     		.2byte	0x172
 5743 0a47 11       		.byte	0x11
 5744 0a48 C9000000 		.4byte	0xc9
 5745 0a4c 14       		.byte	0x14
 5746 0a4d 00       		.byte	0
 5747 0a4e 1A       		.uleb128 0x1a
 5748 0a4f AD060000 		.4byte	.LASF150
 5749 0a53 09       		.byte	0x9
 5750 0a54 7301     		.2byte	0x173
 5751 0a56 03       		.byte	0x3
 5752 0a57 F0090000 		.4byte	0x9f0
 5753 0a5b 13       		.uleb128 0x13
 5754 0a5c C9000000 		.4byte	0xc9
 5755 0a60 6B0A0000 		.4byte	0xa6b
 5756 0a64 14       		.uleb128 0x14
ARM GAS  /tmp/cczbsEFl.s 			page 102


 5757 0a65 2C000000 		.4byte	0x2c
 5758 0a69 01       		.byte	0x1
 5759 0a6a 00       		.byte	0
 5760 0a6b 05       		.uleb128 0x5
 5761 0a6c 5B0A0000 		.4byte	0xa5b
 5762 0a70 13       		.uleb128 0x13
 5763 0a71 C9000000 		.4byte	0xc9
 5764 0a75 800A0000 		.4byte	0xa80
 5765 0a79 14       		.uleb128 0x14
 5766 0a7a 2C000000 		.4byte	0x2c
 5767 0a7e 03       		.byte	0x3
 5768 0a7f 00       		.byte	0
 5769 0a80 05       		.uleb128 0x5
 5770 0a81 700A0000 		.4byte	0xa70
 5771 0a85 19       		.uleb128 0x19
 5772 0a86 28       		.byte	0x28
 5773 0a87 09       		.byte	0x9
 5774 0a88 3F02     		.2byte	0x23f
 5775 0a8a 09       		.byte	0x9
 5776 0a8b 1B0B0000 		.4byte	0xb1b
 5777 0a8f 09       		.uleb128 0x9
 5778 0a90 43523100 		.ascii	"CR1\000"
 5779 0a94 09       		.byte	0x9
 5780 0a95 4102     		.2byte	0x241
 5781 0a97 11       		.byte	0x11
 5782 0a98 C9000000 		.4byte	0xc9
 5783 0a9c 00       		.byte	0
 5784 0a9d 09       		.uleb128 0x9
 5785 0a9e 43523200 		.ascii	"CR2\000"
 5786 0aa2 09       		.byte	0x9
 5787 0aa3 4202     		.2byte	0x242
 5788 0aa5 11       		.byte	0x11
 5789 0aa6 C9000000 		.4byte	0xc9
 5790 0aaa 04       		.byte	0x4
 5791 0aab 0A       		.uleb128 0xa
 5792 0aac 4C210000 		.4byte	.LASF151
 5793 0ab0 09       		.byte	0x9
 5794 0ab1 4302     		.2byte	0x243
 5795 0ab3 11       		.byte	0x11
 5796 0ab4 C9000000 		.4byte	0xc9
 5797 0ab8 08       		.byte	0x8
 5798 0ab9 0A       		.uleb128 0xa
 5799 0aba 51210000 		.4byte	.LASF152
 5800 0abe 09       		.byte	0x9
 5801 0abf 4402     		.2byte	0x244
 5802 0ac1 11       		.byte	0x11
 5803 0ac2 C9000000 		.4byte	0xc9
 5804 0ac6 0C       		.byte	0xc
 5805 0ac7 09       		.uleb128 0x9
 5806 0ac8 445200   		.ascii	"DR\000"
 5807 0acb 09       		.byte	0x9
 5808 0acc 4502     		.2byte	0x245
 5809 0ace 11       		.byte	0x11
 5810 0acf C9000000 		.4byte	0xc9
 5811 0ad3 10       		.byte	0x10
 5812 0ad4 09       		.uleb128 0x9
 5813 0ad5 53523100 		.ascii	"SR1\000"
ARM GAS  /tmp/cczbsEFl.s 			page 103


 5814 0ad9 09       		.byte	0x9
 5815 0ada 4602     		.2byte	0x246
 5816 0adc 11       		.byte	0x11
 5817 0add C9000000 		.4byte	0xc9
 5818 0ae1 14       		.byte	0x14
 5819 0ae2 09       		.uleb128 0x9
 5820 0ae3 53523200 		.ascii	"SR2\000"
 5821 0ae7 09       		.byte	0x9
 5822 0ae8 4702     		.2byte	0x247
 5823 0aea 11       		.byte	0x11
 5824 0aeb C9000000 		.4byte	0xc9
 5825 0aef 18       		.byte	0x18
 5826 0af0 09       		.uleb128 0x9
 5827 0af1 43435200 		.ascii	"CCR\000"
 5828 0af5 09       		.byte	0x9
 5829 0af6 4802     		.2byte	0x248
 5830 0af8 11       		.byte	0x11
 5831 0af9 C9000000 		.4byte	0xc9
 5832 0afd 1C       		.byte	0x1c
 5833 0afe 0A       		.uleb128 0xa
 5834 0aff 0C040000 		.4byte	.LASF153
 5835 0b03 09       		.byte	0x9
 5836 0b04 4902     		.2byte	0x249
 5837 0b06 11       		.byte	0x11
 5838 0b07 C9000000 		.4byte	0xc9
 5839 0b0b 20       		.byte	0x20
 5840 0b0c 0A       		.uleb128 0xa
 5841 0b0d 11200000 		.4byte	.LASF154
 5842 0b11 09       		.byte	0x9
 5843 0b12 4A02     		.2byte	0x24a
 5844 0b14 11       		.byte	0x11
 5845 0b15 C9000000 		.4byte	0xc9
 5846 0b19 24       		.byte	0x24
 5847 0b1a 00       		.byte	0
 5848 0b1b 1A       		.uleb128 0x1a
 5849 0b1c 79130000 		.4byte	.LASF155
 5850 0b20 09       		.byte	0x9
 5851 0b21 4B02     		.2byte	0x24b
 5852 0b23 03       		.byte	0x3
 5853 0b24 850A0000 		.4byte	0xa85
 5854 0b28 19       		.uleb128 0x19
 5855 0b29 84       		.byte	0x84
 5856 0b2a 09       		.byte	0x9
 5857 0b2b BF02     		.2byte	0x2bf
 5858 0b2d 09       		.byte	0x9
 5859 0b2e 4B0C0000 		.4byte	0xc4b
 5860 0b32 0A       		.uleb128 0xa
 5861 0b33 BE130000 		.4byte	.LASF156
 5862 0b37 09       		.byte	0x9
 5863 0b38 C102     		.2byte	0x2c1
 5864 0b3a 11       		.byte	0x11
 5865 0b3b C9000000 		.4byte	0xc9
 5866 0b3f 00       		.byte	0
 5867 0b40 0A       		.uleb128 0xa
 5868 0b41 221D0000 		.4byte	.LASF157
 5869 0b45 09       		.byte	0x9
 5870 0b46 C202     		.2byte	0x2c2
ARM GAS  /tmp/cczbsEFl.s 			page 104


 5871 0b48 11       		.byte	0x11
 5872 0b49 C9000000 		.4byte	0xc9
 5873 0b4d 04       		.byte	0x4
 5874 0b4e 09       		.uleb128 0x9
 5875 0b4f 41524700 		.ascii	"ARG\000"
 5876 0b53 09       		.byte	0x9
 5877 0b54 C302     		.2byte	0x2c3
 5878 0b56 11       		.byte	0x11
 5879 0b57 C9000000 		.4byte	0xc9
 5880 0b5b 08       		.byte	0x8
 5881 0b5c 09       		.uleb128 0x9
 5882 0b5d 434D4400 		.ascii	"CMD\000"
 5883 0b61 09       		.byte	0x9
 5884 0b62 C402     		.2byte	0x2c4
 5885 0b64 11       		.byte	0x11
 5886 0b65 C9000000 		.4byte	0xc9
 5887 0b69 0C       		.byte	0xc
 5888 0b6a 0A       		.uleb128 0xa
 5889 0b6b 3D160000 		.4byte	.LASF158
 5890 0b6f 09       		.byte	0x9
 5891 0b70 C502     		.2byte	0x2c5
 5892 0b72 11       		.byte	0x11
 5893 0b73 CE000000 		.4byte	0xce
 5894 0b77 10       		.byte	0x10
 5895 0b78 0A       		.uleb128 0xa
 5896 0b79 0D050000 		.4byte	.LASF159
 5897 0b7d 09       		.byte	0x9
 5898 0b7e C602     		.2byte	0x2c6
 5899 0b80 11       		.byte	0x11
 5900 0b81 CE000000 		.4byte	0xce
 5901 0b85 14       		.byte	0x14
 5902 0b86 0A       		.uleb128 0xa
 5903 0b87 13050000 		.4byte	.LASF160
 5904 0b8b 09       		.byte	0x9
 5905 0b8c C702     		.2byte	0x2c7
 5906 0b8e 11       		.byte	0x11
 5907 0b8f CE000000 		.4byte	0xce
 5908 0b93 18       		.byte	0x18
 5909 0b94 0A       		.uleb128 0xa
 5910 0b95 19050000 		.4byte	.LASF161
 5911 0b99 09       		.byte	0x9
 5912 0b9a C802     		.2byte	0x2c8
 5913 0b9c 11       		.byte	0x11
 5914 0b9d CE000000 		.4byte	0xce
 5915 0ba1 1C       		.byte	0x1c
 5916 0ba2 0A       		.uleb128 0xa
 5917 0ba3 1F050000 		.4byte	.LASF162
 5918 0ba7 09       		.byte	0x9
 5919 0ba8 C902     		.2byte	0x2c9
 5920 0baa 11       		.byte	0x11
 5921 0bab CE000000 		.4byte	0xce
 5922 0baf 20       		.byte	0x20
 5923 0bb0 0A       		.uleb128 0xa
 5924 0bb1 89200000 		.4byte	.LASF163
 5925 0bb5 09       		.byte	0x9
 5926 0bb6 CA02     		.2byte	0x2ca
 5927 0bb8 11       		.byte	0x11
ARM GAS  /tmp/cczbsEFl.s 			page 105


 5928 0bb9 C9000000 		.4byte	0xc9
 5929 0bbd 24       		.byte	0x24
 5930 0bbe 0A       		.uleb128 0xa
 5931 0bbf AB120000 		.4byte	.LASF164
 5932 0bc3 09       		.byte	0x9
 5933 0bc4 CB02     		.2byte	0x2cb
 5934 0bc6 11       		.byte	0x11
 5935 0bc7 C9000000 		.4byte	0xc9
 5936 0bcb 28       		.byte	0x28
 5937 0bcc 0A       		.uleb128 0xa
 5938 0bcd FD1F0000 		.4byte	.LASF165
 5939 0bd1 09       		.byte	0x9
 5940 0bd2 CC02     		.2byte	0x2cc
 5941 0bd4 11       		.byte	0x11
 5942 0bd5 C9000000 		.4byte	0xc9
 5943 0bd9 2C       		.byte	0x2c
 5944 0bda 0A       		.uleb128 0xa
 5945 0bdb 45210000 		.4byte	.LASF166
 5946 0bdf 09       		.byte	0x9
 5947 0be0 CD02     		.2byte	0x2cd
 5948 0be2 11       		.byte	0x11
 5949 0be3 CE000000 		.4byte	0xce
 5950 0be7 30       		.byte	0x30
 5951 0be8 09       		.uleb128 0x9
 5952 0be9 53544100 		.ascii	"STA\000"
 5953 0bed 09       		.byte	0x9
 5954 0bee CE02     		.2byte	0x2ce
 5955 0bf0 11       		.byte	0x11
 5956 0bf1 CE000000 		.4byte	0xce
 5957 0bf5 34       		.byte	0x34
 5958 0bf6 09       		.uleb128 0x9
 5959 0bf7 49435200 		.ascii	"ICR\000"
 5960 0bfb 09       		.byte	0x9
 5961 0bfc CF02     		.2byte	0x2cf
 5962 0bfe 11       		.byte	0x11
 5963 0bff C9000000 		.4byte	0xc9
 5964 0c03 38       		.byte	0x38
 5965 0c04 0A       		.uleb128 0xa
 5966 0c05 45010000 		.4byte	.LASF167
 5967 0c09 09       		.byte	0x9
 5968 0c0a D002     		.2byte	0x2d0
 5969 0c0c 11       		.byte	0x11
 5970 0c0d C9000000 		.4byte	0xc9
 5971 0c11 3C       		.byte	0x3c
 5972 0c12 0A       		.uleb128 0xa
 5973 0c13 AC1A0000 		.4byte	.LASF120
 5974 0c17 09       		.byte	0x9
 5975 0c18 D102     		.2byte	0x2d1
 5976 0c1a 11       		.byte	0x11
 5977 0c1b 53050000 		.4byte	0x553
 5978 0c1f 40       		.byte	0x40
 5979 0c20 0A       		.uleb128 0xa
 5980 0c21 CA110000 		.4byte	.LASF168
 5981 0c25 09       		.byte	0x9
 5982 0c26 D202     		.2byte	0x2d2
 5983 0c28 11       		.byte	0x11
 5984 0c29 CE000000 		.4byte	0xce
ARM GAS  /tmp/cczbsEFl.s 			page 106


 5985 0c2d 48       		.byte	0x48
 5986 0c2e 0A       		.uleb128 0xa
 5987 0c2f B61A0000 		.4byte	.LASF123
 5988 0c33 09       		.byte	0x9
 5989 0c34 D302     		.2byte	0x2d3
 5990 0c36 11       		.byte	0x11
 5991 0c37 4B0C0000 		.4byte	0xc4b
 5992 0c3b 4C       		.byte	0x4c
 5993 0c3c 0A       		.uleb128 0xa
 5994 0c3d DC070000 		.4byte	.LASF169
 5995 0c41 09       		.byte	0x9
 5996 0c42 D402     		.2byte	0x2d4
 5997 0c44 11       		.byte	0x11
 5998 0c45 C9000000 		.4byte	0xc9
 5999 0c49 80       		.byte	0x80
 6000 0c4a 00       		.byte	0
 6001 0c4b 13       		.uleb128 0x13
 6002 0c4c BD000000 		.4byte	0xbd
 6003 0c50 5B0C0000 		.4byte	0xc5b
 6004 0c54 14       		.uleb128 0x14
 6005 0c55 2C000000 		.4byte	0x2c
 6006 0c59 0C       		.byte	0xc
 6007 0c5a 00       		.byte	0
 6008 0c5b 1A       		.uleb128 0x1a
 6009 0c5c E61B0000 		.4byte	.LASF170
 6010 0c60 09       		.byte	0x9
 6011 0c61 D502     		.2byte	0x2d5
 6012 0c63 03       		.byte	0x3
 6013 0c64 280B0000 		.4byte	0xb28
 6014 0c68 19       		.uleb128 0x19
 6015 0c69 24       		.byte	0x24
 6016 0c6a 09       		.byte	0x9
 6017 0c6b DB02     		.2byte	0x2db
 6018 0c6d 09       		.byte	0x9
 6019 0c6e EF0C0000 		.4byte	0xcef
 6020 0c72 09       		.uleb128 0x9
 6021 0c73 43523100 		.ascii	"CR1\000"
 6022 0c77 09       		.byte	0x9
 6023 0c78 DD02     		.2byte	0x2dd
 6024 0c7a 11       		.byte	0x11
 6025 0c7b C9000000 		.4byte	0xc9
 6026 0c7f 00       		.byte	0
 6027 0c80 09       		.uleb128 0x9
 6028 0c81 43523200 		.ascii	"CR2\000"
 6029 0c85 09       		.byte	0x9
 6030 0c86 DE02     		.2byte	0x2de
 6031 0c88 11       		.byte	0x11
 6032 0c89 C9000000 		.4byte	0xc9
 6033 0c8d 04       		.byte	0x4
 6034 0c8e 09       		.uleb128 0x9
 6035 0c8f 535200   		.ascii	"SR\000"
 6036 0c92 09       		.byte	0x9
 6037 0c93 DF02     		.2byte	0x2df
 6038 0c95 11       		.byte	0x11
 6039 0c96 C9000000 		.4byte	0xc9
 6040 0c9a 08       		.byte	0x8
 6041 0c9b 09       		.uleb128 0x9
ARM GAS  /tmp/cczbsEFl.s 			page 107


 6042 0c9c 445200   		.ascii	"DR\000"
 6043 0c9f 09       		.byte	0x9
 6044 0ca0 E002     		.2byte	0x2e0
 6045 0ca2 11       		.byte	0x11
 6046 0ca3 C9000000 		.4byte	0xc9
 6047 0ca7 0C       		.byte	0xc
 6048 0ca8 0A       		.uleb128 0xa
 6049 0ca9 49060000 		.4byte	.LASF171
 6050 0cad 09       		.byte	0x9
 6051 0cae E102     		.2byte	0x2e1
 6052 0cb0 11       		.byte	0x11
 6053 0cb1 C9000000 		.4byte	0xc9
 6054 0cb5 10       		.byte	0x10
 6055 0cb6 0A       		.uleb128 0xa
 6056 0cb7 7E090000 		.4byte	.LASF172
 6057 0cbb 09       		.byte	0x9
 6058 0cbc E202     		.2byte	0x2e2
 6059 0cbe 11       		.byte	0x11
 6060 0cbf C9000000 		.4byte	0xc9
 6061 0cc3 14       		.byte	0x14
 6062 0cc4 0A       		.uleb128 0xa
 6063 0cc5 BC080000 		.4byte	.LASF173
 6064 0cc9 09       		.byte	0x9
 6065 0cca E302     		.2byte	0x2e3
 6066 0ccc 11       		.byte	0x11
 6067 0ccd C9000000 		.4byte	0xc9
 6068 0cd1 18       		.byte	0x18
 6069 0cd2 0A       		.uleb128 0xa
 6070 0cd3 D91D0000 		.4byte	.LASF174
 6071 0cd7 09       		.byte	0x9
 6072 0cd8 E402     		.2byte	0x2e4
 6073 0cda 11       		.byte	0x11
 6074 0cdb C9000000 		.4byte	0xc9
 6075 0cdf 1C       		.byte	0x1c
 6076 0ce0 0A       		.uleb128 0xa
 6077 0ce1 0A060000 		.4byte	.LASF175
 6078 0ce5 09       		.byte	0x9
 6079 0ce6 E502     		.2byte	0x2e5
 6080 0ce8 11       		.byte	0x11
 6081 0ce9 C9000000 		.4byte	0xc9
 6082 0ced 20       		.byte	0x20
 6083 0cee 00       		.byte	0
 6084 0cef 1A       		.uleb128 0x1a
 6085 0cf0 461C0000 		.4byte	.LASF176
 6086 0cf4 09       		.byte	0x9
 6087 0cf5 E602     		.2byte	0x2e6
 6088 0cf7 03       		.byte	0x3
 6089 0cf8 680C0000 		.4byte	0xc68
 6090 0cfc 19       		.uleb128 0x19
 6091 0cfd 1C       		.byte	0x1c
 6092 0cfe 09       		.byte	0x9
 6093 0cff 0903     		.2byte	0x309
 6094 0d01 09       		.byte	0x9
 6095 0d02 670D0000 		.4byte	0xd67
 6096 0d06 09       		.uleb128 0x9
 6097 0d07 535200   		.ascii	"SR\000"
 6098 0d0a 09       		.byte	0x9
ARM GAS  /tmp/cczbsEFl.s 			page 108


 6099 0d0b 0B03     		.2byte	0x30b
 6100 0d0d 11       		.byte	0x11
 6101 0d0e C9000000 		.4byte	0xc9
 6102 0d12 00       		.byte	0
 6103 0d13 09       		.uleb128 0x9
 6104 0d14 445200   		.ascii	"DR\000"
 6105 0d17 09       		.byte	0x9
 6106 0d18 0C03     		.2byte	0x30c
 6107 0d1a 11       		.byte	0x11
 6108 0d1b C9000000 		.4byte	0xc9
 6109 0d1f 04       		.byte	0x4
 6110 0d20 09       		.uleb128 0x9
 6111 0d21 42525200 		.ascii	"BRR\000"
 6112 0d25 09       		.byte	0x9
 6113 0d26 0D03     		.2byte	0x30d
 6114 0d28 11       		.byte	0x11
 6115 0d29 C9000000 		.4byte	0xc9
 6116 0d2d 08       		.byte	0x8
 6117 0d2e 09       		.uleb128 0x9
 6118 0d2f 43523100 		.ascii	"CR1\000"
 6119 0d33 09       		.byte	0x9
 6120 0d34 0E03     		.2byte	0x30e
 6121 0d36 11       		.byte	0x11
 6122 0d37 C9000000 		.4byte	0xc9
 6123 0d3b 0C       		.byte	0xc
 6124 0d3c 09       		.uleb128 0x9
 6125 0d3d 43523200 		.ascii	"CR2\000"
 6126 0d41 09       		.byte	0x9
 6127 0d42 0F03     		.2byte	0x30f
 6128 0d44 11       		.byte	0x11
 6129 0d45 C9000000 		.4byte	0xc9
 6130 0d49 10       		.byte	0x10
 6131 0d4a 09       		.uleb128 0x9
 6132 0d4b 43523300 		.ascii	"CR3\000"
 6133 0d4f 09       		.byte	0x9
 6134 0d50 1003     		.2byte	0x310
 6135 0d52 11       		.byte	0x11
 6136 0d53 C9000000 		.4byte	0xc9
 6137 0d57 14       		.byte	0x14
 6138 0d58 0A       		.uleb128 0xa
 6139 0d59 D51F0000 		.4byte	.LASF177
 6140 0d5d 09       		.byte	0x9
 6141 0d5e 1103     		.2byte	0x311
 6142 0d60 11       		.byte	0x11
 6143 0d61 C9000000 		.4byte	0xc9
 6144 0d65 18       		.byte	0x18
 6145 0d66 00       		.byte	0
 6146 0d67 1A       		.uleb128 0x1a
 6147 0d68 B0200000 		.4byte	.LASF178
 6148 0d6c 09       		.byte	0x9
 6149 0d6d 1203     		.2byte	0x312
 6150 0d6f 03       		.byte	0x3
 6151 0d70 FC0C0000 		.4byte	0xcfc
 6152 0d74 13       		.uleb128 0x13
 6153 0d75 C9000000 		.4byte	0xc9
 6154 0d79 840D0000 		.4byte	0xd84
 6155 0d7d 14       		.uleb128 0x14
ARM GAS  /tmp/cczbsEFl.s 			page 109


 6156 0d7e 2C000000 		.4byte	0x2c
 6157 0d82 0E       		.byte	0xe
 6158 0d83 00       		.byte	0
 6159 0d84 05       		.uleb128 0x5
 6160 0d85 740D0000 		.4byte	0xd74
 6161 0d89 04       		.uleb128 0x4
 6162 0d8a 95150000 		.4byte	.LASF179
 6163 0d8e 0A       		.byte	0xa
 6164 0d8f 65       		.byte	0x65
 6165 0d90 0F       		.byte	0xf
 6166 0d91 C8030000 		.4byte	0x3c8
 6167 0d95 04       		.uleb128 0x4
 6168 0d96 83070000 		.4byte	.LASF180
 6169 0d9a 0A       		.byte	0xa
 6170 0d9b 6D       		.byte	0x6d
 6171 0d9c 12       		.byte	0x12
 6172 0d9d DA000000 		.4byte	0xda
 6173 0da1 07       		.uleb128 0x7
 6174 0da2 1F150000 		.4byte	.LASF181
 6175 0da6 04       		.byte	0x4
 6176 0da7 0A       		.byte	0xa
 6177 0da8 89       		.byte	0x89
 6178 0da9 08       		.byte	0x8
 6179 0daa BC0D0000 		.4byte	0xdbc
 6180 0dae 18       		.uleb128 0x18
 6181 0daf 72313300 		.ascii	"r13\000"
 6182 0db3 0A       		.byte	0xa
 6183 0db4 8A       		.byte	0x8a
 6184 0db5 17       		.byte	0x17
 6185 0db6 170F0000 		.4byte	0xf17
 6186 0dba 00       		.byte	0
 6187 0dbb 00       		.byte	0
 6188 0dbc 07       		.uleb128 0x7
 6189 0dbd 09000000 		.4byte	.LASF182
 6190 0dc1 64       		.byte	0x64
 6191 0dc2 0B       		.byte	0xb
 6192 0dc3 F4       		.byte	0xf4
 6193 0dc4 08       		.byte	0x8
 6194 0dc5 170F0000 		.4byte	0xf17
 6195 0dc9 18       		.uleb128 0x18
 6196 0dca 73313600 		.ascii	"s16\000"
 6197 0dce 0B       		.byte	0xb
 6198 0dcf F6       		.byte	0xf6
 6199 0dd0 11       		.byte	0x11
 6200 0dd1 890D0000 		.4byte	0xd89
 6201 0dd5 00       		.byte	0
 6202 0dd6 18       		.uleb128 0x18
 6203 0dd7 73313700 		.ascii	"s17\000"
 6204 0ddb 0B       		.byte	0xb
 6205 0ddc F7       		.byte	0xf7
 6206 0ddd 11       		.byte	0x11
 6207 0dde 890D0000 		.4byte	0xd89
 6208 0de2 04       		.byte	0x4
 6209 0de3 18       		.uleb128 0x18
 6210 0de4 73313800 		.ascii	"s18\000"
 6211 0de8 0B       		.byte	0xb
 6212 0de9 F8       		.byte	0xf8
ARM GAS  /tmp/cczbsEFl.s 			page 110


 6213 0dea 11       		.byte	0x11
 6214 0deb 890D0000 		.4byte	0xd89
 6215 0def 08       		.byte	0x8
 6216 0df0 18       		.uleb128 0x18
 6217 0df1 73313900 		.ascii	"s19\000"
 6218 0df5 0B       		.byte	0xb
 6219 0df6 F9       		.byte	0xf9
 6220 0df7 11       		.byte	0x11
 6221 0df8 890D0000 		.4byte	0xd89
 6222 0dfc 0C       		.byte	0xc
 6223 0dfd 18       		.uleb128 0x18
 6224 0dfe 73323000 		.ascii	"s20\000"
 6225 0e02 0B       		.byte	0xb
 6226 0e03 FA       		.byte	0xfa
 6227 0e04 11       		.byte	0x11
 6228 0e05 890D0000 		.4byte	0xd89
 6229 0e09 10       		.byte	0x10
 6230 0e0a 18       		.uleb128 0x18
 6231 0e0b 73323100 		.ascii	"s21\000"
 6232 0e0f 0B       		.byte	0xb
 6233 0e10 FB       		.byte	0xfb
 6234 0e11 11       		.byte	0x11
 6235 0e12 890D0000 		.4byte	0xd89
 6236 0e16 14       		.byte	0x14
 6237 0e17 18       		.uleb128 0x18
 6238 0e18 73323200 		.ascii	"s22\000"
 6239 0e1c 0B       		.byte	0xb
 6240 0e1d FC       		.byte	0xfc
 6241 0e1e 11       		.byte	0x11
 6242 0e1f 890D0000 		.4byte	0xd89
 6243 0e23 18       		.byte	0x18
 6244 0e24 18       		.uleb128 0x18
 6245 0e25 73323300 		.ascii	"s23\000"
 6246 0e29 0B       		.byte	0xb
 6247 0e2a FD       		.byte	0xfd
 6248 0e2b 11       		.byte	0x11
 6249 0e2c 890D0000 		.4byte	0xd89
 6250 0e30 1C       		.byte	0x1c
 6251 0e31 18       		.uleb128 0x18
 6252 0e32 73323400 		.ascii	"s24\000"
 6253 0e36 0B       		.byte	0xb
 6254 0e37 FE       		.byte	0xfe
 6255 0e38 11       		.byte	0x11
 6256 0e39 890D0000 		.4byte	0xd89
 6257 0e3d 20       		.byte	0x20
 6258 0e3e 18       		.uleb128 0x18
 6259 0e3f 73323500 		.ascii	"s25\000"
 6260 0e43 0B       		.byte	0xb
 6261 0e44 FF       		.byte	0xff
 6262 0e45 11       		.byte	0x11
 6263 0e46 890D0000 		.4byte	0xd89
 6264 0e4a 24       		.byte	0x24
 6265 0e4b 09       		.uleb128 0x9
 6266 0e4c 73323600 		.ascii	"s26\000"
 6267 0e50 0B       		.byte	0xb
 6268 0e51 0001     		.2byte	0x100
 6269 0e53 11       		.byte	0x11
ARM GAS  /tmp/cczbsEFl.s 			page 111


 6270 0e54 890D0000 		.4byte	0xd89
 6271 0e58 28       		.byte	0x28
 6272 0e59 09       		.uleb128 0x9
 6273 0e5a 73323700 		.ascii	"s27\000"
 6274 0e5e 0B       		.byte	0xb
 6275 0e5f 0101     		.2byte	0x101
 6276 0e61 11       		.byte	0x11
 6277 0e62 890D0000 		.4byte	0xd89
 6278 0e66 2C       		.byte	0x2c
 6279 0e67 09       		.uleb128 0x9
 6280 0e68 73323800 		.ascii	"s28\000"
 6281 0e6c 0B       		.byte	0xb
 6282 0e6d 0201     		.2byte	0x102
 6283 0e6f 11       		.byte	0x11
 6284 0e70 890D0000 		.4byte	0xd89
 6285 0e74 30       		.byte	0x30
 6286 0e75 09       		.uleb128 0x9
 6287 0e76 73323900 		.ascii	"s29\000"
 6288 0e7a 0B       		.byte	0xb
 6289 0e7b 0301     		.2byte	0x103
 6290 0e7d 11       		.byte	0x11
 6291 0e7e 890D0000 		.4byte	0xd89
 6292 0e82 34       		.byte	0x34
 6293 0e83 09       		.uleb128 0x9
 6294 0e84 73333000 		.ascii	"s30\000"
 6295 0e88 0B       		.byte	0xb
 6296 0e89 0401     		.2byte	0x104
 6297 0e8b 11       		.byte	0x11
 6298 0e8c 890D0000 		.4byte	0xd89
 6299 0e90 38       		.byte	0x38
 6300 0e91 09       		.uleb128 0x9
 6301 0e92 73333100 		.ascii	"s31\000"
 6302 0e96 0B       		.byte	0xb
 6303 0e97 0501     		.2byte	0x105
 6304 0e99 11       		.byte	0x11
 6305 0e9a 890D0000 		.4byte	0xd89
 6306 0e9e 3C       		.byte	0x3c
 6307 0e9f 09       		.uleb128 0x9
 6308 0ea0 723400   		.ascii	"r4\000"
 6309 0ea3 0B       		.byte	0xb
 6310 0ea4 0701     		.2byte	0x107
 6311 0ea6 11       		.byte	0x11
 6312 0ea7 890D0000 		.4byte	0xd89
 6313 0eab 40       		.byte	0x40
 6314 0eac 09       		.uleb128 0x9
 6315 0ead 723500   		.ascii	"r5\000"
 6316 0eb0 0B       		.byte	0xb
 6317 0eb1 0801     		.2byte	0x108
 6318 0eb3 11       		.byte	0x11
 6319 0eb4 890D0000 		.4byte	0xd89
 6320 0eb8 44       		.byte	0x44
 6321 0eb9 09       		.uleb128 0x9
 6322 0eba 723600   		.ascii	"r6\000"
 6323 0ebd 0B       		.byte	0xb
 6324 0ebe 0901     		.2byte	0x109
 6325 0ec0 11       		.byte	0x11
 6326 0ec1 890D0000 		.4byte	0xd89
ARM GAS  /tmp/cczbsEFl.s 			page 112


 6327 0ec5 48       		.byte	0x48
 6328 0ec6 09       		.uleb128 0x9
 6329 0ec7 723700   		.ascii	"r7\000"
 6330 0eca 0B       		.byte	0xb
 6331 0ecb 0A01     		.2byte	0x10a
 6332 0ecd 11       		.byte	0x11
 6333 0ece 890D0000 		.4byte	0xd89
 6334 0ed2 4C       		.byte	0x4c
 6335 0ed3 09       		.uleb128 0x9
 6336 0ed4 723800   		.ascii	"r8\000"
 6337 0ed7 0B       		.byte	0xb
 6338 0ed8 0B01     		.2byte	0x10b
 6339 0eda 11       		.byte	0x11
 6340 0edb 890D0000 		.4byte	0xd89
 6341 0edf 50       		.byte	0x50
 6342 0ee0 09       		.uleb128 0x9
 6343 0ee1 723900   		.ascii	"r9\000"
 6344 0ee4 0B       		.byte	0xb
 6345 0ee5 0C01     		.2byte	0x10c
 6346 0ee7 11       		.byte	0x11
 6347 0ee8 890D0000 		.4byte	0xd89
 6348 0eec 54       		.byte	0x54
 6349 0eed 09       		.uleb128 0x9
 6350 0eee 72313000 		.ascii	"r10\000"
 6351 0ef2 0B       		.byte	0xb
 6352 0ef3 0D01     		.2byte	0x10d
 6353 0ef5 11       		.byte	0x11
 6354 0ef6 890D0000 		.4byte	0xd89
 6355 0efa 58       		.byte	0x58
 6356 0efb 09       		.uleb128 0x9
 6357 0efc 72313100 		.ascii	"r11\000"
 6358 0f00 0B       		.byte	0xb
 6359 0f01 0E01     		.2byte	0x10e
 6360 0f03 11       		.byte	0x11
 6361 0f04 890D0000 		.4byte	0xd89
 6362 0f08 5C       		.byte	0x5c
 6363 0f09 09       		.uleb128 0x9
 6364 0f0a 6C7200   		.ascii	"lr\000"
 6365 0f0d 0B       		.byte	0xb
 6366 0f0e 0F01     		.2byte	0x10f
 6367 0f10 11       		.byte	0x11
 6368 0f11 890D0000 		.4byte	0xd89
 6369 0f15 60       		.byte	0x60
 6370 0f16 00       		.byte	0
 6371 0f17 0B       		.uleb128 0xb
 6372 0f18 04       		.byte	0x4
 6373 0f19 BC0D0000 		.4byte	0xdbc
 6374 0f1d 17       		.uleb128 0x17
 6375 0f1e 10       		.byte	0x10
 6376 0f1f 0C       		.byte	0xc
 6377 0f20 51       		.byte	0x51
 6378 0f21 09       		.byte	0x9
 6379 0f22 5B0F0000 		.4byte	0xf5b
 6380 0f26 08       		.uleb128 0x8
 6381 0f27 201B0000 		.4byte	.LASF183
 6382 0f2b 0C       		.byte	0xc
 6383 0f2c 55       		.byte	0x55
ARM GAS  /tmp/cczbsEFl.s 			page 113


 6384 0f2d 19       		.byte	0x19
 6385 0f2e 7D010000 		.4byte	0x17d
 6386 0f32 00       		.byte	0
 6387 0f33 08       		.uleb128 0x8
 6388 0f34 00160000 		.4byte	.LASF184
 6389 0f38 0C       		.byte	0xc
 6390 0f39 59       		.byte	0x59
 6391 0f3a 1A       		.byte	0x1a
 6392 0f3b DB020000 		.4byte	0x2db
 6393 0f3f 04       		.byte	0x4
 6394 0f40 08       		.uleb128 0x8
 6395 0f41 D2190000 		.4byte	.LASF185
 6396 0f45 0C       		.byte	0xc
 6397 0f46 5D       		.byte	0x5d
 6398 0f47 1A       		.byte	0x1a
 6399 0f48 C8030000 		.4byte	0x3c8
 6400 0f4c 08       		.byte	0x8
 6401 0f4d 08       		.uleb128 0x8
 6402 0f4e 51080000 		.4byte	.LASF186
 6403 0f52 0C       		.byte	0xc
 6404 0f53 61       		.byte	0x61
 6405 0f54 19       		.byte	0x19
 6406 0f55 92000000 		.4byte	0x92
 6407 0f59 0C       		.byte	0xc
 6408 0f5a 00       		.byte	0
 6409 0f5b 04       		.uleb128 0x4
 6410 0f5c 000B0000 		.4byte	.LASF187
 6411 0f60 0C       		.byte	0xc
 6412 0f61 62       		.byte	0x62
 6413 0f62 03       		.byte	0x3
 6414 0f63 1D0F0000 		.4byte	0xf1d
 6415 0f67 1C       		.uleb128 0x1c
 6416 0f68 0804     		.2byte	0x408
 6417 0f6a 0C       		.byte	0xc
 6418 0f6b 67       		.byte	0x67
 6419 0f6c 09       		.byte	0x9
 6420 0f6d 990F0000 		.4byte	0xf99
 6421 0f71 08       		.uleb128 0x8
 6422 0f72 C60B0000 		.4byte	.LASF188
 6423 0f76 0C       		.byte	0xc
 6424 0f77 6B       		.byte	0x6b
 6425 0f78 19       		.byte	0x19
 6426 0f79 2C000000 		.4byte	0x2c
 6427 0f7d 00       		.byte	0
 6428 0f7e 08       		.uleb128 0x8
 6429 0f7f F3110000 		.4byte	.LASF189
 6430 0f83 0C       		.byte	0xc
 6431 0f84 6F       		.byte	0x6f
 6432 0f85 1A       		.byte	0x1a
 6433 0f86 990F0000 		.4byte	0xf99
 6434 0f8a 04       		.byte	0x4
 6435 0f8b 08       		.uleb128 0x8
 6436 0f8c E1070000 		.4byte	.LASF190
 6437 0f90 0C       		.byte	0xc
 6438 0f91 73       		.byte	0x73
 6439 0f92 19       		.byte	0x19
 6440 0f93 9F0F0000 		.4byte	0xf9f
ARM GAS  /tmp/cczbsEFl.s 			page 114


 6441 0f97 08       		.byte	0x8
 6442 0f98 00       		.byte	0
 6443 0f99 0B       		.uleb128 0xb
 6444 0f9a 04       		.byte	0x4
 6445 0f9b 5B0F0000 		.4byte	0xf5b
 6446 0f9f 13       		.uleb128 0x13
 6447 0fa0 5B0F0000 		.4byte	0xf5b
 6448 0fa4 AF0F0000 		.4byte	0xfaf
 6449 0fa8 14       		.uleb128 0x14
 6450 0fa9 2C000000 		.4byte	0x2c
 6451 0fad 3F       		.byte	0x3f
 6452 0fae 00       		.byte	0
 6453 0faf 04       		.uleb128 0x4
 6454 0fb0 15000000 		.4byte	.LASF191
 6455 0fb4 0C       		.byte	0xc
 6456 0fb5 74       		.byte	0x74
 6457 0fb6 03       		.byte	0x3
 6458 0fb7 670F0000 		.4byte	0xf67
 6459 0fbb 17       		.uleb128 0x17
 6460 0fbc 04       		.byte	0x4
 6461 0fbd 0D       		.byte	0xd
 6462 0fbe 38       		.byte	0x38
 6463 0fbf 09       		.byte	0x9
 6464 0fc0 D20F0000 		.4byte	0xfd2
 6465 0fc4 08       		.uleb128 0x8
 6466 0fc5 F31B0000 		.4byte	.LASF192
 6467 0fc9 0D       		.byte	0xd
 6468 0fca 3C       		.byte	0x3c
 6469 0fcb 19       		.byte	0x19
 6470 0fcc ED000000 		.4byte	0xed
 6471 0fd0 00       		.byte	0
 6472 0fd1 00       		.byte	0
 6473 0fd2 04       		.uleb128 0x4
 6474 0fd3 9B1F0000 		.4byte	.LASF193
 6475 0fd7 0D       		.byte	0xd
 6476 0fd8 3D       		.byte	0x3d
 6477 0fd9 03       		.byte	0x3
 6478 0fda BB0F0000 		.4byte	0xfbb
 6479 0fde 17       		.uleb128 0x17
 6480 0fdf 18       		.byte	0x18
 6481 0fe0 0D       		.byte	0xd
 6482 0fe1 48       		.byte	0x48
 6483 0fe2 09       		.byte	0x9
 6484 0fe3 27100000 		.4byte	0x1027
 6485 0fe7 08       		.uleb128 0x8
 6486 0fe8 1B060000 		.4byte	.LASF194
 6487 0fec 0D       		.byte	0xd
 6488 0fed 49       		.byte	0x49
 6489 0fee 19       		.byte	0x19
 6490 0fef ED000000 		.4byte	0xed
 6491 0ff3 00       		.byte	0
 6492 0ff4 08       		.uleb128 0x8
 6493 0ff5 12010000 		.4byte	.LASF195
 6494 0ff9 0D       		.byte	0xd
 6495 0ffa 4A       		.byte	0x4a
 6496 0ffb 19       		.byte	0x19
 6497 0ffc ED000000 		.4byte	0xed
ARM GAS  /tmp/cczbsEFl.s 			page 115


 6498 1000 04       		.byte	0x4
 6499 1001 08       		.uleb128 0x8
 6500 1002 42150000 		.4byte	.LASF196
 6501 1006 0D       		.byte	0xd
 6502 1007 4B       		.byte	0x4b
 6503 1008 19       		.byte	0x19
 6504 1009 ED000000 		.4byte	0xed
 6505 100d 08       		.byte	0x8
 6506 100e 18       		.uleb128 0x18
 6507 100f 6E00     		.ascii	"n\000"
 6508 1011 0D       		.byte	0xd
 6509 1012 4C       		.byte	0x4c
 6510 1013 19       		.byte	0x19
 6511 1014 71010000 		.4byte	0x171
 6512 1018 0C       		.byte	0xc
 6513 1019 08       		.uleb128 0x8
 6514 101a FB140000 		.4byte	.LASF197
 6515 101e 0D       		.byte	0xd
 6516 101f 4D       		.byte	0x4d
 6517 1020 19       		.byte	0x19
 6518 1021 F9000000 		.4byte	0xf9
 6519 1025 10       		.byte	0x10
 6520 1026 00       		.byte	0
 6521 1027 04       		.uleb128 0x4
 6522 1028 2F1E0000 		.4byte	.LASF198
 6523 102c 0D       		.byte	0xd
 6524 102d 4E       		.byte	0x4e
 6525 102e 03       		.byte	0x3
 6526 102f DE0F0000 		.4byte	0xfde
 6527 1033 17       		.uleb128 0x17
 6528 1034 38       		.byte	0x38
 6529 1035 0E       		.byte	0xe
 6530 1036 38       		.byte	0x38
 6531 1037 09       		.byte	0x9
 6532 1038 71100000 		.4byte	0x1071
 6533 103c 08       		.uleb128 0x8
 6534 103d 74050000 		.4byte	.LASF199
 6535 1041 0E       		.byte	0xe
 6536 1042 39       		.byte	0x39
 6537 1043 19       		.byte	0x19
 6538 1044 71010000 		.4byte	0x171
 6539 1048 00       		.byte	0
 6540 1049 08       		.uleb128 0x8
 6541 104a F5080000 		.4byte	.LASF200
 6542 104e 0E       		.byte	0xe
 6543 104f 3A       		.byte	0x3a
 6544 1050 19       		.byte	0x19
 6545 1051 71010000 		.4byte	0x171
 6546 1055 04       		.byte	0x4
 6547 1056 08       		.uleb128 0x8
 6548 1057 BC1D0000 		.4byte	.LASF201
 6549 105b 0E       		.byte	0xe
 6550 105c 3B       		.byte	0x3b
 6551 105d 19       		.byte	0x19
 6552 105e 27100000 		.4byte	0x1027
 6553 1062 08       		.byte	0x8
 6554 1063 08       		.uleb128 0x8
ARM GAS  /tmp/cczbsEFl.s 			page 116


 6555 1064 64000000 		.4byte	.LASF202
 6556 1068 0E       		.byte	0xe
 6557 1069 3D       		.byte	0x3d
 6558 106a 19       		.byte	0x19
 6559 106b 27100000 		.4byte	0x1027
 6560 106f 20       		.byte	0x20
 6561 1070 00       		.byte	0
 6562 1071 04       		.uleb128 0x4
 6563 1072 25040000 		.4byte	.LASF203
 6564 1076 0E       		.byte	0xe
 6565 1077 3F       		.byte	0x3f
 6566 1078 03       		.byte	0x3
 6567 1079 33100000 		.4byte	0x1033
 6568 107d 1D       		.uleb128 0x1d
 6569 107e 04       		.byte	0x4
 6570 107f 06       		.byte	0x6
 6571 1080 FA       		.byte	0xfa
 6572 1081 03       		.byte	0x3
 6573 1082 E2100000 		.4byte	0x10e2
 6574 1086 1E       		.uleb128 0x1e
 6575 1087 2C0D0000 		.4byte	.LASF204
 6576 108b 06       		.byte	0x6
 6577 108c 0101     		.2byte	0x101
 6578 108e 19       		.byte	0x19
 6579 108f 41010000 		.4byte	0x141
 6580 1093 1E       		.uleb128 0x1e
 6581 1094 9A060000 		.4byte	.LASF205
 6582 1098 06       		.byte	0x6
 6583 1099 0801     		.2byte	0x108
 6584 109b 19       		.byte	0x19
 6585 109c 41010000 		.4byte	0x141
 6586 10a0 1E       		.uleb128 0x1e
 6587 10a1 07190000 		.4byte	.LASF206
 6588 10a5 06       		.byte	0x6
 6589 10a6 0F01     		.2byte	0x10f
 6590 10a8 1A       		.byte	0x1a
 6591 10a9 C8030000 		.4byte	0x3c8
 6592 10ad 1E       		.uleb128 0x1e
 6593 10ae 11150000 		.4byte	.LASF207
 6594 10b2 06       		.byte	0x6
 6595 10b3 1601     		.2byte	0x116
 6596 10b5 1A       		.byte	0x1a
 6597 10b6 E2100000 		.4byte	0x10e2
 6598 10ba 1E       		.uleb128 0x1e
 6599 10bb B3000000 		.4byte	.LASF208
 6600 10bf 06       		.byte	0x6
 6601 10c0 1E01     		.2byte	0x11e
 6602 10c2 1A       		.byte	0x1a
 6603 10c3 10110000 		.4byte	0x1110
 6604 10c7 1E       		.uleb128 0x1e
 6605 10c8 50190000 		.4byte	.LASF209
 6606 10cc 06       		.byte	0x6
 6607 10cd 2701     		.2byte	0x127
 6608 10cf 1A       		.byte	0x1a
 6609 10d0 58110000 		.4byte	0x1158
 6610 10d4 1E       		.uleb128 0x1e
 6611 10d5 9E1C0000 		.4byte	.LASF210
ARM GAS  /tmp/cczbsEFl.s 			page 117


 6612 10d9 06       		.byte	0x6
 6613 10da 2F01     		.2byte	0x12f
 6614 10dc 19       		.byte	0x19
 6615 10dd 4D010000 		.4byte	0x14d
 6616 10e1 00       		.byte	0
 6617 10e2 0B       		.uleb128 0xb
 6618 10e3 04       		.byte	0x4
 6619 10e4 CF020000 		.4byte	0x2cf
 6620 10e8 07       		.uleb128 0x7
 6621 10e9 F0130000 		.4byte	.LASF211
 6622 10ed 0C       		.byte	0xc
 6623 10ee 0F       		.byte	0xf
 6624 10ef 34       		.byte	0x34
 6625 10f0 10       		.byte	0x10
 6626 10f1 10110000 		.4byte	0x1110
 6627 10f5 08       		.uleb128 0x8
 6628 10f6 B41D0000 		.4byte	.LASF212
 6629 10fa 0F       		.byte	0xf
 6630 10fb 35       		.byte	0x35
 6631 10fc 19       		.byte	0x19
 6632 10fd 08030000 		.4byte	0x308
 6633 1101 00       		.byte	0
 6634 1102 08       		.uleb128 0x8
 6635 1103 F3070000 		.4byte	.LASF213
 6636 1107 0F       		.byte	0xf
 6637 1108 37       		.byte	0x37
 6638 1109 19       		.byte	0x19
 6639 110a 65010000 		.4byte	0x165
 6640 110e 08       		.byte	0x8
 6641 110f 00       		.byte	0
 6642 1110 0B       		.uleb128 0xb
 6643 1111 04       		.byte	0x4
 6644 1112 E8100000 		.4byte	0x10e8
 6645 1116 07       		.uleb128 0x7
 6646 1117 93090000 		.4byte	.LASF214
 6647 111b 14       		.byte	0x14
 6648 111c 10       		.byte	0x10
 6649 111d 39       		.byte	0x39
 6650 111e 08       		.byte	0x8
 6651 111f 58110000 		.4byte	0x1158
 6652 1123 08       		.uleb128 0x8
 6653 1124 99140000 		.4byte	.LASF215
 6654 1128 10       		.byte	0x10
 6655 1129 3A       		.byte	0x3a
 6656 112a 19       		.byte	0x19
 6657 112b 08030000 		.4byte	0x308
 6658 112f 00       		.byte	0
 6659 1130 08       		.uleb128 0x8
 6660 1131 03130000 		.4byte	.LASF216
 6661 1135 10       		.byte	0x10
 6662 1136 3C       		.byte	0x3c
 6663 1137 1A       		.byte	0x1a
 6664 1138 DB020000 		.4byte	0x2db
 6665 113c 08       		.byte	0x8
 6666 113d 08       		.uleb128 0x8
 6667 113e 37010000 		.4byte	.LASF217
 6668 1142 10       		.byte	0x10
ARM GAS  /tmp/cczbsEFl.s 			page 118


 6669 1143 3E       		.byte	0x3e
 6670 1144 1A       		.byte	0x1a
 6671 1145 CA120000 		.4byte	0x12ca
 6672 1149 0C       		.byte	0xc
 6673 114a 08       		.uleb128 0x8
 6674 114b 1B070000 		.4byte	.LASF218
 6675 114f 10       		.byte	0x10
 6676 1150 41       		.byte	0x41
 6677 1151 19       		.byte	0x19
 6678 1152 65010000 		.4byte	0x165
 6679 1156 10       		.byte	0x10
 6680 1157 00       		.byte	0
 6681 1158 0B       		.uleb128 0xb
 6682 1159 04       		.byte	0x4
 6683 115a 16110000 		.4byte	0x1116
 6684 115e 0B       		.uleb128 0xb
 6685 115f 04       		.byte	0x4
 6686 1160 70110000 		.4byte	0x1170
 6687 1164 05       		.uleb128 0x5
 6688 1165 5E110000 		.4byte	0x115e
 6689 1169 02       		.uleb128 0x2
 6690 116a 01       		.byte	0x1
 6691 116b 08       		.byte	0x8
 6692 116c 5D160000 		.4byte	.LASF219
 6693 1170 06       		.uleb128 0x6
 6694 1171 69110000 		.4byte	0x1169
 6695 1175 0B       		.uleb128 0xb
 6696 1176 04       		.byte	0x4
 6697 1177 950D0000 		.4byte	0xd95
 6698 117b 0B       		.uleb128 0xb
 6699 117c 04       		.byte	0x4
 6700 117d CA030000 		.4byte	0x3ca
 6701 1181 13       		.uleb128 0x13
 6702 1182 950D0000 		.4byte	0xd95
 6703 1186 91110000 		.4byte	0x1191
 6704 118a 14       		.uleb128 0x14
 6705 118b 2C000000 		.4byte	0x2c
 6706 118f 30       		.byte	0x30
 6707 1190 00       		.byte	0
 6708 1191 1F       		.uleb128 0x1f
 6709 1192 636800   		.ascii	"ch\000"
 6710 1195 06       		.byte	0x6
 6711 1196 0902     		.2byte	0x209
 6712 1198 14       		.byte	0x14
 6713 1199 D2040000 		.4byte	0x4d2
 6714 119d 17       		.uleb128 0x17
 6715 119e 16       		.byte	0x16
 6716 119f 11       		.byte	0x11
 6717 11a0 34       		.byte	0x34
 6718 11a1 09       		.byte	0x9
 6719 11a2 91120000 		.4byte	0x1291
 6720 11a6 08       		.uleb128 0x8
 6721 11a7 E61D0000 		.4byte	.LASF220
 6722 11ab 11       		.byte	0x11
 6723 11ac 35       		.byte	0x35
 6724 11ad 0D       		.byte	0xd
 6725 11ae 91120000 		.4byte	0x1291
ARM GAS  /tmp/cczbsEFl.s 			page 119


 6726 11b2 00       		.byte	0
 6727 11b3 08       		.uleb128 0x8
 6728 11b4 DA1F0000 		.4byte	.LASF221
 6729 11b8 11       		.byte	0x11
 6730 11b9 36       		.byte	0x36
 6731 11ba 0D       		.byte	0xd
 6732 11bb 92000000 		.4byte	0x92
 6733 11bf 04       		.byte	0x4
 6734 11c0 08       		.uleb128 0x8
 6735 11c1 4F020000 		.4byte	.LASF222
 6736 11c5 11       		.byte	0x11
 6737 11c6 37       		.byte	0x37
 6738 11c7 0D       		.byte	0xd
 6739 11c8 92000000 		.4byte	0x92
 6740 11cc 05       		.byte	0x5
 6741 11cd 08       		.uleb128 0x8
 6742 11ce 4D130000 		.4byte	.LASF223
 6743 11d2 11       		.byte	0x11
 6744 11d3 38       		.byte	0x38
 6745 11d4 0D       		.byte	0xd
 6746 11d5 AA000000 		.4byte	0xaa
 6747 11d9 06       		.byte	0x6
 6748 11da 08       		.uleb128 0x8
 6749 11db 27000000 		.4byte	.LASF224
 6750 11df 11       		.byte	0x11
 6751 11e0 39       		.byte	0x39
 6752 11e1 0D       		.byte	0xd
 6753 11e2 92000000 		.4byte	0x92
 6754 11e6 08       		.byte	0x8
 6755 11e7 08       		.uleb128 0x8
 6756 11e8 B6110000 		.4byte	.LASF225
 6757 11ec 11       		.byte	0x11
 6758 11ed 3A       		.byte	0x3a
 6759 11ee 0D       		.byte	0xd
 6760 11ef 92000000 		.4byte	0x92
 6761 11f3 09       		.byte	0x9
 6762 11f4 08       		.uleb128 0x8
 6763 11f5 03200000 		.4byte	.LASF226
 6764 11f9 11       		.byte	0x11
 6765 11fa 3B       		.byte	0x3b
 6766 11fb 0D       		.byte	0xd
 6767 11fc 92000000 		.4byte	0x92
 6768 1200 0A       		.byte	0xa
 6769 1201 08       		.uleb128 0x8
 6770 1202 231E0000 		.4byte	.LASF227
 6771 1206 11       		.byte	0x11
 6772 1207 3C       		.byte	0x3c
 6773 1208 0D       		.byte	0xd
 6774 1209 92000000 		.4byte	0x92
 6775 120d 0B       		.byte	0xb
 6776 120e 08       		.uleb128 0x8
 6777 120f 69040000 		.4byte	.LASF228
 6778 1213 11       		.byte	0x11
 6779 1214 3D       		.byte	0x3d
 6780 1215 0D       		.byte	0xd
 6781 1216 92000000 		.4byte	0x92
 6782 121a 0C       		.byte	0xc
ARM GAS  /tmp/cczbsEFl.s 			page 120


 6783 121b 08       		.uleb128 0x8
 6784 121c FA090000 		.4byte	.LASF229
 6785 1220 11       		.byte	0x11
 6786 1221 3E       		.byte	0x3e
 6787 1222 0D       		.byte	0xd
 6788 1223 92000000 		.4byte	0x92
 6789 1227 0D       		.byte	0xd
 6790 1228 08       		.uleb128 0x8
 6791 1229 B3040000 		.4byte	.LASF230
 6792 122d 11       		.byte	0x11
 6793 122e 3F       		.byte	0x3f
 6794 122f 0D       		.byte	0xd
 6795 1230 92000000 		.4byte	0x92
 6796 1234 0E       		.byte	0xe
 6797 1235 08       		.uleb128 0x8
 6798 1236 790B0000 		.4byte	.LASF231
 6799 123a 11       		.byte	0x11
 6800 123b 40       		.byte	0x40
 6801 123c 0D       		.byte	0xd
 6802 123d 92000000 		.4byte	0x92
 6803 1241 0F       		.byte	0xf
 6804 1242 08       		.uleb128 0x8
 6805 1243 1B030000 		.4byte	.LASF232
 6806 1247 11       		.byte	0x11
 6807 1248 41       		.byte	0x41
 6808 1249 0D       		.byte	0xd
 6809 124a 92000000 		.4byte	0x92
 6810 124e 10       		.byte	0x10
 6811 124f 08       		.uleb128 0x8
 6812 1250 2B070000 		.4byte	.LASF233
 6813 1254 11       		.byte	0x11
 6814 1255 43       		.byte	0x43
 6815 1256 0D       		.byte	0xd
 6816 1257 92000000 		.4byte	0x92
 6817 125b 11       		.byte	0x11
 6818 125c 08       		.uleb128 0x8
 6819 125d 26020000 		.4byte	.LASF234
 6820 1261 11       		.byte	0x11
 6821 1262 44       		.byte	0x44
 6822 1263 0D       		.byte	0xd
 6823 1264 92000000 		.4byte	0x92
 6824 1268 12       		.byte	0x12
 6825 1269 08       		.uleb128 0x8
 6826 126a ED120000 		.4byte	.LASF235
 6827 126e 11       		.byte	0x11
 6828 126f 45       		.byte	0x45
 6829 1270 0D       		.byte	0xd
 6830 1271 92000000 		.4byte	0x92
 6831 1275 13       		.byte	0x13
 6832 1276 08       		.uleb128 0x8
 6833 1277 68180000 		.4byte	.LASF236
 6834 127b 11       		.byte	0x11
 6835 127c 46       		.byte	0x46
 6836 127d 0D       		.byte	0xd
 6837 127e 92000000 		.4byte	0x92
 6838 1282 14       		.byte	0x14
 6839 1283 08       		.uleb128 0x8
ARM GAS  /tmp/cczbsEFl.s 			page 121


 6840 1284 9B000000 		.4byte	.LASF237
 6841 1288 11       		.byte	0x11
 6842 1289 48       		.byte	0x48
 6843 128a 0D       		.byte	0xd
 6844 128b 92000000 		.4byte	0x92
 6845 128f 15       		.byte	0x15
 6846 1290 00       		.byte	0
 6847 1291 13       		.uleb128 0x13
 6848 1292 69110000 		.4byte	0x1169
 6849 1296 A1120000 		.4byte	0x12a1
 6850 129a 14       		.uleb128 0x14
 6851 129b 2C000000 		.4byte	0x2c
 6852 129f 03       		.byte	0x3
 6853 12a0 00       		.byte	0
 6854 12a1 04       		.uleb128 0x4
 6855 12a2 6F110000 		.4byte	.LASF238
 6856 12a6 11       		.byte	0x11
 6857 12a7 49       		.byte	0x49
 6858 12a8 03       		.byte	0x3
 6859 12a9 9D110000 		.4byte	0x119d
 6860 12ad 06       		.uleb128 0x6
 6861 12ae A1120000 		.4byte	0x12a1
 6862 12b2 16       		.uleb128 0x16
 6863 12b3 FE080000 		.4byte	.LASF239
 6864 12b7 11       		.byte	0x11
 6865 12b8 6E       		.byte	0x6e
 6866 12b9 1D       		.byte	0x1d
 6867 12ba AD120000 		.4byte	0x12ad
 6868 12be 04       		.uleb128 0x4
 6869 12bf 571A0000 		.4byte	.LASF240
 6870 12c3 10       		.byte	0x10
 6871 12c4 34       		.byte	0x34
 6872 12c5 19       		.byte	0x19
 6873 12c6 16110000 		.4byte	0x1116
 6874 12ca 0B       		.uleb128 0xb
 6875 12cb 04       		.byte	0x4
 6876 12cc BE120000 		.4byte	0x12be
 6877 12d0 04       		.uleb128 0x4
 6878 12d1 44090000 		.4byte	.LASF241
 6879 12d5 12       		.byte	0x12
 6880 12d6 34       		.byte	0x34
 6881 12d7 1F       		.byte	0x1f
 6882 12d8 DC120000 		.4byte	0x12dc
 6883 12dc 07       		.uleb128 0x7
 6884 12dd 7A200000 		.4byte	.LASF242
 6885 12e1 14       		.byte	0x14
 6886 12e2 12       		.byte	0x12
 6887 12e3 39       		.byte	0x39
 6888 12e4 08       		.byte	0x8
 6889 12e5 2B130000 		.4byte	0x132b
 6890 12e9 08       		.uleb128 0x8
 6891 12ea A0010000 		.4byte	.LASF243
 6892 12ee 12       		.byte	0x12
 6893 12ef 3A       		.byte	0x3a
 6894 12f0 1A       		.byte	0x1a
 6895 12f1 2B130000 		.4byte	0x132b
 6896 12f5 00       		.byte	0
ARM GAS  /tmp/cczbsEFl.s 			page 122


 6897 12f6 08       		.uleb128 0x8
 6898 12f7 511B0000 		.4byte	.LASF244
 6899 12fb 12       		.byte	0x12
 6900 12fc 3D       		.byte	0x3d
 6901 12fd 1A       		.byte	0x1a
 6902 12fe DB020000 		.4byte	0x2db
 6903 1302 04       		.byte	0x4
 6904 1303 08       		.uleb128 0x8
 6905 1304 AE020000 		.4byte	.LASF245
 6906 1308 12       		.byte	0x12
 6907 1309 3F       		.byte	0x3f
 6908 130a 19       		.byte	0x19
 6909 130b 4D010000 		.4byte	0x14d
 6910 130f 08       		.byte	0x8
 6911 1310 08       		.uleb128 0x8
 6912 1311 A51C0000 		.4byte	.LASF246
 6913 1315 12       		.byte	0x12
 6914 1316 41       		.byte	0x41
 6915 1317 19       		.byte	0x19
 6916 1318 59010000 		.4byte	0x159
 6917 131c 0C       		.byte	0xc
 6918 131d 08       		.uleb128 0x8
 6919 131e B20B0000 		.4byte	.LASF247
 6920 1322 12       		.byte	0x12
 6921 1323 43       		.byte	0x43
 6922 1324 19       		.byte	0x19
 6923 1325 59010000 		.4byte	0x159
 6924 1329 10       		.byte	0x10
 6925 132a 00       		.byte	0
 6926 132b 0B       		.uleb128 0xb
 6927 132c 04       		.byte	0x4
 6928 132d D0120000 		.4byte	0x12d0
 6929 1331 07       		.uleb128 0x7
 6930 1332 AE1C0000 		.4byte	.LASF248
 6931 1336 04       		.byte	0x4
 6932 1337 12       		.byte	0x12
 6933 1338 4A       		.byte	0x4a
 6934 1339 10       		.byte	0x10
 6935 133a 4C130000 		.4byte	0x134c
 6936 133e 08       		.uleb128 0x8
 6937 133f 0D1C0000 		.4byte	.LASF249
 6938 1343 12       		.byte	0x12
 6939 1344 4B       		.byte	0x4b
 6940 1345 1A       		.byte	0x1a
 6941 1346 2B130000 		.4byte	0x132b
 6942 134a 00       		.byte	0
 6943 134b 00       		.byte	0
 6944 134c 04       		.uleb128 0x4
 6945 134d D2110000 		.4byte	.LASF250
 6946 1351 12       		.byte	0x12
 6947 1352 4E       		.byte	0x4e
 6948 1353 03       		.byte	0x3
 6949 1354 31130000 		.4byte	0x1331
 6950 1358 04       		.uleb128 0x4
 6951 1359 EA0B0000 		.4byte	.LASF251
 6952 135d 13       		.byte	0x13
 6953 135e 3F       		.byte	0x3f
ARM GAS  /tmp/cczbsEFl.s 			page 123


 6954 135f 19       		.byte	0x19
 6955 1360 64130000 		.4byte	0x1364
 6956 1364 07       		.uleb128 0x7
 6957 1365 980D0000 		.4byte	.LASF252
 6958 1369 24       		.byte	0x24
 6959 136a 13       		.byte	0x13
 6960 136b 4D       		.byte	0x4d
 6961 136c 08       		.byte	0x8
 6962 136d DA130000 		.4byte	0x13da
 6963 1371 08       		.uleb128 0x8
 6964 1372 34040000 		.4byte	.LASF253
 6965 1376 13       		.byte	0x13
 6966 1377 4E       		.byte	0x4e
 6967 1378 19       		.byte	0x19
 6968 1379 08030000 		.4byte	0x308
 6969 137d 00       		.byte	0
 6970 137e 08       		.uleb128 0x8
 6971 137f 0D1A0000 		.4byte	.LASF254
 6972 1383 13       		.byte	0x13
 6973 1384 4F       		.byte	0x4f
 6974 1385 19       		.byte	0x19
 6975 1386 3A000000 		.4byte	0x3a
 6976 138a 08       		.byte	0x8
 6977 138b 08       		.uleb128 0x8
 6978 138c 500E0000 		.4byte	.LASF255
 6979 1390 13       		.byte	0x13
 6980 1391 50       		.byte	0x50
 6981 1392 1A       		.byte	0x1a
 6982 1393 FD130000 		.4byte	0x13fd
 6983 1397 0C       		.byte	0xc
 6984 1398 08       		.uleb128 0x8
 6985 1399 7C030000 		.4byte	.LASF256
 6986 139d 13       		.byte	0x13
 6987 139e 51       		.byte	0x51
 6988 139f 1A       		.byte	0x1a
 6989 13a0 FD130000 		.4byte	0x13fd
 6990 13a4 10       		.byte	0x10
 6991 13a5 08       		.uleb128 0x8
 6992 13a6 06160000 		.4byte	.LASF257
 6993 13aa 13       		.byte	0x13
 6994 13ab 53       		.byte	0x53
 6995 13ac 1A       		.byte	0x1a
 6996 13ad FD130000 		.4byte	0x13fd
 6997 13b1 14       		.byte	0x14
 6998 13b2 08       		.uleb128 0x8
 6999 13b3 17150000 		.4byte	.LASF258
 7000 13b7 13       		.byte	0x13
 7001 13b8 54       		.byte	0x54
 7002 13b9 1A       		.byte	0x1a
 7003 13ba FD130000 		.4byte	0x13fd
 7004 13be 18       		.byte	0x18
 7005 13bf 08       		.uleb128 0x8
 7006 13c0 47190000 		.4byte	.LASF259
 7007 13c4 13       		.byte	0x13
 7008 13c5 55       		.byte	0x55
 7009 13c6 19       		.byte	0x19
 7010 13c7 DA130000 		.4byte	0x13da
ARM GAS  /tmp/cczbsEFl.s 			page 124


 7011 13cb 1C       		.byte	0x1c
 7012 13cc 08       		.uleb128 0x8
 7013 13cd C6160000 		.4byte	.LASF260
 7014 13d1 13       		.byte	0x13
 7015 13d2 56       		.byte	0x56
 7016 13d3 1A       		.byte	0x1a
 7017 13d4 C8030000 		.4byte	0x3c8
 7018 13d8 20       		.byte	0x20
 7019 13d9 00       		.byte	0
 7020 13da 04       		.uleb128 0x4
 7021 13db 54030000 		.4byte	.LASF261
 7022 13df 13       		.byte	0x13
 7023 13e0 42       		.byte	0x42
 7024 13e1 10       		.byte	0x10
 7025 13e2 E6130000 		.4byte	0x13e6
 7026 13e6 0B       		.uleb128 0xb
 7027 13e7 04       		.byte	0x4
 7028 13e8 EC130000 		.4byte	0x13ec
 7029 13ec 0D       		.uleb128 0xd
 7030 13ed F7130000 		.4byte	0x13f7
 7031 13f1 0E       		.uleb128 0xe
 7032 13f2 F7130000 		.4byte	0x13f7
 7033 13f6 00       		.byte	0
 7034 13f7 0B       		.uleb128 0xb
 7035 13f8 04       		.byte	0x4
 7036 13f9 58130000 		.4byte	0x1358
 7037 13fd 0B       		.uleb128 0xb
 7038 13fe 04       		.byte	0x4
 7039 13ff 92000000 		.4byte	0x92
 7040 1403 04       		.uleb128 0x4
 7041 1404 74040000 		.4byte	.LASF262
 7042 1408 13       		.byte	0x13
 7043 1409 64       		.byte	0x64
 7044 140a 14       		.byte	0x14
 7045 140b 58130000 		.4byte	0x1358
 7046 140f 04       		.uleb128 0x4
 7047 1410 BE200000 		.4byte	.LASF263
 7048 1414 13       		.byte	0x13
 7049 1415 71       		.byte	0x71
 7050 1416 14       		.byte	0x14
 7051 1417 58130000 		.4byte	0x1358
 7052 141b 20       		.uleb128 0x20
 7053 141c 3A000000 		.4byte	0x3a
 7054 1420 34140000 		.4byte	0x1434
 7055 1424 0E       		.uleb128 0xe
 7056 1425 C8030000 		.4byte	0x3c8
 7057 1429 0E       		.uleb128 0xe
 7058 142a 34140000 		.4byte	0x1434
 7059 142e 0E       		.uleb128 0xe
 7060 142f 3A000000 		.4byte	0x3a
 7061 1433 00       		.byte	0
 7062 1434 0B       		.uleb128 0xb
 7063 1435 04       		.byte	0x4
 7064 1436 9E000000 		.4byte	0x9e
 7065 143a 0B       		.uleb128 0xb
 7066 143b 04       		.byte	0x4
 7067 143c 1B140000 		.4byte	0x141b
ARM GAS  /tmp/cczbsEFl.s 			page 125


 7068 1440 20       		.uleb128 0x20
 7069 1441 3A000000 		.4byte	0x3a
 7070 1445 59140000 		.4byte	0x1459
 7071 1449 0E       		.uleb128 0xe
 7072 144a C8030000 		.4byte	0x3c8
 7073 144e 0E       		.uleb128 0xe
 7074 144f FD130000 		.4byte	0x13fd
 7075 1453 0E       		.uleb128 0xe
 7076 1454 3A000000 		.4byte	0x3a
 7077 1458 00       		.byte	0
 7078 1459 0B       		.uleb128 0xb
 7079 145a 04       		.byte	0x4
 7080 145b 40140000 		.4byte	0x1440
 7081 145f 20       		.uleb128 0x20
 7082 1460 41010000 		.4byte	0x141
 7083 1464 73140000 		.4byte	0x1473
 7084 1468 0E       		.uleb128 0xe
 7085 1469 C8030000 		.4byte	0x3c8
 7086 146d 0E       		.uleb128 0xe
 7087 146e 92000000 		.4byte	0x92
 7088 1472 00       		.byte	0
 7089 1473 0B       		.uleb128 0xb
 7090 1474 04       		.byte	0x4
 7091 1475 5F140000 		.4byte	0x145f
 7092 1479 20       		.uleb128 0x20
 7093 147a 41010000 		.4byte	0x141
 7094 147e 88140000 		.4byte	0x1488
 7095 1482 0E       		.uleb128 0xe
 7096 1483 C8030000 		.4byte	0x3c8
 7097 1487 00       		.byte	0
 7098 1488 0B       		.uleb128 0xb
 7099 1489 04       		.byte	0x4
 7100 148a 79140000 		.4byte	0x1479
 7101 148e 17       		.uleb128 0x17
 7102 148f 0C       		.byte	0xc
 7103 1490 14       		.byte	0x14
 7104 1491 DA       		.byte	0xda
 7105 1492 09       		.byte	0x9
 7106 1493 D9140000 		.4byte	0x14d9
 7107 1497 08       		.uleb128 0x8
 7108 1498 61200000 		.4byte	.LASF264
 7109 149c 14       		.byte	0x14
 7110 149d DB       		.byte	0xdb
 7111 149e 1A       		.byte	0x1a
 7112 149f D9140000 		.4byte	0x14d9
 7113 14a3 00       		.byte	0
 7114 14a4 08       		.uleb128 0x8
 7115 14a5 070D0000 		.4byte	.LASF265
 7116 14a9 14       		.byte	0x14
 7117 14aa DC       		.byte	0xdc
 7118 14ab 1A       		.byte	0x1a
 7119 14ac DF140000 		.4byte	0x14df
 7120 14b0 04       		.byte	0x4
 7121 14b1 08       		.uleb128 0x8
 7122 14b2 69030000 		.4byte	.LASF266
 7123 14b6 14       		.byte	0x14
 7124 14b7 DD       		.byte	0xdd
ARM GAS  /tmp/cczbsEFl.s 			page 126


 7125 14b8 19       		.byte	0x19
 7126 14b9 92000000 		.4byte	0x92
 7127 14bd 08       		.byte	0x8
 7128 14be 08       		.uleb128 0x8
 7129 14bf 4D1A0000 		.4byte	.LASF267
 7130 14c3 14       		.byte	0x14
 7131 14c4 DF       		.byte	0xdf
 7132 14c5 19       		.byte	0x19
 7133 14c6 92000000 		.4byte	0x92
 7134 14ca 09       		.byte	0x9
 7135 14cb 08       		.uleb128 0x8
 7136 14cc E6020000 		.4byte	.LASF268
 7137 14d0 14       		.byte	0x14
 7138 14d1 E0       		.byte	0xe0
 7139 14d2 19       		.byte	0x19
 7140 14d3 92000000 		.4byte	0x92
 7141 14d7 0A       		.byte	0xa
 7142 14d8 00       		.byte	0
 7143 14d9 0B       		.uleb128 0xb
 7144 14da 04       		.byte	0x4
 7145 14db 4E0A0000 		.4byte	0xa4e
 7146 14df 0B       		.uleb128 0xb
 7147 14e0 04       		.byte	0x4
 7148 14e1 C9000000 		.4byte	0xc9
 7149 14e5 04       		.uleb128 0x4
 7150 14e6 4B0F0000 		.4byte	.LASF269
 7151 14ea 14       		.byte	0x14
 7152 14eb E1       		.byte	0xe1
 7153 14ec 03       		.byte	0x3
 7154 14ed 8E140000 		.4byte	0x148e
 7155 14f1 06       		.uleb128 0x6
 7156 14f2 E5140000 		.4byte	0x14e5
 7157 14f6 13       		.uleb128 0x13
 7158 14f7 F1140000 		.4byte	0x14f1
 7159 14fb 06150000 		.4byte	0x1506
 7160 14ff 14       		.uleb128 0x14
 7161 1500 2C000000 		.4byte	0x2c
 7162 1504 0F       		.byte	0xf
 7163 1505 00       		.byte	0
 7164 1506 06       		.uleb128 0x6
 7165 1507 F6140000 		.4byte	0x14f6
 7166 150b 15       		.uleb128 0x15
 7167 150c 32170000 		.4byte	.LASF270
 7168 1510 14       		.byte	0x14
 7169 1511 BB01     		.2byte	0x1bb
 7170 1513 21       		.byte	0x21
 7171 1514 06150000 		.4byte	0x1506
 7172 1518 20       		.uleb128 0x20
 7173 1519 41010000 		.4byte	0x141
 7174 151d 31150000 		.4byte	0x1531
 7175 1521 0E       		.uleb128 0xe
 7176 1522 C8030000 		.4byte	0x3c8
 7177 1526 0E       		.uleb128 0xe
 7178 1527 92000000 		.4byte	0x92
 7179 152b 0E       		.uleb128 0xe
 7180 152c 7D010000 		.4byte	0x17d
 7181 1530 00       		.byte	0
ARM GAS  /tmp/cczbsEFl.s 			page 127


 7182 1531 0B       		.uleb128 0xb
 7183 1532 04       		.byte	0x4
 7184 1533 18150000 		.4byte	0x1518
 7185 1537 20       		.uleb128 0x20
 7186 1538 41010000 		.4byte	0x141
 7187 153c 4B150000 		.4byte	0x154b
 7188 1540 0E       		.uleb128 0xe
 7189 1541 C8030000 		.4byte	0x3c8
 7190 1545 0E       		.uleb128 0xe
 7191 1546 7D010000 		.4byte	0x17d
 7192 154a 00       		.byte	0
 7193 154b 0B       		.uleb128 0xb
 7194 154c 04       		.byte	0x4
 7195 154d 37150000 		.4byte	0x1537
 7196 1551 20       		.uleb128 0x20
 7197 1552 3A000000 		.4byte	0x3a
 7198 1556 6F150000 		.4byte	0x156f
 7199 155a 0E       		.uleb128 0xe
 7200 155b C8030000 		.4byte	0x3c8
 7201 155f 0E       		.uleb128 0xe
 7202 1560 34140000 		.4byte	0x1434
 7203 1564 0E       		.uleb128 0xe
 7204 1565 3A000000 		.4byte	0x3a
 7205 1569 0E       		.uleb128 0xe
 7206 156a 7D010000 		.4byte	0x17d
 7207 156e 00       		.byte	0
 7208 156f 0B       		.uleb128 0xb
 7209 1570 04       		.byte	0x4
 7210 1571 51150000 		.4byte	0x1551
 7211 1575 20       		.uleb128 0x20
 7212 1576 3A000000 		.4byte	0x3a
 7213 157a 93150000 		.4byte	0x1593
 7214 157e 0E       		.uleb128 0xe
 7215 157f C8030000 		.4byte	0x3c8
 7216 1583 0E       		.uleb128 0xe
 7217 1584 FD130000 		.4byte	0x13fd
 7218 1588 0E       		.uleb128 0xe
 7219 1589 3A000000 		.4byte	0x3a
 7220 158d 0E       		.uleb128 0xe
 7221 158e 7D010000 		.4byte	0x17d
 7222 1592 00       		.byte	0
 7223 1593 0B       		.uleb128 0xb
 7224 1594 04       		.byte	0x4
 7225 1595 75150000 		.4byte	0x1575
 7226 1599 21       		.uleb128 0x21
 7227 159a 07       		.byte	0x7
 7228 159b 01       		.byte	0x1
 7229 159c A3000000 		.4byte	0xa3
 7230 15a0 15       		.byte	0x15
 7231 15a1 28       		.byte	0x28
 7232 15a2 0E       		.byte	0xe
 7233 15a3 DE150000 		.4byte	0x15de
 7234 15a7 22       		.uleb128 0x22
 7235 15a8 F6000000 		.4byte	.LASF271
 7236 15ac 00       		.byte	0
 7237 15ad 22       		.uleb128 0x22
 7238 15ae 6F0C0000 		.4byte	.LASF272
ARM GAS  /tmp/cczbsEFl.s 			page 128


 7239 15b2 01       		.byte	0x1
 7240 15b3 22       		.uleb128 0x22
 7241 15b4 39090000 		.4byte	.LASF273
 7242 15b8 02       		.byte	0x2
 7243 15b9 22       		.uleb128 0x22
 7244 15ba AD180000 		.4byte	.LASF274
 7245 15be 03       		.byte	0x3
 7246 15bf 22       		.uleb128 0x22
 7247 15c0 3E1F0000 		.4byte	.LASF275
 7248 15c4 04       		.byte	0x4
 7249 15c5 22       		.uleb128 0x22
 7250 15c6 4F060000 		.4byte	.LASF276
 7251 15ca 05       		.byte	0x5
 7252 15cb 22       		.uleb128 0x22
 7253 15cc 2D1A0000 		.4byte	.LASF277
 7254 15d0 06       		.byte	0x6
 7255 15d1 22       		.uleb128 0x22
 7256 15d2 78150000 		.4byte	.LASF278
 7257 15d6 07       		.byte	0x7
 7258 15d7 22       		.uleb128 0x22
 7259 15d8 051F0000 		.4byte	.LASF279
 7260 15dc 08       		.byte	0x8
 7261 15dd 00       		.byte	0
 7262 15de 04       		.uleb128 0x4
 7263 15df 44140000 		.4byte	.LASF280
 7264 15e3 15       		.byte	0x15
 7265 15e4 32       		.byte	0x32
 7266 15e5 03       		.byte	0x3
 7267 15e6 99150000 		.4byte	0x1599
 7268 15ea 17       		.uleb128 0x17
 7269 15eb 08       		.byte	0x8
 7270 15ec 15       		.byte	0x15
 7271 15ed 37       		.byte	0x37
 7272 15ee 09       		.byte	0x9
 7273 15ef 0E160000 		.4byte	0x160e
 7274 15f3 08       		.uleb128 0x8
 7275 15f4 F2050000 		.4byte	.LASF281
 7276 15f8 15       		.byte	0x15
 7277 15f9 38       		.byte	0x38
 7278 15fa 11       		.byte	0x11
 7279 15fb BD000000 		.4byte	0xbd
 7280 15ff 00       		.byte	0
 7281 1600 08       		.uleb128 0x8
 7282 1601 79190000 		.4byte	.LASF282
 7283 1605 15       		.byte	0x15
 7284 1606 39       		.byte	0x39
 7285 1607 11       		.byte	0x11
 7286 1608 BD000000 		.4byte	0xbd
 7287 160c 04       		.byte	0x4
 7288 160d 00       		.byte	0
 7289 160e 04       		.uleb128 0x4
 7290 160f BF1B0000 		.4byte	.LASF283
 7291 1613 15       		.byte	0x15
 7292 1614 3A       		.byte	0x3a
 7293 1615 03       		.byte	0x3
 7294 1616 EA150000 		.4byte	0x15ea
 7295 161a 20       		.uleb128 0x20
ARM GAS  /tmp/cczbsEFl.s 			page 129


 7296 161b 29160000 		.4byte	0x1629
 7297 161f 29160000 		.4byte	0x1629
 7298 1623 0E       		.uleb128 0xe
 7299 1624 C8030000 		.4byte	0x3c8
 7300 1628 00       		.byte	0
 7301 1629 02       		.uleb128 0x2
 7302 162a 01       		.byte	0x1
 7303 162b 02       		.byte	0x2
 7304 162c BA000000 		.4byte	.LASF284
 7305 1630 0B       		.uleb128 0xb
 7306 1631 04       		.byte	0x4
 7307 1632 1A160000 		.4byte	0x161a
 7308 1636 20       		.uleb128 0x20
 7309 1637 29160000 		.4byte	0x1629
 7310 163b 54160000 		.4byte	0x1654
 7311 163f 0E       		.uleb128 0xe
 7312 1640 C8030000 		.4byte	0x3c8
 7313 1644 0E       		.uleb128 0xe
 7314 1645 BD000000 		.4byte	0xbd
 7315 1649 0E       		.uleb128 0xe
 7316 164a FD130000 		.4byte	0x13fd
 7317 164e 0E       		.uleb128 0xe
 7318 164f BD000000 		.4byte	0xbd
 7319 1653 00       		.byte	0
 7320 1654 0B       		.uleb128 0xb
 7321 1655 04       		.byte	0x4
 7322 1656 36160000 		.4byte	0x1636
 7323 165a 20       		.uleb128 0x20
 7324 165b 29160000 		.4byte	0x1629
 7325 165f 78160000 		.4byte	0x1678
 7326 1663 0E       		.uleb128 0xe
 7327 1664 C8030000 		.4byte	0x3c8
 7328 1668 0E       		.uleb128 0xe
 7329 1669 BD000000 		.4byte	0xbd
 7330 166d 0E       		.uleb128 0xe
 7331 166e 34140000 		.4byte	0x1434
 7332 1672 0E       		.uleb128 0xe
 7333 1673 BD000000 		.4byte	0xbd
 7334 1677 00       		.byte	0
 7335 1678 0B       		.uleb128 0xb
 7336 1679 04       		.byte	0x4
 7337 167a 5A160000 		.4byte	0x165a
 7338 167e 20       		.uleb128 0x20
 7339 167f 29160000 		.4byte	0x1629
 7340 1683 92160000 		.4byte	0x1692
 7341 1687 0E       		.uleb128 0xe
 7342 1688 C8030000 		.4byte	0x3c8
 7343 168c 0E       		.uleb128 0xe
 7344 168d 92160000 		.4byte	0x1692
 7345 1691 00       		.byte	0
 7346 1692 0B       		.uleb128 0xb
 7347 1693 04       		.byte	0x4
 7348 1694 0E160000 		.4byte	0x160e
 7349 1698 0B       		.uleb128 0xb
 7350 1699 04       		.byte	0x4
 7351 169a 7E160000 		.4byte	0x167e
 7352 169e 13       		.uleb128 0x13
ARM GAS  /tmp/cczbsEFl.s 			page 130


 7353 169f BD000000 		.4byte	0xbd
 7354 16a3 AE160000 		.4byte	0x16ae
 7355 16a7 14       		.uleb128 0x14
 7356 16a8 2C000000 		.4byte	0x2c
 7357 16ac 03       		.byte	0x3
 7358 16ad 00       		.byte	0
 7359 16ae 17       		.uleb128 0x17
 7360 16af 04       		.byte	0x4
 7361 16b0 16       		.byte	0x16
 7362 16b1 B3       		.byte	0xb3
 7363 16b2 05       		.byte	0x5
 7364 16b3 D2160000 		.4byte	0x16d2
 7365 16b7 18       		.uleb128 0x18
 7366 16b8 73657400 		.ascii	"set\000"
 7367 16bc 16       		.byte	0x16
 7368 16bd B4       		.byte	0xb4
 7369 16be 19       		.byte	0x19
 7370 16bf AA000000 		.4byte	0xaa
 7371 16c3 00       		.byte	0
 7372 16c4 08       		.uleb128 0x8
 7373 16c5 E90A0000 		.4byte	.LASF285
 7374 16c9 16       		.byte	0x16
 7375 16ca B5       		.byte	0xb5
 7376 16cb 19       		.byte	0x19
 7377 16cc AA000000 		.4byte	0xaa
 7378 16d0 02       		.byte	0x2
 7379 16d1 00       		.byte	0
 7380 16d2 1D       		.uleb128 0x1d
 7381 16d3 04       		.byte	0x4
 7382 16d4 16       		.byte	0x16
 7383 16d5 B1       		.byte	0xb1
 7384 16d6 0C       		.byte	0xc
 7385 16d7 F0160000 		.4byte	0x16f0
 7386 16db 23       		.uleb128 0x23
 7387 16dc 5700     		.ascii	"W\000"
 7388 16de 16       		.byte	0x16
 7389 16df B2       		.byte	0xb2
 7390 16e0 19       		.byte	0x19
 7391 16e1 BD000000 		.4byte	0xbd
 7392 16e5 23       		.uleb128 0x23
 7393 16e6 4800     		.ascii	"H\000"
 7394 16e8 16       		.byte	0x16
 7395 16e9 B6       		.byte	0xb6
 7396 16ea 07       		.byte	0x7
 7397 16eb AE160000 		.4byte	0x16ae
 7398 16ef 00       		.byte	0
 7399 16f0 05       		.uleb128 0x5
 7400 16f1 D2160000 		.4byte	0x16d2
 7401 16f5 17       		.uleb128 0x17
 7402 16f6 2C       		.byte	0x2c
 7403 16f7 16       		.byte	0x16
 7404 16f8 A9       		.byte	0xa9
 7405 16f9 09       		.byte	0x9
 7406 16fa 8E170000 		.4byte	0x178e
 7407 16fe 08       		.uleb128 0x8
 7408 16ff 6A1A0000 		.4byte	.LASF286
 7409 1703 16       		.byte	0x16
ARM GAS  /tmp/cczbsEFl.s 			page 131


 7410 1704 AB       		.byte	0xab
 7411 1705 19       		.byte	0x19
 7412 1706 C9000000 		.4byte	0xc9
 7413 170a 00       		.byte	0
 7414 170b 08       		.uleb128 0x8
 7415 170c 66020000 		.4byte	.LASF287
 7416 1710 16       		.byte	0x16
 7417 1711 AC       		.byte	0xac
 7418 1712 19       		.byte	0x19
 7419 1713 C9000000 		.4byte	0xc9
 7420 1717 04       		.byte	0x4
 7421 1718 08       		.uleb128 0x8
 7422 1719 420C0000 		.4byte	.LASF288
 7423 171d 16       		.byte	0x16
 7424 171e AD       		.byte	0xad
 7425 171f 19       		.byte	0x19
 7426 1720 C9000000 		.4byte	0xc9
 7427 1724 08       		.byte	0x8
 7428 1725 08       		.uleb128 0x8
 7429 1726 CC190000 		.4byte	.LASF289
 7430 172a 16       		.byte	0x16
 7431 172b AE       		.byte	0xae
 7432 172c 19       		.byte	0x19
 7433 172d C9000000 		.4byte	0xc9
 7434 1731 0C       		.byte	0xc
 7435 1732 18       		.uleb128 0x18
 7436 1733 49445200 		.ascii	"IDR\000"
 7437 1737 16       		.byte	0x16
 7438 1738 AF       		.byte	0xaf
 7439 1739 19       		.byte	0x19
 7440 173a C9000000 		.4byte	0xc9
 7441 173e 10       		.byte	0x10
 7442 173f 18       		.uleb128 0x18
 7443 1740 4F445200 		.ascii	"ODR\000"
 7444 1744 16       		.byte	0x16
 7445 1745 B0       		.byte	0xb0
 7446 1746 19       		.byte	0x19
 7447 1747 C9000000 		.4byte	0xc9
 7448 174b 14       		.byte	0x14
 7449 174c 08       		.uleb128 0x8
 7450 174d 460F0000 		.4byte	.LASF290
 7451 1751 16       		.byte	0x16
 7452 1752 B7       		.byte	0xb7
 7453 1753 05       		.byte	0x5
 7454 1754 F0160000 		.4byte	0x16f0
 7455 1758 18       		.byte	0x18
 7456 1759 08       		.uleb128 0x8
 7457 175a 55150000 		.4byte	.LASF291
 7458 175e 16       		.byte	0x16
 7459 175f B8       		.byte	0xb8
 7460 1760 19       		.byte	0x19
 7461 1761 C9000000 		.4byte	0xc9
 7462 1765 1C       		.byte	0x1c
 7463 1766 08       		.uleb128 0x8
 7464 1767 4B180000 		.4byte	.LASF292
 7465 176b 16       		.byte	0x16
 7466 176c B9       		.byte	0xb9
ARM GAS  /tmp/cczbsEFl.s 			page 132


 7467 176d 19       		.byte	0x19
 7468 176e C9000000 		.4byte	0xc9
 7469 1772 20       		.byte	0x20
 7470 1773 08       		.uleb128 0x8
 7471 1774 46180000 		.4byte	.LASF293
 7472 1778 16       		.byte	0x16
 7473 1779 BA       		.byte	0xba
 7474 177a 19       		.byte	0x19
 7475 177b C9000000 		.4byte	0xc9
 7476 177f 24       		.byte	0x24
 7477 1780 18       		.uleb128 0x18
 7478 1781 42525200 		.ascii	"BRR\000"
 7479 1785 16       		.byte	0x16
 7480 1786 BB       		.byte	0xbb
 7481 1787 19       		.byte	0x19
 7482 1788 C9000000 		.4byte	0xc9
 7483 178c 28       		.byte	0x28
 7484 178d 00       		.byte	0
 7485 178e 04       		.uleb128 0x4
 7486 178f 1F0D0000 		.4byte	.LASF294
 7487 1793 16       		.byte	0x16
 7488 1794 BC       		.byte	0xbc
 7489 1795 03       		.byte	0x3
 7490 1796 F5160000 		.4byte	0x16f5
 7491 179a 17       		.uleb128 0x17
 7492 179b 1C       		.byte	0x1c
 7493 179c 16       		.byte	0x16
 7494 179d C1       		.byte	0xc1
 7495 179e 09       		.byte	0x9
 7496 179f FF170000 		.4byte	0x17ff
 7497 17a3 08       		.uleb128 0x8
 7498 17a4 AE1D0000 		.4byte	.LASF295
 7499 17a8 16       		.byte	0x16
 7500 17a9 C3       		.byte	0xc3
 7501 17aa 19       		.byte	0x19
 7502 17ab BD000000 		.4byte	0xbd
 7503 17af 00       		.byte	0
 7504 17b0 08       		.uleb128 0x8
 7505 17b1 5F020000 		.4byte	.LASF296
 7506 17b5 16       		.byte	0x16
 7507 17b6 C5       		.byte	0xc5
 7508 17b7 19       		.byte	0x19
 7509 17b8 BD000000 		.4byte	0xbd
 7510 17bc 04       		.byte	0x4
 7511 17bd 08       		.uleb128 0x8
 7512 17be 90010000 		.4byte	.LASF297
 7513 17c2 16       		.byte	0x16
 7514 17c3 C7       		.byte	0xc7
 7515 17c4 19       		.byte	0x19
 7516 17c5 BD000000 		.4byte	0xbd
 7517 17c9 08       		.byte	0x8
 7518 17ca 08       		.uleb128 0x8
 7519 17cb F31C0000 		.4byte	.LASF298
 7520 17cf 16       		.byte	0x16
 7521 17d0 C9       		.byte	0xc9
 7522 17d1 19       		.byte	0x19
 7523 17d2 BD000000 		.4byte	0xbd
ARM GAS  /tmp/cczbsEFl.s 			page 133


 7524 17d6 0C       		.byte	0xc
 7525 17d7 18       		.uleb128 0x18
 7526 17d8 6F647200 		.ascii	"odr\000"
 7527 17dc 16       		.byte	0x16
 7528 17dd CB       		.byte	0xcb
 7529 17de 19       		.byte	0x19
 7530 17df BD000000 		.4byte	0xbd
 7531 17e3 10       		.byte	0x10
 7532 17e4 08       		.uleb128 0x8
 7533 17e5 391A0000 		.4byte	.LASF299
 7534 17e9 16       		.byte	0x16
 7535 17ea CD       		.byte	0xcd
 7536 17eb 19       		.byte	0x19
 7537 17ec BD000000 		.4byte	0xbd
 7538 17f0 14       		.byte	0x14
 7539 17f1 08       		.uleb128 0x8
 7540 17f2 4B000000 		.4byte	.LASF300
 7541 17f6 16       		.byte	0x16
 7542 17f7 CF       		.byte	0xcf
 7543 17f8 19       		.byte	0x19
 7544 17f9 BD000000 		.4byte	0xbd
 7545 17fd 18       		.byte	0x18
 7546 17fe 00       		.byte	0
 7547 17ff 04       		.uleb128 0x4
 7548 1800 1F170000 		.4byte	.LASF301
 7549 1804 16       		.byte	0x16
 7550 1805 D0       		.byte	0xd0
 7551 1806 03       		.byte	0x3
 7552 1807 9A170000 		.4byte	0x179a
 7553 180b 17       		.uleb128 0x17
 7554 180c FC       		.byte	0xfc
 7555 180d 16       		.byte	0x16
 7556 180e D9       		.byte	0xd9
 7557 180f 09       		.byte	0x9
 7558 1810 8A180000 		.4byte	0x188a
 7559 1814 08       		.uleb128 0x8
 7560 1815 CB0D0000 		.4byte	.LASF302
 7561 1819 16       		.byte	0x16
 7562 181a DC       		.byte	0xdc
 7563 181b 19       		.byte	0x19
 7564 181c FF170000 		.4byte	0x17ff
 7565 1820 00       		.byte	0
 7566 1821 08       		.uleb128 0x8
 7567 1822 48020000 		.4byte	.LASF303
 7568 1826 16       		.byte	0x16
 7569 1827 E0       		.byte	0xe0
 7570 1828 19       		.byte	0x19
 7571 1829 FF170000 		.4byte	0x17ff
 7572 182d 1C       		.byte	0x1c
 7573 182e 08       		.uleb128 0x8
 7574 182f 3E010000 		.4byte	.LASF304
 7575 1833 16       		.byte	0x16
 7576 1834 E4       		.byte	0xe4
 7577 1835 19       		.byte	0x19
 7578 1836 FF170000 		.4byte	0x17ff
 7579 183a 38       		.byte	0x38
 7580 183b 08       		.uleb128 0x8
ARM GAS  /tmp/cczbsEFl.s 			page 134


 7581 183c CE0B0000 		.4byte	.LASF305
 7582 1840 16       		.byte	0x16
 7583 1841 E8       		.byte	0xe8
 7584 1842 19       		.byte	0x19
 7585 1843 FF170000 		.4byte	0x17ff
 7586 1847 54       		.byte	0x54
 7587 1848 08       		.uleb128 0x8
 7588 1849 6C160000 		.4byte	.LASF306
 7589 184d 16       		.byte	0x16
 7590 184e EC       		.byte	0xec
 7591 184f 19       		.byte	0x19
 7592 1850 FF170000 		.4byte	0x17ff
 7593 1854 70       		.byte	0x70
 7594 1855 08       		.uleb128 0x8
 7595 1856 0B210000 		.4byte	.LASF307
 7596 185a 16       		.byte	0x16
 7597 185b F0       		.byte	0xf0
 7598 185c 19       		.byte	0x19
 7599 185d FF170000 		.4byte	0x17ff
 7600 1861 8C       		.byte	0x8c
 7601 1862 08       		.uleb128 0x8
 7602 1863 CA090000 		.4byte	.LASF308
 7603 1867 16       		.byte	0x16
 7604 1868 F4       		.byte	0xf4
 7605 1869 19       		.byte	0x19
 7606 186a FF170000 		.4byte	0x17ff
 7607 186e A8       		.byte	0xa8
 7608 186f 08       		.uleb128 0x8
 7609 1870 C1140000 		.4byte	.LASF309
 7610 1874 16       		.byte	0x16
 7611 1875 F8       		.byte	0xf8
 7612 1876 19       		.byte	0x19
 7613 1877 FF170000 		.4byte	0x17ff
 7614 187b C4       		.byte	0xc4
 7615 187c 08       		.uleb128 0x8
 7616 187d 111F0000 		.4byte	.LASF310
 7617 1881 16       		.byte	0x16
 7618 1882 FC       		.byte	0xfc
 7619 1883 19       		.byte	0x19
 7620 1884 FF170000 		.4byte	0x17ff
 7621 1888 E0       		.byte	0xe0
 7622 1889 00       		.byte	0
 7623 188a 04       		.uleb128 0x4
 7624 188b 11090000 		.4byte	.LASF311
 7625 188f 16       		.byte	0x16
 7626 1890 FE       		.byte	0xfe
 7627 1891 03       		.byte	0x3
 7628 1892 0B180000 		.4byte	0x180b
 7629 1896 06       		.uleb128 0x6
 7630 1897 8A180000 		.4byte	0x188a
 7631 189b 1A       		.uleb128 0x1a
 7632 189c C8140000 		.4byte	.LASF312
 7633 18a0 16       		.byte	0x16
 7634 18a1 1B01     		.2byte	0x11b
 7635 18a3 18       		.byte	0x18
 7636 18a4 A8180000 		.4byte	0x18a8
 7637 18a8 0B       		.uleb128 0xb
ARM GAS  /tmp/cczbsEFl.s 			page 135


 7638 18a9 04       		.byte	0x4
 7639 18aa 8E170000 		.4byte	0x178e
 7640 18ae 15       		.uleb128 0x15
 7641 18af 311B0000 		.4byte	.LASF313
 7642 18b3 16       		.byte	0x16
 7643 18b4 DA01     		.2byte	0x1da
 7644 18b6 18       		.byte	0x18
 7645 18b7 96180000 		.4byte	0x1896
 7646 18bb 21       		.uleb128 0x21
 7647 18bc 07       		.byte	0x7
 7648 18bd 01       		.byte	0x1
 7649 18be A3000000 		.4byte	0xa3
 7650 18c2 17       		.byte	0x17
 7651 18c3 46       		.byte	0x46
 7652 18c4 0E       		.byte	0xe
 7653 18c5 EE180000 		.4byte	0x18ee
 7654 18c9 22       		.uleb128 0x22
 7655 18ca 01070000 		.4byte	.LASF314
 7656 18ce 00       		.byte	0
 7657 18cf 22       		.uleb128 0x22
 7658 18d0 86120000 		.4byte	.LASF315
 7659 18d4 01       		.byte	0x1
 7660 18d5 22       		.uleb128 0x22
 7661 18d6 631D0000 		.4byte	.LASF316
 7662 18da 02       		.byte	0x2
 7663 18db 22       		.uleb128 0x22
 7664 18dc 2C0F0000 		.4byte	.LASF317
 7665 18e0 03       		.byte	0x3
 7666 18e1 22       		.uleb128 0x22
 7667 18e2 4B050000 		.4byte	.LASF318
 7668 18e6 04       		.byte	0x4
 7669 18e7 22       		.uleb128 0x22
 7670 18e8 040F0000 		.4byte	.LASF319
 7671 18ec 05       		.byte	0x5
 7672 18ed 00       		.byte	0
 7673 18ee 04       		.uleb128 0x4
 7674 18ef 5E030000 		.4byte	.LASF320
 7675 18f3 17       		.byte	0x17
 7676 18f4 4D       		.byte	0x4d
 7677 18f5 03       		.byte	0x3
 7678 18f6 BB180000 		.4byte	0x18bb
 7679 18fa 1A       		.uleb128 0x1a
 7680 18fb 360E0000 		.4byte	.LASF321
 7681 18ff 18       		.byte	0x18
 7682 1900 2701     		.2byte	0x127
 7683 1902 12       		.byte	0x12
 7684 1903 AA000000 		.4byte	0xaa
 7685 1907 1A       		.uleb128 0x1a
 7686 1908 C7180000 		.4byte	.LASF322
 7687 190c 18       		.byte	0x18
 7688 190d 2C01     		.2byte	0x12c
 7689 190f 12       		.byte	0x12
 7690 1910 AA000000 		.4byte	0xaa
 7691 1914 24       		.uleb128 0x24
 7692 1915 07       		.byte	0x7
 7693 1916 01       		.byte	0x1
 7694 1917 A3000000 		.4byte	0xa3
ARM GAS  /tmp/cczbsEFl.s 			page 136


 7695 191b 18       		.byte	0x18
 7696 191c 3301     		.2byte	0x133
 7697 191e 0E       		.byte	0xe
 7698 191f 30190000 		.4byte	0x1930
 7699 1923 22       		.uleb128 0x22
 7700 1924 130C0000 		.4byte	.LASF323
 7701 1928 00       		.byte	0
 7702 1929 22       		.uleb128 0x22
 7703 192a A8010000 		.4byte	.LASF324
 7704 192e 01       		.byte	0x1
 7705 192f 00       		.byte	0
 7706 1930 1A       		.uleb128 0x1a
 7707 1931 4B1E0000 		.4byte	.LASF325
 7708 1935 18       		.byte	0x18
 7709 1936 3601     		.2byte	0x136
 7710 1938 03       		.byte	0x3
 7711 1939 14190000 		.4byte	0x1914
 7712 193d 1A       		.uleb128 0x1a
 7713 193e A30C0000 		.4byte	.LASF326
 7714 1942 18       		.byte	0x18
 7715 1943 3B01     		.2byte	0x13b
 7716 1945 1A       		.byte	0x1a
 7717 1946 4A190000 		.4byte	0x194a
 7718 194a 0C       		.uleb128 0xc
 7719 194b A30C0000 		.4byte	.LASF326
 7720 194f 38       		.byte	0x38
 7721 1950 18       		.byte	0x18
 7722 1951 9F01     		.2byte	0x19f
 7723 1953 08       		.byte	0x8
 7724 1954 E5190000 		.4byte	0x19e5
 7725 1958 0A       		.uleb128 0xa
 7726 1959 39130000 		.4byte	.LASF327
 7727 195d 18       		.byte	0x18
 7728 195e A301     		.2byte	0x1a3
 7729 1960 1D       		.byte	0x1d
 7730 1961 EE180000 		.4byte	0x18ee
 7731 1965 00       		.byte	0
 7732 1966 0A       		.uleb128 0xa
 7733 1967 95180000 		.4byte	.LASF328
 7734 196b 18       		.byte	0x18
 7735 196c A701     		.2byte	0x1a7
 7736 196e 1E       		.byte	0x1e
 7737 196f 1E1B0000 		.4byte	0x1b1e
 7738 1973 04       		.byte	0x4
 7739 1974 0A       		.uleb128 0xa
 7740 1975 4A010000 		.4byte	.LASF329
 7741 1979 18       		.byte	0x18
 7742 197a AB01     		.2byte	0x1ab
 7743 197c 1E       		.byte	0x1e
 7744 197d 131A0000 		.4byte	0x1a13
 7745 1981 08       		.byte	0x8
 7746 1982 0A       		.uleb128 0xa
 7747 1983 B5150000 		.4byte	.LASF330
 7748 1987 18       		.byte	0x18
 7749 1988 AF01     		.2byte	0x1af
 7750 198a 1D       		.byte	0x1d
 7751 198b 3A000000 		.4byte	0x3a
ARM GAS  /tmp/cczbsEFl.s 			page 137


 7752 198f 0C       		.byte	0xc
 7753 1990 0A       		.uleb128 0xa
 7754 1991 441B0000 		.4byte	.LASF331
 7755 1995 18       		.byte	0x18
 7756 1996 B301     		.2byte	0x1b3
 7757 1998 1E       		.byte	0x1e
 7758 1999 241B0000 		.4byte	0x1b24
 7759 199d 10       		.byte	0x10
 7760 199e 0A       		.uleb128 0xa
 7761 199f C9050000 		.4byte	.LASF332
 7762 19a3 18       		.byte	0x18
 7763 19a4 B801     		.2byte	0x1b8
 7764 19a6 1D       		.byte	0x1d
 7765 19a7 CF020000 		.4byte	0x2cf
 7766 19ab 14       		.byte	0x14
 7767 19ac 0A       		.uleb128 0xa
 7768 19ad A40A0000 		.4byte	.LASF333
 7769 19b1 18       		.byte	0x18
 7770 19b2 BE01     		.2byte	0x1be
 7771 19b4 1D       		.byte	0x1d
 7772 19b5 BE120000 		.4byte	0x12be
 7773 19b9 18       		.byte	0x18
 7774 19ba 09       		.uleb128 0x9
 7775 19bb 61646300 		.ascii	"adc\000"
 7776 19bf 18       		.byte	0x18
 7777 19c0 C701     		.2byte	0x1c7
 7778 19c2 1E       		.byte	0x1e
 7779 19c3 2A1B0000 		.4byte	0x1b2a
 7780 19c7 2C       		.byte	0x2c
 7781 19c8 0A       		.uleb128 0xa
 7782 19c9 D0080000 		.4byte	.LASF334
 7783 19cd 18       		.byte	0x18
 7784 19ce CB01     		.2byte	0x1cb
 7785 19d0 1E       		.byte	0x1e
 7786 19d1 301B0000 		.4byte	0x1b30
 7787 19d5 30       		.byte	0x30
 7788 19d6 0A       		.uleb128 0xa
 7789 19d7 F3140000 		.4byte	.LASF335
 7790 19db 18       		.byte	0x18
 7791 19dc CF01     		.2byte	0x1cf
 7792 19de 1D       		.byte	0x1d
 7793 19df BD000000 		.4byte	0xbd
 7794 19e3 34       		.byte	0x34
 7795 19e4 00       		.byte	0
 7796 19e5 1A       		.uleb128 0x1a
 7797 19e6 BE170000 		.4byte	.LASF336
 7798 19ea 18       		.byte	0x18
 7799 19eb 4501     		.2byte	0x145
 7800 19ed 10       		.byte	0x10
 7801 19ee F2190000 		.4byte	0x19f2
 7802 19f2 0B       		.uleb128 0xb
 7803 19f3 04       		.byte	0x4
 7804 19f4 F8190000 		.4byte	0x19f8
 7805 19f8 0D       		.uleb128 0xd
 7806 19f9 0D1A0000 		.4byte	0x1a0d
 7807 19fd 0E       		.uleb128 0xe
 7808 19fe 0D1A0000 		.4byte	0x1a0d
ARM GAS  /tmp/cczbsEFl.s 			page 138


 7809 1a02 0E       		.uleb128 0xe
 7810 1a03 131A0000 		.4byte	0x1a13
 7811 1a07 0E       		.uleb128 0xe
 7812 1a08 3A000000 		.4byte	0x3a
 7813 1a0c 00       		.byte	0
 7814 1a0d 0B       		.uleb128 0xb
 7815 1a0e 04       		.byte	0x4
 7816 1a0f 3D190000 		.4byte	0x193d
 7817 1a13 0B       		.uleb128 0xb
 7818 1a14 04       		.byte	0x4
 7819 1a15 FA180000 		.4byte	0x18fa
 7820 1a19 1A       		.uleb128 0x1a
 7821 1a1a 1B130000 		.4byte	.LASF337
 7822 1a1e 18       		.byte	0x18
 7823 1a1f 4E01     		.2byte	0x14e
 7824 1a21 10       		.byte	0x10
 7825 1a22 261A0000 		.4byte	0x1a26
 7826 1a26 0B       		.uleb128 0xb
 7827 1a27 04       		.byte	0x4
 7828 1a28 2C1A0000 		.4byte	0x1a2c
 7829 1a2c 0D       		.uleb128 0xd
 7830 1a2d 3C1A0000 		.4byte	0x1a3c
 7831 1a31 0E       		.uleb128 0xe
 7832 1a32 0D1A0000 		.4byte	0x1a0d
 7833 1a36 0E       		.uleb128 0xe
 7834 1a37 30190000 		.4byte	0x1930
 7835 1a3b 00       		.byte	0
 7836 1a3c 19       		.uleb128 0x19
 7837 1a3d 28       		.byte	0x28
 7838 1a3e 18       		.byte	0x18
 7839 1a3f 5801     		.2byte	0x158
 7840 1a41 09       		.byte	0x9
 7841 1a42 E11A0000 		.4byte	0x1ae1
 7842 1a46 0A       		.uleb128 0xa
 7843 1a47 9A1D0000 		.4byte	.LASF338
 7844 1a4b 18       		.byte	0x18
 7845 1a4c 5C01     		.2byte	0x15c
 7846 1a4e 1D       		.byte	0x1d
 7847 1a4f 29160000 		.4byte	0x1629
 7848 1a53 00       		.byte	0
 7849 1a54 0A       		.uleb128 0xa
 7850 1a55 690D0000 		.4byte	.LASF339
 7851 1a59 18       		.byte	0x18
 7852 1a5a 6001     		.2byte	0x160
 7853 1a5c 1D       		.byte	0x1d
 7854 1a5d 07190000 		.4byte	0x1907
 7855 1a61 02       		.byte	0x2
 7856 1a62 0A       		.uleb128 0xa
 7857 1a63 B5070000 		.4byte	.LASF340
 7858 1a67 18       		.byte	0x18
 7859 1a68 6401     		.2byte	0x164
 7860 1a6a 1D       		.byte	0x1d
 7861 1a6b E5190000 		.4byte	0x19e5
 7862 1a6f 04       		.byte	0x4
 7863 1a70 0A       		.uleb128 0xa
 7864 1a71 281F0000 		.4byte	.LASF341
 7865 1a75 18       		.byte	0x18
ARM GAS  /tmp/cczbsEFl.s 			page 139


 7866 1a76 6801     		.2byte	0x168
 7867 1a78 1D       		.byte	0x1d
 7868 1a79 191A0000 		.4byte	0x1a19
 7869 1a7d 08       		.byte	0x8
 7870 1a7e 09       		.uleb128 0x9
 7871 1a7f 63723100 		.ascii	"cr1\000"
 7872 1a83 18       		.byte	0x18
 7873 1a84 6F01     		.2byte	0x16f
 7874 1a86 1D       		.byte	0x1d
 7875 1a87 BD000000 		.4byte	0xbd
 7876 1a8b 0C       		.byte	0xc
 7877 1a8c 09       		.uleb128 0x9
 7878 1a8d 63723200 		.ascii	"cr2\000"
 7879 1a91 18       		.byte	0x18
 7880 1a92 7601     		.2byte	0x176
 7881 1a94 1D       		.byte	0x1d
 7882 1a95 BD000000 		.4byte	0xbd
 7883 1a99 10       		.byte	0x10
 7884 1a9a 0A       		.uleb128 0xa
 7885 1a9b 28140000 		.4byte	.LASF342
 7886 1a9f 18       		.byte	0x18
 7887 1aa0 7C01     		.2byte	0x17c
 7888 1aa2 1D       		.byte	0x1d
 7889 1aa3 BD000000 		.4byte	0xbd
 7890 1aa7 14       		.byte	0x14
 7891 1aa8 0A       		.uleb128 0xa
 7892 1aa9 2E140000 		.4byte	.LASF343
 7893 1aad 18       		.byte	0x18
 7894 1aae 8201     		.2byte	0x182
 7895 1ab0 1D       		.byte	0x1d
 7896 1ab1 BD000000 		.4byte	0xbd
 7897 1ab5 18       		.byte	0x18
 7898 1ab6 0A       		.uleb128 0xa
 7899 1ab7 F1000000 		.4byte	.LASF344
 7900 1abb 18       		.byte	0x18
 7901 1abc 8701     		.2byte	0x187
 7902 1abe 1D       		.byte	0x1d
 7903 1abf BD000000 		.4byte	0xbd
 7904 1ac3 1C       		.byte	0x1c
 7905 1ac4 0A       		.uleb128 0xa
 7906 1ac5 35200000 		.4byte	.LASF345
 7907 1ac9 18       		.byte	0x18
 7908 1aca 8C01     		.2byte	0x18c
 7909 1acc 1D       		.byte	0x1d
 7910 1acd BD000000 		.4byte	0xbd
 7911 1ad1 20       		.byte	0x20
 7912 1ad2 0A       		.uleb128 0xa
 7913 1ad3 3A200000 		.4byte	.LASF346
 7914 1ad7 18       		.byte	0x18
 7915 1ad8 9101     		.2byte	0x191
 7916 1ada 1D       		.byte	0x1d
 7917 1adb BD000000 		.4byte	0xbd
 7918 1adf 24       		.byte	0x24
 7919 1ae0 00       		.byte	0
 7920 1ae1 1A       		.uleb128 0x1a
 7921 1ae2 82040000 		.4byte	.LASF347
 7922 1ae6 18       		.byte	0x18
ARM GAS  /tmp/cczbsEFl.s 			page 140


 7923 1ae7 9201     		.2byte	0x192
 7924 1ae9 03       		.byte	0x3
 7925 1aea 3C1A0000 		.4byte	0x1a3c
 7926 1aee 06       		.uleb128 0x6
 7927 1aef E11A0000 		.4byte	0x1ae1
 7928 1af3 19       		.uleb128 0x19
 7929 1af4 04       		.byte	0x4
 7930 1af5 18       		.byte	0x18
 7931 1af6 9801     		.2byte	0x198
 7932 1af8 09       		.byte	0x9
 7933 1af9 0C1B0000 		.4byte	0x1b0c
 7934 1afd 0A       		.uleb128 0xa
 7935 1afe 68200000 		.4byte	.LASF348
 7936 1b02 18       		.byte	0x18
 7937 1b03 9901     		.2byte	0x199
 7938 1b05 1D       		.byte	0x1d
 7939 1b06 BD000000 		.4byte	0xbd
 7940 1b0a 00       		.byte	0
 7941 1b0b 00       		.byte	0
 7942 1b0c 1A       		.uleb128 0x1a
 7943 1b0d BB0C0000 		.4byte	.LASF349
 7944 1b11 18       		.byte	0x18
 7945 1b12 9A01     		.2byte	0x19a
 7946 1b14 03       		.byte	0x3
 7947 1b15 F31A0000 		.4byte	0x1af3
 7948 1b19 06       		.uleb128 0x6
 7949 1b1a 0C1B0000 		.4byte	0x1b0c
 7950 1b1e 0B       		.uleb128 0xb
 7951 1b1f 04       		.byte	0x4
 7952 1b20 191B0000 		.4byte	0x1b19
 7953 1b24 0B       		.uleb128 0xb
 7954 1b25 04       		.byte	0x4
 7955 1b26 EE1A0000 		.4byte	0x1aee
 7956 1b2a 0B       		.uleb128 0xb
 7957 1b2b 04       		.byte	0x4
 7958 1b2c 98060000 		.4byte	0x698
 7959 1b30 0B       		.uleb128 0xb
 7960 1b31 04       		.byte	0x4
 7961 1b32 F1140000 		.4byte	0x14f1
 7962 1b36 15       		.uleb128 0x15
 7963 1b37 DC140000 		.4byte	.LASF350
 7964 1b3b 18       		.byte	0x18
 7965 1b3c 1402     		.2byte	0x214
 7966 1b3e 12       		.byte	0x12
 7967 1b3f 3D190000 		.4byte	0x193d
 7968 1b43 15       		.uleb128 0x15
 7969 1b44 E2140000 		.4byte	.LASF351
 7970 1b48 18       		.byte	0x18
 7971 1b49 1802     		.2byte	0x218
 7972 1b4b 12       		.byte	0x12
 7973 1b4c 3D190000 		.4byte	0x193d
 7974 1b50 15       		.uleb128 0x15
 7975 1b51 E8140000 		.4byte	.LASF352
 7976 1b55 18       		.byte	0x18
 7977 1b56 1C02     		.2byte	0x21c
 7978 1b58 12       		.byte	0x12
 7979 1b59 3D190000 		.4byte	0x193d
ARM GAS  /tmp/cczbsEFl.s 			page 141


 7980 1b5d 21       		.uleb128 0x21
 7981 1b5e 07       		.byte	0x7
 7982 1b5f 01       		.byte	0x1
 7983 1b60 A3000000 		.4byte	0xa3
 7984 1b64 19       		.byte	0x19
 7985 1b65 5F       		.byte	0x5f
 7986 1b66 0E       		.byte	0xe
 7987 1b67 8A1B0000 		.4byte	0x1b8a
 7988 1b6b 22       		.uleb128 0x22
 7989 1b6c 5A080000 		.4byte	.LASF353
 7990 1b70 00       		.byte	0
 7991 1b71 22       		.uleb128 0x22
 7992 1b72 7E000000 		.4byte	.LASF354
 7993 1b76 01       		.byte	0x1
 7994 1b77 22       		.uleb128 0x22
 7995 1b78 38000000 		.4byte	.LASF355
 7996 1b7c 02       		.byte	0x2
 7997 1b7d 22       		.uleb128 0x22
 7998 1b7e A9040000 		.4byte	.LASF356
 7999 1b82 03       		.byte	0x3
 8000 1b83 22       		.uleb128 0x22
 8001 1b84 47080000 		.4byte	.LASF357
 8002 1b88 04       		.byte	0x4
 8003 1b89 00       		.byte	0
 8004 1b8a 04       		.uleb128 0x4
 8005 1b8b D8040000 		.4byte	.LASF358
 8006 1b8f 19       		.byte	0x19
 8007 1b90 65       		.byte	0x65
 8008 1b91 03       		.byte	0x3
 8009 1b92 5D1B0000 		.4byte	0x1b5d
 8010 1b96 13       		.uleb128 0x13
 8011 1b97 92000000 		.4byte	0x92
 8012 1b9b A61B0000 		.4byte	0x1ba6
 8013 1b9f 14       		.uleb128 0x14
 8014 1ba0 2C000000 		.4byte	0x2c
 8015 1ba4 07       		.byte	0x7
 8016 1ba5 00       		.byte	0
 8017 1ba6 17       		.uleb128 0x17
 8018 1ba7 08       		.byte	0x8
 8019 1ba8 1A       		.byte	0x1a
 8020 1ba9 F4       		.byte	0xf4
 8021 1baa 09       		.byte	0x9
 8022 1bab CB1B0000 		.4byte	0x1bcb
 8023 1baf 18       		.uleb128 0x18
 8024 1bb0 6D637200 		.ascii	"mcr\000"
 8025 1bb4 1A       		.byte	0x1a
 8026 1bb5 FA       		.byte	0xfa
 8027 1bb6 1D       		.byte	0x1d
 8028 1bb7 BD000000 		.4byte	0xbd
 8029 1bbb 00       		.byte	0
 8030 1bbc 09       		.uleb128 0x9
 8031 1bbd 62747200 		.ascii	"btr\000"
 8032 1bc1 1A       		.byte	0x1a
 8033 1bc2 0001     		.2byte	0x100
 8034 1bc4 1D       		.byte	0x1d
 8035 1bc5 BD000000 		.4byte	0xbd
 8036 1bc9 04       		.byte	0x4
ARM GAS  /tmp/cczbsEFl.s 			page 142


 8037 1bca 00       		.byte	0
 8038 1bcb 1A       		.uleb128 0x1a
 8039 1bcc 62160000 		.4byte	.LASF359
 8040 1bd0 1A       		.byte	0x1a
 8041 1bd1 0101     		.2byte	0x101
 8042 1bd3 03       		.byte	0x3
 8043 1bd4 A61B0000 		.4byte	0x1ba6
 8044 1bd8 06       		.uleb128 0x6
 8045 1bd9 CB1B0000 		.4byte	0x1bcb
 8046 1bdd 19       		.uleb128 0x19
 8047 1bde 30       		.byte	0x30
 8048 1bdf 1A       		.byte	0x1a
 8049 1be0 0601     		.2byte	0x106
 8050 1be2 09       		.byte	0x9
 8051 1be3 741C0000 		.4byte	0x1c74
 8052 1be7 0A       		.uleb128 0xa
 8053 1be8 39130000 		.4byte	.LASF327
 8054 1bec 1A       		.byte	0x1a
 8055 1bed 0A01     		.2byte	0x10a
 8056 1bef 1D       		.byte	0x1d
 8057 1bf0 8A1B0000 		.4byte	0x1b8a
 8058 1bf4 00       		.byte	0
 8059 1bf5 0A       		.uleb128 0xa
 8060 1bf6 95180000 		.4byte	.LASF328
 8061 1bfa 1A       		.byte	0x1a
 8062 1bfb 0E01     		.2byte	0x10e
 8063 1bfd 1E       		.byte	0x1e
 8064 1bfe 741C0000 		.4byte	0x1c74
 8065 1c02 04       		.byte	0x4
 8066 1c03 0A       		.uleb128 0xa
 8067 1c04 EB070000 		.4byte	.LASF360
 8068 1c08 1A       		.byte	0x1a
 8069 1c09 1201     		.2byte	0x112
 8070 1c0b 1D       		.byte	0x1d
 8071 1c0c 08030000 		.4byte	0x308
 8072 1c10 08       		.byte	0x8
 8073 1c11 0A       		.uleb128 0xa
 8074 1c12 181B0000 		.4byte	.LASF361
 8075 1c16 1A       		.byte	0x1a
 8076 1c17 1601     		.2byte	0x116
 8077 1c19 1D       		.byte	0x1d
 8078 1c1a 08030000 		.4byte	0x308
 8079 1c1e 10       		.byte	0x10
 8080 1c1f 0A       		.uleb128 0xa
 8081 1c20 45160000 		.4byte	.LASF362
 8082 1c24 1A       		.byte	0x1a
 8083 1c25 2301     		.2byte	0x123
 8084 1c27 1D       		.byte	0x1d
 8085 1c28 4C130000 		.4byte	0x134c
 8086 1c2c 18       		.byte	0x18
 8087 1c2d 0A       		.uleb128 0xa
 8088 1c2e 9C090000 		.4byte	.LASF363
 8089 1c32 1A       		.byte	0x1a
 8090 1c33 2A01     		.2byte	0x12a
 8091 1c35 1D       		.byte	0x1d
 8092 1c36 4C130000 		.4byte	0x134c
 8093 1c3a 1C       		.byte	0x1c
ARM GAS  /tmp/cczbsEFl.s 			page 143


 8094 1c3b 0A       		.uleb128 0xa
 8095 1c3c 5D0D0000 		.4byte	.LASF364
 8096 1c40 1A       		.byte	0x1a
 8097 1c41 3001     		.2byte	0x130
 8098 1c43 1D       		.byte	0x1d
 8099 1c44 4C130000 		.4byte	0x134c
 8100 1c48 20       		.byte	0x20
 8101 1c49 0A       		.uleb128 0xa
 8102 1c4a C3020000 		.4byte	.LASF365
 8103 1c4e 1A       		.byte	0x1a
 8104 1c4f 3501     		.2byte	0x135
 8105 1c51 1D       		.byte	0x1d
 8106 1c52 4C130000 		.4byte	0x134c
 8107 1c56 24       		.byte	0x24
 8108 1c57 0A       		.uleb128 0xa
 8109 1c58 A0070000 		.4byte	.LASF366
 8110 1c5c 1A       		.byte	0x1a
 8111 1c5d 3901     		.2byte	0x139
 8112 1c5f 1D       		.byte	0x1d
 8113 1c60 4C130000 		.4byte	0x134c
 8114 1c64 28       		.byte	0x28
 8115 1c65 09       		.uleb128 0x9
 8116 1c66 63616E00 		.ascii	"can\000"
 8117 1c6a 1A       		.byte	0x1a
 8118 1c6b 3F01     		.2byte	0x13f
 8119 1c6d 1E       		.byte	0x1e
 8120 1c6e 7A1C0000 		.4byte	0x1c7a
 8121 1c72 2C       		.byte	0x2c
 8122 1c73 00       		.byte	0
 8123 1c74 0B       		.uleb128 0xb
 8124 1c75 04       		.byte	0x4
 8125 1c76 D81B0000 		.4byte	0x1bd8
 8126 1c7a 0B       		.uleb128 0xb
 8127 1c7b 04       		.byte	0x4
 8128 1c7c 09090000 		.4byte	0x909
 8129 1c80 1A       		.uleb128 0x1a
 8130 1c81 11030000 		.4byte	.LASF367
 8131 1c85 1A       		.byte	0x1a
 8132 1c86 4001     		.2byte	0x140
 8133 1c88 03       		.byte	0x3
 8134 1c89 DD1B0000 		.4byte	0x1bdd
 8135 1c8d 15       		.uleb128 0x15
 8136 1c8e C51C0000 		.4byte	.LASF368
 8137 1c92 1A       		.byte	0x1a
 8138 1c93 4B01     		.2byte	0x14b
 8139 1c95 12       		.byte	0x12
 8140 1c96 801C0000 		.4byte	0x1c80
 8141 1c9a 21       		.uleb128 0x21
 8142 1c9b 07       		.byte	0x7
 8143 1c9c 01       		.byte	0x1
 8144 1c9d A3000000 		.4byte	0xa3
 8145 1ca1 1B       		.byte	0x1b
 8146 1ca2 46       		.byte	0x46
 8147 1ca3 0E       		.byte	0xe
 8148 1ca4 CD1C0000 		.4byte	0x1ccd
 8149 1ca8 22       		.uleb128 0x22
 8150 1ca9 BC180000 		.4byte	.LASF369
ARM GAS  /tmp/cczbsEFl.s 			page 144


 8151 1cad 00       		.byte	0
 8152 1cae 22       		.uleb128 0x22
 8153 1caf C71D0000 		.4byte	.LASF370
 8154 1cb3 01       		.byte	0x1
 8155 1cb4 22       		.uleb128 0x22
 8156 1cb5 4A0C0000 		.4byte	.LASF371
 8157 1cb9 02       		.byte	0x2
 8158 1cba 22       		.uleb128 0x22
 8159 1cbb 2E130000 		.4byte	.LASF372
 8160 1cbf 03       		.byte	0x3
 8161 1cc0 22       		.uleb128 0x22
 8162 1cc1 77180000 		.4byte	.LASF373
 8163 1cc5 04       		.byte	0x4
 8164 1cc6 22       		.uleb128 0x22
 8165 1cc7 E90C0000 		.4byte	.LASF374
 8166 1ccb 05       		.byte	0x5
 8167 1ccc 00       		.byte	0
 8168 1ccd 04       		.uleb128 0x4
 8169 1cce F5150000 		.4byte	.LASF375
 8170 1cd2 1B       		.byte	0x1b
 8171 1cd3 4D       		.byte	0x4d
 8172 1cd4 03       		.byte	0x3
 8173 1cd5 9A1C0000 		.4byte	0x1c9a
 8174 1cd9 17       		.uleb128 0x17
 8175 1cda 1C       		.byte	0x1c
 8176 1cdb 1C       		.byte	0x1c
 8177 1cdc F9       		.byte	0xf9
 8178 1cdd 09       		.byte	0x9
 8179 1cde 441D0000 		.4byte	0x1d44
 8180 1ce2 18       		.uleb128 0x18
 8181 1ce3 64616300 		.ascii	"dac\000"
 8182 1ce7 1C       		.byte	0x1c
 8183 1ce8 FD       		.byte	0xfd
 8184 1ce9 1E       		.byte	0x1e
 8185 1cea 441D0000 		.4byte	0x1d44
 8186 1cee 00       		.byte	0
 8187 1cef 0A       		.uleb128 0xa
 8188 1cf0 6D150000 		.4byte	.LASF376
 8189 1cf4 1C       		.byte	0x1c
 8190 1cf5 0101     		.2byte	0x101
 8191 1cf7 1D       		.byte	0x1d
 8192 1cf8 BD000000 		.4byte	0xbd
 8193 1cfc 04       		.byte	0x4
 8194 1cfd 0A       		.uleb128 0xa
 8195 1cfe D0050000 		.4byte	.LASF377
 8196 1d02 1C       		.byte	0x1c
 8197 1d03 0501     		.2byte	0x105
 8198 1d05 1D       		.byte	0x1d
 8199 1d06 BD000000 		.4byte	0xbd
 8200 1d0a 08       		.byte	0x8
 8201 1d0b 0A       		.uleb128 0xa
 8202 1d0c 5D010000 		.4byte	.LASF378
 8203 1d10 1C       		.byte	0x1c
 8204 1d11 0901     		.2byte	0x109
 8205 1d13 1D       		.byte	0x1d
 8206 1d14 BD000000 		.4byte	0xbd
 8207 1d18 0C       		.byte	0xc
ARM GAS  /tmp/cczbsEFl.s 			page 145


 8208 1d19 09       		.uleb128 0x9
 8209 1d1a 646D6100 		.ascii	"dma\000"
 8210 1d1e 1C       		.byte	0x1c
 8211 1d1f 0D01     		.2byte	0x10d
 8212 1d21 1E       		.byte	0x1e
 8213 1d22 301B0000 		.4byte	0x1b30
 8214 1d26 10       		.byte	0x10
 8215 1d27 0A       		.uleb128 0xa
 8216 1d28 F3140000 		.4byte	.LASF335
 8217 1d2c 1C       		.byte	0x1c
 8218 1d2d 1101     		.2byte	0x111
 8219 1d2f 1D       		.byte	0x1d
 8220 1d30 BD000000 		.4byte	0xbd
 8221 1d34 14       		.byte	0x14
 8222 1d35 0A       		.uleb128 0xa
 8223 1d36 A1140000 		.4byte	.LASF379
 8224 1d3a 1C       		.byte	0x1c
 8225 1d3b 1501     		.2byte	0x115
 8226 1d3d 1D       		.byte	0x1d
 8227 1d3e BD000000 		.4byte	0xbd
 8228 1d42 18       		.byte	0x18
 8229 1d43 00       		.byte	0
 8230 1d44 0B       		.uleb128 0xb
 8231 1d45 04       		.byte	0x4
 8232 1d46 E3090000 		.4byte	0x9e3
 8233 1d4a 1A       		.uleb128 0x1a
 8234 1d4b 6D020000 		.4byte	.LASF380
 8235 1d4f 1C       		.byte	0x1c
 8236 1d50 1601     		.2byte	0x116
 8237 1d52 03       		.byte	0x3
 8238 1d53 D91C0000 		.4byte	0x1cd9
 8239 1d57 06       		.uleb128 0x6
 8240 1d58 4A1D0000 		.4byte	0x1d4a
 8241 1d5c 1A       		.uleb128 0x1a
 8242 1d5d C50A0000 		.4byte	.LASF381
 8243 1d61 1C       		.byte	0x1c
 8244 1d62 1B01     		.2byte	0x11b
 8245 1d64 1A       		.byte	0x1a
 8246 1d65 691D0000 		.4byte	0x1d69
 8247 1d69 0C       		.uleb128 0xc
 8248 1d6a C50A0000 		.4byte	.LASF381
 8249 1d6e 30       		.byte	0x30
 8250 1d6f 1C       		.byte	0x1c
 8251 1d70 7B01     		.2byte	0x17b
 8252 1d72 08       		.byte	0x8
 8253 1d73 E81D0000 		.4byte	0x1de8
 8254 1d77 0A       		.uleb128 0xa
 8255 1d78 39130000 		.4byte	.LASF327
 8256 1d7c 1C       		.byte	0x1c
 8257 1d7d 7F01     		.2byte	0x17f
 8258 1d7f 1D       		.byte	0x1d
 8259 1d80 CD1C0000 		.4byte	0x1ccd
 8260 1d84 00       		.byte	0
 8261 1d85 0A       		.uleb128 0xa
 8262 1d86 441B0000 		.4byte	.LASF331
 8263 1d8a 1C       		.byte	0x1c
 8264 1d8b 8301     		.2byte	0x183
ARM GAS  /tmp/cczbsEFl.s 			page 146


 8265 1d8d 1E       		.byte	0x1e
 8266 1d8e 371F0000 		.4byte	0x1f37
 8267 1d92 04       		.byte	0x4
 8268 1d93 0A       		.uleb128 0xa
 8269 1d94 4A010000 		.4byte	.LASF329
 8270 1d98 1C       		.byte	0x1c
 8271 1d99 8701     		.2byte	0x187
 8272 1d9b 1E       		.byte	0x1e
 8273 1d9c 511E0000 		.4byte	0x1e51
 8274 1da0 08       		.byte	0x8
 8275 1da1 0A       		.uleb128 0xa
 8276 1da2 B5150000 		.4byte	.LASF330
 8277 1da6 1C       		.byte	0x1c
 8278 1da7 8B01     		.2byte	0x18b
 8279 1da9 1D       		.byte	0x1d
 8280 1daa AA000000 		.4byte	0xaa
 8281 1dae 0C       		.byte	0xc
 8282 1daf 0A       		.uleb128 0xa
 8283 1db0 95180000 		.4byte	.LASF328
 8284 1db4 1C       		.byte	0x1c
 8285 1db5 8F01     		.2byte	0x18f
 8286 1db7 1E       		.byte	0x1e
 8287 1db8 3D1F0000 		.4byte	0x1f3d
 8288 1dbc 10       		.byte	0x10
 8289 1dbd 0A       		.uleb128 0xa
 8290 1dbe C9050000 		.4byte	.LASF332
 8291 1dc2 1C       		.byte	0x1c
 8292 1dc3 9401     		.2byte	0x194
 8293 1dc5 1D       		.byte	0x1d
 8294 1dc6 CF020000 		.4byte	0x2cf
 8295 1dca 14       		.byte	0x14
 8296 1dcb 0A       		.uleb128 0xa
 8297 1dcc A40A0000 		.4byte	.LASF333
 8298 1dd0 1C       		.byte	0x1c
 8299 1dd1 9A01     		.2byte	0x19a
 8300 1dd3 1D       		.byte	0x1d
 8301 1dd4 BE120000 		.4byte	0x12be
 8302 1dd8 18       		.byte	0x18
 8303 1dd9 0A       		.uleb128 0xa
 8304 1dda E50D0000 		.4byte	.LASF382
 8305 1dde 1C       		.byte	0x1c
 8306 1ddf A301     		.2byte	0x1a3
 8307 1de1 1E       		.byte	0x1e
 8308 1de2 431F0000 		.4byte	0x1f43
 8309 1de6 2C       		.byte	0x2c
 8310 1de7 00       		.byte	0
 8311 1de8 1A       		.uleb128 0x1a
 8312 1de9 0E160000 		.4byte	.LASF383
 8313 1ded 1C       		.byte	0x1c
 8314 1dee 2001     		.2byte	0x120
 8315 1df0 12       		.byte	0x12
 8316 1df1 AA000000 		.4byte	0xaa
 8317 1df5 06       		.uleb128 0x6
 8318 1df6 E81D0000 		.4byte	0x1de8
 8319 1dfa 24       		.uleb128 0x24
 8320 1dfb 07       		.byte	0x7
 8321 1dfc 01       		.byte	0x1
ARM GAS  /tmp/cczbsEFl.s 			page 147


 8322 1dfd A3000000 		.4byte	0xa3
 8323 1e01 1C       		.byte	0x1c
 8324 1e02 2701     		.2byte	0x127
 8325 1e04 0E       		.byte	0xe
 8326 1e05 161E0000 		.4byte	0x1e16
 8327 1e09 22       		.uleb128 0x22
 8328 1e0a 8B160000 		.4byte	.LASF384
 8329 1e0e 00       		.byte	0
 8330 1e0f 22       		.uleb128 0x22
 8331 1e10 8E070000 		.4byte	.LASF385
 8332 1e14 01       		.byte	0x1
 8333 1e15 00       		.byte	0
 8334 1e16 1A       		.uleb128 0x1a
 8335 1e17 200E0000 		.4byte	.LASF386
 8336 1e1b 1C       		.byte	0x1c
 8337 1e1c 2A01     		.2byte	0x12a
 8338 1e1e 03       		.byte	0x3
 8339 1e1f FA1D0000 		.4byte	0x1dfa
 8340 1e23 1A       		.uleb128 0x1a
 8341 1e24 28060000 		.4byte	.LASF387
 8342 1e28 1C       		.byte	0x1c
 8343 1e29 3401     		.2byte	0x134
 8344 1e2b 10       		.byte	0x10
 8345 1e2c 301E0000 		.4byte	0x1e30
 8346 1e30 0B       		.uleb128 0xb
 8347 1e31 04       		.byte	0x4
 8348 1e32 361E0000 		.4byte	0x1e36
 8349 1e36 0D       		.uleb128 0xd
 8350 1e37 4B1E0000 		.4byte	0x1e4b
 8351 1e3b 0E       		.uleb128 0xe
 8352 1e3c 4B1E0000 		.4byte	0x1e4b
 8353 1e40 0E       		.uleb128 0xe
 8354 1e41 511E0000 		.4byte	0x1e51
 8355 1e45 0E       		.uleb128 0xe
 8356 1e46 3A000000 		.4byte	0x3a
 8357 1e4a 00       		.byte	0
 8358 1e4b 0B       		.uleb128 0xb
 8359 1e4c 04       		.byte	0x4
 8360 1e4d 5C1D0000 		.4byte	0x1d5c
 8361 1e51 0B       		.uleb128 0xb
 8362 1e52 04       		.byte	0x4
 8363 1e53 F51D0000 		.4byte	0x1df5
 8364 1e57 1A       		.uleb128 0x1a
 8365 1e58 F91C0000 		.4byte	.LASF388
 8366 1e5c 1C       		.byte	0x1c
 8367 1e5d 3F01     		.2byte	0x13f
 8368 1e5f 10       		.byte	0x10
 8369 1e60 641E0000 		.4byte	0x1e64
 8370 1e64 0B       		.uleb128 0xb
 8371 1e65 04       		.byte	0x4
 8372 1e66 6A1E0000 		.4byte	0x1e6a
 8373 1e6a 0D       		.uleb128 0xd
 8374 1e6b 7A1E0000 		.4byte	0x1e7a
 8375 1e6f 0E       		.uleb128 0xe
 8376 1e70 4B1E0000 		.4byte	0x1e4b
 8377 1e74 0E       		.uleb128 0xe
 8378 1e75 161E0000 		.4byte	0x1e16
ARM GAS  /tmp/cczbsEFl.s 			page 148


 8379 1e79 00       		.byte	0
 8380 1e7a 24       		.uleb128 0x24
 8381 1e7b 07       		.byte	0x7
 8382 1e7c 01       		.byte	0x1
 8383 1e7d A3000000 		.4byte	0xa3
 8384 1e81 1C       		.byte	0x1c
 8385 1e82 4401     		.2byte	0x144
 8386 1e84 0E       		.byte	0xe
 8387 1e85 9C1E0000 		.4byte	0x1e9c
 8388 1e89 22       		.uleb128 0x22
 8389 1e8a 0E190000 		.4byte	.LASF389
 8390 1e8e 00       		.byte	0
 8391 1e8f 22       		.uleb128 0x22
 8392 1e90 940F0000 		.4byte	.LASF390
 8393 1e94 01       		.byte	0x1
 8394 1e95 22       		.uleb128 0x22
 8395 1e96 D1130000 		.4byte	.LASF391
 8396 1e9a 02       		.byte	0x2
 8397 1e9b 00       		.byte	0
 8398 1e9c 1A       		.uleb128 0x1a
 8399 1e9d C3080000 		.4byte	.LASF392
 8400 1ea1 1C       		.byte	0x1c
 8401 1ea2 4D01     		.2byte	0x14d
 8402 1ea4 03       		.byte	0x3
 8403 1ea5 7A1E0000 		.4byte	0x1e7a
 8404 1ea9 19       		.uleb128 0x19
 8405 1eaa 10       		.byte	0x10
 8406 1eab 1C       		.byte	0x1c
 8407 1eac 5201     		.2byte	0x152
 8408 1eae 09       		.byte	0x9
 8409 1eaf EC1E0000 		.4byte	0x1eec
 8410 1eb3 0A       		.uleb128 0xa
 8411 1eb4 690D0000 		.4byte	.LASF339
 8412 1eb8 1C       		.byte	0x1c
 8413 1eb9 5601     		.2byte	0x156
 8414 1ebb 1D       		.byte	0x1d
 8415 1ebc BD000000 		.4byte	0xbd
 8416 1ec0 00       		.byte	0
 8417 1ec1 0A       		.uleb128 0xa
 8418 1ec2 B5070000 		.4byte	.LASF340
 8419 1ec6 1C       		.byte	0x1c
 8420 1ec7 5A01     		.2byte	0x15a
 8421 1ec9 1D       		.byte	0x1d
 8422 1eca 231E0000 		.4byte	0x1e23
 8423 1ece 04       		.byte	0x4
 8424 1ecf 0A       		.uleb128 0xa
 8425 1ed0 281F0000 		.4byte	.LASF341
 8426 1ed4 1C       		.byte	0x1c
 8427 1ed5 5E01     		.2byte	0x15e
 8428 1ed7 1D       		.byte	0x1d
 8429 1ed8 571E0000 		.4byte	0x1e57
 8430 1edc 08       		.byte	0x8
 8431 1edd 0A       		.uleb128 0xa
 8432 1ede FA110000 		.4byte	.LASF393
 8433 1ee2 1C       		.byte	0x1c
 8434 1ee3 6601     		.2byte	0x166
 8435 1ee5 1D       		.byte	0x1d
ARM GAS  /tmp/cczbsEFl.s 			page 149


 8436 1ee6 BD000000 		.4byte	0xbd
 8437 1eea 0C       		.byte	0xc
 8438 1eeb 00       		.byte	0
 8439 1eec 1A       		.uleb128 0x1a
 8440 1eed DA0E0000 		.4byte	.LASF394
 8441 1ef1 1C       		.byte	0x1c
 8442 1ef2 6701     		.2byte	0x167
 8443 1ef4 03       		.byte	0x3
 8444 1ef5 A91E0000 		.4byte	0x1ea9
 8445 1ef9 06       		.uleb128 0x6
 8446 1efa EC1E0000 		.4byte	0x1eec
 8447 1efe 19       		.uleb128 0x19
 8448 1eff 04       		.byte	0x4
 8449 1f00 1C       		.byte	0x1c
 8450 1f01 6C01     		.2byte	0x16c
 8451 1f03 09       		.byte	0x9
 8452 1f04 251F0000 		.4byte	0x1f25
 8453 1f08 0A       		.uleb128 0xa
 8454 1f09 07090000 		.4byte	.LASF395
 8455 1f0d 1C       		.byte	0x1c
 8456 1f0e 7101     		.2byte	0x171
 8457 1f10 1D       		.byte	0x1d
 8458 1f11 E81D0000 		.4byte	0x1de8
 8459 1f15 00       		.byte	0
 8460 1f16 0A       		.uleb128 0xa
 8461 1f17 C0000000 		.4byte	.LASF396
 8462 1f1b 1C       		.byte	0x1c
 8463 1f1c 7501     		.2byte	0x175
 8464 1f1e 1D       		.byte	0x1d
 8465 1f1f 9C1E0000 		.4byte	0x1e9c
 8466 1f23 02       		.byte	0x2
 8467 1f24 00       		.byte	0
 8468 1f25 1A       		.uleb128 0x1a
 8469 1f26 CF0A0000 		.4byte	.LASF397
 8470 1f2a 1C       		.byte	0x1c
 8471 1f2b 7601     		.2byte	0x176
 8472 1f2d 03       		.byte	0x3
 8473 1f2e FE1E0000 		.4byte	0x1efe
 8474 1f32 06       		.uleb128 0x6
 8475 1f33 251F0000 		.4byte	0x1f25
 8476 1f37 0B       		.uleb128 0xb
 8477 1f38 04       		.byte	0x4
 8478 1f39 F91E0000 		.4byte	0x1ef9
 8479 1f3d 0B       		.uleb128 0xb
 8480 1f3e 04       		.byte	0x4
 8481 1f3f 321F0000 		.4byte	0x1f32
 8482 1f43 0B       		.uleb128 0xb
 8483 1f44 04       		.byte	0x4
 8484 1f45 571D0000 		.4byte	0x1d57
 8485 1f49 15       		.uleb128 0x15
 8486 1f4a 0B030000 		.4byte	.LASF398
 8487 1f4e 1C       		.byte	0x1c
 8488 1f4f B301     		.2byte	0x1b3
 8489 1f51 12       		.byte	0x12
 8490 1f52 5C1D0000 		.4byte	0x1d5c
 8491 1f56 21       		.uleb128 0x21
 8492 1f57 07       		.byte	0x7
ARM GAS  /tmp/cczbsEFl.s 			page 150


 8493 1f58 01       		.byte	0x1
 8494 1f59 A3000000 		.4byte	0xa3
 8495 1f5d 1D       		.byte	0x1d
 8496 1f5e 3F       		.byte	0x3f
 8497 1f5f 0E       		.byte	0xe
 8498 1f60 771F0000 		.4byte	0x1f77
 8499 1f64 22       		.uleb128 0x22
 8500 1f65 3C080000 		.4byte	.LASF399
 8501 1f69 00       		.byte	0
 8502 1f6a 22       		.uleb128 0x22
 8503 1f6b 12210000 		.4byte	.LASF400
 8504 1f6f 01       		.byte	0x1
 8505 1f70 22       		.uleb128 0x22
 8506 1f71 85010000 		.4byte	.LASF401
 8507 1f75 02       		.byte	0x2
 8508 1f76 00       		.byte	0
 8509 1f77 04       		.uleb128 0x4
 8510 1f78 E8170000 		.4byte	.LASF402
 8511 1f7c 1D       		.byte	0x1d
 8512 1f7d 43       		.byte	0x43
 8513 1f7e 03       		.byte	0x3
 8514 1f7f 561F0000 		.4byte	0x1f56
 8515 1f83 04       		.uleb128 0x4
 8516 1f84 21070000 		.4byte	.LASF403
 8517 1f88 1D       		.byte	0x1d
 8518 1f89 48       		.byte	0x48
 8519 1f8a 1A       		.byte	0x1a
 8520 1f8b 8F1F0000 		.4byte	0x1f8f
 8521 1f8f 07       		.uleb128 0x7
 8522 1f90 21070000 		.4byte	.LASF403
 8523 1f94 08       		.byte	0x8
 8524 1f95 1E       		.byte	0x1e
 8525 1f96 71       		.byte	0x71
 8526 1f97 08       		.byte	0x8
 8527 1f98 B71F0000 		.4byte	0x1fb7
 8528 1f9c 08       		.uleb128 0x8
 8529 1f9d 39130000 		.4byte	.LASF327
 8530 1fa1 1E       		.byte	0x1e
 8531 1fa2 75       		.byte	0x75
 8532 1fa3 1D       		.byte	0x1d
 8533 1fa4 771F0000 		.4byte	0x1f77
 8534 1fa8 00       		.byte	0
 8535 1fa9 08       		.uleb128 0x8
 8536 1faa 95180000 		.4byte	.LASF328
 8537 1fae 1E       		.byte	0x1e
 8538 1faf 79       		.byte	0x79
 8539 1fb0 1E       		.byte	0x1e
 8540 1fb1 52200000 		.4byte	0x2052
 8541 1fb5 04       		.byte	0x4
 8542 1fb6 00       		.byte	0
 8543 1fb7 04       		.uleb128 0x4
 8544 1fb8 7A1F0000 		.4byte	.LASF404
 8545 1fbc 1E       		.byte	0x1e
 8546 1fbd 47       		.byte	0x47
 8547 1fbe 12       		.byte	0x12
 8548 1fbf BD000000 		.4byte	0xbd
 8549 1fc3 04       		.uleb128 0x4
ARM GAS  /tmp/cczbsEFl.s 			page 151


 8550 1fc4 0A1B0000 		.4byte	.LASF405
 8551 1fc8 1E       		.byte	0x1e
 8552 1fc9 4F       		.byte	0x4f
 8553 1fca 10       		.byte	0x10
 8554 1fcb CF1F0000 		.4byte	0x1fcf
 8555 1fcf 0B       		.uleb128 0xb
 8556 1fd0 04       		.byte	0x4
 8557 1fd1 D51F0000 		.4byte	0x1fd5
 8558 1fd5 0D       		.uleb128 0xd
 8559 1fd6 E51F0000 		.4byte	0x1fe5
 8560 1fda 0E       		.uleb128 0xe
 8561 1fdb E51F0000 		.4byte	0x1fe5
 8562 1fdf 0E       		.uleb128 0xe
 8563 1fe0 B71F0000 		.4byte	0x1fb7
 8564 1fe4 00       		.byte	0
 8565 1fe5 0B       		.uleb128 0xb
 8566 1fe6 04       		.byte	0x4
 8567 1fe7 831F0000 		.4byte	0x1f83
 8568 1feb 17       		.uleb128 0x17
 8569 1fec 08       		.byte	0x8
 8570 1fed 1E       		.byte	0x1e
 8571 1fee 54       		.byte	0x54
 8572 1fef 09       		.byte	0x9
 8573 1ff0 0E200000 		.4byte	0x200e
 8574 1ff4 08       		.uleb128 0x8
 8575 1ff5 16070000 		.4byte	.LASF406
 8576 1ff9 1E       		.byte	0x1e
 8577 1ffa 58       		.byte	0x58
 8578 1ffb 19       		.byte	0x19
 8579 1ffc BD000000 		.4byte	0xbd
 8580 2000 00       		.byte	0
 8581 2001 18       		.uleb128 0x18
 8582 2002 636200   		.ascii	"cb\000"
 8583 2005 1E       		.byte	0x1e
 8584 2006 5F       		.byte	0x5f
 8585 2007 19       		.byte	0x19
 8586 2008 C31F0000 		.4byte	0x1fc3
 8587 200c 04       		.byte	0x4
 8588 200d 00       		.byte	0
 8589 200e 04       		.uleb128 0x4
 8590 200f 310C0000 		.4byte	.LASF407
 8591 2013 1E       		.byte	0x1e
 8592 2014 60       		.byte	0x60
 8593 2015 03       		.byte	0x3
 8594 2016 EB1F0000 		.4byte	0x1feb
 8595 201a 17       		.uleb128 0x17
 8596 201b B8       		.byte	0xb8
 8597 201c 1E       		.byte	0x1e
 8598 201d 66       		.byte	0x66
 8599 201e 09       		.byte	0x9
 8600 201f 31200000 		.4byte	0x2031
 8601 2023 08       		.uleb128 0x8
 8602 2024 191D0000 		.4byte	.LASF408
 8603 2028 1E       		.byte	0x1e
 8604 2029 6A       		.byte	0x6a
 8605 202a 19       		.byte	0x19
 8606 202b 31200000 		.4byte	0x2031
ARM GAS  /tmp/cczbsEFl.s 			page 152


 8607 202f 00       		.byte	0
 8608 2030 00       		.byte	0
 8609 2031 13       		.uleb128 0x13
 8610 2032 0E200000 		.4byte	0x200e
 8611 2036 41200000 		.4byte	0x2041
 8612 203a 14       		.uleb128 0x14
 8613 203b 2C000000 		.4byte	0x2c
 8614 203f 16       		.byte	0x16
 8615 2040 00       		.byte	0
 8616 2041 04       		.uleb128 0x4
 8617 2042 031A0000 		.4byte	.LASF409
 8618 2046 1E       		.byte	0x1e
 8619 2047 6C       		.byte	0x6c
 8620 2048 03       		.byte	0x3
 8621 2049 1A200000 		.4byte	0x201a
 8622 204d 06       		.uleb128 0x6
 8623 204e 41200000 		.4byte	0x2041
 8624 2052 0B       		.uleb128 0xb
 8625 2053 04       		.byte	0x4
 8626 2054 4D200000 		.4byte	0x204d
 8627 2058 16       		.uleb128 0x16
 8628 2059 C9040000 		.4byte	.LASF410
 8629 205d 1E       		.byte	0x1e
 8630 205e 86       		.byte	0x86
 8631 205f 12       		.byte	0x12
 8632 2060 831F0000 		.4byte	0x1f83
 8633 2064 21       		.uleb128 0x21
 8634 2065 07       		.byte	0x7
 8635 2066 01       		.byte	0x1
 8636 2067 A3000000 		.4byte	0xa3
 8637 206b 1F       		.byte	0x1f
 8638 206c 31       		.byte	0x31
 8639 206d 0E       		.byte	0xe
 8640 206e 91200000 		.4byte	0x2091
 8641 2072 22       		.uleb128 0x22
 8642 2073 E5130000 		.4byte	.LASF411
 8643 2077 00       		.byte	0
 8644 2078 22       		.uleb128 0x22
 8645 2079 1C120000 		.4byte	.LASF412
 8646 207d 01       		.byte	0x1
 8647 207e 22       		.uleb128 0x22
 8648 207f EB150000 		.4byte	.LASF413
 8649 2083 02       		.byte	0x2
 8650 2084 22       		.uleb128 0x22
 8651 2085 59060000 		.4byte	.LASF414
 8652 2089 03       		.byte	0x3
 8653 208a 22       		.uleb128 0x22
 8654 208b 70030000 		.4byte	.LASF415
 8655 208f 04       		.byte	0x4
 8656 2090 00       		.byte	0
 8657 2091 04       		.uleb128 0x4
 8658 2092 DA0F0000 		.4byte	.LASF416
 8659 2096 1F       		.byte	0x1f
 8660 2097 37       		.byte	0x37
 8661 2098 03       		.byte	0x3
 8662 2099 64200000 		.4byte	0x2064
 8663 209d 04       		.uleb128 0x4
ARM GAS  /tmp/cczbsEFl.s 			page 153


 8664 209e AC140000 		.4byte	.LASF417
 8665 20a2 1F       		.byte	0x1f
 8666 20a3 3C       		.byte	0x3c
 8667 20a4 1A       		.byte	0x1a
 8668 20a5 A9200000 		.4byte	0x20a9
 8669 20a9 0C       		.uleb128 0xc
 8670 20aa AC140000 		.4byte	.LASF417
 8671 20ae 10       		.byte	0x10
 8672 20af 20       		.byte	0x20
 8673 20b0 9701     		.2byte	0x197
 8674 20b2 08       		.byte	0x8
 8675 20b3 F0200000 		.4byte	0x20f0
 8676 20b7 0A       		.uleb128 0xa
 8677 20b8 39130000 		.4byte	.LASF327
 8678 20bc 20       		.byte	0x20
 8679 20bd 9B01     		.2byte	0x19b
 8680 20bf 1D       		.byte	0x1d
 8681 20c0 91200000 		.4byte	0x2091
 8682 20c4 00       		.byte	0
 8683 20c5 0A       		.uleb128 0xa
 8684 20c6 95180000 		.4byte	.LASF328
 8685 20ca 20       		.byte	0x20
 8686 20cb 9F01     		.2byte	0x19f
 8687 20cd 1E       		.byte	0x1e
 8688 20ce A3220000 		.4byte	0x22a3
 8689 20d2 04       		.byte	0x4
 8690 20d3 0A       		.uleb128 0xa
 8691 20d4 E30A0000 		.4byte	.LASF418
 8692 20d8 20       		.byte	0x20
 8693 20d9 A701     		.2byte	0x1a7
 8694 20db 1D       		.byte	0x1d
 8695 20dc BD000000 		.4byte	0xbd
 8696 20e0 08       		.byte	0x8
 8697 20e1 09       		.uleb128 0x9
 8698 20e2 74696D00 		.ascii	"tim\000"
 8699 20e6 20       		.byte	0x20
 8700 20e7 AB01     		.2byte	0x1ab
 8701 20e9 1E       		.byte	0x1e
 8702 20ea A9220000 		.4byte	0x22a9
 8703 20ee 0C       		.byte	0xc
 8704 20ef 00       		.byte	0
 8705 20f0 04       		.uleb128 0x4
 8706 20f1 420E0000 		.4byte	.LASF419
 8707 20f5 1F       		.byte	0x1f
 8708 20f6 43       		.byte	0x43
 8709 20f7 10       		.byte	0x10
 8710 20f8 FC200000 		.4byte	0x20fc
 8711 20fc 0B       		.uleb128 0xb
 8712 20fd 04       		.byte	0x4
 8713 20fe 02210000 		.4byte	0x2102
 8714 2102 0D       		.uleb128 0xd
 8715 2103 0D210000 		.4byte	0x210d
 8716 2107 0E       		.uleb128 0xe
 8717 2108 0D210000 		.4byte	0x210d
 8718 210c 00       		.byte	0
 8719 210d 0B       		.uleb128 0xb
 8720 210e 04       		.byte	0x4
ARM GAS  /tmp/cczbsEFl.s 			page 154


 8721 210f 9D200000 		.4byte	0x209d
 8722 2113 19       		.uleb128 0x19
 8723 2114 60       		.byte	0x60
 8724 2115 21       		.byte	0x21
 8725 2116 9E01     		.2byte	0x19e
 8726 2118 09       		.byte	0x9
 8727 2119 34220000 		.4byte	0x2234
 8728 211d 09       		.uleb128 0x9
 8729 211e 43523100 		.ascii	"CR1\000"
 8730 2122 21       		.byte	0x21
 8731 2123 9F01     		.2byte	0x19f
 8732 2125 19       		.byte	0x19
 8733 2126 C9000000 		.4byte	0xc9
 8734 212a 00       		.byte	0
 8735 212b 09       		.uleb128 0x9
 8736 212c 43523200 		.ascii	"CR2\000"
 8737 2130 21       		.byte	0x21
 8738 2131 A001     		.2byte	0x1a0
 8739 2133 19       		.byte	0x19
 8740 2134 C9000000 		.4byte	0xc9
 8741 2138 04       		.byte	0x4
 8742 2139 0A       		.uleb128 0xa
 8743 213a 5A1C0000 		.4byte	.LASF420
 8744 213e 21       		.byte	0x21
 8745 213f A101     		.2byte	0x1a1
 8746 2141 19       		.byte	0x19
 8747 2142 C9000000 		.4byte	0xc9
 8748 2146 08       		.byte	0x8
 8749 2147 0A       		.uleb128 0xa
 8750 2148 88080000 		.4byte	.LASF421
 8751 214c 21       		.byte	0x21
 8752 214d A201     		.2byte	0x1a2
 8753 214f 19       		.byte	0x19
 8754 2150 C9000000 		.4byte	0xc9
 8755 2154 0C       		.byte	0xc
 8756 2155 09       		.uleb128 0x9
 8757 2156 535200   		.ascii	"SR\000"
 8758 2159 21       		.byte	0x21
 8759 215a A301     		.2byte	0x1a3
 8760 215c 19       		.byte	0x19
 8761 215d C9000000 		.4byte	0xc9
 8762 2161 10       		.byte	0x10
 8763 2162 09       		.uleb128 0x9
 8764 2163 45475200 		.ascii	"EGR\000"
 8765 2167 21       		.byte	0x21
 8766 2168 A401     		.2byte	0x1a4
 8767 216a 19       		.byte	0x19
 8768 216b C9000000 		.4byte	0xc9
 8769 216f 14       		.byte	0x14
 8770 2170 0A       		.uleb128 0xa
 8771 2171 16200000 		.4byte	.LASF422
 8772 2175 21       		.byte	0x21
 8773 2176 A501     		.2byte	0x1a5
 8774 2178 19       		.byte	0x19
 8775 2179 C9000000 		.4byte	0xc9
 8776 217d 18       		.byte	0x18
 8777 217e 0A       		.uleb128 0xa
ARM GAS  /tmp/cczbsEFl.s 			page 155


 8778 217f 1C200000 		.4byte	.LASF423
 8779 2183 21       		.byte	0x21
 8780 2184 A601     		.2byte	0x1a6
 8781 2186 19       		.byte	0x19
 8782 2187 C9000000 		.4byte	0xc9
 8783 218b 1C       		.byte	0x1c
 8784 218c 0A       		.uleb128 0xa
 8785 218d 05060000 		.4byte	.LASF424
 8786 2191 21       		.byte	0x21
 8787 2192 A701     		.2byte	0x1a7
 8788 2194 19       		.byte	0x19
 8789 2195 C9000000 		.4byte	0xc9
 8790 2199 20       		.byte	0x20
 8791 219a 09       		.uleb128 0x9
 8792 219b 434E5400 		.ascii	"CNT\000"
 8793 219f 21       		.byte	0x21
 8794 21a0 A801     		.2byte	0x1a8
 8795 21a2 19       		.byte	0x19
 8796 21a3 C9000000 		.4byte	0xc9
 8797 21a7 24       		.byte	0x24
 8798 21a8 09       		.uleb128 0x9
 8799 21a9 50534300 		.ascii	"PSC\000"
 8800 21ad 21       		.byte	0x21
 8801 21ae A901     		.2byte	0x1a9
 8802 21b0 19       		.byte	0x19
 8803 21b1 C9000000 		.4byte	0xc9
 8804 21b5 28       		.byte	0x28
 8805 21b6 09       		.uleb128 0x9
 8806 21b7 41525200 		.ascii	"ARR\000"
 8807 21bb 21       		.byte	0x21
 8808 21bc AA01     		.2byte	0x1aa
 8809 21be 19       		.byte	0x19
 8810 21bf C9000000 		.4byte	0xc9
 8811 21c3 2C       		.byte	0x2c
 8812 21c4 09       		.uleb128 0x9
 8813 21c5 52435200 		.ascii	"RCR\000"
 8814 21c9 21       		.byte	0x21
 8815 21ca AB01     		.2byte	0x1ab
 8816 21cc 19       		.byte	0x19
 8817 21cd C9000000 		.4byte	0xc9
 8818 21d1 30       		.byte	0x30
 8819 21d2 09       		.uleb128 0x9
 8820 21d3 43435200 		.ascii	"CCR\000"
 8821 21d7 21       		.byte	0x21
 8822 21d8 AC01     		.2byte	0x1ac
 8823 21da 19       		.byte	0x19
 8824 21db 800A0000 		.4byte	0xa80
 8825 21df 34       		.byte	0x34
 8826 21e0 0A       		.uleb128 0xa
 8827 21e1 58010000 		.4byte	.LASF425
 8828 21e5 21       		.byte	0x21
 8829 21e6 AD01     		.2byte	0x1ad
 8830 21e8 19       		.byte	0x19
 8831 21e9 C9000000 		.4byte	0xc9
 8832 21ed 44       		.byte	0x44
 8833 21ee 09       		.uleb128 0x9
 8834 21ef 44435200 		.ascii	"DCR\000"
ARM GAS  /tmp/cczbsEFl.s 			page 156


 8835 21f3 21       		.byte	0x21
 8836 21f4 AE01     		.2byte	0x1ae
 8837 21f6 19       		.byte	0x19
 8838 21f7 C9000000 		.4byte	0xc9
 8839 21fb 48       		.byte	0x48
 8840 21fc 0A       		.uleb128 0xa
 8841 21fd 96130000 		.4byte	.LASF426
 8842 2201 21       		.byte	0x21
 8843 2202 AF01     		.2byte	0x1af
 8844 2204 19       		.byte	0x19
 8845 2205 C9000000 		.4byte	0xc9
 8846 2209 4C       		.byte	0x4c
 8847 220a 09       		.uleb128 0x9
 8848 220b 4F5200   		.ascii	"OR\000"
 8849 220e 21       		.byte	0x21
 8850 220f B001     		.2byte	0x1b0
 8851 2211 19       		.byte	0x19
 8852 2212 C9000000 		.4byte	0xc9
 8853 2216 50       		.byte	0x50
 8854 2217 0A       		.uleb128 0xa
 8855 2218 22200000 		.4byte	.LASF427
 8856 221c 21       		.byte	0x21
 8857 221d B101     		.2byte	0x1b1
 8858 221f 19       		.byte	0x19
 8859 2220 C9000000 		.4byte	0xc9
 8860 2224 54       		.byte	0x54
 8861 2225 0A       		.uleb128 0xa
 8862 2226 EF0A0000 		.4byte	.LASF428
 8863 222a 21       		.byte	0x21
 8864 222b B201     		.2byte	0x1b2
 8865 222d 19       		.byte	0x19
 8866 222e 6B0A0000 		.4byte	0xa6b
 8867 2232 58       		.byte	0x58
 8868 2233 00       		.byte	0
 8869 2234 1A       		.uleb128 0x1a
 8870 2235 6E1B0000 		.4byte	.LASF429
 8871 2239 21       		.byte	0x21
 8872 223a B301     		.2byte	0x1b3
 8873 223c 03       		.byte	0x3
 8874 223d 13210000 		.4byte	0x2113
 8875 2241 1A       		.uleb128 0x1a
 8876 2242 56070000 		.4byte	.LASF430
 8877 2246 20       		.byte	0x20
 8878 2247 6D01     		.2byte	0x16d
 8879 2249 12       		.byte	0x12
 8880 224a BD000000 		.4byte	0xbd
 8881 224e 19       		.uleb128 0x19
 8882 224f 10       		.byte	0x10
 8883 2250 20       		.byte	0x20
 8884 2251 7801     		.2byte	0x178
 8885 2253 09       		.byte	0x9
 8886 2254 91220000 		.4byte	0x2291
 8887 2258 0A       		.uleb128 0xa
 8888 2259 911F0000 		.4byte	.LASF431
 8889 225d 20       		.byte	0x20
 8890 225e 7E01     		.2byte	0x17e
 8891 2260 1D       		.byte	0x1d
ARM GAS  /tmp/cczbsEFl.s 			page 157


 8892 2261 41220000 		.4byte	0x2241
 8893 2265 00       		.byte	0
 8894 2266 0A       		.uleb128 0xa
 8895 2267 9B130000 		.4byte	.LASF432
 8896 226b 20       		.byte	0x20
 8897 226c 8501     		.2byte	0x185
 8898 226e 1D       		.byte	0x1d
 8899 226f F0200000 		.4byte	0x20f0
 8900 2273 04       		.byte	0x4
 8901 2274 09       		.uleb128 0x9
 8902 2275 63723200 		.ascii	"cr2\000"
 8903 2279 20       		.byte	0x20
 8904 227a 8B01     		.2byte	0x18b
 8905 227c 1D       		.byte	0x1d
 8906 227d BD000000 		.4byte	0xbd
 8907 2281 08       		.byte	0x8
 8908 2282 0A       		.uleb128 0xa
 8909 2283 4E0A0000 		.4byte	.LASF433
 8910 2287 20       		.byte	0x20
 8911 2288 9101     		.2byte	0x191
 8912 228a 1D       		.byte	0x1d
 8913 228b BD000000 		.4byte	0xbd
 8914 228f 0C       		.byte	0xc
 8915 2290 00       		.byte	0
 8916 2291 1A       		.uleb128 0x1a
 8917 2292 58050000 		.4byte	.LASF434
 8918 2296 20       		.byte	0x20
 8919 2297 9201     		.2byte	0x192
 8920 2299 03       		.byte	0x3
 8921 229a 4E220000 		.4byte	0x224e
 8922 229e 06       		.uleb128 0x6
 8923 229f 91220000 		.4byte	0x2291
 8924 22a3 0B       		.uleb128 0xb
 8925 22a4 04       		.byte	0x4
 8926 22a5 9E220000 		.4byte	0x229e
 8927 22a9 0B       		.uleb128 0xb
 8928 22aa 04       		.byte	0x4
 8929 22ab 34220000 		.4byte	0x2234
 8930 22af 15       		.uleb128 0x15
 8931 22b0 221F0000 		.4byte	.LASF435
 8932 22b4 20       		.byte	0x20
 8933 22b5 F201     		.2byte	0x1f2
 8934 22b7 12       		.byte	0x12
 8935 22b8 9D200000 		.4byte	0x209d
 8936 22bc 15       		.uleb128 0x15
 8937 22bd 9C180000 		.4byte	.LASF436
 8938 22c1 20       		.byte	0x20
 8939 22c2 0202     		.2byte	0x202
 8940 22c4 12       		.byte	0x12
 8941 22c5 9D200000 		.4byte	0x209d
 8942 22c9 21       		.uleb128 0x21
 8943 22ca 07       		.byte	0x7
 8944 22cb 01       		.byte	0x1
 8945 22cc A3000000 		.4byte	0xa3
 8946 22d0 22       		.byte	0x22
 8947 22d1 4C       		.byte	0x4c
 8948 22d2 0E       		.byte	0xe
ARM GAS  /tmp/cczbsEFl.s 			page 158


 8949 22d3 FC220000 		.4byte	0x22fc
 8950 22d7 22       		.uleb128 0x22
 8951 22d8 30050000 		.4byte	.LASF437
 8952 22dc 00       		.byte	0
 8953 22dd 22       		.uleb128 0x22
 8954 22de 000C0000 		.4byte	.LASF438
 8955 22e2 01       		.byte	0x1
 8956 22e3 22       		.uleb128 0x22
 8957 22e4 89050000 		.4byte	.LASF439
 8958 22e8 02       		.byte	0x2
 8959 22e9 22       		.uleb128 0x22
 8960 22ea 96030000 		.4byte	.LASF440
 8961 22ee 03       		.byte	0x3
 8962 22ef 22       		.uleb128 0x22
 8963 22f0 97020000 		.4byte	.LASF441
 8964 22f4 04       		.byte	0x4
 8965 22f5 22       		.uleb128 0x22
 8966 22f6 AF0F0000 		.4byte	.LASF442
 8967 22fa 05       		.byte	0x5
 8968 22fb 00       		.byte	0
 8969 22fc 04       		.uleb128 0x4
 8970 22fd 070E0000 		.4byte	.LASF443
 8971 2301 22       		.byte	0x22
 8972 2302 53       		.byte	0x53
 8973 2303 03       		.byte	0x3
 8974 2304 C9220000 		.4byte	0x22c9
 8975 2308 1A       		.uleb128 0x1a
 8976 2309 E7030000 		.4byte	.LASF444
 8977 230d 23       		.byte	0x23
 8978 230e 6A01     		.2byte	0x16a
 8979 2310 12       		.byte	0x12
 8980 2311 AA000000 		.4byte	0xaa
 8981 2315 1A       		.uleb128 0x1a
 8982 2316 38030000 		.4byte	.LASF445
 8983 231a 23       		.byte	0x23
 8984 231b 6F01     		.2byte	0x16f
 8985 231d 12       		.byte	0x12
 8986 231e BD000000 		.4byte	0xbd
 8987 2322 24       		.uleb128 0x24
 8988 2323 07       		.byte	0x7
 8989 2324 01       		.byte	0x1
 8990 2325 A3000000 		.4byte	0xa3
 8991 2329 23       		.byte	0x23
 8992 232a 7401     		.2byte	0x174
 8993 232c 0E       		.byte	0xe
 8994 232d 44230000 		.4byte	0x2344
 8995 2331 22       		.uleb128 0x22
 8996 2332 A9030000 		.4byte	.LASF446
 8997 2336 01       		.byte	0x1
 8998 2337 22       		.uleb128 0x22
 8999 2338 50000000 		.4byte	.LASF447
 9000 233c 02       		.byte	0x2
 9001 233d 22       		.uleb128 0x22
 9002 233e 10080000 		.4byte	.LASF448
 9003 2342 03       		.byte	0x3
 9004 2343 00       		.byte	0
 9005 2344 1A       		.uleb128 0x1a
ARM GAS  /tmp/cczbsEFl.s 			page 159


 9006 2345 6E200000 		.4byte	.LASF449
 9007 2349 23       		.byte	0x23
 9008 234a 7801     		.2byte	0x178
 9009 234c 03       		.byte	0x3
 9010 234d 22230000 		.4byte	0x2322
 9011 2351 24       		.uleb128 0x24
 9012 2352 07       		.byte	0x7
 9013 2353 01       		.byte	0x1
 9014 2354 A3000000 		.4byte	0xa3
 9015 2358 23       		.byte	0x23
 9016 2359 7D01     		.2byte	0x17d
 9017 235b 0E       		.byte	0xe
 9018 235c 73230000 		.4byte	0x2373
 9019 2360 22       		.uleb128 0x22
 9020 2361 9A040000 		.4byte	.LASF450
 9021 2365 01       		.byte	0x1
 9022 2366 22       		.uleb128 0x22
 9023 2367 EB1F0000 		.4byte	.LASF451
 9024 236b 02       		.byte	0x2
 9025 236c 22       		.uleb128 0x22
 9026 236d D7080000 		.4byte	.LASF452
 9027 2371 03       		.byte	0x3
 9028 2372 00       		.byte	0
 9029 2373 1A       		.uleb128 0x1a
 9030 2374 9C050000 		.4byte	.LASF453
 9031 2378 23       		.byte	0x23
 9032 2379 8101     		.2byte	0x181
 9033 237b 03       		.byte	0x3
 9034 237c 51230000 		.4byte	0x2351
 9035 2380 19       		.uleb128 0x19
 9036 2381 0C       		.byte	0xc
 9037 2382 23       		.byte	0x23
 9038 2383 8601     		.2byte	0x186
 9039 2385 09       		.byte	0x9
 9040 2386 B5230000 		.4byte	0x23b5
 9041 238a 0A       		.uleb128 0xa
 9042 238b 44120000 		.4byte	.LASF454
 9043 238f 23       		.byte	0x23
 9044 2390 8801     		.2byte	0x188
 9045 2392 13       		.byte	0x13
 9046 2393 44230000 		.4byte	0x2344
 9047 2397 00       		.byte	0
 9048 2398 0A       		.uleb128 0xa
 9049 2399 F5020000 		.4byte	.LASF455
 9050 239d 23       		.byte	0x23
 9051 239e 8901     		.2byte	0x189
 9052 23a0 13       		.byte	0x13
 9053 23a1 BD000000 		.4byte	0xbd
 9054 23a5 04       		.byte	0x4
 9055 23a6 0A       		.uleb128 0xa
 9056 23a7 E3200000 		.4byte	.LASF456
 9057 23ab 23       		.byte	0x23
 9058 23ac 8C01     		.2byte	0x18c
 9059 23ae 13       		.byte	0x13
 9060 23af 73230000 		.4byte	0x2373
 9061 23b3 08       		.byte	0x8
 9062 23b4 00       		.byte	0
ARM GAS  /tmp/cczbsEFl.s 			page 160


 9063 23b5 1A       		.uleb128 0x1a
 9064 23b6 65010000 		.4byte	.LASF457
 9065 23ba 23       		.byte	0x23
 9066 23bb 8E01     		.2byte	0x18e
 9067 23bd 03       		.byte	0x3
 9068 23be 80230000 		.4byte	0x2380
 9069 23c2 06       		.uleb128 0x6
 9070 23c3 B5230000 		.4byte	0x23b5
 9071 23c7 1A       		.uleb128 0x1a
 9072 23c8 8C030000 		.4byte	.LASF458
 9073 23cc 23       		.byte	0x23
 9074 23cd 9301     		.2byte	0x193
 9075 23cf 1A       		.byte	0x1a
 9076 23d0 D4230000 		.4byte	0x23d4
 9077 23d4 0C       		.uleb128 0xc
 9078 23d5 8C030000 		.4byte	.LASF458
 9079 23d9 3C       		.byte	0x3c
 9080 23da 23       		.byte	0x23
 9081 23db 9801     		.2byte	0x198
 9082 23dd 08       		.byte	0x8
 9083 23de 7D240000 		.4byte	0x247d
 9084 23e2 0A       		.uleb128 0xa
 9085 23e3 39130000 		.4byte	.LASF327
 9086 23e7 23       		.byte	0x23
 9087 23e8 9C01     		.2byte	0x19c
 9088 23ea 1D       		.byte	0x1d
 9089 23eb FC220000 		.4byte	0x22fc
 9090 23ef 00       		.byte	0
 9091 23f0 0A       		.uleb128 0xa
 9092 23f1 95180000 		.4byte	.LASF328
 9093 23f5 23       		.byte	0x23
 9094 23f6 A001     		.2byte	0x1a0
 9095 23f8 1E       		.byte	0x1e
 9096 23f9 7D240000 		.4byte	0x247d
 9097 23fd 04       		.byte	0x4
 9098 23fe 0A       		.uleb128 0xa
 9099 23ff 0B010000 		.4byte	.LASF459
 9100 2403 23       		.byte	0x23
 9101 2404 A401     		.2byte	0x1a4
 9102 2406 1D       		.byte	0x1d
 9103 2407 15230000 		.4byte	0x2315
 9104 240b 08       		.byte	0x8
 9105 240c 0A       		.uleb128 0xa
 9106 240d A40A0000 		.4byte	.LASF333
 9107 2411 23       		.byte	0x23
 9108 2412 A901     		.2byte	0x1a9
 9109 2414 1D       		.byte	0x1d
 9110 2415 BE120000 		.4byte	0x12be
 9111 2419 0C       		.byte	0xc
 9112 241a 0A       		.uleb128 0xa
 9113 241b C9050000 		.4byte	.LASF332
 9114 241f 23       		.byte	0x23
 9115 2420 B201     		.2byte	0x1b2
 9116 2422 1D       		.byte	0x1d
 9117 2423 CF020000 		.4byte	0x2cf
 9118 2427 20       		.byte	0x20
 9119 2428 0A       		.uleb128 0xa
ARM GAS  /tmp/cczbsEFl.s 			page 161


 9120 2429 090C0000 		.4byte	.LASF460
 9121 242d 23       		.byte	0x23
 9122 242e B601     		.2byte	0x1b6
 9123 2430 1D       		.byte	0x1d
 9124 2431 08230000 		.4byte	0x2308
 9125 2435 24       		.byte	0x24
 9126 2436 0A       		.uleb128 0xa
 9127 2437 0C070000 		.4byte	.LASF461
 9128 243b 23       		.byte	0x23
 9129 243c BA01     		.2byte	0x1ba
 9130 243e 1D       		.byte	0x1d
 9131 243f BD000000 		.4byte	0xbd
 9132 2443 28       		.byte	0x28
 9133 2444 0A       		.uleb128 0xa
 9134 2445 4C070000 		.4byte	.LASF462
 9135 2449 23       		.byte	0x23
 9136 244a BE01     		.2byte	0x1be
 9137 244c 1D       		.byte	0x1d
 9138 244d BD000000 		.4byte	0xbd
 9139 2451 2C       		.byte	0x2c
 9140 2452 0A       		.uleb128 0xa
 9141 2453 C9000000 		.4byte	.LASF463
 9142 2457 23       		.byte	0x23
 9143 2458 C201     		.2byte	0x1c2
 9144 245a 1E       		.byte	0x1e
 9145 245b 301B0000 		.4byte	0x1b30
 9146 245f 30       		.byte	0x30
 9147 2460 0A       		.uleb128 0xa
 9148 2461 78010000 		.4byte	.LASF464
 9149 2465 23       		.byte	0x23
 9150 2466 C601     		.2byte	0x1c6
 9151 2468 1E       		.byte	0x1e
 9152 2469 301B0000 		.4byte	0x1b30
 9153 246d 34       		.byte	0x34
 9154 246e 09       		.uleb128 0x9
 9155 246f 69326300 		.ascii	"i2c\000"
 9156 2473 23       		.byte	0x23
 9157 2474 CA01     		.2byte	0x1ca
 9158 2476 1E       		.byte	0x1e
 9159 2477 83240000 		.4byte	0x2483
 9160 247b 38       		.byte	0x38
 9161 247c 00       		.byte	0
 9162 247d 0B       		.uleb128 0xb
 9163 247e 04       		.byte	0x4
 9164 247f C2230000 		.4byte	0x23c2
 9165 2483 0B       		.uleb128 0xb
 9166 2484 04       		.byte	0x4
 9167 2485 1B0B0000 		.4byte	0xb1b
 9168 2489 15       		.uleb128 0x15
 9169 248a 600E0000 		.4byte	.LASF465
 9170 248e 23       		.byte	0x23
 9171 248f E001     		.2byte	0x1e0
 9172 2491 12       		.byte	0x12
 9173 2492 C7230000 		.4byte	0x23c7
 9174 2496 21       		.uleb128 0x21
 9175 2497 07       		.byte	0x7
 9176 2498 01       		.byte	0x1
ARM GAS  /tmp/cczbsEFl.s 			page 162


 9177 2499 A3000000 		.4byte	0xa3
 9178 249d 24       		.byte	0x24
 9179 249e 39       		.byte	0x39
 9180 249f 0E       		.byte	0xe
 9181 24a0 C3240000 		.4byte	0x24c3
 9182 24a4 22       		.uleb128 0x22
 9183 24a5 0C0D0000 		.4byte	.LASF466
 9184 24a9 00       		.byte	0
 9185 24aa 22       		.uleb128 0x22
 9186 24ab 8A0A0000 		.4byte	.LASF467
 9187 24af 01       		.byte	0x1
 9188 24b0 22       		.uleb128 0x22
 9189 24b1 E7000000 		.4byte	.LASF468
 9190 24b5 02       		.byte	0x2
 9191 24b6 22       		.uleb128 0x22
 9192 24b7 E0150000 		.4byte	.LASF469
 9193 24bb 03       		.byte	0x3
 9194 24bc 22       		.uleb128 0x22
 9195 24bd 871A0000 		.4byte	.LASF470
 9196 24c1 04       		.byte	0x4
 9197 24c2 00       		.byte	0
 9198 24c3 04       		.uleb128 0x4
 9199 24c4 A31D0000 		.4byte	.LASF471
 9200 24c8 24       		.byte	0x24
 9201 24c9 3F       		.byte	0x3f
 9202 24ca 03       		.byte	0x3
 9203 24cb 96240000 		.4byte	0x2496
 9204 24cf 04       		.uleb128 0x4
 9205 24d0 D9200000 		.4byte	.LASF472
 9206 24d4 25       		.byte	0x25
 9207 24d5 E2       		.byte	0xe2
 9208 24d6 1A       		.byte	0x1a
 9209 24d7 DB240000 		.4byte	0x24db
 9210 24db 0C       		.uleb128 0xc
 9211 24dc D9200000 		.4byte	.LASF472
 9212 24e0 20       		.byte	0x20
 9213 24e1 25       		.byte	0x25
 9214 24e2 1B01     		.2byte	0x11b
 9215 24e4 08       		.byte	0x8
 9216 24e5 5A250000 		.4byte	0x255a
 9217 24e9 0A       		.uleb128 0xa
 9218 24ea 39130000 		.4byte	.LASF327
 9219 24ee 25       		.byte	0x25
 9220 24ef 1F01     		.2byte	0x11f
 9221 24f1 1D       		.byte	0x1d
 9222 24f2 C3240000 		.4byte	0x24c3
 9223 24f6 00       		.byte	0
 9224 24f7 0A       		.uleb128 0xa
 9225 24f8 95180000 		.4byte	.LASF328
 9226 24fc 25       		.byte	0x25
 9227 24fd 2301     		.2byte	0x123
 9228 24ff 1E       		.byte	0x1e
 9229 2500 FB250000 		.4byte	0x25fb
 9230 2504 04       		.byte	0x4
 9231 2505 09       		.uleb128 0x9
 9232 2506 73706900 		.ascii	"spi\000"
 9233 250a 25       		.byte	0x25
ARM GAS  /tmp/cczbsEFl.s 			page 163


 9234 250b 2801     		.2byte	0x128
 9235 250d 1E       		.byte	0x1e
 9236 250e 01260000 		.4byte	0x2601
 9237 2512 08       		.byte	0x8
 9238 2513 09       		.uleb128 0x9
 9239 2514 63666700 		.ascii	"cfg\000"
 9240 2518 25       		.byte	0x25
 9241 2519 2C01     		.2byte	0x12c
 9242 251b 1D       		.byte	0x1d
 9243 251c AA000000 		.4byte	0xaa
 9244 2520 0C       		.byte	0xc
 9245 2521 0A       		.uleb128 0xa
 9246 2522 C9000000 		.4byte	.LASF463
 9247 2526 25       		.byte	0x25
 9248 2527 3001     		.2byte	0x130
 9249 2529 1E       		.byte	0x1e
 9250 252a 301B0000 		.4byte	0x1b30
 9251 252e 10       		.byte	0x10
 9252 252f 0A       		.uleb128 0xa
 9253 2530 78010000 		.4byte	.LASF464
 9254 2534 25       		.byte	0x25
 9255 2535 3401     		.2byte	0x134
 9256 2537 1E       		.byte	0x1e
 9257 2538 301B0000 		.4byte	0x1b30
 9258 253c 14       		.byte	0x14
 9259 253d 0A       		.uleb128 0xa
 9260 253e 0C070000 		.4byte	.LASF461
 9261 2542 25       		.byte	0x25
 9262 2543 3801     		.2byte	0x138
 9263 2545 1D       		.byte	0x1d
 9264 2546 BD000000 		.4byte	0xbd
 9265 254a 18       		.byte	0x18
 9266 254b 0A       		.uleb128 0xa
 9267 254c 4C070000 		.4byte	.LASF462
 9268 2550 25       		.byte	0x25
 9269 2551 3C01     		.2byte	0x13c
 9270 2553 1D       		.byte	0x1d
 9271 2554 BD000000 		.4byte	0xbd
 9272 2558 1C       		.byte	0x1c
 9273 2559 00       		.byte	0
 9274 255a 04       		.uleb128 0x4
 9275 255b 38070000 		.4byte	.LASF473
 9276 255f 25       		.byte	0x25
 9277 2560 EB       		.byte	0xeb
 9278 2561 10       		.byte	0x10
 9279 2562 66250000 		.4byte	0x2566
 9280 2566 0B       		.uleb128 0xb
 9281 2567 04       		.byte	0x4
 9282 2568 6C250000 		.4byte	0x256c
 9283 256c 0D       		.uleb128 0xd
 9284 256d 81250000 		.4byte	0x2581
 9285 2571 0E       		.uleb128 0xe
 9286 2572 81250000 		.4byte	0x2581
 9287 2576 0E       		.uleb128 0xe
 9288 2577 3A000000 		.4byte	0x3a
 9289 257b 0E       		.uleb128 0xe
 9290 257c 3A000000 		.4byte	0x3a
ARM GAS  /tmp/cczbsEFl.s 			page 164


 9291 2580 00       		.byte	0
 9292 2581 0B       		.uleb128 0xb
 9293 2582 04       		.byte	0x4
 9294 2583 CF240000 		.4byte	0x24cf
 9295 2587 17       		.uleb128 0x17
 9296 2588 14       		.byte	0x14
 9297 2589 25       		.byte	0x25
 9298 258a F1       		.byte	0xf1
 9299 258b 09       		.byte	0x9
 9300 258c E2250000 		.4byte	0x25e2
 9301 2590 08       		.uleb128 0x8
 9302 2591 2D010000 		.4byte	.LASF474
 9303 2595 25       		.byte	0x25
 9304 2596 F6       		.byte	0xf6
 9305 2597 1E       		.byte	0x1e
 9306 2598 E2250000 		.4byte	0x25e2
 9307 259c 00       		.byte	0
 9308 259d 08       		.uleb128 0x8
 9309 259e 01010000 		.4byte	.LASF475
 9310 25a2 25       		.byte	0x25
 9311 25a3 FB       		.byte	0xfb
 9312 25a4 1E       		.byte	0x1e
 9313 25a5 C8030000 		.4byte	0x3c8
 9314 25a9 04       		.byte	0x4
 9315 25aa 08       		.uleb128 0x8
 9316 25ab AA0A0000 		.4byte	.LASF476
 9317 25af 25       		.byte	0x25
 9318 25b0 FF       		.byte	0xff
 9319 25b1 1D       		.byte	0x1d
 9320 25b2 3A000000 		.4byte	0x3a
 9321 25b6 08       		.byte	0x8
 9322 25b7 0A       		.uleb128 0xa
 9323 25b8 B5070000 		.4byte	.LASF340
 9324 25bc 25       		.byte	0x25
 9325 25bd 0301     		.2byte	0x103
 9326 25bf 1D       		.byte	0x1d
 9327 25c0 5A250000 		.4byte	0x255a
 9328 25c4 0C       		.byte	0xc
 9329 25c5 0A       		.uleb128 0xa
 9330 25c6 2C160000 		.4byte	.LASF477
 9331 25ca 25       		.byte	0x25
 9332 25cb 0F01     		.2byte	0x10f
 9333 25cd 1D       		.byte	0x1d
 9334 25ce 67000000 		.4byte	0x67
 9335 25d2 10       		.byte	0x10
 9336 25d3 0A       		.uleb128 0xa
 9337 25d4 7A050000 		.4byte	.LASF478
 9338 25d8 25       		.byte	0x25
 9339 25d9 1501     		.2byte	0x115
 9340 25db 1D       		.byte	0x1d
 9341 25dc 67000000 		.4byte	0x67
 9342 25e0 12       		.byte	0x12
 9343 25e1 00       		.byte	0
 9344 25e2 0B       		.uleb128 0xb
 9345 25e3 04       		.byte	0x4
 9346 25e4 E8250000 		.4byte	0x25e8
 9347 25e8 25       		.uleb128 0x25
ARM GAS  /tmp/cczbsEFl.s 			page 165


 9348 25e9 1A       		.uleb128 0x1a
 9349 25ea EE200000 		.4byte	.LASF479
 9350 25ee 25       		.byte	0x25
 9351 25ef 1601     		.2byte	0x116
 9352 25f1 03       		.byte	0x3
 9353 25f2 87250000 		.4byte	0x2587
 9354 25f6 06       		.uleb128 0x6
 9355 25f7 E9250000 		.4byte	0x25e9
 9356 25fb 0B       		.uleb128 0xb
 9357 25fc 04       		.byte	0x4
 9358 25fd F6250000 		.4byte	0x25f6
 9359 2601 0B       		.uleb128 0xb
 9360 2602 04       		.byte	0x4
 9361 2603 EF0C0000 		.4byte	0xcef
 9362 2607 15       		.uleb128 0x15
 9363 2608 23210000 		.4byte	.LASF480
 9364 260c 25       		.byte	0x25
 9365 260d 4801     		.2byte	0x148
 9366 260f 12       		.byte	0x12
 9367 2610 CF240000 		.4byte	0x24cf
 9368 2614 21       		.uleb128 0x21
 9369 2615 07       		.byte	0x7
 9370 2616 01       		.byte	0x1
 9371 2617 A3000000 		.4byte	0xa3
 9372 261b 26       		.byte	0x26
 9373 261c 4A       		.byte	0x4a
 9374 261d 0E       		.byte	0xe
 9375 261e 35260000 		.4byte	0x2635
 9376 2622 22       		.uleb128 0x22
 9377 2623 10060000 		.4byte	.LASF481
 9378 2627 00       		.byte	0
 9379 2628 22       		.uleb128 0x22
 9380 2629 930A0000 		.4byte	.LASF482
 9381 262d 01       		.byte	0x1
 9382 262e 22       		.uleb128 0x22
 9383 262f 330D0000 		.4byte	.LASF483
 9384 2633 02       		.byte	0x2
 9385 2634 00       		.byte	0
 9386 2635 04       		.uleb128 0x4
 9387 2636 B8020000 		.4byte	.LASF484
 9388 263a 26       		.byte	0x26
 9389 263b 4E       		.byte	0x4e
 9390 263c 03       		.byte	0x3
 9391 263d 14260000 		.4byte	0x2614
 9392 2641 04       		.uleb128 0x4
 9393 2642 C0090000 		.4byte	.LASF485
 9394 2646 26       		.byte	0x26
 9395 2647 53       		.byte	0x53
 9396 2648 1A       		.byte	0x1a
 9397 2649 4D260000 		.4byte	0x264d
 9398 264d 0C       		.uleb128 0xc
 9399 264e C0090000 		.4byte	.LASF485
 9400 2652 1C       		.byte	0x1c
 9401 2653 27       		.byte	0x27
 9402 2654 7901     		.2byte	0x179
 9403 2656 08       		.byte	0x8
 9404 2657 BE260000 		.4byte	0x26be
ARM GAS  /tmp/cczbsEFl.s 			page 166


 9405 265b 0A       		.uleb128 0xa
 9406 265c 39130000 		.4byte	.LASF327
 9407 2660 27       		.byte	0x27
 9408 2661 7D01     		.2byte	0x17d
 9409 2663 1D       		.byte	0x1d
 9410 2664 35260000 		.4byte	0x2635
 9411 2668 00       		.byte	0
 9412 2669 0A       		.uleb128 0xa
 9413 266a 95180000 		.4byte	.LASF328
 9414 266e 27       		.byte	0x27
 9415 266f 8101     		.2byte	0x181
 9416 2671 1E       		.byte	0x1e
 9417 2672 CA270000 		.4byte	0x27ca
 9418 2676 04       		.byte	0x4
 9419 2677 0A       		.uleb128 0xa
 9420 2678 A80F0000 		.4byte	.LASF486
 9421 267c 27       		.byte	0x27
 9422 267d 8501     		.2byte	0x185
 9423 267f 1D       		.byte	0x1d
 9424 2680 08270000 		.4byte	0x2708
 9425 2684 08       		.byte	0x8
 9426 2685 0A       		.uleb128 0xa
 9427 2686 83160000 		.4byte	.LASF487
 9428 268a 27       		.byte	0x27
 9429 268b 8901     		.2byte	0x189
 9430 268d 1D       		.byte	0x1d
 9431 268e FB260000 		.4byte	0x26fb
 9432 2692 0C       		.byte	0xc
 9433 2693 0A       		.uleb128 0xa
 9434 2694 191D0000 		.4byte	.LASF408
 9435 2698 27       		.byte	0x27
 9436 2699 8D01     		.2byte	0x18d
 9437 269b 1D       		.byte	0x1d
 9438 269c EE260000 		.4byte	0x26ee
 9439 26a0 10       		.byte	0x10
 9440 26a1 0A       		.uleb128 0xa
 9441 26a2 E30A0000 		.4byte	.LASF418
 9442 26a6 27       		.byte	0x27
 9443 26a7 9501     		.2byte	0x195
 9444 26a9 1D       		.byte	0x1d
 9445 26aa BD000000 		.4byte	0xbd
 9446 26ae 14       		.byte	0x14
 9447 26af 09       		.uleb128 0x9
 9448 26b0 74696D00 		.ascii	"tim\000"
 9449 26b4 27       		.byte	0x27
 9450 26b5 9901     		.2byte	0x199
 9451 26b7 1E       		.byte	0x1e
 9452 26b8 A9220000 		.4byte	0x22a9
 9453 26bc 18       		.byte	0x18
 9454 26bd 00       		.byte	0
 9455 26be 04       		.uleb128 0x4
 9456 26bf D70D0000 		.4byte	.LASF488
 9457 26c3 26       		.byte	0x26
 9458 26c4 5A       		.byte	0x5a
 9459 26c5 10       		.byte	0x10
 9460 26c6 CA260000 		.4byte	0x26ca
 9461 26ca 0B       		.uleb128 0xb
ARM GAS  /tmp/cczbsEFl.s 			page 167


 9462 26cb 04       		.byte	0x4
 9463 26cc D0260000 		.4byte	0x26d0
 9464 26d0 0D       		.uleb128 0xd
 9465 26d1 DB260000 		.4byte	0x26db
 9466 26d5 0E       		.uleb128 0xe
 9467 26d6 DB260000 		.4byte	0x26db
 9468 26da 00       		.byte	0
 9469 26db 0B       		.uleb128 0xb
 9470 26dc 04       		.byte	0x4
 9471 26dd 41260000 		.4byte	0x2641
 9472 26e1 1A       		.uleb128 0x1a
 9473 26e2 9A120000 		.4byte	.LASF489
 9474 26e6 27       		.byte	0x27
 9475 26e7 2501     		.2byte	0x125
 9476 26e9 12       		.byte	0x12
 9477 26ea BD000000 		.4byte	0xbd
 9478 26ee 1A       		.uleb128 0x1a
 9479 26ef 65140000 		.4byte	.LASF490
 9480 26f3 27       		.byte	0x27
 9481 26f4 2A01     		.2byte	0x12a
 9482 26f6 11       		.byte	0x11
 9483 26f7 92000000 		.4byte	0x92
 9484 26fb 1A       		.uleb128 0x1a
 9485 26fc 3C020000 		.4byte	.LASF491
 9486 2700 27       		.byte	0x27
 9487 2701 2F01     		.2byte	0x12f
 9488 2703 12       		.byte	0x12
 9489 2704 BD000000 		.4byte	0xbd
 9490 2708 1A       		.uleb128 0x1a
 9491 2709 960B0000 		.4byte	.LASF492
 9492 270d 27       		.byte	0x27
 9493 270e 3401     		.2byte	0x134
 9494 2710 12       		.byte	0x12
 9495 2711 BD000000 		.4byte	0xbd
 9496 2715 19       		.uleb128 0x19
 9497 2716 08       		.byte	0x8
 9498 2717 27       		.byte	0x27
 9499 2718 3901     		.2byte	0x139
 9500 271a 09       		.byte	0x9
 9501 271b 3C270000 		.4byte	0x273c
 9502 271f 0A       		.uleb128 0xa
 9503 2720 16070000 		.4byte	.LASF406
 9504 2724 27       		.byte	0x27
 9505 2725 3D01     		.2byte	0x13d
 9506 2727 1D       		.byte	0x1d
 9507 2728 E1260000 		.4byte	0x26e1
 9508 272c 00       		.byte	0
 9509 272d 0A       		.uleb128 0xa
 9510 272e 9B130000 		.4byte	.LASF432
 9511 2732 27       		.byte	0x27
 9512 2733 4301     		.2byte	0x143
 9513 2735 1D       		.byte	0x1d
 9514 2736 BE260000 		.4byte	0x26be
 9515 273a 04       		.byte	0x4
 9516 273b 00       		.byte	0
 9517 273c 1A       		.uleb128 0x1a
 9518 273d 850B0000 		.4byte	.LASF493
ARM GAS  /tmp/cczbsEFl.s 			page 168


 9519 2741 27       		.byte	0x27
 9520 2742 4501     		.2byte	0x145
 9521 2744 03       		.byte	0x3
 9522 2745 15270000 		.4byte	0x2715
 9523 2749 19       		.uleb128 0x19
 9524 274a 34       		.byte	0x34
 9525 274b 27       		.byte	0x27
 9526 274c 4A01     		.2byte	0x14a
 9527 274e 09       		.byte	0x9
 9528 274f A8270000 		.4byte	0x27a8
 9529 2753 0A       		.uleb128 0xa
 9530 2754 911F0000 		.4byte	.LASF431
 9531 2758 27       		.byte	0x27
 9532 2759 5001     		.2byte	0x150
 9533 275b 1D       		.byte	0x1d
 9534 275c BD000000 		.4byte	0xbd
 9535 2760 00       		.byte	0
 9536 2761 0A       		.uleb128 0xa
 9537 2762 A80F0000 		.4byte	.LASF486
 9538 2766 27       		.byte	0x27
 9539 2767 5601     		.2byte	0x156
 9540 2769 1D       		.byte	0x1d
 9541 276a 08270000 		.4byte	0x2708
 9542 276e 04       		.byte	0x4
 9543 276f 0A       		.uleb128 0xa
 9544 2770 9B130000 		.4byte	.LASF432
 9545 2774 27       		.byte	0x27
 9546 2775 5C01     		.2byte	0x15c
 9547 2777 1D       		.byte	0x1d
 9548 2778 BE260000 		.4byte	0x26be
 9549 277c 08       		.byte	0x8
 9550 277d 0A       		.uleb128 0xa
 9551 277e 191D0000 		.4byte	.LASF408
 9552 2782 27       		.byte	0x27
 9553 2783 6001     		.2byte	0x160
 9554 2785 1D       		.byte	0x1d
 9555 2786 A8270000 		.4byte	0x27a8
 9556 278a 0C       		.byte	0xc
 9557 278b 09       		.uleb128 0x9
 9558 278c 63723200 		.ascii	"cr2\000"
 9559 2790 27       		.byte	0x27
 9560 2791 6601     		.2byte	0x166
 9561 2793 1D       		.byte	0x1d
 9562 2794 BD000000 		.4byte	0xbd
 9563 2798 2C       		.byte	0x2c
 9564 2799 0A       		.uleb128 0xa
 9565 279a 4E0A0000 		.4byte	.LASF433
 9566 279e 27       		.byte	0x27
 9567 279f 7301     		.2byte	0x173
 9568 27a1 1D       		.byte	0x1d
 9569 27a2 BD000000 		.4byte	0xbd
 9570 27a6 30       		.byte	0x30
 9571 27a7 00       		.byte	0
 9572 27a8 13       		.uleb128 0x13
 9573 27a9 3C270000 		.4byte	0x273c
 9574 27ad B8270000 		.4byte	0x27b8
 9575 27b1 14       		.uleb128 0x14
ARM GAS  /tmp/cczbsEFl.s 			page 169


 9576 27b2 2C000000 		.4byte	0x2c
 9577 27b6 03       		.byte	0x3
 9578 27b7 00       		.byte	0
 9579 27b8 1A       		.uleb128 0x1a
 9580 27b9 D1090000 		.4byte	.LASF494
 9581 27bd 27       		.byte	0x27
 9582 27be 7401     		.2byte	0x174
 9583 27c0 03       		.byte	0x3
 9584 27c1 49270000 		.4byte	0x2749
 9585 27c5 06       		.uleb128 0x6
 9586 27c6 B8270000 		.4byte	0x27b8
 9587 27ca 0B       		.uleb128 0xb
 9588 27cb 04       		.byte	0x4
 9589 27cc C5270000 		.4byte	0x27c5
 9590 27d0 15       		.uleb128 0x15
 9591 27d1 9D0E0000 		.4byte	.LASF495
 9592 27d5 27       		.byte	0x27
 9593 27d6 BC01     		.2byte	0x1bc
 9594 27d8 12       		.byte	0x12
 9595 27d9 41260000 		.4byte	0x2641
 9596 27dd 15       		.uleb128 0x15
 9597 27de A30E0000 		.4byte	.LASF496
 9598 27e2 27       		.byte	0x27
 9599 27e3 C001     		.2byte	0x1c0
 9600 27e5 12       		.byte	0x12
 9601 27e6 41260000 		.4byte	0x2641
 9602 27ea 15       		.uleb128 0x15
 9603 27eb A90E0000 		.4byte	.LASF497
 9604 27ef 27       		.byte	0x27
 9605 27f0 C401     		.2byte	0x1c4
 9606 27f2 12       		.byte	0x12
 9607 27f3 41260000 		.4byte	0x2641
 9608 27f7 15       		.uleb128 0x15
 9609 27f8 AF0E0000 		.4byte	.LASF498
 9610 27fc 27       		.byte	0x27
 9611 27fd C801     		.2byte	0x1c8
 9612 27ff 12       		.byte	0x12
 9613 2800 41260000 		.4byte	0x2641
 9614 2804 21       		.uleb128 0x21
 9615 2805 07       		.byte	0x7
 9616 2806 01       		.byte	0x1
 9617 2807 A3000000 		.4byte	0xa3
 9618 280b 28       		.byte	0x28
 9619 280c 55       		.byte	0x55
 9620 280d 0E       		.byte	0xe
 9621 280e 25280000 		.4byte	0x2825
 9622 2812 22       		.uleb128 0x22
 9623 2813 62050000 		.4byte	.LASF499
 9624 2817 00       		.byte	0
 9625 2818 22       		.uleb128 0x22
 9626 2819 0F0B0000 		.4byte	.LASF500
 9627 281d 01       		.byte	0x1
 9628 281e 22       		.uleb128 0x22
 9629 281f CD0C0000 		.4byte	.LASF501
 9630 2823 02       		.byte	0x2
 9631 2824 00       		.byte	0
 9632 2825 04       		.uleb128 0x4
ARM GAS  /tmp/cczbsEFl.s 			page 170


 9633 2826 5A150000 		.4byte	.LASF502
 9634 282a 28       		.byte	0x28
 9635 282b 59       		.byte	0x59
 9636 282c 03       		.byte	0x3
 9637 282d 04280000 		.4byte	0x2804
 9638 2831 04       		.uleb128 0x4
 9639 2832 391D0000 		.4byte	.LASF503
 9640 2836 28       		.byte	0x28
 9641 2837 5E       		.byte	0x5e
 9642 2838 1D       		.byte	0x1d
 9643 2839 3D280000 		.4byte	0x283d
 9644 283d 07       		.uleb128 0x7
 9645 283e 391D0000 		.4byte	.LASF503
 9646 2842 78       		.byte	0x78
 9647 2843 28       		.byte	0x28
 9648 2844 78       		.byte	0x78
 9649 2845 08       		.byte	0x8
 9650 2846 B1280000 		.4byte	0x28b1
 9651 284a 18       		.uleb128 0x18
 9652 284b 766D7400 		.ascii	"vmt\000"
 9653 284f 28       		.byte	0x28
 9654 2850 7A       		.byte	0x7a
 9655 2851 21       		.byte	0x21
 9656 2852 39290000 		.4byte	0x2939
 9657 2856 00       		.byte	0
 9658 2857 08       		.uleb128 0x8
 9659 2858 32000000 		.4byte	.LASF504
 9660 285c 28       		.byte	0x28
 9661 285d 7B       		.byte	0x7b
 9662 285e 03       		.byte	0x3
 9663 285f 4C130000 		.4byte	0x134c
 9664 2863 04       		.byte	0x4
 9665 2864 08       		.uleb128 0x8
 9666 2865 39130000 		.4byte	.LASF327
 9667 2869 28       		.byte	0x28
 9668 286a 7B       		.byte	0x7b
 9669 286b 03       		.byte	0x3
 9670 286c 25280000 		.4byte	0x2825
 9671 2870 08       		.byte	0x8
 9672 2871 08       		.uleb128 0x8
 9673 2872 2D150000 		.4byte	.LASF505
 9674 2876 28       		.byte	0x28
 9675 2877 7B       		.byte	0x7b
 9676 2878 03       		.byte	0x3
 9677 2879 03140000 		.4byte	0x1403
 9678 287d 0C       		.byte	0xc
 9679 287e 08       		.uleb128 0x8
 9680 287f B50E0000 		.4byte	.LASF506
 9681 2883 28       		.byte	0x28
 9682 2884 7B       		.byte	0x7b
 9683 2885 03       		.byte	0x3
 9684 2886 0F140000 		.4byte	0x140f
 9685 288a 30       		.byte	0x30
 9686 288b 18       		.uleb128 0x18
 9687 288c 696200   		.ascii	"ib\000"
 9688 288f 28       		.byte	0x28
 9689 2890 7B       		.byte	0x7b
ARM GAS  /tmp/cczbsEFl.s 			page 171


 9690 2891 03       		.byte	0x3
 9691 2892 3F290000 		.4byte	0x293f
 9692 2896 54       		.byte	0x54
 9693 2897 18       		.uleb128 0x18
 9694 2898 6F6200   		.ascii	"ob\000"
 9695 289b 28       		.byte	0x28
 9696 289c 7B       		.byte	0x7b
 9697 289d 03       		.byte	0x3
 9698 289e 3F290000 		.4byte	0x293f
 9699 28a2 64       		.byte	0x64
 9700 28a3 08       		.uleb128 0x8
 9701 28a4 AB160000 		.4byte	.LASF507
 9702 28a8 28       		.byte	0x28
 9703 28a9 7B       		.byte	0x7b
 9704 28aa 03       		.byte	0x3
 9705 28ab 4F290000 		.4byte	0x294f
 9706 28af 74       		.byte	0x74
 9707 28b0 00       		.byte	0
 9708 28b1 1F       		.uleb128 0x1f
 9709 28b2 53443300 		.ascii	"SD3\000"
 9710 28b6 29       		.byte	0x29
 9711 28b7 1501     		.2byte	0x115
 9712 28b9 15       		.byte	0x15
 9713 28ba 31280000 		.4byte	0x2831
 9714 28be 07       		.uleb128 0x7
 9715 28bf 780C0000 		.4byte	.LASF508
 9716 28c3 20       		.byte	0x20
 9717 28c4 28       		.byte	0x28
 9718 28c5 6D       		.byte	0x6d
 9719 28c6 08       		.byte	0x8
 9720 28c7 34290000 		.4byte	0x2934
 9721 28cb 08       		.uleb128 0x8
 9722 28cc 27150000 		.4byte	.LASF509
 9723 28d0 28       		.byte	0x28
 9724 28d1 6E       		.byte	0x6e
 9725 28d2 03       		.byte	0x3
 9726 28d3 3A140000 		.4byte	0x143a
 9727 28d7 00       		.byte	0
 9728 28d8 08       		.uleb128 0x8
 9729 28d9 A4030000 		.4byte	.LASF510
 9730 28dd 28       		.byte	0x28
 9731 28de 6E       		.byte	0x6e
 9732 28df 03       		.byte	0x3
 9733 28e0 59140000 		.4byte	0x1459
 9734 28e4 04       		.byte	0x4
 9735 28e5 18       		.uleb128 0x18
 9736 28e6 70757400 		.ascii	"put\000"
 9737 28ea 28       		.byte	0x28
 9738 28eb 6E       		.byte	0x6e
 9739 28ec 03       		.byte	0x3
 9740 28ed 73140000 		.4byte	0x1473
 9741 28f1 08       		.byte	0x8
 9742 28f2 18       		.uleb128 0x18
 9743 28f3 67657400 		.ascii	"get\000"
 9744 28f7 28       		.byte	0x28
 9745 28f8 6E       		.byte	0x6e
 9746 28f9 03       		.byte	0x3
ARM GAS  /tmp/cczbsEFl.s 			page 172


 9747 28fa 88140000 		.4byte	0x1488
 9748 28fe 0C       		.byte	0xc
 9749 28ff 08       		.uleb128 0x8
 9750 2900 A7110000 		.4byte	.LASF511
 9751 2904 28       		.byte	0x28
 9752 2905 6E       		.byte	0x6e
 9753 2906 03       		.byte	0x3
 9754 2907 31150000 		.4byte	0x1531
 9755 290b 10       		.byte	0x10
 9756 290c 08       		.uleb128 0x8
 9757 290d 0C150000 		.4byte	.LASF512
 9758 2911 28       		.byte	0x28
 9759 2912 6E       		.byte	0x6e
 9760 2913 03       		.byte	0x3
 9761 2914 4B150000 		.4byte	0x154b
 9762 2918 14       		.byte	0x14
 9763 2919 08       		.uleb128 0x8
 9764 291a F41D0000 		.4byte	.LASF513
 9765 291e 28       		.byte	0x28
 9766 291f 6E       		.byte	0x6e
 9767 2920 03       		.byte	0x3
 9768 2921 6F150000 		.4byte	0x156f
 9769 2925 18       		.byte	0x18
 9770 2926 08       		.uleb128 0x8
 9771 2927 CC0F0000 		.4byte	.LASF514
 9772 292b 28       		.byte	0x28
 9773 292c 6E       		.byte	0x6e
 9774 292d 03       		.byte	0x3
 9775 292e 93150000 		.4byte	0x1593
 9776 2932 1C       		.byte	0x1c
 9777 2933 00       		.byte	0
 9778 2934 06       		.uleb128 0x6
 9779 2935 BE280000 		.4byte	0x28be
 9780 2939 0B       		.uleb128 0xb
 9781 293a 04       		.byte	0x4
 9782 293b 34290000 		.4byte	0x2934
 9783 293f 13       		.uleb128 0x13
 9784 2940 92000000 		.4byte	0x92
 9785 2944 4F290000 		.4byte	0x294f
 9786 2948 14       		.uleb128 0x14
 9787 2949 2C000000 		.4byte	0x2c
 9788 294d 0F       		.byte	0xf
 9789 294e 00       		.byte	0
 9790 294f 0B       		.uleb128 0xb
 9791 2950 04       		.byte	0x4
 9792 2951 670D0000 		.4byte	0xd67
 9793 2955 21       		.uleb128 0x21
 9794 2956 07       		.byte	0x7
 9795 2957 01       		.byte	0x1
 9796 2958 A3000000 		.4byte	0xa3
 9797 295c 2A       		.byte	0x2a
 9798 295d 6C       		.byte	0x6c
 9799 295e 0E       		.byte	0xe
 9800 295f 76290000 		.4byte	0x2976
 9801 2963 22       		.uleb128 0x22
 9802 2964 82020000 		.4byte	.LASF515
 9803 2968 00       		.byte	0
ARM GAS  /tmp/cczbsEFl.s 			page 173


 9804 2969 22       		.uleb128 0x22
 9805 296a B0120000 		.4byte	.LASF516
 9806 296e 01       		.byte	0x1
 9807 296f 22       		.uleb128 0x22
 9808 2970 6F0F0000 		.4byte	.LASF517
 9809 2974 02       		.byte	0x2
 9810 2975 00       		.byte	0
 9811 2976 04       		.uleb128 0x4
 9812 2977 55170000 		.4byte	.LASF518
 9813 297b 2A       		.byte	0x2a
 9814 297c 70       		.byte	0x70
 9815 297d 03       		.byte	0x3
 9816 297e 55290000 		.4byte	0x2955
 9817 2982 04       		.uleb128 0x4
 9818 2983 BC160000 		.4byte	.LASF519
 9819 2987 2B       		.byte	0x2b
 9820 2988 BF       		.byte	0xbf
 9821 2989 12       		.byte	0x12
 9822 298a BD000000 		.4byte	0xbd
 9823 298e 04       		.uleb128 0x4
 9824 298f B6140000 		.4byte	.LASF520
 9825 2993 2B       		.byte	0x2b
 9826 2994 C4       		.byte	0xc4
 9827 2995 12       		.byte	0x12
 9828 2996 BD000000 		.4byte	0xbd
 9829 299a 04       		.uleb128 0x4
 9830 299b 281D0000 		.4byte	.LASF521
 9831 299f 2B       		.byte	0x2b
 9832 29a0 C9       		.byte	0xc9
 9833 29a1 1A       		.byte	0x1a
 9834 29a2 A6290000 		.4byte	0x29a6
 9835 29a6 07       		.uleb128 0x7
 9836 29a7 281D0000 		.4byte	.LASF521
 9837 29ab 4C       		.byte	0x4c
 9838 29ac 2B       		.byte	0x2b
 9839 29ad F2       		.byte	0xf2
 9840 29ae 08       		.byte	0x8
 9841 29af 632A0000 		.4byte	0x2a63
 9842 29b3 18       		.uleb128 0x18
 9843 29b4 766D7400 		.ascii	"vmt\000"
 9844 29b8 2B       		.byte	0x2b
 9845 29b9 F6       		.byte	0xf6
 9846 29ba 1E       		.byte	0x1e
 9847 29bb 132B0000 		.4byte	0x2b13
 9848 29bf 00       		.byte	0
 9849 29c0 08       		.uleb128 0x8
 9850 29c1 39130000 		.4byte	.LASF327
 9851 29c5 2B       		.byte	0x2b
 9852 29c6 F7       		.byte	0xf7
 9853 29c7 03       		.byte	0x3
 9854 29c8 DE150000 		.4byte	0x15de
 9855 29cc 04       		.byte	0x4
 9856 29cd 18       		.uleb128 0x18
 9857 29ce 63696400 		.ascii	"cid\000"
 9858 29d2 2B       		.byte	0x2b
 9859 29d3 F7       		.byte	0xf7
 9860 29d4 03       		.byte	0x3
ARM GAS  /tmp/cczbsEFl.s 			page 174


 9861 29d5 9E160000 		.4byte	0x169e
 9862 29d9 08       		.byte	0x8
 9863 29da 18       		.uleb128 0x18
 9864 29db 63736400 		.ascii	"csd\000"
 9865 29df 2B       		.byte	0x2b
 9866 29e0 F7       		.byte	0xf7
 9867 29e1 03       		.byte	0x3
 9868 29e2 9E160000 		.4byte	0x169e
 9869 29e6 18       		.byte	0x18
 9870 29e7 08       		.uleb128 0x8
 9871 29e8 2E190000 		.4byte	.LASF522
 9872 29ec 2B       		.byte	0x2b
 9873 29ed F7       		.byte	0xf7
 9874 29ee 03       		.byte	0x3
 9875 29ef BD000000 		.4byte	0xbd
 9876 29f3 28       		.byte	0x28
 9877 29f4 08       		.uleb128 0x8
 9878 29f5 95180000 		.4byte	.LASF328
 9879 29f9 2B       		.byte	0x2b
 9880 29fa FB       		.byte	0xfb
 9881 29fb 1E       		.byte	0x1e
 9882 29fc 192B0000 		.4byte	0x2b19
 9883 2a00 2C       		.byte	0x2c
 9884 2a01 08       		.uleb128 0x8
 9885 2a02 58120000 		.4byte	.LASF523
 9886 2a06 2B       		.byte	0x2b
 9887 2a07 FF       		.byte	0xff
 9888 2a08 1D       		.byte	0x1d
 9889 2a09 82290000 		.4byte	0x2982
 9890 2a0d 30       		.byte	0x30
 9891 2a0e 0A       		.uleb128 0xa
 9892 2a0f 0B010000 		.4byte	.LASF459
 9893 2a13 2B       		.byte	0x2b
 9894 2a14 0301     		.2byte	0x103
 9895 2a16 1D       		.byte	0x1d
 9896 2a17 8E290000 		.4byte	0x298e
 9897 2a1b 34       		.byte	0x34
 9898 2a1c 09       		.uleb128 0x9
 9899 2a1d 72636100 		.ascii	"rca\000"
 9900 2a21 2B       		.byte	0x2b
 9901 2a22 0701     		.2byte	0x107
 9902 2a24 1D       		.byte	0x1d
 9903 2a25 BD000000 		.4byte	0xbd
 9904 2a29 38       		.byte	0x38
 9905 2a2a 0A       		.uleb128 0xa
 9906 2a2b C9050000 		.4byte	.LASF332
 9907 2a2f 2B       		.byte	0x2b
 9908 2a30 0C01     		.2byte	0x10c
 9909 2a32 1D       		.byte	0x1d
 9910 2a33 CF020000 		.4byte	0x2cf
 9911 2a37 3C       		.byte	0x3c
 9912 2a38 0A       		.uleb128 0xa
 9913 2a39 F3140000 		.4byte	.LASF335
 9914 2a3d 2B       		.byte	0x2b
 9915 2a3e 1001     		.2byte	0x110
 9916 2a40 1D       		.byte	0x1d
 9917 2a41 BD000000 		.4byte	0xbd
ARM GAS  /tmp/cczbsEFl.s 			page 175


 9918 2a45 40       		.byte	0x40
 9919 2a46 09       		.uleb128 0x9
 9920 2a47 646D6100 		.ascii	"dma\000"
 9921 2a4b 2B       		.byte	0x2b
 9922 2a4c 1401     		.2byte	0x114
 9923 2a4e 1E       		.byte	0x1e
 9924 2a4f 301B0000 		.4byte	0x1b30
 9925 2a53 44       		.byte	0x44
 9926 2a54 0A       		.uleb128 0xa
 9927 2a55 58130000 		.4byte	.LASF524
 9928 2a59 2B       		.byte	0x2b
 9929 2a5a 1901     		.2byte	0x119
 9930 2a5c 1E       		.byte	0x1e
 9931 2a5d 1F2B0000 		.4byte	0x2b1f
 9932 2a61 48       		.byte	0x48
 9933 2a62 00       		.byte	0
 9934 2a63 17       		.uleb128 0x17
 9935 2a64 08       		.byte	0x8
 9936 2a65 2B       		.byte	0x2b
 9937 2a66 CF       		.byte	0xcf
 9938 2a67 09       		.byte	0x9
 9939 2a68 872A0000 		.4byte	0x2a87
 9940 2a6c 08       		.uleb128 0x8
 9941 2a6d D50B0000 		.4byte	.LASF525
 9942 2a71 2B       		.byte	0x2b
 9943 2a72 D8       		.byte	0xd8
 9944 2a73 12       		.byte	0x12
 9945 2a74 FD130000 		.4byte	0x13fd
 9946 2a78 00       		.byte	0
 9947 2a79 08       		.uleb128 0x8
 9948 2a7a 8C1E0000 		.4byte	.LASF526
 9949 2a7e 2B       		.byte	0x2b
 9950 2a7f DC       		.byte	0xdc
 9951 2a80 11       		.byte	0x11
 9952 2a81 76290000 		.4byte	0x2976
 9953 2a85 04       		.byte	0x4
 9954 2a86 00       		.byte	0
 9955 2a87 04       		.uleb128 0x4
 9956 2a88 F9120000 		.4byte	.LASF527
 9957 2a8c 2B       		.byte	0x2b
 9958 2a8d DE       		.byte	0xde
 9959 2a8e 03       		.byte	0x3
 9960 2a8f 632A0000 		.4byte	0x2a63
 9961 2a93 06       		.uleb128 0x6
 9962 2a94 872A0000 		.4byte	0x2a87
 9963 2a98 07       		.uleb128 0x7
 9964 2a99 A21E0000 		.4byte	.LASF528
 9965 2a9d 20       		.byte	0x20
 9966 2a9e 2B       		.byte	0x2b
 9967 2a9f EB       		.byte	0xeb
 9968 2aa0 08       		.byte	0x8
 9969 2aa1 0E2B0000 		.4byte	0x2b0e
 9970 2aa5 08       		.uleb128 0x8
 9971 2aa6 29210000 		.4byte	.LASF529
 9972 2aaa 2B       		.byte	0x2b
 9973 2aab EC       		.byte	0xec
 9974 2aac 03       		.byte	0x3
ARM GAS  /tmp/cczbsEFl.s 			page 176


 9975 2aad 30160000 		.4byte	0x1630
 9976 2ab1 00       		.byte	0
 9977 2ab2 08       		.uleb128 0x8
 9978 2ab3 530A0000 		.4byte	.LASF530
 9979 2ab7 2B       		.byte	0x2b
 9980 2ab8 EC       		.byte	0xec
 9981 2ab9 03       		.byte	0x3
 9982 2aba 30160000 		.4byte	0x1630
 9983 2abe 04       		.byte	0x4
 9984 2abf 08       		.uleb128 0x8
 9985 2ac0 960C0000 		.4byte	.LASF531
 9986 2ac4 2B       		.byte	0x2b
 9987 2ac5 EC       		.byte	0xec
 9988 2ac6 03       		.byte	0x3
 9989 2ac7 30160000 		.4byte	0x1630
 9990 2acb 08       		.byte	0x8
 9991 2acc 08       		.uleb128 0x8
 9992 2acd 9C110000 		.4byte	.LASF532
 9993 2ad1 2B       		.byte	0x2b
 9994 2ad2 EC       		.byte	0xec
 9995 2ad3 03       		.byte	0x3
 9996 2ad4 30160000 		.4byte	0x1630
 9997 2ad8 0C       		.byte	0xc
 9998 2ad9 08       		.uleb128 0x8
 9999 2ada A4030000 		.4byte	.LASF510
 10000 2ade 2B       		.byte	0x2b
 10001 2adf EC       		.byte	0xec
 10002 2ae0 03       		.byte	0x3
 10003 2ae1 54160000 		.4byte	0x1654
 10004 2ae5 10       		.byte	0x10
 10005 2ae6 08       		.uleb128 0x8
 10006 2ae7 27150000 		.4byte	.LASF509
 10007 2aeb 2B       		.byte	0x2b
 10008 2aec EC       		.byte	0xec
 10009 2aed 03       		.byte	0x3
 10010 2aee 78160000 		.4byte	0x1678
 10011 2af2 14       		.byte	0x14
 10012 2af3 08       		.uleb128 0x8
 10013 2af4 A6160000 		.4byte	.LASF533
 10014 2af8 2B       		.byte	0x2b
 10015 2af9 EC       		.byte	0xec
 10016 2afa 03       		.byte	0x3
 10017 2afb 30160000 		.4byte	0x1630
 10018 2aff 18       		.byte	0x18
 10019 2b00 08       		.uleb128 0x8
 10020 2b01 421E0000 		.4byte	.LASF534
 10021 2b05 2B       		.byte	0x2b
 10022 2b06 EC       		.byte	0xec
 10023 2b07 03       		.byte	0x3
 10024 2b08 98160000 		.4byte	0x1698
 10025 2b0c 1C       		.byte	0x1c
 10026 2b0d 00       		.byte	0
 10027 2b0e 06       		.uleb128 0x6
 10028 2b0f 982A0000 		.4byte	0x2a98
 10029 2b13 0B       		.uleb128 0xb
 10030 2b14 04       		.byte	0x4
 10031 2b15 0E2B0000 		.4byte	0x2b0e
ARM GAS  /tmp/cczbsEFl.s 			page 177


 10032 2b19 0B       		.uleb128 0xb
 10033 2b1a 04       		.byte	0x4
 10034 2b1b 932A0000 		.4byte	0x2a93
 10035 2b1f 0B       		.uleb128 0xb
 10036 2b20 04       		.byte	0x4
 10037 2b21 5B0C0000 		.4byte	0xc5b
 10038 2b25 15       		.uleb128 0x15
 10039 2b26 65080000 		.4byte	.LASF535
 10040 2b2a 2B       		.byte	0x2b
 10041 2b2b 2501     		.2byte	0x125
 10042 2b2d 12       		.byte	0x12
 10043 2b2e 9A290000 		.4byte	0x299a
 10044 2b32 21       		.uleb128 0x21
 10045 2b33 07       		.byte	0x7
 10046 2b34 01       		.byte	0x1
 10047 2b35 A3000000 		.4byte	0xa3
 10048 2b39 2C       		.byte	0x2c
 10049 2b3a 46       		.byte	0x46
 10050 2b3b 0E       		.byte	0xe
 10051 2b3c 5F2B0000 		.4byte	0x2b5f
 10052 2b40 22       		.uleb128 0x22
 10053 2b41 DF050000 		.4byte	.LASF536
 10054 2b45 00       		.byte	0
 10055 2b46 22       		.uleb128 0x22
 10056 2b47 33020000 		.4byte	.LASF537
 10057 2b4b 01       		.byte	0x1
 10058 2b4c 22       		.uleb128 0x22
 10059 2b4d 751E0000 		.4byte	.LASF538
 10060 2b51 02       		.byte	0x2
 10061 2b52 22       		.uleb128 0x22
 10062 2b53 260C0000 		.4byte	.LASF539
 10063 2b57 03       		.byte	0x3
 10064 2b58 22       		.uleb128 0x22
 10065 2b59 F60F0000 		.4byte	.LASF540
 10066 2b5d 04       		.byte	0x4
 10067 2b5e 00       		.byte	0
 10068 2b5f 04       		.uleb128 0x4
 10069 2b60 F50B0000 		.4byte	.LASF541
 10070 2b64 2C       		.byte	0x2c
 10071 2b65 4C       		.byte	0x4c
 10072 2b66 03       		.byte	0x3
 10073 2b67 322B0000 		.4byte	0x2b32
 10074 2b6b 1A       		.uleb128 0x1a
 10075 2b6c D91C0000 		.4byte	.LASF542
 10076 2b70 2D       		.byte	0x2d
 10077 2b71 9601     		.2byte	0x196
 10078 2b73 1A       		.byte	0x1a
 10079 2b74 782B0000 		.4byte	0x2b78
 10080 2b78 0C       		.uleb128 0xc
 10081 2b79 D91C0000 		.4byte	.LASF542
 10082 2b7d 34       		.byte	0x34
 10083 2b7e 2D       		.byte	0x2d
 10084 2b7f BA01     		.2byte	0x1ba
 10085 2b81 08       		.byte	0x8
 10086 2b82 052C0000 		.4byte	0x2c05
 10087 2b86 0A       		.uleb128 0xa
 10088 2b87 39130000 		.4byte	.LASF327
ARM GAS  /tmp/cczbsEFl.s 			page 178


 10089 2b8b 2D       		.byte	0x2d
 10090 2b8c BE01     		.2byte	0x1be
 10091 2b8e 1D       		.byte	0x1d
 10092 2b8f 5F2B0000 		.4byte	0x2b5f
 10093 2b93 00       		.byte	0
 10094 2b94 0A       		.uleb128 0xa
 10095 2b95 95180000 		.4byte	.LASF328
 10096 2b99 2D       		.byte	0x2d
 10097 2b9a C201     		.2byte	0x1c2
 10098 2b9c 1E       		.byte	0x1e
 10099 2b9d 7E2C0000 		.4byte	0x2c7e
 10100 2ba1 04       		.byte	0x4
 10101 2ba2 0A       		.uleb128 0xa
 10102 2ba3 C9050000 		.4byte	.LASF332
 10103 2ba7 2D       		.byte	0x2d
 10104 2ba8 C701     		.2byte	0x1c7
 10105 2baa 1D       		.byte	0x1d
 10106 2bab CF020000 		.4byte	0x2cf
 10107 2baf 08       		.byte	0x8
 10108 2bb0 0A       		.uleb128 0xa
 10109 2bb1 A40A0000 		.4byte	.LASF333
 10110 2bb5 2D       		.byte	0x2d
 10111 2bb6 CD01     		.2byte	0x1cd
 10112 2bb8 1D       		.byte	0x1d
 10113 2bb9 BE120000 		.4byte	0x12be
 10114 2bbd 0C       		.byte	0xc
 10115 2bbe 09       		.uleb128 0x9
 10116 2bbf 73706900 		.ascii	"spi\000"
 10117 2bc3 2D       		.byte	0x2d
 10118 2bc4 D601     		.2byte	0x1d6
 10119 2bc6 1E       		.byte	0x1e
 10120 2bc7 01260000 		.4byte	0x2601
 10121 2bcb 20       		.byte	0x20
 10122 2bcc 0A       		.uleb128 0xa
 10123 2bcd C9000000 		.4byte	.LASF463
 10124 2bd1 2D       		.byte	0x2d
 10125 2bd2 DA01     		.2byte	0x1da
 10126 2bd4 1E       		.byte	0x1e
 10127 2bd5 301B0000 		.4byte	0x1b30
 10128 2bd9 24       		.byte	0x24
 10129 2bda 0A       		.uleb128 0xa
 10130 2bdb 78010000 		.4byte	.LASF464
 10131 2bdf 2D       		.byte	0x2d
 10132 2be0 DE01     		.2byte	0x1de
 10133 2be2 1E       		.byte	0x1e
 10134 2be3 301B0000 		.4byte	0x1b30
 10135 2be7 28       		.byte	0x28
 10136 2be8 0A       		.uleb128 0xa
 10137 2be9 0C070000 		.4byte	.LASF461
 10138 2bed 2D       		.byte	0x2d
 10139 2bee E201     		.2byte	0x1e2
 10140 2bf0 1D       		.byte	0x1d
 10141 2bf1 BD000000 		.4byte	0xbd
 10142 2bf5 2C       		.byte	0x2c
 10143 2bf6 0A       		.uleb128 0xa
 10144 2bf7 4C070000 		.4byte	.LASF462
 10145 2bfb 2D       		.byte	0x2d
ARM GAS  /tmp/cczbsEFl.s 			page 179


 10146 2bfc E601     		.2byte	0x1e6
 10147 2bfe 1D       		.byte	0x1d
 10148 2bff BD000000 		.4byte	0xbd
 10149 2c03 30       		.byte	0x30
 10150 2c04 00       		.byte	0
 10151 2c05 1A       		.uleb128 0x1a
 10152 2c06 CC120000 		.4byte	.LASF543
 10153 2c0a 2D       		.byte	0x2d
 10154 2c0b 9E01     		.2byte	0x19e
 10155 2c0d 10       		.byte	0x10
 10156 2c0e 122C0000 		.4byte	0x2c12
 10157 2c12 0B       		.uleb128 0xb
 10158 2c13 04       		.byte	0x4
 10159 2c14 182C0000 		.4byte	0x2c18
 10160 2c18 0D       		.uleb128 0xd
 10161 2c19 232C0000 		.4byte	0x2c23
 10162 2c1d 0E       		.uleb128 0xe
 10163 2c1e 232C0000 		.4byte	0x2c23
 10164 2c22 00       		.byte	0
 10165 2c23 0B       		.uleb128 0xb
 10166 2c24 04       		.byte	0x4
 10167 2c25 6B2B0000 		.4byte	0x2b6b
 10168 2c29 19       		.uleb128 0x19
 10169 2c2a 0C       		.byte	0xc
 10170 2c2b 2D       		.byte	0x2d
 10171 2c2c A301     		.2byte	0x1a3
 10172 2c2e 09       		.byte	0x9
 10173 2c2f 6C2C0000 		.4byte	0x2c6c
 10174 2c33 0A       		.uleb128 0xa
 10175 2c34 B5070000 		.4byte	.LASF340
 10176 2c38 2D       		.byte	0x2d
 10177 2c39 A701     		.2byte	0x1a7
 10178 2c3b 1D       		.byte	0x1d
 10179 2c3c 052C0000 		.4byte	0x2c05
 10180 2c40 00       		.byte	0
 10181 2c41 0A       		.uleb128 0xa
 10182 2c42 501F0000 		.4byte	.LASF544
 10183 2c46 2D       		.byte	0x2d
 10184 2c47 AC01     		.2byte	0x1ac
 10185 2c49 1D       		.byte	0x1d
 10186 2c4a 9B180000 		.4byte	0x189b
 10187 2c4e 04       		.byte	0x4
 10188 2c4f 0A       		.uleb128 0xa
 10189 2c50 46070000 		.4byte	.LASF545
 10190 2c54 2D       		.byte	0x2d
 10191 2c55 B001     		.2byte	0x1b0
 10192 2c57 1D       		.byte	0x1d
 10193 2c58 AA000000 		.4byte	0xaa
 10194 2c5c 08       		.byte	0x8
 10195 2c5d 09       		.uleb128 0x9
 10196 2c5e 63723100 		.ascii	"cr1\000"
 10197 2c62 2D       		.byte	0x2d
 10198 2c63 B401     		.2byte	0x1b4
 10199 2c65 1D       		.byte	0x1d
 10200 2c66 AA000000 		.4byte	0xaa
 10201 2c6a 0A       		.byte	0xa
 10202 2c6b 00       		.byte	0
ARM GAS  /tmp/cczbsEFl.s 			page 180


 10203 2c6c 1A       		.uleb128 0x1a
 10204 2c6d E91C0000 		.4byte	.LASF546
 10205 2c71 2D       		.byte	0x2d
 10206 2c72 B501     		.2byte	0x1b5
 10207 2c74 03       		.byte	0x3
 10208 2c75 292C0000 		.4byte	0x2c29
 10209 2c79 06       		.uleb128 0x6
 10210 2c7a 6C2C0000 		.4byte	0x2c6c
 10211 2c7e 0B       		.uleb128 0xb
 10212 2c7f 04       		.byte	0x4
 10213 2c80 792C0000 		.4byte	0x2c79
 10214 2c84 15       		.uleb128 0x15
 10215 2c85 06150000 		.4byte	.LASF547
 10216 2c89 2D       		.byte	0x2d
 10217 2c8a F201     		.2byte	0x1f2
 10218 2c8c 12       		.byte	0x12
 10219 2c8d 6B2B0000 		.4byte	0x2b6b
 10220 2c91 04       		.uleb128 0x4
 10221 2c92 790E0000 		.4byte	.LASF548
 10222 2c96 2E       		.byte	0x2e
 10223 2c97 FA       		.byte	0xfa
 10224 2c98 1A       		.byte	0x1a
 10225 2c99 9D2C0000 		.4byte	0x2c9d
 10226 2c9d 10       		.uleb128 0x10
 10227 2c9e 790E0000 		.4byte	.LASF548
 10228 2ca2 6002     		.2byte	0x260
 10229 2ca4 2F       		.byte	0x2f
 10230 2ca5 7701     		.2byte	0x177
 10231 2ca7 08       		.byte	0x8
 10232 2ca8 E02D0000 		.4byte	0x2de0
 10233 2cac 0A       		.uleb128 0xa
 10234 2cad 39130000 		.4byte	.LASF327
 10235 2cb1 2F       		.byte	0x2f
 10236 2cb2 7B01     		.2byte	0x17b
 10237 2cb4 21       		.byte	0x21
 10238 2cb5 1A2E0000 		.4byte	0x2e1a
 10239 2cb9 00       		.byte	0
 10240 2cba 0A       		.uleb128 0xa
 10241 2cbb 95180000 		.4byte	.LASF328
 10242 2cbf 2F       		.byte	0x2f
 10243 2cc0 7F01     		.2byte	0x17f
 10244 2cc2 22       		.byte	0x22
 10245 2cc3 D7370000 		.4byte	0x37d7
 10246 2cc7 04       		.byte	0x4
 10247 2cc8 0A       		.uleb128 0xa
 10248 2cc9 0C1D0000 		.4byte	.LASF549
 10249 2ccd 2F       		.byte	0x2f
 10250 2cce 8301     		.2byte	0x183
 10251 2cd0 21       		.byte	0x21
 10252 2cd1 AA000000 		.4byte	0xaa
 10253 2cd5 08       		.byte	0x8
 10254 2cd6 0A       		.uleb128 0xa
 10255 2cd7 871F0000 		.4byte	.LASF550
 10256 2cdb 2F       		.byte	0x2f
 10257 2cdc 8701     		.2byte	0x187
 10258 2cde 21       		.byte	0x21
 10259 2cdf AA000000 		.4byte	0xaa
ARM GAS  /tmp/cczbsEFl.s 			page 181


 10260 2ce3 0A       		.byte	0xa
 10261 2ce4 09       		.uleb128 0x9
 10262 2ce5 65706300 		.ascii	"epc\000"
 10263 2ce9 2F       		.byte	0x2f
 10264 2cea 8B01     		.2byte	0x18b
 10265 2cec 22       		.byte	0x22
 10266 2ced DD370000 		.4byte	0x37dd
 10267 2cf1 0C       		.byte	0xc
 10268 2cf2 0A       		.uleb128 0xa
 10269 2cf3 FB050000 		.4byte	.LASF551
 10270 2cf7 2F       		.byte	0x2f
 10271 2cf8 9201     		.2byte	0x192
 10272 2cfa 22       		.byte	0x22
 10273 2cfb F3370000 		.4byte	0x37f3
 10274 2cff 1C       		.byte	0x1c
 10275 2d00 0A       		.uleb128 0xa
 10276 2d01 330A0000 		.4byte	.LASF552
 10277 2d05 2F       		.byte	0x2f
 10278 2d06 9901     		.2byte	0x199
 10279 2d08 22       		.byte	0x22
 10280 2d09 F3370000 		.4byte	0x37f3
 10281 2d0d 28       		.byte	0x28
 10282 2d0e 0A       		.uleb128 0xa
 10283 2d0f FE0C0000 		.4byte	.LASF553
 10284 2d13 2F       		.byte	0x2f
 10285 2d14 9D01     		.2byte	0x19d
 10286 2d16 21       		.byte	0x21
 10287 2d17 612E0000 		.4byte	0x2e61
 10288 2d1b 34       		.byte	0x34
 10289 2d1c 0A       		.uleb128 0xa
 10290 2d1d 0C180000 		.4byte	.LASF554
 10291 2d21 2F       		.byte	0x2f
 10292 2d22 A101     		.2byte	0x1a1
 10293 2d24 22       		.byte	0x22
 10294 2d25 FD130000 		.4byte	0x13fd
 10295 2d29 38       		.byte	0x38
 10296 2d2a 0A       		.uleb128 0xa
 10297 2d2b 8B140000 		.4byte	.LASF555
 10298 2d2f 2F       		.byte	0x2f
 10299 2d30 A501     		.2byte	0x1a5
 10300 2d32 21       		.byte	0x21
 10301 2d33 3A000000 		.4byte	0x3a
 10302 2d37 3C       		.byte	0x3c
 10303 2d38 0A       		.uleb128 0xa
 10304 2d39 441A0000 		.4byte	.LASF556
 10305 2d3d 2F       		.byte	0x2f
 10306 2d3e A901     		.2byte	0x1a9
 10307 2d40 21       		.byte	0x21
 10308 2d41 E82E0000 		.4byte	0x2ee8
 10309 2d45 40       		.byte	0x40
 10310 2d46 0A       		.uleb128 0xa
 10311 2d47 D9050000 		.4byte	.LASF557
 10312 2d4b 2F       		.byte	0x2f
 10313 2d4c AD01     		.2byte	0x1ad
 10314 2d4e 21       		.byte	0x21
 10315 2d4f 961B0000 		.4byte	0x1b96
 10316 2d53 44       		.byte	0x44
ARM GAS  /tmp/cczbsEFl.s 			page 182


 10317 2d54 0A       		.uleb128 0xa
 10318 2d55 A4120000 		.4byte	.LASF558
 10319 2d59 2F       		.byte	0x2f
 10320 2d5a B101     		.2byte	0x1b1
 10321 2d5c 21       		.byte	0x21
 10322 2d5d AA000000 		.4byte	0xaa
 10323 2d61 4C       		.byte	0x4c
 10324 2d62 0A       		.uleb128 0xa
 10325 2d63 DA120000 		.4byte	.LASF559
 10326 2d67 2F       		.byte	0x2f
 10327 2d68 B501     		.2byte	0x1b5
 10328 2d6a 21       		.byte	0x21
 10329 2d6b 92000000 		.4byte	0x92
 10330 2d6f 4E       		.byte	0x4e
 10331 2d70 0A       		.uleb128 0xa
 10332 2d71 FA160000 		.4byte	.LASF560
 10333 2d75 2F       		.byte	0x2f
 10334 2d76 B901     		.2byte	0x1b9
 10335 2d78 21       		.byte	0x21
 10336 2d79 92000000 		.4byte	0x92
 10337 2d7d 4F       		.byte	0x4f
 10338 2d7e 09       		.uleb128 0x9
 10339 2d7f 6F746700 		.ascii	"otg\000"
 10340 2d83 2F       		.byte	0x2f
 10341 2d84 C101     		.2byte	0x1c1
 10342 2d86 22       		.byte	0x22
 10343 2d87 03380000 		.4byte	0x3803
 10344 2d8b 50       		.byte	0x50
 10345 2d8c 0A       		.uleb128 0xa
 10346 2d8d BC0B0000 		.4byte	.LASF561
 10347 2d91 2F       		.byte	0x2f
 10348 2d92 C501     		.2byte	0x1c5
 10349 2d94 22       		.byte	0x22
 10350 2d95 09380000 		.4byte	0x3809
 10351 2d99 54       		.byte	0x54
 10352 2d9a 0A       		.uleb128 0xa
 10353 2d9b AB1B0000 		.4byte	.LASF562
 10354 2d9f 2F       		.byte	0x2f
 10355 2da0 C901     		.2byte	0x1c9
 10356 2da2 21       		.byte	0x21
 10357 2da3 BD000000 		.4byte	0xbd
 10358 2da7 58       		.byte	0x58
 10359 2da8 0A       		.uleb128 0xa
 10360 2da9 D90A0000 		.4byte	.LASF563
 10361 2dad 2F       		.byte	0x2f
 10362 2dae CD01     		.2byte	0x1cd
 10363 2db0 21       		.byte	0x21
 10364 2db1 BD000000 		.4byte	0xbd
 10365 2db5 5C       		.byte	0x5c
 10366 2db6 0A       		.uleb128 0xa
 10367 2db7 A8060000 		.4byte	.LASF564
 10368 2dbb 2F       		.byte	0x2f
 10369 2dbc D101     		.2byte	0x1d1
 10370 2dbe 21       		.byte	0x21
 10371 2dbf CF020000 		.4byte	0x2cf
 10372 2dc3 60       		.byte	0x60
 10373 2dc4 09       		.uleb128 0x9
ARM GAS  /tmp/cczbsEFl.s 			page 183


 10374 2dc5 747200   		.ascii	"tr\000"
 10375 2dc8 2F       		.byte	0x2f
 10376 2dc9 D601     		.2byte	0x1d6
 10377 2dcb 21       		.byte	0x21
 10378 2dcc CF020000 		.4byte	0x2cf
 10379 2dd0 64       		.byte	0x64
 10380 2dd1 0A       		.uleb128 0xa
 10381 2dd2 C2110000 		.4byte	.LASF565
 10382 2dd6 2F       		.byte	0x2f
 10383 2dd7 DA01     		.2byte	0x1da
 10384 2dd9 03       		.byte	0x3
 10385 2dda 0F380000 		.4byte	0x380f
 10386 2dde 68       		.byte	0x68
 10387 2ddf 00       		.byte	0
 10388 2de0 04       		.uleb128 0x4
 10389 2de1 22080000 		.4byte	.LASF566
 10390 2de5 2E       		.byte	0x2e
 10391 2de6 FF       		.byte	0xff
 10392 2de7 11       		.byte	0x11
 10393 2de8 92000000 		.4byte	0x92
 10394 2dec 24       		.uleb128 0x24
 10395 2ded 07       		.byte	0x7
 10396 2dee 01       		.byte	0x1
 10397 2def A3000000 		.4byte	0xa3
 10398 2df3 2E       		.byte	0x2e
 10399 2df4 0401     		.2byte	0x104
 10400 2df6 0E       		.byte	0xe
 10401 2df7 1A2E0000 		.4byte	0x2e1a
 10402 2dfb 22       		.uleb128 0x22
 10403 2dfc 56200000 		.4byte	.LASF567
 10404 2e00 00       		.byte	0
 10405 2e01 22       		.uleb128 0x22
 10406 2e02 00000000 		.4byte	.LASF568
 10407 2e06 01       		.byte	0x1
 10408 2e07 22       		.uleb128 0x22
 10409 2e08 C20F0000 		.4byte	.LASF569
 10410 2e0c 02       		.byte	0x2
 10411 2e0d 22       		.uleb128 0x22
 10412 2e0e C1150000 		.4byte	.LASF570
 10413 2e12 03       		.byte	0x3
 10414 2e13 22       		.uleb128 0x22
 10415 2e14 DE060000 		.4byte	.LASF571
 10416 2e18 04       		.byte	0x4
 10417 2e19 00       		.byte	0
 10418 2e1a 1A       		.uleb128 0x1a
 10419 2e1b 5E210000 		.4byte	.LASF572
 10420 2e1f 2E       		.byte	0x2e
 10421 2e20 0A01     		.2byte	0x10a
 10422 2e22 03       		.byte	0x3
 10423 2e23 EC2D0000 		.4byte	0x2dec
 10424 2e27 24       		.uleb128 0x24
 10425 2e28 07       		.byte	0x7
 10426 2e29 01       		.byte	0x1
 10427 2e2a A3000000 		.4byte	0xa3
 10428 2e2e 2E       		.byte	0x2e
 10429 2e2f 1801     		.2byte	0x118
 10430 2e31 0E       		.byte	0xe
ARM GAS  /tmp/cczbsEFl.s 			page 184


 10431 2e32 612E0000 		.4byte	0x2e61
 10432 2e36 22       		.uleb128 0x22
 10433 2e37 171A0000 		.4byte	.LASF573
 10434 2e3b 00       		.byte	0
 10435 2e3c 22       		.uleb128 0x22
 10436 2e3d F30C0000 		.4byte	.LASF574
 10437 2e41 01       		.byte	0x1
 10438 2e42 22       		.uleb128 0x22
 10439 2e43 F8170000 		.4byte	.LASF575
 10440 2e47 02       		.byte	0x2
 10441 2e48 22       		.uleb128 0x22
 10442 2e49 65130000 		.4byte	.LASF576
 10443 2e4d 03       		.byte	0x3
 10444 2e4e 22       		.uleb128 0x22
 10445 2e4f 8F120000 		.4byte	.LASF577
 10446 2e53 04       		.byte	0x4
 10447 2e54 22       		.uleb128 0x22
 10448 2e55 EC0D0000 		.4byte	.LASF578
 10449 2e59 05       		.byte	0x5
 10450 2e5a 22       		.uleb128 0x22
 10451 2e5b 880C0000 		.4byte	.LASF579
 10452 2e5f 06       		.byte	0x6
 10453 2e60 00       		.byte	0
 10454 2e61 1A       		.uleb128 0x1a
 10455 2e62 120E0000 		.4byte	.LASF580
 10456 2e66 2E       		.byte	0x2e
 10457 2e67 2001     		.2byte	0x120
 10458 2e69 03       		.byte	0x3
 10459 2e6a 272E0000 		.4byte	0x2e27
 10460 2e6e 24       		.uleb128 0x24
 10461 2e6f 07       		.byte	0x7
 10462 2e70 01       		.byte	0x1
 10463 2e71 A3000000 		.4byte	0xa3
 10464 2e75 2E       		.byte	0x2e
 10465 2e76 2501     		.2byte	0x125
 10466 2e78 0E       		.byte	0xe
 10467 2e79 A22E0000 		.4byte	0x2ea2
 10468 2e7d 22       		.uleb128 0x22
 10469 2e7e A2190000 		.4byte	.LASF581
 10470 2e82 00       		.byte	0
 10471 2e83 22       		.uleb128 0x22
 10472 2e84 1A160000 		.4byte	.LASF582
 10473 2e88 01       		.byte	0x1
 10474 2e89 22       		.uleb128 0x22
 10475 2e8a 87110000 		.4byte	.LASF583
 10476 2e8e 02       		.byte	0x2
 10477 2e8f 22       		.uleb128 0x22
 10478 2e90 02120000 		.4byte	.LASF584
 10479 2e94 03       		.byte	0x3
 10480 2e95 22       		.uleb128 0x22
 10481 2e96 C61E0000 		.4byte	.LASF585
 10482 2e9a 04       		.byte	0x4
 10483 2e9b 22       		.uleb128 0x22
 10484 2e9c 5D110000 		.4byte	.LASF586
 10485 2ea0 05       		.byte	0x5
 10486 2ea1 00       		.byte	0
 10487 2ea2 1A       		.uleb128 0x1a
ARM GAS  /tmp/cczbsEFl.s 			page 185


 10488 2ea3 52160000 		.4byte	.LASF587
 10489 2ea7 2E       		.byte	0x2e
 10490 2ea8 2C01     		.2byte	0x12c
 10491 2eaa 03       		.byte	0x3
 10492 2eab 6E2E0000 		.4byte	0x2e6e
 10493 2eaf 19       		.uleb128 0x19
 10494 2eb0 08       		.byte	0x8
 10495 2eb1 2E       		.byte	0x2e
 10496 2eb2 3101     		.2byte	0x131
 10497 2eb4 09       		.byte	0x9
 10498 2eb5 D62E0000 		.4byte	0x2ed6
 10499 2eb9 0A       		.uleb128 0xa
 10500 2eba F8200000 		.4byte	.LASF588
 10501 2ebe 2E       		.byte	0x2e
 10502 2ebf 3501     		.2byte	0x135
 10503 2ec1 21       		.byte	0x21
 10504 2ec2 3A000000 		.4byte	0x3a
 10505 2ec6 00       		.byte	0
 10506 2ec7 0A       		.uleb128 0xa
 10507 2ec8 82030000 		.4byte	.LASF589
 10508 2ecc 2E       		.byte	0x2e
 10509 2ecd 3901     		.2byte	0x139
 10510 2ecf 22       		.byte	0x22
 10511 2ed0 34140000 		.4byte	0x1434
 10512 2ed4 04       		.byte	0x4
 10513 2ed5 00       		.byte	0
 10514 2ed6 1A       		.uleb128 0x1a
 10515 2ed7 BE120000 		.4byte	.LASF590
 10516 2edb 2E       		.byte	0x2e
 10517 2edc 3A01     		.2byte	0x13a
 10518 2ede 03       		.byte	0x3
 10519 2edf AF2E0000 		.4byte	0x2eaf
 10520 2ee3 06       		.uleb128 0x6
 10521 2ee4 D62E0000 		.4byte	0x2ed6
 10522 2ee8 1A       		.uleb128 0x1a
 10523 2ee9 9A200000 		.4byte	.LASF591
 10524 2eed 2E       		.byte	0x2e
 10525 2eee 4201     		.2byte	0x142
 10526 2ef0 10       		.byte	0x10
 10527 2ef1 F52E0000 		.4byte	0x2ef5
 10528 2ef5 0B       		.uleb128 0xb
 10529 2ef6 04       		.byte	0x4
 10530 2ef7 FB2E0000 		.4byte	0x2efb
 10531 2efb 0D       		.uleb128 0xd
 10532 2efc 062F0000 		.4byte	0x2f06
 10533 2f00 0E       		.uleb128 0xe
 10534 2f01 062F0000 		.4byte	0x2f06
 10535 2f05 00       		.byte	0
 10536 2f06 0B       		.uleb128 0xb
 10537 2f07 04       		.byte	0x4
 10538 2f08 912C0000 		.4byte	0x2c91
 10539 2f0c 1A       		.uleb128 0x1a
 10540 2f0d D7030000 		.4byte	.LASF592
 10541 2f11 2E       		.byte	0x2e
 10542 2f12 4B01     		.2byte	0x14b
 10543 2f14 10       		.byte	0x10
 10544 2f15 192F0000 		.4byte	0x2f19
ARM GAS  /tmp/cczbsEFl.s 			page 186


 10545 2f19 0B       		.uleb128 0xb
 10546 2f1a 04       		.byte	0x4
 10547 2f1b 1F2F0000 		.4byte	0x2f1f
 10548 2f1f 0D       		.uleb128 0xd
 10549 2f20 2F2F0000 		.4byte	0x2f2f
 10550 2f24 0E       		.uleb128 0xe
 10551 2f25 062F0000 		.4byte	0x2f06
 10552 2f29 0E       		.uleb128 0xe
 10553 2f2a E02D0000 		.4byte	0x2de0
 10554 2f2e 00       		.byte	0
 10555 2f2f 1A       		.uleb128 0x1a
 10556 2f30 2C090000 		.4byte	.LASF593
 10557 2f34 2E       		.byte	0x2e
 10558 2f35 5401     		.2byte	0x154
 10559 2f37 10       		.byte	0x10
 10560 2f38 3C2F0000 		.4byte	0x2f3c
 10561 2f3c 0B       		.uleb128 0xb
 10562 2f3d 04       		.byte	0x4
 10563 2f3e 422F0000 		.4byte	0x2f42
 10564 2f42 0D       		.uleb128 0xd
 10565 2f43 522F0000 		.4byte	0x2f52
 10566 2f47 0E       		.uleb128 0xe
 10567 2f48 062F0000 		.4byte	0x2f06
 10568 2f4c 0E       		.uleb128 0xe
 10569 2f4d A22E0000 		.4byte	0x2ea2
 10570 2f51 00       		.byte	0
 10571 2f52 1A       		.uleb128 0x1a
 10572 2f53 3B050000 		.4byte	.LASF594
 10573 2f57 2E       		.byte	0x2e
 10574 2f58 6001     		.2byte	0x160
 10575 2f5a 10       		.byte	0x10
 10576 2f5b 5F2F0000 		.4byte	0x2f5f
 10577 2f5f 0B       		.uleb128 0xb
 10578 2f60 04       		.byte	0x4
 10579 2f61 652F0000 		.4byte	0x2f65
 10580 2f65 20       		.uleb128 0x20
 10581 2f66 29160000 		.4byte	0x1629
 10582 2f6a 742F0000 		.4byte	0x2f74
 10583 2f6e 0E       		.uleb128 0xe
 10584 2f6f 062F0000 		.4byte	0x2f06
 10585 2f73 00       		.byte	0
 10586 2f74 1A       		.uleb128 0x1a
 10587 2f75 D60C0000 		.4byte	.LASF595
 10588 2f79 2E       		.byte	0x2e
 10589 2f7a 6501     		.2byte	0x165
 10590 2f7c 21       		.byte	0x21
 10591 2f7d 812F0000 		.4byte	0x2f81
 10592 2f81 0B       		.uleb128 0xb
 10593 2f82 04       		.byte	0x4
 10594 2f83 872F0000 		.4byte	0x2f87
 10595 2f87 20       		.uleb128 0x20
 10596 2f88 A52F0000 		.4byte	0x2fa5
 10597 2f8c A52F0000 		.4byte	0x2fa5
 10598 2f90 0E       		.uleb128 0xe
 10599 2f91 062F0000 		.4byte	0x2f06
 10600 2f95 0E       		.uleb128 0xe
 10601 2f96 92000000 		.4byte	0x92
ARM GAS  /tmp/cczbsEFl.s 			page 187


 10602 2f9a 0E       		.uleb128 0xe
 10603 2f9b 92000000 		.4byte	0x92
 10604 2f9f 0E       		.uleb128 0xe
 10605 2fa0 AA000000 		.4byte	0xaa
 10606 2fa4 00       		.byte	0
 10607 2fa5 0B       		.uleb128 0xb
 10608 2fa6 04       		.byte	0x4
 10609 2fa7 E32E0000 		.4byte	0x2ee3
 10610 2fab 17       		.uleb128 0x17
 10611 2fac 20       		.byte	0x20
 10612 2fad 30       		.byte	0x30
 10613 2fae 35       		.byte	0x35
 10614 2faf 09       		.byte	0x9
 10615 2fb0 1D300000 		.4byte	0x301d
 10616 2fb4 08       		.uleb128 0x8
 10617 2fb5 90020000 		.4byte	.LASF596
 10618 2fb9 30       		.byte	0x30
 10619 2fba 36       		.byte	0x36
 10620 2fbb 15       		.byte	0x15
 10621 2fbc C9000000 		.4byte	0xc9
 10622 2fc0 00       		.byte	0
 10623 2fc1 08       		.uleb128 0x8
 10624 2fc2 170B0000 		.4byte	.LASF597
 10625 2fc6 30       		.byte	0x30
 10626 2fc7 38       		.byte	0x38
 10627 2fc8 15       		.byte	0x15
 10628 2fc9 C9000000 		.4byte	0xc9
 10629 2fcd 04       		.byte	0x4
 10630 2fce 08       		.uleb128 0x8
 10631 2fcf 0D020000 		.4byte	.LASF598
 10632 2fd3 30       		.byte	0x30
 10633 2fd4 39       		.byte	0x39
 10634 2fd5 15       		.byte	0x15
 10635 2fd6 C9000000 		.4byte	0xc9
 10636 2fda 08       		.byte	0x8
 10637 2fdb 08       		.uleb128 0x8
 10638 2fdc 8C180000 		.4byte	.LASF599
 10639 2fe0 30       		.byte	0x30
 10640 2fe1 3A       		.byte	0x3a
 10641 2fe2 15       		.byte	0x15
 10642 2fe3 C9000000 		.4byte	0xc9
 10643 2fe7 0C       		.byte	0xc
 10644 2fe8 08       		.uleb128 0x8
 10645 2fe9 80110000 		.4byte	.LASF600
 10646 2fed 30       		.byte	0x30
 10647 2fee 3C       		.byte	0x3c
 10648 2fef 15       		.byte	0x15
 10649 2ff0 C9000000 		.4byte	0xc9
 10650 2ff4 10       		.byte	0x10
 10651 2ff5 08       		.uleb128 0x8
 10652 2ff6 5A0B0000 		.4byte	.LASF601
 10653 2ffa 30       		.byte	0x30
 10654 2ffb 3E       		.byte	0x3e
 10655 2ffc 15       		.byte	0x15
 10656 2ffd C9000000 		.4byte	0xc9
 10657 3001 14       		.byte	0x14
 10658 3002 08       		.uleb128 0x8
ARM GAS  /tmp/cczbsEFl.s 			page 188


 10659 3003 620B0000 		.4byte	.LASF602
 10660 3007 30       		.byte	0x30
 10661 3008 3F       		.byte	0x3f
 10662 3009 15       		.byte	0x15
 10663 300a C9000000 		.4byte	0xc9
 10664 300e 18       		.byte	0x18
 10665 300f 08       		.uleb128 0x8
 10666 3010 30030000 		.4byte	.LASF603
 10667 3014 30       		.byte	0x30
 10668 3015 40       		.byte	0x40
 10669 3016 15       		.byte	0x15
 10670 3017 C9000000 		.4byte	0xc9
 10671 301b 1C       		.byte	0x1c
 10672 301c 00       		.byte	0
 10673 301d 04       		.uleb128 0x4
 10674 301e 14180000 		.4byte	.LASF604
 10675 3022 30       		.byte	0x30
 10676 3023 41       		.byte	0x41
 10677 3024 03       		.byte	0x3
 10678 3025 AB2F0000 		.4byte	0x2fab
 10679 3029 17       		.uleb128 0x17
 10680 302a 20       		.byte	0x20
 10681 302b 30       		.byte	0x30
 10682 302c 46       		.byte	0x46
 10683 302d 09       		.byte	0x9
 10684 302e 9B300000 		.4byte	0x309b
 10685 3032 08       		.uleb128 0x8
 10686 3033 AA0B0000 		.4byte	.LASF605
 10687 3037 30       		.byte	0x30
 10688 3038 47       		.byte	0x47
 10689 3039 15       		.byte	0x15
 10690 303a C9000000 		.4byte	0xc9
 10691 303e 00       		.byte	0
 10692 303f 08       		.uleb128 0x8
 10693 3040 660E0000 		.4byte	.LASF606
 10694 3044 30       		.byte	0x30
 10695 3045 49       		.byte	0x49
 10696 3046 15       		.byte	0x15
 10697 3047 C9000000 		.4byte	0xc9
 10698 304b 04       		.byte	0x4
 10699 304c 08       		.uleb128 0x8
 10700 304d 3E1C0000 		.4byte	.LASF607
 10701 3051 30       		.byte	0x30
 10702 3052 4A       		.byte	0x4a
 10703 3053 15       		.byte	0x15
 10704 3054 C9000000 		.4byte	0xc9
 10705 3058 08       		.byte	0x8
 10706 3059 08       		.uleb128 0x8
 10707 305a 960E0000 		.4byte	.LASF608
 10708 305e 30       		.byte	0x30
 10709 305f 4C       		.byte	0x4c
 10710 3060 15       		.byte	0x15
 10711 3061 C9000000 		.4byte	0xc9
 10712 3065 0C       		.byte	0xc
 10713 3066 08       		.uleb128 0x8
 10714 3067 1F140000 		.4byte	.LASF609
 10715 306b 30       		.byte	0x30
ARM GAS  /tmp/cczbsEFl.s 			page 189


 10716 306c 4D       		.byte	0x4d
 10717 306d 15       		.byte	0x15
 10718 306e C9000000 		.4byte	0xc9
 10719 3072 10       		.byte	0x10
 10720 3073 08       		.uleb128 0x8
 10721 3074 5A0B0000 		.4byte	.LASF601
 10722 3078 30       		.byte	0x30
 10723 3079 4F       		.byte	0x4f
 10724 307a 15       		.byte	0x15
 10725 307b C9000000 		.4byte	0xc9
 10726 307f 14       		.byte	0x14
 10727 3080 08       		.uleb128 0x8
 10728 3081 EA050000 		.4byte	.LASF610
 10729 3085 30       		.byte	0x30
 10730 3086 50       		.byte	0x50
 10731 3087 15       		.byte	0x15
 10732 3088 C9000000 		.4byte	0xc9
 10733 308c 18       		.byte	0x18
 10734 308d 08       		.uleb128 0x8
 10735 308e 271C0000 		.4byte	.LASF611
 10736 3092 30       		.byte	0x30
 10737 3093 52       		.byte	0x52
 10738 3094 15       		.byte	0x15
 10739 3095 C9000000 		.4byte	0xc9
 10740 3099 1C       		.byte	0x1c
 10741 309a 00       		.byte	0
 10742 309b 04       		.uleb128 0x4
 10743 309c E9060000 		.4byte	.LASF612
 10744 30a0 30       		.byte	0x30
 10745 30a1 53       		.byte	0x53
 10746 30a2 03       		.byte	0x3
 10747 30a3 29300000 		.4byte	0x3029
 10748 30a7 17       		.uleb128 0x17
 10749 30a8 20       		.byte	0x20
 10750 30a9 30       		.byte	0x30
 10751 30aa 58       		.byte	0x58
 10752 30ab 09       		.byte	0x9
 10753 30ac 19310000 		.4byte	0x3119
 10754 30b0 08       		.uleb128 0x8
 10755 30b1 84180000 		.4byte	.LASF613
 10756 30b5 30       		.byte	0x30
 10757 30b6 59       		.byte	0x59
 10758 30b7 15       		.byte	0x15
 10759 30b8 C9000000 		.4byte	0xc9
 10760 30bc 00       		.byte	0
 10761 30bd 08       		.uleb128 0x8
 10762 30be 660E0000 		.4byte	.LASF606
 10763 30c2 30       		.byte	0x30
 10764 30c3 5B       		.byte	0x5b
 10765 30c4 15       		.byte	0x15
 10766 30c5 C9000000 		.4byte	0xc9
 10767 30c9 04       		.byte	0x4
 10768 30ca 08       		.uleb128 0x8
 10769 30cb 3A150000 		.4byte	.LASF614
 10770 30cf 30       		.byte	0x30
 10771 30d0 5C       		.byte	0x5c
 10772 30d1 15       		.byte	0x15
ARM GAS  /tmp/cczbsEFl.s 			page 190


 10773 30d2 C9000000 		.4byte	0xc9
 10774 30d6 08       		.byte	0x8
 10775 30d7 08       		.uleb128 0x8
 10776 30d8 960E0000 		.4byte	.LASF608
 10777 30dc 30       		.byte	0x30
 10778 30dd 5E       		.byte	0x5e
 10779 30de 15       		.byte	0x15
 10780 30df C9000000 		.4byte	0xc9
 10781 30e3 0C       		.byte	0xc
 10782 30e4 08       		.uleb128 0x8
 10783 30e5 5A1D0000 		.4byte	.LASF615
 10784 30e9 30       		.byte	0x30
 10785 30ea 5F       		.byte	0x5f
 10786 30eb 15       		.byte	0x15
 10787 30ec C9000000 		.4byte	0xc9
 10788 30f0 10       		.byte	0x10
 10789 30f1 08       		.uleb128 0x8
 10790 30f2 5A0B0000 		.4byte	.LASF601
 10791 30f6 30       		.byte	0x30
 10792 30f7 61       		.byte	0x61
 10793 30f8 15       		.byte	0x15
 10794 30f9 C9000000 		.4byte	0xc9
 10795 30fd 14       		.byte	0x14
 10796 30fe 08       		.uleb128 0x8
 10797 30ff 620B0000 		.4byte	.LASF602
 10798 3103 30       		.byte	0x30
 10799 3104 62       		.byte	0x62
 10800 3105 15       		.byte	0x15
 10801 3106 C9000000 		.4byte	0xc9
 10802 310a 18       		.byte	0x18
 10803 310b 08       		.uleb128 0x8
 10804 310c 271C0000 		.4byte	.LASF611
 10805 3110 30       		.byte	0x30
 10806 3111 63       		.byte	0x63
 10807 3112 15       		.byte	0x15
 10808 3113 C9000000 		.4byte	0xc9
 10809 3117 1C       		.byte	0x1c
 10810 3118 00       		.byte	0
 10811 3119 04       		.uleb128 0x4
 10812 311a 77060000 		.4byte	.LASF616
 10813 311e 30       		.byte	0x30
 10814 311f 64       		.byte	0x64
 10815 3120 03       		.byte	0x3
 10816 3121 A7300000 		.4byte	0x30a7
 10817 3125 26       		.uleb128 0x26
 10818 3126 00100100 		.4byte	0x11000
 10819 312a 30       		.byte	0x30
 10820 312b 69       		.byte	0x69
 10821 312c 09       		.byte	0x9
 10822 312d 3C340000 		.4byte	0x343c
 10823 3131 08       		.uleb128 0x8
 10824 3132 C6030000 		.4byte	.LASF617
 10825 3136 30       		.byte	0x30
 10826 3137 6A       		.byte	0x6a
 10827 3138 15       		.byte	0x15
 10828 3139 C9000000 		.4byte	0xc9
 10829 313d 00       		.byte	0
ARM GAS  /tmp/cczbsEFl.s 			page 191


 10830 313e 08       		.uleb128 0x8
 10831 313f 0F0A0000 		.4byte	.LASF618
 10832 3143 30       		.byte	0x30
 10833 3144 6B       		.byte	0x6b
 10834 3145 15       		.byte	0x15
 10835 3146 C9000000 		.4byte	0xc9
 10836 314a 04       		.byte	0x4
 10837 314b 08       		.uleb128 0x8
 10838 314c 20060000 		.4byte	.LASF619
 10839 3150 30       		.byte	0x30
 10840 3151 6C       		.byte	0x6c
 10841 3152 15       		.byte	0x15
 10842 3153 C9000000 		.4byte	0xc9
 10843 3157 08       		.byte	0x8
 10844 3158 08       		.uleb128 0x8
 10845 3159 A8200000 		.4byte	.LASF620
 10846 315d 30       		.byte	0x30
 10847 315e 6D       		.byte	0x6d
 10848 315f 15       		.byte	0x15
 10849 3160 C9000000 		.4byte	0xc9
 10850 3164 0C       		.byte	0xc
 10851 3165 08       		.uleb128 0x8
 10852 3166 D20F0000 		.4byte	.LASF621
 10853 316a 30       		.byte	0x30
 10854 316b 6E       		.byte	0x6e
 10855 316c 15       		.byte	0x15
 10856 316d C9000000 		.4byte	0xc9
 10857 3171 10       		.byte	0x10
 10858 3172 08       		.uleb128 0x8
 10859 3173 8B090000 		.4byte	.LASF622
 10860 3177 30       		.byte	0x30
 10861 3178 6F       		.byte	0x6f
 10862 3179 15       		.byte	0x15
 10863 317a C9000000 		.4byte	0xc9
 10864 317e 14       		.byte	0x14
 10865 317f 08       		.uleb128 0x8
 10866 3180 E9160000 		.4byte	.LASF623
 10867 3184 30       		.byte	0x30
 10868 3185 70       		.byte	0x70
 10869 3186 15       		.byte	0x15
 10870 3187 C9000000 		.4byte	0xc9
 10871 318b 18       		.byte	0x18
 10872 318c 08       		.uleb128 0x8
 10873 318d 92060000 		.4byte	.LASF624
 10874 3191 30       		.byte	0x30
 10875 3192 71       		.byte	0x71
 10876 3193 15       		.byte	0x15
 10877 3194 C9000000 		.4byte	0xc9
 10878 3198 1C       		.byte	0x1c
 10879 3199 08       		.uleb128 0x8
 10880 319a 8A060000 		.4byte	.LASF625
 10881 319e 30       		.byte	0x30
 10882 319f 73       		.byte	0x73
 10883 31a0 15       		.byte	0x15
 10884 31a1 C9000000 		.4byte	0xc9
 10885 31a5 20       		.byte	0x20
 10886 31a6 08       		.uleb128 0x8
ARM GAS  /tmp/cczbsEFl.s 			page 192


 10887 31a7 9E160000 		.4byte	.LASF626
 10888 31ab 30       		.byte	0x30
 10889 31ac 75       		.byte	0x75
 10890 31ad 15       		.byte	0x15
 10891 31ae C9000000 		.4byte	0xc9
 10892 31b2 24       		.byte	0x24
 10893 31b3 08       		.uleb128 0x8
 10894 31b4 6F000000 		.4byte	.LASF627
 10895 31b8 30       		.byte	0x30
 10896 31b9 76       		.byte	0x76
 10897 31ba 15       		.byte	0x15
 10898 31bb C9000000 		.4byte	0xc9
 10899 31bf 28       		.byte	0x28
 10900 31c0 08       		.uleb128 0x8
 10901 31c1 F1160000 		.4byte	.LASF628
 10902 31c5 30       		.byte	0x30
 10903 31c6 78       		.byte	0x78
 10904 31c7 15       		.byte	0x15
 10905 31c8 C9000000 		.4byte	0xc9
 10906 31cc 2C       		.byte	0x2c
 10907 31cd 08       		.uleb128 0x8
 10908 31ce 540C0000 		.4byte	.LASF629
 10909 31d2 30       		.byte	0x30
 10910 31d3 7A       		.byte	0x7a
 10911 31d4 15       		.byte	0x15
 10912 31d5 C9000000 		.4byte	0xc9
 10913 31d9 30       		.byte	0x30
 10914 31da 08       		.uleb128 0x8
 10915 31db 5C0C0000 		.4byte	.LASF630
 10916 31df 30       		.byte	0x30
 10917 31e0 7B       		.byte	0x7b
 10918 31e1 15       		.byte	0x15
 10919 31e2 C9000000 		.4byte	0xc9
 10920 31e6 34       		.byte	0x34
 10921 31e7 08       		.uleb128 0x8
 10922 31e8 52010000 		.4byte	.LASF631
 10923 31ec 30       		.byte	0x30
 10924 31ed 7C       		.byte	0x7c
 10925 31ee 15       		.byte	0x15
 10926 31ef C9000000 		.4byte	0xc9
 10927 31f3 38       		.byte	0x38
 10928 31f4 18       		.uleb128 0x18
 10929 31f5 43494400 		.ascii	"CID\000"
 10930 31f9 30       		.byte	0x30
 10931 31fa 7D       		.byte	0x7d
 10932 31fb 15       		.byte	0x15
 10933 31fc C9000000 		.4byte	0xc9
 10934 3200 3C       		.byte	0x3c
 10935 3201 08       		.uleb128 0x8
 10936 3202 760D0000 		.4byte	.LASF632
 10937 3206 30       		.byte	0x30
 10938 3207 7E       		.byte	0x7e
 10939 3208 15       		.byte	0x15
 10940 3209 4C340000 		.4byte	0x344c
 10941 320d 40       		.byte	0x40
 10942 320e 27       		.uleb128 0x27
 10943 320f 091E0000 		.4byte	.LASF633
ARM GAS  /tmp/cczbsEFl.s 			page 193


 10944 3213 30       		.byte	0x30
 10945 3214 7F       		.byte	0x7f
 10946 3215 15       		.byte	0x15
 10947 3216 C9000000 		.4byte	0xc9
 10948 321a 0001     		.2byte	0x100
 10949 321c 27       		.uleb128 0x27
 10950 321d 98010000 		.4byte	.LASF634
 10951 3221 30       		.byte	0x30
 10952 3222 81       		.byte	0x81
 10953 3223 15       		.byte	0x15
 10954 3224 840D0000 		.4byte	0xd84
 10955 3228 0401     		.2byte	0x104
 10956 322a 27       		.uleb128 0x27
 10957 322b E1110000 		.4byte	.LASF635
 10958 322f 30       		.byte	0x30
 10959 3230 83       		.byte	0x83
 10960 3231 15       		.byte	0x15
 10961 3232 61340000 		.4byte	0x3461
 10962 3236 4001     		.2byte	0x140
 10963 3238 27       		.uleb128 0x27
 10964 3239 EE140000 		.4byte	.LASF636
 10965 323d 30       		.byte	0x30
 10966 323e 84       		.byte	0x84
 10967 323f 15       		.byte	0x15
 10968 3240 C9000000 		.4byte	0xc9
 10969 3244 0004     		.2byte	0x400
 10970 3246 27       		.uleb128 0x27
 10971 3247 3F200000 		.4byte	.LASF637
 10972 324b 30       		.byte	0x30
 10973 324c 85       		.byte	0x85
 10974 324d 15       		.byte	0x15
 10975 324e C9000000 		.4byte	0xc9
 10976 3252 0404     		.2byte	0x404
 10977 3254 27       		.uleb128 0x27
 10978 3255 4E030000 		.4byte	.LASF638
 10979 3259 30       		.byte	0x30
 10980 325a 86       		.byte	0x86
 10981 325b 15       		.byte	0x15
 10982 325c C9000000 		.4byte	0xc9
 10983 3260 0804     		.2byte	0x408
 10984 3262 27       		.uleb128 0x27
 10985 3263 911D0000 		.4byte	.LASF639
 10986 3267 30       		.byte	0x30
 10987 3268 88       		.byte	0x88
 10988 3269 15       		.byte	0x15
 10989 326a C9000000 		.4byte	0xc9
 10990 326e 0C04     		.2byte	0x40c
 10991 3270 27       		.uleb128 0x27
 10992 3271 57020000 		.4byte	.LASF640
 10993 3275 30       		.byte	0x30
 10994 3276 89       		.byte	0x89
 10995 3277 15       		.byte	0x15
 10996 3278 C9000000 		.4byte	0xc9
 10997 327c 1004     		.2byte	0x410
 10998 327e 27       		.uleb128 0x27
 10999 327f 43030000 		.4byte	.LASF641
 11000 3283 30       		.byte	0x30
ARM GAS  /tmp/cczbsEFl.s 			page 194


 11001 3284 8B       		.byte	0x8b
 11002 3285 15       		.byte	0x15
 11003 3286 C9000000 		.4byte	0xc9
 11004 328a 1404     		.2byte	0x414
 11005 328c 27       		.uleb128 0x27
 11006 328d 2A0A0000 		.4byte	.LASF642
 11007 3291 30       		.byte	0x30
 11008 3292 8D       		.byte	0x8d
 11009 3293 15       		.byte	0x15
 11010 3294 C9000000 		.4byte	0xc9
 11011 3298 1804     		.2byte	0x418
 11012 329a 27       		.uleb128 0x27
 11013 329b 6B190000 		.4byte	.LASF643
 11014 329f 30       		.byte	0x30
 11015 32a0 8F       		.byte	0x8f
 11016 32a1 15       		.byte	0x15
 11017 32a2 76340000 		.4byte	0x3476
 11018 32a6 1C04     		.2byte	0x41c
 11019 32a8 27       		.uleb128 0x27
 11020 32a9 F9010000 		.4byte	.LASF644
 11021 32ad 30       		.byte	0x30
 11022 32ae 90       		.byte	0x90
 11023 32af 15       		.byte	0x15
 11024 32b0 C9000000 		.4byte	0xc9
 11025 32b4 4004     		.2byte	0x440
 11026 32b6 27       		.uleb128 0x27
 11027 32b7 281B0000 		.4byte	.LASF645
 11028 32bb 30       		.byte	0x30
 11029 32bc 92       		.byte	0x92
 11030 32bd 15       		.byte	0x15
 11031 32be 8B340000 		.4byte	0x348b
 11032 32c2 4404     		.2byte	0x444
 11033 32c4 28       		.uleb128 0x28
 11034 32c5 686300   		.ascii	"hc\000"
 11035 32c8 30       		.byte	0x30
 11036 32c9 93       		.byte	0x93
 11037 32ca 18       		.byte	0x18
 11038 32cb 90340000 		.4byte	0x3490
 11039 32cf 0005     		.2byte	0x500
 11040 32d1 27       		.uleb128 0x27
 11041 32d2 D01D0000 		.4byte	.LASF646
 11042 32d6 30       		.byte	0x30
 11043 32d7 94       		.byte	0x94
 11044 32d8 15       		.byte	0x15
 11045 32d9 B0340000 		.4byte	0x34b0
 11046 32dd 0007     		.2byte	0x700
 11047 32df 27       		.uleb128 0x27
 11048 32e0 CD160000 		.4byte	.LASF647
 11049 32e4 30       		.byte	0x30
 11050 32e5 95       		.byte	0x95
 11051 32e6 15       		.byte	0x15
 11052 32e7 C9000000 		.4byte	0xc9
 11053 32eb 0008     		.2byte	0x800
 11054 32ed 27       		.uleb128 0x27
 11055 32ee 9D1E0000 		.4byte	.LASF648
 11056 32f2 30       		.byte	0x30
 11057 32f3 96       		.byte	0x96
ARM GAS  /tmp/cczbsEFl.s 			page 195


 11058 32f4 15       		.byte	0x15
 11059 32f5 C9000000 		.4byte	0xc9
 11060 32f9 0408     		.2byte	0x804
 11061 32fb 27       		.uleb128 0x27
 11062 32fc 95040000 		.4byte	.LASF649
 11063 3300 30       		.byte	0x30
 11064 3301 97       		.byte	0x97
 11065 3302 15       		.byte	0x15
 11066 3303 C9000000 		.4byte	0xc9
 11067 3307 0808     		.2byte	0x808
 11068 3309 27       		.uleb128 0x27
 11069 330a B4030000 		.4byte	.LASF650
 11070 330e 30       		.byte	0x30
 11071 330f 98       		.byte	0x98
 11072 3310 15       		.byte	0x15
 11073 3311 C9000000 		.4byte	0xc9
 11074 3315 0C08     		.2byte	0x80c
 11075 3317 27       		.uleb128 0x27
 11076 3318 070A0000 		.4byte	.LASF651
 11077 331c 30       		.byte	0x30
 11078 331d 99       		.byte	0x99
 11079 331e 15       		.byte	0x15
 11080 331f C9000000 		.4byte	0xc9
 11081 3323 1008     		.2byte	0x810
 11082 3325 27       		.uleb128 0x27
 11083 3326 5F1C0000 		.4byte	.LASF652
 11084 332a 30       		.byte	0x30
 11085 332b 9B       		.byte	0x9b
 11086 332c 15       		.byte	0x15
 11087 332d C9000000 		.4byte	0xc9
 11088 3331 1408     		.2byte	0x814
 11089 3333 27       		.uleb128 0x27
 11090 3334 E31C0000 		.4byte	.LASF653
 11091 3338 30       		.byte	0x30
 11092 3339 9D       		.byte	0x9d
 11093 333a 15       		.byte	0x15
 11094 333b C9000000 		.4byte	0xc9
 11095 333f 1808     		.2byte	0x818
 11096 3341 27       		.uleb128 0x27
 11097 3342 EC190000 		.4byte	.LASF654
 11098 3346 30       		.byte	0x30
 11099 3347 9F       		.byte	0x9f
 11100 3348 15       		.byte	0x15
 11101 3349 C9000000 		.4byte	0xc9
 11102 334d 1C08     		.2byte	0x81c
 11103 334f 27       		.uleb128 0x27
 11104 3350 F3040000 		.4byte	.LASF655
 11105 3354 30       		.byte	0x30
 11106 3355 A1       		.byte	0xa1
 11107 3356 15       		.byte	0x15
 11108 3357 C9000000 		.4byte	0xc9
 11109 335b 2008     		.2byte	0x820
 11110 335d 27       		.uleb128 0x27
 11111 335e 12040000 		.4byte	.LASF656
 11112 3362 30       		.byte	0x30
 11113 3363 A2       		.byte	0xa2
 11114 3364 15       		.byte	0x15
ARM GAS  /tmp/cczbsEFl.s 			page 196


 11115 3365 C9000000 		.4byte	0xc9
 11116 3369 2408     		.2byte	0x824
 11117 336b 27       		.uleb128 0x27
 11118 336c D2160000 		.4byte	.LASF657
 11119 3370 30       		.byte	0x30
 11120 3371 A3       		.byte	0xa3
 11121 3372 15       		.byte	0x15
 11122 3373 C9000000 		.4byte	0xc9
 11123 3377 2808     		.2byte	0x828
 11124 3379 27       		.uleb128 0x27
 11125 337a 640C0000 		.4byte	.LASF658
 11126 337e 30       		.byte	0x30
 11127 337f A5       		.byte	0xa5
 11128 3380 15       		.byte	0x15
 11129 3381 C9000000 		.4byte	0xc9
 11130 3385 2C08     		.2byte	0x82c
 11131 3387 27       		.uleb128 0x27
 11132 3388 80050000 		.4byte	.LASF659
 11133 338c 30       		.byte	0x30
 11134 338d A7       		.byte	0xa7
 11135 338e 15       		.byte	0x15
 11136 338f C9000000 		.4byte	0xc9
 11137 3393 3008     		.2byte	0x830
 11138 3395 27       		.uleb128 0x27
 11139 3396 9F0B0000 		.4byte	.LASF660
 11140 339a 30       		.byte	0x30
 11141 339b A8       		.byte	0xa8
 11142 339c 15       		.byte	0x15
 11143 339d C9000000 		.4byte	0xc9
 11144 33a1 3408     		.2byte	0x834
 11145 33a3 27       		.uleb128 0x27
 11146 33a4 93050000 		.4byte	.LASF661
 11147 33a8 30       		.byte	0x30
 11148 33a9 AA       		.byte	0xaa
 11149 33aa 15       		.byte	0x15
 11150 33ab C9000000 		.4byte	0xc9
 11151 33af 3808     		.2byte	0x838
 11152 33b1 27       		.uleb128 0x27
 11153 33b2 B6050000 		.4byte	.LASF662
 11154 33b6 30       		.byte	0x30
 11155 33b7 AB       		.byte	0xab
 11156 33b8 15       		.byte	0x15
 11157 33b9 C9000000 		.4byte	0xc9
 11158 33bd 3C08     		.2byte	0x83c
 11159 33bf 27       		.uleb128 0x27
 11160 33c0 40060000 		.4byte	.LASF663
 11161 33c4 30       		.byte	0x30
 11162 33c5 AC       		.byte	0xac
 11163 33c6 15       		.byte	0x15
 11164 33c7 C5340000 		.4byte	0x34c5
 11165 33cb 4008     		.2byte	0x840
 11166 33cd 27       		.uleb128 0x27
 11167 33ce 320B0000 		.4byte	.LASF664
 11168 33d2 30       		.byte	0x30
 11169 33d3 AD       		.byte	0xad
 11170 33d4 15       		.byte	0x15
 11171 33d5 C5340000 		.4byte	0x34c5
ARM GAS  /tmp/cczbsEFl.s 			page 197


 11172 33d9 8008     		.2byte	0x880
 11173 33db 27       		.uleb128 0x27
 11174 33dc 830E0000 		.4byte	.LASF665
 11175 33e0 30       		.byte	0x30
 11176 33e1 AE       		.byte	0xae
 11177 33e2 15       		.byte	0x15
 11178 33e3 C5340000 		.4byte	0x34c5
 11179 33e7 C008     		.2byte	0x8c0
 11180 33e9 28       		.uleb128 0x28
 11181 33ea 696500   		.ascii	"ie\000"
 11182 33ed 30       		.byte	0x30
 11183 33ee AF       		.byte	0xaf
 11184 33ef 15       		.byte	0x15
 11185 33f0 CA340000 		.4byte	0x34ca
 11186 33f4 0009     		.2byte	0x900
 11187 33f6 28       		.uleb128 0x28
 11188 33f7 6F6500   		.ascii	"oe\000"
 11189 33fa 30       		.byte	0x30
 11190 33fb B0       		.byte	0xb0
 11191 33fc 16       		.byte	0x16
 11192 33fd DA340000 		.4byte	0x34da
 11193 3401 000B     		.2byte	0xb00
 11194 3403 27       		.uleb128 0x27
 11195 3404 75090000 		.4byte	.LASF666
 11196 3408 30       		.byte	0x30
 11197 3409 B1       		.byte	0xb1
 11198 340a 15       		.byte	0x15
 11199 340b B0340000 		.4byte	0x34b0
 11200 340f 000D     		.2byte	0xd00
 11201 3411 27       		.uleb128 0x27
 11202 3412 BE1E0000 		.4byte	.LASF667
 11203 3416 30       		.byte	0x30
 11204 3417 B2       		.byte	0xb2
 11205 3418 15       		.byte	0x15
 11206 3419 C9000000 		.4byte	0xc9
 11207 341d 000E     		.2byte	0xe00
 11208 341f 27       		.uleb128 0x27
 11209 3420 90140000 		.4byte	.LASF668
 11210 3424 30       		.byte	0x30
 11211 3425 B4       		.byte	0xb4
 11212 3426 15       		.byte	0x15
 11213 3427 FA340000 		.4byte	0x34fa
 11214 342b 040E     		.2byte	0xe04
 11215 342d 27       		.uleb128 0x27
 11216 342e DC070000 		.4byte	.LASF169
 11217 3432 30       		.byte	0x30
 11218 3433 B5       		.byte	0xb5
 11219 3434 15       		.byte	0x15
 11220 3435 16350000 		.4byte	0x3516
 11221 3439 0010     		.2byte	0x1000
 11222 343b 00       		.byte	0
 11223 343c 13       		.uleb128 0x13
 11224 343d C9000000 		.4byte	0xc9
 11225 3441 4C340000 		.4byte	0x344c
 11226 3445 14       		.uleb128 0x14
 11227 3446 2C000000 		.4byte	0x2c
 11228 344a 2F       		.byte	0x2f
ARM GAS  /tmp/cczbsEFl.s 			page 198


 11229 344b 00       		.byte	0
 11230 344c 05       		.uleb128 0x5
 11231 344d 3C340000 		.4byte	0x343c
 11232 3451 13       		.uleb128 0x13
 11233 3452 C9000000 		.4byte	0xc9
 11234 3456 61340000 		.4byte	0x3461
 11235 345a 14       		.uleb128 0x14
 11236 345b 2C000000 		.4byte	0x2c
 11237 345f AF       		.byte	0xaf
 11238 3460 00       		.byte	0
 11239 3461 05       		.uleb128 0x5
 11240 3462 51340000 		.4byte	0x3451
 11241 3466 13       		.uleb128 0x13
 11242 3467 C9000000 		.4byte	0xc9
 11243 346b 76340000 		.4byte	0x3476
 11244 346f 14       		.uleb128 0x14
 11245 3470 2C000000 		.4byte	0x2c
 11246 3474 08       		.byte	0x8
 11247 3475 00       		.byte	0
 11248 3476 05       		.uleb128 0x5
 11249 3477 66340000 		.4byte	0x3466
 11250 347b 13       		.uleb128 0x13
 11251 347c C9000000 		.4byte	0xc9
 11252 3480 8B340000 		.4byte	0x348b
 11253 3484 14       		.uleb128 0x14
 11254 3485 2C000000 		.4byte	0x2c
 11255 3489 2E       		.byte	0x2e
 11256 348a 00       		.byte	0
 11257 348b 05       		.uleb128 0x5
 11258 348c 7B340000 		.4byte	0x347b
 11259 3490 13       		.uleb128 0x13
 11260 3491 1D300000 		.4byte	0x301d
 11261 3495 A0340000 		.4byte	0x34a0
 11262 3499 14       		.uleb128 0x14
 11263 349a 2C000000 		.4byte	0x2c
 11264 349e 0F       		.byte	0xf
 11265 349f 00       		.byte	0
 11266 34a0 13       		.uleb128 0x13
 11267 34a1 C9000000 		.4byte	0xc9
 11268 34a5 B0340000 		.4byte	0x34b0
 11269 34a9 14       		.uleb128 0x14
 11270 34aa 2C000000 		.4byte	0x2c
 11271 34ae 3F       		.byte	0x3f
 11272 34af 00       		.byte	0
 11273 34b0 05       		.uleb128 0x5
 11274 34b1 A0340000 		.4byte	0x34a0
 11275 34b5 13       		.uleb128 0x13
 11276 34b6 C9000000 		.4byte	0xc9
 11277 34ba C5340000 		.4byte	0x34c5
 11278 34be 14       		.uleb128 0x14
 11279 34bf 2C000000 		.4byte	0x2c
 11280 34c3 0F       		.byte	0xf
 11281 34c4 00       		.byte	0
 11282 34c5 05       		.uleb128 0x5
 11283 34c6 B5340000 		.4byte	0x34b5
 11284 34ca 13       		.uleb128 0x13
 11285 34cb 9B300000 		.4byte	0x309b
ARM GAS  /tmp/cczbsEFl.s 			page 199


 11286 34cf DA340000 		.4byte	0x34da
 11287 34d3 14       		.uleb128 0x14
 11288 34d4 2C000000 		.4byte	0x2c
 11289 34d8 0F       		.byte	0xf
 11290 34d9 00       		.byte	0
 11291 34da 13       		.uleb128 0x13
 11292 34db 19310000 		.4byte	0x3119
 11293 34df EA340000 		.4byte	0x34ea
 11294 34e3 14       		.uleb128 0x14
 11295 34e4 2C000000 		.4byte	0x2c
 11296 34e8 0F       		.byte	0xf
 11297 34e9 00       		.byte	0
 11298 34ea 13       		.uleb128 0x13
 11299 34eb C9000000 		.4byte	0xc9
 11300 34ef FA340000 		.4byte	0x34fa
 11301 34f3 14       		.uleb128 0x14
 11302 34f4 2C000000 		.4byte	0x2c
 11303 34f8 7E       		.byte	0x7e
 11304 34f9 00       		.byte	0
 11305 34fa 05       		.uleb128 0x5
 11306 34fb EA340000 		.4byte	0x34ea
 11307 34ff 13       		.uleb128 0x13
 11308 3500 C9000000 		.4byte	0xc9
 11309 3504 16350000 		.4byte	0x3516
 11310 3508 14       		.uleb128 0x14
 11311 3509 2C000000 		.4byte	0x2c
 11312 350d 0F       		.byte	0xf
 11313 350e 29       		.uleb128 0x29
 11314 350f 2C000000 		.4byte	0x2c
 11315 3513 FF03     		.2byte	0x3ff
 11316 3515 00       		.byte	0
 11317 3516 05       		.uleb128 0x5
 11318 3517 FF340000 		.4byte	0x34ff
 11319 351b 04       		.uleb128 0x4
 11320 351c CD200000 		.4byte	.LASF669
 11321 3520 30       		.byte	0x30
 11322 3521 B6       		.byte	0xb6
 11323 3522 03       		.byte	0x3
 11324 3523 25310000 		.4byte	0x3125
 11325 3527 17       		.uleb128 0x17
 11326 3528 0C       		.byte	0xc
 11327 3529 2F       		.byte	0x2f
 11328 352a C6       		.byte	0xc6
 11329 352b 09       		.byte	0x9
 11330 352c 58350000 		.4byte	0x3558
 11331 3530 08       		.uleb128 0x8
 11332 3531 76070000 		.4byte	.LASF670
 11333 3535 2F       		.byte	0x2f
 11334 3536 C7       		.byte	0xc7
 11335 3537 21       		.byte	0x21
 11336 3538 BD000000 		.4byte	0xbd
 11337 353c 00       		.byte	0
 11338 353d 08       		.uleb128 0x8
 11339 353e 55090000 		.4byte	.LASF671
 11340 3542 2F       		.byte	0x2f
 11341 3543 C8       		.byte	0xc8
 11342 3544 21       		.byte	0x21
ARM GAS  /tmp/cczbsEFl.s 			page 200


 11343 3545 BD000000 		.4byte	0xbd
 11344 3549 04       		.byte	0x4
 11345 354a 08       		.uleb128 0x8
 11346 354b AD0C0000 		.4byte	.LASF672
 11347 354f 2F       		.byte	0x2f
 11348 3550 C9       		.byte	0xc9
 11349 3551 21       		.byte	0x21
 11350 3552 BD000000 		.4byte	0xbd
 11351 3556 08       		.byte	0x8
 11352 3557 00       		.byte	0
 11353 3558 04       		.uleb128 0x4
 11354 3559 62090000 		.4byte	.LASF673
 11355 355d 2F       		.byte	0x2f
 11356 355e CA       		.byte	0xca
 11357 355f 03       		.byte	0x3
 11358 3560 27350000 		.4byte	0x3527
 11359 3564 06       		.uleb128 0x6
 11360 3565 58350000 		.4byte	0x3558
 11361 3569 17       		.uleb128 0x17
 11362 356a 04       		.byte	0x4
 11363 356b 2F       		.byte	0x2f
 11364 356c DD       		.byte	0xdd
 11365 356d 05       		.byte	0x5
 11366 356e 80350000 		.4byte	0x3580
 11367 3572 08       		.uleb128 0x8
 11368 3573 B81E0000 		.4byte	.LASF674
 11369 3577 2F       		.byte	0x2f
 11370 3578 E1       		.byte	0xe1
 11371 3579 22       		.byte	0x22
 11372 357a 34140000 		.4byte	0x1434
 11373 357e 00       		.byte	0
 11374 357f 00       		.byte	0
 11375 3580 17       		.uleb128 0x17
 11376 3581 04       		.byte	0x4
 11377 3582 2F       		.byte	0x2f
 11378 3583 E3       		.byte	0xe3
 11379 3584 05       		.byte	0x5
 11380 3585 97350000 		.4byte	0x3597
 11381 3589 08       		.uleb128 0x8
 11382 358a EB070000 		.4byte	.LASF360
 11383 358e 2F       		.byte	0x2f
 11384 358f E7       		.byte	0xe7
 11385 3590 22       		.byte	0x22
 11386 3591 97350000 		.4byte	0x3597
 11387 3595 00       		.byte	0
 11388 3596 00       		.byte	0
 11389 3597 0B       		.uleb128 0xb
 11390 3598 04       		.byte	0x4
 11391 3599 0F140000 		.4byte	0x140f
 11392 359d 1D       		.uleb128 0x1d
 11393 359e 04       		.byte	0x4
 11394 359f 2F       		.byte	0x2f
 11395 35a0 DC       		.byte	0xdc
 11396 35a1 03       		.byte	0x3
 11397 35a2 BF350000 		.4byte	0x35bf
 11398 35a6 2A       		.uleb128 0x2a
 11399 35a7 5D1B0000 		.4byte	.LASF675
ARM GAS  /tmp/cczbsEFl.s 			page 201


 11400 35ab 2F       		.byte	0x2f
 11401 35ac E2       		.byte	0xe2
 11402 35ad 07       		.byte	0x7
 11403 35ae 69350000 		.4byte	0x3569
 11404 35b2 2A       		.uleb128 0x2a
 11405 35b3 3E1A0000 		.4byte	.LASF676
 11406 35b7 2F       		.byte	0x2f
 11407 35b8 E8       		.byte	0xe8
 11408 35b9 07       		.byte	0x7
 11409 35ba 80350000 		.4byte	0x3580
 11410 35be 00       		.byte	0
 11411 35bf 17       		.uleb128 0x17
 11412 35c0 14       		.byte	0x14
 11413 35c1 2F       		.byte	0x2f
 11414 35c2 CF       		.byte	0xcf
 11415 35c3 09       		.byte	0x9
 11416 35c4 0A360000 		.4byte	0x360a
 11417 35c8 08       		.uleb128 0x8
 11418 35c9 68060000 		.4byte	.LASF677
 11419 35cd 2F       		.byte	0x2f
 11420 35ce D3       		.byte	0xd3
 11421 35cf 21       		.byte	0x21
 11422 35d0 29160000 		.4byte	0x1629
 11423 35d4 00       		.byte	0
 11424 35d5 08       		.uleb128 0x8
 11425 35d6 8D0F0000 		.4byte	.LASF678
 11426 35da 2F       		.byte	0x2f
 11427 35db D7       		.byte	0xd7
 11428 35dc 21       		.byte	0x21
 11429 35dd 3A000000 		.4byte	0x3a
 11430 35e1 04       		.byte	0x4
 11431 35e2 08       		.uleb128 0x8
 11432 35e3 26090000 		.4byte	.LASF679
 11433 35e7 2F       		.byte	0x2f
 11434 35e8 DB       		.byte	0xdb
 11435 35e9 21       		.byte	0x21
 11436 35ea 3A000000 		.4byte	0x3a
 11437 35ee 08       		.byte	0x8
 11438 35ef 08       		.uleb128 0x8
 11439 35f0 16070000 		.4byte	.LASF406
 11440 35f4 2F       		.byte	0x2f
 11441 35f5 E9       		.byte	0xe9
 11442 35f6 05       		.byte	0x5
 11443 35f7 9D350000 		.4byte	0x359d
 11444 35fb 0C       		.byte	0xc
 11445 35fc 08       		.uleb128 0x8
 11446 35fd C50C0000 		.4byte	.LASF680
 11447 3601 2F       		.byte	0x2f
 11448 3602 ED       		.byte	0xed
 11449 3603 21       		.byte	0x21
 11450 3604 3A000000 		.4byte	0x3a
 11451 3608 10       		.byte	0x10
 11452 3609 00       		.byte	0
 11453 360a 04       		.uleb128 0x4
 11454 360b 7E0D0000 		.4byte	.LASF681
 11455 360f 2F       		.byte	0x2f
 11456 3610 EE       		.byte	0xee
ARM GAS  /tmp/cczbsEFl.s 			page 202


 11457 3611 03       		.byte	0x3
 11458 3612 BF350000 		.4byte	0x35bf
 11459 3616 19       		.uleb128 0x19
 11460 3617 04       		.byte	0x4
 11461 3618 2F       		.byte	0x2f
 11462 3619 0101     		.2byte	0x101
 11463 361b 05       		.byte	0x5
 11464 361c 2F360000 		.4byte	0x362f
 11465 3620 0A       		.uleb128 0xa
 11466 3621 85090000 		.4byte	.LASF682
 11467 3625 2F       		.byte	0x2f
 11468 3626 0501     		.2byte	0x105
 11469 3628 22       		.byte	0x22
 11470 3629 FD130000 		.4byte	0x13fd
 11471 362d 00       		.byte	0
 11472 362e 00       		.byte	0
 11473 362f 19       		.uleb128 0x19
 11474 3630 04       		.byte	0x4
 11475 3631 2F       		.byte	0x2f
 11476 3632 0701     		.2byte	0x107
 11477 3634 05       		.byte	0x5
 11478 3635 48360000 		.4byte	0x3648
 11479 3639 0A       		.uleb128 0xa
 11480 363a 181B0000 		.4byte	.LASF361
 11481 363e 2F       		.byte	0x2f
 11482 363f 0B01     		.2byte	0x10b
 11483 3641 21       		.byte	0x21
 11484 3642 48360000 		.4byte	0x3648
 11485 3646 00       		.byte	0
 11486 3647 00       		.byte	0
 11487 3648 0B       		.uleb128 0xb
 11488 3649 04       		.byte	0x4
 11489 364a 03140000 		.4byte	0x1403
 11490 364e 2B       		.uleb128 0x2b
 11491 364f 04       		.byte	0x4
 11492 3650 2F       		.byte	0x2f
 11493 3651 0001     		.2byte	0x100
 11494 3653 03       		.byte	0x3
 11495 3654 73360000 		.4byte	0x3673
 11496 3658 1E       		.uleb128 0x1e
 11497 3659 5D1B0000 		.4byte	.LASF675
 11498 365d 2F       		.byte	0x2f
 11499 365e 0601     		.2byte	0x106
 11500 3660 07       		.byte	0x7
 11501 3661 16360000 		.4byte	0x3616
 11502 3665 1E       		.uleb128 0x1e
 11503 3666 3E1A0000 		.4byte	.LASF676
 11504 366a 2F       		.byte	0x2f
 11505 366b 0C01     		.2byte	0x10c
 11506 366d 07       		.byte	0x7
 11507 366e 2F360000 		.4byte	0x362f
 11508 3672 00       		.byte	0
 11509 3673 17       		.uleb128 0x17
 11510 3674 14       		.byte	0x14
 11511 3675 2F       		.byte	0x2f
 11512 3676 F3       		.byte	0xf3
 11513 3677 09       		.byte	0x9
ARM GAS  /tmp/cczbsEFl.s 			page 203


 11514 3678 C0360000 		.4byte	0x36c0
 11515 367c 08       		.uleb128 0x8
 11516 367d CF040000 		.4byte	.LASF683
 11517 3681 2F       		.byte	0x2f
 11518 3682 F7       		.byte	0xf7
 11519 3683 21       		.byte	0x21
 11520 3684 29160000 		.4byte	0x1629
 11521 3688 00       		.byte	0
 11522 3689 08       		.uleb128 0x8
 11523 368a 79110000 		.4byte	.LASF684
 11524 368e 2F       		.byte	0x2f
 11525 368f FB       		.byte	0xfb
 11526 3690 21       		.byte	0x21
 11527 3691 3A000000 		.4byte	0x3a
 11528 3695 04       		.byte	0x4
 11529 3696 08       		.uleb128 0x8
 11530 3697 FB060000 		.4byte	.LASF685
 11531 369b 2F       		.byte	0x2f
 11532 369c FF       		.byte	0xff
 11533 369d 21       		.byte	0x21
 11534 369e 3A000000 		.4byte	0x3a
 11535 36a2 08       		.byte	0x8
 11536 36a3 0A       		.uleb128 0xa
 11537 36a4 16070000 		.4byte	.LASF406
 11538 36a8 2F       		.byte	0x2f
 11539 36a9 0D01     		.2byte	0x10d
 11540 36ab 05       		.byte	0x5
 11541 36ac 4E360000 		.4byte	0x364e
 11542 36b0 0C       		.byte	0xc
 11543 36b1 0A       		.uleb128 0xa
 11544 36b2 C50C0000 		.4byte	.LASF680
 11545 36b6 2F       		.byte	0x2f
 11546 36b7 1101     		.2byte	0x111
 11547 36b9 21       		.byte	0x21
 11548 36ba 3A000000 		.4byte	0x3a
 11549 36be 10       		.byte	0x10
 11550 36bf 00       		.byte	0
 11551 36c0 1A       		.uleb128 0x1a
 11552 36c1 57190000 		.4byte	.LASF686
 11553 36c5 2F       		.byte	0x2f
 11554 36c6 1201     		.2byte	0x112
 11555 36c8 03       		.byte	0x3
 11556 36c9 73360000 		.4byte	0x3673
 11557 36cd 19       		.uleb128 0x19
 11558 36ce 24       		.byte	0x24
 11559 36cf 2F       		.byte	0x2f
 11560 36d0 1801     		.2byte	0x118
 11561 36d2 09       		.byte	0x9
 11562 36d3 64370000 		.4byte	0x3764
 11563 36d7 0A       		.uleb128 0xa
 11564 36d8 5D140000 		.4byte	.LASF687
 11565 36dc 2F       		.byte	0x2f
 11566 36dd 1C01     		.2byte	0x11c
 11567 36df 21       		.byte	0x21
 11568 36e0 BD000000 		.4byte	0xbd
 11569 36e4 00       		.byte	0
 11570 36e5 0A       		.uleb128 0xa
ARM GAS  /tmp/cczbsEFl.s 			page 204


 11571 36e6 BC070000 		.4byte	.LASF688
 11572 36ea 2F       		.byte	0x2f
 11573 36eb 2701     		.2byte	0x127
 11574 36ed 21       		.byte	0x21
 11575 36ee 0C2F0000 		.4byte	0x2f0c
 11576 36f2 04       		.byte	0x4
 11577 36f3 0A       		.uleb128 0xa
 11578 36f4 34150000 		.4byte	.LASF689
 11579 36f8 2F       		.byte	0x2f
 11580 36f9 2D01     		.2byte	0x12d
 11581 36fb 21       		.byte	0x21
 11582 36fc 0C2F0000 		.4byte	0x2f0c
 11583 3700 08       		.byte	0x8
 11584 3701 0A       		.uleb128 0xa
 11585 3702 170A0000 		.4byte	.LASF690
 11586 3706 2F       		.byte	0x2f
 11587 3707 3301     		.2byte	0x133
 11588 3709 21       		.byte	0x21
 11589 370a 0C2F0000 		.4byte	0x2f0c
 11590 370e 0C       		.byte	0xc
 11591 370f 0A       		.uleb128 0xa
 11592 3710 00210000 		.4byte	.LASF691
 11593 3714 2F       		.byte	0x2f
 11594 3715 3901     		.2byte	0x139
 11595 3717 21       		.byte	0x21
 11596 3718 AA000000 		.4byte	0xaa
 11597 371c 10       		.byte	0x10
 11598 371d 0A       		.uleb128 0xa
 11599 371e 700A0000 		.4byte	.LASF692
 11600 3722 2F       		.byte	0x2f
 11601 3723 3F01     		.2byte	0x13f
 11602 3725 21       		.byte	0x21
 11603 3726 AA000000 		.4byte	0xaa
 11604 372a 12       		.byte	0x12
 11605 372b 0A       		.uleb128 0xa
 11606 372c C31F0000 		.4byte	.LASF693
 11607 3730 2F       		.byte	0x2f
 11608 3731 4401     		.2byte	0x144
 11609 3733 22       		.byte	0x22
 11610 3734 64370000 		.4byte	0x3764
 11611 3738 14       		.byte	0x14
 11612 3739 0A       		.uleb128 0xa
 11613 373a E00B0000 		.4byte	.LASF694
 11614 373e 2F       		.byte	0x2f
 11615 373f 4901     		.2byte	0x149
 11616 3741 22       		.byte	0x22
 11617 3742 6A370000 		.4byte	0x376a
 11618 3746 18       		.byte	0x18
 11619 3747 0A       		.uleb128 0xa
 11620 3748 F60E0000 		.4byte	.LASF695
 11621 374c 2F       		.byte	0x2f
 11622 374d 5001     		.2byte	0x150
 11623 374f 21       		.byte	0x21
 11624 3750 AA000000 		.4byte	0xaa
 11625 3754 1C       		.byte	0x1c
 11626 3755 0A       		.uleb128 0xa
 11627 3756 181F0000 		.4byte	.LASF696
ARM GAS  /tmp/cczbsEFl.s 			page 205


 11628 375a 2F       		.byte	0x2f
 11629 375b 5601     		.2byte	0x156
 11630 375d 22       		.byte	0x22
 11631 375e FD130000 		.4byte	0x13fd
 11632 3762 20       		.byte	0x20
 11633 3763 00       		.byte	0
 11634 3764 0B       		.uleb128 0xb
 11635 3765 04       		.byte	0x4
 11636 3766 0A360000 		.4byte	0x360a
 11637 376a 0B       		.uleb128 0xb
 11638 376b 04       		.byte	0x4
 11639 376c C0360000 		.4byte	0x36c0
 11640 3770 1A       		.uleb128 0x1a
 11641 3771 E81A0000 		.4byte	.LASF697
 11642 3775 2F       		.byte	0x2f
 11643 3776 5701     		.2byte	0x157
 11644 3778 03       		.byte	0x3
 11645 3779 CD360000 		.4byte	0x36cd
 11646 377d 06       		.uleb128 0x6
 11647 377e 70370000 		.4byte	0x3770
 11648 3782 19       		.uleb128 0x19
 11649 3783 10       		.byte	0x10
 11650 3784 2F       		.byte	0x2f
 11651 3785 5C01     		.2byte	0x15c
 11652 3787 09       		.byte	0x9
 11653 3788 C5370000 		.4byte	0x37c5
 11654 378c 0A       		.uleb128 0xa
 11655 378d BD030000 		.4byte	.LASF698
 11656 3791 2F       		.byte	0x2f
 11657 3792 6101     		.2byte	0x161
 11658 3794 21       		.byte	0x21
 11659 3795 2F2F0000 		.4byte	0x2f2f
 11660 3799 00       		.byte	0
 11661 379a 0A       		.uleb128 0xa
 11662 379b 561E0000 		.4byte	.LASF699
 11663 379f 2F       		.byte	0x2f
 11664 37a0 6601     		.2byte	0x166
 11665 37a2 21       		.byte	0x21
 11666 37a3 742F0000 		.4byte	0x2f74
 11667 37a7 04       		.byte	0x4
 11668 37a8 0A       		.uleb128 0xa
 11669 37a9 5E0F0000 		.4byte	.LASF700
 11670 37ad 2F       		.byte	0x2f
 11671 37ae 6C01     		.2byte	0x16c
 11672 37b0 21       		.byte	0x21
 11673 37b1 522F0000 		.4byte	0x2f52
 11674 37b5 08       		.byte	0x8
 11675 37b6 0A       		.uleb128 0xa
 11676 37b7 7E010000 		.4byte	.LASF701
 11677 37bb 2F       		.byte	0x2f
 11678 37bc 7001     		.2byte	0x170
 11679 37be 21       		.byte	0x21
 11680 37bf E82E0000 		.4byte	0x2ee8
 11681 37c3 0C       		.byte	0xc
 11682 37c4 00       		.byte	0
 11683 37c5 1A       		.uleb128 0x1a
 11684 37c6 8C0E0000 		.4byte	.LASF702
ARM GAS  /tmp/cczbsEFl.s 			page 206


 11685 37ca 2F       		.byte	0x2f
 11686 37cb 7201     		.2byte	0x172
 11687 37cd 03       		.byte	0x3
 11688 37ce 82370000 		.4byte	0x3782
 11689 37d2 06       		.uleb128 0x6
 11690 37d3 C5370000 		.4byte	0x37c5
 11691 37d7 0B       		.uleb128 0xb
 11692 37d8 04       		.byte	0x4
 11693 37d9 D2370000 		.4byte	0x37d2
 11694 37dd 13       		.uleb128 0x13
 11695 37de ED370000 		.4byte	0x37ed
 11696 37e2 ED370000 		.4byte	0x37ed
 11697 37e6 14       		.uleb128 0x14
 11698 37e7 2C000000 		.4byte	0x2c
 11699 37eb 03       		.byte	0x3
 11700 37ec 00       		.byte	0
 11701 37ed 0B       		.uleb128 0xb
 11702 37ee 04       		.byte	0x4
 11703 37ef 7D370000 		.4byte	0x377d
 11704 37f3 13       		.uleb128 0x13
 11705 37f4 C8030000 		.4byte	0x3c8
 11706 37f8 03380000 		.4byte	0x3803
 11707 37fc 14       		.uleb128 0x14
 11708 37fd 2C000000 		.4byte	0x2c
 11709 3801 02       		.byte	0x2
 11710 3802 00       		.byte	0
 11711 3803 0B       		.uleb128 0xb
 11712 3804 04       		.byte	0x4
 11713 3805 1B350000 		.4byte	0x351b
 11714 3809 0B       		.uleb128 0xb
 11715 380a 04       		.byte	0x4
 11716 380b 64350000 		.4byte	0x3564
 11717 380f 13       		.uleb128 0x13
 11718 3810 950D0000 		.4byte	0xd95
 11719 3814 1F380000 		.4byte	0x381f
 11720 3818 14       		.uleb128 0x14
 11721 3819 2C000000 		.4byte	0x2c
 11722 381d 3E       		.byte	0x3e
 11723 381e 00       		.byte	0
 11724 381f 15       		.uleb128 0x15
 11725 3820 78000000 		.4byte	.LASF703
 11726 3824 2F       		.byte	0x2f
 11727 3825 0602     		.2byte	0x206
 11728 3827 12       		.byte	0x12
 11729 3828 912C0000 		.4byte	0x2c91
 11730 382c 21       		.uleb128 0x21
 11731 382d 07       		.byte	0x7
 11732 382e 01       		.byte	0x1
 11733 382f A3000000 		.4byte	0xa3
 11734 3833 31       		.byte	0x31
 11735 3834 97       		.byte	0x97
 11736 3835 0E       		.byte	0xe
 11737 3836 4D380000 		.4byte	0x384d
 11738 383a 22       		.uleb128 0x22
 11739 383b B5090000 		.4byte	.LASF704
 11740 383f 00       		.byte	0
 11741 3840 22       		.uleb128 0x22
ARM GAS  /tmp/cczbsEFl.s 			page 207


 11742 3841 34160000 		.4byte	.LASF705
 11743 3845 01       		.byte	0x1
 11744 3846 22       		.uleb128 0x22
 11745 3847 36060000 		.4byte	.LASF706
 11746 384b 02       		.byte	0x2
 11747 384c 00       		.byte	0
 11748 384d 04       		.uleb128 0x4
 11749 384e AB050000 		.4byte	.LASF707
 11750 3852 31       		.byte	0x31
 11751 3853 9B       		.byte	0x9b
 11752 3854 03       		.byte	0x3
 11753 3855 2C380000 		.4byte	0x382c
 11754 3859 04       		.uleb128 0x4
 11755 385a B9010000 		.4byte	.LASF708
 11756 385e 31       		.byte	0x31
 11757 385f A0       		.byte	0xa0
 11758 3860 20       		.byte	0x20
 11759 3861 65380000 		.4byte	0x3865
 11760 3865 2C       		.uleb128 0x2c
 11761 3866 B9010000 		.4byte	.LASF708
 11762 386a 5802     		.2byte	0x258
 11763 386c 31       		.byte	0x31
 11764 386d E5       		.byte	0xe5
 11765 386e 08       		.byte	0x8
 11766 386f DC380000 		.4byte	0x38dc
 11767 3873 18       		.uleb128 0x18
 11768 3874 766D7400 		.ascii	"vmt\000"
 11769 3878 31       		.byte	0x31
 11770 3879 E7       		.byte	0xe7
 11771 387a 24       		.byte	0x24
 11772 387b A6390000 		.4byte	0x39a6
 11773 387f 00       		.byte	0
 11774 3880 08       		.uleb128 0x8
 11775 3881 32000000 		.4byte	.LASF504
 11776 3885 31       		.byte	0x31
 11777 3886 E8       		.byte	0xe8
 11778 3887 03       		.byte	0x3
 11779 3888 4C130000 		.4byte	0x134c
 11780 388c 04       		.byte	0x4
 11781 388d 08       		.uleb128 0x8
 11782 388e 39130000 		.4byte	.LASF327
 11783 3892 31       		.byte	0x31
 11784 3893 E8       		.byte	0xe8
 11785 3894 03       		.byte	0x3
 11786 3895 4D380000 		.4byte	0x384d
 11787 3899 08       		.byte	0x8
 11788 389a 08       		.uleb128 0x8
 11789 389b 2D150000 		.4byte	.LASF505
 11790 389f 31       		.byte	0x31
 11791 38a0 E8       		.byte	0xe8
 11792 38a1 03       		.byte	0x3
 11793 38a2 03140000 		.4byte	0x1403
 11794 38a6 0C       		.byte	0xc
 11795 38a7 08       		.uleb128 0x8
 11796 38a8 B50E0000 		.4byte	.LASF506
 11797 38ac 31       		.byte	0x31
 11798 38ad E8       		.byte	0xe8
ARM GAS  /tmp/cczbsEFl.s 			page 208


 11799 38ae 03       		.byte	0x3
 11800 38af 0F140000 		.4byte	0x140f
 11801 38b3 30       		.byte	0x30
 11802 38b4 18       		.uleb128 0x18
 11803 38b5 696200   		.ascii	"ib\000"
 11804 38b8 31       		.byte	0x31
 11805 38b9 E8       		.byte	0xe8
 11806 38ba 03       		.byte	0x3
 11807 38bb AC390000 		.4byte	0x39ac
 11808 38bf 54       		.byte	0x54
 11809 38c0 28       		.uleb128 0x28
 11810 38c1 6F6200   		.ascii	"ob\000"
 11811 38c4 31       		.byte	0x31
 11812 38c5 E8       		.byte	0xe8
 11813 38c6 03       		.byte	0x3
 11814 38c7 AC390000 		.4byte	0x39ac
 11815 38cb 5401     		.2byte	0x154
 11816 38cd 27       		.uleb128 0x27
 11817 38ce 95180000 		.4byte	.LASF328
 11818 38d2 31       		.byte	0x31
 11819 38d3 E8       		.byte	0xe8
 11820 38d4 03       		.byte	0x3
 11821 38d5 BC390000 		.4byte	0x39bc
 11822 38d9 5402     		.2byte	0x254
 11823 38db 00       		.byte	0
 11824 38dc 17       		.uleb128 0x17
 11825 38dd 08       		.byte	0x8
 11826 38de 31       		.byte	0x31
 11827 38df A7       		.byte	0xa7
 11828 38e0 09       		.byte	0x9
 11829 38e1 1A390000 		.4byte	0x391a
 11830 38e5 08       		.uleb128 0x8
 11831 38e6 E11D0000 		.4byte	.LASF709
 11832 38ea 31       		.byte	0x31
 11833 38eb AB       		.byte	0xab
 11834 38ec 1E       		.byte	0x1e
 11835 38ed 062F0000 		.4byte	0x2f06
 11836 38f1 00       		.byte	0
 11837 38f2 08       		.uleb128 0x8
 11838 38f3 170D0000 		.4byte	.LASF710
 11839 38f7 31       		.byte	0x31
 11840 38f8 AF       		.byte	0xaf
 11841 38f9 1D       		.byte	0x1d
 11842 38fa E02D0000 		.4byte	0x2de0
 11843 38fe 04       		.byte	0x4
 11844 38ff 08       		.uleb128 0x8
 11845 3900 CE030000 		.4byte	.LASF711
 11846 3904 31       		.byte	0x31
 11847 3905 B3       		.byte	0xb3
 11848 3906 1D       		.byte	0x1d
 11849 3907 E02D0000 		.4byte	0x2de0
 11850 390b 05       		.byte	0x5
 11851 390c 08       		.uleb128 0x8
 11852 390d 000E0000 		.4byte	.LASF712
 11853 3911 31       		.byte	0x31
 11854 3912 B9       		.byte	0xb9
 11855 3913 1D       		.byte	0x1d
ARM GAS  /tmp/cczbsEFl.s 			page 209


 11856 3914 E02D0000 		.4byte	0x2de0
 11857 3918 06       		.byte	0x6
 11858 3919 00       		.byte	0
 11859 391a 04       		.uleb128 0x4
 11860 391b 37190000 		.4byte	.LASF713
 11861 391f 31       		.byte	0x31
 11862 3920 BA       		.byte	0xba
 11863 3921 03       		.byte	0x3
 11864 3922 DC380000 		.4byte	0x38dc
 11865 3926 06       		.uleb128 0x6
 11866 3927 1A390000 		.4byte	0x391a
 11867 392b 07       		.uleb128 0x7
 11868 392c 0C140000 		.4byte	.LASF714
 11869 3930 20       		.byte	0x20
 11870 3931 31       		.byte	0x31
 11871 3932 DA       		.byte	0xda
 11872 3933 08       		.byte	0x8
 11873 3934 A1390000 		.4byte	0x39a1
 11874 3938 08       		.uleb128 0x8
 11875 3939 27150000 		.4byte	.LASF509
 11876 393d 31       		.byte	0x31
 11877 393e DB       		.byte	0xdb
 11878 393f 03       		.byte	0x3
 11879 3940 3A140000 		.4byte	0x143a
 11880 3944 00       		.byte	0
 11881 3945 08       		.uleb128 0x8
 11882 3946 A4030000 		.4byte	.LASF510
 11883 394a 31       		.byte	0x31
 11884 394b DB       		.byte	0xdb
 11885 394c 03       		.byte	0x3
 11886 394d 59140000 		.4byte	0x1459
 11887 3951 04       		.byte	0x4
 11888 3952 18       		.uleb128 0x18
 11889 3953 70757400 		.ascii	"put\000"
 11890 3957 31       		.byte	0x31
 11891 3958 DB       		.byte	0xdb
 11892 3959 03       		.byte	0x3
 11893 395a 73140000 		.4byte	0x1473
 11894 395e 08       		.byte	0x8
 11895 395f 18       		.uleb128 0x18
 11896 3960 67657400 		.ascii	"get\000"
 11897 3964 31       		.byte	0x31
 11898 3965 DB       		.byte	0xdb
 11899 3966 03       		.byte	0x3
 11900 3967 88140000 		.4byte	0x1488
 11901 396b 0C       		.byte	0xc
 11902 396c 08       		.uleb128 0x8
 11903 396d A7110000 		.4byte	.LASF511
 11904 3971 31       		.byte	0x31
 11905 3972 DB       		.byte	0xdb
 11906 3973 03       		.byte	0x3
 11907 3974 31150000 		.4byte	0x1531
 11908 3978 10       		.byte	0x10
 11909 3979 08       		.uleb128 0x8
 11910 397a 0C150000 		.4byte	.LASF512
 11911 397e 31       		.byte	0x31
 11912 397f DB       		.byte	0xdb
ARM GAS  /tmp/cczbsEFl.s 			page 210


 11913 3980 03       		.byte	0x3
 11914 3981 4B150000 		.4byte	0x154b
 11915 3985 14       		.byte	0x14
 11916 3986 08       		.uleb128 0x8
 11917 3987 F41D0000 		.4byte	.LASF513
 11918 398b 31       		.byte	0x31
 11919 398c DB       		.byte	0xdb
 11920 398d 03       		.byte	0x3
 11921 398e 6F150000 		.4byte	0x156f
 11922 3992 18       		.byte	0x18
 11923 3993 08       		.uleb128 0x8
 11924 3994 CC0F0000 		.4byte	.LASF514
 11925 3998 31       		.byte	0x31
 11926 3999 DB       		.byte	0xdb
 11927 399a 03       		.byte	0x3
 11928 399b 93150000 		.4byte	0x1593
 11929 399f 1C       		.byte	0x1c
 11930 39a0 00       		.byte	0
 11931 39a1 06       		.uleb128 0x6
 11932 39a2 2B390000 		.4byte	0x392b
 11933 39a6 0B       		.uleb128 0xb
 11934 39a7 04       		.byte	0x4
 11935 39a8 A1390000 		.4byte	0x39a1
 11936 39ac 13       		.uleb128 0x13
 11937 39ad 92000000 		.4byte	0x92
 11938 39b1 BC390000 		.4byte	0x39bc
 11939 39b5 14       		.uleb128 0x14
 11940 39b6 2C000000 		.4byte	0x2c
 11941 39ba FF       		.byte	0xff
 11942 39bb 00       		.byte	0
 11943 39bc 0B       		.uleb128 0xb
 11944 39bd 04       		.byte	0x4
 11945 39be 26390000 		.4byte	0x3926
 11946 39c2 21       		.uleb128 0x21
 11947 39c3 07       		.byte	0x7
 11948 39c4 01       		.byte	0x1
 11949 39c5 A3000000 		.4byte	0xa3
 11950 39c9 32       		.byte	0x32
 11951 39ca 10       		.byte	0x10
 11952 39cb 0E       		.byte	0xe
 11953 39cc 313A0000 		.4byte	0x3a31
 11954 39d0 22       		.uleb128 0x22
 11955 39d1 E3010000 		.4byte	.LASF715
 11956 39d5 00       		.byte	0
 11957 39d6 22       		.uleb128 0x22
 11958 39d7 961B0000 		.4byte	.LASF716
 11959 39db 01       		.byte	0x1
 11960 39dc 22       		.uleb128 0x22
 11961 39dd FA1B0000 		.4byte	.LASF717
 11962 39e1 02       		.byte	0x2
 11963 39e2 22       		.uleb128 0x22
 11964 39e3 47150000 		.4byte	.LASF718
 11965 39e7 03       		.byte	0x3
 11966 39e8 22       		.uleb128 0x22
 11967 39e9 B2190000 		.4byte	.LASF719
 11968 39ed 10       		.byte	0x10
 11969 39ee 22       		.uleb128 0x22
ARM GAS  /tmp/cczbsEFl.s 			page 211


 11970 39ef 8A130000 		.4byte	.LASF720
 11971 39f3 11       		.byte	0x11
 11972 39f4 22       		.uleb128 0x22
 11973 39f5 08170000 		.4byte	.LASF721
 11974 39f9 12       		.byte	0x12
 11975 39fa 22       		.uleb128 0x22
 11976 39fb 1E0A0000 		.4byte	.LASF722
 11977 39ff 13       		.byte	0x13
 11978 3a00 22       		.uleb128 0x22
 11979 3a01 DB160000 		.4byte	.LASF723
 11980 3a05 30       		.byte	0x30
 11981 3a06 22       		.uleb128 0x22
 11982 3a07 941A0000 		.4byte	.LASF724
 11983 3a0b 31       		.byte	0x31
 11984 3a0c 22       		.uleb128 0x22
 11985 3a0d CC0E0000 		.4byte	.LASF725
 11986 3a11 32       		.byte	0x32
 11987 3a12 22       		.uleb128 0x22
 11988 3a13 50180000 		.4byte	.LASF726
 11989 3a17 33       		.byte	0x33
 11990 3a18 22       		.uleb128 0x22
 11991 3a19 3F130000 		.4byte	.LASF727
 11992 3a1d 36       		.byte	0x36
 11993 3a1e 22       		.uleb128 0x22
 11994 3a1f CF000000 		.4byte	.LASF728
 11995 3a23 37       		.byte	0x37
 11996 3a24 22       		.uleb128 0x22
 11997 3a25 701A0000 		.4byte	.LASF729
 11998 3a29 41       		.byte	0x41
 11999 3a2a 22       		.uleb128 0x22
 12000 3a2b 6D0E0000 		.4byte	.LASF730
 12001 3a2f 44       		.byte	0x44
 12002 3a30 00       		.byte	0
 12003 3a31 04       		.uleb128 0x4
 12004 3a32 ED0E0000 		.4byte	.LASF731
 12005 3a36 32       		.byte	0x32
 12006 3a37 21       		.byte	0x21
 12007 3a38 03       		.byte	0x3
 12008 3a39 C2390000 		.4byte	0x39c2
 12009 3a3d 21       		.uleb128 0x21
 12010 3a3e 07       		.byte	0x7
 12011 3a3f 01       		.byte	0x1
 12012 3a40 A3000000 		.4byte	0xa3
 12013 3a44 32       		.byte	0x32
 12014 3a45 23       		.byte	0x23
 12015 3a46 0E       		.byte	0xe
 12016 3a47 5E3A0000 		.4byte	0x3a5e
 12017 3a4b 22       		.uleb128 0x22
 12018 3a4c D3070000 		.4byte	.LASF732
 12019 3a50 00       		.byte	0
 12020 3a51 22       		.uleb128 0x22
 12021 3a52 BF050000 		.4byte	.LASF733
 12022 3a56 01       		.byte	0x1
 12023 3a57 22       		.uleb128 0x22
 12024 3a58 B1160000 		.4byte	.LASF734
 12025 3a5c 02       		.byte	0x2
 12026 3a5d 00       		.byte	0
ARM GAS  /tmp/cczbsEFl.s 			page 212


 12027 3a5e 04       		.uleb128 0x4
 12028 3a5f 311F0000 		.4byte	.LASF735
 12029 3a63 32       		.byte	0x32
 12030 3a64 27       		.byte	0x27
 12031 3a65 03       		.byte	0x3
 12032 3a66 3D3A0000 		.4byte	0x3a3d
 12033 3a6a 21       		.uleb128 0x21
 12034 3a6b 07       		.byte	0x7
 12035 3a6c 01       		.byte	0x1
 12036 3a6d A3000000 		.4byte	0xa3
 12037 3a71 32       		.byte	0x32
 12038 3a72 29       		.byte	0x29
 12039 3a73 0E       		.byte	0xe
 12040 3a74 8B3A0000 		.4byte	0x3a8b
 12041 3a78 22       		.uleb128 0x22
 12042 3a79 FE010000 		.4byte	.LASF736
 12043 3a7d 20       		.byte	0x20
 12044 3a7e 22       		.uleb128 0x22
 12045 3a7f 671C0000 		.4byte	.LASF737
 12046 3a83 40       		.byte	0x40
 12047 3a84 22       		.uleb128 0x22
 12048 3a85 761C0000 		.4byte	.LASF738
 12049 3a89 80       		.byte	0x80
 12050 3a8a 00       		.byte	0
 12051 3a8b 04       		.uleb128 0x4
 12052 3a8c A10D0000 		.4byte	.LASF739
 12053 3a90 32       		.byte	0x32
 12054 3a91 2D       		.byte	0x2d
 12055 3a92 03       		.byte	0x3
 12056 3a93 6A3A0000 		.4byte	0x3a6a
 12057 3a97 07       		.uleb128 0x7
 12058 3a98 C0060000 		.4byte	.LASF740
 12059 3a9c 08       		.byte	0x8
 12060 3a9d 32       		.byte	0x32
 12061 3a9e 2F       		.byte	0x2f
 12062 3a9f 08       		.byte	0x8
 12063 3aa0 E63A0000 		.4byte	0x3ae6
 12064 3aa4 08       		.uleb128 0x8
 12065 3aa5 811A0000 		.4byte	.LASF741
 12066 3aa9 32       		.byte	0x32
 12067 3aaa 30       		.byte	0x30
 12068 3aab 0D       		.byte	0xd
 12069 3aac AA000000 		.4byte	0xaa
 12070 3ab0 00       		.byte	0
 12071 3ab1 08       		.uleb128 0x8
 12072 3ab2 13020000 		.4byte	.LASF742
 12073 3ab6 32       		.byte	0x32
 12074 3ab7 31       		.byte	0x31
 12075 3ab8 0D       		.byte	0xd
 12076 3ab9 AA000000 		.4byte	0xaa
 12077 3abd 02       		.byte	0x2
 12078 3abe 08       		.uleb128 0x8
 12079 3abf AA170000 		.4byte	.LASF743
 12080 3ac3 32       		.byte	0x32
 12081 3ac4 32       		.byte	0x32
 12082 3ac5 0D       		.byte	0xd
 12083 3ac6 313A0000 		.4byte	0x3a31
ARM GAS  /tmp/cczbsEFl.s 			page 213


 12084 3aca 04       		.byte	0x4
 12085 3acb 08       		.uleb128 0x8
 12086 3acc D71E0000 		.4byte	.LASF744
 12087 3ad0 32       		.byte	0x32
 12088 3ad1 33       		.byte	0x33
 12089 3ad2 11       		.byte	0x11
 12090 3ad3 8B3A0000 		.4byte	0x3a8b
 12091 3ad7 05       		.byte	0x5
 12092 3ad8 08       		.uleb128 0x8
 12093 3ad9 EA1E0000 		.4byte	.LASF745
 12094 3add 32       		.byte	0x32
 12095 3ade 34       		.byte	0x34
 12096 3adf 11       		.byte	0x11
 12097 3ae0 8B3A0000 		.4byte	0x3a8b
 12098 3ae4 06       		.byte	0x6
 12099 3ae5 00       		.byte	0
 12100 3ae6 16       		.uleb128 0x16
 12101 3ae7 6F070000 		.4byte	.LASF746
 12102 3aeb 33       		.byte	0x33
 12103 3aec 14       		.byte	0x14
 12104 3aed 18       		.byte	0x18
 12105 3aee D2370000 		.4byte	0x37d2
 12106 3af2 16       		.uleb128 0x16
 12107 3af3 DB090000 		.4byte	.LASF747
 12108 3af7 33       		.byte	0x33
 12109 3af8 15       		.byte	0x15
 12110 3af9 18       		.byte	0x18
 12111 3afa 1A390000 		.4byte	0x391a
 12112 3afe 16       		.uleb128 0x16
 12113 3aff D20D0000 		.4byte	.LASF748
 12114 3b03 33       		.byte	0x33
 12115 3b04 16       		.byte	0x16
 12116 3b05 18       		.byte	0x18
 12117 3b06 59380000 		.4byte	0x3859
 12118 3b0a 2D       		.uleb128 0x2d
 12119 3b0b 30080000 		.4byte	.LASF754
 12120 3b0f 01       		.byte	0x1
 12121 3b10 4F       		.byte	0x4f
 12122 3b11 24       		.byte	0x24
 12123 3b12 973A0000 		.4byte	0x3a97
 12124 3b16 05       		.uleb128 0x5
 12125 3b17 03       		.byte	0x3
 12126 3b18 00000000 		.4byte	po8030_conf
 12127 3b1c 2E       		.uleb128 0x2e
 12128 3b1d 60070000 		.4byte	.LASF775
 12129 3b21 01       		.byte	0x1
 12130 3b22 50       		.byte	0x50
 12131 3b23 0D       		.byte	0xd
 12132 3b24 29160000 		.4byte	0x1629
 12133 3b28 2F       		.uleb128 0x2f
 12134 3b29 AF0A0000 		.4byte	.LASF749
 12135 3b2d 01       		.byte	0x1
 12136 3b2e 0D04     		.2byte	0x40d
 12137 3b30 0A       		.byte	0xa
 12138 3b31 BD000000 		.4byte	0xbd
 12139 3b35 00000000 		.4byte	.LFB275
 12140 3b39 3C000000 		.4byte	.LFE275-.LFB275
ARM GAS  /tmp/cczbsEFl.s 			page 214


 12141 3b3d 01       		.uleb128 0x1
 12142 3b3e 9C       		.byte	0x9c
 12143 3b3f 4D3B0000 		.4byte	0x3b4d
 12144 3b43 30       		.uleb128 0x30
 12145 3b44 34000000 		.4byte	.LVL497
 12146 3b48 095A0000 		.4byte	0x5a09
 12147 3b4c 00       		.byte	0
 12148 3b4d 2F       		.uleb128 0x2f
 12149 3b4e 81190000 		.4byte	.LASF750
 12150 3b52 01       		.byte	0x1
 12151 3b53 F303     		.2byte	0x3f3
 12152 3b55 08       		.byte	0x8
 12153 3b56 54000000 		.4byte	0x54
 12154 3b5a 00000000 		.4byte	.LFB274
 12155 3b5e 74000000 		.4byte	.LFE274-.LFB274
 12156 3b62 01       		.uleb128 0x1
 12157 3b63 9C       		.byte	0x9c
 12158 3b64 5B3C0000 		.4byte	0x3c5b
 12159 3b68 31       		.uleb128 0x31
 12160 3b69 CC1F0000 		.4byte	.LASF751
 12161 3b6d 01       		.byte	0x1
 12162 3b6e F303     		.2byte	0x3f3
 12163 3b70 25       		.byte	0x25
 12164 3b71 AA000000 		.4byte	0xaa
 12165 3b75 04000000 		.4byte	.LLST76
 12166 3b79 00000000 		.4byte	.LVUS76
 12167 3b7d 31       		.uleb128 0x31
 12168 3b7e 25050000 		.4byte	.LASF752
 12169 3b82 01       		.byte	0x1
 12170 3b83 F303     		.2byte	0x3f3
 12171 3b85 37       		.byte	0x37
 12172 3b86 92000000 		.4byte	0x92
 12173 3b8a 29000000 		.4byte	.LLST77
 12174 3b8e 25000000 		.4byte	.LVUS77
 12175 3b92 32       		.uleb128 0x32
 12176 3b93 65727200 		.ascii	"err\000"
 12177 3b97 01       		.byte	0x1
 12178 3b98 F403     		.2byte	0x3f4
 12179 3b9a 0C       		.byte	0xc
 12180 3b9b 54000000 		.4byte	0x54
 12181 3b9f 56000000 		.4byte	.LLST78
 12182 3ba3 4A000000 		.4byte	.LVUS78
 12183 3ba7 33       		.uleb128 0x33
 12184 3ba8 4A4A0000 		.4byte	0x4a4a
 12185 3bac 28000000 		.4byte	.LBI186
 12186 3bb0 0100     		.2byte	.LVU1140
 12187 3bb2 28000000 		.4byte	.LBB186
 12188 3bb6 0A000000 		.4byte	.LBE186-.LBB186
 12189 3bba 01       		.byte	0x1
 12190 3bbb FA03     		.2byte	0x3fa
 12191 3bbd 0F       		.byte	0xf
 12192 3bbe E53B0000 		.4byte	0x3be5
 12193 3bc2 34       		.uleb128 0x34
 12194 3bc3 5B4A0000 		.4byte	0x4a5b
 12195 3bc7 A3000000 		.4byte	.LLST79
 12196 3bcb A1000000 		.4byte	.LVUS79
 12197 3bcf 35       		.uleb128 0x35
ARM GAS  /tmp/cczbsEFl.s 			page 215


 12198 3bd0 32000000 		.4byte	.LVL489
 12199 3bd4 125A0000 		.4byte	0x5a12
 12200 3bd8 36       		.uleb128 0x36
 12201 3bd9 01       		.uleb128 0x1
 12202 3bda 50       		.byte	0x50
 12203 3bdb 02       		.uleb128 0x2
 12204 3bdc 08       		.byte	0x8
 12205 3bdd 6E       		.byte	0x6e
 12206 3bde 36       		.uleb128 0x36
 12207 3bdf 01       		.uleb128 0x1
 12208 3be0 51       		.byte	0x51
 12209 3be1 01       		.uleb128 0x1
 12210 3be2 33       		.byte	0x33
 12211 3be3 00       		.byte	0
 12212 3be4 00       		.byte	0
 12213 3be5 37       		.uleb128 0x37
 12214 3be6 18000000 		.4byte	.LVL486
 12215 3bea 5B3C0000 		.4byte	0x3c5b
 12216 3bee F83B0000 		.4byte	0x3bf8
 12217 3bf2 36       		.uleb128 0x36
 12218 3bf3 01       		.uleb128 0x1
 12219 3bf4 50       		.byte	0x50
 12220 3bf5 01       		.uleb128 0x1
 12221 3bf6 30       		.byte	0x30
 12222 3bf7 00       		.byte	0
 12223 3bf8 37       		.uleb128 0x37
 12224 3bf9 40000000 		.4byte	.LVL491
 12225 3bfd 125A0000 		.4byte	0x5a12
 12226 3c01 193C0000 		.4byte	0x3c19
 12227 3c05 36       		.uleb128 0x36
 12228 3c06 01       		.uleb128 0x1
 12229 3c07 50       		.byte	0x50
 12230 3c08 02       		.uleb128 0x2
 12231 3c09 08       		.byte	0x8
 12232 3c0a 6E       		.byte	0x6e
 12233 3c0b 36       		.uleb128 0x36
 12234 3c0c 01       		.uleb128 0x1
 12235 3c0d 51       		.byte	0x51
 12236 3c0e 01       		.uleb128 0x1
 12237 3c0f 47       		.byte	0x47
 12238 3c10 36       		.uleb128 0x36
 12239 3c11 01       		.uleb128 0x1
 12240 3c12 52       		.byte	0x52
 12241 3c13 04       		.uleb128 0x4
 12242 3c14 74       		.byte	0x74
 12243 3c15 00       		.sleb128 0
 12244 3c16 38       		.byte	0x38
 12245 3c17 25       		.byte	0x25
 12246 3c18 00       		.byte	0
 12247 3c19 37       		.uleb128 0x37
 12248 3c1a 4E000000 		.4byte	.LVL493
 12249 3c1e 125A0000 		.4byte	0x5a12
 12250 3c22 383C0000 		.4byte	0x3c38
 12251 3c26 36       		.uleb128 0x36
 12252 3c27 01       		.uleb128 0x1
 12253 3c28 50       		.byte	0x50
 12254 3c29 02       		.uleb128 0x2
ARM GAS  /tmp/cczbsEFl.s 			page 216


 12255 3c2a 08       		.byte	0x8
 12256 3c2b 6E       		.byte	0x6e
 12257 3c2c 36       		.uleb128 0x36
 12258 3c2d 01       		.uleb128 0x1
 12259 3c2e 51       		.byte	0x51
 12260 3c2f 01       		.uleb128 0x1
 12261 3c30 48       		.byte	0x48
 12262 3c31 36       		.uleb128 0x36
 12263 3c32 01       		.uleb128 0x1
 12264 3c33 52       		.byte	0x52
 12265 3c34 02       		.uleb128 0x2
 12266 3c35 74       		.byte	0x74
 12267 3c36 00       		.sleb128 0
 12268 3c37 00       		.byte	0
 12269 3c38 38       		.uleb128 0x38
 12270 3c39 6C000000 		.4byte	.LVL495
 12271 3c3d 125A0000 		.4byte	0x5a12
 12272 3c41 513C0000 		.4byte	0x3c51
 12273 3c45 36       		.uleb128 0x36
 12274 3c46 01       		.uleb128 0x1
 12275 3c47 50       		.byte	0x50
 12276 3c48 02       		.uleb128 0x2
 12277 3c49 08       		.byte	0x8
 12278 3c4a 6E       		.byte	0x6e
 12279 3c4b 36       		.uleb128 0x36
 12280 3c4c 01       		.uleb128 0x1
 12281 3c4d 51       		.byte	0x51
 12282 3c4e 01       		.uleb128 0x1
 12283 3c4f 49       		.byte	0x49
 12284 3c50 00       		.byte	0
 12285 3c51 30       		.uleb128 0x30
 12286 3c52 70000000 		.4byte	.LVL496
 12287 3c56 095A0000 		.4byte	0x5a09
 12288 3c5a 00       		.byte	0
 12289 3c5b 2F       		.uleb128 0x2f
 12290 3c5c F5190000 		.4byte	.LASF753
 12291 3c60 01       		.byte	0x1
 12292 3c61 D903     		.2byte	0x3d9
 12293 3c63 08       		.byte	0x8
 12294 3c64 54000000 		.4byte	0x54
 12295 3c68 00000000 		.4byte	.LFB273
 12296 3c6c 68000000 		.4byte	.LFE273-.LFB273
 12297 3c70 01       		.uleb128 0x1
 12298 3c71 9C       		.byte	0x9c
 12299 3c72 303D0000 		.4byte	0x3d30
 12300 3c76 39       		.uleb128 0x39
 12301 3c77 616500   		.ascii	"ae\000"
 12302 3c7a 01       		.byte	0x1
 12303 3c7b D903     		.2byte	0x3d9
 12304 3c7d 1E       		.byte	0x1e
 12305 3c7e 92000000 		.4byte	0x92
 12306 3c82 BB000000 		.4byte	.LLST73
 12307 3c86 B7000000 		.4byte	.LVUS73
 12308 3c8a 32       		.uleb128 0x32
 12309 3c8b 65727200 		.ascii	"err\000"
 12310 3c8f 01       		.byte	0x1
 12311 3c90 DA03     		.2byte	0x3da
ARM GAS  /tmp/cczbsEFl.s 			page 217


 12312 3c92 0C       		.byte	0xc
 12313 3c93 54000000 		.4byte	0x54
 12314 3c97 E4000000 		.4byte	.LLST74
 12315 3c9b DC000000 		.4byte	.LVUS74
 12316 3c9f 3A       		.uleb128 0x3a
 12317 3ca0 F4090000 		.4byte	.LASF755
 12318 3ca4 01       		.byte	0x1
 12319 3ca5 DB03     		.2byte	0x3db
 12320 3ca7 0D       		.byte	0xd
 12321 3ca8 92000000 		.4byte	0x92
 12322 3cac 02       		.uleb128 0x2
 12323 3cad 91       		.byte	0x91
 12324 3cae 6B       		.sleb128 -21
 12325 3caf 3B       		.uleb128 0x3b
 12326 3cb0 4A4A0000 		.4byte	0x4a4a
 12327 3cb4 1C000000 		.4byte	.LBI182
 12328 3cb8 0100     		.2byte	.LVU1107
 12329 3cba 18010000 		.4byte	.Ldebug_ranges0+0x118
 12330 3cbe 01       		.byte	0x1
 12331 3cbf DD03     		.2byte	0x3dd
 12332 3cc1 0F       		.byte	0xf
 12333 3cc2 EE3C0000 		.4byte	0x3cee
 12334 3cc6 34       		.uleb128 0x34
 12335 3cc7 5B4A0000 		.4byte	0x4a5b
 12336 3ccb 1B010000 		.4byte	.LLST75
 12337 3ccf 19010000 		.4byte	.LVUS75
 12338 3cd3 35       		.uleb128 0x35
 12339 3cd4 20000000 		.4byte	.LVL475
 12340 3cd8 125A0000 		.4byte	0x5a12
 12341 3cdc 36       		.uleb128 0x36
 12342 3cdd 01       		.uleb128 0x1
 12343 3cde 50       		.byte	0x50
 12344 3cdf 02       		.uleb128 0x2
 12345 3ce0 08       		.byte	0x8
 12346 3ce1 6E       		.byte	0x6e
 12347 3ce2 36       		.uleb128 0x36
 12348 3ce3 01       		.uleb128 0x1
 12349 3ce4 51       		.byte	0x51
 12350 3ce5 01       		.uleb128 0x1
 12351 3ce6 33       		.byte	0x33
 12352 3ce7 36       		.uleb128 0x36
 12353 3ce8 01       		.uleb128 0x1
 12354 3ce9 52       		.byte	0x52
 12355 3cea 01       		.uleb128 0x1
 12356 3ceb 32       		.byte	0x32
 12357 3cec 00       		.byte	0
 12358 3ced 00       		.byte	0
 12359 3cee 37       		.uleb128 0x37
 12360 3cef 3C000000 		.4byte	.LVL479
 12361 3cf3 1E5A0000 		.4byte	0x5a1e
 12362 3cf7 0D3D0000 		.4byte	0x3d0d
 12363 3cfb 36       		.uleb128 0x36
 12364 3cfc 01       		.uleb128 0x1
 12365 3cfd 50       		.byte	0x50
 12366 3cfe 02       		.uleb128 0x2
 12367 3cff 08       		.byte	0x8
 12368 3d00 6E       		.byte	0x6e
ARM GAS  /tmp/cczbsEFl.s 			page 218


 12369 3d01 36       		.uleb128 0x36
 12370 3d02 01       		.uleb128 0x1
 12371 3d03 51       		.byte	0x51
 12372 3d04 01       		.uleb128 0x1
 12373 3d05 34       		.byte	0x34
 12374 3d06 36       		.uleb128 0x36
 12375 3d07 01       		.uleb128 0x1
 12376 3d08 52       		.byte	0x52
 12377 3d09 02       		.uleb128 0x2
 12378 3d0a 91       		.byte	0x91
 12379 3d0b 6B       		.sleb128 -21
 12380 3d0c 00       		.byte	0
 12381 3d0d 37       		.uleb128 0x37
 12382 3d0e 5C000000 		.4byte	.LVL481
 12383 3d12 125A0000 		.4byte	0x5a12
 12384 3d16 263D0000 		.4byte	0x3d26
 12385 3d1a 36       		.uleb128 0x36
 12386 3d1b 01       		.uleb128 0x1
 12387 3d1c 50       		.byte	0x50
 12388 3d1d 02       		.uleb128 0x2
 12389 3d1e 08       		.byte	0x8
 12390 3d1f 6E       		.byte	0x6e
 12391 3d20 36       		.uleb128 0x36
 12392 3d21 01       		.uleb128 0x1
 12393 3d22 51       		.byte	0x51
 12394 3d23 01       		.uleb128 0x1
 12395 3d24 34       		.byte	0x34
 12396 3d25 00       		.byte	0
 12397 3d26 30       		.uleb128 0x30
 12398 3d27 62000000 		.4byte	.LVL482
 12399 3d2b 095A0000 		.4byte	0x5a09
 12400 3d2f 00       		.byte	0
 12401 3d30 2F       		.uleb128 0x2f
 12402 3d31 87000000 		.4byte	.LASF756
 12403 3d35 01       		.byte	0x1
 12404 3d36 BE03     		.2byte	0x3be
 12405 3d38 08       		.byte	0x8
 12406 3d39 54000000 		.4byte	0x54
 12407 3d3d 00000000 		.4byte	.LFB272
 12408 3d41 78000000 		.4byte	.LFE272-.LFB272
 12409 3d45 01       		.uleb128 0x1
 12410 3d46 9C       		.byte	0x9c
 12411 3d47 4E3E0000 		.4byte	0x3e4e
 12412 3d4b 39       		.uleb128 0x39
 12413 3d4c 7200     		.ascii	"r\000"
 12414 3d4e 01       		.byte	0x1
 12415 3d4f BE03     		.2byte	0x3be
 12416 3d51 24       		.byte	0x24
 12417 3d52 92000000 		.4byte	0x92
 12418 3d56 33010000 		.4byte	.LLST68
 12419 3d5a 2F010000 		.4byte	.LVUS68
 12420 3d5e 39       		.uleb128 0x39
 12421 3d5f 6700     		.ascii	"g\000"
 12422 3d61 01       		.byte	0x1
 12423 3d62 BE03     		.2byte	0x3be
 12424 3d64 2F       		.byte	0x2f
 12425 3d65 92000000 		.4byte	0x92
ARM GAS  /tmp/cczbsEFl.s 			page 219


 12426 3d69 58010000 		.4byte	.LLST69
 12427 3d6d 54010000 		.4byte	.LVUS69
 12428 3d71 39       		.uleb128 0x39
 12429 3d72 6200     		.ascii	"b\000"
 12430 3d74 01       		.byte	0x1
 12431 3d75 BE03     		.2byte	0x3be
 12432 3d77 3A       		.byte	0x3a
 12433 3d78 92000000 		.4byte	0x92
 12434 3d7c 7D010000 		.4byte	.LLST70
 12435 3d80 79010000 		.4byte	.LVUS70
 12436 3d84 32       		.uleb128 0x32
 12437 3d85 65727200 		.ascii	"err\000"
 12438 3d89 01       		.byte	0x1
 12439 3d8a BF03     		.2byte	0x3bf
 12440 3d8c 0C       		.byte	0xc
 12441 3d8d 54000000 		.4byte	0x54
 12442 3d91 AA010000 		.4byte	.LLST71
 12443 3d95 9E010000 		.4byte	.LVUS71
 12444 3d99 33       		.uleb128 0x33
 12445 3d9a 4A4A0000 		.4byte	0x4a4a
 12446 3d9e 2A000000 		.4byte	.LBI180
 12447 3da2 0100     		.2byte	.LVU1076
 12448 3da4 2A000000 		.4byte	.LBB180
 12449 3da8 0A000000 		.4byte	.LBE180-.LBB180
 12450 3dac 01       		.byte	0x1
 12451 3dad C503     		.2byte	0x3c5
 12452 3daf 0F       		.byte	0xf
 12453 3db0 D73D0000 		.4byte	0x3dd7
 12454 3db4 34       		.uleb128 0x34
 12455 3db5 5B4A0000 		.4byte	0x4a5b
 12456 3db9 F7010000 		.4byte	.LLST72
 12457 3dbd F5010000 		.4byte	.LVUS72
 12458 3dc1 35       		.uleb128 0x35
 12459 3dc2 34000000 		.4byte	.LVL463
 12460 3dc6 125A0000 		.4byte	0x5a12
 12461 3dca 36       		.uleb128 0x36
 12462 3dcb 01       		.uleb128 0x1
 12463 3dcc 50       		.byte	0x50
 12464 3dcd 02       		.uleb128 0x2
 12465 3dce 08       		.byte	0x8
 12466 3dcf 6E       		.byte	0x6e
 12467 3dd0 36       		.uleb128 0x36
 12468 3dd1 01       		.uleb128 0x1
 12469 3dd2 51       		.byte	0x51
 12470 3dd3 01       		.uleb128 0x1
 12471 3dd4 33       		.byte	0x33
 12472 3dd5 00       		.byte	0
 12473 3dd6 00       		.byte	0
 12474 3dd7 37       		.uleb128 0x37
 12475 3dd8 1A000000 		.4byte	.LVL460
 12476 3ddc 4E3E0000 		.4byte	0x3e4e
 12477 3de0 EA3D0000 		.4byte	0x3dea
 12478 3de4 36       		.uleb128 0x36
 12479 3de5 01       		.uleb128 0x1
 12480 3de6 50       		.byte	0x50
 12481 3de7 01       		.uleb128 0x1
 12482 3de8 30       		.byte	0x30
ARM GAS  /tmp/cczbsEFl.s 			page 220


 12483 3de9 00       		.byte	0
 12484 3dea 37       		.uleb128 0x37
 12485 3deb 42000000 		.4byte	.LVL465
 12486 3def 125A0000 		.4byte	0x5a12
 12487 3df3 0A3E0000 		.4byte	0x3e0a
 12488 3df7 36       		.uleb128 0x36
 12489 3df8 01       		.uleb128 0x1
 12490 3df9 50       		.byte	0x50
 12491 3dfa 02       		.uleb128 0x2
 12492 3dfb 08       		.byte	0x8
 12493 3dfc 6E       		.byte	0x6e
 12494 3dfd 36       		.uleb128 0x36
 12495 3dfe 01       		.uleb128 0x1
 12496 3dff 51       		.byte	0x51
 12497 3e00 02       		.uleb128 0x2
 12498 3e01 08       		.byte	0x8
 12499 3e02 23       		.byte	0x23
 12500 3e03 36       		.uleb128 0x36
 12501 3e04 01       		.uleb128 0x1
 12502 3e05 52       		.byte	0x52
 12503 3e06 02       		.uleb128 0x2
 12504 3e07 74       		.byte	0x74
 12505 3e08 00       		.sleb128 0
 12506 3e09 00       		.byte	0
 12507 3e0a 37       		.uleb128 0x37
 12508 3e0b 50000000 		.4byte	.LVL467
 12509 3e0f 125A0000 		.4byte	0x5a12
 12510 3e13 2A3E0000 		.4byte	0x3e2a
 12511 3e17 36       		.uleb128 0x36
 12512 3e18 01       		.uleb128 0x1
 12513 3e19 50       		.byte	0x50
 12514 3e1a 02       		.uleb128 0x2
 12515 3e1b 08       		.byte	0x8
 12516 3e1c 6E       		.byte	0x6e
 12517 3e1d 36       		.uleb128 0x36
 12518 3e1e 01       		.uleb128 0x1
 12519 3e1f 51       		.byte	0x51
 12520 3e20 02       		.uleb128 0x2
 12521 3e21 08       		.byte	0x8
 12522 3e22 24       		.byte	0x24
 12523 3e23 36       		.uleb128 0x36
 12524 3e24 01       		.uleb128 0x1
 12525 3e25 52       		.byte	0x52
 12526 3e26 02       		.uleb128 0x2
 12527 3e27 75       		.byte	0x75
 12528 3e28 00       		.sleb128 0
 12529 3e29 00       		.byte	0
 12530 3e2a 38       		.uleb128 0x38
 12531 3e2b 6E000000 		.4byte	.LVL469
 12532 3e2f 125A0000 		.4byte	0x5a12
 12533 3e33 443E0000 		.4byte	0x3e44
 12534 3e37 36       		.uleb128 0x36
 12535 3e38 01       		.uleb128 0x1
 12536 3e39 50       		.byte	0x50
 12537 3e3a 02       		.uleb128 0x2
 12538 3e3b 08       		.byte	0x8
 12539 3e3c 6E       		.byte	0x6e
ARM GAS  /tmp/cczbsEFl.s 			page 221


 12540 3e3d 36       		.uleb128 0x36
 12541 3e3e 01       		.uleb128 0x1
 12542 3e3f 51       		.byte	0x51
 12543 3e40 02       		.uleb128 0x2
 12544 3e41 08       		.byte	0x8
 12545 3e42 25       		.byte	0x25
 12546 3e43 00       		.byte	0
 12547 3e44 30       		.uleb128 0x30
 12548 3e45 72000000 		.4byte	.LVL470
 12549 3e49 095A0000 		.4byte	0x5a09
 12550 3e4d 00       		.byte	0
 12551 3e4e 2F       		.uleb128 0x2f
 12552 3e4f 6B120000 		.4byte	.LASF757
 12553 3e53 01       		.byte	0x1
 12554 3e54 A303     		.2byte	0x3a3
 12555 3e56 08       		.byte	0x8
 12556 3e57 54000000 		.4byte	0x54
 12557 3e5b 00000000 		.4byte	.LFB271
 12558 3e5f 68000000 		.4byte	.LFE271-.LFB271
 12559 3e63 01       		.uleb128 0x1
 12560 3e64 9C       		.byte	0x9c
 12561 3e65 243F0000 		.4byte	0x3f24
 12562 3e69 39       		.uleb128 0x39
 12563 3e6a 61776200 		.ascii	"awb\000"
 12564 3e6e 01       		.byte	0x1
 12565 3e6f A303     		.2byte	0x3a3
 12566 3e71 1F       		.byte	0x1f
 12567 3e72 92000000 		.4byte	0x92
 12568 3e76 0F020000 		.4byte	.LLST65
 12569 3e7a 0B020000 		.4byte	.LVUS65
 12570 3e7e 32       		.uleb128 0x32
 12571 3e7f 65727200 		.ascii	"err\000"
 12572 3e83 01       		.byte	0x1
 12573 3e84 A403     		.2byte	0x3a4
 12574 3e86 0C       		.byte	0xc
 12575 3e87 54000000 		.4byte	0x54
 12576 3e8b 38020000 		.4byte	.LLST66
 12577 3e8f 30020000 		.4byte	.LVUS66
 12578 3e93 3A       		.uleb128 0x3a
 12579 3e94 F4090000 		.4byte	.LASF755
 12580 3e98 01       		.byte	0x1
 12581 3e99 A503     		.2byte	0x3a5
 12582 3e9b 0D       		.byte	0xd
 12583 3e9c 92000000 		.4byte	0x92
 12584 3ea0 02       		.uleb128 0x2
 12585 3ea1 91       		.byte	0x91
 12586 3ea2 6B       		.sleb128 -21
 12587 3ea3 3B       		.uleb128 0x3b
 12588 3ea4 4A4A0000 		.4byte	0x4a4a
 12589 3ea8 1C000000 		.4byte	.LBI176
 12590 3eac 0100     		.2byte	.LVU1043
 12591 3eae 00010000 		.4byte	.Ldebug_ranges0+0x100
 12592 3eb2 01       		.byte	0x1
 12593 3eb3 A703     		.2byte	0x3a7
 12594 3eb5 0F       		.byte	0xf
 12595 3eb6 E23E0000 		.4byte	0x3ee2
 12596 3eba 34       		.uleb128 0x34
ARM GAS  /tmp/cczbsEFl.s 			page 222


 12597 3ebb 5B4A0000 		.4byte	0x4a5b
 12598 3ebf 6F020000 		.4byte	.LLST67
 12599 3ec3 6D020000 		.4byte	.LVUS67
 12600 3ec7 35       		.uleb128 0x35
 12601 3ec8 20000000 		.4byte	.LVL449
 12602 3ecc 125A0000 		.4byte	0x5a12
 12603 3ed0 36       		.uleb128 0x36
 12604 3ed1 01       		.uleb128 0x1
 12605 3ed2 50       		.byte	0x50
 12606 3ed3 02       		.uleb128 0x2
 12607 3ed4 08       		.byte	0x8
 12608 3ed5 6E       		.byte	0x6e
 12609 3ed6 36       		.uleb128 0x36
 12610 3ed7 01       		.uleb128 0x1
 12611 3ed8 51       		.byte	0x51
 12612 3ed9 01       		.uleb128 0x1
 12613 3eda 33       		.byte	0x33
 12614 3edb 36       		.uleb128 0x36
 12615 3edc 01       		.uleb128 0x1
 12616 3edd 52       		.byte	0x52
 12617 3ede 01       		.uleb128 0x1
 12618 3edf 32       		.byte	0x32
 12619 3ee0 00       		.byte	0
 12620 3ee1 00       		.byte	0
 12621 3ee2 37       		.uleb128 0x37
 12622 3ee3 3C000000 		.4byte	.LVL453
 12623 3ee7 1E5A0000 		.4byte	0x5a1e
 12624 3eeb 013F0000 		.4byte	0x3f01
 12625 3eef 36       		.uleb128 0x36
 12626 3ef0 01       		.uleb128 0x1
 12627 3ef1 50       		.byte	0x50
 12628 3ef2 02       		.uleb128 0x2
 12629 3ef3 08       		.byte	0x8
 12630 3ef4 6E       		.byte	0x6e
 12631 3ef5 36       		.uleb128 0x36
 12632 3ef6 01       		.uleb128 0x1
 12633 3ef7 51       		.byte	0x51
 12634 3ef8 01       		.uleb128 0x1
 12635 3ef9 34       		.byte	0x34
 12636 3efa 36       		.uleb128 0x36
 12637 3efb 01       		.uleb128 0x1
 12638 3efc 52       		.byte	0x52
 12639 3efd 02       		.uleb128 0x2
 12640 3efe 91       		.byte	0x91
 12641 3eff 6B       		.sleb128 -21
 12642 3f00 00       		.byte	0
 12643 3f01 37       		.uleb128 0x37
 12644 3f02 5C000000 		.4byte	.LVL455
 12645 3f06 125A0000 		.4byte	0x5a12
 12646 3f0a 1A3F0000 		.4byte	0x3f1a
 12647 3f0e 36       		.uleb128 0x36
 12648 3f0f 01       		.uleb128 0x1
 12649 3f10 50       		.byte	0x50
 12650 3f11 02       		.uleb128 0x2
 12651 3f12 08       		.byte	0x8
 12652 3f13 6E       		.byte	0x6e
 12653 3f14 36       		.uleb128 0x36
ARM GAS  /tmp/cczbsEFl.s 			page 223


 12654 3f15 01       		.uleb128 0x1
 12655 3f16 51       		.byte	0x51
 12656 3f17 01       		.uleb128 0x1
 12657 3f18 34       		.byte	0x34
 12658 3f19 00       		.byte	0
 12659 3f1a 30       		.uleb128 0x30
 12660 3f1b 62000000 		.4byte	.LVL456
 12661 3f1f 095A0000 		.4byte	0x5a09
 12662 3f23 00       		.byte	0
 12663 3f24 2F       		.uleb128 0x2f
 12664 3f25 151C0000 		.4byte	.LASF758
 12665 3f29 01       		.byte	0x1
 12666 3f2a 8E03     		.2byte	0x38e
 12667 3f2c 08       		.byte	0x8
 12668 3f2d 54000000 		.4byte	0x54
 12669 3f31 00000000 		.4byte	.LFB270
 12670 3f35 60000000 		.4byte	.LFE270-.LFB270
 12671 3f39 01       		.uleb128 0x1
 12672 3f3a 9C       		.byte	0x9c
 12673 3f3b F63F0000 		.4byte	0x3ff6
 12674 3f3f 31       		.uleb128 0x31
 12675 3f40 AF1E0000 		.4byte	.LASF759
 12676 3f44 01       		.byte	0x1
 12677 3f45 8E03     		.2byte	0x38e
 12678 3f47 22       		.byte	0x22
 12679 3f48 92000000 		.4byte	0x92
 12680 3f4c 87020000 		.4byte	.LLST60
 12681 3f50 83020000 		.4byte	.LVUS60
 12682 3f54 31       		.uleb128 0x31
 12683 3f55 7A1B0000 		.4byte	.LASF760
 12684 3f59 01       		.byte	0x1
 12685 3f5a 8E03     		.2byte	0x38e
 12686 3f5c 34       		.byte	0x34
 12687 3f5d 92000000 		.4byte	0x92
 12688 3f61 AC020000 		.4byte	.LLST61
 12689 3f65 A8020000 		.4byte	.LVUS61
 12690 3f69 32       		.uleb128 0x32
 12691 3f6a 65727200 		.ascii	"err\000"
 12692 3f6e 01       		.byte	0x1
 12693 3f6f 8F03     		.2byte	0x38f
 12694 3f71 0C       		.byte	0xc
 12695 3f72 54000000 		.4byte	0x54
 12696 3f76 D3020000 		.4byte	.LLST62
 12697 3f7a CD020000 		.4byte	.LVUS62
 12698 3f7e 3C       		.uleb128 0x3c
 12699 3f7f F4090000 		.4byte	.LASF755
 12700 3f83 01       		.byte	0x1
 12701 3f84 9003     		.2byte	0x390
 12702 3f86 0D       		.byte	0xd
 12703 3f87 92000000 		.4byte	0x92
 12704 3f8b 03030000 		.4byte	.LLST63
 12705 3f8f FD020000 		.4byte	.LVUS63
 12706 3f93 3B       		.uleb128 0x3b
 12707 3f94 4A4A0000 		.4byte	0x4a4a
 12708 3f98 1A000000 		.4byte	.LBI172
 12709 3f9c 0300     		.2byte	.LVU1012
 12710 3f9e E8000000 		.4byte	.Ldebug_ranges0+0xe8
ARM GAS  /tmp/cczbsEFl.s 			page 224


 12711 3fa2 01       		.byte	0x1
 12712 3fa3 9203     		.2byte	0x392
 12713 3fa5 0F       		.byte	0xf
 12714 3fa6 D23F0000 		.4byte	0x3fd2
 12715 3faa 34       		.uleb128 0x34
 12716 3fab 5B4A0000 		.4byte	0x4a5b
 12717 3faf 30030000 		.4byte	.LLST64
 12718 3fb3 2E030000 		.4byte	.LVUS64
 12719 3fb7 35       		.uleb128 0x35
 12720 3fb8 1E000000 		.4byte	.LVL438
 12721 3fbc 125A0000 		.4byte	0x5a12
 12722 3fc0 36       		.uleb128 0x36
 12723 3fc1 01       		.uleb128 0x1
 12724 3fc2 50       		.byte	0x50
 12725 3fc3 02       		.uleb128 0x2
 12726 3fc4 08       		.byte	0x8
 12727 3fc5 6E       		.byte	0x6e
 12728 3fc6 36       		.uleb128 0x36
 12729 3fc7 01       		.uleb128 0x1
 12730 3fc8 51       		.byte	0x51
 12731 3fc9 01       		.uleb128 0x1
 12732 3fca 33       		.byte	0x33
 12733 3fcb 36       		.uleb128 0x36
 12734 3fcc 01       		.uleb128 0x1
 12735 3fcd 52       		.byte	0x52
 12736 3fce 01       		.uleb128 0x1
 12737 3fcf 30       		.byte	0x30
 12738 3fd0 00       		.byte	0
 12739 3fd1 00       		.byte	0
 12740 3fd2 38       		.uleb128 0x38
 12741 3fd3 48000000 		.4byte	.LVL442
 12742 3fd7 125A0000 		.4byte	0x5a12
 12743 3fdb EC3F0000 		.4byte	0x3fec
 12744 3fdf 36       		.uleb128 0x36
 12745 3fe0 01       		.uleb128 0x1
 12746 3fe1 50       		.byte	0x50
 12747 3fe2 02       		.uleb128 0x2
 12748 3fe3 08       		.byte	0x8
 12749 3fe4 6E       		.byte	0x6e
 12750 3fe5 36       		.uleb128 0x36
 12751 3fe6 01       		.uleb128 0x1
 12752 3fe7 51       		.byte	0x51
 12753 3fe8 02       		.uleb128 0x2
 12754 3fe9 08       		.byte	0x8
 12755 3fea 6C       		.byte	0x6c
 12756 3feb 00       		.byte	0
 12757 3fec 30       		.uleb128 0x30
 12758 3fed 5A000000 		.4byte	.LVL444
 12759 3ff1 095A0000 		.4byte	0x5a09
 12760 3ff5 00       		.byte	0
 12761 3ff6 2F       		.uleb128 0x2f
 12762 3ff7 F8030000 		.4byte	.LASF761
 12763 3ffb 01       		.byte	0x1
 12764 3ffc 8203     		.2byte	0x382
 12765 3ffe 08       		.byte	0x8
 12766 3fff 54000000 		.4byte	0x54
 12767 4003 00000000 		.4byte	.LFB269
ARM GAS  /tmp/cczbsEFl.s 			page 225


 12768 4007 4C000000 		.4byte	.LFE269-.LFB269
 12769 400b 01       		.uleb128 0x1
 12770 400c 9C       		.byte	0x9c
 12771 400d 9E400000 		.4byte	0x409e
 12772 4011 31       		.uleb128 0x31
 12773 4012 F4090000 		.4byte	.LASF755
 12774 4016 01       		.byte	0x1
 12775 4017 8203     		.2byte	0x382
 12776 4019 24       		.byte	0x24
 12777 401a 92000000 		.4byte	0x92
 12778 401e 48030000 		.4byte	.LLST57
 12779 4022 44030000 		.4byte	.LVUS57
 12780 4026 32       		.uleb128 0x32
 12781 4027 65727200 		.ascii	"err\000"
 12782 402b 01       		.byte	0x1
 12783 402c 8303     		.2byte	0x383
 12784 402e 0C       		.byte	0xc
 12785 402f 54000000 		.4byte	0x54
 12786 4033 6F030000 		.4byte	.LLST58
 12787 4037 69030000 		.4byte	.LVUS58
 12788 403b 3B       		.uleb128 0x3b
 12789 403c 4A4A0000 		.4byte	0x4a4a
 12790 4040 16000000 		.4byte	.LBI168
 12791 4044 0200     		.2byte	.LVU989
 12792 4046 D0000000 		.4byte	.Ldebug_ranges0+0xd0
 12793 404a 01       		.byte	0x1
 12794 404b 8403     		.2byte	0x384
 12795 404d 0F       		.byte	0xf
 12796 404e 7A400000 		.4byte	0x407a
 12797 4052 34       		.uleb128 0x34
 12798 4053 5B4A0000 		.4byte	0x4a5b
 12799 4057 9B030000 		.4byte	.LLST59
 12800 405b 99030000 		.4byte	.LVUS59
 12801 405f 35       		.uleb128 0x35
 12802 4060 1A000000 		.4byte	.LVL430
 12803 4064 125A0000 		.4byte	0x5a12
 12804 4068 36       		.uleb128 0x36
 12805 4069 01       		.uleb128 0x1
 12806 406a 50       		.byte	0x50
 12807 406b 02       		.uleb128 0x2
 12808 406c 08       		.byte	0x8
 12809 406d 6E       		.byte	0x6e
 12810 406e 36       		.uleb128 0x36
 12811 406f 01       		.uleb128 0x1
 12812 4070 51       		.byte	0x51
 12813 4071 01       		.uleb128 0x1
 12814 4072 33       		.byte	0x33
 12815 4073 36       		.uleb128 0x36
 12816 4074 01       		.uleb128 0x1
 12817 4075 52       		.byte	0x52
 12818 4076 01       		.uleb128 0x1
 12819 4077 31       		.byte	0x31
 12820 4078 00       		.byte	0
 12821 4079 00       		.byte	0
 12822 407a 38       		.uleb128 0x38
 12823 407b 42000000 		.4byte	.LVL432
 12824 407f 125A0000 		.4byte	0x5a12
ARM GAS  /tmp/cczbsEFl.s 			page 226


 12825 4083 94400000 		.4byte	0x4094
 12826 4087 36       		.uleb128 0x36
 12827 4088 01       		.uleb128 0x1
 12828 4089 50       		.byte	0x50
 12829 408a 02       		.uleb128 0x2
 12830 408b 08       		.byte	0x8
 12831 408c 6E       		.byte	0x6e
 12832 408d 36       		.uleb128 0x36
 12833 408e 01       		.uleb128 0x1
 12834 408f 51       		.byte	0x51
 12835 4090 02       		.uleb128 0x2
 12836 4091 09       		.byte	0x9
 12837 4092 9D       		.byte	0x9d
 12838 4093 00       		.byte	0
 12839 4094 30       		.uleb128 0x30
 12840 4095 46000000 		.4byte	.LVL433
 12841 4099 095A0000 		.4byte	0x5a09
 12842 409d 00       		.byte	0
 12843 409e 2F       		.uleb128 0x2f
 12844 409f 0E0F0000 		.4byte	.LASF762
 12845 40a3 01       		.byte	0x1
 12846 40a4 7703     		.2byte	0x377
 12847 40a6 08       		.byte	0x8
 12848 40a7 54000000 		.4byte	0x54
 12849 40ab 00000000 		.4byte	.LFB268
 12850 40af 4C000000 		.4byte	.LFE268-.LFB268
 12851 40b3 01       		.uleb128 0x1
 12852 40b4 9C       		.byte	0x9c
 12853 40b5 46410000 		.4byte	0x4146
 12854 40b9 31       		.uleb128 0x31
 12855 40ba F4090000 		.4byte	.LASF755
 12856 40be 01       		.byte	0x1
 12857 40bf 7703     		.2byte	0x377
 12858 40c1 26       		.byte	0x26
 12859 40c2 92000000 		.4byte	0x92
 12860 40c6 B3030000 		.4byte	.LLST54
 12861 40ca AF030000 		.4byte	.LVUS54
 12862 40ce 32       		.uleb128 0x32
 12863 40cf 65727200 		.ascii	"err\000"
 12864 40d3 01       		.byte	0x1
 12865 40d4 7803     		.2byte	0x378
 12866 40d6 0C       		.byte	0xc
 12867 40d7 54000000 		.4byte	0x54
 12868 40db DA030000 		.4byte	.LLST55
 12869 40df D4030000 		.4byte	.LVUS55
 12870 40e3 3B       		.uleb128 0x3b
 12871 40e4 4A4A0000 		.4byte	0x4a4a
 12872 40e8 16000000 		.4byte	.LBI164
 12873 40ec 0200     		.2byte	.LVU968
 12874 40ee B8000000 		.4byte	.Ldebug_ranges0+0xb8
 12875 40f2 01       		.byte	0x1
 12876 40f3 7903     		.2byte	0x379
 12877 40f5 0F       		.byte	0xf
 12878 40f6 22410000 		.4byte	0x4122
 12879 40fa 34       		.uleb128 0x34
 12880 40fb 5B4A0000 		.4byte	0x4a5b
 12881 40ff 06040000 		.4byte	.LLST56
ARM GAS  /tmp/cczbsEFl.s 			page 227


 12882 4103 04040000 		.4byte	.LVUS56
 12883 4107 35       		.uleb128 0x35
 12884 4108 1A000000 		.4byte	.LVL423
 12885 410c 125A0000 		.4byte	0x5a12
 12886 4110 36       		.uleb128 0x36
 12887 4111 01       		.uleb128 0x1
 12888 4112 50       		.byte	0x50
 12889 4113 02       		.uleb128 0x2
 12890 4114 08       		.byte	0x8
 12891 4115 6E       		.byte	0x6e
 12892 4116 36       		.uleb128 0x36
 12893 4117 01       		.uleb128 0x1
 12894 4118 51       		.byte	0x51
 12895 4119 01       		.uleb128 0x1
 12896 411a 33       		.byte	0x33
 12897 411b 36       		.uleb128 0x36
 12898 411c 01       		.uleb128 0x1
 12899 411d 52       		.byte	0x52
 12900 411e 01       		.uleb128 0x1
 12901 411f 31       		.byte	0x31
 12902 4120 00       		.byte	0
 12903 4121 00       		.byte	0
 12904 4122 38       		.uleb128 0x38
 12905 4123 42000000 		.4byte	.LVL425
 12906 4127 125A0000 		.4byte	0x5a12
 12907 412b 3C410000 		.4byte	0x413c
 12908 412f 36       		.uleb128 0x36
 12909 4130 01       		.uleb128 0x1
 12910 4131 50       		.byte	0x50
 12911 4132 02       		.uleb128 0x2
 12912 4133 08       		.byte	0x8
 12913 4134 6E       		.byte	0x6e
 12914 4135 36       		.uleb128 0x36
 12915 4136 01       		.uleb128 0x1
 12916 4137 51       		.byte	0x51
 12917 4138 02       		.uleb128 0x2
 12918 4139 09       		.byte	0x9
 12919 413a 9E       		.byte	0x9e
 12920 413b 00       		.byte	0
 12921 413c 30       		.uleb128 0x30
 12922 413d 46000000 		.4byte	.LVL426
 12923 4141 095A0000 		.4byte	0x5a09
 12924 4145 00       		.byte	0
 12925 4146 2F       		.uleb128 0x2f
 12926 4147 AC1F0000 		.4byte	.LASF763
 12927 414b 01       		.byte	0x1
 12928 414c 9102     		.2byte	0x291
 12929 414e 08       		.byte	0x8
 12930 414f 54000000 		.4byte	0x54
 12931 4153 00000000 		.4byte	.LFB267
 12932 4157 D4040000 		.4byte	.LFE267-.LFB267
 12933 415b 01       		.uleb128 0x1
 12934 415c 9C       		.byte	0x9c
 12935 415d 9F470000 		.4byte	0x479f
 12936 4161 39       		.uleb128 0x39
 12937 4162 666D7400 		.ascii	"fmt\000"
 12938 4166 01       		.byte	0x1
ARM GAS  /tmp/cczbsEFl.s 			page 228


 12939 4167 9102     		.2byte	0x291
 12940 4169 2A       		.byte	0x2a
 12941 416a 313A0000 		.4byte	0x3a31
 12942 416e 3A040000 		.4byte	.LLST34
 12943 4172 1A040000 		.4byte	.LVUS34
 12944 4176 39       		.uleb128 0x39
 12945 4177 783100   		.ascii	"x1\000"
 12946 417a 01       		.byte	0x1
 12947 417b 9102     		.2byte	0x291
 12948 417d 3C       		.byte	0x3c
 12949 417e 2C000000 		.4byte	0x2c
 12950 4182 28050000 		.4byte	.LLST35
 12951 4186 0A050000 		.4byte	.LVUS35
 12952 418a 39       		.uleb128 0x39
 12953 418b 793100   		.ascii	"y1\000"
 12954 418e 01       		.byte	0x1
 12955 418f 9102     		.2byte	0x291
 12956 4191 4D       		.byte	0x4d
 12957 4192 2C000000 		.4byte	0x2c
 12958 4196 F9050000 		.4byte	.LLST36
 12959 419a D9050000 		.4byte	.LVUS36
 12960 419e 31       		.uleb128 0x31
 12961 419f 811A0000 		.4byte	.LASF741
 12962 41a3 01       		.byte	0x1
 12963 41a4 9202     		.2byte	0x292
 12964 41a6 2E       		.byte	0x2e
 12965 41a7 2C000000 		.4byte	0x2c
 12966 41ab CD060000 		.4byte	.LLST37
 12967 41af B5060000 		.4byte	.LVUS37
 12968 41b3 31       		.uleb128 0x31
 12969 41b4 13020000 		.4byte	.LASF742
 12970 41b8 01       		.byte	0x1
 12971 41b9 9202     		.2byte	0x292
 12972 41bb 42       		.byte	0x42
 12973 41bc 2C000000 		.4byte	0x2c
 12974 41c0 71070000 		.4byte	.LLST38
 12975 41c4 6B070000 		.4byte	.LVUS38
 12976 41c8 31       		.uleb128 0x31
 12977 41c9 AF0D0000 		.4byte	.LASF764
 12978 41cd 01       		.byte	0x1
 12979 41ce 9302     		.2byte	0x293
 12980 41d0 2F       		.byte	0x2f
 12981 41d1 8B3A0000 		.4byte	0x3a8b
 12982 41d5 A3070000 		.4byte	.LLST39
 12983 41d9 9D070000 		.4byte	.LVUS39
 12984 41dd 31       		.uleb128 0x31
 12985 41de BD0D0000 		.4byte	.LASF765
 12986 41e2 01       		.byte	0x1
 12987 41e3 9302     		.2byte	0x293
 12988 41e5 4C       		.byte	0x4c
 12989 41e6 8B3A0000 		.4byte	0x3a8b
 12990 41ea D5070000 		.4byte	.LLST40
 12991 41ee CF070000 		.4byte	.LVUS40
 12992 41f2 32       		.uleb128 0x32
 12993 41f3 65727200 		.ascii	"err\000"
 12994 41f7 01       		.byte	0x1
 12995 41f8 9402     		.2byte	0x294
ARM GAS  /tmp/cczbsEFl.s 			page 229


 12996 41fa 0C       		.byte	0xc
 12997 41fb 54000000 		.4byte	0x54
 12998 41ff 4D080000 		.4byte	.LLST41
 12999 4203 01080000 		.4byte	.LVUS41
 13000 4207 32       		.uleb128 0x32
 13001 4208 783200   		.ascii	"x2\000"
 13002 420b 01       		.byte	0x1
 13003 420c 9502     		.2byte	0x295
 13004 420e 0F       		.byte	0xf
 13005 420f 2C000000 		.4byte	0x2c
 13006 4213 0F0A0000 		.4byte	.LLST42
 13007 4217 F9090000 		.4byte	.LVUS42
 13008 421b 32       		.uleb128 0x32
 13009 421c 793200   		.ascii	"y2\000"
 13010 421f 01       		.byte	0x1
 13011 4220 9602     		.2byte	0x296
 13012 4222 0F       		.byte	0xf
 13013 4223 2C000000 		.4byte	0x2c
 13014 4227 C80A0000 		.4byte	.LLST43
 13015 422b B20A0000 		.4byte	.LVUS43
 13016 422f 3C       		.uleb128 0x3c
 13017 4230 14170000 		.4byte	.LASF766
 13018 4234 01       		.byte	0x1
 13019 4235 9702     		.2byte	0x297
 13020 4237 0F       		.byte	0xf
 13021 4238 2C000000 		.4byte	0x2c
 13022 423c 870B0000 		.4byte	.LLST44
 13023 4240 690B0000 		.4byte	.LVUS44
 13024 4244 3C       		.uleb128 0x3c
 13025 4245 1B090000 		.4byte	.LASF767
 13026 4249 01       		.byte	0x1
 13027 424a 9702     		.2byte	0x297
 13028 424c 1F       		.byte	0x1f
 13029 424d 2C000000 		.4byte	0x2c
 13030 4251 600C0000 		.4byte	.LLST45
 13031 4255 460C0000 		.4byte	.LVUS45
 13032 4259 3C       		.uleb128 0x3c
 13033 425a 430A0000 		.4byte	.LASF768
 13034 425e 01       		.byte	0x1
 13035 425f 9802     		.2byte	0x298
 13036 4261 0F       		.byte	0xf
 13037 4262 2C000000 		.4byte	0x2c
 13038 4266 130D0000 		.4byte	.LLST46
 13039 426a FD0C0000 		.4byte	.LVUS46
 13040 426e 3C       		.uleb128 0x3c
 13041 426f DD170000 		.4byte	.LASF769
 13042 4273 01       		.byte	0x1
 13043 4274 9802     		.2byte	0x298
 13044 4276 1F       		.byte	0x1f
 13045 4277 2C000000 		.4byte	0x2c
 13046 427b B50D0000 		.4byte	.LLST47
 13047 427f 9F0D0000 		.4byte	.LVUS47
 13048 4283 3C       		.uleb128 0x3c
 13049 4284 D3140000 		.4byte	.LASF770
 13050 4288 01       		.byte	0x1
 13051 4289 9902     		.2byte	0x299
 13052 428b 0F       		.byte	0xf
ARM GAS  /tmp/cczbsEFl.s 			page 230


 13053 428c 2C000000 		.4byte	0x2c
 13054 4290 3F0E0000 		.4byte	.LLST48
 13055 4294 3B0E0000 		.4byte	.LVUS48
 13056 4298 3C       		.uleb128 0x3c
 13057 4299 9E150000 		.4byte	.LASF771
 13058 429d 01       		.byte	0x1
 13059 429e 9A02     		.2byte	0x29a
 13060 42a0 08       		.byte	0x8
 13061 42a1 25000000 		.4byte	0x25
 13062 42a5 670E0000 		.4byte	.LLST49
 13063 42a9 5D0E0000 		.4byte	.LVUS49
 13064 42ad 33       		.uleb128 0x33
 13065 42ae 4A4A0000 		.4byte	0x4a4a
 13066 42b2 AC000000 		.4byte	.LBI156
 13067 42b6 0100     		.2byte	.LVU650
 13068 42b8 AC000000 		.4byte	.LBB156
 13069 42bc 0A000000 		.4byte	.LBE156-.LBB156
 13070 42c0 01       		.byte	0x1
 13071 42c1 EE02     		.2byte	0x2ee
 13072 42c3 0F       		.byte	0xf
 13073 42c4 F0420000 		.4byte	0x42f0
 13074 42c8 34       		.uleb128 0x34
 13075 42c9 5B4A0000 		.4byte	0x4a5b
 13076 42cd 110F0000 		.4byte	.LLST50
 13077 42d1 0F0F0000 		.4byte	.LVUS50
 13078 42d5 35       		.uleb128 0x35
 13079 42d6 B6000000 		.4byte	.LVL277
 13080 42da 125A0000 		.4byte	0x5a12
 13081 42de 36       		.uleb128 0x36
 13082 42df 01       		.uleb128 0x1
 13083 42e0 50       		.byte	0x50
 13084 42e1 02       		.uleb128 0x2
 13085 42e2 08       		.byte	0x8
 13086 42e3 6E       		.byte	0x6e
 13087 42e4 36       		.uleb128 0x36
 13088 42e5 01       		.uleb128 0x1
 13089 42e6 51       		.byte	0x51
 13090 42e7 01       		.uleb128 0x1
 13091 42e8 33       		.byte	0x33
 13092 42e9 36       		.uleb128 0x36
 13093 42ea 01       		.uleb128 0x1
 13094 42eb 52       		.byte	0x52
 13095 42ec 01       		.uleb128 0x1
 13096 42ed 30       		.byte	0x30
 13097 42ee 00       		.byte	0
 13098 42ef 00       		.byte	0
 13099 42f0 33       		.uleb128 0x33
 13100 42f1 4A4A0000 		.4byte	0x4a4a
 13101 42f5 F4000000 		.4byte	.LBI158
 13102 42f9 0100     		.2byte	.LVU667
 13103 42fb F4000000 		.4byte	.LBB158
 13104 42ff 0A000000 		.4byte	.LBE158-.LBB158
 13105 4303 01       		.byte	0x1
 13106 4304 F902     		.2byte	0x2f9
 13107 4306 0F       		.byte	0xf
 13108 4307 2E430000 		.4byte	0x432e
 13109 430b 34       		.uleb128 0x34
ARM GAS  /tmp/cczbsEFl.s 			page 231


 13110 430c 5B4A0000 		.4byte	0x4a5b
 13111 4310 270F0000 		.4byte	.LLST51
 13112 4314 250F0000 		.4byte	.LVUS51
 13113 4318 35       		.uleb128 0x35
 13114 4319 FE000000 		.4byte	.LVL287
 13115 431d 125A0000 		.4byte	0x5a12
 13116 4321 36       		.uleb128 0x36
 13117 4322 01       		.uleb128 0x1
 13118 4323 50       		.byte	0x50
 13119 4324 02       		.uleb128 0x2
 13120 4325 08       		.byte	0x8
 13121 4326 6E       		.byte	0x6e
 13122 4327 36       		.uleb128 0x36
 13123 4328 01       		.uleb128 0x1
 13124 4329 51       		.byte	0x51
 13125 432a 01       		.uleb128 0x1
 13126 432b 33       		.byte	0x33
 13127 432c 00       		.byte	0
 13128 432d 00       		.byte	0
 13129 432e 33       		.uleb128 0x33
 13130 432f 4A4A0000 		.4byte	0x4a4a
 13131 4333 D4020000 		.4byte	.LBI160
 13132 4337 0100     		.2byte	.LVU770
 13133 4339 D4020000 		.4byte	.LBB160
 13134 433d 0A000000 		.4byte	.LBE160-.LBB160
 13135 4341 01       		.byte	0x1
 13136 4342 4803     		.2byte	0x348
 13137 4344 0F       		.byte	0xf
 13138 4345 71430000 		.4byte	0x4371
 13139 4349 34       		.uleb128 0x34
 13140 434a 5B4A0000 		.4byte	0x4a5b
 13141 434e 3D0F0000 		.4byte	.LLST52
 13142 4352 3B0F0000 		.4byte	.LVUS52
 13143 4356 35       		.uleb128 0x35
 13144 4357 DE020000 		.4byte	.LVL338
 13145 435b 125A0000 		.4byte	0x5a12
 13146 435f 36       		.uleb128 0x36
 13147 4360 01       		.uleb128 0x1
 13148 4361 50       		.byte	0x50
 13149 4362 02       		.uleb128 0x2
 13150 4363 08       		.byte	0x8
 13151 4364 6E       		.byte	0x6e
 13152 4365 36       		.uleb128 0x36
 13153 4366 01       		.uleb128 0x1
 13154 4367 51       		.byte	0x51
 13155 4368 01       		.uleb128 0x1
 13156 4369 33       		.byte	0x33
 13157 436a 36       		.uleb128 0x36
 13158 436b 01       		.uleb128 0x1
 13159 436c 52       		.byte	0x52
 13160 436d 01       		.uleb128 0x1
 13161 436e 31       		.byte	0x31
 13162 436f 00       		.byte	0
 13163 4370 00       		.byte	0
 13164 4371 33       		.uleb128 0x33
 13165 4372 4A4A0000 		.4byte	0x4a4a
 13166 4376 04030000 		.4byte	.LBI162
ARM GAS  /tmp/cczbsEFl.s 			page 232


 13167 437a 0100     		.2byte	.LVU785
 13168 437c 04030000 		.4byte	.LBB162
 13169 4380 0A000000 		.4byte	.LBE162-.LBB162
 13170 4384 01       		.byte	0x1
 13171 4385 5403     		.2byte	0x354
 13172 4387 0F       		.byte	0xf
 13173 4388 B4430000 		.4byte	0x43b4
 13174 438c 34       		.uleb128 0x34
 13175 438d 5B4A0000 		.4byte	0x4a5b
 13176 4391 530F0000 		.4byte	.LLST53
 13177 4395 510F0000 		.4byte	.LVUS53
 13178 4399 35       		.uleb128 0x35
 13179 439a 0E030000 		.4byte	.LVL345
 13180 439e 125A0000 		.4byte	0x5a12
 13181 43a2 36       		.uleb128 0x36
 13182 43a3 01       		.uleb128 0x1
 13183 43a4 50       		.byte	0x50
 13184 43a5 02       		.uleb128 0x2
 13185 43a6 08       		.byte	0x8
 13186 43a7 6E       		.byte	0x6e
 13187 43a8 36       		.uleb128 0x36
 13188 43a9 01       		.uleb128 0x1
 13189 43aa 51       		.byte	0x51
 13190 43ab 01       		.uleb128 0x1
 13191 43ac 33       		.byte	0x33
 13192 43ad 36       		.uleb128 0x36
 13193 43ae 01       		.uleb128 0x1
 13194 43af 52       		.byte	0x52
 13195 43b0 01       		.uleb128 0x1
 13196 43b1 31       		.byte	0x31
 13197 43b2 00       		.byte	0
 13198 43b3 00       		.byte	0
 13199 43b4 37       		.uleb128 0x37
 13200 43b5 E6000000 		.4byte	.LVL282
 13201 43b9 125A0000 		.4byte	0x5a12
 13202 43bd CE430000 		.4byte	0x43ce
 13203 43c1 36       		.uleb128 0x36
 13204 43c2 01       		.uleb128 0x1
 13205 43c3 50       		.byte	0x50
 13206 43c4 02       		.uleb128 0x2
 13207 43c5 08       		.byte	0x8
 13208 43c6 6E       		.byte	0x6e
 13209 43c7 36       		.uleb128 0x36
 13210 43c8 01       		.uleb128 0x1
 13211 43c9 51       		.byte	0x51
 13212 43ca 02       		.uleb128 0x2
 13213 43cb 08       		.byte	0x8
 13214 43cc 5B       		.byte	0x5b
 13215 43cd 00       		.byte	0
 13216 43ce 37       		.uleb128 0x37
 13217 43cf F0000000 		.4byte	.LVL284
 13218 43d3 204A0000 		.4byte	0x4a20
 13219 43d7 E5430000 		.4byte	0x43e5
 13220 43db 36       		.uleb128 0x36
 13221 43dc 01       		.uleb128 0x1
 13222 43dd 50       		.byte	0x50
 13223 43de 05       		.uleb128 0x5
ARM GAS  /tmp/cczbsEFl.s 			page 233


 13224 43df 91       		.byte	0x91
 13225 43e0 AC7F     		.sleb128 -84
 13226 43e2 94       		.byte	0x94
 13227 43e3 01       		.byte	0x1
 13228 43e4 00       		.byte	0
 13229 43e5 37       		.uleb128 0x37
 13230 43e6 14010000 		.4byte	.LVL289
 13231 43ea 125A0000 		.4byte	0x5a12
 13232 43ee 05440000 		.4byte	0x4405
 13233 43f2 36       		.uleb128 0x36
 13234 43f3 01       		.uleb128 0x1
 13235 43f4 50       		.byte	0x50
 13236 43f5 02       		.uleb128 0x2
 13237 43f6 08       		.byte	0x8
 13238 43f7 6E       		.byte	0x6e
 13239 43f8 36       		.uleb128 0x36
 13240 43f9 01       		.uleb128 0x1
 13241 43fa 51       		.byte	0x51
 13242 43fb 01       		.uleb128 0x1
 13243 43fc 38       		.byte	0x38
 13244 43fd 36       		.uleb128 0x36
 13245 43fe 01       		.uleb128 0x1
 13246 43ff 52       		.byte	0x52
 13247 4400 03       		.uleb128 0x3
 13248 4401 92       		.byte	0x92
 13249 4402 50       		.uleb128 0x50
 13250 4403 00       		.sleb128 0
 13251 4404 00       		.byte	0
 13252 4405 37       		.uleb128 0x37
 13253 4406 28010000 		.4byte	.LVL291
 13254 440a 125A0000 		.4byte	0x5a12
 13255 440e 25440000 		.4byte	0x4425
 13256 4412 36       		.uleb128 0x36
 13257 4413 01       		.uleb128 0x1
 13258 4414 50       		.byte	0x50
 13259 4415 02       		.uleb128 0x2
 13260 4416 08       		.byte	0x8
 13261 4417 6E       		.byte	0x6e
 13262 4418 36       		.uleb128 0x36
 13263 4419 01       		.uleb128 0x1
 13264 441a 51       		.byte	0x51
 13265 441b 01       		.uleb128 0x1
 13266 441c 39       		.byte	0x39
 13267 441d 36       		.uleb128 0x36
 13268 441e 01       		.uleb128 0x1
 13269 441f 52       		.byte	0x52
 13270 4420 03       		.uleb128 0x3
 13271 4421 92       		.byte	0x92
 13272 4422 51       		.uleb128 0x51
 13273 4423 00       		.sleb128 0
 13274 4424 00       		.byte	0
 13275 4425 37       		.uleb128 0x37
 13276 4426 3E010000 		.4byte	.LVL293
 13277 442a 125A0000 		.4byte	0x5a12
 13278 442e 45440000 		.4byte	0x4445
 13279 4432 36       		.uleb128 0x36
 13280 4433 01       		.uleb128 0x1
ARM GAS  /tmp/cczbsEFl.s 			page 234


 13281 4434 50       		.byte	0x50
 13282 4435 02       		.uleb128 0x2
 13283 4436 08       		.byte	0x8
 13284 4437 6E       		.byte	0x6e
 13285 4438 36       		.uleb128 0x36
 13286 4439 01       		.uleb128 0x1
 13287 443a 51       		.byte	0x51
 13288 443b 01       		.uleb128 0x1
 13289 443c 3A       		.byte	0x3a
 13290 443d 36       		.uleb128 0x36
 13291 443e 01       		.uleb128 0x1
 13292 443f 52       		.byte	0x52
 13293 4440 03       		.uleb128 0x3
 13294 4441 92       		.byte	0x92
 13295 4442 52       		.uleb128 0x52
 13296 4443 00       		.sleb128 0
 13297 4444 00       		.byte	0
 13298 4445 37       		.uleb128 0x37
 13299 4446 54010000 		.4byte	.LVL295
 13300 444a 125A0000 		.4byte	0x5a12
 13301 444e 65440000 		.4byte	0x4465
 13302 4452 36       		.uleb128 0x36
 13303 4453 01       		.uleb128 0x1
 13304 4454 50       		.byte	0x50
 13305 4455 02       		.uleb128 0x2
 13306 4456 08       		.byte	0x8
 13307 4457 6E       		.byte	0x6e
 13308 4458 36       		.uleb128 0x36
 13309 4459 01       		.uleb128 0x1
 13310 445a 51       		.byte	0x51
 13311 445b 01       		.uleb128 0x1
 13312 445c 3B       		.byte	0x3b
 13313 445d 36       		.uleb128 0x36
 13314 445e 01       		.uleb128 0x1
 13315 445f 52       		.byte	0x52
 13316 4460 03       		.uleb128 0x3
 13317 4461 92       		.byte	0x92
 13318 4462 53       		.uleb128 0x53
 13319 4463 00       		.sleb128 0
 13320 4464 00       		.byte	0
 13321 4465 37       		.uleb128 0x37
 13322 4466 6A010000 		.4byte	.LVL297
 13323 446a 125A0000 		.4byte	0x5a12
 13324 446e 85440000 		.4byte	0x4485
 13325 4472 36       		.uleb128 0x36
 13326 4473 01       		.uleb128 0x1
 13327 4474 50       		.byte	0x50
 13328 4475 02       		.uleb128 0x2
 13329 4476 08       		.byte	0x8
 13330 4477 6E       		.byte	0x6e
 13331 4478 36       		.uleb128 0x36
 13332 4479 01       		.uleb128 0x1
 13333 447a 51       		.byte	0x51
 13334 447b 01       		.uleb128 0x1
 13335 447c 3C       		.byte	0x3c
 13336 447d 36       		.uleb128 0x36
 13337 447e 01       		.uleb128 0x1
ARM GAS  /tmp/cczbsEFl.s 			page 235


 13338 447f 52       		.byte	0x52
 13339 4480 03       		.uleb128 0x3
 13340 4481 92       		.byte	0x92
 13341 4482 54       		.uleb128 0x54
 13342 4483 00       		.sleb128 0
 13343 4484 00       		.byte	0
 13344 4485 37       		.uleb128 0x37
 13345 4486 80010000 		.4byte	.LVL299
 13346 448a 125A0000 		.4byte	0x5a12
 13347 448e A5440000 		.4byte	0x44a5
 13348 4492 36       		.uleb128 0x36
 13349 4493 01       		.uleb128 0x1
 13350 4494 50       		.byte	0x50
 13351 4495 02       		.uleb128 0x2
 13352 4496 08       		.byte	0x8
 13353 4497 6E       		.byte	0x6e
 13354 4498 36       		.uleb128 0x36
 13355 4499 01       		.uleb128 0x1
 13356 449a 51       		.byte	0x51
 13357 449b 01       		.uleb128 0x1
 13358 449c 3D       		.byte	0x3d
 13359 449d 36       		.uleb128 0x36
 13360 449e 01       		.uleb128 0x1
 13361 449f 52       		.byte	0x52
 13362 44a0 03       		.uleb128 0x3
 13363 44a1 92       		.byte	0x92
 13364 44a2 57       		.uleb128 0x57
 13365 44a3 00       		.sleb128 0
 13366 44a4 00       		.byte	0
 13367 44a5 37       		.uleb128 0x37
 13368 44a6 96010000 		.4byte	.LVL301
 13369 44aa 125A0000 		.4byte	0x5a12
 13370 44ae C5440000 		.4byte	0x44c5
 13371 44b2 36       		.uleb128 0x36
 13372 44b3 01       		.uleb128 0x1
 13373 44b4 50       		.byte	0x50
 13374 44b5 02       		.uleb128 0x2
 13375 44b6 08       		.byte	0x8
 13376 44b7 6E       		.byte	0x6e
 13377 44b8 36       		.uleb128 0x36
 13378 44b9 01       		.uleb128 0x1
 13379 44ba 51       		.byte	0x51
 13380 44bb 01       		.uleb128 0x1
 13381 44bc 3E       		.byte	0x3e
 13382 44bd 36       		.uleb128 0x36
 13383 44be 01       		.uleb128 0x1
 13384 44bf 52       		.byte	0x52
 13385 44c0 03       		.uleb128 0x3
 13386 44c1 92       		.byte	0x92
 13387 44c2 56       		.uleb128 0x56
 13388 44c3 00       		.sleb128 0
 13389 44c4 00       		.byte	0
 13390 44c5 37       		.uleb128 0x37
 13391 44c6 AC010000 		.4byte	.LVL303
 13392 44ca 125A0000 		.4byte	0x5a12
 13393 44ce E5440000 		.4byte	0x44e5
 13394 44d2 36       		.uleb128 0x36
ARM GAS  /tmp/cczbsEFl.s 			page 236


 13395 44d3 01       		.uleb128 0x1
 13396 44d4 50       		.byte	0x50
 13397 44d5 02       		.uleb128 0x2
 13398 44d6 08       		.byte	0x8
 13399 44d7 6E       		.byte	0x6e
 13400 44d8 36       		.uleb128 0x36
 13401 44d9 01       		.uleb128 0x1
 13402 44da 51       		.byte	0x51
 13403 44db 01       		.uleb128 0x1
 13404 44dc 3F       		.byte	0x3f
 13405 44dd 36       		.uleb128 0x36
 13406 44de 01       		.uleb128 0x1
 13407 44df 52       		.byte	0x52
 13408 44e0 03       		.uleb128 0x3
 13409 44e1 92       		.byte	0x92
 13410 44e2 55       		.uleb128 0x55
 13411 44e3 00       		.sleb128 0
 13412 44e4 00       		.byte	0
 13413 44e5 37       		.uleb128 0x37
 13414 44e6 BC010000 		.4byte	.LVL305
 13415 44ea 125A0000 		.4byte	0x5a12
 13416 44ee 06450000 		.4byte	0x4506
 13417 44f2 36       		.uleb128 0x36
 13418 44f3 01       		.uleb128 0x1
 13419 44f4 50       		.byte	0x50
 13420 44f5 02       		.uleb128 0x2
 13421 44f6 08       		.byte	0x8
 13422 44f7 6E       		.byte	0x6e
 13423 44f8 36       		.uleb128 0x36
 13424 44f9 01       		.uleb128 0x1
 13425 44fa 51       		.byte	0x51
 13426 44fb 02       		.uleb128 0x2
 13427 44fc 08       		.byte	0x8
 13428 44fd 35       		.byte	0x35
 13429 44fe 36       		.uleb128 0x36
 13430 44ff 01       		.uleb128 0x1
 13431 4500 52       		.byte	0x52
 13432 4501 03       		.uleb128 0x3
 13433 4502 92       		.byte	0x92
 13434 4503 50       		.uleb128 0x50
 13435 4504 00       		.sleb128 0
 13436 4505 00       		.byte	0
 13437 4506 37       		.uleb128 0x37
 13438 4507 CE010000 		.4byte	.LVL307
 13439 450b 125A0000 		.4byte	0x5a12
 13440 450f 27450000 		.4byte	0x4527
 13441 4513 36       		.uleb128 0x36
 13442 4514 01       		.uleb128 0x1
 13443 4515 50       		.byte	0x50
 13444 4516 02       		.uleb128 0x2
 13445 4517 08       		.byte	0x8
 13446 4518 6E       		.byte	0x6e
 13447 4519 36       		.uleb128 0x36
 13448 451a 01       		.uleb128 0x1
 13449 451b 51       		.byte	0x51
 13450 451c 02       		.uleb128 0x2
 13451 451d 08       		.byte	0x8
ARM GAS  /tmp/cczbsEFl.s 			page 237


 13452 451e 36       		.byte	0x36
 13453 451f 36       		.uleb128 0x36
 13454 4520 01       		.uleb128 0x1
 13455 4521 52       		.byte	0x52
 13456 4522 03       		.uleb128 0x3
 13457 4523 92       		.byte	0x92
 13458 4524 51       		.uleb128 0x51
 13459 4525 00       		.sleb128 0
 13460 4526 00       		.byte	0
 13461 4527 37       		.uleb128 0x37
 13462 4528 E0010000 		.4byte	.LVL309
 13463 452c 125A0000 		.4byte	0x5a12
 13464 4530 48450000 		.4byte	0x4548
 13465 4534 36       		.uleb128 0x36
 13466 4535 01       		.uleb128 0x1
 13467 4536 50       		.byte	0x50
 13468 4537 02       		.uleb128 0x2
 13469 4538 08       		.byte	0x8
 13470 4539 6E       		.byte	0x6e
 13471 453a 36       		.uleb128 0x36
 13472 453b 01       		.uleb128 0x1
 13473 453c 51       		.byte	0x51
 13474 453d 02       		.uleb128 0x2
 13475 453e 08       		.byte	0x8
 13476 453f 37       		.byte	0x37
 13477 4540 36       		.uleb128 0x36
 13478 4541 01       		.uleb128 0x1
 13479 4542 52       		.byte	0x52
 13480 4543 03       		.uleb128 0x3
 13481 4544 92       		.byte	0x92
 13482 4545 54       		.uleb128 0x54
 13483 4546 00       		.sleb128 0
 13484 4547 00       		.byte	0
 13485 4548 37       		.uleb128 0x37
 13486 4549 F2010000 		.4byte	.LVL311
 13487 454d 125A0000 		.4byte	0x5a12
 13488 4551 69450000 		.4byte	0x4569
 13489 4555 36       		.uleb128 0x36
 13490 4556 01       		.uleb128 0x1
 13491 4557 50       		.byte	0x50
 13492 4558 02       		.uleb128 0x2
 13493 4559 08       		.byte	0x8
 13494 455a 6E       		.byte	0x6e
 13495 455b 36       		.uleb128 0x36
 13496 455c 01       		.uleb128 0x1
 13497 455d 51       		.byte	0x51
 13498 455e 02       		.uleb128 0x2
 13499 455f 08       		.byte	0x8
 13500 4560 38       		.byte	0x38
 13501 4561 36       		.uleb128 0x36
 13502 4562 01       		.uleb128 0x1
 13503 4563 52       		.byte	0x52
 13504 4564 03       		.uleb128 0x3
 13505 4565 92       		.byte	0x92
 13506 4566 57       		.uleb128 0x57
 13507 4567 00       		.sleb128 0
 13508 4568 00       		.byte	0
ARM GAS  /tmp/cczbsEFl.s 			page 238


 13509 4569 37       		.uleb128 0x37
 13510 456a 04020000 		.4byte	.LVL313
 13511 456e 125A0000 		.4byte	0x5a12
 13512 4572 8A450000 		.4byte	0x458a
 13513 4576 36       		.uleb128 0x36
 13514 4577 01       		.uleb128 0x1
 13515 4578 50       		.byte	0x50
 13516 4579 02       		.uleb128 0x2
 13517 457a 08       		.byte	0x8
 13518 457b 6E       		.byte	0x6e
 13519 457c 36       		.uleb128 0x36
 13520 457d 01       		.uleb128 0x1
 13521 457e 51       		.byte	0x51
 13522 457f 02       		.uleb128 0x2
 13523 4580 08       		.byte	0x8
 13524 4581 39       		.byte	0x39
 13525 4582 36       		.uleb128 0x36
 13526 4583 01       		.uleb128 0x1
 13527 4584 52       		.byte	0x52
 13528 4585 03       		.uleb128 0x3
 13529 4586 92       		.byte	0x92
 13530 4587 52       		.uleb128 0x52
 13531 4588 00       		.sleb128 0
 13532 4589 00       		.byte	0
 13533 458a 37       		.uleb128 0x37
 13534 458b 16020000 		.4byte	.LVL315
 13535 458f 125A0000 		.4byte	0x5a12
 13536 4593 AB450000 		.4byte	0x45ab
 13537 4597 36       		.uleb128 0x36
 13538 4598 01       		.uleb128 0x1
 13539 4599 50       		.byte	0x50
 13540 459a 02       		.uleb128 0x2
 13541 459b 08       		.byte	0x8
 13542 459c 6E       		.byte	0x6e
 13543 459d 36       		.uleb128 0x36
 13544 459e 01       		.uleb128 0x1
 13545 459f 51       		.byte	0x51
 13546 45a0 02       		.uleb128 0x2
 13547 45a1 08       		.byte	0x8
 13548 45a2 3A       		.byte	0x3a
 13549 45a3 36       		.uleb128 0x36
 13550 45a4 01       		.uleb128 0x1
 13551 45a5 52       		.byte	0x52
 13552 45a6 03       		.uleb128 0x3
 13553 45a7 92       		.byte	0x92
 13554 45a8 53       		.uleb128 0x53
 13555 45a9 00       		.sleb128 0
 13556 45aa 00       		.byte	0
 13557 45ab 37       		.uleb128 0x37
 13558 45ac 28020000 		.4byte	.LVL317
 13559 45b0 125A0000 		.4byte	0x5a12
 13560 45b4 CC450000 		.4byte	0x45cc
 13561 45b8 36       		.uleb128 0x36
 13562 45b9 01       		.uleb128 0x1
 13563 45ba 50       		.byte	0x50
 13564 45bb 02       		.uleb128 0x2
 13565 45bc 08       		.byte	0x8
ARM GAS  /tmp/cczbsEFl.s 			page 239


 13566 45bd 6E       		.byte	0x6e
 13567 45be 36       		.uleb128 0x36
 13568 45bf 01       		.uleb128 0x1
 13569 45c0 51       		.byte	0x51
 13570 45c1 02       		.uleb128 0x2
 13571 45c2 08       		.byte	0x8
 13572 45c3 3B       		.byte	0x3b
 13573 45c4 36       		.uleb128 0x36
 13574 45c5 01       		.uleb128 0x1
 13575 45c6 52       		.byte	0x52
 13576 45c7 03       		.uleb128 0x3
 13577 45c8 92       		.byte	0x92
 13578 45c9 56       		.uleb128 0x56
 13579 45ca 00       		.sleb128 0
 13580 45cb 00       		.byte	0
 13581 45cc 37       		.uleb128 0x37
 13582 45cd 3A020000 		.4byte	.LVL319
 13583 45d1 125A0000 		.4byte	0x5a12
 13584 45d5 ED450000 		.4byte	0x45ed
 13585 45d9 36       		.uleb128 0x36
 13586 45da 01       		.uleb128 0x1
 13587 45db 50       		.byte	0x50
 13588 45dc 02       		.uleb128 0x2
 13589 45dd 08       		.byte	0x8
 13590 45de 6E       		.byte	0x6e
 13591 45df 36       		.uleb128 0x36
 13592 45e0 01       		.uleb128 0x1
 13593 45e1 51       		.byte	0x51
 13594 45e2 02       		.uleb128 0x2
 13595 45e3 08       		.byte	0x8
 13596 45e4 3C       		.byte	0x3c
 13597 45e5 36       		.uleb128 0x36
 13598 45e6 01       		.uleb128 0x1
 13599 45e7 52       		.byte	0x52
 13600 45e8 03       		.uleb128 0x3
 13601 45e9 92       		.byte	0x92
 13602 45ea 55       		.uleb128 0x55
 13603 45eb 00       		.sleb128 0
 13604 45ec 00       		.byte	0
 13605 45ed 37       		.uleb128 0x37
 13606 45ee 4E020000 		.4byte	.LVL321
 13607 45f2 125A0000 		.4byte	0x5a12
 13608 45f6 15460000 		.4byte	0x4615
 13609 45fa 36       		.uleb128 0x36
 13610 45fb 01       		.uleb128 0x1
 13611 45fc 50       		.byte	0x50
 13612 45fd 02       		.uleb128 0x2
 13613 45fe 08       		.byte	0x8
 13614 45ff 6E       		.byte	0x6e
 13615 4600 36       		.uleb128 0x36
 13616 4601 01       		.uleb128 0x1
 13617 4602 51       		.byte	0x51
 13618 4603 02       		.uleb128 0x2
 13619 4604 08       		.byte	0x8
 13620 4605 3D       		.byte	0x3d
 13621 4606 36       		.uleb128 0x36
 13622 4607 01       		.uleb128 0x1
ARM GAS  /tmp/cczbsEFl.s 			page 240


 13623 4608 52       		.byte	0x52
 13624 4609 0A       		.uleb128 0xa
 13625 460a 91       		.byte	0x91
 13626 460b A47F     		.sleb128 -92
 13627 460d 06       		.byte	0x6
 13628 460e 09       		.byte	0x9
 13629 460f F4       		.byte	0xf4
 13630 4610 24       		.byte	0x24
 13631 4611 09       		.byte	0x9
 13632 4612 FC       		.byte	0xfc
 13633 4613 25       		.byte	0x25
 13634 4614 00       		.byte	0
 13635 4615 37       		.uleb128 0x37
 13636 4616 60020000 		.4byte	.LVL323
 13637 461a 125A0000 		.4byte	0x5a12
 13638 461e 38460000 		.4byte	0x4638
 13639 4622 36       		.uleb128 0x36
 13640 4623 01       		.uleb128 0x1
 13641 4624 50       		.byte	0x50
 13642 4625 02       		.uleb128 0x2
 13643 4626 08       		.byte	0x8
 13644 4627 6E       		.byte	0x6e
 13645 4628 36       		.uleb128 0x36
 13646 4629 01       		.uleb128 0x1
 13647 462a 51       		.byte	0x51
 13648 462b 02       		.uleb128 0x2
 13649 462c 08       		.byte	0x8
 13650 462d 3E       		.byte	0x3e
 13651 462e 36       		.uleb128 0x36
 13652 462f 01       		.uleb128 0x1
 13653 4630 52       		.byte	0x52
 13654 4631 05       		.uleb128 0x5
 13655 4632 91       		.byte	0x91
 13656 4633 A47F     		.sleb128 -92
 13657 4635 94       		.byte	0x94
 13658 4636 01       		.byte	0x1
 13659 4637 00       		.byte	0
 13660 4638 37       		.uleb128 0x37
 13661 4639 72020000 		.4byte	.LVL325
 13662 463d 125A0000 		.4byte	0x5a12
 13663 4641 5E460000 		.4byte	0x465e
 13664 4645 36       		.uleb128 0x36
 13665 4646 01       		.uleb128 0x1
 13666 4647 50       		.byte	0x50
 13667 4648 02       		.uleb128 0x2
 13668 4649 08       		.byte	0x8
 13669 464a 6E       		.byte	0x6e
 13670 464b 36       		.uleb128 0x36
 13671 464c 01       		.uleb128 0x1
 13672 464d 51       		.byte	0x51
 13673 464e 02       		.uleb128 0x2
 13674 464f 08       		.byte	0x8
 13675 4650 3F       		.byte	0x3f
 13676 4651 36       		.uleb128 0x36
 13677 4652 01       		.uleb128 0x1
 13678 4653 52       		.byte	0x52
 13679 4654 08       		.uleb128 0x8
ARM GAS  /tmp/cczbsEFl.s 			page 241


 13680 4655 78       		.byte	0x78
 13681 4656 00       		.sleb128 0
 13682 4657 09       		.byte	0x9
 13683 4658 F4       		.byte	0xf4
 13684 4659 24       		.byte	0x24
 13685 465a 09       		.byte	0x9
 13686 465b FC       		.byte	0xfc
 13687 465c 25       		.byte	0x25
 13688 465d 00       		.byte	0
 13689 465e 37       		.uleb128 0x37
 13690 465f 84020000 		.4byte	.LVL327
 13691 4663 125A0000 		.4byte	0x5a12
 13692 4667 7E460000 		.4byte	0x467e
 13693 466b 36       		.uleb128 0x36
 13694 466c 01       		.uleb128 0x1
 13695 466d 50       		.byte	0x50
 13696 466e 02       		.uleb128 0x2
 13697 466f 08       		.byte	0x8
 13698 4670 6E       		.byte	0x6e
 13699 4671 36       		.uleb128 0x36
 13700 4672 01       		.uleb128 0x1
 13701 4673 51       		.byte	0x51
 13702 4674 02       		.uleb128 0x2
 13703 4675 08       		.byte	0x8
 13704 4676 40       		.byte	0x40
 13705 4677 36       		.uleb128 0x36
 13706 4678 01       		.uleb128 0x1
 13707 4679 52       		.byte	0x52
 13708 467a 02       		.uleb128 0x2
 13709 467b 78       		.byte	0x78
 13710 467c 00       		.sleb128 0
 13711 467d 00       		.byte	0
 13712 467e 37       		.uleb128 0x37
 13713 467f 98020000 		.4byte	.LVL329
 13714 4683 125A0000 		.4byte	0x5a12
 13715 4687 A6460000 		.4byte	0x46a6
 13716 468b 36       		.uleb128 0x36
 13717 468c 01       		.uleb128 0x1
 13718 468d 50       		.byte	0x50
 13719 468e 02       		.uleb128 0x2
 13720 468f 08       		.byte	0x8
 13721 4690 6E       		.byte	0x6e
 13722 4691 36       		.uleb128 0x36
 13723 4692 01       		.uleb128 0x1
 13724 4693 51       		.byte	0x51
 13725 4694 02       		.uleb128 0x2
 13726 4695 08       		.byte	0x8
 13727 4696 41       		.byte	0x41
 13728 4697 36       		.uleb128 0x36
 13729 4698 01       		.uleb128 0x1
 13730 4699 52       		.byte	0x52
 13731 469a 0A       		.uleb128 0xa
 13732 469b 91       		.byte	0x91
 13733 469c A87F     		.sleb128 -88
 13734 469e 06       		.byte	0x6
 13735 469f 09       		.byte	0x9
 13736 46a0 F4       		.byte	0xf4
ARM GAS  /tmp/cczbsEFl.s 			page 242


 13737 46a1 24       		.byte	0x24
 13738 46a2 09       		.byte	0x9
 13739 46a3 FC       		.byte	0xfc
 13740 46a4 25       		.byte	0x25
 13741 46a5 00       		.byte	0
 13742 46a6 37       		.uleb128 0x37
 13743 46a7 AA020000 		.4byte	.LVL331
 13744 46ab 125A0000 		.4byte	0x5a12
 13745 46af C9460000 		.4byte	0x46c9
 13746 46b3 36       		.uleb128 0x36
 13747 46b4 01       		.uleb128 0x1
 13748 46b5 50       		.byte	0x50
 13749 46b6 02       		.uleb128 0x2
 13750 46b7 08       		.byte	0x8
 13751 46b8 6E       		.byte	0x6e
 13752 46b9 36       		.uleb128 0x36
 13753 46ba 01       		.uleb128 0x1
 13754 46bb 51       		.byte	0x51
 13755 46bc 02       		.uleb128 0x2
 13756 46bd 08       		.byte	0x8
 13757 46be 42       		.byte	0x42
 13758 46bf 36       		.uleb128 0x36
 13759 46c0 01       		.uleb128 0x1
 13760 46c1 52       		.byte	0x52
 13761 46c2 05       		.uleb128 0x5
 13762 46c3 91       		.byte	0x91
 13763 46c4 A87F     		.sleb128 -88
 13764 46c6 94       		.byte	0x94
 13765 46c7 01       		.byte	0x1
 13766 46c8 00       		.byte	0
 13767 46c9 37       		.uleb128 0x37
 13768 46ca BC020000 		.4byte	.LVL333
 13769 46ce 125A0000 		.4byte	0x5a12
 13770 46d2 EF460000 		.4byte	0x46ef
 13771 46d6 36       		.uleb128 0x36
 13772 46d7 01       		.uleb128 0x1
 13773 46d8 50       		.byte	0x50
 13774 46d9 02       		.uleb128 0x2
 13775 46da 08       		.byte	0x8
 13776 46db 6E       		.byte	0x6e
 13777 46dc 36       		.uleb128 0x36
 13778 46dd 01       		.uleb128 0x1
 13779 46de 51       		.byte	0x51
 13780 46df 02       		.uleb128 0x2
 13781 46e0 08       		.byte	0x8
 13782 46e1 43       		.byte	0x43
 13783 46e2 36       		.uleb128 0x36
 13784 46e3 01       		.uleb128 0x1
 13785 46e4 52       		.byte	0x52
 13786 46e5 08       		.uleb128 0x8
 13787 46e6 79       		.byte	0x79
 13788 46e7 00       		.sleb128 0
 13789 46e8 09       		.byte	0x9
 13790 46e9 F4       		.byte	0xf4
 13791 46ea 24       		.byte	0x24
 13792 46eb 09       		.byte	0x9
 13793 46ec FC       		.byte	0xfc
ARM GAS  /tmp/cczbsEFl.s 			page 243


 13794 46ed 25       		.byte	0x25
 13795 46ee 00       		.byte	0
 13796 46ef 37       		.uleb128 0x37
 13797 46f0 CE020000 		.4byte	.LVL335
 13798 46f4 125A0000 		.4byte	0x5a12
 13799 46f8 0F470000 		.4byte	0x470f
 13800 46fc 36       		.uleb128 0x36
 13801 46fd 01       		.uleb128 0x1
 13802 46fe 50       		.byte	0x50
 13803 46ff 02       		.uleb128 0x2
 13804 4700 08       		.byte	0x8
 13805 4701 6E       		.byte	0x6e
 13806 4702 36       		.uleb128 0x36
 13807 4703 01       		.uleb128 0x1
 13808 4704 51       		.byte	0x51
 13809 4705 02       		.uleb128 0x2
 13810 4706 08       		.byte	0x8
 13811 4707 44       		.byte	0x44
 13812 4708 36       		.uleb128 0x36
 13813 4709 01       		.uleb128 0x1
 13814 470a 52       		.byte	0x52
 13815 470b 02       		.uleb128 0x2
 13816 470c 79       		.byte	0x79
 13817 470d 00       		.sleb128 0
 13818 470e 00       		.byte	0
 13819 470f 37       		.uleb128 0x37
 13820 4710 EE020000 		.4byte	.LVL340
 13821 4714 125A0000 		.4byte	0x5a12
 13822 4718 2F470000 		.4byte	0x472f
 13823 471c 36       		.uleb128 0x36
 13824 471d 01       		.uleb128 0x1
 13825 471e 50       		.byte	0x50
 13826 471f 02       		.uleb128 0x2
 13827 4720 08       		.byte	0x8
 13828 4721 6E       		.byte	0x6e
 13829 4722 36       		.uleb128 0x36
 13830 4723 01       		.uleb128 0x1
 13831 4724 51       		.byte	0x51
 13832 4725 02       		.uleb128 0x2
 13833 4726 09       		.byte	0x9
 13834 4727 93       		.byte	0x93
 13835 4728 36       		.uleb128 0x36
 13836 4729 01       		.uleb128 0x1
 13837 472a 52       		.byte	0x52
 13838 472b 02       		.uleb128 0x2
 13839 472c 7A       		.byte	0x7a
 13840 472d 00       		.sleb128 0
 13841 472e 00       		.byte	0
 13842 472f 37       		.uleb128 0x37
 13843 4730 FE020000 		.4byte	.LVL342
 13844 4734 125A0000 		.4byte	0x5a12
 13845 4738 4F470000 		.4byte	0x474f
 13846 473c 36       		.uleb128 0x36
 13847 473d 01       		.uleb128 0x1
 13848 473e 50       		.byte	0x50
 13849 473f 02       		.uleb128 0x2
 13850 4740 08       		.byte	0x8
ARM GAS  /tmp/cczbsEFl.s 			page 244


 13851 4741 6E       		.byte	0x6e
 13852 4742 36       		.uleb128 0x36
 13853 4743 01       		.uleb128 0x1
 13854 4744 51       		.byte	0x51
 13855 4745 02       		.uleb128 0x2
 13856 4746 09       		.byte	0x9
 13857 4747 94       		.byte	0x94
 13858 4748 36       		.uleb128 0x36
 13859 4749 01       		.uleb128 0x1
 13860 474a 52       		.byte	0x52
 13861 474b 02       		.uleb128 0x2
 13862 474c 7B       		.byte	0x7b
 13863 474d 00       		.sleb128 0
 13864 474e 00       		.byte	0
 13865 474f 37       		.uleb128 0x37
 13866 4750 62030000 		.4byte	.LVL351
 13867 4754 125A0000 		.4byte	0x5a12
 13868 4758 75470000 		.4byte	0x4775
 13869 475c 36       		.uleb128 0x36
 13870 475d 01       		.uleb128 0x1
 13871 475e 50       		.byte	0x50
 13872 475f 02       		.uleb128 0x2
 13873 4760 08       		.byte	0x8
 13874 4761 6E       		.byte	0x6e
 13875 4762 36       		.uleb128 0x36
 13876 4763 01       		.uleb128 0x1
 13877 4764 51       		.byte	0x51
 13878 4765 02       		.uleb128 0x2
 13879 4766 09       		.byte	0x9
 13880 4767 95       		.byte	0x95
 13881 4768 36       		.uleb128 0x36
 13882 4769 01       		.uleb128 0x1
 13883 476a 52       		.byte	0x52
 13884 476b 08       		.uleb128 0x8
 13885 476c 78       		.byte	0x78
 13886 476d 00       		.sleb128 0
 13887 476e 09       		.byte	0x9
 13888 476f F4       		.byte	0xf4
 13889 4770 24       		.byte	0x24
 13890 4771 09       		.byte	0x9
 13891 4772 FC       		.byte	0xfc
 13892 4773 25       		.byte	0x25
 13893 4774 00       		.byte	0
 13894 4775 37       		.uleb128 0x37
 13895 4776 74030000 		.4byte	.LVL353
 13896 477a 125A0000 		.4byte	0x5a12
 13897 477e 95470000 		.4byte	0x4795
 13898 4782 36       		.uleb128 0x36
 13899 4783 01       		.uleb128 0x1
 13900 4784 50       		.byte	0x50
 13901 4785 02       		.uleb128 0x2
 13902 4786 08       		.byte	0x8
 13903 4787 6E       		.byte	0x6e
 13904 4788 36       		.uleb128 0x36
 13905 4789 01       		.uleb128 0x1
 13906 478a 51       		.byte	0x51
 13907 478b 02       		.uleb128 0x2
ARM GAS  /tmp/cczbsEFl.s 			page 245


 13908 478c 09       		.byte	0x9
 13909 478d 96       		.byte	0x96
 13910 478e 36       		.uleb128 0x36
 13911 478f 01       		.uleb128 0x1
 13912 4790 52       		.byte	0x52
 13913 4791 02       		.uleb128 0x2
 13914 4792 78       		.byte	0x78
 13915 4793 00       		.sleb128 0
 13916 4794 00       		.byte	0
 13917 4795 30       		.uleb128 0x30
 13918 4796 98040000 		.4byte	.LVL410
 13919 479a 095A0000 		.4byte	0x5a09
 13920 479e 00       		.byte	0
 13921 479f 2F       		.uleb128 0x2f
 13922 47a0 6D1D0000 		.4byte	.LASF772
 13923 47a4 01       		.byte	0x1
 13924 47a5 7702     		.2byte	0x277
 13925 47a7 08       		.byte	0x8
 13926 47a8 54000000 		.4byte	0x54
 13927 47ac 00000000 		.4byte	.LFB266
 13928 47b0 70000000 		.4byte	.LFE266-.LFB266
 13929 47b4 01       		.uleb128 0x1
 13930 47b5 9C       		.byte	0x9c
 13931 47b6 8D480000 		.4byte	0x488d
 13932 47ba 39       		.uleb128 0x39
 13933 47bb 666D7400 		.ascii	"fmt\000"
 13934 47bf 01       		.byte	0x1
 13935 47c0 7702     		.2byte	0x277
 13936 47c2 1F       		.byte	0x1f
 13937 47c3 313A0000 		.4byte	0x3a31
 13938 47c7 6B0F0000 		.4byte	.LLST30
 13939 47cb 670F0000 		.4byte	.LVUS30
 13940 47cf 31       		.uleb128 0x31
 13941 47d0 7B160000 		.4byte	.LASF773
 13942 47d4 01       		.byte	0x1
 13943 47d5 7702     		.2byte	0x277
 13944 47d7 31       		.byte	0x31
 13945 47d8 5E3A0000 		.4byte	0x3a5e
 13946 47dc 900F0000 		.4byte	.LLST31
 13947 47e0 8C0F0000 		.4byte	.LVUS31
 13948 47e4 32       		.uleb128 0x32
 13949 47e5 65727200 		.ascii	"err\000"
 13950 47e9 01       		.byte	0x1
 13951 47ea 7902     		.2byte	0x279
 13952 47ec 0C       		.byte	0xc
 13953 47ed 54000000 		.4byte	0x54
 13954 47f1 BD0F0000 		.4byte	.LLST32
 13955 47f5 B10F0000 		.4byte	.LVUS32
 13956 47f9 3B       		.uleb128 0x3b
 13957 47fa 4A4A0000 		.4byte	0x4a4a
 13958 47fe 18000000 		.4byte	.LBI152
 13959 4802 0200     		.2byte	.LVU590
 13960 4804 A0000000 		.4byte	.Ldebug_ranges0+0xa0
 13961 4808 01       		.byte	0x1
 13962 4809 7B02     		.2byte	0x27b
 13963 480b 0F       		.byte	0xf
 13964 480c 38480000 		.4byte	0x4838
ARM GAS  /tmp/cczbsEFl.s 			page 246


 13965 4810 34       		.uleb128 0x34
 13966 4811 5B4A0000 		.4byte	0x4a5b
 13967 4815 0A100000 		.4byte	.LLST33
 13968 4819 08100000 		.4byte	.LVUS33
 13969 481d 35       		.uleb128 0x35
 13970 481e 1C000000 		.4byte	.LVL260
 13971 4822 125A0000 		.4byte	0x5a12
 13972 4826 36       		.uleb128 0x36
 13973 4827 01       		.uleb128 0x1
 13974 4828 50       		.byte	0x50
 13975 4829 02       		.uleb128 0x2
 13976 482a 08       		.byte	0x8
 13977 482b 6E       		.byte	0x6e
 13978 482c 36       		.uleb128 0x36
 13979 482d 01       		.uleb128 0x1
 13980 482e 51       		.byte	0x51
 13981 482f 01       		.uleb128 0x1
 13982 4830 33       		.byte	0x33
 13983 4831 36       		.uleb128 0x36
 13984 4832 01       		.uleb128 0x1
 13985 4833 52       		.byte	0x52
 13986 4834 01       		.uleb128 0x1
 13987 4835 30       		.byte	0x30
 13988 4836 00       		.byte	0
 13989 4837 00       		.byte	0
 13990 4838 37       		.uleb128 0x37
 13991 4839 36000000 		.4byte	.LVL262
 13992 483d 125A0000 		.4byte	0x5a12
 13993 4841 52480000 		.4byte	0x4852
 13994 4845 36       		.uleb128 0x36
 13995 4846 01       		.uleb128 0x1
 13996 4847 50       		.byte	0x50
 13997 4848 02       		.uleb128 0x2
 13998 4849 08       		.byte	0x8
 13999 484a 6E       		.byte	0x6e
 14000 484b 36       		.uleb128 0x36
 14001 484c 01       		.uleb128 0x1
 14002 484d 51       		.byte	0x51
 14003 484e 02       		.uleb128 0x2
 14004 484f 08       		.byte	0x8
 14005 4850 5B       		.byte	0x5b
 14006 4851 00       		.byte	0
 14007 4852 37       		.uleb128 0x37
 14008 4853 40000000 		.4byte	.LVL264
 14009 4857 204A0000 		.4byte	0x4a20
 14010 485b 66480000 		.4byte	0x4866
 14011 485f 36       		.uleb128 0x36
 14012 4860 01       		.uleb128 0x1
 14013 4861 50       		.byte	0x50
 14014 4862 02       		.uleb128 0x2
 14015 4863 74       		.byte	0x74
 14016 4864 00       		.sleb128 0
 14017 4865 00       		.byte	0
 14018 4866 37       		.uleb128 0x37
 14019 4867 4A000000 		.4byte	.LVL266
 14020 486b 6D490000 		.4byte	0x496d
 14021 486f 7A480000 		.4byte	0x487a
ARM GAS  /tmp/cczbsEFl.s 			page 247


 14022 4873 36       		.uleb128 0x36
 14023 4874 01       		.uleb128 0x1
 14024 4875 50       		.byte	0x50
 14025 4876 02       		.uleb128 0x2
 14026 4877 75       		.byte	0x75
 14027 4878 00       		.sleb128 0
 14028 4879 00       		.byte	0
 14029 487a 3D       		.uleb128 0x3d
 14030 487b 66000000 		.4byte	.LVL268
 14031 487f 33490000 		.4byte	0x4933
 14032 4883 30       		.uleb128 0x30
 14033 4884 6A000000 		.4byte	.LVL269
 14034 4888 095A0000 		.4byte	0x5a09
 14035 488c 00       		.byte	0
 14036 488d 3E       		.uleb128 0x3e
 14037 488e 95190000 		.4byte	.LASF794
 14038 4892 01       		.byte	0x1
 14039 4893 5D02     		.2byte	0x25d
 14040 4895 06       		.byte	0x6
 14041 4896 00000000 		.4byte	.LFB265
 14042 489a 5C000000 		.4byte	.LFE265-.LFB265
 14043 489e 01       		.uleb128 0x1
 14044 489f 9C       		.byte	0x9c
 14045 48a0 33490000 		.4byte	0x4933
 14046 48a4 3A       		.uleb128 0x3a
 14047 48a5 AA090000 		.4byte	.LASF774
 14048 48a9 01       		.byte	0x1
 14049 48aa 6202     		.2byte	0x262
 14050 48ac 1C       		.byte	0x1c
 14051 48ad C5270000 		.4byte	0x27c5
 14052 48b1 05       		.uleb128 0x5
 14053 48b2 03       		.byte	0x3
 14054 48b3 00000000 		.4byte	pwmcfg_cam.10100
 14055 48b7 30       		.uleb128 0x30
 14056 48b8 12000000 		.4byte	.LVL415
 14057 48bc 2A5A0000 		.4byte	0x5a2a
 14058 48c0 37       		.uleb128 0x37
 14059 48c1 1A000000 		.4byte	.LVL416
 14060 48c5 365A0000 		.4byte	0x5a36
 14061 48c9 D7480000 		.4byte	0x48d7
 14062 48cd 36       		.uleb128 0x36
 14063 48ce 01       		.uleb128 0x1
 14064 48cf 51       		.byte	0x51
 14065 48d0 05       		.uleb128 0x5
 14066 48d1 03       		.byte	0x3
 14067 48d2 00000000 		.4byte	.LANCHOR1
 14068 48d6 00       		.byte	0
 14069 48d7 37       		.uleb128 0x37
 14070 48d8 24000000 		.4byte	.LVL417
 14071 48dc 435A0000 		.4byte	0x5a43
 14072 48e0 EF480000 		.4byte	0x48ef
 14073 48e4 36       		.uleb128 0x36
 14074 48e5 01       		.uleb128 0x1
 14075 48e6 51       		.byte	0x51
 14076 48e7 01       		.uleb128 0x1
 14077 48e8 30       		.byte	0x30
 14078 48e9 36       		.uleb128 0x36
ARM GAS  /tmp/cczbsEFl.s 			page 248


 14079 48ea 01       		.uleb128 0x1
 14080 48eb 52       		.byte	0x52
 14081 48ec 01       		.uleb128 0x1
 14082 48ed 31       		.byte	0x31
 14083 48ee 00       		.byte	0
 14084 48ef 37       		.uleb128 0x37
 14085 48f0 3A000000 		.4byte	.LVL418
 14086 48f4 46410000 		.4byte	0x4146
 14087 48f8 29490000 		.4byte	0x4929
 14088 48fc 36       		.uleb128 0x36
 14089 48fd 01       		.uleb128 0x1
 14090 48fe 50       		.byte	0x50
 14091 48ff 01       		.uleb128 0x1
 14092 4900 32       		.byte	0x32
 14093 4901 36       		.uleb128 0x36
 14094 4902 01       		.uleb128 0x1
 14095 4903 51       		.byte	0x51
 14096 4904 02       		.uleb128 0x2
 14097 4905 08       		.byte	0x8
 14098 4906 F0       		.byte	0xf0
 14099 4907 36       		.uleb128 0x36
 14100 4908 01       		.uleb128 0x1
 14101 4909 52       		.byte	0x52
 14102 490a 02       		.uleb128 0x2
 14103 490b 08       		.byte	0x8
 14104 490c B4       		.byte	0xb4
 14105 490d 36       		.uleb128 0x36
 14106 490e 01       		.uleb128 0x1
 14107 490f 53       		.byte	0x53
 14108 4910 02       		.uleb128 0x2
 14109 4911 08       		.byte	0x8
 14110 4912 A0       		.byte	0xa0
 14111 4913 36       		.uleb128 0x36
 14112 4914 02       		.uleb128 0x2
 14113 4915 7D       		.byte	0x7d
 14114 4916 00       		.sleb128 0
 14115 4917 02       		.uleb128 0x2
 14116 4918 08       		.byte	0x8
 14117 4919 78       		.byte	0x78
 14118 491a 36       		.uleb128 0x36
 14119 491b 02       		.uleb128 0x2
 14120 491c 7D       		.byte	0x7d
 14121 491d 04       		.sleb128 4
 14122 491e 02       		.uleb128 0x2
 14123 491f 08       		.byte	0x8
 14124 4920 20       		.byte	0x20
 14125 4921 36       		.uleb128 0x36
 14126 4922 02       		.uleb128 0x2
 14127 4923 7D       		.byte	0x7d
 14128 4924 08       		.sleb128 8
 14129 4925 02       		.uleb128 0x2
 14130 4926 08       		.byte	0x8
 14131 4927 20       		.byte	0x20
 14132 4928 00       		.byte	0
 14133 4929 30       		.uleb128 0x30
 14134 492a 4E000000 		.4byte	.LVL419
 14135 492e 095A0000 		.4byte	0x5a09
ARM GAS  /tmp/cczbsEFl.s 			page 249


 14136 4932 00       		.byte	0
 14137 4933 3F       		.uleb128 0x3f
 14138 4934 29180000 		.4byte	.LASF777
 14139 4938 01       		.byte	0x1
 14140 4939 1202     		.2byte	0x212
 14141 493b 08       		.byte	0x8
 14142 493c 54000000 		.4byte	0x54
 14143 4940 01       		.byte	0x1
 14144 4941 6D490000 		.4byte	0x496d
 14145 4945 40       		.uleb128 0x40
 14146 4946 666D7400 		.ascii	"fmt\000"
 14147 494a 01       		.byte	0x1
 14148 494b 1202     		.2byte	0x212
 14149 494d 2E       		.byte	0x2e
 14150 494e 313A0000 		.4byte	0x3a31
 14151 4952 41       		.uleb128 0x41
 14152 4953 7B160000 		.4byte	.LASF773
 14153 4957 01       		.byte	0x1
 14154 4958 1202     		.2byte	0x212
 14155 495a 40       		.byte	0x40
 14156 495b 5E3A0000 		.4byte	0x3a5e
 14157 495f 42       		.uleb128 0x42
 14158 4960 65727200 		.ascii	"err\000"
 14159 4964 01       		.byte	0x1
 14160 4965 1302     		.2byte	0x213
 14161 4967 0C       		.byte	0xc
 14162 4968 54000000 		.4byte	0x54
 14163 496c 00       		.byte	0
 14164 496d 2F       		.uleb128 0x2f
 14165 496e A4130000 		.4byte	.LASF776
 14166 4972 01       		.byte	0x1
 14167 4973 FB01     		.2byte	0x1fb
 14168 4975 08       		.byte	0x8
 14169 4976 54000000 		.4byte	0x54
 14170 497a 00000000 		.4byte	.LFB263
 14171 497e 6C000000 		.4byte	.LFE263-.LFB263
 14172 4982 01       		.uleb128 0x1
 14173 4983 9C       		.byte	0x9c
 14174 4984 C2490000 		.4byte	0x49c2
 14175 4988 31       		.uleb128 0x31
 14176 4989 7B160000 		.4byte	.LASF773
 14177 498d 01       		.byte	0x1
 14178 498e FB01     		.2byte	0x1fb
 14179 4990 25       		.byte	0x25
 14180 4991 5E3A0000 		.4byte	0x3a5e
 14181 4995 32100000 		.4byte	.LLST22
 14182 4999 1E100000 		.4byte	.LVUS22
 14183 499d 3D       		.uleb128 0x3d
 14184 499e 2C000000 		.4byte	.LVL222
 14185 49a2 C2490000 		.4byte	0x49c2
 14186 49a6 3D       		.uleb128 0x3d
 14187 49a7 3E000000 		.4byte	.LVL223
 14188 49ab 024A0000 		.4byte	0x4a02
 14189 49af 3D       		.uleb128 0x3d
 14190 49b0 50000000 		.4byte	.LVL224
 14191 49b4 E2490000 		.4byte	0x49e2
 14192 49b8 30       		.uleb128 0x30
ARM GAS  /tmp/cczbsEFl.s 			page 250


 14193 49b9 66000000 		.4byte	.LVL227
 14194 49bd 095A0000 		.4byte	0x5a09
 14195 49c1 00       		.byte	0
 14196 49c2 3F       		.uleb128 0x3f
 14197 49c3 851B0000 		.4byte	.LASF778
 14198 49c7 01       		.byte	0x1
 14199 49c8 8C01     		.2byte	0x18c
 14200 49ca 08       		.byte	0x8
 14201 49cb 54000000 		.4byte	0x54
 14202 49cf 01       		.byte	0x1
 14203 49d0 E2490000 		.4byte	0x49e2
 14204 49d4 42       		.uleb128 0x42
 14205 49d5 65727200 		.ascii	"err\000"
 14206 49d9 01       		.byte	0x1
 14207 49da 8D01     		.2byte	0x18d
 14208 49dc 0C       		.byte	0xc
 14209 49dd 54000000 		.4byte	0x54
 14210 49e1 00       		.byte	0
 14211 49e2 3F       		.uleb128 0x3f
 14212 49e3 7D0F0000 		.4byte	.LASF779
 14213 49e7 01       		.byte	0x1
 14214 49e8 1F01     		.2byte	0x11f
 14215 49ea 08       		.byte	0x8
 14216 49eb 54000000 		.4byte	0x54
 14217 49ef 01       		.byte	0x1
 14218 49f0 024A0000 		.4byte	0x4a02
 14219 49f4 42       		.uleb128 0x42
 14220 49f5 65727200 		.ascii	"err\000"
 14221 49f9 01       		.byte	0x1
 14222 49fa 2001     		.2byte	0x120
 14223 49fc 0C       		.byte	0xc
 14224 49fd 54000000 		.4byte	0x54
 14225 4a01 00       		.byte	0
 14226 4a02 43       		.uleb128 0x43
 14227 4a03 E5090000 		.4byte	.LASF780
 14228 4a07 01       		.byte	0x1
 14229 4a08 B2       		.byte	0xb2
 14230 4a09 08       		.byte	0x8
 14231 4a0a 54000000 		.4byte	0x54
 14232 4a0e 01       		.byte	0x1
 14233 4a0f 204A0000 		.4byte	0x4a20
 14234 4a13 44       		.uleb128 0x44
 14235 4a14 65727200 		.ascii	"err\000"
 14236 4a18 01       		.byte	0x1
 14237 4a19 B3       		.byte	0xb3
 14238 4a1a 0C       		.byte	0xc
 14239 4a1b 54000000 		.4byte	0x54
 14240 4a1f 00       		.byte	0
 14241 4a20 43       		.uleb128 0x43
 14242 4a21 44200000 		.4byte	.LASF781
 14243 4a25 01       		.byte	0x1
 14244 4a26 84       		.byte	0x84
 14245 4a27 08       		.byte	0x8
 14246 4a28 54000000 		.4byte	0x54
 14247 4a2c 01       		.byte	0x1
 14248 4a2d 4A4A0000 		.4byte	0x4a4a
 14249 4a31 45       		.uleb128 0x45
ARM GAS  /tmp/cczbsEFl.s 			page 251


 14250 4a32 666D7400 		.ascii	"fmt\000"
 14251 4a36 01       		.byte	0x1
 14252 4a37 84       		.byte	0x84
 14253 4a38 23       		.byte	0x23
 14254 4a39 313A0000 		.4byte	0x3a31
 14255 4a3d 44       		.uleb128 0x44
 14256 4a3e 65727200 		.ascii	"err\000"
 14257 4a42 01       		.byte	0x1
 14258 4a43 85       		.byte	0x85
 14259 4a44 0C       		.byte	0xc
 14260 4a45 54000000 		.4byte	0x54
 14261 4a49 00       		.byte	0
 14262 4a4a 43       		.uleb128 0x43
 14263 4a4b 6A1F0000 		.4byte	.LASF782
 14264 4a4f 01       		.byte	0x1
 14265 4a50 76       		.byte	0x76
 14266 4a51 08       		.byte	0x8
 14267 4a52 54000000 		.4byte	0x54
 14268 4a56 01       		.byte	0x1
 14269 4a57 684A0000 		.4byte	0x4a68
 14270 4a5b 46       		.uleb128 0x46
 14271 4a5c F3170000 		.4byte	.LASF783
 14272 4a60 01       		.byte	0x1
 14273 4a61 76       		.byte	0x76
 14274 4a62 20       		.byte	0x20
 14275 4a63 92000000 		.4byte	0x92
 14276 4a67 00       		.byte	0
 14277 4a68 47       		.uleb128 0x47
 14278 4a69 FD130000 		.4byte	.LASF784
 14279 4a6d 01       		.byte	0x1
 14280 4a6e 5D       		.byte	0x5d
 14281 4a6f 08       		.byte	0x8
 14282 4a70 54000000 		.4byte	0x54
 14283 4a74 00000000 		.4byte	.LFB257
 14284 4a78 54000000 		.4byte	.LFE257-.LFB257
 14285 4a7c 01       		.uleb128 0x1
 14286 4a7d 9C       		.byte	0x9c
 14287 4a7e 004B0000 		.4byte	0x4b00
 14288 4a82 48       		.uleb128 0x48
 14289 4a83 696400   		.ascii	"id\000"
 14290 4a86 01       		.byte	0x1
 14291 4a87 5D       		.byte	0x5d
 14292 4a88 21       		.byte	0x21
 14293 4a89 004B0000 		.4byte	0x4b00
 14294 4a8d BB100000 		.4byte	.LLST0
 14295 4a91 B7100000 		.4byte	.LVUS0
 14296 4a95 2D       		.uleb128 0x2d
 14297 4a96 79020000 		.4byte	.LASF785
 14298 4a9a 01       		.byte	0x1
 14299 4a9b 5E       		.byte	0x5e
 14300 4a9c 0D       		.byte	0xd
 14301 4a9d 064B0000 		.4byte	0x4b06
 14302 4aa1 02       		.uleb128 0x2
 14303 4aa2 91       		.byte	0x91
 14304 4aa3 70       		.sleb128 -16
 14305 4aa4 49       		.uleb128 0x49
 14306 4aa5 65727200 		.ascii	"err\000"
ARM GAS  /tmp/cczbsEFl.s 			page 252


 14307 4aa9 01       		.byte	0x1
 14308 4aaa 5F       		.byte	0x5f
 14309 4aab 0C       		.byte	0xc
 14310 4aac 54000000 		.4byte	0x54
 14311 4ab0 DF100000 		.4byte	.LLST1
 14312 4ab4 D9100000 		.4byte	.LVUS1
 14313 4ab8 37       		.uleb128 0x37
 14314 4ab9 1E000000 		.4byte	.LVL3
 14315 4abd 1E5A0000 		.4byte	0x5a1e
 14316 4ac1 D74A0000 		.4byte	0x4ad7
 14317 4ac5 36       		.uleb128 0x36
 14318 4ac6 01       		.uleb128 0x1
 14319 4ac7 50       		.byte	0x50
 14320 4ac8 02       		.uleb128 0x2
 14321 4ac9 08       		.byte	0x8
 14322 4aca 6E       		.byte	0x6e
 14323 4acb 36       		.uleb128 0x36
 14324 4acc 01       		.uleb128 0x1
 14325 4acd 51       		.byte	0x51
 14326 4ace 01       		.uleb128 0x1
 14327 4acf 30       		.byte	0x30
 14328 4ad0 36       		.uleb128 0x36
 14329 4ad1 01       		.uleb128 0x1
 14330 4ad2 52       		.byte	0x52
 14331 4ad3 02       		.uleb128 0x2
 14332 4ad4 7D       		.byte	0x7d
 14333 4ad5 00       		.sleb128 0
 14334 4ad6 00       		.byte	0
 14335 4ad7 37       		.uleb128 0x37
 14336 4ad8 3A000000 		.4byte	.LVL6
 14337 4adc 1E5A0000 		.4byte	0x5a1e
 14338 4ae0 F64A0000 		.4byte	0x4af6
 14339 4ae4 36       		.uleb128 0x36
 14340 4ae5 01       		.uleb128 0x1
 14341 4ae6 50       		.byte	0x50
 14342 4ae7 02       		.uleb128 0x2
 14343 4ae8 08       		.byte	0x8
 14344 4ae9 6E       		.byte	0x6e
 14345 4aea 36       		.uleb128 0x36
 14346 4aeb 01       		.uleb128 0x1
 14347 4aec 51       		.byte	0x51
 14348 4aed 01       		.uleb128 0x1
 14349 4aee 31       		.byte	0x31
 14350 4aef 36       		.uleb128 0x36
 14351 4af0 01       		.uleb128 0x1
 14352 4af1 52       		.byte	0x52
 14353 4af2 02       		.uleb128 0x2
 14354 4af3 91       		.byte	0x91
 14355 4af4 71       		.sleb128 -15
 14356 4af5 00       		.byte	0
 14357 4af6 30       		.uleb128 0x30
 14358 4af7 50000000 		.4byte	.LVL7
 14359 4afb 095A0000 		.4byte	0x5a09
 14360 4aff 00       		.byte	0
 14361 4b00 0B       		.uleb128 0xb
 14362 4b01 04       		.byte	0x4
 14363 4b02 AA000000 		.4byte	0xaa
ARM GAS  /tmp/cczbsEFl.s 			page 253


 14364 4b06 13       		.uleb128 0x13
 14365 4b07 92000000 		.4byte	0x92
 14366 4b0b 164B0000 		.4byte	0x4b16
 14367 4b0f 14       		.uleb128 0x14
 14368 4b10 2C000000 		.4byte	0x2c
 14369 4b14 01       		.byte	0x1
 14370 4b15 00       		.byte	0
 14371 4b16 4A       		.uleb128 0x4a
 14372 4b17 4A4A0000 		.4byte	0x4a4a
 14373 4b1b 00000000 		.4byte	.LFB258
 14374 4b1f 30000000 		.4byte	.LFE258-.LFB258
 14375 4b23 01       		.uleb128 0x1
 14376 4b24 9C       		.byte	0x9c
 14377 4b25 594B0000 		.4byte	0x4b59
 14378 4b29 34       		.uleb128 0x34
 14379 4b2a 5B4A0000 		.4byte	0x4a5b
 14380 4b2e 11110000 		.4byte	.LLST2
 14381 4b32 09110000 		.4byte	.LVUS2
 14382 4b36 38       		.uleb128 0x38
 14383 4b37 28000000 		.4byte	.LVL10
 14384 4b3b 125A0000 		.4byte	0x5a12
 14385 4b3f 4F4B0000 		.4byte	0x4b4f
 14386 4b43 36       		.uleb128 0x36
 14387 4b44 01       		.uleb128 0x1
 14388 4b45 50       		.byte	0x50
 14389 4b46 02       		.uleb128 0x2
 14390 4b47 08       		.byte	0x8
 14391 4b48 6E       		.byte	0x6e
 14392 4b49 36       		.uleb128 0x36
 14393 4b4a 01       		.uleb128 0x1
 14394 4b4b 51       		.byte	0x51
 14395 4b4c 01       		.uleb128 0x1
 14396 4b4d 33       		.byte	0x33
 14397 4b4e 00       		.byte	0
 14398 4b4f 30       		.uleb128 0x30
 14399 4b50 2C000000 		.4byte	.LVL11
 14400 4b54 095A0000 		.4byte	0x5a09
 14401 4b58 00       		.byte	0
 14402 4b59 4A       		.uleb128 0x4a
 14403 4b5a 204A0000 		.4byte	0x4a20
 14404 4b5e 00000000 		.4byte	.LFB259
 14405 4b62 AC000000 		.4byte	.LFE259-.LFB259
 14406 4b66 01       		.uleb128 0x1
 14407 4b67 9C       		.byte	0x9c
 14408 4b68 204D0000 		.4byte	0x4d20
 14409 4b6c 34       		.uleb128 0x34
 14410 4b6d 314A0000 		.4byte	0x4a31
 14411 4b71 4F110000 		.4byte	.LLST3
 14412 4b75 4B110000 		.4byte	.LVUS3
 14413 4b79 4B       		.uleb128 0x4b
 14414 4b7a 3D4A0000 		.4byte	0x4a3d
 14415 4b7e 7A110000 		.4byte	.LLST4
 14416 4b82 70110000 		.4byte	.LVUS4
 14417 4b86 4C       		.uleb128 0x4c
 14418 4b87 4A4A0000 		.4byte	0x4a4a
 14419 4b8b 16000000 		.4byte	.LBI76
 14420 4b8f 0200     		.2byte	.LVU40
ARM GAS  /tmp/cczbsEFl.s 			page 254


 14421 4b91 00000000 		.4byte	.Ldebug_ranges0+0
 14422 4b95 01       		.byte	0x1
 14423 4b96 87       		.byte	0x87
 14424 4b97 0F       		.byte	0xf
 14425 4b98 C44B0000 		.4byte	0x4bc4
 14426 4b9c 34       		.uleb128 0x34
 14427 4b9d 5B4A0000 		.4byte	0x4a5b
 14428 4ba1 BC110000 		.4byte	.LLST5
 14429 4ba5 BA110000 		.4byte	.LVUS5
 14430 4ba9 35       		.uleb128 0x35
 14431 4baa 1A000000 		.4byte	.LVL15
 14432 4bae 125A0000 		.4byte	0x5a12
 14433 4bb2 36       		.uleb128 0x36
 14434 4bb3 01       		.uleb128 0x1
 14435 4bb4 50       		.byte	0x50
 14436 4bb5 02       		.uleb128 0x2
 14437 4bb6 08       		.byte	0x8
 14438 4bb7 6E       		.byte	0x6e
 14439 4bb8 36       		.uleb128 0x36
 14440 4bb9 01       		.uleb128 0x1
 14441 4bba 51       		.byte	0x51
 14442 4bbb 01       		.uleb128 0x1
 14443 4bbc 33       		.byte	0x33
 14444 4bbd 36       		.uleb128 0x36
 14445 4bbe 01       		.uleb128 0x1
 14446 4bbf 52       		.byte	0x52
 14447 4bc0 01       		.uleb128 0x1
 14448 4bc1 31       		.byte	0x31
 14449 4bc2 00       		.byte	0
 14450 4bc3 00       		.byte	0
 14451 4bc4 4D       		.uleb128 0x4d
 14452 4bc5 204A0000 		.4byte	0x4a20
 14453 4bc9 3E000000 		.4byte	.LBI80
 14454 4bcd 0000     		.2byte	.LVU50
 14455 4bcf 3E000000 		.4byte	.LBB80
 14456 4bd3 62000000 		.4byte	.LBE80-.LBB80
 14457 4bd7 01       		.byte	0x1
 14458 4bd8 84       		.byte	0x84
 14459 4bd9 08       		.byte	0x8
 14460 4bda F64C0000 		.4byte	0x4cf6
 14461 4bde 34       		.uleb128 0x34
 14462 4bdf 314A0000 		.4byte	0x4a31
 14463 4be3 D2110000 		.4byte	.LLST6
 14464 4be7 D0110000 		.4byte	.LVUS6
 14465 4beb 4B       		.uleb128 0x4b
 14466 4bec 3D4A0000 		.4byte	0x4a3d
 14467 4bf0 F1110000 		.4byte	.LLST7
 14468 4bf4 E5110000 		.4byte	.LVUS7
 14469 4bf8 4D       		.uleb128 0x4d
 14470 4bf9 4A4A0000 		.4byte	0x4a4a
 14471 4bfd 52000000 		.4byte	.LBI82
 14472 4c01 0100     		.2byte	.LVU59
 14473 4c03 52000000 		.4byte	.LBB82
 14474 4c07 0A000000 		.4byte	.LBE82-.LBB82
 14475 4c0b 01       		.byte	0x1
 14476 4c0c 9D       		.byte	0x9d
 14477 4c0d 13       		.byte	0x13
ARM GAS  /tmp/cczbsEFl.s 			page 255


 14478 4c0e 3B4C0000 		.4byte	0x4c3b
 14479 4c12 34       		.uleb128 0x34
 14480 4c13 5B4A0000 		.4byte	0x4a5b
 14481 4c17 3D120000 		.4byte	.LLST8
 14482 4c1b 3B120000 		.4byte	.LVUS8
 14483 4c1f 35       		.uleb128 0x35
 14484 4c20 5C000000 		.4byte	.LVL25
 14485 4c24 125A0000 		.4byte	0x5a12
 14486 4c28 36       		.uleb128 0x36
 14487 4c29 01       		.uleb128 0x1
 14488 4c2a 50       		.byte	0x50
 14489 4c2b 02       		.uleb128 0x2
 14490 4c2c 08       		.byte	0x8
 14491 4c2d 6E       		.byte	0x6e
 14492 4c2e 36       		.uleb128 0x36
 14493 4c2f 01       		.uleb128 0x1
 14494 4c30 51       		.byte	0x51
 14495 4c31 01       		.uleb128 0x1
 14496 4c32 33       		.byte	0x33
 14497 4c33 36       		.uleb128 0x36
 14498 4c34 01       		.uleb128 0x1
 14499 4c35 52       		.byte	0x52
 14500 4c36 02       		.uleb128 0x2
 14501 4c37 74       		.byte	0x74
 14502 4c38 00       		.sleb128 0
 14503 4c39 00       		.byte	0
 14504 4c3a 00       		.byte	0
 14505 4c3b 4D       		.uleb128 0x4d
 14506 4c3c 4A4A0000 		.4byte	0x4a4a
 14507 4c40 82000000 		.4byte	.LBI84
 14508 4c44 0100     		.2byte	.LVU78
 14509 4c46 82000000 		.4byte	.LBB84
 14510 4c4a 0A000000 		.4byte	.LBE84-.LBB84
 14511 4c4e 01       		.byte	0x1
 14512 4c4f 93       		.byte	0x93
 14513 4c50 13       		.byte	0x13
 14514 4c51 7E4C0000 		.4byte	0x4c7e
 14515 4c55 34       		.uleb128 0x34
 14516 4c56 5B4A0000 		.4byte	0x4a5b
 14517 4c5a 53120000 		.4byte	.LLST9
 14518 4c5e 51120000 		.4byte	.LVUS9
 14519 4c62 35       		.uleb128 0x35
 14520 4c63 8C000000 		.4byte	.LVL33
 14521 4c67 125A0000 		.4byte	0x5a12
 14522 4c6b 36       		.uleb128 0x36
 14523 4c6c 01       		.uleb128 0x1
 14524 4c6d 50       		.byte	0x50
 14525 4c6e 02       		.uleb128 0x2
 14526 4c6f 08       		.byte	0x8
 14527 4c70 6E       		.byte	0x6e
 14528 4c71 36       		.uleb128 0x36
 14529 4c72 01       		.uleb128 0x1
 14530 4c73 51       		.byte	0x51
 14531 4c74 01       		.uleb128 0x1
 14532 4c75 33       		.byte	0x33
 14533 4c76 36       		.uleb128 0x36
 14534 4c77 01       		.uleb128 0x1
ARM GAS  /tmp/cczbsEFl.s 			page 256


 14535 4c78 52       		.byte	0x52
 14536 4c79 02       		.uleb128 0x2
 14537 4c7a 74       		.byte	0x74
 14538 4c7b 00       		.sleb128 0
 14539 4c7c 00       		.byte	0
 14540 4c7d 00       		.byte	0
 14541 4c7e 37       		.uleb128 0x37
 14542 4c7f 4C000000 		.4byte	.LVL22
 14543 4c83 125A0000 		.4byte	0x5a12
 14544 4c87 9E4C0000 		.4byte	0x4c9e
 14545 4c8b 36       		.uleb128 0x36
 14546 4c8c 01       		.uleb128 0x1
 14547 4c8d 50       		.byte	0x50
 14548 4c8e 02       		.uleb128 0x2
 14549 4c8f 08       		.byte	0x8
 14550 4c90 6E       		.byte	0x6e
 14551 4c91 36       		.uleb128 0x36
 14552 4c92 01       		.uleb128 0x1
 14553 4c93 51       		.byte	0x51
 14554 4c94 02       		.uleb128 0x2
 14555 4c95 09       		.byte	0x9
 14556 4c96 B7       		.byte	0xb7
 14557 4c97 36       		.uleb128 0x36
 14558 4c98 01       		.uleb128 0x1
 14559 4c99 52       		.byte	0x52
 14560 4c9a 02       		.uleb128 0x2
 14561 4c9b 74       		.byte	0x74
 14562 4c9c 00       		.sleb128 0
 14563 4c9d 00       		.byte	0
 14564 4c9e 37       		.uleb128 0x37
 14565 4c9f 6A000000 		.4byte	.LVL27
 14566 4ca3 125A0000 		.4byte	0x5a12
 14567 4ca7 BC4C0000 		.4byte	0x4cbc
 14568 4cab 36       		.uleb128 0x36
 14569 4cac 01       		.uleb128 0x1
 14570 4cad 50       		.byte	0x50
 14571 4cae 02       		.uleb128 0x2
 14572 4caf 08       		.byte	0x8
 14573 4cb0 6E       		.byte	0x6e
 14574 4cb1 36       		.uleb128 0x36
 14575 4cb2 01       		.uleb128 0x1
 14576 4cb3 51       		.byte	0x51
 14577 4cb4 01       		.uleb128 0x1
 14578 4cb5 41       		.byte	0x41
 14579 4cb6 36       		.uleb128 0x36
 14580 4cb7 01       		.uleb128 0x1
 14581 4cb8 52       		.byte	0x52
 14582 4cb9 01       		.uleb128 0x1
 14583 4cba 3A       		.byte	0x3a
 14584 4cbb 00       		.byte	0
 14585 4cbc 37       		.uleb128 0x37
 14586 4cbd 7E000000 		.4byte	.LVL30
 14587 4cc1 125A0000 		.4byte	0x5a12
 14588 4cc5 DB4C0000 		.4byte	0x4cdb
 14589 4cc9 36       		.uleb128 0x36
 14590 4cca 01       		.uleb128 0x1
 14591 4ccb 50       		.byte	0x50
ARM GAS  /tmp/cczbsEFl.s 			page 257


 14592 4ccc 02       		.uleb128 0x2
 14593 4ccd 08       		.byte	0x8
 14594 4cce 6E       		.byte	0x6e
 14595 4ccf 36       		.uleb128 0x36
 14596 4cd0 01       		.uleb128 0x1
 14597 4cd1 51       		.byte	0x51
 14598 4cd2 02       		.uleb128 0x2
 14599 4cd3 09       		.byte	0x9
 14600 4cd4 B7       		.byte	0xb7
 14601 4cd5 36       		.uleb128 0x36
 14602 4cd6 01       		.uleb128 0x1
 14603 4cd7 52       		.byte	0x52
 14604 4cd8 01       		.uleb128 0x1
 14605 4cd9 31       		.byte	0x31
 14606 4cda 00       		.byte	0
 14607 4cdb 35       		.uleb128 0x35
 14608 4cdc 9A000000 		.4byte	.LVL35
 14609 4ce0 125A0000 		.4byte	0x5a12
 14610 4ce4 36       		.uleb128 0x36
 14611 4ce5 01       		.uleb128 0x1
 14612 4ce6 50       		.byte	0x50
 14613 4ce7 02       		.uleb128 0x2
 14614 4ce8 08       		.byte	0x8
 14615 4ce9 6E       		.byte	0x6e
 14616 4cea 36       		.uleb128 0x36
 14617 4ceb 01       		.uleb128 0x1
 14618 4cec 51       		.byte	0x51
 14619 4ced 01       		.uleb128 0x1
 14620 4cee 41       		.byte	0x41
 14621 4cef 36       		.uleb128 0x36
 14622 4cf0 01       		.uleb128 0x1
 14623 4cf1 52       		.byte	0x52
 14624 4cf2 01       		.uleb128 0x1
 14625 4cf3 33       		.byte	0x33
 14626 4cf4 00       		.byte	0
 14627 4cf5 00       		.byte	0
 14628 4cf6 37       		.uleb128 0x37
 14629 4cf7 38000000 		.4byte	.LVL19
 14630 4cfb 125A0000 		.4byte	0x5a12
 14631 4cff 164D0000 		.4byte	0x4d16
 14632 4d03 36       		.uleb128 0x36
 14633 4d04 01       		.uleb128 0x1
 14634 4d05 50       		.byte	0x50
 14635 4d06 02       		.uleb128 0x2
 14636 4d07 08       		.byte	0x8
 14637 4d08 6E       		.byte	0x6e
 14638 4d09 36       		.uleb128 0x36
 14639 4d0a 01       		.uleb128 0x1
 14640 4d0b 51       		.byte	0x51
 14641 4d0c 02       		.uleb128 0x2
 14642 4d0d 08       		.byte	0x8
 14643 4d0e 4E       		.byte	0x4e
 14644 4d0f 36       		.uleb128 0x36
 14645 4d10 01       		.uleb128 0x1
 14646 4d11 52       		.byte	0x52
 14647 4d12 02       		.uleb128 0x2
 14648 4d13 75       		.byte	0x75
ARM GAS  /tmp/cczbsEFl.s 			page 258


 14649 4d14 00       		.sleb128 0
 14650 4d15 00       		.byte	0
 14651 4d16 30       		.uleb128 0x30
 14652 4d17 A4000000 		.4byte	.LVL37
 14653 4d1b 095A0000 		.4byte	0x5a09
 14654 4d1f 00       		.byte	0
 14655 4d20 4A       		.uleb128 0x4a
 14656 4d21 024A0000 		.4byte	0x4a02
 14657 4d25 00000000 		.4byte	.LFB260
 14658 4d29 DC010000 		.4byte	.LFE260-.LFB260
 14659 4d2d 01       		.uleb128 0x1
 14660 4d2e 9C       		.byte	0x9c
 14661 4d2f F9500000 		.4byte	0x50f9
 14662 4d33 4B       		.uleb128 0x4b
 14663 4d34 134A0000 		.4byte	0x4a13
 14664 4d38 75120000 		.4byte	.LLST10
 14665 4d3c 67120000 		.4byte	.LVUS10
 14666 4d40 4C       		.uleb128 0x4c
 14667 4d41 4A4A0000 		.4byte	0x4a4a
 14668 4d45 14000000 		.4byte	.LBI94
 14669 4d49 0200     		.2byte	.LVU95
 14670 4d4b 18000000 		.4byte	.Ldebug_ranges0+0x18
 14671 4d4f 01       		.byte	0x1
 14672 4d50 B5       		.byte	0xb5
 14673 4d51 0F       		.byte	0xf
 14674 4d52 7E4D0000 		.4byte	0x4d7e
 14675 4d56 34       		.uleb128 0x34
 14676 4d57 5B4A0000 		.4byte	0x4a5b
 14677 4d5b CD120000 		.4byte	.LLST11
 14678 4d5f CB120000 		.4byte	.LVUS11
 14679 4d63 35       		.uleb128 0x35
 14680 4d64 18000000 		.4byte	.LVL39
 14681 4d68 125A0000 		.4byte	0x5a12
 14682 4d6c 36       		.uleb128 0x36
 14683 4d6d 01       		.uleb128 0x1
 14684 4d6e 50       		.byte	0x50
 14685 4d6f 02       		.uleb128 0x2
 14686 4d70 08       		.byte	0x8
 14687 4d71 6E       		.byte	0x6e
 14688 4d72 36       		.uleb128 0x36
 14689 4d73 01       		.uleb128 0x1
 14690 4d74 51       		.byte	0x51
 14691 4d75 01       		.uleb128 0x1
 14692 4d76 33       		.byte	0x33
 14693 4d77 36       		.uleb128 0x36
 14694 4d78 01       		.uleb128 0x1
 14695 4d79 52       		.byte	0x52
 14696 4d7a 01       		.uleb128 0x1
 14697 4d7b 30       		.byte	0x30
 14698 4d7c 00       		.byte	0
 14699 4d7d 00       		.byte	0
 14700 4d7e 4D       		.uleb128 0x4d
 14701 4d7f 024A0000 		.4byte	0x4a02
 14702 4d83 64000000 		.4byte	.LBI98
 14703 4d87 0000     		.2byte	.LVU117
 14704 4d89 64000000 		.4byte	.LBB98
 14705 4d8d 66010000 		.4byte	.LBE98-.LBB98
ARM GAS  /tmp/cczbsEFl.s 			page 259


 14706 4d91 01       		.byte	0x1
 14707 4d92 B2       		.byte	0xb2
 14708 4d93 08       		.byte	0x8
 14709 4d94 81500000 		.4byte	0x5081
 14710 4d98 4B       		.uleb128 0x4b
 14711 4d99 134A0000 		.4byte	0x4a13
 14712 4d9d 0F130000 		.4byte	.LLST12
 14713 4da1 E1120000 		.4byte	.LVUS12
 14714 4da5 33       		.uleb128 0x33
 14715 4da6 4A4A0000 		.4byte	0x4a4a
 14716 4daa 8C010000 		.4byte	.LBI100
 14717 4dae 0100     		.2byte	.LVU199
 14718 4db0 8C010000 		.4byte	.LBB100
 14719 4db4 0A000000 		.4byte	.LBE100-.LBB100
 14720 4db8 01       		.byte	0x1
 14721 4db9 0401     		.2byte	0x104
 14722 4dbb 0F       		.byte	0xf
 14723 4dbc E84D0000 		.4byte	0x4de8
 14724 4dc0 34       		.uleb128 0x34
 14725 4dc1 5B4A0000 		.4byte	0x4a5b
 14726 4dc5 16140000 		.4byte	.LLST13
 14727 4dc9 14140000 		.4byte	.LVUS13
 14728 4dcd 35       		.uleb128 0x35
 14729 4dce 96010000 		.4byte	.LVL92
 14730 4dd2 125A0000 		.4byte	0x5a12
 14731 4dd6 36       		.uleb128 0x36
 14732 4dd7 01       		.uleb128 0x1
 14733 4dd8 50       		.byte	0x50
 14734 4dd9 02       		.uleb128 0x2
 14735 4dda 08       		.byte	0x8
 14736 4ddb 6E       		.byte	0x6e
 14737 4ddc 36       		.uleb128 0x36
 14738 4ddd 01       		.uleb128 0x1
 14739 4dde 51       		.byte	0x51
 14740 4ddf 01       		.uleb128 0x1
 14741 4de0 33       		.byte	0x33
 14742 4de1 36       		.uleb128 0x36
 14743 4de2 01       		.uleb128 0x1
 14744 4de3 52       		.byte	0x52
 14745 4de4 01       		.uleb128 0x1
 14746 4de5 31       		.byte	0x31
 14747 4de6 00       		.byte	0
 14748 4de7 00       		.byte	0
 14749 4de8 37       		.uleb128 0x37
 14750 4de9 6E000000 		.4byte	.LVL51
 14751 4ded 125A0000 		.4byte	0x5a12
 14752 4df1 064E0000 		.4byte	0x4e06
 14753 4df5 36       		.uleb128 0x36
 14754 4df6 01       		.uleb128 0x1
 14755 4df7 50       		.byte	0x50
 14756 4df8 02       		.uleb128 0x2
 14757 4df9 08       		.byte	0x8
 14758 4dfa 6E       		.byte	0x6e
 14759 4dfb 36       		.uleb128 0x36
 14760 4dfc 01       		.uleb128 0x1
 14761 4dfd 51       		.byte	0x51
 14762 4dfe 01       		.uleb128 0x1
ARM GAS  /tmp/cczbsEFl.s 			page 260


 14763 4dff 3C       		.byte	0x3c
 14764 4e00 36       		.uleb128 0x36
 14765 4e01 01       		.uleb128 0x1
 14766 4e02 52       		.byte	0x52
 14767 4e03 01       		.uleb128 0x1
 14768 4e04 32       		.byte	0x32
 14769 4e05 00       		.byte	0
 14770 4e06 37       		.uleb128 0x37
 14771 4e07 7C000000 		.4byte	.LVL53
 14772 4e0b 125A0000 		.4byte	0x5a12
 14773 4e0f 254E0000 		.4byte	0x4e25
 14774 4e13 36       		.uleb128 0x36
 14775 4e14 01       		.uleb128 0x1
 14776 4e15 50       		.byte	0x50
 14777 4e16 02       		.uleb128 0x2
 14778 4e17 08       		.byte	0x8
 14779 4e18 6E       		.byte	0x6e
 14780 4e19 36       		.uleb128 0x36
 14781 4e1a 01       		.uleb128 0x1
 14782 4e1b 51       		.byte	0x51
 14783 4e1c 01       		.uleb128 0x1
 14784 4e1d 3D       		.byte	0x3d
 14785 4e1e 36       		.uleb128 0x36
 14786 4e1f 01       		.uleb128 0x1
 14787 4e20 52       		.byte	0x52
 14788 4e21 02       		.uleb128 0x2
 14789 4e22 09       		.byte	0x9
 14790 4e23 80       		.byte	0x80
 14791 4e24 00       		.byte	0
 14792 4e25 37       		.uleb128 0x37
 14793 4e26 8A000000 		.4byte	.LVL55
 14794 4e2a 125A0000 		.4byte	0x5a12
 14795 4e2e 434E0000 		.4byte	0x4e43
 14796 4e32 36       		.uleb128 0x36
 14797 4e33 01       		.uleb128 0x1
 14798 4e34 50       		.byte	0x50
 14799 4e35 02       		.uleb128 0x2
 14800 4e36 08       		.byte	0x8
 14801 4e37 6E       		.byte	0x6e
 14802 4e38 36       		.uleb128 0x36
 14803 4e39 01       		.uleb128 0x1
 14804 4e3a 51       		.byte	0x51
 14805 4e3b 01       		.uleb128 0x1
 14806 4e3c 3E       		.byte	0x3e
 14807 4e3d 36       		.uleb128 0x36
 14808 4e3e 01       		.uleb128 0x1
 14809 4e3f 52       		.byte	0x52
 14810 4e40 01       		.uleb128 0x1
 14811 4e41 31       		.byte	0x31
 14812 4e42 00       		.byte	0
 14813 4e43 37       		.uleb128 0x37
 14814 4e44 98000000 		.4byte	.LVL57
 14815 4e48 125A0000 		.4byte	0x5a12
 14816 4e4c 624E0000 		.4byte	0x4e62
 14817 4e50 36       		.uleb128 0x36
 14818 4e51 01       		.uleb128 0x1
 14819 4e52 50       		.byte	0x50
ARM GAS  /tmp/cczbsEFl.s 			page 261


 14820 4e53 02       		.uleb128 0x2
 14821 4e54 08       		.byte	0x8
 14822 4e55 6E       		.byte	0x6e
 14823 4e56 36       		.uleb128 0x36
 14824 4e57 01       		.uleb128 0x1
 14825 4e58 51       		.byte	0x51
 14826 4e59 01       		.uleb128 0x1
 14827 4e5a 3F       		.byte	0x3f
 14828 4e5b 36       		.uleb128 0x36
 14829 4e5c 01       		.uleb128 0x1
 14830 4e5d 52       		.byte	0x52
 14831 4e5e 02       		.uleb128 0x2
 14832 4e5f 09       		.byte	0x9
 14833 4e60 E0       		.byte	0xe0
 14834 4e61 00       		.byte	0
 14835 4e62 37       		.uleb128 0x37
 14836 4e63 A6000000 		.4byte	.LVL59
 14837 4e67 125A0000 		.4byte	0x5a12
 14838 4e6b 7C4E0000 		.4byte	0x4e7c
 14839 4e6f 36       		.uleb128 0x36
 14840 4e70 01       		.uleb128 0x1
 14841 4e71 50       		.byte	0x50
 14842 4e72 02       		.uleb128 0x2
 14843 4e73 08       		.byte	0x8
 14844 4e74 6E       		.byte	0x6e
 14845 4e75 36       		.uleb128 0x36
 14846 4e76 01       		.uleb128 0x1
 14847 4e77 51       		.byte	0x51
 14848 4e78 02       		.uleb128 0x2
 14849 4e79 08       		.byte	0x8
 14850 4e7a 35       		.byte	0x35
 14851 4e7b 00       		.byte	0
 14852 4e7c 37       		.uleb128 0x37
 14853 4e7d B4000000 		.4byte	.LVL61
 14854 4e81 125A0000 		.4byte	0x5a12
 14855 4e85 9B4E0000 		.4byte	0x4e9b
 14856 4e89 36       		.uleb128 0x36
 14857 4e8a 01       		.uleb128 0x1
 14858 4e8b 50       		.byte	0x50
 14859 4e8c 02       		.uleb128 0x2
 14860 4e8d 08       		.byte	0x8
 14861 4e8e 6E       		.byte	0x6e
 14862 4e8f 36       		.uleb128 0x36
 14863 4e90 01       		.uleb128 0x1
 14864 4e91 51       		.byte	0x51
 14865 4e92 02       		.uleb128 0x2
 14866 4e93 08       		.byte	0x8
 14867 4e94 36       		.byte	0x36
 14868 4e95 36       		.uleb128 0x36
 14869 4e96 01       		.uleb128 0x1
 14870 4e97 52       		.byte	0x52
 14871 4e98 01       		.uleb128 0x1
 14872 4e99 31       		.byte	0x31
 14873 4e9a 00       		.byte	0
 14874 4e9b 37       		.uleb128 0x37
 14875 4e9c C2000000 		.4byte	.LVL63
 14876 4ea0 125A0000 		.4byte	0x5a12
ARM GAS  /tmp/cczbsEFl.s 			page 262


 14877 4ea4 BA4E0000 		.4byte	0x4eba
 14878 4ea8 36       		.uleb128 0x36
 14879 4ea9 01       		.uleb128 0x1
 14880 4eaa 50       		.byte	0x50
 14881 4eab 02       		.uleb128 0x2
 14882 4eac 08       		.byte	0x8
 14883 4ead 6E       		.byte	0x6e
 14884 4eae 36       		.uleb128 0x36
 14885 4eaf 01       		.uleb128 0x1
 14886 4eb0 51       		.byte	0x51
 14887 4eb1 02       		.uleb128 0x2
 14888 4eb2 08       		.byte	0x8
 14889 4eb3 37       		.byte	0x37
 14890 4eb4 36       		.uleb128 0x36
 14891 4eb5 01       		.uleb128 0x1
 14892 4eb6 52       		.byte	0x52
 14893 4eb7 01       		.uleb128 0x1
 14894 4eb8 32       		.byte	0x32
 14895 4eb9 00       		.byte	0
 14896 4eba 37       		.uleb128 0x37
 14897 4ebb D0000000 		.4byte	.LVL65
 14898 4ebf 125A0000 		.4byte	0x5a12
 14899 4ec3 DA4E0000 		.4byte	0x4eda
 14900 4ec7 36       		.uleb128 0x36
 14901 4ec8 01       		.uleb128 0x1
 14902 4ec9 50       		.byte	0x50
 14903 4eca 02       		.uleb128 0x2
 14904 4ecb 08       		.byte	0x8
 14905 4ecc 6E       		.byte	0x6e
 14906 4ecd 36       		.uleb128 0x36
 14907 4ece 01       		.uleb128 0x1
 14908 4ecf 51       		.byte	0x51
 14909 4ed0 02       		.uleb128 0x2
 14910 4ed1 08       		.byte	0x8
 14911 4ed2 38       		.byte	0x38
 14912 4ed3 36       		.uleb128 0x36
 14913 4ed4 01       		.uleb128 0x1
 14914 4ed5 52       		.byte	0x52
 14915 4ed6 02       		.uleb128 0x2
 14916 4ed7 09       		.byte	0x9
 14917 4ed8 80       		.byte	0x80
 14918 4ed9 00       		.byte	0
 14919 4eda 37       		.uleb128 0x37
 14920 4edb DE000000 		.4byte	.LVL67
 14921 4edf 125A0000 		.4byte	0x5a12
 14922 4ee3 F44E0000 		.4byte	0x4ef4
 14923 4ee7 36       		.uleb128 0x36
 14924 4ee8 01       		.uleb128 0x1
 14925 4ee9 50       		.byte	0x50
 14926 4eea 02       		.uleb128 0x2
 14927 4eeb 08       		.byte	0x8
 14928 4eec 6E       		.byte	0x6e
 14929 4eed 36       		.uleb128 0x36
 14930 4eee 01       		.uleb128 0x1
 14931 4eef 51       		.byte	0x51
 14932 4ef0 02       		.uleb128 0x2
 14933 4ef1 08       		.byte	0x8
ARM GAS  /tmp/cczbsEFl.s 			page 263


 14934 4ef2 39       		.byte	0x39
 14935 4ef3 00       		.byte	0
 14936 4ef4 37       		.uleb128 0x37
 14937 4ef5 EC000000 		.4byte	.LVL69
 14938 4ef9 125A0000 		.4byte	0x5a12
 14939 4efd 134F0000 		.4byte	0x4f13
 14940 4f01 36       		.uleb128 0x36
 14941 4f02 01       		.uleb128 0x1
 14942 4f03 50       		.byte	0x50
 14943 4f04 02       		.uleb128 0x2
 14944 4f05 08       		.byte	0x8
 14945 4f06 6E       		.byte	0x6e
 14946 4f07 36       		.uleb128 0x36
 14947 4f08 01       		.uleb128 0x1
 14948 4f09 51       		.byte	0x51
 14949 4f0a 02       		.uleb128 0x2
 14950 4f0b 08       		.byte	0x8
 14951 4f0c 3A       		.byte	0x3a
 14952 4f0d 36       		.uleb128 0x36
 14953 4f0e 01       		.uleb128 0x1
 14954 4f0f 52       		.byte	0x52
 14955 4f10 01       		.uleb128 0x1
 14956 4f11 31       		.byte	0x31
 14957 4f12 00       		.byte	0
 14958 4f13 37       		.uleb128 0x37
 14959 4f14 FA000000 		.4byte	.LVL71
 14960 4f18 125A0000 		.4byte	0x5a12
 14961 4f1c 324F0000 		.4byte	0x4f32
 14962 4f20 36       		.uleb128 0x36
 14963 4f21 01       		.uleb128 0x1
 14964 4f22 50       		.byte	0x50
 14965 4f23 02       		.uleb128 0x2
 14966 4f24 08       		.byte	0x8
 14967 4f25 6E       		.byte	0x6e
 14968 4f26 36       		.uleb128 0x36
 14969 4f27 01       		.uleb128 0x1
 14970 4f28 51       		.byte	0x51
 14971 4f29 02       		.uleb128 0x2
 14972 4f2a 08       		.byte	0x8
 14973 4f2b 3B       		.byte	0x3b
 14974 4f2c 36       		.uleb128 0x36
 14975 4f2d 01       		.uleb128 0x1
 14976 4f2e 52       		.byte	0x52
 14977 4f2f 01       		.uleb128 0x1
 14978 4f30 31       		.byte	0x31
 14979 4f31 00       		.byte	0
 14980 4f32 37       		.uleb128 0x37
 14981 4f33 08010000 		.4byte	.LVL73
 14982 4f37 125A0000 		.4byte	0x5a12
 14983 4f3b 524F0000 		.4byte	0x4f52
 14984 4f3f 36       		.uleb128 0x36
 14985 4f40 01       		.uleb128 0x1
 14986 4f41 50       		.byte	0x50
 14987 4f42 02       		.uleb128 0x2
 14988 4f43 08       		.byte	0x8
 14989 4f44 6E       		.byte	0x6e
 14990 4f45 36       		.uleb128 0x36
ARM GAS  /tmp/cczbsEFl.s 			page 264


 14991 4f46 01       		.uleb128 0x1
 14992 4f47 51       		.byte	0x51
 14993 4f48 02       		.uleb128 0x2
 14994 4f49 08       		.byte	0x8
 14995 4f4a 3C       		.byte	0x3c
 14996 4f4b 36       		.uleb128 0x36
 14997 4f4c 01       		.uleb128 0x1
 14998 4f4d 52       		.byte	0x52
 14999 4f4e 02       		.uleb128 0x2
 15000 4f4f 09       		.byte	0x9
 15001 4f50 E0       		.byte	0xe0
 15002 4f51 00       		.byte	0
 15003 4f52 37       		.uleb128 0x37
 15004 4f53 16010000 		.4byte	.LVL75
 15005 4f57 125A0000 		.4byte	0x5a12
 15006 4f5b 6C4F0000 		.4byte	0x4f6c
 15007 4f5f 36       		.uleb128 0x36
 15008 4f60 01       		.uleb128 0x1
 15009 4f61 50       		.byte	0x50
 15010 4f62 02       		.uleb128 0x2
 15011 4f63 08       		.byte	0x8
 15012 4f64 6E       		.byte	0x6e
 15013 4f65 36       		.uleb128 0x36
 15014 4f66 01       		.uleb128 0x1
 15015 4f67 51       		.byte	0x51
 15016 4f68 02       		.uleb128 0x2
 15017 4f69 08       		.byte	0x8
 15018 4f6a 3D       		.byte	0x3d
 15019 4f6b 00       		.byte	0
 15020 4f6c 37       		.uleb128 0x37
 15021 4f6d 26010000 		.4byte	.LVL77
 15022 4f71 125A0000 		.4byte	0x5a12
 15023 4f75 8C4F0000 		.4byte	0x4f8c
 15024 4f79 36       		.uleb128 0x36
 15025 4f7a 01       		.uleb128 0x1
 15026 4f7b 50       		.byte	0x50
 15027 4f7c 02       		.uleb128 0x2
 15028 4f7d 08       		.byte	0x8
 15029 4f7e 6E       		.byte	0x6e
 15030 4f7f 36       		.uleb128 0x36
 15031 4f80 01       		.uleb128 0x1
 15032 4f81 51       		.byte	0x51
 15033 4f82 02       		.uleb128 0x2
 15034 4f83 08       		.byte	0x8
 15035 4f84 3E       		.byte	0x3e
 15036 4f85 36       		.uleb128 0x36
 15037 4f86 01       		.uleb128 0x1
 15038 4f87 52       		.byte	0x52
 15039 4f88 02       		.uleb128 0x2
 15040 4f89 09       		.byte	0x9
 15041 4f8a D6       		.byte	0xd6
 15042 4f8b 00       		.byte	0
 15043 4f8c 37       		.uleb128 0x37
 15044 4f8d 36010000 		.4byte	.LVL79
 15045 4f91 125A0000 		.4byte	0x5a12
 15046 4f95 AB4F0000 		.4byte	0x4fab
 15047 4f99 36       		.uleb128 0x36
ARM GAS  /tmp/cczbsEFl.s 			page 265


 15048 4f9a 01       		.uleb128 0x1
 15049 4f9b 50       		.byte	0x50
 15050 4f9c 02       		.uleb128 0x2
 15051 4f9d 08       		.byte	0x8
 15052 4f9e 6E       		.byte	0x6e
 15053 4f9f 36       		.uleb128 0x36
 15054 4fa0 01       		.uleb128 0x1
 15055 4fa1 51       		.byte	0x51
 15056 4fa2 02       		.uleb128 0x2
 15057 4fa3 08       		.byte	0x8
 15058 4fa4 3F       		.byte	0x3f
 15059 4fa5 36       		.uleb128 0x36
 15060 4fa6 01       		.uleb128 0x1
 15061 4fa7 52       		.byte	0x52
 15062 4fa8 01       		.uleb128 0x1
 15063 4fa9 31       		.byte	0x31
 15064 4faa 00       		.byte	0
 15065 4fab 37       		.uleb128 0x37
 15066 4fac 46010000 		.4byte	.LVL81
 15067 4fb0 125A0000 		.4byte	0x5a12
 15068 4fb4 CB4F0000 		.4byte	0x4fcb
 15069 4fb8 36       		.uleb128 0x36
 15070 4fb9 01       		.uleb128 0x1
 15071 4fba 50       		.byte	0x50
 15072 4fbb 02       		.uleb128 0x2
 15073 4fbc 08       		.byte	0x8
 15074 4fbd 6E       		.byte	0x6e
 15075 4fbe 36       		.uleb128 0x36
 15076 4fbf 01       		.uleb128 0x1
 15077 4fc0 51       		.byte	0x51
 15078 4fc1 02       		.uleb128 0x2
 15079 4fc2 08       		.byte	0x8
 15080 4fc3 40       		.byte	0x40
 15081 4fc4 36       		.uleb128 0x36
 15082 4fc5 01       		.uleb128 0x1
 15083 4fc6 52       		.byte	0x52
 15084 4fc7 02       		.uleb128 0x2
 15085 4fc8 09       		.byte	0x9
 15086 4fc9 AB       		.byte	0xab
 15087 4fca 00       		.byte	0
 15088 4fcb 37       		.uleb128 0x37
 15089 4fcc 56010000 		.4byte	.LVL83
 15090 4fd0 125A0000 		.4byte	0x5a12
 15091 4fd4 E54F0000 		.4byte	0x4fe5
 15092 4fd8 36       		.uleb128 0x36
 15093 4fd9 01       		.uleb128 0x1
 15094 4fda 50       		.byte	0x50
 15095 4fdb 02       		.uleb128 0x2
 15096 4fdc 08       		.byte	0x8
 15097 4fdd 6E       		.byte	0x6e
 15098 4fde 36       		.uleb128 0x36
 15099 4fdf 01       		.uleb128 0x1
 15100 4fe0 51       		.byte	0x51
 15101 4fe1 02       		.uleb128 0x2
 15102 4fe2 08       		.byte	0x8
 15103 4fe3 41       		.byte	0x41
 15104 4fe4 00       		.byte	0
ARM GAS  /tmp/cczbsEFl.s 			page 266


 15105 4fe5 37       		.uleb128 0x37
 15106 4fe6 66010000 		.4byte	.LVL85
 15107 4fea 125A0000 		.4byte	0x5a12
 15108 4fee 05500000 		.4byte	0x5005
 15109 4ff2 36       		.uleb128 0x36
 15110 4ff3 01       		.uleb128 0x1
 15111 4ff4 50       		.byte	0x50
 15112 4ff5 02       		.uleb128 0x2
 15113 4ff6 08       		.byte	0x8
 15114 4ff7 6E       		.byte	0x6e
 15115 4ff8 36       		.uleb128 0x36
 15116 4ff9 01       		.uleb128 0x1
 15117 4ffa 51       		.byte	0x51
 15118 4ffb 02       		.uleb128 0x2
 15119 4ffc 08       		.byte	0x8
 15120 4ffd 42       		.byte	0x42
 15121 4ffe 36       		.uleb128 0x36
 15122 4fff 01       		.uleb128 0x1
 15123 5000 52       		.byte	0x52
 15124 5001 02       		.uleb128 0x2
 15125 5002 09       		.byte	0x9
 15126 5003 A1       		.byte	0xa1
 15127 5004 00       		.byte	0
 15128 5005 37       		.uleb128 0x37
 15129 5006 76010000 		.4byte	.LVL87
 15130 500a 125A0000 		.4byte	0x5a12
 15131 500e 24500000 		.4byte	0x5024
 15132 5012 36       		.uleb128 0x36
 15133 5013 01       		.uleb128 0x1
 15134 5014 50       		.byte	0x50
 15135 5015 02       		.uleb128 0x2
 15136 5016 08       		.byte	0x8
 15137 5017 6E       		.byte	0x6e
 15138 5018 36       		.uleb128 0x36
 15139 5019 01       		.uleb128 0x1
 15140 501a 51       		.byte	0x51
 15141 501b 02       		.uleb128 0x2
 15142 501c 08       		.byte	0x8
 15143 501d 43       		.byte	0x43
 15144 501e 36       		.uleb128 0x36
 15145 501f 01       		.uleb128 0x1
 15146 5020 52       		.byte	0x52
 15147 5021 01       		.uleb128 0x1
 15148 5022 31       		.byte	0x31
 15149 5023 00       		.byte	0
 15150 5024 37       		.uleb128 0x37
 15151 5025 86010000 		.4byte	.LVL89
 15152 5029 125A0000 		.4byte	0x5a12
 15153 502d 44500000 		.4byte	0x5044
 15154 5031 36       		.uleb128 0x36
 15155 5032 01       		.uleb128 0x1
 15156 5033 50       		.byte	0x50
 15157 5034 02       		.uleb128 0x2
 15158 5035 08       		.byte	0x8
 15159 5036 6E       		.byte	0x6e
 15160 5037 36       		.uleb128 0x36
 15161 5038 01       		.uleb128 0x1
ARM GAS  /tmp/cczbsEFl.s 			page 267


 15162 5039 51       		.byte	0x51
 15163 503a 02       		.uleb128 0x2
 15164 503b 08       		.byte	0x8
 15165 503c 44       		.byte	0x44
 15166 503d 36       		.uleb128 0x36
 15167 503e 01       		.uleb128 0x1
 15168 503f 52       		.byte	0x52
 15169 5040 02       		.uleb128 0x2
 15170 5041 08       		.byte	0x8
 15171 5042 40       		.byte	0x40
 15172 5043 00       		.byte	0
 15173 5044 37       		.uleb128 0x37
 15174 5045 A6010000 		.4byte	.LVL94
 15175 5049 125A0000 		.4byte	0x5a12
 15176 504d 64500000 		.4byte	0x5064
 15177 5051 36       		.uleb128 0x36
 15178 5052 01       		.uleb128 0x1
 15179 5053 50       		.byte	0x50
 15180 5054 02       		.uleb128 0x2
 15181 5055 08       		.byte	0x8
 15182 5056 6E       		.byte	0x6e
 15183 5057 36       		.uleb128 0x36
 15184 5058 01       		.uleb128 0x1
 15185 5059 51       		.byte	0x51
 15186 505a 02       		.uleb128 0x2
 15187 505b 09       		.byte	0x9
 15188 505c 93       		.byte	0x93
 15189 505d 36       		.uleb128 0x36
 15190 505e 01       		.uleb128 0x1
 15191 505f 52       		.byte	0x52
 15192 5060 02       		.uleb128 0x2
 15193 5061 08       		.byte	0x8
 15194 5062 20       		.byte	0x20
 15195 5063 00       		.byte	0
 15196 5064 35       		.uleb128 0x35
 15197 5065 B6010000 		.4byte	.LVL96
 15198 5069 125A0000 		.4byte	0x5a12
 15199 506d 36       		.uleb128 0x36
 15200 506e 01       		.uleb128 0x1
 15201 506f 50       		.byte	0x50
 15202 5070 02       		.uleb128 0x2
 15203 5071 08       		.byte	0x8
 15204 5072 6E       		.byte	0x6e
 15205 5073 36       		.uleb128 0x36
 15206 5074 01       		.uleb128 0x1
 15207 5075 51       		.byte	0x51
 15208 5076 02       		.uleb128 0x2
 15209 5077 09       		.byte	0x9
 15210 5078 94       		.byte	0x94
 15211 5079 36       		.uleb128 0x36
 15212 507a 01       		.uleb128 0x1
 15213 507b 52       		.byte	0x52
 15214 507c 02       		.uleb128 0x2
 15215 507d 08       		.byte	0x8
 15216 507e 20       		.byte	0x20
 15217 507f 00       		.byte	0
 15218 5080 00       		.byte	0
ARM GAS  /tmp/cczbsEFl.s 			page 268


 15219 5081 37       		.uleb128 0x37
 15220 5082 36000000 		.4byte	.LVL43
 15221 5086 125A0000 		.4byte	0x5a12
 15222 508a 9A500000 		.4byte	0x509a
 15223 508e 36       		.uleb128 0x36
 15224 508f 01       		.uleb128 0x1
 15225 5090 50       		.byte	0x50
 15226 5091 02       		.uleb128 0x2
 15227 5092 08       		.byte	0x8
 15228 5093 6E       		.byte	0x6e
 15229 5094 36       		.uleb128 0x36
 15230 5095 01       		.uleb128 0x1
 15231 5096 51       		.byte	0x51
 15232 5097 01       		.uleb128 0x1
 15233 5098 38       		.byte	0x38
 15234 5099 00       		.byte	0
 15235 509a 37       		.uleb128 0x37
 15236 509b 44000000 		.4byte	.LVL45
 15237 509f 125A0000 		.4byte	0x5a12
 15238 50a3 B8500000 		.4byte	0x50b8
 15239 50a7 36       		.uleb128 0x36
 15240 50a8 01       		.uleb128 0x1
 15241 50a9 50       		.byte	0x50
 15242 50aa 02       		.uleb128 0x2
 15243 50ab 08       		.byte	0x8
 15244 50ac 6E       		.byte	0x6e
 15245 50ad 36       		.uleb128 0x36
 15246 50ae 01       		.uleb128 0x1
 15247 50af 51       		.byte	0x51
 15248 50b0 01       		.uleb128 0x1
 15249 50b1 39       		.byte	0x39
 15250 50b2 36       		.uleb128 0x36
 15251 50b3 01       		.uleb128 0x1
 15252 50b4 52       		.byte	0x52
 15253 50b5 01       		.uleb128 0x1
 15254 50b6 31       		.byte	0x31
 15255 50b7 00       		.byte	0
 15256 50b8 37       		.uleb128 0x37
 15257 50b9 52000000 		.4byte	.LVL47
 15258 50bd 125A0000 		.4byte	0x5a12
 15259 50c1 D1500000 		.4byte	0x50d1
 15260 50c5 36       		.uleb128 0x36
 15261 50c6 01       		.uleb128 0x1
 15262 50c7 50       		.byte	0x50
 15263 50c8 02       		.uleb128 0x2
 15264 50c9 08       		.byte	0x8
 15265 50ca 6E       		.byte	0x6e
 15266 50cb 36       		.uleb128 0x36
 15267 50cc 01       		.uleb128 0x1
 15268 50cd 51       		.byte	0x51
 15269 50ce 01       		.uleb128 0x1
 15270 50cf 3A       		.byte	0x3a
 15271 50d0 00       		.byte	0
 15272 50d1 37       		.uleb128 0x37
 15273 50d2 60000000 		.4byte	.LVL49
 15274 50d6 125A0000 		.4byte	0x5a12
 15275 50da EF500000 		.4byte	0x50ef
ARM GAS  /tmp/cczbsEFl.s 			page 269


 15276 50de 36       		.uleb128 0x36
 15277 50df 01       		.uleb128 0x1
 15278 50e0 50       		.byte	0x50
 15279 50e1 02       		.uleb128 0x2
 15280 50e2 08       		.byte	0x8
 15281 50e3 6E       		.byte	0x6e
 15282 50e4 36       		.uleb128 0x36
 15283 50e5 01       		.uleb128 0x1
 15284 50e6 51       		.byte	0x51
 15285 50e7 01       		.uleb128 0x1
 15286 50e8 3B       		.byte	0x3b
 15287 50e9 36       		.uleb128 0x36
 15288 50ea 01       		.uleb128 0x1
 15289 50eb 52       		.byte	0x52
 15290 50ec 01       		.uleb128 0x1
 15291 50ed 31       		.byte	0x31
 15292 50ee 00       		.byte	0
 15293 50ef 30       		.uleb128 0x30
 15294 50f0 CE010000 		.4byte	.LVL98
 15295 50f4 095A0000 		.4byte	0x5a09
 15296 50f8 00       		.byte	0
 15297 50f9 4A       		.uleb128 0x4a
 15298 50fa E2490000 		.4byte	0x49e2
 15299 50fe 00000000 		.4byte	.LFB261
 15300 5102 DC010000 		.4byte	.LFE261-.LFB261
 15301 5106 01       		.uleb128 0x1
 15302 5107 9C       		.byte	0x9c
 15303 5108 C0540000 		.4byte	0x54c0
 15304 510c 4B       		.uleb128 0x4b
 15305 510d F4490000 		.4byte	0x49f4
 15306 5111 38140000 		.4byte	.LLST14
 15307 5115 2A140000 		.4byte	.LVUS14
 15308 5119 3B       		.uleb128 0x3b
 15309 511a 4A4A0000 		.4byte	0x4a4a
 15310 511e 14000000 		.4byte	.LBI110
 15311 5122 0200     		.2byte	.LVU229
 15312 5124 30000000 		.4byte	.Ldebug_ranges0+0x30
 15313 5128 01       		.byte	0x1
 15314 5129 2201     		.2byte	0x122
 15315 512b 0F       		.byte	0xf
 15316 512c 58510000 		.4byte	0x5158
 15317 5130 34       		.uleb128 0x34
 15318 5131 5B4A0000 		.4byte	0x4a5b
 15319 5135 90140000 		.4byte	.LLST15
 15320 5139 8E140000 		.4byte	.LVUS15
 15321 513d 35       		.uleb128 0x35
 15322 513e 18000000 		.4byte	.LVL100
 15323 5142 125A0000 		.4byte	0x5a12
 15324 5146 36       		.uleb128 0x36
 15325 5147 01       		.uleb128 0x1
 15326 5148 50       		.byte	0x50
 15327 5149 02       		.uleb128 0x2
 15328 514a 08       		.byte	0x8
 15329 514b 6E       		.byte	0x6e
 15330 514c 36       		.uleb128 0x36
 15331 514d 01       		.uleb128 0x1
 15332 514e 51       		.byte	0x51
ARM GAS  /tmp/cczbsEFl.s 			page 270


 15333 514f 01       		.uleb128 0x1
 15334 5150 33       		.byte	0x33
 15335 5151 36       		.uleb128 0x36
 15336 5152 01       		.uleb128 0x1
 15337 5153 52       		.byte	0x52
 15338 5154 01       		.uleb128 0x1
 15339 5155 30       		.byte	0x30
 15340 5156 00       		.byte	0
 15341 5157 00       		.byte	0
 15342 5158 33       		.uleb128 0x33
 15343 5159 E2490000 		.4byte	0x49e2
 15344 515d 64000000 		.4byte	.LBI114
 15345 5161 0000     		.2byte	.LVU251
 15346 5163 64000000 		.4byte	.LBB114
 15347 5167 66010000 		.4byte	.LBE114-.LBB114
 15348 516b 01       		.byte	0x1
 15349 516c 1F01     		.2byte	0x11f
 15350 516e 08       		.byte	0x8
 15351 516f 48540000 		.4byte	0x5448
 15352 5173 4B       		.uleb128 0x4b
 15353 5174 F4490000 		.4byte	0x49f4
 15354 5178 D2140000 		.4byte	.LLST16
 15355 517c A4140000 		.4byte	.LVUS16
 15356 5180 33       		.uleb128 0x33
 15357 5181 4A4A0000 		.4byte	0x4a4a
 15358 5185 8C010000 		.4byte	.LBI116
 15359 5189 0100     		.2byte	.LVU333
 15360 518b 8C010000 		.4byte	.LBB116
 15361 518f 0A000000 		.4byte	.LBE116-.LBB116
 15362 5193 01       		.byte	0x1
 15363 5194 7101     		.2byte	0x171
 15364 5196 0F       		.byte	0xf
 15365 5197 C3510000 		.4byte	0x51c3
 15366 519b 34       		.uleb128 0x34
 15367 519c 5B4A0000 		.4byte	0x4a5b
 15368 51a0 D9150000 		.4byte	.LLST17
 15369 51a4 D7150000 		.4byte	.LVUS17
 15370 51a8 35       		.uleb128 0x35
 15371 51a9 96010000 		.4byte	.LVL153
 15372 51ad 125A0000 		.4byte	0x5a12
 15373 51b1 36       		.uleb128 0x36
 15374 51b2 01       		.uleb128 0x1
 15375 51b3 50       		.byte	0x50
 15376 51b4 02       		.uleb128 0x2
 15377 51b5 08       		.byte	0x8
 15378 51b6 6E       		.byte	0x6e
 15379 51b7 36       		.uleb128 0x36
 15380 51b8 01       		.uleb128 0x1
 15381 51b9 51       		.byte	0x51
 15382 51ba 01       		.uleb128 0x1
 15383 51bb 33       		.byte	0x33
 15384 51bc 36       		.uleb128 0x36
 15385 51bd 01       		.uleb128 0x1
 15386 51be 52       		.byte	0x52
 15387 51bf 01       		.uleb128 0x1
 15388 51c0 31       		.byte	0x31
 15389 51c1 00       		.byte	0
ARM GAS  /tmp/cczbsEFl.s 			page 271


 15390 51c2 00       		.byte	0
 15391 51c3 37       		.uleb128 0x37
 15392 51c4 6E000000 		.4byte	.LVL112
 15393 51c8 125A0000 		.4byte	0x5a12
 15394 51cc E1510000 		.4byte	0x51e1
 15395 51d0 36       		.uleb128 0x36
 15396 51d1 01       		.uleb128 0x1
 15397 51d2 50       		.byte	0x50
 15398 51d3 02       		.uleb128 0x2
 15399 51d4 08       		.byte	0x8
 15400 51d5 6E       		.byte	0x6e
 15401 51d6 36       		.uleb128 0x36
 15402 51d7 01       		.uleb128 0x1
 15403 51d8 51       		.byte	0x51
 15404 51d9 01       		.uleb128 0x1
 15405 51da 3C       		.byte	0x3c
 15406 51db 36       		.uleb128 0x36
 15407 51dc 01       		.uleb128 0x1
 15408 51dd 52       		.byte	0x52
 15409 51de 01       		.uleb128 0x1
 15410 51df 31       		.byte	0x31
 15411 51e0 00       		.byte	0
 15412 51e1 37       		.uleb128 0x37
 15413 51e2 7C000000 		.4byte	.LVL114
 15414 51e6 125A0000 		.4byte	0x5a12
 15415 51ea 00520000 		.4byte	0x5200
 15416 51ee 36       		.uleb128 0x36
 15417 51ef 01       		.uleb128 0x1
 15418 51f0 50       		.byte	0x50
 15419 51f1 02       		.uleb128 0x2
 15420 51f2 08       		.byte	0x8
 15421 51f3 6E       		.byte	0x6e
 15422 51f4 36       		.uleb128 0x36
 15423 51f5 01       		.uleb128 0x1
 15424 51f6 51       		.byte	0x51
 15425 51f7 01       		.uleb128 0x1
 15426 51f8 3D       		.byte	0x3d
 15427 51f9 36       		.uleb128 0x36
 15428 51fa 01       		.uleb128 0x1
 15429 51fb 52       		.byte	0x52
 15430 51fc 02       		.uleb128 0x2
 15431 51fd 08       		.byte	0x8
 15432 51fe 40       		.byte	0x40
 15433 51ff 00       		.byte	0
 15434 5200 37       		.uleb128 0x37
 15435 5201 8A000000 		.4byte	.LVL116
 15436 5205 125A0000 		.4byte	0x5a12
 15437 5209 19520000 		.4byte	0x5219
 15438 520d 36       		.uleb128 0x36
 15439 520e 01       		.uleb128 0x1
 15440 520f 50       		.byte	0x50
 15441 5210 02       		.uleb128 0x2
 15442 5211 08       		.byte	0x8
 15443 5212 6E       		.byte	0x6e
 15444 5213 36       		.uleb128 0x36
 15445 5214 01       		.uleb128 0x1
 15446 5215 51       		.byte	0x51
ARM GAS  /tmp/cczbsEFl.s 			page 272


 15447 5216 01       		.uleb128 0x1
 15448 5217 3E       		.byte	0x3e
 15449 5218 00       		.byte	0
 15450 5219 37       		.uleb128 0x37
 15451 521a 98000000 		.4byte	.LVL118
 15452 521e 125A0000 		.4byte	0x5a12
 15453 5222 38520000 		.4byte	0x5238
 15454 5226 36       		.uleb128 0x36
 15455 5227 01       		.uleb128 0x1
 15456 5228 50       		.byte	0x50
 15457 5229 02       		.uleb128 0x2
 15458 522a 08       		.byte	0x8
 15459 522b 6E       		.byte	0x6e
 15460 522c 36       		.uleb128 0x36
 15461 522d 01       		.uleb128 0x1
 15462 522e 51       		.byte	0x51
 15463 522f 01       		.uleb128 0x1
 15464 5230 3F       		.byte	0x3f
 15465 5231 36       		.uleb128 0x36
 15466 5232 01       		.uleb128 0x1
 15467 5233 52       		.byte	0x52
 15468 5234 02       		.uleb128 0x2
 15469 5235 09       		.byte	0x9
 15470 5236 F0       		.byte	0xf0
 15471 5237 00       		.byte	0
 15472 5238 37       		.uleb128 0x37
 15473 5239 A6000000 		.4byte	.LVL120
 15474 523d 125A0000 		.4byte	0x5a12
 15475 5241 52520000 		.4byte	0x5252
 15476 5245 36       		.uleb128 0x36
 15477 5246 01       		.uleb128 0x1
 15478 5247 50       		.byte	0x50
 15479 5248 02       		.uleb128 0x2
 15480 5249 08       		.byte	0x8
 15481 524a 6E       		.byte	0x6e
 15482 524b 36       		.uleb128 0x36
 15483 524c 01       		.uleb128 0x1
 15484 524d 51       		.byte	0x51
 15485 524e 02       		.uleb128 0x2
 15486 524f 08       		.byte	0x8
 15487 5250 35       		.byte	0x35
 15488 5251 00       		.byte	0
 15489 5252 37       		.uleb128 0x37
 15490 5253 B4000000 		.4byte	.LVL122
 15491 5257 125A0000 		.4byte	0x5a12
 15492 525b 71520000 		.4byte	0x5271
 15493 525f 36       		.uleb128 0x36
 15494 5260 01       		.uleb128 0x1
 15495 5261 50       		.byte	0x50
 15496 5262 02       		.uleb128 0x2
 15497 5263 08       		.byte	0x8
 15498 5264 6E       		.byte	0x6e
 15499 5265 36       		.uleb128 0x36
 15500 5266 01       		.uleb128 0x1
 15501 5267 51       		.byte	0x51
 15502 5268 02       		.uleb128 0x2
 15503 5269 08       		.byte	0x8
ARM GAS  /tmp/cczbsEFl.s 			page 273


 15504 526a 36       		.byte	0x36
 15505 526b 36       		.uleb128 0x36
 15506 526c 01       		.uleb128 0x1
 15507 526d 52       		.byte	0x52
 15508 526e 01       		.uleb128 0x1
 15509 526f 31       		.byte	0x31
 15510 5270 00       		.byte	0
 15511 5271 37       		.uleb128 0x37
 15512 5272 C2000000 		.4byte	.LVL124
 15513 5276 125A0000 		.4byte	0x5a12
 15514 527a 90520000 		.4byte	0x5290
 15515 527e 36       		.uleb128 0x36
 15516 527f 01       		.uleb128 0x1
 15517 5280 50       		.byte	0x50
 15518 5281 02       		.uleb128 0x2
 15519 5282 08       		.byte	0x8
 15520 5283 6E       		.byte	0x6e
 15521 5284 36       		.uleb128 0x36
 15522 5285 01       		.uleb128 0x1
 15523 5286 51       		.byte	0x51
 15524 5287 02       		.uleb128 0x2
 15525 5288 08       		.byte	0x8
 15526 5289 37       		.byte	0x37
 15527 528a 36       		.uleb128 0x36
 15528 528b 01       		.uleb128 0x1
 15529 528c 52       		.byte	0x52
 15530 528d 01       		.uleb128 0x1
 15531 528e 31       		.byte	0x31
 15532 528f 00       		.byte	0
 15533 5290 37       		.uleb128 0x37
 15534 5291 D0000000 		.4byte	.LVL126
 15535 5295 125A0000 		.4byte	0x5a12
 15536 5299 B0520000 		.4byte	0x52b0
 15537 529d 36       		.uleb128 0x36
 15538 529e 01       		.uleb128 0x1
 15539 529f 50       		.byte	0x50
 15540 52a0 02       		.uleb128 0x2
 15541 52a1 08       		.byte	0x8
 15542 52a2 6E       		.byte	0x6e
 15543 52a3 36       		.uleb128 0x36
 15544 52a4 01       		.uleb128 0x1
 15545 52a5 51       		.byte	0x51
 15546 52a6 02       		.uleb128 0x2
 15547 52a7 08       		.byte	0x8
 15548 52a8 38       		.byte	0x38
 15549 52a9 36       		.uleb128 0x36
 15550 52aa 01       		.uleb128 0x1
 15551 52ab 52       		.byte	0x52
 15552 52ac 02       		.uleb128 0x2
 15553 52ad 08       		.byte	0x8
 15554 52ae 40       		.byte	0x40
 15555 52af 00       		.byte	0
 15556 52b0 37       		.uleb128 0x37
 15557 52b1 DE000000 		.4byte	.LVL128
 15558 52b5 125A0000 		.4byte	0x5a12
 15559 52b9 CA520000 		.4byte	0x52ca
 15560 52bd 36       		.uleb128 0x36
ARM GAS  /tmp/cczbsEFl.s 			page 274


 15561 52be 01       		.uleb128 0x1
 15562 52bf 50       		.byte	0x50
 15563 52c0 02       		.uleb128 0x2
 15564 52c1 08       		.byte	0x8
 15565 52c2 6E       		.byte	0x6e
 15566 52c3 36       		.uleb128 0x36
 15567 52c4 01       		.uleb128 0x1
 15568 52c5 51       		.byte	0x51
 15569 52c6 02       		.uleb128 0x2
 15570 52c7 08       		.byte	0x8
 15571 52c8 39       		.byte	0x39
 15572 52c9 00       		.byte	0
 15573 52ca 37       		.uleb128 0x37
 15574 52cb EC000000 		.4byte	.LVL130
 15575 52cf 125A0000 		.4byte	0x5a12
 15576 52d3 E9520000 		.4byte	0x52e9
 15577 52d7 36       		.uleb128 0x36
 15578 52d8 01       		.uleb128 0x1
 15579 52d9 50       		.byte	0x50
 15580 52da 02       		.uleb128 0x2
 15581 52db 08       		.byte	0x8
 15582 52dc 6E       		.byte	0x6e
 15583 52dd 36       		.uleb128 0x36
 15584 52de 01       		.uleb128 0x1
 15585 52df 51       		.byte	0x51
 15586 52e0 02       		.uleb128 0x2
 15587 52e1 08       		.byte	0x8
 15588 52e2 3A       		.byte	0x3a
 15589 52e3 36       		.uleb128 0x36
 15590 52e4 01       		.uleb128 0x1
 15591 52e5 52       		.byte	0x52
 15592 52e6 01       		.uleb128 0x1
 15593 52e7 31       		.byte	0x31
 15594 52e8 00       		.byte	0
 15595 52e9 37       		.uleb128 0x37
 15596 52ea FA000000 		.4byte	.LVL132
 15597 52ee 125A0000 		.4byte	0x5a12
 15598 52f2 03530000 		.4byte	0x5303
 15599 52f6 36       		.uleb128 0x36
 15600 52f7 01       		.uleb128 0x1
 15601 52f8 50       		.byte	0x50
 15602 52f9 02       		.uleb128 0x2
 15603 52fa 08       		.byte	0x8
 15604 52fb 6E       		.byte	0x6e
 15605 52fc 36       		.uleb128 0x36
 15606 52fd 01       		.uleb128 0x1
 15607 52fe 51       		.byte	0x51
 15608 52ff 02       		.uleb128 0x2
 15609 5300 08       		.byte	0x8
 15610 5301 3B       		.byte	0x3b
 15611 5302 00       		.byte	0
 15612 5303 37       		.uleb128 0x37
 15613 5304 08010000 		.4byte	.LVL134
 15614 5308 125A0000 		.4byte	0x5a12
 15615 530c 23530000 		.4byte	0x5323
 15616 5310 36       		.uleb128 0x36
 15617 5311 01       		.uleb128 0x1
ARM GAS  /tmp/cczbsEFl.s 			page 275


 15618 5312 50       		.byte	0x50
 15619 5313 02       		.uleb128 0x2
 15620 5314 08       		.byte	0x8
 15621 5315 6E       		.byte	0x6e
 15622 5316 36       		.uleb128 0x36
 15623 5317 01       		.uleb128 0x1
 15624 5318 51       		.byte	0x51
 15625 5319 02       		.uleb128 0x2
 15626 531a 08       		.byte	0x8
 15627 531b 3C       		.byte	0x3c
 15628 531c 36       		.uleb128 0x36
 15629 531d 01       		.uleb128 0x1
 15630 531e 52       		.byte	0x52
 15631 531f 02       		.uleb128 0x2
 15632 5320 09       		.byte	0x9
 15633 5321 F0       		.byte	0xf0
 15634 5322 00       		.byte	0
 15635 5323 37       		.uleb128 0x37
 15636 5324 16010000 		.4byte	.LVL136
 15637 5328 125A0000 		.4byte	0x5a12
 15638 532c 3D530000 		.4byte	0x533d
 15639 5330 36       		.uleb128 0x36
 15640 5331 01       		.uleb128 0x1
 15641 5332 50       		.byte	0x50
 15642 5333 02       		.uleb128 0x2
 15643 5334 08       		.byte	0x8
 15644 5335 6E       		.byte	0x6e
 15645 5336 36       		.uleb128 0x36
 15646 5337 01       		.uleb128 0x1
 15647 5338 51       		.byte	0x51
 15648 5339 02       		.uleb128 0x2
 15649 533a 08       		.byte	0x8
 15650 533b 3D       		.byte	0x3d
 15651 533c 00       		.byte	0
 15652 533d 37       		.uleb128 0x37
 15653 533e 26010000 		.4byte	.LVL138
 15654 5342 125A0000 		.4byte	0x5a12
 15655 5346 5D530000 		.4byte	0x535d
 15656 534a 36       		.uleb128 0x36
 15657 534b 01       		.uleb128 0x1
 15658 534c 50       		.byte	0x50
 15659 534d 02       		.uleb128 0x2
 15660 534e 08       		.byte	0x8
 15661 534f 6E       		.byte	0x6e
 15662 5350 36       		.uleb128 0x36
 15663 5351 01       		.uleb128 0x1
 15664 5352 51       		.byte	0x51
 15665 5353 02       		.uleb128 0x2
 15666 5354 08       		.byte	0x8
 15667 5355 3E       		.byte	0x3e
 15668 5356 36       		.uleb128 0x36
 15669 5357 01       		.uleb128 0x1
 15670 5358 52       		.byte	0x52
 15671 5359 02       		.uleb128 0x2
 15672 535a 08       		.byte	0x8
 15673 535b 6B       		.byte	0x6b
 15674 535c 00       		.byte	0
ARM GAS  /tmp/cczbsEFl.s 			page 276


 15675 535d 37       		.uleb128 0x37
 15676 535e 36010000 		.4byte	.LVL140
 15677 5362 125A0000 		.4byte	0x5a12
 15678 5366 77530000 		.4byte	0x5377
 15679 536a 36       		.uleb128 0x36
 15680 536b 01       		.uleb128 0x1
 15681 536c 50       		.byte	0x50
 15682 536d 02       		.uleb128 0x2
 15683 536e 08       		.byte	0x8
 15684 536f 6E       		.byte	0x6e
 15685 5370 36       		.uleb128 0x36
 15686 5371 01       		.uleb128 0x1
 15687 5372 51       		.byte	0x51
 15688 5373 02       		.uleb128 0x2
 15689 5374 08       		.byte	0x8
 15690 5375 3F       		.byte	0x3f
 15691 5376 00       		.byte	0
 15692 5377 37       		.uleb128 0x37
 15693 5378 46010000 		.4byte	.LVL142
 15694 537c 125A0000 		.4byte	0x5a12
 15695 5380 97530000 		.4byte	0x5397
 15696 5384 36       		.uleb128 0x36
 15697 5385 01       		.uleb128 0x1
 15698 5386 50       		.byte	0x50
 15699 5387 02       		.uleb128 0x2
 15700 5388 08       		.byte	0x8
 15701 5389 6E       		.byte	0x6e
 15702 538a 36       		.uleb128 0x36
 15703 538b 01       		.uleb128 0x1
 15704 538c 51       		.byte	0x51
 15705 538d 02       		.uleb128 0x2
 15706 538e 08       		.byte	0x8
 15707 538f 40       		.byte	0x40
 15708 5390 36       		.uleb128 0x36
 15709 5391 01       		.uleb128 0x1
 15710 5392 52       		.byte	0x52
 15711 5393 02       		.uleb128 0x2
 15712 5394 09       		.byte	0x9
 15713 5395 D6       		.byte	0xd6
 15714 5396 00       		.byte	0
 15715 5397 37       		.uleb128 0x37
 15716 5398 56010000 		.4byte	.LVL144
 15717 539c 125A0000 		.4byte	0x5a12
 15718 53a0 B1530000 		.4byte	0x53b1
 15719 53a4 36       		.uleb128 0x36
 15720 53a5 01       		.uleb128 0x1
 15721 53a6 50       		.byte	0x50
 15722 53a7 02       		.uleb128 0x2
 15723 53a8 08       		.byte	0x8
 15724 53a9 6E       		.byte	0x6e
 15725 53aa 36       		.uleb128 0x36
 15726 53ab 01       		.uleb128 0x1
 15727 53ac 51       		.byte	0x51
 15728 53ad 02       		.uleb128 0x2
 15729 53ae 08       		.byte	0x8
 15730 53af 41       		.byte	0x41
 15731 53b0 00       		.byte	0
ARM GAS  /tmp/cczbsEFl.s 			page 277


 15732 53b1 37       		.uleb128 0x37
 15733 53b2 66010000 		.4byte	.LVL146
 15734 53b6 125A0000 		.4byte	0x5a12
 15735 53ba D1530000 		.4byte	0x53d1
 15736 53be 36       		.uleb128 0x36
 15737 53bf 01       		.uleb128 0x1
 15738 53c0 50       		.byte	0x50
 15739 53c1 02       		.uleb128 0x2
 15740 53c2 08       		.byte	0x8
 15741 53c3 6E       		.byte	0x6e
 15742 53c4 36       		.uleb128 0x36
 15743 53c5 01       		.uleb128 0x1
 15744 53c6 51       		.byte	0x51
 15745 53c7 02       		.uleb128 0x2
 15746 53c8 08       		.byte	0x8
 15747 53c9 42       		.byte	0x42
 15748 53ca 36       		.uleb128 0x36
 15749 53cb 01       		.uleb128 0x1
 15750 53cc 52       		.byte	0x52
 15751 53cd 02       		.uleb128 0x2
 15752 53ce 08       		.byte	0x8
 15753 53cf 50       		.byte	0x50
 15754 53d0 00       		.byte	0
 15755 53d1 37       		.uleb128 0x37
 15756 53d2 76010000 		.4byte	.LVL148
 15757 53d6 125A0000 		.4byte	0x5a12
 15758 53da EB530000 		.4byte	0x53eb
 15759 53de 36       		.uleb128 0x36
 15760 53df 01       		.uleb128 0x1
 15761 53e0 50       		.byte	0x50
 15762 53e1 02       		.uleb128 0x2
 15763 53e2 08       		.byte	0x8
 15764 53e3 6E       		.byte	0x6e
 15765 53e4 36       		.uleb128 0x36
 15766 53e5 01       		.uleb128 0x1
 15767 53e6 51       		.byte	0x51
 15768 53e7 02       		.uleb128 0x2
 15769 53e8 08       		.byte	0x8
 15770 53e9 43       		.byte	0x43
 15771 53ea 00       		.byte	0
 15772 53eb 37       		.uleb128 0x37
 15773 53ec 86010000 		.4byte	.LVL150
 15774 53f0 125A0000 		.4byte	0x5a12
 15775 53f4 0B540000 		.4byte	0x540b
 15776 53f8 36       		.uleb128 0x36
 15777 53f9 01       		.uleb128 0x1
 15778 53fa 50       		.byte	0x50
 15779 53fb 02       		.uleb128 0x2
 15780 53fc 08       		.byte	0x8
 15781 53fd 6E       		.byte	0x6e
 15782 53fe 36       		.uleb128 0x36
 15783 53ff 01       		.uleb128 0x1
 15784 5400 51       		.byte	0x51
 15785 5401 02       		.uleb128 0x2
 15786 5402 08       		.byte	0x8
 15787 5403 44       		.byte	0x44
 15788 5404 36       		.uleb128 0x36
ARM GAS  /tmp/cczbsEFl.s 			page 278


 15789 5405 01       		.uleb128 0x1
 15790 5406 52       		.byte	0x52
 15791 5407 02       		.uleb128 0x2
 15792 5408 09       		.byte	0x9
 15793 5409 A0       		.byte	0xa0
 15794 540a 00       		.byte	0
 15795 540b 37       		.uleb128 0x37
 15796 540c A6010000 		.4byte	.LVL155
 15797 5410 125A0000 		.4byte	0x5a12
 15798 5414 2B540000 		.4byte	0x542b
 15799 5418 36       		.uleb128 0x36
 15800 5419 01       		.uleb128 0x1
 15801 541a 50       		.byte	0x50
 15802 541b 02       		.uleb128 0x2
 15803 541c 08       		.byte	0x8
 15804 541d 6E       		.byte	0x6e
 15805 541e 36       		.uleb128 0x36
 15806 541f 01       		.uleb128 0x1
 15807 5420 51       		.byte	0x51
 15808 5421 02       		.uleb128 0x2
 15809 5422 09       		.byte	0x9
 15810 5423 93       		.byte	0x93
 15811 5424 36       		.uleb128 0x36
 15812 5425 01       		.uleb128 0x1
 15813 5426 52       		.byte	0x52
 15814 5427 02       		.uleb128 0x2
 15815 5428 08       		.byte	0x8
 15816 5429 40       		.byte	0x40
 15817 542a 00       		.byte	0
 15818 542b 35       		.uleb128 0x35
 15819 542c B6010000 		.4byte	.LVL157
 15820 5430 125A0000 		.4byte	0x5a12
 15821 5434 36       		.uleb128 0x36
 15822 5435 01       		.uleb128 0x1
 15823 5436 50       		.byte	0x50
 15824 5437 02       		.uleb128 0x2
 15825 5438 08       		.byte	0x8
 15826 5439 6E       		.byte	0x6e
 15827 543a 36       		.uleb128 0x36
 15828 543b 01       		.uleb128 0x1
 15829 543c 51       		.byte	0x51
 15830 543d 02       		.uleb128 0x2
 15831 543e 09       		.byte	0x9
 15832 543f 94       		.byte	0x94
 15833 5440 36       		.uleb128 0x36
 15834 5441 01       		.uleb128 0x1
 15835 5442 52       		.byte	0x52
 15836 5443 02       		.uleb128 0x2
 15837 5444 08       		.byte	0x8
 15838 5445 40       		.byte	0x40
 15839 5446 00       		.byte	0
 15840 5447 00       		.byte	0
 15841 5448 37       		.uleb128 0x37
 15842 5449 36000000 		.4byte	.LVL104
 15843 544d 125A0000 		.4byte	0x5a12
 15844 5451 61540000 		.4byte	0x5461
 15845 5455 36       		.uleb128 0x36
ARM GAS  /tmp/cczbsEFl.s 			page 279


 15846 5456 01       		.uleb128 0x1
 15847 5457 50       		.byte	0x50
 15848 5458 02       		.uleb128 0x2
 15849 5459 08       		.byte	0x8
 15850 545a 6E       		.byte	0x6e
 15851 545b 36       		.uleb128 0x36
 15852 545c 01       		.uleb128 0x1
 15853 545d 51       		.byte	0x51
 15854 545e 01       		.uleb128 0x1
 15855 545f 38       		.byte	0x38
 15856 5460 00       		.byte	0
 15857 5461 37       		.uleb128 0x37
 15858 5462 44000000 		.4byte	.LVL106
 15859 5466 125A0000 		.4byte	0x5a12
 15860 546a 7F540000 		.4byte	0x547f
 15861 546e 36       		.uleb128 0x36
 15862 546f 01       		.uleb128 0x1
 15863 5470 50       		.byte	0x50
 15864 5471 02       		.uleb128 0x2
 15865 5472 08       		.byte	0x8
 15866 5473 6E       		.byte	0x6e
 15867 5474 36       		.uleb128 0x36
 15868 5475 01       		.uleb128 0x1
 15869 5476 51       		.byte	0x51
 15870 5477 01       		.uleb128 0x1
 15871 5478 39       		.byte	0x39
 15872 5479 36       		.uleb128 0x36
 15873 547a 01       		.uleb128 0x1
 15874 547b 52       		.byte	0x52
 15875 547c 01       		.uleb128 0x1
 15876 547d 31       		.byte	0x31
 15877 547e 00       		.byte	0
 15878 547f 37       		.uleb128 0x37
 15879 5480 52000000 		.4byte	.LVL108
 15880 5484 125A0000 		.4byte	0x5a12
 15881 5488 98540000 		.4byte	0x5498
 15882 548c 36       		.uleb128 0x36
 15883 548d 01       		.uleb128 0x1
 15884 548e 50       		.byte	0x50
 15885 548f 02       		.uleb128 0x2
 15886 5490 08       		.byte	0x8
 15887 5491 6E       		.byte	0x6e
 15888 5492 36       		.uleb128 0x36
 15889 5493 01       		.uleb128 0x1
 15890 5494 51       		.byte	0x51
 15891 5495 01       		.uleb128 0x1
 15892 5496 3A       		.byte	0x3a
 15893 5497 00       		.byte	0
 15894 5498 37       		.uleb128 0x37
 15895 5499 60000000 		.4byte	.LVL110
 15896 549d 125A0000 		.4byte	0x5a12
 15897 54a1 B6540000 		.4byte	0x54b6
 15898 54a5 36       		.uleb128 0x36
 15899 54a6 01       		.uleb128 0x1
 15900 54a7 50       		.byte	0x50
 15901 54a8 02       		.uleb128 0x2
 15902 54a9 08       		.byte	0x8
ARM GAS  /tmp/cczbsEFl.s 			page 280


 15903 54aa 6E       		.byte	0x6e
 15904 54ab 36       		.uleb128 0x36
 15905 54ac 01       		.uleb128 0x1
 15906 54ad 51       		.byte	0x51
 15907 54ae 01       		.uleb128 0x1
 15908 54af 3B       		.byte	0x3b
 15909 54b0 36       		.uleb128 0x36
 15910 54b1 01       		.uleb128 0x1
 15911 54b2 52       		.byte	0x52
 15912 54b3 01       		.uleb128 0x1
 15913 54b4 31       		.byte	0x31
 15914 54b5 00       		.byte	0
 15915 54b6 30       		.uleb128 0x30
 15916 54b7 CE010000 		.4byte	.LVL159
 15917 54bb 095A0000 		.4byte	0x5a09
 15918 54bf 00       		.byte	0
 15919 54c0 4A       		.uleb128 0x4a
 15920 54c1 C2490000 		.4byte	0x49c2
 15921 54c5 00000000 		.4byte	.LFB262
 15922 54c9 DC010000 		.4byte	.LFE262-.LFB262
 15923 54cd 01       		.uleb128 0x1
 15924 54ce 9C       		.byte	0x9c
 15925 54cf 7D580000 		.4byte	0x587d
 15926 54d3 4B       		.uleb128 0x4b
 15927 54d4 D4490000 		.4byte	0x49d4
 15928 54d8 FB150000 		.4byte	.LLST18
 15929 54dc ED150000 		.4byte	.LVUS18
 15930 54e0 3B       		.uleb128 0x3b
 15931 54e1 4A4A0000 		.4byte	0x4a4a
 15932 54e5 14000000 		.4byte	.LBI126
 15933 54e9 0200     		.2byte	.LVU363
 15934 54eb 48000000 		.4byte	.Ldebug_ranges0+0x48
 15935 54ef 01       		.byte	0x1
 15936 54f0 8F01     		.2byte	0x18f
 15937 54f2 0F       		.byte	0xf
 15938 54f3 1F550000 		.4byte	0x551f
 15939 54f7 34       		.uleb128 0x34
 15940 54f8 5B4A0000 		.4byte	0x4a5b
 15941 54fc 53160000 		.4byte	.LLST19
 15942 5500 51160000 		.4byte	.LVUS19
 15943 5504 35       		.uleb128 0x35
 15944 5505 18000000 		.4byte	.LVL161
 15945 5509 125A0000 		.4byte	0x5a12
 15946 550d 36       		.uleb128 0x36
 15947 550e 01       		.uleb128 0x1
 15948 550f 50       		.byte	0x50
 15949 5510 02       		.uleb128 0x2
 15950 5511 08       		.byte	0x8
 15951 5512 6E       		.byte	0x6e
 15952 5513 36       		.uleb128 0x36
 15953 5514 01       		.uleb128 0x1
 15954 5515 51       		.byte	0x51
 15955 5516 01       		.uleb128 0x1
 15956 5517 33       		.byte	0x33
 15957 5518 36       		.uleb128 0x36
 15958 5519 01       		.uleb128 0x1
 15959 551a 52       		.byte	0x52
ARM GAS  /tmp/cczbsEFl.s 			page 281


 15960 551b 01       		.uleb128 0x1
 15961 551c 30       		.byte	0x30
 15962 551d 00       		.byte	0
 15963 551e 00       		.byte	0
 15964 551f 33       		.uleb128 0x33
 15965 5520 C2490000 		.4byte	0x49c2
 15966 5524 64000000 		.4byte	.LBI130
 15967 5528 0000     		.2byte	.LVU385
 15968 552a 64000000 		.4byte	.LBB130
 15969 552e 66010000 		.4byte	.LBE130-.LBB130
 15970 5532 01       		.byte	0x1
 15971 5533 8C01     		.2byte	0x18c
 15972 5535 08       		.byte	0x8
 15973 5536 05580000 		.4byte	0x5805
 15974 553a 4B       		.uleb128 0x4b
 15975 553b D4490000 		.4byte	0x49d4
 15976 553f 95160000 		.4byte	.LLST20
 15977 5543 67160000 		.4byte	.LVUS20
 15978 5547 33       		.uleb128 0x33
 15979 5548 4A4A0000 		.4byte	0x4a4a
 15980 554c 8C010000 		.4byte	.LBI132
 15981 5550 0100     		.2byte	.LVU467
 15982 5552 8C010000 		.4byte	.LBB132
 15983 5556 0A000000 		.4byte	.LBE132-.LBB132
 15984 555a 01       		.byte	0x1
 15985 555b DE01     		.2byte	0x1de
 15986 555d 0F       		.byte	0xf
 15987 555e 8A550000 		.4byte	0x558a
 15988 5562 34       		.uleb128 0x34
 15989 5563 5B4A0000 		.4byte	0x4a5b
 15990 5567 9C170000 		.4byte	.LLST21
 15991 556b 9A170000 		.4byte	.LVUS21
 15992 556f 35       		.uleb128 0x35
 15993 5570 96010000 		.4byte	.LVL214
 15994 5574 125A0000 		.4byte	0x5a12
 15995 5578 36       		.uleb128 0x36
 15996 5579 01       		.uleb128 0x1
 15997 557a 50       		.byte	0x50
 15998 557b 02       		.uleb128 0x2
 15999 557c 08       		.byte	0x8
 16000 557d 6E       		.byte	0x6e
 16001 557e 36       		.uleb128 0x36
 16002 557f 01       		.uleb128 0x1
 16003 5580 51       		.byte	0x51
 16004 5581 01       		.uleb128 0x1
 16005 5582 33       		.byte	0x33
 16006 5583 36       		.uleb128 0x36
 16007 5584 01       		.uleb128 0x1
 16008 5585 52       		.byte	0x52
 16009 5586 01       		.uleb128 0x1
 16010 5587 31       		.byte	0x31
 16011 5588 00       		.byte	0
 16012 5589 00       		.byte	0
 16013 558a 37       		.uleb128 0x37
 16014 558b 6E000000 		.4byte	.LVL173
 16015 558f 125A0000 		.4byte	0x5a12
 16016 5593 A3550000 		.4byte	0x55a3
ARM GAS  /tmp/cczbsEFl.s 			page 282


 16017 5597 36       		.uleb128 0x36
 16018 5598 01       		.uleb128 0x1
 16019 5599 50       		.byte	0x50
 16020 559a 02       		.uleb128 0x2
 16021 559b 08       		.byte	0x8
 16022 559c 6E       		.byte	0x6e
 16023 559d 36       		.uleb128 0x36
 16024 559e 01       		.uleb128 0x1
 16025 559f 51       		.byte	0x51
 16026 55a0 01       		.uleb128 0x1
 16027 55a1 3C       		.byte	0x3c
 16028 55a2 00       		.byte	0
 16029 55a3 37       		.uleb128 0x37
 16030 55a4 7C000000 		.4byte	.LVL175
 16031 55a8 125A0000 		.4byte	0x5a12
 16032 55ac C2550000 		.4byte	0x55c2
 16033 55b0 36       		.uleb128 0x36
 16034 55b1 01       		.uleb128 0x1
 16035 55b2 50       		.byte	0x50
 16036 55b3 02       		.uleb128 0x2
 16037 55b4 08       		.byte	0x8
 16038 55b5 6E       		.byte	0x6e
 16039 55b6 36       		.uleb128 0x36
 16040 55b7 01       		.uleb128 0x1
 16041 55b8 51       		.byte	0x51
 16042 55b9 01       		.uleb128 0x1
 16043 55ba 3D       		.byte	0x3d
 16044 55bb 36       		.uleb128 0x36
 16045 55bc 01       		.uleb128 0x1
 16046 55bd 52       		.byte	0x52
 16047 55be 02       		.uleb128 0x2
 16048 55bf 09       		.byte	0x9
 16049 55c0 A0       		.byte	0xa0
 16050 55c1 00       		.byte	0
 16051 55c2 37       		.uleb128 0x37
 16052 55c3 8A000000 		.4byte	.LVL177
 16053 55c7 125A0000 		.4byte	0x5a12
 16054 55cb DB550000 		.4byte	0x55db
 16055 55cf 36       		.uleb128 0x36
 16056 55d0 01       		.uleb128 0x1
 16057 55d1 50       		.byte	0x50
 16058 55d2 02       		.uleb128 0x2
 16059 55d3 08       		.byte	0x8
 16060 55d4 6E       		.byte	0x6e
 16061 55d5 36       		.uleb128 0x36
 16062 55d6 01       		.uleb128 0x1
 16063 55d7 51       		.byte	0x51
 16064 55d8 01       		.uleb128 0x1
 16065 55d9 3E       		.byte	0x3e
 16066 55da 00       		.byte	0
 16067 55db 37       		.uleb128 0x37
 16068 55dc 98000000 		.4byte	.LVL179
 16069 55e0 125A0000 		.4byte	0x5a12
 16070 55e4 FA550000 		.4byte	0x55fa
 16071 55e8 36       		.uleb128 0x36
 16072 55e9 01       		.uleb128 0x1
 16073 55ea 50       		.byte	0x50
ARM GAS  /tmp/cczbsEFl.s 			page 283


 16074 55eb 02       		.uleb128 0x2
 16075 55ec 08       		.byte	0x8
 16076 55ed 6E       		.byte	0x6e
 16077 55ee 36       		.uleb128 0x36
 16078 55ef 01       		.uleb128 0x1
 16079 55f0 51       		.byte	0x51
 16080 55f1 01       		.uleb128 0x1
 16081 55f2 3F       		.byte	0x3f
 16082 55f3 36       		.uleb128 0x36
 16083 55f4 01       		.uleb128 0x1
 16084 55f5 52       		.byte	0x52
 16085 55f6 02       		.uleb128 0x2
 16086 55f7 08       		.byte	0x8
 16087 55f8 78       		.byte	0x78
 16088 55f9 00       		.byte	0
 16089 55fa 37       		.uleb128 0x37
 16090 55fb A6000000 		.4byte	.LVL181
 16091 55ff 125A0000 		.4byte	0x5a12
 16092 5603 14560000 		.4byte	0x5614
 16093 5607 36       		.uleb128 0x36
 16094 5608 01       		.uleb128 0x1
 16095 5609 50       		.byte	0x50
 16096 560a 02       		.uleb128 0x2
 16097 560b 08       		.byte	0x8
 16098 560c 6E       		.byte	0x6e
 16099 560d 36       		.uleb128 0x36
 16100 560e 01       		.uleb128 0x1
 16101 560f 51       		.byte	0x51
 16102 5610 02       		.uleb128 0x2
 16103 5611 08       		.byte	0x8
 16104 5612 35       		.byte	0x35
 16105 5613 00       		.byte	0
 16106 5614 37       		.uleb128 0x37
 16107 5615 B4000000 		.4byte	.LVL183
 16108 5619 125A0000 		.4byte	0x5a12
 16109 561d 33560000 		.4byte	0x5633
 16110 5621 36       		.uleb128 0x36
 16111 5622 01       		.uleb128 0x1
 16112 5623 50       		.byte	0x50
 16113 5624 02       		.uleb128 0x2
 16114 5625 08       		.byte	0x8
 16115 5626 6E       		.byte	0x6e
 16116 5627 36       		.uleb128 0x36
 16117 5628 01       		.uleb128 0x1
 16118 5629 51       		.byte	0x51
 16119 562a 02       		.uleb128 0x2
 16120 562b 08       		.byte	0x8
 16121 562c 36       		.byte	0x36
 16122 562d 36       		.uleb128 0x36
 16123 562e 01       		.uleb128 0x1
 16124 562f 52       		.byte	0x52
 16125 5630 01       		.uleb128 0x1
 16126 5631 31       		.byte	0x31
 16127 5632 00       		.byte	0
 16128 5633 37       		.uleb128 0x37
 16129 5634 C2000000 		.4byte	.LVL185
 16130 5638 125A0000 		.4byte	0x5a12
ARM GAS  /tmp/cczbsEFl.s 			page 284


 16131 563c 4D560000 		.4byte	0x564d
 16132 5640 36       		.uleb128 0x36
 16133 5641 01       		.uleb128 0x1
 16134 5642 50       		.byte	0x50
 16135 5643 02       		.uleb128 0x2
 16136 5644 08       		.byte	0x8
 16137 5645 6E       		.byte	0x6e
 16138 5646 36       		.uleb128 0x36
 16139 5647 01       		.uleb128 0x1
 16140 5648 51       		.byte	0x51
 16141 5649 02       		.uleb128 0x2
 16142 564a 08       		.byte	0x8
 16143 564b 37       		.byte	0x37
 16144 564c 00       		.byte	0
 16145 564d 37       		.uleb128 0x37
 16146 564e D0000000 		.4byte	.LVL187
 16147 5652 125A0000 		.4byte	0x5a12
 16148 5656 6D560000 		.4byte	0x566d
 16149 565a 36       		.uleb128 0x36
 16150 565b 01       		.uleb128 0x1
 16151 565c 50       		.byte	0x50
 16152 565d 02       		.uleb128 0x2
 16153 565e 08       		.byte	0x8
 16154 565f 6E       		.byte	0x6e
 16155 5660 36       		.uleb128 0x36
 16156 5661 01       		.uleb128 0x1
 16157 5662 51       		.byte	0x51
 16158 5663 02       		.uleb128 0x2
 16159 5664 08       		.byte	0x8
 16160 5665 38       		.byte	0x38
 16161 5666 36       		.uleb128 0x36
 16162 5667 01       		.uleb128 0x1
 16163 5668 52       		.byte	0x52
 16164 5669 02       		.uleb128 0x2
 16165 566a 09       		.byte	0x9
 16166 566b A0       		.byte	0xa0
 16167 566c 00       		.byte	0
 16168 566d 37       		.uleb128 0x37
 16169 566e DE000000 		.4byte	.LVL189
 16170 5672 125A0000 		.4byte	0x5a12
 16171 5676 87560000 		.4byte	0x5687
 16172 567a 36       		.uleb128 0x36
 16173 567b 01       		.uleb128 0x1
 16174 567c 50       		.byte	0x50
 16175 567d 02       		.uleb128 0x2
 16176 567e 08       		.byte	0x8
 16177 567f 6E       		.byte	0x6e
 16178 5680 36       		.uleb128 0x36
 16179 5681 01       		.uleb128 0x1
 16180 5682 51       		.byte	0x51
 16181 5683 02       		.uleb128 0x2
 16182 5684 08       		.byte	0x8
 16183 5685 39       		.byte	0x39
 16184 5686 00       		.byte	0
 16185 5687 37       		.uleb128 0x37
 16186 5688 EC000000 		.4byte	.LVL191
 16187 568c 125A0000 		.4byte	0x5a12
ARM GAS  /tmp/cczbsEFl.s 			page 285


 16188 5690 A6560000 		.4byte	0x56a6
 16189 5694 36       		.uleb128 0x36
 16190 5695 01       		.uleb128 0x1
 16191 5696 50       		.byte	0x50
 16192 5697 02       		.uleb128 0x2
 16193 5698 08       		.byte	0x8
 16194 5699 6E       		.byte	0x6e
 16195 569a 36       		.uleb128 0x36
 16196 569b 01       		.uleb128 0x1
 16197 569c 51       		.byte	0x51
 16198 569d 02       		.uleb128 0x2
 16199 569e 08       		.byte	0x8
 16200 569f 3A       		.byte	0x3a
 16201 56a0 36       		.uleb128 0x36
 16202 56a1 01       		.uleb128 0x1
 16203 56a2 52       		.byte	0x52
 16204 56a3 01       		.uleb128 0x1
 16205 56a4 31       		.byte	0x31
 16206 56a5 00       		.byte	0
 16207 56a6 37       		.uleb128 0x37
 16208 56a7 FA000000 		.4byte	.LVL193
 16209 56ab 125A0000 		.4byte	0x5a12
 16210 56af C0560000 		.4byte	0x56c0
 16211 56b3 36       		.uleb128 0x36
 16212 56b4 01       		.uleb128 0x1
 16213 56b5 50       		.byte	0x50
 16214 56b6 02       		.uleb128 0x2
 16215 56b7 08       		.byte	0x8
 16216 56b8 6E       		.byte	0x6e
 16217 56b9 36       		.uleb128 0x36
 16218 56ba 01       		.uleb128 0x1
 16219 56bb 51       		.byte	0x51
 16220 56bc 02       		.uleb128 0x2
 16221 56bd 08       		.byte	0x8
 16222 56be 3B       		.byte	0x3b
 16223 56bf 00       		.byte	0
 16224 56c0 37       		.uleb128 0x37
 16225 56c1 08010000 		.4byte	.LVL195
 16226 56c5 125A0000 		.4byte	0x5a12
 16227 56c9 E0560000 		.4byte	0x56e0
 16228 56cd 36       		.uleb128 0x36
 16229 56ce 01       		.uleb128 0x1
 16230 56cf 50       		.byte	0x50
 16231 56d0 02       		.uleb128 0x2
 16232 56d1 08       		.byte	0x8
 16233 56d2 6E       		.byte	0x6e
 16234 56d3 36       		.uleb128 0x36
 16235 56d4 01       		.uleb128 0x1
 16236 56d5 51       		.byte	0x51
 16237 56d6 02       		.uleb128 0x2
 16238 56d7 08       		.byte	0x8
 16239 56d8 3C       		.byte	0x3c
 16240 56d9 36       		.uleb128 0x36
 16241 56da 01       		.uleb128 0x1
 16242 56db 52       		.byte	0x52
 16243 56dc 02       		.uleb128 0x2
 16244 56dd 08       		.byte	0x8
ARM GAS  /tmp/cczbsEFl.s 			page 286


 16245 56de 78       		.byte	0x78
 16246 56df 00       		.byte	0
 16247 56e0 37       		.uleb128 0x37
 16248 56e1 16010000 		.4byte	.LVL197
 16249 56e5 125A0000 		.4byte	0x5a12
 16250 56e9 FA560000 		.4byte	0x56fa
 16251 56ed 36       		.uleb128 0x36
 16252 56ee 01       		.uleb128 0x1
 16253 56ef 50       		.byte	0x50
 16254 56f0 02       		.uleb128 0x2
 16255 56f1 08       		.byte	0x8
 16256 56f2 6E       		.byte	0x6e
 16257 56f3 36       		.uleb128 0x36
 16258 56f4 01       		.uleb128 0x1
 16259 56f5 51       		.byte	0x51
 16260 56f6 02       		.uleb128 0x2
 16261 56f7 08       		.byte	0x8
 16262 56f8 3D       		.byte	0x3d
 16263 56f9 00       		.byte	0
 16264 56fa 37       		.uleb128 0x37
 16265 56fb 26010000 		.4byte	.LVL199
 16266 56ff 125A0000 		.4byte	0x5a12
 16267 5703 1A570000 		.4byte	0x571a
 16268 5707 36       		.uleb128 0x36
 16269 5708 01       		.uleb128 0x1
 16270 5709 50       		.byte	0x50
 16271 570a 02       		.uleb128 0x2
 16272 570b 08       		.byte	0x8
 16273 570c 6E       		.byte	0x6e
 16274 570d 36       		.uleb128 0x36
 16275 570e 01       		.uleb128 0x1
 16276 570f 51       		.byte	0x51
 16277 5710 02       		.uleb128 0x2
 16278 5711 08       		.byte	0x8
 16279 5712 3E       		.byte	0x3e
 16280 5713 36       		.uleb128 0x36
 16281 5714 01       		.uleb128 0x1
 16282 5715 52       		.byte	0x52
 16283 5716 02       		.uleb128 0x2
 16284 5717 08       		.byte	0x8
 16285 5718 36       		.byte	0x36
 16286 5719 00       		.byte	0
 16287 571a 37       		.uleb128 0x37
 16288 571b 36010000 		.4byte	.LVL201
 16289 571f 125A0000 		.4byte	0x5a12
 16290 5723 34570000 		.4byte	0x5734
 16291 5727 36       		.uleb128 0x36
 16292 5728 01       		.uleb128 0x1
 16293 5729 50       		.byte	0x50
 16294 572a 02       		.uleb128 0x2
 16295 572b 08       		.byte	0x8
 16296 572c 6E       		.byte	0x6e
 16297 572d 36       		.uleb128 0x36
 16298 572e 01       		.uleb128 0x1
 16299 572f 51       		.byte	0x51
 16300 5730 02       		.uleb128 0x2
 16301 5731 08       		.byte	0x8
ARM GAS  /tmp/cczbsEFl.s 			page 287


 16302 5732 3F       		.byte	0x3f
 16303 5733 00       		.byte	0
 16304 5734 37       		.uleb128 0x37
 16305 5735 46010000 		.4byte	.LVL203
 16306 5739 125A0000 		.4byte	0x5a12
 16307 573d 54570000 		.4byte	0x5754
 16308 5741 36       		.uleb128 0x36
 16309 5742 01       		.uleb128 0x1
 16310 5743 50       		.byte	0x50
 16311 5744 02       		.uleb128 0x2
 16312 5745 08       		.byte	0x8
 16313 5746 6E       		.byte	0x6e
 16314 5747 36       		.uleb128 0x36
 16315 5748 01       		.uleb128 0x1
 16316 5749 51       		.byte	0x51
 16317 574a 02       		.uleb128 0x2
 16318 574b 08       		.byte	0x8
 16319 574c 40       		.byte	0x40
 16320 574d 36       		.uleb128 0x36
 16321 574e 01       		.uleb128 0x1
 16322 574f 52       		.byte	0x52
 16323 5750 02       		.uleb128 0x2
 16324 5751 08       		.byte	0x8
 16325 5752 6B       		.byte	0x6b
 16326 5753 00       		.byte	0
 16327 5754 37       		.uleb128 0x37
 16328 5755 56010000 		.4byte	.LVL205
 16329 5759 125A0000 		.4byte	0x5a12
 16330 575d 6E570000 		.4byte	0x576e
 16331 5761 36       		.uleb128 0x36
 16332 5762 01       		.uleb128 0x1
 16333 5763 50       		.byte	0x50
 16334 5764 02       		.uleb128 0x2
 16335 5765 08       		.byte	0x8
 16336 5766 6E       		.byte	0x6e
 16337 5767 36       		.uleb128 0x36
 16338 5768 01       		.uleb128 0x1
 16339 5769 51       		.byte	0x51
 16340 576a 02       		.uleb128 0x2
 16341 576b 08       		.byte	0x8
 16342 576c 41       		.byte	0x41
 16343 576d 00       		.byte	0
 16344 576e 37       		.uleb128 0x37
 16345 576f 66010000 		.4byte	.LVL207
 16346 5773 125A0000 		.4byte	0x5a12
 16347 5777 8E570000 		.4byte	0x578e
 16348 577b 36       		.uleb128 0x36
 16349 577c 01       		.uleb128 0x1
 16350 577d 50       		.byte	0x50
 16351 577e 02       		.uleb128 0x2
 16352 577f 08       		.byte	0x8
 16353 5780 6E       		.byte	0x6e
 16354 5781 36       		.uleb128 0x36
 16355 5782 01       		.uleb128 0x1
 16356 5783 51       		.byte	0x51
 16357 5784 02       		.uleb128 0x2
 16358 5785 08       		.byte	0x8
ARM GAS  /tmp/cczbsEFl.s 			page 288


 16359 5786 42       		.byte	0x42
 16360 5787 36       		.uleb128 0x36
 16361 5788 01       		.uleb128 0x1
 16362 5789 52       		.byte	0x52
 16363 578a 02       		.uleb128 0x2
 16364 578b 08       		.byte	0x8
 16365 578c 29       		.byte	0x29
 16366 578d 00       		.byte	0
 16367 578e 37       		.uleb128 0x37
 16368 578f 76010000 		.4byte	.LVL209
 16369 5793 125A0000 		.4byte	0x5a12
 16370 5797 A8570000 		.4byte	0x57a8
 16371 579b 36       		.uleb128 0x36
 16372 579c 01       		.uleb128 0x1
 16373 579d 50       		.byte	0x50
 16374 579e 02       		.uleb128 0x2
 16375 579f 08       		.byte	0x8
 16376 57a0 6E       		.byte	0x6e
 16377 57a1 36       		.uleb128 0x36
 16378 57a2 01       		.uleb128 0x1
 16379 57a3 51       		.byte	0x51
 16380 57a4 02       		.uleb128 0x2
 16381 57a5 08       		.byte	0x8
 16382 57a6 43       		.byte	0x43
 16383 57a7 00       		.byte	0
 16384 57a8 37       		.uleb128 0x37
 16385 57a9 86010000 		.4byte	.LVL211
 16386 57ad 125A0000 		.4byte	0x5a12
 16387 57b1 C8570000 		.4byte	0x57c8
 16388 57b5 36       		.uleb128 0x36
 16389 57b6 01       		.uleb128 0x1
 16390 57b7 50       		.byte	0x50
 16391 57b8 02       		.uleb128 0x2
 16392 57b9 08       		.byte	0x8
 16393 57ba 6E       		.byte	0x6e
 16394 57bb 36       		.uleb128 0x36
 16395 57bc 01       		.uleb128 0x1
 16396 57bd 51       		.byte	0x51
 16397 57be 02       		.uleb128 0x2
 16398 57bf 08       		.byte	0x8
 16399 57c0 44       		.byte	0x44
 16400 57c1 36       		.uleb128 0x36
 16401 57c2 01       		.uleb128 0x1
 16402 57c3 52       		.byte	0x52
 16403 57c4 02       		.uleb128 0x2
 16404 57c5 08       		.byte	0x8
 16405 57c6 50       		.byte	0x50
 16406 57c7 00       		.byte	0
 16407 57c8 37       		.uleb128 0x37
 16408 57c9 A6010000 		.4byte	.LVL216
 16409 57cd 125A0000 		.4byte	0x5a12
 16410 57d1 E8570000 		.4byte	0x57e8
 16411 57d5 36       		.uleb128 0x36
 16412 57d6 01       		.uleb128 0x1
 16413 57d7 50       		.byte	0x50
 16414 57d8 02       		.uleb128 0x2
 16415 57d9 08       		.byte	0x8
ARM GAS  /tmp/cczbsEFl.s 			page 289


 16416 57da 6E       		.byte	0x6e
 16417 57db 36       		.uleb128 0x36
 16418 57dc 01       		.uleb128 0x1
 16419 57dd 51       		.byte	0x51
 16420 57de 02       		.uleb128 0x2
 16421 57df 09       		.byte	0x9
 16422 57e0 93       		.byte	0x93
 16423 57e1 36       		.uleb128 0x36
 16424 57e2 01       		.uleb128 0x1
 16425 57e3 52       		.byte	0x52
 16426 57e4 02       		.uleb128 0x2
 16427 57e5 09       		.byte	0x9
 16428 57e6 80       		.byte	0x80
 16429 57e7 00       		.byte	0
 16430 57e8 35       		.uleb128 0x35
 16431 57e9 B6010000 		.4byte	.LVL218
 16432 57ed 125A0000 		.4byte	0x5a12
 16433 57f1 36       		.uleb128 0x36
 16434 57f2 01       		.uleb128 0x1
 16435 57f3 50       		.byte	0x50
 16436 57f4 02       		.uleb128 0x2
 16437 57f5 08       		.byte	0x8
 16438 57f6 6E       		.byte	0x6e
 16439 57f7 36       		.uleb128 0x36
 16440 57f8 01       		.uleb128 0x1
 16441 57f9 51       		.byte	0x51
 16442 57fa 02       		.uleb128 0x2
 16443 57fb 09       		.byte	0x9
 16444 57fc 94       		.byte	0x94
 16445 57fd 36       		.uleb128 0x36
 16446 57fe 01       		.uleb128 0x1
 16447 57ff 52       		.byte	0x52
 16448 5800 02       		.uleb128 0x2
 16449 5801 09       		.byte	0x9
 16450 5802 80       		.byte	0x80
 16451 5803 00       		.byte	0
 16452 5804 00       		.byte	0
 16453 5805 37       		.uleb128 0x37
 16454 5806 36000000 		.4byte	.LVL165
 16455 580a 125A0000 		.4byte	0x5a12
 16456 580e 1E580000 		.4byte	0x581e
 16457 5812 36       		.uleb128 0x36
 16458 5813 01       		.uleb128 0x1
 16459 5814 50       		.byte	0x50
 16460 5815 02       		.uleb128 0x2
 16461 5816 08       		.byte	0x8
 16462 5817 6E       		.byte	0x6e
 16463 5818 36       		.uleb128 0x36
 16464 5819 01       		.uleb128 0x1
 16465 581a 51       		.byte	0x51
 16466 581b 01       		.uleb128 0x1
 16467 581c 38       		.byte	0x38
 16468 581d 00       		.byte	0
 16469 581e 37       		.uleb128 0x37
 16470 581f 44000000 		.4byte	.LVL167
 16471 5823 125A0000 		.4byte	0x5a12
 16472 5827 3C580000 		.4byte	0x583c
ARM GAS  /tmp/cczbsEFl.s 			page 290


 16473 582b 36       		.uleb128 0x36
 16474 582c 01       		.uleb128 0x1
 16475 582d 50       		.byte	0x50
 16476 582e 02       		.uleb128 0x2
 16477 582f 08       		.byte	0x8
 16478 5830 6E       		.byte	0x6e
 16479 5831 36       		.uleb128 0x36
 16480 5832 01       		.uleb128 0x1
 16481 5833 51       		.byte	0x51
 16482 5834 01       		.uleb128 0x1
 16483 5835 39       		.byte	0x39
 16484 5836 36       		.uleb128 0x36
 16485 5837 01       		.uleb128 0x1
 16486 5838 52       		.byte	0x52
 16487 5839 01       		.uleb128 0x1
 16488 583a 31       		.byte	0x31
 16489 583b 00       		.byte	0
 16490 583c 37       		.uleb128 0x37
 16491 583d 52000000 		.4byte	.LVL169
 16492 5841 125A0000 		.4byte	0x5a12
 16493 5845 55580000 		.4byte	0x5855
 16494 5849 36       		.uleb128 0x36
 16495 584a 01       		.uleb128 0x1
 16496 584b 50       		.byte	0x50
 16497 584c 02       		.uleb128 0x2
 16498 584d 08       		.byte	0x8
 16499 584e 6E       		.byte	0x6e
 16500 584f 36       		.uleb128 0x36
 16501 5850 01       		.uleb128 0x1
 16502 5851 51       		.byte	0x51
 16503 5852 01       		.uleb128 0x1
 16504 5853 3A       		.byte	0x3a
 16505 5854 00       		.byte	0
 16506 5855 37       		.uleb128 0x37
 16507 5856 60000000 		.4byte	.LVL171
 16508 585a 125A0000 		.4byte	0x5a12
 16509 585e 73580000 		.4byte	0x5873
 16510 5862 36       		.uleb128 0x36
 16511 5863 01       		.uleb128 0x1
 16512 5864 50       		.byte	0x50
 16513 5865 02       		.uleb128 0x2
 16514 5866 08       		.byte	0x8
 16515 5867 6E       		.byte	0x6e
 16516 5868 36       		.uleb128 0x36
 16517 5869 01       		.uleb128 0x1
 16518 586a 51       		.byte	0x51
 16519 586b 01       		.uleb128 0x1
 16520 586c 3B       		.byte	0x3b
 16521 586d 36       		.uleb128 0x36
 16522 586e 01       		.uleb128 0x1
 16523 586f 52       		.byte	0x52
 16524 5870 01       		.uleb128 0x1
 16525 5871 31       		.byte	0x31
 16526 5872 00       		.byte	0
 16527 5873 30       		.uleb128 0x30
 16528 5874 CE010000 		.4byte	.LVL220
 16529 5878 095A0000 		.4byte	0x5a09
ARM GAS  /tmp/cczbsEFl.s 			page 291


 16530 587c 00       		.byte	0
 16531 587d 4A       		.uleb128 0x4a
 16532 587e 33490000 		.4byte	0x4933
 16533 5882 00000000 		.4byte	.LFB264
 16534 5886 0C010000 		.4byte	.LFE264-.LFB264
 16535 588a 01       		.uleb128 0x1
 16536 588b 9C       		.byte	0x9c
 16537 588c 095A0000 		.4byte	0x5a09
 16538 5890 34       		.uleb128 0x34
 16539 5891 45490000 		.4byte	0x4945
 16540 5895 B4170000 		.4byte	.LLST23
 16541 5899 B0170000 		.4byte	.LVUS23
 16542 589d 34       		.uleb128 0x34
 16543 589e 52490000 		.4byte	0x4952
 16544 58a2 D9170000 		.4byte	.LLST24
 16545 58a6 D5170000 		.4byte	.LVUS24
 16546 58aa 4B       		.uleb128 0x4b
 16547 58ab 5F490000 		.4byte	0x495f
 16548 58af 0A180000 		.4byte	.LLST25
 16549 58b3 FA170000 		.4byte	.LVUS25
 16550 58b7 3B       		.uleb128 0x3b
 16551 58b8 4A4A0000 		.4byte	0x4a4a
 16552 58bc 18000000 		.4byte	.LBI140
 16553 58c0 0200     		.2byte	.LVU527
 16554 58c2 60000000 		.4byte	.Ldebug_ranges0+0x60
 16555 58c6 01       		.byte	0x1
 16556 58c7 1502     		.2byte	0x215
 16557 58c9 0F       		.byte	0xf
 16558 58ca F6580000 		.4byte	0x58f6
 16559 58ce 34       		.uleb128 0x34
 16560 58cf 5B4A0000 		.4byte	0x4a5b
 16561 58d3 6D180000 		.4byte	.LLST26
 16562 58d7 6B180000 		.4byte	.LVUS26
 16563 58db 35       		.uleb128 0x35
 16564 58dc 1C000000 		.4byte	.LVL232
 16565 58e0 125A0000 		.4byte	0x5a12
 16566 58e4 36       		.uleb128 0x36
 16567 58e5 01       		.uleb128 0x1
 16568 58e6 50       		.byte	0x50
 16569 58e7 02       		.uleb128 0x2
 16570 58e8 08       		.byte	0x8
 16571 58e9 6E       		.byte	0x6e
 16572 58ea 36       		.uleb128 0x36
 16573 58eb 01       		.uleb128 0x1
 16574 58ec 51       		.byte	0x51
 16575 58ed 01       		.uleb128 0x1
 16576 58ee 33       		.byte	0x33
 16577 58ef 36       		.uleb128 0x36
 16578 58f0 01       		.uleb128 0x1
 16579 58f1 52       		.byte	0x52
 16580 58f2 01       		.uleb128 0x1
 16581 58f3 31       		.byte	0x31
 16582 58f4 00       		.byte	0
 16583 58f5 00       		.byte	0
 16584 58f6 3B       		.uleb128 0x3b
 16585 58f7 33490000 		.4byte	0x4933
 16586 58fb 1E000000 		.4byte	.LBI144
ARM GAS  /tmp/cczbsEFl.s 			page 292


 16587 58ff 0000     		.2byte	.LVU532
 16588 5901 78000000 		.4byte	.Ldebug_ranges0+0x78
 16589 5905 01       		.byte	0x1
 16590 5906 1202     		.2byte	0x212
 16591 5908 08       		.byte	0x8
 16592 5909 FF590000 		.4byte	0x59ff
 16593 590d 34       		.uleb128 0x34
 16594 590e 52490000 		.4byte	0x4952
 16595 5912 89180000 		.4byte	.LLST27
 16596 5916 81180000 		.4byte	.LVUS27
 16597 591a 34       		.uleb128 0x34
 16598 591b 45490000 		.4byte	0x4945
 16599 591f C5180000 		.4byte	.LLST28
 16600 5923 BD180000 		.4byte	.LVUS28
 16601 5927 4E       		.uleb128 0x4e
 16602 5928 78000000 		.4byte	.Ldebug_ranges0+0x78
 16603 592c 4B       		.uleb128 0x4b
 16604 592d 5F490000 		.4byte	0x495f
 16605 5931 05190000 		.4byte	.LLST29
 16606 5935 F9180000 		.4byte	.LVUS29
 16607 5939 37       		.uleb128 0x37
 16608 593a 50000000 		.4byte	.LVL237
 16609 593e 125A0000 		.4byte	0x5a12
 16610 5942 59590000 		.4byte	0x5959
 16611 5946 36       		.uleb128 0x36
 16612 5947 01       		.uleb128 0x1
 16613 5948 50       		.byte	0x50
 16614 5949 02       		.uleb128 0x2
 16615 594a 08       		.byte	0x8
 16616 594b 6E       		.byte	0x6e
 16617 594c 36       		.uleb128 0x36
 16618 594d 01       		.uleb128 0x1
 16619 594e 51       		.byte	0x51
 16620 594f 02       		.uleb128 0x2
 16621 5950 09       		.byte	0x9
 16622 5951 95       		.byte	0x95
 16623 5952 36       		.uleb128 0x36
 16624 5953 01       		.uleb128 0x1
 16625 5954 52       		.byte	0x52
 16626 5955 02       		.uleb128 0x2
 16627 5956 74       		.byte	0x74
 16628 5957 00       		.sleb128 0
 16629 5958 00       		.byte	0
 16630 5959 37       		.uleb128 0x37
 16631 595a 6E000000 		.4byte	.LVL240
 16632 595e 125A0000 		.4byte	0x5a12
 16633 5962 79590000 		.4byte	0x5979
 16634 5966 36       		.uleb128 0x36
 16635 5967 01       		.uleb128 0x1
 16636 5968 50       		.byte	0x50
 16637 5969 02       		.uleb128 0x2
 16638 596a 08       		.byte	0x8
 16639 596b 6E       		.byte	0x6e
 16640 596c 36       		.uleb128 0x36
 16641 596d 01       		.uleb128 0x1
 16642 596e 51       		.byte	0x51
 16643 596f 02       		.uleb128 0x2
ARM GAS  /tmp/cczbsEFl.s 			page 293


 16644 5970 09       		.byte	0x9
 16645 5971 95       		.byte	0x95
 16646 5972 36       		.uleb128 0x36
 16647 5973 01       		.uleb128 0x1
 16648 5974 52       		.byte	0x52
 16649 5975 02       		.uleb128 0x2
 16650 5976 74       		.byte	0x74
 16651 5977 00       		.sleb128 0
 16652 5978 00       		.byte	0
 16653 5979 38       		.uleb128 0x38
 16654 597a 8E000000 		.4byte	.LVL243
 16655 597e 125A0000 		.4byte	0x5a12
 16656 5982 93590000 		.4byte	0x5993
 16657 5986 36       		.uleb128 0x36
 16658 5987 01       		.uleb128 0x1
 16659 5988 50       		.byte	0x50
 16660 5989 02       		.uleb128 0x2
 16661 598a 08       		.byte	0x8
 16662 598b 6E       		.byte	0x6e
 16663 598c 36       		.uleb128 0x36
 16664 598d 01       		.uleb128 0x1
 16665 598e 51       		.byte	0x51
 16666 598f 02       		.uleb128 0x2
 16667 5990 09       		.byte	0x9
 16668 5991 96       		.byte	0x96
 16669 5992 00       		.byte	0
 16670 5993 37       		.uleb128 0x37
 16671 5994 98000000 		.4byte	.LVL245
 16672 5998 125A0000 		.4byte	0x5a12
 16673 599c AD590000 		.4byte	0x59ad
 16674 59a0 36       		.uleb128 0x36
 16675 59a1 01       		.uleb128 0x1
 16676 59a2 50       		.byte	0x50
 16677 59a3 02       		.uleb128 0x2
 16678 59a4 08       		.byte	0x8
 16679 59a5 6E       		.byte	0x6e
 16680 59a6 36       		.uleb128 0x36
 16681 59a7 01       		.uleb128 0x1
 16682 59a8 51       		.byte	0x51
 16683 59a9 02       		.uleb128 0x2
 16684 59aa 09       		.byte	0x9
 16685 59ab 95       		.byte	0x95
 16686 59ac 00       		.byte	0
 16687 59ad 37       		.uleb128 0x37
 16688 59ae B6000000 		.4byte	.LVL248
 16689 59b2 125A0000 		.4byte	0x5a12
 16690 59b6 C7590000 		.4byte	0x59c7
 16691 59ba 36       		.uleb128 0x36
 16692 59bb 01       		.uleb128 0x1
 16693 59bc 50       		.byte	0x50
 16694 59bd 02       		.uleb128 0x2
 16695 59be 08       		.byte	0x8
 16696 59bf 6E       		.byte	0x6e
 16697 59c0 36       		.uleb128 0x36
 16698 59c1 01       		.uleb128 0x1
 16699 59c2 51       		.byte	0x51
 16700 59c3 02       		.uleb128 0x2
ARM GAS  /tmp/cczbsEFl.s 			page 294


 16701 59c4 09       		.byte	0x9
 16702 59c5 95       		.byte	0x95
 16703 59c6 00       		.byte	0
 16704 59c7 37       		.uleb128 0x37
 16705 59c8 D6000000 		.4byte	.LVL252
 16706 59cc 125A0000 		.4byte	0x5a12
 16707 59d0 E1590000 		.4byte	0x59e1
 16708 59d4 36       		.uleb128 0x36
 16709 59d5 01       		.uleb128 0x1
 16710 59d6 50       		.byte	0x50
 16711 59d7 02       		.uleb128 0x2
 16712 59d8 08       		.byte	0x8
 16713 59d9 6E       		.byte	0x6e
 16714 59da 36       		.uleb128 0x36
 16715 59db 01       		.uleb128 0x1
 16716 59dc 51       		.byte	0x51
 16717 59dd 02       		.uleb128 0x2
 16718 59de 09       		.byte	0x9
 16719 59df 95       		.byte	0x95
 16720 59e0 00       		.byte	0
 16721 59e1 35       		.uleb128 0x35
 16722 59e2 F4000000 		.4byte	.LVL255
 16723 59e6 125A0000 		.4byte	0x5a12
 16724 59ea 36       		.uleb128 0x36
 16725 59eb 01       		.uleb128 0x1
 16726 59ec 50       		.byte	0x50
 16727 59ed 02       		.uleb128 0x2
 16728 59ee 08       		.byte	0x8
 16729 59ef 6E       		.byte	0x6e
 16730 59f0 36       		.uleb128 0x36
 16731 59f1 01       		.uleb128 0x1
 16732 59f2 51       		.byte	0x51
 16733 59f3 02       		.uleb128 0x2
 16734 59f4 09       		.byte	0x9
 16735 59f5 95       		.byte	0x95
 16736 59f6 36       		.uleb128 0x36
 16737 59f7 01       		.uleb128 0x1
 16738 59f8 52       		.byte	0x52
 16739 59f9 02       		.uleb128 0x2
 16740 59fa 74       		.byte	0x74
 16741 59fb 00       		.sleb128 0
 16742 59fc 00       		.byte	0
 16743 59fd 00       		.byte	0
 16744 59fe 00       		.byte	0
 16745 59ff 30       		.uleb128 0x30
 16746 5a00 CC000000 		.4byte	.LVL250
 16747 5a04 095A0000 		.4byte	0x5a09
 16748 5a08 00       		.byte	0
 16749 5a09 4F       		.uleb128 0x4f
 16750 5a0a FC040000 		.4byte	.LASF795
 16751 5a0e FC040000 		.4byte	.LASF795
 16752 5a12 50       		.uleb128 0x50
 16753 5a13 A3180000 		.4byte	.LASF786
 16754 5a17 A3180000 		.4byte	.LASF786
 16755 5a1b 34       		.byte	0x34
 16756 5a1c 2F       		.byte	0x2f
 16757 5a1d 08       		.byte	0x8
ARM GAS  /tmp/cczbsEFl.s 			page 295


 16758 5a1e 50       		.uleb128 0x50
 16759 5a1f D5060000 		.4byte	.LASF787
 16760 5a23 D5060000 		.4byte	.LASF787
 16761 5a27 34       		.byte	0x34
 16762 5a28 24       		.byte	0x24
 16763 5a29 08       		.byte	0x8
 16764 5a2a 50       		.uleb128 0x50
 16765 5a2b 641B0000 		.4byte	.LASF788
 16766 5a2f 641B0000 		.4byte	.LASF788
 16767 5a33 34       		.byte	0x34
 16768 5a34 0D       		.byte	0xd
 16769 5a35 06       		.byte	0x6
 16770 5a36 51       		.uleb128 0x51
 16771 5a37 E21F0000 		.4byte	.LASF789
 16772 5a3b E21F0000 		.4byte	.LASF789
 16773 5a3f 26       		.byte	0x26
 16774 5a40 2101     		.2byte	0x121
 16775 5a42 08       		.byte	0x8
 16776 5a43 51       		.uleb128 0x51
 16777 5a44 121E0000 		.4byte	.LASF790
 16778 5a48 121E0000 		.4byte	.LASF790
 16779 5a4c 26       		.byte	0x26
 16780 5a4d 2401     		.2byte	0x124
 16781 5a4f 08       		.byte	0x8
 16782 5a50 00       		.byte	0
 16783              		.section	.debug_abbrev,"",%progbits
 16784              	.Ldebug_abbrev0:
 16785 0000 01       		.uleb128 0x1
 16786 0001 11       		.uleb128 0x11
 16787 0002 01       		.byte	0x1
 16788 0003 25       		.uleb128 0x25
 16789 0004 0E       		.uleb128 0xe
 16790 0005 13       		.uleb128 0x13
 16791 0006 0B       		.uleb128 0xb
 16792 0007 03       		.uleb128 0x3
 16793 0008 0E       		.uleb128 0xe
 16794 0009 1B       		.uleb128 0x1b
 16795 000a 0E       		.uleb128 0xe
 16796 000b 55       		.uleb128 0x55
 16797 000c 17       		.uleb128 0x17
 16798 000d 11       		.uleb128 0x11
 16799 000e 01       		.uleb128 0x1
 16800 000f 10       		.uleb128 0x10
 16801 0010 17       		.uleb128 0x17
 16802 0011 00       		.byte	0
 16803 0012 00       		.byte	0
 16804 0013 02       		.uleb128 0x2
 16805 0014 24       		.uleb128 0x24
 16806 0015 00       		.byte	0
 16807 0016 0B       		.uleb128 0xb
 16808 0017 0B       		.uleb128 0xb
 16809 0018 3E       		.uleb128 0x3e
 16810 0019 0B       		.uleb128 0xb
 16811 001a 03       		.uleb128 0x3
 16812 001b 0E       		.uleb128 0xe
 16813 001c 00       		.byte	0
 16814 001d 00       		.byte	0
ARM GAS  /tmp/cczbsEFl.s 			page 296


 16815 001e 03       		.uleb128 0x3
 16816 001f 24       		.uleb128 0x24
 16817 0020 00       		.byte	0
 16818 0021 0B       		.uleb128 0xb
 16819 0022 0B       		.uleb128 0xb
 16820 0023 3E       		.uleb128 0x3e
 16821 0024 0B       		.uleb128 0xb
 16822 0025 03       		.uleb128 0x3
 16823 0026 08       		.uleb128 0x8
 16824 0027 00       		.byte	0
 16825 0028 00       		.byte	0
 16826 0029 04       		.uleb128 0x4
 16827 002a 16       		.uleb128 0x16
 16828 002b 00       		.byte	0
 16829 002c 03       		.uleb128 0x3
 16830 002d 0E       		.uleb128 0xe
 16831 002e 3A       		.uleb128 0x3a
 16832 002f 0B       		.uleb128 0xb
 16833 0030 3B       		.uleb128 0x3b
 16834 0031 0B       		.uleb128 0xb
 16835 0032 39       		.uleb128 0x39
 16836 0033 0B       		.uleb128 0xb
 16837 0034 49       		.uleb128 0x49
 16838 0035 13       		.uleb128 0x13
 16839 0036 00       		.byte	0
 16840 0037 00       		.byte	0
 16841 0038 05       		.uleb128 0x5
 16842 0039 35       		.uleb128 0x35
 16843 003a 00       		.byte	0
 16844 003b 49       		.uleb128 0x49
 16845 003c 13       		.uleb128 0x13
 16846 003d 00       		.byte	0
 16847 003e 00       		.byte	0
 16848 003f 06       		.uleb128 0x6
 16849 0040 26       		.uleb128 0x26
 16850 0041 00       		.byte	0
 16851 0042 49       		.uleb128 0x49
 16852 0043 13       		.uleb128 0x13
 16853 0044 00       		.byte	0
 16854 0045 00       		.byte	0
 16855 0046 07       		.uleb128 0x7
 16856 0047 13       		.uleb128 0x13
 16857 0048 01       		.byte	0x1
 16858 0049 03       		.uleb128 0x3
 16859 004a 0E       		.uleb128 0xe
 16860 004b 0B       		.uleb128 0xb
 16861 004c 0B       		.uleb128 0xb
 16862 004d 3A       		.uleb128 0x3a
 16863 004e 0B       		.uleb128 0xb
 16864 004f 3B       		.uleb128 0x3b
 16865 0050 0B       		.uleb128 0xb
 16866 0051 39       		.uleb128 0x39
 16867 0052 0B       		.uleb128 0xb
 16868 0053 01       		.uleb128 0x1
 16869 0054 13       		.uleb128 0x13
 16870 0055 00       		.byte	0
 16871 0056 00       		.byte	0
ARM GAS  /tmp/cczbsEFl.s 			page 297


 16872 0057 08       		.uleb128 0x8
 16873 0058 0D       		.uleb128 0xd
 16874 0059 00       		.byte	0
 16875 005a 03       		.uleb128 0x3
 16876 005b 0E       		.uleb128 0xe
 16877 005c 3A       		.uleb128 0x3a
 16878 005d 0B       		.uleb128 0xb
 16879 005e 3B       		.uleb128 0x3b
 16880 005f 0B       		.uleb128 0xb
 16881 0060 39       		.uleb128 0x39
 16882 0061 0B       		.uleb128 0xb
 16883 0062 49       		.uleb128 0x49
 16884 0063 13       		.uleb128 0x13
 16885 0064 38       		.uleb128 0x38
 16886 0065 0B       		.uleb128 0xb
 16887 0066 00       		.byte	0
 16888 0067 00       		.byte	0
 16889 0068 09       		.uleb128 0x9
 16890 0069 0D       		.uleb128 0xd
 16891 006a 00       		.byte	0
 16892 006b 03       		.uleb128 0x3
 16893 006c 08       		.uleb128 0x8
 16894 006d 3A       		.uleb128 0x3a
 16895 006e 0B       		.uleb128 0xb
 16896 006f 3B       		.uleb128 0x3b
 16897 0070 05       		.uleb128 0x5
 16898 0071 39       		.uleb128 0x39
 16899 0072 0B       		.uleb128 0xb
 16900 0073 49       		.uleb128 0x49
 16901 0074 13       		.uleb128 0x13
 16902 0075 38       		.uleb128 0x38
 16903 0076 0B       		.uleb128 0xb
 16904 0077 00       		.byte	0
 16905 0078 00       		.byte	0
 16906 0079 0A       		.uleb128 0xa
 16907 007a 0D       		.uleb128 0xd
 16908 007b 00       		.byte	0
 16909 007c 03       		.uleb128 0x3
 16910 007d 0E       		.uleb128 0xe
 16911 007e 3A       		.uleb128 0x3a
 16912 007f 0B       		.uleb128 0xb
 16913 0080 3B       		.uleb128 0x3b
 16914 0081 05       		.uleb128 0x5
 16915 0082 39       		.uleb128 0x39
 16916 0083 0B       		.uleb128 0xb
 16917 0084 49       		.uleb128 0x49
 16918 0085 13       		.uleb128 0x13
 16919 0086 38       		.uleb128 0x38
 16920 0087 0B       		.uleb128 0xb
 16921 0088 00       		.byte	0
 16922 0089 00       		.byte	0
 16923 008a 0B       		.uleb128 0xb
 16924 008b 0F       		.uleb128 0xf
 16925 008c 00       		.byte	0
 16926 008d 0B       		.uleb128 0xb
 16927 008e 0B       		.uleb128 0xb
 16928 008f 49       		.uleb128 0x49
ARM GAS  /tmp/cczbsEFl.s 			page 298


 16929 0090 13       		.uleb128 0x13
 16930 0091 00       		.byte	0
 16931 0092 00       		.byte	0
 16932 0093 0C       		.uleb128 0xc
 16933 0094 13       		.uleb128 0x13
 16934 0095 01       		.byte	0x1
 16935 0096 03       		.uleb128 0x3
 16936 0097 0E       		.uleb128 0xe
 16937 0098 0B       		.uleb128 0xb
 16938 0099 0B       		.uleb128 0xb
 16939 009a 3A       		.uleb128 0x3a
 16940 009b 0B       		.uleb128 0xb
 16941 009c 3B       		.uleb128 0x3b
 16942 009d 05       		.uleb128 0x5
 16943 009e 39       		.uleb128 0x39
 16944 009f 0B       		.uleb128 0xb
 16945 00a0 01       		.uleb128 0x1
 16946 00a1 13       		.uleb128 0x13
 16947 00a2 00       		.byte	0
 16948 00a3 00       		.byte	0
 16949 00a4 0D       		.uleb128 0xd
 16950 00a5 15       		.uleb128 0x15
 16951 00a6 01       		.byte	0x1
 16952 00a7 27       		.uleb128 0x27
 16953 00a8 19       		.uleb128 0x19
 16954 00a9 01       		.uleb128 0x1
 16955 00aa 13       		.uleb128 0x13
 16956 00ab 00       		.byte	0
 16957 00ac 00       		.byte	0
 16958 00ad 0E       		.uleb128 0xe
 16959 00ae 05       		.uleb128 0x5
 16960 00af 00       		.byte	0
 16961 00b0 49       		.uleb128 0x49
 16962 00b1 13       		.uleb128 0x13
 16963 00b2 00       		.byte	0
 16964 00b3 00       		.byte	0
 16965 00b4 0F       		.uleb128 0xf
 16966 00b5 0F       		.uleb128 0xf
 16967 00b6 00       		.byte	0
 16968 00b7 0B       		.uleb128 0xb
 16969 00b8 0B       		.uleb128 0xb
 16970 00b9 00       		.byte	0
 16971 00ba 00       		.byte	0
 16972 00bb 10       		.uleb128 0x10
 16973 00bc 13       		.uleb128 0x13
 16974 00bd 01       		.byte	0x1
 16975 00be 03       		.uleb128 0x3
 16976 00bf 0E       		.uleb128 0xe
 16977 00c0 0B       		.uleb128 0xb
 16978 00c1 05       		.uleb128 0x5
 16979 00c2 3A       		.uleb128 0x3a
 16980 00c3 0B       		.uleb128 0xb
 16981 00c4 3B       		.uleb128 0x3b
 16982 00c5 05       		.uleb128 0x5
 16983 00c6 39       		.uleb128 0x39
 16984 00c7 0B       		.uleb128 0xb
 16985 00c8 01       		.uleb128 0x1
ARM GAS  /tmp/cczbsEFl.s 			page 299


 16986 00c9 13       		.uleb128 0x13
 16987 00ca 00       		.byte	0
 16988 00cb 00       		.byte	0
 16989 00cc 11       		.uleb128 0x11
 16990 00cd 0D       		.uleb128 0xd
 16991 00ce 00       		.byte	0
 16992 00cf 03       		.uleb128 0x3
 16993 00d0 0E       		.uleb128 0xe
 16994 00d1 3A       		.uleb128 0x3a
 16995 00d2 0B       		.uleb128 0xb
 16996 00d3 3B       		.uleb128 0x3b
 16997 00d4 05       		.uleb128 0x5
 16998 00d5 39       		.uleb128 0x39
 16999 00d6 0B       		.uleb128 0xb
 17000 00d7 49       		.uleb128 0x49
 17001 00d8 13       		.uleb128 0x13
 17002 00d9 38       		.uleb128 0x38
 17003 00da 05       		.uleb128 0x5
 17004 00db 00       		.byte	0
 17005 00dc 00       		.byte	0
 17006 00dd 12       		.uleb128 0x12
 17007 00de 0D       		.uleb128 0xd
 17008 00df 00       		.byte	0
 17009 00e0 03       		.uleb128 0x3
 17010 00e1 08       		.uleb128 0x8
 17011 00e2 3A       		.uleb128 0x3a
 17012 00e3 0B       		.uleb128 0xb
 17013 00e4 3B       		.uleb128 0x3b
 17014 00e5 05       		.uleb128 0x5
 17015 00e6 39       		.uleb128 0x39
 17016 00e7 0B       		.uleb128 0xb
 17017 00e8 49       		.uleb128 0x49
 17018 00e9 13       		.uleb128 0x13
 17019 00ea 38       		.uleb128 0x38
 17020 00eb 05       		.uleb128 0x5
 17021 00ec 00       		.byte	0
 17022 00ed 00       		.byte	0
 17023 00ee 13       		.uleb128 0x13
 17024 00ef 01       		.uleb128 0x1
 17025 00f0 01       		.byte	0x1
 17026 00f1 49       		.uleb128 0x49
 17027 00f2 13       		.uleb128 0x13
 17028 00f3 01       		.uleb128 0x1
 17029 00f4 13       		.uleb128 0x13
 17030 00f5 00       		.byte	0
 17031 00f6 00       		.byte	0
 17032 00f7 14       		.uleb128 0x14
 17033 00f8 21       		.uleb128 0x21
 17034 00f9 00       		.byte	0
 17035 00fa 49       		.uleb128 0x49
 17036 00fb 13       		.uleb128 0x13
 17037 00fc 2F       		.uleb128 0x2f
 17038 00fd 0B       		.uleb128 0xb
 17039 00fe 00       		.byte	0
 17040 00ff 00       		.byte	0
 17041 0100 15       		.uleb128 0x15
 17042 0101 34       		.uleb128 0x34
ARM GAS  /tmp/cczbsEFl.s 			page 300


 17043 0102 00       		.byte	0
 17044 0103 03       		.uleb128 0x3
 17045 0104 0E       		.uleb128 0xe
 17046 0105 3A       		.uleb128 0x3a
 17047 0106 0B       		.uleb128 0xb
 17048 0107 3B       		.uleb128 0x3b
 17049 0108 05       		.uleb128 0x5
 17050 0109 39       		.uleb128 0x39
 17051 010a 0B       		.uleb128 0xb
 17052 010b 49       		.uleb128 0x49
 17053 010c 13       		.uleb128 0x13
 17054 010d 3F       		.uleb128 0x3f
 17055 010e 19       		.uleb128 0x19
 17056 010f 3C       		.uleb128 0x3c
 17057 0110 19       		.uleb128 0x19
 17058 0111 00       		.byte	0
 17059 0112 00       		.byte	0
 17060 0113 16       		.uleb128 0x16
 17061 0114 34       		.uleb128 0x34
 17062 0115 00       		.byte	0
 17063 0116 03       		.uleb128 0x3
 17064 0117 0E       		.uleb128 0xe
 17065 0118 3A       		.uleb128 0x3a
 17066 0119 0B       		.uleb128 0xb
 17067 011a 3B       		.uleb128 0x3b
 17068 011b 0B       		.uleb128 0xb
 17069 011c 39       		.uleb128 0x39
 17070 011d 0B       		.uleb128 0xb
 17071 011e 49       		.uleb128 0x49
 17072 011f 13       		.uleb128 0x13
 17073 0120 3F       		.uleb128 0x3f
 17074 0121 19       		.uleb128 0x19
 17075 0122 3C       		.uleb128 0x3c
 17076 0123 19       		.uleb128 0x19
 17077 0124 00       		.byte	0
 17078 0125 00       		.byte	0
 17079 0126 17       		.uleb128 0x17
 17080 0127 13       		.uleb128 0x13
 17081 0128 01       		.byte	0x1
 17082 0129 0B       		.uleb128 0xb
 17083 012a 0B       		.uleb128 0xb
 17084 012b 3A       		.uleb128 0x3a
 17085 012c 0B       		.uleb128 0xb
 17086 012d 3B       		.uleb128 0x3b
 17087 012e 0B       		.uleb128 0xb
 17088 012f 39       		.uleb128 0x39
 17089 0130 0B       		.uleb128 0xb
 17090 0131 01       		.uleb128 0x1
 17091 0132 13       		.uleb128 0x13
 17092 0133 00       		.byte	0
 17093 0134 00       		.byte	0
 17094 0135 18       		.uleb128 0x18
 17095 0136 0D       		.uleb128 0xd
 17096 0137 00       		.byte	0
 17097 0138 03       		.uleb128 0x3
 17098 0139 08       		.uleb128 0x8
 17099 013a 3A       		.uleb128 0x3a
ARM GAS  /tmp/cczbsEFl.s 			page 301


 17100 013b 0B       		.uleb128 0xb
 17101 013c 3B       		.uleb128 0x3b
 17102 013d 0B       		.uleb128 0xb
 17103 013e 39       		.uleb128 0x39
 17104 013f 0B       		.uleb128 0xb
 17105 0140 49       		.uleb128 0x49
 17106 0141 13       		.uleb128 0x13
 17107 0142 38       		.uleb128 0x38
 17108 0143 0B       		.uleb128 0xb
 17109 0144 00       		.byte	0
 17110 0145 00       		.byte	0
 17111 0146 19       		.uleb128 0x19
 17112 0147 13       		.uleb128 0x13
 17113 0148 01       		.byte	0x1
 17114 0149 0B       		.uleb128 0xb
 17115 014a 0B       		.uleb128 0xb
 17116 014b 3A       		.uleb128 0x3a
 17117 014c 0B       		.uleb128 0xb
 17118 014d 3B       		.uleb128 0x3b
 17119 014e 05       		.uleb128 0x5
 17120 014f 39       		.uleb128 0x39
 17121 0150 0B       		.uleb128 0xb
 17122 0151 01       		.uleb128 0x1
 17123 0152 13       		.uleb128 0x13
 17124 0153 00       		.byte	0
 17125 0154 00       		.byte	0
 17126 0155 1A       		.uleb128 0x1a
 17127 0156 16       		.uleb128 0x16
 17128 0157 00       		.byte	0
 17129 0158 03       		.uleb128 0x3
 17130 0159 0E       		.uleb128 0xe
 17131 015a 3A       		.uleb128 0x3a
 17132 015b 0B       		.uleb128 0xb
 17133 015c 3B       		.uleb128 0x3b
 17134 015d 05       		.uleb128 0x5
 17135 015e 39       		.uleb128 0x39
 17136 015f 0B       		.uleb128 0xb
 17137 0160 49       		.uleb128 0x49
 17138 0161 13       		.uleb128 0x13
 17139 0162 00       		.byte	0
 17140 0163 00       		.byte	0
 17141 0164 1B       		.uleb128 0x1b
 17142 0165 13       		.uleb128 0x13
 17143 0166 01       		.byte	0x1
 17144 0167 0B       		.uleb128 0xb
 17145 0168 05       		.uleb128 0x5
 17146 0169 3A       		.uleb128 0x3a
 17147 016a 0B       		.uleb128 0xb
 17148 016b 3B       		.uleb128 0x3b
 17149 016c 05       		.uleb128 0x5
 17150 016d 39       		.uleb128 0x39
 17151 016e 0B       		.uleb128 0xb
 17152 016f 01       		.uleb128 0x1
 17153 0170 13       		.uleb128 0x13
 17154 0171 00       		.byte	0
 17155 0172 00       		.byte	0
 17156 0173 1C       		.uleb128 0x1c
ARM GAS  /tmp/cczbsEFl.s 			page 302


 17157 0174 13       		.uleb128 0x13
 17158 0175 01       		.byte	0x1
 17159 0176 0B       		.uleb128 0xb
 17160 0177 05       		.uleb128 0x5
 17161 0178 3A       		.uleb128 0x3a
 17162 0179 0B       		.uleb128 0xb
 17163 017a 3B       		.uleb128 0x3b
 17164 017b 0B       		.uleb128 0xb
 17165 017c 39       		.uleb128 0x39
 17166 017d 0B       		.uleb128 0xb
 17167 017e 01       		.uleb128 0x1
 17168 017f 13       		.uleb128 0x13
 17169 0180 00       		.byte	0
 17170 0181 00       		.byte	0
 17171 0182 1D       		.uleb128 0x1d
 17172 0183 17       		.uleb128 0x17
 17173 0184 01       		.byte	0x1
 17174 0185 0B       		.uleb128 0xb
 17175 0186 0B       		.uleb128 0xb
 17176 0187 3A       		.uleb128 0x3a
 17177 0188 0B       		.uleb128 0xb
 17178 0189 3B       		.uleb128 0x3b
 17179 018a 0B       		.uleb128 0xb
 17180 018b 39       		.uleb128 0x39
 17181 018c 0B       		.uleb128 0xb
 17182 018d 01       		.uleb128 0x1
 17183 018e 13       		.uleb128 0x13
 17184 018f 00       		.byte	0
 17185 0190 00       		.byte	0
 17186 0191 1E       		.uleb128 0x1e
 17187 0192 0D       		.uleb128 0xd
 17188 0193 00       		.byte	0
 17189 0194 03       		.uleb128 0x3
 17190 0195 0E       		.uleb128 0xe
 17191 0196 3A       		.uleb128 0x3a
 17192 0197 0B       		.uleb128 0xb
 17193 0198 3B       		.uleb128 0x3b
 17194 0199 05       		.uleb128 0x5
 17195 019a 39       		.uleb128 0x39
 17196 019b 0B       		.uleb128 0xb
 17197 019c 49       		.uleb128 0x49
 17198 019d 13       		.uleb128 0x13
 17199 019e 00       		.byte	0
 17200 019f 00       		.byte	0
 17201 01a0 1F       		.uleb128 0x1f
 17202 01a1 34       		.uleb128 0x34
 17203 01a2 00       		.byte	0
 17204 01a3 03       		.uleb128 0x3
 17205 01a4 08       		.uleb128 0x8
 17206 01a5 3A       		.uleb128 0x3a
 17207 01a6 0B       		.uleb128 0xb
 17208 01a7 3B       		.uleb128 0x3b
 17209 01a8 05       		.uleb128 0x5
 17210 01a9 39       		.uleb128 0x39
 17211 01aa 0B       		.uleb128 0xb
 17212 01ab 49       		.uleb128 0x49
 17213 01ac 13       		.uleb128 0x13
ARM GAS  /tmp/cczbsEFl.s 			page 303


 17214 01ad 3F       		.uleb128 0x3f
 17215 01ae 19       		.uleb128 0x19
 17216 01af 3C       		.uleb128 0x3c
 17217 01b0 19       		.uleb128 0x19
 17218 01b1 00       		.byte	0
 17219 01b2 00       		.byte	0
 17220 01b3 20       		.uleb128 0x20
 17221 01b4 15       		.uleb128 0x15
 17222 01b5 01       		.byte	0x1
 17223 01b6 27       		.uleb128 0x27
 17224 01b7 19       		.uleb128 0x19
 17225 01b8 49       		.uleb128 0x49
 17226 01b9 13       		.uleb128 0x13
 17227 01ba 01       		.uleb128 0x1
 17228 01bb 13       		.uleb128 0x13
 17229 01bc 00       		.byte	0
 17230 01bd 00       		.byte	0
 17231 01be 21       		.uleb128 0x21
 17232 01bf 04       		.uleb128 0x4
 17233 01c0 01       		.byte	0x1
 17234 01c1 3E       		.uleb128 0x3e
 17235 01c2 0B       		.uleb128 0xb
 17236 01c3 0B       		.uleb128 0xb
 17237 01c4 0B       		.uleb128 0xb
 17238 01c5 49       		.uleb128 0x49
 17239 01c6 13       		.uleb128 0x13
 17240 01c7 3A       		.uleb128 0x3a
 17241 01c8 0B       		.uleb128 0xb
 17242 01c9 3B       		.uleb128 0x3b
 17243 01ca 0B       		.uleb128 0xb
 17244 01cb 39       		.uleb128 0x39
 17245 01cc 0B       		.uleb128 0xb
 17246 01cd 01       		.uleb128 0x1
 17247 01ce 13       		.uleb128 0x13
 17248 01cf 00       		.byte	0
 17249 01d0 00       		.byte	0
 17250 01d1 22       		.uleb128 0x22
 17251 01d2 28       		.uleb128 0x28
 17252 01d3 00       		.byte	0
 17253 01d4 03       		.uleb128 0x3
 17254 01d5 0E       		.uleb128 0xe
 17255 01d6 1C       		.uleb128 0x1c
 17256 01d7 0B       		.uleb128 0xb
 17257 01d8 00       		.byte	0
 17258 01d9 00       		.byte	0
 17259 01da 23       		.uleb128 0x23
 17260 01db 0D       		.uleb128 0xd
 17261 01dc 00       		.byte	0
 17262 01dd 03       		.uleb128 0x3
 17263 01de 08       		.uleb128 0x8
 17264 01df 3A       		.uleb128 0x3a
 17265 01e0 0B       		.uleb128 0xb
 17266 01e1 3B       		.uleb128 0x3b
 17267 01e2 0B       		.uleb128 0xb
 17268 01e3 39       		.uleb128 0x39
 17269 01e4 0B       		.uleb128 0xb
 17270 01e5 49       		.uleb128 0x49
ARM GAS  /tmp/cczbsEFl.s 			page 304


 17271 01e6 13       		.uleb128 0x13
 17272 01e7 00       		.byte	0
 17273 01e8 00       		.byte	0
 17274 01e9 24       		.uleb128 0x24
 17275 01ea 04       		.uleb128 0x4
 17276 01eb 01       		.byte	0x1
 17277 01ec 3E       		.uleb128 0x3e
 17278 01ed 0B       		.uleb128 0xb
 17279 01ee 0B       		.uleb128 0xb
 17280 01ef 0B       		.uleb128 0xb
 17281 01f0 49       		.uleb128 0x49
 17282 01f1 13       		.uleb128 0x13
 17283 01f2 3A       		.uleb128 0x3a
 17284 01f3 0B       		.uleb128 0xb
 17285 01f4 3B       		.uleb128 0x3b
 17286 01f5 05       		.uleb128 0x5
 17287 01f6 39       		.uleb128 0x39
 17288 01f7 0B       		.uleb128 0xb
 17289 01f8 01       		.uleb128 0x1
 17290 01f9 13       		.uleb128 0x13
 17291 01fa 00       		.byte	0
 17292 01fb 00       		.byte	0
 17293 01fc 25       		.uleb128 0x25
 17294 01fd 26       		.uleb128 0x26
 17295 01fe 00       		.byte	0
 17296 01ff 00       		.byte	0
 17297 0200 00       		.byte	0
 17298 0201 26       		.uleb128 0x26
 17299 0202 13       		.uleb128 0x13
 17300 0203 01       		.byte	0x1
 17301 0204 0B       		.uleb128 0xb
 17302 0205 06       		.uleb128 0x6
 17303 0206 3A       		.uleb128 0x3a
 17304 0207 0B       		.uleb128 0xb
 17305 0208 3B       		.uleb128 0x3b
 17306 0209 0B       		.uleb128 0xb
 17307 020a 39       		.uleb128 0x39
 17308 020b 0B       		.uleb128 0xb
 17309 020c 01       		.uleb128 0x1
 17310 020d 13       		.uleb128 0x13
 17311 020e 00       		.byte	0
 17312 020f 00       		.byte	0
 17313 0210 27       		.uleb128 0x27
 17314 0211 0D       		.uleb128 0xd
 17315 0212 00       		.byte	0
 17316 0213 03       		.uleb128 0x3
 17317 0214 0E       		.uleb128 0xe
 17318 0215 3A       		.uleb128 0x3a
 17319 0216 0B       		.uleb128 0xb
 17320 0217 3B       		.uleb128 0x3b
 17321 0218 0B       		.uleb128 0xb
 17322 0219 39       		.uleb128 0x39
 17323 021a 0B       		.uleb128 0xb
 17324 021b 49       		.uleb128 0x49
 17325 021c 13       		.uleb128 0x13
 17326 021d 38       		.uleb128 0x38
 17327 021e 05       		.uleb128 0x5
ARM GAS  /tmp/cczbsEFl.s 			page 305


 17328 021f 00       		.byte	0
 17329 0220 00       		.byte	0
 17330 0221 28       		.uleb128 0x28
 17331 0222 0D       		.uleb128 0xd
 17332 0223 00       		.byte	0
 17333 0224 03       		.uleb128 0x3
 17334 0225 08       		.uleb128 0x8
 17335 0226 3A       		.uleb128 0x3a
 17336 0227 0B       		.uleb128 0xb
 17337 0228 3B       		.uleb128 0x3b
 17338 0229 0B       		.uleb128 0xb
 17339 022a 39       		.uleb128 0x39
 17340 022b 0B       		.uleb128 0xb
 17341 022c 49       		.uleb128 0x49
 17342 022d 13       		.uleb128 0x13
 17343 022e 38       		.uleb128 0x38
 17344 022f 05       		.uleb128 0x5
 17345 0230 00       		.byte	0
 17346 0231 00       		.byte	0
 17347 0232 29       		.uleb128 0x29
 17348 0233 21       		.uleb128 0x21
 17349 0234 00       		.byte	0
 17350 0235 49       		.uleb128 0x49
 17351 0236 13       		.uleb128 0x13
 17352 0237 2F       		.uleb128 0x2f
 17353 0238 05       		.uleb128 0x5
 17354 0239 00       		.byte	0
 17355 023a 00       		.byte	0
 17356 023b 2A       		.uleb128 0x2a
 17357 023c 0D       		.uleb128 0xd
 17358 023d 00       		.byte	0
 17359 023e 03       		.uleb128 0x3
 17360 023f 0E       		.uleb128 0xe
 17361 0240 3A       		.uleb128 0x3a
 17362 0241 0B       		.uleb128 0xb
 17363 0242 3B       		.uleb128 0x3b
 17364 0243 0B       		.uleb128 0xb
 17365 0244 39       		.uleb128 0x39
 17366 0245 0B       		.uleb128 0xb
 17367 0246 49       		.uleb128 0x49
 17368 0247 13       		.uleb128 0x13
 17369 0248 00       		.byte	0
 17370 0249 00       		.byte	0
 17371 024a 2B       		.uleb128 0x2b
 17372 024b 17       		.uleb128 0x17
 17373 024c 01       		.byte	0x1
 17374 024d 0B       		.uleb128 0xb
 17375 024e 0B       		.uleb128 0xb
 17376 024f 3A       		.uleb128 0x3a
 17377 0250 0B       		.uleb128 0xb
 17378 0251 3B       		.uleb128 0x3b
 17379 0252 05       		.uleb128 0x5
 17380 0253 39       		.uleb128 0x39
 17381 0254 0B       		.uleb128 0xb
 17382 0255 01       		.uleb128 0x1
 17383 0256 13       		.uleb128 0x13
 17384 0257 00       		.byte	0
ARM GAS  /tmp/cczbsEFl.s 			page 306


 17385 0258 00       		.byte	0
 17386 0259 2C       		.uleb128 0x2c
 17387 025a 13       		.uleb128 0x13
 17388 025b 01       		.byte	0x1
 17389 025c 03       		.uleb128 0x3
 17390 025d 0E       		.uleb128 0xe
 17391 025e 0B       		.uleb128 0xb
 17392 025f 05       		.uleb128 0x5
 17393 0260 3A       		.uleb128 0x3a
 17394 0261 0B       		.uleb128 0xb
 17395 0262 3B       		.uleb128 0x3b
 17396 0263 0B       		.uleb128 0xb
 17397 0264 39       		.uleb128 0x39
 17398 0265 0B       		.uleb128 0xb
 17399 0266 01       		.uleb128 0x1
 17400 0267 13       		.uleb128 0x13
 17401 0268 00       		.byte	0
 17402 0269 00       		.byte	0
 17403 026a 2D       		.uleb128 0x2d
 17404 026b 34       		.uleb128 0x34
 17405 026c 00       		.byte	0
 17406 026d 03       		.uleb128 0x3
 17407 026e 0E       		.uleb128 0xe
 17408 026f 3A       		.uleb128 0x3a
 17409 0270 0B       		.uleb128 0xb
 17410 0271 3B       		.uleb128 0x3b
 17411 0272 0B       		.uleb128 0xb
 17412 0273 39       		.uleb128 0x39
 17413 0274 0B       		.uleb128 0xb
 17414 0275 49       		.uleb128 0x49
 17415 0276 13       		.uleb128 0x13
 17416 0277 02       		.uleb128 0x2
 17417 0278 18       		.uleb128 0x18
 17418 0279 00       		.byte	0
 17419 027a 00       		.byte	0
 17420 027b 2E       		.uleb128 0x2e
 17421 027c 34       		.uleb128 0x34
 17422 027d 00       		.byte	0
 17423 027e 03       		.uleb128 0x3
 17424 027f 0E       		.uleb128 0xe
 17425 0280 3A       		.uleb128 0x3a
 17426 0281 0B       		.uleb128 0xb
 17427 0282 3B       		.uleb128 0x3b
 17428 0283 0B       		.uleb128 0xb
 17429 0284 39       		.uleb128 0x39
 17430 0285 0B       		.uleb128 0xb
 17431 0286 49       		.uleb128 0x49
 17432 0287 13       		.uleb128 0x13
 17433 0288 00       		.byte	0
 17434 0289 00       		.byte	0
 17435 028a 2F       		.uleb128 0x2f
 17436 028b 2E       		.uleb128 0x2e
 17437 028c 01       		.byte	0x1
 17438 028d 3F       		.uleb128 0x3f
 17439 028e 19       		.uleb128 0x19
 17440 028f 03       		.uleb128 0x3
 17441 0290 0E       		.uleb128 0xe
ARM GAS  /tmp/cczbsEFl.s 			page 307


 17442 0291 3A       		.uleb128 0x3a
 17443 0292 0B       		.uleb128 0xb
 17444 0293 3B       		.uleb128 0x3b
 17445 0294 05       		.uleb128 0x5
 17446 0295 39       		.uleb128 0x39
 17447 0296 0B       		.uleb128 0xb
 17448 0297 27       		.uleb128 0x27
 17449 0298 19       		.uleb128 0x19
 17450 0299 49       		.uleb128 0x49
 17451 029a 13       		.uleb128 0x13
 17452 029b 11       		.uleb128 0x11
 17453 029c 01       		.uleb128 0x1
 17454 029d 12       		.uleb128 0x12
 17455 029e 06       		.uleb128 0x6
 17456 029f 40       		.uleb128 0x40
 17457 02a0 18       		.uleb128 0x18
 17458 02a1 9742     		.uleb128 0x2117
 17459 02a3 19       		.uleb128 0x19
 17460 02a4 01       		.uleb128 0x1
 17461 02a5 13       		.uleb128 0x13
 17462 02a6 00       		.byte	0
 17463 02a7 00       		.byte	0
 17464 02a8 30       		.uleb128 0x30
 17465 02a9 898201   		.uleb128 0x4109
 17466 02ac 00       		.byte	0
 17467 02ad 11       		.uleb128 0x11
 17468 02ae 01       		.uleb128 0x1
 17469 02af 31       		.uleb128 0x31
 17470 02b0 13       		.uleb128 0x13
 17471 02b1 00       		.byte	0
 17472 02b2 00       		.byte	0
 17473 02b3 31       		.uleb128 0x31
 17474 02b4 05       		.uleb128 0x5
 17475 02b5 00       		.byte	0
 17476 02b6 03       		.uleb128 0x3
 17477 02b7 0E       		.uleb128 0xe
 17478 02b8 3A       		.uleb128 0x3a
 17479 02b9 0B       		.uleb128 0xb
 17480 02ba 3B       		.uleb128 0x3b
 17481 02bb 05       		.uleb128 0x5
 17482 02bc 39       		.uleb128 0x39
 17483 02bd 0B       		.uleb128 0xb
 17484 02be 49       		.uleb128 0x49
 17485 02bf 13       		.uleb128 0x13
 17486 02c0 02       		.uleb128 0x2
 17487 02c1 17       		.uleb128 0x17
 17488 02c2 B742     		.uleb128 0x2137
 17489 02c4 17       		.uleb128 0x17
 17490 02c5 00       		.byte	0
 17491 02c6 00       		.byte	0
 17492 02c7 32       		.uleb128 0x32
 17493 02c8 34       		.uleb128 0x34
 17494 02c9 00       		.byte	0
 17495 02ca 03       		.uleb128 0x3
 17496 02cb 08       		.uleb128 0x8
 17497 02cc 3A       		.uleb128 0x3a
 17498 02cd 0B       		.uleb128 0xb
ARM GAS  /tmp/cczbsEFl.s 			page 308


 17499 02ce 3B       		.uleb128 0x3b
 17500 02cf 05       		.uleb128 0x5
 17501 02d0 39       		.uleb128 0x39
 17502 02d1 0B       		.uleb128 0xb
 17503 02d2 49       		.uleb128 0x49
 17504 02d3 13       		.uleb128 0x13
 17505 02d4 02       		.uleb128 0x2
 17506 02d5 17       		.uleb128 0x17
 17507 02d6 B742     		.uleb128 0x2137
 17508 02d8 17       		.uleb128 0x17
 17509 02d9 00       		.byte	0
 17510 02da 00       		.byte	0
 17511 02db 33       		.uleb128 0x33
 17512 02dc 1D       		.uleb128 0x1d
 17513 02dd 01       		.byte	0x1
 17514 02de 31       		.uleb128 0x31
 17515 02df 13       		.uleb128 0x13
 17516 02e0 52       		.uleb128 0x52
 17517 02e1 01       		.uleb128 0x1
 17518 02e2 B842     		.uleb128 0x2138
 17519 02e4 05       		.uleb128 0x5
 17520 02e5 11       		.uleb128 0x11
 17521 02e6 01       		.uleb128 0x1
 17522 02e7 12       		.uleb128 0x12
 17523 02e8 06       		.uleb128 0x6
 17524 02e9 58       		.uleb128 0x58
 17525 02ea 0B       		.uleb128 0xb
 17526 02eb 59       		.uleb128 0x59
 17527 02ec 05       		.uleb128 0x5
 17528 02ed 57       		.uleb128 0x57
 17529 02ee 0B       		.uleb128 0xb
 17530 02ef 01       		.uleb128 0x1
 17531 02f0 13       		.uleb128 0x13
 17532 02f1 00       		.byte	0
 17533 02f2 00       		.byte	0
 17534 02f3 34       		.uleb128 0x34
 17535 02f4 05       		.uleb128 0x5
 17536 02f5 00       		.byte	0
 17537 02f6 31       		.uleb128 0x31
 17538 02f7 13       		.uleb128 0x13
 17539 02f8 02       		.uleb128 0x2
 17540 02f9 17       		.uleb128 0x17
 17541 02fa B742     		.uleb128 0x2137
 17542 02fc 17       		.uleb128 0x17
 17543 02fd 00       		.byte	0
 17544 02fe 00       		.byte	0
 17545 02ff 35       		.uleb128 0x35
 17546 0300 898201   		.uleb128 0x4109
 17547 0303 01       		.byte	0x1
 17548 0304 11       		.uleb128 0x11
 17549 0305 01       		.uleb128 0x1
 17550 0306 31       		.uleb128 0x31
 17551 0307 13       		.uleb128 0x13
 17552 0308 00       		.byte	0
 17553 0309 00       		.byte	0
 17554 030a 36       		.uleb128 0x36
 17555 030b 8A8201   		.uleb128 0x410a
ARM GAS  /tmp/cczbsEFl.s 			page 309


 17556 030e 00       		.byte	0
 17557 030f 02       		.uleb128 0x2
 17558 0310 18       		.uleb128 0x18
 17559 0311 9142     		.uleb128 0x2111
 17560 0313 18       		.uleb128 0x18
 17561 0314 00       		.byte	0
 17562 0315 00       		.byte	0
 17563 0316 37       		.uleb128 0x37
 17564 0317 898201   		.uleb128 0x4109
 17565 031a 01       		.byte	0x1
 17566 031b 11       		.uleb128 0x11
 17567 031c 01       		.uleb128 0x1
 17568 031d 31       		.uleb128 0x31
 17569 031e 13       		.uleb128 0x13
 17570 031f 01       		.uleb128 0x1
 17571 0320 13       		.uleb128 0x13
 17572 0321 00       		.byte	0
 17573 0322 00       		.byte	0
 17574 0323 38       		.uleb128 0x38
 17575 0324 898201   		.uleb128 0x4109
 17576 0327 01       		.byte	0x1
 17577 0328 11       		.uleb128 0x11
 17578 0329 01       		.uleb128 0x1
 17579 032a 9542     		.uleb128 0x2115
 17580 032c 19       		.uleb128 0x19
 17581 032d 31       		.uleb128 0x31
 17582 032e 13       		.uleb128 0x13
 17583 032f 01       		.uleb128 0x1
 17584 0330 13       		.uleb128 0x13
 17585 0331 00       		.byte	0
 17586 0332 00       		.byte	0
 17587 0333 39       		.uleb128 0x39
 17588 0334 05       		.uleb128 0x5
 17589 0335 00       		.byte	0
 17590 0336 03       		.uleb128 0x3
 17591 0337 08       		.uleb128 0x8
 17592 0338 3A       		.uleb128 0x3a
 17593 0339 0B       		.uleb128 0xb
 17594 033a 3B       		.uleb128 0x3b
 17595 033b 05       		.uleb128 0x5
 17596 033c 39       		.uleb128 0x39
 17597 033d 0B       		.uleb128 0xb
 17598 033e 49       		.uleb128 0x49
 17599 033f 13       		.uleb128 0x13
 17600 0340 02       		.uleb128 0x2
 17601 0341 17       		.uleb128 0x17
 17602 0342 B742     		.uleb128 0x2137
 17603 0344 17       		.uleb128 0x17
 17604 0345 00       		.byte	0
 17605 0346 00       		.byte	0
 17606 0347 3A       		.uleb128 0x3a
 17607 0348 34       		.uleb128 0x34
 17608 0349 00       		.byte	0
 17609 034a 03       		.uleb128 0x3
 17610 034b 0E       		.uleb128 0xe
 17611 034c 3A       		.uleb128 0x3a
 17612 034d 0B       		.uleb128 0xb
ARM GAS  /tmp/cczbsEFl.s 			page 310


 17613 034e 3B       		.uleb128 0x3b
 17614 034f 05       		.uleb128 0x5
 17615 0350 39       		.uleb128 0x39
 17616 0351 0B       		.uleb128 0xb
 17617 0352 49       		.uleb128 0x49
 17618 0353 13       		.uleb128 0x13
 17619 0354 02       		.uleb128 0x2
 17620 0355 18       		.uleb128 0x18
 17621 0356 00       		.byte	0
 17622 0357 00       		.byte	0
 17623 0358 3B       		.uleb128 0x3b
 17624 0359 1D       		.uleb128 0x1d
 17625 035a 01       		.byte	0x1
 17626 035b 31       		.uleb128 0x31
 17627 035c 13       		.uleb128 0x13
 17628 035d 52       		.uleb128 0x52
 17629 035e 01       		.uleb128 0x1
 17630 035f B842     		.uleb128 0x2138
 17631 0361 05       		.uleb128 0x5
 17632 0362 55       		.uleb128 0x55
 17633 0363 17       		.uleb128 0x17
 17634 0364 58       		.uleb128 0x58
 17635 0365 0B       		.uleb128 0xb
 17636 0366 59       		.uleb128 0x59
 17637 0367 05       		.uleb128 0x5
 17638 0368 57       		.uleb128 0x57
 17639 0369 0B       		.uleb128 0xb
 17640 036a 01       		.uleb128 0x1
 17641 036b 13       		.uleb128 0x13
 17642 036c 00       		.byte	0
 17643 036d 00       		.byte	0
 17644 036e 3C       		.uleb128 0x3c
 17645 036f 34       		.uleb128 0x34
 17646 0370 00       		.byte	0
 17647 0371 03       		.uleb128 0x3
 17648 0372 0E       		.uleb128 0xe
 17649 0373 3A       		.uleb128 0x3a
 17650 0374 0B       		.uleb128 0xb
 17651 0375 3B       		.uleb128 0x3b
 17652 0376 05       		.uleb128 0x5
 17653 0377 39       		.uleb128 0x39
 17654 0378 0B       		.uleb128 0xb
 17655 0379 49       		.uleb128 0x49
 17656 037a 13       		.uleb128 0x13
 17657 037b 02       		.uleb128 0x2
 17658 037c 17       		.uleb128 0x17
 17659 037d B742     		.uleb128 0x2137
 17660 037f 17       		.uleb128 0x17
 17661 0380 00       		.byte	0
 17662 0381 00       		.byte	0
 17663 0382 3D       		.uleb128 0x3d
 17664 0383 898201   		.uleb128 0x4109
 17665 0386 00       		.byte	0
 17666 0387 11       		.uleb128 0x11
 17667 0388 01       		.uleb128 0x1
 17668 0389 9542     		.uleb128 0x2115
 17669 038b 19       		.uleb128 0x19
ARM GAS  /tmp/cczbsEFl.s 			page 311


 17670 038c 31       		.uleb128 0x31
 17671 038d 13       		.uleb128 0x13
 17672 038e 00       		.byte	0
 17673 038f 00       		.byte	0
 17674 0390 3E       		.uleb128 0x3e
 17675 0391 2E       		.uleb128 0x2e
 17676 0392 01       		.byte	0x1
 17677 0393 3F       		.uleb128 0x3f
 17678 0394 19       		.uleb128 0x19
 17679 0395 03       		.uleb128 0x3
 17680 0396 0E       		.uleb128 0xe
 17681 0397 3A       		.uleb128 0x3a
 17682 0398 0B       		.uleb128 0xb
 17683 0399 3B       		.uleb128 0x3b
 17684 039a 05       		.uleb128 0x5
 17685 039b 39       		.uleb128 0x39
 17686 039c 0B       		.uleb128 0xb
 17687 039d 27       		.uleb128 0x27
 17688 039e 19       		.uleb128 0x19
 17689 039f 11       		.uleb128 0x11
 17690 03a0 01       		.uleb128 0x1
 17691 03a1 12       		.uleb128 0x12
 17692 03a2 06       		.uleb128 0x6
 17693 03a3 40       		.uleb128 0x40
 17694 03a4 18       		.uleb128 0x18
 17695 03a5 9742     		.uleb128 0x2117
 17696 03a7 19       		.uleb128 0x19
 17697 03a8 01       		.uleb128 0x1
 17698 03a9 13       		.uleb128 0x13
 17699 03aa 00       		.byte	0
 17700 03ab 00       		.byte	0
 17701 03ac 3F       		.uleb128 0x3f
 17702 03ad 2E       		.uleb128 0x2e
 17703 03ae 01       		.byte	0x1
 17704 03af 3F       		.uleb128 0x3f
 17705 03b0 19       		.uleb128 0x19
 17706 03b1 03       		.uleb128 0x3
 17707 03b2 0E       		.uleb128 0xe
 17708 03b3 3A       		.uleb128 0x3a
 17709 03b4 0B       		.uleb128 0xb
 17710 03b5 3B       		.uleb128 0x3b
 17711 03b6 05       		.uleb128 0x5
 17712 03b7 39       		.uleb128 0x39
 17713 03b8 0B       		.uleb128 0xb
 17714 03b9 27       		.uleb128 0x27
 17715 03ba 19       		.uleb128 0x19
 17716 03bb 49       		.uleb128 0x49
 17717 03bc 13       		.uleb128 0x13
 17718 03bd 20       		.uleb128 0x20
 17719 03be 0B       		.uleb128 0xb
 17720 03bf 01       		.uleb128 0x1
 17721 03c0 13       		.uleb128 0x13
 17722 03c1 00       		.byte	0
 17723 03c2 00       		.byte	0
 17724 03c3 40       		.uleb128 0x40
 17725 03c4 05       		.uleb128 0x5
 17726 03c5 00       		.byte	0
ARM GAS  /tmp/cczbsEFl.s 			page 312


 17727 03c6 03       		.uleb128 0x3
 17728 03c7 08       		.uleb128 0x8
 17729 03c8 3A       		.uleb128 0x3a
 17730 03c9 0B       		.uleb128 0xb
 17731 03ca 3B       		.uleb128 0x3b
 17732 03cb 05       		.uleb128 0x5
 17733 03cc 39       		.uleb128 0x39
 17734 03cd 0B       		.uleb128 0xb
 17735 03ce 49       		.uleb128 0x49
 17736 03cf 13       		.uleb128 0x13
 17737 03d0 00       		.byte	0
 17738 03d1 00       		.byte	0
 17739 03d2 41       		.uleb128 0x41
 17740 03d3 05       		.uleb128 0x5
 17741 03d4 00       		.byte	0
 17742 03d5 03       		.uleb128 0x3
 17743 03d6 0E       		.uleb128 0xe
 17744 03d7 3A       		.uleb128 0x3a
 17745 03d8 0B       		.uleb128 0xb
 17746 03d9 3B       		.uleb128 0x3b
 17747 03da 05       		.uleb128 0x5
 17748 03db 39       		.uleb128 0x39
 17749 03dc 0B       		.uleb128 0xb
 17750 03dd 49       		.uleb128 0x49
 17751 03de 13       		.uleb128 0x13
 17752 03df 00       		.byte	0
 17753 03e0 00       		.byte	0
 17754 03e1 42       		.uleb128 0x42
 17755 03e2 34       		.uleb128 0x34
 17756 03e3 00       		.byte	0
 17757 03e4 03       		.uleb128 0x3
 17758 03e5 08       		.uleb128 0x8
 17759 03e6 3A       		.uleb128 0x3a
 17760 03e7 0B       		.uleb128 0xb
 17761 03e8 3B       		.uleb128 0x3b
 17762 03e9 05       		.uleb128 0x5
 17763 03ea 39       		.uleb128 0x39
 17764 03eb 0B       		.uleb128 0xb
 17765 03ec 49       		.uleb128 0x49
 17766 03ed 13       		.uleb128 0x13
 17767 03ee 00       		.byte	0
 17768 03ef 00       		.byte	0
 17769 03f0 43       		.uleb128 0x43
 17770 03f1 2E       		.uleb128 0x2e
 17771 03f2 01       		.byte	0x1
 17772 03f3 3F       		.uleb128 0x3f
 17773 03f4 19       		.uleb128 0x19
 17774 03f5 03       		.uleb128 0x3
 17775 03f6 0E       		.uleb128 0xe
 17776 03f7 3A       		.uleb128 0x3a
 17777 03f8 0B       		.uleb128 0xb
 17778 03f9 3B       		.uleb128 0x3b
 17779 03fa 0B       		.uleb128 0xb
 17780 03fb 39       		.uleb128 0x39
 17781 03fc 0B       		.uleb128 0xb
 17782 03fd 27       		.uleb128 0x27
 17783 03fe 19       		.uleb128 0x19
ARM GAS  /tmp/cczbsEFl.s 			page 313


 17784 03ff 49       		.uleb128 0x49
 17785 0400 13       		.uleb128 0x13
 17786 0401 20       		.uleb128 0x20
 17787 0402 0B       		.uleb128 0xb
 17788 0403 01       		.uleb128 0x1
 17789 0404 13       		.uleb128 0x13
 17790 0405 00       		.byte	0
 17791 0406 00       		.byte	0
 17792 0407 44       		.uleb128 0x44
 17793 0408 34       		.uleb128 0x34
 17794 0409 00       		.byte	0
 17795 040a 03       		.uleb128 0x3
 17796 040b 08       		.uleb128 0x8
 17797 040c 3A       		.uleb128 0x3a
 17798 040d 0B       		.uleb128 0xb
 17799 040e 3B       		.uleb128 0x3b
 17800 040f 0B       		.uleb128 0xb
 17801 0410 39       		.uleb128 0x39
 17802 0411 0B       		.uleb128 0xb
 17803 0412 49       		.uleb128 0x49
 17804 0413 13       		.uleb128 0x13
 17805 0414 00       		.byte	0
 17806 0415 00       		.byte	0
 17807 0416 45       		.uleb128 0x45
 17808 0417 05       		.uleb128 0x5
 17809 0418 00       		.byte	0
 17810 0419 03       		.uleb128 0x3
 17811 041a 08       		.uleb128 0x8
 17812 041b 3A       		.uleb128 0x3a
 17813 041c 0B       		.uleb128 0xb
 17814 041d 3B       		.uleb128 0x3b
 17815 041e 0B       		.uleb128 0xb
 17816 041f 39       		.uleb128 0x39
 17817 0420 0B       		.uleb128 0xb
 17818 0421 49       		.uleb128 0x49
 17819 0422 13       		.uleb128 0x13
 17820 0423 00       		.byte	0
 17821 0424 00       		.byte	0
 17822 0425 46       		.uleb128 0x46
 17823 0426 05       		.uleb128 0x5
 17824 0427 00       		.byte	0
 17825 0428 03       		.uleb128 0x3
 17826 0429 0E       		.uleb128 0xe
 17827 042a 3A       		.uleb128 0x3a
 17828 042b 0B       		.uleb128 0xb
 17829 042c 3B       		.uleb128 0x3b
 17830 042d 0B       		.uleb128 0xb
 17831 042e 39       		.uleb128 0x39
 17832 042f 0B       		.uleb128 0xb
 17833 0430 49       		.uleb128 0x49
 17834 0431 13       		.uleb128 0x13
 17835 0432 00       		.byte	0
 17836 0433 00       		.byte	0
 17837 0434 47       		.uleb128 0x47
 17838 0435 2E       		.uleb128 0x2e
 17839 0436 01       		.byte	0x1
 17840 0437 3F       		.uleb128 0x3f
ARM GAS  /tmp/cczbsEFl.s 			page 314


 17841 0438 19       		.uleb128 0x19
 17842 0439 03       		.uleb128 0x3
 17843 043a 0E       		.uleb128 0xe
 17844 043b 3A       		.uleb128 0x3a
 17845 043c 0B       		.uleb128 0xb
 17846 043d 3B       		.uleb128 0x3b
 17847 043e 0B       		.uleb128 0xb
 17848 043f 39       		.uleb128 0x39
 17849 0440 0B       		.uleb128 0xb
 17850 0441 27       		.uleb128 0x27
 17851 0442 19       		.uleb128 0x19
 17852 0443 49       		.uleb128 0x49
 17853 0444 13       		.uleb128 0x13
 17854 0445 11       		.uleb128 0x11
 17855 0446 01       		.uleb128 0x1
 17856 0447 12       		.uleb128 0x12
 17857 0448 06       		.uleb128 0x6
 17858 0449 40       		.uleb128 0x40
 17859 044a 18       		.uleb128 0x18
 17860 044b 9742     		.uleb128 0x2117
 17861 044d 19       		.uleb128 0x19
 17862 044e 01       		.uleb128 0x1
 17863 044f 13       		.uleb128 0x13
 17864 0450 00       		.byte	0
 17865 0451 00       		.byte	0
 17866 0452 48       		.uleb128 0x48
 17867 0453 05       		.uleb128 0x5
 17868 0454 00       		.byte	0
 17869 0455 03       		.uleb128 0x3
 17870 0456 08       		.uleb128 0x8
 17871 0457 3A       		.uleb128 0x3a
 17872 0458 0B       		.uleb128 0xb
 17873 0459 3B       		.uleb128 0x3b
 17874 045a 0B       		.uleb128 0xb
 17875 045b 39       		.uleb128 0x39
 17876 045c 0B       		.uleb128 0xb
 17877 045d 49       		.uleb128 0x49
 17878 045e 13       		.uleb128 0x13
 17879 045f 02       		.uleb128 0x2
 17880 0460 17       		.uleb128 0x17
 17881 0461 B742     		.uleb128 0x2137
 17882 0463 17       		.uleb128 0x17
 17883 0464 00       		.byte	0
 17884 0465 00       		.byte	0
 17885 0466 49       		.uleb128 0x49
 17886 0467 34       		.uleb128 0x34
 17887 0468 00       		.byte	0
 17888 0469 03       		.uleb128 0x3
 17889 046a 08       		.uleb128 0x8
 17890 046b 3A       		.uleb128 0x3a
 17891 046c 0B       		.uleb128 0xb
 17892 046d 3B       		.uleb128 0x3b
 17893 046e 0B       		.uleb128 0xb
 17894 046f 39       		.uleb128 0x39
 17895 0470 0B       		.uleb128 0xb
 17896 0471 49       		.uleb128 0x49
 17897 0472 13       		.uleb128 0x13
ARM GAS  /tmp/cczbsEFl.s 			page 315


 17898 0473 02       		.uleb128 0x2
 17899 0474 17       		.uleb128 0x17
 17900 0475 B742     		.uleb128 0x2137
 17901 0477 17       		.uleb128 0x17
 17902 0478 00       		.byte	0
 17903 0479 00       		.byte	0
 17904 047a 4A       		.uleb128 0x4a
 17905 047b 2E       		.uleb128 0x2e
 17906 047c 01       		.byte	0x1
 17907 047d 31       		.uleb128 0x31
 17908 047e 13       		.uleb128 0x13
 17909 047f 11       		.uleb128 0x11
 17910 0480 01       		.uleb128 0x1
 17911 0481 12       		.uleb128 0x12
 17912 0482 06       		.uleb128 0x6
 17913 0483 40       		.uleb128 0x40
 17914 0484 18       		.uleb128 0x18
 17915 0485 9742     		.uleb128 0x2117
 17916 0487 19       		.uleb128 0x19
 17917 0488 01       		.uleb128 0x1
 17918 0489 13       		.uleb128 0x13
 17919 048a 00       		.byte	0
 17920 048b 00       		.byte	0
 17921 048c 4B       		.uleb128 0x4b
 17922 048d 34       		.uleb128 0x34
 17923 048e 00       		.byte	0
 17924 048f 31       		.uleb128 0x31
 17925 0490 13       		.uleb128 0x13
 17926 0491 02       		.uleb128 0x2
 17927 0492 17       		.uleb128 0x17
 17928 0493 B742     		.uleb128 0x2137
 17929 0495 17       		.uleb128 0x17
 17930 0496 00       		.byte	0
 17931 0497 00       		.byte	0
 17932 0498 4C       		.uleb128 0x4c
 17933 0499 1D       		.uleb128 0x1d
 17934 049a 01       		.byte	0x1
 17935 049b 31       		.uleb128 0x31
 17936 049c 13       		.uleb128 0x13
 17937 049d 52       		.uleb128 0x52
 17938 049e 01       		.uleb128 0x1
 17939 049f B842     		.uleb128 0x2138
 17940 04a1 05       		.uleb128 0x5
 17941 04a2 55       		.uleb128 0x55
 17942 04a3 17       		.uleb128 0x17
 17943 04a4 58       		.uleb128 0x58
 17944 04a5 0B       		.uleb128 0xb
 17945 04a6 59       		.uleb128 0x59
 17946 04a7 0B       		.uleb128 0xb
 17947 04a8 57       		.uleb128 0x57
 17948 04a9 0B       		.uleb128 0xb
 17949 04aa 01       		.uleb128 0x1
 17950 04ab 13       		.uleb128 0x13
 17951 04ac 00       		.byte	0
 17952 04ad 00       		.byte	0
 17953 04ae 4D       		.uleb128 0x4d
 17954 04af 1D       		.uleb128 0x1d
ARM GAS  /tmp/cczbsEFl.s 			page 316


 17955 04b0 01       		.byte	0x1
 17956 04b1 31       		.uleb128 0x31
 17957 04b2 13       		.uleb128 0x13
 17958 04b3 52       		.uleb128 0x52
 17959 04b4 01       		.uleb128 0x1
 17960 04b5 B842     		.uleb128 0x2138
 17961 04b7 05       		.uleb128 0x5
 17962 04b8 11       		.uleb128 0x11
 17963 04b9 01       		.uleb128 0x1
 17964 04ba 12       		.uleb128 0x12
 17965 04bb 06       		.uleb128 0x6
 17966 04bc 58       		.uleb128 0x58
 17967 04bd 0B       		.uleb128 0xb
 17968 04be 59       		.uleb128 0x59
 17969 04bf 0B       		.uleb128 0xb
 17970 04c0 57       		.uleb128 0x57
 17971 04c1 0B       		.uleb128 0xb
 17972 04c2 01       		.uleb128 0x1
 17973 04c3 13       		.uleb128 0x13
 17974 04c4 00       		.byte	0
 17975 04c5 00       		.byte	0
 17976 04c6 4E       		.uleb128 0x4e
 17977 04c7 0B       		.uleb128 0xb
 17978 04c8 01       		.byte	0x1
 17979 04c9 55       		.uleb128 0x55
 17980 04ca 17       		.uleb128 0x17
 17981 04cb 00       		.byte	0
 17982 04cc 00       		.byte	0
 17983 04cd 4F       		.uleb128 0x4f
 17984 04ce 2E       		.uleb128 0x2e
 17985 04cf 00       		.byte	0
 17986 04d0 3F       		.uleb128 0x3f
 17987 04d1 19       		.uleb128 0x19
 17988 04d2 3C       		.uleb128 0x3c
 17989 04d3 19       		.uleb128 0x19
 17990 04d4 6E       		.uleb128 0x6e
 17991 04d5 0E       		.uleb128 0xe
 17992 04d6 03       		.uleb128 0x3
 17993 04d7 0E       		.uleb128 0xe
 17994 04d8 00       		.byte	0
 17995 04d9 00       		.byte	0
 17996 04da 50       		.uleb128 0x50
 17997 04db 2E       		.uleb128 0x2e
 17998 04dc 00       		.byte	0
 17999 04dd 3F       		.uleb128 0x3f
 18000 04de 19       		.uleb128 0x19
 18001 04df 3C       		.uleb128 0x3c
 18002 04e0 19       		.uleb128 0x19
 18003 04e1 6E       		.uleb128 0x6e
 18004 04e2 0E       		.uleb128 0xe
 18005 04e3 03       		.uleb128 0x3
 18006 04e4 0E       		.uleb128 0xe
 18007 04e5 3A       		.uleb128 0x3a
 18008 04e6 0B       		.uleb128 0xb
 18009 04e7 3B       		.uleb128 0x3b
 18010 04e8 0B       		.uleb128 0xb
 18011 04e9 39       		.uleb128 0x39
ARM GAS  /tmp/cczbsEFl.s 			page 317


 18012 04ea 0B       		.uleb128 0xb
 18013 04eb 00       		.byte	0
 18014 04ec 00       		.byte	0
 18015 04ed 51       		.uleb128 0x51
 18016 04ee 2E       		.uleb128 0x2e
 18017 04ef 00       		.byte	0
 18018 04f0 3F       		.uleb128 0x3f
 18019 04f1 19       		.uleb128 0x19
 18020 04f2 3C       		.uleb128 0x3c
 18021 04f3 19       		.uleb128 0x19
 18022 04f4 6E       		.uleb128 0x6e
 18023 04f5 0E       		.uleb128 0xe
 18024 04f6 03       		.uleb128 0x3
 18025 04f7 0E       		.uleb128 0xe
 18026 04f8 3A       		.uleb128 0x3a
 18027 04f9 0B       		.uleb128 0xb
 18028 04fa 3B       		.uleb128 0x3b
 18029 04fb 05       		.uleb128 0x5
 18030 04fc 39       		.uleb128 0x39
 18031 04fd 0B       		.uleb128 0xb
 18032 04fe 00       		.byte	0
 18033 04ff 00       		.byte	0
 18034 0500 00       		.byte	0
 18035              		.section	.debug_loc,"",%progbits
 18036              	.Ldebug_loc0:
 18037              	.LVUS76:
 18038 0000 00       		.uleb128 0
 18039 0001 00       		.uleb128 .LVU1133
 18040 0002 00       		.uleb128 .LVU1133
 18041 0003 00       		.uleb128 0
 18042              	.LLST76:
 18043 0004 00000000 		.4byte	.LVL483
 18044 0008 0A000000 		.4byte	.LVL484
 18045 000c 0100     		.2byte	0x1
 18046 000e 50       		.byte	0x50
 18047 000f 0A000000 		.4byte	.LVL484
 18048 0013 74000000 		.4byte	.LFE274
 18049 0017 0400     		.2byte	0x4
 18050 0019 F3       		.byte	0xf3
 18051 001a 01       		.uleb128 0x1
 18052 001b 50       		.byte	0x50
 18053 001c 9F       		.byte	0x9f
 18054 001d 00000000 		.4byte	0
 18055 0021 00000000 		.4byte	0
 18056              	.LVUS77:
 18057 0025 00       		.uleb128 0
 18058 0026 00       		.uleb128 .LVU1137
 18059 0027 00       		.uleb128 .LVU1137
 18060 0028 00       		.uleb128 0
 18061              	.LLST77:
 18062 0029 00000000 		.4byte	.LVL483
 18063 002d 17000000 		.4byte	.LVL486-1
 18064 0031 0100     		.2byte	0x1
 18065 0033 51       		.byte	0x51
 18066 0034 17000000 		.4byte	.LVL486-1
 18067 0038 74000000 		.4byte	.LFE274
 18068 003c 0400     		.2byte	0x4
ARM GAS  /tmp/cczbsEFl.s 			page 318


 18069 003e F3       		.byte	0xf3
 18070 003f 01       		.uleb128 0x1
 18071 0040 51       		.byte	0x51
 18072 0041 9F       		.byte	0x9f
 18073 0042 00000000 		.4byte	0
 18074 0046 00000000 		.4byte	0
 18075              	.LVUS78:
 18076 004a 01       		.uleb128 .LVU1135
 18077 004b 00       		.uleb128 .LVU1137
 18078 004c 00       		.uleb128 .LVU1137
 18079 004d 00       		.uleb128 .LVU1143
 18080 004e 00       		.uleb128 .LVU1144
 18081 004f 00       		.uleb128 .LVU1148
 18082 0050 00       		.uleb128 .LVU1149
 18083 0051 00       		.uleb128 .LVU1152
 18084 0052 00       		.uleb128 .LVU1153
 18085 0053 00       		.uleb128 .LVU1156
 18086 0054 00       		.uleb128 .LVU1158
 18087 0055 00       		.uleb128 .LVU1159
 18088              	.LLST78:
 18089 0056 14000000 		.4byte	.LVL485
 18090 005a 18000000 		.4byte	.LVL486
 18091 005e 0200     		.2byte	0x2
 18092 0060 30       		.byte	0x30
 18093 0061 9F       		.byte	0x9f
 18094 0062 18000000 		.4byte	.LVL486
 18095 0066 2E000000 		.4byte	.LVL488
 18096 006a 0100     		.2byte	0x1
 18097 006c 50       		.byte	0x50
 18098 006d 32000000 		.4byte	.LVL489
 18099 0071 3C000000 		.4byte	.LVL490
 18100 0075 0100     		.2byte	0x1
 18101 0077 50       		.byte	0x50
 18102 0078 40000000 		.4byte	.LVL491
 18103 007c 4A000000 		.4byte	.LVL492
 18104 0080 0100     		.2byte	0x1
 18105 0082 50       		.byte	0x50
 18106 0083 4E000000 		.4byte	.LVL493
 18107 0087 62000000 		.4byte	.LVL494
 18108 008b 0100     		.2byte	0x1
 18109 008d 50       		.byte	0x50
 18110 008e 6C000000 		.4byte	.LVL495
 18111 0092 6F000000 		.4byte	.LVL496-1
 18112 0096 0100     		.2byte	0x1
 18113 0098 50       		.byte	0x50
 18114 0099 00000000 		.4byte	0
 18115 009d 00000000 		.4byte	0
 18116              	.LVUS79:
 18117 00a1 01       		.uleb128 .LVU1140
 18118 00a2 00       		.uleb128 .LVU1144
 18119              	.LLST79:
 18120 00a3 28000000 		.4byte	.LVL487
 18121 00a7 32000000 		.4byte	.LVL489
 18122 00ab 0200     		.2byte	0x2
 18123 00ad 30       		.byte	0x30
 18124 00ae 9F       		.byte	0x9f
 18125 00af 00000000 		.4byte	0
ARM GAS  /tmp/cczbsEFl.s 			page 319


 18126 00b3 00000000 		.4byte	0
 18127              	.LVUS73:
 18128 00b7 00       		.uleb128 0
 18129 00b8 00       		.uleb128 .LVU1101
 18130 00b9 00       		.uleb128 .LVU1101
 18131 00ba 00       		.uleb128 0
 18132              	.LLST73:
 18133 00bb 00000000 		.4byte	.LVL471
 18134 00bf 10000000 		.4byte	.LVL472
 18135 00c3 0100     		.2byte	0x1
 18136 00c5 50       		.byte	0x50
 18137 00c6 10000000 		.4byte	.LVL472
 18138 00ca 68000000 		.4byte	.LFE273
 18139 00ce 0400     		.2byte	0x4
 18140 00d0 F3       		.byte	0xf3
 18141 00d1 01       		.uleb128 0x1
 18142 00d2 50       		.byte	0x50
 18143 00d3 9F       		.byte	0x9f
 18144 00d4 00000000 		.4byte	0
 18145 00d8 00000000 		.4byte	0
 18146              	.LVUS74:
 18147 00dc 01       		.uleb128 .LVU1104
 18148 00dd 00       		.uleb128 .LVU1110
 18149 00de 00       		.uleb128 .LVU1110
 18150 00df 00       		.uleb128 .LVU1112
 18151 00e0 00       		.uleb128 .LVU1113
 18152 00e1 00       		.uleb128 .LVU1115
 18153 00e2 00       		.uleb128 .LVU1116
 18154 00e3 00       		.uleb128 .LVU1125
 18155              	.LLST74:
 18156 00e4 18000000 		.4byte	.LVL473
 18157 00e8 20000000 		.4byte	.LVL475
 18158 00ec 0200     		.2byte	0x2
 18159 00ee 30       		.byte	0x30
 18160 00ef 9F       		.byte	0x9f
 18161 00f0 20000000 		.4byte	.LVL475
 18162 00f4 22000000 		.4byte	.LVL476
 18163 00f8 0100     		.2byte	0x1
 18164 00fa 50       		.byte	0x50
 18165 00fb 30000000 		.4byte	.LVL477
 18166 00ff 38000000 		.4byte	.LVL478
 18167 0103 0100     		.2byte	0x1
 18168 0105 50       		.byte	0x50
 18169 0106 3C000000 		.4byte	.LVL479
 18170 010a 54000000 		.4byte	.LVL480
 18171 010e 0100     		.2byte	0x1
 18172 0110 50       		.byte	0x50
 18173 0111 00000000 		.4byte	0
 18174 0115 00000000 		.4byte	0
 18175              	.LVUS75:
 18176 0119 01       		.uleb128 .LVU1107
 18177 011a 00       		.uleb128 .LVU1110
 18178              	.LLST75:
 18179 011b 1C000000 		.4byte	.LVL474
 18180 011f 20000000 		.4byte	.LVL475
 18181 0123 0200     		.2byte	0x2
 18182 0125 32       		.byte	0x32
ARM GAS  /tmp/cczbsEFl.s 			page 320


 18183 0126 9F       		.byte	0x9f
 18184 0127 00000000 		.4byte	0
 18185 012b 00000000 		.4byte	0
 18186              	.LVUS68:
 18187 012f 00       		.uleb128 0
 18188 0130 00       		.uleb128 .LVU1069
 18189 0131 00       		.uleb128 .LVU1069
 18190 0132 00       		.uleb128 0
 18191              	.LLST68:
 18192 0133 00000000 		.4byte	.LVL457
 18193 0137 0A000000 		.4byte	.LVL458
 18194 013b 0100     		.2byte	0x1
 18195 013d 50       		.byte	0x50
 18196 013e 0A000000 		.4byte	.LVL458
 18197 0142 78000000 		.4byte	.LFE272
 18198 0146 0400     		.2byte	0x4
 18199 0148 F3       		.byte	0xf3
 18200 0149 01       		.uleb128 0x1
 18201 014a 50       		.byte	0x50
 18202 014b 9F       		.byte	0x9f
 18203 014c 00000000 		.4byte	0
 18204 0150 00000000 		.4byte	0
 18205              	.LVUS69:
 18206 0154 00       		.uleb128 0
 18207 0155 00       		.uleb128 .LVU1073
 18208 0156 00       		.uleb128 .LVU1073
 18209 0157 00       		.uleb128 0
 18210              	.LLST69:
 18211 0158 00000000 		.4byte	.LVL457
 18212 015c 19000000 		.4byte	.LVL460-1
 18213 0160 0100     		.2byte	0x1
 18214 0162 51       		.byte	0x51
 18215 0163 19000000 		.4byte	.LVL460-1
 18216 0167 78000000 		.4byte	.LFE272
 18217 016b 0400     		.2byte	0x4
 18218 016d F3       		.byte	0xf3
 18219 016e 01       		.uleb128 0x1
 18220 016f 51       		.byte	0x51
 18221 0170 9F       		.byte	0x9f
 18222 0171 00000000 		.4byte	0
 18223 0175 00000000 		.4byte	0
 18224              	.LVUS70:
 18225 0179 00       		.uleb128 0
 18226 017a 00       		.uleb128 .LVU1073
 18227 017b 00       		.uleb128 .LVU1073
 18228 017c 00       		.uleb128 0
 18229              	.LLST70:
 18230 017d 00000000 		.4byte	.LVL457
 18231 0181 19000000 		.4byte	.LVL460-1
 18232 0185 0100     		.2byte	0x1
 18233 0187 52       		.byte	0x52
 18234 0188 19000000 		.4byte	.LVL460-1
 18235 018c 78000000 		.4byte	.LFE272
 18236 0190 0400     		.2byte	0x4
 18237 0192 F3       		.byte	0xf3
 18238 0193 01       		.uleb128 0x1
 18239 0194 52       		.byte	0x52
ARM GAS  /tmp/cczbsEFl.s 			page 321


 18240 0195 9F       		.byte	0x9f
 18241 0196 00000000 		.4byte	0
 18242 019a 00000000 		.4byte	0
 18243              	.LVUS71:
 18244 019e 01       		.uleb128 .LVU1071
 18245 019f 00       		.uleb128 .LVU1073
 18246 01a0 00       		.uleb128 .LVU1073
 18247 01a1 00       		.uleb128 .LVU1079
 18248 01a2 00       		.uleb128 .LVU1080
 18249 01a3 00       		.uleb128 .LVU1084
 18250 01a4 00       		.uleb128 .LVU1085
 18251 01a5 00       		.uleb128 .LVU1088
 18252 01a6 00       		.uleb128 .LVU1089
 18253 01a7 00       		.uleb128 .LVU1092
 18254 01a8 00       		.uleb128 .LVU1094
 18255 01a9 00       		.uleb128 .LVU1095
 18256              	.LLST71:
 18257 01aa 16000000 		.4byte	.LVL459
 18258 01ae 1A000000 		.4byte	.LVL460
 18259 01b2 0200     		.2byte	0x2
 18260 01b4 30       		.byte	0x30
 18261 01b5 9F       		.byte	0x9f
 18262 01b6 1A000000 		.4byte	.LVL460
 18263 01ba 30000000 		.4byte	.LVL462
 18264 01be 0100     		.2byte	0x1
 18265 01c0 50       		.byte	0x50
 18266 01c1 34000000 		.4byte	.LVL463
 18267 01c5 3E000000 		.4byte	.LVL464
 18268 01c9 0100     		.2byte	0x1
 18269 01cb 50       		.byte	0x50
 18270 01cc 42000000 		.4byte	.LVL465
 18271 01d0 4C000000 		.4byte	.LVL466
 18272 01d4 0100     		.2byte	0x1
 18273 01d6 50       		.byte	0x50
 18274 01d7 50000000 		.4byte	.LVL467
 18275 01db 64000000 		.4byte	.LVL468
 18276 01df 0100     		.2byte	0x1
 18277 01e1 50       		.byte	0x50
 18278 01e2 6E000000 		.4byte	.LVL469
 18279 01e6 71000000 		.4byte	.LVL470-1
 18280 01ea 0100     		.2byte	0x1
 18281 01ec 50       		.byte	0x50
 18282 01ed 00000000 		.4byte	0
 18283 01f1 00000000 		.4byte	0
 18284              	.LVUS72:
 18285 01f5 01       		.uleb128 .LVU1076
 18286 01f6 00       		.uleb128 .LVU1080
 18287              	.LLST72:
 18288 01f7 2A000000 		.4byte	.LVL461
 18289 01fb 34000000 		.4byte	.LVL463
 18290 01ff 0200     		.2byte	0x2
 18291 0201 30       		.byte	0x30
 18292 0202 9F       		.byte	0x9f
 18293 0203 00000000 		.4byte	0
 18294 0207 00000000 		.4byte	0
 18295              	.LVUS65:
 18296 020b 00       		.uleb128 0
ARM GAS  /tmp/cczbsEFl.s 			page 322


 18297 020c 00       		.uleb128 .LVU1037
 18298 020d 00       		.uleb128 .LVU1037
 18299 020e 00       		.uleb128 0
 18300              	.LLST65:
 18301 020f 00000000 		.4byte	.LVL445
 18302 0213 10000000 		.4byte	.LVL446
 18303 0217 0100     		.2byte	0x1
 18304 0219 50       		.byte	0x50
 18305 021a 10000000 		.4byte	.LVL446
 18306 021e 68000000 		.4byte	.LFE271
 18307 0222 0400     		.2byte	0x4
 18308 0224 F3       		.byte	0xf3
 18309 0225 01       		.uleb128 0x1
 18310 0226 50       		.byte	0x50
 18311 0227 9F       		.byte	0x9f
 18312 0228 00000000 		.4byte	0
 18313 022c 00000000 		.4byte	0
 18314              	.LVUS66:
 18315 0230 01       		.uleb128 .LVU1040
 18316 0231 00       		.uleb128 .LVU1046
 18317 0232 00       		.uleb128 .LVU1046
 18318 0233 00       		.uleb128 .LVU1048
 18319 0234 00       		.uleb128 .LVU1049
 18320 0235 00       		.uleb128 .LVU1051
 18321 0236 00       		.uleb128 .LVU1052
 18322 0237 00       		.uleb128 .LVU1061
 18323              	.LLST66:
 18324 0238 18000000 		.4byte	.LVL447
 18325 023c 20000000 		.4byte	.LVL449
 18326 0240 0200     		.2byte	0x2
 18327 0242 30       		.byte	0x30
 18328 0243 9F       		.byte	0x9f
 18329 0244 20000000 		.4byte	.LVL449
 18330 0248 22000000 		.4byte	.LVL450
 18331 024c 0100     		.2byte	0x1
 18332 024e 50       		.byte	0x50
 18333 024f 30000000 		.4byte	.LVL451
 18334 0253 38000000 		.4byte	.LVL452
 18335 0257 0100     		.2byte	0x1
 18336 0259 50       		.byte	0x50
 18337 025a 3C000000 		.4byte	.LVL453
 18338 025e 54000000 		.4byte	.LVL454
 18339 0262 0100     		.2byte	0x1
 18340 0264 50       		.byte	0x50
 18341 0265 00000000 		.4byte	0
 18342 0269 00000000 		.4byte	0
 18343              	.LVUS67:
 18344 026d 01       		.uleb128 .LVU1043
 18345 026e 00       		.uleb128 .LVU1046
 18346              	.LLST67:
 18347 026f 1C000000 		.4byte	.LVL448
 18348 0273 20000000 		.4byte	.LVL449
 18349 0277 0200     		.2byte	0x2
 18350 0279 32       		.byte	0x32
 18351 027a 9F       		.byte	0x9f
 18352 027b 00000000 		.4byte	0
 18353 027f 00000000 		.4byte	0
ARM GAS  /tmp/cczbsEFl.s 			page 323


 18354              	.LVUS60:
 18355 0283 00       		.uleb128 0
 18356 0284 00       		.uleb128 .LVU1007
 18357 0285 00       		.uleb128 .LVU1007
 18358 0286 00       		.uleb128 0
 18359              	.LLST60:
 18360 0287 00000000 		.4byte	.LVL434
 18361 028b 12000000 		.4byte	.LVL436
 18362 028f 0100     		.2byte	0x1
 18363 0291 50       		.byte	0x50
 18364 0292 12000000 		.4byte	.LVL436
 18365 0296 60000000 		.4byte	.LFE270
 18366 029a 0400     		.2byte	0x4
 18367 029c F3       		.byte	0xf3
 18368 029d 01       		.uleb128 0x1
 18369 029e 50       		.byte	0x50
 18370 029f 9F       		.byte	0x9f
 18371 02a0 00000000 		.4byte	0
 18372 02a4 00000000 		.4byte	0
 18373              	.LVUS61:
 18374 02a8 00       		.uleb128 0
 18375 02a9 00       		.uleb128 .LVU1006
 18376 02aa 00       		.uleb128 .LVU1006
 18377 02ab 00       		.uleb128 0
 18378              	.LLST61:
 18379 02ac 00000000 		.4byte	.LVL434
 18380 02b0 10000000 		.4byte	.LVL435
 18381 02b4 0100     		.2byte	0x1
 18382 02b6 51       		.byte	0x51
 18383 02b7 10000000 		.4byte	.LVL435
 18384 02bb 60000000 		.4byte	.LFE270
 18385 02bf 0400     		.2byte	0x4
 18386 02c1 F3       		.byte	0xf3
 18387 02c2 01       		.uleb128 0x1
 18388 02c3 51       		.byte	0x51
 18389 02c4 9F       		.byte	0x9f
 18390 02c5 00000000 		.4byte	0
 18391 02c9 00000000 		.4byte	0
 18392              	.LVUS62:
 18393 02cd 01       		.uleb128 .LVU1010
 18394 02ce 00       		.uleb128 .LVU1015
 18395 02cf 00       		.uleb128 .LVU1015
 18396 02d0 00       		.uleb128 .LVU1027
 18397 02d1 00       		.uleb128 .LVU1029
 18398 02d2 00       		.uleb128 .LVU1031
 18399              	.LLST62:
 18400 02d3 1A000000 		.4byte	.LVL437
 18401 02d7 1E000000 		.4byte	.LVL438
 18402 02db 0200     		.2byte	0x2
 18403 02dd 30       		.byte	0x30
 18404 02de 9F       		.byte	0x9f
 18405 02df 1E000000 		.4byte	.LVL438
 18406 02e3 3E000000 		.4byte	.LVL441
 18407 02e7 0100     		.2byte	0x1
 18408 02e9 50       		.byte	0x50
 18409 02ea 48000000 		.4byte	.LVL442
 18410 02ee 59000000 		.4byte	.LVL444-1
ARM GAS  /tmp/cczbsEFl.s 			page 324


 18411 02f2 0100     		.2byte	0x1
 18412 02f4 50       		.byte	0x50
 18413 02f5 00000000 		.4byte	0
 18414 02f9 00000000 		.4byte	0
 18415              	.LVUS63:
 18416 02fd 02       		.uleb128 .LVU1011
 18417 02fe 00       		.uleb128 .LVU1021
 18418 02ff 00       		.uleb128 .LVU1021
 18419 0300 00       		.uleb128 .LVU1029
 18420 0301 00       		.uleb128 .LVU1029
 18421 0302 00       		.uleb128 .LVU1030
 18422              	.LLST63:
 18423 0303 1A000000 		.4byte	.LVL437
 18424 0307 2A000000 		.4byte	.LVL439
 18425 030b 0200     		.2byte	0x2
 18426 030d 30       		.byte	0x30
 18427 030e 9F       		.byte	0x9f
 18428 030f 2A000000 		.4byte	.LVL439
 18429 0313 47000000 		.4byte	.LVL442-1
 18430 0317 0100     		.2byte	0x1
 18431 0319 52       		.byte	0x52
 18432 031a 48000000 		.4byte	.LVL442
 18433 031e 56000000 		.4byte	.LVL443
 18434 0322 0200     		.2byte	0x2
 18435 0324 30       		.byte	0x30
 18436 0325 9F       		.byte	0x9f
 18437 0326 00000000 		.4byte	0
 18438 032a 00000000 		.4byte	0
 18439              	.LVUS64:
 18440 032e 03       		.uleb128 .LVU1012
 18441 032f 00       		.uleb128 .LVU1015
 18442              	.LLST64:
 18443 0330 1A000000 		.4byte	.LVL437
 18444 0334 1E000000 		.4byte	.LVL438
 18445 0338 0200     		.2byte	0x2
 18446 033a 30       		.byte	0x30
 18447 033b 9F       		.byte	0x9f
 18448 033c 00000000 		.4byte	0
 18449 0340 00000000 		.4byte	0
 18450              	.LVUS57:
 18451 0344 00       		.uleb128 0
 18452 0345 00       		.uleb128 .LVU985
 18453 0346 00       		.uleb128 .LVU985
 18454 0347 00       		.uleb128 0
 18455              	.LLST57:
 18456 0348 00000000 		.4byte	.LVL427
 18457 034c 0E000000 		.4byte	.LVL428
 18458 0350 0100     		.2byte	0x1
 18459 0352 50       		.byte	0x50
 18460 0353 0E000000 		.4byte	.LVL428
 18461 0357 4C000000 		.4byte	.LFE269
 18462 035b 0400     		.2byte	0x4
 18463 035d F3       		.byte	0xf3
 18464 035e 01       		.uleb128 0x1
 18465 035f 50       		.byte	0x50
 18466 0360 9F       		.byte	0x9f
 18467 0361 00000000 		.4byte	0
ARM GAS  /tmp/cczbsEFl.s 			page 325


 18468 0365 00000000 		.4byte	0
 18469              	.LVUS58:
 18470 0369 01       		.uleb128 .LVU988
 18471 036a 00       		.uleb128 .LVU992
 18472 036b 00       		.uleb128 .LVU992
 18473 036c 00       		.uleb128 .LVU998
 18474 036d 00       		.uleb128 .LVU1000
 18475 036e 00       		.uleb128 .LVU1001
 18476              	.LLST58:
 18477 036f 16000000 		.4byte	.LVL429
 18478 0373 1A000000 		.4byte	.LVL430
 18479 0377 0200     		.2byte	0x2
 18480 0379 30       		.byte	0x30
 18481 037a 9F       		.byte	0x9f
 18482 037b 1A000000 		.4byte	.LVL430
 18483 037f 38000000 		.4byte	.LVL431
 18484 0383 0100     		.2byte	0x1
 18485 0385 50       		.byte	0x50
 18486 0386 42000000 		.4byte	.LVL432
 18487 038a 45000000 		.4byte	.LVL433-1
 18488 038e 0100     		.2byte	0x1
 18489 0390 50       		.byte	0x50
 18490 0391 00000000 		.4byte	0
 18491 0395 00000000 		.4byte	0
 18492              	.LVUS59:
 18493 0399 02       		.uleb128 .LVU989
 18494 039a 00       		.uleb128 .LVU992
 18495              	.LLST59:
 18496 039b 16000000 		.4byte	.LVL429
 18497 039f 1A000000 		.4byte	.LVL430
 18498 03a3 0200     		.2byte	0x2
 18499 03a5 31       		.byte	0x31
 18500 03a6 9F       		.byte	0x9f
 18501 03a7 00000000 		.4byte	0
 18502 03ab 00000000 		.4byte	0
 18503              	.LVUS54:
 18504 03af 00       		.uleb128 0
 18505 03b0 00       		.uleb128 .LVU964
 18506 03b1 00       		.uleb128 .LVU964
 18507 03b2 00       		.uleb128 0
 18508              	.LLST54:
 18509 03b3 00000000 		.4byte	.LVL420
 18510 03b7 0E000000 		.4byte	.LVL421
 18511 03bb 0100     		.2byte	0x1
 18512 03bd 50       		.byte	0x50
 18513 03be 0E000000 		.4byte	.LVL421
 18514 03c2 4C000000 		.4byte	.LFE268
 18515 03c6 0400     		.2byte	0x4
 18516 03c8 F3       		.byte	0xf3
 18517 03c9 01       		.uleb128 0x1
 18518 03ca 50       		.byte	0x50
 18519 03cb 9F       		.byte	0x9f
 18520 03cc 00000000 		.4byte	0
 18521 03d0 00000000 		.4byte	0
 18522              	.LVUS55:
 18523 03d4 01       		.uleb128 .LVU967
 18524 03d5 00       		.uleb128 .LVU971
ARM GAS  /tmp/cczbsEFl.s 			page 326


 18525 03d6 00       		.uleb128 .LVU971
 18526 03d7 00       		.uleb128 .LVU977
 18527 03d8 00       		.uleb128 .LVU979
 18528 03d9 00       		.uleb128 .LVU980
 18529              	.LLST55:
 18530 03da 16000000 		.4byte	.LVL422
 18531 03de 1A000000 		.4byte	.LVL423
 18532 03e2 0200     		.2byte	0x2
 18533 03e4 30       		.byte	0x30
 18534 03e5 9F       		.byte	0x9f
 18535 03e6 1A000000 		.4byte	.LVL423
 18536 03ea 38000000 		.4byte	.LVL424
 18537 03ee 0100     		.2byte	0x1
 18538 03f0 50       		.byte	0x50
 18539 03f1 42000000 		.4byte	.LVL425
 18540 03f5 45000000 		.4byte	.LVL426-1
 18541 03f9 0100     		.2byte	0x1
 18542 03fb 50       		.byte	0x50
 18543 03fc 00000000 		.4byte	0
 18544 0400 00000000 		.4byte	0
 18545              	.LVUS56:
 18546 0404 02       		.uleb128 .LVU968
 18547 0405 00       		.uleb128 .LVU971
 18548              	.LLST56:
 18549 0406 16000000 		.4byte	.LVL422
 18550 040a 1A000000 		.4byte	.LVL423
 18551 040e 0200     		.2byte	0x2
 18552 0410 31       		.byte	0x31
 18553 0411 9F       		.byte	0x9f
 18554 0412 00000000 		.4byte	0
 18555 0416 00000000 		.4byte	0
 18556              	.LVUS34:
 18557 041a 00       		.uleb128 0
 18558 041b 00       		.uleb128 .LVU653
 18559 041c 00       		.uleb128 .LVU653
 18560 041d 00       		.uleb128 .LVU834
 18561 041e 00       		.uleb128 .LVU834
 18562 041f 00       		.uleb128 .LVU926
 18563 0420 00       		.uleb128 .LVU926
 18564 0421 00       		.uleb128 .LVU927
 18565 0422 00       		.uleb128 .LVU927
 18566 0423 00       		.uleb128 .LVU928
 18567 0424 00       		.uleb128 .LVU928
 18568 0425 00       		.uleb128 .LVU929
 18569 0426 00       		.uleb128 .LVU929
 18570 0427 00       		.uleb128 .LVU930
 18571 0428 00       		.uleb128 .LVU930
 18572 0429 00       		.uleb128 .LVU931
 18573 042a 00       		.uleb128 .LVU931
 18574 042b 00       		.uleb128 .LVU932
 18575 042c 00       		.uleb128 .LVU932
 18576 042d 00       		.uleb128 .LVU933
 18577 042e 00       		.uleb128 .LVU933
 18578 042f 00       		.uleb128 .LVU934
 18579 0430 00       		.uleb128 .LVU934
 18580 0431 00       		.uleb128 .LVU935
 18581 0432 00       		.uleb128 .LVU935
ARM GAS  /tmp/cczbsEFl.s 			page 327


 18582 0433 00       		.uleb128 .LVU936
 18583 0434 00       		.uleb128 .LVU936
 18584 0435 00       		.uleb128 .LVU937
 18585 0436 00       		.uleb128 .LVU937
 18586 0437 00       		.uleb128 .LVU938
 18587 0438 00       		.uleb128 .LVU938
 18588 0439 00       		.uleb128 0
 18589              	.LLST34:
 18590 043a 00000000 		.4byte	.LVL270
 18591 043e B2000000 		.4byte	.LVL276
 18592 0442 0100     		.2byte	0x1
 18593 0444 50       		.byte	0x50
 18594 0445 B2000000 		.4byte	.LVL276
 18595 0449 94030000 		.4byte	.LVL357
 18596 044d 0400     		.2byte	0x4
 18597 044f F3       		.byte	0xf3
 18598 0450 01       		.uleb128 0x1
 18599 0451 50       		.byte	0x50
 18600 0452 9F       		.byte	0x9f
 18601 0453 94030000 		.4byte	.LVL357
 18602 0457 6E040000 		.4byte	.LVL396
 18603 045b 0100     		.2byte	0x1
 18604 045d 50       		.byte	0x50
 18605 045e 6E040000 		.4byte	.LVL396
 18606 0462 70040000 		.4byte	.LVL397
 18607 0466 0400     		.2byte	0x4
 18608 0468 F3       		.byte	0xf3
 18609 0469 01       		.uleb128 0x1
 18610 046a 50       		.byte	0x50
 18611 046b 9F       		.byte	0x9f
 18612 046c 70040000 		.4byte	.LVL397
 18613 0470 74040000 		.4byte	.LVL398
 18614 0474 0100     		.2byte	0x1
 18615 0476 50       		.byte	0x50
 18616 0477 74040000 		.4byte	.LVL398
 18617 047b 76040000 		.4byte	.LVL399
 18618 047f 0400     		.2byte	0x4
 18619 0481 F3       		.byte	0xf3
 18620 0482 01       		.uleb128 0x1
 18621 0483 50       		.byte	0x50
 18622 0484 9F       		.byte	0x9f
 18623 0485 76040000 		.4byte	.LVL399
 18624 0489 7A040000 		.4byte	.LVL400
 18625 048d 0100     		.2byte	0x1
 18626 048f 50       		.byte	0x50
 18627 0490 7A040000 		.4byte	.LVL400
 18628 0494 7C040000 		.4byte	.LVL401
 18629 0498 0400     		.2byte	0x4
 18630 049a F3       		.byte	0xf3
 18631 049b 01       		.uleb128 0x1
 18632 049c 50       		.byte	0x50
 18633 049d 9F       		.byte	0x9f
 18634 049e 7C040000 		.4byte	.LVL401
 18635 04a2 80040000 		.4byte	.LVL402
 18636 04a6 0100     		.2byte	0x1
 18637 04a8 50       		.byte	0x50
 18638 04a9 80040000 		.4byte	.LVL402
ARM GAS  /tmp/cczbsEFl.s 			page 328


 18639 04ad 82040000 		.4byte	.LVL403
 18640 04b1 0400     		.2byte	0x4
 18641 04b3 F3       		.byte	0xf3
 18642 04b4 01       		.uleb128 0x1
 18643 04b5 50       		.byte	0x50
 18644 04b6 9F       		.byte	0x9f
 18645 04b7 82040000 		.4byte	.LVL403
 18646 04bb 86040000 		.4byte	.LVL404
 18647 04bf 0100     		.2byte	0x1
 18648 04c1 50       		.byte	0x50
 18649 04c2 86040000 		.4byte	.LVL404
 18650 04c6 88040000 		.4byte	.LVL405
 18651 04ca 0400     		.2byte	0x4
 18652 04cc F3       		.byte	0xf3
 18653 04cd 01       		.uleb128 0x1
 18654 04ce 50       		.byte	0x50
 18655 04cf 9F       		.byte	0x9f
 18656 04d0 88040000 		.4byte	.LVL405
 18657 04d4 8C040000 		.4byte	.LVL406
 18658 04d8 0100     		.2byte	0x1
 18659 04da 50       		.byte	0x50
 18660 04db 8C040000 		.4byte	.LVL406
 18661 04df 8E040000 		.4byte	.LVL407
 18662 04e3 0400     		.2byte	0x4
 18663 04e5 F3       		.byte	0xf3
 18664 04e6 01       		.uleb128 0x1
 18665 04e7 50       		.byte	0x50
 18666 04e8 9F       		.byte	0x9f
 18667 04e9 8E040000 		.4byte	.LVL407
 18668 04ed 92040000 		.4byte	.LVL408
 18669 04f1 0100     		.2byte	0x1
 18670 04f3 50       		.byte	0x50
 18671 04f4 92040000 		.4byte	.LVL408
 18672 04f8 D4040000 		.4byte	.LFE267
 18673 04fc 0400     		.2byte	0x4
 18674 04fe F3       		.byte	0xf3
 18675 04ff 01       		.uleb128 0x1
 18676 0500 50       		.byte	0x50
 18677 0501 9F       		.byte	0x9f
 18678 0502 00000000 		.4byte	0
 18679 0506 00000000 		.4byte	0
 18680              	.LVUS35:
 18681 050a 00       		.uleb128 0
 18682 050b 00       		.uleb128 .LVU647
 18683 050c 00       		.uleb128 .LVU647
 18684 050d 00       		.uleb128 .LVU656
 18685 050e 00       		.uleb128 .LVU658
 18686 050f 00       		.uleb128 .LVU834
 18687 0510 00       		.uleb128 .LVU834
 18688 0511 00       		.uleb128 .LVU838
 18689 0512 00       		.uleb128 .LVU838
 18690 0513 00       		.uleb128 .LVU863
 18691 0514 00       		.uleb128 .LVU863
 18692 0515 00       		.uleb128 .LVU869
 18693 0516 00       		.uleb128 .LVU869
 18694 0517 00       		.uleb128 .LVU872
 18695 0518 00       		.uleb128 .LVU872
ARM GAS  /tmp/cczbsEFl.s 			page 329


 18696 0519 00       		.uleb128 .LVU881
 18697 051a 00       		.uleb128 .LVU881
 18698 051b 00       		.uleb128 .LVU883
 18699 051c 00       		.uleb128 .LVU883
 18700 051d 00       		.uleb128 .LVU887
 18701 051e 00       		.uleb128 .LVU887
 18702 051f 00       		.uleb128 .LVU890
 18703 0520 00       		.uleb128 .LVU890
 18704 0521 00       		.uleb128 .LVU925
 18705 0522 00       		.uleb128 .LVU925
 18706 0523 00       		.uleb128 .LVU935
 18707 0524 00       		.uleb128 .LVU935
 18708 0525 00       		.uleb128 .LVU939
 18709 0526 00       		.uleb128 .LVU940
 18710 0527 00       		.uleb128 0
 18711              	.LLST35:
 18712 0528 00000000 		.4byte	.LVL270
 18713 052c 8C000000 		.4byte	.LVL274
 18714 0530 0100     		.2byte	0x1
 18715 0532 51       		.byte	0x51
 18716 0533 8C000000 		.4byte	.LVL274
 18717 0537 B8000000 		.4byte	.LVL278
 18718 053b 0100     		.2byte	0x1
 18719 053d 54       		.byte	0x54
 18720 053e DC000000 		.4byte	.LVL280
 18721 0542 94030000 		.4byte	.LVL357
 18722 0546 0100     		.2byte	0x1
 18723 0548 54       		.byte	0x54
 18724 0549 94030000 		.4byte	.LVL357
 18725 054d 9E030000 		.4byte	.LVL359
 18726 0551 0100     		.2byte	0x1
 18727 0553 51       		.byte	0x51
 18728 0554 9E030000 		.4byte	.LVL359
 18729 0558 DC030000 		.4byte	.LVL368
 18730 055c 0100     		.2byte	0x1
 18731 055e 54       		.byte	0x54
 18732 055f DC030000 		.4byte	.LVL368
 18733 0563 E4030000 		.4byte	.LVL370
 18734 0567 0100     		.2byte	0x1
 18735 0569 51       		.byte	0x51
 18736 056a E4030000 		.4byte	.LVL370
 18737 056e EA030000 		.4byte	.LVL371
 18738 0572 0300     		.2byte	0x3
 18739 0574 76       		.byte	0x76
 18740 0575 01       		.sleb128 1
 18741 0576 9F       		.byte	0x9f
 18742 0577 EA030000 		.4byte	.LVL371
 18743 057b 02040000 		.4byte	.LVL377
 18744 057f 0100     		.2byte	0x1
 18745 0581 54       		.byte	0x54
 18746 0582 02040000 		.4byte	.LVL377
 18747 0586 04040000 		.4byte	.LVL378
 18748 058a 0100     		.2byte	0x1
 18749 058c 51       		.byte	0x51
 18750 058d 04040000 		.4byte	.LVL378
 18751 0591 0A040000 		.4byte	.LVL380
 18752 0595 0100     		.2byte	0x1
ARM GAS  /tmp/cczbsEFl.s 			page 330


 18753 0597 54       		.byte	0x54
 18754 0598 0A040000 		.4byte	.LVL380
 18755 059c 10040000 		.4byte	.LVL381
 18756 05a0 0300     		.2byte	0x3
 18757 05a2 76       		.byte	0x76
 18758 05a3 01       		.sleb128 1
 18759 05a4 9F       		.byte	0x9f
 18760 05a5 10040000 		.4byte	.LVL381
 18761 05a9 6A040000 		.4byte	.LVL395
 18762 05ad 0100     		.2byte	0x1
 18763 05af 54       		.byte	0x54
 18764 05b0 6A040000 		.4byte	.LVL395
 18765 05b4 88040000 		.4byte	.LVL405
 18766 05b8 0100     		.2byte	0x1
 18767 05ba 51       		.byte	0x51
 18768 05bb 88040000 		.4byte	.LVL405
 18769 05bf 94040000 		.4byte	.LVL409
 18770 05c3 0100     		.2byte	0x1
 18771 05c5 54       		.byte	0x54
 18772 05c6 98040000 		.4byte	.LVL410
 18773 05ca D4040000 		.4byte	.LFE267
 18774 05ce 0100     		.2byte	0x1
 18775 05d0 54       		.byte	0x54
 18776 05d1 00000000 		.4byte	0
 18777 05d5 00000000 		.4byte	0
 18778              	.LVUS36:
 18779 05d9 00       		.uleb128 0
 18780 05da 00       		.uleb128 .LVU647
 18781 05db 00       		.uleb128 .LVU647
 18782 05dc 00       		.uleb128 .LVU656
 18783 05dd 00       		.uleb128 .LVU658
 18784 05de 00       		.uleb128 .LVU821
 18785 05df 00       		.uleb128 .LVU834
 18786 05e0 00       		.uleb128 .LVU836
 18787 05e1 00       		.uleb128 .LVU836
 18788 05e2 00       		.uleb128 .LVU851
 18789 05e3 00       		.uleb128 .LVU851
 18790 05e4 00       		.uleb128 .LVU854
 18791 05e5 00       		.uleb128 .LVU854
 18792 05e6 00       		.uleb128 .LVU863
 18793 05e7 00       		.uleb128 .LVU863
 18794 05e8 00       		.uleb128 .LVU865
 18795 05e9 00       		.uleb128 .LVU865
 18796 05ea 00       		.uleb128 .LVU881
 18797 05eb 00       		.uleb128 .LVU881
 18798 05ec 00       		.uleb128 .LVU886
 18799 05ed 00       		.uleb128 .LVU886
 18800 05ee 00       		.uleb128 .LVU913
 18801 05ef 00       		.uleb128 .LVU913
 18802 05f0 00       		.uleb128 .LVU916
 18803 05f1 00       		.uleb128 .LVU916
 18804 05f2 00       		.uleb128 .LVU925
 18805 05f3 00       		.uleb128 .LVU925
 18806 05f4 00       		.uleb128 .LVU935
 18807 05f5 00       		.uleb128 .LVU935
 18808 05f6 00       		.uleb128 .LVU939
 18809 05f7 00       		.uleb128 .LVU940
ARM GAS  /tmp/cczbsEFl.s 			page 331


 18810 05f8 00       		.uleb128 0
 18811              	.LLST36:
 18812 05f9 00000000 		.4byte	.LVL270
 18813 05fd 8C000000 		.4byte	.LVL274
 18814 0601 0100     		.2byte	0x1
 18815 0603 52       		.byte	0x52
 18816 0604 8C000000 		.4byte	.LVL274
 18817 0608 B8000000 		.4byte	.LVL278
 18818 060c 0100     		.2byte	0x1
 18819 060e 55       		.byte	0x55
 18820 060f DC000000 		.4byte	.LVL280
 18821 0613 84030000 		.4byte	.LVL355
 18822 0617 0100     		.2byte	0x1
 18823 0619 55       		.byte	0x55
 18824 061a 94030000 		.4byte	.LVL357
 18825 061e 96030000 		.4byte	.LVL358
 18826 0622 0100     		.2byte	0x1
 18827 0624 52       		.byte	0x52
 18828 0625 96030000 		.4byte	.LVL358
 18829 0629 BE030000 		.4byte	.LVL363
 18830 062d 0100     		.2byte	0x1
 18831 062f 55       		.byte	0x55
 18832 0630 BE030000 		.4byte	.LVL363
 18833 0634 C4030000 		.4byte	.LVL364
 18834 0638 0300     		.2byte	0x3
 18835 063a 77       		.byte	0x77
 18836 063b 01       		.sleb128 1
 18837 063c 9F       		.byte	0x9f
 18838 063d C4030000 		.4byte	.LVL364
 18839 0641 DC030000 		.4byte	.LVL368
 18840 0645 0100     		.2byte	0x1
 18841 0647 55       		.byte	0x55
 18842 0648 DC030000 		.4byte	.LVL368
 18843 064c DE030000 		.4byte	.LVL369
 18844 0650 0100     		.2byte	0x1
 18845 0652 52       		.byte	0x52
 18846 0653 DE030000 		.4byte	.LVL369
 18847 0657 02040000 		.4byte	.LVL377
 18848 065b 0100     		.2byte	0x1
 18849 065d 55       		.byte	0x55
 18850 065e 02040000 		.4byte	.LVL377
 18851 0662 08040000 		.4byte	.LVL379
 18852 0666 0100     		.2byte	0x1
 18853 0668 52       		.byte	0x52
 18854 0669 08040000 		.4byte	.LVL379
 18855 066d 4C040000 		.4byte	.LVL390
 18856 0671 0100     		.2byte	0x1
 18857 0673 55       		.byte	0x55
 18858 0674 4C040000 		.4byte	.LVL390
 18859 0678 52040000 		.4byte	.LVL391
 18860 067c 0300     		.2byte	0x3
 18861 067e 77       		.byte	0x77
 18862 067f 01       		.sleb128 1
 18863 0680 9F       		.byte	0x9f
 18864 0681 52040000 		.4byte	.LVL391
 18865 0685 6A040000 		.4byte	.LVL395
 18866 0689 0100     		.2byte	0x1
ARM GAS  /tmp/cczbsEFl.s 			page 332


 18867 068b 55       		.byte	0x55
 18868 068c 6A040000 		.4byte	.LVL395
 18869 0690 88040000 		.4byte	.LVL405
 18870 0694 0100     		.2byte	0x1
 18871 0696 52       		.byte	0x52
 18872 0697 88040000 		.4byte	.LVL405
 18873 069b 94040000 		.4byte	.LVL409
 18874 069f 0100     		.2byte	0x1
 18875 06a1 55       		.byte	0x55
 18876 06a2 98040000 		.4byte	.LVL410
 18877 06a6 D4040000 		.4byte	.LFE267
 18878 06aa 0100     		.2byte	0x1
 18879 06ac 55       		.byte	0x55
 18880 06ad 00000000 		.4byte	0
 18881 06b1 00000000 		.4byte	0
 18882              	.LVUS37:
 18883 06b5 00       		.uleb128 0
 18884 06b6 00       		.uleb128 .LVU647
 18885 06b7 00       		.uleb128 .LVU647
 18886 06b8 00       		.uleb128 .LVU834
 18887 06b9 00       		.uleb128 .LVU834
 18888 06ba 00       		.uleb128 .LVU838
 18889 06bb 00       		.uleb128 .LVU838
 18890 06bc 00       		.uleb128 .LVU863
 18891 06bd 00       		.uleb128 .LVU863
 18892 06be 00       		.uleb128 .LVU877
 18893 06bf 00       		.uleb128 .LVU877
 18894 06c0 00       		.uleb128 .LVU881
 18895 06c1 00       		.uleb128 .LVU881
 18896 06c2 00       		.uleb128 .LVU895
 18897 06c3 00       		.uleb128 .LVU895
 18898 06c4 00       		.uleb128 .LVU925
 18899 06c5 00       		.uleb128 .LVU925
 18900 06c6 00       		.uleb128 .LVU935
 18901 06c7 00       		.uleb128 .LVU935
 18902 06c8 00       		.uleb128 .LVU937
 18903 06c9 00       		.uleb128 .LVU937
 18904 06ca 00       		.uleb128 .LVU939
 18905 06cb 00       		.uleb128 .LVU939
 18906 06cc 00       		.uleb128 0
 18907              	.LLST37:
 18908 06cd 00000000 		.4byte	.LVL270
 18909 06d1 8C000000 		.4byte	.LVL274
 18910 06d5 0100     		.2byte	0x1
 18911 06d7 53       		.byte	0x53
 18912 06d8 8C000000 		.4byte	.LVL274
 18913 06dc 94030000 		.4byte	.LVL357
 18914 06e0 0400     		.2byte	0x4
 18915 06e2 F3       		.byte	0xf3
 18916 06e3 01       		.uleb128 0x1
 18917 06e4 53       		.byte	0x53
 18918 06e5 9F       		.byte	0x9f
 18919 06e6 94030000 		.4byte	.LVL357
 18920 06ea 9E030000 		.4byte	.LVL359
 18921 06ee 0100     		.2byte	0x1
 18922 06f0 53       		.byte	0x53
 18923 06f1 9E030000 		.4byte	.LVL359
ARM GAS  /tmp/cczbsEFl.s 			page 333


 18924 06f5 DC030000 		.4byte	.LVL368
 18925 06f9 0400     		.2byte	0x4
 18926 06fb F3       		.byte	0xf3
 18927 06fc 01       		.uleb128 0x1
 18928 06fd 53       		.byte	0x53
 18929 06fe 9F       		.byte	0x9f
 18930 06ff DC030000 		.4byte	.LVL368
 18931 0703 FA030000 		.4byte	.LVL374
 18932 0707 0100     		.2byte	0x1
 18933 0709 53       		.byte	0x53
 18934 070a FA030000 		.4byte	.LVL374
 18935 070e 02040000 		.4byte	.LVL377
 18936 0712 0400     		.2byte	0x4
 18937 0714 F3       		.byte	0xf3
 18938 0715 01       		.uleb128 0x1
 18939 0716 53       		.byte	0x53
 18940 0717 9F       		.byte	0x9f
 18941 0718 02040000 		.4byte	.LVL377
 18942 071c 20040000 		.4byte	.LVL383
 18943 0720 0100     		.2byte	0x1
 18944 0722 53       		.byte	0x53
 18945 0723 20040000 		.4byte	.LVL383
 18946 0727 6A040000 		.4byte	.LVL395
 18947 072b 0400     		.2byte	0x4
 18948 072d F3       		.byte	0xf3
 18949 072e 01       		.uleb128 0x1
 18950 072f 53       		.byte	0x53
 18951 0730 9F       		.byte	0x9f
 18952 0731 6A040000 		.4byte	.LVL395
 18953 0735 88040000 		.4byte	.LVL405
 18954 0739 0100     		.2byte	0x1
 18955 073b 53       		.byte	0x53
 18956 073c 88040000 		.4byte	.LVL405
 18957 0740 8E040000 		.4byte	.LVL407
 18958 0744 0400     		.2byte	0x4
 18959 0746 F3       		.byte	0xf3
 18960 0747 01       		.uleb128 0x1
 18961 0748 53       		.byte	0x53
 18962 0749 9F       		.byte	0x9f
 18963 074a 8E040000 		.4byte	.LVL407
 18964 074e 94040000 		.4byte	.LVL409
 18965 0752 0100     		.2byte	0x1
 18966 0754 53       		.byte	0x53
 18967 0755 94040000 		.4byte	.LVL409
 18968 0759 D4040000 		.4byte	.LFE267
 18969 075d 0400     		.2byte	0x4
 18970 075f F3       		.byte	0xf3
 18971 0760 01       		.uleb128 0x1
 18972 0761 53       		.byte	0x53
 18973 0762 9F       		.byte	0x9f
 18974 0763 00000000 		.4byte	0
 18975 0767 00000000 		.4byte	0
 18976              	.LVUS38:
 18977 076b 00       		.uleb128 0
 18978 076c 00       		.uleb128 .LVU657
 18979 076d 00       		.uleb128 .LVU657
 18980 076e 00       		.uleb128 .LVU658
ARM GAS  /tmp/cczbsEFl.s 			page 334


 18981 076f 00       		.uleb128 .LVU658
 18982 0770 00       		.uleb128 0
 18983              	.LLST38:
 18984 0771 00000000 		.4byte	.LVL270
 18985 0775 CE000000 		.4byte	.LVL279
 18986 0779 0200     		.2byte	0x2
 18987 077b 91       		.byte	0x91
 18988 077c 00       		.sleb128 0
 18989 077d CE000000 		.4byte	.LVL279
 18990 0781 DC000000 		.4byte	.LVL280
 18991 0785 0200     		.2byte	0x2
 18992 0787 7D       		.byte	0x7d
 18993 0788 00       		.sleb128 0
 18994 0789 DC000000 		.4byte	.LVL280
 18995 078d D4040000 		.4byte	.LFE267
 18996 0791 0200     		.2byte	0x2
 18997 0793 91       		.byte	0x91
 18998 0794 00       		.sleb128 0
 18999 0795 00000000 		.4byte	0
 19000 0799 00000000 		.4byte	0
 19001              	.LVUS39:
 19002 079d 00       		.uleb128 0
 19003 079e 00       		.uleb128 .LVU657
 19004 079f 00       		.uleb128 .LVU657
 19005 07a0 00       		.uleb128 .LVU658
 19006 07a1 00       		.uleb128 .LVU658
 19007 07a2 00       		.uleb128 0
 19008              	.LLST39:
 19009 07a3 00000000 		.4byte	.LVL270
 19010 07a7 CE000000 		.4byte	.LVL279
 19011 07ab 0200     		.2byte	0x2
 19012 07ad 91       		.byte	0x91
 19013 07ae 04       		.sleb128 4
 19014 07af CE000000 		.4byte	.LVL279
 19015 07b3 DC000000 		.4byte	.LVL280
 19016 07b7 0200     		.2byte	0x2
 19017 07b9 7D       		.byte	0x7d
 19018 07ba 04       		.sleb128 4
 19019 07bb DC000000 		.4byte	.LVL280
 19020 07bf D4040000 		.4byte	.LFE267
 19021 07c3 0200     		.2byte	0x2
 19022 07c5 91       		.byte	0x91
 19023 07c6 04       		.sleb128 4
 19024 07c7 00000000 		.4byte	0
 19025 07cb 00000000 		.4byte	0
 19026              	.LVUS40:
 19027 07cf 00       		.uleb128 0
 19028 07d0 00       		.uleb128 .LVU657
 19029 07d1 00       		.uleb128 .LVU657
 19030 07d2 00       		.uleb128 .LVU658
 19031 07d3 00       		.uleb128 .LVU658
 19032 07d4 00       		.uleb128 0
 19033              	.LLST40:
 19034 07d5 00000000 		.4byte	.LVL270
 19035 07d9 CE000000 		.4byte	.LVL279
 19036 07dd 0200     		.2byte	0x2
 19037 07df 91       		.byte	0x91
ARM GAS  /tmp/cczbsEFl.s 			page 335


 19038 07e0 08       		.sleb128 8
 19039 07e1 CE000000 		.4byte	.LVL279
 19040 07e5 DC000000 		.4byte	.LVL280
 19041 07e9 0200     		.2byte	0x2
 19042 07eb 7D       		.byte	0x7d
 19043 07ec 08       		.sleb128 8
 19044 07ed DC000000 		.4byte	.LVL280
 19045 07f1 D4040000 		.4byte	.LFE267
 19046 07f5 0200     		.2byte	0x2
 19047 07f7 91       		.byte	0x91
 19048 07f8 08       		.sleb128 8
 19049 07f9 00000000 		.4byte	0
 19050 07fd 00000000 		.4byte	0
 19051              	.LVUS41:
 19052 0801 01       		.uleb128 .LVU622
 19053 0802 00       		.uleb128 .LVU654
 19054 0803 00       		.uleb128 .LVU654
 19055 0804 00       		.uleb128 .LVU656
 19056 0805 00       		.uleb128 .LVU658
 19057 0806 00       		.uleb128 .LVU660
 19058 0807 00       		.uleb128 .LVU661
 19059 0808 00       		.uleb128 .LVU664
 19060 0809 00       		.uleb128 .LVU665
 19061 080a 00       		.uleb128 .LVU670
 19062 080b 00       		.uleb128 .LVU671
 19063 080c 00       		.uleb128 .LVU675
 19064 080d 00       		.uleb128 .LVU676
 19065 080e 00       		.uleb128 .LVU679
 19066 080f 00       		.uleb128 .LVU680
 19067 0810 00       		.uleb128 .LVU683
 19068 0811 00       		.uleb128 .LVU684
 19069 0812 00       		.uleb128 .LVU687
 19070 0813 00       		.uleb128 .LVU688
 19071 0814 00       		.uleb128 .LVU691
 19072 0815 00       		.uleb128 .LVU692
 19073 0816 00       		.uleb128 .LVU695
 19074 0817 00       		.uleb128 .LVU696
 19075 0818 00       		.uleb128 .LVU699
 19076 0819 00       		.uleb128 .LVU700
 19077 081a 00       		.uleb128 .LVU703
 19078 081b 00       		.uleb128 .LVU704
 19079 081c 00       		.uleb128 .LVU707
 19080 081d 00       		.uleb128 .LVU708
 19081 081e 00       		.uleb128 .LVU711
 19082 081f 00       		.uleb128 .LVU712
 19083 0820 00       		.uleb128 .LVU715
 19084 0821 00       		.uleb128 .LVU716
 19085 0822 00       		.uleb128 .LVU719
 19086 0823 00       		.uleb128 .LVU720
 19087 0824 00       		.uleb128 .LVU723
 19088 0825 00       		.uleb128 .LVU724
 19089 0826 00       		.uleb128 .LVU727
 19090 0827 00       		.uleb128 .LVU728
 19091 0828 00       		.uleb128 .LVU731
 19092 0829 00       		.uleb128 .LVU732
 19093 082a 00       		.uleb128 .LVU735
 19094 082b 00       		.uleb128 .LVU736
ARM GAS  /tmp/cczbsEFl.s 			page 336


 19095 082c 00       		.uleb128 .LVU739
 19096 082d 00       		.uleb128 .LVU740
 19097 082e 00       		.uleb128 .LVU743
 19098 082f 00       		.uleb128 .LVU744
 19099 0830 00       		.uleb128 .LVU747
 19100 0831 00       		.uleb128 .LVU748
 19101 0832 00       		.uleb128 .LVU751
 19102 0833 00       		.uleb128 .LVU752
 19103 0834 00       		.uleb128 .LVU755
 19104 0835 00       		.uleb128 .LVU756
 19105 0836 00       		.uleb128 .LVU759
 19106 0837 00       		.uleb128 .LVU760
 19107 0838 00       		.uleb128 .LVU763
 19108 0839 00       		.uleb128 .LVU764
 19109 083a 00       		.uleb128 .LVU767
 19110 083b 00       		.uleb128 .LVU768
 19111 083c 00       		.uleb128 .LVU773
 19112 083d 00       		.uleb128 .LVU774
 19113 083e 00       		.uleb128 .LVU778
 19114 083f 00       		.uleb128 .LVU779
 19115 0840 00       		.uleb128 .LVU782
 19116 0841 00       		.uleb128 .LVU783
 19117 0842 00       		.uleb128 .LVU788
 19118 0843 00       		.uleb128 .LVU789
 19119 0844 00       		.uleb128 .LVU810
 19120 0845 00       		.uleb128 .LVU811
 19121 0846 00       		.uleb128 .LVU814
 19122 0847 00       		.uleb128 .LVU815
 19123 0848 00       		.uleb128 .LVU834
 19124 0849 00       		.uleb128 .LVU834
 19125 084a 00       		.uleb128 .LVU939
 19126 084b 00       		.uleb128 .LVU940
 19127 084c 00       		.uleb128 0
 19128              	.LLST41:
 19129 084d 2A000000 		.4byte	.LVL271
 19130 0851 B6000000 		.4byte	.LVL277
 19131 0855 0200     		.2byte	0x2
 19132 0857 30       		.byte	0x30
 19133 0858 9F       		.byte	0x9f
 19134 0859 B6000000 		.4byte	.LVL277
 19135 085d B8000000 		.4byte	.LVL278
 19136 0861 0100     		.2byte	0x1
 19137 0863 50       		.byte	0x50
 19138 0864 DC000000 		.4byte	.LVL280
 19139 0868 E2000000 		.4byte	.LVL281
 19140 086c 0100     		.2byte	0x1
 19141 086e 50       		.byte	0x50
 19142 086f E6000000 		.4byte	.LVL282
 19143 0873 EC000000 		.4byte	.LVL283
 19144 0877 0100     		.2byte	0x1
 19145 0879 50       		.byte	0x50
 19146 087a F0000000 		.4byte	.LVL284
 19147 087e FA000000 		.4byte	.LVL286
 19148 0882 0100     		.2byte	0x1
 19149 0884 50       		.byte	0x50
 19150 0885 FE000000 		.4byte	.LVL287
 19151 0889 0C010000 		.4byte	.LVL288
ARM GAS  /tmp/cczbsEFl.s 			page 337


 19152 088d 0100     		.2byte	0x1
 19153 088f 50       		.byte	0x50
 19154 0890 14010000 		.4byte	.LVL289
 19155 0894 22010000 		.4byte	.LVL290
 19156 0898 0100     		.2byte	0x1
 19157 089a 50       		.byte	0x50
 19158 089b 28010000 		.4byte	.LVL291
 19159 089f 36010000 		.4byte	.LVL292
 19160 08a3 0100     		.2byte	0x1
 19161 08a5 50       		.byte	0x50
 19162 08a6 3E010000 		.4byte	.LVL293
 19163 08aa 4C010000 		.4byte	.LVL294
 19164 08ae 0100     		.2byte	0x1
 19165 08b0 50       		.byte	0x50
 19166 08b1 54010000 		.4byte	.LVL295
 19167 08b5 62010000 		.4byte	.LVL296
 19168 08b9 0100     		.2byte	0x1
 19169 08bb 50       		.byte	0x50
 19170 08bc 6A010000 		.4byte	.LVL297
 19171 08c0 78010000 		.4byte	.LVL298
 19172 08c4 0100     		.2byte	0x1
 19173 08c6 50       		.byte	0x50
 19174 08c7 80010000 		.4byte	.LVL299
 19175 08cb 8E010000 		.4byte	.LVL300
 19176 08cf 0100     		.2byte	0x1
 19177 08d1 50       		.byte	0x50
 19178 08d2 96010000 		.4byte	.LVL301
 19179 08d6 A4010000 		.4byte	.LVL302
 19180 08da 0100     		.2byte	0x1
 19181 08dc 50       		.byte	0x50
 19182 08dd AC010000 		.4byte	.LVL303
 19183 08e1 B8010000 		.4byte	.LVL304
 19184 08e5 0100     		.2byte	0x1
 19185 08e7 50       		.byte	0x50
 19186 08e8 BC010000 		.4byte	.LVL305
 19187 08ec CA010000 		.4byte	.LVL306
 19188 08f0 0100     		.2byte	0x1
 19189 08f2 50       		.byte	0x50
 19190 08f3 CE010000 		.4byte	.LVL307
 19191 08f7 DC010000 		.4byte	.LVL308
 19192 08fb 0100     		.2byte	0x1
 19193 08fd 50       		.byte	0x50
 19194 08fe E0010000 		.4byte	.LVL309
 19195 0902 EE010000 		.4byte	.LVL310
 19196 0906 0100     		.2byte	0x1
 19197 0908 50       		.byte	0x50
 19198 0909 F2010000 		.4byte	.LVL311
 19199 090d 00020000 		.4byte	.LVL312
 19200 0911 0100     		.2byte	0x1
 19201 0913 50       		.byte	0x50
 19202 0914 04020000 		.4byte	.LVL313
 19203 0918 12020000 		.4byte	.LVL314
 19204 091c 0100     		.2byte	0x1
 19205 091e 50       		.byte	0x50
 19206 091f 16020000 		.4byte	.LVL315
 19207 0923 24020000 		.4byte	.LVL316
 19208 0927 0100     		.2byte	0x1
ARM GAS  /tmp/cczbsEFl.s 			page 338


 19209 0929 50       		.byte	0x50
 19210 092a 28020000 		.4byte	.LVL317
 19211 092e 36020000 		.4byte	.LVL318
 19212 0932 0100     		.2byte	0x1
 19213 0934 50       		.byte	0x50
 19214 0935 3A020000 		.4byte	.LVL319
 19215 0939 4A020000 		.4byte	.LVL320
 19216 093d 0100     		.2byte	0x1
 19217 093f 50       		.byte	0x50
 19218 0940 4E020000 		.4byte	.LVL321
 19219 0944 5C020000 		.4byte	.LVL322
 19220 0948 0100     		.2byte	0x1
 19221 094a 50       		.byte	0x50
 19222 094b 60020000 		.4byte	.LVL323
 19223 094f 6E020000 		.4byte	.LVL324
 19224 0953 0100     		.2byte	0x1
 19225 0955 50       		.byte	0x50
 19226 0956 72020000 		.4byte	.LVL325
 19227 095a 80020000 		.4byte	.LVL326
 19228 095e 0100     		.2byte	0x1
 19229 0960 50       		.byte	0x50
 19230 0961 84020000 		.4byte	.LVL327
 19231 0965 94020000 		.4byte	.LVL328
 19232 0969 0100     		.2byte	0x1
 19233 096b 50       		.byte	0x50
 19234 096c 98020000 		.4byte	.LVL329
 19235 0970 A6020000 		.4byte	.LVL330
 19236 0974 0100     		.2byte	0x1
 19237 0976 50       		.byte	0x50
 19238 0977 AA020000 		.4byte	.LVL331
 19239 097b B8020000 		.4byte	.LVL332
 19240 097f 0100     		.2byte	0x1
 19241 0981 50       		.byte	0x50
 19242 0982 BC020000 		.4byte	.LVL333
 19243 0986 CA020000 		.4byte	.LVL334
 19244 098a 0100     		.2byte	0x1
 19245 098c 50       		.byte	0x50
 19246 098d CE020000 		.4byte	.LVL335
 19247 0991 DA020000 		.4byte	.LVL337
 19248 0995 0100     		.2byte	0x1
 19249 0997 50       		.byte	0x50
 19250 0998 DE020000 		.4byte	.LVL338
 19251 099c EA020000 		.4byte	.LVL339
 19252 09a0 0100     		.2byte	0x1
 19253 09a2 50       		.byte	0x50
 19254 09a3 EE020000 		.4byte	.LVL340
 19255 09a7 FA020000 		.4byte	.LVL341
 19256 09ab 0100     		.2byte	0x1
 19257 09ad 50       		.byte	0x50
 19258 09ae FE020000 		.4byte	.LVL342
 19259 09b2 0A030000 		.4byte	.LVL344
 19260 09b6 0100     		.2byte	0x1
 19261 09b8 50       		.byte	0x50
 19262 09b9 0E030000 		.4byte	.LVL345
 19263 09bd 5E030000 		.4byte	.LVL350
 19264 09c1 0100     		.2byte	0x1
 19265 09c3 50       		.byte	0x50
ARM GAS  /tmp/cczbsEFl.s 			page 339


 19266 09c4 62030000 		.4byte	.LVL351
 19267 09c8 70030000 		.4byte	.LVL352
 19268 09cc 0100     		.2byte	0x1
 19269 09ce 50       		.byte	0x50
 19270 09cf 74030000 		.4byte	.LVL353
 19271 09d3 94030000 		.4byte	.LVL357
 19272 09d7 0100     		.2byte	0x1
 19273 09d9 50       		.byte	0x50
 19274 09da 94030000 		.4byte	.LVL357
 19275 09de 94040000 		.4byte	.LVL409
 19276 09e2 0200     		.2byte	0x2
 19277 09e4 30       		.byte	0x30
 19278 09e5 9F       		.byte	0x9f
 19279 09e6 98040000 		.4byte	.LVL410
 19280 09ea D4040000 		.4byte	.LFE267
 19281 09ee 0100     		.2byte	0x1
 19282 09f0 50       		.byte	0x50
 19283 09f1 00000000 		.4byte	0
 19284 09f5 00000000 		.4byte	0
 19285              	.LVUS42:
 19286 09f9 00       		.uleb128 .LVU624
 19287 09fa 00       		.uleb128 .LVU656
 19288 09fb 00       		.uleb128 .LVU658
 19289 09fc 00       		.uleb128 .LVU794
 19290 09fd 00       		.uleb128 .LVU794
 19291 09fe 00       		.uleb128 .LVU822
 19292 09ff 00       		.uleb128 .LVU834
 19293 0a00 00       		.uleb128 .LVU869
 19294 0a01 00       		.uleb128 .LVU869
 19295 0a02 00       		.uleb128 .LVU873
 19296 0a03 00       		.uleb128 .LVU873
 19297 0a04 00       		.uleb128 .LVU875
 19298 0a05 00       		.uleb128 .LVU875
 19299 0a06 00       		.uleb128 .LVU887
 19300 0a07 00       		.uleb128 .LVU887
 19301 0a08 00       		.uleb128 .LVU890
 19302 0a09 00       		.uleb128 .LVU890
 19303 0a0a 00       		.uleb128 .LVU893
 19304 0a0b 00       		.uleb128 .LVU893
 19305 0a0c 00       		.uleb128 .LVU939
 19306 0a0d 00       		.uleb128 .LVU940
 19307 0a0e 00       		.uleb128 0
 19308              	.LLST42:
 19309 0a0f 2C000000 		.4byte	.LVL272
 19310 0a13 B8000000 		.4byte	.LVL278
 19311 0a17 0100     		.2byte	0x1
 19312 0a19 56       		.byte	0x56
 19313 0a1a DC000000 		.4byte	.LVL280
 19314 0a1e 18030000 		.4byte	.LVL346
 19315 0a22 0100     		.2byte	0x1
 19316 0a24 56       		.byte	0x56
 19317 0a25 18030000 		.4byte	.LVL346
 19318 0a29 86030000 		.4byte	.LVL356
 19319 0a2d 0300     		.2byte	0x3
 19320 0a2f 76       		.byte	0x76
 19321 0a30 7F       		.sleb128 -1
 19322 0a31 9F       		.byte	0x9f
ARM GAS  /tmp/cczbsEFl.s 			page 340


 19323 0a32 94030000 		.4byte	.LVL357
 19324 0a36 E4030000 		.4byte	.LVL370
 19325 0a3a 0100     		.2byte	0x1
 19326 0a3c 56       		.byte	0x56
 19327 0a3d E4030000 		.4byte	.LVL370
 19328 0a41 EE030000 		.4byte	.LVL372
 19329 0a45 0800     		.2byte	0x8
 19330 0a47 71       		.byte	0x71
 19331 0a48 00       		.sleb128 0
 19332 0a49 73       		.byte	0x73
 19333 0a4a 00       		.sleb128 0
 19334 0a4b 22       		.byte	0x22
 19335 0a4c 31       		.byte	0x31
 19336 0a4d 1C       		.byte	0x1c
 19337 0a4e 9F       		.byte	0x9f
 19338 0a4f EE030000 		.4byte	.LVL372
 19339 0a53 F6030000 		.4byte	.LVL373
 19340 0a57 0900     		.2byte	0x9
 19341 0a59 73       		.byte	0x73
 19342 0a5a 00       		.sleb128 0
 19343 0a5b F3       		.byte	0xf3
 19344 0a5c 01       		.uleb128 0x1
 19345 0a5d 51       		.byte	0x51
 19346 0a5e 22       		.byte	0x22
 19347 0a5f 31       		.byte	0x31
 19348 0a60 1C       		.byte	0x1c
 19349 0a61 9F       		.byte	0x9f
 19350 0a62 F6030000 		.4byte	.LVL373
 19351 0a66 0A040000 		.4byte	.LVL380
 19352 0a6a 0100     		.2byte	0x1
 19353 0a6c 56       		.byte	0x56
 19354 0a6d 0A040000 		.4byte	.LVL380
 19355 0a71 10040000 		.4byte	.LVL381
 19356 0a75 0800     		.2byte	0x8
 19357 0a77 73       		.byte	0x73
 19358 0a78 00       		.sleb128 0
 19359 0a79 74       		.byte	0x74
 19360 0a7a 00       		.sleb128 0
 19361 0a7b 22       		.byte	0x22
 19362 0a7c 31       		.byte	0x31
 19363 0a7d 1C       		.byte	0x1c
 19364 0a7e 9F       		.byte	0x9f
 19365 0a7f 10040000 		.4byte	.LVL381
 19366 0a83 1C040000 		.4byte	.LVL382
 19367 0a87 0900     		.2byte	0x9
 19368 0a89 73       		.byte	0x73
 19369 0a8a 00       		.sleb128 0
 19370 0a8b F3       		.byte	0xf3
 19371 0a8c 01       		.uleb128 0x1
 19372 0a8d 51       		.byte	0x51
 19373 0a8e 22       		.byte	0x22
 19374 0a8f 31       		.byte	0x31
 19375 0a90 1C       		.byte	0x1c
 19376 0a91 9F       		.byte	0x9f
 19377 0a92 1C040000 		.4byte	.LVL382
 19378 0a96 94040000 		.4byte	.LVL409
 19379 0a9a 0100     		.2byte	0x1
ARM GAS  /tmp/cczbsEFl.s 			page 341


 19380 0a9c 56       		.byte	0x56
 19381 0a9d 98040000 		.4byte	.LVL410
 19382 0aa1 D4040000 		.4byte	.LFE267
 19383 0aa5 0300     		.2byte	0x3
 19384 0aa7 76       		.byte	0x76
 19385 0aa8 7F       		.sleb128 -1
 19386 0aa9 9F       		.byte	0x9f
 19387 0aaa 00000000 		.4byte	0
 19388 0aae 00000000 		.4byte	0
 19389              	.LVUS43:
 19390 0ab2 00       		.uleb128 .LVU627
 19391 0ab3 00       		.uleb128 .LVU656
 19392 0ab4 00       		.uleb128 .LVU658
 19393 0ab5 00       		.uleb128 .LVU820
 19394 0ab6 00       		.uleb128 .LVU820
 19395 0ab7 00       		.uleb128 .LVU834
 19396 0ab8 00       		.uleb128 .LVU834
 19397 0ab9 00       		.uleb128 .LVU851
 19398 0aba 00       		.uleb128 .LVU851
 19399 0abb 00       		.uleb128 .LVU854
 19400 0abc 00       		.uleb128 .LVU854
 19401 0abd 00       		.uleb128 .LVU858
 19402 0abe 00       		.uleb128 .LVU858
 19403 0abf 00       		.uleb128 .LVU913
 19404 0ac0 00       		.uleb128 .LVU913
 19405 0ac1 00       		.uleb128 .LVU916
 19406 0ac2 00       		.uleb128 .LVU916
 19407 0ac3 00       		.uleb128 .LVU920
 19408 0ac4 00       		.uleb128 .LVU920
 19409 0ac5 00       		.uleb128 .LVU939
 19410 0ac6 00       		.uleb128 .LVU940
 19411 0ac7 00       		.uleb128 0
 19412              	.LLST43:
 19413 0ac8 30000000 		.4byte	.LVL273
 19414 0acc B8000000 		.4byte	.LVL278
 19415 0ad0 0100     		.2byte	0x1
 19416 0ad2 57       		.byte	0x57
 19417 0ad3 DC000000 		.4byte	.LVL280
 19418 0ad7 82030000 		.4byte	.LVL354
 19419 0adb 0100     		.2byte	0x1
 19420 0add 57       		.byte	0x57
 19421 0ade 82030000 		.4byte	.LVL354
 19422 0ae2 94030000 		.4byte	.LVL357
 19423 0ae6 0300     		.2byte	0x3
 19424 0ae8 77       		.byte	0x77
 19425 0ae9 7F       		.sleb128 -1
 19426 0aea 9F       		.byte	0x9f
 19427 0aeb 94030000 		.4byte	.LVL357
 19428 0aef BE030000 		.4byte	.LVL363
 19429 0af3 0100     		.2byte	0x1
 19430 0af5 57       		.byte	0x57
 19431 0af6 BE030000 		.4byte	.LVL363
 19432 0afa C4030000 		.4byte	.LVL364
 19433 0afe 0800     		.2byte	0x8
 19434 0b00 75       		.byte	0x75
 19435 0b01 00       		.sleb128 0
 19436 0b02 7C       		.byte	0x7c
ARM GAS  /tmp/cczbsEFl.s 			page 342


 19437 0b03 00       		.sleb128 0
 19438 0b04 22       		.byte	0x22
 19439 0b05 31       		.byte	0x31
 19440 0b06 1C       		.byte	0x1c
 19441 0b07 9F       		.byte	0x9f
 19442 0b08 C4030000 		.4byte	.LVL364
 19443 0b0c D4030000 		.4byte	.LVL365
 19444 0b10 0900     		.2byte	0x9
 19445 0b12 7C       		.byte	0x7c
 19446 0b13 00       		.sleb128 0
 19447 0b14 F3       		.byte	0xf3
 19448 0b15 01       		.uleb128 0x1
 19449 0b16 52       		.byte	0x52
 19450 0b17 22       		.byte	0x22
 19451 0b18 31       		.byte	0x31
 19452 0b19 1C       		.byte	0x1c
 19453 0b1a 9F       		.byte	0x9f
 19454 0b1b D4030000 		.4byte	.LVL365
 19455 0b1f 4C040000 		.4byte	.LVL390
 19456 0b23 0100     		.2byte	0x1
 19457 0b25 57       		.byte	0x57
 19458 0b26 4C040000 		.4byte	.LVL390
 19459 0b2a 52040000 		.4byte	.LVL391
 19460 0b2e 0800     		.2byte	0x8
 19461 0b30 75       		.byte	0x75
 19462 0b31 00       		.sleb128 0
 19463 0b32 7C       		.byte	0x7c
 19464 0b33 00       		.sleb128 0
 19465 0b34 22       		.byte	0x22
 19466 0b35 31       		.byte	0x31
 19467 0b36 1C       		.byte	0x1c
 19468 0b37 9F       		.byte	0x9f
 19469 0b38 52040000 		.4byte	.LVL391
 19470 0b3c 62040000 		.4byte	.LVL392
 19471 0b40 0900     		.2byte	0x9
 19472 0b42 7C       		.byte	0x7c
 19473 0b43 00       		.sleb128 0
 19474 0b44 F3       		.byte	0xf3
 19475 0b45 01       		.uleb128 0x1
 19476 0b46 52       		.byte	0x52
 19477 0b47 22       		.byte	0x22
 19478 0b48 31       		.byte	0x31
 19479 0b49 1C       		.byte	0x1c
 19480 0b4a 9F       		.byte	0x9f
 19481 0b4b 62040000 		.4byte	.LVL392
 19482 0b4f 94040000 		.4byte	.LVL409
 19483 0b53 0100     		.2byte	0x1
 19484 0b55 57       		.byte	0x57
 19485 0b56 98040000 		.4byte	.LVL410
 19486 0b5a D4040000 		.4byte	.LFE267
 19487 0b5e 0100     		.2byte	0x1
 19488 0b60 57       		.byte	0x57
 19489 0b61 00000000 		.4byte	0
 19490 0b65 00000000 		.4byte	0
 19491              	.LVUS44:
 19492 0b69 01       		.uleb128 .LVU628
 19493 0b6a 00       		.uleb128 .LVU647
ARM GAS  /tmp/cczbsEFl.s 			page 343


 19494 0b6b 00       		.uleb128 .LVU647
 19495 0b6c 00       		.uleb128 .LVU656
 19496 0b6d 00       		.uleb128 .LVU658
 19497 0b6e 00       		.uleb128 .LVU834
 19498 0b6f 00       		.uleb128 .LVU834
 19499 0b70 00       		.uleb128 .LVU842
 19500 0b71 00       		.uleb128 .LVU842
 19501 0b72 00       		.uleb128 .LVU846
 19502 0b73 00       		.uleb128 .LVU846
 19503 0b74 00       		.uleb128 .LVU863
 19504 0b75 00       		.uleb128 .LVU863
 19505 0b76 00       		.uleb128 .LVU878
 19506 0b77 00       		.uleb128 .LVU878
 19507 0b78 00       		.uleb128 .LVU881
 19508 0b79 00       		.uleb128 .LVU881
 19509 0b7a 00       		.uleb128 .LVU896
 19510 0b7b 00       		.uleb128 .LVU896
 19511 0b7c 00       		.uleb128 .LVU899
 19512 0b7d 00       		.uleb128 .LVU899
 19513 0b7e 00       		.uleb128 .LVU925
 19514 0b7f 00       		.uleb128 .LVU925
 19515 0b80 00       		.uleb128 .LVU935
 19516 0b81 00       		.uleb128 .LVU935
 19517 0b82 00       		.uleb128 .LVU937
 19518 0b83 00       		.uleb128 .LVU937
 19519 0b84 00       		.uleb128 .LVU939
 19520 0b85 00       		.uleb128 .LVU940
 19521 0b86 00       		.uleb128 0
 19522              	.LLST44:
 19523 0b87 30000000 		.4byte	.LVL273
 19524 0b8b 8C000000 		.4byte	.LVL274
 19525 0b8f 0200     		.2byte	0x2
 19526 0b91 30       		.byte	0x30
 19527 0b92 9F       		.byte	0x9f
 19528 0b93 8C000000 		.4byte	.LVL274
 19529 0b97 B8000000 		.4byte	.LVL278
 19530 0b9b 0300     		.2byte	0x3
 19531 0b9d 91       		.byte	0x91
 19532 0b9e A47F     		.sleb128 -92
 19533 0ba0 DC000000 		.4byte	.LVL280
 19534 0ba4 94030000 		.4byte	.LVL357
 19535 0ba8 0300     		.2byte	0x3
 19536 0baa 91       		.byte	0x91
 19537 0bab A47F     		.sleb128 -92
 19538 0bad 94030000 		.4byte	.LVL357
 19539 0bb1 AC030000 		.4byte	.LVL360
 19540 0bb5 0200     		.2byte	0x2
 19541 0bb7 30       		.byte	0x30
 19542 0bb8 9F       		.byte	0x9f
 19543 0bb9 AC030000 		.4byte	.LVL360
 19544 0bbd B4030000 		.4byte	.LVL362
 19545 0bc1 0100     		.2byte	0x1
 19546 0bc3 53       		.byte	0x53
 19547 0bc4 B4030000 		.4byte	.LVL362
 19548 0bc8 DC030000 		.4byte	.LVL368
 19549 0bcc 0300     		.2byte	0x3
 19550 0bce 91       		.byte	0x91
ARM GAS  /tmp/cczbsEFl.s 			page 344


 19551 0bcf A47F     		.sleb128 -92
 19552 0bd1 DC030000 		.4byte	.LVL368
 19553 0bd5 FC030000 		.4byte	.LVL375
 19554 0bd9 0200     		.2byte	0x2
 19555 0bdb 30       		.byte	0x30
 19556 0bdc 9F       		.byte	0x9f
 19557 0bdd FC030000 		.4byte	.LVL375
 19558 0be1 02040000 		.4byte	.LVL377
 19559 0be5 0100     		.2byte	0x1
 19560 0be7 53       		.byte	0x53
 19561 0be8 02040000 		.4byte	.LVL377
 19562 0bec 22040000 		.4byte	.LVL384
 19563 0bf0 0200     		.2byte	0x2
 19564 0bf2 30       		.byte	0x30
 19565 0bf3 9F       		.byte	0x9f
 19566 0bf4 22040000 		.4byte	.LVL384
 19567 0bf8 28040000 		.4byte	.LVL386
 19568 0bfc 0100     		.2byte	0x1
 19569 0bfe 53       		.byte	0x53
 19570 0bff 28040000 		.4byte	.LVL386
 19571 0c03 6A040000 		.4byte	.LVL395
 19572 0c07 0300     		.2byte	0x3
 19573 0c09 91       		.byte	0x91
 19574 0c0a A47F     		.sleb128 -92
 19575 0c0c 6A040000 		.4byte	.LVL395
 19576 0c10 88040000 		.4byte	.LVL405
 19577 0c14 0200     		.2byte	0x2
 19578 0c16 30       		.byte	0x30
 19579 0c17 9F       		.byte	0x9f
 19580 0c18 88040000 		.4byte	.LVL405
 19581 0c1c 8E040000 		.4byte	.LVL407
 19582 0c20 0300     		.2byte	0x3
 19583 0c22 91       		.byte	0x91
 19584 0c23 A47F     		.sleb128 -92
 19585 0c25 8E040000 		.4byte	.LVL407
 19586 0c29 94040000 		.4byte	.LVL409
 19587 0c2d 0200     		.2byte	0x2
 19588 0c2f 30       		.byte	0x30
 19589 0c30 9F       		.byte	0x9f
 19590 0c31 98040000 		.4byte	.LVL410
 19591 0c35 D4040000 		.4byte	.LFE267
 19592 0c39 0300     		.2byte	0x3
 19593 0c3b 91       		.byte	0x91
 19594 0c3c A47F     		.sleb128 -92
 19595 0c3e 00000000 		.4byte	0
 19596 0c42 00000000 		.4byte	0
 19597              	.LVUS45:
 19598 0c46 01       		.uleb128 .LVU628
 19599 0c47 00       		.uleb128 .LVU647
 19600 0c48 00       		.uleb128 .LVU647
 19601 0c49 00       		.uleb128 .LVU656
 19602 0c4a 00       		.uleb128 .LVU658
 19603 0c4b 00       		.uleb128 .LVU808
 19604 0c4c 00       		.uleb128 .LVU834
 19605 0c4d 00       		.uleb128 .LVU844
 19606 0c4e 00       		.uleb128 .LVU844
 19607 0c4f 00       		.uleb128 .LVU863
ARM GAS  /tmp/cczbsEFl.s 			page 345


 19608 0c50 00       		.uleb128 .LVU863
 19609 0c51 00       		.uleb128 .LVU880
 19610 0c52 00       		.uleb128 .LVU880
 19611 0c53 00       		.uleb128 .LVU881
 19612 0c54 00       		.uleb128 .LVU881
 19613 0c55 00       		.uleb128 .LVU898
 19614 0c56 00       		.uleb128 .LVU898
 19615 0c57 00       		.uleb128 .LVU925
 19616 0c58 00       		.uleb128 .LVU925
 19617 0c59 00       		.uleb128 .LVU935
 19618 0c5a 00       		.uleb128 .LVU935
 19619 0c5b 00       		.uleb128 .LVU937
 19620 0c5c 00       		.uleb128 .LVU937
 19621 0c5d 00       		.uleb128 .LVU939
 19622 0c5e 00       		.uleb128 .LVU940
 19623 0c5f 00       		.uleb128 .LVU951
 19624              	.LLST45:
 19625 0c60 30000000 		.4byte	.LVL273
 19626 0c64 8C000000 		.4byte	.LVL274
 19627 0c68 0200     		.2byte	0x2
 19628 0c6a 30       		.byte	0x30
 19629 0c6b 9F       		.byte	0x9f
 19630 0c6c 8C000000 		.4byte	.LVL274
 19631 0c70 B8000000 		.4byte	.LVL278
 19632 0c74 0100     		.2byte	0x1
 19633 0c76 58       		.byte	0x58
 19634 0c77 DC000000 		.4byte	.LVL280
 19635 0c7b 56030000 		.4byte	.LVL349
 19636 0c7f 0100     		.2byte	0x1
 19637 0c81 58       		.byte	0x58
 19638 0c82 94030000 		.4byte	.LVL357
 19639 0c86 B0030000 		.4byte	.LVL361
 19640 0c8a 0200     		.2byte	0x2
 19641 0c8c 30       		.byte	0x30
 19642 0c8d 9F       		.byte	0x9f
 19643 0c8e B0030000 		.4byte	.LVL361
 19644 0c92 DC030000 		.4byte	.LVL368
 19645 0c96 0100     		.2byte	0x1
 19646 0c98 58       		.byte	0x58
 19647 0c99 DC030000 		.4byte	.LVL368
 19648 0c9d 00040000 		.4byte	.LVL376
 19649 0ca1 0200     		.2byte	0x2
 19650 0ca3 30       		.byte	0x30
 19651 0ca4 9F       		.byte	0x9f
 19652 0ca5 00040000 		.4byte	.LVL376
 19653 0ca9 02040000 		.4byte	.LVL377
 19654 0cad 0100     		.2byte	0x1
 19655 0caf 58       		.byte	0x58
 19656 0cb0 02040000 		.4byte	.LVL377
 19657 0cb4 26040000 		.4byte	.LVL385
 19658 0cb8 0200     		.2byte	0x2
 19659 0cba 30       		.byte	0x30
 19660 0cbb 9F       		.byte	0x9f
 19661 0cbc 26040000 		.4byte	.LVL385
 19662 0cc0 6A040000 		.4byte	.LVL395
 19663 0cc4 0100     		.2byte	0x1
 19664 0cc6 58       		.byte	0x58
ARM GAS  /tmp/cczbsEFl.s 			page 346


 19665 0cc7 6A040000 		.4byte	.LVL395
 19666 0ccb 88040000 		.4byte	.LVL405
 19667 0ccf 0200     		.2byte	0x2
 19668 0cd1 30       		.byte	0x30
 19669 0cd2 9F       		.byte	0x9f
 19670 0cd3 88040000 		.4byte	.LVL405
 19671 0cd7 8E040000 		.4byte	.LVL407
 19672 0cdb 0100     		.2byte	0x1
 19673 0cdd 58       		.byte	0x58
 19674 0cde 8E040000 		.4byte	.LVL407
 19675 0ce2 94040000 		.4byte	.LVL409
 19676 0ce6 0200     		.2byte	0x2
 19677 0ce8 30       		.byte	0x30
 19678 0ce9 9F       		.byte	0x9f
 19679 0cea 98040000 		.4byte	.LVL410
 19680 0cee C0040000 		.4byte	.LVL414
 19681 0cf2 0100     		.2byte	0x1
 19682 0cf4 58       		.byte	0x58
 19683 0cf5 00000000 		.4byte	0
 19684 0cf9 00000000 		.4byte	0
 19685              	.LVUS46:
 19686 0cfd 02       		.uleb128 .LVU629
 19687 0cfe 00       		.uleb128 .LVU649
 19688 0cff 00       		.uleb128 .LVU649
 19689 0d00 00       		.uleb128 .LVU656
 19690 0d01 00       		.uleb128 .LVU658
 19691 0d02 00       		.uleb128 .LVU834
 19692 0d03 00       		.uleb128 .LVU834
 19693 0d04 00       		.uleb128 .LVU860
 19694 0d05 00       		.uleb128 .LVU860
 19695 0d06 00       		.uleb128 .LVU863
 19696 0d07 00       		.uleb128 .LVU863
 19697 0d08 00       		.uleb128 .LVU905
 19698 0d09 00       		.uleb128 .LVU905
 19699 0d0a 00       		.uleb128 .LVU908
 19700 0d0b 00       		.uleb128 .LVU908
 19701 0d0c 00       		.uleb128 .LVU922
 19702 0d0d 00       		.uleb128 .LVU922
 19703 0d0e 00       		.uleb128 .LVU925
 19704 0d0f 00       		.uleb128 .LVU925
 19705 0d10 00       		.uleb128 .LVU939
 19706 0d11 00       		.uleb128 .LVU940
 19707 0d12 00       		.uleb128 0
 19708              	.LLST46:
 19709 0d13 30000000 		.4byte	.LVL273
 19710 0d17 AC000000 		.4byte	.LVL275
 19711 0d1b 0200     		.2byte	0x2
 19712 0d1d 30       		.byte	0x30
 19713 0d1e 9F       		.byte	0x9f
 19714 0d1f AC000000 		.4byte	.LVL275
 19715 0d23 B8000000 		.4byte	.LVL278
 19716 0d27 0300     		.2byte	0x3
 19717 0d29 91       		.byte	0x91
 19718 0d2a A87F     		.sleb128 -88
 19719 0d2c DC000000 		.4byte	.LVL280
 19720 0d30 94030000 		.4byte	.LVL357
 19721 0d34 0300     		.2byte	0x3
ARM GAS  /tmp/cczbsEFl.s 			page 347


 19722 0d36 91       		.byte	0x91
 19723 0d37 A87F     		.sleb128 -88
 19724 0d39 94030000 		.4byte	.LVL357
 19725 0d3d D6030000 		.4byte	.LVL366
 19726 0d41 0200     		.2byte	0x2
 19727 0d43 30       		.byte	0x30
 19728 0d44 9F       		.byte	0x9f
 19729 0d45 D6030000 		.4byte	.LVL366
 19730 0d49 DC030000 		.4byte	.LVL368
 19731 0d4d 0100     		.2byte	0x1
 19732 0d4f 53       		.byte	0x53
 19733 0d50 DC030000 		.4byte	.LVL368
 19734 0d54 3C040000 		.4byte	.LVL387
 19735 0d58 0200     		.2byte	0x2
 19736 0d5a 30       		.byte	0x30
 19737 0d5b 9F       		.byte	0x9f
 19738 0d5c 3C040000 		.4byte	.LVL387
 19739 0d60 42040000 		.4byte	.LVL389
 19740 0d64 0100     		.2byte	0x1
 19741 0d66 53       		.byte	0x53
 19742 0d67 42040000 		.4byte	.LVL389
 19743 0d6b 64040000 		.4byte	.LVL393
 19744 0d6f 0200     		.2byte	0x2
 19745 0d71 30       		.byte	0x30
 19746 0d72 9F       		.byte	0x9f
 19747 0d73 64040000 		.4byte	.LVL393
 19748 0d77 6A040000 		.4byte	.LVL395
 19749 0d7b 0100     		.2byte	0x1
 19750 0d7d 53       		.byte	0x53
 19751 0d7e 6A040000 		.4byte	.LVL395
 19752 0d82 94040000 		.4byte	.LVL409
 19753 0d86 0200     		.2byte	0x2
 19754 0d88 30       		.byte	0x30
 19755 0d89 9F       		.byte	0x9f
 19756 0d8a 98040000 		.4byte	.LVL410
 19757 0d8e D4040000 		.4byte	.LFE267
 19758 0d92 0300     		.2byte	0x3
 19759 0d94 91       		.byte	0x91
 19760 0d95 A87F     		.sleb128 -88
 19761 0d97 00000000 		.4byte	0
 19762 0d9b 00000000 		.4byte	0
 19763              	.LVUS47:
 19764 0d9f 02       		.uleb128 .LVU629
 19765 0da0 00       		.uleb128 .LVU649
 19766 0da1 00       		.uleb128 .LVU649
 19767 0da2 00       		.uleb128 .LVU656
 19768 0da3 00       		.uleb128 .LVU658
 19769 0da4 00       		.uleb128 .LVU834
 19770 0da5 00       		.uleb128 .LVU834
 19771 0da6 00       		.uleb128 .LVU862
 19772 0da7 00       		.uleb128 .LVU862
 19773 0da8 00       		.uleb128 .LVU863
 19774 0da9 00       		.uleb128 .LVU863
 19775 0daa 00       		.uleb128 .LVU907
 19776 0dab 00       		.uleb128 .LVU907
 19777 0dac 00       		.uleb128 .LVU908
 19778 0dad 00       		.uleb128 .LVU908
ARM GAS  /tmp/cczbsEFl.s 			page 348


 19779 0dae 00       		.uleb128 .LVU924
 19780 0daf 00       		.uleb128 .LVU924
 19781 0db0 00       		.uleb128 .LVU925
 19782 0db1 00       		.uleb128 .LVU925
 19783 0db2 00       		.uleb128 .LVU939
 19784 0db3 00       		.uleb128 .LVU940
 19785 0db4 00       		.uleb128 0
 19786              	.LLST47:
 19787 0db5 30000000 		.4byte	.LVL273
 19788 0db9 AC000000 		.4byte	.LVL275
 19789 0dbd 0200     		.2byte	0x2
 19790 0dbf 30       		.byte	0x30
 19791 0dc0 9F       		.byte	0x9f
 19792 0dc1 AC000000 		.4byte	.LVL275
 19793 0dc5 B8000000 		.4byte	.LVL278
 19794 0dc9 0100     		.2byte	0x1
 19795 0dcb 59       		.byte	0x59
 19796 0dcc DC000000 		.4byte	.LVL280
 19797 0dd0 94030000 		.4byte	.LVL357
 19798 0dd4 0100     		.2byte	0x1
 19799 0dd6 59       		.byte	0x59
 19800 0dd7 94030000 		.4byte	.LVL357
 19801 0ddb DA030000 		.4byte	.LVL367
 19802 0ddf 0200     		.2byte	0x2
 19803 0de1 30       		.byte	0x30
 19804 0de2 9F       		.byte	0x9f
 19805 0de3 DA030000 		.4byte	.LVL367
 19806 0de7 DC030000 		.4byte	.LVL368
 19807 0deb 0100     		.2byte	0x1
 19808 0ded 59       		.byte	0x59
 19809 0dee DC030000 		.4byte	.LVL368
 19810 0df2 40040000 		.4byte	.LVL388
 19811 0df6 0200     		.2byte	0x2
 19812 0df8 30       		.byte	0x30
 19813 0df9 9F       		.byte	0x9f
 19814 0dfa 40040000 		.4byte	.LVL388
 19815 0dfe 42040000 		.4byte	.LVL389
 19816 0e02 0100     		.2byte	0x1
 19817 0e04 59       		.byte	0x59
 19818 0e05 42040000 		.4byte	.LVL389
 19819 0e09 68040000 		.4byte	.LVL394
 19820 0e0d 0200     		.2byte	0x2
 19821 0e0f 30       		.byte	0x30
 19822 0e10 9F       		.byte	0x9f
 19823 0e11 68040000 		.4byte	.LVL394
 19824 0e15 6A040000 		.4byte	.LVL395
 19825 0e19 0100     		.2byte	0x1
 19826 0e1b 59       		.byte	0x59
 19827 0e1c 6A040000 		.4byte	.LVL395
 19828 0e20 94040000 		.4byte	.LVL409
 19829 0e24 0200     		.2byte	0x2
 19830 0e26 30       		.byte	0x30
 19831 0e27 9F       		.byte	0x9f
 19832 0e28 98040000 		.4byte	.LVL410
 19833 0e2c D4040000 		.4byte	.LFE267
 19834 0e30 0100     		.2byte	0x1
 19835 0e32 59       		.byte	0x59
ARM GAS  /tmp/cczbsEFl.s 			page 349


 19836 0e33 00000000 		.4byte	0
 19837 0e37 00000000 		.4byte	0
 19838              	.LVUS48:
 19839 0e3b 00       		.uleb128 .LVU808
 19840 0e3c 00       		.uleb128 .LVU834
 19841 0e3d 00       		.uleb128 .LVU951
 19842 0e3e 00       		.uleb128 0
 19843              	.LLST48:
 19844 0e3f 56030000 		.4byte	.LVL349
 19845 0e43 94030000 		.4byte	.LVL357
 19846 0e47 0100     		.2byte	0x1
 19847 0e49 58       		.byte	0x58
 19848 0e4a C0040000 		.4byte	.LVL414
 19849 0e4e D4040000 		.4byte	.LFE267
 19850 0e52 0100     		.2byte	0x1
 19851 0e54 58       		.byte	0x58
 19852 0e55 00000000 		.4byte	0
 19853 0e59 00000000 		.4byte	0
 19854              	.LVUS49:
 19855 0e5d 00       		.uleb128 .LVU802
 19856 0e5e 00       		.uleb128 .LVU807
 19857 0e5f 00       		.uleb128 .LVU807
 19858 0e60 00       		.uleb128 .LVU811
 19859 0e61 00       		.uleb128 .LVU942
 19860 0e62 00       		.uleb128 .LVU948
 19861 0e63 00       		.uleb128 .LVU948
 19862 0e64 00       		.uleb128 .LVU950
 19863 0e65 00       		.uleb128 .LVU950
 19864 0e66 00       		.uleb128 0
 19865              	.LLST49:
 19866 0e67 3E030000 		.4byte	.LVL347
 19867 0e6b 4E030000 		.4byte	.LVL348
 19868 0e6f 2400     		.2byte	0x24
 19869 0e71 F4       		.byte	0xf4
 19870 0e72 25       		.uleb128 0x25
 19871 0e73 04       		.byte	0x4
 19872 0e74 00002244 		.4byte	0x44220000
 19873 0e78 F5       		.byte	0xf5
 19874 0e79 4E       		.uleb128 0x4e
 19875 0e7a 25       		.uleb128 0x25
 19876 0e7b 1C       		.byte	0x1c
 19877 0e7c F4       		.byte	0xf4
 19878 0e7d 25       		.uleb128 0x25
 19879 0e7e 04       		.byte	0x4
 19880 0e7f 00002244 		.4byte	0x44220000
 19881 0e83 F5       		.byte	0xf5
 19882 0e84 4E       		.uleb128 0x4e
 19883 0e85 25       		.uleb128 0x25
 19884 0e86 1C       		.byte	0x1c
 19885 0e87 22       		.byte	0x22
 19886 0e88 F5       		.byte	0xf5
 19887 0e89 4D       		.uleb128 0x4d
 19888 0e8a 25       		.uleb128 0x25
 19889 0e8b 1E       		.byte	0x1e
 19890 0e8c F4       		.byte	0xf4
 19891 0e8d 25       		.uleb128 0x25
 19892 0e8e 04       		.byte	0x4
ARM GAS  /tmp/cczbsEFl.s 			page 350


 19893 0e8f 0000A344 		.4byte	0x44a30000
 19894 0e93 1B       		.byte	0x1b
 19895 0e94 9F       		.byte	0x9f
 19896 0e95 4E030000 		.4byte	.LVL348
 19897 0e99 61030000 		.4byte	.LVL351-1
 19898 0e9d 0200     		.2byte	0x2
 19899 0e9f 90       		.byte	0x90
 19900 0ea0 4E       		.uleb128 0x4e
 19901 0ea1 9C040000 		.4byte	.LVL411
 19902 0ea5 B0040000 		.4byte	.LVL412
 19903 0ea9 2000     		.2byte	0x20
 19904 0eab F5       		.byte	0xf5
 19905 0eac 4F       		.uleb128 0x4f
 19906 0ead 25       		.uleb128 0x25
 19907 0eae F4       		.byte	0xf4
 19908 0eaf 25       		.uleb128 0x25
 19909 0eb0 04       		.byte	0x4
 19910 0eb1 00000041 		.4byte	0x41000000
 19911 0eb5 22       		.byte	0x22
 19912 0eb6 F4       		.byte	0xf4
 19913 0eb7 25       		.uleb128 0x25
 19914 0eb8 04       		.byte	0x4
 19915 0eb9 00002244 		.4byte	0x44220000
 19916 0ebd F5       		.byte	0xf5
 19917 0ebe 4F       		.uleb128 0x4f
 19918 0ebf 25       		.uleb128 0x25
 19919 0ec0 1C       		.byte	0x1c
 19920 0ec1 1E       		.byte	0x1e
 19921 0ec2 F4       		.byte	0xf4
 19922 0ec3 25       		.uleb128 0x25
 19923 0ec4 04       		.byte	0x4
 19924 0ec5 00002444 		.4byte	0x44240000
 19925 0ec9 1B       		.byte	0x1b
 19926 0eca 9F       		.byte	0x9f
 19927 0ecb B0040000 		.4byte	.LVL412
 19928 0ecf B8040000 		.4byte	.LVL413
 19929 0ed3 2600     		.2byte	0x26
 19930 0ed5 73       		.byte	0x73
 19931 0ed6 00       		.sleb128 0
 19932 0ed7 F7       		.byte	0xf7
 19933 0ed8 2C       		.uleb128 0x2c
 19934 0ed9 F7       		.byte	0xf7
 19935 0eda 25       		.uleb128 0x25
 19936 0edb F4       		.byte	0xf4
 19937 0edc 25       		.uleb128 0x25
 19938 0edd 04       		.byte	0x4
 19939 0ede 00000041 		.4byte	0x41000000
 19940 0ee2 22       		.byte	0x22
 19941 0ee3 F4       		.byte	0xf4
 19942 0ee4 25       		.uleb128 0x25
 19943 0ee5 04       		.byte	0x4
 19944 0ee6 00002244 		.4byte	0x44220000
 19945 0eea 73       		.byte	0x73
 19946 0eeb 00       		.sleb128 0
 19947 0eec F7       		.byte	0xf7
 19948 0eed 2C       		.uleb128 0x2c
 19949 0eee F7       		.byte	0xf7
ARM GAS  /tmp/cczbsEFl.s 			page 351


 19950 0eef 25       		.uleb128 0x25
 19951 0ef0 1C       		.byte	0x1c
 19952 0ef1 1E       		.byte	0x1e
 19953 0ef2 F4       		.byte	0xf4
 19954 0ef3 25       		.uleb128 0x25
 19955 0ef4 04       		.byte	0x4
 19956 0ef5 00002444 		.4byte	0x44240000
 19957 0ef9 1B       		.byte	0x1b
 19958 0efa 9F       		.byte	0x9f
 19959 0efb B8040000 		.4byte	.LVL413
 19960 0eff D4040000 		.4byte	.LFE267
 19961 0f03 0200     		.2byte	0x2
 19962 0f05 90       		.byte	0x90
 19963 0f06 4E       		.uleb128 0x4e
 19964 0f07 00000000 		.4byte	0
 19965 0f0b 00000000 		.4byte	0
 19966              	.LVUS50:
 19967 0f0f 01       		.uleb128 .LVU650
 19968 0f10 00       		.uleb128 .LVU654
 19969              	.LLST50:
 19970 0f11 AC000000 		.4byte	.LVL275
 19971 0f15 B6000000 		.4byte	.LVL277
 19972 0f19 0200     		.2byte	0x2
 19973 0f1b 30       		.byte	0x30
 19974 0f1c 9F       		.byte	0x9f
 19975 0f1d 00000000 		.4byte	0
 19976 0f21 00000000 		.4byte	0
 19977              	.LVUS51:
 19978 0f25 01       		.uleb128 .LVU667
 19979 0f26 00       		.uleb128 .LVU671
 19980              	.LLST51:
 19981 0f27 F4000000 		.4byte	.LVL285
 19982 0f2b FE000000 		.4byte	.LVL287
 19983 0f2f 0200     		.2byte	0x2
 19984 0f31 30       		.byte	0x30
 19985 0f32 9F       		.byte	0x9f
 19986 0f33 00000000 		.4byte	0
 19987 0f37 00000000 		.4byte	0
 19988              	.LVUS52:
 19989 0f3b 01       		.uleb128 .LVU770
 19990 0f3c 00       		.uleb128 .LVU774
 19991              	.LLST52:
 19992 0f3d D4020000 		.4byte	.LVL336
 19993 0f41 DE020000 		.4byte	.LVL338
 19994 0f45 0200     		.2byte	0x2
 19995 0f47 31       		.byte	0x31
 19996 0f48 9F       		.byte	0x9f
 19997 0f49 00000000 		.4byte	0
 19998 0f4d 00000000 		.4byte	0
 19999              	.LVUS53:
 20000 0f51 01       		.uleb128 .LVU785
 20001 0f52 00       		.uleb128 .LVU789
 20002              	.LLST53:
 20003 0f53 04030000 		.4byte	.LVL343
 20004 0f57 0E030000 		.4byte	.LVL345
 20005 0f5b 0200     		.2byte	0x2
 20006 0f5d 31       		.byte	0x31
ARM GAS  /tmp/cczbsEFl.s 			page 352


 20007 0f5e 9F       		.byte	0x9f
 20008 0f5f 00000000 		.4byte	0
 20009 0f63 00000000 		.4byte	0
 20010              	.LVUS30:
 20011 0f67 00       		.uleb128 0
 20012 0f68 00       		.uleb128 .LVU586
 20013 0f69 00       		.uleb128 .LVU586
 20014 0f6a 00       		.uleb128 0
 20015              	.LLST30:
 20016 0f6b 00000000 		.4byte	.LVL256
 20017 0f6f 10000000 		.4byte	.LVL258
 20018 0f73 0100     		.2byte	0x1
 20019 0f75 50       		.byte	0x50
 20020 0f76 10000000 		.4byte	.LVL258
 20021 0f7a 70000000 		.4byte	.LFE266
 20022 0f7e 0400     		.2byte	0x4
 20023 0f80 F3       		.byte	0xf3
 20024 0f81 01       		.uleb128 0x1
 20025 0f82 50       		.byte	0x50
 20026 0f83 9F       		.byte	0x9f
 20027 0f84 00000000 		.4byte	0
 20028 0f88 00000000 		.4byte	0
 20029              	.LVUS31:
 20030 0f8c 00       		.uleb128 0
 20031 0f8d 00       		.uleb128 .LVU585
 20032 0f8e 00       		.uleb128 .LVU585
 20033 0f8f 00       		.uleb128 0
 20034              	.LLST31:
 20035 0f90 00000000 		.4byte	.LVL256
 20036 0f94 0E000000 		.4byte	.LVL257
 20037 0f98 0100     		.2byte	0x1
 20038 0f9a 51       		.byte	0x51
 20039 0f9b 0E000000 		.4byte	.LVL257
 20040 0f9f 70000000 		.4byte	.LFE266
 20041 0fa3 0400     		.2byte	0x4
 20042 0fa5 F3       		.byte	0xf3
 20043 0fa6 01       		.uleb128 0x1
 20044 0fa7 51       		.byte	0x51
 20045 0fa8 9F       		.byte	0x9f
 20046 0fa9 00000000 		.4byte	0
 20047 0fad 00000000 		.4byte	0
 20048              	.LVUS32:
 20049 0fb1 01       		.uleb128 .LVU589
 20050 0fb2 00       		.uleb128 .LVU593
 20051 0fb3 00       		.uleb128 .LVU593
 20052 0fb4 00       		.uleb128 .LVU598
 20053 0fb5 00       		.uleb128 .LVU599
 20054 0fb6 00       		.uleb128 .LVU602
 20055 0fb7 00       		.uleb128 .LVU603
 20056 0fb8 00       		.uleb128 .LVU606
 20057 0fb9 00       		.uleb128 .LVU607
 20058 0fba 00       		.uleb128 .LVU610
 20059 0fbb 00       		.uleb128 .LVU612
 20060 0fbc 00       		.uleb128 .LVU613
 20061              	.LLST32:
 20062 0fbd 18000000 		.4byte	.LVL259
 20063 0fc1 1C000000 		.4byte	.LVL260
ARM GAS  /tmp/cczbsEFl.s 			page 353


 20064 0fc5 0200     		.2byte	0x2
 20065 0fc7 30       		.byte	0x30
 20066 0fc8 9F       		.byte	0x9f
 20067 0fc9 1C000000 		.4byte	.LVL260
 20068 0fcd 32000000 		.4byte	.LVL261
 20069 0fd1 0100     		.2byte	0x1
 20070 0fd3 50       		.byte	0x50
 20071 0fd4 36000000 		.4byte	.LVL262
 20072 0fd8 3C000000 		.4byte	.LVL263
 20073 0fdc 0100     		.2byte	0x1
 20074 0fde 50       		.byte	0x50
 20075 0fdf 40000000 		.4byte	.LVL264
 20076 0fe3 46000000 		.4byte	.LVL265
 20077 0fe7 0100     		.2byte	0x1
 20078 0fe9 50       		.byte	0x50
 20079 0fea 4A000000 		.4byte	.LVL266
 20080 0fee 5C000000 		.4byte	.LVL267
 20081 0ff2 0100     		.2byte	0x1
 20082 0ff4 50       		.byte	0x50
 20083 0ff5 66000000 		.4byte	.LVL268
 20084 0ff9 69000000 		.4byte	.LVL269-1
 20085 0ffd 0100     		.2byte	0x1
 20086 0fff 50       		.byte	0x50
 20087 1000 00000000 		.4byte	0
 20088 1004 00000000 		.4byte	0
 20089              	.LVUS33:
 20090 1008 02       		.uleb128 .LVU590
 20091 1009 00       		.uleb128 .LVU593
 20092              	.LLST33:
 20093 100a 18000000 		.4byte	.LVL259
 20094 100e 1C000000 		.4byte	.LVL260
 20095 1012 0200     		.2byte	0x2
 20096 1014 30       		.byte	0x30
 20097 1015 9F       		.byte	0x9f
 20098 1016 00000000 		.4byte	0
 20099 101a 00000000 		.4byte	0
 20100              	.LVUS22:
 20101 101e 00       		.uleb128 0
 20102 101f 00       		.uleb128 .LVU506
 20103 1020 00       		.uleb128 .LVU506
 20104 1021 00       		.uleb128 .LVU506
 20105 1022 00       		.uleb128 .LVU506
 20106 1023 00       		.uleb128 .LVU510
 20107 1024 00       		.uleb128 .LVU510
 20108 1025 00       		.uleb128 .LVU510
 20109 1026 00       		.uleb128 .LVU510
 20110 1027 00       		.uleb128 .LVU514
 20111 1028 00       		.uleb128 .LVU514
 20112 1029 00       		.uleb128 .LVU514
 20113 102a 00       		.uleb128 .LVU514
 20114 102b 00       		.uleb128 .LVU515
 20115 102c 00       		.uleb128 .LVU515
 20116 102d 00       		.uleb128 .LVU516
 20117 102e 00       		.uleb128 .LVU516
 20118 102f 00       		.uleb128 .LVU517
 20119 1030 00       		.uleb128 .LVU517
 20120 1031 00       		.uleb128 0
ARM GAS  /tmp/cczbsEFl.s 			page 354


 20121              	.LLST22:
 20122 1032 00000000 		.4byte	.LVL221
 20123 1036 2B000000 		.4byte	.LVL222-1
 20124 103a 0100     		.2byte	0x1
 20125 103c 50       		.byte	0x50
 20126 103d 2B000000 		.4byte	.LVL222-1
 20127 1041 2C000000 		.4byte	.LVL222
 20128 1045 0400     		.2byte	0x4
 20129 1047 F3       		.byte	0xf3
 20130 1048 01       		.uleb128 0x1
 20131 1049 50       		.byte	0x50
 20132 104a 9F       		.byte	0x9f
 20133 104b 2C000000 		.4byte	.LVL222
 20134 104f 3D000000 		.4byte	.LVL223-1
 20135 1053 0100     		.2byte	0x1
 20136 1055 50       		.byte	0x50
 20137 1056 3D000000 		.4byte	.LVL223-1
 20138 105a 3E000000 		.4byte	.LVL223
 20139 105e 0400     		.2byte	0x4
 20140 1060 F3       		.byte	0xf3
 20141 1061 01       		.uleb128 0x1
 20142 1062 50       		.byte	0x50
 20143 1063 9F       		.byte	0x9f
 20144 1064 3E000000 		.4byte	.LVL223
 20145 1068 4F000000 		.4byte	.LVL224-1
 20146 106c 0100     		.2byte	0x1
 20147 106e 50       		.byte	0x50
 20148 106f 4F000000 		.4byte	.LVL224-1
 20149 1073 50000000 		.4byte	.LVL224
 20150 1077 0400     		.2byte	0x4
 20151 1079 F3       		.byte	0xf3
 20152 107a 01       		.uleb128 0x1
 20153 107b 50       		.byte	0x50
 20154 107c 9F       		.byte	0x9f
 20155 107d 50000000 		.4byte	.LVL224
 20156 1081 5C000000 		.4byte	.LVL225
 20157 1085 0100     		.2byte	0x1
 20158 1087 50       		.byte	0x50
 20159 1088 5C000000 		.4byte	.LVL225
 20160 108c 62000000 		.4byte	.LVL226
 20161 1090 0400     		.2byte	0x4
 20162 1092 F3       		.byte	0xf3
 20163 1093 01       		.uleb128 0x1
 20164 1094 50       		.byte	0x50
 20165 1095 9F       		.byte	0x9f
 20166 1096 62000000 		.4byte	.LVL226
 20167 109a 65000000 		.4byte	.LVL227-1
 20168 109e 0100     		.2byte	0x1
 20169 10a0 50       		.byte	0x50
 20170 10a1 65000000 		.4byte	.LVL227-1
 20171 10a5 6C000000 		.4byte	.LFE263
 20172 10a9 0400     		.2byte	0x4
 20173 10ab F3       		.byte	0xf3
 20174 10ac 01       		.uleb128 0x1
 20175 10ad 50       		.byte	0x50
 20176 10ae 9F       		.byte	0x9f
 20177 10af 00000000 		.4byte	0
ARM GAS  /tmp/cczbsEFl.s 			page 355


 20178 10b3 00000000 		.4byte	0
 20179              	.LVUS0:
 20180 10b7 00       		.uleb128 0
 20181 10b8 00       		.uleb128 .LVU5
 20182 10b9 00       		.uleb128 .LVU5
 20183 10ba 00       		.uleb128 0
 20184              	.LLST0:
 20185 10bb 00000000 		.4byte	.LVL0
 20186 10bf 0E000000 		.4byte	.LVL1
 20187 10c3 0100     		.2byte	0x1
 20188 10c5 50       		.byte	0x50
 20189 10c6 0E000000 		.4byte	.LVL1
 20190 10ca 54000000 		.4byte	.LFE257
 20191 10ce 0100     		.2byte	0x1
 20192 10d0 54       		.byte	0x54
 20193 10d1 00000000 		.4byte	0
 20194 10d5 00000000 		.4byte	0
 20195              	.LVUS1:
 20196 10d9 01       		.uleb128 .LVU9
 20197 10da 00       		.uleb128 .LVU11
 20198 10db 00       		.uleb128 .LVU11
 20199 10dc 00       		.uleb128 .LVU15
 20200 10dd 00       		.uleb128 .LVU16
 20201 10de 00       		.uleb128 .LVU22
 20202              	.LLST1:
 20203 10df 1A000000 		.4byte	.LVL2
 20204 10e3 1E000000 		.4byte	.LVL3
 20205 10e7 0200     		.2byte	0x2
 20206 10e9 30       		.byte	0x30
 20207 10ea 9F       		.byte	0x9f
 20208 10eb 1E000000 		.4byte	.LVL3
 20209 10ef 36000000 		.4byte	.LVL5
 20210 10f3 0100     		.2byte	0x1
 20211 10f5 50       		.byte	0x50
 20212 10f6 3A000000 		.4byte	.LVL6
 20213 10fa 4F000000 		.4byte	.LVL7-1
 20214 10fe 0100     		.2byte	0x1
 20215 1100 50       		.byte	0x50
 20216 1101 00000000 		.4byte	0
 20217 1105 00000000 		.4byte	0
 20218              	.LVUS2:
 20219 1109 00       		.uleb128 0
 20220 110a 00       		.uleb128 .LVU28
 20221 110b 00       		.uleb128 .LVU28
 20222 110c 00       		.uleb128 .LVU30
 20223 110d 00       		.uleb128 .LVU30
 20224 110e 00       		.uleb128 .LVU31
 20225 110f 00       		.uleb128 .LVU31
 20226 1110 00       		.uleb128 0
 20227              	.LLST2:
 20228 1111 00000000 		.4byte	.LVL8
 20229 1115 1E000000 		.4byte	.LVL9
 20230 1119 0100     		.2byte	0x1
 20231 111b 50       		.byte	0x50
 20232 111c 1E000000 		.4byte	.LVL9
 20233 1120 28000000 		.4byte	.LVL10
 20234 1124 0400     		.2byte	0x4
ARM GAS  /tmp/cczbsEFl.s 			page 356


 20235 1126 F3       		.byte	0xf3
 20236 1127 01       		.uleb128 0x1
 20237 1128 50       		.byte	0x50
 20238 1129 9F       		.byte	0x9f
 20239 112a 28000000 		.4byte	.LVL10
 20240 112e 2B000000 		.4byte	.LVL11-1
 20241 1132 0100     		.2byte	0x1
 20242 1134 50       		.byte	0x50
 20243 1135 2B000000 		.4byte	.LVL11-1
 20244 1139 30000000 		.4byte	.LFE258
 20245 113d 0400     		.2byte	0x4
 20246 113f F3       		.byte	0xf3
 20247 1140 01       		.uleb128 0x1
 20248 1141 50       		.byte	0x50
 20249 1142 9F       		.byte	0x9f
 20250 1143 00000000 		.4byte	0
 20251 1147 00000000 		.4byte	0
 20252              	.LVUS3:
 20253 114b 00       		.uleb128 0
 20254 114c 00       		.uleb128 .LVU36
 20255 114d 00       		.uleb128 .LVU36
 20256 114e 00       		.uleb128 0
 20257              	.LLST3:
 20258 114f 00000000 		.4byte	.LVL12
 20259 1153 0E000000 		.4byte	.LVL13
 20260 1157 0100     		.2byte	0x1
 20261 1159 50       		.byte	0x50
 20262 115a 0E000000 		.4byte	.LVL13
 20263 115e AC000000 		.4byte	.LFE259
 20264 1162 0400     		.2byte	0x4
 20265 1164 F3       		.byte	0xf3
 20266 1165 01       		.uleb128 0x1
 20267 1166 50       		.byte	0x50
 20268 1167 9F       		.byte	0x9f
 20269 1168 00000000 		.4byte	0
 20270 116c 00000000 		.4byte	0
 20271              	.LVUS4:
 20272 1170 01       		.uleb128 .LVU39
 20273 1171 00       		.uleb128 .LVU43
 20274 1172 00       		.uleb128 .LVU43
 20275 1173 00       		.uleb128 .LVU45
 20276 1174 00       		.uleb128 .LVU46
 20277 1175 00       		.uleb128 .LVU48
 20278 1176 00       		.uleb128 .LVU49
 20279 1177 00       		.uleb128 .LVU55
 20280 1178 00       		.uleb128 .LVU73
 20281 1179 00       		.uleb128 .LVU75
 20282              	.LLST4:
 20283 117a 16000000 		.4byte	.LVL14
 20284 117e 1A000000 		.4byte	.LVL15
 20285 1182 0200     		.2byte	0x2
 20286 1184 30       		.byte	0x30
 20287 1185 9F       		.byte	0x9f
 20288 1186 1A000000 		.4byte	.LVL15
 20289 118a 1E000000 		.4byte	.LVL16
 20290 118e 0100     		.2byte	0x1
 20291 1190 50       		.byte	0x50
ARM GAS  /tmp/cczbsEFl.s 			page 357


 20292 1191 2E000000 		.4byte	.LVL17
 20293 1195 34000000 		.4byte	.LVL18
 20294 1199 0100     		.2byte	0x1
 20295 119b 50       		.byte	0x50
 20296 119c 38000000 		.4byte	.LVL19
 20297 11a0 48000000 		.4byte	.LVL21
 20298 11a4 0100     		.2byte	0x1
 20299 11a6 50       		.byte	0x50
 20300 11a7 74000000 		.4byte	.LVL28
 20301 11ab 7A000000 		.4byte	.LVL29
 20302 11af 0100     		.2byte	0x1
 20303 11b1 50       		.byte	0x50
 20304 11b2 00000000 		.4byte	0
 20305 11b6 00000000 		.4byte	0
 20306              	.LVUS5:
 20307 11ba 02       		.uleb128 .LVU40
 20308 11bb 00       		.uleb128 .LVU43
 20309              	.LLST5:
 20310 11bc 16000000 		.4byte	.LVL14
 20311 11c0 1A000000 		.4byte	.LVL15
 20312 11c4 0200     		.2byte	0x2
 20313 11c6 31       		.byte	0x31
 20314 11c7 9F       		.byte	0x9f
 20315 11c8 00000000 		.4byte	0
 20316 11cc 00000000 		.4byte	0
 20317              	.LVUS6:
 20318 11d0 00       		.uleb128 .LVU50
 20319 11d1 00       		.uleb128 .LVU88
 20320              	.LLST6:
 20321 11d2 3E000000 		.4byte	.LVL20
 20322 11d6 A0000000 		.4byte	.LVL36
 20323 11da 0100     		.2byte	0x1
 20324 11dc 55       		.byte	0x55
 20325 11dd 00000000 		.4byte	0
 20326 11e1 00000000 		.4byte	0
 20327              	.LVUS7:
 20328 11e5 00       		.uleb128 .LVU56
 20329 11e6 00       		.uleb128 .LVU62
 20330 11e7 00       		.uleb128 .LVU63
 20331 11e8 00       		.uleb128 .LVU67
 20332 11e9 00       		.uleb128 .LVU68
 20333 11ea 00       		.uleb128 .LVU73
 20334 11eb 00       		.uleb128 .LVU76
 20335 11ec 00       		.uleb128 .LVU81
 20336 11ed 00       		.uleb128 .LVU82
 20337 11ee 00       		.uleb128 .LVU86
 20338 11ef 00       		.uleb128 .LVU87
 20339 11f0 00       		.uleb128 .LVU88
 20340              	.LLST7:
 20341 11f1 4C000000 		.4byte	.LVL22
 20342 11f5 58000000 		.4byte	.LVL24
 20343 11f9 0100     		.2byte	0x1
 20344 11fb 50       		.byte	0x50
 20345 11fc 5C000000 		.4byte	.LVL25
 20346 1200 66000000 		.4byte	.LVL26
 20347 1204 0100     		.2byte	0x1
 20348 1206 50       		.byte	0x50
ARM GAS  /tmp/cczbsEFl.s 			page 358


 20349 1207 6A000000 		.4byte	.LVL27
 20350 120b 74000000 		.4byte	.LVL28
 20351 120f 0100     		.2byte	0x1
 20352 1211 50       		.byte	0x50
 20353 1212 7E000000 		.4byte	.LVL30
 20354 1216 88000000 		.4byte	.LVL32
 20355 121a 0100     		.2byte	0x1
 20356 121c 50       		.byte	0x50
 20357 121d 8C000000 		.4byte	.LVL33
 20358 1221 96000000 		.4byte	.LVL34
 20359 1225 0100     		.2byte	0x1
 20360 1227 50       		.byte	0x50
 20361 1228 9A000000 		.4byte	.LVL35
 20362 122c A0000000 		.4byte	.LVL36
 20363 1230 0100     		.2byte	0x1
 20364 1232 50       		.byte	0x50
 20365 1233 00000000 		.4byte	0
 20366 1237 00000000 		.4byte	0
 20367              	.LVUS8:
 20368 123b 01       		.uleb128 .LVU59
 20369 123c 00       		.uleb128 .LVU63
 20370              	.LLST8:
 20371 123d 52000000 		.4byte	.LVL23
 20372 1241 5C000000 		.4byte	.LVL25
 20373 1245 0200     		.2byte	0x2
 20374 1247 30       		.byte	0x30
 20375 1248 9F       		.byte	0x9f
 20376 1249 00000000 		.4byte	0
 20377 124d 00000000 		.4byte	0
 20378              	.LVUS9:
 20379 1251 01       		.uleb128 .LVU78
 20380 1252 00       		.uleb128 .LVU82
 20381              	.LLST9:
 20382 1253 82000000 		.4byte	.LVL31
 20383 1257 8C000000 		.4byte	.LVL33
 20384 125b 0200     		.2byte	0x2
 20385 125d 30       		.byte	0x30
 20386 125e 9F       		.byte	0x9f
 20387 125f 00000000 		.4byte	0
 20388 1263 00000000 		.4byte	0
 20389              	.LVUS10:
 20390 1267 01       		.uleb128 .LVU94
 20391 1268 00       		.uleb128 .LVU98
 20392 1269 00       		.uleb128 .LVU98
 20393 126a 00       		.uleb128 .LVU100
 20394 126b 00       		.uleb128 .LVU101
 20395 126c 00       		.uleb128 .LVU103
 20396 126d 00       		.uleb128 .LVU104
 20397 126e 00       		.uleb128 .LVU107
 20398 126f 00       		.uleb128 .LVU108
 20399 1270 00       		.uleb128 .LVU111
 20400 1271 00       		.uleb128 .LVU112
 20401 1272 00       		.uleb128 .LVU115
 20402 1273 00       		.uleb128 .LVU116
 20403 1274 00       		.uleb128 .LVU120
 20404              	.LLST10:
 20405 1275 14000000 		.4byte	.LVL38
ARM GAS  /tmp/cczbsEFl.s 			page 359


 20406 1279 18000000 		.4byte	.LVL39
 20407 127d 0200     		.2byte	0x2
 20408 127f 30       		.byte	0x30
 20409 1280 9F       		.byte	0x9f
 20410 1281 18000000 		.4byte	.LVL39
 20411 1285 1A000000 		.4byte	.LVL40
 20412 1289 0100     		.2byte	0x1
 20413 128b 50       		.byte	0x50
 20414 128c 2C000000 		.4byte	.LVL41
 20415 1290 32000000 		.4byte	.LVL42
 20416 1294 0100     		.2byte	0x1
 20417 1296 50       		.byte	0x50
 20418 1297 36000000 		.4byte	.LVL43
 20419 129b 40000000 		.4byte	.LVL44
 20420 129f 0100     		.2byte	0x1
 20421 12a1 50       		.byte	0x50
 20422 12a2 44000000 		.4byte	.LVL45
 20423 12a6 4E000000 		.4byte	.LVL46
 20424 12aa 0100     		.2byte	0x1
 20425 12ac 50       		.byte	0x50
 20426 12ad 52000000 		.4byte	.LVL47
 20427 12b1 5C000000 		.4byte	.LVL48
 20428 12b5 0100     		.2byte	0x1
 20429 12b7 50       		.byte	0x50
 20430 12b8 60000000 		.4byte	.LVL49
 20431 12bc 6A000000 		.4byte	.LVL50
 20432 12c0 0100     		.2byte	0x1
 20433 12c2 50       		.byte	0x50
 20434 12c3 00000000 		.4byte	0
 20435 12c7 00000000 		.4byte	0
 20436              	.LVUS11:
 20437 12cb 02       		.uleb128 .LVU95
 20438 12cc 00       		.uleb128 .LVU98
 20439              	.LLST11:
 20440 12cd 14000000 		.4byte	.LVL38
 20441 12d1 18000000 		.4byte	.LVL39
 20442 12d5 0200     		.2byte	0x2
 20443 12d7 30       		.byte	0x30
 20444 12d8 9F       		.byte	0x9f
 20445 12d9 00000000 		.4byte	0
 20446 12dd 00000000 		.4byte	0
 20447              	.LVUS12:
 20448 12e1 00       		.uleb128 .LVU121
 20449 12e2 00       		.uleb128 .LVU124
 20450 12e3 00       		.uleb128 .LVU125
 20451 12e4 00       		.uleb128 .LVU128
 20452 12e5 00       		.uleb128 .LVU129
 20453 12e6 00       		.uleb128 .LVU132
 20454 12e7 00       		.uleb128 .LVU133
 20455 12e8 00       		.uleb128 .LVU136
 20456 12e9 00       		.uleb128 .LVU137
 20457 12ea 00       		.uleb128 .LVU140
 20458 12eb 00       		.uleb128 .LVU141
 20459 12ec 00       		.uleb128 .LVU144
 20460 12ed 00       		.uleb128 .LVU145
 20461 12ee 00       		.uleb128 .LVU148
 20462 12ef 00       		.uleb128 .LVU149
ARM GAS  /tmp/cczbsEFl.s 			page 360


 20463 12f0 00       		.uleb128 .LVU152
 20464 12f1 00       		.uleb128 .LVU153
 20465 12f2 00       		.uleb128 .LVU156
 20466 12f3 00       		.uleb128 .LVU157
 20467 12f4 00       		.uleb128 .LVU160
 20468 12f5 00       		.uleb128 .LVU161
 20469 12f6 00       		.uleb128 .LVU164
 20470 12f7 00       		.uleb128 .LVU165
 20471 12f8 00       		.uleb128 .LVU168
 20472 12f9 00       		.uleb128 .LVU169
 20473 12fa 00       		.uleb128 .LVU172
 20474 12fb 00       		.uleb128 .LVU173
 20475 12fc 00       		.uleb128 .LVU176
 20476 12fd 00       		.uleb128 .LVU177
 20477 12fe 00       		.uleb128 .LVU180
 20478 12ff 00       		.uleb128 .LVU181
 20479 1300 00       		.uleb128 .LVU184
 20480 1301 00       		.uleb128 .LVU185
 20481 1302 00       		.uleb128 .LVU188
 20482 1303 00       		.uleb128 .LVU189
 20483 1304 00       		.uleb128 .LVU192
 20484 1305 00       		.uleb128 .LVU193
 20485 1306 00       		.uleb128 .LVU196
 20486 1307 00       		.uleb128 .LVU197
 20487 1308 00       		.uleb128 .LVU202
 20488 1309 00       		.uleb128 .LVU203
 20489 130a 00       		.uleb128 .LVU207
 20490 130b 00       		.uleb128 .LVU208
 20491 130c 00       		.uleb128 .LVU211
 20492 130d 00       		.uleb128 .LVU212
 20493 130e 00       		.uleb128 .LVU222
 20494              	.LLST12:
 20495 130f 6E000000 		.4byte	.LVL51
 20496 1313 78000000 		.4byte	.LVL52
 20497 1317 0100     		.2byte	0x1
 20498 1319 50       		.byte	0x50
 20499 131a 7C000000 		.4byte	.LVL53
 20500 131e 86000000 		.4byte	.LVL54
 20501 1322 0100     		.2byte	0x1
 20502 1324 50       		.byte	0x50
 20503 1325 8A000000 		.4byte	.LVL55
 20504 1329 94000000 		.4byte	.LVL56
 20505 132d 0100     		.2byte	0x1
 20506 132f 50       		.byte	0x50
 20507 1330 98000000 		.4byte	.LVL57
 20508 1334 A2000000 		.4byte	.LVL58
 20509 1338 0100     		.2byte	0x1
 20510 133a 50       		.byte	0x50
 20511 133b A6000000 		.4byte	.LVL59
 20512 133f B0000000 		.4byte	.LVL60
 20513 1343 0100     		.2byte	0x1
 20514 1345 50       		.byte	0x50
 20515 1346 B4000000 		.4byte	.LVL61
 20516 134a BE000000 		.4byte	.LVL62
 20517 134e 0100     		.2byte	0x1
 20518 1350 50       		.byte	0x50
 20519 1351 C2000000 		.4byte	.LVL63
ARM GAS  /tmp/cczbsEFl.s 			page 361


 20520 1355 CC000000 		.4byte	.LVL64
 20521 1359 0100     		.2byte	0x1
 20522 135b 50       		.byte	0x50
 20523 135c D0000000 		.4byte	.LVL65
 20524 1360 DA000000 		.4byte	.LVL66
 20525 1364 0100     		.2byte	0x1
 20526 1366 50       		.byte	0x50
 20527 1367 DE000000 		.4byte	.LVL67
 20528 136b E8000000 		.4byte	.LVL68
 20529 136f 0100     		.2byte	0x1
 20530 1371 50       		.byte	0x50
 20531 1372 EC000000 		.4byte	.LVL69
 20532 1376 F6000000 		.4byte	.LVL70
 20533 137a 0100     		.2byte	0x1
 20534 137c 50       		.byte	0x50
 20535 137d FA000000 		.4byte	.LVL71
 20536 1381 04010000 		.4byte	.LVL72
 20537 1385 0100     		.2byte	0x1
 20538 1387 50       		.byte	0x50
 20539 1388 08010000 		.4byte	.LVL73
 20540 138c 12010000 		.4byte	.LVL74
 20541 1390 0100     		.2byte	0x1
 20542 1392 50       		.byte	0x50
 20543 1393 16010000 		.4byte	.LVL75
 20544 1397 22010000 		.4byte	.LVL76
 20545 139b 0100     		.2byte	0x1
 20546 139d 50       		.byte	0x50
 20547 139e 26010000 		.4byte	.LVL77
 20548 13a2 32010000 		.4byte	.LVL78
 20549 13a6 0100     		.2byte	0x1
 20550 13a8 50       		.byte	0x50
 20551 13a9 36010000 		.4byte	.LVL79
 20552 13ad 42010000 		.4byte	.LVL80
 20553 13b1 0100     		.2byte	0x1
 20554 13b3 50       		.byte	0x50
 20555 13b4 46010000 		.4byte	.LVL81
 20556 13b8 52010000 		.4byte	.LVL82
 20557 13bc 0100     		.2byte	0x1
 20558 13be 50       		.byte	0x50
 20559 13bf 56010000 		.4byte	.LVL83
 20560 13c3 62010000 		.4byte	.LVL84
 20561 13c7 0100     		.2byte	0x1
 20562 13c9 50       		.byte	0x50
 20563 13ca 66010000 		.4byte	.LVL85
 20564 13ce 72010000 		.4byte	.LVL86
 20565 13d2 0100     		.2byte	0x1
 20566 13d4 50       		.byte	0x50
 20567 13d5 76010000 		.4byte	.LVL87
 20568 13d9 82010000 		.4byte	.LVL88
 20569 13dd 0100     		.2byte	0x1
 20570 13df 50       		.byte	0x50
 20571 13e0 86010000 		.4byte	.LVL89
 20572 13e4 92010000 		.4byte	.LVL91
 20573 13e8 0100     		.2byte	0x1
 20574 13ea 50       		.byte	0x50
 20575 13eb 96010000 		.4byte	.LVL92
 20576 13ef A2010000 		.4byte	.LVL93
ARM GAS  /tmp/cczbsEFl.s 			page 362


 20577 13f3 0100     		.2byte	0x1
 20578 13f5 50       		.byte	0x50
 20579 13f6 A6010000 		.4byte	.LVL94
 20580 13fa B2010000 		.4byte	.LVL95
 20581 13fe 0100     		.2byte	0x1
 20582 1400 50       		.byte	0x50
 20583 1401 B6010000 		.4byte	.LVL96
 20584 1405 CA010000 		.4byte	.LVL97
 20585 1409 0100     		.2byte	0x1
 20586 140b 50       		.byte	0x50
 20587 140c 00000000 		.4byte	0
 20588 1410 00000000 		.4byte	0
 20589              	.LVUS13:
 20590 1414 01       		.uleb128 .LVU199
 20591 1415 00       		.uleb128 .LVU203
 20592              	.LLST13:
 20593 1416 8C010000 		.4byte	.LVL90
 20594 141a 96010000 		.4byte	.LVL92
 20595 141e 0200     		.2byte	0x2
 20596 1420 31       		.byte	0x31
 20597 1421 9F       		.byte	0x9f
 20598 1422 00000000 		.4byte	0
 20599 1426 00000000 		.4byte	0
 20600              	.LVUS14:
 20601 142a 01       		.uleb128 .LVU228
 20602 142b 00       		.uleb128 .LVU232
 20603 142c 00       		.uleb128 .LVU232
 20604 142d 00       		.uleb128 .LVU234
 20605 142e 00       		.uleb128 .LVU235
 20606 142f 00       		.uleb128 .LVU237
 20607 1430 00       		.uleb128 .LVU238
 20608 1431 00       		.uleb128 .LVU241
 20609 1432 00       		.uleb128 .LVU242
 20610 1433 00       		.uleb128 .LVU245
 20611 1434 00       		.uleb128 .LVU246
 20612 1435 00       		.uleb128 .LVU249
 20613 1436 00       		.uleb128 .LVU250
 20614 1437 00       		.uleb128 .LVU254
 20615              	.LLST14:
 20616 1438 14000000 		.4byte	.LVL99
 20617 143c 18000000 		.4byte	.LVL100
 20618 1440 0200     		.2byte	0x2
 20619 1442 30       		.byte	0x30
 20620 1443 9F       		.byte	0x9f
 20621 1444 18000000 		.4byte	.LVL100
 20622 1448 1A000000 		.4byte	.LVL101
 20623 144c 0100     		.2byte	0x1
 20624 144e 50       		.byte	0x50
 20625 144f 2C000000 		.4byte	.LVL102
 20626 1453 32000000 		.4byte	.LVL103
 20627 1457 0100     		.2byte	0x1
 20628 1459 50       		.byte	0x50
 20629 145a 36000000 		.4byte	.LVL104
 20630 145e 40000000 		.4byte	.LVL105
 20631 1462 0100     		.2byte	0x1
 20632 1464 50       		.byte	0x50
 20633 1465 44000000 		.4byte	.LVL106
ARM GAS  /tmp/cczbsEFl.s 			page 363


 20634 1469 4E000000 		.4byte	.LVL107
 20635 146d 0100     		.2byte	0x1
 20636 146f 50       		.byte	0x50
 20637 1470 52000000 		.4byte	.LVL108
 20638 1474 5C000000 		.4byte	.LVL109
 20639 1478 0100     		.2byte	0x1
 20640 147a 50       		.byte	0x50
 20641 147b 60000000 		.4byte	.LVL110
 20642 147f 6A000000 		.4byte	.LVL111
 20643 1483 0100     		.2byte	0x1
 20644 1485 50       		.byte	0x50
 20645 1486 00000000 		.4byte	0
 20646 148a 00000000 		.4byte	0
 20647              	.LVUS15:
 20648 148e 02       		.uleb128 .LVU229
 20649 148f 00       		.uleb128 .LVU232
 20650              	.LLST15:
 20651 1490 14000000 		.4byte	.LVL99
 20652 1494 18000000 		.4byte	.LVL100
 20653 1498 0200     		.2byte	0x2
 20654 149a 30       		.byte	0x30
 20655 149b 9F       		.byte	0x9f
 20656 149c 00000000 		.4byte	0
 20657 14a0 00000000 		.4byte	0
 20658              	.LVUS16:
 20659 14a4 00       		.uleb128 .LVU255
 20660 14a5 00       		.uleb128 .LVU258
 20661 14a6 00       		.uleb128 .LVU259
 20662 14a7 00       		.uleb128 .LVU262
 20663 14a8 00       		.uleb128 .LVU263
 20664 14a9 00       		.uleb128 .LVU266
 20665 14aa 00       		.uleb128 .LVU267
 20666 14ab 00       		.uleb128 .LVU270
 20667 14ac 00       		.uleb128 .LVU271
 20668 14ad 00       		.uleb128 .LVU274
 20669 14ae 00       		.uleb128 .LVU275
 20670 14af 00       		.uleb128 .LVU278
 20671 14b0 00       		.uleb128 .LVU279
 20672 14b1 00       		.uleb128 .LVU282
 20673 14b2 00       		.uleb128 .LVU283
 20674 14b3 00       		.uleb128 .LVU286
 20675 14b4 00       		.uleb128 .LVU287
 20676 14b5 00       		.uleb128 .LVU290
 20677 14b6 00       		.uleb128 .LVU291
 20678 14b7 00       		.uleb128 .LVU294
 20679 14b8 00       		.uleb128 .LVU295
 20680 14b9 00       		.uleb128 .LVU298
 20681 14ba 00       		.uleb128 .LVU299
 20682 14bb 00       		.uleb128 .LVU302
 20683 14bc 00       		.uleb128 .LVU303
 20684 14bd 00       		.uleb128 .LVU306
 20685 14be 00       		.uleb128 .LVU307
 20686 14bf 00       		.uleb128 .LVU310
 20687 14c0 00       		.uleb128 .LVU311
 20688 14c1 00       		.uleb128 .LVU314
 20689 14c2 00       		.uleb128 .LVU315
 20690 14c3 00       		.uleb128 .LVU318
ARM GAS  /tmp/cczbsEFl.s 			page 364


 20691 14c4 00       		.uleb128 .LVU319
 20692 14c5 00       		.uleb128 .LVU322
 20693 14c6 00       		.uleb128 .LVU323
 20694 14c7 00       		.uleb128 .LVU326
 20695 14c8 00       		.uleb128 .LVU327
 20696 14c9 00       		.uleb128 .LVU330
 20697 14ca 00       		.uleb128 .LVU331
 20698 14cb 00       		.uleb128 .LVU336
 20699 14cc 00       		.uleb128 .LVU337
 20700 14cd 00       		.uleb128 .LVU341
 20701 14ce 00       		.uleb128 .LVU342
 20702 14cf 00       		.uleb128 .LVU345
 20703 14d0 00       		.uleb128 .LVU346
 20704 14d1 00       		.uleb128 .LVU356
 20705              	.LLST16:
 20706 14d2 6E000000 		.4byte	.LVL112
 20707 14d6 78000000 		.4byte	.LVL113
 20708 14da 0100     		.2byte	0x1
 20709 14dc 50       		.byte	0x50
 20710 14dd 7C000000 		.4byte	.LVL114
 20711 14e1 86000000 		.4byte	.LVL115
 20712 14e5 0100     		.2byte	0x1
 20713 14e7 50       		.byte	0x50
 20714 14e8 8A000000 		.4byte	.LVL116
 20715 14ec 94000000 		.4byte	.LVL117
 20716 14f0 0100     		.2byte	0x1
 20717 14f2 50       		.byte	0x50
 20718 14f3 98000000 		.4byte	.LVL118
 20719 14f7 A2000000 		.4byte	.LVL119
 20720 14fb 0100     		.2byte	0x1
 20721 14fd 50       		.byte	0x50
 20722 14fe A6000000 		.4byte	.LVL120
 20723 1502 B0000000 		.4byte	.LVL121
 20724 1506 0100     		.2byte	0x1
 20725 1508 50       		.byte	0x50
 20726 1509 B4000000 		.4byte	.LVL122
 20727 150d BE000000 		.4byte	.LVL123
 20728 1511 0100     		.2byte	0x1
 20729 1513 50       		.byte	0x50
 20730 1514 C2000000 		.4byte	.LVL124
 20731 1518 CC000000 		.4byte	.LVL125
 20732 151c 0100     		.2byte	0x1
 20733 151e 50       		.byte	0x50
 20734 151f D0000000 		.4byte	.LVL126
 20735 1523 DA000000 		.4byte	.LVL127
 20736 1527 0100     		.2byte	0x1
 20737 1529 50       		.byte	0x50
 20738 152a DE000000 		.4byte	.LVL128
 20739 152e E8000000 		.4byte	.LVL129
 20740 1532 0100     		.2byte	0x1
 20741 1534 50       		.byte	0x50
 20742 1535 EC000000 		.4byte	.LVL130
 20743 1539 F6000000 		.4byte	.LVL131
 20744 153d 0100     		.2byte	0x1
 20745 153f 50       		.byte	0x50
 20746 1540 FA000000 		.4byte	.LVL132
 20747 1544 04010000 		.4byte	.LVL133
ARM GAS  /tmp/cczbsEFl.s 			page 365


 20748 1548 0100     		.2byte	0x1
 20749 154a 50       		.byte	0x50
 20750 154b 08010000 		.4byte	.LVL134
 20751 154f 12010000 		.4byte	.LVL135
 20752 1553 0100     		.2byte	0x1
 20753 1555 50       		.byte	0x50
 20754 1556 16010000 		.4byte	.LVL136
 20755 155a 22010000 		.4byte	.LVL137
 20756 155e 0100     		.2byte	0x1
 20757 1560 50       		.byte	0x50
 20758 1561 26010000 		.4byte	.LVL138
 20759 1565 32010000 		.4byte	.LVL139
 20760 1569 0100     		.2byte	0x1
 20761 156b 50       		.byte	0x50
 20762 156c 36010000 		.4byte	.LVL140
 20763 1570 42010000 		.4byte	.LVL141
 20764 1574 0100     		.2byte	0x1
 20765 1576 50       		.byte	0x50
 20766 1577 46010000 		.4byte	.LVL142
 20767 157b 52010000 		.4byte	.LVL143
 20768 157f 0100     		.2byte	0x1
 20769 1581 50       		.byte	0x50
 20770 1582 56010000 		.4byte	.LVL144
 20771 1586 62010000 		.4byte	.LVL145
 20772 158a 0100     		.2byte	0x1
 20773 158c 50       		.byte	0x50
 20774 158d 66010000 		.4byte	.LVL146
 20775 1591 72010000 		.4byte	.LVL147
 20776 1595 0100     		.2byte	0x1
 20777 1597 50       		.byte	0x50
 20778 1598 76010000 		.4byte	.LVL148
 20779 159c 82010000 		.4byte	.LVL149
 20780 15a0 0100     		.2byte	0x1
 20781 15a2 50       		.byte	0x50
 20782 15a3 86010000 		.4byte	.LVL150
 20783 15a7 92010000 		.4byte	.LVL152
 20784 15ab 0100     		.2byte	0x1
 20785 15ad 50       		.byte	0x50
 20786 15ae 96010000 		.4byte	.LVL153
 20787 15b2 A2010000 		.4byte	.LVL154
 20788 15b6 0100     		.2byte	0x1
 20789 15b8 50       		.byte	0x50
 20790 15b9 A6010000 		.4byte	.LVL155
 20791 15bd B2010000 		.4byte	.LVL156
 20792 15c1 0100     		.2byte	0x1
 20793 15c3 50       		.byte	0x50
 20794 15c4 B6010000 		.4byte	.LVL157
 20795 15c8 CA010000 		.4byte	.LVL158
 20796 15cc 0100     		.2byte	0x1
 20797 15ce 50       		.byte	0x50
 20798 15cf 00000000 		.4byte	0
 20799 15d3 00000000 		.4byte	0
 20800              	.LVUS17:
 20801 15d7 01       		.uleb128 .LVU333
 20802 15d8 00       		.uleb128 .LVU337
 20803              	.LLST17:
 20804 15d9 8C010000 		.4byte	.LVL151
ARM GAS  /tmp/cczbsEFl.s 			page 366


 20805 15dd 96010000 		.4byte	.LVL153
 20806 15e1 0200     		.2byte	0x2
 20807 15e3 31       		.byte	0x31
 20808 15e4 9F       		.byte	0x9f
 20809 15e5 00000000 		.4byte	0
 20810 15e9 00000000 		.4byte	0
 20811              	.LVUS18:
 20812 15ed 01       		.uleb128 .LVU362
 20813 15ee 00       		.uleb128 .LVU366
 20814 15ef 00       		.uleb128 .LVU366
 20815 15f0 00       		.uleb128 .LVU368
 20816 15f1 00       		.uleb128 .LVU369
 20817 15f2 00       		.uleb128 .LVU371
 20818 15f3 00       		.uleb128 .LVU372
 20819 15f4 00       		.uleb128 .LVU375
 20820 15f5 00       		.uleb128 .LVU376
 20821 15f6 00       		.uleb128 .LVU379
 20822 15f7 00       		.uleb128 .LVU380
 20823 15f8 00       		.uleb128 .LVU383
 20824 15f9 00       		.uleb128 .LVU384
 20825 15fa 00       		.uleb128 .LVU388
 20826              	.LLST18:
 20827 15fb 14000000 		.4byte	.LVL160
 20828 15ff 18000000 		.4byte	.LVL161
 20829 1603 0200     		.2byte	0x2
 20830 1605 30       		.byte	0x30
 20831 1606 9F       		.byte	0x9f
 20832 1607 18000000 		.4byte	.LVL161
 20833 160b 1A000000 		.4byte	.LVL162
 20834 160f 0100     		.2byte	0x1
 20835 1611 50       		.byte	0x50
 20836 1612 2C000000 		.4byte	.LVL163
 20837 1616 32000000 		.4byte	.LVL164
 20838 161a 0100     		.2byte	0x1
 20839 161c 50       		.byte	0x50
 20840 161d 36000000 		.4byte	.LVL165
 20841 1621 40000000 		.4byte	.LVL166
 20842 1625 0100     		.2byte	0x1
 20843 1627 50       		.byte	0x50
 20844 1628 44000000 		.4byte	.LVL167
 20845 162c 4E000000 		.4byte	.LVL168
 20846 1630 0100     		.2byte	0x1
 20847 1632 50       		.byte	0x50
 20848 1633 52000000 		.4byte	.LVL169
 20849 1637 5C000000 		.4byte	.LVL170
 20850 163b 0100     		.2byte	0x1
 20851 163d 50       		.byte	0x50
 20852 163e 60000000 		.4byte	.LVL171
 20853 1642 6A000000 		.4byte	.LVL172
 20854 1646 0100     		.2byte	0x1
 20855 1648 50       		.byte	0x50
 20856 1649 00000000 		.4byte	0
 20857 164d 00000000 		.4byte	0
 20858              	.LVUS19:
 20859 1651 02       		.uleb128 .LVU363
 20860 1652 00       		.uleb128 .LVU366
 20861              	.LLST19:
ARM GAS  /tmp/cczbsEFl.s 			page 367


 20862 1653 14000000 		.4byte	.LVL160
 20863 1657 18000000 		.4byte	.LVL161
 20864 165b 0200     		.2byte	0x2
 20865 165d 30       		.byte	0x30
 20866 165e 9F       		.byte	0x9f
 20867 165f 00000000 		.4byte	0
 20868 1663 00000000 		.4byte	0
 20869              	.LVUS20:
 20870 1667 00       		.uleb128 .LVU389
 20871 1668 00       		.uleb128 .LVU392
 20872 1669 00       		.uleb128 .LVU393
 20873 166a 00       		.uleb128 .LVU396
 20874 166b 00       		.uleb128 .LVU397
 20875 166c 00       		.uleb128 .LVU400
 20876 166d 00       		.uleb128 .LVU401
 20877 166e 00       		.uleb128 .LVU404
 20878 166f 00       		.uleb128 .LVU405
 20879 1670 00       		.uleb128 .LVU408
 20880 1671 00       		.uleb128 .LVU409
 20881 1672 00       		.uleb128 .LVU412
 20882 1673 00       		.uleb128 .LVU413
 20883 1674 00       		.uleb128 .LVU416
 20884 1675 00       		.uleb128 .LVU417
 20885 1676 00       		.uleb128 .LVU420
 20886 1677 00       		.uleb128 .LVU421
 20887 1678 00       		.uleb128 .LVU424
 20888 1679 00       		.uleb128 .LVU425
 20889 167a 00       		.uleb128 .LVU428
 20890 167b 00       		.uleb128 .LVU429
 20891 167c 00       		.uleb128 .LVU432
 20892 167d 00       		.uleb128 .LVU433
 20893 167e 00       		.uleb128 .LVU436
 20894 167f 00       		.uleb128 .LVU437
 20895 1680 00       		.uleb128 .LVU440
 20896 1681 00       		.uleb128 .LVU441
 20897 1682 00       		.uleb128 .LVU444
 20898 1683 00       		.uleb128 .LVU445
 20899 1684 00       		.uleb128 .LVU448
 20900 1685 00       		.uleb128 .LVU449
 20901 1686 00       		.uleb128 .LVU452
 20902 1687 00       		.uleb128 .LVU453
 20903 1688 00       		.uleb128 .LVU456
 20904 1689 00       		.uleb128 .LVU457
 20905 168a 00       		.uleb128 .LVU460
 20906 168b 00       		.uleb128 .LVU461
 20907 168c 00       		.uleb128 .LVU464
 20908 168d 00       		.uleb128 .LVU465
 20909 168e 00       		.uleb128 .LVU470
 20910 168f 00       		.uleb128 .LVU471
 20911 1690 00       		.uleb128 .LVU475
 20912 1691 00       		.uleb128 .LVU476
 20913 1692 00       		.uleb128 .LVU479
 20914 1693 00       		.uleb128 .LVU480
 20915 1694 00       		.uleb128 .LVU490
 20916              	.LLST20:
 20917 1695 6E000000 		.4byte	.LVL173
 20918 1699 78000000 		.4byte	.LVL174
ARM GAS  /tmp/cczbsEFl.s 			page 368


 20919 169d 0100     		.2byte	0x1
 20920 169f 50       		.byte	0x50
 20921 16a0 7C000000 		.4byte	.LVL175
 20922 16a4 86000000 		.4byte	.LVL176
 20923 16a8 0100     		.2byte	0x1
 20924 16aa 50       		.byte	0x50
 20925 16ab 8A000000 		.4byte	.LVL177
 20926 16af 94000000 		.4byte	.LVL178
 20927 16b3 0100     		.2byte	0x1
 20928 16b5 50       		.byte	0x50
 20929 16b6 98000000 		.4byte	.LVL179
 20930 16ba A2000000 		.4byte	.LVL180
 20931 16be 0100     		.2byte	0x1
 20932 16c0 50       		.byte	0x50
 20933 16c1 A6000000 		.4byte	.LVL181
 20934 16c5 B0000000 		.4byte	.LVL182
 20935 16c9 0100     		.2byte	0x1
 20936 16cb 50       		.byte	0x50
 20937 16cc B4000000 		.4byte	.LVL183
 20938 16d0 BE000000 		.4byte	.LVL184
 20939 16d4 0100     		.2byte	0x1
 20940 16d6 50       		.byte	0x50
 20941 16d7 C2000000 		.4byte	.LVL185
 20942 16db CC000000 		.4byte	.LVL186
 20943 16df 0100     		.2byte	0x1
 20944 16e1 50       		.byte	0x50
 20945 16e2 D0000000 		.4byte	.LVL187
 20946 16e6 DA000000 		.4byte	.LVL188
 20947 16ea 0100     		.2byte	0x1
 20948 16ec 50       		.byte	0x50
 20949 16ed DE000000 		.4byte	.LVL189
 20950 16f1 E8000000 		.4byte	.LVL190
 20951 16f5 0100     		.2byte	0x1
 20952 16f7 50       		.byte	0x50
 20953 16f8 EC000000 		.4byte	.LVL191
 20954 16fc F6000000 		.4byte	.LVL192
 20955 1700 0100     		.2byte	0x1
 20956 1702 50       		.byte	0x50
 20957 1703 FA000000 		.4byte	.LVL193
 20958 1707 04010000 		.4byte	.LVL194
 20959 170b 0100     		.2byte	0x1
 20960 170d 50       		.byte	0x50
 20961 170e 08010000 		.4byte	.LVL195
 20962 1712 12010000 		.4byte	.LVL196
 20963 1716 0100     		.2byte	0x1
 20964 1718 50       		.byte	0x50
 20965 1719 16010000 		.4byte	.LVL197
 20966 171d 22010000 		.4byte	.LVL198
 20967 1721 0100     		.2byte	0x1
 20968 1723 50       		.byte	0x50
 20969 1724 26010000 		.4byte	.LVL199
 20970 1728 32010000 		.4byte	.LVL200
 20971 172c 0100     		.2byte	0x1
 20972 172e 50       		.byte	0x50
 20973 172f 36010000 		.4byte	.LVL201
 20974 1733 42010000 		.4byte	.LVL202
 20975 1737 0100     		.2byte	0x1
ARM GAS  /tmp/cczbsEFl.s 			page 369


 20976 1739 50       		.byte	0x50
 20977 173a 46010000 		.4byte	.LVL203
 20978 173e 52010000 		.4byte	.LVL204
 20979 1742 0100     		.2byte	0x1
 20980 1744 50       		.byte	0x50
 20981 1745 56010000 		.4byte	.LVL205
 20982 1749 62010000 		.4byte	.LVL206
 20983 174d 0100     		.2byte	0x1
 20984 174f 50       		.byte	0x50
 20985 1750 66010000 		.4byte	.LVL207
 20986 1754 72010000 		.4byte	.LVL208
 20987 1758 0100     		.2byte	0x1
 20988 175a 50       		.byte	0x50
 20989 175b 76010000 		.4byte	.LVL209
 20990 175f 82010000 		.4byte	.LVL210
 20991 1763 0100     		.2byte	0x1
 20992 1765 50       		.byte	0x50
 20993 1766 86010000 		.4byte	.LVL211
 20994 176a 92010000 		.4byte	.LVL213
 20995 176e 0100     		.2byte	0x1
 20996 1770 50       		.byte	0x50
 20997 1771 96010000 		.4byte	.LVL214
 20998 1775 A2010000 		.4byte	.LVL215
 20999 1779 0100     		.2byte	0x1
 21000 177b 50       		.byte	0x50
 21001 177c A6010000 		.4byte	.LVL216
 21002 1780 B2010000 		.4byte	.LVL217
 21003 1784 0100     		.2byte	0x1
 21004 1786 50       		.byte	0x50
 21005 1787 B6010000 		.4byte	.LVL218
 21006 178b CA010000 		.4byte	.LVL219
 21007 178f 0100     		.2byte	0x1
 21008 1791 50       		.byte	0x50
 21009 1792 00000000 		.4byte	0
 21010 1796 00000000 		.4byte	0
 21011              	.LVUS21:
 21012 179a 01       		.uleb128 .LVU467
 21013 179b 00       		.uleb128 .LVU471
 21014              	.LLST21:
 21015 179c 8C010000 		.4byte	.LVL212
 21016 17a0 96010000 		.4byte	.LVL214
 21017 17a4 0200     		.2byte	0x2
 21018 17a6 31       		.byte	0x31
 21019 17a7 9F       		.byte	0x9f
 21020 17a8 00000000 		.4byte	0
 21021 17ac 00000000 		.4byte	0
 21022              	.LVUS23:
 21023 17b0 00       		.uleb128 0
 21024 17b1 00       		.uleb128 .LVU523
 21025 17b2 00       		.uleb128 .LVU523
 21026 17b3 00       		.uleb128 0
 21027              	.LLST23:
 21028 17b4 00000000 		.4byte	.LVL228
 21029 17b8 10000000 		.4byte	.LVL230
 21030 17bc 0100     		.2byte	0x1
 21031 17be 50       		.byte	0x50
 21032 17bf 10000000 		.4byte	.LVL230
ARM GAS  /tmp/cczbsEFl.s 			page 370


 21033 17c3 0C010000 		.4byte	.LFE264
 21034 17c7 0400     		.2byte	0x4
 21035 17c9 F3       		.byte	0xf3
 21036 17ca 01       		.uleb128 0x1
 21037 17cb 50       		.byte	0x50
 21038 17cc 9F       		.byte	0x9f
 21039 17cd 00000000 		.4byte	0
 21040 17d1 00000000 		.4byte	0
 21041              	.LVUS24:
 21042 17d5 00       		.uleb128 0
 21043 17d6 00       		.uleb128 .LVU522
 21044 17d7 00       		.uleb128 .LVU522
 21045 17d8 00       		.uleb128 0
 21046              	.LLST24:
 21047 17d9 00000000 		.4byte	.LVL228
 21048 17dd 0E000000 		.4byte	.LVL229
 21049 17e1 0100     		.2byte	0x1
 21050 17e3 51       		.byte	0x51
 21051 17e4 0E000000 		.4byte	.LVL229
 21052 17e8 0C010000 		.4byte	.LFE264
 21053 17ec 0400     		.2byte	0x4
 21054 17ee F3       		.byte	0xf3
 21055 17ef 01       		.uleb128 0x1
 21056 17f0 51       		.byte	0x51
 21057 17f1 9F       		.byte	0x9f
 21058 17f2 00000000 		.4byte	0
 21059 17f6 00000000 		.4byte	0
 21060              	.LVUS25:
 21061 17fa 01       		.uleb128 .LVU526
 21062 17fb 00       		.uleb128 .LVU530
 21063 17fc 00       		.uleb128 .LVU530
 21064 17fd 00       		.uleb128 .LVU536
 21065 17fe 00       		.uleb128 .LVU538
 21066 17ff 00       		.uleb128 .LVU541
 21067 1800 00       		.uleb128 .LVU545
 21068 1801 00       		.uleb128 .LVU547
 21069 1802 00       		.uleb128 .LVU555
 21070 1803 00       		.uleb128 .LVU557
 21071 1804 00       		.uleb128 .LVU561
 21072 1805 00       		.uleb128 .LVU563
 21073 1806 00       		.uleb128 .LVU569
 21074 1807 00       		.uleb128 .LVU571
 21075 1808 00       		.uleb128 .LVU575
 21076 1809 00       		.uleb128 .LVU577
 21077              	.LLST25:
 21078 180a 18000000 		.4byte	.LVL231
 21079 180e 1C000000 		.4byte	.LVL232
 21080 1812 0200     		.2byte	0x2
 21081 1814 30       		.byte	0x30
 21082 1815 9F       		.byte	0x9f
 21083 1816 1C000000 		.4byte	.LVL232
 21084 181a 2C000000 		.4byte	.LVL234
 21085 181e 0100     		.2byte	0x1
 21086 1820 50       		.byte	0x50
 21087 1821 3A000000 		.4byte	.LVL235
 21088 1825 4C000000 		.4byte	.LVL236
 21089 1829 0100     		.2byte	0x1
ARM GAS  /tmp/cczbsEFl.s 			page 371


 21090 182b 50       		.byte	0x50
 21091 182c 64000000 		.4byte	.LVL238
 21092 1830 6A000000 		.4byte	.LVL239
 21093 1834 0100     		.2byte	0x1
 21094 1836 50       		.byte	0x50
 21095 1837 8E000000 		.4byte	.LVL243
 21096 183b 94000000 		.4byte	.LVL244
 21097 183f 0100     		.2byte	0x1
 21098 1841 50       		.byte	0x50
 21099 1842 AC000000 		.4byte	.LVL246
 21100 1846 B2000000 		.4byte	.LVL247
 21101 184a 0100     		.2byte	0x1
 21102 184c 50       		.byte	0x50
 21103 184d CC000000 		.4byte	.LVL250
 21104 1851 D2000000 		.4byte	.LVL251
 21105 1855 0100     		.2byte	0x1
 21106 1857 50       		.byte	0x50
 21107 1858 EA000000 		.4byte	.LVL253
 21108 185c F0000000 		.4byte	.LVL254
 21109 1860 0100     		.2byte	0x1
 21110 1862 50       		.byte	0x50
 21111 1863 00000000 		.4byte	0
 21112 1867 00000000 		.4byte	0
 21113              	.LVUS26:
 21114 186b 02       		.uleb128 .LVU527
 21115 186c 00       		.uleb128 .LVU530
 21116              	.LLST26:
 21117 186d 18000000 		.4byte	.LVL231
 21118 1871 1C000000 		.4byte	.LVL232
 21119 1875 0200     		.2byte	0x2
 21120 1877 31       		.byte	0x31
 21121 1878 9F       		.byte	0x9f
 21122 1879 00000000 		.4byte	0
 21123 187d 00000000 		.4byte	0
 21124              	.LVUS27:
 21125 1881 00       		.uleb128 .LVU532
 21126 1882 00       		.uleb128 .LVU536
 21127 1883 00       		.uleb128 .LVU538
 21128 1884 00       		.uleb128 .LVU554
 21129 1885 00       		.uleb128 .LVU555
 21130 1886 00       		.uleb128 .LVU567
 21131 1887 00       		.uleb128 .LVU569
 21132 1888 00       		.uleb128 0
 21133              	.LLST27:
 21134 1889 1E000000 		.4byte	.LVL233
 21135 188d 2C000000 		.4byte	.LVL234
 21136 1891 0100     		.2byte	0x1
 21137 1893 54       		.byte	0x54
 21138 1894 3A000000 		.4byte	.LVL235
 21139 1898 8A000000 		.4byte	.LVL242
 21140 189c 0100     		.2byte	0x1
 21141 189e 54       		.byte	0x54
 21142 189f 8E000000 		.4byte	.LVL243
 21143 18a3 C8000000 		.4byte	.LVL249
 21144 18a7 0100     		.2byte	0x1
 21145 18a9 54       		.byte	0x54
 21146 18aa CC000000 		.4byte	.LVL250
ARM GAS  /tmp/cczbsEFl.s 			page 372


 21147 18ae 0C010000 		.4byte	.LFE264
 21148 18b2 0100     		.2byte	0x1
 21149 18b4 54       		.byte	0x54
 21150 18b5 00000000 		.4byte	0
 21151 18b9 00000000 		.4byte	0
 21152              	.LVUS28:
 21153 18bd 00       		.uleb128 .LVU532
 21154 18be 00       		.uleb128 .LVU536
 21155 18bf 00       		.uleb128 .LVU538
 21156 18c0 00       		.uleb128 .LVU554
 21157 18c1 00       		.uleb128 .LVU555
 21158 18c2 00       		.uleb128 .LVU567
 21159 18c3 00       		.uleb128 .LVU569
 21160 18c4 00       		.uleb128 0
 21161              	.LLST28:
 21162 18c5 1E000000 		.4byte	.LVL233
 21163 18c9 2C000000 		.4byte	.LVL234
 21164 18cd 0100     		.2byte	0x1
 21165 18cf 55       		.byte	0x55
 21166 18d0 3A000000 		.4byte	.LVL235
 21167 18d4 8A000000 		.4byte	.LVL242
 21168 18d8 0100     		.2byte	0x1
 21169 18da 55       		.byte	0x55
 21170 18db 8E000000 		.4byte	.LVL243
 21171 18df C8000000 		.4byte	.LVL249
 21172 18e3 0100     		.2byte	0x1
 21173 18e5 55       		.byte	0x55
 21174 18e6 CC000000 		.4byte	.LVL250
 21175 18ea 0C010000 		.4byte	.LFE264
 21176 18ee 0100     		.2byte	0x1
 21177 18f0 55       		.byte	0x55
 21178 18f1 00000000 		.4byte	0
 21179 18f5 00000000 		.4byte	0
 21180              	.LVUS29:
 21181 18f9 00       		.uleb128 .LVU542
 21182 18fa 00       		.uleb128 .LVU545
 21183 18fb 00       		.uleb128 .LVU548
 21184 18fc 00       		.uleb128 .LVU552
 21185 18fd 00       		.uleb128 .LVU558
 21186 18fe 00       		.uleb128 .LVU561
 21187 18ff 00       		.uleb128 .LVU564
 21188 1900 00       		.uleb128 .LVU567
 21189 1901 00       		.uleb128 .LVU572
 21190 1902 00       		.uleb128 .LVU575
 21191 1903 00       		.uleb128 .LVU578
 21192 1904 00       		.uleb128 0
 21193              	.LLST29:
 21194 1905 50000000 		.4byte	.LVL237
 21195 1909 64000000 		.4byte	.LVL238
 21196 190d 0100     		.2byte	0x1
 21197 190f 50       		.byte	0x50
 21198 1910 6E000000 		.4byte	.LVL240
 21199 1914 84000000 		.4byte	.LVL241
 21200 1918 0100     		.2byte	0x1
 21201 191a 50       		.byte	0x50
 21202 191b 98000000 		.4byte	.LVL245
 21203 191f AC000000 		.4byte	.LVL246
ARM GAS  /tmp/cczbsEFl.s 			page 373


 21204 1923 0100     		.2byte	0x1
 21205 1925 50       		.byte	0x50
 21206 1926 B6000000 		.4byte	.LVL248
 21207 192a C8000000 		.4byte	.LVL249
 21208 192e 0100     		.2byte	0x1
 21209 1930 50       		.byte	0x50
 21210 1931 D6000000 		.4byte	.LVL252
 21211 1935 EA000000 		.4byte	.LVL253
 21212 1939 0100     		.2byte	0x1
 21213 193b 50       		.byte	0x50
 21214 193c F4000000 		.4byte	.LVL255
 21215 1940 0C010000 		.4byte	.LFE264
 21216 1944 0100     		.2byte	0x1
 21217 1946 50       		.byte	0x50
 21218 1947 00000000 		.4byte	0
 21219 194b 00000000 		.4byte	0
 21220              		.section	.debug_aranges,"",%progbits
 21221 0000 AC000000 		.4byte	0xac
 21222 0004 0200     		.2byte	0x2
 21223 0006 00000000 		.4byte	.Ldebug_info0
 21224 000a 04       		.byte	0x4
 21225 000b 00       		.byte	0
 21226 000c 0000     		.2byte	0
 21227 000e 0000     		.2byte	0
 21228 0010 00000000 		.4byte	.LFB257
 21229 0014 54000000 		.4byte	.LFE257-.LFB257
 21230 0018 00000000 		.4byte	.LFB258
 21231 001c 30000000 		.4byte	.LFE258-.LFB258
 21232 0020 00000000 		.4byte	.LFB259
 21233 0024 AC000000 		.4byte	.LFE259-.LFB259
 21234 0028 00000000 		.4byte	.LFB260
 21235 002c DC010000 		.4byte	.LFE260-.LFB260
 21236 0030 00000000 		.4byte	.LFB261
 21237 0034 DC010000 		.4byte	.LFE261-.LFB261
 21238 0038 00000000 		.4byte	.LFB262
 21239 003c DC010000 		.4byte	.LFE262-.LFB262
 21240 0040 00000000 		.4byte	.LFB263
 21241 0044 6C000000 		.4byte	.LFE263-.LFB263
 21242 0048 00000000 		.4byte	.LFB264
 21243 004c 0C010000 		.4byte	.LFE264-.LFB264
 21244 0050 00000000 		.4byte	.LFB266
 21245 0054 70000000 		.4byte	.LFE266-.LFB266
 21246 0058 00000000 		.4byte	.LFB267
 21247 005c D4040000 		.4byte	.LFE267-.LFB267
 21248 0060 00000000 		.4byte	.LFB265
 21249 0064 5C000000 		.4byte	.LFE265-.LFB265
 21250 0068 00000000 		.4byte	.LFB268
 21251 006c 4C000000 		.4byte	.LFE268-.LFB268
 21252 0070 00000000 		.4byte	.LFB269
 21253 0074 4C000000 		.4byte	.LFE269-.LFB269
 21254 0078 00000000 		.4byte	.LFB270
 21255 007c 60000000 		.4byte	.LFE270-.LFB270
 21256 0080 00000000 		.4byte	.LFB271
 21257 0084 68000000 		.4byte	.LFE271-.LFB271
 21258 0088 00000000 		.4byte	.LFB272
 21259 008c 78000000 		.4byte	.LFE272-.LFB272
 21260 0090 00000000 		.4byte	.LFB273
ARM GAS  /tmp/cczbsEFl.s 			page 374


 21261 0094 68000000 		.4byte	.LFE273-.LFB273
 21262 0098 00000000 		.4byte	.LFB274
 21263 009c 74000000 		.4byte	.LFE274-.LFB274
 21264 00a0 00000000 		.4byte	.LFB275
 21265 00a4 3C000000 		.4byte	.LFE275-.LFB275
 21266 00a8 00000000 		.4byte	0
 21267 00ac 00000000 		.4byte	0
 21268              		.section	.debug_ranges,"",%progbits
 21269              	.Ldebug_ranges0:
 21270 0000 08000000 		.4byte	.LBB76
 21271 0004 0E000000 		.4byte	.LBE76
 21272 0008 16000000 		.4byte	.LBB79
 21273 000c 1A000000 		.4byte	.LBE79
 21274 0010 00000000 		.4byte	0
 21275 0014 00000000 		.4byte	0
 21276 0018 06000000 		.4byte	.LBB94
 21277 001c 0C000000 		.4byte	.LBE94
 21278 0020 14000000 		.4byte	.LBB97
 21279 0024 18000000 		.4byte	.LBE97
 21280 0028 00000000 		.4byte	0
 21281 002c 00000000 		.4byte	0
 21282 0030 06000000 		.4byte	.LBB110
 21283 0034 0C000000 		.4byte	.LBE110
 21284 0038 14000000 		.4byte	.LBB113
 21285 003c 18000000 		.4byte	.LBE113
 21286 0040 00000000 		.4byte	0
 21287 0044 00000000 		.4byte	0
 21288 0048 06000000 		.4byte	.LBB126
 21289 004c 0C000000 		.4byte	.LBE126
 21290 0050 14000000 		.4byte	.LBB129
 21291 0054 18000000 		.4byte	.LBE129
 21292 0058 00000000 		.4byte	0
 21293 005c 00000000 		.4byte	0
 21294 0060 0A000000 		.4byte	.LBB140
 21295 0064 10000000 		.4byte	.LBE140
 21296 0068 18000000 		.4byte	.LBB143
 21297 006c 1C000000 		.4byte	.LBE143
 21298 0070 00000000 		.4byte	0
 21299 0074 00000000 		.4byte	0
 21300 0078 1E000000 		.4byte	.LBB144
 21301 007c 2C000000 		.4byte	.LBE144
 21302 0080 3A000000 		.4byte	.LBB149
 21303 0084 84000000 		.4byte	.LBE149
 21304 0088 8A000000 		.4byte	.LBB150
 21305 008c C8000000 		.4byte	.LBE150
 21306 0090 CC000000 		.4byte	.LBB151
 21307 0094 0C010000 		.4byte	.LBE151
 21308 0098 00000000 		.4byte	0
 21309 009c 00000000 		.4byte	0
 21310 00a0 0A000000 		.4byte	.LBB152
 21311 00a4 10000000 		.4byte	.LBE152
 21312 00a8 18000000 		.4byte	.LBB155
 21313 00ac 1C000000 		.4byte	.LBE155
 21314 00b0 00000000 		.4byte	0
 21315 00b4 00000000 		.4byte	0
 21316 00b8 08000000 		.4byte	.LBB164
 21317 00bc 0E000000 		.4byte	.LBE164
ARM GAS  /tmp/cczbsEFl.s 			page 375


 21318 00c0 16000000 		.4byte	.LBB167
 21319 00c4 1A000000 		.4byte	.LBE167
 21320 00c8 00000000 		.4byte	0
 21321 00cc 00000000 		.4byte	0
 21322 00d0 08000000 		.4byte	.LBB168
 21323 00d4 0E000000 		.4byte	.LBE168
 21324 00d8 16000000 		.4byte	.LBB171
 21325 00dc 1A000000 		.4byte	.LBE171
 21326 00e0 00000000 		.4byte	0
 21327 00e4 00000000 		.4byte	0
 21328 00e8 0C000000 		.4byte	.LBB172
 21329 00ec 12000000 		.4byte	.LBE172
 21330 00f0 1A000000 		.4byte	.LBB175
 21331 00f4 1E000000 		.4byte	.LBE175
 21332 00f8 00000000 		.4byte	0
 21333 00fc 00000000 		.4byte	0
 21334 0100 0A000000 		.4byte	.LBB176
 21335 0104 10000000 		.4byte	.LBE176
 21336 0108 1C000000 		.4byte	.LBB179
 21337 010c 20000000 		.4byte	.LBE179
 21338 0110 00000000 		.4byte	0
 21339 0114 00000000 		.4byte	0
 21340 0118 0A000000 		.4byte	.LBB182
 21341 011c 10000000 		.4byte	.LBE182
 21342 0120 1C000000 		.4byte	.LBB185
 21343 0124 20000000 		.4byte	.LBE185
 21344 0128 00000000 		.4byte	0
 21345 012c 00000000 		.4byte	0
 21346 0130 00000000 		.4byte	.LFB257
 21347 0134 54000000 		.4byte	.LFE257
 21348 0138 00000000 		.4byte	.LFB258
 21349 013c 30000000 		.4byte	.LFE258
 21350 0140 00000000 		.4byte	.LFB259
 21351 0144 AC000000 		.4byte	.LFE259
 21352 0148 00000000 		.4byte	.LFB260
 21353 014c DC010000 		.4byte	.LFE260
 21354 0150 00000000 		.4byte	.LFB261
 21355 0154 DC010000 		.4byte	.LFE261
 21356 0158 00000000 		.4byte	.LFB262
 21357 015c DC010000 		.4byte	.LFE262
 21358 0160 00000000 		.4byte	.LFB263
 21359 0164 6C000000 		.4byte	.LFE263
 21360 0168 00000000 		.4byte	.LFB264
 21361 016c 0C010000 		.4byte	.LFE264
 21362 0170 00000000 		.4byte	.LFB266
 21363 0174 70000000 		.4byte	.LFE266
 21364 0178 00000000 		.4byte	.LFB267
 21365 017c D4040000 		.4byte	.LFE267
 21366 0180 00000000 		.4byte	.LFB265
 21367 0184 5C000000 		.4byte	.LFE265
 21368 0188 00000000 		.4byte	.LFB268
 21369 018c 4C000000 		.4byte	.LFE268
 21370 0190 00000000 		.4byte	.LFB269
 21371 0194 4C000000 		.4byte	.LFE269
 21372 0198 00000000 		.4byte	.LFB270
 21373 019c 60000000 		.4byte	.LFE270
 21374 01a0 00000000 		.4byte	.LFB271
ARM GAS  /tmp/cczbsEFl.s 			page 376


 21375 01a4 68000000 		.4byte	.LFE271
 21376 01a8 00000000 		.4byte	.LFB272
 21377 01ac 78000000 		.4byte	.LFE272
 21378 01b0 00000000 		.4byte	.LFB273
 21379 01b4 68000000 		.4byte	.LFE273
 21380 01b8 00000000 		.4byte	.LFB274
 21381 01bc 74000000 		.4byte	.LFE274
 21382 01c0 00000000 		.4byte	.LFB275
 21383 01c4 3C000000 		.4byte	.LFE275
 21384 01c8 00000000 		.4byte	0
 21385 01cc 00000000 		.4byte	0
 21386              		.section	.debug_line,"",%progbits
 21387              	.Ldebug_line0:
 21388 0000 1B150000 		.section	.debug_str,"MS",%progbits,1
 21388      03002005 
 21388      00000201 
 21388      FB0E0D00 
 21388      01010101 
 21389              	.LASF568:
 21390 0000 5553425F 		.ascii	"USB_STOP\000"
 21390      53544F50 
 21390      00
 21391              	.LASF182:
 21392 0009 706F7274 		.ascii	"port_intctx\000"
 21392      5F696E74 
 21392      63747800 
 21393              	.LASF191:
 21394 0015 63685F74 		.ascii	"ch_trace_buffer_t\000"
 21394      72616365 
 21394      5F627566 
 21394      6665725F 
 21394      7400
 21395              	.LASF224:
 21396 0027 63685F70 		.ascii	"ch_ptrsize\000"
 21396      74727369 
 21396      7A6500
 21397              	.LASF504:
 21398 0032 6576656E 		.ascii	"event\000"
 21398      7400
 21399              	.LASF355:
 21400 0038 43414E5F 		.ascii	"CAN_STARTING\000"
 21400      53544152 
 21400      54494E47 
 21400      00
 21401              	.LASF26:
 21402 0045 6D73675F 		.ascii	"msg_t\000"
 21402      7400
 21403              	.LASF300:
 21404 004b 61667268 		.ascii	"afrh\000"
 21404      00
 21405              	.LASF447:
 21406 0050 4F504D4F 		.ascii	"OPMODE_SMBUS_DEVICE\000"
 21406      44455F53 
 21406      4D425553 
 21406      5F444556 
 21406      49434500 
 21407              	.LASF202:
ARM GAS  /tmp/cczbsEFl.s 			page 377


 21408 0064 6D5F6372 		.ascii	"m_crit_isr\000"
 21408      69745F69 
 21408      737200
 21409              	.LASF627:
 21410 006f 44494550 		.ascii	"DIEPTXF0\000"
 21410      54584630 
 21410      00
 21411              	.LASF703:
 21412 0078 55534244 		.ascii	"USBD1\000"
 21412      3100
 21413              	.LASF354:
 21414 007e 43414E5F 		.ascii	"CAN_STOP\000"
 21414      53544F50 
 21414      00
 21415              	.LASF756:
 21416 0087 706F3830 		.ascii	"po8030_set_rgb_gain\000"
 21416      33305F73 
 21416      65745F72 
 21416      67625F67 
 21416      61696E00 
 21417              	.LASF237:
 21418 009b 63665F6F 		.ascii	"cf_off_time\000"
 21418      66665F74 
 21418      696D6500 
 21419              	.LASF85:
 21420 00a7 63685F73 		.ascii	"ch_system_t\000"
 21420      79737465 
 21420      6D5F7400 
 21421              	.LASF208:
 21422 00b3 77747365 		.ascii	"wtsemp\000"
 21422      6D7000
 21423              	.LASF284:
 21424 00ba 5F426F6F 		.ascii	"_Bool\000"
 21424      6C00
 21425              	.LASF396:
 21426 00c0 64617461 		.ascii	"datamode\000"
 21426      6D6F6465 
 21426      00
 21427              	.LASF463:
 21428 00c9 646D6172 		.ascii	"dmarx\000"
 21428      7800
 21429              	.LASF728:
 21430 00cf 464F524D 		.ascii	"FORMAT_RGB444_BYTE_SWAP\000"
 21430      41545F52 
 21430      47423434 
 21430      345F4259 
 21430      54455F53 
 21431              	.LASF468:
 21432 00e7 4932535F 		.ascii	"I2S_READY\000"
 21432      52454144 
 21432      5900
 21433              	.LASF344:
 21434 00f1 73717231 		.ascii	"sqr1\000"
 21434      00
 21435              	.LASF271:
 21436 00f6 424C4B5F 		.ascii	"BLK_UNINIT\000"
 21436      554E494E 
ARM GAS  /tmp/cczbsEFl.s 			page 378


 21436      495400
 21437              	.LASF475:
 21438 0101 72785F62 		.ascii	"rx_buffer\000"
 21438      75666665 
 21438      7200
 21439              	.LASF459:
 21440 010b 6572726F 		.ascii	"errors\000"
 21440      727300
 21441              	.LASF195:
 21442 0112 776F7273 		.ascii	"worst\000"
 21442      7400
 21443              	.LASF78:
 21444 0118 76745F73 		.ascii	"vt_systime\000"
 21444      79737469 
 21444      6D6500
 21445              	.LASF144:
 21446 0123 444F5231 		.ascii	"DOR1\000"
 21446      00
 21447              	.LASF145:
 21448 0128 444F5232 		.ascii	"DOR2\000"
 21448      00
 21449              	.LASF474:
 21450 012d 74785F62 		.ascii	"tx_buffer\000"
 21450      75666665 
 21450      7200
 21451              	.LASF217:
 21452 0137 6D5F6E65 		.ascii	"m_next\000"
 21452      787400
 21453              	.LASF304:
 21454 013e 50434461 		.ascii	"PCData\000"
 21454      746100
 21455              	.LASF167:
 21456 0145 4D41534B 		.ascii	"MASK\000"
 21456      00
 21457              	.LASF329:
 21458 014a 73616D70 		.ascii	"samples\000"
 21458      6C657300 
 21459              	.LASF631:
 21460 0152 47434346 		.ascii	"GCCFG\000"
 21460      4700
 21461              	.LASF425:
 21462 0158 42445452 		.ascii	"BDTR\000"
 21462      00
 21463              	.LASF378:
 21464 015d 7265676D 		.ascii	"regmask\000"
 21464      61736B00 
 21465              	.LASF457:
 21466 0165 49324343 		.ascii	"I2CConfig\000"
 21466      6F6E6669 
 21466      6700
 21467              	.LASF13:
 21468 016f 75696E74 		.ascii	"uint16_t\000"
 21468      31365F74 
 21468      00
 21469              	.LASF464:
 21470 0178 646D6174 		.ascii	"dmatx\000"
 21470      7800
ARM GAS  /tmp/cczbsEFl.s 			page 379


 21471              	.LASF701:
 21472 017e 736F665F 		.ascii	"sof_cb\000"
 21472      636200
 21473              	.LASF401:
 21474 0185 4558545F 		.ascii	"EXT_ACTIVE\000"
 21474      41435449 
 21474      564500
 21475              	.LASF297:
 21476 0190 6F737065 		.ascii	"ospeedr\000"
 21476      65647200 
 21477              	.LASF634:
 21478 0198 44494550 		.ascii	"DIEPTXF\000"
 21478      54584600 
 21479              	.LASF243:
 21480 01a0 656C5F6E 		.ascii	"el_next\000"
 21480      65787400 
 21481              	.LASF324:
 21482 01a8 4144435F 		.ascii	"ADC_ERR_OVERFLOW\000"
 21482      4552525F 
 21482      4F564552 
 21482      464C4F57 
 21482      00
 21483              	.LASF708:
 21484 01b9 53657269 		.ascii	"SerialUSBDriver\000"
 21484      616C5553 
 21484      42447269 
 21484      76657200 
 21485              	.LASF83:
 21486 01c9 6C6F636B 		.ascii	"lock_cnt\000"
 21486      5F636E74 
 21486      00
 21487              	.LASF59:
 21488 01d2 63685F74 		.ascii	"ch_threads_queue\000"
 21488      68726561 
 21488      64735F71 
 21488      75657565 
 21488      00
 21489              	.LASF715:
 21490 01e3 464F524D 		.ascii	"FORMAT_CBYCRY\000"
 21490      41545F43 
 21490      42594352 
 21490      5900
 21491              	.LASF37:
 21492 01f1 705F6E65 		.ascii	"p_newer\000"
 21492      77657200 
 21493              	.LASF644:
 21494 01f9 48505254 		.ascii	"HPRT\000"
 21494      00
 21495              	.LASF736:
 21496 01fe 53554253 		.ascii	"SUBSAMPLING_X1\000"
 21496      414D504C 
 21496      494E475F 
 21496      583100
 21497              	.LASF598:
 21498 020d 4843494E 		.ascii	"HCINT\000"
 21498      5400
 21499              	.LASF742:
ARM GAS  /tmp/cczbsEFl.s 			page 380


 21500 0213 68656967 		.ascii	"height\000"
 21500      687400
 21501              	.LASF94:
 21502 021a 534D5052 		.ascii	"SMPR1\000"
 21502      3100
 21503              	.LASF95:
 21504 0220 534D5052 		.ascii	"SMPR2\000"
 21504      3200
 21505              	.LASF234:
 21506 0226 63665F6F 		.ascii	"cf_off_flags\000"
 21506      66665F66 
 21506      6C616773 
 21506      00
 21507              	.LASF537:
 21508 0233 5350495F 		.ascii	"SPI_STOP\000"
 21508      53544F50 
 21508      00
 21509              	.LASF491:
 21510 023c 70776D63 		.ascii	"pwmchnmsk_t\000"
 21510      686E6D73 
 21510      6B5F7400 
 21511              	.LASF303:
 21512 0248 50424461 		.ascii	"PBData\000"
 21512      746100
 21513              	.LASF222:
 21514 024f 63685F73 		.ascii	"ch_size\000"
 21514      697A6500 
 21515              	.LASF640:
 21516 0257 48505458 		.ascii	"HPTXSTS\000"
 21516      53545300 
 21517              	.LASF296:
 21518 025f 6F747970 		.ascii	"otyper\000"
 21518      657200
 21519              	.LASF287:
 21520 0266 4F545950 		.ascii	"OTYPER\000"
 21520      455200
 21521              	.LASF380:
 21522 026d 64616370 		.ascii	"dacparams_t\000"
 21522      6172616D 
 21522      735F7400 
 21523              	.LASF785:
 21524 0279 72656756 		.ascii	"regValue\000"
 21524      616C7565 
 21524      00
 21525              	.LASF515:
 21526 0282 5344435F 		.ascii	"SDC_MODE_1BIT\000"
 21526      4D4F4445 
 21526      5F314249 
 21526      5400
 21527              	.LASF596:
 21528 0290 48434348 		.ascii	"HCCHAR\000"
 21528      415200
 21529              	.LASF441:
 21530 0297 4932435F 		.ascii	"I2C_ACTIVE_RX\000"
 21530      41435449 
 21530      56455F52 
 21530      5800
ARM GAS  /tmp/cczbsEFl.s 			page 381


 21531              	.LASF32:
 21532 02a5 74687265 		.ascii	"thread_t\000"
 21532      61645F74 
 21532      00
 21533              	.LASF245:
 21534 02ae 656C5F65 		.ascii	"el_events\000"
 21534      76656E74 
 21534      7300
 21535              	.LASF484:
 21536 02b8 70776D73 		.ascii	"pwmstate_t\000"
 21536      74617465 
 21536      5F7400
 21537              	.LASF365:
 21538 02c3 736C6565 		.ascii	"sleep_event\000"
 21538      705F6576 
 21538      656E7400 
 21539              	.LASF77:
 21540 02cf 63685F76 		.ascii	"ch_virtual_timers_list\000"
 21540      69727475 
 21540      616C5F74 
 21540      696D6572 
 21540      735F6C69 
 21541              	.LASF268:
 21542 02e6 76656374 		.ascii	"vector\000"
 21542      6F7200
 21543              	.LASF9:
 21544 02ed 696E7433 		.ascii	"int32_t\000"
 21544      325F7400 
 21545              	.LASF455:
 21546 02f5 636C6F63 		.ascii	"clock_speed\000"
 21546      6B5F7370 
 21546      65656400 
 21547              	.LASF31:
 21548 0301 73797374 		.ascii	"systime_t\000"
 21548      696D655F 
 21548      7400
 21549              	.LASF398:
 21550 030b 44414344 		.ascii	"DACD2\000"
 21550      3200
 21551              	.LASF367:
 21552 0311 43414E44 		.ascii	"CANDriver\000"
 21552      72697665 
 21552      7200
 21553              	.LASF232:
 21554 031b 63665F6F 		.ascii	"cf_off_stklimit\000"
 21554      66665F73 
 21554      746B6C69 
 21554      6D697400 
 21555              	.LASF148:
 21556 032b 4D304152 		.ascii	"M0AR\000"
 21556      00
 21557              	.LASF603:
 21558 0330 72657376 		.ascii	"resvd1c\000"
 21558      64316300 
 21559              	.LASF445:
 21560 0338 69326366 		.ascii	"i2cflags_t\000"
 21560      6C616773 
ARM GAS  /tmp/cczbsEFl.s 			page 382


 21560      5F7400
 21561              	.LASF641:
 21562 0343 4841494E 		.ascii	"HAINT\000"
 21562      5400
 21563              	.LASF130:
 21564 0349 46413152 		.ascii	"FA1R\000"
 21564      00
 21565              	.LASF638:
 21566 034e 48464E55 		.ascii	"HFNUM\000"
 21566      4D00
 21567              	.LASF261:
 21568 0354 716E6F74 		.ascii	"qnotify_t\000"
 21568      6966795F 
 21568      7400
 21569              	.LASF320:
 21570 035e 61646373 		.ascii	"adcstate_t\000"
 21570      74617465 
 21570      5F7400
 21571              	.LASF266:
 21572 0369 69736869 		.ascii	"ishift\000"
 21572      667400
 21573              	.LASF415:
 21574 0370 4750545F 		.ascii	"GPT_ONESHOT\000"
 21574      4F4E4553 
 21574      484F5400 
 21575              	.LASF256:
 21576 037c 715F746F 		.ascii	"q_top\000"
 21576      7000
 21577              	.LASF589:
 21578 0382 75645F73 		.ascii	"ud_string\000"
 21578      7472696E 
 21578      6700
 21579              	.LASF458:
 21580 038c 49324344 		.ascii	"I2CDriver\000"
 21580      72697665 
 21580      7200
 21581              	.LASF440:
 21582 0396 4932435F 		.ascii	"I2C_ACTIVE_TX\000"
 21582      41435449 
 21582      56455F54 
 21582      5800
 21583              	.LASF510:
 21584 03a4 72656164 		.ascii	"read\000"
 21584      00
 21585              	.LASF446:
 21586 03a9 4F504D4F 		.ascii	"OPMODE_I2C\000"
 21586      44455F49 
 21586      324300
 21587              	.LASF650:
 21588 03b4 72657376 		.ascii	"resvd80C\000"
 21588      64383043 
 21588      00
 21589              	.LASF698:
 21590 03bd 6576656E 		.ascii	"event_cb\000"
 21590      745F6362 
 21590      00
 21591              	.LASF617:
ARM GAS  /tmp/cczbsEFl.s 			page 383


 21592 03c6 474F5447 		.ascii	"GOTGCTL\000"
 21592      43544C00 
 21593              	.LASF711:
 21594 03ce 62756C6B 		.ascii	"bulk_out\000"
 21594      5F6F7574 
 21594      00
 21595              	.LASF592:
 21596 03d7 75736265 		.ascii	"usbepcallback_t\000"
 21596      7063616C 
 21596      6C626163 
 21596      6B5F7400 
 21597              	.LASF444:
 21598 03e7 69326361 		.ascii	"i2caddr_t\000"
 21598      6464725F 
 21598      7400
 21599              	.LASF88:
 21600 03f1 76746C69 		.ascii	"vtlist\000"
 21600      737400
 21601              	.LASF761:
 21602 03f8 706F3830 		.ascii	"po8030_set_contrast\000"
 21602      33305F73 
 21602      65745F63 
 21602      6F6E7472 
 21602      61737400 
 21603              	.LASF153:
 21604 040c 54524953 		.ascii	"TRISE\000"
 21604      4500
 21605              	.LASF656:
 21606 0412 72657376 		.ascii	"resvd824\000"
 21606      64383234 
 21606      00
 21607              	.LASF46:
 21608 041b 705F7761 		.ascii	"p_waiting\000"
 21608      6974696E 
 21608      6700
 21609              	.LASF203:
 21610 0425 6B65726E 		.ascii	"kernel_stats_t\000"
 21610      656C5F73 
 21610      74617473 
 21610      5F7400
 21611              	.LASF253:
 21612 0434 715F7761 		.ascii	"q_waiting\000"
 21612      6974696E 
 21612      6700
 21613              	.LASF112:
 21614 043e 43414E5F 		.ascii	"CAN_TxMailBox_TypeDef\000"
 21614      54784D61 
 21614      696C426F 
 21614      785F5479 
 21614      70654465 
 21615              	.LASF87:
 21616 0454 726C6973 		.ascii	"rlist\000"
 21616      7400
 21617              	.LASF55:
 21618 045a 74687265 		.ascii	"threads_list_t\000"
 21618      6164735F 
 21618      6C697374 
ARM GAS  /tmp/cczbsEFl.s 			page 384


 21618      5F7400
 21619              	.LASF228:
 21620 0469 63665F6F 		.ascii	"cf_off_ctx\000"
 21620      66665F63 
 21620      747800
 21621              	.LASF262:
 21622 0474 696E7075 		.ascii	"input_queue_t\000"
 21622      745F7175 
 21622      6575655F 
 21622      7400
 21623              	.LASF347:
 21624 0482 41444343 		.ascii	"ADCConversionGroup\000"
 21624      6F6E7665 
 21624      7273696F 
 21624      6E47726F 
 21624      757000
 21625              	.LASF649:
 21626 0495 44535453 		.ascii	"DSTS\000"
 21626      00
 21627              	.LASF450:
 21628 049a 5354445F 		.ascii	"STD_DUTY_CYCLE\000"
 21628      44555459 
 21628      5F435943 
 21628      4C4500
 21629              	.LASF356:
 21630 04a9 43414E5F 		.ascii	"CAN_READY\000"
 21630      52454144 
 21630      5900
 21631              	.LASF230:
 21632 04b3 63665F6F 		.ascii	"cf_off_older\000"
 21632      66665F6F 
 21632      6C646572 
 21632      00
 21633              	.LASF20:
 21634 04c0 72747469 		.ascii	"rttime_t\000"
 21634      6D655F74 
 21634      00
 21635              	.LASF410:
 21636 04c9 45585444 		.ascii	"EXTD1\000"
 21636      3100
 21637              	.LASF683:
 21638 04cf 72787175 		.ascii	"rxqueued\000"
 21638      65756564 
 21638      00
 21639              	.LASF358:
 21640 04d8 63616E73 		.ascii	"canstate_t\000"
 21640      74617465 
 21640      5F7400
 21641              	.LASF132:
 21642 04e3 7346696C 		.ascii	"sFilterRegister\000"
 21642      74657252 
 21642      65676973 
 21642      74657200 
 21643              	.LASF655:
 21644 04f3 72657376 		.ascii	"resvd820\000"
 21644      64383230 
 21644      00
ARM GAS  /tmp/cczbsEFl.s 			page 385


 21645              	.LASF795:
 21646 04fc 5F5F7374 		.ascii	"__stack_chk_fail\000"
 21646      61636B5F 
 21646      63686B5F 
 21646      6661696C 
 21646      00
 21647              	.LASF159:
 21648 050d 52455350 		.ascii	"RESP1\000"
 21648      3100
 21649              	.LASF160:
 21650 0513 52455350 		.ascii	"RESP2\000"
 21650      3200
 21651              	.LASF161:
 21652 0519 52455350 		.ascii	"RESP3\000"
 21652      3300
 21653              	.LASF162:
 21654 051f 52455350 		.ascii	"RESP4\000"
 21654      3400
 21655              	.LASF752:
 21656 0525 66726163 		.ascii	"fractional\000"
 21656      74696F6E 
 21656      616C00
 21657              	.LASF437:
 21658 0530 4932435F 		.ascii	"I2C_UNINIT\000"
 21658      554E494E 
 21658      495400
 21659              	.LASF594:
 21660 053b 75736272 		.ascii	"usbreqhandler_t\000"
 21660      65716861 
 21660      6E646C65 
 21660      725F7400 
 21661              	.LASF318:
 21662 054b 4144435F 		.ascii	"ADC_COMPLETE\000"
 21662      434F4D50 
 21662      4C455445 
 21662      00
 21663              	.LASF434:
 21664 0558 47505443 		.ascii	"GPTConfig\000"
 21664      6F6E6669 
 21664      6700
 21665              	.LASF499:
 21666 0562 53445F55 		.ascii	"SD_UNINIT\000"
 21666      4E494E49 
 21666      5400
 21667              	.LASF25:
 21668 056c 74707269 		.ascii	"tprio_t\000"
 21668      6F5F7400 
 21669              	.LASF199:
 21670 0574 6E5F6972 		.ascii	"n_irq\000"
 21670      7100
 21671              	.LASF478:
 21672 057a 69327370 		.ascii	"i2spr\000"
 21672      7200
 21673              	.LASF659:
 21674 0580 72657376 		.ascii	"resvd830\000"
 21674      64383330 
 21674      00
ARM GAS  /tmp/cczbsEFl.s 			page 386


 21675              	.LASF439:
 21676 0589 4932435F 		.ascii	"I2C_READY\000"
 21676      52454144 
 21676      5900
 21677              	.LASF661:
 21678 0593 72657376 		.ascii	"resvd838\000"
 21678      64383338 
 21678      00
 21679              	.LASF453:
 21680 059c 69326364 		.ascii	"i2cdutycycle_t\000"
 21680      75747963 
 21680      79636C65 
 21680      5F7400
 21681              	.LASF707:
 21682 05ab 73647573 		.ascii	"sdustate_t\000"
 21682      74617465 
 21682      5F7400
 21683              	.LASF662:
 21684 05b6 72657376 		.ascii	"resvd83C\000"
 21684      64383343 
 21684      00
 21685              	.LASF733:
 21686 05bf 53495A45 		.ascii	"SIZE_QVGA\000"
 21686      5F515647 
 21686      4100
 21687              	.LASF332:
 21688 05c9 74687265 		.ascii	"thread\000"
 21688      616400
 21689              	.LASF377:
 21690 05d0 72656773 		.ascii	"regshift\000"
 21690      68696674 
 21690      00
 21691              	.LASF557:
 21692 05d9 73657475 		.ascii	"setup\000"
 21692      7000
 21693              	.LASF536:
 21694 05df 5350495F 		.ascii	"SPI_UNINIT\000"
 21694      554E494E 
 21694      495400
 21695              	.LASF610:
 21696 05ea 44545846 		.ascii	"DTXFSTS\000"
 21696      53545300 
 21697              	.LASF281:
 21698 05f2 626C6B5F 		.ascii	"blk_size\000"
 21698      73697A65 
 21698      00
 21699              	.LASF551:
 21700 05fb 696E5F70 		.ascii	"in_params\000"
 21700      6172616D 
 21700      7300
 21701              	.LASF424:
 21702 0605 43434552 		.ascii	"CCER\000"
 21702      00
 21703              	.LASF175:
 21704 060a 49325350 		.ascii	"I2SPR\000"
 21704      5200
 21705              	.LASF481:
ARM GAS  /tmp/cczbsEFl.s 			page 387


 21706 0610 50574D5F 		.ascii	"PWM_UNINIT\000"
 21706      554E494E 
 21706      495400
 21707              	.LASF194:
 21708 061b 62657374 		.ascii	"best\000"
 21708      00
 21709              	.LASF619:
 21710 0620 47414842 		.ascii	"GAHBCFG\000"
 21710      43464700 
 21711              	.LASF387:
 21712 0628 64616363 		.ascii	"daccallback_t\000"
 21712      616C6C62 
 21712      61636B5F 
 21712      7400
 21713              	.LASF706:
 21714 0636 5344555F 		.ascii	"SDU_READY\000"
 21714      52454144 
 21714      5900
 21715              	.LASF663:
 21716 0640 72657376 		.ascii	"resvd840\000"
 21716      64383430 
 21716      00
 21717              	.LASF171:
 21718 0649 43524350 		.ascii	"CRCPR\000"
 21718      5200
 21719              	.LASF276:
 21720 064f 424C4B5F 		.ascii	"BLK_READY\000"
 21720      52454144 
 21720      5900
 21721              	.LASF414:
 21722 0659 4750545F 		.ascii	"GPT_CONTINUOUS\000"
 21722      434F4E54 
 21722      494E554F 
 21722      555300
 21723              	.LASF677:
 21724 0668 74787175 		.ascii	"txqueued\000"
 21724      65756564 
 21724      00
 21725              	.LASF48:
 21726 0671 705F6D73 		.ascii	"p_msg\000"
 21726      6700
 21727              	.LASF616:
 21728 0677 73746D33 		.ascii	"stm32_otg_out_ep_t\000"
 21728      325F6F74 
 21728      675F6F75 
 21728      745F6570 
 21728      5F7400
 21729              	.LASF625:
 21730 068a 47525853 		.ascii	"GRXSTSP\000"
 21730      54535000 
 21731              	.LASF624:
 21732 0692 47525853 		.ascii	"GRXSTSR\000"
 21732      54535200 
 21733              	.LASF205:
 21734 069a 65786974 		.ascii	"exitcode\000"
 21734      636F6465 
 21734      00
ARM GAS  /tmp/cczbsEFl.s 			page 388


 21735              	.LASF149:
 21736 06a3 4D314152 		.ascii	"M1AR\000"
 21736      00
 21737              	.LASF564:
 21738 06a8 77616974 		.ascii	"wait\000"
 21738      00
 21739              	.LASF150:
 21740 06ad 444D415F 		.ascii	"DMA_Stream_TypeDef\000"
 21740      53747265 
 21740      616D5F54 
 21740      79706544 
 21740      656600
 21741              	.LASF740:
 21742 06c0 706F3830 		.ascii	"po8030_configuration\000"
 21742      33305F63 
 21742      6F6E6669 
 21742      67757261 
 21742      74696F6E 
 21743              	.LASF787:
 21744 06d5 72656164 		.ascii	"read_reg\000"
 21744      5F726567 
 21744      00
 21745              	.LASF571:
 21746 06de 5553425F 		.ascii	"USB_ACTIVE\000"
 21746      41435449 
 21746      564500
 21747              	.LASF612:
 21748 06e9 73746D33 		.ascii	"stm32_otg_in_ep_t\000"
 21748      325F6F74 
 21748      675F696E 
 21748      5F65705F 
 21748      7400
 21749              	.LASF685:
 21750 06fb 7278636E 		.ascii	"rxcnt\000"
 21750      7400
 21751              	.LASF314:
 21752 0701 4144435F 		.ascii	"ADC_UNINIT\000"
 21752      554E494E 
 21752      495400
 21753              	.LASF461:
 21754 070c 7278646D 		.ascii	"rxdmamode\000"
 21754      616D6F64 
 21754      6500
 21755              	.LASF406:
 21756 0716 6D6F6465 		.ascii	"mode\000"
 21756      00
 21757              	.LASF218:
 21758 071b 6D5F636E 		.ascii	"m_cnt\000"
 21758      7400
 21759              	.LASF403:
 21760 0721 45585444 		.ascii	"EXTDriver\000"
 21760      72697665 
 21760      7200
 21761              	.LASF233:
 21762 072b 63665F6F 		.ascii	"cf_off_state\000"
 21762      66665F73 
 21762      74617465 
ARM GAS  /tmp/cczbsEFl.s 			page 389


 21762      00
 21763              	.LASF473:
 21764 0738 69327363 		.ascii	"i2scallback_t\000"
 21764      616C6C62 
 21764      61636B5F 
 21764      7400
 21765              	.LASF545:
 21766 0746 73737061 		.ascii	"sspad\000"
 21766      6400
 21767              	.LASF462:
 21768 074c 7478646D 		.ascii	"txdmamode\000"
 21768      616D6F64 
 21768      6500
 21769              	.LASF430:
 21770 0756 67707466 		.ascii	"gptfreq_t\000"
 21770      7265715F 
 21770      7400
 21771              	.LASF775:
 21772 0760 63616D5F 		.ascii	"cam_configured\000"
 21772      636F6E66 
 21772      69677572 
 21772      656400
 21773              	.LASF746:
 21774 076f 75736263 		.ascii	"usbcfg\000"
 21774      666700
 21775              	.LASF670:
 21776 0776 72785F66 		.ascii	"rx_fifo_size\000"
 21776      69666F5F 
 21776      73697A65 
 21776      00
 21777              	.LASF180:
 21778 0783 73746B61 		.ascii	"stkalign_t\000"
 21778      6C69676E 
 21778      5F7400
 21779              	.LASF385:
 21780 078e 4441435F 		.ascii	"DAC_ERR_UNDERFLOW\000"
 21780      4552525F 
 21780      554E4445 
 21780      52464C4F 
 21780      5700
 21781              	.LASF366:
 21782 07a0 77616B65 		.ascii	"wakeup_event\000"
 21782      75705F65 
 21782      76656E74 
 21782      00
 21783              	.LASF72:
 21784 07ad 76745F70 		.ascii	"vt_prev\000"
 21784      72657600 
 21785              	.LASF340:
 21786 07b5 656E645F 		.ascii	"end_cb\000"
 21786      636200
 21787              	.LASF688:
 21788 07bc 73657475 		.ascii	"setup_cb\000"
 21788      705F6362 
 21788      00
 21789              	.LASF12:
 21790 07c5 756E7369 		.ascii	"unsigned char\000"
ARM GAS  /tmp/cczbsEFl.s 			page 390


 21790      676E6564 
 21790      20636861 
 21790      7200
 21791              	.LASF732:
 21792 07d3 53495A45 		.ascii	"SIZE_VGA\000"
 21792      5F564741 
 21792      00
 21793              	.LASF169:
 21794 07dc 4649464F 		.ascii	"FIFO\000"
 21794      00
 21795              	.LASF190:
 21796 07e1 74625F62 		.ascii	"tb_buffer\000"
 21796      75666665 
 21796      7200
 21797              	.LASF360:
 21798 07eb 74787175 		.ascii	"txqueue\000"
 21798      65756500 
 21799              	.LASF213:
 21800 07f3 735F636E 		.ascii	"s_cnt\000"
 21800      7400
 21801              	.LASF60:
 21802 07f9 72656164 		.ascii	"ready_list_t\000"
 21802      795F6C69 
 21802      73745F74 
 21802      00
 21803              	.LASF56:
 21804 0806 63685F74 		.ascii	"ch_thread\000"
 21804      68726561 
 21804      6400
 21805              	.LASF448:
 21806 0810 4F504D4F 		.ascii	"OPMODE_SMBUS_HOST\000"
 21806      44455F53 
 21806      4D425553 
 21806      5F484F53 
 21806      5400
 21807              	.LASF566:
 21808 0822 75736265 		.ascii	"usbep_t\000"
 21808      705F7400 
 21809              	.LASF0:
 21810 082a 666C6F61 		.ascii	"float\000"
 21810      7400
 21811              	.LASF754:
 21812 0830 706F3830 		.ascii	"po8030_conf\000"
 21812      33305F63 
 21812      6F6E6600 
 21813              	.LASF399:
 21814 083c 4558545F 		.ascii	"EXT_UNINIT\000"
 21814      554E494E 
 21814      495400
 21815              	.LASF357:
 21816 0847 43414E5F 		.ascii	"CAN_SLEEP\000"
 21816      534C4545 
 21816      5000
 21817              	.LASF186:
 21818 0851 73655F73 		.ascii	"se_state\000"
 21818      74617465 
 21818      00
ARM GAS  /tmp/cczbsEFl.s 			page 391


 21819              	.LASF353:
 21820 085a 43414E5F 		.ascii	"CAN_UNINIT\000"
 21820      554E494E 
 21820      495400
 21821              	.LASF535:
 21822 0865 53444344 		.ascii	"SDCD1\000"
 21822      3100
 21823              	.LASF79:
 21824 086b 73797374 		.ascii	"system_debug_t\000"
 21824      656D5F64 
 21824      65627567 
 21824      5F7400
 21825              	.LASF137:
 21826 087a 44485238 		.ascii	"DHR8R1\000"
 21826      523100
 21827              	.LASF140:
 21828 0881 44485238 		.ascii	"DHR8R2\000"
 21828      523200
 21829              	.LASF421:
 21830 0888 44494552 		.ascii	"DIER\000"
 21830      00
 21831              	.LASF36:
 21832 088d 705F6374 		.ascii	"p_ctx\000"
 21832      7800
 21833              	.LASF75:
 21834 0893 76745F70 		.ascii	"vt_par\000"
 21834      617200
 21835              	.LASF96:
 21836 089a 4A4F4652 		.ascii	"JOFR1\000"
 21836      3100
 21837              	.LASF97:
 21838 08a0 4A4F4652 		.ascii	"JOFR2\000"
 21838      3200
 21839              	.LASF98:
 21840 08a6 4A4F4652 		.ascii	"JOFR3\000"
 21840      3300
 21841              	.LASF99:
 21842 08ac 4A4F4652 		.ascii	"JOFR4\000"
 21842      3400
 21843              	.LASF67:
 21844 08b2 725F6375 		.ascii	"r_current\000"
 21844      7272656E 
 21844      7400
 21845              	.LASF173:
 21846 08bc 54584352 		.ascii	"TXCRCR\000"
 21846      435200
 21847              	.LASF392:
 21848 08c3 64616364 		.ascii	"dacdhrmode_t\000"
 21848      68726D6F 
 21848      64655F74 
 21848      00
 21849              	.LASF334:
 21850 08d0 646D6173 		.ascii	"dmastp\000"
 21850      747000
 21851              	.LASF452:
 21852 08d7 46415354 		.ascii	"FAST_DUTY_CYCLE_16_9\000"
 21852      5F445554 
ARM GAS  /tmp/cczbsEFl.s 			page 392


 21852      595F4359 
 21852      434C455F 
 21852      31365F39 
 21853              	.LASF17:
 21854 08ec 75696E74 		.ascii	"uint64_t\000"
 21854      36345F74 
 21854      00
 21855              	.LASF200:
 21856 08f5 6E5F6374 		.ascii	"n_ctxswc\000"
 21856      78737763 
 21856      00
 21857              	.LASF239:
 21858 08fe 63685F64 		.ascii	"ch_debug\000"
 21858      65627567 
 21858      00
 21859              	.LASF395:
 21860 0907 696E6974 		.ascii	"init\000"
 21860      00
 21861              	.LASF124:
 21862 090c 464D3152 		.ascii	"FM1R\000"
 21862      00
 21863              	.LASF311:
 21864 0911 50414C43 		.ascii	"PALConfig\000"
 21864      6F6E6669 
 21864      6700
 21865              	.LASF767:
 21866 091b 6175746F 		.ascii	"auto_cw_x2\000"
 21866      5F63775F 
 21866      783200
 21867              	.LASF679:
 21868 0926 7478636E 		.ascii	"txcnt\000"
 21868      7400
 21869              	.LASF593:
 21870 092c 75736265 		.ascii	"usbeventcb_t\000"
 21870      76656E74 
 21870      63625F74 
 21870      00
 21871              	.LASF273:
 21872 0939 424C4B5F 		.ascii	"BLK_ACTIVE\000"
 21872      41435449 
 21872      564500
 21873              	.LASF241:
 21874 0944 6576656E 		.ascii	"event_listener_t\000"
 21874      745F6C69 
 21874      7374656E 
 21874      65725F74 
 21874      00
 21875              	.LASF671:
 21876 0955 6F74675F 		.ascii	"otg_ram_size\000"
 21876      72616D5F 
 21876      73697A65 
 21876      00
 21877              	.LASF673:
 21878 0962 73746D33 		.ascii	"stm32_otg_params_t\000"
 21878      325F6F74 
 21878      675F7061 
 21878      72616D73 
ARM GAS  /tmp/cczbsEFl.s 			page 393


 21878      5F7400
 21879              	.LASF666:
 21880 0975 72657376 		.ascii	"resvdD00\000"
 21880      64443030 
 21880      00
 21881              	.LASF172:
 21882 097e 52584352 		.ascii	"RXCRCR\000"
 21882      435200
 21883              	.LASF682:
 21884 0985 72786275 		.ascii	"rxbuf\000"
 21884      6600
 21885              	.LASF622:
 21886 098b 47494E54 		.ascii	"GINTSTS\000"
 21886      53545300 
 21887              	.LASF214:
 21888 0993 63685F6D 		.ascii	"ch_mutex\000"
 21888      75746578 
 21888      00
 21889              	.LASF363:
 21890 099c 7478656D 		.ascii	"txempty_event\000"
 21890      7074795F 
 21890      6576656E 
 21890      7400
 21891              	.LASF774:
 21892 09aa 70776D63 		.ascii	"pwmcfg_cam\000"
 21892      66675F63 
 21892      616D00
 21893              	.LASF704:
 21894 09b5 5344555F 		.ascii	"SDU_UNINIT\000"
 21894      554E494E 
 21894      495400
 21895              	.LASF485:
 21896 09c0 50574D44 		.ascii	"PWMDriver\000"
 21896      72697665 
 21896      7200
 21897              	.LASF308:
 21898 09ca 50474461 		.ascii	"PGData\000"
 21898      746100
 21899              	.LASF494:
 21900 09d1 50574D43 		.ascii	"PWMConfig\000"
 21900      6F6E6669 
 21900      6700
 21901              	.LASF747:
 21902 09db 73657275 		.ascii	"serusbcfg\000"
 21902      73626366 
 21902      6700
 21903              	.LASF780:
 21904 09e5 706F3830 		.ascii	"po8030_set_vga\000"
 21904      33305F73 
 21904      65745F76 
 21904      676100
 21905              	.LASF755:
 21906 09f4 76616C75 		.ascii	"value\000"
 21906      6500
 21907              	.LASF229:
 21908 09fa 63665F6F 		.ascii	"cf_off_newer\000"
 21908      66665F6E 
ARM GAS  /tmp/cczbsEFl.s 			page 394


 21908      65776572 
 21908      00
 21909              	.LASF651:
 21910 0a07 44494550 		.ascii	"DIEPMSK\000"
 21910      4D534B00 
 21911              	.LASF618:
 21912 0a0f 474F5447 		.ascii	"GOTGINT\000"
 21912      494E5400 
 21913              	.LASF690:
 21914 0a17 6F75745F 		.ascii	"out_cb\000"
 21914      636200
 21915              	.LASF722:
 21916 0a1e 464F524D 		.ascii	"FORMAT_BGGR\000"
 21916      41545F42 
 21916      47475200 
 21917              	.LASF642:
 21918 0a2a 4841494E 		.ascii	"HAINTMSK\000"
 21918      544D534B 
 21918      00
 21919              	.LASF552:
 21920 0a33 6F75745F 		.ascii	"out_params\000"
 21920      70617261 
 21920      6D7300
 21921              	.LASF103:
 21922 0a3e 4A535152 		.ascii	"JSQR\000"
 21922      00
 21923              	.LASF768:
 21924 0a43 6175746F 		.ascii	"auto_cw_y1\000"
 21924      5F63775F 
 21924      793100
 21925              	.LASF433:
 21926 0a4e 64696572 		.ascii	"dier\000"
 21926      00
 21927              	.LASF530:
 21928 0a53 69735F70 		.ascii	"is_protected\000"
 21928      726F7465 
 21928      63746564 
 21928      00
 21929              	.LASF69:
 21930 0a60 76697274 		.ascii	"virtual_timer_t\000"
 21930      75616C5F 
 21930      74696D65 
 21930      725F7400 
 21931              	.LASF692:
 21932 0a70 6F75745F 		.ascii	"out_maxsize\000"
 21932      6D617873 
 21932      697A6500 
 21933              	.LASF64:
 21934 0a7c 725F6374 		.ascii	"r_ctx\000"
 21934      7800
 21935              	.LASF71:
 21936 0a82 76745F6E 		.ascii	"vt_next\000"
 21936      65787400 
 21937              	.LASF467:
 21938 0a8a 4932535F 		.ascii	"I2S_STOP\000"
 21938      53544F50 
 21938      00
ARM GAS  /tmp/cczbsEFl.s 			page 395


 21939              	.LASF482:
 21940 0a93 50574D5F 		.ascii	"PWM_STOP\000"
 21940      53544F50 
 21940      00
 21941              	.LASF19:
 21942 0a9c 7274636E 		.ascii	"rtcnt_t\000"
 21942      745F7400 
 21943              	.LASF333:
 21944 0aa4 6D757465 		.ascii	"mutex\000"
 21944      7800
 21945              	.LASF476:
 21946 0aaa 73697A65 		.ascii	"size\000"
 21946      00
 21947              	.LASF749:
 21948 0aaf 706F3830 		.ascii	"po8030_get_image_size\000"
 21948      33305F67 
 21948      65745F69 
 21948      6D616765 
 21948      5F73697A 
 21949              	.LASF381:
 21950 0ac5 44414344 		.ascii	"DACDriver\000"
 21950      72697665 
 21950      7200
 21951              	.LASF397:
 21952 0acf 44414343 		.ascii	"DACConfig\000"
 21952      6F6E6669 
 21952      6700
 21953              	.LASF563:
 21954 0ad9 74787065 		.ascii	"txpending\000"
 21954      6E64696E 
 21954      6700
 21955              	.LASF418:
 21956 0ae3 636C6F63 		.ascii	"clock\000"
 21956      6B00
 21957              	.LASF285:
 21958 0ae9 636C6561 		.ascii	"clear\000"
 21958      7200
 21959              	.LASF428:
 21960 0aef 43435852 		.ascii	"CCXR\000"
 21960      00
 21961              	.LASF133:
 21962 0af4 43414E5F 		.ascii	"CAN_TypeDef\000"
 21962      54797065 
 21962      44656600 
 21963              	.LASF187:
 21964 0b00 63685F73 		.ascii	"ch_swc_event_t\000"
 21964      77635F65 
 21964      76656E74 
 21964      5F7400
 21965              	.LASF500:
 21966 0b0f 53445F53 		.ascii	"SD_STOP\000"
 21966      544F5000 
 21967              	.LASF597:
 21968 0b17 72657376 		.ascii	"resvd8\000"
 21968      643800
 21969              	.LASF4:
 21970 0b1e 73697A65 		.ascii	"size_t\000"
ARM GAS  /tmp/cczbsEFl.s 			page 396


 21970      5F7400
 21971              	.LASF90:
 21972 0b25 6B65726E 		.ascii	"kernel_stats\000"
 21972      656C5F73 
 21972      74617473 
 21972      00
 21973              	.LASF664:
 21974 0b32 72657376 		.ascii	"resvd880\000"
 21974      64383830 
 21974      00
 21975              	.LASF11:
 21976 0b3b 75696E74 		.ascii	"uint8_t\000"
 21976      385F7400 
 21977              	.LASF792:
 21978 0b43 2E2F2F73 		.ascii	".//src/camera/po8030.c\000"
 21978      72632F63 
 21978      616D6572 
 21978      612F706F 
 21978      38303330 
 21979              	.LASF601:
 21980 0b5a 72657376 		.ascii	"resvd14\000"
 21980      64313400 
 21981              	.LASF602:
 21982 0b62 72657376 		.ascii	"resvd18\000"
 21982      64313800 
 21983              	.LASF66:
 21984 0b6a 725F6F6C 		.ascii	"r_older\000"
 21984      64657200 
 21985              	.LASF34:
 21986 0b72 705F7072 		.ascii	"p_prev\000"
 21986      657600
 21987              	.LASF231:
 21988 0b79 63665F6F 		.ascii	"cf_off_name\000"
 21988      66665F6E 
 21988      616D6500 
 21989              	.LASF493:
 21990 0b85 50574D43 		.ascii	"PWMChannelConfig\000"
 21990      68616E6E 
 21990      656C436F 
 21990      6E666967 
 21990      00
 21991              	.LASF492:
 21992 0b96 70776D63 		.ascii	"pwmcnt_t\000"
 21992      6E745F74 
 21992      00
 21993              	.LASF660:
 21994 0b9f 44494550 		.ascii	"DIEPEMPMSK\000"
 21994      454D504D 
 21994      534B00
 21995              	.LASF605:
 21996 0baa 44494550 		.ascii	"DIEPCTL\000"
 21996      43544C00 
 21997              	.LASF247:
 21998 0bb2 656C5F77 		.ascii	"el_wflags\000"
 21998      666C6167 
 21998      7300
 21999              	.LASF561:
ARM GAS  /tmp/cczbsEFl.s 			page 397


 22000 0bbc 6F746770 		.ascii	"otgparams\000"
 22000      6172616D 
 22000      7300
 22001              	.LASF188:
 22002 0bc6 74625F73 		.ascii	"tb_size\000"
 22002      697A6500 
 22003              	.LASF305:
 22004 0bce 50444461 		.ascii	"PDData\000"
 22004      746100
 22005              	.LASF525:
 22006 0bd5 73637261 		.ascii	"scratchpad\000"
 22006      74636870 
 22006      616400
 22007              	.LASF694:
 22008 0be0 6F75745F 		.ascii	"out_state\000"
 22008      73746174 
 22008      6500
 22009              	.LASF251:
 22010 0bea 696F5F71 		.ascii	"io_queue_t\000"
 22010      75657565 
 22010      5F7400
 22011              	.LASF541:
 22012 0bf5 73706973 		.ascii	"spistate_t\000"
 22012      74617465 
 22012      5F7400
 22013              	.LASF438:
 22014 0c00 4932435F 		.ascii	"I2C_STOP\000"
 22014      53544F50 
 22014      00
 22015              	.LASF460:
 22016 0c09 61646472 		.ascii	"addr\000"
 22016      00
 22017              	.LASF118:
 22018 0c0e 52463052 		.ascii	"RF0R\000"
 22018      00
 22019              	.LASF323:
 22020 0c13 4144435F 		.ascii	"ADC_ERR_DMAFAILURE\000"
 22020      4552525F 
 22020      444D4146 
 22020      41494C55 
 22020      524500
 22021              	.LASF539:
 22022 0c26 5350495F 		.ascii	"SPI_ACTIVE\000"
 22022      41435449 
 22022      564500
 22023              	.LASF407:
 22024 0c31 45585443 		.ascii	"EXTChannelConfig\000"
 22024      68616E6E 
 22024      656C436F 
 22024      6E666967 
 22024      00
 22025              	.LASF288:
 22026 0c42 4F535045 		.ascii	"OSPEEDR\000"
 22026      45445200 
 22027              	.LASF371:
 22028 0c4a 4441435F 		.ascii	"DAC_READY\000"
 22028      52454144 
ARM GAS  /tmp/cczbsEFl.s 			page 398


 22028      5900
 22029              	.LASF629:
 22030 0c54 72657376 		.ascii	"resvd30\000"
 22030      64333000 
 22031              	.LASF630:
 22032 0c5c 72657376 		.ascii	"resvd34\000"
 22032      64333400 
 22033              	.LASF658:
 22034 0c64 44564255 		.ascii	"DVBUSPULSE\000"
 22034      5350554C 
 22034      534500
 22035              	.LASF272:
 22036 0c6f 424C4B5F 		.ascii	"BLK_STOP\000"
 22036      53544F50 
 22036      00
 22037              	.LASF508:
 22038 0c78 53657269 		.ascii	"SerialDriverVMT\000"
 22038      616C4472 
 22038      69766572 
 22038      564D5400 
 22039              	.LASF579:
 22040 0c88 5553425F 		.ascii	"USB_EP0_ERROR\000"
 22040      4550305F 
 22040      4552524F 
 22040      5200
 22041              	.LASF531:
 22042 0c96 636F6E6E 		.ascii	"connect\000"
 22042      65637400 
 22043              	.LASF119:
 22044 0c9e 52463152 		.ascii	"RF1R\000"
 22044      00
 22045              	.LASF326:
 22046 0ca3 41444344 		.ascii	"ADCDriver\000"
 22046      72697665 
 22046      7200
 22047              	.LASF672:
 22048 0cad 6E756D5F 		.ascii	"num_endpoints\000"
 22048      656E6470 
 22048      6F696E74 
 22048      7300
 22049              	.LASF349:
 22050 0cbb 41444343 		.ascii	"ADCConfig\000"
 22050      6F6E6669 
 22050      6700
 22051              	.LASF680:
 22052 0cc5 746F7473 		.ascii	"totsize\000"
 22052      697A6500 
 22053              	.LASF501:
 22054 0ccd 53445F52 		.ascii	"SD_READY\000"
 22054      45414459 
 22054      00
 22055              	.LASF595:
 22056 0cd6 75736267 		.ascii	"usbgetdescriptor_t\000"
 22056      65746465 
 22056      73637269 
 22056      70746F72 
 22056      5F7400
ARM GAS  /tmp/cczbsEFl.s 			page 399


 22057              	.LASF374:
 22058 0ce9 4441435F 		.ascii	"DAC_ERROR\000"
 22058      4552524F 
 22058      5200
 22059              	.LASF574:
 22060 0cf3 5553425F 		.ascii	"USB_EP0_TX\000"
 22060      4550305F 
 22060      545800
 22061              	.LASF553:
 22062 0cfe 65703073 		.ascii	"ep0state\000"
 22062      74617465 
 22062      00
 22063              	.LASF265:
 22064 0d07 69666372 		.ascii	"ifcr\000"
 22064      00
 22065              	.LASF466:
 22066 0d0c 4932535F 		.ascii	"I2S_UNINIT\000"
 22066      554E494E 
 22066      495400
 22067              	.LASF710:
 22068 0d17 62756C6B 		.ascii	"bulk_in\000"
 22068      5F696E00 
 22069              	.LASF294:
 22070 0d1f 73746D33 		.ascii	"stm32_gpio_t\000"
 22070      325F6770 
 22070      696F5F74 
 22070      00
 22071              	.LASF204:
 22072 0d2c 7264796D 		.ascii	"rdymsg\000"
 22072      736700
 22073              	.LASF483:
 22074 0d33 50574D5F 		.ascii	"PWM_READY\000"
 22074      52454144 
 22074      5900
 22075              	.LASF109:
 22076 0d3d 54445452 		.ascii	"TDTR\000"
 22076      00
 22077              	.LASF117:
 22078 0d42 43414E5F 		.ascii	"CAN_FilterRegister_TypeDef\000"
 22078      46696C74 
 22078      65725265 
 22078      67697374 
 22078      65725F54 
 22079              	.LASF364:
 22080 0d5d 6572726F 		.ascii	"error_event\000"
 22080      725F6576 
 22080      656E7400 
 22081              	.LASF339:
 22082 0d69 6E756D5F 		.ascii	"num_channels\000"
 22082      6368616E 
 22082      6E656C73 
 22082      00
 22083              	.LASF632:
 22084 0d76 72657376 		.ascii	"resvd58\000"
 22084      64353800 
 22085              	.LASF681:
 22086 0d7e 55534249 		.ascii	"USBInEndpointState\000"
ARM GAS  /tmp/cczbsEFl.s 			page 400


 22086      6E456E64 
 22086      706F696E 
 22086      74537461 
 22086      746500
 22087              	.LASF35:
 22088 0d91 705F7072 		.ascii	"p_prio\000"
 22088      696F00
 22089              	.LASF252:
 22090 0d98 696F5F71 		.ascii	"io_queue\000"
 22090      75657565 
 22090      00
 22091              	.LASF739:
 22092 0da1 73756273 		.ascii	"subsampling_t\000"
 22092      616D706C 
 22092      696E675F 
 22092      7400
 22093              	.LASF764:
 22094 0daf 73756273 		.ascii	"subsampling_x\000"
 22094      616D706C 
 22094      696E675F 
 22094      7800
 22095              	.LASF765:
 22096 0dbd 73756273 		.ascii	"subsampling_y\000"
 22096      616D706C 
 22096      696E675F 
 22096      7900
 22097              	.LASF302:
 22098 0dcb 50414461 		.ascii	"PAData\000"
 22098      746100
 22099              	.LASF748:
 22100 0dd2 53445531 		.ascii	"SDU1\000"
 22100      00
 22101              	.LASF488:
 22102 0dd7 70776D63 		.ascii	"pwmcallback_t\000"
 22102      616C6C62 
 22102      61636B5F 
 22102      7400
 22103              	.LASF382:
 22104 0de5 70617261 		.ascii	"params\000"
 22104      6D7300
 22105              	.LASF578:
 22106 0dec 5553425F 		.ascii	"USB_EP0_SENDING_STS\000"
 22106      4550305F 
 22106      53454E44 
 22106      494E475F 
 22106      53545300 
 22107              	.LASF712:
 22108 0e00 696E745F 		.ascii	"int_in\000"
 22108      696E00
 22109              	.LASF443:
 22110 0e07 69326373 		.ascii	"i2cstate_t\000"
 22110      74617465 
 22110      5F7400
 22111              	.LASF580:
 22112 0e12 75736265 		.ascii	"usbep0state_t\000"
 22112      70307374 
 22112      6174655F 
ARM GAS  /tmp/cczbsEFl.s 			page 401


 22112      7400
 22113              	.LASF386:
 22114 0e20 64616365 		.ascii	"dacerror_t\000"
 22114      72726F72 
 22114      5F7400
 22115              	.LASF121:
 22116 0e2b 7354784D 		.ascii	"sTxMailBox\000"
 22116      61696C42 
 22116      6F7800
 22117              	.LASF321:
 22118 0e36 61646373 		.ascii	"adcsample_t\000"
 22118      616D706C 
 22118      655F7400 
 22119              	.LASF419:
 22120 0e42 67707463 		.ascii	"gptcallback_t\000"
 22120      616C6C62 
 22120      61636B5F 
 22120      7400
 22121              	.LASF255:
 22122 0e50 715F6275 		.ascii	"q_buffer\000"
 22122      66666572 
 22122      00
 22123              	.LASF33:
 22124 0e59 705F6E65 		.ascii	"p_next\000"
 22124      787400
 22125              	.LASF465:
 22126 0e60 49324344 		.ascii	"I2CD1\000"
 22126      3100
 22127              	.LASF606:
 22128 0e66 72657376 		.ascii	"resvd4\000"
 22128      643400
 22129              	.LASF730:
 22130 0e6d 464F524D 		.ascii	"FORMAT_YYYY\000"
 22130      41545F59 
 22130      59595900 
 22131              	.LASF548:
 22132 0e79 55534244 		.ascii	"USBDriver\000"
 22132      72697665 
 22132      7200
 22133              	.LASF665:
 22134 0e83 72657376 		.ascii	"resvd8C0\000"
 22134      64384330 
 22134      00
 22135              	.LASF702:
 22136 0e8c 55534243 		.ascii	"USBConfig\000"
 22136      6F6E6669 
 22136      6700
 22137              	.LASF608:
 22138 0e96 72657376 		.ascii	"resvdC\000"
 22138      644300
 22139              	.LASF495:
 22140 0e9d 50574D44 		.ascii	"PWMD2\000"
 22140      3200
 22141              	.LASF496:
 22142 0ea3 50574D44 		.ascii	"PWMD3\000"
 22142      3300
 22143              	.LASF497:
ARM GAS  /tmp/cczbsEFl.s 			page 402


 22144 0ea9 50574D44 		.ascii	"PWMD4\000"
 22144      3400
 22145              	.LASF498:
 22146 0eaf 50574D44 		.ascii	"PWMD5\000"
 22146      3500
 22147              	.LASF506:
 22148 0eb5 6F717565 		.ascii	"oqueue\000"
 22148      756500
 22149              	.LASF23:
 22150 0ebc 74726566 		.ascii	"trefs_t\000"
 22150      735F7400 
 22151              	.LASF52:
 22152 0ec4 705F6D70 		.ascii	"p_mpool\000"
 22152      6F6F6C00 
 22153              	.LASF725:
 22154 0ecc 464F524D 		.ascii	"FORMAT_BGR565\000"
 22154      41545F42 
 22154      47523536 
 22154      3500
 22155              	.LASF394:
 22156 0eda 44414343 		.ascii	"DACConversionGroup\000"
 22156      6F6E7665 
 22156      7273696F 
 22156      6E47726F 
 22156      757000
 22157              	.LASF731:
 22158 0eed 666F726D 		.ascii	"format_t\000"
 22158      61745F74 
 22158      00
 22159              	.LASF695:
 22160 0ef6 696E5F6D 		.ascii	"in_multiplier\000"
 22160      756C7469 
 22160      706C6965 
 22160      7200
 22161              	.LASF319:
 22162 0f04 4144435F 		.ascii	"ADC_ERROR\000"
 22162      4552524F 
 22162      5200
 22163              	.LASF762:
 22164 0f0e 706F3830 		.ascii	"po8030_set_brightness\000"
 22164      33305F73 
 22164      65745F62 
 22164      72696768 
 22164      746E6573 
 22165              	.LASF21:
 22166 0f24 746D6F64 		.ascii	"tmode_t\000"
 22166      655F7400 
 22167              	.LASF317:
 22168 0f2c 4144435F 		.ascii	"ADC_ACTIVE\000"
 22168      41435449 
 22168      564500
 22169              	.LASF100:
 22170 0f37 53515231 		.ascii	"SQR1\000"
 22170      00
 22171              	.LASF101:
 22172 0f3c 53515232 		.ascii	"SQR2\000"
 22172      00
ARM GAS  /tmp/cczbsEFl.s 			page 403


 22173              	.LASF102:
 22174 0f41 53515233 		.ascii	"SQR3\000"
 22174      00
 22175              	.LASF290:
 22176 0f46 42535252 		.ascii	"BSRR\000"
 22176      00
 22177              	.LASF269:
 22178 0f4b 73746D33 		.ascii	"stm32_dma_stream_t\000"
 22178      325F646D 
 22178      615F7374 
 22178      7265616D 
 22178      5F7400
 22179              	.LASF700:
 22180 0f5e 72657175 		.ascii	"requests_hook_cb\000"
 22180      65737473 
 22180      5F686F6F 
 22180      6B5F6362 
 22180      00
 22181              	.LASF517:
 22182 0f6f 5344435F 		.ascii	"SDC_MODE_8BIT\000"
 22182      4D4F4445 
 22182      5F384249 
 22182      5400
 22183              	.LASF779:
 22184 0f7d 706F3830 		.ascii	"po8030_set_qvga\000"
 22184      33305F73 
 22184      65745F71 
 22184      76676100 
 22185              	.LASF678:
 22186 0f8d 74787369 		.ascii	"txsize\000"
 22186      7A6500
 22187              	.LASF390:
 22188 0f94 4441435F 		.ascii	"DAC_DHRM_12BIT_LEFT\000"
 22188      4448524D 
 22188      5F313242 
 22188      49545F4C 
 22188      45465400 
 22189              	.LASF486:
 22190 0fa8 70657269 		.ascii	"period\000"
 22190      6F6400
 22191              	.LASF442:
 22192 0faf 4932435F 		.ascii	"I2C_LOCKED\000"
 22192      4C4F434B 
 22192      454400
 22193              	.LASF82:
 22194 0fba 6973725F 		.ascii	"isr_cnt\000"
 22194      636E7400 
 22195              	.LASF569:
 22196 0fc2 5553425F 		.ascii	"USB_READY\000"
 22196      52454144 
 22196      5900
 22197              	.LASF514:
 22198 0fcc 72656164 		.ascii	"readt\000"
 22198      7400
 22199              	.LASF621:
 22200 0fd2 47525354 		.ascii	"GRSTCTL\000"
 22200      43544C00 
ARM GAS  /tmp/cczbsEFl.s 			page 404


 22201              	.LASF416:
 22202 0fda 67707473 		.ascii	"gptstate_t\000"
 22202      74617465 
 22202      5F7400
 22203              	.LASF5:
 22204 0fe5 696E7438 		.ascii	"int8_t\000"
 22204      5F7400
 22205              	.LASF81:
 22206 0fec 70616E69 		.ascii	"panic_msg\000"
 22206      635F6D73 
 22206      6700
 22207              	.LASF540:
 22208 0ff6 5350495F 		.ascii	"SPI_COMPLETE\000"
 22208      434F4D50 
 22208      4C455445 
 22208      00
 22209              	.LASF791:
 22210 1003 474E5520 		.ascii	"GNU C17 9.2.1 20191025 (release) [ARM/arm-9-branch "
 22210      43313720 
 22210      392E322E 
 22210      31203230 
 22210      31393130 
 22211 1036 72657669 		.ascii	"revision 277599] -mcpu=cortex-m4 -mfloat-abi=hard -"
 22211      73696F6E 
 22211      20323737 
 22211      3539395D 
 22211      202D6D63 
 22212 1069 6D667075 		.ascii	"mfpu=fpv4-sp-d16 -mno-thumb-interwork -mthumb -marc"
 22212      3D667076 
 22212      342D7370 
 22212      2D643136 
 22212      202D6D6E 
 22213 109c 683D6172 		.ascii	"h=armv7e-m+fp -ggdb -O2 -fomit-frame-pointer -falig"
 22213      6D763765 
 22213      2D6D2B66 
 22213      70202D67 
 22213      67646220 
 22214 10cf 6E2D6675 		.ascii	"n-functions=16 -fno-strict-aliasing -fstack-protect"
 22214      6E637469 
 22214      6F6E733D 
 22214      3136202D 
 22214      666E6F2D 
 22215 1102 6F722D61 		.ascii	"or-all -ffunction-sections -fdata-sections -fno-com"
 22215      6C6C202D 
 22215      6666756E 
 22215      6374696F 
 22215      6E2D7365 
 22216 1135 6D6F6E20 		.ascii	"mon -fsingle-precision-constant\000"
 22216      2D667369 
 22216      6E676C65 
 22216      2D707265 
 22216      63697369 
 22217              	.LASF65:
 22218 1155 725F6E65 		.ascii	"r_newer\000"
 22218      77657200 
 22219              	.LASF586:
 22220 115d 5553425F 		.ascii	"USB_EVENT_STALLED\000"
ARM GAS  /tmp/cczbsEFl.s 			page 405


 22220      4556454E 
 22220      545F5354 
 22220      414C4C45 
 22220      4400
 22221              	.LASF238:
 22222 116f 63686465 		.ascii	"chdebug_t\000"
 22222      6275675F 
 22222      7400
 22223              	.LASF684:
 22224 1179 72787369 		.ascii	"rxsize\000"
 22224      7A6500
 22225              	.LASF600:
 22226 1180 48435453 		.ascii	"HCTSIZ\000"
 22226      495A00
 22227              	.LASF583:
 22228 1187 5553425F 		.ascii	"USB_EVENT_CONFIGURED\000"
 22228      4556454E 
 22228      545F434F 
 22228      4E464947 
 22228      55524544 
 22229              	.LASF532:
 22230 119c 64697363 		.ascii	"disconnect\000"
 22230      6F6E6E65 
 22230      637400
 22231              	.LASF511:
 22232 11a7 70757474 		.ascii	"putt\000"
 22232      00
 22233              	.LASF24:
 22234 11ac 74736C69 		.ascii	"tslices_t\000"
 22234      6365735F 
 22234      7400
 22235              	.LASF225:
 22236 11b6 63685F74 		.ascii	"ch_timesize\000"
 22236      696D6573 
 22236      697A6500 
 22237              	.LASF565:
 22238 11c2 77615F70 		.ascii	"wa_pump\000"
 22238      756D7000 
 22239              	.LASF168:
 22240 11ca 4649464F 		.ascii	"FIFOCNT\000"
 22240      434E5400 
 22241              	.LASF250:
 22242 11d2 6576656E 		.ascii	"event_source_t\000"
 22242      745F736F 
 22242      75726365 
 22242      5F7400
 22243              	.LASF635:
 22244 11e1 72657376 		.ascii	"resvd140\000"
 22244      64313430 
 22244      00
 22245              	.LASF73:
 22246 11ea 76745F64 		.ascii	"vt_delta\000"
 22246      656C7461 
 22246      00
 22247              	.LASF189:
 22248 11f3 74625F70 		.ascii	"tb_ptr\000"
 22248      747200
ARM GAS  /tmp/cczbsEFl.s 			page 406


 22249              	.LASF393:
 22250 11fa 74726967 		.ascii	"trigger\000"
 22250      67657200 
 22251              	.LASF584:
 22252 1202 5553425F 		.ascii	"USB_EVENT_SUSPEND\000"
 22252      4556454E 
 22252      545F5355 
 22252      5350454E 
 22252      4400
 22253              	.LASF7:
 22254 1214 696E7431 		.ascii	"int16_t\000"
 22254      365F7400 
 22255              	.LASF412:
 22256 121c 4750545F 		.ascii	"GPT_STOP\000"
 22256      53544F50 
 22256      00
 22257              	.LASF108:
 22258 1225 4144435F 		.ascii	"ADC_TypeDef\000"
 22258      54797065 
 22258      44656600 
 22259              	.LASF14:
 22260 1231 73686F72 		.ascii	"short unsigned int\000"
 22260      7420756E 
 22260      7369676E 
 22260      65642069 
 22260      6E7400
 22261              	.LASF454:
 22262 1244 6F705F6D 		.ascii	"op_mode\000"
 22262      6F646500 
 22263              	.LASF6:
 22264 124c 7369676E 		.ascii	"signed char\000"
 22264      65642063 
 22264      68617200 
 22265              	.LASF523:
 22266 1258 63617264 		.ascii	"cardmode\000"
 22266      6D6F6465 
 22266      00
 22267              	.LASF44:
 22268 1261 705F7072 		.ascii	"p_preempt\000"
 22268      65656D70 
 22268      7400
 22269              	.LASF757:
 22270 126b 706F3830 		.ascii	"po8030_set_awb\000"
 22270      33305F73 
 22270      65745F61 
 22270      776200
 22271              	.LASF30:
 22272 127a 75636E74 		.ascii	"ucnt_t\000"
 22272      5F7400
 22273              	.LASF111:
 22274 1281 54444852 		.ascii	"TDHR\000"
 22274      00
 22275              	.LASF315:
 22276 1286 4144435F 		.ascii	"ADC_STOP\000"
 22276      53544F50 
 22276      00
 22277              	.LASF577:
ARM GAS  /tmp/cczbsEFl.s 			page 407


 22278 128f 5553425F 		.ascii	"USB_EP0_RX\000"
 22278      4550305F 
 22278      525800
 22279              	.LASF489:
 22280 129a 70776D6D 		.ascii	"pwmmode_t\000"
 22280      6F64655F 
 22280      7400
 22281              	.LASF558:
 22282 12a4 73746174 		.ascii	"status\000"
 22282      757300
 22283              	.LASF164:
 22284 12ab 444C454E 		.ascii	"DLEN\000"
 22284      00
 22285              	.LASF516:
 22286 12b0 5344435F 		.ascii	"SDC_MODE_4BIT\000"
 22286      4D4F4445 
 22286      5F344249 
 22286      5400
 22287              	.LASF590:
 22288 12be 55534244 		.ascii	"USBDescriptor\000"
 22288      65736372 
 22288      6970746F 
 22288      7200
 22289              	.LASF543:
 22290 12cc 73706963 		.ascii	"spicallback_t\000"
 22290      616C6C62 
 22290      61636B5F 
 22290      7400
 22291              	.LASF559:
 22292 12da 61646472 		.ascii	"address\000"
 22292      65737300 
 22293              	.LASF47:
 22294 12e2 705F6D73 		.ascii	"p_msgqueue\000"
 22294      67717565 
 22294      756500
 22295              	.LASF235:
 22296 12ed 63665F6F 		.ascii	"cf_off_refs\000"
 22296      66665F72 
 22296      65667300 
 22297              	.LASF527:
 22298 12f9 53444343 		.ascii	"SDCConfig\000"
 22298      6F6E6669 
 22298      6700
 22299              	.LASF216:
 22300 1303 6D5F6F77 		.ascii	"m_owner\000"
 22300      6E657200 
 22301              	.LASF93:
 22302 130b 53797374 		.ascii	"SystemCoreClock\000"
 22302      656D436F 
 22302      7265436C 
 22302      6F636B00 
 22303              	.LASF337:
 22304 131b 61646365 		.ascii	"adcerrorcallback_t\000"
 22304      72726F72 
 22304      63616C6C 
 22304      6261636B 
 22304      5F7400
ARM GAS  /tmp/cczbsEFl.s 			page 408


 22305              	.LASF372:
 22306 132e 4441435F 		.ascii	"DAC_ACTIVE\000"
 22306      41435449 
 22306      564500
 22307              	.LASF327:
 22308 1339 73746174 		.ascii	"state\000"
 22308      6500
 22309              	.LASF727:
 22310 133f 464F524D 		.ascii	"FORMAT_RGB444\000"
 22310      41545F52 
 22310      47423434 
 22310      3400
 22311              	.LASF223:
 22312 134d 63685F76 		.ascii	"ch_version\000"
 22312      65727369 
 22312      6F6E00
 22313              	.LASF524:
 22314 1358 7364696F 		.ascii	"sdio\000"
 22314      00
 22315              	.LASF134:
 22316 135d 53575452 		.ascii	"SWTRIGR\000"
 22316      49475200 
 22317              	.LASF576:
 22318 1365 5553425F 		.ascii	"USB_EP0_WAITING_STS\000"
 22318      4550305F 
 22318      57414954 
 22318      494E475F 
 22318      53545300 
 22319              	.LASF155:
 22320 1379 4932435F 		.ascii	"I2C_TypeDef\000"
 22320      54797065 
 22320      44656600 
 22321              	.LASF115:
 22322 1385 52444852 		.ascii	"RDHR\000"
 22322      00
 22323              	.LASF720:
 22324 138a 464F524D 		.ascii	"FORMAT_GBRG\000"
 22324      41545F47 
 22324      42524700 
 22325              	.LASF426:
 22326 1396 444D4152 		.ascii	"DMAR\000"
 22326      00
 22327              	.LASF432:
 22328 139b 63616C6C 		.ascii	"callback\000"
 22328      6261636B 
 22328      00
 22329              	.LASF776:
 22330 13a4 706F3830 		.ascii	"po8030_set_size\000"
 22330      33305F73 
 22330      65745F73 
 22330      697A6500 
 22331              	.LASF86:
 22332 13b4 63685F73 		.ascii	"ch_system\000"
 22332      79737465 
 22332      6D00
 22333              	.LASF156:
 22334 13be 504F5745 		.ascii	"POWER\000"
ARM GAS  /tmp/cczbsEFl.s 			page 409


 22334      5200
 22335              	.LASF84:
 22336 13c4 74726163 		.ascii	"trace_buffer\000"
 22336      655F6275 
 22336      66666572 
 22336      00
 22337              	.LASF391:
 22338 13d1 4441435F 		.ascii	"DAC_DHRM_8BIT_RIGHT\000"
 22338      4448524D 
 22338      5F384249 
 22338      545F5249 
 22338      47485400 
 22339              	.LASF411:
 22340 13e5 4750545F 		.ascii	"GPT_UNINIT\000"
 22340      554E494E 
 22340      495400
 22341              	.LASF211:
 22342 13f0 63685F73 		.ascii	"ch_semaphore\000"
 22342      656D6170 
 22342      686F7265 
 22342      00
 22343              	.LASF784:
 22344 13fd 706F3830 		.ascii	"po8030_read_id\000"
 22344      33305F72 
 22344      6561645F 
 22344      696400
 22345              	.LASF714:
 22346 140c 53657269 		.ascii	"SerialUSBDriverVMT\000"
 22346      616C5553 
 22346      42447269 
 22346      76657256 
 22346      4D5400
 22347              	.LASF609:
 22348 141f 44494550 		.ascii	"DIEPTSIZ\000"
 22348      5453495A 
 22348      00
 22349              	.LASF342:
 22350 1428 736D7072 		.ascii	"smpr1\000"
 22350      3100
 22351              	.LASF343:
 22352 142e 736D7072 		.ascii	"smpr2\000"
 22352      3200
 22353              	.LASF58:
 22354 1434 74687265 		.ascii	"threads_queue_t\000"
 22354      6164735F 
 22354      71756575 
 22354      655F7400 
 22355              	.LASF280:
 22356 1444 626C6B73 		.ascii	"blkstate_t\000"
 22356      74617465 
 22356      5F7400
 22357              	.LASF45:
 22358 144f 705F7469 		.ascii	"p_time\000"
 22358      6D6500
 22359              	.LASF43:
 22360 1456 705F7265 		.ascii	"p_refs\000"
 22360      667300
ARM GAS  /tmp/cczbsEFl.s 			page 410


 22361              	.LASF687:
 22362 145d 65705F6D 		.ascii	"ep_mode\000"
 22362      6F646500 
 22363              	.LASF490:
 22364 1465 70776D63 		.ascii	"pwmchannel_t\000"
 22364      68616E6E 
 22364      656C5F74 
 22364      00
 22365              	.LASF110:
 22366 1472 54444C52 		.ascii	"TDLR\000"
 22366      00
 22367              	.LASF10:
 22368 1477 6C6F6E67 		.ascii	"long int\000"
 22368      20696E74 
 22368      00
 22369              	.LASF89:
 22370 1480 6D61696E 		.ascii	"mainthread\000"
 22370      74687265 
 22370      616400
 22371              	.LASF555:
 22372 148b 6570306E 		.ascii	"ep0n\000"
 22372      00
 22373              	.LASF668:
 22374 1490 72657376 		.ascii	"resvdE04\000"
 22374      64453034 
 22374      00
 22375              	.LASF215:
 22376 1499 6D5F7175 		.ascii	"m_queue\000"
 22376      65756500 
 22377              	.LASF379:
 22378 14a1 646D6169 		.ascii	"dmairqprio\000"
 22378      72717072 
 22378      696F00
 22379              	.LASF417:
 22380 14ac 47505444 		.ascii	"GPTDriver\000"
 22380      72697665 
 22380      7200
 22381              	.LASF520:
 22382 14b6 73646366 		.ascii	"sdcflags_t\000"
 22382      6C616773 
 22382      5F7400
 22383              	.LASF309:
 22384 14c1 50484461 		.ascii	"PHData\000"
 22384      746100
 22385              	.LASF312:
 22386 14c8 696F706F 		.ascii	"ioportid_t\000"
 22386      72746964 
 22386      5F7400
 22387              	.LASF770:
 22388 14d3 7363616C 		.ascii	"scale_th\000"
 22388      655F7468 
 22388      00
 22389              	.LASF350:
 22390 14dc 41444344 		.ascii	"ADCD1\000"
 22390      3100
 22391              	.LASF351:
 22392 14e2 41444344 		.ascii	"ADCD2\000"
ARM GAS  /tmp/cczbsEFl.s 			page 411


 22392      3200
 22393              	.LASF352:
 22394 14e8 41444344 		.ascii	"ADCD3\000"
 22394      3300
 22395              	.LASF636:
 22396 14ee 48434647 		.ascii	"HCFG\000"
 22396      00
 22397              	.LASF335:
 22398 14f3 646D616D 		.ascii	"dmamode\000"
 22398      6F646500 
 22399              	.LASF197:
 22400 14fb 63756D75 		.ascii	"cumulative\000"
 22400      6C617469 
 22400      766500
 22401              	.LASF547:
 22402 1506 53504944 		.ascii	"SPID1\000"
 22402      3100
 22403              	.LASF512:
 22404 150c 67657474 		.ascii	"gett\000"
 22404      00
 22405              	.LASF207:
 22406 1511 77747472 		.ascii	"wttrp\000"
 22406      7000
 22407              	.LASF258:
 22408 1517 715F7264 		.ascii	"q_rdptr\000"
 22408      70747200 
 22409              	.LASF181:
 22410 151f 636F6E74 		.ascii	"context\000"
 22410      65787400 
 22411              	.LASF509:
 22412 1527 77726974 		.ascii	"write\000"
 22412      6500
 22413              	.LASF505:
 22414 152d 69717565 		.ascii	"iqueue\000"
 22414      756500
 22415              	.LASF689:
 22416 1534 696E5F63 		.ascii	"in_cb\000"
 22416      6200
 22417              	.LASF614:
 22418 153a 444F4550 		.ascii	"DOEPINT\000"
 22418      494E5400 
 22419              	.LASF196:
 22420 1542 6C617374 		.ascii	"last\000"
 22420      00
 22421              	.LASF718:
 22422 1547 464F524D 		.ascii	"FORMAT_YCRYCB\000"
 22422      41545F59 
 22422      43525943 
 22422      4200
 22423              	.LASF291:
 22424 1555 4C434B52 		.ascii	"LCKR\000"
 22424      00
 22425              	.LASF502:
 22426 155a 73647374 		.ascii	"sdstate_t\000"
 22426      6174655F 
 22426      7400
 22427              	.LASF15:
ARM GAS  /tmp/cczbsEFl.s 			page 412


 22428 1564 75696E74 		.ascii	"uint32_t\000"
 22428      33325F74 
 22428      00
 22429              	.LASF376:
 22430 156d 64617461 		.ascii	"dataoffset\000"
 22430      6F666673 
 22430      657400
 22431              	.LASF278:
 22432 1578 424C4B5F 		.ascii	"BLK_WRITING\000"
 22432      57524954 
 22432      494E4700 
 22433              	.LASF114:
 22434 1584 52444C52 		.ascii	"RDLR\000"
 22434      00
 22435              	.LASF3:
 22436 1589 6C6F6E67 		.ascii	"long double\000"
 22436      20646F75 
 22436      626C6500 
 22437              	.LASF179:
 22438 1595 72656761 		.ascii	"regarm_t\000"
 22438      726D5F74 
 22438      00
 22439              	.LASF771:
 22440 159e 7363616C 		.ascii	"scale_th_f\000"
 22440      655F7468 
 22440      5F6600
 22441              	.LASF27:
 22442 15a9 6576656E 		.ascii	"eventmask_t\000"
 22442      746D6173 
 22442      6B5F7400 
 22443              	.LASF330:
 22444 15b5 64657074 		.ascii	"depth\000"
 22444      6800
 22445              	.LASF128:
 22446 15bb 46464131 		.ascii	"FFA1R\000"
 22446      5200
 22447              	.LASF570:
 22448 15c1 5553425F 		.ascii	"USB_SELECTED\000"
 22448      53454C45 
 22448      43544544 
 22448      00
 22449              	.LASF16:
 22450 15ce 6C6F6E67 		.ascii	"long unsigned int\000"
 22450      20756E73 
 22450      69676E65 
 22450      6420696E 
 22450      7400
 22451              	.LASF469:
 22452 15e0 4932535F 		.ascii	"I2S_ACTIVE\000"
 22452      41435449 
 22452      564500
 22453              	.LASF413:
 22454 15eb 4750545F 		.ascii	"GPT_READY\000"
 22454      52454144 
 22454      5900
 22455              	.LASF375:
 22456 15f5 64616373 		.ascii	"dacstate_t\000"
ARM GAS  /tmp/cczbsEFl.s 			page 413


 22456      74617465 
 22456      5F7400
 22457              	.LASF184:
 22458 1600 73655F74 		.ascii	"se_tp\000"
 22458      7000
 22459              	.LASF257:
 22460 1606 715F7772 		.ascii	"q_wrptr\000"
 22460      70747200 
 22461              	.LASF383:
 22462 160e 64616373 		.ascii	"dacsample_t\000"
 22462      616D706C 
 22462      655F7400 
 22463              	.LASF582:
 22464 161a 5553425F 		.ascii	"USB_EVENT_ADDRESS\000"
 22464      4556454E 
 22464      545F4144 
 22464      44524553 
 22464      5300
 22465              	.LASF477:
 22466 162c 69327363 		.ascii	"i2scfgr\000"
 22466      66677200 
 22467              	.LASF705:
 22468 1634 5344555F 		.ascii	"SDU_STOP\000"
 22468      53544F50 
 22468      00
 22469              	.LASF158:
 22470 163d 52455350 		.ascii	"RESPCMD\000"
 22470      434D4400 
 22471              	.LASF362:
 22472 1645 72786675 		.ascii	"rxfull_event\000"
 22472      6C6C5F65 
 22472      76656E74 
 22472      00
 22473              	.LASF587:
 22474 1652 75736265 		.ascii	"usbevent_t\000"
 22474      76656E74 
 22474      5F7400
 22475              	.LASF219:
 22476 165d 63686172 		.ascii	"char\000"
 22476      00
 22477              	.LASF359:
 22478 1662 43414E43 		.ascii	"CANConfig\000"
 22478      6F6E6669 
 22478      6700
 22479              	.LASF306:
 22480 166c 50454461 		.ascii	"PEData\000"
 22480      746100
 22481              	.LASF62:
 22482 1673 725F7175 		.ascii	"r_queue\000"
 22482      65756500 
 22483              	.LASF773:
 22484 167b 696D6773 		.ascii	"imgsize\000"
 22484      697A6500 
 22485              	.LASF487:
 22486 1683 656E6162 		.ascii	"enabled\000"
 22486      6C656400 
 22487              	.LASF384:
ARM GAS  /tmp/cczbsEFl.s 			page 414


 22488 168b 4441435F 		.ascii	"DAC_ERR_DMAFAILURE\000"
 22488      4552525F 
 22488      444D4146 
 22488      41494C55 
 22488      524500
 22489              	.LASF626:
 22490 169e 47525846 		.ascii	"GRXFSIZ\000"
 22490      53495A00 
 22491              	.LASF533:
 22492 16a6 73796E63 		.ascii	"sync\000"
 22492      00
 22493              	.LASF507:
 22494 16ab 75736172 		.ascii	"usart\000"
 22494      7400
 22495              	.LASF734:
 22496 16b1 53495A45 		.ascii	"SIZE_QQVGA\000"
 22496      5F515156 
 22496      474100
 22497              	.LASF519:
 22498 16bc 7364636D 		.ascii	"sdcmode_t\000"
 22498      6F64655F 
 22498      7400
 22499              	.LASF260:
 22500 16c6 715F6C69 		.ascii	"q_link\000"
 22500      6E6B00
 22501              	.LASF647:
 22502 16cd 44434647 		.ascii	"DCFG\000"
 22502      00
 22503              	.LASF657:
 22504 16d2 44564255 		.ascii	"DVBUSDIS\000"
 22504      53444953 
 22504      00
 22505              	.LASF723:
 22506 16db 464F524D 		.ascii	"FORMAT_RGB565\000"
 22506      41545F52 
 22506      47423536 
 22506      3500
 22507              	.LASF623:
 22508 16e9 47494E54 		.ascii	"GINTMSK\000"
 22508      4D534B00 
 22509              	.LASF628:
 22510 16f1 484E5054 		.ascii	"HNPTXSTS\000"
 22510      58535453 
 22510      00
 22511              	.LASF560:
 22512 16fa 636F6E66 		.ascii	"configuration\000"
 22512      69677572 
 22512      6174696F 
 22512      6E00
 22513              	.LASF721:
 22514 1708 464F524D 		.ascii	"FORMAT_GRBG\000"
 22514      41545F47 
 22514      52424700 
 22515              	.LASF766:
 22516 1714 6175746F 		.ascii	"auto_cw_x1\000"
 22516      5F63775F 
 22516      783100
ARM GAS  /tmp/cczbsEFl.s 			page 415


 22517              	.LASF301:
 22518 171f 73746D33 		.ascii	"stm32_gpio_setup_t\000"
 22518      325F6770 
 22518      696F5F73 
 22518      65747570 
 22518      5F7400
 22519              	.LASF270:
 22520 1732 5F73746D 		.ascii	"_stm32_dma_streams\000"
 22520      33325F64 
 22520      6D615F73 
 22520      74726561 
 22520      6D7300
 22521              	.LASF136:
 22522 1745 44485231 		.ascii	"DHR12L1\000"
 22522      324C3100 
 22523              	.LASF139:
 22524 174d 44485231 		.ascii	"DHR12L2\000"
 22524      324C3200 
 22525              	.LASF518:
 22526 1755 73646362 		.ascii	"sdcbusmode_t\000"
 22526      75736D6F 
 22526      64655F74 
 22526      00
 22527              	.LASF793:
 22528 1762 2F686F6D 		.ascii	"/home/olof/Documents/MICRO-315/micro-315/tp4/lib/e-"
 22528      652F6F6C 
 22528      6F662F44 
 22528      6F63756D 
 22528      656E7473 
 22529 1795 7075636B 		.ascii	"puck2_main-processor\000"
 22529      325F6D61 
 22529      696E2D70 
 22529      726F6365 
 22529      73736F72 
 22530              	.LASF743:
 22531 17aa 63757272 		.ascii	"curr_format\000"
 22531      5F666F72 
 22531      6D617400 
 22532              	.LASF142:
 22533 17b6 44485231 		.ascii	"DHR12LD\000"
 22533      324C4400 
 22534              	.LASF336:
 22535 17be 61646363 		.ascii	"adccallback_t\000"
 22535      616C6C62 
 22535      61636B5F 
 22535      7400
 22536              	.LASF40:
 22537 17cc 705F7374 		.ascii	"p_stklimit\000"
 22537      6B6C696D 
 22537      697400
 22538              	.LASF29:
 22539 17d7 636E745F 		.ascii	"cnt_t\000"
 22539      7400
 22540              	.LASF769:
 22541 17dd 6175746F 		.ascii	"auto_cw_y2\000"
 22541      5F63775F 
 22541      793200
ARM GAS  /tmp/cczbsEFl.s 			page 416


 22542              	.LASF402:
 22543 17e8 65787473 		.ascii	"extstate_t\000"
 22543      74617465 
 22543      5F7400
 22544              	.LASF783:
 22545 17f3 62616E6B 		.ascii	"bank\000"
 22545      00
 22546              	.LASF575:
 22547 17f8 5553425F 		.ascii	"USB_EP0_WAITING_TX0\000"
 22547      4550305F 
 22547      57414954 
 22547      494E475F 
 22547      54583000 
 22548              	.LASF554:
 22549 180c 6570306E 		.ascii	"ep0next\000"
 22549      65787400 
 22550              	.LASF604:
 22551 1814 73746D33 		.ascii	"stm32_otg_host_chn_t\000"
 22551      325F6F74 
 22551      675F686F 
 22551      73745F63 
 22551      686E5F74 
 22552              	.LASF777:
 22553 1829 706F3830 		.ascii	"po8030_set_scale_buffer_size\000"
 22553      33305F73 
 22553      65745F73 
 22553      63616C65 
 22553      5F627566 
 22554              	.LASF293:
 22555 1846 41465248 		.ascii	"AFRH\000"
 22555      00
 22556              	.LASF292:
 22557 184b 4146524C 		.ascii	"AFRL\000"
 22557      00
 22558              	.LASF726:
 22559 1850 464F524D 		.ascii	"FORMAT_BGR565_BYTE_SWAP\000"
 22559      41545F42 
 22559      47523536 
 22559      355F4259 
 22559      54455F53 
 22560              	.LASF236:
 22561 1868 63665F6F 		.ascii	"cf_off_preempt\000"
 22561      66665F70 
 22561      7265656D 
 22561      707400
 22562              	.LASF373:
 22563 1877 4441435F 		.ascii	"DAC_COMPLETE\000"
 22563      434F4D50 
 22563      4C455445 
 22563      00
 22564              	.LASF613:
 22565 1884 444F4550 		.ascii	"DOEPCTL\000"
 22565      43544C00 
 22566              	.LASF599:
 22567 188c 4843494E 		.ascii	"HCINTMSK\000"
 22567      544D534B 
 22567      00
ARM GAS  /tmp/cczbsEFl.s 			page 417


 22568              	.LASF328:
 22569 1895 636F6E66 		.ascii	"config\000"
 22569      696700
 22570              	.LASF436:
 22571 189c 47505444 		.ascii	"GPTD11\000"
 22571      313100
 22572              	.LASF786:
 22573 18a3 77726974 		.ascii	"write_reg\000"
 22573      655F7265 
 22573      6700
 22574              	.LASF274:
 22575 18ad 424C4B5F 		.ascii	"BLK_CONNECTING\000"
 22575      434F4E4E 
 22575      45435449 
 22575      4E4700
 22576              	.LASF369:
 22577 18bc 4441435F 		.ascii	"DAC_UNINIT\000"
 22577      554E494E 
 22577      495400
 22578              	.LASF322:
 22579 18c7 6164635F 		.ascii	"adc_channels_num_t\000"
 22579      6368616E 
 22579      6E656C73 
 22579      5F6E756D 
 22579      5F7400
 22580              	.LASF68:
 22581 18da 76746675 		.ascii	"vtfunc_t\000"
 22581      6E635F74 
 22581      00
 22582              	.LASF116:
 22583 18e3 43414E5F 		.ascii	"CAN_FIFOMailBox_TypeDef\000"
 22583      4649464F 
 22583      4D61696C 
 22583      426F785F 
 22583      54797065 
 22584              	.LASF146:
 22585 18fb 4441435F 		.ascii	"DAC_TypeDef\000"
 22585      54797065 
 22585      44656600 
 22586              	.LASF206:
 22587 1907 77746F62 		.ascii	"wtobjp\000"
 22587      6A7000
 22588              	.LASF389:
 22589 190e 4441435F 		.ascii	"DAC_DHRM_12BIT_RIGHT\000"
 22589      4448524D 
 22589      5F313242 
 22589      49545F52 
 22589      49474854 
 22590              	.LASF51:
 22591 1923 705F7265 		.ascii	"p_realprio\000"
 22591      616C7072 
 22591      696F00
 22592              	.LASF522:
 22593 192e 63617061 		.ascii	"capacity\000"
 22593      63697479 
 22593      00
 22594              	.LASF713:
ARM GAS  /tmp/cczbsEFl.s 			page 418


 22595 1937 53657269 		.ascii	"SerialUSBConfig\000"
 22595      616C5553 
 22595      42436F6E 
 22595      66696700 
 22596              	.LASF259:
 22597 1947 715F6E6F 		.ascii	"q_notify\000"
 22597      74696679 
 22597      00
 22598              	.LASF209:
 22599 1950 77746D74 		.ascii	"wtmtxp\000"
 22599      787000
 22600              	.LASF686:
 22601 1957 5553424F 		.ascii	"USBOutEndpointState\000"
 22601      7574456E 
 22601      64706F69 
 22601      6E745374 
 22601      61746500 
 22602              	.LASF643:
 22603 196b 72657376 		.ascii	"resvd41C\000"
 22603      64343143 
 22603      00
 22604              	.LASF113:
 22605 1974 52445452 		.ascii	"RDTR\000"
 22605      00
 22606              	.LASF282:
 22607 1979 626C6B5F 		.ascii	"blk_num\000"
 22607      6E756D00 
 22608              	.LASF750:
 22609 1981 706F3830 		.ascii	"po8030_set_exposure\000"
 22609      33305F73 
 22609      65745F65 
 22609      78706F73 
 22609      75726500 
 22610              	.LASF794:
 22611 1995 706F3830 		.ascii	"po8030_start\000"
 22611      33305F73 
 22611      74617274 
 22611      00
 22612              	.LASF581:
 22613 19a2 5553425F 		.ascii	"USB_EVENT_RESET\000"
 22613      4556454E 
 22613      545F5245 
 22613      53455400 
 22614              	.LASF719:
 22615 19b2 464F524D 		.ascii	"FORMAT_RGGB\000"
 22615      41545F52 
 22615      47474200 
 22616              	.LASF61:
 22617 19be 63685F72 		.ascii	"ch_ready_list\000"
 22617      65616479 
 22617      5F6C6973 
 22617      7400
 22618              	.LASF289:
 22619 19cc 50555044 		.ascii	"PUPDR\000"
 22619      5200
 22620              	.LASF185:
 22621 19d2 73655F77 		.ascii	"se_wtobjp\000"
ARM GAS  /tmp/cczbsEFl.s 			page 419


 22621      746F626A 
 22621      7000
 22622              	.LASF80:
 22623 19dc 63685F73 		.ascii	"ch_system_debug\000"
 22623      79737465 
 22623      6D5F6465 
 22623      62756700 
 22624              	.LASF654:
 22625 19ec 4441494E 		.ascii	"DAINTMSK\000"
 22625      544D534B 
 22625      00
 22626              	.LASF753:
 22627 19f5 706F3830 		.ascii	"po8030_set_ae\000"
 22627      33305F73 
 22627      65745F61 
 22627      6500
 22628              	.LASF409:
 22629 1a03 45585443 		.ascii	"EXTConfig\000"
 22629      6F6E6669 
 22629      6700
 22630              	.LASF254:
 22631 1a0d 715F636F 		.ascii	"q_counter\000"
 22631      756E7465 
 22631      7200
 22632              	.LASF573:
 22633 1a17 5553425F 		.ascii	"USB_EP0_WAITING_SETUP\000"
 22633      4550305F 
 22633      57414954 
 22633      494E475F 
 22633      53455455 
 22634              	.LASF277:
 22635 1a2d 424C4B5F 		.ascii	"BLK_READING\000"
 22635      52454144 
 22635      494E4700 
 22636              	.LASF299:
 22637 1a39 6166726C 		.ascii	"afrl\000"
 22637      00
 22638              	.LASF676:
 22639 1a3e 71756575 		.ascii	"queue\000"
 22639      6500
 22640              	.LASF556:
 22641 1a44 65703065 		.ascii	"ep0endcb\000"
 22641      6E646362 
 22641      00
 22642              	.LASF267:
 22643 1a4d 73656C66 		.ascii	"selfindex\000"
 22643      696E6465 
 22643      7800
 22644              	.LASF240:
 22645 1a57 6D757465 		.ascii	"mutex_t\000"
 22645      785F7400 
 22646              	.LASF49:
 22647 1a5f 705F6570 		.ascii	"p_epending\000"
 22647      656E6469 
 22647      6E6700
 22648              	.LASF286:
 22649 1a6a 4D4F4445 		.ascii	"MODER\000"
ARM GAS  /tmp/cczbsEFl.s 			page 420


 22649      5200
 22650              	.LASF729:
 22651 1a70 464F524D 		.ascii	"FORMAT_DPC_BAYER\000"
 22651      41545F44 
 22651      50435F42 
 22651      41594552 
 22651      00
 22652              	.LASF741:
 22653 1a81 77696474 		.ascii	"width\000"
 22653      6800
 22654              	.LASF470:
 22655 1a87 4932535F 		.ascii	"I2S_COMPLETE\000"
 22655      434F4D50 
 22655      4C455445 
 22655      00
 22656              	.LASF724:
 22657 1a94 464F524D 		.ascii	"FORMAT_RGB565_BYTE_SWAP\000"
 22657      41545F52 
 22657      47423536 
 22657      355F4259 
 22657      54455F53 
 22658              	.LASF120:
 22659 1aac 52455345 		.ascii	"RESERVED0\000"
 22659      52564544 
 22659      3000
 22660              	.LASF123:
 22661 1ab6 52455345 		.ascii	"RESERVED1\000"
 22661      52564544 
 22661      3100
 22662              	.LASF125:
 22663 1ac0 52455345 		.ascii	"RESERVED2\000"
 22663      52564544 
 22663      3200
 22664              	.LASF127:
 22665 1aca 52455345 		.ascii	"RESERVED3\000"
 22665      52564544 
 22665      3300
 22666              	.LASF129:
 22667 1ad4 52455345 		.ascii	"RESERVED4\000"
 22667      52564544 
 22667      3400
 22668              	.LASF131:
 22669 1ade 52455345 		.ascii	"RESERVED5\000"
 22669      52564544 
 22669      3500
 22670              	.LASF697:
 22671 1ae8 55534245 		.ascii	"USBEndpointConfig\000"
 22671      6E64706F 
 22671      696E7443 
 22671      6F6E6669 
 22671      6700
 22672              	.LASF135:
 22673 1afa 44485231 		.ascii	"DHR12R1\000"
 22673      32523100 
 22674              	.LASF138:
 22675 1b02 44485231 		.ascii	"DHR12R2\000"
 22675      32523200 
ARM GAS  /tmp/cczbsEFl.s 			page 421


 22676              	.LASF405:
 22677 1b0a 65787463 		.ascii	"extcallback_t\000"
 22677      616C6C62 
 22677      61636B5F 
 22677      7400
 22678              	.LASF361:
 22679 1b18 72787175 		.ascii	"rxqueue\000"
 22679      65756500 
 22680              	.LASF183:
 22681 1b20 73655F74 		.ascii	"se_time\000"
 22681      696D6500 
 22682              	.LASF645:
 22683 1b28 72657376 		.ascii	"resvd444\000"
 22683      64343434 
 22683      00
 22684              	.LASF313:
 22685 1b31 70616C5F 		.ascii	"pal_default_config\000"
 22685      64656661 
 22685      756C745F 
 22685      636F6E66 
 22685      696700
 22686              	.LASF331:
 22687 1b44 67727070 		.ascii	"grpp\000"
 22687      00
 22688              	.LASF141:
 22689 1b49 44485231 		.ascii	"DHR12RD\000"
 22689      32524400 
 22690              	.LASF244:
 22691 1b51 656C5F6C 		.ascii	"el_listener\000"
 22691      69737465 
 22691      6E657200 
 22692              	.LASF675:
 22693 1b5d 6C696E65 		.ascii	"linear\000"
 22693      617200
 22694              	.LASF788:
 22695 1b64 6932635F 		.ascii	"i2c_start\000"
 22695      73746172 
 22695      7400
 22696              	.LASF429:
 22697 1b6e 73746D33 		.ascii	"stm32_tim_t\000"
 22697      325F7469 
 22697      6D5F7400 
 22698              	.LASF760:
 22699 1b7a 686F7269 		.ascii	"horizontal\000"
 22699      7A6F6E74 
 22699      616C00
 22700              	.LASF778:
 22701 1b85 706F3830 		.ascii	"po8030_set_qqvga\000"
 22701      33305F73 
 22701      65745F71 
 22701      71766761 
 22701      00
 22702              	.LASF716:
 22703 1b96 464F524D 		.ascii	"FORMAT_CRYCBY\000"
 22703      41545F43 
 22703      52594342 
 22703      5900
ARM GAS  /tmp/cczbsEFl.s 			page 422


 22704              	.LASF63:
 22705 1ba4 725F7072 		.ascii	"r_prio\000"
 22705      696F00
 22706              	.LASF562:
 22707 1bab 706D6E65 		.ascii	"pmnext\000"
 22707      787400
 22708              	.LASF92:
 22709 1bb2 49544D5F 		.ascii	"ITM_RxBuffer\000"
 22709      52784275 
 22709      66666572 
 22709      00
 22710              	.LASF283:
 22711 1bbf 426C6F63 		.ascii	"BlockDeviceInfo\000"
 22711      6B446576 
 22711      69636549 
 22711      6E666F00 
 22712              	.LASF18:
 22713 1bcf 6C6F6E67 		.ascii	"long long unsigned int\000"
 22713      206C6F6E 
 22713      6720756E 
 22713      7369676E 
 22713      65642069 
 22714              	.LASF170:
 22715 1be6 5344494F 		.ascii	"SDIO_TypeDef\000"
 22715      5F547970 
 22715      65446566 
 22715      00
 22716              	.LASF192:
 22717 1bf3 6F666673 		.ascii	"offset\000"
 22717      657400
 22718              	.LASF717:
 22719 1bfa 464F524D 		.ascii	"FORMAT_YCBYCR\000"
 22719      41545F59 
 22719      43425943 
 22719      5200
 22720              	.LASF147:
 22721 1c08 4E445452 		.ascii	"NDTR\000"
 22721      00
 22722              	.LASF249:
 22723 1c0d 65735F6E 		.ascii	"es_next\000"
 22723      65787400 
 22724              	.LASF758:
 22725 1c15 706F3830 		.ascii	"po8030_set_mirror\000"
 22725      33305F73 
 22725      65745F6D 
 22725      6972726F 
 22725      7200
 22726              	.LASF611:
 22727 1c27 72657376 		.ascii	"resvd1C\000"
 22727      64314300 
 22728              	.LASF91:
 22729 1c2f 69646C65 		.ascii	"idle_thread_wa\000"
 22729      5F746872 
 22729      6561645F 
 22729      776100
 22730              	.LASF607:
 22731 1c3e 44494550 		.ascii	"DIEPINT\000"
ARM GAS  /tmp/cczbsEFl.s 			page 423


 22731      494E5400 
 22732              	.LASF176:
 22733 1c46 5350495F 		.ascii	"SPI_TypeDef\000"
 22733      54797065 
 22733      44656600 
 22734              	.LASF74:
 22735 1c52 76745F66 		.ascii	"vt_func\000"
 22735      756E6300 
 22736              	.LASF420:
 22737 1c5a 534D4352 		.ascii	"SMCR\000"
 22737      00
 22738              	.LASF652:
 22739 1c5f 444F4550 		.ascii	"DOEPMSK\000"
 22739      4D534B00 
 22740              	.LASF737:
 22741 1c67 53554253 		.ascii	"SUBSAMPLING_X2\000"
 22741      414D504C 
 22741      494E475F 
 22741      583200
 22742              	.LASF738:
 22743 1c76 53554253 		.ascii	"SUBSAMPLING_X4\000"
 22743      414D504C 
 22743      494E475F 
 22743      583400
 22744              	.LASF70:
 22745 1c85 63685F76 		.ascii	"ch_virtual_timer\000"
 22745      69727475 
 22745      616C5F74 
 22745      696D6572 
 22745      00
 22746              	.LASF42:
 22747 1c96 705F666C 		.ascii	"p_flags\000"
 22747      61677300 
 22748              	.LASF210:
 22749 1c9e 65776D61 		.ascii	"ewmask\000"
 22749      736B00
 22750              	.LASF246:
 22751 1ca5 656C5F66 		.ascii	"el_flags\000"
 22751      6C616773 
 22751      00
 22752              	.LASF248:
 22753 1cae 6576656E 		.ascii	"event_source\000"
 22753      745F736F 
 22753      75726365 
 22753      00
 22754              	.LASF50:
 22755 1cbb 705F6D74 		.ascii	"p_mtxlist\000"
 22755      786C6973 
 22755      7400
 22756              	.LASF368:
 22757 1cc5 43414E44 		.ascii	"CAND1\000"
 22757      3100
 22758              	.LASF126:
 22759 1ccb 46533152 		.ascii	"FS1R\000"
 22759      00
 22760              	.LASF22:
 22761 1cd0 74737461 		.ascii	"tstate_t\000"
ARM GAS  /tmp/cczbsEFl.s 			page 424


 22761      74655F74 
 22761      00
 22762              	.LASF542:
 22763 1cd9 53504944 		.ascii	"SPIDriver\000"
 22763      72697665 
 22763      7200
 22764              	.LASF653:
 22765 1ce3 4441494E 		.ascii	"DAINT\000"
 22765      5400
 22766              	.LASF546:
 22767 1ce9 53504943 		.ascii	"SPIConfig\000"
 22767      6F6E6669 
 22767      6700
 22768              	.LASF298:
 22769 1cf3 70757064 		.ascii	"pupdr\000"
 22769      7200
 22770              	.LASF388:
 22771 1cf9 64616365 		.ascii	"dacerrorcallback_t\000"
 22771      72726F72 
 22771      63616C6C 
 22771      6261636B 
 22771      5F7400
 22772              	.LASF549:
 22773 1d0c 7472616E 		.ascii	"transmitting\000"
 22773      736D6974 
 22773      74696E67 
 22773      00
 22774              	.LASF408:
 22775 1d19 6368616E 		.ascii	"channels\000"
 22775      6E656C73 
 22775      00
 22776              	.LASF157:
 22777 1d22 434C4B43 		.ascii	"CLKCR\000"
 22777      5200
 22778              	.LASF521:
 22779 1d28 53444344 		.ascii	"SDCDriver\000"
 22779      72697665 
 22779      7200
 22780              	.LASF39:
 22781 1d32 705F6E61 		.ascii	"p_name\000"
 22781      6D6500
 22782              	.LASF503:
 22783 1d39 53657269 		.ascii	"SerialDriver\000"
 22783      616C4472 
 22783      69766572 
 22783      00
 22784              	.LASF104:
 22785 1d46 4A445231 		.ascii	"JDR1\000"
 22785      00
 22786              	.LASF105:
 22787 1d4b 4A445232 		.ascii	"JDR2\000"
 22787      00
 22788              	.LASF106:
 22789 1d50 4A445233 		.ascii	"JDR3\000"
 22789      00
 22790              	.LASF107:
 22791 1d55 4A445234 		.ascii	"JDR4\000"
ARM GAS  /tmp/cczbsEFl.s 			page 425


 22791      00
 22792              	.LASF615:
 22793 1d5a 444F4550 		.ascii	"DOEPTSIZ\000"
 22793      5453495A 
 22793      00
 22794              	.LASF316:
 22795 1d63 4144435F 		.ascii	"ADC_READY\000"
 22795      52454144 
 22795      5900
 22796              	.LASF772:
 22797 1d6d 706F3830 		.ascii	"po8030_config\000"
 22797      33305F63 
 22797      6F6E6669 
 22797      6700
 22798              	.LASF76:
 22799 1d7b 76697274 		.ascii	"virtual_timers_list_t\000"
 22799      75616C5F 
 22799      74696D65 
 22799      72735F6C 
 22799      6973745F 
 22800              	.LASF639:
 22801 1d91 72657376 		.ascii	"resvd40C\000"
 22801      64343043 
 22801      00
 22802              	.LASF338:
 22803 1d9a 63697263 		.ascii	"circular\000"
 22803      756C6172 
 22803      00
 22804              	.LASF471:
 22805 1da3 69327373 		.ascii	"i2sstate_t\000"
 22805      74617465 
 22805      5F7400
 22806              	.LASF295:
 22807 1dae 6D6F6465 		.ascii	"moder\000"
 22807      7200
 22808              	.LASF212:
 22809 1db4 735F7175 		.ascii	"s_queue\000"
 22809      65756500 
 22810              	.LASF201:
 22811 1dbc 6D5F6372 		.ascii	"m_crit_thd\000"
 22811      69745F74 
 22811      686400
 22812              	.LASF370:
 22813 1dc7 4441435F 		.ascii	"DAC_STOP\000"
 22813      53544F50 
 22813      00
 22814              	.LASF646:
 22815 1dd0 72657376 		.ascii	"resvd700\000"
 22815      64373030 
 22815      00
 22816              	.LASF174:
 22817 1dd9 49325343 		.ascii	"I2SCFGR\000"
 22817      46475200 
 22818              	.LASF709:
 22819 1de1 75736270 		.ascii	"usbp\000"
 22819      00
 22820              	.LASF220:
ARM GAS  /tmp/cczbsEFl.s 			page 426


 22821 1de6 63685F69 		.ascii	"ch_identifier\000"
 22821      64656E74 
 22821      69666965 
 22821      7200
 22822              	.LASF513:
 22823 1df4 77726974 		.ascii	"writet\000"
 22823      657400
 22824              	.LASF2:
 22825 1dfb 6C6F6E67 		.ascii	"long long int\000"
 22825      206C6F6E 
 22825      6720696E 
 22825      7400
 22826              	.LASF633:
 22827 1e09 48505458 		.ascii	"HPTXFSIZ\000"
 22827      4653495A 
 22827      00
 22828              	.LASF790:
 22829 1e12 70776D45 		.ascii	"pwmEnableChannel\000"
 22829      6E61626C 
 22829      65436861 
 22829      6E6E656C 
 22829      00
 22830              	.LASF227:
 22831 1e23 63665F6F 		.ascii	"cf_off_prio\000"
 22831      66665F70 
 22831      72696F00 
 22832              	.LASF198:
 22833 1e2f 74696D65 		.ascii	"time_measurement_t\000"
 22833      5F6D6561 
 22833      73757265 
 22833      6D656E74 
 22833      5F7400
 22834              	.LASF534:
 22835 1e42 6765745F 		.ascii	"get_info\000"
 22835      696E666F 
 22835      00
 22836              	.LASF325:
 22837 1e4b 61646365 		.ascii	"adcerror_t\000"
 22837      72726F72 
 22837      5F7400
 22838              	.LASF699:
 22839 1e56 6765745F 		.ascii	"get_descriptor_cb\000"
 22839      64657363 
 22839      72697074 
 22839      6F725F63 
 22839      6200
 22840              	.LASF28:
 22841 1e68 6576656E 		.ascii	"eventflags_t\000"
 22841      74666C61 
 22841      67735F74 
 22841      00
 22842              	.LASF538:
 22843 1e75 5350495F 		.ascii	"SPI_READY\000"
 22843      52454144 
 22843      5900
 22844              	.LASF122:
 22845 1e7f 73464946 		.ascii	"sFIFOMailBox\000"
ARM GAS  /tmp/cczbsEFl.s 			page 427


 22845      4F4D6169 
 22845      6C426F78 
 22845      00
 22846              	.LASF526:
 22847 1e8c 6275735F 		.ascii	"bus_width\000"
 22847      77696474 
 22847      6800
 22848              	.LASF143:
 22849 1e96 44485238 		.ascii	"DHR8RD\000"
 22849      524400
 22850              	.LASF648:
 22851 1e9d 4443544C 		.ascii	"DCTL\000"
 22851      00
 22852              	.LASF528:
 22853 1ea2 53444344 		.ascii	"SDCDriverVMT\000"
 22853      72697665 
 22853      72564D54 
 22853      00
 22854              	.LASF759:
 22855 1eaf 76657274 		.ascii	"vertical\000"
 22855      6963616C 
 22855      00
 22856              	.LASF674:
 22857 1eb8 74786275 		.ascii	"txbuf\000"
 22857      6600
 22858              	.LASF667:
 22859 1ebe 50434743 		.ascii	"PCGCCTL\000"
 22859      43544C00 
 22860              	.LASF585:
 22861 1ec6 5553425F 		.ascii	"USB_EVENT_WAKEUP\000"
 22861      4556454E 
 22861      545F5741 
 22861      4B455550 
 22861      00
 22862              	.LASF744:
 22863 1ed7 63757272 		.ascii	"curr_subsampling_x\000"
 22863      5F737562 
 22863      73616D70 
 22863      6C696E67 
 22863      5F7800
 22864              	.LASF745:
 22865 1eea 63757272 		.ascii	"curr_subsampling_y\000"
 22865      5F737562 
 22865      73616D70 
 22865      6C696E67 
 22865      5F7900
 22866              	.LASF38:
 22867 1efd 705F6F6C 		.ascii	"p_older\000"
 22867      64657200 
 22868              	.LASF279:
 22869 1f05 424C4B5F 		.ascii	"BLK_SYNCING\000"
 22869      53594E43 
 22869      494E4700 
 22870              	.LASF310:
 22871 1f11 50494461 		.ascii	"PIData\000"
 22871      746100
 22872              	.LASF696:
ARM GAS  /tmp/cczbsEFl.s 			page 428


 22873 1f18 73657475 		.ascii	"setup_buf\000"
 22873      705F6275 
 22873      6600
 22874              	.LASF435:
 22875 1f22 47505444 		.ascii	"GPTD6\000"
 22875      3600
 22876              	.LASF341:
 22877 1f28 6572726F 		.ascii	"error_cb\000"
 22877      725F6362 
 22877      00
 22878              	.LASF735:
 22879 1f31 696D6167 		.ascii	"image_size_t\000"
 22879      655F7369 
 22879      7A655F74 
 22879      00
 22880              	.LASF275:
 22881 1f3e 424C4B5F 		.ascii	"BLK_DISCONNECTING\000"
 22881      44495343 
 22881      4F4E4E45 
 22881      4354494E 
 22881      4700
 22882              	.LASF544:
 22883 1f50 7373706F 		.ascii	"ssport\000"
 22883      727400
 22884              	.LASF54:
 22885 1f57 74687265 		.ascii	"thread_reference_t\000"
 22885      61645F72 
 22885      65666572 
 22885      656E6365 
 22885      5F7400
 22886              	.LASF782:
 22887 1f6a 706F3830 		.ascii	"po8030_set_bank\000"
 22887      33305F73 
 22887      65745F62 
 22887      616E6B00 
 22888              	.LASF404:
 22889 1f7a 65787063 		.ascii	"expchannel_t\000"
 22889      68616E6E 
 22889      656C5F74 
 22889      00
 22890              	.LASF550:
 22891 1f87 72656365 		.ascii	"receiving\000"
 22891      6976696E 
 22891      6700
 22892              	.LASF431:
 22893 1f91 66726571 		.ascii	"frequency\000"
 22893      75656E63 
 22893      7900
 22894              	.LASF193:
 22895 1f9b 746D5F63 		.ascii	"tm_calibration_t\000"
 22895      616C6962 
 22895      72617469 
 22895      6F6E5F74 
 22895      00
 22896              	.LASF763:
 22897 1fac 706F3830 		.ascii	"po8030_advanced_config\000"
 22897      33305F61 
ARM GAS  /tmp/cczbsEFl.s 			page 429


 22897      6476616E 
 22897      6365645F 
 22897      636F6E66 
 22898              	.LASF693:
 22899 1fc3 696E5F73 		.ascii	"in_state\000"
 22899      74617465 
 22899      00
 22900              	.LASF751:
 22901 1fcc 696E7465 		.ascii	"integral\000"
 22901      6772616C 
 22901      00
 22902              	.LASF177:
 22903 1fd5 47545052 		.ascii	"GTPR\000"
 22903      00
 22904              	.LASF221:
 22905 1fda 63685F7A 		.ascii	"ch_zero\000"
 22905      65726F00 
 22906              	.LASF789:
 22907 1fe2 70776D53 		.ascii	"pwmStart\000"
 22907      74617274 
 22907      00
 22908              	.LASF451:
 22909 1feb 46415354 		.ascii	"FAST_DUTY_CYCLE_2\000"
 22909      5F445554 
 22909      595F4359 
 22909      434C455F 
 22909      3200
 22910              	.LASF165:
 22911 1ffd 44435452 		.ascii	"DCTRL\000"
 22911      4C00
 22912              	.LASF226:
 22913 2003 63685F74 		.ascii	"ch_threadsize\000"
 22913      68726561 
 22913      6473697A 
 22913      6500
 22914              	.LASF154:
 22915 2011 464C5452 		.ascii	"FLTR\000"
 22915      00
 22916              	.LASF422:
 22917 2016 43434D52 		.ascii	"CCMR1\000"
 22917      3100
 22918              	.LASF423:
 22919 201c 43434D52 		.ascii	"CCMR2\000"
 22919      3200
 22920              	.LASF427:
 22921 2022 43434D52 		.ascii	"CCMR3\000"
 22921      3300
 22922              	.LASF1:
 22923 2028 756E7369 		.ascii	"unsigned int\000"
 22923      676E6564 
 22923      20696E74 
 22923      00
 22924              	.LASF345:
 22925 2035 73717232 		.ascii	"sqr2\000"
 22925      00
 22926              	.LASF346:
 22927 203a 73717233 		.ascii	"sqr3\000"
ARM GAS  /tmp/cczbsEFl.s 			page 430


 22927      00
 22928              	.LASF637:
 22929 203f 48464952 		.ascii	"HFIR\000"
 22929      00
 22930              	.LASF781:
 22931 2044 706F3830 		.ascii	"po8030_set_format\000"
 22931      33305F73 
 22931      65745F66 
 22931      6F726D61 
 22931      7400
 22932              	.LASF567:
 22933 2056 5553425F 		.ascii	"USB_UNINIT\000"
 22933      554E494E 
 22933      495400
 22934              	.LASF264:
 22935 2061 73747265 		.ascii	"stream\000"
 22935      616D00
 22936              	.LASF348:
 22937 2068 64756D6D 		.ascii	"dummy\000"
 22937      7900
 22938              	.LASF449:
 22939 206e 6932636F 		.ascii	"i2copmode_t\000"
 22939      706D6F64 
 22939      655F7400 
 22940              	.LASF242:
 22941 207a 6576656E 		.ascii	"event_listener\000"
 22941      745F6C69 
 22941      7374656E 
 22941      657200
 22942              	.LASF163:
 22943 2089 4454494D 		.ascii	"DTIMER\000"
 22943      455200
 22944              	.LASF8:
 22945 2090 73686F72 		.ascii	"short int\000"
 22945      7420696E 
 22945      7400
 22946              	.LASF591:
 22947 209a 75736263 		.ascii	"usbcallback_t\000"
 22947      616C6C62 
 22947      61636B5F 
 22947      7400
 22948              	.LASF620:
 22949 20a8 47555342 		.ascii	"GUSBCFG\000"
 22949      43464700 
 22950              	.LASF178:
 22951 20b0 55534152 		.ascii	"USART_TypeDef\000"
 22951      545F5479 
 22951      70654465 
 22951      6600
 22952              	.LASF263:
 22953 20be 6F757470 		.ascii	"output_queue_t\000"
 22953      75745F71 
 22953      75657565 
 22953      5F7400
 22954              	.LASF669:
 22955 20cd 73746D33 		.ascii	"stm32_otg_t\000"
 22955      325F6F74 
ARM GAS  /tmp/cczbsEFl.s 			page 431


 22955      675F7400 
 22956              	.LASF472:
 22957 20d9 49325344 		.ascii	"I2SDriver\000"
 22957      72697665 
 22957      7200
 22958              	.LASF456:
 22959 20e3 64757479 		.ascii	"duty_cycle\000"
 22959      5F637963 
 22959      6C6500
 22960              	.LASF479:
 22961 20ee 49325343 		.ascii	"I2SConfig\000"
 22961      6F6E6669 
 22961      6700
 22962              	.LASF588:
 22963 20f8 75645F73 		.ascii	"ud_size\000"
 22963      697A6500 
 22964              	.LASF691:
 22965 2100 696E5F6D 		.ascii	"in_maxsize\000"
 22965      61787369 
 22965      7A6500
 22966              	.LASF307:
 22967 210b 50464461 		.ascii	"PFData\000"
 22967      746100
 22968              	.LASF400:
 22969 2112 4558545F 		.ascii	"EXT_STOP\000"
 22969      53544F50 
 22969      00
 22970              	.LASF41:
 22971 211b 705F7374 		.ascii	"p_state\000"
 22971      61746500 
 22972              	.LASF480:
 22973 2123 49325344 		.ascii	"I2SD2\000"
 22973      3200
 22974              	.LASF529:
 22975 2129 69735F69 		.ascii	"is_inserted\000"
 22975      6E736572 
 22975      74656400 
 22976              	.LASF57:
 22977 2135 63685F74 		.ascii	"ch_threads_list\000"
 22977      68726561 
 22977      64735F6C 
 22977      69737400 
 22978              	.LASF166:
 22979 2145 44434F55 		.ascii	"DCOUNT\000"
 22979      4E5400
 22980              	.LASF151:
 22981 214c 4F415231 		.ascii	"OAR1\000"
 22981      00
 22982              	.LASF152:
 22983 2151 4F415232 		.ascii	"OAR2\000"
 22983      00
 22984              	.LASF53:
 22985 2156 705F7374 		.ascii	"p_stats\000"
 22985      61747300 
 22986              	.LASF572:
 22987 215e 75736273 		.ascii	"usbstate_t\000"
 22987      74617465 
ARM GAS  /tmp/cczbsEFl.s 			page 432


 22987      5F7400
 22988              		.ident	"GCC: (15:9-2019-q4-0ubuntu1) 9.2.1 20191025 (release) [ARM/arm-9-branch revision 277599]"
ARM GAS  /tmp/cczbsEFl.s 			page 433


DEFINED SYMBOLS
                            *ABS*:0000000000000000 po8030.c
     /tmp/cczbsEFl.s:18     .rodata.po8030_read_id.cst4:0000000000000000 $d
     /tmp/cczbsEFl.s:22     .text.po8030_read_id:0000000000000000 $t
     /tmp/cczbsEFl.s:31     .text.po8030_read_id:0000000000000000 po8030_read_id
     /tmp/cczbsEFl.s:114    .text.po8030_read_id:0000000000000050 $d
     /tmp/cczbsEFl.s:119    .rodata.po8030_set_bank.cst4:0000000000000000 $d
     /tmp/cczbsEFl.s:123    .text.po8030_set_bank:0000000000000000 $t
     /tmp/cczbsEFl.s:131    .text.po8030_set_bank:0000000000000000 po8030_set_bank
     /tmp/cczbsEFl.s:180    .text.po8030_set_bank:000000000000002c $d
     /tmp/cczbsEFl.s:185    .rodata.po8030_set_format.cst4:0000000000000000 $d
     /tmp/cczbsEFl.s:189    .text.po8030_set_format:0000000000000000 $t
     /tmp/cczbsEFl.s:197    .text.po8030_set_format:0000000000000000 po8030_set_format
     /tmp/cczbsEFl.s:401    .text.po8030_set_format:00000000000000a4 $d
     /tmp/cczbsEFl.s:407    .rodata.po8030_set_vga.cst4:0000000000000000 $d
     /tmp/cczbsEFl.s:411    .text.po8030_set_vga:0000000000000000 $t
     /tmp/cczbsEFl.s:419    .text.po8030_set_vga:0000000000000000 po8030_set_vga
     /tmp/cczbsEFl.s:839    .text.po8030_set_vga:00000000000001d0 $d
     /tmp/cczbsEFl.s:846    .rodata.po8030_set_qvga.cst4:0000000000000000 $d
     /tmp/cczbsEFl.s:850    .text.po8030_set_qvga:0000000000000000 $t
     /tmp/cczbsEFl.s:858    .text.po8030_set_qvga:0000000000000000 po8030_set_qvga
     /tmp/cczbsEFl.s:1278   .text.po8030_set_qvga:00000000000001d0 $d
     /tmp/cczbsEFl.s:1285   .rodata.po8030_set_qqvga.cst4:0000000000000000 $d
     /tmp/cczbsEFl.s:1289   .text.po8030_set_qqvga:0000000000000000 $t
     /tmp/cczbsEFl.s:1297   .text.po8030_set_qqvga:0000000000000000 po8030_set_qqvga
     /tmp/cczbsEFl.s:1717   .text.po8030_set_qqvga:00000000000001d0 $d
     /tmp/cczbsEFl.s:1724   .rodata.po8030_set_size.cst4:0000000000000000 $d
     /tmp/cczbsEFl.s:1728   .text.po8030_set_size:0000000000000000 $t
     /tmp/cczbsEFl.s:1736   .text.po8030_set_size:0000000000000000 po8030_set_size
     /tmp/cczbsEFl.s:1847   .text.po8030_set_size:0000000000000068 $d
     /tmp/cczbsEFl.s:1852   .rodata.po8030_set_scale_buffer_size.cst4:0000000000000000 $d
     /tmp/cczbsEFl.s:1856   .text.po8030_set_scale_buffer_size:0000000000000000 $t
     /tmp/cczbsEFl.s:1864   .text.po8030_set_scale_buffer_size:0000000000000000 po8030_set_scale_buffer_size
     /tmp/cczbsEFl.s:2134   .text.po8030_set_scale_buffer_size:0000000000000108 $d
     /tmp/cczbsEFl.s:2141   .rodata.po8030_config.cst4:0000000000000000 $d
     /tmp/cczbsEFl.s:2145   .text.po8030_config:0000000000000000 $t
     /tmp/cczbsEFl.s:2153   .text.po8030_config:0000000000000000 po8030_config
     /tmp/cczbsEFl.s:2282   .text.po8030_config:000000000000006c $d
     /tmp/cczbsEFl.s:2287   .rodata.po8030_advanced_config.cst4:0000000000000000 $d
     /tmp/cczbsEFl.s:2291   .text.po8030_advanced_config:0000000000000000 $t
     /tmp/cczbsEFl.s:2299   .text.po8030_advanced_config:0000000000000000 po8030_advanced_config
     /tmp/cczbsEFl.s:2464   .text.po8030_advanced_config:00000000000000d0 $d
     /tmp/cczbsEFl.s:2472   .text.po8030_advanced_config:00000000000000dc $t
     /tmp/cczbsEFl.s:3270   .text.po8030_advanced_config:00000000000004c4 $d
     /tmp/cczbsEFl.s:3278   .rodata.po8030_start.cst4:0000000000000000 $d
     /tmp/cczbsEFl.s:3282   .text.po8030_start:0000000000000000 $t
     /tmp/cczbsEFl.s:3290   .text.po8030_start:0000000000000000 po8030_start
     /tmp/cczbsEFl.s:3350   .text.po8030_start:0000000000000050 $d
     /tmp/cczbsEFl.s:3357   .rodata.po8030_set_brightness.cst4:0000000000000000 $d
     /tmp/cczbsEFl.s:3361   .text.po8030_set_brightness:0000000000000000 $t
     /tmp/cczbsEFl.s:3369   .text.po8030_set_brightness:0000000000000000 po8030_set_brightness
     /tmp/cczbsEFl.s:3461   .text.po8030_set_brightness:0000000000000048 $d
     /tmp/cczbsEFl.s:3466   .rodata.po8030_set_contrast.cst4:0000000000000000 $d
     /tmp/cczbsEFl.s:3470   .text.po8030_set_contrast:0000000000000000 $t
     /tmp/cczbsEFl.s:3478   .text.po8030_set_contrast:0000000000000000 po8030_set_contrast
     /tmp/cczbsEFl.s:3570   .text.po8030_set_contrast:0000000000000048 $d
     /tmp/cczbsEFl.s:3575   .rodata.po8030_set_mirror.cst4:0000000000000000 $d
ARM GAS  /tmp/cczbsEFl.s 			page 434


     /tmp/cczbsEFl.s:3579   .text.po8030_set_mirror:0000000000000000 $t
     /tmp/cczbsEFl.s:3587   .text.po8030_set_mirror:0000000000000000 po8030_set_mirror
     /tmp/cczbsEFl.s:3703   .text.po8030_set_mirror:000000000000005c $d
     /tmp/cczbsEFl.s:3708   .rodata.po8030_set_awb.cst4:0000000000000000 $d
     /tmp/cczbsEFl.s:3712   .text.po8030_set_awb:0000000000000000 $t
     /tmp/cczbsEFl.s:3720   .text.po8030_set_awb:0000000000000000 po8030_set_awb
     /tmp/cczbsEFl.s:3832   .text.po8030_set_awb:0000000000000064 $d
     /tmp/cczbsEFl.s:3837   .rodata.po8030_set_rgb_gain.cst4:0000000000000000 $d
     /tmp/cczbsEFl.s:3841   .text.po8030_set_rgb_gain:0000000000000000 $t
     /tmp/cczbsEFl.s:3849   .text.po8030_set_rgb_gain:0000000000000000 po8030_set_rgb_gain
     /tmp/cczbsEFl.s:3978   .text.po8030_set_rgb_gain:0000000000000074 $d
     /tmp/cczbsEFl.s:3983   .rodata.po8030_set_ae.cst4:0000000000000000 $d
     /tmp/cczbsEFl.s:3987   .text.po8030_set_ae:0000000000000000 $t
     /tmp/cczbsEFl.s:3995   .text.po8030_set_ae:0000000000000000 po8030_set_ae
     /tmp/cczbsEFl.s:4107   .text.po8030_set_ae:0000000000000064 $d
     /tmp/cczbsEFl.s:4112   .rodata.po8030_set_exposure.cst4:0000000000000000 $d
     /tmp/cczbsEFl.s:4116   .text.po8030_set_exposure:0000000000000000 $t
     /tmp/cczbsEFl.s:4124   .text.po8030_set_exposure:0000000000000000 po8030_set_exposure
     /tmp/cczbsEFl.s:4250   .text.po8030_set_exposure:0000000000000070 $d
     /tmp/cczbsEFl.s:4255   .rodata.po8030_get_image_size.cst4:0000000000000000 $d
     /tmp/cczbsEFl.s:4259   .text.po8030_get_image_size:0000000000000000 $t
     /tmp/cczbsEFl.s:4267   .text.po8030_get_image_size:0000000000000000 po8030_get_image_size
     /tmp/cczbsEFl.s:4321   .text.po8030_get_image_size:0000000000000034 $d
     /tmp/cczbsEFl.s:4327   .bss.po8030_conf:0000000000000000 $d
     /tmp/cczbsEFl.s:4331   .bss.po8030_conf:0000000000000000 po8030_conf
     /tmp/cczbsEFl.s:4334   .rodata.pwmcfg_cam.10100:0000000000000000 $d
     /tmp/cczbsEFl.s:4338   .rodata.pwmcfg_cam.10100:0000000000000000 pwmcfg_cam.10100

UNDEFINED SYMBOLS
__stack_chk_guard
read_reg
__stack_chk_fail
write_reg
i2c_start
pwmStart
pwmEnableChannel
PWMD5
