ARM GAS  /tmp/cczbsEFl.s 			page 1


   1              		.cpu cortex-m4
   2              		.eabi_attribute 27, 1
   3              		.eabi_attribute 28, 1
   4              		.eabi_attribute 20, 1
   5              		.eabi_attribute 21, 1
   6              		.eabi_attribute 23, 3
   7              		.eabi_attribute 24, 1
   8              		.eabi_attribute 25, 1
   9              		.eabi_attribute 26, 1
  10              		.eabi_attribute 30, 2
  11              		.eabi_attribute 34, 1
  12              		.eabi_attribute 18, 4
  13              		.file	"po8030.c"
  14              		.text
  15              	.Ltext0:
  16              		.cfi_sections	.debug_frame
  17              		.section	.rodata.po8030_read_id.cst4,"aM",%progbits,4
  18              		.align	2
  19              	.LC0:
  20 0000 00000000 		.word	__stack_chk_guard
  21              		.section	.text.po8030_read_id,"ax",%progbits
  22              		.align	1
  23              		.p2align 4,,15
  24              		.global	po8030_read_id
  25              		.arch armv7e-m
  26              		.syntax unified
  27              		.thumb
  28              		.thumb_func
  29              		.fpu fpv4-sp-d16
  30              		.type	po8030_read_id, %function
  31              	po8030_read_id:
  32              	.LVL0:
  33              	.LFB257:
  34              		.file 1 ".//src/camera/po8030.c"
  35              		.loc 1 93 37 view -0
  36              		.cfi_startproc
  37              		@ args = 0, pretend = 0, frame = 8
  38              		@ frame_needed = 0, uses_anonymous_args = 0
  39              		.loc 1 93 37 is_stmt 0 view .LVU1
  40 0000 10B5     		push	{r4, lr}
  41              		.cfi_def_cfa_offset 8
  42              		.cfi_offset 4, -8
  43              		.cfi_offset 14, -4
  44 0002 134B     		ldr	r3, .L8
  45 0004 82B0     		sub	sp, sp, #8
  46              		.cfi_def_cfa_offset 16
  47              		.loc 1 94 13 view .LVU2
  48 0006 0021     		movs	r1, #0
  49              		.loc 1 93 37 view .LVU3
  50 0008 0446     		mov	r4, r0
  51              		.loc 1 97 15 view .LVU4
  52 000a 6A46     		mov	r2, sp
  53 000c 6E20     		movs	r0, #110
  54              	.LVL1:
  55              		.loc 1 93 37 view .LVU5
  56 000e 1B68     		ldr	r3, [r3]
  57 0010 0193     		str	r3, [sp, #4]
ARM GAS  /tmp/cczbsEFl.s 			page 2


  58 0012 4FF00003 		mov	r3,#0
  59              		.loc 1 94 5 is_stmt 1 view .LVU6
  60              		.loc 1 94 13 is_stmt 0 view .LVU7
  61 0016 ADF80010 		strh	r1, [sp]	@ movhi
  62              		.loc 1 95 5 is_stmt 1 view .LVU8
  63              	.LVL2:
  64              		.loc 1 97 5 view .LVU9
  65              		.loc 1 97 15 is_stmt 0 view .LVU10
  66 001a FFF7FEFF 		bl	read_reg
  67              	.LVL3:
  68              		.loc 1 97 7 view .LVU11
  69 001e 30B1     		cbz	r0, .L6
  70              	.L2:
  71              		.loc 1 106 1 view .LVU12
  72 0020 0B4B     		ldr	r3, .L8
  73 0022 1A68     		ldr	r2, [r3]
  74 0024 019B     		ldr	r3, [sp, #4]
  75 0026 5A40     		eors	r2, r3, r2
  76 0028 10D1     		bne	.L7
  77 002a 02B0     		add	sp, sp, #8
  78              		.cfi_remember_state
  79              		.cfi_def_cfa_offset 8
  80              		@ sp needed
  81 002c 10BD     		pop	{r4, pc}
  82              	.LVL4:
  83              	.L6:
  84              		.cfi_restore_state
  85              		.loc 1 100 5 is_stmt 1 view .LVU13
  86              		.loc 1 100 15 is_stmt 0 view .LVU14
  87 002e 0DF10102 		add	r2, sp, #1
  88 0032 0121     		movs	r1, #1
  89 0034 6E20     		movs	r0, #110
  90              	.LVL5:
  91              		.loc 1 100 15 view .LVU15
  92 0036 FFF7FEFF 		bl	read_reg
  93              	.LVL6:
  94              		.loc 1 100 7 view .LVU16
  95 003a 0028     		cmp	r0, #0
  96 003c F0D1     		bne	.L2
  97              		.loc 1 103 5 is_stmt 1 view .LVU17
  98              		.loc 1 103 9 is_stmt 0 view .LVU18
  99 003e 9DF80030 		ldrb	r3, [sp]	@ zero_extendqisi2
 100 0042 9DF80120 		ldrb	r2, [sp, #1]	@ zero_extendqisi2
 101 0046 1343     		orrs	r3, r3, r2
 102 0048 2380     		strh	r3, [r4]	@ movhi
 103              		.loc 1 105 5 is_stmt 1 view .LVU19
 104              		.loc 1 105 12 is_stmt 0 view .LVU20
 105 004a E9E7     		b	.L2
 106              	.L7:
 107              		.loc 1 106 1 view .LVU21
 108 004c FFF7FEFF 		bl	__stack_chk_fail
 109              	.LVL7:
 110              	.L9:
 111              		.loc 1 106 1 view .LVU22
 112              		.align	2
 113              	.L8:
 114 0050 00000000 		.word	.LC0
ARM GAS  /tmp/cczbsEFl.s 			page 3


 115              		.cfi_endproc
 116              	.LFE257:
 117              		.size	po8030_read_id, .-po8030_read_id
 118              		.section	.rodata.po8030_set_bank.cst4,"aM",%progbits,4
 119              		.align	2
 120              	.LC1:
 121 0000 00000000 		.word	__stack_chk_guard
 122              		.section	.text.po8030_set_bank,"ax",%progbits
 123              		.align	1
 124              		.p2align 4,,15
 125              		.global	po8030_set_bank
 126              		.syntax unified
 127              		.thumb
 128              		.thumb_func
 129              		.fpu fpv4-sp-d16
 130              		.type	po8030_set_bank, %function
 131              	po8030_set_bank:
 132              	.LVL8:
 133              	.LFB258:
 134              		.loc 1 118 38 is_stmt 1 view -0
 135              		.cfi_startproc
 136              		@ args = 0, pretend = 0, frame = 8
 137              		@ frame_needed = 0, uses_anonymous_args = 0
 138              		.loc 1 118 38 is_stmt 0 view .LVU24
 139 0000 00B5     		push	{lr}
 140              		.cfi_def_cfa_offset 4
 141              		.cfi_offset 14, -4
 142 0002 0A4B     		ldr	r3, .L15
 143 0004 83B0     		sub	sp, sp, #12
 144              		.cfi_def_cfa_offset 16
 145              		.loc 1 118 38 view .LVU25
 146 0006 1B68     		ldr	r3, [r3]
 147 0008 0193     		str	r3, [sp, #4]
 148 000a 4FF00003 		mov	r3,#0
 149              		.loc 1 119 5 is_stmt 1 view .LVU26
 150              		.loc 1 119 12 is_stmt 0 view .LVU27
 151 000e 074B     		ldr	r3, .L15
 152 0010 1968     		ldr	r1, [r3]
 153 0012 019B     		ldr	r3, [sp, #4]
 154 0014 5940     		eors	r1, r3, r1
 155 0016 07D1     		bne	.L14
 156 0018 0246     		mov	r2, r0
 157 001a 0321     		movs	r1, #3
 158 001c 6E20     		movs	r0, #110
 159              	.LVL9:
 160              		.loc 1 120 1 view .LVU28
 161 001e 03B0     		add	sp, sp, #12
 162              		.cfi_remember_state
 163              		.cfi_def_cfa_offset 4
 164              		@ sp needed
 165 0020 5DF804EB 		ldr	lr, [sp], #4
 166              		.cfi_restore 14
 167              		.cfi_def_cfa_offset 0
 168              		.loc 1 119 12 view .LVU29
 169 0024 FFF7FEBF 		b	write_reg
 170              	.LVL10:
 171              	.L14:
ARM GAS  /tmp/cczbsEFl.s 			page 4


 172              		.cfi_restore_state
 173              		.loc 1 119 12 view .LVU30
 174 0028 FFF7FEFF 		bl	__stack_chk_fail
 175              	.LVL11:
 176              	.L16:
 177              		.loc 1 119 12 view .LVU31
 178              		.align	2
 179              	.L15:
 180 002c 00000000 		.word	.LC1
 181              		.cfi_endproc
 182              	.LFE258:
 183              		.size	po8030_set_bank, .-po8030_set_bank
 184              		.section	.rodata.po8030_set_format.cst4,"aM",%progbits,4
 185              		.align	2
 186              	.LC2:
 187 0000 00000000 		.word	__stack_chk_guard
 188              		.section	.text.po8030_set_format,"ax",%progbits
 189              		.align	1
 190              		.p2align 4,,15
 191              		.global	po8030_set_format
 192              		.syntax unified
 193              		.thumb
 194              		.thumb_func
 195              		.fpu fpv4-sp-d16
 196              		.type	po8030_set_format, %function
 197              	po8030_set_format:
 198              	.LVL12:
 199              	.LFB259:
 200              		.loc 1 132 40 is_stmt 1 view -0
 201              		.cfi_startproc
 202              		@ args = 0, pretend = 0, frame = 8
 203              		@ frame_needed = 0, uses_anonymous_args = 0
 204              		.loc 1 132 40 is_stmt 0 view .LVU33
 205 0000 30B5     		push	{r4, r5, lr}
 206              		.cfi_def_cfa_offset 12
 207              		.cfi_offset 4, -12
 208              		.cfi_offset 5, -8
 209              		.cfi_offset 14, -4
 210 0002 284B     		ldr	r3, .L35
 211 0004 83B0     		sub	sp, sp, #12
 212              		.cfi_def_cfa_offset 24
 213              		.loc 1 132 40 view .LVU34
 214 0006 0546     		mov	r5, r0
 215              	.LBB76:
 216              	.LBB77:
 217              		.loc 1 119 12 view .LVU35
 218 0008 0122     		movs	r2, #1
 219 000a 0321     		movs	r1, #3
 220 000c 6E20     		movs	r0, #110
 221              	.LVL13:
 222              		.loc 1 119 12 view .LVU36
 223              	.LBE77:
 224              	.LBE76:
 225              		.loc 1 132 40 view .LVU37
 226 000e 1B68     		ldr	r3, [r3]
 227 0010 0193     		str	r3, [sp, #4]
 228 0012 4FF00003 		mov	r3,#0
ARM GAS  /tmp/cczbsEFl.s 			page 5


 229              		.loc 1 133 5 is_stmt 1 view .LVU38
 230              	.LVL14:
 231              		.loc 1 135 5 view .LVU39
 232              	.LBB79:
 233              	.LBI76:
 234              		.loc 1 118 8 view .LVU40
 235              	.LBB78:
 236              		.loc 1 119 5 view .LVU41
 237              		.loc 1 119 12 is_stmt 0 view .LVU42
 238 0016 FFF7FEFF 		bl	write_reg
 239              	.LVL15:
 240              		.loc 1 119 12 view .LVU43
 241              	.LBE78:
 242              	.LBE79:
 243              		.loc 1 135 7 view .LVU44
 244 001a 0446     		mov	r4, r0
 245 001c 38B1     		cbz	r0, .L31
 246              	.LVL16:
 247              	.L18:
 248              		.loc 1 168 1 view .LVU45
 249 001e 214B     		ldr	r3, .L35
 250 0020 1A68     		ldr	r2, [r3]
 251 0022 019B     		ldr	r3, [sp, #4]
 252 0024 5A40     		eors	r2, r3, r2
 253 0026 3BD1     		bne	.L32
 254 0028 2046     		mov	r0, r4
 255 002a 03B0     		add	sp, sp, #12
 256              		.cfi_remember_state
 257              		.cfi_def_cfa_offset 12
 258              		@ sp needed
 259 002c 30BD     		pop	{r4, r5, pc}
 260              	.LVL17:
 261              	.L31:
 262              		.cfi_restore_state
 263              		.loc 1 139 5 is_stmt 1 view .LVU46
 264              		.loc 1 139 15 is_stmt 0 view .LVU47
 265 002e 2A46     		mov	r2, r5
 266 0030 4E21     		movs	r1, #78
 267 0032 6E20     		movs	r0, #110
 268              	.LVL18:
 269              		.loc 1 139 15 view .LVU48
 270 0034 FFF7FEFF 		bl	write_reg
 271              	.LVL19:
 272              		.loc 1 139 7 view .LVU49
 273 0038 0446     		mov	r4, r0
 274 003a 0028     		cmp	r0, #0
 275 003c EFD1     		bne	.L18
 276              	.LVL20:
 277              	.LBB80:
 278              	.LBI80:
 279              		.loc 1 132 8 is_stmt 1 view .LVU50
 280              	.LBB81:
 281              		.loc 1 143 5 view .LVU51
 282              		.loc 1 143 7 is_stmt 0 view .LVU52
 283 003e 442D     		cmp	r5, #68
 284 0040 18D0     		beq	.L33
 285              		.loc 1 154 9 is_stmt 1 view .LVU53
ARM GAS  /tmp/cczbsEFl.s 			page 6


 286              		.loc 1 154 19 is_stmt 0 view .LVU54
 287 0042 0246     		mov	r2, r0
 288 0044 B721     		movs	r1, #183
 289 0046 6E20     		movs	r0, #110
 290              	.LVL21:
 291              		.loc 1 154 19 view .LVU55
 292 0048 FFF7FEFF 		bl	write_reg
 293              	.LVL22:
 294              		.loc 1 154 11 view .LVU56
 295 004c 08B1     		cbz	r0, .L34
 296              	.L26:
 297              		.loc 1 154 11 view .LVU57
 298 004e 0446     		mov	r4, r0
 299 0050 E5E7     		b	.L18
 300              	.L34:
 301              		.loc 1 157 9 is_stmt 1 view .LVU58
 302              	.LVL23:
 303              	.LBB82:
 304              	.LBI82:
 305              		.loc 1 118 8 view .LVU59
 306              	.LBB83:
 307              		.loc 1 119 5 view .LVU60
 308              		.loc 1 119 12 is_stmt 0 view .LVU61
 309 0052 2246     		mov	r2, r4
 310 0054 0321     		movs	r1, #3
 311 0056 6E20     		movs	r0, #110
 312              	.LVL24:
 313              		.loc 1 119 12 view .LVU62
 314 0058 FFF7FEFF 		bl	write_reg
 315              	.LVL25:
 316              		.loc 1 119 12 view .LVU63
 317              	.LBE83:
 318              	.LBE82:
 319              		.loc 1 157 11 view .LVU64
 320 005c 0028     		cmp	r0, #0
 321 005e F6D1     		bne	.L26
 322              		.loc 1 160 9 is_stmt 1 view .LVU65
 323              		.loc 1 160 19 is_stmt 0 view .LVU66
 324 0060 0A22     		movs	r2, #10
 325 0062 1121     		movs	r1, #17
 326 0064 6E20     		movs	r0, #110
 327              	.LVL26:
 328              		.loc 1 160 19 view .LVU67
 329 0066 FFF7FEFF 		bl	write_reg
 330              	.LVL27:
 331              		.loc 1 160 11 view .LVU68
 332 006a 0028     		cmp	r0, #0
 333 006c EFD1     		bne	.L26
 334              	.L20:
 335              		.loc 1 165 2 is_stmt 1 view .LVU69
 336              		.loc 1 165 26 is_stmt 0 view .LVU70
 337 006e 0E4B     		ldr	r3, .L35+4
 338 0070 1D71     		strb	r5, [r3, #4]
 339              		.loc 1 167 5 is_stmt 1 view .LVU71
 340              		.loc 1 167 12 is_stmt 0 view .LVU72
 341 0072 D4E7     		b	.L18
 342              	.LVL28:
ARM GAS  /tmp/cczbsEFl.s 			page 7


 343              	.L33:
 344              		.loc 1 144 9 is_stmt 1 view .LVU73
 345              		.loc 1 144 19 is_stmt 0 view .LVU74
 346 0074 0122     		movs	r2, #1
 347 0076 B721     		movs	r1, #183
 348 0078 6E20     		movs	r0, #110
 349              	.LVL29:
 350              		.loc 1 144 19 view .LVU75
 351 007a FFF7FEFF 		bl	write_reg
 352              	.LVL30:
 353              		.loc 1 144 11 view .LVU76
 354 007e 0028     		cmp	r0, #0
 355 0080 E5D1     		bne	.L26
 356              		.loc 1 147 9 is_stmt 1 view .LVU77
 357              	.LVL31:
 358              	.LBB84:
 359              	.LBI84:
 360              		.loc 1 118 8 view .LVU78
 361              	.LBB85:
 362              		.loc 1 119 5 view .LVU79
 363              		.loc 1 119 12 is_stmt 0 view .LVU80
 364 0082 2246     		mov	r2, r4
 365 0084 0321     		movs	r1, #3
 366 0086 6E20     		movs	r0, #110
 367              	.LVL32:
 368              		.loc 1 119 12 view .LVU81
 369 0088 FFF7FEFF 		bl	write_reg
 370              	.LVL33:
 371              		.loc 1 119 12 view .LVU82
 372              	.LBE85:
 373              	.LBE84:
 374              		.loc 1 147 11 view .LVU83
 375 008c 0028     		cmp	r0, #0
 376 008e DED1     		bne	.L26
 377              		.loc 1 150 9 is_stmt 1 view .LVU84
 378              		.loc 1 150 19 is_stmt 0 view .LVU85
 379 0090 0322     		movs	r2, #3
 380 0092 1121     		movs	r1, #17
 381 0094 6E20     		movs	r0, #110
 382              	.LVL34:
 383              		.loc 1 150 19 view .LVU86
 384 0096 FFF7FEFF 		bl	write_reg
 385              	.LVL35:
 386              		.loc 1 150 11 view .LVU87
 387 009a 0028     		cmp	r0, #0
 388 009c E7D0     		beq	.L20
 389 009e D6E7     		b	.L26
 390              	.LVL36:
 391              	.L32:
 392              		.loc 1 150 11 view .LVU88
 393              	.LBE81:
 394              	.LBE80:
 395              		.loc 1 168 1 view .LVU89
 396 00a0 FFF7FEFF 		bl	__stack_chk_fail
 397              	.LVL37:
 398              	.L36:
 399              		.align	2
ARM GAS  /tmp/cczbsEFl.s 			page 8


 400              	.L35:
 401 00a4 00000000 		.word	.LC2
 402 00a8 00000000 		.word	.LANCHOR0
 403              		.cfi_endproc
 404              	.LFE259:
 405              		.size	po8030_set_format, .-po8030_set_format
 406              		.section	.rodata.po8030_set_vga.cst4,"aM",%progbits,4
 407              		.align	2
 408              	.LC3:
 409 0000 00000000 		.word	__stack_chk_guard
 410              		.section	.text.po8030_set_vga,"ax",%progbits
 411              		.align	1
 412              		.p2align 4,,15
 413              		.global	po8030_set_vga
 414              		.syntax unified
 415              		.thumb
 416              		.thumb_func
 417              		.fpu fpv4-sp-d16
 418              		.type	po8030_set_vga, %function
 419              	po8030_set_vga:
 420              	.LFB260:
 421              		.loc 1 178 29 is_stmt 1 view -0
 422              		.cfi_startproc
 423              		@ args = 0, pretend = 0, frame = 8
 424              		@ frame_needed = 0, uses_anonymous_args = 0
 425 0000 00B5     		push	{lr}
 426              		.cfi_def_cfa_offset 4
 427              		.cfi_offset 14, -4
 428 0002 734B     		ldr	r3, .L43
 429 0004 83B0     		sub	sp, sp, #12
 430              		.cfi_def_cfa_offset 16
 431              	.LBB94:
 432              	.LBB95:
 433              		.loc 1 119 12 is_stmt 0 view .LVU91
 434 0006 0022     		movs	r2, #0
 435 0008 0321     		movs	r1, #3
 436 000a 6E20     		movs	r0, #110
 437              	.LBE95:
 438              	.LBE94:
 439              		.loc 1 178 29 view .LVU92
 440 000c 1B68     		ldr	r3, [r3]
 441 000e 0193     		str	r3, [sp, #4]
 442 0010 4FF00003 		mov	r3,#0
 443              		.loc 1 179 5 is_stmt 1 view .LVU93
 444              	.LVL38:
 445              		.loc 1 181 5 view .LVU94
 446              	.LBB97:
 447              	.LBI94:
 448              		.loc 1 118 8 view .LVU95
 449              	.LBB96:
 450              		.loc 1 119 5 view .LVU96
 451              		.loc 1 119 12 is_stmt 0 view .LVU97
 452 0014 FFF7FEFF 		bl	write_reg
 453              	.LVL39:
 454              		.loc 1 119 12 view .LVU98
 455              	.LBE96:
 456              	.LBE97:
ARM GAS  /tmp/cczbsEFl.s 			page 9


 457              		.loc 1 181 7 view .LVU99
 458 0018 40B1     		cbz	r0, .L41
 459              	.LVL40:
 460              	.L38:
 461              		.loc 1 277 1 view .LVU100
 462 001a 6D4B     		ldr	r3, .L43
 463 001c 1A68     		ldr	r2, [r3]
 464 001e 019B     		ldr	r3, [sp, #4]
 465 0020 5A40     		eors	r2, r3, r2
 466 0022 40F0D280 		bne	.L42
 467 0026 03B0     		add	sp, sp, #12
 468              		.cfi_remember_state
 469              		.cfi_def_cfa_offset 4
 470              		@ sp needed
 471 0028 5DF804FB 		ldr	pc, [sp], #4
 472              	.LVL41:
 473              	.L41:
 474              		.cfi_restore_state
 475              		.loc 1 185 5 is_stmt 1 view .LVU101
 476              		.loc 1 185 15 is_stmt 0 view .LVU102
 477 002c 0246     		mov	r2, r0
 478 002e 0821     		movs	r1, #8
 479 0030 6E20     		movs	r0, #110
 480              	.LVL42:
 481              		.loc 1 185 15 view .LVU103
 482 0032 FFF7FEFF 		bl	write_reg
 483              	.LVL43:
 484              		.loc 1 185 7 view .LVU104
 485 0036 0028     		cmp	r0, #0
 486 0038 EFD1     		bne	.L38
 487              		.loc 1 188 5 is_stmt 1 view .LVU105
 488              		.loc 1 188 15 is_stmt 0 view .LVU106
 489 003a 0122     		movs	r2, #1
 490 003c 0921     		movs	r1, #9
 491 003e 6E20     		movs	r0, #110
 492              	.LVL44:
 493              		.loc 1 188 15 view .LVU107
 494 0040 FFF7FEFF 		bl	write_reg
 495              	.LVL45:
 496              		.loc 1 188 7 view .LVU108
 497 0044 0028     		cmp	r0, #0
 498 0046 E8D1     		bne	.L38
 499              		.loc 1 191 5 is_stmt 1 view .LVU109
 500              		.loc 1 191 15 is_stmt 0 view .LVU110
 501 0048 0246     		mov	r2, r0
 502 004a 0A21     		movs	r1, #10
 503 004c 6E20     		movs	r0, #110
 504              	.LVL46:
 505              		.loc 1 191 15 view .LVU111
 506 004e FFF7FEFF 		bl	write_reg
 507              	.LVL47:
 508              		.loc 1 191 7 view .LVU112
 509 0052 0028     		cmp	r0, #0
 510 0054 E1D1     		bne	.L38
 511              		.loc 1 194 5 is_stmt 1 view .LVU113
 512              		.loc 1 194 15 is_stmt 0 view .LVU114
 513 0056 0122     		movs	r2, #1
ARM GAS  /tmp/cczbsEFl.s 			page 10


 514 0058 0B21     		movs	r1, #11
 515 005a 6E20     		movs	r0, #110
 516              	.LVL48:
 517              		.loc 1 194 15 view .LVU115
 518 005c FFF7FEFF 		bl	write_reg
 519              	.LVL49:
 520              		.loc 1 194 7 view .LVU116
 521 0060 0028     		cmp	r0, #0
 522 0062 DAD1     		bne	.L38
 523              	.LBB98:
 524              	.LBI98:
 525              		.loc 1 178 8 is_stmt 1 view .LVU117
 526              	.LBB99:
 527              		.loc 1 197 5 view .LVU118
 528              		.loc 1 197 15 is_stmt 0 view .LVU119
 529 0064 0222     		movs	r2, #2
 530 0066 0C21     		movs	r1, #12
 531 0068 6E20     		movs	r0, #110
 532              	.LVL50:
 533              		.loc 1 197 15 view .LVU120
 534 006a FFF7FEFF 		bl	write_reg
 535              	.LVL51:
 536              		.loc 1 197 7 view .LVU121
 537 006e 0028     		cmp	r0, #0
 538 0070 D3D1     		bne	.L38
 539              		.loc 1 200 5 is_stmt 1 view .LVU122
 540              		.loc 1 200 15 is_stmt 0 view .LVU123
 541 0072 8022     		movs	r2, #128
 542 0074 0D21     		movs	r1, #13
 543 0076 6E20     		movs	r0, #110
 544              	.LVL52:
 545              		.loc 1 200 15 view .LVU124
 546 0078 FFF7FEFF 		bl	write_reg
 547              	.LVL53:
 548              		.loc 1 200 7 view .LVU125
 549 007c 0028     		cmp	r0, #0
 550 007e CCD1     		bne	.L38
 551              		.loc 1 203 5 is_stmt 1 view .LVU126
 552              		.loc 1 203 15 is_stmt 0 view .LVU127
 553 0080 0122     		movs	r2, #1
 554 0082 0E21     		movs	r1, #14
 555 0084 6E20     		movs	r0, #110
 556              	.LVL54:
 557              		.loc 1 203 15 view .LVU128
 558 0086 FFF7FEFF 		bl	write_reg
 559              	.LVL55:
 560              		.loc 1 203 7 view .LVU129
 561 008a 0028     		cmp	r0, #0
 562 008c C5D1     		bne	.L38
 563              		.loc 1 206 5 is_stmt 1 view .LVU130
 564              		.loc 1 206 15 is_stmt 0 view .LVU131
 565 008e E022     		movs	r2, #224
 566 0090 0F21     		movs	r1, #15
 567 0092 6E20     		movs	r0, #110
 568              	.LVL56:
 569              		.loc 1 206 15 view .LVU132
 570 0094 FFF7FEFF 		bl	write_reg
ARM GAS  /tmp/cczbsEFl.s 			page 11


 571              	.LVL57:
 572              		.loc 1 206 7 view .LVU133
 573 0098 0028     		cmp	r0, #0
 574 009a BED1     		bne	.L38
 575              		.loc 1 210 5 is_stmt 1 view .LVU134
 576              		.loc 1 210 15 is_stmt 0 view .LVU135
 577 009c 0246     		mov	r2, r0
 578 009e 3521     		movs	r1, #53
 579 00a0 6E20     		movs	r0, #110
 580              	.LVL58:
 581              		.loc 1 210 15 view .LVU136
 582 00a2 FFF7FEFF 		bl	write_reg
 583              	.LVL59:
 584              		.loc 1 210 7 view .LVU137
 585 00a6 0028     		cmp	r0, #0
 586 00a8 B7D1     		bne	.L38
 587              		.loc 1 213 5 is_stmt 1 view .LVU138
 588              		.loc 1 213 15 is_stmt 0 view .LVU139
 589 00aa 0122     		movs	r2, #1
 590 00ac 3621     		movs	r1, #54
 591 00ae 6E20     		movs	r0, #110
 592              	.LVL60:
 593              		.loc 1 213 15 view .LVU140
 594 00b0 FFF7FEFF 		bl	write_reg
 595              	.LVL61:
 596              		.loc 1 213 7 view .LVU141
 597 00b4 0028     		cmp	r0, #0
 598 00b6 B0D1     		bne	.L38
 599              		.loc 1 216 5 is_stmt 1 view .LVU142
 600              		.loc 1 216 15 is_stmt 0 view .LVU143
 601 00b8 0222     		movs	r2, #2
 602 00ba 3721     		movs	r1, #55
 603 00bc 6E20     		movs	r0, #110
 604              	.LVL62:
 605              		.loc 1 216 15 view .LVU144
 606 00be FFF7FEFF 		bl	write_reg
 607              	.LVL63:
 608              		.loc 1 216 7 view .LVU145
 609 00c2 0028     		cmp	r0, #0
 610 00c4 A9D1     		bne	.L38
 611              		.loc 1 219 5 is_stmt 1 view .LVU146
 612              		.loc 1 219 15 is_stmt 0 view .LVU147
 613 00c6 8022     		movs	r2, #128
 614 00c8 3821     		movs	r1, #56
 615 00ca 6E20     		movs	r0, #110
 616              	.LVL64:
 617              		.loc 1 219 15 view .LVU148
 618 00cc FFF7FEFF 		bl	write_reg
 619              	.LVL65:
 620              		.loc 1 219 7 view .LVU149
 621 00d0 0028     		cmp	r0, #0
 622 00d2 A2D1     		bne	.L38
 623              		.loc 1 222 5 is_stmt 1 view .LVU150
 624              		.loc 1 222 15 is_stmt 0 view .LVU151
 625 00d4 0246     		mov	r2, r0
 626 00d6 3921     		movs	r1, #57
 627 00d8 6E20     		movs	r0, #110
ARM GAS  /tmp/cczbsEFl.s 			page 12


 628              	.LVL66:
 629              		.loc 1 222 15 view .LVU152
 630 00da FFF7FEFF 		bl	write_reg
 631              	.LVL67:
 632              		.loc 1 222 7 view .LVU153
 633 00de 0028     		cmp	r0, #0
 634 00e0 9BD1     		bne	.L38
 635              		.loc 1 225 5 is_stmt 1 view .LVU154
 636              		.loc 1 225 15 is_stmt 0 view .LVU155
 637 00e2 0122     		movs	r2, #1
 638 00e4 3A21     		movs	r1, #58
 639 00e6 6E20     		movs	r0, #110
 640              	.LVL68:
 641              		.loc 1 225 15 view .LVU156
 642 00e8 FFF7FEFF 		bl	write_reg
 643              	.LVL69:
 644              		.loc 1 225 7 view .LVU157
 645 00ec 0028     		cmp	r0, #0
 646 00ee 94D1     		bne	.L38
 647              		.loc 1 228 5 is_stmt 1 view .LVU158
 648              		.loc 1 228 15 is_stmt 0 view .LVU159
 649 00f0 0122     		movs	r2, #1
 650 00f2 3B21     		movs	r1, #59
 651 00f4 6E20     		movs	r0, #110
 652              	.LVL70:
 653              		.loc 1 228 15 view .LVU160
 654 00f6 FFF7FEFF 		bl	write_reg
 655              	.LVL71:
 656              		.loc 1 228 7 view .LVU161
 657 00fa 0028     		cmp	r0, #0
 658 00fc 8DD1     		bne	.L38
 659              		.loc 1 231 5 is_stmt 1 view .LVU162
 660              		.loc 1 231 15 is_stmt 0 view .LVU163
 661 00fe E022     		movs	r2, #224
 662 0100 3C21     		movs	r1, #60
 663 0102 6E20     		movs	r0, #110
 664              	.LVL72:
 665              		.loc 1 231 15 view .LVU164
 666 0104 FFF7FEFF 		bl	write_reg
 667              	.LVL73:
 668              		.loc 1 231 7 view .LVU165
 669 0108 0028     		cmp	r0, #0
 670 010a 86D1     		bne	.L38
 671              		.loc 1 235 5 is_stmt 1 view .LVU166
 672              		.loc 1 235 15 is_stmt 0 view .LVU167
 673 010c 0246     		mov	r2, r0
 674 010e 3D21     		movs	r1, #61
 675 0110 6E20     		movs	r0, #110
 676              	.LVL74:
 677              		.loc 1 235 15 view .LVU168
 678 0112 FFF7FEFF 		bl	write_reg
 679              	.LVL75:
 680              		.loc 1 235 7 view .LVU169
 681 0116 0028     		cmp	r0, #0
 682 0118 7FF47FAF 		bne	.L38
 683              		.loc 1 238 5 is_stmt 1 view .LVU170
 684              		.loc 1 238 15 is_stmt 0 view .LVU171
ARM GAS  /tmp/cczbsEFl.s 			page 13


 685 011c D622     		movs	r2, #214
 686 011e 3E21     		movs	r1, #62
 687 0120 6E20     		movs	r0, #110
 688              	.LVL76:
 689              		.loc 1 238 15 view .LVU172
 690 0122 FFF7FEFF 		bl	write_reg
 691              	.LVL77:
 692              		.loc 1 238 7 view .LVU173
 693 0126 0028     		cmp	r0, #0
 694 0128 7FF477AF 		bne	.L38
 695              		.loc 1 241 5 is_stmt 1 view .LVU174
 696              		.loc 1 241 15 is_stmt 0 view .LVU175
 697 012c 0122     		movs	r2, #1
 698 012e 3F21     		movs	r1, #63
 699 0130 6E20     		movs	r0, #110
 700              	.LVL78:
 701              		.loc 1 241 15 view .LVU176
 702 0132 FFF7FEFF 		bl	write_reg
 703              	.LVL79:
 704              		.loc 1 241 7 view .LVU177
 705 0136 0028     		cmp	r0, #0
 706 0138 7FF46FAF 		bne	.L38
 707              		.loc 1 244 5 is_stmt 1 view .LVU178
 708              		.loc 1 244 15 is_stmt 0 view .LVU179
 709 013c AB22     		movs	r2, #171
 710 013e 4021     		movs	r1, #64
 711 0140 6E20     		movs	r0, #110
 712              	.LVL80:
 713              		.loc 1 244 15 view .LVU180
 714 0142 FFF7FEFF 		bl	write_reg
 715              	.LVL81:
 716              		.loc 1 244 7 view .LVU181
 717 0146 0028     		cmp	r0, #0
 718 0148 7FF467AF 		bne	.L38
 719              		.loc 1 247 5 is_stmt 1 view .LVU182
 720              		.loc 1 247 15 is_stmt 0 view .LVU183
 721 014c 0246     		mov	r2, r0
 722 014e 4121     		movs	r1, #65
 723 0150 6E20     		movs	r0, #110
 724              	.LVL82:
 725              		.loc 1 247 15 view .LVU184
 726 0152 FFF7FEFF 		bl	write_reg
 727              	.LVL83:
 728              		.loc 1 247 7 view .LVU185
 729 0156 0028     		cmp	r0, #0
 730 0158 7FF45FAF 		bne	.L38
 731              		.loc 1 250 5 is_stmt 1 view .LVU186
 732              		.loc 1 250 15 is_stmt 0 view .LVU187
 733 015c A122     		movs	r2, #161
 734 015e 4221     		movs	r1, #66
 735 0160 6E20     		movs	r0, #110
 736              	.LVL84:
 737              		.loc 1 250 15 view .LVU188
 738 0162 FFF7FEFF 		bl	write_reg
 739              	.LVL85:
 740              		.loc 1 250 7 view .LVU189
 741 0166 0028     		cmp	r0, #0
ARM GAS  /tmp/cczbsEFl.s 			page 14


 742 0168 7FF457AF 		bne	.L38
 743              		.loc 1 253 5 is_stmt 1 view .LVU190
 744              		.loc 1 253 15 is_stmt 0 view .LVU191
 745 016c 0122     		movs	r2, #1
 746 016e 4321     		movs	r1, #67
 747 0170 6E20     		movs	r0, #110
 748              	.LVL86:
 749              		.loc 1 253 15 view .LVU192
 750 0172 FFF7FEFF 		bl	write_reg
 751              	.LVL87:
 752              		.loc 1 253 7 view .LVU193
 753 0176 0028     		cmp	r0, #0
 754 0178 7FF44FAF 		bne	.L38
 755              		.loc 1 256 5 is_stmt 1 view .LVU194
 756              		.loc 1 256 15 is_stmt 0 view .LVU195
 757 017c 4022     		movs	r2, #64
 758 017e 4421     		movs	r1, #68
 759 0180 6E20     		movs	r0, #110
 760              	.LVL88:
 761              		.loc 1 256 15 view .LVU196
 762 0182 FFF7FEFF 		bl	write_reg
 763              	.LVL89:
 764              		.loc 1 256 7 view .LVU197
 765 0186 0028     		cmp	r0, #0
 766 0188 7FF447AF 		bne	.L38
 767              		.loc 1 260 5 is_stmt 1 view .LVU198
 768              	.LVL90:
 769              	.LBB100:
 770              	.LBI100:
 771              		.loc 1 118 8 view .LVU199
 772              	.LBB101:
 773              		.loc 1 119 5 view .LVU200
 774              		.loc 1 119 12 is_stmt 0 view .LVU201
 775 018c 0122     		movs	r2, #1
 776 018e 0321     		movs	r1, #3
 777 0190 6E20     		movs	r0, #110
 778              	.LVL91:
 779              		.loc 1 119 12 view .LVU202
 780 0192 FFF7FEFF 		bl	write_reg
 781              	.LVL92:
 782              		.loc 1 119 12 view .LVU203
 783              	.LBE101:
 784              	.LBE100:
 785              		.loc 1 260 7 view .LVU204
 786 0196 0028     		cmp	r0, #0
 787 0198 7FF43FAF 		bne	.L38
 788              		.loc 1 264 5 is_stmt 1 view .LVU205
 789              		.loc 1 264 15 is_stmt 0 view .LVU206
 790 019c 2022     		movs	r2, #32
 791 019e 9321     		movs	r1, #147
 792 01a0 6E20     		movs	r0, #110
 793              	.LVL93:
 794              		.loc 1 264 15 view .LVU207
 795 01a2 FFF7FEFF 		bl	write_reg
 796              	.LVL94:
 797              		.loc 1 264 7 view .LVU208
 798 01a6 0028     		cmp	r0, #0
ARM GAS  /tmp/cczbsEFl.s 			page 15


 799 01a8 7FF437AF 		bne	.L38
 800              		.loc 1 267 5 is_stmt 1 view .LVU209
 801              		.loc 1 267 15 is_stmt 0 view .LVU210
 802 01ac 2022     		movs	r2, #32
 803 01ae 9421     		movs	r1, #148
 804 01b0 6E20     		movs	r0, #110
 805              	.LVL95:
 806              		.loc 1 267 15 view .LVU211
 807 01b2 FFF7FEFF 		bl	write_reg
 808              	.LVL96:
 809              		.loc 1 267 7 view .LVU212
 810 01b6 0028     		cmp	r0, #0
 811 01b8 7FF42FAF 		bne	.L38
 812              		.loc 1 271 2 is_stmt 1 view .LVU213
 813              		.loc 1 272 2 view .LVU214
 814              		.loc 1 271 20 is_stmt 0 view .LVU215
 815 01bc 054B     		ldr	r3, .L43+4
 816 01be 064A     		ldr	r2, .L43+8
 817 01c0 1A60     		str	r2, [r3]
 818              		.loc 1 273 2 is_stmt 1 view .LVU216
 819              		.loc 1 273 33 is_stmt 0 view .LVU217
 820 01c2 2022     		movs	r2, #32
 821 01c4 5A71     		strb	r2, [r3, #5]
 822              		.loc 1 274 2 is_stmt 1 view .LVU218
 823              		.loc 1 274 33 is_stmt 0 view .LVU219
 824 01c6 9A71     		strb	r2, [r3, #6]
 825              		.loc 1 276 5 is_stmt 1 view .LVU220
 826              		.loc 1 276 12 is_stmt 0 view .LVU221
 827 01c8 27E7     		b	.L38
 828              	.LVL97:
 829              	.L42:
 830              		.loc 1 276 12 view .LVU222
 831              	.LBE99:
 832              	.LBE98:
 833              		.loc 1 277 1 view .LVU223
 834 01ca FFF7FEFF 		bl	__stack_chk_fail
 835              	.LVL98:
 836              	.L44:
 837 01ce 00BF     		.align	2
 838              	.L43:
 839 01d0 00000000 		.word	.LC3
 840 01d4 00000000 		.word	.LANCHOR0
 841 01d8 8002E001 		.word	31457920
 842              		.cfi_endproc
 843              	.LFE260:
 844              		.size	po8030_set_vga, .-po8030_set_vga
 845              		.section	.rodata.po8030_set_qvga.cst4,"aM",%progbits,4
 846              		.align	2
 847              	.LC4:
 848 0000 00000000 		.word	__stack_chk_guard
 849              		.section	.text.po8030_set_qvga,"ax",%progbits
 850              		.align	1
 851              		.p2align 4,,15
 852              		.global	po8030_set_qvga
 853              		.syntax unified
 854              		.thumb
 855              		.thumb_func
ARM GAS  /tmp/cczbsEFl.s 			page 16


 856              		.fpu fpv4-sp-d16
 857              		.type	po8030_set_qvga, %function
 858              	po8030_set_qvga:
 859              	.LFB261:
 860              		.loc 1 287 30 is_stmt 1 view -0
 861              		.cfi_startproc
 862              		@ args = 0, pretend = 0, frame = 8
 863              		@ frame_needed = 0, uses_anonymous_args = 0
 864 0000 00B5     		push	{lr}
 865              		.cfi_def_cfa_offset 4
 866              		.cfi_offset 14, -4
 867 0002 734B     		ldr	r3, .L51
 868 0004 83B0     		sub	sp, sp, #12
 869              		.cfi_def_cfa_offset 16
 870              	.LBB110:
 871              	.LBB111:
 872              		.loc 1 119 12 is_stmt 0 view .LVU225
 873 0006 0022     		movs	r2, #0
 874 0008 0321     		movs	r1, #3
 875 000a 6E20     		movs	r0, #110
 876              	.LBE111:
 877              	.LBE110:
 878              		.loc 1 287 30 view .LVU226
 879 000c 1B68     		ldr	r3, [r3]
 880 000e 0193     		str	r3, [sp, #4]
 881 0010 4FF00003 		mov	r3,#0
 882              		.loc 1 288 5 is_stmt 1 view .LVU227
 883              	.LVL99:
 884              		.loc 1 290 5 view .LVU228
 885              	.LBB113:
 886              	.LBI110:
 887              		.loc 1 118 8 view .LVU229
 888              	.LBB112:
 889              		.loc 1 119 5 view .LVU230
 890              		.loc 1 119 12 is_stmt 0 view .LVU231
 891 0014 FFF7FEFF 		bl	write_reg
 892              	.LVL100:
 893              		.loc 1 119 12 view .LVU232
 894              	.LBE112:
 895              	.LBE113:
 896              		.loc 1 290 7 view .LVU233
 897 0018 40B1     		cbz	r0, .L49
 898              	.LVL101:
 899              	.L46:
 900              		.loc 1 386 1 view .LVU234
 901 001a 6D4B     		ldr	r3, .L51
 902 001c 1A68     		ldr	r2, [r3]
 903 001e 019B     		ldr	r3, [sp, #4]
 904 0020 5A40     		eors	r2, r3, r2
 905 0022 40F0D280 		bne	.L50
 906 0026 03B0     		add	sp, sp, #12
 907              		.cfi_remember_state
 908              		.cfi_def_cfa_offset 4
 909              		@ sp needed
 910 0028 5DF804FB 		ldr	pc, [sp], #4
 911              	.LVL102:
 912              	.L49:
ARM GAS  /tmp/cczbsEFl.s 			page 17


 913              		.cfi_restore_state
 914              		.loc 1 294 5 is_stmt 1 view .LVU235
 915              		.loc 1 294 15 is_stmt 0 view .LVU236
 916 002c 0246     		mov	r2, r0
 917 002e 0821     		movs	r1, #8
 918 0030 6E20     		movs	r0, #110
 919              	.LVL103:
 920              		.loc 1 294 15 view .LVU237
 921 0032 FFF7FEFF 		bl	write_reg
 922              	.LVL104:
 923              		.loc 1 294 7 view .LVU238
 924 0036 0028     		cmp	r0, #0
 925 0038 EFD1     		bne	.L46
 926              		.loc 1 297 5 is_stmt 1 view .LVU239
 927              		.loc 1 297 15 is_stmt 0 view .LVU240
 928 003a 0122     		movs	r2, #1
 929 003c 0921     		movs	r1, #9
 930 003e 6E20     		movs	r0, #110
 931              	.LVL105:
 932              		.loc 1 297 15 view .LVU241
 933 0040 FFF7FEFF 		bl	write_reg
 934              	.LVL106:
 935              		.loc 1 297 7 view .LVU242
 936 0044 0028     		cmp	r0, #0
 937 0046 E8D1     		bne	.L46
 938              		.loc 1 300 5 is_stmt 1 view .LVU243
 939              		.loc 1 300 15 is_stmt 0 view .LVU244
 940 0048 0246     		mov	r2, r0
 941 004a 0A21     		movs	r1, #10
 942 004c 6E20     		movs	r0, #110
 943              	.LVL107:
 944              		.loc 1 300 15 view .LVU245
 945 004e FFF7FEFF 		bl	write_reg
 946              	.LVL108:
 947              		.loc 1 300 7 view .LVU246
 948 0052 0028     		cmp	r0, #0
 949 0054 E1D1     		bne	.L46
 950              		.loc 1 303 5 is_stmt 1 view .LVU247
 951              		.loc 1 303 15 is_stmt 0 view .LVU248
 952 0056 0122     		movs	r2, #1
 953 0058 0B21     		movs	r1, #11
 954 005a 6E20     		movs	r0, #110
 955              	.LVL109:
 956              		.loc 1 303 15 view .LVU249
 957 005c FFF7FEFF 		bl	write_reg
 958              	.LVL110:
 959              		.loc 1 303 7 view .LVU250
 960 0060 0028     		cmp	r0, #0
 961 0062 DAD1     		bne	.L46
 962              	.LBB114:
 963              	.LBI114:
 964              		.loc 1 287 8 is_stmt 1 view .LVU251
 965              	.LBB115:
 966              		.loc 1 306 5 view .LVU252
 967              		.loc 1 306 15 is_stmt 0 view .LVU253
 968 0064 0122     		movs	r2, #1
 969 0066 0C21     		movs	r1, #12
ARM GAS  /tmp/cczbsEFl.s 			page 18


 970 0068 6E20     		movs	r0, #110
 971              	.LVL111:
 972              		.loc 1 306 15 view .LVU254
 973 006a FFF7FEFF 		bl	write_reg
 974              	.LVL112:
 975              		.loc 1 306 7 view .LVU255
 976 006e 0028     		cmp	r0, #0
 977 0070 D3D1     		bne	.L46
 978              		.loc 1 309 5 is_stmt 1 view .LVU256
 979              		.loc 1 309 15 is_stmt 0 view .LVU257
 980 0072 4022     		movs	r2, #64
 981 0074 0D21     		movs	r1, #13
 982 0076 6E20     		movs	r0, #110
 983              	.LVL113:
 984              		.loc 1 309 15 view .LVU258
 985 0078 FFF7FEFF 		bl	write_reg
 986              	.LVL114:
 987              		.loc 1 309 7 view .LVU259
 988 007c 0028     		cmp	r0, #0
 989 007e CCD1     		bne	.L46
 990              		.loc 1 312 5 is_stmt 1 view .LVU260
 991              		.loc 1 312 15 is_stmt 0 view .LVU261
 992 0080 0246     		mov	r2, r0
 993 0082 0E21     		movs	r1, #14
 994 0084 6E20     		movs	r0, #110
 995              	.LVL115:
 996              		.loc 1 312 15 view .LVU262
 997 0086 FFF7FEFF 		bl	write_reg
 998              	.LVL116:
 999              		.loc 1 312 7 view .LVU263
 1000 008a 0028     		cmp	r0, #0
 1001 008c C5D1     		bne	.L46
 1002              		.loc 1 315 5 is_stmt 1 view .LVU264
 1003              		.loc 1 315 15 is_stmt 0 view .LVU265
 1004 008e F022     		movs	r2, #240
 1005 0090 0F21     		movs	r1, #15
 1006 0092 6E20     		movs	r0, #110
 1007              	.LVL117:
 1008              		.loc 1 315 15 view .LVU266
 1009 0094 FFF7FEFF 		bl	write_reg
 1010              	.LVL118:
 1011              		.loc 1 315 7 view .LVU267
 1012 0098 0028     		cmp	r0, #0
 1013 009a BED1     		bne	.L46
 1014              		.loc 1 319 5 is_stmt 1 view .LVU268
 1015              		.loc 1 319 15 is_stmt 0 view .LVU269
 1016 009c 0246     		mov	r2, r0
 1017 009e 3521     		movs	r1, #53
 1018 00a0 6E20     		movs	r0, #110
 1019              	.LVL119:
 1020              		.loc 1 319 15 view .LVU270
 1021 00a2 FFF7FEFF 		bl	write_reg
 1022              	.LVL120:
 1023              		.loc 1 319 7 view .LVU271
 1024 00a6 0028     		cmp	r0, #0
 1025 00a8 B7D1     		bne	.L46
 1026              		.loc 1 322 5 is_stmt 1 view .LVU272
ARM GAS  /tmp/cczbsEFl.s 			page 19


 1027              		.loc 1 322 15 is_stmt 0 view .LVU273
 1028 00aa 0122     		movs	r2, #1
 1029 00ac 3621     		movs	r1, #54
 1030 00ae 6E20     		movs	r0, #110
 1031              	.LVL121:
 1032              		.loc 1 322 15 view .LVU274
 1033 00b0 FFF7FEFF 		bl	write_reg
 1034              	.LVL122:
 1035              		.loc 1 322 7 view .LVU275
 1036 00b4 0028     		cmp	r0, #0
 1037 00b6 B0D1     		bne	.L46
 1038              		.loc 1 325 5 is_stmt 1 view .LVU276
 1039              		.loc 1 325 15 is_stmt 0 view .LVU277
 1040 00b8 0122     		movs	r2, #1
 1041 00ba 3721     		movs	r1, #55
 1042 00bc 6E20     		movs	r0, #110
 1043              	.LVL123:
 1044              		.loc 1 325 15 view .LVU278
 1045 00be FFF7FEFF 		bl	write_reg
 1046              	.LVL124:
 1047              		.loc 1 325 7 view .LVU279
 1048 00c2 0028     		cmp	r0, #0
 1049 00c4 A9D1     		bne	.L46
 1050              		.loc 1 328 5 is_stmt 1 view .LVU280
 1051              		.loc 1 328 15 is_stmt 0 view .LVU281
 1052 00c6 4022     		movs	r2, #64
 1053 00c8 3821     		movs	r1, #56
 1054 00ca 6E20     		movs	r0, #110
 1055              	.LVL125:
 1056              		.loc 1 328 15 view .LVU282
 1057 00cc FFF7FEFF 		bl	write_reg
 1058              	.LVL126:
 1059              		.loc 1 328 7 view .LVU283
 1060 00d0 0028     		cmp	r0, #0
 1061 00d2 A2D1     		bne	.L46
 1062              		.loc 1 331 5 is_stmt 1 view .LVU284
 1063              		.loc 1 331 15 is_stmt 0 view .LVU285
 1064 00d4 0246     		mov	r2, r0
 1065 00d6 3921     		movs	r1, #57
 1066 00d8 6E20     		movs	r0, #110
 1067              	.LVL127:
 1068              		.loc 1 331 15 view .LVU286
 1069 00da FFF7FEFF 		bl	write_reg
 1070              	.LVL128:
 1071              		.loc 1 331 7 view .LVU287
 1072 00de 0028     		cmp	r0, #0
 1073 00e0 9BD1     		bne	.L46
 1074              		.loc 1 334 5 is_stmt 1 view .LVU288
 1075              		.loc 1 334 15 is_stmt 0 view .LVU289
 1076 00e2 0122     		movs	r2, #1
 1077 00e4 3A21     		movs	r1, #58
 1078 00e6 6E20     		movs	r0, #110
 1079              	.LVL129:
 1080              		.loc 1 334 15 view .LVU290
 1081 00e8 FFF7FEFF 		bl	write_reg
 1082              	.LVL130:
 1083              		.loc 1 334 7 view .LVU291
ARM GAS  /tmp/cczbsEFl.s 			page 20


 1084 00ec 0028     		cmp	r0, #0
 1085 00ee 94D1     		bne	.L46
 1086              		.loc 1 337 5 is_stmt 1 view .LVU292
 1087              		.loc 1 337 15 is_stmt 0 view .LVU293
 1088 00f0 0246     		mov	r2, r0
 1089 00f2 3B21     		movs	r1, #59
 1090 00f4 6E20     		movs	r0, #110
 1091              	.LVL131:
 1092              		.loc 1 337 15 view .LVU294
 1093 00f6 FFF7FEFF 		bl	write_reg
 1094              	.LVL132:
 1095              		.loc 1 337 7 view .LVU295
 1096 00fa 0028     		cmp	r0, #0
 1097 00fc 8DD1     		bne	.L46
 1098              		.loc 1 340 5 is_stmt 1 view .LVU296
 1099              		.loc 1 340 15 is_stmt 0 view .LVU297
 1100 00fe F022     		movs	r2, #240
 1101 0100 3C21     		movs	r1, #60
 1102 0102 6E20     		movs	r0, #110
 1103              	.LVL133:
 1104              		.loc 1 340 15 view .LVU298
 1105 0104 FFF7FEFF 		bl	write_reg
 1106              	.LVL134:
 1107              		.loc 1 340 7 view .LVU299
 1108 0108 0028     		cmp	r0, #0
 1109 010a 86D1     		bne	.L46
 1110              		.loc 1 344 5 is_stmt 1 view .LVU300
 1111              		.loc 1 344 15 is_stmt 0 view .LVU301
 1112 010c 0246     		mov	r2, r0
 1113 010e 3D21     		movs	r1, #61
 1114 0110 6E20     		movs	r0, #110
 1115              	.LVL135:
 1116              		.loc 1 344 15 view .LVU302
 1117 0112 FFF7FEFF 		bl	write_reg
 1118              	.LVL136:
 1119              		.loc 1 344 7 view .LVU303
 1120 0116 0028     		cmp	r0, #0
 1121 0118 7FF47FAF 		bne	.L46
 1122              		.loc 1 347 5 is_stmt 1 view .LVU304
 1123              		.loc 1 347 15 is_stmt 0 view .LVU305
 1124 011c 6B22     		movs	r2, #107
 1125 011e 3E21     		movs	r1, #62
 1126 0120 6E20     		movs	r0, #110
 1127              	.LVL137:
 1128              		.loc 1 347 15 view .LVU306
 1129 0122 FFF7FEFF 		bl	write_reg
 1130              	.LVL138:
 1131              		.loc 1 347 7 view .LVU307
 1132 0126 0028     		cmp	r0, #0
 1133 0128 7FF477AF 		bne	.L46
 1134              		.loc 1 350 5 is_stmt 1 view .LVU308
 1135              		.loc 1 350 15 is_stmt 0 view .LVU309
 1136 012c 0246     		mov	r2, r0
 1137 012e 3F21     		movs	r1, #63
 1138 0130 6E20     		movs	r0, #110
 1139              	.LVL139:
 1140              		.loc 1 350 15 view .LVU310
ARM GAS  /tmp/cczbsEFl.s 			page 21


 1141 0132 FFF7FEFF 		bl	write_reg
 1142              	.LVL140:
 1143              		.loc 1 350 7 view .LVU311
 1144 0136 0028     		cmp	r0, #0
 1145 0138 7FF46FAF 		bne	.L46
 1146              		.loc 1 353 5 is_stmt 1 view .LVU312
 1147              		.loc 1 353 15 is_stmt 0 view .LVU313
 1148 013c D622     		movs	r2, #214
 1149 013e 4021     		movs	r1, #64
 1150 0140 6E20     		movs	r0, #110
 1151              	.LVL141:
 1152              		.loc 1 353 15 view .LVU314
 1153 0142 FFF7FEFF 		bl	write_reg
 1154              	.LVL142:
 1155              		.loc 1 353 7 view .LVU315
 1156 0146 0028     		cmp	r0, #0
 1157 0148 7FF467AF 		bne	.L46
 1158              		.loc 1 356 5 is_stmt 1 view .LVU316
 1159              		.loc 1 356 15 is_stmt 0 view .LVU317
 1160 014c 0246     		mov	r2, r0
 1161 014e 4121     		movs	r1, #65
 1162 0150 6E20     		movs	r0, #110
 1163              	.LVL143:
 1164              		.loc 1 356 15 view .LVU318
 1165 0152 FFF7FEFF 		bl	write_reg
 1166              	.LVL144:
 1167              		.loc 1 356 7 view .LVU319
 1168 0156 0028     		cmp	r0, #0
 1169 0158 7FF45FAF 		bne	.L46
 1170              		.loc 1 359 5 is_stmt 1 view .LVU320
 1171              		.loc 1 359 15 is_stmt 0 view .LVU321
 1172 015c 5022     		movs	r2, #80
 1173 015e 4221     		movs	r1, #66
 1174 0160 6E20     		movs	r0, #110
 1175              	.LVL145:
 1176              		.loc 1 359 15 view .LVU322
 1177 0162 FFF7FEFF 		bl	write_reg
 1178              	.LVL146:
 1179              		.loc 1 359 7 view .LVU323
 1180 0166 0028     		cmp	r0, #0
 1181 0168 7FF457AF 		bne	.L46
 1182              		.loc 1 362 5 is_stmt 1 view .LVU324
 1183              		.loc 1 362 15 is_stmt 0 view .LVU325
 1184 016c 0246     		mov	r2, r0
 1185 016e 4321     		movs	r1, #67
 1186 0170 6E20     		movs	r0, #110
 1187              	.LVL147:
 1188              		.loc 1 362 15 view .LVU326
 1189 0172 FFF7FEFF 		bl	write_reg
 1190              	.LVL148:
 1191              		.loc 1 362 7 view .LVU327
 1192 0176 0028     		cmp	r0, #0
 1193 0178 7FF44FAF 		bne	.L46
 1194              		.loc 1 365 5 is_stmt 1 view .LVU328
 1195              		.loc 1 365 15 is_stmt 0 view .LVU329
 1196 017c A022     		movs	r2, #160
 1197 017e 4421     		movs	r1, #68
ARM GAS  /tmp/cczbsEFl.s 			page 22


 1198 0180 6E20     		movs	r0, #110
 1199              	.LVL149:
 1200              		.loc 1 365 15 view .LVU330
 1201 0182 FFF7FEFF 		bl	write_reg
 1202              	.LVL150:
 1203              		.loc 1 365 7 view .LVU331
 1204 0186 0028     		cmp	r0, #0
 1205 0188 7FF447AF 		bne	.L46
 1206              		.loc 1 369 5 is_stmt 1 view .LVU332
 1207              	.LVL151:
 1208              	.LBB116:
 1209              	.LBI116:
 1210              		.loc 1 118 8 view .LVU333
 1211              	.LBB117:
 1212              		.loc 1 119 5 view .LVU334
 1213              		.loc 1 119 12 is_stmt 0 view .LVU335
 1214 018c 0122     		movs	r2, #1
 1215 018e 0321     		movs	r1, #3
 1216 0190 6E20     		movs	r0, #110
 1217              	.LVL152:
 1218              		.loc 1 119 12 view .LVU336
 1219 0192 FFF7FEFF 		bl	write_reg
 1220              	.LVL153:
 1221              		.loc 1 119 12 view .LVU337
 1222              	.LBE117:
 1223              	.LBE116:
 1224              		.loc 1 369 7 view .LVU338
 1225 0196 0028     		cmp	r0, #0
 1226 0198 7FF43FAF 		bne	.L46
 1227              		.loc 1 373 5 is_stmt 1 view .LVU339
 1228              		.loc 1 373 15 is_stmt 0 view .LVU340
 1229 019c 4022     		movs	r2, #64
 1230 019e 9321     		movs	r1, #147
 1231 01a0 6E20     		movs	r0, #110
 1232              	.LVL154:
 1233              		.loc 1 373 15 view .LVU341
 1234 01a2 FFF7FEFF 		bl	write_reg
 1235              	.LVL155:
 1236              		.loc 1 373 7 view .LVU342
 1237 01a6 0028     		cmp	r0, #0
 1238 01a8 7FF437AF 		bne	.L46
 1239              		.loc 1 376 5 is_stmt 1 view .LVU343
 1240              		.loc 1 376 15 is_stmt 0 view .LVU344
 1241 01ac 4022     		movs	r2, #64
 1242 01ae 9421     		movs	r1, #148
 1243 01b0 6E20     		movs	r0, #110
 1244              	.LVL156:
 1245              		.loc 1 376 15 view .LVU345
 1246 01b2 FFF7FEFF 		bl	write_reg
 1247              	.LVL157:
 1248              		.loc 1 376 7 view .LVU346
 1249 01b6 0028     		cmp	r0, #0
 1250 01b8 7FF42FAF 		bne	.L46
 1251              		.loc 1 380 2 is_stmt 1 view .LVU347
 1252              		.loc 1 381 2 view .LVU348
 1253              		.loc 1 380 20 is_stmt 0 view .LVU349
 1254 01bc 054B     		ldr	r3, .L51+4
ARM GAS  /tmp/cczbsEFl.s 			page 23


 1255 01be 064A     		ldr	r2, .L51+8
 1256 01c0 1A60     		str	r2, [r3]
 1257              		.loc 1 382 2 is_stmt 1 view .LVU350
 1258              		.loc 1 382 33 is_stmt 0 view .LVU351
 1259 01c2 2022     		movs	r2, #32
 1260 01c4 5A71     		strb	r2, [r3, #5]
 1261              		.loc 1 383 2 is_stmt 1 view .LVU352
 1262              		.loc 1 383 33 is_stmt 0 view .LVU353
 1263 01c6 9A71     		strb	r2, [r3, #6]
 1264              		.loc 1 385 5 is_stmt 1 view .LVU354
 1265              		.loc 1 385 12 is_stmt 0 view .LVU355
 1266 01c8 27E7     		b	.L46
 1267              	.LVL158:
 1268              	.L50:
 1269              		.loc 1 385 12 view .LVU356
 1270              	.LBE115:
 1271              	.LBE114:
 1272              		.loc 1 386 1 view .LVU357
 1273 01ca FFF7FEFF 		bl	__stack_chk_fail
 1274              	.LVL159:
 1275              	.L52:
 1276 01ce 00BF     		.align	2
 1277              	.L51:
 1278 01d0 00000000 		.word	.LC4
 1279 01d4 00000000 		.word	.LANCHOR0
 1280 01d8 4001F000 		.word	15728960
 1281              		.cfi_endproc
 1282              	.LFE261:
 1283              		.size	po8030_set_qvga, .-po8030_set_qvga
 1284              		.section	.rodata.po8030_set_qqvga.cst4,"aM",%progbits,4
 1285              		.align	2
 1286              	.LC5:
 1287 0000 00000000 		.word	__stack_chk_guard
 1288              		.section	.text.po8030_set_qqvga,"ax",%progbits
 1289              		.align	1
 1290              		.p2align 4,,15
 1291              		.global	po8030_set_qqvga
 1292              		.syntax unified
 1293              		.thumb
 1294              		.thumb_func
 1295              		.fpu fpv4-sp-d16
 1296              		.type	po8030_set_qqvga, %function
 1297              	po8030_set_qqvga:
 1298              	.LFB262:
 1299              		.loc 1 396 31 is_stmt 1 view -0
 1300              		.cfi_startproc
 1301              		@ args = 0, pretend = 0, frame = 8
 1302              		@ frame_needed = 0, uses_anonymous_args = 0
 1303 0000 00B5     		push	{lr}
 1304              		.cfi_def_cfa_offset 4
 1305              		.cfi_offset 14, -4
 1306 0002 734B     		ldr	r3, .L59
 1307 0004 83B0     		sub	sp, sp, #12
 1308              		.cfi_def_cfa_offset 16
 1309              	.LBB126:
 1310              	.LBB127:
 1311              		.loc 1 119 12 is_stmt 0 view .LVU359
ARM GAS  /tmp/cczbsEFl.s 			page 24


 1312 0006 0022     		movs	r2, #0
 1313 0008 0321     		movs	r1, #3
 1314 000a 6E20     		movs	r0, #110
 1315              	.LBE127:
 1316              	.LBE126:
 1317              		.loc 1 396 31 view .LVU360
 1318 000c 1B68     		ldr	r3, [r3]
 1319 000e 0193     		str	r3, [sp, #4]
 1320 0010 4FF00003 		mov	r3,#0
 1321              		.loc 1 397 5 is_stmt 1 view .LVU361
 1322              	.LVL160:
 1323              		.loc 1 399 5 view .LVU362
 1324              	.LBB129:
 1325              	.LBI126:
 1326              		.loc 1 118 8 view .LVU363
 1327              	.LBB128:
 1328              		.loc 1 119 5 view .LVU364
 1329              		.loc 1 119 12 is_stmt 0 view .LVU365
 1330 0014 FFF7FEFF 		bl	write_reg
 1331              	.LVL161:
 1332              		.loc 1 119 12 view .LVU366
 1333              	.LBE128:
 1334              	.LBE129:
 1335              		.loc 1 399 7 view .LVU367
 1336 0018 40B1     		cbz	r0, .L57
 1337              	.LVL162:
 1338              	.L54:
 1339              		.loc 1 495 1 view .LVU368
 1340 001a 6D4B     		ldr	r3, .L59
 1341 001c 1A68     		ldr	r2, [r3]
 1342 001e 019B     		ldr	r3, [sp, #4]
 1343 0020 5A40     		eors	r2, r3, r2
 1344 0022 40F0D280 		bne	.L58
 1345 0026 03B0     		add	sp, sp, #12
 1346              		.cfi_remember_state
 1347              		.cfi_def_cfa_offset 4
 1348              		@ sp needed
 1349 0028 5DF804FB 		ldr	pc, [sp], #4
 1350              	.LVL163:
 1351              	.L57:
 1352              		.cfi_restore_state
 1353              		.loc 1 403 5 is_stmt 1 view .LVU369
 1354              		.loc 1 403 15 is_stmt 0 view .LVU370
 1355 002c 0246     		mov	r2, r0
 1356 002e 0821     		movs	r1, #8
 1357 0030 6E20     		movs	r0, #110
 1358              	.LVL164:
 1359              		.loc 1 403 15 view .LVU371
 1360 0032 FFF7FEFF 		bl	write_reg
 1361              	.LVL165:
 1362              		.loc 1 403 7 view .LVU372
 1363 0036 0028     		cmp	r0, #0
 1364 0038 EFD1     		bne	.L54
 1365              		.loc 1 406 5 is_stmt 1 view .LVU373
 1366              		.loc 1 406 15 is_stmt 0 view .LVU374
 1367 003a 0122     		movs	r2, #1
 1368 003c 0921     		movs	r1, #9
ARM GAS  /tmp/cczbsEFl.s 			page 25


 1369 003e 6E20     		movs	r0, #110
 1370              	.LVL166:
 1371              		.loc 1 406 15 view .LVU375
 1372 0040 FFF7FEFF 		bl	write_reg
 1373              	.LVL167:
 1374              		.loc 1 406 7 view .LVU376
 1375 0044 0028     		cmp	r0, #0
 1376 0046 E8D1     		bne	.L54
 1377              		.loc 1 409 5 is_stmt 1 view .LVU377
 1378              		.loc 1 409 15 is_stmt 0 view .LVU378
 1379 0048 0246     		mov	r2, r0
 1380 004a 0A21     		movs	r1, #10
 1381 004c 6E20     		movs	r0, #110
 1382              	.LVL168:
 1383              		.loc 1 409 15 view .LVU379
 1384 004e FFF7FEFF 		bl	write_reg
 1385              	.LVL169:
 1386              		.loc 1 409 7 view .LVU380
 1387 0052 0028     		cmp	r0, #0
 1388 0054 E1D1     		bne	.L54
 1389              		.loc 1 412 5 is_stmt 1 view .LVU381
 1390              		.loc 1 412 15 is_stmt 0 view .LVU382
 1391 0056 0122     		movs	r2, #1
 1392 0058 0B21     		movs	r1, #11
 1393 005a 6E20     		movs	r0, #110
 1394              	.LVL170:
 1395              		.loc 1 412 15 view .LVU383
 1396 005c FFF7FEFF 		bl	write_reg
 1397              	.LVL171:
 1398              		.loc 1 412 7 view .LVU384
 1399 0060 0028     		cmp	r0, #0
 1400 0062 DAD1     		bne	.L54
 1401              	.LBB130:
 1402              	.LBI130:
 1403              		.loc 1 396 8 is_stmt 1 view .LVU385
 1404              	.LBB131:
 1405              		.loc 1 415 5 view .LVU386
 1406              		.loc 1 415 15 is_stmt 0 view .LVU387
 1407 0064 0246     		mov	r2, r0
 1408 0066 0C21     		movs	r1, #12
 1409 0068 6E20     		movs	r0, #110
 1410              	.LVL172:
 1411              		.loc 1 415 15 view .LVU388
 1412 006a FFF7FEFF 		bl	write_reg
 1413              	.LVL173:
 1414              		.loc 1 415 7 view .LVU389
 1415 006e 0028     		cmp	r0, #0
 1416 0070 D3D1     		bne	.L54
 1417              		.loc 1 418 5 is_stmt 1 view .LVU390
 1418              		.loc 1 418 15 is_stmt 0 view .LVU391
 1419 0072 A022     		movs	r2, #160
 1420 0074 0D21     		movs	r1, #13
 1421 0076 6E20     		movs	r0, #110
 1422              	.LVL174:
 1423              		.loc 1 418 15 view .LVU392
 1424 0078 FFF7FEFF 		bl	write_reg
 1425              	.LVL175:
ARM GAS  /tmp/cczbsEFl.s 			page 26


 1426              		.loc 1 418 7 view .LVU393
 1427 007c 0028     		cmp	r0, #0
 1428 007e CCD1     		bne	.L54
 1429              		.loc 1 421 5 is_stmt 1 view .LVU394
 1430              		.loc 1 421 15 is_stmt 0 view .LVU395
 1431 0080 0246     		mov	r2, r0
 1432 0082 0E21     		movs	r1, #14
 1433 0084 6E20     		movs	r0, #110
 1434              	.LVL176:
 1435              		.loc 1 421 15 view .LVU396
 1436 0086 FFF7FEFF 		bl	write_reg
 1437              	.LVL177:
 1438              		.loc 1 421 7 view .LVU397
 1439 008a 0028     		cmp	r0, #0
 1440 008c C5D1     		bne	.L54
 1441              		.loc 1 424 5 is_stmt 1 view .LVU398
 1442              		.loc 1 424 15 is_stmt 0 view .LVU399
 1443 008e 7822     		movs	r2, #120
 1444 0090 0F21     		movs	r1, #15
 1445 0092 6E20     		movs	r0, #110
 1446              	.LVL178:
 1447              		.loc 1 424 15 view .LVU400
 1448 0094 FFF7FEFF 		bl	write_reg
 1449              	.LVL179:
 1450              		.loc 1 424 7 view .LVU401
 1451 0098 0028     		cmp	r0, #0
 1452 009a BED1     		bne	.L54
 1453              		.loc 1 428 5 is_stmt 1 view .LVU402
 1454              		.loc 1 428 15 is_stmt 0 view .LVU403
 1455 009c 0246     		mov	r2, r0
 1456 009e 3521     		movs	r1, #53
 1457 00a0 6E20     		movs	r0, #110
 1458              	.LVL180:
 1459              		.loc 1 428 15 view .LVU404
 1460 00a2 FFF7FEFF 		bl	write_reg
 1461              	.LVL181:
 1462              		.loc 1 428 7 view .LVU405
 1463 00a6 0028     		cmp	r0, #0
 1464 00a8 B7D1     		bne	.L54
 1465              		.loc 1 431 5 is_stmt 1 view .LVU406
 1466              		.loc 1 431 15 is_stmt 0 view .LVU407
 1467 00aa 0122     		movs	r2, #1
 1468 00ac 3621     		movs	r1, #54
 1469 00ae 6E20     		movs	r0, #110
 1470              	.LVL182:
 1471              		.loc 1 431 15 view .LVU408
 1472 00b0 FFF7FEFF 		bl	write_reg
 1473              	.LVL183:
 1474              		.loc 1 431 7 view .LVU409
 1475 00b4 0028     		cmp	r0, #0
 1476 00b6 B0D1     		bne	.L54
 1477              		.loc 1 434 5 is_stmt 1 view .LVU410
 1478              		.loc 1 434 15 is_stmt 0 view .LVU411
 1479 00b8 0246     		mov	r2, r0
 1480 00ba 3721     		movs	r1, #55
 1481 00bc 6E20     		movs	r0, #110
 1482              	.LVL184:
ARM GAS  /tmp/cczbsEFl.s 			page 27


 1483              		.loc 1 434 15 view .LVU412
 1484 00be FFF7FEFF 		bl	write_reg
 1485              	.LVL185:
 1486              		.loc 1 434 7 view .LVU413
 1487 00c2 0028     		cmp	r0, #0
 1488 00c4 A9D1     		bne	.L54
 1489              		.loc 1 437 5 is_stmt 1 view .LVU414
 1490              		.loc 1 437 15 is_stmt 0 view .LVU415
 1491 00c6 A022     		movs	r2, #160
 1492 00c8 3821     		movs	r1, #56
 1493 00ca 6E20     		movs	r0, #110
 1494              	.LVL186:
 1495              		.loc 1 437 15 view .LVU416
 1496 00cc FFF7FEFF 		bl	write_reg
 1497              	.LVL187:
 1498              		.loc 1 437 7 view .LVU417
 1499 00d0 0028     		cmp	r0, #0
 1500 00d2 A2D1     		bne	.L54
 1501              		.loc 1 440 5 is_stmt 1 view .LVU418
 1502              		.loc 1 440 15 is_stmt 0 view .LVU419
 1503 00d4 0246     		mov	r2, r0
 1504 00d6 3921     		movs	r1, #57
 1505 00d8 6E20     		movs	r0, #110
 1506              	.LVL188:
 1507              		.loc 1 440 15 view .LVU420
 1508 00da FFF7FEFF 		bl	write_reg
 1509              	.LVL189:
 1510              		.loc 1 440 7 view .LVU421
 1511 00de 0028     		cmp	r0, #0
 1512 00e0 9BD1     		bne	.L54
 1513              		.loc 1 443 5 is_stmt 1 view .LVU422
 1514              		.loc 1 443 15 is_stmt 0 view .LVU423
 1515 00e2 0122     		movs	r2, #1
 1516 00e4 3A21     		movs	r1, #58
 1517 00e6 6E20     		movs	r0, #110
 1518              	.LVL190:
 1519              		.loc 1 443 15 view .LVU424
 1520 00e8 FFF7FEFF 		bl	write_reg
 1521              	.LVL191:
 1522              		.loc 1 443 7 view .LVU425
 1523 00ec 0028     		cmp	r0, #0
 1524 00ee 94D1     		bne	.L54
 1525              		.loc 1 446 5 is_stmt 1 view .LVU426
 1526              		.loc 1 446 15 is_stmt 0 view .LVU427
 1527 00f0 0246     		mov	r2, r0
 1528 00f2 3B21     		movs	r1, #59
 1529 00f4 6E20     		movs	r0, #110
 1530              	.LVL192:
 1531              		.loc 1 446 15 view .LVU428
 1532 00f6 FFF7FEFF 		bl	write_reg
 1533              	.LVL193:
 1534              		.loc 1 446 7 view .LVU429
 1535 00fa 0028     		cmp	r0, #0
 1536 00fc 8DD1     		bne	.L54
 1537              		.loc 1 449 5 is_stmt 1 view .LVU430
 1538              		.loc 1 449 15 is_stmt 0 view .LVU431
 1539 00fe 7822     		movs	r2, #120
ARM GAS  /tmp/cczbsEFl.s 			page 28


 1540 0100 3C21     		movs	r1, #60
 1541 0102 6E20     		movs	r0, #110
 1542              	.LVL194:
 1543              		.loc 1 449 15 view .LVU432
 1544 0104 FFF7FEFF 		bl	write_reg
 1545              	.LVL195:
 1546              		.loc 1 449 7 view .LVU433
 1547 0108 0028     		cmp	r0, #0
 1548 010a 86D1     		bne	.L54
 1549              		.loc 1 453 5 is_stmt 1 view .LVU434
 1550              		.loc 1 453 15 is_stmt 0 view .LVU435
 1551 010c 0246     		mov	r2, r0
 1552 010e 3D21     		movs	r1, #61
 1553 0110 6E20     		movs	r0, #110
 1554              	.LVL196:
 1555              		.loc 1 453 15 view .LVU436
 1556 0112 FFF7FEFF 		bl	write_reg
 1557              	.LVL197:
 1558              		.loc 1 453 7 view .LVU437
 1559 0116 0028     		cmp	r0, #0
 1560 0118 7FF47FAF 		bne	.L54
 1561              		.loc 1 456 5 is_stmt 1 view .LVU438
 1562              		.loc 1 456 15 is_stmt 0 view .LVU439
 1563 011c 3622     		movs	r2, #54
 1564 011e 3E21     		movs	r1, #62
 1565 0120 6E20     		movs	r0, #110
 1566              	.LVL198:
 1567              		.loc 1 456 15 view .LVU440
 1568 0122 FFF7FEFF 		bl	write_reg
 1569              	.LVL199:
 1570              		.loc 1 456 7 view .LVU441
 1571 0126 0028     		cmp	r0, #0
 1572 0128 7FF477AF 		bne	.L54
 1573              		.loc 1 459 5 is_stmt 1 view .LVU442
 1574              		.loc 1 459 15 is_stmt 0 view .LVU443
 1575 012c 0246     		mov	r2, r0
 1576 012e 3F21     		movs	r1, #63
 1577 0130 6E20     		movs	r0, #110
 1578              	.LVL200:
 1579              		.loc 1 459 15 view .LVU444
 1580 0132 FFF7FEFF 		bl	write_reg
 1581              	.LVL201:
 1582              		.loc 1 459 7 view .LVU445
 1583 0136 0028     		cmp	r0, #0
 1584 0138 7FF46FAF 		bne	.L54
 1585              		.loc 1 462 5 is_stmt 1 view .LVU446
 1586              		.loc 1 462 15 is_stmt 0 view .LVU447
 1587 013c 6B22     		movs	r2, #107
 1588 013e 4021     		movs	r1, #64
 1589 0140 6E20     		movs	r0, #110
 1590              	.LVL202:
 1591              		.loc 1 462 15 view .LVU448
 1592 0142 FFF7FEFF 		bl	write_reg
 1593              	.LVL203:
 1594              		.loc 1 462 7 view .LVU449
 1595 0146 0028     		cmp	r0, #0
 1596 0148 7FF467AF 		bne	.L54
ARM GAS  /tmp/cczbsEFl.s 			page 29


 1597              		.loc 1 465 5 is_stmt 1 view .LVU450
 1598              		.loc 1 465 15 is_stmt 0 view .LVU451
 1599 014c 0246     		mov	r2, r0
 1600 014e 4121     		movs	r1, #65
 1601 0150 6E20     		movs	r0, #110
 1602              	.LVL204:
 1603              		.loc 1 465 15 view .LVU452
 1604 0152 FFF7FEFF 		bl	write_reg
 1605              	.LVL205:
 1606              		.loc 1 465 7 view .LVU453
 1607 0156 0028     		cmp	r0, #0
 1608 0158 7FF45FAF 		bne	.L54
 1609              		.loc 1 468 5 is_stmt 1 view .LVU454
 1610              		.loc 1 468 15 is_stmt 0 view .LVU455
 1611 015c 2922     		movs	r2, #41
 1612 015e 4221     		movs	r1, #66
 1613 0160 6E20     		movs	r0, #110
 1614              	.LVL206:
 1615              		.loc 1 468 15 view .LVU456
 1616 0162 FFF7FEFF 		bl	write_reg
 1617              	.LVL207:
 1618              		.loc 1 468 7 view .LVU457
 1619 0166 0028     		cmp	r0, #0
 1620 0168 7FF457AF 		bne	.L54
 1621              		.loc 1 471 5 is_stmt 1 view .LVU458
 1622              		.loc 1 471 15 is_stmt 0 view .LVU459
 1623 016c 0246     		mov	r2, r0
 1624 016e 4321     		movs	r1, #67
 1625 0170 6E20     		movs	r0, #110
 1626              	.LVL208:
 1627              		.loc 1 471 15 view .LVU460
 1628 0172 FFF7FEFF 		bl	write_reg
 1629              	.LVL209:
 1630              		.loc 1 471 7 view .LVU461
 1631 0176 0028     		cmp	r0, #0
 1632 0178 7FF44FAF 		bne	.L54
 1633              		.loc 1 474 5 is_stmt 1 view .LVU462
 1634              		.loc 1 474 15 is_stmt 0 view .LVU463
 1635 017c 5022     		movs	r2, #80
 1636 017e 4421     		movs	r1, #68
 1637 0180 6E20     		movs	r0, #110
 1638              	.LVL210:
 1639              		.loc 1 474 15 view .LVU464
 1640 0182 FFF7FEFF 		bl	write_reg
 1641              	.LVL211:
 1642              		.loc 1 474 7 view .LVU465
 1643 0186 0028     		cmp	r0, #0
 1644 0188 7FF447AF 		bne	.L54
 1645              		.loc 1 478 5 is_stmt 1 view .LVU466
 1646              	.LVL212:
 1647              	.LBB132:
 1648              	.LBI132:
 1649              		.loc 1 118 8 view .LVU467
 1650              	.LBB133:
 1651              		.loc 1 119 5 view .LVU468
 1652              		.loc 1 119 12 is_stmt 0 view .LVU469
 1653 018c 0122     		movs	r2, #1
ARM GAS  /tmp/cczbsEFl.s 			page 30


 1654 018e 0321     		movs	r1, #3
 1655 0190 6E20     		movs	r0, #110
 1656              	.LVL213:
 1657              		.loc 1 119 12 view .LVU470
 1658 0192 FFF7FEFF 		bl	write_reg
 1659              	.LVL214:
 1660              		.loc 1 119 12 view .LVU471
 1661              	.LBE133:
 1662              	.LBE132:
 1663              		.loc 1 478 7 view .LVU472
 1664 0196 0028     		cmp	r0, #0
 1665 0198 7FF43FAF 		bne	.L54
 1666              		.loc 1 482 5 is_stmt 1 view .LVU473
 1667              		.loc 1 482 15 is_stmt 0 view .LVU474
 1668 019c 8022     		movs	r2, #128
 1669 019e 9321     		movs	r1, #147
 1670 01a0 6E20     		movs	r0, #110
 1671              	.LVL215:
 1672              		.loc 1 482 15 view .LVU475
 1673 01a2 FFF7FEFF 		bl	write_reg
 1674              	.LVL216:
 1675              		.loc 1 482 7 view .LVU476
 1676 01a6 0028     		cmp	r0, #0
 1677 01a8 7FF437AF 		bne	.L54
 1678              		.loc 1 485 5 is_stmt 1 view .LVU477
 1679              		.loc 1 485 15 is_stmt 0 view .LVU478
 1680 01ac 8022     		movs	r2, #128
 1681 01ae 9421     		movs	r1, #148
 1682 01b0 6E20     		movs	r0, #110
 1683              	.LVL217:
 1684              		.loc 1 485 15 view .LVU479
 1685 01b2 FFF7FEFF 		bl	write_reg
 1686              	.LVL218:
 1687              		.loc 1 485 7 view .LVU480
 1688 01b6 0028     		cmp	r0, #0
 1689 01b8 7FF42FAF 		bne	.L54
 1690              		.loc 1 489 2 is_stmt 1 view .LVU481
 1691              		.loc 1 490 2 view .LVU482
 1692              		.loc 1 489 20 is_stmt 0 view .LVU483
 1693 01bc 054B     		ldr	r3, .L59+4
 1694 01be 064A     		ldr	r2, .L59+8
 1695 01c0 1A60     		str	r2, [r3]
 1696              		.loc 1 491 2 is_stmt 1 view .LVU484
 1697              		.loc 1 491 33 is_stmt 0 view .LVU485
 1698 01c2 2022     		movs	r2, #32
 1699 01c4 5A71     		strb	r2, [r3, #5]
 1700              		.loc 1 492 2 is_stmt 1 view .LVU486
 1701              		.loc 1 492 33 is_stmt 0 view .LVU487
 1702 01c6 9A71     		strb	r2, [r3, #6]
 1703              		.loc 1 494 5 is_stmt 1 view .LVU488
 1704              		.loc 1 494 12 is_stmt 0 view .LVU489
 1705 01c8 27E7     		b	.L54
 1706              	.LVL219:
 1707              	.L58:
 1708              		.loc 1 494 12 view .LVU490
 1709              	.LBE131:
 1710              	.LBE130:
ARM GAS  /tmp/cczbsEFl.s 			page 31


 1711              		.loc 1 495 1 view .LVU491
 1712 01ca FFF7FEFF 		bl	__stack_chk_fail
 1713              	.LVL220:
 1714              	.L60:
 1715 01ce 00BF     		.align	2
 1716              	.L59:
 1717 01d0 00000000 		.word	.LC5
 1718 01d4 00000000 		.word	.LANCHOR0
 1719 01d8 A0007800 		.word	7864480
 1720              		.cfi_endproc
 1721              	.LFE262:
 1722              		.size	po8030_set_qqvga, .-po8030_set_qqvga
 1723              		.section	.rodata.po8030_set_size.cst4,"aM",%progbits,4
 1724              		.align	2
 1725              	.LC6:
 1726 0000 00000000 		.word	__stack_chk_guard
 1727              		.section	.text.po8030_set_size,"ax",%progbits
 1728              		.align	1
 1729              		.p2align 4,,15
 1730              		.global	po8030_set_size
 1731              		.syntax unified
 1732              		.thumb
 1733              		.thumb_func
 1734              		.fpu fpv4-sp-d16
 1735              		.type	po8030_set_size, %function
 1736              	po8030_set_size:
 1737              	.LVL221:
 1738              	.LFB263:
 1739              		.loc 1 507 46 is_stmt 1 view -0
 1740              		.cfi_startproc
 1741              		@ args = 0, pretend = 0, frame = 8
 1742              		@ frame_needed = 0, uses_anonymous_args = 0
 1743              		.loc 1 507 46 is_stmt 0 view .LVU493
 1744 0000 00B5     		push	{lr}
 1745              		.cfi_def_cfa_offset 4
 1746              		.cfi_offset 14, -4
 1747 0002 194B     		ldr	r3, .L74
 1748 0004 83B0     		sub	sp, sp, #12
 1749              		.cfi_def_cfa_offset 16
 1750              		.loc 1 507 46 view .LVU494
 1751 0006 1B68     		ldr	r3, [r3]
 1752 0008 0193     		str	r3, [sp, #4]
 1753 000a 4FF00003 		mov	r3,#0
 1754              		.loc 1 508 5 is_stmt 1 view .LVU495
 1755              		.loc 1 509 16 is_stmt 0 view .LVU496
 1756 000e 164B     		ldr	r3, .L74
 1757              		.loc 1 508 7 view .LVU497
 1758 0010 60B1     		cbz	r0, .L72
 1759              		.loc 1 510 12 is_stmt 1 view .LVU498
 1760              		.loc 1 510 14 is_stmt 0 view .LVU499
 1761 0012 0128     		cmp	r0, #1
 1762 0014 13D0     		beq	.L73
 1763              		.loc 1 512 12 is_stmt 1 view .LVU500
 1764              		.loc 1 512 14 is_stmt 0 view .LVU501
 1765 0016 0228     		cmp	r0, #2
 1766 0018 1AD1     		bne	.L66
 1767              		.loc 1 513 9 is_stmt 1 view .LVU502
ARM GAS  /tmp/cczbsEFl.s 			page 32


 1768              		.loc 1 513 16 is_stmt 0 view .LVU503
 1769 001a 1A68     		ldr	r2, [r3]
 1770 001c 019B     		ldr	r3, [sp, #4]
 1771 001e 5A40     		eors	r2, r3, r2
 1772 0020 1FD1     		bne	.L71
 1773              		.loc 1 517 1 view .LVU504
 1774 0022 03B0     		add	sp, sp, #12
 1775              		.cfi_remember_state
 1776              		.cfi_def_cfa_offset 4
 1777              		@ sp needed
 1778 0024 5DF804EB 		ldr	lr, [sp], #4
 1779              		.cfi_restore 14
 1780              		.cfi_def_cfa_offset 0
 1781              		.loc 1 513 16 view .LVU505
 1782 0028 FFF7FEBF 		b	po8030_set_qqvga
 1783              	.LVL222:
 1784              	.L72:
 1785              		.cfi_restore_state
 1786              		.loc 1 509 9 is_stmt 1 view .LVU506
 1787              		.loc 1 509 16 is_stmt 0 view .LVU507
 1788 002c 1A68     		ldr	r2, [r3]
 1789 002e 019B     		ldr	r3, [sp, #4]
 1790 0030 5A40     		eors	r2, r3, r2
 1791 0032 16D1     		bne	.L71
 1792              		.loc 1 517 1 view .LVU508
 1793 0034 03B0     		add	sp, sp, #12
 1794              		.cfi_remember_state
 1795              		.cfi_def_cfa_offset 4
 1796              		@ sp needed
 1797 0036 5DF804EB 		ldr	lr, [sp], #4
 1798              		.cfi_restore 14
 1799              		.cfi_def_cfa_offset 0
 1800              		.loc 1 509 16 view .LVU509
 1801 003a FFF7FEBF 		b	po8030_set_vga
 1802              	.LVL223:
 1803              	.L73:
 1804              		.cfi_restore_state
 1805              		.loc 1 511 9 is_stmt 1 view .LVU510
 1806              		.loc 1 511 16 is_stmt 0 view .LVU511
 1807 003e 1A68     		ldr	r2, [r3]
 1808 0040 019B     		ldr	r3, [sp, #4]
 1809 0042 5A40     		eors	r2, r3, r2
 1810 0044 0DD1     		bne	.L71
 1811              		.loc 1 517 1 view .LVU512
 1812 0046 03B0     		add	sp, sp, #12
 1813              		.cfi_remember_state
 1814              		.cfi_def_cfa_offset 4
 1815              		@ sp needed
 1816 0048 5DF804EB 		ldr	lr, [sp], #4
 1817              		.cfi_restore 14
 1818              		.cfi_def_cfa_offset 0
 1819              		.loc 1 511 16 view .LVU513
 1820 004c FFF7FEBF 		b	po8030_set_qvga
 1821              	.LVL224:
 1822              	.L66:
 1823              		.cfi_restore_state
 1824              		.loc 1 517 1 view .LVU514
ARM GAS  /tmp/cczbsEFl.s 			page 33


 1825 0050 1A68     		ldr	r2, [r3]
 1826 0052 019B     		ldr	r3, [sp, #4]
 1827 0054 5A40     		eors	r2, r3, r2
 1828 0056 04D1     		bne	.L71
 1829 0058 4FF0FF30 		mov	r0, #-1
 1830              	.LVL225:
 1831              		.loc 1 517 1 view .LVU515
 1832 005c 03B0     		add	sp, sp, #12
 1833              		.cfi_remember_state
 1834              		.cfi_def_cfa_offset 4
 1835              		@ sp needed
 1836 005e 5DF804FB 		ldr	pc, [sp], #4
 1837              	.LVL226:
 1838              	.L71:
 1839              		.cfi_restore_state
 1840              		.loc 1 517 1 view .LVU516
 1841 0062 FFF7FEFF 		bl	__stack_chk_fail
 1842              	.LVL227:
 1843              	.L75:
 1844              		.loc 1 517 1 view .LVU517
 1845 0066 00BF     		.align	2
 1846              	.L74:
 1847 0068 00000000 		.word	.LC6
 1848              		.cfi_endproc
 1849              	.LFE263:
 1850              		.size	po8030_set_size, .-po8030_set_size
 1851              		.section	.rodata.po8030_set_scale_buffer_size.cst4,"aM",%progbits,4
 1852              		.align	2
 1853              	.LC7:
 1854 0000 00000000 		.word	__stack_chk_guard
 1855              		.section	.text.po8030_set_scale_buffer_size,"ax",%progbits
 1856              		.align	1
 1857              		.p2align 4,,15
 1858              		.global	po8030_set_scale_buffer_size
 1859              		.syntax unified
 1860              		.thumb
 1861              		.thumb_func
 1862              		.fpu fpv4-sp-d16
 1863              		.type	po8030_set_scale_buffer_size, %function
 1864              	po8030_set_scale_buffer_size:
 1865              	.LVL228:
 1866              	.LFB264:
 1867              		.loc 1 530 73 is_stmt 1 view -0
 1868              		.cfi_startproc
 1869              		@ args = 0, pretend = 0, frame = 8
 1870              		@ frame_needed = 0, uses_anonymous_args = 0
 1871              		.loc 1 530 73 is_stmt 0 view .LVU519
 1872 0000 30B5     		push	{r4, r5, lr}
 1873              		.cfi_def_cfa_offset 12
 1874              		.cfi_offset 4, -12
 1875              		.cfi_offset 5, -8
 1876              		.cfi_offset 14, -4
 1877 0002 414B     		ldr	r3, .L95
 1878 0004 83B0     		sub	sp, sp, #12
 1879              		.cfi_def_cfa_offset 24
 1880              		.loc 1 530 73 view .LVU520
 1881 0006 0546     		mov	r5, r0
ARM GAS  /tmp/cczbsEFl.s 			page 34


 1882 0008 0C46     		mov	r4, r1
 1883              	.LBB140:
 1884              	.LBB141:
 1885              		.loc 1 119 12 view .LVU521
 1886 000a 0122     		movs	r2, #1
 1887 000c 0321     		movs	r1, #3
 1888              	.LVL229:
 1889              		.loc 1 119 12 view .LVU522
 1890 000e 6E20     		movs	r0, #110
 1891              	.LVL230:
 1892              		.loc 1 119 12 view .LVU523
 1893              	.LBE141:
 1894              	.LBE140:
 1895              		.loc 1 530 73 view .LVU524
 1896 0010 1B68     		ldr	r3, [r3]
 1897 0012 0193     		str	r3, [sp, #4]
 1898 0014 4FF00003 		mov	r3,#0
 1899              		.loc 1 531 5 is_stmt 1 view .LVU525
 1900              	.LVL231:
 1901              		.loc 1 533 5 view .LVU526
 1902              	.LBB143:
 1903              	.LBI140:
 1904              		.loc 1 118 8 view .LVU527
 1905              	.LBB142:
 1906              		.loc 1 119 5 view .LVU528
 1907              		.loc 1 119 12 is_stmt 0 view .LVU529
 1908 0018 FFF7FEFF 		bl	write_reg
 1909              	.LVL232:
 1910              		.loc 1 119 12 view .LVU530
 1911              	.LBE142:
 1912              	.LBE143:
 1913              		.loc 1 533 7 view .LVU531
 1914 001c 30B9     		cbnz	r0, .L77
 1915              	.LVL233:
 1916              	.LBB144:
 1917              	.LBI144:
 1918              		.loc 1 530 8 is_stmt 1 view .LVU532
 1919              	.LBB145:
 1920              		.loc 1 537 5 view .LVU533
 1921              		.loc 1 537 7 is_stmt 0 view .LVU534
 1922 001e 442D     		cmp	r5, #68
 1923 0020 0BD0     		beq	.L93
 1924              		.loc 1 567 9 is_stmt 1 view .LVU535
 1925 0022 012C     		cmp	r4, #1
 1926 0024 61D0     		beq	.L84
 1927 0026 022C     		cmp	r4, #2
 1928 0028 50D0     		beq	.L85
 1929 002a DCB1     		cbz	r4, .L94
 1930              	.LVL234:
 1931              	.L77:
 1932              		.loc 1 567 9 is_stmt 0 view .LVU536
 1933              	.LBE145:
 1934              	.LBE144:
 1935              		.loc 1 598 1 view .LVU537
 1936 002c 364B     		ldr	r3, .L95
 1937 002e 1A68     		ldr	r2, [r3]
 1938 0030 019B     		ldr	r3, [sp, #4]
ARM GAS  /tmp/cczbsEFl.s 			page 35


 1939 0032 5A40     		eors	r2, r3, r2
 1940 0034 48D1     		bne	.L92
 1941 0036 03B0     		add	sp, sp, #12
 1942              		.cfi_remember_state
 1943              		.cfi_def_cfa_offset 12
 1944              		@ sp needed
 1945 0038 30BD     		pop	{r4, r5, pc}
 1946              	.LVL235:
 1947              	.L93:
 1948              		.cfi_restore_state
 1949              	.LBB149:
 1950              	.LBB146:
 1951              		.loc 1 538 9 is_stmt 1 view .LVU538
 1952 003a 012C     		cmp	r4, #1
 1953 003c 36D0     		beq	.L79
 1954 003e 022C     		cmp	r4, #2
 1955 0040 25D0     		beq	.L80
 1956 0042 002C     		cmp	r4, #0
 1957 0044 F2D1     		bne	.L77
 1958              		.loc 1 540 17 view .LVU539
 1959              		.loc 1 540 27 is_stmt 0 view .LVU540
 1960 0046 2246     		mov	r2, r4
 1961 0048 9521     		movs	r1, #149
 1962 004a 6E20     		movs	r0, #110
 1963              	.LVL236:
 1964              		.loc 1 540 27 view .LVU541
 1965 004c FFF7FEFF 		bl	write_reg
 1966              	.LVL237:
 1967              		.loc 1 540 19 view .LVU542
 1968 0050 0028     		cmp	r0, #0
 1969 0052 EBD1     		bne	.L77
 1970              		.loc 1 543 17 is_stmt 1 view .LVU543
 1971              		.loc 1 543 27 is_stmt 0 view .LVU544
 1972 0054 2C4B     		ldr	r3, .L95
 1973 0056 1A68     		ldr	r2, [r3]
 1974 0058 019B     		ldr	r3, [sp, #4]
 1975 005a 5A40     		eors	r2, r3, r2
 1976 005c 08BF     		it	eq
 1977 005e 0822     		moveq	r2, #8
 1978 0060 0ED0     		beq	.L91
 1979 0062 31E0     		b	.L92
 1980              	.LVL238:
 1981              	.L94:
 1982              		.loc 1 569 17 is_stmt 1 view .LVU545
 1983              		.loc 1 569 27 is_stmt 0 view .LVU546
 1984 0064 2246     		mov	r2, r4
 1985 0066 9521     		movs	r1, #149
 1986 0068 6E20     		movs	r0, #110
 1987              	.LVL239:
 1988              		.loc 1 569 27 view .LVU547
 1989 006a FFF7FEFF 		bl	write_reg
 1990              	.LVL240:
 1991              		.loc 1 569 19 view .LVU548
 1992 006e 0028     		cmp	r0, #0
 1993 0070 DCD1     		bne	.L77
 1994              		.loc 1 572 17 is_stmt 1 view .LVU549
 1995              		.loc 1 572 27 is_stmt 0 view .LVU550
ARM GAS  /tmp/cczbsEFl.s 			page 36


 1996 0072 254B     		ldr	r3, .L95
 1997 0074 1A68     		ldr	r2, [r3]
 1998 0076 019B     		ldr	r3, [sp, #4]
 1999 0078 5A40     		eors	r2, r3, r2
 2000 007a 08BF     		it	eq
 2001 007c 0A22     		moveq	r2, #10
 2002 007e 23D1     		bne	.L92
 2003              	.L91:
 2004              		.loc 1 590 27 view .LVU551
 2005 0080 9621     		movs	r1, #150
 2006 0082 6E20     		movs	r0, #110
 2007              	.LVL241:
 2008              		.loc 1 590 27 view .LVU552
 2009              	.LBE146:
 2010              	.LBE149:
 2011              		.loc 1 598 1 view .LVU553
 2012 0084 03B0     		add	sp, sp, #12
 2013              		.cfi_remember_state
 2014              		.cfi_def_cfa_offset 12
 2015              		@ sp needed
 2016 0086 BDE83040 		pop	{r4, r5, lr}
 2017              		.cfi_restore 14
 2018              		.cfi_restore 5
 2019              		.cfi_restore 4
 2020              		.cfi_def_cfa_offset 0
 2021              	.LVL242:
 2022              	.LBB150:
 2023              	.LBB147:
 2024              		.loc 1 590 27 view .LVU554
 2025 008a FFF7FEBF 		b	write_reg
 2026              	.LVL243:
 2027              	.L80:
 2028              		.cfi_restore_state
 2029              		.loc 1 558 17 is_stmt 1 view .LVU555
 2030              		.loc 1 558 27 is_stmt 0 view .LVU556
 2031 008e 0246     		mov	r2, r0
 2032 0090 9521     		movs	r1, #149
 2033 0092 6E20     		movs	r0, #110
 2034              	.LVL244:
 2035              		.loc 1 558 27 view .LVU557
 2036 0094 FFF7FEFF 		bl	write_reg
 2037              	.LVL245:
 2038              		.loc 1 558 19 view .LVU558
 2039 0098 0028     		cmp	r0, #0
 2040 009a C7D1     		bne	.L77
 2041              		.loc 1 561 17 is_stmt 1 view .LVU559
 2042              		.loc 1 561 27 is_stmt 0 view .LVU560
 2043 009c 1A4B     		ldr	r3, .L95
 2044 009e 1A68     		ldr	r2, [r3]
 2045 00a0 019B     		ldr	r3, [sp, #4]
 2046 00a2 5A40     		eors	r2, r3, r2
 2047 00a4 08BF     		it	eq
 2048 00a6 7C22     		moveq	r2, #124
 2049 00a8 EAD0     		beq	.L91
 2050 00aa 0DE0     		b	.L92
 2051              	.LVL246:
 2052              	.L79:
ARM GAS  /tmp/cczbsEFl.s 			page 37


 2053              		.loc 1 549 17 is_stmt 1 view .LVU561
 2054              		.loc 1 549 27 is_stmt 0 view .LVU562
 2055 00ac 0246     		mov	r2, r0
 2056 00ae 9521     		movs	r1, #149
 2057 00b0 6E20     		movs	r0, #110
 2058              	.LVL247:
 2059              		.loc 1 549 27 view .LVU563
 2060 00b2 FFF7FEFF 		bl	write_reg
 2061              	.LVL248:
 2062              		.loc 1 549 19 view .LVU564
 2063 00b6 0028     		cmp	r0, #0
 2064 00b8 B8D1     		bne	.L77
 2065              		.loc 1 552 17 is_stmt 1 view .LVU565
 2066              		.loc 1 552 27 is_stmt 0 view .LVU566
 2067 00ba 134B     		ldr	r3, .L95
 2068 00bc 1A68     		ldr	r2, [r3]
 2069 00be 019B     		ldr	r3, [sp, #4]
 2070 00c0 5A40     		eors	r2, r3, r2
 2071 00c2 08BF     		it	eq
 2072 00c4 A422     		moveq	r2, #164
 2073 00c6 DBD0     		beq	.L91
 2074              	.LVL249:
 2075              	.L92:
 2076              		.loc 1 552 27 view .LVU567
 2077              	.LBE147:
 2078              	.LBE150:
 2079              		.loc 1 598 1 view .LVU568
 2080 00c8 FFF7FEFF 		bl	__stack_chk_fail
 2081              	.LVL250:
 2082              	.L85:
 2083              	.LBB151:
 2084              	.LBB148:
 2085              		.loc 1 587 17 is_stmt 1 view .LVU569
 2086              		.loc 1 587 27 is_stmt 0 view .LVU570
 2087 00cc 0246     		mov	r2, r0
 2088 00ce 9521     		movs	r1, #149
 2089 00d0 6E20     		movs	r0, #110
 2090              	.LVL251:
 2091              		.loc 1 587 27 view .LVU571
 2092 00d2 FFF7FEFF 		bl	write_reg
 2093              	.LVL252:
 2094              		.loc 1 587 19 view .LVU572
 2095 00d6 0028     		cmp	r0, #0
 2096 00d8 A8D1     		bne	.L77
 2097              		.loc 1 590 17 is_stmt 1 view .LVU573
 2098              		.loc 1 590 27 is_stmt 0 view .LVU574
 2099 00da 0B4B     		ldr	r3, .L95
 2100 00dc 1A68     		ldr	r2, [r3]
 2101 00de 019B     		ldr	r3, [sp, #4]
 2102 00e0 5A40     		eors	r2, r3, r2
 2103 00e2 08BF     		it	eq
 2104 00e4 F522     		moveq	r2, #245
 2105 00e6 CBD0     		beq	.L91
 2106 00e8 EEE7     		b	.L92
 2107              	.LVL253:
 2108              	.L84:
 2109              		.loc 1 578 17 is_stmt 1 view .LVU575
ARM GAS  /tmp/cczbsEFl.s 			page 38


 2110              		.loc 1 578 27 is_stmt 0 view .LVU576
 2111 00ea 2246     		mov	r2, r4
 2112 00ec 9521     		movs	r1, #149
 2113 00ee 6E20     		movs	r0, #110
 2114              	.LVL254:
 2115              		.loc 1 578 27 view .LVU577
 2116 00f0 FFF7FEFF 		bl	write_reg
 2117              	.LVL255:
 2118              		.loc 1 578 19 view .LVU578
 2119 00f4 0028     		cmp	r0, #0
 2120 00f6 99D1     		bne	.L77
 2121              		.loc 1 581 17 is_stmt 1 view .LVU579
 2122              		.loc 1 581 27 is_stmt 0 view .LVU580
 2123 00f8 034B     		ldr	r3, .L95
 2124 00fa 1A68     		ldr	r2, [r3]
 2125 00fc 019B     		ldr	r3, [sp, #4]
 2126 00fe 5A40     		eors	r2, r3, r2
 2127 0100 08BF     		it	eq
 2128 0102 4622     		moveq	r2, #70
 2129 0104 BCD0     		beq	.L91
 2130 0106 DFE7     		b	.L92
 2131              	.L96:
 2132              		.align	2
 2133              	.L95:
 2134 0108 00000000 		.word	.LC7
 2135              	.LBE148:
 2136              	.LBE151:
 2137              		.cfi_endproc
 2138              	.LFE264:
 2139              		.size	po8030_set_scale_buffer_size, .-po8030_set_scale_buffer_size
 2140              		.section	.rodata.po8030_config.cst4,"aM",%progbits,4
 2141              		.align	2
 2142              	.LC8:
 2143 0000 00000000 		.word	__stack_chk_guard
 2144              		.section	.text.po8030_config,"ax",%progbits
 2145              		.align	1
 2146              		.p2align 4,,15
 2147              		.global	po8030_config
 2148              		.syntax unified
 2149              		.thumb
 2150              		.thumb_func
 2151              		.fpu fpv4-sp-d16
 2152              		.type	po8030_config, %function
 2153              	po8030_config:
 2154              	.LVL256:
 2155              	.LFB266:
 2156              		.loc 1 631 58 is_stmt 1 view -0
 2157              		.cfi_startproc
 2158              		@ args = 0, pretend = 0, frame = 8
 2159              		@ frame_needed = 0, uses_anonymous_args = 0
 2160              		.loc 1 631 58 is_stmt 0 view .LVU582
 2161 0000 30B5     		push	{r4, r5, lr}
 2162              		.cfi_def_cfa_offset 12
 2163              		.cfi_offset 4, -12
 2164              		.cfi_offset 5, -8
 2165              		.cfi_offset 14, -4
 2166 0002 1A4B     		ldr	r3, .L104
ARM GAS  /tmp/cczbsEFl.s 			page 39


 2167 0004 83B0     		sub	sp, sp, #12
 2168              		.cfi_def_cfa_offset 24
 2169              		.loc 1 631 58 view .LVU583
 2170 0006 0446     		mov	r4, r0
 2171 0008 0D46     		mov	r5, r1
 2172              	.LBB152:
 2173              	.LBB153:
 2174              		.loc 1 119 12 view .LVU584
 2175 000a 0022     		movs	r2, #0
 2176 000c 0321     		movs	r1, #3
 2177              	.LVL257:
 2178              		.loc 1 119 12 view .LVU585
 2179 000e 6E20     		movs	r0, #110
 2180              	.LVL258:
 2181              		.loc 1 119 12 view .LVU586
 2182              	.LBE153:
 2183              	.LBE152:
 2184              		.loc 1 631 58 view .LVU587
 2185 0010 1B68     		ldr	r3, [r3]
 2186 0012 0193     		str	r3, [sp, #4]
 2187 0014 4FF00003 		mov	r3,#0
 2188              		.loc 1 633 5 is_stmt 1 view .LVU588
 2189              	.LVL259:
 2190              		.loc 1 635 5 view .LVU589
 2191              	.LBB155:
 2192              	.LBI152:
 2193              		.loc 1 118 8 view .LVU590
 2194              	.LBB154:
 2195              		.loc 1 119 5 view .LVU591
 2196              		.loc 1 119 12 is_stmt 0 view .LVU592
 2197 0018 FFF7FEFF 		bl	write_reg
 2198              	.LVL260:
 2199              		.loc 1 119 12 view .LVU593
 2200              	.LBE154:
 2201              	.LBE155:
 2202              		.loc 1 635 7 view .LVU594
 2203 001c 30B1     		cbz	r0, .L103
 2204              	.L98:
 2205              		.loc 1 655 1 view .LVU595
 2206 001e 134B     		ldr	r3, .L104
 2207 0020 1A68     		ldr	r2, [r3]
 2208 0022 019B     		ldr	r3, [sp, #4]
 2209 0024 5A40     		eors	r2, r3, r2
 2210 0026 1ED1     		bne	.L102
 2211 0028 03B0     		add	sp, sp, #12
 2212              		.cfi_remember_state
 2213              		.cfi_def_cfa_offset 12
 2214              		@ sp needed
 2215 002a 30BD     		pop	{r4, r5, pc}
 2216              	.L103:
 2217              		.cfi_restore_state
 2218              		.loc 1 638 5 is_stmt 1 view .LVU596
 2219              		.loc 1 638 15 is_stmt 0 view .LVU597
 2220 002c 0246     		mov	r2, r0
 2221 002e 5B21     		movs	r1, #91
 2222 0030 6E20     		movs	r0, #110
 2223              	.LVL261:
ARM GAS  /tmp/cczbsEFl.s 			page 40


 2224              		.loc 1 638 15 view .LVU598
 2225 0032 FFF7FEFF 		bl	write_reg
 2226              	.LVL262:
 2227              		.loc 1 638 7 view .LVU599
 2228 0036 0028     		cmp	r0, #0
 2229 0038 F1D1     		bne	.L98
 2230              		.loc 1 642 5 is_stmt 1 view .LVU600
 2231              		.loc 1 642 15 is_stmt 0 view .LVU601
 2232 003a 2046     		mov	r0, r4
 2233              	.LVL263:
 2234              		.loc 1 642 15 view .LVU602
 2235 003c FFF7FEFF 		bl	po8030_set_format
 2236              	.LVL264:
 2237              		.loc 1 642 7 view .LVU603
 2238 0040 0028     		cmp	r0, #0
 2239 0042 ECD1     		bne	.L98
 2240              		.loc 1 646 5 is_stmt 1 view .LVU604
 2241              		.loc 1 646 15 is_stmt 0 view .LVU605
 2242 0044 2846     		mov	r0, r5
 2243              	.LVL265:
 2244              		.loc 1 646 15 view .LVU606
 2245 0046 FFF7FEFF 		bl	po8030_set_size
 2246              	.LVL266:
 2247              		.loc 1 646 7 view .LVU607
 2248 004a 0028     		cmp	r0, #0
 2249 004c E7D1     		bne	.L98
 2250              		.loc 1 650 5 is_stmt 1 view .LVU608
 2251              		.loc 1 650 15 is_stmt 0 view .LVU609
 2252 004e 074B     		ldr	r3, .L104
 2253 0050 1A68     		ldr	r2, [r3]
 2254 0052 019B     		ldr	r3, [sp, #4]
 2255 0054 5A40     		eors	r2, r3, r2
 2256 0056 06D1     		bne	.L102
 2257 0058 2946     		mov	r1, r5
 2258 005a 2046     		mov	r0, r4
 2259              	.LVL267:
 2260              		.loc 1 655 1 view .LVU610
 2261 005c 03B0     		add	sp, sp, #12
 2262              		.cfi_remember_state
 2263              		.cfi_def_cfa_offset 12
 2264              		@ sp needed
 2265 005e BDE83040 		pop	{r4, r5, lr}
 2266              		.cfi_restore 14
 2267              		.cfi_restore 5
 2268              		.cfi_restore 4
 2269              		.cfi_def_cfa_offset 0
 2270              		.loc 1 650 15 view .LVU611
 2271 0062 FFF7FEBF 		b	po8030_set_scale_buffer_size
 2272              	.LVL268:
 2273              	.L102:
 2274              		.cfi_restore_state
 2275              		.loc 1 655 1 view .LVU612
 2276 0066 FFF7FEFF 		bl	__stack_chk_fail
 2277              	.LVL269:
 2278              	.L105:
 2279              		.loc 1 655 1 view .LVU613
 2280 006a 00BF     		.align	2
ARM GAS  /tmp/cczbsEFl.s 			page 41


 2281              	.L104:
 2282 006c 00000000 		.word	.LC8
 2283              		.cfi_endproc
 2284              	.LFE266:
 2285              		.size	po8030_config, .-po8030_config
 2286              		.section	.rodata.po8030_advanced_config.cst4,"aM",%progbits,4
 2287              		.align	2
 2288              	.LC9:
 2289 0000 00000000 		.word	__stack_chk_guard
 2290              		.section	.text.po8030_advanced_config,"ax",%progbits
 2291              		.align	1
 2292              		.p2align 4,,15
 2293              		.global	po8030_advanced_config
 2294              		.syntax unified
 2295              		.thumb
 2296              		.thumb_func
 2297              		.fpu fpv4-sp-d16
 2298              		.type	po8030_advanced_config, %function
 2299              	po8030_advanced_config:
 2300              	.LVL270:
 2301              	.LFB267:
 2302              		.loc 1 659 91 is_stmt 1 view -0
 2303              		.cfi_startproc
 2304              		@ args = 12, pretend = 0, frame = 24
 2305              		@ frame_needed = 0, uses_anonymous_args = 0
 2306              		.loc 1 659 91 is_stmt 0 view .LVU615
 2307 0000 2DE9F04F 		push	{r4, r5, r6, r7, r8, r9, r10, fp, lr}
 2308              		.cfi_def_cfa_offset 36
 2309              		.cfi_offset 4, -36
 2310              		.cfi_offset 5, -32
 2311              		.cfi_offset 6, -28
 2312              		.cfi_offset 7, -24
 2313              		.cfi_offset 8, -20
 2314              		.cfi_offset 9, -16
 2315              		.cfi_offset 10, -12
 2316              		.cfi_offset 11, -8
 2317              		.cfi_offset 14, -4
 2318 0004 2DED088B 		vpush.64	{d8, d9, d10, d11}
 2319              		.cfi_def_cfa_offset 68
 2320              		.cfi_offset 80, -68
 2321              		.cfi_offset 81, -64
 2322              		.cfi_offset 82, -60
 2323              		.cfi_offset 83, -56
 2324              		.cfi_offset 84, -52
 2325              		.cfi_offset 85, -48
 2326              		.cfi_offset 86, -44
 2327              		.cfi_offset 87, -40
 2328 0008 87B0     		sub	sp, sp, #28
 2329              		.cfi_def_cfa_offset 96
 2330              		.loc 1 659 91 view .LVU616
 2331 000a 314C     		ldr	r4, .L138
 2332 000c DDF860C0 		ldr	ip, [sp, #96]
 2333 0010 9DF864A0 		ldrb	r10, [sp, #100]	@ zero_extendqisi2
 2334 0014 9DF868B0 		ldrb	fp, [sp, #104]	@ zero_extendqisi2
 2335              		.loc 1 661 15 view .LVU617
 2336 0018 5E1E     		subs	r6, r3, #1
 2337              		.loc 1 662 15 view .LVU618
ARM GAS  /tmp/cczbsEFl.s 			page 42


 2338 001a 0CF1FF37 		add	r7, ip, #-1
 2339              		.loc 1 668 4 view .LVU619
 2340 001e B3F5207F 		cmp	r3, #640
 2341              		.loc 1 659 91 view .LVU620
 2342 0022 2468     		ldr	r4, [r4]
 2343 0024 0594     		str	r4, [sp, #20]
 2344 0026 4FF00004 		mov	r4,#0
 2345              		.loc 1 660 5 is_stmt 1 view .LVU621
 2346              	.LVL271:
 2347              		.loc 1 661 2 view .LVU622
 2348              		.loc 1 661 15 is_stmt 0 view .LVU623
 2349 002a 0E44     		add	r6, r6, r1
 2350              	.LVL272:
 2351              		.loc 1 662 2 is_stmt 1 view .LVU624
 2352              		.loc 1 659 91 is_stmt 0 view .LVU625
 2353 002c 0390     		str	r0, [sp, #12]
 2354              		.loc 1 662 15 view .LVU626
 2355 002e 1744     		add	r7, r7, r2
 2356              	.LVL273:
 2357              		.loc 1 663 2 is_stmt 1 view .LVU627
 2358              		.loc 1 664 2 view .LVU628
 2359              		.loc 1 665 2 view .LVU629
 2360              		.loc 1 666 2 view .LVU630
 2361              		.loc 1 668 2 view .LVU631
 2362              		.loc 1 668 4 is_stmt 0 view .LVU632
 2363 0030 00F21B82 		bhi	.L118
 2364              		.loc 1 668 28 discriminator 1 view .LVU633
 2365 0034 BCF5F07F 		cmp	ip, #480
 2366 0038 00F21782 		bhi	.L118
 2367              		.loc 1 672 4 view .LVU634
 2368 003c B1F5207F 		cmp	r1, #640
 2369 0040 0C46     		mov	r4, r1
 2370              		.loc 1 672 2 is_stmt 1 view .LVU635
 2371              		.loc 1 672 4 is_stmt 0 view .LVU636
 2372 0042 00F21B82 		bhi	.L119
 2373              		.loc 1 676 4 view .LVU637
 2374 0046 B2F5F07F 		cmp	r2, #480
 2375 004a 1546     		mov	r5, r2
 2376              		.loc 1 676 2 is_stmt 1 view .LVU638
 2377              		.loc 1 676 4 is_stmt 0 view .LVU639
 2378 004c 00F21982 		bhi	.L120
 2379              		.loc 1 680 2 is_stmt 1 view .LVU640
 2380              		.loc 1 680 4 is_stmt 0 view .LVU641
 2381 0050 B142     		cmp	r1, r6
 2382 0052 80F00D82 		bcs	.L122
 2383              		.loc 1 680 12 discriminator 1 view .LVU642
 2384 0056 B6F5207F 		cmp	r6, #640
 2385 005a 00F20982 		bhi	.L122
 2386              		.loc 1 684 2 is_stmt 1 view .LVU643
 2387              		.loc 1 684 4 is_stmt 0 view .LVU644
 2388 005e BA42     		cmp	r2, r7
 2389 0060 80F00982 		bcs	.L124
 2390              		.loc 1 684 12 discriminator 1 view .LVU645
 2391 0064 B7F5F07F 		cmp	r7, #480
 2392 0068 00F20582 		bhi	.L124
 2393              		.loc 1 688 2 is_stmt 1 view .LVU646
 2394 006c BAF1400F 		cmp	r10, #64
ARM GAS  /tmp/cczbsEFl.s 			page 43


 2395 0070 00F0C781 		beq	.L108
 2396 0074 BAF1800F 		cmp	r10, #128
 2397 0078 00F0B081 		beq	.L109
 2398 007c BAF1200F 		cmp	r10, #32
 2399 0080 00F08881 		beq	.L132
 2400 0084 4FF00008 		mov	r8, #0
 2401 0088 CDF80480 		str	r8, [sp, #4]
 2402              	.LVL274:
 2403              	.L110:
 2404              		.loc 1 719 2 view .LVU647
 2405 008c BBF1400F 		cmp	fp, #64
 2406 0090 00F09081 		beq	.L111
 2407              	.L137:
 2408              		.loc 1 719 2 is_stmt 0 view .LVU648
 2409 0094 BBF1800F 		cmp	fp, #128
 2410 0098 00F0D381 		beq	.L112
 2411 009c BBF1200F 		cmp	fp, #32
 2412 00a0 00F0C281 		beq	.L133
 2413 00a4 4FF00009 		mov	r9, #0
 2414 00a8 CDF80890 		str	r9, [sp, #8]
 2415              	.LVL275:
 2416              	.L113:
 2417              		.loc 1 750 5 is_stmt 1 view .LVU649
 2418              	.LBB156:
 2419              	.LBI156:
 2420              		.loc 1 118 8 view .LVU650
 2421              	.LBB157:
 2422              		.loc 1 119 5 view .LVU651
 2423              		.loc 1 119 12 is_stmt 0 view .LVU652
 2424 00ac 0022     		movs	r2, #0
 2425 00ae 0321     		movs	r1, #3
 2426 00b0 6E20     		movs	r0, #110
 2427              	.LVL276:
 2428              		.loc 1 119 12 view .LVU653
 2429 00b2 FFF7FEFF 		bl	write_reg
 2430              	.LVL277:
 2431              		.loc 1 119 12 view .LVU654
 2432              	.LBE157:
 2433              	.LBE156:
 2434              		.loc 1 750 7 view .LVU655
 2435 00b6 88B1     		cbz	r0, .L134
 2436              	.LVL278:
 2437              	.L107:
 2438              		.loc 1 882 1 view .LVU656
 2439 00b8 054B     		ldr	r3, .L138
 2440 00ba 1A68     		ldr	r2, [r3]
 2441 00bc 059B     		ldr	r3, [sp, #20]
 2442 00be 5A40     		eors	r2, r3, r2
 2443 00c0 40F0E881 		bne	.L135
 2444 00c4 07B0     		add	sp, sp, #28
 2445              		.cfi_remember_state
 2446              		.cfi_def_cfa_offset 68
 2447              		@ sp needed
 2448 00c6 BDEC088B 		vldm	sp!, {d8-d11}
 2449              		.cfi_restore 86
 2450              		.cfi_restore 87
 2451              		.cfi_restore 84
ARM GAS  /tmp/cczbsEFl.s 			page 44


 2452              		.cfi_restore 85
 2453              		.cfi_restore 82
 2454              		.cfi_restore 83
 2455              		.cfi_restore 80
 2456              		.cfi_restore 81
 2457              		.cfi_def_cfa_offset 36
 2458 00ca BDE8F08F 		pop	{r4, r5, r6, r7, r8, r9, r10, fp, pc}
 2459              	.LVL279:
 2460              	.L139:
 2461              		.loc 1 882 1 view .LVU657
 2462 00ce 00BF     		.align	2
 2463              	.L138:
 2464 00d0 00000000 		.word	.LC9
 2465 00d4 00002244 		.word	1143078912
 2466 00d8 0000A344 		.word	1151533056
 2467              	.LVL280:
 2468              	.L134:
 2469              		.cfi_restore_state
 2470              		.loc 1 753 5 is_stmt 1 view .LVU658
 2471              		.loc 1 753 15 is_stmt 0 view .LVU659
 2472 00dc 0246     		mov	r2, r0
 2473 00de 5B21     		movs	r1, #91
 2474 00e0 6E20     		movs	r0, #110
 2475              	.LVL281:
 2476              		.loc 1 753 15 view .LVU660
 2477 00e2 FFF7FEFF 		bl	write_reg
 2478              	.LVL282:
 2479              		.loc 1 753 7 view .LVU661
 2480 00e6 0028     		cmp	r0, #0
 2481 00e8 E6D1     		bne	.L107
 2482              		.loc 1 757 5 is_stmt 1 view .LVU662
 2483              		.loc 1 757 15 is_stmt 0 view .LVU663
 2484 00ea 0398     		ldr	r0, [sp, #12]
 2485              	.LVL283:
 2486              		.loc 1 757 15 view .LVU664
 2487 00ec FFF7FEFF 		bl	po8030_set_format
 2488              	.LVL284:
 2489              		.loc 1 757 7 view .LVU665
 2490 00f0 0028     		cmp	r0, #0
 2491 00f2 E1D1     		bne	.L107
 2492              		.loc 1 761 5 is_stmt 1 view .LVU666
 2493              	.LVL285:
 2494              	.LBB158:
 2495              	.LBI158:
 2496              		.loc 1 118 8 view .LVU667
 2497              	.LBB159:
 2498              		.loc 1 119 5 view .LVU668
 2499              		.loc 1 119 12 is_stmt 0 view .LVU669
 2500 00f4 0246     		mov	r2, r0
 2501 00f6 0321     		movs	r1, #3
 2502 00f8 6E20     		movs	r0, #110
 2503              	.LVL286:
 2504              		.loc 1 119 12 view .LVU670
 2505 00fa FFF7FEFF 		bl	write_reg
 2506              	.LVL287:
 2507              		.loc 1 119 12 view .LVU671
 2508              	.LBE159:
ARM GAS  /tmp/cczbsEFl.s 			page 45


 2509              	.LBE158:
 2510              		.loc 1 761 7 view .LVU672
 2511 00fe 0028     		cmp	r0, #0
 2512 0100 DAD1     		bne	.L107
 2513              		.loc 1 765 5 is_stmt 1 view .LVU673
 2514              		.loc 1 765 15 is_stmt 0 view .LVU674
 2515 0102 C4F30723 		ubfx	r3, r4, #8, #8
 2516 0106 1A46     		mov	r2, r3
 2517 0108 0821     		movs	r1, #8
 2518 010a 6E20     		movs	r0, #110
 2519              	.LVL288:
 2520              		.loc 1 765 15 view .LVU675
 2521 010c 08EE103A 		vmov	s16, r3	@ int
 2522 0110 FFF7FEFF 		bl	write_reg
 2523              	.LVL289:
 2524              		.loc 1 765 7 view .LVU676
 2525 0114 0028     		cmp	r0, #0
 2526 0116 CFD1     		bne	.L107
 2527              		.loc 1 768 5 is_stmt 1 view .LVU677
 2528              		.loc 1 768 15 is_stmt 0 view .LVU678
 2529 0118 E1B2     		uxtb	r1, r4
 2530 011a 08EE901A 		vmov	s17, r1	@ int
 2531 011e 0A46     		mov	r2, r1
 2532 0120 6E20     		movs	r0, #110
 2533              	.LVL290:
 2534              		.loc 1 768 15 view .LVU679
 2535 0122 0921     		movs	r1, #9
 2536 0124 FFF7FEFF 		bl	write_reg
 2537              	.LVL291:
 2538              		.loc 1 768 7 view .LVU680
 2539 0128 0028     		cmp	r0, #0
 2540 012a C5D1     		bne	.L107
 2541              		.loc 1 771 5 is_stmt 1 view .LVU681
 2542              		.loc 1 771 15 is_stmt 0 view .LVU682
 2543 012c C5F3072C 		ubfx	ip, r5, #8, #8
 2544 0130 6246     		mov	r2, ip
 2545 0132 0A21     		movs	r1, #10
 2546 0134 6E20     		movs	r0, #110
 2547              	.LVL292:
 2548              		.loc 1 771 15 view .LVU683
 2549 0136 09EE10CA 		vmov	s18, ip	@ int
 2550 013a FFF7FEFF 		bl	write_reg
 2551              	.LVL293:
 2552              		.loc 1 771 7 view .LVU684
 2553 013e 0028     		cmp	r0, #0
 2554 0140 BAD1     		bne	.L107
 2555              		.loc 1 774 5 is_stmt 1 view .LVU685
 2556              		.loc 1 774 15 is_stmt 0 view .LVU686
 2557 0142 5FFA85FC 		uxtb	ip, r5
 2558 0146 6246     		mov	r2, ip
 2559 0148 0B21     		movs	r1, #11
 2560 014a 6E20     		movs	r0, #110
 2561              	.LVL294:
 2562              		.loc 1 774 15 view .LVU687
 2563 014c 09EE90CA 		vmov	s19, ip	@ int
 2564 0150 FFF7FEFF 		bl	write_reg
 2565              	.LVL295:
ARM GAS  /tmp/cczbsEFl.s 			page 46


 2566              		.loc 1 774 7 view .LVU688
 2567 0154 0028     		cmp	r0, #0
 2568 0156 AFD1     		bne	.L107
 2569              		.loc 1 777 5 is_stmt 1 view .LVU689
 2570              		.loc 1 777 15 is_stmt 0 view .LVU690
 2571 0158 C6F3072C 		ubfx	ip, r6, #8, #8
 2572 015c 6246     		mov	r2, ip
 2573 015e 0C21     		movs	r1, #12
 2574 0160 6E20     		movs	r0, #110
 2575              	.LVL296:
 2576              		.loc 1 777 15 view .LVU691
 2577 0162 0AEE10CA 		vmov	s20, ip	@ int
 2578 0166 FFF7FEFF 		bl	write_reg
 2579              	.LVL297:
 2580              		.loc 1 777 7 view .LVU692
 2581 016a 0028     		cmp	r0, #0
 2582 016c A4D1     		bne	.L107
 2583              		.loc 1 780 5 is_stmt 1 view .LVU693
 2584              		.loc 1 780 15 is_stmt 0 view .LVU694
 2585 016e 5FFA86FC 		uxtb	ip, r6
 2586 0172 6246     		mov	r2, ip
 2587 0174 0D21     		movs	r1, #13
 2588 0176 6E20     		movs	r0, #110
 2589              	.LVL298:
 2590              		.loc 1 780 15 view .LVU695
 2591 0178 0BEE90CA 		vmov	s23, ip	@ int
 2592 017c FFF7FEFF 		bl	write_reg
 2593              	.LVL299:
 2594              		.loc 1 780 7 view .LVU696
 2595 0180 0028     		cmp	r0, #0
 2596 0182 99D1     		bne	.L107
 2597              		.loc 1 783 5 is_stmt 1 view .LVU697
 2598              		.loc 1 783 15 is_stmt 0 view .LVU698
 2599 0184 C7F3072C 		ubfx	ip, r7, #8, #8
 2600 0188 6246     		mov	r2, ip
 2601 018a 0E21     		movs	r1, #14
 2602 018c 6E20     		movs	r0, #110
 2603              	.LVL300:
 2604              		.loc 1 783 15 view .LVU699
 2605 018e 0BEE10CA 		vmov	s22, ip	@ int
 2606 0192 FFF7FEFF 		bl	write_reg
 2607              	.LVL301:
 2608              		.loc 1 783 7 view .LVU700
 2609 0196 0028     		cmp	r0, #0
 2610 0198 8ED1     		bne	.L107
 2611              		.loc 1 786 5 is_stmt 1 view .LVU701
 2612              		.loc 1 786 15 is_stmt 0 view .LVU702
 2613 019a 5FFA87FC 		uxtb	ip, r7
 2614 019e 6246     		mov	r2, ip
 2615 01a0 0F21     		movs	r1, #15
 2616 01a2 6E20     		movs	r0, #110
 2617              	.LVL302:
 2618              		.loc 1 786 15 view .LVU703
 2619 01a4 0AEE90CA 		vmov	s21, ip	@ int
 2620 01a8 FFF7FEFF 		bl	write_reg
 2621              	.LVL303:
 2622              		.loc 1 786 7 view .LVU704
ARM GAS  /tmp/cczbsEFl.s 			page 47


 2623 01ac 0028     		cmp	r0, #0
 2624 01ae 83D1     		bne	.L107
 2625              		.loc 1 790 5 is_stmt 1 view .LVU705
 2626              		.loc 1 790 15 is_stmt 0 view .LVU706
 2627 01b0 18EE102A 		vmov	r2, s16	@ int
 2628 01b4 3521     		movs	r1, #53
 2629 01b6 6E20     		movs	r0, #110
 2630              	.LVL304:
 2631              		.loc 1 790 15 view .LVU707
 2632 01b8 FFF7FEFF 		bl	write_reg
 2633              	.LVL305:
 2634              		.loc 1 790 7 view .LVU708
 2635 01bc 0028     		cmp	r0, #0
 2636 01be 7FF47BAF 		bne	.L107
 2637              		.loc 1 793 5 is_stmt 1 view .LVU709
 2638              		.loc 1 793 15 is_stmt 0 view .LVU710
 2639 01c2 18EE902A 		vmov	r2, s17	@ int
 2640 01c6 3621     		movs	r1, #54
 2641 01c8 6E20     		movs	r0, #110
 2642              	.LVL306:
 2643              		.loc 1 793 15 view .LVU711
 2644 01ca FFF7FEFF 		bl	write_reg
 2645              	.LVL307:
 2646              		.loc 1 793 7 view .LVU712
 2647 01ce 0028     		cmp	r0, #0
 2648 01d0 7FF472AF 		bne	.L107
 2649              		.loc 1 796 5 is_stmt 1 view .LVU713
 2650              		.loc 1 796 15 is_stmt 0 view .LVU714
 2651 01d4 1AEE102A 		vmov	r2, s20	@ int
 2652 01d8 3721     		movs	r1, #55
 2653 01da 6E20     		movs	r0, #110
 2654              	.LVL308:
 2655              		.loc 1 796 15 view .LVU715
 2656 01dc FFF7FEFF 		bl	write_reg
 2657              	.LVL309:
 2658              		.loc 1 796 7 view .LVU716
 2659 01e0 0028     		cmp	r0, #0
 2660 01e2 7FF469AF 		bne	.L107
 2661              		.loc 1 799 5 is_stmt 1 view .LVU717
 2662              		.loc 1 799 15 is_stmt 0 view .LVU718
 2663 01e6 1BEE902A 		vmov	r2, s23	@ int
 2664 01ea 3821     		movs	r1, #56
 2665 01ec 6E20     		movs	r0, #110
 2666              	.LVL310:
 2667              		.loc 1 799 15 view .LVU719
 2668 01ee FFF7FEFF 		bl	write_reg
 2669              	.LVL311:
 2670              		.loc 1 799 7 view .LVU720
 2671 01f2 0028     		cmp	r0, #0
 2672 01f4 7FF460AF 		bne	.L107
 2673              		.loc 1 802 5 is_stmt 1 view .LVU721
 2674              		.loc 1 802 15 is_stmt 0 view .LVU722
 2675 01f8 19EE102A 		vmov	r2, s18	@ int
 2676 01fc 3921     		movs	r1, #57
 2677 01fe 6E20     		movs	r0, #110
 2678              	.LVL312:
 2679              		.loc 1 802 15 view .LVU723
ARM GAS  /tmp/cczbsEFl.s 			page 48


 2680 0200 FFF7FEFF 		bl	write_reg
 2681              	.LVL313:
 2682              		.loc 1 802 7 view .LVU724
 2683 0204 0028     		cmp	r0, #0
 2684 0206 7FF457AF 		bne	.L107
 2685              		.loc 1 805 5 is_stmt 1 view .LVU725
 2686              		.loc 1 805 15 is_stmt 0 view .LVU726
 2687 020a 19EE902A 		vmov	r2, s19	@ int
 2688 020e 3A21     		movs	r1, #58
 2689 0210 6E20     		movs	r0, #110
 2690              	.LVL314:
 2691              		.loc 1 805 15 view .LVU727
 2692 0212 FFF7FEFF 		bl	write_reg
 2693              	.LVL315:
 2694              		.loc 1 805 7 view .LVU728
 2695 0216 0028     		cmp	r0, #0
 2696 0218 7FF44EAF 		bne	.L107
 2697              		.loc 1 808 5 is_stmt 1 view .LVU729
 2698              		.loc 1 808 15 is_stmt 0 view .LVU730
 2699 021c 1BEE102A 		vmov	r2, s22	@ int
 2700 0220 3B21     		movs	r1, #59
 2701 0222 6E20     		movs	r0, #110
 2702              	.LVL316:
 2703              		.loc 1 808 15 view .LVU731
 2704 0224 FFF7FEFF 		bl	write_reg
 2705              	.LVL317:
 2706              		.loc 1 808 7 view .LVU732
 2707 0228 0028     		cmp	r0, #0
 2708 022a 7FF445AF 		bne	.L107
 2709              		.loc 1 811 5 is_stmt 1 view .LVU733
 2710              		.loc 1 811 15 is_stmt 0 view .LVU734
 2711 022e 1AEE902A 		vmov	r2, s21	@ int
 2712 0232 3C21     		movs	r1, #60
 2713 0234 6E20     		movs	r0, #110
 2714              	.LVL318:
 2715              		.loc 1 811 15 view .LVU735
 2716 0236 FFF7FEFF 		bl	write_reg
 2717              	.LVL319:
 2718              		.loc 1 811 7 view .LVU736
 2719 023a 0028     		cmp	r0, #0
 2720 023c 7FF43CAF 		bne	.L107
 2721              		.loc 1 815 5 is_stmt 1 view .LVU737
 2722              		.loc 1 815 15 is_stmt 0 view .LVU738
 2723 0240 019B     		ldr	r3, [sp, #4]
 2724 0242 3D21     		movs	r1, #61
 2725 0244 C3F30722 		ubfx	r2, r3, #8, #8
 2726 0248 6E20     		movs	r0, #110
 2727              	.LVL320:
 2728              		.loc 1 815 15 view .LVU739
 2729 024a FFF7FEFF 		bl	write_reg
 2730              	.LVL321:
 2731              		.loc 1 815 7 view .LVU740
 2732 024e 0028     		cmp	r0, #0
 2733 0250 7FF432AF 		bne	.L107
 2734              		.loc 1 818 5 is_stmt 1 view .LVU741
 2735              		.loc 1 818 15 is_stmt 0 view .LVU742
 2736 0254 9DF80420 		ldrb	r2, [sp, #4]	@ zero_extendqisi2
ARM GAS  /tmp/cczbsEFl.s 			page 49


 2737 0258 3E21     		movs	r1, #62
 2738 025a 6E20     		movs	r0, #110
 2739              	.LVL322:
 2740              		.loc 1 818 15 view .LVU743
 2741 025c FFF7FEFF 		bl	write_reg
 2742              	.LVL323:
 2743              		.loc 1 818 7 view .LVU744
 2744 0260 0028     		cmp	r0, #0
 2745 0262 7FF429AF 		bne	.L107
 2746              		.loc 1 821 5 is_stmt 1 view .LVU745
 2747              		.loc 1 821 15 is_stmt 0 view .LVU746
 2748 0266 C8F30722 		ubfx	r2, r8, #8, #8
 2749 026a 3F21     		movs	r1, #63
 2750 026c 6E20     		movs	r0, #110
 2751              	.LVL324:
 2752              		.loc 1 821 15 view .LVU747
 2753 026e FFF7FEFF 		bl	write_reg
 2754              	.LVL325:
 2755              		.loc 1 821 7 view .LVU748
 2756 0272 0028     		cmp	r0, #0
 2757 0274 7FF420AF 		bne	.L107
 2758              		.loc 1 824 5 is_stmt 1 view .LVU749
 2759              		.loc 1 824 15 is_stmt 0 view .LVU750
 2760 0278 5FFA88F2 		uxtb	r2, r8
 2761 027c 4021     		movs	r1, #64
 2762 027e 6E20     		movs	r0, #110
 2763              	.LVL326:
 2764              		.loc 1 824 15 view .LVU751
 2765 0280 FFF7FEFF 		bl	write_reg
 2766              	.LVL327:
 2767              		.loc 1 824 7 view .LVU752
 2768 0284 0028     		cmp	r0, #0
 2769 0286 7FF417AF 		bne	.L107
 2770              		.loc 1 827 5 is_stmt 1 view .LVU753
 2771              		.loc 1 827 15 is_stmt 0 view .LVU754
 2772 028a 029B     		ldr	r3, [sp, #8]
 2773 028c 4121     		movs	r1, #65
 2774 028e C3F30722 		ubfx	r2, r3, #8, #8
 2775 0292 6E20     		movs	r0, #110
 2776              	.LVL328:
 2777              		.loc 1 827 15 view .LVU755
 2778 0294 FFF7FEFF 		bl	write_reg
 2779              	.LVL329:
 2780              		.loc 1 827 7 view .LVU756
 2781 0298 0028     		cmp	r0, #0
 2782 029a 7FF40DAF 		bne	.L107
 2783              		.loc 1 830 5 is_stmt 1 view .LVU757
 2784              		.loc 1 830 15 is_stmt 0 view .LVU758
 2785 029e 9DF80820 		ldrb	r2, [sp, #8]	@ zero_extendqisi2
 2786 02a2 4221     		movs	r1, #66
 2787 02a4 6E20     		movs	r0, #110
 2788              	.LVL330:
 2789              		.loc 1 830 15 view .LVU759
 2790 02a6 FFF7FEFF 		bl	write_reg
 2791              	.LVL331:
 2792              		.loc 1 830 7 view .LVU760
 2793 02aa 0028     		cmp	r0, #0
ARM GAS  /tmp/cczbsEFl.s 			page 50


 2794 02ac 7FF404AF 		bne	.L107
 2795              		.loc 1 833 5 is_stmt 1 view .LVU761
 2796              		.loc 1 833 15 is_stmt 0 view .LVU762
 2797 02b0 C9F30722 		ubfx	r2, r9, #8, #8
 2798 02b4 4321     		movs	r1, #67
 2799 02b6 6E20     		movs	r0, #110
 2800              	.LVL332:
 2801              		.loc 1 833 15 view .LVU763
 2802 02b8 FFF7FEFF 		bl	write_reg
 2803              	.LVL333:
 2804              		.loc 1 833 7 view .LVU764
 2805 02bc 0028     		cmp	r0, #0
 2806 02be 7FF4FBAE 		bne	.L107
 2807              		.loc 1 836 5 is_stmt 1 view .LVU765
 2808              		.loc 1 836 15 is_stmt 0 view .LVU766
 2809 02c2 5FFA89F2 		uxtb	r2, r9
 2810 02c6 4421     		movs	r1, #68
 2811 02c8 6E20     		movs	r0, #110
 2812              	.LVL334:
 2813              		.loc 1 836 15 view .LVU767
 2814 02ca FFF7FEFF 		bl	write_reg
 2815              	.LVL335:
 2816              		.loc 1 836 7 view .LVU768
 2817 02ce 0028     		cmp	r0, #0
 2818 02d0 7FF4F2AE 		bne	.L107
 2819              		.loc 1 840 5 is_stmt 1 view .LVU769
 2820              	.LVL336:
 2821              	.LBB160:
 2822              	.LBI160:
 2823              		.loc 1 118 8 view .LVU770
 2824              	.LBB161:
 2825              		.loc 1 119 5 view .LVU771
 2826              		.loc 1 119 12 is_stmt 0 view .LVU772
 2827 02d4 0122     		movs	r2, #1
 2828 02d6 0321     		movs	r1, #3
 2829 02d8 6E20     		movs	r0, #110
 2830              	.LVL337:
 2831              		.loc 1 119 12 view .LVU773
 2832 02da FFF7FEFF 		bl	write_reg
 2833              	.LVL338:
 2834              		.loc 1 119 12 view .LVU774
 2835              	.LBE161:
 2836              	.LBE160:
 2837              		.loc 1 840 7 view .LVU775
 2838 02de 0028     		cmp	r0, #0
 2839 02e0 7FF4EAAE 		bne	.L107
 2840              		.loc 1 844 5 is_stmt 1 view .LVU776
 2841              		.loc 1 844 15 is_stmt 0 view .LVU777
 2842 02e4 5246     		mov	r2, r10
 2843 02e6 9321     		movs	r1, #147
 2844 02e8 6E20     		movs	r0, #110
 2845              	.LVL339:
 2846              		.loc 1 844 15 view .LVU778
 2847 02ea FFF7FEFF 		bl	write_reg
 2848              	.LVL340:
 2849              		.loc 1 844 7 view .LVU779
 2850 02ee 0028     		cmp	r0, #0
ARM GAS  /tmp/cczbsEFl.s 			page 51


 2851 02f0 7FF4E2AE 		bne	.L107
 2852              		.loc 1 847 5 is_stmt 1 view .LVU780
 2853              		.loc 1 847 15 is_stmt 0 view .LVU781
 2854 02f4 5A46     		mov	r2, fp
 2855 02f6 9421     		movs	r1, #148
 2856 02f8 6E20     		movs	r0, #110
 2857              	.LVL341:
 2858              		.loc 1 847 15 view .LVU782
 2859 02fa FFF7FEFF 		bl	write_reg
 2860              	.LVL342:
 2861              		.loc 1 847 7 view .LVU783
 2862 02fe 0028     		cmp	r0, #0
 2863 0300 7FF4DAAE 		bne	.L107
 2864              		.loc 1 852 5 is_stmt 1 view .LVU784
 2865              	.LVL343:
 2866              	.LBB162:
 2867              	.LBI162:
 2868              		.loc 1 118 8 view .LVU785
 2869              	.LBB163:
 2870              		.loc 1 119 5 view .LVU786
 2871              		.loc 1 119 12 is_stmt 0 view .LVU787
 2872 0304 0122     		movs	r2, #1
 2873 0306 0321     		movs	r1, #3
 2874 0308 6E20     		movs	r0, #110
 2875              	.LVL344:
 2876              		.loc 1 119 12 view .LVU788
 2877 030a FFF7FEFF 		bl	write_reg
 2878              	.LVL345:
 2879              		.loc 1 119 12 view .LVU789
 2880              	.LBE163:
 2881              	.LBE162:
 2882              		.loc 1 852 7 view .LVU790
 2883 030e 0028     		cmp	r0, #0
 2884 0310 7FF4D2AE 		bne	.L107
 2885              		.loc 1 856 5 is_stmt 1 view .LVU791
 2886              		.loc 1 856 7 is_stmt 0 view .LVU792
 2887 0314 039B     		ldr	r3, [sp, #12]
 2888              		.loc 1 857 36 view .LVU793
 2889 0316 0136     		adds	r6, r6, #1
 2890              	.LVL346:
 2891              		.loc 1 856 7 view .LVU794
 2892 0318 442B     		cmp	r3, #68
 2893              		.loc 1 857 36 view .LVU795
 2894 031a A6EB0403 		sub	r3, r6, r4
 2895 031e 07EE903A 		vmov	s15, r3	@ int
 2896              		.loc 1 856 7 view .LVU796
 2897 0322 00F0B980 		beq	.L136
 2898              		.loc 1 860 3 is_stmt 1 view .LVU797
 2899              		.loc 1 860 24 is_stmt 0 view .LVU798
 2900 0326 B8EE677A 		vcvt.f32.u32	s14, s15
 2901              		.loc 1 860 23 view .LVU799
 2902 032a 5FED967A 		vldr.32	s15, .L138+4
 2903              		.loc 1 860 14 view .LVU800
 2904 032e 1FED966A 		vldr.32	s12, .L138+8
 2905              		.loc 1 860 68 view .LVU801
 2906 0332 F0EE005A 		vmov.f32	s11, #2.0e+0
 2907 0336 F2EE006A 		vmov.f32	s13, #8.0e+0
ARM GAS  /tmp/cczbsEFl.s 			page 52


 2908 033a E7EE256A 		vfma.f32	s13, s14, s11
 2909              	.LVL347:
 2910              		.loc 1 861 3 is_stmt 1 view .LVU802
 2911              		.loc 1 860 23 is_stmt 0 view .LVU803
 2912 033e 77EEC77A 		vsub.f32	s15, s15, s14
 2913              		.loc 1 860 41 view .LVU804
 2914 0342 77EEA77A 		vadd.f32	s15, s15, s15
 2915              		.loc 1 860 46 view .LVU805
 2916 0346 67EEA67A 		vmul.f32	s15, s15, s13
 2917              		.loc 1 860 14 view .LVU806
 2918 034a 87EE867A 		vdiv.f32	s14, s15, s12
 2919              	.LVL348:
 2920              		.loc 1 861 12 view .LVU807
 2921 034e FCEEC77A 		vcvt.u32.f32	s15, s14
 2922 0352 17EE908A 		vmov	r8, s15	@ int
 2923              	.LVL349:
 2924              	.L115:
 2925              		.loc 1 864 2 is_stmt 1 view .LVU808
 2926              		.loc 1 864 12 is_stmt 0 view .LVU809
 2927 0356 C8F30722 		ubfx	r2, r8, #8, #8
 2928 035a 9521     		movs	r1, #149
 2929 035c 6E20     		movs	r0, #110
 2930              	.LVL350:
 2931              		.loc 1 864 12 view .LVU810
 2932 035e FFF7FEFF 		bl	write_reg
 2933              	.LVL351:
 2934              		.loc 1 864 4 view .LVU811
 2935 0362 0028     		cmp	r0, #0
 2936 0364 7FF4A8AE 		bne	.L107
 2937              		.loc 1 867 2 is_stmt 1 view .LVU812
 2938              		.loc 1 867 12 is_stmt 0 view .LVU813
 2939 0368 5FFA88F2 		uxtb	r2, r8
 2940 036c 9621     		movs	r1, #150
 2941 036e 6E20     		movs	r0, #110
 2942              	.LVL352:
 2943              		.loc 1 867 12 view .LVU814
 2944 0370 FFF7FEFF 		bl	write_reg
 2945              	.LVL353:
 2946              		.loc 1 867 4 view .LVU815
 2947 0374 0028     		cmp	r0, #0
 2948 0376 7FF49FAE 		bne	.L107
 2949              		.loc 1 871 2 is_stmt 1 view .LVU816
 2950              		.loc 1 871 20 is_stmt 0 view .LVU817
 2951 037a 524B     		ldr	r3, .L140
 2952              		.loc 1 873 26 view .LVU818
 2953 037c 039A     		ldr	r2, [sp, #12]
 2954 037e 1A71     		strb	r2, [r3, #4]
 2955              		.loc 1 872 31 view .LVU819
 2956 0380 0137     		adds	r7, r7, #1
 2957              	.LVL354:
 2958              		.loc 1 872 31 view .LVU820
 2959 0382 7D1B     		subs	r5, r7, r5
 2960              	.LVL355:
 2961              		.loc 1 871 30 view .LVU821
 2962 0384 361B     		subs	r6, r6, r4
 2963              	.LVL356:
 2964              		.loc 1 872 21 view .LVU822
ARM GAS  /tmp/cczbsEFl.s 			page 53


 2965 0386 5D80     		strh	r5, [r3, #2]	@ movhi
 2966              		.loc 1 871 20 view .LVU823
 2967 0388 1E80     		strh	r6, [r3]	@ movhi
 2968              		.loc 1 872 2 is_stmt 1 view .LVU824
 2969              		.loc 1 873 2 view .LVU825
 2970              		.loc 1 874 2 view .LVU826
 2971              		.loc 1 874 33 is_stmt 0 view .LVU827
 2972 038a 83F805A0 		strb	r10, [r3, #5]
 2973              		.loc 1 875 2 is_stmt 1 view .LVU828
 2974              		.loc 1 875 33 is_stmt 0 view .LVU829
 2975 038e 83F806B0 		strb	fp, [r3, #6]
 2976              		.loc 1 877 5 is_stmt 1 view .LVU830
 2977              		.loc 1 878 9 view .LVU831
 2978              		.loc 1 881 5 view .LVU832
 2979              		.loc 1 881 12 is_stmt 0 view .LVU833
 2980 0392 91E6     		b	.L107
 2981              	.LVL357:
 2982              	.L132:
 2983              		.loc 1 690 4 is_stmt 1 view .LVU834
 2984              		.loc 1 690 28 is_stmt 0 view .LVU835
 2985 0394 4C4A     		ldr	r2, .L140+4
 2986              	.LVL358:
 2987              		.loc 1 691 28 view .LVU836
 2988 0396 4FEA4308 		lsl	r8, r3, #1
 2989              		.loc 1 690 28 view .LVU837
 2990 039a A2FB0313 		umull	r1, r3, r2, r3
 2991              	.LVL359:
 2992              		.loc 1 690 15 view .LVU838
 2993 039e 04EB5303 		add	r3, r4, r3, lsr #1
 2994              		.loc 1 691 30 view .LVU839
 2995 03a2 A2FB0828 		umull	r2, r8, r2, r8
 2996              		.loc 1 719 2 view .LVU840
 2997 03a6 BBF1400F 		cmp	fp, #64
 2998              		.loc 1 690 15 view .LVU841
 2999 03aa 0193     		str	r3, [sp, #4]
 3000              	.LVL360:
 3001              		.loc 1 691 4 is_stmt 1 view .LVU842
 3002              		.loc 1 691 15 is_stmt 0 view .LVU843
 3003 03ac 04EB5808 		add	r8, r4, r8, lsr #1
 3004              	.LVL361:
 3005              		.loc 1 692 4 is_stmt 1 view .LVU844
 3006              		.loc 1 719 2 view .LVU845
 3007 03b0 7FF470AE 		bne	.L137
 3008              	.LVL362:
 3009              	.L111:
 3010              		.loc 1 727 4 view .LVU846
 3011              		.loc 1 727 6 is_stmt 0 view .LVU847
 3012 03b4 1CF0010F 		tst	ip, #1
 3013 03b8 66D1     		bne	.L130
 3014              		.loc 1 730 5 is_stmt 1 view .LVU848
 3015              		.loc 1 732 30 is_stmt 0 view .LVU849
 3016 03ba 434B     		ldr	r3, .L140+4
 3017              		.loc 1 730 12 view .LVU850
 3018 03bc 6F08     		lsrs	r7, r5, #1
 3019              	.LVL363:
 3020              		.loc 1 731 5 is_stmt 1 view .LVU851
 3021              		.loc 1 733 30 is_stmt 0 view .LVU852
ARM GAS  /tmp/cczbsEFl.s 			page 54


 3022 03be 4FEA4C09 		lsl	r9, ip, #1
 3023              		.loc 1 731 8 view .LVU853
 3024 03c2 7D1C     		adds	r5, r7, #1
 3025              	.LVL364:
 3026              		.loc 1 733 32 view .LVU854
 3027 03c4 A3FB0929 		umull	r2, r9, r3, r9
 3028              		.loc 1 732 30 view .LVU855
 3029 03c8 A3FB0C23 		umull	r2, r3, r3, ip
 3030              		.loc 1 732 16 view .LVU856
 3031 03cc 05EB9303 		add	r3, r5, r3, lsr #2
 3032              		.loc 1 731 8 view .LVU857
 3033 03d0 07EB5C07 		add	r7, r7, ip, lsr #1
 3034              	.LVL365:
 3035              		.loc 1 732 5 is_stmt 1 view .LVU858
 3036              		.loc 1 732 16 is_stmt 0 view .LVU859
 3037 03d4 0293     		str	r3, [sp, #8]
 3038              	.LVL366:
 3039              		.loc 1 733 5 is_stmt 1 view .LVU860
 3040              		.loc 1 733 16 is_stmt 0 view .LVU861
 3041 03d6 05EB9909 		add	r9, r5, r9, lsr #2
 3042              	.LVL367:
 3043              		.loc 1 735 4 is_stmt 1 view .LVU862
 3044 03da 67E6     		b	.L113
 3045              	.LVL368:
 3046              	.L109:
 3047              		.loc 1 708 4 view .LVU863
 3048              		.loc 1 708 6 is_stmt 0 view .LVU864
 3049 03dc 9A07     		lsls	r2, r3, #30
 3050              	.LVL369:
 3051              		.loc 1 708 6 view .LVU865
 3052 03de 56D1     		bne	.L127
 3053              		.loc 1 711 5 is_stmt 1 view .LVU866
 3054              		.loc 1 713 29 is_stmt 0 view .LVU867
 3055 03e0 394A     		ldr	r2, .L140+4
 3056              		.loc 1 711 12 view .LVU868
 3057 03e2 8E08     		lsrs	r6, r1, #2
 3058              	.LVL370:
 3059              		.loc 1 712 5 is_stmt 1 view .LVU869
 3060              		.loc 1 714 29 is_stmt 0 view .LVU870
 3061 03e4 4FEA4308 		lsl	r8, r3, #1
 3062              		.loc 1 712 8 view .LVU871
 3063 03e8 741C     		adds	r4, r6, #1
 3064              	.LVL371:
 3065              		.loc 1 714 31 view .LVU872
 3066 03ea A2FB0818 		umull	r1, r8, r2, r8
 3067              	.LVL372:
 3068              		.loc 1 713 29 view .LVU873
 3069 03ee A2FB0312 		umull	r1, r2, r2, r3
 3070              		.loc 1 712 8 view .LVU874
 3071 03f2 06EB9306 		add	r6, r6, r3, lsr #2
 3072              	.LVL373:
 3073              		.loc 1 713 5 is_stmt 1 view .LVU875
 3074              		.loc 1 713 16 is_stmt 0 view .LVU876
 3075 03f6 04EBD203 		add	r3, r4, r2, lsr #3
 3076              	.LVL374:
 3077              		.loc 1 713 16 view .LVU877
 3078 03fa 0193     		str	r3, [sp, #4]
ARM GAS  /tmp/cczbsEFl.s 			page 55


 3079              	.LVL375:
 3080              		.loc 1 714 5 is_stmt 1 view .LVU878
 3081              		.loc 1 714 16 is_stmt 0 view .LVU879
 3082 03fc 04EBD808 		add	r8, r4, r8, lsr #3
 3083              	.LVL376:
 3084              		.loc 1 716 4 is_stmt 1 view .LVU880
 3085 0400 44E6     		b	.L110
 3086              	.LVL377:
 3087              	.L108:
 3088              		.loc 1 696 4 view .LVU881
 3089              		.loc 1 696 6 is_stmt 0 view .LVU882
 3090 0402 D907     		lsls	r1, r3, #31
 3091              	.LVL378:
 3092              		.loc 1 696 6 view .LVU883
 3093 0404 43D4     		bmi	.L127
 3094              		.loc 1 699 5 is_stmt 1 view .LVU884
 3095              		.loc 1 701 29 is_stmt 0 view .LVU885
 3096 0406 304A     		ldr	r2, .L140+4
 3097              	.LVL379:
 3098              		.loc 1 699 12 view .LVU886
 3099 0408 6608     		lsrs	r6, r4, #1
 3100              	.LVL380:
 3101              		.loc 1 700 5 is_stmt 1 view .LVU887
 3102              		.loc 1 702 29 is_stmt 0 view .LVU888
 3103 040a 4FEA4308 		lsl	r8, r3, #1
 3104              		.loc 1 700 8 view .LVU889
 3105 040e 741C     		adds	r4, r6, #1
 3106              	.LVL381:
 3107              		.loc 1 702 31 view .LVU890
 3108 0410 A2FB0818 		umull	r1, r8, r2, r8
 3109              		.loc 1 701 29 view .LVU891
 3110 0414 A2FB0312 		umull	r1, r2, r2, r3
 3111              		.loc 1 700 8 view .LVU892
 3112 0418 06EB5306 		add	r6, r6, r3, lsr #1
 3113              	.LVL382:
 3114              		.loc 1 701 5 is_stmt 1 view .LVU893
 3115              		.loc 1 701 16 is_stmt 0 view .LVU894
 3116 041c 04EB9203 		add	r3, r4, r2, lsr #2
 3117              	.LVL383:
 3118              		.loc 1 701 16 view .LVU895
 3119 0420 0193     		str	r3, [sp, #4]
 3120              	.LVL384:
 3121              		.loc 1 702 5 is_stmt 1 view .LVU896
 3122              		.loc 1 702 16 is_stmt 0 view .LVU897
 3123 0422 04EB9808 		add	r8, r4, r8, lsr #2
 3124              	.LVL385:
 3125              		.loc 1 704 4 is_stmt 1 view .LVU898
 3126 0426 31E6     		b	.L110
 3127              	.LVL386:
 3128              	.L133:
 3129              		.loc 1 721 4 view .LVU899
 3130              		.loc 1 721 29 is_stmt 0 view .LVU900
 3131 0428 274B     		ldr	r3, .L140+4
 3132              		.loc 1 722 29 view .LVU901
 3133 042a 4FEA4C09 		lsl	r9, ip, #1
 3134              		.loc 1 721 29 view .LVU902
 3135 042e A3FB0C2C 		umull	r2, ip, r3, ip
ARM GAS  /tmp/cczbsEFl.s 			page 56


 3136              		.loc 1 722 31 view .LVU903
 3137 0432 A3FB0939 		umull	r3, r9, r3, r9
 3138              		.loc 1 721 15 view .LVU904
 3139 0436 05EB5C03 		add	r3, r5, ip, lsr #1
 3140 043a 0293     		str	r3, [sp, #8]
 3141              	.LVL387:
 3142              		.loc 1 722 4 is_stmt 1 view .LVU905
 3143              		.loc 1 722 15 is_stmt 0 view .LVU906
 3144 043c 05EB5909 		add	r9, r5, r9, lsr #1
 3145              	.LVL388:
 3146              		.loc 1 723 4 is_stmt 1 view .LVU907
 3147 0440 34E6     		b	.L113
 3148              	.LVL389:
 3149              	.L112:
 3150              		.loc 1 739 4 view .LVU908
 3151              		.loc 1 739 6 is_stmt 0 view .LVU909
 3152 0442 1CF0030F 		tst	ip, #3
 3153 0446 1FD1     		bne	.L130
 3154              		.loc 1 742 5 is_stmt 1 view .LVU910
 3155              		.loc 1 744 30 is_stmt 0 view .LVU911
 3156 0448 1F4B     		ldr	r3, .L140+4
 3157              		.loc 1 742 12 view .LVU912
 3158 044a AF08     		lsrs	r7, r5, #2
 3159              	.LVL390:
 3160              		.loc 1 743 5 is_stmt 1 view .LVU913
 3161              		.loc 1 745 30 is_stmt 0 view .LVU914
 3162 044c 4FEA4C09 		lsl	r9, ip, #1
 3163              		.loc 1 743 8 view .LVU915
 3164 0450 7D1C     		adds	r5, r7, #1
 3165              	.LVL391:
 3166              		.loc 1 745 32 view .LVU916
 3167 0452 A3FB0929 		umull	r2, r9, r3, r9
 3168              		.loc 1 744 30 view .LVU917
 3169 0456 A3FB0C23 		umull	r2, r3, r3, ip
 3170              		.loc 1 744 16 view .LVU918
 3171 045a 05EBD303 		add	r3, r5, r3, lsr #3
 3172              		.loc 1 743 8 view .LVU919
 3173 045e 07EB9C07 		add	r7, r7, ip, lsr #2
 3174              	.LVL392:
 3175              		.loc 1 744 5 is_stmt 1 view .LVU920
 3176              		.loc 1 744 16 is_stmt 0 view .LVU921
 3177 0462 0293     		str	r3, [sp, #8]
 3178              	.LVL393:
 3179              		.loc 1 745 5 is_stmt 1 view .LVU922
 3180              		.loc 1 745 16 is_stmt 0 view .LVU923
 3181 0464 05EBD909 		add	r9, r5, r9, lsr #3
 3182              	.LVL394:
 3183              		.loc 1 747 4 is_stmt 1 view .LVU924
 3184 0468 20E6     		b	.L113
 3185              	.LVL395:
 3186              	.L118:
 3187              		.loc 1 669 10 is_stmt 0 view .LVU925
 3188 046a 6FF00700 		mvn	r0, #7
 3189              	.LVL396:
 3190              		.loc 1 669 10 view .LVU926
 3191 046e 23E6     		b	.L107
 3192              	.LVL397:
ARM GAS  /tmp/cczbsEFl.s 			page 57


 3193              	.L122:
 3194              		.loc 1 681 10 view .LVU927
 3195 0470 6FF00300 		mvn	r0, #3
 3196              	.LVL398:
 3197              		.loc 1 681 10 view .LVU928
 3198 0474 20E6     		b	.L107
 3199              	.LVL399:
 3200              	.L124:
 3201              		.loc 1 685 10 view .LVU929
 3202 0476 6FF00400 		mvn	r0, #4
 3203              	.LVL400:
 3204              		.loc 1 685 10 view .LVU930
 3205 047a 1DE6     		b	.L107
 3206              	.LVL401:
 3207              	.L119:
 3208              		.loc 1 673 10 view .LVU931
 3209 047c 6FF00100 		mvn	r0, #1
 3210              	.LVL402:
 3211              		.loc 1 673 10 view .LVU932
 3212 0480 1AE6     		b	.L107
 3213              	.LVL403:
 3214              	.L120:
 3215              		.loc 1 677 10 view .LVU933
 3216 0482 6FF00200 		mvn	r0, #2
 3217              	.LVL404:
 3218              		.loc 1 677 10 view .LVU934
 3219 0486 17E6     		b	.L107
 3220              	.LVL405:
 3221              	.L130:
 3222              		.loc 1 728 12 view .LVU935
 3223 0488 6FF00600 		mvn	r0, #6
 3224              	.LVL406:
 3225              		.loc 1 728 12 view .LVU936
 3226 048c 14E6     		b	.L107
 3227              	.LVL407:
 3228              	.L127:
 3229              		.loc 1 697 12 view .LVU937
 3230 048e 6FF00500 		mvn	r0, #5
 3231              	.LVL408:
 3232              		.loc 1 697 12 view .LVU938
 3233 0492 11E6     		b	.L107
 3234              	.LVL409:
 3235              	.L135:
 3236              		.loc 1 882 1 view .LVU939
 3237 0494 FFF7FEFF 		bl	__stack_chk_fail
 3238              	.LVL410:
 3239              	.L136:
 3240              		.loc 1 857 3 is_stmt 1 view .LVU940
 3241              		.loc 1 857 23 is_stmt 0 view .LVU941
 3242 0498 F8EE677A 		vcvt.f32.u32	s15, s15
 3243              	.LVL411:
 3244              		.loc 1 858 3 is_stmt 1 view .LVU942
 3245              		.loc 1 857 22 is_stmt 0 view .LVU943
 3246 049c 9FED0B7A 		vldr.32	s14, .L140+8
 3247              		.loc 1 857 14 view .LVU944
 3248 04a0 DFED0B6A 		vldr.32	s13, .L140+12
 3249              		.loc 1 857 58 view .LVU945
ARM GAS  /tmp/cczbsEFl.s 			page 58


 3250 04a4 B2EE006A 		vmov.f32	s12, #8.0e+0
 3251              		.loc 1 857 22 view .LVU946
 3252 04a8 37EE677A 		vsub.f32	s14, s14, s15
 3253              		.loc 1 857 58 view .LVU947
 3254 04ac 77EE867A 		vadd.f32	s15, s15, s12
 3255              	.LVL412:
 3256              		.loc 1 857 40 view .LVU948
 3257 04b0 67EE277A 		vmul.f32	s15, s14, s15
 3258              		.loc 1 857 14 view .LVU949
 3259 04b4 87EEA67A 		vdiv.f32	s14, s15, s13
 3260              	.LVL413:
 3261              		.loc 1 858 12 view .LVU950
 3262 04b8 FCEEC77A 		vcvt.u32.f32	s15, s14
 3263 04bc 17EE908A 		vmov	r8, s15	@ int
 3264              	.LVL414:
 3265              		.loc 1 858 12 view .LVU951
 3266 04c0 49E7     		b	.L115
 3267              	.L141:
 3268 04c2 00BF     		.align	2
 3269              	.L140:
 3270 04c4 00000000 		.word	.LANCHOR0
 3271 04c8 ABAAAAAA 		.word	-1431655765
 3272 04cc 00002244 		.word	1143078912
 3273 04d0 00002444 		.word	1143209984
 3274              		.cfi_endproc
 3275              	.LFE267:
 3276              		.size	po8030_advanced_config, .-po8030_advanced_config
 3277              		.section	.rodata.po8030_start.cst4,"aM",%progbits,4
 3278              		.align	2
 3279              	.LC10:
 3280 0000 00000000 		.word	__stack_chk_guard
 3281              		.section	.text.po8030_start,"ax",%progbits
 3282              		.align	1
 3283              		.p2align 4,,15
 3284              		.global	po8030_start
 3285              		.syntax unified
 3286              		.thumb
 3287              		.thumb_func
 3288              		.fpu fpv4-sp-d16
 3289              		.type	po8030_start, %function
 3290              	po8030_start:
 3291              	.LFB265:
 3292              		.loc 1 605 25 is_stmt 1 view -0
 3293              		.cfi_startproc
 3294              		@ args = 0, pretend = 0, frame = 8
 3295              		@ frame_needed = 0, uses_anonymous_args = 0
 3296 0000 00B5     		push	{lr}
 3297              		.cfi_def_cfa_offset 4
 3298              		.cfi_offset 14, -4
 3299 0002 134B     		ldr	r3, .L146
 3300 0004 87B0     		sub	sp, sp, #28
 3301              		.cfi_def_cfa_offset 32
 3302              		.loc 1 605 25 is_stmt 0 view .LVU953
 3303 0006 1B68     		ldr	r3, [r3]
 3304 0008 0593     		str	r3, [sp, #20]
 3305 000a 4FF00003 		mov	r3,#0
 3306              		.loc 1 607 2 is_stmt 1 view .LVU954
ARM GAS  /tmp/cczbsEFl.s 			page 59


 3307 000e FFF7FEFF 		bl	i2c_start
 3308              	.LVL415:
 3309              		.loc 1 610 5 view .LVU955
 3310              		.loc 1 623 5 view .LVU956
 3311 0012 1049     		ldr	r1, .L146+4
 3312 0014 1048     		ldr	r0, .L146+8
 3313 0016 FFF7FEFF 		bl	pwmStart
 3314              	.LVL416:
 3315              		.loc 1 625 5 view .LVU957
 3316 001a 0F48     		ldr	r0, .L146+8
 3317 001c 0122     		movs	r2, #1
 3318 001e 0021     		movs	r1, #0
 3319 0020 FFF7FEFF 		bl	pwmEnableChannel
 3320              	.LVL417:
 3321              		.loc 1 628 2 view .LVU958
 3322 0024 2023     		movs	r3, #32
 3323 0026 7822     		movs	r2, #120
 3324 0028 CDE90133 		strd	r3, r3, [sp, #4]
 3325 002c 0092     		str	r2, [sp]
 3326 002e A023     		movs	r3, #160
 3327 0030 B422     		movs	r2, #180
 3328 0032 F021     		movs	r1, #240
 3329 0034 0220     		movs	r0, #2
 3330 0036 FFF7FEFF 		bl	po8030_advanced_config
 3331              	.LVL418:
 3332              		.loc 1 629 1 is_stmt 0 view .LVU959
 3333 003a 054B     		ldr	r3, .L146
 3334 003c 1A68     		ldr	r2, [r3]
 3335 003e 059B     		ldr	r3, [sp, #20]
 3336 0040 5A40     		eors	r2, r3, r2
 3337 0042 02D1     		bne	.L145
 3338 0044 07B0     		add	sp, sp, #28
 3339              		.cfi_remember_state
 3340              		.cfi_def_cfa_offset 4
 3341              		@ sp needed
 3342 0046 5DF804FB 		ldr	pc, [sp], #4
 3343              	.L145:
 3344              		.cfi_restore_state
 3345 004a FFF7FEFF 		bl	__stack_chk_fail
 3346              	.LVL419:
 3347              	.L147:
 3348 004e 00BF     		.align	2
 3349              	.L146:
 3350 0050 00000000 		.word	.LC10
 3351 0054 00000000 		.word	.LANCHOR1
 3352 0058 00000000 		.word	PWMD5
 3353              		.cfi_endproc
 3354              	.LFE265:
 3355              		.size	po8030_start, .-po8030_start
 3356              		.section	.rodata.po8030_set_brightness.cst4,"aM",%progbits,4
 3357              		.align	2
 3358              	.LC11:
 3359 0000 00000000 		.word	__stack_chk_guard
 3360              		.section	.text.po8030_set_brightness,"ax",%progbits
 3361              		.align	1
 3362              		.p2align 4,,15
 3363              		.global	po8030_set_brightness
ARM GAS  /tmp/cczbsEFl.s 			page 60


 3364              		.syntax unified
 3365              		.thumb
 3366              		.thumb_func
 3367              		.fpu fpv4-sp-d16
 3368              		.type	po8030_set_brightness, %function
 3369              	po8030_set_brightness:
 3370              	.LVL420:
 3371              	.LFB268:
 3372              		.loc 1 887 45 is_stmt 1 view -0
 3373              		.cfi_startproc
 3374              		@ args = 0, pretend = 0, frame = 8
 3375              		@ frame_needed = 0, uses_anonymous_args = 0
 3376              		.loc 1 887 45 is_stmt 0 view .LVU961
 3377 0000 10B5     		push	{r4, lr}
 3378              		.cfi_def_cfa_offset 8
 3379              		.cfi_offset 4, -8
 3380              		.cfi_offset 14, -4
 3381 0002 114B     		ldr	r3, .L155
 3382 0004 82B0     		sub	sp, sp, #8
 3383              		.cfi_def_cfa_offset 16
 3384              		.loc 1 887 45 view .LVU962
 3385 0006 0446     		mov	r4, r0
 3386              	.LBB164:
 3387              	.LBB165:
 3388              		.loc 1 119 12 view .LVU963
 3389 0008 0122     		movs	r2, #1
 3390 000a 0321     		movs	r1, #3
 3391 000c 6E20     		movs	r0, #110
 3392              	.LVL421:
 3393              		.loc 1 119 12 view .LVU964
 3394              	.LBE165:
 3395              	.LBE164:
 3396              		.loc 1 887 45 view .LVU965
 3397 000e 1B68     		ldr	r3, [r3]
 3398 0010 0193     		str	r3, [sp, #4]
 3399 0012 4FF00003 		mov	r3,#0
 3400              		.loc 1 888 5 is_stmt 1 view .LVU966
 3401              	.LVL422:
 3402              		.loc 1 889 5 view .LVU967
 3403              	.LBB167:
 3404              	.LBI164:
 3405              		.loc 1 118 8 view .LVU968
 3406              	.LBB166:
 3407              		.loc 1 119 5 view .LVU969
 3408              		.loc 1 119 12 is_stmt 0 view .LVU970
 3409 0016 FFF7FEFF 		bl	write_reg
 3410              	.LVL423:
 3411              		.loc 1 119 12 view .LVU971
 3412              	.LBE166:
 3413              	.LBE167:
 3414              		.loc 1 893 1 view .LVU972
 3415 001a 0B4B     		ldr	r3, .L155
 3416              		.loc 1 889 7 view .LVU973
 3417 001c 28B1     		cbz	r0, .L154
 3418              		.loc 1 893 1 view .LVU974
 3419 001e 1A68     		ldr	r2, [r3]
 3420 0020 019B     		ldr	r3, [sp, #4]
ARM GAS  /tmp/cczbsEFl.s 			page 61


 3421 0022 5A40     		eors	r2, r3, r2
 3422 0024 0DD1     		bne	.L153
 3423 0026 02B0     		add	sp, sp, #8
 3424              		.cfi_remember_state
 3425              		.cfi_def_cfa_offset 8
 3426              		@ sp needed
 3427 0028 10BD     		pop	{r4, pc}
 3428              	.L154:
 3429              		.cfi_restore_state
 3430              		.loc 1 892 5 is_stmt 1 view .LVU975
 3431              		.loc 1 892 12 is_stmt 0 view .LVU976
 3432 002a 1A68     		ldr	r2, [r3]
 3433 002c 019B     		ldr	r3, [sp, #4]
 3434 002e 5A40     		eors	r2, r3, r2
 3435 0030 07D1     		bne	.L153
 3436 0032 2246     		mov	r2, r4
 3437 0034 9E21     		movs	r1, #158
 3438 0036 6E20     		movs	r0, #110
 3439              	.LVL424:
 3440              		.loc 1 893 1 view .LVU977
 3441 0038 02B0     		add	sp, sp, #8
 3442              		.cfi_remember_state
 3443              		.cfi_def_cfa_offset 8
 3444              		@ sp needed
 3445 003a BDE81040 		pop	{r4, lr}
 3446              		.cfi_restore 14
 3447              		.cfi_restore 4
 3448              		.cfi_def_cfa_offset 0
 3449              		.loc 1 892 12 view .LVU978
 3450 003e FFF7FEBF 		b	write_reg
 3451              	.LVL425:
 3452              	.L153:
 3453              		.cfi_restore_state
 3454              		.loc 1 893 1 view .LVU979
 3455 0042 FFF7FEFF 		bl	__stack_chk_fail
 3456              	.LVL426:
 3457              	.L156:
 3458              		.loc 1 893 1 view .LVU980
 3459 0046 00BF     		.align	2
 3460              	.L155:
 3461 0048 00000000 		.word	.LC11
 3462              		.cfi_endproc
 3463              	.LFE268:
 3464              		.size	po8030_set_brightness, .-po8030_set_brightness
 3465              		.section	.rodata.po8030_set_contrast.cst4,"aM",%progbits,4
 3466              		.align	2
 3467              	.LC12:
 3468 0000 00000000 		.word	__stack_chk_guard
 3469              		.section	.text.po8030_set_contrast,"ax",%progbits
 3470              		.align	1
 3471              		.p2align 4,,15
 3472              		.global	po8030_set_contrast
 3473              		.syntax unified
 3474              		.thumb
 3475              		.thumb_func
 3476              		.fpu fpv4-sp-d16
 3477              		.type	po8030_set_contrast, %function
ARM GAS  /tmp/cczbsEFl.s 			page 62


 3478              	po8030_set_contrast:
 3479              	.LVL427:
 3480              	.LFB269:
 3481              		.loc 1 898 43 is_stmt 1 view -0
 3482              		.cfi_startproc
 3483              		@ args = 0, pretend = 0, frame = 8
 3484              		@ frame_needed = 0, uses_anonymous_args = 0
 3485              		.loc 1 898 43 is_stmt 0 view .LVU982
 3486 0000 10B5     		push	{r4, lr}
 3487              		.cfi_def_cfa_offset 8
 3488              		.cfi_offset 4, -8
 3489              		.cfi_offset 14, -4
 3490 0002 114B     		ldr	r3, .L164
 3491 0004 82B0     		sub	sp, sp, #8
 3492              		.cfi_def_cfa_offset 16
 3493              		.loc 1 898 43 view .LVU983
 3494 0006 0446     		mov	r4, r0
 3495              	.LBB168:
 3496              	.LBB169:
 3497              		.loc 1 119 12 view .LVU984
 3498 0008 0122     		movs	r2, #1
 3499 000a 0321     		movs	r1, #3
 3500 000c 6E20     		movs	r0, #110
 3501              	.LVL428:
 3502              		.loc 1 119 12 view .LVU985
 3503              	.LBE169:
 3504              	.LBE168:
 3505              		.loc 1 898 43 view .LVU986
 3506 000e 1B68     		ldr	r3, [r3]
 3507 0010 0193     		str	r3, [sp, #4]
 3508 0012 4FF00003 		mov	r3,#0
 3509              		.loc 1 899 5 is_stmt 1 view .LVU987
 3510              	.LVL429:
 3511              		.loc 1 900 5 view .LVU988
 3512              	.LBB171:
 3513              	.LBI168:
 3514              		.loc 1 118 8 view .LVU989
 3515              	.LBB170:
 3516              		.loc 1 119 5 view .LVU990
 3517              		.loc 1 119 12 is_stmt 0 view .LVU991
 3518 0016 FFF7FEFF 		bl	write_reg
 3519              	.LVL430:
 3520              		.loc 1 119 12 view .LVU992
 3521              	.LBE170:
 3522              	.LBE171:
 3523              		.loc 1 904 1 view .LVU993
 3524 001a 0B4B     		ldr	r3, .L164
 3525              		.loc 1 900 7 view .LVU994
 3526 001c 28B1     		cbz	r0, .L163
 3527              		.loc 1 904 1 view .LVU995
 3528 001e 1A68     		ldr	r2, [r3]
 3529 0020 019B     		ldr	r3, [sp, #4]
 3530 0022 5A40     		eors	r2, r3, r2
 3531 0024 0DD1     		bne	.L162
 3532 0026 02B0     		add	sp, sp, #8
 3533              		.cfi_remember_state
 3534              		.cfi_def_cfa_offset 8
ARM GAS  /tmp/cczbsEFl.s 			page 63


 3535              		@ sp needed
 3536 0028 10BD     		pop	{r4, pc}
 3537              	.L163:
 3538              		.cfi_restore_state
 3539              		.loc 1 903 5 is_stmt 1 view .LVU996
 3540              		.loc 1 903 12 is_stmt 0 view .LVU997
 3541 002a 1A68     		ldr	r2, [r3]
 3542 002c 019B     		ldr	r3, [sp, #4]
 3543 002e 5A40     		eors	r2, r3, r2
 3544 0030 07D1     		bne	.L162
 3545 0032 2246     		mov	r2, r4
 3546 0034 9D21     		movs	r1, #157
 3547 0036 6E20     		movs	r0, #110
 3548              	.LVL431:
 3549              		.loc 1 904 1 view .LVU998
 3550 0038 02B0     		add	sp, sp, #8
 3551              		.cfi_remember_state
 3552              		.cfi_def_cfa_offset 8
 3553              		@ sp needed
 3554 003a BDE81040 		pop	{r4, lr}
 3555              		.cfi_restore 14
 3556              		.cfi_restore 4
 3557              		.cfi_def_cfa_offset 0
 3558              		.loc 1 903 12 view .LVU999
 3559 003e FFF7FEBF 		b	write_reg
 3560              	.LVL432:
 3561              	.L162:
 3562              		.cfi_restore_state
 3563              		.loc 1 904 1 view .LVU1000
 3564 0042 FFF7FEFF 		bl	__stack_chk_fail
 3565              	.LVL433:
 3566              	.L165:
 3567              		.loc 1 904 1 view .LVU1001
 3568 0046 00BF     		.align	2
 3569              	.L164:
 3570 0048 00000000 		.word	.LC12
 3571              		.cfi_endproc
 3572              	.LFE269:
 3573              		.size	po8030_set_contrast, .-po8030_set_contrast
 3574              		.section	.rodata.po8030_set_mirror.cst4,"aM",%progbits,4
 3575              		.align	2
 3576              	.LC13:
 3577 0000 00000000 		.word	__stack_chk_guard
 3578              		.section	.text.po8030_set_mirror,"ax",%progbits
 3579              		.align	1
 3580              		.p2align 4,,15
 3581              		.global	po8030_set_mirror
 3582              		.syntax unified
 3583              		.thumb
 3584              		.thumb_func
 3585              		.fpu fpv4-sp-d16
 3586              		.type	po8030_set_mirror, %function
 3587              	po8030_set_mirror:
 3588              	.LVL434:
 3589              	.LFB270:
 3590              		.loc 1 910 64 is_stmt 1 view -0
 3591              		.cfi_startproc
ARM GAS  /tmp/cczbsEFl.s 			page 64


 3592              		@ args = 0, pretend = 0, frame = 8
 3593              		@ frame_needed = 0, uses_anonymous_args = 0
 3594              		.loc 1 910 64 is_stmt 0 view .LVU1003
 3595 0000 30B5     		push	{r4, r5, lr}
 3596              		.cfi_def_cfa_offset 12
 3597              		.cfi_offset 4, -12
 3598              		.cfi_offset 5, -8
 3599              		.cfi_offset 14, -4
 3600 0002 0B46     		mov	r3, r1
 3601 0004 1C46     		mov	r4, r3
 3602 0006 154B     		ldr	r3, .L175
 3603 0008 83B0     		sub	sp, sp, #12
 3604              		.cfi_def_cfa_offset 24
 3605              		.loc 1 910 64 view .LVU1004
 3606 000a 0546     		mov	r5, r0
 3607              	.LBB172:
 3608              	.LBB173:
 3609              		.loc 1 119 12 view .LVU1005
 3610 000c 0022     		movs	r2, #0
 3611 000e 0321     		movs	r1, #3
 3612              	.LVL435:
 3613              		.loc 1 119 12 view .LVU1006
 3614 0010 6E20     		movs	r0, #110
 3615              	.LVL436:
 3616              		.loc 1 119 12 view .LVU1007
 3617              	.LBE173:
 3618              	.LBE172:
 3619              		.loc 1 910 64 view .LVU1008
 3620 0012 1B68     		ldr	r3, [r3]
 3621 0014 0193     		str	r3, [sp, #4]
 3622 0016 4FF00003 		mov	r3,#0
 3623              		.loc 1 911 5 is_stmt 1 view .LVU1009
 3624              	.LVL437:
 3625              		.loc 1 912 5 view .LVU1010
 3626              		.loc 1 914 5 view .LVU1011
 3627              	.LBB175:
 3628              	.LBI172:
 3629              		.loc 1 118 8 view .LVU1012
 3630              	.LBB174:
 3631              		.loc 1 119 5 view .LVU1013
 3632              		.loc 1 119 12 is_stmt 0 view .LVU1014
 3633 001a FFF7FEFF 		bl	write_reg
 3634              	.LVL438:
 3635              		.loc 1 119 12 view .LVU1015
 3636              	.LBE174:
 3637              	.LBE175:
 3638              		.loc 1 914 7 view .LVU1016
 3639 001e 98B9     		cbnz	r0, .L167
 3640              		.loc 1 918 5 is_stmt 1 view .LVU1017
 3641              		.loc 1 918 7 is_stmt 0 view .LVU1018
 3642 0020 012D     		cmp	r5, #1
 3643              		.loc 1 925 12 view .LVU1019
 3644 0022 0E4B     		ldr	r3, .L175
 3645              		.loc 1 919 15 view .LVU1020
 3646 0024 0CBF     		ite	eq
 3647 0026 8022     		moveq	r2, #128
 3648 0028 0022     		movne	r2, #0
ARM GAS  /tmp/cczbsEFl.s 			page 65


 3649              	.LVL439:
 3650              		.loc 1 921 5 is_stmt 1 view .LVU1021
 3651              		.loc 1 922 9 view .LVU1022
 3652              		.loc 1 921 7 is_stmt 0 view .LVU1023
 3653 002a 012C     		cmp	r4, #1
 3654              		.loc 1 922 15 view .LVU1024
 3655 002c 08BF     		it	eq
 3656 002e 42F04002 		orreq	r2, r2, #64
 3657              	.LVL440:
 3658              		.loc 1 925 5 is_stmt 1 view .LVU1025
 3659              		.loc 1 925 12 is_stmt 0 view .LVU1026
 3660 0032 1968     		ldr	r1, [r3]
 3661 0034 019B     		ldr	r3, [sp, #4]
 3662 0036 5940     		eors	r1, r3, r1
 3663 0038 0DD1     		bne	.L174
 3664 003a 6C21     		movs	r1, #108
 3665 003c 6E20     		movs	r0, #110
 3666              	.LVL441:
 3667              		.loc 1 926 1 view .LVU1027
 3668 003e 03B0     		add	sp, sp, #12
 3669              		.cfi_remember_state
 3670              		.cfi_def_cfa_offset 12
 3671              		@ sp needed
 3672 0040 BDE83040 		pop	{r4, r5, lr}
 3673              		.cfi_restore 14
 3674              		.cfi_restore 5
 3675              		.cfi_restore 4
 3676              		.cfi_def_cfa_offset 0
 3677              		.loc 1 925 12 view .LVU1028
 3678 0044 FFF7FEBF 		b	write_reg
 3679              	.LVL442:
 3680              	.L167:
 3681              		.cfi_restore_state
 3682              		.loc 1 926 1 view .LVU1029
 3683 0048 044B     		ldr	r3, .L175
 3684 004a 1A68     		ldr	r2, [r3]
 3685 004c 019B     		ldr	r3, [sp, #4]
 3686 004e 5A40     		eors	r2, r3, r2
 3687 0050 01D1     		bne	.L174
 3688 0052 03B0     		add	sp, sp, #12
 3689              		.cfi_remember_state
 3690              		.cfi_def_cfa_offset 12
 3691              		@ sp needed
 3692 0054 30BD     		pop	{r4, r5, pc}
 3693              	.LVL443:
 3694              	.L174:
 3695              		.cfi_restore_state
 3696              		.loc 1 926 1 view .LVU1030
 3697 0056 FFF7FEFF 		bl	__stack_chk_fail
 3698              	.LVL444:
 3699              	.L176:
 3700              		.loc 1 926 1 view .LVU1031
 3701 005a 00BF     		.align	2
 3702              	.L175:
 3703 005c 00000000 		.word	.LC13
 3704              		.cfi_endproc
 3705              	.LFE270:
ARM GAS  /tmp/cczbsEFl.s 			page 66


 3706              		.size	po8030_set_mirror, .-po8030_set_mirror
 3707              		.section	.rodata.po8030_set_awb.cst4,"aM",%progbits,4
 3708              		.align	2
 3709              	.LC14:
 3710 0000 00000000 		.word	__stack_chk_guard
 3711              		.section	.text.po8030_set_awb,"ax",%progbits
 3712              		.align	1
 3713              		.p2align 4,,15
 3714              		.global	po8030_set_awb
 3715              		.syntax unified
 3716              		.thumb
 3717              		.thumb_func
 3718              		.fpu fpv4-sp-d16
 3719              		.type	po8030_set_awb, %function
 3720              	po8030_set_awb:
 3721              	.LVL445:
 3722              	.LFB271:
 3723              		.loc 1 931 36 is_stmt 1 view -0
 3724              		.cfi_startproc
 3725              		@ args = 0, pretend = 0, frame = 8
 3726              		@ frame_needed = 0, uses_anonymous_args = 0
 3727              		.loc 1 931 36 is_stmt 0 view .LVU1033
 3728 0000 30B5     		push	{r4, r5, lr}
 3729              		.cfi_def_cfa_offset 12
 3730              		.cfi_offset 4, -12
 3731              		.cfi_offset 5, -8
 3732              		.cfi_offset 14, -4
 3733 0002 184B     		ldr	r3, .L185
 3734 0004 83B0     		sub	sp, sp, #12
 3735              		.cfi_def_cfa_offset 24
 3736              		.loc 1 931 36 view .LVU1034
 3737 0006 0446     		mov	r4, r0
 3738              		.loc 1 933 13 view .LVU1035
 3739 0008 0025     		movs	r5, #0
 3740              	.LBB176:
 3741              	.LBB177:
 3742              		.loc 1 119 12 view .LVU1036
 3743 000a 0222     		movs	r2, #2
 3744 000c 0321     		movs	r1, #3
 3745 000e 6E20     		movs	r0, #110
 3746              	.LVL446:
 3747              		.loc 1 119 12 view .LVU1037
 3748              	.LBE177:
 3749              	.LBE176:
 3750              		.loc 1 931 36 view .LVU1038
 3751 0010 1B68     		ldr	r3, [r3]
 3752 0012 0193     		str	r3, [sp, #4]
 3753 0014 4FF00003 		mov	r3,#0
 3754              		.loc 1 932 5 is_stmt 1 view .LVU1039
 3755              	.LVL447:
 3756              		.loc 1 933 5 view .LVU1040
 3757              		.loc 1 933 13 is_stmt 0 view .LVU1041
 3758 0018 8DF80350 		strb	r5, [sp, #3]
 3759              		.loc 1 935 5 is_stmt 1 view .LVU1042
 3760              	.LVL448:
 3761              	.LBB179:
 3762              	.LBI176:
ARM GAS  /tmp/cczbsEFl.s 			page 67


 3763              		.loc 1 118 8 view .LVU1043
 3764              	.LBB178:
 3765              		.loc 1 119 5 view .LVU1044
 3766              		.loc 1 119 12 is_stmt 0 view .LVU1045
 3767 001c FFF7FEFF 		bl	write_reg
 3768              	.LVL449:
 3769              		.loc 1 119 12 view .LVU1046
 3770              	.LBE178:
 3771              	.LBE179:
 3772              		.loc 1 935 7 view .LVU1047
 3773 0020 30B1     		cbz	r0, .L183
 3774              	.LVL450:
 3775              	.L178:
 3776              		.loc 1 950 1 view .LVU1048
 3777 0022 104B     		ldr	r3, .L185
 3778 0024 1A68     		ldr	r2, [r3]
 3779 0026 019B     		ldr	r3, [sp, #4]
 3780 0028 5A40     		eors	r2, r3, r2
 3781 002a 18D1     		bne	.L184
 3782 002c 03B0     		add	sp, sp, #12
 3783              		.cfi_remember_state
 3784              		.cfi_def_cfa_offset 12
 3785              		@ sp needed
 3786 002e 30BD     		pop	{r4, r5, pc}
 3787              	.LVL451:
 3788              	.L183:
 3789              		.cfi_restore_state
 3790              		.loc 1 939 5 is_stmt 1 view .LVU1049
 3791              		.loc 1 939 15 is_stmt 0 view .LVU1050
 3792 0030 0DF10302 		add	r2, sp, #3
 3793 0034 0421     		movs	r1, #4
 3794 0036 6E20     		movs	r0, #110
 3795              	.LVL452:
 3796              		.loc 1 939 15 view .LVU1051
 3797 0038 FFF7FEFF 		bl	read_reg
 3798              	.LVL453:
 3799              		.loc 1 939 7 view .LVU1052
 3800 003c 0028     		cmp	r0, #0
 3801 003e F0D1     		bne	.L178
 3802              		.loc 1 943 5 is_stmt 1 view .LVU1053
 3803              		.loc 1 944 9 view .LVU1054
 3804              		.loc 1 946 9 view .LVU1055
 3805              		.loc 1 944 15 is_stmt 0 view .LVU1056
 3806 0040 9DF80320 		ldrb	r2, [sp, #3]	@ zero_extendqisi2
 3807              		.loc 1 943 7 view .LVU1057
 3808 0044 012C     		cmp	r4, #1
 3809              		.loc 1 944 15 view .LVU1058
 3810 0046 0CBF     		ite	eq
 3811 0048 02F0FB02 		andeq	r2, r2, #251
 3812              		.loc 1 946 15 view .LVU1059
 3813 004c 42F00402 		orrne	r2, r2, #4
 3814              		.loc 1 949 12 view .LVU1060
 3815 0050 0421     		movs	r1, #4
 3816 0052 6E20     		movs	r0, #110
 3817              	.LVL454:
 3818              		.loc 1 949 12 view .LVU1061
 3819 0054 8DF80320 		strb	r2, [sp, #3]
ARM GAS  /tmp/cczbsEFl.s 			page 68


 3820              		.loc 1 949 5 is_stmt 1 view .LVU1062
 3821              		.loc 1 949 12 is_stmt 0 view .LVU1063
 3822 0058 FFF7FEFF 		bl	write_reg
 3823              	.LVL455:
 3824 005c E1E7     		b	.L178
 3825              	.L184:
 3826              		.loc 1 950 1 view .LVU1064
 3827 005e FFF7FEFF 		bl	__stack_chk_fail
 3828              	.LVL456:
 3829              	.L186:
 3830 0062 00BF     		.align	2
 3831              	.L185:
 3832 0064 00000000 		.word	.LC14
 3833              		.cfi_endproc
 3834              	.LFE271:
 3835              		.size	po8030_set_awb, .-po8030_set_awb
 3836              		.section	.rodata.po8030_set_rgb_gain.cst4,"aM",%progbits,4
 3837              		.align	2
 3838              	.LC15:
 3839 0000 00000000 		.word	__stack_chk_guard
 3840              		.section	.text.po8030_set_rgb_gain,"ax",%progbits
 3841              		.align	1
 3842              		.p2align 4,,15
 3843              		.global	po8030_set_rgb_gain
 3844              		.syntax unified
 3845              		.thumb
 3846              		.thumb_func
 3847              		.fpu fpv4-sp-d16
 3848              		.type	po8030_set_rgb_gain, %function
 3849              	po8030_set_rgb_gain:
 3850              	.LVL457:
 3851              	.LFB272:
 3852              		.loc 1 958 61 is_stmt 1 view -0
 3853              		.cfi_startproc
 3854              		@ args = 0, pretend = 0, frame = 8
 3855              		@ frame_needed = 0, uses_anonymous_args = 0
 3856              		.loc 1 958 61 is_stmt 0 view .LVU1066
 3857 0000 70B5     		push	{r4, r5, r6, lr}
 3858              		.cfi_def_cfa_offset 16
 3859              		.cfi_offset 4, -16
 3860              		.cfi_offset 5, -12
 3861              		.cfi_offset 6, -8
 3862              		.cfi_offset 14, -4
 3863 0002 1C4B     		ldr	r3, .L194
 3864 0004 82B0     		sub	sp, sp, #8
 3865              		.cfi_def_cfa_offset 24
 3866              		.loc 1 958 61 view .LVU1067
 3867 0006 0446     		mov	r4, r0
 3868              		.loc 1 961 15 view .LVU1068
 3869 0008 0020     		movs	r0, #0
 3870              	.LVL458:
 3871              		.loc 1 958 61 view .LVU1069
 3872 000a 0D46     		mov	r5, r1
 3873 000c 1646     		mov	r6, r2
 3874 000e 1B68     		ldr	r3, [r3]
 3875 0010 0193     		str	r3, [sp, #4]
 3876 0012 4FF00003 		mov	r3,#0
ARM GAS  /tmp/cczbsEFl.s 			page 69


 3877              		.loc 1 959 5 is_stmt 1 view .LVU1070
 3878              	.LVL459:
 3879              		.loc 1 961 5 view .LVU1071
 3880              		.loc 1 961 15 is_stmt 0 view .LVU1072
 3881 0016 FFF7FEFF 		bl	po8030_set_awb
 3882              	.LVL460:
 3883              		.loc 1 961 7 view .LVU1073
 3884 001a 30B1     		cbz	r0, .L193
 3885              	.L188:
 3886              		.loc 1 980 1 view .LVU1074
 3887 001c 154B     		ldr	r3, .L194
 3888 001e 1A68     		ldr	r2, [r3]
 3889 0020 019B     		ldr	r3, [sp, #4]
 3890 0022 5A40     		eors	r2, r3, r2
 3891 0024 23D1     		bne	.L192
 3892 0026 02B0     		add	sp, sp, #8
 3893              		.cfi_remember_state
 3894              		.cfi_def_cfa_offset 16
 3895              		@ sp needed
 3896 0028 70BD     		pop	{r4, r5, r6, pc}
 3897              	.L193:
 3898              		.cfi_restore_state
 3899              		.loc 1 965 5 is_stmt 1 view .LVU1075
 3900              	.LVL461:
 3901              	.LBB180:
 3902              	.LBI180:
 3903              		.loc 1 118 8 view .LVU1076
 3904              	.LBB181:
 3905              		.loc 1 119 5 view .LVU1077
 3906              		.loc 1 119 12 is_stmt 0 view .LVU1078
 3907 002a 0246     		mov	r2, r0
 3908 002c 0321     		movs	r1, #3
 3909 002e 6E20     		movs	r0, #110
 3910              	.LVL462:
 3911              		.loc 1 119 12 view .LVU1079
 3912 0030 FFF7FEFF 		bl	write_reg
 3913              	.LVL463:
 3914              		.loc 1 119 12 view .LVU1080
 3915              	.LBE181:
 3916              	.LBE180:
 3917              		.loc 1 965 7 view .LVU1081
 3918 0034 0028     		cmp	r0, #0
 3919 0036 F1D1     		bne	.L188
 3920              		.loc 1 969 5 is_stmt 1 view .LVU1082
 3921              		.loc 1 969 15 is_stmt 0 view .LVU1083
 3922 0038 2246     		mov	r2, r4
 3923 003a 2321     		movs	r1, #35
 3924 003c 6E20     		movs	r0, #110
 3925              	.LVL464:
 3926              		.loc 1 969 15 view .LVU1084
 3927 003e FFF7FEFF 		bl	write_reg
 3928              	.LVL465:
 3929              		.loc 1 969 7 view .LVU1085
 3930 0042 0028     		cmp	r0, #0
 3931 0044 EAD1     		bne	.L188
 3932              		.loc 1 972 5 is_stmt 1 view .LVU1086
 3933              		.loc 1 972 15 is_stmt 0 view .LVU1087
ARM GAS  /tmp/cczbsEFl.s 			page 70


 3934 0046 2A46     		mov	r2, r5
 3935 0048 2421     		movs	r1, #36
 3936 004a 6E20     		movs	r0, #110
 3937              	.LVL466:
 3938              		.loc 1 972 15 view .LVU1088
 3939 004c FFF7FEFF 		bl	write_reg
 3940              	.LVL467:
 3941              		.loc 1 972 7 view .LVU1089
 3942 0050 0028     		cmp	r0, #0
 3943 0052 E3D1     		bne	.L188
 3944              		.loc 1 975 5 is_stmt 1 view .LVU1090
 3945              		.loc 1 975 15 is_stmt 0 view .LVU1091
 3946 0054 074B     		ldr	r3, .L194
 3947 0056 1A68     		ldr	r2, [r3]
 3948 0058 019B     		ldr	r3, [sp, #4]
 3949 005a 5A40     		eors	r2, r3, r2
 3950 005c 07D1     		bne	.L192
 3951 005e 3246     		mov	r2, r6
 3952 0060 2521     		movs	r1, #37
 3953 0062 6E20     		movs	r0, #110
 3954              	.LVL468:
 3955              		.loc 1 980 1 view .LVU1092
 3956 0064 02B0     		add	sp, sp, #8
 3957              		.cfi_remember_state
 3958              		.cfi_def_cfa_offset 16
 3959              		@ sp needed
 3960 0066 BDE87040 		pop	{r4, r5, r6, lr}
 3961              		.cfi_restore 14
 3962              		.cfi_restore 6
 3963              		.cfi_restore 5
 3964              		.cfi_restore 4
 3965              		.cfi_def_cfa_offset 0
 3966              		.loc 1 975 15 view .LVU1093
 3967 006a FFF7FEBF 		b	write_reg
 3968              	.LVL469:
 3969              	.L192:
 3970              		.cfi_restore_state
 3971              		.loc 1 980 1 view .LVU1094
 3972 006e FFF7FEFF 		bl	__stack_chk_fail
 3973              	.LVL470:
 3974              	.L195:
 3975              		.loc 1 980 1 view .LVU1095
 3976 0072 00BF     		.align	2
 3977              	.L194:
 3978 0074 00000000 		.word	.LC15
 3979              		.cfi_endproc
 3980              	.LFE272:
 3981              		.size	po8030_set_rgb_gain, .-po8030_set_rgb_gain
 3982              		.section	.rodata.po8030_set_ae.cst4,"aM",%progbits,4
 3983              		.align	2
 3984              	.LC16:
 3985 0000 00000000 		.word	__stack_chk_guard
 3986              		.section	.text.po8030_set_ae,"ax",%progbits
 3987              		.align	1
 3988              		.p2align 4,,15
 3989              		.global	po8030_set_ae
 3990              		.syntax unified
ARM GAS  /tmp/cczbsEFl.s 			page 71


 3991              		.thumb
 3992              		.thumb_func
 3993              		.fpu fpv4-sp-d16
 3994              		.type	po8030_set_ae, %function
 3995              	po8030_set_ae:
 3996              	.LVL471:
 3997              	.LFB273:
 3998              		.loc 1 985 34 is_stmt 1 view -0
 3999              		.cfi_startproc
 4000              		@ args = 0, pretend = 0, frame = 8
 4001              		@ frame_needed = 0, uses_anonymous_args = 0
 4002              		.loc 1 985 34 is_stmt 0 view .LVU1097
 4003 0000 30B5     		push	{r4, r5, lr}
 4004              		.cfi_def_cfa_offset 12
 4005              		.cfi_offset 4, -12
 4006              		.cfi_offset 5, -8
 4007              		.cfi_offset 14, -4
 4008 0002 184B     		ldr	r3, .L204
 4009 0004 83B0     		sub	sp, sp, #12
 4010              		.cfi_def_cfa_offset 24
 4011              		.loc 1 985 34 view .LVU1098
 4012 0006 0446     		mov	r4, r0
 4013              		.loc 1 987 13 view .LVU1099
 4014 0008 0025     		movs	r5, #0
 4015              	.LBB182:
 4016              	.LBB183:
 4017              		.loc 1 119 12 view .LVU1100
 4018 000a 0222     		movs	r2, #2
 4019 000c 0321     		movs	r1, #3
 4020 000e 6E20     		movs	r0, #110
 4021              	.LVL472:
 4022              		.loc 1 119 12 view .LVU1101
 4023              	.LBE183:
 4024              	.LBE182:
 4025              		.loc 1 985 34 view .LVU1102
 4026 0010 1B68     		ldr	r3, [r3]
 4027 0012 0193     		str	r3, [sp, #4]
 4028 0014 4FF00003 		mov	r3,#0
 4029              		.loc 1 986 5 is_stmt 1 view .LVU1103
 4030              	.LVL473:
 4031              		.loc 1 987 5 view .LVU1104
 4032              		.loc 1 987 13 is_stmt 0 view .LVU1105
 4033 0018 8DF80350 		strb	r5, [sp, #3]
 4034              		.loc 1 989 5 is_stmt 1 view .LVU1106
 4035              	.LVL474:
 4036              	.LBB185:
 4037              	.LBI182:
 4038              		.loc 1 118 8 view .LVU1107
 4039              	.LBB184:
 4040              		.loc 1 119 5 view .LVU1108
 4041              		.loc 1 119 12 is_stmt 0 view .LVU1109
 4042 001c FFF7FEFF 		bl	write_reg
 4043              	.LVL475:
 4044              		.loc 1 119 12 view .LVU1110
 4045              	.LBE184:
 4046              	.LBE185:
 4047              		.loc 1 989 7 view .LVU1111
ARM GAS  /tmp/cczbsEFl.s 			page 72


 4048 0020 30B1     		cbz	r0, .L202
 4049              	.LVL476:
 4050              	.L197:
 4051              		.loc 1 1004 1 view .LVU1112
 4052 0022 104B     		ldr	r3, .L204
 4053 0024 1A68     		ldr	r2, [r3]
 4054 0026 019B     		ldr	r3, [sp, #4]
 4055 0028 5A40     		eors	r2, r3, r2
 4056 002a 18D1     		bne	.L203
 4057 002c 03B0     		add	sp, sp, #12
 4058              		.cfi_remember_state
 4059              		.cfi_def_cfa_offset 12
 4060              		@ sp needed
 4061 002e 30BD     		pop	{r4, r5, pc}
 4062              	.LVL477:
 4063              	.L202:
 4064              		.cfi_restore_state
 4065              		.loc 1 993 5 is_stmt 1 view .LVU1113
 4066              		.loc 1 993 15 is_stmt 0 view .LVU1114
 4067 0030 0DF10302 		add	r2, sp, #3
 4068 0034 0421     		movs	r1, #4
 4069 0036 6E20     		movs	r0, #110
 4070              	.LVL478:
 4071              		.loc 1 993 15 view .LVU1115
 4072 0038 FFF7FEFF 		bl	read_reg
 4073              	.LVL479:
 4074              		.loc 1 993 7 view .LVU1116
 4075 003c 0028     		cmp	r0, #0
 4076 003e F0D1     		bne	.L197
 4077              		.loc 1 997 5 is_stmt 1 view .LVU1117
 4078              		.loc 1 998 9 view .LVU1118
 4079              		.loc 1 1000 9 view .LVU1119
 4080              		.loc 1 998 15 is_stmt 0 view .LVU1120
 4081 0040 9DF80320 		ldrb	r2, [sp, #3]	@ zero_extendqisi2
 4082              		.loc 1 997 7 view .LVU1121
 4083 0044 012C     		cmp	r4, #1
 4084              		.loc 1 998 15 view .LVU1122
 4085 0046 0CBF     		ite	eq
 4086 0048 02F0FC02 		andeq	r2, r2, #252
 4087              		.loc 1 1000 15 view .LVU1123
 4088 004c 42F00302 		orrne	r2, r2, #3
 4089              		.loc 1 1003 12 view .LVU1124
 4090 0050 0421     		movs	r1, #4
 4091 0052 6E20     		movs	r0, #110
 4092              	.LVL480:
 4093              		.loc 1 1003 12 view .LVU1125
 4094 0054 8DF80320 		strb	r2, [sp, #3]
 4095              		.loc 1 1003 5 is_stmt 1 view .LVU1126
 4096              		.loc 1 1003 12 is_stmt 0 view .LVU1127
 4097 0058 FFF7FEFF 		bl	write_reg
 4098              	.LVL481:
 4099 005c E1E7     		b	.L197
 4100              	.L203:
 4101              		.loc 1 1004 1 view .LVU1128
 4102 005e FFF7FEFF 		bl	__stack_chk_fail
 4103              	.LVL482:
 4104              	.L205:
ARM GAS  /tmp/cczbsEFl.s 			page 73


 4105 0062 00BF     		.align	2
 4106              	.L204:
 4107 0064 00000000 		.word	.LC16
 4108              		.cfi_endproc
 4109              	.LFE273:
 4110              		.size	po8030_set_ae, .-po8030_set_ae
 4111              		.section	.rodata.po8030_set_exposure.cst4,"aM",%progbits,4
 4112              		.align	2
 4113              	.LC17:
 4114 0000 00000000 		.word	__stack_chk_guard
 4115              		.section	.text.po8030_set_exposure,"ax",%progbits
 4116              		.align	1
 4117              		.p2align 4,,15
 4118              		.global	po8030_set_exposure
 4119              		.syntax unified
 4120              		.thumb
 4121              		.thumb_func
 4122              		.fpu fpv4-sp-d16
 4123              		.type	po8030_set_exposure, %function
 4124              	po8030_set_exposure:
 4125              	.LVL483:
 4126              	.LFB274:
 4127              		.loc 1 1011 67 is_stmt 1 view -0
 4128              		.cfi_startproc
 4129              		@ args = 0, pretend = 0, frame = 8
 4130              		@ frame_needed = 0, uses_anonymous_args = 0
 4131              		.loc 1 1011 67 is_stmt 0 view .LVU1130
 4132 0000 30B5     		push	{r4, r5, lr}
 4133              		.cfi_def_cfa_offset 12
 4134              		.cfi_offset 4, -12
 4135              		.cfi_offset 5, -8
 4136              		.cfi_offset 14, -4
 4137 0002 1B4B     		ldr	r3, .L213
 4138 0004 83B0     		sub	sp, sp, #12
 4139              		.cfi_def_cfa_offset 24
 4140              		.loc 1 1011 67 view .LVU1131
 4141 0006 0446     		mov	r4, r0
 4142              		.loc 1 1014 15 view .LVU1132
 4143 0008 0020     		movs	r0, #0
 4144              	.LVL484:
 4145              		.loc 1 1011 67 view .LVU1133
 4146 000a 0D46     		mov	r5, r1
 4147 000c 1B68     		ldr	r3, [r3]
 4148 000e 0193     		str	r3, [sp, #4]
 4149 0010 4FF00003 		mov	r3,#0
 4150              		.loc 1 1012 5 is_stmt 1 view .LVU1134
 4151              	.LVL485:
 4152              		.loc 1 1014 5 view .LVU1135
 4153              		.loc 1 1014 15 is_stmt 0 view .LVU1136
 4154 0014 FFF7FEFF 		bl	po8030_set_ae
 4155              	.LVL486:
 4156              		.loc 1 1014 7 view .LVU1137
 4157 0018 30B1     		cbz	r0, .L212
 4158              	.L207:
 4159              		.loc 1 1033 1 view .LVU1138
 4160 001a 154B     		ldr	r3, .L213
 4161 001c 1A68     		ldr	r2, [r3]
ARM GAS  /tmp/cczbsEFl.s 			page 74


 4162 001e 019B     		ldr	r3, [sp, #4]
 4163 0020 5A40     		eors	r2, r3, r2
 4164 0022 23D1     		bne	.L211
 4165 0024 03B0     		add	sp, sp, #12
 4166              		.cfi_remember_state
 4167              		.cfi_def_cfa_offset 12
 4168              		@ sp needed
 4169 0026 30BD     		pop	{r4, r5, pc}
 4170              	.L212:
 4171              		.cfi_restore_state
 4172              		.loc 1 1018 5 is_stmt 1 view .LVU1139
 4173              	.LVL487:
 4174              	.LBB186:
 4175              	.LBI186:
 4176              		.loc 1 118 8 view .LVU1140
 4177              	.LBB187:
 4178              		.loc 1 119 5 view .LVU1141
 4179              		.loc 1 119 12 is_stmt 0 view .LVU1142
 4180 0028 0246     		mov	r2, r0
 4181 002a 0321     		movs	r1, #3
 4182 002c 6E20     		movs	r0, #110
 4183              	.LVL488:
 4184              		.loc 1 119 12 view .LVU1143
 4185 002e FFF7FEFF 		bl	write_reg
 4186              	.LVL489:
 4187              		.loc 1 119 12 view .LVU1144
 4188              	.LBE187:
 4189              	.LBE186:
 4190              		.loc 1 1018 7 view .LVU1145
 4191 0032 0028     		cmp	r0, #0
 4192 0034 F1D1     		bne	.L207
 4193              		.loc 1 1022 5 is_stmt 1 view .LVU1146
 4194              		.loc 1 1022 15 is_stmt 0 view .LVU1147
 4195 0036 220A     		lsrs	r2, r4, #8
 4196 0038 1721     		movs	r1, #23
 4197 003a 6E20     		movs	r0, #110
 4198              	.LVL490:
 4199              		.loc 1 1022 15 view .LVU1148
 4200 003c FFF7FEFF 		bl	write_reg
 4201              	.LVL491:
 4202              		.loc 1 1022 7 view .LVU1149
 4203 0040 0028     		cmp	r0, #0
 4204 0042 EAD1     		bne	.L207
 4205              		.loc 1 1025 5 is_stmt 1 view .LVU1150
 4206              		.loc 1 1025 15 is_stmt 0 view .LVU1151
 4207 0044 E2B2     		uxtb	r2, r4
 4208 0046 1821     		movs	r1, #24
 4209 0048 6E20     		movs	r0, #110
 4210              	.LVL492:
 4211              		.loc 1 1025 15 view .LVU1152
 4212 004a FFF7FEFF 		bl	write_reg
 4213              	.LVL493:
 4214              		.loc 1 1025 7 view .LVU1153
 4215 004e 0028     		cmp	r0, #0
 4216 0050 E3D1     		bne	.L207
 4217              		.loc 1 1028 5 is_stmt 1 view .LVU1154
 4218              		.loc 1 1028 15 is_stmt 0 view .LVU1155
ARM GAS  /tmp/cczbsEFl.s 			page 75


 4219 0052 074B     		ldr	r3, .L213
 4220 0054 1A68     		ldr	r2, [r3]
 4221 0056 019B     		ldr	r3, [sp, #4]
 4222 0058 5A40     		eors	r2, r3, r2
 4223 005a 07D1     		bne	.L211
 4224 005c 2A46     		mov	r2, r5
 4225 005e 1921     		movs	r1, #25
 4226 0060 6E20     		movs	r0, #110
 4227              	.LVL494:
 4228              		.loc 1 1033 1 view .LVU1156
 4229 0062 03B0     		add	sp, sp, #12
 4230              		.cfi_remember_state
 4231              		.cfi_def_cfa_offset 12
 4232              		@ sp needed
 4233 0064 BDE83040 		pop	{r4, r5, lr}
 4234              		.cfi_restore 14
 4235              		.cfi_restore 5
 4236              		.cfi_restore 4
 4237              		.cfi_def_cfa_offset 0
 4238              		.loc 1 1028 15 view .LVU1157
 4239 0068 FFF7FEBF 		b	write_reg
 4240              	.LVL495:
 4241              	.L211:
 4242              		.cfi_restore_state
 4243              		.loc 1 1033 1 view .LVU1158
 4244 006c FFF7FEFF 		bl	__stack_chk_fail
 4245              	.LVL496:
 4246              	.L214:
 4247              		.loc 1 1033 1 view .LVU1159
 4248              		.align	2
 4249              	.L213:
 4250 0070 00000000 		.word	.LC17
 4251              		.cfi_endproc
 4252              	.LFE274:
 4253              		.size	po8030_set_exposure, .-po8030_set_exposure
 4254              		.section	.rodata.po8030_get_image_size.cst4,"aM",%progbits,4
 4255              		.align	2
 4256              	.LC18:
 4257 0000 00000000 		.word	__stack_chk_guard
 4258              		.section	.text.po8030_get_image_size,"ax",%progbits
 4259              		.align	1
 4260              		.p2align 4,,15
 4261              		.global	po8030_get_image_size
 4262              		.syntax unified
 4263              		.thumb
 4264              		.thumb_func
 4265              		.fpu fpv4-sp-d16
 4266              		.type	po8030_get_image_size, %function
 4267              	po8030_get_image_size:
 4268              	.LFB275:
 4269              		.loc 1 1037 38 is_stmt 1 view -0
 4270              		.cfi_startproc
 4271              		@ args = 0, pretend = 0, frame = 8
 4272              		@ frame_needed = 0, uses_anonymous_args = 0
 4273 0000 00B5     		push	{lr}
 4274              		.cfi_def_cfa_offset 4
 4275              		.cfi_offset 14, -4
ARM GAS  /tmp/cczbsEFl.s 			page 76


 4276              		.loc 1 1038 19 is_stmt 0 view .LVU1161
 4277 0002 0C4B     		ldr	r3, .L221
 4278              		.loc 1 1037 38 view .LVU1162
 4279 0004 0C4A     		ldr	r2, .L221+4
 4280              		.loc 1 1039 46 view .LVU1163
 4281 0006 5888     		ldrh	r0, [r3, #2]
 4282              		.loc 1 1037 38 view .LVU1164
 4283 0008 83B0     		sub	sp, sp, #12
 4284              		.cfi_def_cfa_offset 16
 4285              		.loc 1 1037 38 view .LVU1165
 4286 000a 1268     		ldr	r2, [r2]
 4287 000c 0192     		str	r2, [sp, #4]
 4288 000e 4FF00002 		mov	r2,#0
 4289              		.loc 1 1038 5 is_stmt 1 view .LVU1166
 4290              		.loc 1 1038 7 is_stmt 0 view .LVU1167
 4291 0012 1A79     		ldrb	r2, [r3, #4]	@ zero_extendqisi2
 4292 0014 442A     		cmp	r2, #68
 4293              		.loc 1 1039 16 view .LVU1168
 4294 0016 1A88     		ldrh	r2, [r3]
 4295              		.loc 1 1043 1 view .LVU1169
 4296 0018 074B     		ldr	r3, .L221+4
 4297              		.loc 1 1039 44 view .LVU1170
 4298 001a 00FB02F0 		mul	r0, r0, r2
 4299              		.loc 1 1039 9 is_stmt 1 view .LVU1171
 4300              		.loc 1 1041 9 view .LVU1172
 4301              		.loc 1 1041 75 is_stmt 0 view .LVU1173
 4302 001e 18BF     		it	ne
 4303 0020 4000     		lslne	r0, r0, #1
 4304              		.loc 1 1043 1 view .LVU1174
 4305 0022 1A68     		ldr	r2, [r3]
 4306 0024 019B     		ldr	r3, [sp, #4]
 4307 0026 5A40     		eors	r2, r3, r2
 4308 0028 02D1     		bne	.L220
 4309 002a 03B0     		add	sp, sp, #12
 4310              		.cfi_remember_state
 4311              		.cfi_def_cfa_offset 4
 4312              		@ sp needed
 4313 002c 5DF804FB 		ldr	pc, [sp], #4
 4314              	.L220:
 4315              		.cfi_restore_state
 4316 0030 FFF7FEFF 		bl	__stack_chk_fail
 4317              	.LVL497:
 4318              	.L222:
 4319              		.align	2
 4320              	.L221:
 4321 0034 00000000 		.word	.LANCHOR0
 4322 0038 00000000 		.word	.LC18
 4323              		.cfi_endproc
 4324              	.LFE275:
 4325              		.size	po8030_get_image_size, .-po8030_get_image_size
 4326              		.section	.bss.po8030_conf,"aw",%nobits
 4327              		.align	2
 4328              		.set	.LANCHOR0,. + 0
 4329              		.type	po8030_conf, %object
 4330              		.size	po8030_conf, 8
 4331              	po8030_conf:
 4332 0000 00000000 		.space	8
ARM GAS  /tmp/cczbsEFl.s 			page 77


 4332      00000000 
 4333              		.section	.rodata.pwmcfg_cam.10100,"a"
 4334              		.align	2
 4335              		.set	.LANCHOR1,. + 0
 4336              		.type	pwmcfg_cam.10100, %object
 4337              		.size	pwmcfg_cam.10100, 52
 4338              	pwmcfg_cam.10100:
 4339 0000 80DE8002 		.word	42000000
 4340 0004 02000000 		.word	2
 4341 0008 00000000 		.word	0
 4342 000c 01000000 		.word	1
 4343 0010 00000000 		.word	0
 4344 0014 00000000 		.word	0
 4345 0018 00000000 		.word	0
 4346 001c 00000000 		.word	0
 4347 0020 00000000 		.word	0
 4348 0024 00000000 		.word	0
 4349 0028 00000000 		.word	0
 4350 002c 00000000 		.word	0
 4351 0030 00000000 		.space	4
 4352              		.text
 4353              	.Letext0:
 4354              		.file 2 "/usr/lib/gcc/arm-none-eabi/9.2.1/include/stddef.h"
 4355              		.file 3 "/usr/lib/gcc/arm-none-eabi/9.2.1/include/stdint.h"
 4356              		.file 4 ".//ChibiOS//os/rt/ports/ARMCMx/compilers/GCC/chtypes.h"
 4357              		.file 5 ".//ChibiOS//os/rt/include/chsystypes.h"
 4358              		.file 6 ".//ChibiOS//os/rt/include/chschd.h"
 4359              		.file 7 ".//ChibiOS//os/ext/CMSIS/include/core_cm4.h"
 4360              		.file 8 ".//ChibiOS//os/ext/CMSIS/ST/system_stm32f4xx.h"
 4361              		.file 9 ".//ChibiOS//os/ext/CMSIS/ST/stm32f407xx.h"
 4362              		.file 10 ".//ChibiOS//os/rt/ports/ARMCMx/chcore.h"
 4363              		.file 11 ".//ChibiOS//os/rt/ports/ARMCMx/chcore_v7m.h"
 4364              		.file 12 ".//ChibiOS//os/rt/include/chdebug.h"
 4365              		.file 13 ".//ChibiOS//os/rt/include/chtm.h"
 4366              		.file 14 ".//ChibiOS//os/rt/include/chstats.h"
 4367              		.file 15 ".//ChibiOS//os/rt/include/chsem.h"
 4368              		.file 16 ".//ChibiOS//os/rt/include/chmtx.h"
 4369              		.file 17 ".//ChibiOS//os/rt/include/chregistry.h"
 4370              		.file 18 ".//ChibiOS//os/rt/include/chevents.h"
 4371              		.file 19 ".//ChibiOS//os/rt/include/chqueues.h"
 4372              		.file 20 ".//ChibiOS//os/hal/ports/STM32/STM32F4xx/stm32_dma.h"
 4373              		.file 21 ".//ChibiOS//os/hal/include/hal_ioblock.h"
 4374              		.file 22 ".//ChibiOS//os/hal/ports/STM32/LLD/GPIOv2/pal_lld.h"
 4375              		.file 23 ".//ChibiOS//os/hal/include/adc.h"
 4376              		.file 24 ".//ChibiOS//os/hal/ports/STM32/STM32F4xx/adc_lld.h"
 4377              		.file 25 ".//ChibiOS//os/hal/include/can.h"
 4378              		.file 26 ".//ChibiOS//os/hal/ports/STM32/LLD/can_lld.h"
 4379              		.file 27 ".//ChibiOS//os/hal/include/dac.h"
 4380              		.file 28 ".//ChibiOS//os/hal/ports/STM32/LLD/DACv1/dac_lld.h"
 4381              		.file 29 ".//ChibiOS//os/hal/include/ext.h"
 4382              		.file 30 ".//ChibiOS//os/hal/ports/STM32/LLD/ext_lld.h"
 4383              		.file 31 ".//ChibiOS//os/hal/include/gpt.h"
 4384              		.file 32 ".//ChibiOS//os/hal/ports/STM32/LLD/TIMv1/gpt_lld.h"
 4385              		.file 33 ".//ChibiOS//os/hal/ports/STM32/LLD/TIMv1/stm32_tim.h"
 4386              		.file 34 ".//ChibiOS//os/hal/include/i2c.h"
 4387              		.file 35 ".//ChibiOS//os/hal/ports/STM32/LLD/I2Cv1/i2c_lld.h"
 4388              		.file 36 ".//ChibiOS//os/hal/include/i2s.h"
ARM GAS  /tmp/cczbsEFl.s 			page 78


 4389              		.file 37 ".//ChibiOS//os/hal/ports/STM32/LLD/SPIv1/i2s_lld.h"
 4390              		.file 38 ".//ChibiOS//os/hal/include/pwm.h"
 4391              		.file 39 ".//ChibiOS//os/hal/ports/STM32/LLD/TIMv1/pwm_lld.h"
 4392              		.file 40 ".//ChibiOS//os/hal/include/serial.h"
 4393              		.file 41 ".//ChibiOS//os/hal/ports/STM32/LLD/USARTv1/serial_lld.h"
 4394              		.file 42 ".//ChibiOS//os/hal/include/sdc.h"
 4395              		.file 43 ".//ChibiOS//os/hal/ports/STM32/LLD/sdc_lld.h"
 4396              		.file 44 ".//ChibiOS//os/hal/include/spi.h"
 4397              		.file 45 ".//ChibiOS//os/hal/ports/STM32/LLD/SPIv1/spi_lld.h"
 4398              		.file 46 ".//ChibiOS//os/hal/include/usb.h"
 4399              		.file 47 ".//ChibiOS//os/hal/ports/STM32/LLD/OTGv1/usb_lld.h"
 4400              		.file 48 ".//ChibiOS//os/hal/ports/STM32/LLD/OTGv1/stm32_otg.h"
 4401              		.file 49 ".//ChibiOS//os/hal/include/serial_usb.h"
 4402              		.file 50 ".//src/camera/po8030.h"
 4403              		.file 51 ".//src/usbcfg.h"
 4404              		.file 52 ".//src/camera/../i2c_bus.h"