ARM GAS  /tmp/ccrAESKb.s 			page 1


   1              		.cpu cortex-m4
   2              		.eabi_attribute 27, 1
   3              		.eabi_attribute 28, 1
   4              		.eabi_attribute 20, 1
   5              		.eabi_attribute 21, 1
   6              		.eabi_attribute 23, 3
   7              		.eabi_attribute 24, 1
   8              		.eabi_attribute 25, 1
   9              		.eabi_attribute 26, 1
  10              		.eabi_attribute 30, 2
  11              		.eabi_attribute 34, 1
  12              		.eabi_attribute 18, 4
  13              		.file	"pwm_lld.c"
  14              		.text
  15              	.Ltext0:
  16              		.cfi_sections	.debug_frame
  17              		.section	.rodata.pwm_lld_serve_interrupt.cst4,"aM",%progbits,4
  18              		.align	2
  19              	.LC0:
  20 0000 00000000 		.word	__stack_chk_guard
  21              		.section	.text.pwm_lld_serve_interrupt,"ax",%progbits
  22              		.align	1
  23              		.p2align 4,,15
  24              		.arch armv7e-m
  25              		.syntax unified
  26              		.thumb
  27              		.thumb_func
  28              		.fpu fpv4-sp-d16
  29              		.type	pwm_lld_serve_interrupt, %function
  30              	pwm_lld_serve_interrupt:
  31              	.LVL0:
  32              	.LFB256:
  33              		.file 1 ".//ChibiOS//os/hal/ports/STM32/LLD/TIMv1/pwm_lld.c"
  34              		.loc 1 111 54 view -0
  35              		.cfi_startproc
  36              		@ args = 0, pretend = 0, frame = 8
  37              		@ frame_needed = 0, uses_anonymous_args = 0
  38              		.loc 1 111 54 is_stmt 0 view .LVU1
  39 0000 30B5     		push	{r4, r5, lr}
  40              		.cfi_def_cfa_offset 12
  41              		.cfi_offset 4, -12
  42              		.cfi_offset 5, -8
  43              		.cfi_offset 14, -4
  44 0002 204B     		ldr	r3, .L42
  45 0004 83B0     		sub	sp, sp, #12
  46              		.cfi_def_cfa_offset 24
  47              		.loc 1 111 54 view .LVU2
  48 0006 1B68     		ldr	r3, [r3]
  49 0008 0193     		str	r3, [sp, #4]
  50 000a 4FF00003 		mov	r3,#0
  51              		.loc 1 112 3 is_stmt 1 view .LVU3
  52              		.loc 1 114 3 view .LVU4
  53              		.loc 1 114 13 is_stmt 0 view .LVU5
  54 000e 8369     		ldr	r3, [r0, #24]
  55              		.loc 1 114 7 view .LVU6
  56 0010 1A69     		ldr	r2, [r3, #16]
  57              	.LVL1:
ARM GAS  /tmp/ccrAESKb.s 			page 2


  58              		.loc 1 115 3 is_stmt 1 view .LVU7
  59              		.loc 1 115 18 is_stmt 0 view .LVU8
  60 0012 DC68     		ldr	r4, [r3, #12]
  61 0014 1440     		ands	r4, r4, r2
  62              	.LVL2:
  63              		.loc 1 116 3 is_stmt 1 view .LVU9
  64              		.loc 1 115 6 is_stmt 0 view .LVU10
  65 0016 E2B2     		uxtb	r2, r4
  66              		.loc 1 116 19 view .LVU11
  67 0018 D243     		mvns	r2, r2
  68              		.loc 1 116 17 view .LVU12
  69 001a 1A61     		str	r2, [r3, #16]
  70              		.loc 1 117 3 is_stmt 1 view .LVU13
  71              		.loc 1 117 6 is_stmt 0 view .LVU14
  72 001c A307     		lsls	r3, r4, #30
  73              		.loc 1 111 54 view .LVU15
  74 001e 0546     		mov	r5, r0
  75              		.loc 1 117 6 view .LVU16
  76 0020 03D5     		bpl	.L2
  77              		.loc 1 118 33 discriminator 1 view .LVU17
  78 0022 4368     		ldr	r3, [r0, #4]
  79 0024 1B69     		ldr	r3, [r3, #16]
  80              		.loc 1 117 40 discriminator 1 view .LVU18
  81 0026 03B1     		cbz	r3, .L2
  82              		.loc 1 119 5 is_stmt 1 view .LVU19
  83 0028 9847     		blx	r3
  84              	.LVL3:
  85              	.L2:
  86              		.loc 1 120 3 view .LVU20
  87              		.loc 1 120 6 is_stmt 0 view .LVU21
  88 002a 6007     		lsls	r0, r4, #29
  89 002c 04D5     		bpl	.L3
  90              		.loc 1 121 33 discriminator 1 view .LVU22
  91 002e 6B68     		ldr	r3, [r5, #4]
  92 0030 9B69     		ldr	r3, [r3, #24]
  93              		.loc 1 120 40 discriminator 1 view .LVU23
  94 0032 0BB1     		cbz	r3, .L3
  95              		.loc 1 122 5 is_stmt 1 view .LVU24
  96 0034 2846     		mov	r0, r5
  97 0036 9847     		blx	r3
  98              	.LVL4:
  99              	.L3:
 100              		.loc 1 123 3 view .LVU25
 101              		.loc 1 123 6 is_stmt 0 view .LVU26
 102 0038 2107     		lsls	r1, r4, #28
 103 003a 04D5     		bpl	.L4
 104              		.loc 1 124 33 discriminator 1 view .LVU27
 105 003c 6B68     		ldr	r3, [r5, #4]
 106 003e 1B6A     		ldr	r3, [r3, #32]
 107              		.loc 1 123 40 discriminator 1 view .LVU28
 108 0040 0BB1     		cbz	r3, .L4
 109              		.loc 1 125 5 is_stmt 1 view .LVU29
 110 0042 2846     		mov	r0, r5
 111 0044 9847     		blx	r3
 112              	.LVL5:
 113              	.L4:
 114              		.loc 1 126 3 view .LVU30
ARM GAS  /tmp/ccrAESKb.s 			page 3


 115              		.loc 1 126 6 is_stmt 0 view .LVU31
 116 0046 E206     		lsls	r2, r4, #27
 117 0048 04D5     		bpl	.L5
 118              		.loc 1 127 33 discriminator 1 view .LVU32
 119 004a 6B68     		ldr	r3, [r5, #4]
 120 004c 9B6A     		ldr	r3, [r3, #40]
 121              		.loc 1 126 40 discriminator 1 view .LVU33
 122 004e 0BB1     		cbz	r3, .L5
 123              		.loc 1 128 5 is_stmt 1 view .LVU34
 124 0050 2846     		mov	r0, r5
 125 0052 9847     		blx	r3
 126              	.LVL6:
 127              	.L5:
 128              		.loc 1 129 3 view .LVU35
 129              		.loc 1 129 6 is_stmt 0 view .LVU36
 130 0054 E307     		lsls	r3, r4, #31
 131 0056 0CD5     		bpl	.L1
 132              		.loc 1 129 54 discriminator 1 view .LVU37
 133 0058 6B68     		ldr	r3, [r5, #4]
 134 005a 9B68     		ldr	r3, [r3, #8]
 135              		.loc 1 129 38 discriminator 1 view .LVU38
 136 005c 4BB1     		cbz	r3, .L1
 137              		.loc 1 130 5 is_stmt 1 view .LVU39
 138 005e 094A     		ldr	r2, .L42
 139 0060 1168     		ldr	r1, [r2]
 140 0062 019A     		ldr	r2, [sp, #4]
 141 0064 5140     		eors	r1, r2, r1
 142 0066 0BD1     		bne	.L40
 143 0068 2846     		mov	r0, r5
 144              		.loc 1 131 1 is_stmt 0 view .LVU40
 145 006a 03B0     		add	sp, sp, #12
 146              		.cfi_remember_state
 147              		.cfi_def_cfa_offset 12
 148              		@ sp needed
 149 006c BDE83040 		pop	{r4, r5, lr}
 150              		.cfi_restore 14
 151              		.cfi_restore 5
 152              		.cfi_restore 4
 153              		.cfi_def_cfa_offset 0
 154              	.LVL7:
 155              		.loc 1 130 5 view .LVU41
 156 0070 1847     		bx	r3	@ indirect register sibling call
 157              	.LVL8:
 158              	.L1:
 159              		.cfi_restore_state
 160              		.loc 1 131 1 view .LVU42
 161 0072 044B     		ldr	r3, .L42
 162 0074 1A68     		ldr	r2, [r3]
 163 0076 019B     		ldr	r3, [sp, #4]
 164 0078 5A40     		eors	r2, r3, r2
 165 007a 01D1     		bne	.L40
 166 007c 03B0     		add	sp, sp, #12
 167              		.cfi_remember_state
 168              		.cfi_def_cfa_offset 12
 169              		@ sp needed
 170 007e 30BD     		pop	{r4, r5, pc}
 171              	.LVL9:
ARM GAS  /tmp/ccrAESKb.s 			page 4


 172              	.L40:
 173              		.cfi_restore_state
 174              		.loc 1 131 1 view .LVU43
 175 0080 FFF7FEFF 		bl	__stack_chk_fail
 176              	.LVL10:
 177              	.L43:
 178              		.align	2
 179              	.L42:
 180 0084 00000000 		.word	.LC0
 181              		.cfi_endproc
 182              	.LFE256:
 183              		.size	pwm_lld_serve_interrupt, .-pwm_lld_serve_interrupt
 184              		.section	.rodata.VectorB0.cst4,"aM",%progbits,4
 185              		.align	2
 186              	.LC1:
 187 0000 00000000 		.word	__stack_chk_guard
 188              		.section	.text.VectorB0,"ax",%progbits
 189              		.align	1
 190              		.p2align 4,,15
 191              		.global	VectorB0
 192              		.syntax unified
 193              		.thumb
 194              		.thumb_func
 195              		.fpu fpv4-sp-d16
 196              		.type	VectorB0, %function
 197              	VectorB0:
 198              	.LFB257:
 199              		.loc 1 208 38 is_stmt 1 view -0
 200              		.cfi_startproc
 201              		@ args = 0, pretend = 0, frame = 8
 202              		@ frame_needed = 0, uses_anonymous_args = 0
 203 0000 00B5     		push	{lr}
 204              		.cfi_def_cfa_offset 4
 205              		.cfi_offset 14, -4
 206 0002 0D4B     		ldr	r3, .L49
 207 0004 83B0     		sub	sp, sp, #12
 208              		.cfi_def_cfa_offset 16
 209              		.loc 1 208 38 is_stmt 0 view .LVU45
 210 0006 1B68     		ldr	r3, [r3]
 211 0008 0193     		str	r3, [sp, #4]
 212 000a 4FF00003 		mov	r3,#0
 213              		.loc 1 210 3 is_stmt 1 view .LVU46
 214              		.loc 1 210 3 view .LVU47
 215 000e FFF7FEFF 		bl	_stats_increase_irq
 216              	.LVL11:
 217              		.loc 1 210 3 view .LVU48
 218 0012 FFF7FEFF 		bl	_dbg_check_enter_isr
 219              	.LVL12:
 220              		.loc 1 212 3 view .LVU49
 221 0016 0948     		ldr	r0, .L49+4
 222 0018 FFF7FEFF 		bl	pwm_lld_serve_interrupt
 223              	.LVL13:
 224              		.loc 1 214 3 view .LVU50
 225 001c FFF7FEFF 		bl	_dbg_check_leave_isr
 226              	.LVL14:
 227              		.loc 1 214 3 view .LVU51
 228 0020 054B     		ldr	r3, .L49
ARM GAS  /tmp/ccrAESKb.s 			page 5


 229 0022 1A68     		ldr	r2, [r3]
 230 0024 019B     		ldr	r3, [sp, #4]
 231 0026 5A40     		eors	r2, r3, r2
 232 0028 04D1     		bne	.L48
 233              		.loc 1 215 1 is_stmt 0 view .LVU52
 234 002a 03B0     		add	sp, sp, #12
 235              		.cfi_remember_state
 236              		.cfi_def_cfa_offset 4
 237              		@ sp needed
 238 002c 5DF804EB 		ldr	lr, [sp], #4
 239              		.cfi_restore 14
 240              		.cfi_def_cfa_offset 0
 241              		.loc 1 214 3 view .LVU53
 242 0030 FFF7FEBF 		b	_port_irq_epilogue
 243              	.LVL15:
 244              	.L48:
 245              		.cfi_restore_state
 246 0034 FFF7FEFF 		bl	__stack_chk_fail
 247              	.LVL16:
 248              	.L50:
 249              		.align	2
 250              	.L49:
 251 0038 00000000 		.word	.LC1
 252 003c 00000000 		.word	.LANCHOR0
 253              		.cfi_endproc
 254              	.LFE257:
 255              		.size	VectorB0, .-VectorB0
 256              		.section	.rodata.VectorB4.cst4,"aM",%progbits,4
 257              		.align	2
 258              	.LC2:
 259 0000 00000000 		.word	__stack_chk_guard
 260              		.section	.text.VectorB4,"ax",%progbits
 261              		.align	1
 262              		.p2align 4,,15
 263              		.global	VectorB4
 264              		.syntax unified
 265              		.thumb
 266              		.thumb_func
 267              		.fpu fpv4-sp-d16
 268              		.type	VectorB4, %function
 269              	VectorB4:
 270              	.LFB258:
 271              		.loc 1 227 38 is_stmt 1 view -0
 272              		.cfi_startproc
 273              		@ args = 0, pretend = 0, frame = 8
 274              		@ frame_needed = 0, uses_anonymous_args = 0
 275 0000 00B5     		push	{lr}
 276              		.cfi_def_cfa_offset 4
 277              		.cfi_offset 14, -4
 278 0002 0D4B     		ldr	r3, .L56
 279 0004 83B0     		sub	sp, sp, #12
 280              		.cfi_def_cfa_offset 16
 281              		.loc 1 227 38 is_stmt 0 view .LVU55
 282 0006 1B68     		ldr	r3, [r3]
 283 0008 0193     		str	r3, [sp, #4]
 284 000a 4FF00003 		mov	r3,#0
 285              		.loc 1 229 3 is_stmt 1 view .LVU56
ARM GAS  /tmp/ccrAESKb.s 			page 6


 286              		.loc 1 229 3 view .LVU57
 287 000e FFF7FEFF 		bl	_stats_increase_irq
 288              	.LVL17:
 289              		.loc 1 229 3 view .LVU58
 290 0012 FFF7FEFF 		bl	_dbg_check_enter_isr
 291              	.LVL18:
 292              		.loc 1 231 3 view .LVU59
 293 0016 0948     		ldr	r0, .L56+4
 294 0018 FFF7FEFF 		bl	pwm_lld_serve_interrupt
 295              	.LVL19:
 296              		.loc 1 233 3 view .LVU60
 297 001c FFF7FEFF 		bl	_dbg_check_leave_isr
 298              	.LVL20:
 299              		.loc 1 233 3 view .LVU61
 300 0020 054B     		ldr	r3, .L56
 301 0022 1A68     		ldr	r2, [r3]
 302 0024 019B     		ldr	r3, [sp, #4]
 303 0026 5A40     		eors	r2, r3, r2
 304 0028 04D1     		bne	.L55
 305              		.loc 1 234 1 is_stmt 0 view .LVU62
 306 002a 03B0     		add	sp, sp, #12
 307              		.cfi_remember_state
 308              		.cfi_def_cfa_offset 4
 309              		@ sp needed
 310 002c 5DF804EB 		ldr	lr, [sp], #4
 311              		.cfi_restore 14
 312              		.cfi_def_cfa_offset 0
 313              		.loc 1 233 3 view .LVU63
 314 0030 FFF7FEBF 		b	_port_irq_epilogue
 315              	.LVL21:
 316              	.L55:
 317              		.cfi_restore_state
 318 0034 FFF7FEFF 		bl	__stack_chk_fail
 319              	.LVL22:
 320              	.L57:
 321              		.align	2
 322              	.L56:
 323 0038 00000000 		.word	.LC2
 324 003c 00000000 		.word	.LANCHOR1
 325              		.cfi_endproc
 326              	.LFE258:
 327              		.size	VectorB4, .-VectorB4
 328              		.section	.rodata.VectorB8.cst4,"aM",%progbits,4
 329              		.align	2
 330              	.LC3:
 331 0000 00000000 		.word	__stack_chk_guard
 332              		.section	.text.VectorB8,"ax",%progbits
 333              		.align	1
 334              		.p2align 4,,15
 335              		.global	VectorB8
 336              		.syntax unified
 337              		.thumb
 338              		.thumb_func
 339              		.fpu fpv4-sp-d16
 340              		.type	VectorB8, %function
 341              	VectorB8:
 342              	.LFB259:
ARM GAS  /tmp/ccrAESKb.s 			page 7


 343              		.loc 1 246 38 is_stmt 1 view -0
 344              		.cfi_startproc
 345              		@ args = 0, pretend = 0, frame = 8
 346              		@ frame_needed = 0, uses_anonymous_args = 0
 347 0000 00B5     		push	{lr}
 348              		.cfi_def_cfa_offset 4
 349              		.cfi_offset 14, -4
 350 0002 0D4B     		ldr	r3, .L63
 351 0004 83B0     		sub	sp, sp, #12
 352              		.cfi_def_cfa_offset 16
 353              		.loc 1 246 38 is_stmt 0 view .LVU65
 354 0006 1B68     		ldr	r3, [r3]
 355 0008 0193     		str	r3, [sp, #4]
 356 000a 4FF00003 		mov	r3,#0
 357              		.loc 1 248 3 is_stmt 1 view .LVU66
 358              		.loc 1 248 3 view .LVU67
 359 000e FFF7FEFF 		bl	_stats_increase_irq
 360              	.LVL23:
 361              		.loc 1 248 3 view .LVU68
 362 0012 FFF7FEFF 		bl	_dbg_check_enter_isr
 363              	.LVL24:
 364              		.loc 1 250 3 view .LVU69
 365 0016 0948     		ldr	r0, .L63+4
 366 0018 FFF7FEFF 		bl	pwm_lld_serve_interrupt
 367              	.LVL25:
 368              		.loc 1 252 3 view .LVU70
 369 001c FFF7FEFF 		bl	_dbg_check_leave_isr
 370              	.LVL26:
 371              		.loc 1 252 3 view .LVU71
 372 0020 054B     		ldr	r3, .L63
 373 0022 1A68     		ldr	r2, [r3]
 374 0024 019B     		ldr	r3, [sp, #4]
 375 0026 5A40     		eors	r2, r3, r2
 376 0028 04D1     		bne	.L62
 377              		.loc 1 253 1 is_stmt 0 view .LVU72
 378 002a 03B0     		add	sp, sp, #12
 379              		.cfi_remember_state
 380              		.cfi_def_cfa_offset 4
 381              		@ sp needed
 382 002c 5DF804EB 		ldr	lr, [sp], #4
 383              		.cfi_restore 14
 384              		.cfi_def_cfa_offset 0
 385              		.loc 1 252 3 view .LVU73
 386 0030 FFF7FEBF 		b	_port_irq_epilogue
 387              	.LVL27:
 388              	.L62:
 389              		.cfi_restore_state
 390 0034 FFF7FEFF 		bl	__stack_chk_fail
 391              	.LVL28:
 392              	.L64:
 393              		.align	2
 394              	.L63:
 395 0038 00000000 		.word	.LC3
 396 003c 00000000 		.word	.LANCHOR2
 397              		.cfi_endproc
 398              	.LFE259:
 399              		.size	VectorB8, .-VectorB8
ARM GAS  /tmp/ccrAESKb.s 			page 8


 400              		.section	.rodata.Vector108.cst4,"aM",%progbits,4
 401              		.align	2
 402              	.LC4:
 403 0000 00000000 		.word	__stack_chk_guard
 404              		.section	.text.Vector108,"ax",%progbits
 405              		.align	1
 406              		.p2align 4,,15
 407              		.global	Vector108
 408              		.syntax unified
 409              		.thumb
 410              		.thumb_func
 411              		.fpu fpv4-sp-d16
 412              		.type	Vector108, %function
 413              	Vector108:
 414              	.LFB260:
 415              		.loc 1 265 38 is_stmt 1 view -0
 416              		.cfi_startproc
 417              		@ args = 0, pretend = 0, frame = 8
 418              		@ frame_needed = 0, uses_anonymous_args = 0
 419 0000 00B5     		push	{lr}
 420              		.cfi_def_cfa_offset 4
 421              		.cfi_offset 14, -4
 422 0002 0D4B     		ldr	r3, .L70
 423 0004 83B0     		sub	sp, sp, #12
 424              		.cfi_def_cfa_offset 16
 425              		.loc 1 265 38 is_stmt 0 view .LVU75
 426 0006 1B68     		ldr	r3, [r3]
 427 0008 0193     		str	r3, [sp, #4]
 428 000a 4FF00003 		mov	r3,#0
 429              		.loc 1 267 3 is_stmt 1 view .LVU76
 430              		.loc 1 267 3 view .LVU77
 431 000e FFF7FEFF 		bl	_stats_increase_irq
 432              	.LVL29:
 433              		.loc 1 267 3 view .LVU78
 434 0012 FFF7FEFF 		bl	_dbg_check_enter_isr
 435              	.LVL30:
 436              		.loc 1 269 3 view .LVU79
 437 0016 0948     		ldr	r0, .L70+4
 438 0018 FFF7FEFF 		bl	pwm_lld_serve_interrupt
 439              	.LVL31:
 440              		.loc 1 271 3 view .LVU80
 441 001c FFF7FEFF 		bl	_dbg_check_leave_isr
 442              	.LVL32:
 443              		.loc 1 271 3 view .LVU81
 444 0020 054B     		ldr	r3, .L70
 445 0022 1A68     		ldr	r2, [r3]
 446 0024 019B     		ldr	r3, [sp, #4]
 447 0026 5A40     		eors	r2, r3, r2
 448 0028 04D1     		bne	.L69
 449              		.loc 1 272 1 is_stmt 0 view .LVU82
 450 002a 03B0     		add	sp, sp, #12
 451              		.cfi_remember_state
 452              		.cfi_def_cfa_offset 4
 453              		@ sp needed
 454 002c 5DF804EB 		ldr	lr, [sp], #4
 455              		.cfi_restore 14
 456              		.cfi_def_cfa_offset 0
ARM GAS  /tmp/ccrAESKb.s 			page 9


 457              		.loc 1 271 3 view .LVU83
 458 0030 FFF7FEBF 		b	_port_irq_epilogue
 459              	.LVL33:
 460              	.L69:
 461              		.cfi_restore_state
 462 0034 FFF7FEFF 		bl	__stack_chk_fail
 463              	.LVL34:
 464              	.L71:
 465              		.align	2
 466              	.L70:
 467 0038 00000000 		.word	.LC4
 468 003c 00000000 		.word	.LANCHOR3
 469              		.cfi_endproc
 470              	.LFE260:
 471              		.size	Vector108, .-Vector108
 472              		.section	.rodata.pwm_lld_init.cst4,"aM",%progbits,4
 473              		.align	2
 474              	.LC5:
 475 0000 00000000 		.word	__stack_chk_guard
 476              		.section	.text.pwm_lld_init,"ax",%progbits
 477              		.align	1
 478              		.p2align 4,,15
 479              		.global	pwm_lld_init
 480              		.syntax unified
 481              		.thumb
 482              		.thumb_func
 483              		.fpu fpv4-sp-d16
 484              		.type	pwm_lld_init, %function
 485              	pwm_lld_init:
 486              	.LFB261:
 487              		.loc 1 364 25 is_stmt 1 view -0
 488              		.cfi_startproc
 489              		@ args = 0, pretend = 0, frame = 8
 490              		@ frame_needed = 0, uses_anonymous_args = 0
 491 0000 2DE9F041 		push	{r4, r5, r6, r7, r8, lr}
 492              		.cfi_def_cfa_offset 24
 493              		.cfi_offset 4, -24
 494              		.cfi_offset 5, -20
 495              		.cfi_offset 6, -16
 496              		.cfi_offset 7, -12
 497              		.cfi_offset 8, -8
 498              		.cfi_offset 14, -4
 499              		.loc 1 375 3 is_stmt 0 view .LVU85
 500 0004 DFF87C80 		ldr	r8, .L76+28
 501              		.loc 1 382 3 view .LVU86
 502 0008 174F     		ldr	r7, .L76
 503              		.loc 1 364 25 view .LVU87
 504 000a 184B     		ldr	r3, .L76+4
 505              		.loc 1 389 3 view .LVU88
 506 000c 184E     		ldr	r6, .L76+8
 507              		.loc 1 396 3 view .LVU89
 508 000e 194D     		ldr	r5, .L76+12
 509              		.loc 1 364 25 view .LVU90
 510 0010 82B0     		sub	sp, sp, #8
 511              		.cfi_def_cfa_offset 32
 512              		.loc 1 375 3 view .LVU91
 513 0012 4046     		mov	r0, r8
ARM GAS  /tmp/ccrAESKb.s 			page 10


 514              		.loc 1 376 18 view .LVU92
 515 0014 0424     		movs	r4, #4
 516              		.loc 1 364 25 view .LVU93
 517 0016 1B68     		ldr	r3, [r3]
 518 0018 0193     		str	r3, [sp, #4]
 519 001a 4FF00003 		mov	r3,#0
 520              		.loc 1 375 3 is_stmt 1 view .LVU94
 521 001e FFF7FEFF 		bl	pwmObjectInit
 522              	.LVL35:
 523              		.loc 1 376 3 view .LVU95
 524              		.loc 1 377 13 is_stmt 0 view .LVU96
 525 0022 4FF08043 		mov	r3, #1073741824
 526              		.loc 1 382 3 view .LVU97
 527 0026 3846     		mov	r0, r7
 528              		.loc 1 377 13 view .LVU98
 529 0028 C8F81830 		str	r3, [r8, #24]
 530              		.loc 1 376 18 view .LVU99
 531 002c 88F81040 		strb	r4, [r8, #16]
 532              		.loc 1 377 3 is_stmt 1 view .LVU100
 533              		.loc 1 382 3 view .LVU101
 534 0030 FFF7FEFF 		bl	pwmObjectInit
 535              	.LVL36:
 536              		.loc 1 383 3 view .LVU102
 537              		.loc 1 384 13 is_stmt 0 view .LVU103
 538 0034 104B     		ldr	r3, .L76+16
 539 0036 BB61     		str	r3, [r7, #24]
 540              		.loc 1 389 3 view .LVU104
 541 0038 3046     		mov	r0, r6
 542              		.loc 1 383 18 view .LVU105
 543 003a 3C74     		strb	r4, [r7, #16]
 544              		.loc 1 384 3 is_stmt 1 view .LVU106
 545              		.loc 1 389 3 view .LVU107
 546 003c FFF7FEFF 		bl	pwmObjectInit
 547              	.LVL37:
 548              		.loc 1 390 3 view .LVU108
 549              		.loc 1 391 13 is_stmt 0 view .LVU109
 550 0040 0E4B     		ldr	r3, .L76+20
 551 0042 B361     		str	r3, [r6, #24]
 552              		.loc 1 396 3 view .LVU110
 553 0044 2846     		mov	r0, r5
 554              		.loc 1 390 18 view .LVU111
 555 0046 3474     		strb	r4, [r6, #16]
 556              		.loc 1 391 3 is_stmt 1 view .LVU112
 557              		.loc 1 396 3 view .LVU113
 558 0048 FFF7FEFF 		bl	pwmObjectInit
 559              	.LVL38:
 560              		.loc 1 397 3 view .LVU114
 561              		.loc 1 398 13 is_stmt 0 view .LVU115
 562 004c 0C4B     		ldr	r3, .L76+24
 563 004e AB61     		str	r3, [r5, #24]
 564              		.loc 1 414 1 view .LVU116
 565 0050 064B     		ldr	r3, .L76+4
 566              		.loc 1 397 18 view .LVU117
 567 0052 2C74     		strb	r4, [r5, #16]
 568              		.loc 1 398 3 is_stmt 1 view .LVU118
 569              		.loc 1 414 1 is_stmt 0 view .LVU119
 570 0054 1A68     		ldr	r2, [r3]
ARM GAS  /tmp/ccrAESKb.s 			page 11


 571 0056 019B     		ldr	r3, [sp, #4]
 572 0058 5A40     		eors	r2, r3, r2
 573 005a 02D1     		bne	.L75
 574 005c 02B0     		add	sp, sp, #8
 575              		.cfi_remember_state
 576              		.cfi_def_cfa_offset 24
 577              		@ sp needed
 578 005e BDE8F081 		pop	{r4, r5, r6, r7, r8, pc}
 579              	.L75:
 580              		.cfi_restore_state
 581 0062 FFF7FEFF 		bl	__stack_chk_fail
 582              	.LVL39:
 583              	.L77:
 584 0066 00BF     		.align	2
 585              	.L76:
 586 0068 00000000 		.word	.LANCHOR1
 587 006c 00000000 		.word	.LC5
 588 0070 00000000 		.word	.LANCHOR2
 589 0074 00000000 		.word	.LANCHOR3
 590 0078 00040040 		.word	1073742848
 591 007c 00080040 		.word	1073743872
 592 0080 000C0040 		.word	1073744896
 593 0084 00000000 		.word	.LANCHOR0
 594              		.cfi_endproc
 595              	.LFE261:
 596              		.size	pwm_lld_init, .-pwm_lld_init
 597              		.section	.rodata.pwm_lld_start.cst4,"aM",%progbits,4
 598              		.align	2
 599              	.LC6:
 600 0000 00000000 		.word	__stack_chk_guard
 601              		.section	.text.pwm_lld_start,"ax",%progbits
 602              		.align	1
 603              		.p2align 4,,15
 604              		.global	pwm_lld_start
 605              		.syntax unified
 606              		.thumb
 607              		.thumb_func
 608              		.fpu fpv4-sp-d16
 609              		.type	pwm_lld_start, %function
 610              	pwm_lld_start:
 611              	.LVL40:
 612              	.LFB262:
 613              		.loc 1 425 37 is_stmt 1 view -0
 614              		.cfi_startproc
 615              		@ args = 0, pretend = 0, frame = 8
 616              		@ frame_needed = 0, uses_anonymous_args = 0
 617              		.loc 1 425 37 is_stmt 0 view .LVU121
 618 0000 30B5     		push	{r4, r5, lr}
 619              		.cfi_def_cfa_offset 12
 620              		.cfi_offset 4, -12
 621              		.cfi_offset 5, -8
 622              		.cfi_offset 14, -4
 623 0002 6D4B     		ldr	r3, .L121
 624 0004 83B0     		sub	sp, sp, #12
 625              		.cfi_def_cfa_offset 24
 626              		.loc 1 425 37 view .LVU122
 627 0006 1B68     		ldr	r3, [r3]
ARM GAS  /tmp/ccrAESKb.s 			page 12


 628 0008 0193     		str	r3, [sp, #4]
 629 000a 4FF00003 		mov	r3,#0
 630              		.loc 1 426 3 is_stmt 1 view .LVU123
 631              		.loc 1 427 3 view .LVU124
 632              		.loc 1 429 3 view .LVU125
 633              		.loc 1 429 6 is_stmt 0 view .LVU126
 634 000e 0378     		ldrb	r3, [r0]	@ zero_extendqisi2
 635 0010 012B     		cmp	r3, #1
 636              		.loc 1 425 37 view .LVU127
 637 0012 0446     		mov	r4, r0
 638              		.loc 1 429 6 view .LVU128
 639 0014 73D0     		beq	.L113
 640              		.loc 1 512 5 is_stmt 1 view .LVU129
 641              		.loc 1 512 9 is_stmt 0 view .LVU130
 642 0016 8269     		ldr	r2, [r0, #24]
 643              		.loc 1 512 23 view .LVU131
 644 0018 0023     		movs	r3, #0
 645 001a 1360     		str	r3, [r2]
 646              		.loc 1 513 5 is_stmt 1 view .LVU132
 647              		.loc 1 513 9 is_stmt 0 view .LVU133
 648 001c 8269     		ldr	r2, [r0, #24]
 649              		.loc 1 513 23 view .LVU134
 650 001e 5363     		str	r3, [r2, #52]
 651              		.loc 1 514 5 is_stmt 1 view .LVU135
 652              		.loc 1 514 9 is_stmt 0 view .LVU136
 653 0020 8269     		ldr	r2, [r0, #24]
 654              		.loc 1 514 23 view .LVU137
 655 0022 9363     		str	r3, [r2, #56]
 656              		.loc 1 515 5 is_stmt 1 view .LVU138
 657              		.loc 1 515 9 is_stmt 0 view .LVU139
 658 0024 8269     		ldr	r2, [r0, #24]
 659              		.loc 1 515 23 view .LVU140
 660 0026 D363     		str	r3, [r2, #60]
 661              		.loc 1 516 5 is_stmt 1 view .LVU141
 662              		.loc 1 516 9 is_stmt 0 view .LVU142
 663 0028 8269     		ldr	r2, [r0, #24]
 664              		.loc 1 516 23 view .LVU143
 665 002a 1364     		str	r3, [r2, #64]
 666              		.loc 1 523 5 is_stmt 1 view .LVU144
 667              		.loc 1 523 9 is_stmt 0 view .LVU145
 668 002c 8269     		ldr	r2, [r0, #24]
 669              		.loc 1 523 21 view .LVU146
 670 002e 5362     		str	r3, [r2, #36]
 671              	.LVL41:
 672              	.L86:
 673              		.loc 1 527 3 is_stmt 1 view .LVU147
 674              		.loc 1 527 36 is_stmt 0 view .LVU148
 675 0030 6368     		ldr	r3, [r4, #4]
 676              		.loc 1 527 14 view .LVU149
 677 0032 6269     		ldr	r2, [r4, #20]
 678              		.loc 1 527 36 view .LVU150
 679 0034 1968     		ldr	r1, [r3]
 680              		.loc 1 527 22 view .LVU151
 681 0036 B2FBF1F3 		udiv	r3, r2, r1
 682              		.loc 1 527 7 view .LVU152
 683 003a 5D1E     		subs	r5, r3, #1
 684              	.LVL42:
ARM GAS  /tmp/ccrAESKb.s 			page 13


 685              		.loc 1 528 3 is_stmt 1 view .LVU153
 686              		.loc 1 528 3 view .LVU154
 687              		.loc 1 528 3 view .LVU155
 688 003c B5F5803F 		cmp	r5, #65536
 689 0040 03D2     		bcs	.L87
 690              		.loc 1 528 3 is_stmt 0 discriminator 4 view .LVU156
 691 0042 03FB01F3 		mul	r3, r3, r1
 692 0046 9A42     		cmp	r2, r3
 693 0048 02D0     		beq	.L88
 694              	.L87:
 695              		.loc 1 528 3 is_stmt 1 discriminator 5 view .LVU157
 696 004a 5C48     		ldr	r0, .L121+4
 697 004c FFF7FEFF 		bl	chSysHalt
 698              	.LVL43:
 699              	.L88:
 700              		.loc 1 528 3 discriminator 7 view .LVU158
 701              		.loc 1 531 3 discriminator 7 view .LVU159
 702              		.loc 1 531 7 is_stmt 0 discriminator 7 view .LVU160
 703 0050 A369     		ldr	r3, [r4, #24]
 704              		.loc 1 531 19 discriminator 7 view .LVU161
 705 0052 9D62     		str	r5, [r3, #40]
 706              		.loc 1 532 3 is_stmt 1 discriminator 7 view .LVU162
 707              		.loc 1 532 34 is_stmt 0 discriminator 7 view .LVU163
 708 0054 A368     		ldr	r3, [r4, #8]
 709              		.loc 1 532 7 discriminator 7 view .LVU164
 710 0056 A269     		ldr	r2, [r4, #24]
 711              		.loc 1 532 34 discriminator 7 view .LVU165
 712 0058 013B     		subs	r3, r3, #1
 713              		.loc 1 532 19 discriminator 7 view .LVU166
 714 005a D362     		str	r3, [r2, #44]
 715              		.loc 1 533 3 is_stmt 1 discriminator 7 view .LVU167
 716              		.loc 1 533 33 is_stmt 0 discriminator 7 view .LVU168
 717 005c 6268     		ldr	r2, [r4, #4]
 718              		.loc 1 533 7 discriminator 7 view .LVU169
 719 005e A369     		ldr	r3, [r4, #24]
 720              		.loc 1 533 33 discriminator 7 view .LVU170
 721 0060 D26A     		ldr	r2, [r2, #44]
 722              		.loc 1 533 19 discriminator 7 view .LVU171
 723 0062 5A60     		str	r2, [r3, #4]
 724              		.loc 1 536 3 is_stmt 1 discriminator 7 view .LVU172
 725              	.LVL44:
 726              		.loc 1 537 3 discriminator 7 view .LVU173
 727              		.loc 1 537 15 is_stmt 0 discriminator 7 view .LVU174
 728 0064 6268     		ldr	r2, [r4, #4]
 729              		.loc 1 537 42 discriminator 7 view .LVU175
 730 0066 D368     		ldr	r3, [r2, #12]
 731 0068 03F00F03 		and	r3, r3, #15
 732              		.loc 1 537 3 discriminator 7 view .LVU176
 733 006c 012B     		cmp	r3, #1
 734 006e 03D0     		beq	.L90
 735              		.loc 1 537 3 view .LVU177
 736 0070 022B     		cmp	r3, #2
 737 0072 14BF     		ite	ne
 738 0074 0023     		movne	r3, #0
 739 0076 0323     		moveq	r3, #3
 740              	.L90:
 741              	.LVL45:
ARM GAS  /tmp/ccrAESKb.s 			page 14


 742              		.loc 1 543 5 is_stmt 1 view .LVU178
 743              		.loc 1 545 3 view .LVU179
 744              		.loc 1 545 42 is_stmt 0 view .LVU180
 745 0078 5169     		ldr	r1, [r2, #20]
 746 007a 01F00F01 		and	r1, r1, #15
 747              		.loc 1 545 3 view .LVU181
 748 007e 0129     		cmp	r1, #1
 749 0080 35D0     		beq	.L91
 750 0082 0229     		cmp	r1, #2
 751 0084 31D0     		beq	.L114
 752              	.L92:
 753              		.loc 1 551 5 is_stmt 1 view .LVU182
 754              		.loc 1 553 3 view .LVU183
 755              		.loc 1 553 42 is_stmt 0 view .LVU184
 756 0086 D169     		ldr	r1, [r2, #28]
 757 0088 01F00F01 		and	r1, r1, #15
 758              		.loc 1 553 3 view .LVU185
 759 008c 0129     		cmp	r1, #1
 760 008e 22D0     		beq	.L93
 761              		.loc 1 553 3 view .LVU186
 762 0090 0229     		cmp	r1, #2
 763 0092 1ED0     		beq	.L115
 764              		.loc 1 559 5 is_stmt 1 view .LVU187
 765              		.loc 1 561 3 view .LVU188
 766              		.loc 1 561 42 is_stmt 0 view .LVU189
 767 0094 526A     		ldr	r2, [r2, #36]
 768 0096 02F00F02 		and	r2, r2, #15
 769              		.loc 1 561 3 view .LVU190
 770 009a 012A     		cmp	r2, #1
 771 009c 22D0     		beq	.L95
 772              	.L118:
 773              		.loc 1 561 3 view .LVU191
 774 009e 022A     		cmp	r2, #2
 775 00a0 28D0     		beq	.L116
 776              	.L96:
 777              		.loc 1 567 5 is_stmt 1 view .LVU192
 778              		.loc 1 606 3 view .LVU193
 779              		.loc 1 606 7 is_stmt 0 view .LVU194
 780 00a2 A269     		ldr	r2, [r4, #24]
 781              		.loc 1 606 20 view .LVU195
 782 00a4 1362     		str	r3, [r2, #32]
 783              		.loc 1 607 3 is_stmt 1 view .LVU196
 784              		.loc 1 607 7 is_stmt 0 view .LVU197
 785 00a6 A369     		ldr	r3, [r4, #24]
 786              	.LVL46:
 787              		.loc 1 607 20 view .LVU198
 788 00a8 0122     		movs	r2, #1
 789              	.LVL47:
 790              		.loc 1 607 20 view .LVU199
 791 00aa 5A61     		str	r2, [r3, #20]
 792              		.loc 1 608 3 is_stmt 1 view .LVU200
 793              		.loc 1 608 7 is_stmt 0 view .LVU201
 794 00ac A369     		ldr	r3, [r4, #24]
 795              		.loc 1 608 20 view .LVU202
 796 00ae 0022     		movs	r2, #0
 797 00b0 1A61     		str	r2, [r3, #16]
 798              		.loc 1 609 3 is_stmt 1 view .LVU203
ARM GAS  /tmp/ccrAESKb.s 			page 15


 799              		.loc 1 609 34 is_stmt 0 view .LVU204
 800 00b2 6368     		ldr	r3, [r4, #4]
 801              		.loc 1 609 7 view .LVU205
 802 00b4 A269     		ldr	r2, [r4, #24]
 803              		.loc 1 609 41 view .LVU206
 804 00b6 1B6B     		ldr	r3, [r3, #48]
 805 00b8 23F0FF03 		bic	r3, r3, #255
 806              		.loc 1 609 20 view .LVU207
 807 00bc D360     		str	r3, [r2, #12]
 808              		.loc 1 619 3 is_stmt 1 view .LVU208
 809              		.loc 1 619 7 is_stmt 0 view .LVU209
 810 00be A369     		ldr	r3, [r4, #24]
 811              		.loc 1 619 20 view .LVU210
 812 00c0 8522     		movs	r2, #133
 813 00c2 1A60     		str	r2, [r3]
 814              		.loc 1 621 1 view .LVU211
 815 00c4 3C4B     		ldr	r3, .L121
 816 00c6 1A68     		ldr	r2, [r3]
 817 00c8 019B     		ldr	r3, [sp, #4]
 818 00ca 5A40     		eors	r2, r3, r2
 819 00cc 71D1     		bne	.L117
 820 00ce 03B0     		add	sp, sp, #12
 821              		.cfi_remember_state
 822              		.cfi_def_cfa_offset 12
 823              		@ sp needed
 824 00d0 30BD     		pop	{r4, r5, pc}
 825              	.LVL48:
 826              	.L115:
 827              		.cfi_restore_state
 828              		.loc 1 555 5 is_stmt 1 view .LVU212
 829              		.loc 1 555 10 is_stmt 0 view .LVU213
 830 00d2 43F40073 		orr	r3, r3, #512
 831              	.LVL49:
 832              	.L93:
 833              		.loc 1 557 5 is_stmt 1 view .LVU214
 834              		.loc 1 561 42 is_stmt 0 view .LVU215
 835 00d6 526A     		ldr	r2, [r2, #36]
 836 00d8 02F00F02 		and	r2, r2, #15
 837              		.loc 1 561 3 view .LVU216
 838 00dc 012A     		cmp	r2, #1
 839              		.loc 1 557 10 view .LVU217
 840 00de 43F48073 		orr	r3, r3, #256
 841              	.LVL50:
 842              		.loc 1 559 5 is_stmt 1 view .LVU218
 843              		.loc 1 561 3 view .LVU219
 844 00e2 DCD1     		bne	.L118
 845              	.L95:
 846              		.loc 1 565 5 view .LVU220
 847              		.loc 1 565 10 is_stmt 0 view .LVU221
 848 00e4 43F48053 		orr	r3, r3, #4096
 849              	.LVL51:
 850              		.loc 1 565 10 view .LVU222
 851 00e8 DBE7     		b	.L96
 852              	.L114:
 853              		.loc 1 547 5 is_stmt 1 view .LVU223
 854              		.loc 1 547 10 is_stmt 0 view .LVU224
 855 00ea 43F02003 		orr	r3, r3, #32
ARM GAS  /tmp/ccrAESKb.s 			page 16


 856              	.LVL52:
 857              	.L91:
 858              		.loc 1 549 5 is_stmt 1 view .LVU225
 859              		.loc 1 549 10 is_stmt 0 view .LVU226
 860 00ee 43F01003 		orr	r3, r3, #16
 861              	.LVL53:
 862              		.loc 1 549 10 view .LVU227
 863 00f2 C8E7     		b	.L92
 864              	.L116:
 865              		.loc 1 563 5 is_stmt 1 view .LVU228
 866              		.loc 1 563 10 is_stmt 0 view .LVU229
 867 00f4 43F40053 		orr	r3, r3, #8192
 868              	.LVL54:
 869              		.loc 1 565 5 is_stmt 1 view .LVU230
 870              		.loc 1 565 10 is_stmt 0 view .LVU231
 871 00f8 43F48053 		orr	r3, r3, #4096
 872              	.LVL55:
 873              		.loc 1 565 10 view .LVU232
 874 00fc D1E7     		b	.L96
 875              	.LVL56:
 876              	.L113:
 877              		.loc 1 445 5 is_stmt 1 view .LVU233
 878              		.loc 1 445 8 is_stmt 0 view .LVU234
 879 00fe 304B     		ldr	r3, .L121+8
 880 0100 9842     		cmp	r0, r3
 881 0102 44D0     		beq	.L119
 882              		.loc 1 453 5 is_stmt 1 view .LVU235
 883              		.loc 1 453 8 is_stmt 0 view .LVU236
 884 0104 2F4B     		ldr	r3, .L121+12
 885 0106 9842     		cmp	r0, r3
 886 0108 2FD0     		beq	.L82
 887              		.loc 1 461 5 is_stmt 1 view .LVU237
 888              		.loc 1 461 8 is_stmt 0 view .LVU238
 889 010a 2F4B     		ldr	r3, .L121+16
 890 010c 9842     		cmp	r0, r3
 891 010e 1AD0     		beq	.L120
 892              		.loc 1 470 5 is_stmt 1 view .LVU239
 893              		.loc 1 470 8 is_stmt 0 view .LVU240
 894 0110 2E4B     		ldr	r3, .L121+20
 895 0112 9842     		cmp	r0, r3
 896 0114 10D1     		bne	.L81
 897              		.loc 1 471 7 is_stmt 1 view .LVU241
 898 0116 2E4B     		ldr	r3, .L121+24
 899 0118 1A6C     		ldr	r2, [r3, #64]
 900 011a 42F00802 		orr	r2, r2, #8
 901 011e 1A64     		str	r2, [r3, #64]
 902              		.loc 1 471 7 view .LVU242
 903              		.loc 1 471 27 view .LVU243
 904              		.loc 1 472 7 view .LVU244
 905 0120 1A6A     		ldr	r2, [r3, #32]
 906 0122 0020     		movs	r0, #0
 907              	.LVL57:
 908              		.loc 1 472 7 is_stmt 0 view .LVU245
 909 0124 42F00802 		orr	r2, r2, #8
 910 0128 1A62     		str	r2, [r3, #32]
 911              		.loc 1 472 7 is_stmt 1 view .LVU246
 912              		.loc 1 473 7 is_stmt 0 view .LVU247
ARM GAS  /tmp/ccrAESKb.s 			page 17


 913 012a 0721     		movs	r1, #7
 914              		.loc 1 472 7 view .LVU248
 915 012c 1862     		str	r0, [r3, #32]
 916              		.loc 1 472 21 is_stmt 1 view .LVU249
 917              		.loc 1 473 7 view .LVU250
 918 012e 3220     		movs	r0, #50
 919 0130 FFF7FEFF 		bl	nvicEnableVector
 920              	.LVL58:
 921              		.loc 1 474 7 view .LVU251
 922              		.loc 1 474 19 is_stmt 0 view .LVU252
 923 0134 274B     		ldr	r3, .L121+28
 924 0136 6361     		str	r3, [r4, #20]
 925              	.L81:
 926              		.loc 1 501 5 is_stmt 1 view .LVU253
 927              		.loc 1 501 9 is_stmt 0 view .LVU254
 928 0138 A269     		ldr	r2, [r4, #24]
 929              		.loc 1 501 22 view .LVU255
 930 013a 46F66803 		movw	r3, #26728
 931 013e 9361     		str	r3, [r2, #24]
 932              		.loc 1 503 5 is_stmt 1 view .LVU256
 933              		.loc 1 503 9 is_stmt 0 view .LVU257
 934 0140 A269     		ldr	r2, [r4, #24]
 935              		.loc 1 503 22 view .LVU258
 936 0142 D361     		str	r3, [r2, #28]
 937 0144 74E7     		b	.L86
 938              	.LVL59:
 939              	.L120:
 940              		.loc 1 462 7 is_stmt 1 view .LVU259
 941 0146 224B     		ldr	r3, .L121+24
 942 0148 1A6C     		ldr	r2, [r3, #64]
 943 014a 42F00402 		orr	r2, r2, #4
 944 014e 1A64     		str	r2, [r3, #64]
 945              		.loc 1 462 7 view .LVU260
 946              		.loc 1 462 27 view .LVU261
 947              		.loc 1 463 7 view .LVU262
 948 0150 1A6A     		ldr	r2, [r3, #32]
 949 0152 0020     		movs	r0, #0
 950              	.LVL60:
 951              		.loc 1 463 7 is_stmt 0 view .LVU263
 952 0154 42F00402 		orr	r2, r2, #4
 953 0158 1A62     		str	r2, [r3, #32]
 954              		.loc 1 463 7 is_stmt 1 view .LVU264
 955              		.loc 1 464 7 is_stmt 0 view .LVU265
 956 015a 0721     		movs	r1, #7
 957              		.loc 1 463 7 view .LVU266
 958 015c 1862     		str	r0, [r3, #32]
 959              		.loc 1 463 21 is_stmt 1 view .LVU267
 960              		.loc 1 464 7 view .LVU268
 961 015e 1E20     		movs	r0, #30
 962 0160 FFF7FEFF 		bl	nvicEnableVector
 963              	.LVL61:
 964              		.loc 1 465 7 view .LVU269
 965              		.loc 1 465 19 is_stmt 0 view .LVU270
 966 0164 1B4B     		ldr	r3, .L121+28
 967 0166 6361     		str	r3, [r4, #20]
 968              		.loc 1 470 5 is_stmt 1 view .LVU271
 969 0168 E6E7     		b	.L81
ARM GAS  /tmp/ccrAESKb.s 			page 18


 970              	.LVL62:
 971              	.L82:
 972              		.loc 1 454 7 view .LVU272
 973 016a 194B     		ldr	r3, .L121+24
 974 016c 1A6C     		ldr	r2, [r3, #64]
 975 016e 42F00202 		orr	r2, r2, #2
 976 0172 1A64     		str	r2, [r3, #64]
 977              		.loc 1 454 7 view .LVU273
 978              		.loc 1 454 27 view .LVU274
 979              		.loc 1 455 7 view .LVU275
 980 0174 1A6A     		ldr	r2, [r3, #32]
 981 0176 0020     		movs	r0, #0
 982              	.LVL63:
 983              		.loc 1 455 7 is_stmt 0 view .LVU276
 984 0178 42F00202 		orr	r2, r2, #2
 985 017c 1A62     		str	r2, [r3, #32]
 986              		.loc 1 455 7 is_stmt 1 view .LVU277
 987              		.loc 1 456 7 is_stmt 0 view .LVU278
 988 017e 0721     		movs	r1, #7
 989              		.loc 1 455 7 view .LVU279
 990 0180 1862     		str	r0, [r3, #32]
 991              		.loc 1 455 21 is_stmt 1 view .LVU280
 992              		.loc 1 456 7 view .LVU281
 993 0182 1D20     		movs	r0, #29
 994 0184 FFF7FEFF 		bl	nvicEnableVector
 995              	.LVL64:
 996              		.loc 1 457 7 view .LVU282
 997              		.loc 1 457 19 is_stmt 0 view .LVU283
 998 0188 124B     		ldr	r3, .L121+28
 999 018a 6361     		str	r3, [r4, #20]
 1000              		.loc 1 461 5 is_stmt 1 view .LVU284
 1001              		.loc 1 470 5 view .LVU285
 1002 018c D4E7     		b	.L81
 1003              	.LVL65:
 1004              	.L119:
 1005              		.loc 1 446 7 view .LVU286
 1006 018e 104B     		ldr	r3, .L121+24
 1007 0190 1A6C     		ldr	r2, [r3, #64]
 1008 0192 42F00102 		orr	r2, r2, #1
 1009 0196 1A64     		str	r2, [r3, #64]
 1010              		.loc 1 446 7 view .LVU287
 1011              		.loc 1 446 27 view .LVU288
 1012              		.loc 1 447 7 view .LVU289
 1013 0198 1A6A     		ldr	r2, [r3, #32]
 1014 019a 0020     		movs	r0, #0
 1015              	.LVL66:
 1016              		.loc 1 447 7 is_stmt 0 view .LVU290
 1017 019c 42F00102 		orr	r2, r2, #1
 1018 01a0 1A62     		str	r2, [r3, #32]
 1019              		.loc 1 447 7 is_stmt 1 view .LVU291
 1020              		.loc 1 448 7 is_stmt 0 view .LVU292
 1021 01a2 0721     		movs	r1, #7
 1022              		.loc 1 447 7 view .LVU293
 1023 01a4 1862     		str	r0, [r3, #32]
 1024              		.loc 1 447 21 is_stmt 1 view .LVU294
 1025              		.loc 1 448 7 view .LVU295
 1026 01a6 1C20     		movs	r0, #28
ARM GAS  /tmp/ccrAESKb.s 			page 19


 1027 01a8 FFF7FEFF 		bl	nvicEnableVector
 1028              	.LVL67:
 1029              		.loc 1 449 7 view .LVU296
 1030              		.loc 1 449 19 is_stmt 0 view .LVU297
 1031 01ac 094B     		ldr	r3, .L121+28
 1032 01ae 6361     		str	r3, [r4, #20]
 1033              		.loc 1 453 5 is_stmt 1 view .LVU298
 1034              		.loc 1 461 5 view .LVU299
 1035              		.loc 1 470 5 view .LVU300
 1036 01b0 C2E7     		b	.L81
 1037              	.LVL68:
 1038              	.L117:
 1039              		.loc 1 621 1 is_stmt 0 view .LVU301
 1040 01b2 FFF7FEFF 		bl	__stack_chk_fail
 1041              	.LVL69:
 1042              	.L122:
 1043 01b6 00BF     		.align	2
 1044              	.L121:
 1045 01b8 00000000 		.word	.LC6
 1046 01bc 00000000 		.word	.LANCHOR4
 1047 01c0 00000000 		.word	.LANCHOR0
 1048 01c4 00000000 		.word	.LANCHOR1
 1049 01c8 00000000 		.word	.LANCHOR2
 1050 01cc 00000000 		.word	.LANCHOR3
 1051 01d0 00380240 		.word	1073887232
 1052 01d4 00BD0105 		.word	84000000
 1053              		.cfi_endproc
 1054              	.LFE262:
 1055              		.size	pwm_lld_start, .-pwm_lld_start
 1056              		.section	.rodata.pwm_lld_stop.cst4,"aM",%progbits,4
 1057              		.align	2
 1058              	.LC7:
 1059 0000 00000000 		.word	__stack_chk_guard
 1060              		.section	.text.pwm_lld_stop,"ax",%progbits
 1061              		.align	1
 1062              		.p2align 4,,15
 1063              		.global	pwm_lld_stop
 1064              		.syntax unified
 1065              		.thumb
 1066              		.thumb_func
 1067              		.fpu fpv4-sp-d16
 1068              		.type	pwm_lld_stop, %function
 1069              	pwm_lld_stop:
 1070              	.LVL70:
 1071              	.LFB263:
 1072              		.loc 1 630 36 is_stmt 1 view -0
 1073              		.cfi_startproc
 1074              		@ args = 0, pretend = 0, frame = 8
 1075              		@ frame_needed = 0, uses_anonymous_args = 0
 1076              		.loc 1 630 36 is_stmt 0 view .LVU303
 1077 0000 00B5     		push	{lr}
 1078              		.cfi_def_cfa_offset 4
 1079              		.cfi_offset 14, -4
 1080 0002 254B     		ldr	r3, .L139
 1081 0004 83B0     		sub	sp, sp, #12
 1082              		.cfi_def_cfa_offset 16
 1083              		.loc 1 630 36 view .LVU304
ARM GAS  /tmp/ccrAESKb.s 			page 20


 1084 0006 1B68     		ldr	r3, [r3]
 1085 0008 0193     		str	r3, [sp, #4]
 1086 000a 4FF00003 		mov	r3,#0
 1087              		.loc 1 633 3 is_stmt 1 view .LVU305
 1088              		.loc 1 633 6 is_stmt 0 view .LVU306
 1089 000e 0378     		ldrb	r3, [r0]	@ zero_extendqisi2
 1090 0010 022B     		cmp	r3, #2
 1091 0012 07D0     		beq	.L135
 1092              	.LVL71:
 1093              	.L123:
 1094              		.loc 1 686 1 view .LVU307
 1095 0014 204B     		ldr	r3, .L139
 1096 0016 1A68     		ldr	r2, [r3]
 1097 0018 019B     		ldr	r3, [sp, #4]
 1098 001a 5A40     		eors	r2, r3, r2
 1099 001c 39D1     		bne	.L136
 1100 001e 03B0     		add	sp, sp, #12
 1101              		.cfi_remember_state
 1102              		.cfi_def_cfa_offset 4
 1103              		@ sp needed
 1104 0020 5DF804FB 		ldr	pc, [sp], #4
 1105              	.LVL72:
 1106              	.L135:
 1107              		.cfi_restore_state
 1108              		.loc 1 634 5 is_stmt 1 view .LVU308
 1109              		.loc 1 634 9 is_stmt 0 view .LVU309
 1110 0024 8169     		ldr	r1, [r0, #24]
 1111              		.loc 1 649 8 view .LVU310
 1112 0026 1D4A     		ldr	r2, .L139+4
 1113              		.loc 1 634 21 view .LVU311
 1114 0028 0023     		movs	r3, #0
 1115 002a 0B60     		str	r3, [r1]
 1116              		.loc 1 635 5 is_stmt 1 view .LVU312
 1117              		.loc 1 635 9 is_stmt 0 view .LVU313
 1118 002c 8169     		ldr	r1, [r0, #24]
 1119              		.loc 1 635 21 view .LVU314
 1120 002e CB60     		str	r3, [r1, #12]
 1121              		.loc 1 636 5 is_stmt 1 view .LVU315
 1122              		.loc 1 636 9 is_stmt 0 view .LVU316
 1123 0030 8169     		ldr	r1, [r0, #24]
 1124              		.loc 1 649 8 view .LVU317
 1125 0032 9042     		cmp	r0, r2
 1126              		.loc 1 636 21 view .LVU318
 1127 0034 0B61     		str	r3, [r1, #16]
 1128              		.loc 1 649 5 is_stmt 1 view .LVU319
 1129              		.loc 1 649 8 is_stmt 0 view .LVU320
 1130 0036 23D0     		beq	.L137
 1131              		.loc 1 651 28 is_stmt 1 discriminator 3 view .LVU321
 1132              		.loc 1 655 5 discriminator 3 view .LVU322
 1133              		.loc 1 655 8 is_stmt 0 discriminator 3 view .LVU323
 1134 0038 194B     		ldr	r3, .L139+8
 1135 003a 9842     		cmp	r0, r3
 1136 003c 17D0     		beq	.L128
 1137              		.loc 1 657 28 is_stmt 1 view .LVU324
 1138              		.loc 1 661 5 view .LVU325
 1139              		.loc 1 661 8 is_stmt 0 view .LVU326
 1140 003e 194B     		ldr	r3, .L139+12
ARM GAS  /tmp/ccrAESKb.s 			page 21


 1141 0040 9842     		cmp	r0, r3
 1142 0042 0BD0     		beq	.L138
 1143              		.loc 1 663 28 is_stmt 1 view .LVU327
 1144              		.loc 1 667 5 view .LVU328
 1145              		.loc 1 667 8 is_stmt 0 view .LVU329
 1146 0044 184B     		ldr	r3, .L139+16
 1147 0046 9842     		cmp	r0, r3
 1148 0048 E4D1     		bne	.L123
 1149              		.loc 1 668 7 is_stmt 1 view .LVU330
 1150 004a 3220     		movs	r0, #50
 1151              	.LVL73:
 1152              		.loc 1 668 7 is_stmt 0 view .LVU331
 1153 004c FFF7FEFF 		bl	nvicDisableVector
 1154              	.LVL74:
 1155              		.loc 1 669 7 is_stmt 1 view .LVU332
 1156 0050 164A     		ldr	r2, .L139+20
 1157 0052 136C     		ldr	r3, [r2, #64]
 1158 0054 23F00803 		bic	r3, r3, #8
 1159 0058 1364     		str	r3, [r2, #64]
 1160              		.loc 1 669 7 view .LVU333
 1161              		.loc 1 669 28 view .LVU334
 1162              		.loc 1 686 1 is_stmt 0 view .LVU335
 1163 005a DBE7     		b	.L123
 1164              	.LVL75:
 1165              	.L138:
 1166              		.loc 1 662 7 is_stmt 1 view .LVU336
 1167 005c 1E20     		movs	r0, #30
 1168              	.LVL76:
 1169              		.loc 1 662 7 is_stmt 0 view .LVU337
 1170 005e FFF7FEFF 		bl	nvicDisableVector
 1171              	.LVL77:
 1172              		.loc 1 663 7 is_stmt 1 view .LVU338
 1173 0062 124A     		ldr	r2, .L139+20
 1174 0064 136C     		ldr	r3, [r2, #64]
 1175 0066 23F00403 		bic	r3, r3, #4
 1176 006a 1364     		str	r3, [r2, #64]
 1177              		.loc 1 663 7 view .LVU339
 1178              		.loc 1 663 28 view .LVU340
 1179              		.loc 1 667 5 view .LVU341
 1180 006c D2E7     		b	.L123
 1181              	.LVL78:
 1182              	.L128:
 1183              		.loc 1 656 7 view .LVU342
 1184 006e 1D20     		movs	r0, #29
 1185              	.LVL79:
 1186              		.loc 1 656 7 is_stmt 0 view .LVU343
 1187 0070 FFF7FEFF 		bl	nvicDisableVector
 1188              	.LVL80:
 1189              		.loc 1 657 7 is_stmt 1 view .LVU344
 1190 0074 0D4A     		ldr	r2, .L139+20
 1191 0076 136C     		ldr	r3, [r2, #64]
 1192 0078 23F00203 		bic	r3, r3, #2
 1193 007c 1364     		str	r3, [r2, #64]
 1194              		.loc 1 657 7 view .LVU345
 1195              		.loc 1 657 28 view .LVU346
 1196              		.loc 1 661 5 view .LVU347
 1197              		.loc 1 663 28 view .LVU348
ARM GAS  /tmp/ccrAESKb.s 			page 22


 1198              		.loc 1 667 5 view .LVU349
 1199 007e C9E7     		b	.L123
 1200              	.LVL81:
 1201              	.L137:
 1202              		.loc 1 650 7 view .LVU350
 1203 0080 1C20     		movs	r0, #28
 1204              	.LVL82:
 1205              		.loc 1 650 7 is_stmt 0 view .LVU351
 1206 0082 FFF7FEFF 		bl	nvicDisableVector
 1207              	.LVL83:
 1208              		.loc 1 651 7 is_stmt 1 view .LVU352
 1209 0086 094A     		ldr	r2, .L139+20
 1210 0088 136C     		ldr	r3, [r2, #64]
 1211 008a 23F00103 		bic	r3, r3, #1
 1212 008e 1364     		str	r3, [r2, #64]
 1213              		.loc 1 651 7 view .LVU353
 1214              		.loc 1 651 28 view .LVU354
 1215              		.loc 1 655 5 view .LVU355
 1216              		.loc 1 657 28 view .LVU356
 1217              		.loc 1 661 5 view .LVU357
 1218              		.loc 1 663 28 view .LVU358
 1219              		.loc 1 667 5 view .LVU359
 1220 0090 C0E7     		b	.L123
 1221              	.L136:
 1222              		.loc 1 686 1 is_stmt 0 view .LVU360
 1223 0092 FFF7FEFF 		bl	__stack_chk_fail
 1224              	.LVL84:
 1225              	.L140:
 1226 0096 00BF     		.align	2
 1227              	.L139:
 1228 0098 00000000 		.word	.LC7
 1229 009c 00000000 		.word	.LANCHOR0
 1230 00a0 00000000 		.word	.LANCHOR1
 1231 00a4 00000000 		.word	.LANCHOR2
 1232 00a8 00000000 		.word	.LANCHOR3
 1233 00ac 00380240 		.word	1073887232
 1234              		.cfi_endproc
 1235              	.LFE263:
 1236              		.size	pwm_lld_stop, .-pwm_lld_stop
 1237              		.section	.rodata.pwm_lld_enable_channel.cst4,"aM",%progbits,4
 1238              		.align	2
 1239              	.LC8:
 1240 0000 00000000 		.word	__stack_chk_guard
 1241              		.section	.text.pwm_lld_enable_channel,"ax",%progbits
 1242              		.align	1
 1243              		.p2align 4,,15
 1244              		.global	pwm_lld_enable_channel
 1245              		.syntax unified
 1246              		.thumb
 1247              		.thumb_func
 1248              		.fpu fpv4-sp-d16
 1249              		.type	pwm_lld_enable_channel, %function
 1250              	pwm_lld_enable_channel:
 1251              	.LVL85:
 1252              	.LFB264:
 1253              		.loc 1 703 45 is_stmt 1 view -0
 1254              		.cfi_startproc
ARM GAS  /tmp/ccrAESKb.s 			page 23


 1255              		@ args = 0, pretend = 0, frame = 8
 1256              		@ frame_needed = 0, uses_anonymous_args = 0
 1257              		.loc 1 703 45 is_stmt 0 view .LVU362
 1258 0000 00B5     		push	{lr}
 1259              		.cfi_def_cfa_offset 4
 1260              		.cfi_offset 14, -4
 1261              		.loc 1 707 7 view .LVU363
 1262 0002 8369     		ldr	r3, [r0, #24]
 1263              		.loc 1 703 45 view .LVU364
 1264 0004 0948     		ldr	r0, .L145
 1265              	.LVL86:
 1266              		.loc 1 707 27 view .LVU365
 1267 0006 0C31     		adds	r1, r1, #12
 1268              	.LVL87:
 1269              		.loc 1 707 27 view .LVU366
 1270 0008 03EB8101 		add	r1, r3, r1, lsl #2
 1271              		.loc 1 703 45 view .LVU367
 1272 000c 83B0     		sub	sp, sp, #12
 1273              		.cfi_def_cfa_offset 16
 1274              		.loc 1 714 1 view .LVU368
 1275 000e 074B     		ldr	r3, .L145
 1276              		.loc 1 703 45 view .LVU369
 1277 0010 0068     		ldr	r0, [r0]
 1278 0012 0190     		str	r0, [sp, #4]
 1279 0014 4FF00000 		mov	r0,#0
 1280              		.loc 1 707 3 is_stmt 1 view .LVU370
 1281              		.loc 1 707 27 is_stmt 0 view .LVU371
 1282 0018 4A60     		str	r2, [r1, #4]
 1283              		.loc 1 714 1 view .LVU372
 1284 001a 1A68     		ldr	r2, [r3]
 1285 001c 019B     		ldr	r3, [sp, #4]
 1286 001e 5A40     		eors	r2, r3, r2
 1287              	.LVL88:
 1288              		.loc 1 714 1 view .LVU373
 1289 0020 02D1     		bne	.L144
 1290 0022 03B0     		add	sp, sp, #12
 1291              		.cfi_remember_state
 1292              		.cfi_def_cfa_offset 4
 1293              		@ sp needed
 1294 0024 5DF804FB 		ldr	pc, [sp], #4
 1295              	.L144:
 1296              		.cfi_restore_state
 1297 0028 FFF7FEFF 		bl	__stack_chk_fail
 1298              	.LVL89:
 1299              	.L146:
 1300              		.loc 1 714 1 view .LVU374
 1301              		.align	2
 1302              	.L145:
 1303 002c 00000000 		.word	.LC8
 1304              		.cfi_endproc
 1305              	.LFE264:
 1306              		.size	pwm_lld_enable_channel, .-pwm_lld_enable_channel
 1307              		.section	.rodata.pwm_lld_disable_channel.cst4,"aM",%progbits,4
 1308              		.align	2
 1309              	.LC9:
 1310 0000 00000000 		.word	__stack_chk_guard
 1311              		.section	.text.pwm_lld_disable_channel,"ax",%progbits
ARM GAS  /tmp/ccrAESKb.s 			page 24


 1312              		.align	1
 1313              		.p2align 4,,15
 1314              		.global	pwm_lld_disable_channel
 1315              		.syntax unified
 1316              		.thumb
 1317              		.thumb_func
 1318              		.fpu fpv4-sp-d16
 1319              		.type	pwm_lld_disable_channel, %function
 1320              	pwm_lld_disable_channel:
 1321              	.LVL90:
 1322              	.LFB265:
 1323              		.loc 1 728 69 is_stmt 1 view -0
 1324              		.cfi_startproc
 1325              		@ args = 0, pretend = 0, frame = 8
 1326              		@ frame_needed = 0, uses_anonymous_args = 0
 1327              		.loc 1 728 69 is_stmt 0 view .LVU376
 1328 0000 00B5     		push	{lr}
 1329              		.cfi_def_cfa_offset 4
 1330              		.cfi_offset 14, -4
 1331 0002 0F4A     		ldr	r2, .L151
 1332              		.loc 1 731 7 view .LVU377
 1333 0004 8369     		ldr	r3, [r0, #24]
 1334              		.loc 1 728 69 view .LVU378
 1335 0006 83B0     		sub	sp, sp, #12
 1336              		.cfi_def_cfa_offset 16
 1337              		.loc 1 728 69 view .LVU379
 1338 0008 1268     		ldr	r2, [r2]
 1339 000a 0192     		str	r2, [sp, #4]
 1340 000c 4FF00002 		mov	r2,#0
 1341              		.loc 1 731 3 is_stmt 1 view .LVU380
 1342              		.loc 1 731 27 is_stmt 0 view .LVU381
 1343 0010 01F10C02 		add	r2, r1, #12
 1344 0014 03EB8203 		add	r3, r3, r2, lsl #2
 1345 0018 0022     		movs	r2, #0
 1346 001a 5A60     		str	r2, [r3, #4]
 1347              		.loc 1 732 3 is_stmt 1 view .LVU382
 1348              		.loc 1 732 7 is_stmt 0 view .LVU383
 1349 001c 8069     		ldr	r0, [r0, #24]
 1350              	.LVL91:
 1351              		.loc 1 732 26 view .LVU384
 1352 001e 0222     		movs	r2, #2
 1353              		.loc 1 732 19 view .LVU385
 1354 0020 C368     		ldr	r3, [r0, #12]
 1355              		.loc 1 732 26 view .LVU386
 1356 0022 02FA01F1 		lsl	r1, r2, r1
 1357              	.LVL92:
 1358              		.loc 1 732 19 view .LVU387
 1359 0026 23EA0101 		bic	r1, r3, r1
 1360              		.loc 1 741 1 view .LVU388
 1361 002a 054B     		ldr	r3, .L151
 1362              		.loc 1 732 19 view .LVU389
 1363 002c C160     		str	r1, [r0, #12]
 1364              		.loc 1 741 1 view .LVU390
 1365 002e 1A68     		ldr	r2, [r3]
 1366 0030 019B     		ldr	r3, [sp, #4]
 1367 0032 5A40     		eors	r2, r3, r2
 1368 0034 02D1     		bne	.L150
ARM GAS  /tmp/ccrAESKb.s 			page 25


 1369 0036 03B0     		add	sp, sp, #12
 1370              		.cfi_remember_state
 1371              		.cfi_def_cfa_offset 4
 1372              		@ sp needed
 1373 0038 5DF804FB 		ldr	pc, [sp], #4
 1374              	.L150:
 1375              		.cfi_restore_state
 1376 003c FFF7FEFF 		bl	__stack_chk_fail
 1377              	.LVL93:
 1378              	.L152:
 1379              		.align	2
 1380              	.L151:
 1381 0040 00000000 		.word	.LC9
 1382              		.cfi_endproc
 1383              	.LFE265:
 1384              		.size	pwm_lld_disable_channel, .-pwm_lld_disable_channel
 1385              		.section	.rodata.pwm_lld_enable_periodic_notification.cst4,"aM",%progbits,4
 1386              		.align	2
 1387              	.LC10:
 1388 0000 00000000 		.word	__stack_chk_guard
 1389              		.section	.text.pwm_lld_enable_periodic_notification,"ax",%progbits
 1390              		.align	1
 1391              		.p2align 4,,15
 1392              		.global	pwm_lld_enable_periodic_notification
 1393              		.syntax unified
 1394              		.thumb
 1395              		.thumb_func
 1396              		.fpu fpv4-sp-d16
 1397              		.type	pwm_lld_enable_periodic_notification, %function
 1398              	pwm_lld_enable_periodic_notification:
 1399              	.LVL94:
 1400              	.LFB266:
 1401              		.loc 1 752 60 is_stmt 1 view -0
 1402              		.cfi_startproc
 1403              		@ args = 0, pretend = 0, frame = 8
 1404              		@ frame_needed = 0, uses_anonymous_args = 0
 1405              		.loc 1 752 60 is_stmt 0 view .LVU392
 1406 0000 00B5     		push	{lr}
 1407              		.cfi_def_cfa_offset 4
 1408              		.cfi_offset 14, -4
 1409 0002 0E4B     		ldr	r3, .L158
 1410              		.loc 1 753 23 view .LVU393
 1411 0004 8269     		ldr	r2, [r0, #24]
 1412              		.loc 1 752 60 view .LVU394
 1413 0006 83B0     		sub	sp, sp, #12
 1414              		.cfi_def_cfa_offset 16
 1415              		.loc 1 752 60 view .LVU395
 1416 0008 1B68     		ldr	r3, [r3]
 1417 000a 0193     		str	r3, [sp, #4]
 1418 000c 4FF00003 		mov	r3,#0
 1419              		.loc 1 753 3 is_stmt 1 view .LVU396
 1420              		.loc 1 753 12 is_stmt 0 view .LVU397
 1421 0010 D368     		ldr	r3, [r2, #12]
 1422              	.LVL95:
 1423              		.loc 1 757 3 is_stmt 1 view .LVU398
 1424              		.loc 1 757 6 is_stmt 0 view .LVU399
 1425 0012 D907     		lsls	r1, r3, #31
ARM GAS  /tmp/ccrAESKb.s 			page 26


 1426 0014 07D4     		bmi	.L153
 1427              		.loc 1 758 5 is_stmt 1 view .LVU400
 1428              		.loc 1 758 19 is_stmt 0 view .LVU401
 1429 0016 1169     		ldr	r1, [r2, #16]
 1430 0018 21F00101 		bic	r1, r1, #1
 1431 001c 1161     		str	r1, [r2, #16]
 1432              		.loc 1 759 5 is_stmt 1 view .LVU402
 1433              		.loc 1 759 9 is_stmt 0 view .LVU403
 1434 001e 8269     		ldr	r2, [r0, #24]
 1435              		.loc 1 759 28 view .LVU404
 1436 0020 43F00103 		orr	r3, r3, #1
 1437              	.LVL96:
 1438              		.loc 1 759 21 view .LVU405
 1439 0024 D360     		str	r3, [r2, #12]
 1440              	.L153:
 1441              		.loc 1 761 1 view .LVU406
 1442 0026 054B     		ldr	r3, .L158
 1443 0028 1A68     		ldr	r2, [r3]
 1444 002a 019B     		ldr	r3, [sp, #4]
 1445 002c 5A40     		eors	r2, r3, r2
 1446 002e 02D1     		bne	.L157
 1447 0030 03B0     		add	sp, sp, #12
 1448              		.cfi_remember_state
 1449              		.cfi_def_cfa_offset 4
 1450              		@ sp needed
 1451 0032 5DF804FB 		ldr	pc, [sp], #4
 1452              	.L157:
 1453              		.cfi_restore_state
 1454 0036 FFF7FEFF 		bl	__stack_chk_fail
 1455              	.LVL97:
 1456              	.L159:
 1457              		.loc 1 761 1 view .LVU407
 1458 003a 00BF     		.align	2
 1459              	.L158:
 1460 003c 00000000 		.word	.LC10
 1461              		.cfi_endproc
 1462              	.LFE266:
 1463              		.size	pwm_lld_enable_periodic_notification, .-pwm_lld_enable_periodic_notification
 1464              		.section	.rodata.pwm_lld_disable_periodic_notification.cst4,"aM",%progbits,4
 1465              		.align	2
 1466              	.LC11:
 1467 0000 00000000 		.word	__stack_chk_guard
 1468              		.section	.text.pwm_lld_disable_periodic_notification,"ax",%progbits
 1469              		.align	1
 1470              		.p2align 4,,15
 1471              		.global	pwm_lld_disable_periodic_notification
 1472              		.syntax unified
 1473              		.thumb
 1474              		.thumb_func
 1475              		.fpu fpv4-sp-d16
 1476              		.type	pwm_lld_disable_periodic_notification, %function
 1477              	pwm_lld_disable_periodic_notification:
 1478              	.LVL98:
 1479              	.LFB267:
 1480              		.loc 1 772 61 is_stmt 1 view -0
 1481              		.cfi_startproc
 1482              		@ args = 0, pretend = 0, frame = 8
ARM GAS  /tmp/ccrAESKb.s 			page 27


 1483              		@ frame_needed = 0, uses_anonymous_args = 0
 1484              		.loc 1 772 61 is_stmt 0 view .LVU409
 1485 0000 00B5     		push	{lr}
 1486              		.cfi_def_cfa_offset 4
 1487              		.cfi_offset 14, -4
 1488 0002 0A4B     		ldr	r3, .L164
 1489              		.loc 1 774 7 view .LVU410
 1490 0004 8269     		ldr	r2, [r0, #24]
 1491              		.loc 1 772 61 view .LVU411
 1492 0006 83B0     		sub	sp, sp, #12
 1493              		.cfi_def_cfa_offset 16
 1494              		.loc 1 772 61 view .LVU412
 1495 0008 1B68     		ldr	r3, [r3]
 1496 000a 0193     		str	r3, [sp, #4]
 1497 000c 4FF00003 		mov	r3,#0
 1498              		.loc 1 774 3 is_stmt 1 view .LVU413
 1499              		.loc 1 774 19 is_stmt 0 view .LVU414
 1500 0010 D368     		ldr	r3, [r2, #12]
 1501 0012 23F00103 		bic	r3, r3, #1
 1502 0016 D360     		str	r3, [r2, #12]
 1503              		.loc 1 775 1 view .LVU415
 1504 0018 044B     		ldr	r3, .L164
 1505 001a 1A68     		ldr	r2, [r3]
 1506 001c 019B     		ldr	r3, [sp, #4]
 1507 001e 5A40     		eors	r2, r3, r2
 1508 0020 02D1     		bne	.L163
 1509 0022 03B0     		add	sp, sp, #12
 1510              		.cfi_remember_state
 1511              		.cfi_def_cfa_offset 4
 1512              		@ sp needed
 1513 0024 5DF804FB 		ldr	pc, [sp], #4
 1514              	.L163:
 1515              		.cfi_restore_state
 1516 0028 FFF7FEFF 		bl	__stack_chk_fail
 1517              	.LVL99:
 1518              	.L165:
 1519              		.loc 1 775 1 view .LVU416
 1520              		.align	2
 1521              	.L164:
 1522 002c 00000000 		.word	.LC11
 1523              		.cfi_endproc
 1524              	.LFE267:
 1525              		.size	pwm_lld_disable_periodic_notification, .-pwm_lld_disable_periodic_notification
 1526              		.section	.rodata.pwm_lld_enable_channel_notification.cst4,"aM",%progbits,4
 1527              		.align	2
 1528              	.LC12:
 1529 0000 00000000 		.word	__stack_chk_guard
 1530              		.section	.text.pwm_lld_enable_channel_notification,"ax",%progbits
 1531              		.align	1
 1532              		.p2align 4,,15
 1533              		.global	pwm_lld_enable_channel_notification
 1534              		.syntax unified
 1535              		.thumb
 1536              		.thumb_func
 1537              		.fpu fpv4-sp-d16
 1538              		.type	pwm_lld_enable_channel_notification, %function
 1539              	pwm_lld_enable_channel_notification:
ARM GAS  /tmp/ccrAESKb.s 			page 28


 1540              	.LVL100:
 1541              	.LFB268:
 1542              		.loc 1 789 64 is_stmt 1 view -0
 1543              		.cfi_startproc
 1544              		@ args = 0, pretend = 0, frame = 8
 1545              		@ frame_needed = 0, uses_anonymous_args = 0
 1546              		.loc 1 789 64 is_stmt 0 view .LVU418
 1547 0000 10B5     		push	{r4, lr}
 1548              		.cfi_def_cfa_offset 8
 1549              		.cfi_offset 4, -8
 1550              		.cfi_offset 14, -4
 1551 0002 0D4B     		ldr	r3, .L171
 1552              		.loc 1 790 23 view .LVU419
 1553 0004 8469     		ldr	r4, [r0, #24]
 1554              		.loc 1 789 64 view .LVU420
 1555 0006 82B0     		sub	sp, sp, #8
 1556              		.cfi_def_cfa_offset 16
 1557              		.loc 1 789 64 view .LVU421
 1558 0008 1B68     		ldr	r3, [r3]
 1559 000a 0193     		str	r3, [sp, #4]
 1560 000c 4FF00003 		mov	r3,#0
 1561              		.loc 1 790 3 is_stmt 1 view .LVU422
 1562              		.loc 1 799 18 is_stmt 0 view .LVU423
 1563 0010 0223     		movs	r3, #2
 1564              		.loc 1 790 12 view .LVU424
 1565 0012 E268     		ldr	r2, [r4, #12]
 1566              	.LVL101:
 1567              		.loc 1 799 3 is_stmt 1 view .LVU425
 1568              		.loc 1 799 18 is_stmt 0 view .LVU426
 1569 0014 03FA01F1 		lsl	r1, r3, r1
 1570              	.LVL102:
 1571              		.loc 1 799 6 view .LVU427
 1572 0018 1142     		tst	r1, r2
 1573 001a 04D1     		bne	.L166
 1574              		.loc 1 800 5 is_stmt 1 view .LVU428
 1575              		.loc 1 800 28 is_stmt 0 view .LVU429
 1576 001c 0A43     		orrs	r2, r2, r1
 1577              	.LVL103:
 1578              		.loc 1 800 21 view .LVU430
 1579 001e E260     		str	r2, [r4, #12]
 1580              		.loc 1 801 5 is_stmt 1 view .LVU431
 1581              		.loc 1 801 9 is_stmt 0 view .LVU432
 1582 0020 8369     		ldr	r3, [r0, #24]
 1583              		.loc 1 801 23 view .LVU433
 1584 0022 C943     		mvns	r1, r1
 1585              		.loc 1 801 21 view .LVU434
 1586 0024 1961     		str	r1, [r3, #16]
 1587              	.L166:
 1588              		.loc 1 803 1 view .LVU435
 1589 0026 044B     		ldr	r3, .L171
 1590 0028 1A68     		ldr	r2, [r3]
 1591 002a 019B     		ldr	r3, [sp, #4]
 1592 002c 5A40     		eors	r2, r3, r2
 1593 002e 01D1     		bne	.L170
 1594 0030 02B0     		add	sp, sp, #8
 1595              		.cfi_remember_state
 1596              		.cfi_def_cfa_offset 8
ARM GAS  /tmp/ccrAESKb.s 			page 29


 1597              		@ sp needed
 1598 0032 10BD     		pop	{r4, pc}
 1599              	.L170:
 1600              		.cfi_restore_state
 1601 0034 FFF7FEFF 		bl	__stack_chk_fail
 1602              	.LVL104:
 1603              	.L172:
 1604              		.loc 1 803 1 view .LVU436
 1605              		.align	2
 1606              	.L171:
 1607 0038 00000000 		.word	.LC12
 1608              		.cfi_endproc
 1609              	.LFE268:
 1610              		.size	pwm_lld_enable_channel_notification, .-pwm_lld_enable_channel_notification
 1611              		.section	.rodata.pwm_lld_disable_channel_notification.cst4,"aM",%progbits,4
 1612              		.align	2
 1613              	.LC13:
 1614 0000 00000000 		.word	__stack_chk_guard
 1615              		.section	.text.pwm_lld_disable_channel_notification,"ax",%progbits
 1616              		.align	1
 1617              		.p2align 4,,15
 1618              		.global	pwm_lld_disable_channel_notification
 1619              		.syntax unified
 1620              		.thumb
 1621              		.thumb_func
 1622              		.fpu fpv4-sp-d16
 1623              		.type	pwm_lld_disable_channel_notification, %function
 1624              	pwm_lld_disable_channel_notification:
 1625              	.LVL105:
 1626              	.LFB269:
 1627              		.loc 1 817 65 is_stmt 1 view -0
 1628              		.cfi_startproc
 1629              		@ args = 0, pretend = 0, frame = 8
 1630              		@ frame_needed = 0, uses_anonymous_args = 0
 1631              		.loc 1 817 65 is_stmt 0 view .LVU438
 1632 0000 00B5     		push	{lr}
 1633              		.cfi_def_cfa_offset 4
 1634              		.cfi_offset 14, -4
 1635 0002 0C4B     		ldr	r3, .L177
 1636              		.loc 1 819 7 view .LVU439
 1637 0004 8069     		ldr	r0, [r0, #24]
 1638              	.LVL106:
 1639              		.loc 1 817 65 view .LVU440
 1640 0006 83B0     		sub	sp, sp, #12
 1641              		.cfi_def_cfa_offset 16
 1642              		.loc 1 817 65 view .LVU441
 1643 0008 1B68     		ldr	r3, [r3]
 1644 000a 0193     		str	r3, [sp, #4]
 1645 000c 4FF00003 		mov	r3,#0
 1646              		.loc 1 819 3 is_stmt 1 view .LVU442
 1647              		.loc 1 819 26 is_stmt 0 view .LVU443
 1648 0010 0222     		movs	r2, #2
 1649              		.loc 1 819 19 view .LVU444
 1650 0012 C368     		ldr	r3, [r0, #12]
 1651              		.loc 1 819 26 view .LVU445
 1652 0014 02FA01F1 		lsl	r1, r2, r1
 1653              	.LVL107:
ARM GAS  /tmp/ccrAESKb.s 			page 30


 1654              		.loc 1 819 19 view .LVU446
 1655 0018 23EA0103 		bic	r3, r3, r1
 1656 001c C360     		str	r3, [r0, #12]
 1657              		.loc 1 820 1 view .LVU447
 1658 001e 054B     		ldr	r3, .L177
 1659 0020 1A68     		ldr	r2, [r3]
 1660 0022 019B     		ldr	r3, [sp, #4]
 1661 0024 5A40     		eors	r2, r3, r2
 1662 0026 02D1     		bne	.L176
 1663 0028 03B0     		add	sp, sp, #12
 1664              		.cfi_remember_state
 1665              		.cfi_def_cfa_offset 4
 1666              		@ sp needed
 1667 002a 5DF804FB 		ldr	pc, [sp], #4
 1668              	.L176:
 1669              		.cfi_restore_state
 1670 002e FFF7FEFF 		bl	__stack_chk_fail
 1671              	.LVL108:
 1672              	.L178:
 1673 0032 00BF     		.align	2
 1674              	.L177:
 1675 0034 00000000 		.word	.LC13
 1676              		.cfi_endproc
 1677              	.LFE269:
 1678              		.size	pwm_lld_disable_channel_notification, .-pwm_lld_disable_channel_notification
 1679              		.global	PWMD5
 1680              		.global	PWMD4
 1681              		.global	PWMD3
 1682              		.global	PWMD2
 1683              		.section	.bss.PWMD2,"aw",%nobits
 1684              		.align	2
 1685              		.set	.LANCHOR0,. + 0
 1686              		.type	PWMD2, %object
 1687              		.size	PWMD2, 28
 1688              	PWMD2:
 1689 0000 00000000 		.space	28
 1689      00000000 
 1689      00000000 
 1689      00000000 
 1689      00000000 
 1690              		.section	.bss.PWMD3,"aw",%nobits
 1691              		.align	2
 1692              		.set	.LANCHOR1,. + 0
 1693              		.type	PWMD3, %object
 1694              		.size	PWMD3, 28
 1695              	PWMD3:
 1696 0000 00000000 		.space	28
 1696      00000000 
 1696      00000000 
 1696      00000000 
 1696      00000000 
 1697              		.section	.bss.PWMD4,"aw",%nobits
 1698              		.align	2
 1699              		.set	.LANCHOR2,. + 0
 1700              		.type	PWMD4, %object
 1701              		.size	PWMD4, 28
 1702              	PWMD4:
ARM GAS  /tmp/ccrAESKb.s 			page 31


 1703 0000 00000000 		.space	28
 1703      00000000 
 1703      00000000 
 1703      00000000 
 1703      00000000 
 1704              		.section	.bss.PWMD5,"aw",%nobits
 1705              		.align	2
 1706              		.set	.LANCHOR3,. + 0
 1707              		.type	PWMD5, %object
 1708              		.size	PWMD5, 28
 1709              	PWMD5:
 1710 0000 00000000 		.space	28
 1710      00000000 
 1710      00000000 
 1710      00000000 
 1710      00000000 
 1711              		.section	.rodata.__func__.9974,"a"
 1712              		.align	2
 1713              		.set	.LANCHOR4,. + 0
 1714              		.type	__func__.9974, %object
 1715              		.size	__func__.9974, 14
 1716              	__func__.9974:
 1717 0000 70776D5F 		.ascii	"pwm_lld_start\000"
 1717      6C6C645F 
 1717      73746172 
 1717      7400
 1718              		.text
 1719              	.Letext0:
 1720              		.file 2 "/usr/lib/gcc/arm-none-eabi/9.2.1/include/stddef.h"
 1721              		.file 3 "/usr/lib/gcc/arm-none-eabi/9.2.1/include/stdint.h"
 1722              		.file 4 ".//ChibiOS//os/rt/ports/ARMCMx/compilers/GCC/chtypes.h"
 1723              		.file 5 ".//ChibiOS//os/rt/include/chsystypes.h"
 1724              		.file 6 ".//ChibiOS//os/rt/include/chschd.h"
 1725              		.file 7 ".//ChibiOS//os/ext/CMSIS/include/core_cm4.h"
 1726              		.file 8 ".//ChibiOS//os/ext/CMSIS/ST/system_stm32f4xx.h"
 1727              		.file 9 ".//ChibiOS//os/ext/CMSIS/ST/stm32f407xx.h"
 1728              		.file 10 ".//ChibiOS//os/rt/ports/ARMCMx/chcore.h"
 1729              		.file 11 ".//ChibiOS//os/rt/ports/ARMCMx/chcore_v7m.h"
 1730              		.file 12 ".//ChibiOS//os/rt/include/chdebug.h"
 1731              		.file 13 ".//ChibiOS//os/rt/include/chtm.h"
 1732              		.file 14 ".//ChibiOS//os/rt/include/chstats.h"
 1733              		.file 15 ".//ChibiOS//os/rt/include/chsem.h"
 1734              		.file 16 ".//ChibiOS//os/rt/include/chmtx.h"
 1735              		.file 17 ".//ChibiOS//os/rt/include/chregistry.h"
 1736              		.file 18 ".//ChibiOS//os/rt/include/chevents.h"
 1737              		.file 19 ".//ChibiOS//os/rt/include/chqueues.h"
 1738              		.file 20 ".//ChibiOS//os/hal/ports/STM32/STM32F4xx/stm32_dma.h"
 1739              		.file 21 ".//ChibiOS//os/hal/include/hal_ioblock.h"
 1740              		.file 22 ".//ChibiOS//os/hal/ports/STM32/LLD/GPIOv2/pal_lld.h"
 1741              		.file 23 ".//ChibiOS//os/hal/include/adc.h"
 1742              		.file 24 ".//ChibiOS//os/hal/ports/STM32/STM32F4xx/adc_lld.h"
 1743              		.file 25 ".//ChibiOS//os/hal/include/can.h"
 1744              		.file 26 ".//ChibiOS//os/hal/ports/STM32/LLD/can_lld.h"
 1745              		.file 27 ".//ChibiOS//os/hal/include/dac.h"
 1746              		.file 28 ".//ChibiOS//os/hal/ports/STM32/LLD/DACv1/dac_lld.h"
 1747              		.file 29 ".//ChibiOS//os/hal/include/ext.h"
 1748              		.file 30 ".//ChibiOS//os/hal/ports/STM32/LLD/ext_lld.h"
ARM GAS  /tmp/ccrAESKb.s 			page 32


 1749              		.file 31 ".//ChibiOS//os/hal/include/gpt.h"
 1750              		.file 32 ".//ChibiOS//os/hal/ports/STM32/LLD/TIMv1/gpt_lld.h"
 1751              		.file 33 ".//ChibiOS//os/hal/ports/STM32/LLD/TIMv1/stm32_tim.h"
 1752              		.file 34 ".//ChibiOS//os/hal/include/i2c.h"
 1753              		.file 35 ".//ChibiOS//os/hal/ports/STM32/LLD/I2Cv1/i2c_lld.h"
 1754              		.file 36 ".//ChibiOS//os/hal/include/i2s.h"
 1755              		.file 37 ".//ChibiOS//os/hal/ports/STM32/LLD/SPIv1/i2s_lld.h"
 1756              		.file 38 ".//ChibiOS//os/hal/include/pwm.h"
 1757              		.file 39 ".//ChibiOS//os/hal/ports/STM32/LLD/TIMv1/pwm_lld.h"
 1758              		.file 40 ".//ChibiOS//os/hal/include/serial.h"
 1759              		.file 41 ".//ChibiOS//os/hal/ports/STM32/LLD/USARTv1/serial_lld.h"
 1760              		.file 42 ".//ChibiOS//os/hal/include/sdc.h"
 1761              		.file 43 ".//ChibiOS//os/hal/ports/STM32/LLD/sdc_lld.h"
 1762              		.file 44 ".//ChibiOS//os/hal/include/spi.h"
 1763              		.file 45 ".//ChibiOS//os/hal/ports/STM32/LLD/SPIv1/spi_lld.h"
 1764              		.file 46 ".//ChibiOS//os/hal/include/usb.h"
 1765              		.file 47 ".//ChibiOS//os/hal/ports/STM32/LLD/OTGv1/usb_lld.h"
 1766              		.file 48 ".//ChibiOS//os/hal/ports/STM32/LLD/OTGv1/stm32_otg.h"
 1767              		.file 49 ".//ChibiOS//os/hal/ports/common/ARMCMx/nvic.h"
 1768              		.file 50 ".//ChibiOS//os/rt/include/chsys.h"