ARM GAS  /tmp/ccBDDCqA.s 			page 1


   1              		.cpu cortex-m4
   2              		.eabi_attribute 27, 1
   3              		.eabi_attribute 28, 1
   4              		.eabi_attribute 20, 1
   5              		.eabi_attribute 21, 1
   6              		.eabi_attribute 23, 3
   7              		.eabi_attribute 24, 1
   8              		.eabi_attribute 25, 1
   9              		.eabi_attribute 26, 1
  10              		.eabi_attribute 30, 2
  11              		.eabi_attribute 34, 1
  12              		.eabi_attribute 18, 4
  13              		.file	"sdc.c"
  14              		.text
  15              	.Ltext0:
  16              		.cfi_sections	.debug_frame
  17              		.section	.rodata.sdcGetInfo.cst4,"aM",%progbits,4
  18              		.align	2
  19              	.LC0:
  20 0000 00000000 		.word	__stack_chk_guard
  21              		.section	.text.sdcGetInfo,"ax",%progbits
  22              		.align	1
  23              		.p2align 4,,15
  24              		.global	sdcGetInfo
  25              		.arch armv7e-m
  26              		.syntax unified
  27              		.thumb
  28              		.thumb_func
  29              		.fpu fpv4-sp-d16
  30              		.type	sdcGetInfo, %function
  31              	sdcGetInfo:
  32              	.LVL0:
  33              	.LFB279:
  34              		.file 1 ".//ChibiOS//os/hal/src/sdc.c"
  35              		.loc 1 922 57 view -0
  36              		.cfi_startproc
  37              		@ args = 0, pretend = 0, frame = 8
  38              		@ frame_needed = 0, uses_anonymous_args = 0
  39              		.loc 1 922 57 is_stmt 0 view .LVU1
  40 0000 30B5     		push	{r4, r5, lr}
  41              		.cfi_def_cfa_offset 12
  42              		.cfi_offset 4, -12
  43              		.cfi_offset 5, -8
  44              		.cfi_offset 14, -4
  45 0002 114B     		ldr	r3, .L13
  46 0004 83B0     		sub	sp, sp, #12
  47              		.cfi_def_cfa_offset 24
  48              		.loc 1 922 57 view .LVU2
  49 0006 0D46     		mov	r5, r1
  50 0008 1B68     		ldr	r3, [r3]
  51 000a 0193     		str	r3, [sp, #4]
  52 000c 4FF00003 		mov	r3,#0
  53              		.loc 1 924 3 is_stmt 1 view .LVU3
  54              		.loc 1 924 3 view .LVU4
  55              		.loc 1 924 3 view .LVU5
  56 0010 0446     		mov	r4, r0
  57 0012 90B1     		cbz	r0, .L2
ARM GAS  /tmp/ccBDDCqA.s 			page 2


  58              		.loc 1 924 3 is_stmt 0 discriminator 4 view .LVU6
  59 0014 89B1     		cbz	r1, .L2
  60              	.LVL1:
  61              	.L3:
  62              		.loc 1 924 3 is_stmt 1 discriminator 7 view .LVU7
  63              		.loc 1 926 3 discriminator 7 view .LVU8
  64              		.loc 1 926 6 is_stmt 0 discriminator 7 view .LVU9
  65 0016 2379     		ldrb	r3, [r4, #4]	@ zero_extendqisi2
  66 0018 052B     		cmp	r3, #5
  67 001a 0CD1     		bne	.L6
  68              		.loc 1 930 3 is_stmt 1 view .LVU10
  69              		.loc 1 930 23 is_stmt 0 view .LVU11
  70 001c A36A     		ldr	r3, [r4, #40]
  71              		.loc 1 930 17 view .LVU12
  72 001e 6B60     		str	r3, [r5, #4]
  73              		.loc 1 931 3 is_stmt 1 view .LVU13
  74              		.loc 1 931 18 is_stmt 0 view .LVU14
  75 0020 4FF40073 		mov	r3, #512
  76 0024 2B60     		str	r3, [r5]
  77              		.loc 1 933 3 is_stmt 1 view .LVU15
  78              		.loc 1 933 10 is_stmt 0 view .LVU16
  79 0026 0020     		movs	r0, #0
  80              	.L4:
  81              		.loc 1 934 1 view .LVU17
  82 0028 074B     		ldr	r3, .L13
  83 002a 1A68     		ldr	r2, [r3]
  84 002c 019B     		ldr	r3, [sp, #4]
  85 002e 5A40     		eors	r2, r3, r2
  86 0030 07D1     		bne	.L12
  87 0032 03B0     		add	sp, sp, #12
  88              		.cfi_remember_state
  89              		.cfi_def_cfa_offset 12
  90              		@ sp needed
  91 0034 30BD     		pop	{r4, r5, pc}
  92              	.LVL2:
  93              	.L6:
  94              		.cfi_restore_state
  95              		.loc 1 927 12 view .LVU18
  96 0036 0120     		movs	r0, #1
  97 0038 F6E7     		b	.L4
  98              	.LVL3:
  99              	.L2:
 100              		.loc 1 924 3 is_stmt 1 discriminator 5 view .LVU19
 101 003a 0448     		ldr	r0, .L13+4
 102              	.LVL4:
 103              		.loc 1 924 3 is_stmt 0 discriminator 5 view .LVU20
 104 003c FFF7FEFF 		bl	chSysHalt
 105              	.LVL5:
 106              		.loc 1 924 3 discriminator 5 view .LVU21
 107 0040 E9E7     		b	.L3
 108              	.L12:
 109              		.loc 1 934 1 view .LVU22
 110 0042 FFF7FEFF 		bl	__stack_chk_fail
 111              	.LVL6:
 112              	.L14:
 113 0046 00BF     		.align	2
 114              	.L13:
ARM GAS  /tmp/ccBDDCqA.s 			page 3


 115 0048 00000000 		.word	.LC0
 116 004c 00000000 		.word	.LANCHOR0
 117              		.cfi_endproc
 118              	.LFE279:
 119              		.size	sdcGetInfo, .-sdcGetInfo
 120              		.section	.rodata.sdcConnect.cst4,"aM",%progbits,4
 121              		.align	2
 122              	.LC1:
 123 0000 00000000 		.word	__stack_chk_guard
 124              		.section	.text.sdcConnect,"ax",%progbits
 125              		.align	1
 126              		.p2align 4,,15
 127              		.global	sdcConnect
 128              		.syntax unified
 129              		.thumb
 130              		.thumb_func
 131              		.fpu fpv4-sp-d16
 132              		.type	sdcConnect, %function
 133              	sdcConnect:
 134              	.LVL7:
 135              	.LFB273:
 136              		.loc 1 618 34 is_stmt 1 view -0
 137              		.cfi_startproc
 138              		@ args = 0, pretend = 0, frame = 16
 139              		@ frame_needed = 1, uses_anonymous_args = 0
 140              		.loc 1 618 34 is_stmt 0 view .LVU24
 141 0000 2DE9F043 		push	{r4, r5, r6, r7, r8, r9, lr}
 142              		.cfi_def_cfa_offset 28
 143              		.cfi_offset 4, -28
 144              		.cfi_offset 5, -24
 145              		.cfi_offset 6, -20
 146              		.cfi_offset 7, -16
 147              		.cfi_offset 8, -12
 148              		.cfi_offset 9, -8
 149              		.cfi_offset 14, -4
 150 0004 AC4B     		ldr	r3, .L113
 151 0006 87B0     		sub	sp, sp, #28
 152              		.cfi_def_cfa_offset 56
 153 0008 02AF     		add	r7, sp, #8
 154              		.cfi_def_cfa 7, 48
 155              		.loc 1 618 34 view .LVU25
 156 000a 1B68     		ldr	r3, [r3]
 157 000c FB60     		str	r3, [r7, #12]
 158 000e 4FF00003 		mov	r3,#0
 159              		.loc 1 619 3 is_stmt 1 view .LVU26
 160              		.loc 1 620 3 view .LVU27
 161              	.LVL8:
 162              		.loc 1 622 3 view .LVU28
 163              		.loc 1 622 3 view .LVU29
 164              		.loc 1 622 3 view .LVU30
 165 0012 0446     		mov	r4, r0
 166 0014 0028     		cmp	r0, #0
 167 0016 00F03381 		beq	.L103
 168              	.LVL9:
 169              	.L16:
 170              		.loc 1 622 3 discriminator 1 view .LVU31
 171              		.loc 1 623 3 discriminator 1 view .LVU32
ARM GAS  /tmp/ccBDDCqA.s 			page 4


 172              		.loc 1 623 3 discriminator 1 view .LVU33
 173              		.loc 1 623 3 discriminator 1 view .LVU34
 174 001a 2379     		ldrb	r3, [r4, #4]	@ zero_extendqisi2
 175 001c 022B     		cmp	r3, #2
 176 001e 01D0     		beq	.L17
 177              		.loc 1 623 3 is_stmt 0 discriminator 3 view .LVU35
 178 0020 052B     		cmp	r3, #5
 179 0022 2AD1     		bne	.L104
 180              	.L17:
 181              		.loc 1 623 3 is_stmt 1 discriminator 7 view .LVU36
 182              		.loc 1 627 3 discriminator 7 view .LVU37
 183              		.loc 1 627 15 is_stmt 0 discriminator 7 view .LVU38
 184 0024 0323     		movs	r3, #3
 185 0026 2371     		strb	r3, [r4, #4]
 186              		.loc 1 630 3 is_stmt 1 discriminator 7 view .LVU39
 187 0028 2046     		mov	r0, r4
 188 002a FFF7FEFF 		bl	sdc_lld_start_clk
 189              	.LVL10:
 190              		.loc 1 633 3 discriminator 7 view .LVU40
 191 002e 0022     		movs	r2, #0
 192 0030 1146     		mov	r1, r2
 193 0032 2046     		mov	r0, r4
 194 0034 FFF7FEFF 		bl	sdc_lld_send_cmd_none
 195              	.LVL11:
 196              		.loc 1 636 3 discriminator 7 view .LVU41
 197              	.LBB102:
 198              	.LBI102:
 199              		.loc 1 99 13 discriminator 7 view .LVU42
 200              	.LBB103:
 201              		.loc 1 100 3 discriminator 7 view .LVU43
 202              		.loc 1 103 3 discriminator 7 view .LVU44
 203              		.loc 1 103 8 is_stmt 0 discriminator 7 view .LVU45
 204 0038 07F10803 		add	r3, r7, #8
 205 003c 4FF4D572 		mov	r2, #426
 206 0040 0821     		movs	r1, #8
 207 0042 2046     		mov	r0, r4
 208 0044 FFF7FEFF 		bl	sdc_lld_send_cmd_short_crc
 209              	.LVL12:
 210              		.loc 1 103 6 discriminator 7 view .LVU46
 211 0048 48BB     		cbnz	r0, .L18
 212              		.loc 1 105 5 is_stmt 1 view .LVU47
 213              		.loc 1 107 19 is_stmt 0 view .LVU48
 214 004a BB68     		ldr	r3, [r7, #8]
 215              		.loc 1 105 20 view .LVU49
 216 004c 0122     		movs	r2, #1
 217              		.loc 1 107 26 view .LVU50
 218 004e C3F30323 		ubfx	r3, r3, #8, #4
 219              		.loc 1 107 8 view .LVU51
 220 0052 9342     		cmp	r3, r2
 221              		.loc 1 105 20 view .LVU52
 222 0054 2263     		str	r2, [r4, #48]
 223              		.loc 1 107 5 is_stmt 1 view .LVU53
 224              		.loc 1 107 8 is_stmt 0 view .LVU54
 225 0056 14D0     		beq	.L105
 226              	.LVL13:
 227              	.L20:
 228              		.loc 1 107 8 view .LVU55
ARM GAS  /tmp/ccBDDCqA.s 			page 5


 229              	.LBE103:
 230              	.LBE102:
 231              		.loc 1 741 3 is_stmt 1 view .LVU56
 232 0058 2046     		mov	r0, r4
 233 005a FFF7FEFF 		bl	sdc_lld_stop_clk
 234              	.LVL14:
 235              		.loc 1 742 3 view .LVU57
 236              		.loc 1 742 15 is_stmt 0 view .LVU58
 237 005e 0223     		movs	r3, #2
 238 0060 2371     		strb	r3, [r4, #4]
 239              		.loc 1 743 3 is_stmt 1 view .LVU59
 240              		.loc 1 743 10 is_stmt 0 view .LVU60
 241 0062 0125     		movs	r5, #1
 242              	.L61:
 243              		.loc 1 744 1 view .LVU61
 244 0064 944B     		ldr	r3, .L113
 245 0066 1A68     		ldr	r2, [r3]
 246 0068 FB68     		ldr	r3, [r7, #12]
 247 006a 5A40     		eors	r2, r3, r2
 248 006c 40F09081 		bne	.L106
 249 0070 2846     		mov	r0, r5
 250 0072 1437     		adds	r7, r7, #20
 251              		.cfi_remember_state
 252              		.cfi_def_cfa_offset 28
 253 0074 BD46     		mov	sp, r7
 254              		.cfi_def_cfa_register 13
 255              		@ sp needed
 256 0076 BDE8F083 		pop	{r4, r5, r6, r7, r8, r9, pc}
 257              	.LVL15:
 258              	.L104:
 259              		.cfi_restore_state
 260              		.loc 1 623 3 is_stmt 1 discriminator 5 view .LVU62
 261 007a 9048     		ldr	r0, .L113+4
 262 007c FFF7FEFF 		bl	chSysHalt
 263              	.LVL16:
 264 0080 D0E7     		b	.L17
 265              	.LVL17:
 266              	.L105:
 267              	.LBB106:
 268              	.LBB104:
 269              		.loc 1 110 5 view .LVU63
 270              		.loc 1 110 9 is_stmt 0 view .LVU64
 271 0082 0246     		mov	r2, r0
 272 0084 07F10803 		add	r3, r7, #8
 273 0088 3721     		movs	r1, #55
 274 008a 2046     		mov	r0, r4
 275 008c FFF7FEFF 		bl	sdc_lld_send_cmd_short_crc
 276              	.LVL18:
 277              		.loc 1 110 8 view .LVU65
 278 0090 0028     		cmp	r0, #0
 279 0092 E1D1     		bne	.L20
 280              		.loc 1 111 9 view .LVU66
 281 0094 BA68     		ldr	r2, [r7, #8]
 282 0096 8A4B     		ldr	r3, .L113+8
 283 0098 1340     		ands	r3, r3, r2
 284              		.loc 1 110 70 view .LVU67
 285 009a 93B1     		cbz	r3, .L26
ARM GAS  /tmp/ccBDDCqA.s 			page 6


 286 009c DCE7     		b	.L20
 287              	.L18:
 288              		.loc 1 117 5 is_stmt 1 view .LVU68
 289              		.loc 1 117 9 is_stmt 0 view .LVU69
 290 009e 07F10803 		add	r3, r7, #8
 291 00a2 0022     		movs	r2, #0
 292 00a4 3721     		movs	r1, #55
 293 00a6 2046     		mov	r0, r4
 294 00a8 FFF7FEFF 		bl	sdc_lld_send_cmd_short_crc
 295              	.LVL19:
 296              		.loc 1 117 8 view .LVU70
 297 00ac 0028     		cmp	r0, #0
 298 00ae 35D1     		bne	.L23
 299              		.loc 1 118 9 view .LVU71
 300 00b0 BB68     		ldr	r3, [r7, #8]
 301 00b2 834A     		ldr	r2, .L113+8
 302 00b4 1A40     		ands	r2, r2, r3
 303              		.loc 1 117 70 view .LVU72
 304 00b6 8ABB     		cbnz	r2, .L23
 305              		.loc 1 122 7 is_stmt 1 view .LVU73
 306              		.loc 1 122 22 is_stmt 0 view .LVU74
 307 00b8 2263     		str	r2, [r4, #48]
 308              		.loc 1 125 7 is_stmt 1 view .LVU75
 309 00ba 1146     		mov	r1, r2
 310 00bc 2046     		mov	r0, r4
 311 00be FFF7FEFF 		bl	sdc_lld_send_cmd_none
 312              	.LVL20:
 313              	.L26:
 314              		.loc 1 125 7 is_stmt 0 view .LVU76
 315              	.LBE104:
 316              	.LBE106:
 317              		.loc 1 641 3 is_stmt 1 view .LVU77
 318              		.loc 1 641 23 is_stmt 0 view .LVU78
 319 00c2 266B     		ldr	r6, [r4, #48]
 320 00c4 06F00F03 		and	r3, r6, #15
 321              		.loc 1 641 6 view .LVU79
 322 00c8 022B     		cmp	r3, #2
 323 00ca 29D0     		beq	.L25
 324              		.loc 1 647 5 is_stmt 1 view .LVU80
 325              	.LVL21:
 326              	.LBB107:
 327              	.LBI107:
 328              		.loc 1 180 13 view .LVU81
 329              	.LBB108:
 330              		.loc 1 181 3 view .LVU82
 331              		.loc 1 182 3 view .LVU83
 332              		.loc 1 183 3 view .LVU84
 333              		.loc 1 185 3 view .LVU85
 334              		.loc 1 189 9 is_stmt 0 view .LVU86
 335 00cc 7D4E     		ldr	r6, .L113+12
 336 00ce 7E4A     		ldr	r2, .L113+16
 337              		.loc 1 195 9 view .LVU87
 338 00d0 DFF8EC81 		ldr	r8, .L113+8
 339              		.loc 1 189 9 view .LVU88
 340 00d4 012B     		cmp	r3, #1
 341 00d6 18BF     		it	ne
 342 00d8 1646     		movne	r6, r2
ARM GAS  /tmp/ccBDDCqA.s 			page 7


 343              	.LVL22:
 344              		.loc 1 192 3 is_stmt 1 view .LVU89
 345              		.loc 1 189 9 is_stmt 0 view .LVU90
 346 00da 6425     		movs	r5, #100
 347 00dc 14E0     		b	.L37
 348              	.LVL23:
 349              	.L107:
 350              		.loc 1 195 9 view .LVU91
 351 00de BB68     		ldr	r3, [r7, #8]
 352              		.loc 1 194 70 view .LVU92
 353 00e0 13EA080F 		tst	r3, r8
 354 00e4 B8D1     		bne	.L20
 355              		.loc 1 198 5 is_stmt 1 view .LVU93
 356              		.loc 1 198 9 is_stmt 0 view .LVU94
 357 00e6 07F10803 		add	r3, r7, #8
 358 00ea 3246     		mov	r2, r6
 359 00ec 2921     		movs	r1, #41
 360 00ee 2046     		mov	r0, r4
 361 00f0 FFF7FEFF 		bl	sdc_lld_send_cmd_short
 362              	.LVL24:
 363              		.loc 1 198 8 view .LVU95
 364 00f4 0028     		cmp	r0, #0
 365 00f6 AFD1     		bne	.L20
 366              		.loc 1 201 5 is_stmt 1 view .LVU96
 367              		.loc 1 201 14 is_stmt 0 view .LVU97
 368 00f8 BB68     		ldr	r3, [r7, #8]
 369              		.loc 1 201 8 view .LVU98
 370 00fa 002B     		cmp	r3, #0
 371 00fc 25DB     		blt	.L102
 372              		.loc 1 207 5 is_stmt 1 view .LVU99
 373              	.LVL25:
 374              		.loc 1 207 8 is_stmt 0 view .LVU100
 375 00fe 013D     		subs	r5, r5, #1
 376              	.LVL26:
 377              		.loc 1 207 8 view .LVU101
 378 0100 AAD0     		beq	.L20
 379              		.loc 1 210 5 is_stmt 1 view .LVU102
 380              	.LVL27:
 381              	.LBB109:
 382              	.LBI109:
 383              		.file 2 ".//ChibiOS//os/hal/osal/rt/osal.h"
 384              		.loc 2 625 20 view .LVU103
 385              	.LBB110:
 386              		.loc 2 627 3 view .LVU104
 387 0102 0A20     		movs	r0, #10
 388 0104 FFF7FEFF 		bl	chThdSleep
 389              	.LVL28:
 390              	.L37:
 391              		.loc 2 627 3 is_stmt 0 view .LVU105
 392              	.LBE110:
 393              	.LBE109:
 394              		.loc 1 193 3 is_stmt 1 view .LVU106
 395              		.loc 1 194 5 view .LVU107
 396              		.loc 1 194 9 is_stmt 0 view .LVU108
 397 0108 07F10803 		add	r3, r7, #8
 398 010c 0022     		movs	r2, #0
 399 010e 3721     		movs	r1, #55
ARM GAS  /tmp/ccBDDCqA.s 			page 8


 400 0110 2046     		mov	r0, r4
 401 0112 FFF7FEFF 		bl	sdc_lld_send_cmd_short_crc
 402              	.LVL29:
 403              		.loc 1 194 8 view .LVU109
 404 0116 0028     		cmp	r0, #0
 405 0118 E1D0     		beq	.L107
 406 011a 9DE7     		b	.L20
 407              	.LVL30:
 408              	.L23:
 409              		.loc 1 194 8 view .LVU110
 410              	.LBE108:
 411              	.LBE107:
 412              	.LBB112:
 413              	.LBB105:
 414              		.loc 1 119 7 is_stmt 1 view .LVU111
 415              		.loc 1 119 22 is_stmt 0 view .LVU112
 416 011c 0223     		movs	r3, #2
 417 011e 2363     		str	r3, [r4, #48]
 418              	.LVL31:
 419              		.loc 1 119 22 view .LVU113
 420              	.LBE105:
 421              	.LBE112:
 422              		.loc 1 641 3 is_stmt 1 view .LVU114
 423              	.L25:
 424              	.LBB113:
 425              	.LBB114:
 426              		.loc 1 151 9 is_stmt 0 view .LVU115
 427 0120 6A4E     		ldr	r6, .L113+20
 428              	.LBE114:
 429              	.LBE113:
 430              		.loc 1 618 34 view .LVU116
 431 0122 6425     		movs	r5, #100
 432 0124 07E0     		b	.L32
 433              	.LVL32:
 434              	.L108:
 435              	.LBB118:
 436              	.LBB117:
 437              		.loc 1 154 5 is_stmt 1 view .LVU117
 438              		.loc 1 154 14 is_stmt 0 view .LVU118
 439 0126 BB68     		ldr	r3, [r7, #8]
 440              		.loc 1 154 8 view .LVU119
 441 0128 002B     		cmp	r3, #0
 442 012a 0EDB     		blt	.L102
 443              		.loc 1 160 5 is_stmt 1 view .LVU120
 444              	.LVL33:
 445              		.loc 1 160 8 is_stmt 0 view .LVU121
 446 012c 013D     		subs	r5, r5, #1
 447              	.LVL34:
 448              		.loc 1 160 8 view .LVU122
 449 012e 93D0     		beq	.L20
 450              		.loc 1 163 5 is_stmt 1 view .LVU123
 451              	.LVL35:
 452              	.LBB115:
 453              	.LBI115:
 454              		.loc 2 625 20 view .LVU124
 455              	.LBB116:
 456              		.loc 2 627 3 view .LVU125
ARM GAS  /tmp/ccBDDCqA.s 			page 9


 457 0130 0A20     		movs	r0, #10
 458 0132 FFF7FEFF 		bl	chThdSleep
 459              	.LVL36:
 460              	.L32:
 461              		.loc 2 627 3 is_stmt 0 view .LVU126
 462              	.LBE116:
 463              	.LBE115:
 464              		.loc 1 150 3 is_stmt 1 view .LVU127
 465              		.loc 1 151 5 view .LVU128
 466              		.loc 1 151 9 is_stmt 0 view .LVU129
 467 0136 07F10803 		add	r3, r7, #8
 468 013a 3246     		mov	r2, r6
 469 013c 0121     		movs	r1, #1
 470 013e 2046     		mov	r0, r4
 471 0140 FFF7FEFF 		bl	sdc_lld_send_cmd_short
 472              	.LVL37:
 473              		.loc 1 151 8 view .LVU130
 474 0144 0028     		cmp	r0, #0
 475 0146 EED0     		beq	.L108
 476 0148 86E7     		b	.L20
 477              	.LVL38:
 478              	.L102:
 479              		.loc 1 151 8 view .LVU131
 480              	.LBE117:
 481              	.LBE118:
 482              	.LBB119:
 483              	.LBB111:
 484              		.loc 1 202 7 is_stmt 1 view .LVU132
 485              		.loc 1 202 10 is_stmt 0 view .LVU133
 486 014a 5B00     		lsls	r3, r3, #1
 487 014c 03D5     		bpl	.L31
 488              		.loc 1 203 9 is_stmt 1 view .LVU134
 489              		.loc 1 203 24 is_stmt 0 view .LVU135
 490 014e 236B     		ldr	r3, [r4, #48]
 491 0150 43F01003 		orr	r3, r3, #16
 492 0154 2363     		str	r3, [r4, #48]
 493              	.L31:
 494              		.loc 1 203 24 view .LVU136
 495              	.LBE111:
 496              	.LBE119:
 497              		.loc 1 653 3 is_stmt 1 view .LVU137
 498              		.loc 1 653 7 is_stmt 0 view .LVU138
 499 0156 04F10803 		add	r3, r4, #8
 500 015a 0022     		movs	r2, #0
 501 015c 0221     		movs	r1, #2
 502 015e 2046     		mov	r0, r4
 503 0160 FFF7FEFF 		bl	sdc_lld_send_cmd_long_crc
 504              	.LVL39:
 505              		.loc 1 653 6 view .LVU139
 506 0164 0028     		cmp	r0, #0
 507 0166 7FF477AF 		bne	.L20
 508              		.loc 1 658 3 is_stmt 1 view .LVU140
 509              		.loc 1 658 7 is_stmt 0 view .LVU141
 510 016a 0246     		mov	r2, r0
 511 016c 04F13803 		add	r3, r4, #56
 512 0170 0321     		movs	r1, #3
 513 0172 2046     		mov	r0, r4
ARM GAS  /tmp/ccBDDCqA.s 			page 10


 514 0174 FFF7FEFF 		bl	sdc_lld_send_cmd_short_crc
 515              	.LVL40:
 516              		.loc 1 658 6 view .LVU142
 517 0178 0028     		cmp	r0, #0
 518 017a 7FF46DAF 		bne	.L20
 519              		.loc 1 664 3 is_stmt 1 view .LVU143
 520              		.loc 1 665 48 is_stmt 0 view .LVU144
 521 017e 04F11805 		add	r5, r4, #24
 522              		.loc 1 664 7 view .LVU145
 523 0182 A26B     		ldr	r2, [r4, #56]
 524 0184 2B46     		mov	r3, r5
 525 0186 0921     		movs	r1, #9
 526 0188 2046     		mov	r0, r4
 527 018a FFF7FEFF 		bl	sdc_lld_send_cmd_long_crc
 528              	.LVL41:
 529              		.loc 1 664 6 view .LVU146
 530 018e 0028     		cmp	r0, #0
 531 0190 7FF462AF 		bne	.L20
 532              		.loc 1 670 3 is_stmt 1 view .LVU147
 533              		.loc 1 670 7 is_stmt 0 view .LVU148
 534 0194 A26B     		ldr	r2, [r4, #56]
 535 0196 3B1D     		adds	r3, r7, #4
 536 0198 0721     		movs	r1, #7
 537 019a 2046     		mov	r0, r4
 538 019c FFF7FEFF 		bl	sdc_lld_send_cmd_short_crc
 539              	.LVL42:
 540              		.loc 1 670 6 view .LVU149
 541 01a0 0646     		mov	r6, r0
 542 01a2 0028     		cmp	r0, #0
 543 01a4 7FF458AF 		bne	.L20
 544              		.loc 1 676 3 is_stmt 1 view .LVU150
 545              	.LVL43:
 546              	.LBB120:
 547              	.LBI120:
 548              		.loc 1 406 13 view .LVU151
 549              	.LBB121:
 550              		.loc 1 408 3 view .LVU152
 551              		.loc 1 408 48 is_stmt 0 view .LVU153
 552 01a8 236B     		ldr	r3, [r4, #48]
 553 01aa 03F00F03 		and	r3, r3, #15
 554              		.loc 1 408 6 view .LVU154
 555 01ae 022B     		cmp	r3, #2
 556 01b0 6DD0     		beq	.L109
 557              		.loc 1 411 3 is_stmt 1 view .LVU155
 558              	.LVL44:
 559              	.LBB122:
 560              	.LBI122:
 561              		.loc 1 318 13 view .LVU156
 562              	.LBB123:
 563              		.loc 1 318 67 is_stmt 0 view .LVU157
 564 01b2 E846     		mov	r8, sp
 565              		.loc 1 319 3 is_stmt 1 view .LVU158
 566              		.loc 1 320 3 view .LVU159
 567              	.LVL45:
 568              		.loc 1 321 3 view .LVU160
 569              		.loc 1 328 13 is_stmt 0 view .LVU161
 570 01b4 7E22     		movs	r2, #126
ARM GAS  /tmp/ccBDDCqA.s 			page 11


 571              		.loc 1 321 11 view .LVU162
 572 01b6 90B0     		sub	sp, sp, #64
 573              		.loc 1 328 13 view .LVU163
 574 01b8 7F21     		movs	r1, #127
 575 01ba 2846     		mov	r0, r5
 576 01bc FFF7FEFF 		bl	_mmcsd_get_slice
 577              	.LVL46:
 578              		.loc 1 321 11 view .LVU164
 579 01c0 0DF10809 		add	r9, sp, #8
 580              	.LVL47:
 581              		.loc 1 324 3 is_stmt 1 view .LVU165
 582              		.loc 1 328 3 view .LVU166
 583              		.loc 1 328 6 is_stmt 0 view .LVU167
 584 01c4 0028     		cmp	r0, #0
 585 01c6 5FD0     		beq	.L44
 586              		.loc 1 334 3 is_stmt 1 view .LVU168
 587              		.loc 1 334 7 is_stmt 0 view .LVU169
 588 01c8 0096     		str	r6, [sp]
 589 01ca 0623     		movs	r3, #6
 590 01cc 4022     		movs	r2, #64
 591 01ce 4946     		mov	r1, r9
 592 01d0 2046     		mov	r0, r4
 593 01d2 FFF7FEFF 		bl	sdc_lld_read_special
 594              	.LVL48:
 595              		.loc 1 334 6 view .LVU170
 596 01d6 0028     		cmp	r0, #0
 597 01d8 40F0BE80 		bne	.L45
 598              		.loc 1 339 3 is_stmt 1 view .LVU171
 599              	.LVL49:
 600              	.LBB124:
 601              	.LBI124:
 602              		.loc 1 270 17 view .LVU172
 603              	.LBB125:
 604              		.loc 1 273 3 view .LVU173
 605              		.loc 1 275 3 view .LVU174
 606              		.loc 1 275 54 is_stmt 0 view .LVU175
 607 01dc 99F80D30 		ldrb	r3, [r9, #13]	@ zero_extendqisi2
 608              	.LBE125:
 609              	.LBE124:
 610              		.loc 1 339 6 view .LVU176
 611 01e0 13F00201 		ands	r1, r3, #2
 612 01e4 40F0BC80 		bne	.L110
 613              		.loc 1 339 6 view .LVU177
 614 01e8 C546     		mov	sp, r8
 615              	.LVL50:
 616              	.L43:
 617              		.loc 1 339 6 view .LVU178
 618              	.LBE123:
 619              	.LBE122:
 620              	.LBE121:
 621              	.LBE120:
 622              		.loc 1 679 3 is_stmt 1 view .LVU179
 623 01ea 2046     		mov	r0, r4
 624 01ec FFF7FEFF 		bl	sdc_lld_set_data_clk
 625              	.LVL51:
 626              		.loc 1 682 3 view .LVU180
 627              		.loc 1 682 48 is_stmt 0 view .LVU181
ARM GAS  /tmp/ccBDDCqA.s 			page 12


 628 01f0 236B     		ldr	r3, [r4, #48]
 629 01f2 03F00F03 		and	r3, r3, #15
 630              		.loc 1 682 6 view .LVU182
 631 01f6 022B     		cmp	r3, #2
 632 01f8 00F09080 		beq	.L111
 633              	.L49:
 634              		.loc 1 707 5 is_stmt 1 view .LVU183
 635              		.loc 1 707 22 is_stmt 0 view .LVU184
 636 01fc 2846     		mov	r0, r5
 637 01fe FFF7FEFF 		bl	_mmcsd_get_capacity
 638              	.LVL52:
 639              		.loc 1 707 20 view .LVU185
 640 0202 A062     		str	r0, [r4, #40]
 641              	.L51:
 642              		.loc 1 711 3 is_stmt 1 view .LVU186
 643              		.loc 1 711 7 is_stmt 0 view .LVU187
 644 0204 3B1D     		adds	r3, r7, #4
 645 0206 4FF40072 		mov	r2, #512
 646 020a 1021     		movs	r1, #16
 647 020c 2046     		mov	r0, r4
 648 020e FFF7FEFF 		bl	sdc_lld_send_cmd_short_crc
 649              	.LVL53:
 650              		.loc 1 711 6 view .LVU188
 651 0212 0546     		mov	r5, r0
 652 0214 0028     		cmp	r0, #0
 653 0216 7FF41FAF 		bne	.L20
 654              		.loc 1 713 7 view .LVU189
 655 021a 7B68     		ldr	r3, [r7, #4]
 656 021c 284E     		ldr	r6, .L113+8
 657              		.loc 1 712 58 view .LVU190
 658 021e 3342     		tst	r3, r6
 659 0220 7FF41AAF 		bne	.L20
 660              		.loc 1 718 3 is_stmt 1 view .LVU191
 661              		.loc 1 718 15 is_stmt 0 view .LVU192
 662 0224 236B     		ldr	r3, [r4, #48]
 663              		.loc 1 718 3 view .LVU193
 664 0226 13F00E0F 		tst	r3, #14
 665              		.loc 1 718 26 view .LVU194
 666 022a 03F00F02 		and	r2, r3, #15
 667              		.loc 1 718 3 view .LVU195
 668 022e 51D1     		bne	.L112
 669              		.loc 1 721 5 is_stmt 1 view .LVU196
 670              	.LVL54:
 671              	.LBB146:
 672              	.LBI146:
 673              		.loc 1 425 13 view .LVU197
 674              	.LBB147:
 675              		.loc 1 426 3 view .LVU198
 676              		.loc 1 428 3 view .LVU199
 677              		.loc 1 428 36 is_stmt 0 view .LVU200
 678 0230 E36A     		ldr	r3, [r4, #44]
 679 0232 1979     		ldrb	r1, [r3, #4]	@ zero_extendqisi2
 680              		.loc 1 428 6 view .LVU201
 681 0234 09B3     		cbz	r1, .L56
 682              		.loc 1 432 8 is_stmt 1 view .LVU202
 683              		.loc 1 432 11 is_stmt 0 view .LVU203
 684 0236 0129     		cmp	r1, #1
ARM GAS  /tmp/ccBDDCqA.s 			page 13


 685 0238 7FF40EAF 		bne	.L20
 686              		.loc 1 433 5 is_stmt 1 view .LVU204
 687 023c 2046     		mov	r0, r4
 688 023e FFF7FEFF 		bl	sdc_lld_set_bus_mode
 689              	.LVL55:
 690              		.loc 1 434 5 view .LVU205
 691              		.loc 1 434 9 is_stmt 0 view .LVU206
 692 0242 A26B     		ldr	r2, [r4, #56]
 693 0244 07F10803 		add	r3, r7, #8
 694 0248 3721     		movs	r1, #55
 695 024a 2046     		mov	r0, r4
 696 024c FFF7FEFF 		bl	sdc_lld_send_cmd_short_crc
 697              	.LVL56:
 698              		.loc 1 434 8 view .LVU207
 699 0250 0028     		cmp	r0, #0
 700 0252 7FF401AF 		bne	.L20
 701              		.loc 1 435 9 view .LVU208
 702 0256 BB68     		ldr	r3, [r7, #8]
 703              		.loc 1 434 78 view .LVU209
 704 0258 3342     		tst	r3, r6
 705 025a 7FF4FDAE 		bne	.L20
 706              		.loc 1 439 5 is_stmt 1 view .LVU210
 707              		.loc 1 439 9 is_stmt 0 view .LVU211
 708 025e 07F10803 		add	r3, r7, #8
 709 0262 0222     		movs	r2, #2
 710 0264 0621     		movs	r1, #6
 711 0266 2046     		mov	r0, r4
 712 0268 FFF7FEFF 		bl	sdc_lld_send_cmd_short_crc
 713              	.LVL57:
 714              		.loc 1 439 8 view .LVU212
 715 026c 0028     		cmp	r0, #0
 716 026e 7FF4F3AE 		bne	.L20
 717              		.loc 1 440 9 view .LVU213
 718 0272 BB68     		ldr	r3, [r7, #8]
 719              		.loc 1 439 76 view .LVU214
 720 0274 3342     		tst	r3, r6
 721 0276 7FF4EFAE 		bne	.L20
 722              	.LVL58:
 723              	.L56:
 724              		.loc 1 439 76 view .LVU215
 725              	.LBE147:
 726              	.LBE146:
 727              		.loc 1 736 3 is_stmt 1 view .LVU216
 728              		.loc 1 736 15 is_stmt 0 view .LVU217
 729 027a 0523     		movs	r3, #5
 730 027c 2371     		strb	r3, [r4, #4]
 731              		.loc 1 737 3 is_stmt 1 view .LVU218
 732              		.loc 1 737 10 is_stmt 0 view .LVU219
 733 027e F1E6     		b	.L61
 734              	.LVL59:
 735              	.L103:
 736              		.loc 1 622 3 is_stmt 1 discriminator 3 view .LVU220
 737 0280 0E48     		ldr	r0, .L113+4
 738              	.LVL60:
 739              		.loc 1 622 3 is_stmt 0 discriminator 3 view .LVU221
 740 0282 FFF7FEFF 		bl	chSysHalt
 741              	.LVL61:
ARM GAS  /tmp/ccBDDCqA.s 			page 14


 742 0286 C8E6     		b	.L16
 743              	.LVL62:
 744              	.L44:
 745              	.LBB148:
 746              	.LBB142:
 747              	.LBB132:
 748              	.LBB128:
 749              		.loc 1 329 10 view .LVU222
 750 0288 0146     		mov	r1, r0
 751 028a C546     		mov	sp, r8
 752              	.LVL63:
 753              		.loc 1 329 10 view .LVU223
 754 028c ADE7     		b	.L43
 755              	.LVL64:
 756              	.L109:
 757              		.loc 1 329 10 view .LVU224
 758              	.LBE128:
 759              	.LBE132:
 760              		.loc 1 409 5 is_stmt 1 view .LVU225
 761              	.LBB133:
 762              	.LBI133:
 763              		.loc 1 372 13 view .LVU226
 764              	.LBB134:
 765              		.loc 1 373 3 view .LVU227
 766              		.loc 1 374 3 view .LVU228
 767              		.loc 1 375 3 view .LVU229
 768              		.loc 1 378 3 view .LVU230
 769              		.loc 1 381 3 view .LVU231
 770              		.loc 1 375 12 is_stmt 0 view .LVU232
 771 028e E36A     		ldr	r3, [r4, #44]
 772              		.loc 1 381 6 view .LVU233
 773 0290 1B68     		ldr	r3, [r3]
 774 0292 002B     		cmp	r3, #0
 775 0294 62D0     		beq	.L42
 776              		.loc 1 385 3 is_stmt 1 view .LVU234
 777              	.LVL65:
 778              		.loc 1 385 3 is_stmt 0 view .LVU235
 779              	.LBE134:
 780              	.LBE133:
 781              	.LBE142:
 782              	.LBE148:
 783              		.loc 1 231 3 is_stmt 1 view .LVU236
 784              		.loc 1 231 3 view .LVU237
 785              		.loc 1 231 3 view .LVU238
 786              		.loc 1 231 3 view .LVU239
 787              		.loc 1 232 3 view .LVU240
 788              		.loc 1 232 3 view .LVU241
 789              		.loc 1 232 3 view .LVU242
 790              		.loc 1 232 3 view .LVU243
 791              		.loc 1 234 3 view .LVU244
 792              	.LBB149:
 793              	.LBB143:
 794              	.LBB137:
 795              	.LBB135:
 796              		.loc 1 386 3 view .LVU245
 797              		.loc 1 386 9 is_stmt 0 view .LVU246
 798 0296 0E4A     		ldr	r2, .L113+24
ARM GAS  /tmp/ccBDDCqA.s 			page 15


 799 0298 07F10803 		add	r3, r7, #8
 800 029c 0621     		movs	r1, #6
 801 029e 2046     		mov	r0, r4
 802 02a0 FFF7FEFF 		bl	sdc_lld_send_cmd_short_crc
 803              	.LVL66:
 804              		.loc 1 386 6 view .LVU247
 805 02a4 0028     		cmp	r0, #0
 806 02a6 59D1     		bne	.L42
 807              		.loc 1 387 36 view .LVU248
 808 02a8 BB68     		ldr	r3, [r7, #8]
 809 02aa 0549     		ldr	r1, .L113+8
 810 02ac 1940     		ands	r1, r1, r3
 811              		.loc 1 378 8 view .LVU249
 812 02ae B1FA81F1 		clz	r1, r1
 813 02b2 4909     		lsrs	r1, r1, #5
 814              	.LVL67:
 815              		.loc 1 378 8 view .LVU250
 816 02b4 99E7     		b	.L43
 817              	.L114:
 818 02b6 00BF     		.align	2
 819              	.L113:
 820 02b8 00000000 		.word	.LC1
 821 02bc 00000000 		.word	.LANCHOR1
 822 02c0 08E0FFFD 		.word	-33562616
 823 02c4 000010C0 		.word	-1072693248
 824 02c8 00001080 		.word	-2146435072
 825 02cc 0080FFC0 		.word	-1056997376
 826 02d0 0001B903 		.word	62456064
 827              	.LVL68:
 828              	.L112:
 829              		.loc 1 378 8 view .LVU251
 830              	.LBE135:
 831              	.LBE137:
 832              	.LBE143:
 833              	.LBE149:
 834              		.loc 1 718 3 view .LVU252
 835 02d4 022A     		cmp	r2, #2
 836 02d6 7FF4BFAE 		bne	.L20
 837              		.loc 1 726 5 is_stmt 1 view .LVU253
 838              	.LVL69:
 839              	.LBB150:
 840              	.LBI150:
 841              		.loc 1 463 13 view .LVU254
 842              	.LBB151:
 843              		.loc 1 464 3 view .LVU255
 844              		.loc 1 465 3 view .LVU256
 845              		.loc 1 465 3 is_stmt 0 view .LVU257
 846              	.LBE151:
 847              	.LBE150:
 848              		.loc 1 231 3 is_stmt 1 view .LVU258
 849              		.loc 1 231 3 view .LVU259
 850              		.loc 1 231 3 view .LVU260
 851              		.loc 1 231 3 view .LVU261
 852              		.loc 1 232 3 view .LVU262
 853              		.loc 1 232 3 view .LVU263
 854              		.loc 1 232 3 view .LVU264
 855              		.loc 1 232 3 view .LVU265
ARM GAS  /tmp/ccBDDCqA.s 			page 16


 856              		.loc 1 234 3 view .LVU266
 857              	.LBB155:
 858              	.LBB152:
 859              		.loc 1 467 3 view .LVU267
 860              		.loc 1 467 22 is_stmt 0 view .LVU268
 861 02da E36A     		ldr	r3, [r4, #44]
 862 02dc 1A79     		ldrb	r2, [r3, #4]	@ zero_extendqisi2
 863              		.loc 1 467 3 view .LVU269
 864 02de 012A     		cmp	r2, #1
 865 02e0 58D0     		beq	.L64
 866 02e2 022A     		cmp	r2, #2
 867 02e4 52D0     		beq	.L65
 868 02e6 002A     		cmp	r2, #0
 869 02e8 C7D0     		beq	.L56
 870              		.loc 1 478 5 is_stmt 1 view .LVU270
 871              		.loc 1 478 5 view .LVU271
 872              		.loc 1 478 5 view .LVU272
 873              		.loc 1 478 5 view .LVU273
 874 02ea 2B48     		ldr	r0, .L115
 875              		.loc 1 465 21 is_stmt 0 view .LVU274
 876 02ec 2B4E     		ldr	r6, .L115+4
 877              		.loc 1 478 5 view .LVU275
 878 02ee FFF7FEFF 		bl	chSysHalt
 879              	.LVL70:
 880              		.loc 1 478 5 is_stmt 1 view .LVU276
 881              		.loc 1 479 5 view .LVU277
 882 02f2 E36A     		ldr	r3, [r4, #44]
 883              	.L57:
 884              	.LVL71:
 885              		.loc 1 482 3 view .LVU278
 886 02f4 1979     		ldrb	r1, [r3, #4]	@ zero_extendqisi2
 887 02f6 2046     		mov	r0, r4
 888 02f8 FFF7FEFF 		bl	sdc_lld_set_bus_mode
 889              	.LVL72:
 890              		.loc 1 483 3 view .LVU279
 891              		.loc 1 483 7 is_stmt 0 view .LVU280
 892 02fc 07F10803 		add	r3, r7, #8
 893 0300 3246     		mov	r2, r6
 894 0302 0621     		movs	r1, #6
 895 0304 2046     		mov	r0, r4
 896 0306 FFF7FEFF 		bl	sdc_lld_send_cmd_short_crc
 897              	.LVL73:
 898              		.loc 1 483 6 view .LVU281
 899 030a 0028     		cmp	r0, #0
 900 030c 7FF4A4AE 		bne	.L20
 901              		.loc 1 484 7 view .LVU282
 902 0310 BA68     		ldr	r2, [r7, #8]
 903 0312 234B     		ldr	r3, .L115+8
 904 0314 1340     		ands	r3, r3, r2
 905              		.loc 1 483 72 view .LVU283
 906 0316 002B     		cmp	r3, #0
 907 0318 AFD0     		beq	.L56
 908 031a 9DE6     		b	.L20
 909              	.LVL74:
 910              	.L111:
 911              		.loc 1 483 72 view .LVU284
 912              	.LBE152:
ARM GAS  /tmp/ccBDDCqA.s 			page 17


 913              	.LBE155:
 914              		.loc 1 685 5 is_stmt 1 view .LVU285
 915              		.loc 1 685 9 is_stmt 0 view .LVU286
 916 031c 7E22     		movs	r2, #126
 917 031e 7F21     		movs	r1, #127
 918 0320 2846     		mov	r0, r5
 919 0322 FFF7FEFF 		bl	_mmcsd_get_slice
 920              	.LVL75:
 921              		.loc 1 685 8 view .LVU287
 922 0326 0128     		cmp	r0, #1
 923 0328 7FF668AF 		bls	.L49
 924              	.LBB156:
 925              		.loc 1 686 7 is_stmt 1 view .LVU288
 926              		.loc 1 686 16 is_stmt 0 view .LVU289
 927 032c E36A     		ldr	r3, [r4, #44]
 928 032e 1D68     		ldr	r5, [r3]
 929              	.LVL76:
 930              		.loc 1 689 7 is_stmt 1 view .LVU290
 931              		.loc 1 689 10 is_stmt 0 view .LVU291
 932 0330 002D     		cmp	r5, #0
 933 0332 3FF491AE 		beq	.L20
 934              		.loc 1 693 7 is_stmt 1 view .LVU292
 935              		.loc 1 693 10 is_stmt 0 view .LVU293
 936 0336 0023     		movs	r3, #0
 937 0338 0093     		str	r3, [sp]
 938 033a 4FF40072 		mov	r2, #512
 939 033e 0823     		movs	r3, #8
 940 0340 2946     		mov	r1, r5
 941 0342 2046     		mov	r0, r4
 942 0344 FFF7FEFF 		bl	sdc_lld_read_special
 943              	.LVL77:
 944              		.loc 1 693 9 view .LVU294
 945 0348 0028     		cmp	r0, #0
 946 034a 7FF485AE 		bne	.L20
 947              		.loc 1 698 7 is_stmt 1 view .LVU295
 948              		.loc 1 698 24 is_stmt 0 view .LVU296
 949 034e 2846     		mov	r0, r5
 950 0350 FFF7FEFF 		bl	_mmcsd_get_capacity_ext
 951              	.LVL78:
 952              		.loc 1 698 22 view .LVU297
 953 0354 A062     		str	r0, [r4, #40]
 954              	.LBE156:
 955 0356 55E7     		b	.L51
 956              	.LVL79:
 957              	.L45:
 958              	.LBB157:
 959              	.LBB144:
 960              	.LBB138:
 961              	.LBB129:
 962              		.loc 1 698 22 view .LVU298
 963 0358 C546     		mov	sp, r8
 964              	.LVL80:
 965              		.loc 1 698 22 view .LVU299
 966 035a 7DE6     		b	.L20
 967              	.LVL81:
 968              	.L42:
 969              		.loc 1 698 22 view .LVU300
ARM GAS  /tmp/ccBDDCqA.s 			page 18


 970              	.LBE129:
 971              	.LBE138:
 972              	.LBB139:
 973              	.LBB136:
 974              		.loc 1 378 8 view .LVU301
 975 035c 0021     		movs	r1, #0
 976 035e 44E7     		b	.L43
 977              	.LVL82:
 978              	.L110:
 979              		.loc 1 378 8 view .LVU302
 980              	.LBE136:
 981              	.LBE139:
 982              	.LBB140:
 983              	.LBB130:
 984              		.loc 1 341 5 is_stmt 1 view .LVU303
 985              		.loc 1 341 5 is_stmt 0 view .LVU304
 986              	.LBE130:
 987              	.LBE140:
 988              	.LBE144:
 989              	.LBE157:
 990              		.loc 1 251 3 is_stmt 1 view .LVU305
 991              		.loc 1 253 3 view .LVU306
 992              		.loc 1 253 3 view .LVU307
 993              		.loc 1 253 3 view .LVU308
 994              		.loc 1 253 3 view .LVU309
 995              		.loc 1 255 3 view .LVU310
 996              		.loc 1 256 3 view .LVU311
 997              		.loc 1 257 3 view .LVU312
 998              	.LBB158:
 999              	.LBB145:
 1000              	.LBB141:
 1001              	.LBB131:
 1002              		.loc 1 344 5 view .LVU313
 1003              		.loc 1 344 9 is_stmt 0 view .LVU314
 1004 0360 104B     		ldr	r3, .L115+12
 1005 0362 0093     		str	r3, [sp]
 1006 0364 4022     		movs	r2, #64
 1007 0366 0623     		movs	r3, #6
 1008 0368 4946     		mov	r1, r9
 1009 036a 2046     		mov	r0, r4
 1010 036c FFF7FEFF 		bl	sdc_lld_read_special
 1011              	.LVL83:
 1012              		.loc 1 344 8 view .LVU315
 1013 0370 0028     		cmp	r0, #0
 1014 0372 F1D1     		bne	.L45
 1015              		.loc 1 349 5 is_stmt 1 view .LVU316
 1016              	.LVL84:
 1017              	.LBB126:
 1018              	.LBI126:
 1019              		.loc 1 290 13 view .LVU317
 1020              	.LBB127:
 1021              		.loc 1 293 3 view .LVU318
 1022              		.loc 1 294 3 view .LVU319
 1023              		.loc 1 296 3 view .LVU320
 1024              		.loc 1 299 3 view .LVU321
 1025              		.loc 1 300 3 view .LVU322
 1026              		.loc 1 298 9 is_stmt 0 view .LVU323
ARM GAS  /tmp/ccBDDCqA.s 			page 19


 1027 0374 99F81030 		ldrb	r3, [r9, #16]	@ zero_extendqisi2
 1028              		.loc 1 299 10 view .LVU324
 1029 0378 03F00F03 		and	r3, r3, #15
 1030              		.loc 1 300 6 view .LVU325
 1031 037c 0F2B     		cmp	r3, #15
 1032 037e 02D0     		beq	.L48
 1033              		.loc 1 301 5 is_stmt 1 view .LVU326
 1034              	.LVL85:
 1035              		.loc 1 301 5 is_stmt 0 view .LVU327
 1036              	.LBE127:
 1037              	.LBE126:
 1038              		.loc 1 350 7 is_stmt 1 view .LVU328
 1039              		.loc 1 350 12 is_stmt 0 view .LVU329
 1040 0380 0121     		movs	r1, #1
 1041 0382 C546     		mov	sp, r8
 1042              	.LVL86:
 1043              		.loc 1 350 12 view .LVU330
 1044 0384 31E7     		b	.L43
 1045              	.LVL87:
 1046              	.L48:
 1047              		.loc 1 353 12 view .LVU331
 1048 0386 0021     		movs	r1, #0
 1049 0388 C546     		mov	sp, r8
 1050              	.LVL88:
 1051              		.loc 1 353 12 view .LVU332
 1052 038a 2EE7     		b	.L43
 1053              	.LVL89:
 1054              	.L65:
 1055              		.loc 1 353 12 view .LVU333
 1056              	.LBE131:
 1057              	.LBE141:
 1058              	.LBE145:
 1059              	.LBE158:
 1060              	.LBB159:
 1061              	.LBB153:
 1062              		.loc 1 467 3 view .LVU334
 1063 038c 064E     		ldr	r6, .L115+16
 1064 038e B1E7     		b	.L57
 1065              	.LVL90:
 1066              	.L106:
 1067              		.loc 1 467 3 view .LVU335
 1068              	.LBE153:
 1069              	.LBE159:
 1070              		.loc 1 744 1 view .LVU336
 1071 0390 FFF7FEFF 		bl	__stack_chk_fail
 1072              	.LVL91:
 1073              	.L64:
 1074              	.LBB160:
 1075              	.LBB154:
 1076              		.loc 1 472 14 view .LVU337
 1077 0394 054E     		ldr	r6, .L115+20
 1078 0396 ADE7     		b	.L57
 1079              	.L116:
 1080              		.align	2
 1081              	.L115:
 1082 0398 00000000 		.word	.LANCHOR2
 1083 039c 0000B703 		.word	62324736
ARM GAS  /tmp/ccBDDCqA.s 			page 20


 1084 03a0 08E0FFFD 		.word	-33562616
 1085 03a4 F1FFFF80 		.word	-2130706447
 1086 03a8 0002B703 		.word	62325248
 1087 03ac 0001B703 		.word	62324992
 1088              	.LBE154:
 1089              	.LBE160:
 1090              		.cfi_endproc
 1091              	.LFE273:
 1092              		.size	sdcConnect, .-sdcConnect
 1093              		.section	.rodata.sdcRead.cst4,"aM",%progbits,4
 1094              		.align	2
 1095              	.LC2:
 1096 0000 00000000 		.word	__stack_chk_guard
 1097              		.section	.text.sdcRead,"ax",%progbits
 1098              		.align	1
 1099              		.p2align 4,,15
 1100              		.global	sdcRead
 1101              		.syntax unified
 1102              		.thumb
 1103              		.thumb_func
 1104              		.fpu fpv4-sp-d16
 1105              		.type	sdcRead, %function
 1106              	sdcRead:
 1107              	.LVL92:
 1108              	.LFB275:
 1109              		.loc 1 800 76 is_stmt 1 view -0
 1110              		.cfi_startproc
 1111              		@ args = 0, pretend = 0, frame = 8
 1112              		@ frame_needed = 0, uses_anonymous_args = 0
 1113              		.loc 1 800 76 is_stmt 0 view .LVU339
 1114 0000 F0B5     		push	{r4, r5, r6, r7, lr}
 1115              		.cfi_def_cfa_offset 20
 1116              		.cfi_offset 4, -20
 1117              		.cfi_offset 5, -16
 1118              		.cfi_offset 6, -12
 1119              		.cfi_offset 7, -8
 1120              		.cfi_offset 14, -4
 1121 0002 1D46     		mov	r5, r3
 1122 0004 194B     		ldr	r3, .L135
 1123              	.LVL93:
 1124              		.loc 1 800 76 view .LVU340
 1125 0006 83B0     		sub	sp, sp, #12
 1126              		.cfi_def_cfa_offset 32
 1127              		.loc 1 800 76 view .LVU341
 1128 0008 0E46     		mov	r6, r1
 1129 000a 1746     		mov	r7, r2
 1130 000c 1B68     		ldr	r3, [r3]
 1131 000e 0193     		str	r3, [sp, #4]
 1132 0010 4FF00003 		mov	r3,#0
 1133              		.loc 1 801 3 is_stmt 1 view .LVU342
 1134              		.loc 1 803 3 view .LVU343
 1135              		.loc 1 803 3 view .LVU344
 1136              		.loc 1 803 3 view .LVU345
 1137 0014 0446     		mov	r4, r0
 1138 0016 C0B1     		cbz	r0, .L118
 1139              		.loc 1 803 3 is_stmt 0 discriminator 4 view .LVU346
 1140 0018 BAB1     		cbz	r2, .L118
ARM GAS  /tmp/ccBDDCqA.s 			page 21


 1141              		.loc 1 803 3 discriminator 6 view .LVU347
 1142 001a B5B1     		cbz	r5, .L118
 1143              	.LVL94:
 1144              	.L119:
 1145              		.loc 1 803 3 is_stmt 1 discriminator 1 view .LVU348
 1146              		.loc 1 804 3 discriminator 1 view .LVU349
 1147              		.loc 1 804 3 discriminator 1 view .LVU350
 1148              		.loc 1 804 3 discriminator 1 view .LVU351
 1149 001c 2379     		ldrb	r3, [r4, #4]	@ zero_extendqisi2
 1150 001e 052B     		cmp	r3, #5
 1151 0020 02D0     		beq	.L120
 1152              		.loc 1 804 3 discriminator 3 view .LVU352
 1153 0022 1348     		ldr	r0, .L135+4
 1154 0024 FFF7FEFF 		bl	chSysHalt
 1155              	.LVL95:
 1156              	.L120:
 1157              		.loc 1 804 3 discriminator 5 view .LVU353
 1158              		.loc 1 806 3 discriminator 5 view .LVU354
 1159              		.loc 1 806 6 is_stmt 0 discriminator 5 view .LVU355
 1160 0028 A36A     		ldr	r3, [r4, #40]
 1161              		.loc 1 806 21 discriminator 5 view .LVU356
 1162 002a 701E     		subs	r0, r6, #1
 1163 002c 2844     		add	r0, r0, r5
 1164              		.loc 1 806 6 discriminator 5 view .LVU357
 1165 002e 9842     		cmp	r0, r3
 1166 0030 0FD9     		bls	.L121
 1167              		.loc 1 807 5 is_stmt 1 view .LVU358
 1168              		.loc 1 807 18 is_stmt 0 view .LVU359
 1169 0032 636B     		ldr	r3, [r4, #52]
 1170 0034 43F08003 		orr	r3, r3, #128
 1171 0038 6363     		str	r3, [r4, #52]
 1172              		.loc 1 808 5 is_stmt 1 view .LVU360
 1173              		.loc 1 808 12 is_stmt 0 view .LVU361
 1174 003a 0120     		movs	r0, #1
 1175              	.L122:
 1176              		.loc 1 819 1 view .LVU362
 1177 003c 0B4B     		ldr	r3, .L135
 1178 003e 1A68     		ldr	r2, [r3]
 1179 0040 019B     		ldr	r3, [sp, #4]
 1180 0042 5A40     		eors	r2, r3, r2
 1181 0044 10D1     		bne	.L134
 1182 0046 03B0     		add	sp, sp, #12
 1183              		.cfi_remember_state
 1184              		.cfi_def_cfa_offset 20
 1185              		@ sp needed
 1186 0048 F0BD     		pop	{r4, r5, r6, r7, pc}
 1187              	.LVL96:
 1188              	.L118:
 1189              		.cfi_restore_state
 1190              		.loc 1 803 3 is_stmt 1 discriminator 7 view .LVU363
 1191 004a 0948     		ldr	r0, .L135+4
 1192              	.LVL97:
 1193              		.loc 1 803 3 is_stmt 0 discriminator 7 view .LVU364
 1194 004c FFF7FEFF 		bl	chSysHalt
 1195              	.LVL98:
 1196              		.loc 1 803 3 discriminator 7 view .LVU365
 1197 0050 E4E7     		b	.L119
ARM GAS  /tmp/ccBDDCqA.s 			page 22


 1198              	.L121:
 1199              	.LVL99:
 1200              	.LBB163:
 1201              	.LBI163:
 1202              		.loc 1 800 6 is_stmt 1 view .LVU366
 1203              	.LBB164:
 1204              		.loc 1 812 3 view .LVU367
 1205              		.loc 1 812 15 is_stmt 0 view .LVU368
 1206 0052 0620     		movs	r0, #6
 1207              		.loc 1 814 12 view .LVU369
 1208 0054 2B46     		mov	r3, r5
 1209              		.loc 1 812 15 view .LVU370
 1210 0056 2071     		strb	r0, [r4, #4]
 1211              		.loc 1 814 3 is_stmt 1 view .LVU371
 1212              		.loc 1 814 12 is_stmt 0 view .LVU372
 1213 0058 3A46     		mov	r2, r7
 1214 005a 3146     		mov	r1, r6
 1215 005c 2046     		mov	r0, r4
 1216 005e FFF7FEFF 		bl	sdc_lld_read
 1217              	.LVL100:
 1218              		.loc 1 817 15 view .LVU373
 1219 0062 0523     		movs	r3, #5
 1220              	.LVL101:
 1221              		.loc 1 817 3 is_stmt 1 view .LVU374
 1222              		.loc 1 817 15 is_stmt 0 view .LVU375
 1223 0064 2371     		strb	r3, [r4, #4]
 1224              		.loc 1 818 3 is_stmt 1 view .LVU376
 1225              	.LVL102:
 1226              		.loc 1 818 3 is_stmt 0 view .LVU377
 1227 0066 E9E7     		b	.L122
 1228              	.L134:
 1229              		.loc 1 818 3 view .LVU378
 1230              	.LBE164:
 1231              	.LBE163:
 1232              		.loc 1 819 1 view .LVU379
 1233 0068 FFF7FEFF 		bl	__stack_chk_fail
 1234              	.LVL103:
 1235              	.L136:
 1236              		.align	2
 1237              	.L135:
 1238 006c 00000000 		.word	.LC2
 1239 0070 00000000 		.word	.LANCHOR3
 1240              		.cfi_endproc
 1241              	.LFE275:
 1242              		.size	sdcRead, .-sdcRead
 1243              		.section	.rodata.sdcWrite.cst4,"aM",%progbits,4
 1244              		.align	2
 1245              	.LC3:
 1246 0000 00000000 		.word	__stack_chk_guard
 1247              		.section	.text.sdcWrite,"ax",%progbits
 1248              		.align	1
 1249              		.p2align 4,,15
 1250              		.global	sdcWrite
 1251              		.syntax unified
 1252              		.thumb
 1253              		.thumb_func
 1254              		.fpu fpv4-sp-d16
ARM GAS  /tmp/ccBDDCqA.s 			page 23


 1255              		.type	sdcWrite, %function
 1256              	sdcWrite:
 1257              	.LVL104:
 1258              	.LFB276:
 1259              		.loc 1 838 47 is_stmt 1 view -0
 1260              		.cfi_startproc
 1261              		@ args = 0, pretend = 0, frame = 8
 1262              		@ frame_needed = 0, uses_anonymous_args = 0
 1263              		.loc 1 838 47 is_stmt 0 view .LVU381
 1264 0000 F0B5     		push	{r4, r5, r6, r7, lr}
 1265              		.cfi_def_cfa_offset 20
 1266              		.cfi_offset 4, -20
 1267              		.cfi_offset 5, -16
 1268              		.cfi_offset 6, -12
 1269              		.cfi_offset 7, -8
 1270              		.cfi_offset 14, -4
 1271 0002 1D46     		mov	r5, r3
 1272 0004 194B     		ldr	r3, .L155
 1273              	.LVL105:
 1274              		.loc 1 838 47 view .LVU382
 1275 0006 83B0     		sub	sp, sp, #12
 1276              		.cfi_def_cfa_offset 32
 1277              		.loc 1 838 47 view .LVU383
 1278 0008 0E46     		mov	r6, r1
 1279 000a 1746     		mov	r7, r2
 1280 000c 1B68     		ldr	r3, [r3]
 1281 000e 0193     		str	r3, [sp, #4]
 1282 0010 4FF00003 		mov	r3,#0
 1283              		.loc 1 839 3 is_stmt 1 view .LVU384
 1284              		.loc 1 841 3 view .LVU385
 1285              		.loc 1 841 3 view .LVU386
 1286              		.loc 1 841 3 view .LVU387
 1287 0014 0446     		mov	r4, r0
 1288 0016 C0B1     		cbz	r0, .L138
 1289              		.loc 1 841 3 is_stmt 0 discriminator 4 view .LVU388
 1290 0018 BAB1     		cbz	r2, .L138
 1291              		.loc 1 841 3 discriminator 6 view .LVU389
 1292 001a B5B1     		cbz	r5, .L138
 1293              	.LVL106:
 1294              	.L139:
 1295              		.loc 1 841 3 is_stmt 1 discriminator 1 view .LVU390
 1296              		.loc 1 842 3 discriminator 1 view .LVU391
 1297              		.loc 1 842 3 discriminator 1 view .LVU392
 1298              		.loc 1 842 3 discriminator 1 view .LVU393
 1299 001c 2379     		ldrb	r3, [r4, #4]	@ zero_extendqisi2
 1300 001e 052B     		cmp	r3, #5
 1301 0020 02D0     		beq	.L140
 1302              		.loc 1 842 3 discriminator 3 view .LVU394
 1303 0022 1348     		ldr	r0, .L155+4
 1304 0024 FFF7FEFF 		bl	chSysHalt
 1305              	.LVL107:
 1306              	.L140:
 1307              		.loc 1 842 3 discriminator 5 view .LVU395
 1308              		.loc 1 844 3 discriminator 5 view .LVU396
 1309              		.loc 1 844 6 is_stmt 0 discriminator 5 view .LVU397
 1310 0028 A36A     		ldr	r3, [r4, #40]
 1311              		.loc 1 844 21 discriminator 5 view .LVU398
ARM GAS  /tmp/ccBDDCqA.s 			page 24


 1312 002a 701E     		subs	r0, r6, #1
 1313 002c 2844     		add	r0, r0, r5
 1314              		.loc 1 844 6 discriminator 5 view .LVU399
 1315 002e 9842     		cmp	r0, r3
 1316 0030 0FD9     		bls	.L141
 1317              		.loc 1 845 5 is_stmt 1 view .LVU400
 1318              		.loc 1 845 18 is_stmt 0 view .LVU401
 1319 0032 636B     		ldr	r3, [r4, #52]
 1320 0034 43F08003 		orr	r3, r3, #128
 1321 0038 6363     		str	r3, [r4, #52]
 1322              		.loc 1 846 5 is_stmt 1 view .LVU402
 1323              		.loc 1 846 12 is_stmt 0 view .LVU403
 1324 003a 0120     		movs	r0, #1
 1325              	.L142:
 1326              		.loc 1 857 1 view .LVU404
 1327 003c 0B4B     		ldr	r3, .L155
 1328 003e 1A68     		ldr	r2, [r3]
 1329 0040 019B     		ldr	r3, [sp, #4]
 1330 0042 5A40     		eors	r2, r3, r2
 1331 0044 10D1     		bne	.L154
 1332 0046 03B0     		add	sp, sp, #12
 1333              		.cfi_remember_state
 1334              		.cfi_def_cfa_offset 20
 1335              		@ sp needed
 1336 0048 F0BD     		pop	{r4, r5, r6, r7, pc}
 1337              	.LVL108:
 1338              	.L138:
 1339              		.cfi_restore_state
 1340              		.loc 1 841 3 is_stmt 1 discriminator 7 view .LVU405
 1341 004a 0948     		ldr	r0, .L155+4
 1342              	.LVL109:
 1343              		.loc 1 841 3 is_stmt 0 discriminator 7 view .LVU406
 1344 004c FFF7FEFF 		bl	chSysHalt
 1345              	.LVL110:
 1346              		.loc 1 841 3 discriminator 7 view .LVU407
 1347 0050 E4E7     		b	.L139
 1348              	.L141:
 1349              	.LVL111:
 1350              	.LBB167:
 1351              	.LBI167:
 1352              		.loc 1 837 6 is_stmt 1 view .LVU408
 1353              	.LBB168:
 1354              		.loc 1 850 3 view .LVU409
 1355              		.loc 1 850 15 is_stmt 0 view .LVU410
 1356 0052 0720     		movs	r0, #7
 1357              		.loc 1 852 12 view .LVU411
 1358 0054 2B46     		mov	r3, r5
 1359              		.loc 1 850 15 view .LVU412
 1360 0056 2071     		strb	r0, [r4, #4]
 1361              		.loc 1 852 3 is_stmt 1 view .LVU413
 1362              		.loc 1 852 12 is_stmt 0 view .LVU414
 1363 0058 3A46     		mov	r2, r7
 1364 005a 3146     		mov	r1, r6
 1365 005c 2046     		mov	r0, r4
 1366 005e FFF7FEFF 		bl	sdc_lld_write
 1367              	.LVL112:
 1368              		.loc 1 855 15 view .LVU415
ARM GAS  /tmp/ccBDDCqA.s 			page 25


 1369 0062 0523     		movs	r3, #5
 1370              	.LVL113:
 1371              		.loc 1 855 3 is_stmt 1 view .LVU416
 1372              		.loc 1 855 15 is_stmt 0 view .LVU417
 1373 0064 2371     		strb	r3, [r4, #4]
 1374              		.loc 1 856 3 is_stmt 1 view .LVU418
 1375              	.LVL114:
 1376              		.loc 1 856 3 is_stmt 0 view .LVU419
 1377 0066 E9E7     		b	.L142
 1378              	.L154:
 1379              		.loc 1 856 3 view .LVU420
 1380              	.LBE168:
 1381              	.LBE167:
 1382              		.loc 1 857 1 view .LVU421
 1383 0068 FFF7FEFF 		bl	__stack_chk_fail
 1384              	.LVL115:
 1385              	.L156:
 1386              		.align	2
 1387              	.L155:
 1388 006c 00000000 		.word	.LC3
 1389 0070 00000000 		.word	.LANCHOR4
 1390              		.cfi_endproc
 1391              	.LFE276:
 1392              		.size	sdcWrite, .-sdcWrite
 1393              		.section	.rodata.sdcSync.cst4,"aM",%progbits,4
 1394              		.align	2
 1395              	.LC4:
 1396 0000 00000000 		.word	__stack_chk_guard
 1397              		.section	.text.sdcSync,"ax",%progbits
 1398              		.align	1
 1399              		.p2align 4,,15
 1400              		.global	sdcSync
 1401              		.syntax unified
 1402              		.thumb
 1403              		.thumb_func
 1404              		.fpu fpv4-sp-d16
 1405              		.type	sdcSync, %function
 1406              	sdcSync:
 1407              	.LVL116:
 1408              	.LFB278:
 1409              		.loc 1 891 31 is_stmt 1 view -0
 1410              		.cfi_startproc
 1411              		@ args = 0, pretend = 0, frame = 8
 1412              		@ frame_needed = 0, uses_anonymous_args = 0
 1413              		.loc 1 891 31 is_stmt 0 view .LVU423
 1414 0000 30B5     		push	{r4, r5, lr}
 1415              		.cfi_def_cfa_offset 12
 1416              		.cfi_offset 4, -12
 1417              		.cfi_offset 5, -8
 1418              		.cfi_offset 14, -4
 1419 0002 104B     		ldr	r3, .L166
 1420 0004 83B0     		sub	sp, sp, #12
 1421              		.cfi_def_cfa_offset 24
 1422              		.loc 1 891 31 view .LVU424
 1423 0006 1B68     		ldr	r3, [r3]
 1424 0008 0193     		str	r3, [sp, #4]
 1425 000a 4FF00003 		mov	r3,#0
ARM GAS  /tmp/ccBDDCqA.s 			page 26


 1426              		.loc 1 892 3 is_stmt 1 view .LVU425
 1427              		.loc 1 894 3 view .LVU426
 1428              		.loc 1 894 3 view .LVU427
 1429              		.loc 1 894 3 view .LVU428
 1430 000e 0446     		mov	r4, r0
 1431 0010 88B1     		cbz	r0, .L163
 1432              	.LVL117:
 1433              	.L158:
 1434              		.loc 1 894 3 discriminator 5 view .LVU429
 1435              		.loc 1 896 3 discriminator 5 view .LVU430
 1436              		.loc 1 896 6 is_stmt 0 discriminator 5 view .LVU431
 1437 0012 2579     		ldrb	r5, [r4, #4]	@ zero_extendqisi2
 1438 0014 052D     		cmp	r5, #5
 1439 0016 07D0     		beq	.L164
 1440              		.loc 1 897 12 view .LVU432
 1441 0018 0120     		movs	r0, #1
 1442              	.L159:
 1443              		.loc 1 908 1 view .LVU433
 1444 001a 0A4B     		ldr	r3, .L166
 1445 001c 1A68     		ldr	r2, [r3]
 1446 001e 019B     		ldr	r3, [sp, #4]
 1447 0020 5A40     		eors	r2, r3, r2
 1448 0022 0CD1     		bne	.L165
 1449 0024 03B0     		add	sp, sp, #12
 1450              		.cfi_remember_state
 1451              		.cfi_def_cfa_offset 12
 1452              		@ sp needed
 1453 0026 30BD     		pop	{r4, r5, pc}
 1454              	.LVL118:
 1455              	.L164:
 1456              		.cfi_restore_state
 1457              	.LBB171:
 1458              	.LBI171:
 1459              		.loc 1 891 6 is_stmt 1 view .LVU434
 1460              	.LBB172:
 1461              		.loc 1 901 3 view .LVU435
 1462              		.loc 1 901 15 is_stmt 0 view .LVU436
 1463 0028 0823     		movs	r3, #8
 1464 002a 2371     		strb	r3, [r4, #4]
 1465              		.loc 1 903 3 is_stmt 1 view .LVU437
 1466              		.loc 1 903 12 is_stmt 0 view .LVU438
 1467 002c 2046     		mov	r0, r4
 1468 002e FFF7FEFF 		bl	sdc_lld_sync
 1469              	.LVL119:
 1470              		.loc 1 906 3 is_stmt 1 view .LVU439
 1471              		.loc 1 906 15 is_stmt 0 view .LVU440
 1472 0032 2571     		strb	r5, [r4, #4]
 1473              		.loc 1 907 3 is_stmt 1 view .LVU441
 1474              	.LVL120:
 1475              		.loc 1 907 3 is_stmt 0 view .LVU442
 1476 0034 F1E7     		b	.L159
 1477              	.LVL121:
 1478              	.L163:
 1479              		.loc 1 907 3 view .LVU443
 1480              	.LBE172:
 1481              	.LBE171:
 1482              		.loc 1 894 3 is_stmt 1 discriminator 3 view .LVU444
ARM GAS  /tmp/ccBDDCqA.s 			page 27


 1483 0036 0448     		ldr	r0, .L166+4
 1484              	.LVL122:
 1485              		.loc 1 894 3 is_stmt 0 discriminator 3 view .LVU445
 1486 0038 FFF7FEFF 		bl	chSysHalt
 1487              	.LVL123:
 1488 003c E9E7     		b	.L158
 1489              	.L165:
 1490              		.loc 1 908 1 view .LVU446
 1491 003e FFF7FEFF 		bl	__stack_chk_fail
 1492              	.LVL124:
 1493              	.L167:
 1494 0042 00BF     		.align	2
 1495              	.L166:
 1496 0044 00000000 		.word	.LC4
 1497 0048 00000000 		.word	.LANCHOR5
 1498              		.cfi_endproc
 1499              	.LFE278:
 1500              		.size	sdcSync, .-sdcSync
 1501              		.section	.rodata._sdc_wait_for_transfer_state.cst4,"aM",%progbits,4
 1502              		.align	2
 1503              	.LC5:
 1504 0000 00000000 		.word	__stack_chk_guard
 1505              		.section	.text._sdc_wait_for_transfer_state,"ax",%progbits
 1506              		.align	1
 1507              		.p2align 4,,15
 1508              		.global	_sdc_wait_for_transfer_state
 1509              		.syntax unified
 1510              		.thumb
 1511              		.thumb_func
 1512              		.fpu fpv4-sp-d16
 1513              		.type	_sdc_wait_for_transfer_state, %function
 1514              	_sdc_wait_for_transfer_state:
 1515              	.LVL125:
 1516              	.LFB268:
 1517              		.loc 1 502 52 is_stmt 1 view -0
 1518              		.cfi_startproc
 1519              		@ args = 0, pretend = 0, frame = 8
 1520              		@ frame_needed = 0, uses_anonymous_args = 0
 1521              		.loc 1 502 52 is_stmt 0 view .LVU448
 1522 0000 30B5     		push	{r4, r5, lr}
 1523              		.cfi_def_cfa_offset 12
 1524              		.cfi_offset 4, -12
 1525              		.cfi_offset 5, -8
 1526              		.cfi_offset 14, -4
 1527 0002 144B     		ldr	r3, .L180
 1528              		.loc 1 508 9 view .LVU449
 1529 0004 144D     		ldr	r5, .L180+4
 1530              		.loc 1 502 52 view .LVU450
 1531 0006 83B0     		sub	sp, sp, #12
 1532              		.cfi_def_cfa_offset 24
 1533              		.loc 1 502 52 view .LVU451
 1534 0008 1B68     		ldr	r3, [r3]
 1535 000a 0193     		str	r3, [sp, #4]
 1536 000c 4FF00003 		mov	r3,#0
 1537 0010 0446     		mov	r4, r0
 1538 0012 06E0     		b	.L170
 1539              	.LVL126:
ARM GAS  /tmp/ccBDDCqA.s 			page 28


 1540              	.L178:
 1541              		.loc 1 512 5 view .LVU452
 1542 0014 053B     		subs	r3, r3, #5
 1543 0016 022B     		cmp	r3, #2
 1544              	.LBB173:
 1545              	.LBB174:
 1546              		.loc 2 627 3 view .LVU453
 1547 0018 4FF00100 		mov	r0, #1
 1548              	.LBE174:
 1549              	.LBE173:
 1550              		.loc 1 512 5 view .LVU454
 1551 001c 0FD8     		bhi	.L169
 1552              		.loc 1 519 7 is_stmt 1 view .LVU455
 1553              	.LVL127:
 1554              	.LBB176:
 1555              	.LBI173:
 1556              		.loc 2 625 20 view .LVU456
 1557              	.LBB175:
 1558              		.loc 2 627 3 view .LVU457
 1559 001e FFF7FEFF 		bl	chThdSleep
 1560              	.LVL128:
 1561              		.loc 2 627 3 is_stmt 0 view .LVU458
 1562              	.LBE175:
 1563              	.LBE176:
 1564              		.loc 1 521 7 is_stmt 1 view .LVU459
 1565              		.loc 1 505 9 view .LVU460
 1566              	.L170:
 1567              		.loc 1 503 3 view .LVU461
 1568              		.loc 1 505 3 view .LVU462
 1569              		.loc 1 506 5 view .LVU463
 1570              		.loc 1 506 9 is_stmt 0 view .LVU464
 1571 0022 A26B     		ldr	r2, [r4, #56]
 1572 0024 6B46     		mov	r3, sp
 1573 0026 0D21     		movs	r1, #13
 1574 0028 2046     		mov	r0, r4
 1575 002a FFF7FEFF 		bl	sdc_lld_send_cmd_short_crc
 1576              	.LVL129:
 1577              		.loc 1 506 8 view .LVU465
 1578 002e 30B9     		cbnz	r0, .L169
 1579              		.loc 1 508 9 view .LVU466
 1580 0030 009B     		ldr	r3, [sp]
 1581              		.loc 1 507 53 view .LVU467
 1582 0032 2B42     		tst	r3, r5
 1583 0034 0AD1     		bne	.L172
 1584              		.loc 1 512 5 is_stmt 1 view .LVU468
 1585              		.loc 1 512 13 is_stmt 0 view .LVU469
 1586 0036 C3F34323 		ubfx	r3, r3, #9, #4
 1587              		.loc 1 512 5 view .LVU470
 1588 003a 042B     		cmp	r3, #4
 1589 003c EAD1     		bne	.L178
 1590              	.L169:
 1591              		.loc 1 528 1 view .LVU471
 1592 003e 054B     		ldr	r3, .L180
 1593 0040 1A68     		ldr	r2, [r3]
 1594 0042 019B     		ldr	r3, [sp, #4]
 1595 0044 5A40     		eors	r2, r3, r2
 1596 0046 03D1     		bne	.L179
ARM GAS  /tmp/ccBDDCqA.s 			page 29


 1597 0048 03B0     		add	sp, sp, #12
 1598              		.cfi_remember_state
 1599              		.cfi_def_cfa_offset 12
 1600              		@ sp needed
 1601 004a 30BD     		pop	{r4, r5, pc}
 1602              	.LVL130:
 1603              	.L172:
 1604              		.cfi_restore_state
 1605              		.loc 1 509 14 view .LVU472
 1606 004c 0120     		movs	r0, #1
 1607 004e F6E7     		b	.L169
 1608              	.L179:
 1609              		.loc 1 528 1 view .LVU473
 1610 0050 FFF7FEFF 		bl	__stack_chk_fail
 1611              	.LVL131:
 1612              	.L181:
 1613              		.align	2
 1614              	.L180:
 1615 0054 00000000 		.word	.LC5
 1616 0058 08E0FFFD 		.word	-33562616
 1617              		.cfi_endproc
 1618              	.LFE268:
 1619              		.size	_sdc_wait_for_transfer_state, .-_sdc_wait_for_transfer_state
 1620              		.section	.rodata.sdcDisconnect.cst4,"aM",%progbits,4
 1621              		.align	2
 1622              	.LC6:
 1623 0000 00000000 		.word	__stack_chk_guard
 1624              		.section	.text.sdcDisconnect,"ax",%progbits
 1625              		.align	1
 1626              		.p2align 4,,15
 1627              		.global	sdcDisconnect
 1628              		.syntax unified
 1629              		.thumb
 1630              		.thumb_func
 1631              		.fpu fpv4-sp-d16
 1632              		.type	sdcDisconnect, %function
 1633              	sdcDisconnect:
 1634              	.LVL132:
 1635              	.LFB274:
 1636              		.loc 1 757 37 is_stmt 1 view -0
 1637              		.cfi_startproc
 1638              		@ args = 0, pretend = 0, frame = 8
 1639              		@ frame_needed = 0, uses_anonymous_args = 0
 1640              		.loc 1 757 37 is_stmt 0 view .LVU475
 1641 0000 30B5     		push	{r4, r5, lr}
 1642              		.cfi_def_cfa_offset 12
 1643              		.cfi_offset 4, -12
 1644              		.cfi_offset 5, -8
 1645              		.cfi_offset 14, -4
 1646 0002 2E4B     		ldr	r3, .L205
 1647 0004 83B0     		sub	sp, sp, #12
 1648              		.cfi_def_cfa_offset 24
 1649              		.loc 1 757 37 view .LVU476
 1650 0006 1B68     		ldr	r3, [r3]
 1651 0008 0193     		str	r3, [sp, #4]
 1652 000a 4FF00003 		mov	r3,#0
 1653              		.loc 1 759 3 is_stmt 1 view .LVU477
ARM GAS  /tmp/ccBDDCqA.s 			page 30


 1654              		.loc 1 759 3 view .LVU478
 1655              		.loc 1 759 3 view .LVU479
 1656 000e 0446     		mov	r4, r0
 1657 0010 0028     		cmp	r0, #0
 1658 0012 49D0     		beq	.L200
 1659              	.LVL133:
 1660              	.L183:
 1661              		.loc 1 759 3 discriminator 5 view .LVU480
 1662              		.loc 1 761 3 discriminator 5 view .LVU481
 1663              	.LBB197:
 1664              	.LBI197:
 1665              		.loc 2 445 20 discriminator 5 view .LVU482
 1666              	.LBE197:
 1667              		.loc 2 447 3 discriminator 5 view .LVU483
 1668              	.LBB206:
 1669              	.LBB198:
 1670              	.LBI198:
 1671              		.file 3 ".//ChibiOS//os/rt/include/chsys.h"
 1672              		.loc 3 346 20 discriminator 5 view .LVU484
 1673              	.LBB199:
 1674              		.loc 3 348 3 discriminator 5 view .LVU485
 1675              	.LBB200:
 1676              	.LBI200:
 1677              		.file 4 ".//ChibiOS//os/rt/ports/ARMCMx/chcore_v7m.h"
 1678              		.loc 4 444 20 discriminator 5 view .LVU486
 1679              	.LBE200:
 1680              	.LBE199:
 1681              	.LBE198:
 1682              	.LBE206:
 1683              		.loc 4 447 3 discriminator 5 view .LVU487
 1684              	.LBB207:
 1685              	.LBB205:
 1686              	.LBB204:
 1687              	.LBB203:
 1688              	.LBB201:
 1689              	.LBI201:
 1690              		.file 5 ".//ChibiOS//os/ext/CMSIS/include/core_cmFunc.h"
 1691              		.loc 5 544 57 discriminator 5 view .LVU488
 1692              	.LBB202:
 1693              		.loc 5 546 3 discriminator 5 view .LVU489
 1694 0014 2023     		movs	r3, #32
 1695              		.syntax unified
 1696              	@ 546 ".//ChibiOS//os/ext/CMSIS/include/core_cmFunc.h" 1
 1697 0016 83F31188 		MSR basepri, r3
 1698              	@ 0 "" 2
 1699              	.LVL134:
 1700              		.loc 5 546 3 is_stmt 0 discriminator 5 view .LVU490
 1701              		.thumb
 1702              		.syntax unified
 1703              	.LBE202:
 1704              	.LBE201:
 1705              	.LBE203:
 1706              		.loc 3 349 3 is_stmt 1 discriminator 5 view .LVU491
 1707 001a FFF7FEFF 		bl	_stats_start_measure_crit_thd
 1708              	.LVL135:
 1709              		.loc 3 350 3 discriminator 5 view .LVU492
 1710 001e FFF7FEFF 		bl	_dbg_check_lock
ARM GAS  /tmp/ccBDDCqA.s 			page 31


 1711              	.LVL136:
 1712              	.LBE204:
 1713              	.LBE205:
 1714              	.LBE207:
 1715              		.loc 1 762 3 discriminator 5 view .LVU493
 1716              		.loc 1 762 3 discriminator 5 view .LVU494
 1717              		.loc 1 762 3 discriminator 5 view .LVU495
 1718 0022 2379     		ldrb	r3, [r4, #4]	@ zero_extendqisi2
 1719 0024 022B     		cmp	r3, #2
 1720 0026 2AD0     		beq	.L188
 1721              		.loc 1 762 3 is_stmt 0 discriminator 3 view .LVU496
 1722 0028 052B     		cmp	r3, #5
 1723 002a 22D1     		bne	.L201
 1724              	.L187:
 1725              		.loc 1 768 3 is_stmt 1 view .LVU497
 1726              		.loc 1 768 15 is_stmt 0 view .LVU498
 1727 002c 0423     		movs	r3, #4
 1728 002e 2371     		strb	r3, [r4, #4]
 1729              		.loc 1 769 3 is_stmt 1 view .LVU499
 1730              	.LBB208:
 1731              	.LBI208:
 1732              		.loc 2 456 20 view .LVU500
 1733              	.LBE208:
 1734              		.loc 2 458 3 view .LVU501
 1735              	.LBB219:
 1736              	.LBB209:
 1737              	.LBI209:
 1738              		.loc 3 358 20 view .LVU502
 1739              	.LBB210:
 1740              		.loc 3 360 3 view .LVU503
 1741 0030 FFF7FEFF 		bl	_dbg_check_unlock
 1742              	.LVL137:
 1743              		.loc 3 361 3 view .LVU504
 1744 0034 FFF7FEFF 		bl	_stats_stop_measure_crit_thd
 1745              	.LVL138:
 1746              		.loc 3 367 3 view .LVU505
 1747              		.loc 3 367 3 view .LVU506
 1748              		.loc 3 367 3 view .LVU507
 1749 0038 214B     		ldr	r3, .L205+4
 1750 003a 1A68     		ldr	r2, [r3]
 1751 003c 9A42     		cmp	r2, r3
 1752 003e 04D0     		beq	.L190
 1753 0040 9969     		ldr	r1, [r3, #24]
 1754 0042 9368     		ldr	r3, [r2, #8]
 1755 0044 8A68     		ldr	r2, [r1, #8]
 1756 0046 9A42     		cmp	r2, r3
 1757 0048 2AD3     		bcc	.L202
 1758              	.L190:
 1759              		.loc 3 367 3 view .LVU508
 1760              		.loc 3 371 3 view .LVU509
 1761              	.LBB211:
 1762              	.LBI211:
 1763              		.loc 4 458 20 view .LVU510
 1764              	.LBE211:
 1765              	.LBE210:
 1766              	.LBE209:
 1767              	.LBE219:
ARM GAS  /tmp/ccBDDCqA.s 			page 32


 1768              		.loc 4 461 3 view .LVU511
 1769              	.LVL139:
 1770              	.LBB220:
 1771              	.LBB217:
 1772              	.LBB215:
 1773              	.LBB214:
 1774              	.LBB212:
 1775              	.LBI212:
 1776              		.loc 5 544 57 view .LVU512
 1777              	.LBB213:
 1778              		.loc 5 546 3 view .LVU513
 1779 004a 0023     		movs	r3, #0
 1780              		.syntax unified
 1781              	@ 546 ".//ChibiOS//os/ext/CMSIS/include/core_cmFunc.h" 1
 1782 004c 83F31188 		MSR basepri, r3
 1783              	@ 0 "" 2
 1784              	.LVL140:
 1785              		.loc 5 546 3 is_stmt 0 view .LVU514
 1786              		.thumb
 1787              		.syntax unified
 1788              	.LBE213:
 1789              	.LBE212:
 1790              	.LBE214:
 1791              	.LBE215:
 1792              	.LBE217:
 1793              	.LBE220:
 1794              		.loc 1 772 3 is_stmt 1 view .LVU515
 1795              		.loc 1 772 7 is_stmt 0 view .LVU516
 1796 0050 2046     		mov	r0, r4
 1797 0052 FFF7FEFF 		bl	_sdc_wait_for_transfer_state
 1798              	.LVL141:
 1799              		.loc 1 772 6 view .LVU517
 1800 0056 0546     		mov	r5, r0
 1801              		.loc 1 773 5 view .LVU518
 1802 0058 2046     		mov	r0, r4
 1803              		.loc 1 779 3 is_stmt 1 view .LVU519
 1804 005a FFF7FEFF 		bl	sdc_lld_stop_clk
 1805              	.LVL142:
 1806              		.loc 1 780 3 view .LVU520
 1807              		.loc 1 780 15 is_stmt 0 view .LVU521
 1808 005e 0223     		movs	r3, #2
 1809 0060 2371     		strb	r3, [r4, #4]
 1810              		.loc 1 781 3 is_stmt 1 view .LVU522
 1811              	.L189:
 1812              		.loc 1 782 1 is_stmt 0 view .LVU523
 1813 0062 164B     		ldr	r3, .L205
 1814 0064 1A68     		ldr	r2, [r3]
 1815 0066 019B     		ldr	r3, [sp, #4]
 1816 0068 5A40     		eors	r2, r3, r2
 1817 006a 25D1     		bne	.L203
 1818 006c 2846     		mov	r0, r5
 1819 006e 03B0     		add	sp, sp, #12
 1820              		.cfi_remember_state
 1821              		.cfi_def_cfa_offset 12
 1822              		@ sp needed
 1823 0070 30BD     		pop	{r4, r5, pc}
 1824              	.LVL143:
ARM GAS  /tmp/ccBDDCqA.s 			page 33


 1825              	.L201:
 1826              		.cfi_restore_state
 1827              		.loc 1 762 3 is_stmt 1 discriminator 5 view .LVU524
 1828 0072 1448     		ldr	r0, .L205+8
 1829 0074 FFF7FEFF 		bl	chSysHalt
 1830              	.LVL144:
 1831              		.loc 1 762 3 discriminator 5 view .LVU525
 1832              		.loc 1 764 3 discriminator 5 view .LVU526
 1833              		.loc 1 764 6 is_stmt 0 discriminator 5 view .LVU527
 1834 0078 2379     		ldrb	r3, [r4, #4]	@ zero_extendqisi2
 1835 007a 022B     		cmp	r3, #2
 1836 007c D6D1     		bne	.L187
 1837              	.L188:
 1838              		.loc 1 765 5 is_stmt 1 view .LVU528
 1839              	.LBB221:
 1840              	.LBI221:
 1841              		.loc 2 456 20 view .LVU529
 1842              	.LBE221:
 1843              		.loc 2 458 3 view .LVU530
 1844              	.LBB232:
 1845              	.LBB222:
 1846              	.LBI222:
 1847              		.loc 3 358 20 view .LVU531
 1848              	.LBB223:
 1849              		.loc 3 360 3 view .LVU532
 1850 007e FFF7FEFF 		bl	_dbg_check_unlock
 1851              	.LVL145:
 1852              		.loc 3 361 3 view .LVU533
 1853 0082 FFF7FEFF 		bl	_stats_stop_measure_crit_thd
 1854              	.LVL146:
 1855              		.loc 3 367 3 view .LVU534
 1856              		.loc 3 367 3 view .LVU535
 1857              		.loc 3 367 3 view .LVU536
 1858 0086 0E4B     		ldr	r3, .L205+4
 1859 0088 1A68     		ldr	r2, [r3]
 1860 008a 9A42     		cmp	r2, r3
 1861 008c 04D0     		beq	.L186
 1862 008e 9969     		ldr	r1, [r3, #24]
 1863 0090 9368     		ldr	r3, [r2, #8]
 1864 0092 8A68     		ldr	r2, [r1, #8]
 1865 0094 9A42     		cmp	r2, r3
 1866 0096 0BD3     		bcc	.L204
 1867              	.L186:
 1868              		.loc 3 367 3 view .LVU537
 1869              		.loc 3 371 3 view .LVU538
 1870              	.LBB224:
 1871              	.LBI224:
 1872              		.loc 4 458 20 view .LVU539
 1873              	.LBE224:
 1874              	.LBE223:
 1875              	.LBE222:
 1876              	.LBE232:
 1877              		.loc 4 461 3 view .LVU540
 1878              	.LVL147:
 1879              	.LBB233:
 1880              	.LBB230:
 1881              	.LBB228:
ARM GAS  /tmp/ccBDDCqA.s 			page 34


 1882              	.LBB227:
 1883              	.LBB225:
 1884              	.LBI225:
 1885              		.loc 5 544 57 view .LVU541
 1886              	.LBB226:
 1887              		.loc 5 546 3 view .LVU542
 1888 0098 0025     		movs	r5, #0
 1889              		.syntax unified
 1890              	@ 546 ".//ChibiOS//os/ext/CMSIS/include/core_cmFunc.h" 1
 1891 009a 85F31188 		MSR basepri, r5
 1892              	@ 0 "" 2
 1893              	.LVL148:
 1894              		.loc 5 546 3 is_stmt 0 view .LVU543
 1895              		.thumb
 1896              		.syntax unified
 1897              	.LBE226:
 1898              	.LBE225:
 1899              	.LBE227:
 1900              		.loc 3 372 1 view .LVU544
 1901 009e E0E7     		b	.L189
 1902              	.L202:
 1903              		.loc 3 372 1 view .LVU545
 1904              	.LBE228:
 1905              	.LBE230:
 1906              	.LBE233:
 1907              	.LBB234:
 1908              	.LBB218:
 1909              	.LBB216:
 1910              		.loc 3 367 3 is_stmt 1 view .LVU546
 1911 00a0 0948     		ldr	r0, .L205+12
 1912 00a2 FFF7FEFF 		bl	chSysHalt
 1913              	.LVL149:
 1914 00a6 D0E7     		b	.L190
 1915              	.LVL150:
 1916              	.L200:
 1917              		.loc 3 367 3 is_stmt 0 view .LVU547
 1918              	.LBE216:
 1919              	.LBE218:
 1920              	.LBE234:
 1921              		.loc 1 759 3 is_stmt 1 discriminator 3 view .LVU548
 1922 00a8 0648     		ldr	r0, .L205+8
 1923              	.LVL151:
 1924              		.loc 1 759 3 is_stmt 0 discriminator 3 view .LVU549
 1925 00aa FFF7FEFF 		bl	chSysHalt
 1926              	.LVL152:
 1927 00ae B1E7     		b	.L183
 1928              	.L204:
 1929              	.LBB235:
 1930              	.LBB231:
 1931              	.LBB229:
 1932              		.loc 3 367 3 is_stmt 1 view .LVU550
 1933 00b0 0548     		ldr	r0, .L205+12
 1934 00b2 FFF7FEFF 		bl	chSysHalt
 1935              	.LVL153:
 1936 00b6 EFE7     		b	.L186
 1937              	.L203:
 1938              	.LBE229:
ARM GAS  /tmp/ccBDDCqA.s 			page 35


 1939              	.LBE231:
 1940              	.LBE235:
 1941              		.loc 1 782 1 is_stmt 0 view .LVU551
 1942 00b8 FFF7FEFF 		bl	__stack_chk_fail
 1943              	.LVL154:
 1944              	.L206:
 1945              		.align	2
 1946              	.L205:
 1947 00bc 00000000 		.word	.LC6
 1948 00c0 00000000 		.word	ch
 1949 00c4 00000000 		.word	.LANCHOR6
 1950 00c8 00000000 		.word	.LANCHOR7
 1951              		.cfi_endproc
 1952              	.LFE274:
 1953              		.size	sdcDisconnect, .-sdcDisconnect
 1954              		.section	.rodata.sdcInit.cst4,"aM",%progbits,4
 1955              		.align	2
 1956              	.LC7:
 1957 0000 00000000 		.word	__stack_chk_guard
 1958              		.section	.text.sdcInit,"ax",%progbits
 1959              		.align	1
 1960              		.p2align 4,,15
 1961              		.global	sdcInit
 1962              		.syntax unified
 1963              		.thumb
 1964              		.thumb_func
 1965              		.fpu fpv4-sp-d16
 1966              		.type	sdcInit, %function
 1967              	sdcInit:
 1968              	.LFB269:
 1969              		.loc 1 541 20 is_stmt 1 view -0
 1970              		.cfi_startproc
 1971              		@ args = 0, pretend = 0, frame = 8
 1972              		@ frame_needed = 0, uses_anonymous_args = 0
 1973 0000 00B5     		push	{lr}
 1974              		.cfi_def_cfa_offset 4
 1975              		.cfi_offset 14, -4
 1976 0002 094B     		ldr	r3, .L212
 1977 0004 83B0     		sub	sp, sp, #12
 1978              		.cfi_def_cfa_offset 16
 1979              		.loc 1 541 20 is_stmt 0 view .LVU553
 1980 0006 1B68     		ldr	r3, [r3]
 1981 0008 0193     		str	r3, [sp, #4]
 1982 000a 4FF00003 		mov	r3,#0
 1983              		.loc 1 543 3 is_stmt 1 view .LVU554
 1984 000e 064B     		ldr	r3, .L212
 1985 0010 1A68     		ldr	r2, [r3]
 1986 0012 019B     		ldr	r3, [sp, #4]
 1987 0014 5A40     		eors	r2, r3, r2
 1988 0016 04D1     		bne	.L211
 1989              		.loc 1 544 1 is_stmt 0 view .LVU555
 1990 0018 03B0     		add	sp, sp, #12
 1991              		.cfi_remember_state
 1992              		.cfi_def_cfa_offset 4
 1993              		@ sp needed
 1994 001a 5DF804EB 		ldr	lr, [sp], #4
 1995              		.cfi_restore 14
ARM GAS  /tmp/ccBDDCqA.s 			page 36


 1996              		.cfi_def_cfa_offset 0
 1997              		.loc 1 543 3 view .LVU556
 1998 001e FFF7FEBF 		b	sdc_lld_init
 1999              	.LVL155:
 2000              	.L211:
 2001              		.cfi_restore_state
 2002 0022 FFF7FEFF 		bl	__stack_chk_fail
 2003              	.LVL156:
 2004              	.L213:
 2005 0026 00BF     		.align	2
 2006              	.L212:
 2007 0028 00000000 		.word	.LC7
 2008              		.cfi_endproc
 2009              	.LFE269:
 2010              		.size	sdcInit, .-sdcInit
 2011              		.section	.rodata.sdcObjectInit.cst4,"aM",%progbits,4
 2012              		.align	2
 2013              	.LC8:
 2014 0000 00000000 		.word	__stack_chk_guard
 2015              		.section	.text.sdcObjectInit,"ax",%progbits
 2016              		.align	1
 2017              		.p2align 4,,15
 2018              		.global	sdcObjectInit
 2019              		.syntax unified
 2020              		.thumb
 2021              		.thumb_func
 2022              		.fpu fpv4-sp-d16
 2023              		.type	sdcObjectInit, %function
 2024              	sdcObjectInit:
 2025              	.LVL157:
 2026              	.LFB270:
 2027              		.loc 1 553 37 is_stmt 1 view -0
 2028              		.cfi_startproc
 2029              		@ args = 0, pretend = 0, frame = 8
 2030              		@ frame_needed = 0, uses_anonymous_args = 0
 2031              		.loc 1 553 37 is_stmt 0 view .LVU558
 2032 0000 00B5     		push	{lr}
 2033              		.cfi_def_cfa_offset 4
 2034              		.cfi_offset 14, -4
 2035 0002 0C4A     		ldr	r2, .L218
 2036              		.loc 1 555 18 view .LVU559
 2037 0004 0C4B     		ldr	r3, .L218+4
 2038              		.loc 1 553 37 view .LVU560
 2039 0006 83B0     		sub	sp, sp, #12
 2040              		.cfi_def_cfa_offset 16
 2041              		.loc 1 553 37 view .LVU561
 2042 0008 1268     		ldr	r2, [r2]
 2043 000a 0192     		str	r2, [sp, #4]
 2044 000c 4FF00002 		mov	r2,#0
 2045              		.loc 1 555 3 is_stmt 1 view .LVU562
 2046              		.loc 1 555 18 is_stmt 0 view .LVU563
 2047 0010 0360     		str	r3, [r0]
 2048              		.loc 1 556 3 is_stmt 1 view .LVU564
 2049              		.loc 1 557 18 is_stmt 0 view .LVU565
 2050 0012 0023     		movs	r3, #0
 2051              		.loc 1 559 18 view .LVU566
 2052 0014 C0E90A33 		strd	r3, r3, [r0, #40]
ARM GAS  /tmp/ccBDDCqA.s 			page 37


 2053              		.loc 1 556 18 view .LVU567
 2054 0018 0122     		movs	r2, #1
 2055              		.loc 1 557 18 view .LVU568
 2056 001a 4363     		str	r3, [r0, #52]
 2057              		.loc 1 560 1 view .LVU569
 2058 001c 054B     		ldr	r3, .L218
 2059              		.loc 1 556 18 view .LVU570
 2060 001e 0271     		strb	r2, [r0, #4]
 2061              		.loc 1 557 3 is_stmt 1 view .LVU571
 2062              		.loc 1 558 3 view .LVU572
 2063              		.loc 1 560 1 is_stmt 0 view .LVU573
 2064 0020 1A68     		ldr	r2, [r3]
 2065 0022 019B     		ldr	r3, [sp, #4]
 2066 0024 5A40     		eors	r2, r3, r2
 2067 0026 02D1     		bne	.L217
 2068 0028 03B0     		add	sp, sp, #12
 2069              		.cfi_remember_state
 2070              		.cfi_def_cfa_offset 4
 2071              		@ sp needed
 2072 002a 5DF804FB 		ldr	pc, [sp], #4
 2073              	.L217:
 2074              		.cfi_restore_state
 2075 002e FFF7FEFF 		bl	__stack_chk_fail
 2076              	.LVL158:
 2077              	.L219:
 2078              		.loc 1 560 1 view .LVU574
 2079 0032 00BF     		.align	2
 2080              	.L218:
 2081 0034 00000000 		.word	.LC8
 2082 0038 00000000 		.word	.LANCHOR8
 2083              		.cfi_endproc
 2084              	.LFE270:
 2085              		.size	sdcObjectInit, .-sdcObjectInit
 2086              		.section	.rodata.sdcStart.cst4,"aM",%progbits,4
 2087              		.align	2
 2088              	.LC9:
 2089 0000 00000000 		.word	__stack_chk_guard
 2090              		.section	.text.sdcStart,"ax",%progbits
 2091              		.align	1
 2092              		.p2align 4,,15
 2093              		.global	sdcStart
 2094              		.syntax unified
 2095              		.thumb
 2096              		.thumb_func
 2097              		.fpu fpv4-sp-d16
 2098              		.type	sdcStart, %function
 2099              	sdcStart:
 2100              	.LVL159:
 2101              	.LFB271:
 2102              		.loc 1 572 57 is_stmt 1 view -0
 2103              		.cfi_startproc
 2104              		@ args = 0, pretend = 0, frame = 8
 2105              		@ frame_needed = 0, uses_anonymous_args = 0
 2106              		.loc 1 572 57 is_stmt 0 view .LVU576
 2107 0000 30B5     		push	{r4, r5, lr}
 2108              		.cfi_def_cfa_offset 12
 2109              		.cfi_offset 4, -12
ARM GAS  /tmp/ccBDDCqA.s 			page 38


 2110              		.cfi_offset 5, -8
 2111              		.cfi_offset 14, -4
 2112 0002 1F4B     		ldr	r3, .L229
 2113 0004 83B0     		sub	sp, sp, #12
 2114              		.cfi_def_cfa_offset 24
 2115              		.loc 1 572 57 view .LVU577
 2116 0006 0D46     		mov	r5, r1
 2117 0008 1B68     		ldr	r3, [r3]
 2118 000a 0193     		str	r3, [sp, #4]
 2119 000c 4FF00003 		mov	r3,#0
 2120              		.loc 1 574 3 is_stmt 1 view .LVU578
 2121              		.loc 1 574 3 view .LVU579
 2122              		.loc 1 574 3 view .LVU580
 2123 0010 0446     		mov	r4, r0
 2124 0012 70B3     		cbz	r0, .L226
 2125              	.LVL160:
 2126              	.L221:
 2127              		.loc 1 574 3 discriminator 5 view .LVU581
 2128              		.loc 1 576 3 discriminator 5 view .LVU582
 2129              	.LBB249:
 2130              	.LBI249:
 2131              		.loc 2 445 20 discriminator 5 view .LVU583
 2132              	.LBE249:
 2133              		.loc 2 447 3 discriminator 5 view .LVU584
 2134              	.LBB258:
 2135              	.LBB250:
 2136              	.LBI250:
 2137              		.loc 3 346 20 discriminator 5 view .LVU585
 2138              	.LBB251:
 2139              		.loc 3 348 3 discriminator 5 view .LVU586
 2140              	.LBB252:
 2141              	.LBI252:
 2142              		.loc 4 444 20 discriminator 5 view .LVU587
 2143              	.LBE252:
 2144              	.LBE251:
 2145              	.LBE250:
 2146              	.LBE258:
 2147              		.loc 4 447 3 discriminator 5 view .LVU588
 2148              	.LBB259:
 2149              	.LBB257:
 2150              	.LBB256:
 2151              	.LBB255:
 2152              	.LBB253:
 2153              	.LBI253:
 2154              		.loc 5 544 57 discriminator 5 view .LVU589
 2155              	.LBB254:
 2156              		.loc 5 546 3 discriminator 5 view .LVU590
 2157 0014 2023     		movs	r3, #32
 2158              		.syntax unified
 2159              	@ 546 ".//ChibiOS//os/ext/CMSIS/include/core_cmFunc.h" 1
 2160 0016 83F31188 		MSR basepri, r3
 2161              	@ 0 "" 2
 2162              	.LVL161:
 2163              		.loc 5 546 3 is_stmt 0 discriminator 5 view .LVU591
 2164              		.thumb
 2165              		.syntax unified
 2166              	.LBE254:
ARM GAS  /tmp/ccBDDCqA.s 			page 39


 2167              	.LBE253:
 2168              	.LBE255:
 2169              		.loc 3 349 3 is_stmt 1 discriminator 5 view .LVU592
 2170 001a FFF7FEFF 		bl	_stats_start_measure_crit_thd
 2171              	.LVL162:
 2172              		.loc 3 350 3 discriminator 5 view .LVU593
 2173 001e FFF7FEFF 		bl	_dbg_check_lock
 2174              	.LVL163:
 2175              	.LBE256:
 2176              	.LBE257:
 2177              	.LBE259:
 2178              		.loc 1 577 3 discriminator 5 view .LVU594
 2179              		.loc 1 577 3 discriminator 5 view .LVU595
 2180              		.loc 1 577 3 discriminator 5 view .LVU596
 2181 0022 2379     		ldrb	r3, [r4, #4]	@ zero_extendqisi2
 2182 0024 013B     		subs	r3, r3, #1
 2183 0026 012B     		cmp	r3, #1
 2184 0028 02D9     		bls	.L222
 2185              		.loc 1 577 3 discriminator 3 view .LVU597
 2186 002a 1648     		ldr	r0, .L229+4
 2187 002c FFF7FEFF 		bl	chSysHalt
 2188              	.LVL164:
 2189              	.L222:
 2190              		.loc 1 577 3 discriminator 5 view .LVU598
 2191              		.loc 1 579 3 discriminator 5 view .LVU599
 2192              		.loc 1 580 3 is_stmt 0 discriminator 5 view .LVU600
 2193 0030 2046     		mov	r0, r4
 2194              		.loc 1 579 16 discriminator 5 view .LVU601
 2195 0032 E562     		str	r5, [r4, #44]
 2196              		.loc 1 580 3 is_stmt 1 discriminator 5 view .LVU602
 2197 0034 FFF7FEFF 		bl	sdc_lld_start
 2198              	.LVL165:
 2199              		.loc 1 581 3 discriminator 5 view .LVU603
 2200              		.loc 1 581 15 is_stmt 0 discriminator 5 view .LVU604
 2201 0038 0223     		movs	r3, #2
 2202 003a 2371     		strb	r3, [r4, #4]
 2203              		.loc 1 582 3 is_stmt 1 discriminator 5 view .LVU605
 2204              	.LBB260:
 2205              	.LBI260:
 2206              		.loc 2 456 20 discriminator 5 view .LVU606
 2207              	.LBE260:
 2208              		.loc 2 458 3 discriminator 5 view .LVU607
 2209              	.LBB271:
 2210              	.LBB261:
 2211              	.LBI261:
 2212              		.loc 3 358 20 discriminator 5 view .LVU608
 2213              	.LBB262:
 2214              		.loc 3 360 3 discriminator 5 view .LVU609
 2215 003c FFF7FEFF 		bl	_dbg_check_unlock
 2216              	.LVL166:
 2217              		.loc 3 361 3 discriminator 5 view .LVU610
 2218 0040 FFF7FEFF 		bl	_stats_stop_measure_crit_thd
 2219              	.LVL167:
 2220              		.loc 3 367 3 discriminator 5 view .LVU611
 2221              		.loc 3 367 3 discriminator 5 view .LVU612
 2222              		.loc 3 367 3 discriminator 5 view .LVU613
 2223 0044 104B     		ldr	r3, .L229+8
ARM GAS  /tmp/ccBDDCqA.s 			page 40


 2224 0046 1A68     		ldr	r2, [r3]
 2225 0048 9A42     		cmp	r2, r3
 2226 004a 04D0     		beq	.L223
 2227              		.loc 3 367 3 is_stmt 0 view .LVU614
 2228 004c 9969     		ldr	r1, [r3, #24]
 2229 004e 9368     		ldr	r3, [r2, #8]
 2230 0050 8A68     		ldr	r2, [r1, #8]
 2231 0052 9A42     		cmp	r2, r3
 2232 0054 09D3     		bcc	.L227
 2233              	.L223:
 2234              		.loc 3 367 3 is_stmt 1 view .LVU615
 2235              		.loc 3 371 3 view .LVU616
 2236              	.LBB263:
 2237              	.LBI263:
 2238              		.loc 4 458 20 view .LVU617
 2239              	.LBE263:
 2240              	.LBE262:
 2241              	.LBE261:
 2242              	.LBE271:
 2243              		.loc 4 461 3 view .LVU618
 2244              	.LVL168:
 2245              	.LBB272:
 2246              	.LBB269:
 2247              	.LBB267:
 2248              	.LBB266:
 2249              	.LBB264:
 2250              	.LBI264:
 2251              		.loc 5 544 57 view .LVU619
 2252              	.LBB265:
 2253              		.loc 5 546 3 view .LVU620
 2254 0056 0023     		movs	r3, #0
 2255              		.syntax unified
 2256              	@ 546 ".//ChibiOS//os/ext/CMSIS/include/core_cmFunc.h" 1
 2257 0058 83F31188 		MSR basepri, r3
 2258              	@ 0 "" 2
 2259              	.LVL169:
 2260              		.loc 5 546 3 is_stmt 0 view .LVU621
 2261              		.thumb
 2262              		.syntax unified
 2263              	.LBE265:
 2264              	.LBE264:
 2265              	.LBE266:
 2266              	.LBE267:
 2267              	.LBE269:
 2268              	.LBE272:
 2269              		.loc 1 583 1 view .LVU622
 2270 005c 084B     		ldr	r3, .L229
 2271 005e 1A68     		ldr	r2, [r3]
 2272 0060 019B     		ldr	r3, [sp, #4]
 2273 0062 5A40     		eors	r2, r3, r2
 2274 0064 09D1     		bne	.L228
 2275 0066 03B0     		add	sp, sp, #12
 2276              		.cfi_remember_state
 2277              		.cfi_def_cfa_offset 12
 2278              		@ sp needed
 2279 0068 30BD     		pop	{r4, r5, pc}
 2280              	.LVL170:
ARM GAS  /tmp/ccBDDCqA.s 			page 41


 2281              	.L227:
 2282              		.cfi_restore_state
 2283              	.LBB273:
 2284              	.LBB270:
 2285              	.LBB268:
 2286              		.loc 3 367 3 is_stmt 1 view .LVU623
 2287 006a 0848     		ldr	r0, .L229+12
 2288 006c FFF7FEFF 		bl	chSysHalt
 2289              	.LVL171:
 2290 0070 F1E7     		b	.L223
 2291              	.LVL172:
 2292              	.L226:
 2293              		.loc 3 367 3 is_stmt 0 view .LVU624
 2294              	.LBE268:
 2295              	.LBE270:
 2296              	.LBE273:
 2297              		.loc 1 574 3 is_stmt 1 discriminator 3 view .LVU625
 2298 0072 0448     		ldr	r0, .L229+4
 2299              	.LVL173:
 2300              		.loc 1 574 3 is_stmt 0 discriminator 3 view .LVU626
 2301 0074 FFF7FEFF 		bl	chSysHalt
 2302              	.LVL174:
 2303              		.loc 1 574 3 discriminator 3 view .LVU627
 2304 0078 CCE7     		b	.L221
 2305              	.L228:
 2306              		.loc 1 583 1 view .LVU628
 2307 007a FFF7FEFF 		bl	__stack_chk_fail
 2308              	.LVL175:
 2309              	.L230:
 2310 007e 00BF     		.align	2
 2311              	.L229:
 2312 0080 00000000 		.word	.LC9
 2313 0084 00000000 		.word	.LANCHOR9
 2314 0088 00000000 		.word	ch
 2315 008c 00000000 		.word	.LANCHOR7
 2316              		.cfi_endproc
 2317              	.LFE271:
 2318              		.size	sdcStart, .-sdcStart
 2319              		.section	.rodata.sdcStop.cst4,"aM",%progbits,4
 2320              		.align	2
 2321              	.LC10:
 2322 0000 00000000 		.word	__stack_chk_guard
 2323              		.section	.text.sdcStop,"ax",%progbits
 2324              		.align	1
 2325              		.p2align 4,,15
 2326              		.global	sdcStop
 2327              		.syntax unified
 2328              		.thumb
 2329              		.thumb_func
 2330              		.fpu fpv4-sp-d16
 2331              		.type	sdcStop, %function
 2332              	sdcStop:
 2333              	.LVL176:
 2334              	.LFB272:
 2335              		.loc 1 592 31 is_stmt 1 view -0
 2336              		.cfi_startproc
 2337              		@ args = 0, pretend = 0, frame = 8
ARM GAS  /tmp/ccBDDCqA.s 			page 42


 2338              		@ frame_needed = 0, uses_anonymous_args = 0
 2339              		.loc 1 592 31 is_stmt 0 view .LVU630
 2340 0000 10B5     		push	{r4, lr}
 2341              		.cfi_def_cfa_offset 8
 2342              		.cfi_offset 4, -8
 2343              		.cfi_offset 14, -4
 2344 0002 1E4B     		ldr	r3, .L240
 2345 0004 82B0     		sub	sp, sp, #8
 2346              		.cfi_def_cfa_offset 16
 2347              		.loc 1 592 31 view .LVU631
 2348 0006 1B68     		ldr	r3, [r3]
 2349 0008 0193     		str	r3, [sp, #4]
 2350 000a 4FF00003 		mov	r3,#0
 2351              		.loc 1 594 3 is_stmt 1 view .LVU632
 2352              		.loc 1 594 3 view .LVU633
 2353              		.loc 1 594 3 view .LVU634
 2354 000e 0446     		mov	r4, r0
 2355 0010 68B3     		cbz	r0, .L237
 2356              	.LVL177:
 2357              	.L232:
 2358              		.loc 1 594 3 discriminator 5 view .LVU635
 2359              		.loc 1 596 3 discriminator 5 view .LVU636
 2360              	.LBB287:
 2361              	.LBI287:
 2362              		.loc 2 445 20 discriminator 5 view .LVU637
 2363              	.LBE287:
 2364              		.loc 2 447 3 discriminator 5 view .LVU638
 2365              	.LBB296:
 2366              	.LBB288:
 2367              	.LBI288:
 2368              		.loc 3 346 20 discriminator 5 view .LVU639
 2369              	.LBB289:
 2370              		.loc 3 348 3 discriminator 5 view .LVU640
 2371              	.LBB290:
 2372              	.LBI290:
 2373              		.loc 4 444 20 discriminator 5 view .LVU641
 2374              	.LBE290:
 2375              	.LBE289:
 2376              	.LBE288:
 2377              	.LBE296:
 2378              		.loc 4 447 3 discriminator 5 view .LVU642
 2379              	.LBB297:
 2380              	.LBB295:
 2381              	.LBB294:
 2382              	.LBB293:
 2383              	.LBB291:
 2384              	.LBI291:
 2385              		.loc 5 544 57 discriminator 5 view .LVU643
 2386              	.LBB292:
 2387              		.loc 5 546 3 discriminator 5 view .LVU644
 2388 0012 2023     		movs	r3, #32
 2389              		.syntax unified
 2390              	@ 546 ".//ChibiOS//os/ext/CMSIS/include/core_cmFunc.h" 1
 2391 0014 83F31188 		MSR basepri, r3
 2392              	@ 0 "" 2
 2393              	.LVL178:
 2394              		.loc 5 546 3 is_stmt 0 discriminator 5 view .LVU645
ARM GAS  /tmp/ccBDDCqA.s 			page 43


 2395              		.thumb
 2396              		.syntax unified
 2397              	.LBE292:
 2398              	.LBE291:
 2399              	.LBE293:
 2400              		.loc 3 349 3 is_stmt 1 discriminator 5 view .LVU646
 2401 0018 FFF7FEFF 		bl	_stats_start_measure_crit_thd
 2402              	.LVL179:
 2403              		.loc 3 350 3 discriminator 5 view .LVU647
 2404 001c FFF7FEFF 		bl	_dbg_check_lock
 2405              	.LVL180:
 2406              	.LBE294:
 2407              	.LBE295:
 2408              	.LBE297:
 2409              		.loc 1 597 3 discriminator 5 view .LVU648
 2410              		.loc 1 597 3 discriminator 5 view .LVU649
 2411              		.loc 1 597 3 discriminator 5 view .LVU650
 2412 0020 2379     		ldrb	r3, [r4, #4]	@ zero_extendqisi2
 2413 0022 013B     		subs	r3, r3, #1
 2414 0024 012B     		cmp	r3, #1
 2415 0026 02D9     		bls	.L233
 2416              		.loc 1 597 3 discriminator 3 view .LVU651
 2417 0028 1548     		ldr	r0, .L240+4
 2418 002a FFF7FEFF 		bl	chSysHalt
 2419              	.LVL181:
 2420              	.L233:
 2421              		.loc 1 597 3 discriminator 5 view .LVU652
 2422              		.loc 1 599 3 discriminator 5 view .LVU653
 2423 002e 2046     		mov	r0, r4
 2424 0030 FFF7FEFF 		bl	sdc_lld_stop
 2425              	.LVL182:
 2426              		.loc 1 600 3 discriminator 5 view .LVU654
 2427              		.loc 1 600 15 is_stmt 0 discriminator 5 view .LVU655
 2428 0034 0123     		movs	r3, #1
 2429 0036 2371     		strb	r3, [r4, #4]
 2430              		.loc 1 601 3 is_stmt 1 discriminator 5 view .LVU656
 2431              	.LBB298:
 2432              	.LBI298:
 2433              		.loc 2 456 20 discriminator 5 view .LVU657
 2434              	.LBE298:
 2435              		.loc 2 458 3 discriminator 5 view .LVU658
 2436              	.LBB309:
 2437              	.LBB299:
 2438              	.LBI299:
 2439              		.loc 3 358 20 discriminator 5 view .LVU659
 2440              	.LBB300:
 2441              		.loc 3 360 3 discriminator 5 view .LVU660
 2442 0038 FFF7FEFF 		bl	_dbg_check_unlock
 2443              	.LVL183:
 2444              		.loc 3 361 3 discriminator 5 view .LVU661
 2445 003c FFF7FEFF 		bl	_stats_stop_measure_crit_thd
 2446              	.LVL184:
 2447              		.loc 3 367 3 discriminator 5 view .LVU662
 2448              		.loc 3 367 3 discriminator 5 view .LVU663
 2449              		.loc 3 367 3 discriminator 5 view .LVU664
 2450 0040 104B     		ldr	r3, .L240+8
 2451 0042 1A68     		ldr	r2, [r3]
ARM GAS  /tmp/ccBDDCqA.s 			page 44


 2452 0044 9A42     		cmp	r2, r3
 2453 0046 04D0     		beq	.L234
 2454              		.loc 3 367 3 is_stmt 0 view .LVU665
 2455 0048 9969     		ldr	r1, [r3, #24]
 2456 004a 9368     		ldr	r3, [r2, #8]
 2457 004c 8A68     		ldr	r2, [r1, #8]
 2458 004e 9A42     		cmp	r2, r3
 2459 0050 09D3     		bcc	.L238
 2460              	.L234:
 2461              		.loc 3 367 3 is_stmt 1 view .LVU666
 2462              		.loc 3 371 3 view .LVU667
 2463              	.LBB301:
 2464              	.LBI301:
 2465              		.loc 4 458 20 view .LVU668
 2466              	.LBE301:
 2467              	.LBE300:
 2468              	.LBE299:
 2469              	.LBE309:
 2470              		.loc 4 461 3 view .LVU669
 2471              	.LVL185:
 2472              	.LBB310:
 2473              	.LBB307:
 2474              	.LBB305:
 2475              	.LBB304:
 2476              	.LBB302:
 2477              	.LBI302:
 2478              		.loc 5 544 57 view .LVU670
 2479              	.LBB303:
 2480              		.loc 5 546 3 view .LVU671
 2481 0052 0023     		movs	r3, #0
 2482              		.syntax unified
 2483              	@ 546 ".//ChibiOS//os/ext/CMSIS/include/core_cmFunc.h" 1
 2484 0054 83F31188 		MSR basepri, r3
 2485              	@ 0 "" 2
 2486              	.LVL186:
 2487              		.loc 5 546 3 is_stmt 0 view .LVU672
 2488              		.thumb
 2489              		.syntax unified
 2490              	.LBE303:
 2491              	.LBE302:
 2492              	.LBE304:
 2493              	.LBE305:
 2494              	.LBE307:
 2495              	.LBE310:
 2496              		.loc 1 602 1 view .LVU673
 2497 0058 084B     		ldr	r3, .L240
 2498 005a 1A68     		ldr	r2, [r3]
 2499 005c 019B     		ldr	r3, [sp, #4]
 2500 005e 5A40     		eors	r2, r3, r2
 2501 0060 09D1     		bne	.L239
 2502 0062 02B0     		add	sp, sp, #8
 2503              		.cfi_remember_state
 2504              		.cfi_def_cfa_offset 8
 2505              		@ sp needed
 2506 0064 10BD     		pop	{r4, pc}
 2507              	.LVL187:
 2508              	.L238:
ARM GAS  /tmp/ccBDDCqA.s 			page 45


 2509              		.cfi_restore_state
 2510              	.LBB311:
 2511              	.LBB308:
 2512              	.LBB306:
 2513              		.loc 3 367 3 is_stmt 1 view .LVU674
 2514 0066 0848     		ldr	r0, .L240+12
 2515 0068 FFF7FEFF 		bl	chSysHalt
 2516              	.LVL188:
 2517 006c F1E7     		b	.L234
 2518              	.LVL189:
 2519              	.L237:
 2520              		.loc 3 367 3 is_stmt 0 view .LVU675
 2521              	.LBE306:
 2522              	.LBE308:
 2523              	.LBE311:
 2524              		.loc 1 594 3 is_stmt 1 discriminator 3 view .LVU676
 2525 006e 0448     		ldr	r0, .L240+4
 2526              	.LVL190:
 2527              		.loc 1 594 3 is_stmt 0 discriminator 3 view .LVU677
 2528 0070 FFF7FEFF 		bl	chSysHalt
 2529              	.LVL191:
 2530 0074 CDE7     		b	.L232
 2531              	.L239:
 2532              		.loc 1 602 1 view .LVU678
 2533 0076 FFF7FEFF 		bl	__stack_chk_fail
 2534              	.LVL192:
 2535              	.L241:
 2536 007a 00BF     		.align	2
 2537              	.L240:
 2538 007c 00000000 		.word	.LC10
 2539 0080 00000000 		.word	.LANCHOR10
 2540 0084 00000000 		.word	ch
 2541 0088 00000000 		.word	.LANCHOR7
 2542              		.cfi_endproc
 2543              	.LFE272:
 2544              		.size	sdcStop, .-sdcStop
 2545              		.section	.rodata.sdcGetAndClearErrors.cst4,"aM",%progbits,4
 2546              		.align	2
 2547              	.LC11:
 2548 0000 00000000 		.word	__stack_chk_guard
 2549              		.section	.text.sdcGetAndClearErrors,"ax",%progbits
 2550              		.align	1
 2551              		.p2align 4,,15
 2552              		.global	sdcGetAndClearErrors
 2553              		.syntax unified
 2554              		.thumb
 2555              		.thumb_func
 2556              		.fpu fpv4-sp-d16
 2557              		.type	sdcGetAndClearErrors, %function
 2558              	sdcGetAndClearErrors:
 2559              	.LVL193:
 2560              	.LFB277:
 2561              		.loc 1 867 50 is_stmt 1 view -0
 2562              		.cfi_startproc
 2563              		@ args = 0, pretend = 0, frame = 8
 2564              		@ frame_needed = 0, uses_anonymous_args = 0
 2565              		.loc 1 867 50 is_stmt 0 view .LVU680
ARM GAS  /tmp/ccBDDCqA.s 			page 46


 2566 0000 30B5     		push	{r4, r5, lr}
 2567              		.cfi_def_cfa_offset 12
 2568              		.cfi_offset 4, -12
 2569              		.cfi_offset 5, -8
 2570              		.cfi_offset 14, -4
 2571 0002 1D4B     		ldr	r3, .L254
 2572 0004 83B0     		sub	sp, sp, #12
 2573              		.cfi_def_cfa_offset 24
 2574              		.loc 1 867 50 view .LVU681
 2575 0006 1B68     		ldr	r3, [r3]
 2576 0008 0193     		str	r3, [sp, #4]
 2577 000a 4FF00003 		mov	r3,#0
 2578              		.loc 1 868 3 is_stmt 1 view .LVU682
 2579              		.loc 1 870 3 view .LVU683
 2580              		.loc 1 870 3 view .LVU684
 2581              		.loc 1 870 3 view .LVU685
 2582 000e 0446     		mov	r4, r0
 2583 0010 58B3     		cbz	r0, .L251
 2584              	.LVL194:
 2585              	.L243:
 2586              		.loc 1 870 3 discriminator 1 view .LVU686
 2587              		.loc 1 871 3 discriminator 1 view .LVU687
 2588              		.loc 1 871 3 discriminator 1 view .LVU688
 2589              		.loc 1 871 3 discriminator 1 view .LVU689
 2590 0012 2379     		ldrb	r3, [r4, #4]	@ zero_extendqisi2
 2591 0014 052B     		cmp	r3, #5
 2592 0016 02D0     		beq	.L244
 2593              		.loc 1 871 3 discriminator 3 view .LVU690
 2594 0018 1848     		ldr	r0, .L254+4
 2595 001a FFF7FEFF 		bl	chSysHalt
 2596              	.LVL195:
 2597              	.L244:
 2598              		.loc 1 871 3 discriminator 5 view .LVU691
 2599              		.loc 1 873 3 discriminator 5 view .LVU692
 2600              	.LBB325:
 2601              	.LBI325:
 2602              		.loc 2 445 20 discriminator 5 view .LVU693
 2603              	.LBE325:
 2604              		.loc 2 447 3 discriminator 5 view .LVU694
 2605              	.LBB334:
 2606              	.LBB326:
 2607              	.LBI326:
 2608              		.loc 3 346 20 discriminator 5 view .LVU695
 2609              	.LBB327:
 2610              		.loc 3 348 3 discriminator 5 view .LVU696
 2611              	.LBB328:
 2612              	.LBI328:
 2613              		.loc 4 444 20 discriminator 5 view .LVU697
 2614              	.LBE328:
 2615              	.LBE327:
 2616              	.LBE326:
 2617              	.LBE334:
 2618              		.loc 4 447 3 discriminator 5 view .LVU698
 2619              	.LBB335:
 2620              	.LBB333:
 2621              	.LBB332:
 2622              	.LBB331:
ARM GAS  /tmp/ccBDDCqA.s 			page 47


 2623              	.LBB329:
 2624              	.LBI329:
 2625              		.loc 5 544 57 discriminator 5 view .LVU699
 2626              	.LBB330:
 2627              		.loc 5 546 3 discriminator 5 view .LVU700
 2628 001e 2023     		movs	r3, #32
 2629              		.syntax unified
 2630              	@ 546 ".//ChibiOS//os/ext/CMSIS/include/core_cmFunc.h" 1
 2631 0020 83F31188 		MSR basepri, r3
 2632              	@ 0 "" 2
 2633              	.LVL196:
 2634              		.loc 5 546 3 is_stmt 0 discriminator 5 view .LVU701
 2635              		.thumb
 2636              		.syntax unified
 2637              	.LBE330:
 2638              	.LBE329:
 2639              	.LBE331:
 2640              		.loc 3 349 3 is_stmt 1 discriminator 5 view .LVU702
 2641 0024 FFF7FEFF 		bl	_stats_start_measure_crit_thd
 2642              	.LVL197:
 2643              		.loc 3 350 3 discriminator 5 view .LVU703
 2644 0028 FFF7FEFF 		bl	_dbg_check_lock
 2645              	.LVL198:
 2646              	.LBE332:
 2647              	.LBE333:
 2648              	.LBE335:
 2649              		.loc 1 874 3 discriminator 5 view .LVU704
 2650              		.loc 1 875 16 is_stmt 0 discriminator 5 view .LVU705
 2651 002c 0023     		movs	r3, #0
 2652              		.loc 1 874 9 discriminator 5 view .LVU706
 2653 002e 656B     		ldr	r5, [r4, #52]
 2654              	.LVL199:
 2655              		.loc 1 875 3 is_stmt 1 discriminator 5 view .LVU707
 2656              		.loc 1 875 16 is_stmt 0 discriminator 5 view .LVU708
 2657 0030 6363     		str	r3, [r4, #52]
 2658              		.loc 1 876 3 is_stmt 1 discriminator 5 view .LVU709
 2659              	.LBB336:
 2660              	.LBI336:
 2661              		.loc 2 456 20 discriminator 5 view .LVU710
 2662              	.LBE336:
 2663              		.loc 2 458 3 discriminator 5 view .LVU711
 2664              	.LBB347:
 2665              	.LBB337:
 2666              	.LBI337:
 2667              		.loc 3 358 20 discriminator 5 view .LVU712
 2668              	.LBB338:
 2669              		.loc 3 360 3 discriminator 5 view .LVU713
 2670 0032 FFF7FEFF 		bl	_dbg_check_unlock
 2671              	.LVL200:
 2672              		.loc 3 361 3 discriminator 5 view .LVU714
 2673 0036 FFF7FEFF 		bl	_stats_stop_measure_crit_thd
 2674              	.LVL201:
 2675              		.loc 3 367 3 discriminator 5 view .LVU715
 2676              		.loc 3 367 3 discriminator 5 view .LVU716
 2677              		.loc 3 367 3 discriminator 5 view .LVU717
 2678 003a 114B     		ldr	r3, .L254+8
 2679 003c 1A68     		ldr	r2, [r3]
ARM GAS  /tmp/ccBDDCqA.s 			page 48


 2680 003e 9A42     		cmp	r2, r3
 2681 0040 04D0     		beq	.L245
 2682              		.loc 3 367 3 is_stmt 0 view .LVU718
 2683 0042 9969     		ldr	r1, [r3, #24]
 2684 0044 9368     		ldr	r3, [r2, #8]
 2685 0046 8A68     		ldr	r2, [r1, #8]
 2686 0048 9A42     		cmp	r2, r3
 2687 004a 0AD3     		bcc	.L252
 2688              	.L245:
 2689              		.loc 3 367 3 is_stmt 1 view .LVU719
 2690              		.loc 3 371 3 view .LVU720
 2691              	.LBB339:
 2692              	.LBI339:
 2693              		.loc 4 458 20 view .LVU721
 2694              	.LBE339:
 2695              	.LBE338:
 2696              	.LBE337:
 2697              	.LBE347:
 2698              		.loc 4 461 3 view .LVU722
 2699              	.LVL202:
 2700              	.LBB348:
 2701              	.LBB345:
 2702              	.LBB343:
 2703              	.LBB342:
 2704              	.LBB340:
 2705              	.LBI340:
 2706              		.loc 5 544 57 view .LVU723
 2707              	.LBB341:
 2708              		.loc 5 546 3 view .LVU724
 2709 004c 0023     		movs	r3, #0
 2710              		.syntax unified
 2711              	@ 546 ".//ChibiOS//os/ext/CMSIS/include/core_cmFunc.h" 1
 2712 004e 83F31188 		MSR basepri, r3
 2713              	@ 0 "" 2
 2714              	.LVL203:
 2715              		.loc 5 546 3 is_stmt 0 view .LVU725
 2716              		.thumb
 2717              		.syntax unified
 2718              	.LBE341:
 2719              	.LBE340:
 2720              	.LBE342:
 2721              	.LBE343:
 2722              	.LBE345:
 2723              	.LBE348:
 2724              		.loc 1 877 3 is_stmt 1 view .LVU726
 2725              		.loc 1 878 1 is_stmt 0 view .LVU727
 2726 0052 094B     		ldr	r3, .L254
 2727 0054 1A68     		ldr	r2, [r3]
 2728 0056 019B     		ldr	r3, [sp, #4]
 2729 0058 5A40     		eors	r2, r3, r2
 2730 005a 0AD1     		bne	.L253
 2731 005c 2846     		mov	r0, r5
 2732 005e 03B0     		add	sp, sp, #12
 2733              		.cfi_remember_state
 2734              		.cfi_def_cfa_offset 12
 2735              		@ sp needed
 2736 0060 30BD     		pop	{r4, r5, pc}
ARM GAS  /tmp/ccBDDCqA.s 			page 49


 2737              	.LVL204:
 2738              	.L252:
 2739              		.cfi_restore_state
 2740              	.LBB349:
 2741              	.LBB346:
 2742              	.LBB344:
 2743              		.loc 3 367 3 is_stmt 1 view .LVU728
 2744 0062 0848     		ldr	r0, .L254+12
 2745 0064 FFF7FEFF 		bl	chSysHalt
 2746              	.LVL205:
 2747 0068 F0E7     		b	.L245
 2748              	.LVL206:
 2749              	.L251:
 2750              		.loc 3 367 3 is_stmt 0 view .LVU729
 2751              	.LBE344:
 2752              	.LBE346:
 2753              	.LBE349:
 2754              		.loc 1 870 3 is_stmt 1 discriminator 3 view .LVU730
 2755 006a 0448     		ldr	r0, .L254+4
 2756              	.LVL207:
 2757              		.loc 1 870 3 is_stmt 0 discriminator 3 view .LVU731
 2758 006c FFF7FEFF 		bl	chSysHalt
 2759              	.LVL208:
 2760 0070 CFE7     		b	.L243
 2761              	.LVL209:
 2762              	.L253:
 2763              		.loc 1 878 1 view .LVU732
 2764 0072 FFF7FEFF 		bl	__stack_chk_fail
 2765              	.LVL210:
 2766              	.L255:
 2767 0076 00BF     		.align	2
 2768              	.L254:
 2769 0078 00000000 		.word	.LC11
 2770 007c 00000000 		.word	.LANCHOR11
 2771 0080 00000000 		.word	ch
 2772 0084 00000000 		.word	.LANCHOR7
 2773              		.cfi_endproc
 2774              	.LFE277:
 2775              		.size	sdcGetAndClearErrors, .-sdcGetAndClearErrors
 2776              		.section	.rodata.sdcErase.cst4,"aM",%progbits,4
 2777              		.align	2
 2778              	.LC12:
 2779 0000 00000000 		.word	__stack_chk_guard
 2780              		.section	.text.sdcErase,"ax",%progbits
 2781              		.align	1
 2782              		.p2align 4,,15
 2783              		.global	sdcErase
 2784              		.syntax unified
 2785              		.thumb
 2786              		.thumb_func
 2787              		.fpu fpv4-sp-d16
 2788              		.type	sdcErase, %function
 2789              	sdcErase:
 2790              	.LVL211:
 2791              	.LFB280:
 2792              		.loc 1 949 68 is_stmt 1 view -0
 2793              		.cfi_startproc
ARM GAS  /tmp/ccBDDCqA.s 			page 50


 2794              		@ args = 0, pretend = 0, frame = 8
 2795              		@ frame_needed = 0, uses_anonymous_args = 0
 2796              		.loc 1 949 68 is_stmt 0 view .LVU734
 2797 0000 70B5     		push	{r4, r5, r6, lr}
 2798              		.cfi_def_cfa_offset 16
 2799              		.cfi_offset 4, -16
 2800              		.cfi_offset 5, -12
 2801              		.cfi_offset 6, -8
 2802              		.cfi_offset 14, -4
 2803 0002 284B     		ldr	r3, .L273
 2804 0004 82B0     		sub	sp, sp, #8
 2805              		.cfi_def_cfa_offset 24
 2806              		.loc 1 949 68 view .LVU735
 2807 0006 0D46     		mov	r5, r1
 2808 0008 1646     		mov	r6, r2
 2809 000a 1B68     		ldr	r3, [r3]
 2810 000c 0193     		str	r3, [sp, #4]
 2811 000e 4FF00003 		mov	r3,#0
 2812              		.loc 1 950 3 is_stmt 1 view .LVU736
 2813              		.loc 1 952 3 view .LVU737
 2814              		.loc 1 952 3 view .LVU738
 2815              		.loc 1 952 3 view .LVU739
 2816 0012 0446     		mov	r4, r0
 2817 0014 0028     		cmp	r0, #0
 2818 0016 3FD0     		beq	.L271
 2819              	.LVL212:
 2820              	.L257:
 2821              		.loc 1 952 3 discriminator 1 view .LVU740
 2822              		.loc 1 953 3 discriminator 1 view .LVU741
 2823              		.loc 1 953 3 discriminator 1 view .LVU742
 2824              		.loc 1 953 3 discriminator 1 view .LVU743
 2825 0018 2379     		ldrb	r3, [r4, #4]	@ zero_extendqisi2
 2826 001a 052B     		cmp	r3, #5
 2827 001c 02D0     		beq	.L258
 2828              		.loc 1 953 3 discriminator 3 view .LVU744
 2829 001e 2248     		ldr	r0, .L273+4
 2830 0020 FFF7FEFF 		bl	chSysHalt
 2831              	.LVL213:
 2832              	.L258:
 2833              		.loc 1 953 3 discriminator 5 view .LVU745
 2834              		.loc 1 956 3 discriminator 5 view .LVU746
 2835              		.loc 1 959 23 is_stmt 0 discriminator 5 view .LVU747
 2836 0024 236B     		ldr	r3, [r4, #48]
 2837              		.loc 1 956 15 discriminator 5 view .LVU748
 2838 0026 0722     		movs	r2, #7
 2839              		.loc 1 959 6 discriminator 5 view .LVU749
 2840 0028 DB06     		lsls	r3, r3, #27
 2841              		.loc 1 956 15 discriminator 5 view .LVU750
 2842 002a 2271     		strb	r2, [r4, #4]
 2843              		.loc 1 959 3 is_stmt 1 discriminator 5 view .LVU751
 2844              		.loc 1 960 5 discriminator 5 view .LVU752
 2845              		.loc 1 964 7 is_stmt 0 discriminator 5 view .LVU753
 2846 002c 2046     		mov	r0, r4
 2847              		.loc 1 960 14 discriminator 5 view .LVU754
 2848 002e 44BF     		itt	mi
 2849 0030 6D02     		lslmi	r5, r5, #9
 2850              	.LVL214:
ARM GAS  /tmp/ccBDDCqA.s 			page 51


 2851              		.loc 1 961 5 is_stmt 1 discriminator 5 view .LVU755
 2852              		.loc 1 961 12 is_stmt 0 discriminator 5 view .LVU756
 2853 0032 7602     		lslmi	r6, r6, #9
 2854              	.LVL215:
 2855              		.loc 1 964 3 is_stmt 1 discriminator 5 view .LVU757
 2856              		.loc 1 964 7 is_stmt 0 discriminator 5 view .LVU758
 2857 0034 FFF7FEFF 		bl	_sdc_wait_for_transfer_state
 2858              	.LVL216:
 2859              		.loc 1 964 6 discriminator 5 view .LVU759
 2860 0038 48B1     		cbz	r0, .L260
 2861              	.LVL217:
 2862              	.L262:
 2863              		.loc 1 999 10 view .LVU760
 2864 003a 0120     		movs	r0, #1
 2865              	.L261:
 2866 003c 0523     		movs	r3, #5
 2867 003e 2371     		strb	r3, [r4, #4]
 2868              		.loc 1 1000 1 view .LVU761
 2869 0040 184B     		ldr	r3, .L273
 2870 0042 1A68     		ldr	r2, [r3]
 2871 0044 019B     		ldr	r3, [sp, #4]
 2872 0046 5A40     		eors	r2, r3, r2
 2873 0048 2AD1     		bne	.L272
 2874 004a 02B0     		add	sp, sp, #8
 2875              		.cfi_remember_state
 2876              		.cfi_def_cfa_offset 16
 2877              		@ sp needed
 2878 004c 70BD     		pop	{r4, r5, r6, pc}
 2879              	.LVL218:
 2880              	.L260:
 2881              		.cfi_restore_state
 2882              		.loc 1 968 3 is_stmt 1 view .LVU762
 2883              		.loc 1 968 8 is_stmt 0 view .LVU763
 2884 004e 2A46     		mov	r2, r5
 2885 0050 6B46     		mov	r3, sp
 2886 0052 2021     		movs	r1, #32
 2887 0054 2046     		mov	r0, r4
 2888 0056 FFF7FEFF 		bl	sdc_lld_send_cmd_short_crc
 2889              	.LVL219:
 2890              		.loc 1 968 6 view .LVU764
 2891 005a 0028     		cmp	r0, #0
 2892 005c EDD1     		bne	.L262
 2893              		.loc 1 970 7 view .LVU765
 2894 005e 009B     		ldr	r3, [sp]
 2895 0060 124D     		ldr	r5, .L273+8
 2896              	.LVL220:
 2897              		.loc 1 969 67 view .LVU766
 2898 0062 2B42     		tst	r3, r5
 2899 0064 E9D1     		bne	.L262
 2900              		.loc 1 974 3 is_stmt 1 view .LVU767
 2901              		.loc 1 974 8 is_stmt 0 view .LVU768
 2902 0066 3246     		mov	r2, r6
 2903 0068 6B46     		mov	r3, sp
 2904 006a 2121     		movs	r1, #33
 2905 006c 2046     		mov	r0, r4
 2906 006e FFF7FEFF 		bl	sdc_lld_send_cmd_short_crc
 2907              	.LVL221:
ARM GAS  /tmp/ccBDDCqA.s 			page 52


 2908              		.loc 1 974 6 view .LVU769
 2909 0072 0028     		cmp	r0, #0
 2910 0074 E1D1     		bne	.L262
 2911              		.loc 1 976 7 view .LVU770
 2912 0076 009A     		ldr	r2, [sp]
 2913              		.loc 1 975 65 view .LVU771
 2914 0078 2A40     		ands	r2, r2, r5
 2915 007a DED1     		bne	.L262
 2916              		.loc 1 980 3 is_stmt 1 view .LVU772
 2917              		.loc 1 980 8 is_stmt 0 view .LVU773
 2918 007c 6B46     		mov	r3, sp
 2919 007e 2621     		movs	r1, #38
 2920 0080 2046     		mov	r0, r4
 2921 0082 FFF7FEFF 		bl	sdc_lld_send_cmd_short_crc
 2922              	.LVL222:
 2923              		.loc 1 980 6 view .LVU774
 2924 0086 0028     		cmp	r0, #0
 2925 0088 D7D1     		bne	.L262
 2926              		.loc 1 982 7 view .LVU775
 2927 008a 009B     		ldr	r3, [sp]
 2928              		.loc 1 981 60 view .LVU776
 2929 008c 2B42     		tst	r3, r5
 2930 008e D4D1     		bne	.L262
 2931              		.loc 1 990 3 is_stmt 1 view .LVU777
 2932              		.loc 1 990 7 is_stmt 0 view .LVU778
 2933 0090 2046     		mov	r0, r4
 2934 0092 FFF7FEFF 		bl	_sdc_wait_for_transfer_state
 2935              	.LVL223:
 2936 0096 D1E7     		b	.L261
 2937              	.LVL224:
 2938              	.L271:
 2939              		.loc 1 952 3 is_stmt 1 discriminator 3 view .LVU779
 2940 0098 0348     		ldr	r0, .L273+4
 2941              	.LVL225:
 2942              		.loc 1 952 3 is_stmt 0 discriminator 3 view .LVU780
 2943 009a FFF7FEFF 		bl	chSysHalt
 2944              	.LVL226:
 2945              		.loc 1 952 3 discriminator 3 view .LVU781
 2946 009e BBE7     		b	.L257
 2947              	.LVL227:
 2948              	.L272:
 2949              		.loc 1 1000 1 view .LVU782
 2950 00a0 FFF7FEFF 		bl	__stack_chk_fail
 2951              	.LVL228:
 2952              	.L274:
 2953              		.align	2
 2954              	.L273:
 2955 00a4 00000000 		.word	.LC12
 2956 00a8 00000000 		.word	.LANCHOR12
 2957 00ac 08E0FFFD 		.word	-33562616
 2958              		.cfi_endproc
 2959              	.LFE280:
 2960              		.size	sdcErase, .-sdcErase
 2961              		.section	.rodata.__func__.10457,"a"
 2962              		.align	2
 2963              		.set	.LANCHOR2,. + 0
 2964              		.type	__func__.10457, %object
ARM GAS  /tmp/ccBDDCqA.s 			page 53


 2965              		.size	__func__.10457, 18
 2966              	__func__.10457:
 2967 0000 6D6D635F 		.ascii	"mmc_set_bus_width\000"
 2967      7365745F 
 2967      6275735F 
 2967      77696474 
 2967      6800
 2968              		.section	.rodata.__func__.10479,"a"
 2969              		.align	2
 2970              		.set	.LANCHOR9,. + 0
 2971              		.type	__func__.10479, %object
 2972              		.size	__func__.10479, 9
 2973              	__func__.10479:
 2974 0000 73646353 		.ascii	"sdcStart\000"
 2974      74617274 
 2974      00
 2975              		.section	.rodata.__func__.10483,"a"
 2976              		.align	2
 2977              		.set	.LANCHOR10,. + 0
 2978              		.type	__func__.10483, %object
 2979              		.size	__func__.10483, 8
 2980              	__func__.10483:
 2981 0000 73646353 		.ascii	"sdcStop\000"
 2981      746F7000 
 2982              		.section	.rodata.__func__.10489,"a"
 2983              		.align	2
 2984              		.set	.LANCHOR1,. + 0
 2985              		.type	__func__.10489, %object
 2986              		.size	__func__.10489, 11
 2987              	__func__.10489:
 2988 0000 73646343 		.ascii	"sdcConnect\000"
 2988      6F6E6E65 
 2988      637400
 2989              		.section	.rodata.__func__.10500,"a"
 2990              		.align	2
 2991              		.set	.LANCHOR6,. + 0
 2992              		.type	__func__.10500, %object
 2993              		.size	__func__.10500, 14
 2994              	__func__.10500:
 2995 0000 73646344 		.ascii	"sdcDisconnect\000"
 2995      6973636F 
 2995      6E6E6563 
 2995      7400
 2996              		.section	.rodata.__func__.10508,"a"
 2997              		.align	2
 2998              		.set	.LANCHOR3,. + 0
 2999              		.type	__func__.10508, %object
 3000              		.size	__func__.10508, 8
 3001              	__func__.10508:
 3002 0000 73646352 		.ascii	"sdcRead\000"
 3002      65616400 
 3003              		.section	.rodata.__func__.10516,"a"
 3004              		.align	2
 3005              		.set	.LANCHOR4,. + 0
 3006              		.type	__func__.10516, %object
 3007              		.size	__func__.10516, 9
 3008              	__func__.10516:
ARM GAS  /tmp/ccBDDCqA.s 			page 54


 3009 0000 73646357 		.ascii	"sdcWrite\000"
 3009      72697465 
 3009      00
 3010              		.section	.rodata.__func__.10521,"a"
 3011              		.align	2
 3012              		.set	.LANCHOR11,. + 0
 3013              		.type	__func__.10521, %object
 3014              		.size	__func__.10521, 21
 3015              	__func__.10521:
 3016 0000 73646347 		.ascii	"sdcGetAndClearErrors\000"
 3016      6574416E 
 3016      64436C65 
 3016      61724572 
 3016      726F7273 
 3017              		.section	.rodata.__func__.10526,"a"
 3018              		.align	2
 3019              		.set	.LANCHOR5,. + 0
 3020              		.type	__func__.10526, %object
 3021              		.size	__func__.10526, 8
 3022              	__func__.10526:
 3023 0000 73646353 		.ascii	"sdcSync\000"
 3023      796E6300 
 3024              		.section	.rodata.__func__.10531,"a"
 3025              		.align	2
 3026              		.set	.LANCHOR0,. + 0
 3027              		.type	__func__.10531, %object
 3028              		.size	__func__.10531, 11
 3029              	__func__.10531:
 3030 0000 73646347 		.ascii	"sdcGetInfo\000"
 3030      6574496E 
 3030      666F00
 3031              		.section	.rodata.__func__.10538,"a"
 3032              		.align	2
 3033              		.set	.LANCHOR12,. + 0
 3034              		.type	__func__.10538, %object
 3035              		.size	__func__.10538, 9
 3036              	__func__.10538:
 3037 0000 73646345 		.ascii	"sdcErase\000"
 3037      72617365 
 3037      00
 3038              		.section	.rodata.__func__.7663,"a"
 3039              		.align	2
 3040              		.set	.LANCHOR7,. + 0
 3041              		.type	__func__.7663, %object
 3042              		.size	__func__.7663, 12
 3043              	__func__.7663:
 3044 0000 63685379 		.ascii	"chSysUnlock\000"
 3044      73556E6C 
 3044      6F636B00 
 3045              		.section	.rodata.sdc_vmt,"a"
 3046              		.align	2
 3047              		.set	.LANCHOR8,. + 0
 3048              		.type	sdc_vmt, %object
 3049              		.size	sdc_vmt, 32
 3050              	sdc_vmt:
 3051 0000 00000000 		.word	sdc_lld_is_card_inserted
 3052 0004 00000000 		.word	sdc_lld_is_write_protected
ARM GAS  /tmp/ccBDDCqA.s 			page 55


 3053 0008 00000000 		.word	sdcConnect
 3054 000c 00000000 		.word	sdcDisconnect
 3055 0010 00000000 		.word	sdcRead
 3056 0014 00000000 		.word	sdcWrite
 3057 0018 00000000 		.word	sdcSync
 3058 001c 00000000 		.word	sdcGetInfo
 3059              		.text
 3060              	.Letext0:
 3061              		.file 6 "/usr/lib/gcc/arm-none-eabi/9.2.1/include/stddef.h"
 3062              		.file 7 "/usr/include/newlib/sys/_types.h"
 3063              		.file 8 "/usr/include/newlib/sys/reent.h"
 3064              		.file 9 "/usr/include/newlib/sys/lock.h"
 3065              		.file 10 "/usr/lib/gcc/arm-none-eabi/9.2.1/include/stdint.h"
 3066              		.file 11 ".//ChibiOS//os/rt/ports/ARMCMx/compilers/GCC/chtypes.h"
 3067              		.file 12 ".//ChibiOS//os/rt/include/chsystypes.h"
 3068              		.file 13 ".//ChibiOS//os/rt/include/chschd.h"
 3069              		.file 14 ".//ChibiOS//os/ext/CMSIS/include/core_cm4.h"
 3070              		.file 15 ".//ChibiOS//os/ext/CMSIS/ST/system_stm32f4xx.h"
 3071              		.file 16 ".//ChibiOS//os/ext/CMSIS/ST/stm32f407xx.h"
 3072              		.file 17 ".//ChibiOS//os/rt/ports/ARMCMx/chcore.h"
 3073              		.file 18 ".//ChibiOS//os/rt/include/chdebug.h"
 3074              		.file 19 ".//ChibiOS//os/rt/include/chtm.h"
 3075              		.file 20 ".//ChibiOS//os/rt/include/chstats.h"
 3076              		.file 21 ".//ChibiOS//os/rt/include/chsem.h"
 3077              		.file 22 ".//ChibiOS//os/rt/include/chmtx.h"
 3078              		.file 23 ".//ChibiOS//os/rt/include/chregistry.h"
 3079              		.file 24 ".//ChibiOS//os/rt/include/chevents.h"
 3080              		.file 25 ".//ChibiOS//os/rt/include/chqueues.h"
 3081              		.file 26 ".//ChibiOS//os/hal/ports/STM32/STM32F4xx/stm32_dma.h"
 3082              		.file 27 ".//ChibiOS//os/hal/include/hal_ioblock.h"
 3083              		.file 28 ".//ChibiOS//os/hal/ports/STM32/LLD/GPIOv2/pal_lld.h"
 3084              		.file 29 ".//ChibiOS//os/hal/include/adc.h"
 3085              		.file 30 ".//ChibiOS//os/hal/ports/STM32/STM32F4xx/adc_lld.h"
 3086              		.file 31 ".//ChibiOS//os/hal/include/can.h"
 3087              		.file 32 ".//ChibiOS//os/hal/ports/STM32/LLD/can_lld.h"
 3088              		.file 33 ".//ChibiOS//os/hal/include/dac.h"
 3089              		.file 34 ".//ChibiOS//os/hal/ports/STM32/LLD/DACv1/dac_lld.h"
 3090              		.file 35 ".//ChibiOS//os/hal/include/ext.h"
 3091              		.file 36 ".//ChibiOS//os/hal/ports/STM32/LLD/ext_lld.h"
 3092              		.file 37 ".//ChibiOS//os/hal/include/gpt.h"
 3093              		.file 38 ".//ChibiOS//os/hal/ports/STM32/LLD/TIMv1/gpt_lld.h"
 3094              		.file 39 ".//ChibiOS//os/hal/ports/STM32/LLD/TIMv1/stm32_tim.h"
 3095              		.file 40 ".//ChibiOS//os/hal/include/i2c.h"
 3096              		.file 41 ".//ChibiOS//os/hal/ports/STM32/LLD/I2Cv1/i2c_lld.h"
 3097              		.file 42 ".//ChibiOS//os/hal/include/i2s.h"
 3098              		.file 43 ".//ChibiOS//os/hal/ports/STM32/LLD/SPIv1/i2s_lld.h"
 3099              		.file 44 ".//ChibiOS//os/hal/include/pwm.h"
 3100              		.file 45 ".//ChibiOS//os/hal/ports/STM32/LLD/TIMv1/pwm_lld.h"
 3101              		.file 46 ".//ChibiOS//os/hal/include/serial.h"
 3102              		.file 47 ".//ChibiOS//os/hal/ports/STM32/LLD/USARTv1/serial_lld.h"
 3103              		.file 48 ".//ChibiOS//os/hal/include/sdc.h"
 3104              		.file 49 ".//ChibiOS//os/hal/ports/STM32/LLD/sdc_lld.h"
 3105              		.file 50 ".//ChibiOS//os/hal/include/spi.h"
 3106              		.file 51 ".//ChibiOS//os/hal/ports/STM32/LLD/SPIv1/spi_lld.h"
 3107              		.file 52 ".//ChibiOS//os/hal/include/usb.h"
 3108              		.file 53 ".//ChibiOS//os/hal/ports/STM32/LLD/OTGv1/usb_lld.h"
 3109              		.file 54 ".//ChibiOS//os/hal/ports/STM32/LLD/OTGv1/stm32_otg.h"
ARM GAS  /tmp/ccBDDCqA.s 			page 56


 3110              		.file 55 ".//ChibiOS//os/hal/include/hal_mmcsd.h"
 3111              		.file 56 ".//ChibiOS//os/rt/include/chthreads.h"