ARM GAS  /tmp/ccDzFi87.s 			page 1


   1              		.cpu cortex-m4
   2              		.eabi_attribute 27, 1
   3              		.eabi_attribute 28, 1
   4              		.eabi_attribute 20, 1
   5              		.eabi_attribute 21, 1
   6              		.eabi_attribute 23, 3
   7              		.eabi_attribute 24, 1
   8              		.eabi_attribute 25, 1
   9              		.eabi_attribute 26, 1
  10              		.eabi_attribute 30, 2
  11              		.eabi_attribute 34, 1
  12              		.eabi_attribute 18, 4
  13              		.file	"sdc_lld.c"
  14              		.text
  15              	.Ltext0:
  16              		.cfi_sections	.debug_frame
  17              		.section	.rodata.sdc_lld_collect_errors.isra.0.cst4,"aM",%progbits,4
  18              		.align	2
  19              	.LC0:
  20 0000 00000000 		.word	__stack_chk_guard
  21              		.section	.text.sdc_lld_collect_errors.isra.0,"ax",%progbits
  22              		.align	1
  23              		.p2align 4,,15
  24              		.arch armv7e-m
  25              		.syntax unified
  26              		.thumb
  27              		.thumb_func
  28              		.fpu fpv4-sp-d16
  29              		.type	sdc_lld_collect_errors.isra.0, %function
  30              	sdc_lld_collect_errors.isra.0:
  31              	.LVL0:
  32              	.LFB280:
  33              		.file 1 ".//ChibiOS//os/hal/ports/STM32/LLD/sdc_lld.c"
  34              		.loc 1 261 13 view -0
  35              		.cfi_startproc
  36              		@ args = 0, pretend = 0, frame = 8
  37              		@ frame_needed = 0, uses_anonymous_args = 0
  38              		.loc 1 261 13 is_stmt 0 view .LVU1
  39 0000 00B5     		push	{lr}
  40              		.cfi_def_cfa_offset 4
  41              		.cfi_offset 14, -4
  42 0002 164B     		ldr	r3, .L30
  43 0004 83B0     		sub	sp, sp, #12
  44              		.cfi_def_cfa_offset 16
  45              		.loc 1 261 13 view .LVU2
  46 0006 1B68     		ldr	r3, [r3]
  47 0008 0193     		str	r3, [sp, #4]
  48 000a 4FF00003 		mov	r3,#0
  49              		.loc 1 262 3 is_stmt 1 view .LVU3
  50              	.LVL1:
  51              		.loc 1 264 3 view .LVU4
  52              		.loc 1 266 6 is_stmt 0 view .LVU5
  53 000e 8A07     		lsls	r2, r1, #30
  54              		.loc 1 264 11 view .LVU6
  55 0010 01F00103 		and	r3, r1, #1
  56              	.LVL2:
  57              		.loc 1 266 3 is_stmt 1 view .LVU7
ARM GAS  /tmp/ccDzFi87.s 			page 2


  58              		.loc 1 267 5 view .LVU8
  59              		.loc 1 267 12 is_stmt 0 view .LVU9
  60 0014 48BF     		it	mi
  61 0016 43F00203 		orrmi	r3, r3, #2
  62              	.LVL3:
  63              		.loc 1 268 3 is_stmt 1 view .LVU10
  64              		.loc 1 268 6 is_stmt 0 view .LVU11
  65 001a 4A07     		lsls	r2, r1, #29
  66              		.loc 1 269 5 is_stmt 1 view .LVU12
  67              		.loc 1 269 12 is_stmt 0 view .LVU13
  68 001c 48BF     		it	mi
  69 001e 43F00803 		orrmi	r3, r3, #8
  70              	.LVL4:
  71              		.loc 1 270 3 is_stmt 1 view .LVU14
  72              		.loc 1 270 6 is_stmt 0 view .LVU15
  73 0022 0A07     		lsls	r2, r1, #28
  74              		.loc 1 271 5 is_stmt 1 view .LVU16
  75              		.loc 1 271 12 is_stmt 0 view .LVU17
  76 0024 48BF     		it	mi
  77 0026 43F00403 		orrmi	r3, r3, #4
  78              	.LVL5:
  79              		.loc 1 272 3 is_stmt 1 view .LVU18
  80              		.loc 1 272 6 is_stmt 0 view .LVU19
  81 002a CA06     		lsls	r2, r1, #27
  82              		.loc 1 273 5 is_stmt 1 view .LVU20
  83              		.loc 1 273 12 is_stmt 0 view .LVU21
  84 002c 48BF     		it	mi
  85 002e 43F01003 		orrmi	r3, r3, #16
  86              	.LVL6:
  87              		.loc 1 274 3 is_stmt 1 view .LVU22
  88              		.loc 1 274 6 is_stmt 0 view .LVU23
  89 0032 8A06     		lsls	r2, r1, #26
  90              		.loc 1 275 5 is_stmt 1 view .LVU24
  91              		.loc 1 275 12 is_stmt 0 view .LVU25
  92 0034 48BF     		it	mi
  93 0036 43F02003 		orrmi	r3, r3, #32
  94              	.LVL7:
  95              		.loc 1 276 3 is_stmt 1 view .LVU26
  96              		.loc 1 276 6 is_stmt 0 view .LVU27
  97 003a 8A05     		lsls	r2, r1, #22
  98              		.loc 1 277 5 is_stmt 1 view .LVU28
  99              		.loc 1 279 16 is_stmt 0 view .LVU29
 100 003c 0268     		ldr	r2, [r0]
 101              		.loc 1 277 12 view .LVU30
 102 003e 48BF     		it	mi
 103 0040 43F04003 		orrmi	r3, r3, #64
 104              	.LVL8:
 105              		.loc 1 279 3 is_stmt 1 view .LVU31
 106              		.loc 1 279 16 is_stmt 0 view .LVU32
 107 0044 1343     		orrs	r3, r3, r2
 108              	.LVL9:
 109              		.loc 1 279 16 view .LVU33
 110 0046 0360     		str	r3, [r0]
 111              		.loc 1 280 1 view .LVU34
 112 0048 044B     		ldr	r3, .L30
 113 004a 1A68     		ldr	r2, [r3]
 114 004c 019B     		ldr	r3, [sp, #4]
ARM GAS  /tmp/ccDzFi87.s 			page 3


 115 004e 5A40     		eors	r2, r3, r2
 116              	.LVL10:
 117              		.loc 1 280 1 view .LVU35
 118 0050 02D1     		bne	.L29
 119 0052 03B0     		add	sp, sp, #12
 120              		.cfi_remember_state
 121              		.cfi_def_cfa_offset 4
 122              		@ sp needed
 123 0054 5DF804FB 		ldr	pc, [sp], #4
 124              	.L29:
 125              		.cfi_restore_state
 126 0058 FFF7FEFF 		bl	__stack_chk_fail
 127              	.LVL11:
 128              	.L31:
 129              		.loc 1 280 1 view .LVU36
 130              		.align	2
 131              	.L30:
 132 005c 00000000 		.word	.LC0
 133              		.cfi_endproc
 134              	.LFE280:
 135              		.size	sdc_lld_collect_errors.isra.0, .-sdc_lld_collect_errors.isra.0
 136              		.section	.rodata.Vector104.cst4,"aM",%progbits,4
 137              		.align	2
 138              	.LC1:
 139 0000 00000000 		.word	__stack_chk_guard
 140              		.section	.text.Vector104,"ax",%progbits
 141              		.align	1
 142              		.p2align 4,,15
 143              		.global	Vector104
 144              		.syntax unified
 145              		.thumb
 146              		.thumb_func
 147              		.fpu fpv4-sp-d16
 148              		.type	Vector104, %function
 149              	Vector104:
 150              	.LFB262:
 151              		.loc 1 320 38 is_stmt 1 view -0
 152              		.cfi_startproc
 153              		@ args = 0, pretend = 0, frame = 8
 154              		@ frame_needed = 0, uses_anonymous_args = 0
 155 0000 10B5     		push	{r4, lr}
 156              		.cfi_def_cfa_offset 8
 157              		.cfi_offset 4, -8
 158              		.cfi_offset 14, -4
 159 0002 164B     		ldr	r3, .L37
 160 0004 82B0     		sub	sp, sp, #8
 161              		.cfi_def_cfa_offset 16
 162              		.loc 1 320 38 is_stmt 0 view .LVU38
 163 0006 1B68     		ldr	r3, [r3]
 164 0008 0193     		str	r3, [sp, #4]
 165 000a 4FF00003 		mov	r3,#0
 166              		.loc 1 322 3 is_stmt 1 view .LVU39
 167              		.loc 1 322 3 view .LVU40
 168 000e FFF7FEFF 		bl	_stats_increase_irq
 169              	.LVL12:
 170              		.loc 1 322 3 view .LVU41
 171 0012 FFF7FEFF 		bl	_dbg_check_enter_isr
ARM GAS  /tmp/ccDzFi87.s 			page 4


 172              	.LVL13:
 173              		.loc 1 324 3 view .LVU42
 174              	.LBB94:
 175              	.LBI94:
 176              		.file 2 ".//ChibiOS//os/hal/osal/rt/osal.h"
 177              		.loc 2 467 20 view .LVU43
 178              	.LBE94:
 179              		.loc 2 469 3 view .LVU44
 180              	.LBB108:
 181              	.LBB95:
 182              	.LBI95:
 183              		.file 3 ".//ChibiOS//os/rt/include/chsys.h"
 184              		.loc 3 386 20 view .LVU45
 185              	.LBB96:
 186              		.loc 3 388 3 view .LVU46
 187              	.LBB97:
 188              	.LBI97:
 189              		.file 4 ".//ChibiOS//os/rt/ports/ARMCMx/chcore_v7m.h"
 190              		.loc 4 473 20 view .LVU47
 191              	.LBE97:
 192              	.LBE96:
 193              	.LBE95:
 194              	.LBE108:
 195              		.loc 4 475 3 view .LVU48
 196              	.LBB109:
 197              	.LBB106:
 198              	.LBB104:
 199              	.LBB102:
 200              	.LBB98:
 201              	.LBI98:
 202              		.loc 4 444 20 view .LVU49
 203              	.LBE98:
 204              	.LBE102:
 205              	.LBE104:
 206              	.LBE106:
 207              	.LBE109:
 208              		.loc 4 447 3 view .LVU50
 209              	.LBB110:
 210              	.LBB107:
 211              	.LBB105:
 212              	.LBB103:
 213              	.LBB101:
 214              	.LBB99:
 215              	.LBI99:
 216              		.file 5 ".//ChibiOS//os/ext/CMSIS/include/core_cmFunc.h"
 217              		.loc 5 544 57 view .LVU51
 218              	.LBB100:
 219              		.loc 5 546 3 view .LVU52
 220 0016 2023     		movs	r3, #32
 221              		.syntax unified
 222              	@ 546 ".//ChibiOS//os/ext/CMSIS/include/core_cmFunc.h" 1
 223 0018 83F31188 		MSR basepri, r3
 224              	@ 0 "" 2
 225              	.LVL14:
 226              		.loc 5 546 3 is_stmt 0 view .LVU53
 227              		.thumb
 228              		.syntax unified
ARM GAS  /tmp/ccDzFi87.s 			page 5


 229              	.LBE100:
 230              	.LBE99:
 231              	.LBE101:
 232              	.LBE103:
 233              		.loc 3 389 3 is_stmt 1 view .LVU54
 234 001c FFF7FEFF 		bl	_stats_start_measure_crit_isr
 235              	.LVL15:
 236              		.loc 3 390 3 view .LVU55
 237 0020 FFF7FEFF 		bl	_dbg_check_lock_from_isr
 238              	.LVL16:
 239              	.LBE105:
 240              	.LBE107:
 241              	.LBE110:
 242              		.loc 1 328 3 view .LVU56
 243              		.loc 1 328 14 is_stmt 0 view .LVU57
 244 0024 0E4B     		ldr	r3, .L37+4
 245              	.LBB111:
 246              	.LBB112:
 247              		.loc 2 682 3 view .LVU58
 248 0026 0F48     		ldr	r0, .L37+8
 249              	.LBE112:
 250              	.LBE111:
 251              		.loc 1 328 14 view .LVU59
 252 0028 0024     		movs	r4, #0
 253 002a DC63     		str	r4, [r3, #60]
 254              		.loc 1 330 3 is_stmt 1 view .LVU60
 255              	.LVL17:
 256              	.LBB114:
 257              	.LBI111:
 258              		.loc 2 680 20 view .LVU61
 259              	.LBB113:
 260              		.loc 2 682 3 view .LVU62
 261 002c 2146     		mov	r1, r4
 262 002e FFF7FEFF 		bl	chThdResumeI
 263              	.LVL18:
 264              		.loc 2 682 3 is_stmt 0 view .LVU63
 265              	.LBE113:
 266              	.LBE114:
 267              		.loc 1 332 3 is_stmt 1 view .LVU64
 268              	.LBB115:
 269              	.LBI115:
 270              		.loc 2 478 20 view .LVU65
 271              	.LBE115:
 272              		.loc 2 480 3 view .LVU66
 273              	.LBB129:
 274              	.LBB116:
 275              	.LBI116:
 276              		.loc 3 406 20 view .LVU67
 277              	.LBB117:
 278              		.loc 3 408 3 view .LVU68
 279 0032 FFF7FEFF 		bl	_dbg_check_unlock_from_isr
 280              	.LVL19:
 281              		.loc 3 409 3 view .LVU69
 282 0036 FFF7FEFF 		bl	_stats_stop_measure_crit_isr
 283              	.LVL20:
 284              		.loc 3 410 3 view .LVU70
 285              	.LBB118:
ARM GAS  /tmp/ccDzFi87.s 			page 6


 286              	.LBI118:
 287              		.loc 4 484 20 view .LVU71
 288              	.LBE118:
 289              	.LBE117:
 290              	.LBE116:
 291              	.LBE129:
 292              		.loc 4 486 3 view .LVU72
 293              	.LBB130:
 294              	.LBB127:
 295              	.LBB125:
 296              	.LBB123:
 297              	.LBB119:
 298              	.LBI119:
 299              		.loc 4 458 20 view .LVU73
 300              	.LBE119:
 301              	.LBE123:
 302              	.LBE125:
 303              	.LBE127:
 304              	.LBE130:
 305              		.loc 4 461 3 view .LVU74
 306              	.LBB131:
 307              	.LBB128:
 308              	.LBB126:
 309              	.LBB124:
 310              	.LBB122:
 311              	.LBB120:
 312              	.LBI120:
 313              		.loc 5 544 57 view .LVU75
 314              	.LBB121:
 315              		.loc 5 546 3 view .LVU76
 316              		.syntax unified
 317              	@ 546 ".//ChibiOS//os/ext/CMSIS/include/core_cmFunc.h" 1
 318 003a 84F31188 		MSR basepri, r4
 319              	@ 0 "" 2
 320              	.LVL21:
 321              		.loc 5 546 3 is_stmt 0 view .LVU77
 322              		.thumb
 323              		.syntax unified
 324              	.LBE121:
 325              	.LBE120:
 326              	.LBE122:
 327              	.LBE124:
 328              	.LBE126:
 329              	.LBE128:
 330              	.LBE131:
 331              		.loc 1 334 3 is_stmt 1 view .LVU78
 332 003e FFF7FEFF 		bl	_dbg_check_leave_isr
 333              	.LVL22:
 334              		.loc 1 334 3 view .LVU79
 335 0042 064B     		ldr	r3, .L37
 336 0044 1A68     		ldr	r2, [r3]
 337 0046 019B     		ldr	r3, [sp, #4]
 338 0048 5A40     		eors	r2, r3, r2
 339 004a 04D1     		bne	.L36
 340              		.loc 1 335 1 is_stmt 0 view .LVU80
 341 004c 02B0     		add	sp, sp, #8
 342              		.cfi_remember_state
ARM GAS  /tmp/ccDzFi87.s 			page 7


 343              		.cfi_def_cfa_offset 8
 344              		@ sp needed
 345 004e BDE81040 		pop	{r4, lr}
 346              		.cfi_restore 14
 347              		.cfi_restore 4
 348              		.cfi_def_cfa_offset 0
 349              		.loc 1 334 3 view .LVU81
 350 0052 FFF7FEBF 		b	_port_irq_epilogue
 351              	.LVL23:
 352              	.L36:
 353              		.cfi_restore_state
 354 0056 FFF7FEFF 		bl	__stack_chk_fail
 355              	.LVL24:
 356              	.L38:
 357 005a 00BF     		.align	2
 358              	.L37:
 359 005c 00000000 		.word	.LC1
 360 0060 002C0140 		.word	1073818624
 361 0064 3C000000 		.word	.LANCHOR0+60
 362              		.cfi_endproc
 363              	.LFE262:
 364              		.size	Vector104, .-Vector104
 365              		.section	.rodata.sdc_lld_init.cst4,"aM",%progbits,4
 366              		.align	2
 367              	.LC2:
 368 0000 00000000 		.word	__stack_chk_guard
 369              		.section	.text.sdc_lld_init,"ax",%progbits
 370              		.align	1
 371              		.p2align 4,,15
 372              		.global	sdc_lld_init
 373              		.syntax unified
 374              		.thumb
 375              		.thumb_func
 376              		.fpu fpv4-sp-d16
 377              		.type	sdc_lld_init, %function
 378              	sdc_lld_init:
 379              	.LFB263:
 380              		.loc 1 346 25 is_stmt 1 view -0
 381              		.cfi_startproc
 382              		@ args = 0, pretend = 0, frame = 8
 383              		@ frame_needed = 0, uses_anonymous_args = 0
 384 0000 10B5     		push	{r4, lr}
 385              		.cfi_def_cfa_offset 8
 386              		.cfi_offset 4, -8
 387              		.cfi_offset 14, -4
 388              		.loc 1 348 3 is_stmt 0 view .LVU83
 389 0002 0C4C     		ldr	r4, .L43
 390              		.loc 1 346 25 view .LVU84
 391 0004 0C4B     		ldr	r3, .L43+4
 392 0006 82B0     		sub	sp, sp, #8
 393              		.cfi_def_cfa_offset 16
 394              		.loc 1 348 3 view .LVU85
 395 0008 2046     		mov	r0, r4
 396              		.loc 1 346 25 view .LVU86
 397 000a 1B68     		ldr	r3, [r3]
 398 000c 0193     		str	r3, [sp, #4]
 399 000e 4FF00003 		mov	r3,#0
ARM GAS  /tmp/ccDzFi87.s 			page 8


 400              		.loc 1 348 3 is_stmt 1 view .LVU87
 401 0012 FFF7FEFF 		bl	sdcObjectInit
 402              	.LVL25:
 403              		.loc 1 349 3 view .LVU88
 404              		.loc 1 350 16 is_stmt 0 view .LVU89
 405 0016 094A     		ldr	r2, .L43+8
 406              		.loc 1 351 16 view .LVU90
 407 0018 094B     		ldr	r3, .L43+12
 408 001a C4E91123 		strd	r2, r3, [r4, #68]
 409              		.loc 1 349 16 view .LVU91
 410 001e 0021     		movs	r1, #0
 411              		.loc 1 352 1 view .LVU92
 412 0020 054B     		ldr	r3, .L43+4
 413              		.loc 1 349 16 view .LVU93
 414 0022 E163     		str	r1, [r4, #60]
 415              		.loc 1 350 3 is_stmt 1 view .LVU94
 416              		.loc 1 352 1 is_stmt 0 view .LVU95
 417 0024 1A68     		ldr	r2, [r3]
 418 0026 019B     		ldr	r3, [sp, #4]
 419 0028 5A40     		eors	r2, r3, r2
 420 002a 01D1     		bne	.L42
 421 002c 02B0     		add	sp, sp, #8
 422              		.cfi_remember_state
 423              		.cfi_def_cfa_offset 8
 424              		@ sp needed
 425 002e 10BD     		pop	{r4, pc}
 426              	.L42:
 427              		.cfi_restore_state
 428 0030 FFF7FEFF 		bl	__stack_chk_fail
 429              	.LVL26:
 430              	.L44:
 431              		.align	2
 432              	.L43:
 433 0034 00000000 		.word	.LANCHOR0
 434 0038 00000000 		.word	.LC2
 435 003c 84000000 		.word	_stm32_dma_streams+132
 436 0040 002C0140 		.word	1073818624
 437              		.cfi_endproc
 438              	.LFE263:
 439              		.size	sdc_lld_init, .-sdc_lld_init
 440              		.section	.rodata.sdc_lld_start.cst4,"aM",%progbits,4
 441              		.align	2
 442              	.LC3:
 443 0000 00000000 		.word	__stack_chk_guard
 444              		.section	.text.sdc_lld_start,"ax",%progbits
 445              		.align	1
 446              		.p2align 4,,15
 447              		.global	sdc_lld_start
 448              		.syntax unified
 449              		.thumb
 450              		.thumb_func
 451              		.fpu fpv4-sp-d16
 452              		.type	sdc_lld_start, %function
 453              	sdc_lld_start:
 454              	.LVL27:
 455              	.LFB264:
 456              		.loc 1 361 37 is_stmt 1 view -0
ARM GAS  /tmp/ccDzFi87.s 			page 9


 457              		.cfi_startproc
 458              		@ args = 0, pretend = 0, frame = 8
 459              		@ frame_needed = 0, uses_anonymous_args = 0
 460              		.loc 1 361 37 is_stmt 0 view .LVU97
 461 0000 10B5     		push	{r4, lr}
 462              		.cfi_def_cfa_offset 8
 463              		.cfi_offset 4, -8
 464              		.cfi_offset 14, -4
 465 0002 224B     		ldr	r3, .L58
 466 0004 82B0     		sub	sp, sp, #8
 467              		.cfi_def_cfa_offset 16
 468              		.loc 1 361 37 view .LVU98
 469 0006 1B68     		ldr	r3, [r3]
 470 0008 0193     		str	r3, [sp, #4]
 471 000a 4FF00003 		mov	r3,#0
 472              		.loc 1 364 3 is_stmt 1 view .LVU99
 473              		.loc 1 364 6 is_stmt 0 view .LVU100
 474 000e C36A     		ldr	r3, [r0, #44]
 475              		.loc 1 361 37 view .LVU101
 476 0010 0446     		mov	r4, r0
 477              		.loc 1 364 6 view .LVU102
 478 0012 A3B1     		cbz	r3, .L54
 479              		.loc 1 368 3 is_stmt 1 view .LVU103
 480              		.loc 1 375 3 view .LVU104
 481              		.loc 1 380 6 is_stmt 0 view .LVU105
 482 0014 2379     		ldrb	r3, [r4, #4]	@ zero_extendqisi2
 483              		.loc 1 375 17 view .LVU106
 484 0016 1E4A     		ldr	r2, .L58+4
 485 0018 2264     		str	r2, [r4, #64]
 486              		.loc 1 380 3 is_stmt 1 view .LVU107
 487              		.loc 1 380 6 is_stmt 0 view .LVU108
 488 001a 012B     		cmp	r3, #1
 489 001c 16D0     		beq	.L55
 490              	.LVL28:
 491              	.L47:
 492              	.LBB132:
 493              		.loc 1 390 25 is_stmt 1 discriminator 3 view .LVU109
 494              	.LBE132:
 495              		.loc 1 394 3 discriminator 3 view .LVU110
 496              		.loc 1 394 7 is_stmt 0 discriminator 3 view .LVU111
 497 001e A26C     		ldr	r2, [r4, #72]
 498              		.loc 1 394 22 discriminator 3 view .LVU112
 499 0020 0023     		movs	r3, #0
 500 0022 1360     		str	r3, [r2]
 501              		.loc 1 395 3 is_stmt 1 discriminator 3 view .LVU113
 502              		.loc 1 395 7 is_stmt 0 discriminator 3 view .LVU114
 503 0024 A26C     		ldr	r2, [r4, #72]
 504              		.loc 1 395 22 discriminator 3 view .LVU115
 505 0026 5360     		str	r3, [r2, #4]
 506              		.loc 1 396 3 is_stmt 1 discriminator 3 view .LVU116
 507              		.loc 1 396 7 is_stmt 0 discriminator 3 view .LVU117
 508 0028 A26C     		ldr	r2, [r4, #72]
 509              		.loc 1 396 22 discriminator 3 view .LVU118
 510 002a D362     		str	r3, [r2, #44]
 511              		.loc 1 397 3 is_stmt 1 discriminator 3 view .LVU119
 512              		.loc 1 397 7 is_stmt 0 discriminator 3 view .LVU120
 513 002c A26C     		ldr	r2, [r4, #72]
ARM GAS  /tmp/ccDzFi87.s 			page 10


 514              		.loc 1 397 22 discriminator 3 view .LVU121
 515 002e 5362     		str	r3, [r2, #36]
 516              		.loc 1 398 1 discriminator 3 view .LVU122
 517 0030 164B     		ldr	r3, .L58
 518 0032 1A68     		ldr	r2, [r3]
 519 0034 019B     		ldr	r3, [sp, #4]
 520 0036 5A40     		eors	r2, r3, r2
 521 0038 26D1     		bne	.L56
 522              		.loc 1 398 1 view .LVU123
 523 003a 02B0     		add	sp, sp, #8
 524              		.cfi_remember_state
 525              		.cfi_def_cfa_offset 8
 526              		@ sp needed
 527 003c 10BD     		pop	{r4, pc}
 528              	.LVL29:
 529              	.L54:
 530              		.cfi_restore_state
 531              		.loc 1 365 5 is_stmt 1 view .LVU124
 532              		.loc 1 365 18 is_stmt 0 view .LVU125
 533 003e 154B     		ldr	r3, .L58+8
 534 0040 C362     		str	r3, [r0, #44]
 535              		.loc 1 368 3 is_stmt 1 view .LVU126
 536              		.loc 1 375 3 view .LVU127
 537              		.loc 1 380 6 is_stmt 0 view .LVU128
 538 0042 2379     		ldrb	r3, [r4, #4]	@ zero_extendqisi2
 539              		.loc 1 375 17 view .LVU129
 540 0044 124A     		ldr	r2, .L58+4
 541 0046 2264     		str	r2, [r4, #64]
 542              		.loc 1 380 3 is_stmt 1 view .LVU130
 543              		.loc 1 380 6 is_stmt 0 view .LVU131
 544 0048 012B     		cmp	r3, #1
 545 004a E8D1     		bne	.L47
 546              	.L55:
 547              	.LBB133:
 548              		.loc 1 382 5 is_stmt 1 view .LVU132
 549              		.loc 1 383 5 view .LVU133
 550              		.loc 1 383 9 is_stmt 0 view .LVU134
 551 004c 0023     		movs	r3, #0
 552 004e 606C     		ldr	r0, [r4, #68]
 553              	.LVL30:
 554              		.loc 1 383 9 view .LVU135
 555 0050 1A46     		mov	r2, r3
 556 0052 0921     		movs	r1, #9
 557 0054 FFF7FEFF 		bl	dmaStreamAllocate
 558              	.LVL31:
 559              		.loc 1 384 5 is_stmt 1 view .LVU136
 560              		.loc 1 384 5 view .LVU137
 561              		.loc 1 384 5 view .LVU138
 562 0058 90B9     		cbnz	r0, .L57
 563              	.LVL32:
 564              	.L48:
 565              		.loc 1 384 5 discriminator 5 view .LVU139
 566              		.loc 1 385 5 discriminator 5 view .LVU140
 567 005a D4E91123 		ldrd	r2, r3, [r4, #68]
 568 005e 1268     		ldr	r2, [r2]
 569 0060 8033     		adds	r3, r3, #128
 570 0062 9360     		str	r3, [r2, #8]
ARM GAS  /tmp/ccDzFi87.s 			page 11


 571              		.loc 1 385 57 discriminator 5 view .LVU141
 572              		.loc 1 387 5 discriminator 5 view .LVU142
 573 0064 636C     		ldr	r3, [r4, #68]
 574 0066 1B68     		ldr	r3, [r3]
 575 0068 0722     		movs	r2, #7
 576 006a 5A61     		str	r2, [r3, #20]
 577              		.loc 1 387 78 discriminator 5 view .LVU143
 578              		.loc 1 389 5 discriminator 5 view .LVU144
 579 006c 0921     		movs	r1, #9
 580 006e 3120     		movs	r0, #49
 581 0070 FFF7FEFF 		bl	nvicEnableVector
 582              	.LVL33:
 583              		.loc 1 390 5 discriminator 5 view .LVU145
 584 0074 084A     		ldr	r2, .L58+12
 585 0076 536C     		ldr	r3, [r2, #68]
 586 0078 43F40063 		orr	r3, r3, #2048
 587 007c 5364     		str	r3, [r2, #68]
 588              		.loc 1 390 5 discriminator 5 view .LVU146
 589 007e CEE7     		b	.L47
 590              	.LVL34:
 591              	.L57:
 592              		.loc 1 384 5 discriminator 3 view .LVU147
 593 0080 0648     		ldr	r0, .L58+16
 594              	.LVL35:
 595              		.loc 1 384 5 is_stmt 0 discriminator 3 view .LVU148
 596 0082 FFF7FEFF 		bl	chSysHalt
 597              	.LVL36:
 598 0086 E8E7     		b	.L48
 599              	.L56:
 600              		.loc 1 384 5 discriminator 3 view .LVU149
 601              	.LBE133:
 602              		.loc 1 398 1 view .LVU150
 603 0088 FFF7FEFF 		bl	__stack_chk_fail
 604              	.LVL37:
 605              	.L59:
 606              		.align	2
 607              	.L58:
 608 008c 00000000 		.word	.LC3
 609 0090 2054A308 		.word	144921632
 610 0094 00000000 		.word	.LANCHOR1
 611 0098 00380240 		.word	1073887232
 612 009c 00000000 		.word	.LANCHOR2
 613              		.cfi_endproc
 614              	.LFE264:
 615              		.size	sdc_lld_start, .-sdc_lld_start
 616              		.section	.rodata.sdc_lld_stop.cst4,"aM",%progbits,4
 617              		.align	2
 618              	.LC4:
 619 0000 00000000 		.word	__stack_chk_guard
 620              		.section	.text.sdc_lld_stop,"ax",%progbits
 621              		.align	1
 622              		.p2align 4,,15
 623              		.global	sdc_lld_stop
 624              		.syntax unified
 625              		.thumb
 626              		.thumb_func
 627              		.fpu fpv4-sp-d16
ARM GAS  /tmp/ccDzFi87.s 			page 12


 628              		.type	sdc_lld_stop, %function
 629              	sdc_lld_stop:
 630              	.LVL38:
 631              	.LFB265:
 632              		.loc 1 407 36 is_stmt 1 view -0
 633              		.cfi_startproc
 634              		@ args = 0, pretend = 0, frame = 8
 635              		@ frame_needed = 0, uses_anonymous_args = 0
 636              		.loc 1 407 36 is_stmt 0 view .LVU152
 637 0000 10B5     		push	{r4, lr}
 638              		.cfi_def_cfa_offset 8
 639              		.cfi_offset 4, -8
 640              		.cfi_offset 14, -4
 641 0002 134B     		ldr	r3, .L68
 642 0004 82B0     		sub	sp, sp, #8
 643              		.cfi_def_cfa_offset 16
 644              		.loc 1 407 36 view .LVU153
 645 0006 1B68     		ldr	r3, [r3]
 646 0008 0193     		str	r3, [sp, #4]
 647 000a 4FF00003 		mov	r3,#0
 648              		.loc 1 409 3 is_stmt 1 view .LVU154
 649              		.loc 1 409 6 is_stmt 0 view .LVU155
 650 000e 0379     		ldrb	r3, [r0, #4]	@ zero_extendqisi2
 651 0010 012B     		cmp	r3, #1
 652 0012 14D0     		beq	.L60
 653              		.loc 1 412 5 is_stmt 1 view .LVU156
 654              		.loc 1 412 9 is_stmt 0 view .LVU157
 655 0014 826C     		ldr	r2, [r0, #72]
 656              		.loc 1 412 24 view .LVU158
 657 0016 0023     		movs	r3, #0
 658 0018 1360     		str	r3, [r2]
 659              		.loc 1 413 5 is_stmt 1 view .LVU159
 660              		.loc 1 413 9 is_stmt 0 view .LVU160
 661 001a 826C     		ldr	r2, [r0, #72]
 662              		.loc 1 413 24 view .LVU161
 663 001c 5360     		str	r3, [r2, #4]
 664              		.loc 1 414 5 is_stmt 1 view .LVU162
 665              		.loc 1 414 9 is_stmt 0 view .LVU163
 666 001e 826C     		ldr	r2, [r0, #72]
 667              		.loc 1 414 24 view .LVU164
 668 0020 D362     		str	r3, [r2, #44]
 669              		.loc 1 415 5 is_stmt 1 view .LVU165
 670              		.loc 1 415 9 is_stmt 0 view .LVU166
 671 0022 826C     		ldr	r2, [r0, #72]
 672 0024 0446     		mov	r4, r0
 673              		.loc 1 415 24 view .LVU167
 674 0026 5362     		str	r3, [r2, #36]
 675              		.loc 1 418 5 is_stmt 1 view .LVU168
 676 0028 3120     		movs	r0, #49
 677              	.LVL39:
 678              		.loc 1 418 5 is_stmt 0 view .LVU169
 679 002a FFF7FEFF 		bl	nvicDisableVector
 680              	.LVL40:
 681              		.loc 1 419 5 is_stmt 1 view .LVU170
 682 002e 606C     		ldr	r0, [r4, #68]
 683 0030 FFF7FEFF 		bl	dmaStreamRelease
 684              	.LVL41:
ARM GAS  /tmp/ccDzFi87.s 			page 13


 685              		.loc 1 420 5 view .LVU171
 686 0034 074A     		ldr	r2, .L68+4
 687 0036 536C     		ldr	r3, [r2, #68]
 688 0038 23F40063 		bic	r3, r3, #2048
 689 003c 5364     		str	r3, [r2, #68]
 690              		.loc 1 420 5 view .LVU172
 691              		.loc 1 420 26 view .LVU173
 692              	.LVL42:
 693              	.L60:
 694              		.loc 1 422 1 is_stmt 0 view .LVU174
 695 003e 044B     		ldr	r3, .L68
 696 0040 1A68     		ldr	r2, [r3]
 697 0042 019B     		ldr	r3, [sp, #4]
 698 0044 5A40     		eors	r2, r3, r2
 699 0046 01D1     		bne	.L67
 700 0048 02B0     		add	sp, sp, #8
 701              		.cfi_remember_state
 702              		.cfi_def_cfa_offset 8
 703              		@ sp needed
 704 004a 10BD     		pop	{r4, pc}
 705              	.L67:
 706              		.cfi_restore_state
 707 004c FFF7FEFF 		bl	__stack_chk_fail
 708              	.LVL43:
 709              	.L69:
 710              		.align	2
 711              	.L68:
 712 0050 00000000 		.word	.LC4
 713 0054 00380240 		.word	1073887232
 714              		.cfi_endproc
 715              	.LFE265:
 716              		.size	sdc_lld_stop, .-sdc_lld_stop
 717              		.section	.rodata.sdc_lld_start_clk.cst4,"aM",%progbits,4
 718              		.align	2
 719              	.LC5:
 720 0000 00000000 		.word	__stack_chk_guard
 721              		.section	.text.sdc_lld_start_clk,"ax",%progbits
 722              		.align	1
 723              		.p2align 4,,15
 724              		.global	sdc_lld_start_clk
 725              		.syntax unified
 726              		.thumb
 727              		.thumb_func
 728              		.fpu fpv4-sp-d16
 729              		.type	sdc_lld_start_clk, %function
 730              	sdc_lld_start_clk:
 731              	.LVL44:
 732              	.LFB266:
 733              		.loc 1 431 41 is_stmt 1 view -0
 734              		.cfi_startproc
 735              		@ args = 0, pretend = 0, frame = 8
 736              		@ frame_needed = 0, uses_anonymous_args = 0
 737              		.loc 1 431 41 is_stmt 0 view .LVU176
 738 0000 00B5     		push	{lr}
 739              		.cfi_def_cfa_offset 4
 740              		.cfi_offset 14, -4
 741 0002 1049     		ldr	r1, .L75
ARM GAS  /tmp/ccDzFi87.s 			page 14


 742              		.loc 1 434 7 view .LVU177
 743 0004 836C     		ldr	r3, [r0, #72]
 744              		.loc 1 431 41 view .LVU178
 745 0006 83B0     		sub	sp, sp, #12
 746              		.cfi_def_cfa_offset 16
 747              		.loc 1 434 22 view .LVU179
 748 0008 7822     		movs	r2, #120
 749              		.loc 1 431 41 view .LVU180
 750 000a 0968     		ldr	r1, [r1]
 751 000c 0191     		str	r1, [sp, #4]
 752 000e 4FF00001 		mov	r1,#0
 753              		.loc 1 434 3 is_stmt 1 view .LVU181
 754              		.loc 1 434 22 is_stmt 0 view .LVU182
 755 0012 5A60     		str	r2, [r3, #4]
 756              		.loc 1 435 3 is_stmt 1 view .LVU183
 757              		.loc 1 435 7 is_stmt 0 view .LVU184
 758 0014 826C     		ldr	r2, [r0, #72]
 759              		.loc 1 435 21 view .LVU185
 760 0016 1368     		ldr	r3, [r2]
 761 0018 43F00303 		orr	r3, r3, #3
 762 001c 1360     		str	r3, [r2]
 763              		.loc 1 436 3 is_stmt 1 view .LVU186
 764              		.loc 1 436 7 is_stmt 0 view .LVU187
 765 001e 826C     		ldr	r2, [r0, #72]
 766              		.loc 1 436 21 view .LVU188
 767 0020 5368     		ldr	r3, [r2, #4]
 768 0022 43F48073 		orr	r3, r3, #256
 769 0026 5360     		str	r3, [r2, #4]
 770              		.loc 1 439 3 is_stmt 1 view .LVU189
 771              	.LVL45:
 772              	.LBB134:
 773              	.LBI134:
 774              		.loc 2 625 20 view .LVU190
 775              	.LBB135:
 776              		.loc 2 627 3 view .LVU191
 777 0028 064B     		ldr	r3, .L75
 778 002a 1A68     		ldr	r2, [r3]
 779 002c 019B     		ldr	r3, [sp, #4]
 780 002e 5A40     		eors	r2, r3, r2
 781 0030 05D1     		bne	.L74
 782 0032 0A20     		movs	r0, #10
 783              	.LVL46:
 784              		.loc 2 627 3 is_stmt 0 view .LVU192
 785              	.LBE135:
 786              	.LBE134:
 787              		.loc 1 440 1 view .LVU193
 788 0034 03B0     		add	sp, sp, #12
 789              		.cfi_remember_state
 790              		.cfi_def_cfa_offset 4
 791              		@ sp needed
 792 0036 5DF804EB 		ldr	lr, [sp], #4
 793              		.cfi_restore 14
 794              		.cfi_def_cfa_offset 0
 795              	.LBB137:
 796              	.LBB136:
 797              		.loc 2 627 3 view .LVU194
 798 003a FFF7FEBF 		b	chThdSleep
ARM GAS  /tmp/ccDzFi87.s 			page 15


 799              	.LVL47:
 800              	.L74:
 801              		.cfi_restore_state
 802              		.loc 2 627 3 view .LVU195
 803 003e FFF7FEFF 		bl	__stack_chk_fail
 804              	.LVL48:
 805              	.L76:
 806              		.loc 2 627 3 view .LVU196
 807 0042 00BF     		.align	2
 808              	.L75:
 809 0044 00000000 		.word	.LC5
 810              	.LBE136:
 811              	.LBE137:
 812              		.cfi_endproc
 813              	.LFE266:
 814              		.size	sdc_lld_start_clk, .-sdc_lld_start_clk
 815              		.section	.rodata.sdc_lld_set_data_clk.cst4,"aM",%progbits,4
 816              		.align	2
 817              	.LC6:
 818 0000 00000000 		.word	__stack_chk_guard
 819              		.section	.text.sdc_lld_set_data_clk,"ax",%progbits
 820              		.align	1
 821              		.p2align 4,,15
 822              		.global	sdc_lld_set_data_clk
 823              		.syntax unified
 824              		.thumb
 825              		.thumb_func
 826              		.fpu fpv4-sp-d16
 827              		.type	sdc_lld_set_data_clk, %function
 828              	sdc_lld_set_data_clk:
 829              	.LVL49:
 830              	.LFB267:
 831              		.loc 1 450 61 is_stmt 1 view -0
 832              		.cfi_startproc
 833              		@ args = 0, pretend = 0, frame = 8
 834              		@ frame_needed = 0, uses_anonymous_args = 0
 835              		.loc 1 450 61 is_stmt 0 view .LVU198
 836 0000 00B5     		push	{lr}
 837              		.cfi_def_cfa_offset 4
 838              		.cfi_offset 14, -4
 839 0002 0A4B     		ldr	r3, .L81
 840              		.loc 1 461 28 view .LVU199
 841 0004 826C     		ldr	r2, [r0, #72]
 842              		.loc 1 450 61 view .LVU200
 843 0006 83B0     		sub	sp, sp, #12
 844              		.cfi_def_cfa_offset 16
 845              		.loc 1 450 61 view .LVU201
 846 0008 1B68     		ldr	r3, [r3]
 847 000a 0193     		str	r3, [sp, #4]
 848 000c 4FF00003 		mov	r3,#0
 849              		.loc 1 459 3 is_stmt 1 view .LVU202
 850              		.loc 1 461 3 view .LVU203
 851              		.loc 1 461 34 is_stmt 0 view .LVU204
 852 0010 5368     		ldr	r3, [r2, #4]
 853              		.loc 1 461 57 view .LVU205
 854 0012 23F0FF03 		bic	r3, r3, #255
 855              		.loc 1 461 21 view .LVU206
ARM GAS  /tmp/ccDzFi87.s 			page 16


 856 0016 5360     		str	r3, [r2, #4]
 857              		.loc 1 463 1 view .LVU207
 858 0018 044B     		ldr	r3, .L81
 859 001a 1A68     		ldr	r2, [r3]
 860 001c 019B     		ldr	r3, [sp, #4]
 861 001e 5A40     		eors	r2, r3, r2
 862 0020 02D1     		bne	.L80
 863 0022 03B0     		add	sp, sp, #12
 864              		.cfi_remember_state
 865              		.cfi_def_cfa_offset 4
 866              		@ sp needed
 867 0024 5DF804FB 		ldr	pc, [sp], #4
 868              	.L80:
 869              		.cfi_restore_state
 870 0028 FFF7FEFF 		bl	__stack_chk_fail
 871              	.LVL50:
 872              	.L82:
 873              		.loc 1 463 1 view .LVU208
 874              		.align	2
 875              	.L81:
 876 002c 00000000 		.word	.LC6
 877              		.cfi_endproc
 878              	.LFE267:
 879              		.size	sdc_lld_set_data_clk, .-sdc_lld_set_data_clk
 880              		.section	.rodata.sdc_lld_stop_clk.cst4,"aM",%progbits,4
 881              		.align	2
 882              	.LC7:
 883 0000 00000000 		.word	__stack_chk_guard
 884              		.section	.text.sdc_lld_stop_clk,"ax",%progbits
 885              		.align	1
 886              		.p2align 4,,15
 887              		.global	sdc_lld_stop_clk
 888              		.syntax unified
 889              		.thumb
 890              		.thumb_func
 891              		.fpu fpv4-sp-d16
 892              		.type	sdc_lld_stop_clk, %function
 893              	sdc_lld_stop_clk:
 894              	.LVL51:
 895              	.LFB268:
 896              		.loc 1 472 40 is_stmt 1 view -0
 897              		.cfi_startproc
 898              		@ args = 0, pretend = 0, frame = 8
 899              		@ frame_needed = 0, uses_anonymous_args = 0
 900              		.loc 1 472 40 is_stmt 0 view .LVU210
 901 0000 00B5     		push	{lr}
 902              		.cfi_def_cfa_offset 4
 903              		.cfi_offset 14, -4
 904              		.loc 1 474 7 view .LVU211
 905 0002 826C     		ldr	r2, [r0, #72]
 906              		.loc 1 472 40 view .LVU212
 907 0004 0949     		ldr	r1, .L87
 908              		.loc 1 474 21 view .LVU213
 909 0006 0023     		movs	r3, #0
 910              		.loc 1 472 40 view .LVU214
 911 0008 83B0     		sub	sp, sp, #12
 912              		.cfi_def_cfa_offset 16
ARM GAS  /tmp/ccDzFi87.s 			page 17


 913              		.loc 1 472 40 view .LVU215
 914 000a 0968     		ldr	r1, [r1]
 915 000c 0191     		str	r1, [sp, #4]
 916 000e 4FF00001 		mov	r1,#0
 917              		.loc 1 474 3 is_stmt 1 view .LVU216
 918              		.loc 1 474 21 is_stmt 0 view .LVU217
 919 0012 5360     		str	r3, [r2, #4]
 920              		.loc 1 475 3 is_stmt 1 view .LVU218
 921              		.loc 1 475 7 is_stmt 0 view .LVU219
 922 0014 826C     		ldr	r2, [r0, #72]
 923              		.loc 1 475 21 view .LVU220
 924 0016 1360     		str	r3, [r2]
 925              		.loc 1 476 1 view .LVU221
 926 0018 044B     		ldr	r3, .L87
 927 001a 1A68     		ldr	r2, [r3]
 928 001c 019B     		ldr	r3, [sp, #4]
 929 001e 5A40     		eors	r2, r3, r2
 930 0020 02D1     		bne	.L86
 931 0022 03B0     		add	sp, sp, #12
 932              		.cfi_remember_state
 933              		.cfi_def_cfa_offset 4
 934              		@ sp needed
 935 0024 5DF804FB 		ldr	pc, [sp], #4
 936              	.L86:
 937              		.cfi_restore_state
 938 0028 FFF7FEFF 		bl	__stack_chk_fail
 939              	.LVL52:
 940              	.L88:
 941              		.loc 1 476 1 view .LVU222
 942              		.align	2
 943              	.L87:
 944 002c 00000000 		.word	.LC7
 945              		.cfi_endproc
 946              	.LFE268:
 947              		.size	sdc_lld_stop_clk, .-sdc_lld_stop_clk
 948              		.section	.rodata.sdc_lld_set_bus_mode.cst4,"aM",%progbits,4
 949              		.align	2
 950              	.LC8:
 951 0000 00000000 		.word	__stack_chk_guard
 952              		.section	.text.sdc_lld_set_bus_mode,"ax",%progbits
 953              		.align	1
 954              		.p2align 4,,15
 955              		.global	sdc_lld_set_bus_mode
 956              		.syntax unified
 957              		.thumb
 958              		.thumb_func
 959              		.fpu fpv4-sp-d16
 960              		.type	sdc_lld_set_bus_mode, %function
 961              	sdc_lld_set_bus_mode:
 962              	.LVL53:
 963              	.LFB269:
 964              		.loc 1 486 63 is_stmt 1 view -0
 965              		.cfi_startproc
 966              		@ args = 0, pretend = 0, frame = 8
 967              		@ frame_needed = 0, uses_anonymous_args = 0
 968              		.loc 1 486 63 is_stmt 0 view .LVU224
 969 0000 00B5     		push	{lr}
ARM GAS  /tmp/ccDzFi87.s 			page 18


 970              		.cfi_def_cfa_offset 4
 971              		.cfi_offset 14, -4
 972 0002 104B     		ldr	r3, .L97
 973              		.loc 1 487 22 view .LVU225
 974 0004 826C     		ldr	r2, [r0, #72]
 975              		.loc 1 486 63 view .LVU226
 976 0006 83B0     		sub	sp, sp, #12
 977              		.cfi_def_cfa_offset 16
 978              		.loc 1 486 63 view .LVU227
 979 0008 1B68     		ldr	r3, [r3]
 980 000a 0193     		str	r3, [sp, #4]
 981 000c 4FF00003 		mov	r3,#0
 982              		.loc 1 487 3 is_stmt 1 view .LVU228
 983              		.loc 1 489 3 is_stmt 0 view .LVU229
 984 0010 0129     		cmp	r1, #1
 985              		.loc 1 487 28 view .LVU230
 986 0012 5368     		ldr	r3, [r2, #4]
 987              		.loc 1 487 12 view .LVU231
 988 0014 23F4C053 		bic	r3, r3, #6144
 989              	.LVL54:
 990              		.loc 1 489 3 is_stmt 1 view .LVU232
 991 0018 0ED0     		beq	.L90
 992 001a 0229     		cmp	r1, #2
 993 001c 08D0     		beq	.L91
 994 001e 49B1     		cbz	r1, .L95
 995              	.LVL55:
 996              	.L89:
 997              		.loc 1 500 1 is_stmt 0 view .LVU233
 998 0020 084B     		ldr	r3, .L97
 999 0022 1A68     		ldr	r2, [r3]
 1000 0024 019B     		ldr	r3, [sp, #4]
 1001 0026 5A40     		eors	r2, r3, r2
 1002 0028 0AD1     		bne	.L96
 1003 002a 03B0     		add	sp, sp, #12
 1004              		.cfi_remember_state
 1005              		.cfi_def_cfa_offset 4
 1006              		@ sp needed
 1007 002c 5DF804FB 		ldr	pc, [sp], #4
 1008              	.LVL56:
 1009              	.L91:
 1010              		.cfi_restore_state
 1011              		.loc 1 497 5 is_stmt 1 view .LVU234
 1012              		.loc 1 497 29 is_stmt 0 view .LVU235
 1013 0030 43F48053 		orr	r3, r3, #4096
 1014              	.LVL57:
 1015              	.L95:
 1016              		.loc 1 497 23 view .LVU236
 1017 0034 5360     		str	r3, [r2, #4]
 1018              		.loc 1 498 5 is_stmt 1 view .LVU237
 1019              		.loc 1 500 1 is_stmt 0 view .LVU238
 1020 0036 F3E7     		b	.L89
 1021              	.LVL58:
 1022              	.L90:
 1023              		.loc 1 494 5 is_stmt 1 view .LVU239
 1024              		.loc 1 494 29 is_stmt 0 view .LVU240
 1025 0038 43F40063 		orr	r3, r3, #2048
 1026              	.LVL59:
ARM GAS  /tmp/ccDzFi87.s 			page 19


 1027              		.loc 1 494 23 view .LVU241
 1028 003c 5360     		str	r3, [r2, #4]
 1029              		.loc 1 495 5 is_stmt 1 view .LVU242
 1030 003e EFE7     		b	.L89
 1031              	.L96:
 1032              		.loc 1 500 1 is_stmt 0 view .LVU243
 1033 0040 FFF7FEFF 		bl	__stack_chk_fail
 1034              	.LVL60:
 1035              	.L98:
 1036              		.loc 1 500 1 view .LVU244
 1037              		.align	2
 1038              	.L97:
 1039 0044 00000000 		.word	.LC8
 1040              		.cfi_endproc
 1041              	.LFE269:
 1042              		.size	sdc_lld_set_bus_mode, .-sdc_lld_set_bus_mode
 1043              		.section	.rodata.sdc_lld_send_cmd_none.cst4,"aM",%progbits,4
 1044              		.align	2
 1045              	.LC9:
 1046 0000 00000000 		.word	__stack_chk_guard
 1047              		.section	.text.sdc_lld_send_cmd_none,"ax",%progbits
 1048              		.align	1
 1049              		.p2align 4,,15
 1050              		.global	sdc_lld_send_cmd_none
 1051              		.syntax unified
 1052              		.thumb
 1053              		.thumb_func
 1054              		.fpu fpv4-sp-d16
 1055              		.type	sdc_lld_send_cmd_none, %function
 1056              	sdc_lld_send_cmd_none:
 1057              	.LVL61:
 1058              	.LFB270:
 1059              		.loc 1 511 72 is_stmt 1 view -0
 1060              		.cfi_startproc
 1061              		@ args = 0, pretend = 0, frame = 8
 1062              		@ frame_needed = 0, uses_anonymous_args = 0
 1063              		.loc 1 511 72 is_stmt 0 view .LVU246
 1064 0000 00B5     		push	{lr}
 1065              		.cfi_def_cfa_offset 4
 1066              		.cfi_offset 14, -4
 1067              		.loc 1 513 7 view .LVU247
 1068 0002 836C     		ldr	r3, [r0, #72]
 1069              		.loc 1 511 72 view .LVU248
 1070 0004 DFF838C0 		ldr	ip, .L106
 1071 0008 83B0     		sub	sp, sp, #12
 1072              		.cfi_def_cfa_offset 16
 1073              		.loc 1 511 72 view .LVU249
 1074 000a DCF800C0 		ldr	ip, [ip]
 1075 000e CDF804C0 		str	ip, [sp, #4]
 1076 0012 4FF0000C 		mov	ip,#0
 1077              		.loc 1 513 3 is_stmt 1 view .LVU250
 1078              		.loc 1 513 19 is_stmt 0 view .LVU251
 1079 0016 9A60     		str	r2, [r3, #8]
 1080              		.loc 1 514 3 is_stmt 1 view .LVU252
 1081              		.loc 1 514 7 is_stmt 0 view .LVU253
 1082 0018 836C     		ldr	r3, [r0, #72]
 1083              		.loc 1 514 35 view .LVU254
ARM GAS  /tmp/ccDzFi87.s 			page 20


 1084 001a 41F48061 		orr	r1, r1, #1024
 1085              	.LVL62:
 1086              		.loc 1 514 19 view .LVU255
 1087 001e D960     		str	r1, [r3, #12]
 1088              		.loc 1 515 3 is_stmt 1 view .LVU256
 1089              		.loc 1 515 15 is_stmt 0 view .LVU257
 1090 0020 826C     		ldr	r2, [r0, #72]
 1091              	.LVL63:
 1092              	.L100:
 1093              		.loc 1 516 5 is_stmt 1 discriminator 1 view .LVU258
 1094              		.loc 1 515 9 discriminator 1 view .LVU259
 1095              		.loc 1 515 21 is_stmt 0 discriminator 1 view .LVU260
 1096 0022 536B     		ldr	r3, [r2, #52]
 1097              		.loc 1 515 9 discriminator 1 view .LVU261
 1098 0024 1B06     		lsls	r3, r3, #24
 1099 0026 FCD5     		bpl	.L100
 1100              		.loc 1 517 3 is_stmt 1 view .LVU262
 1101              		.loc 1 517 19 is_stmt 0 view .LVU263
 1102 0028 8023     		movs	r3, #128
 1103 002a 9363     		str	r3, [r2, #56]
 1104              		.loc 1 518 1 view .LVU264
 1105 002c 044B     		ldr	r3, .L106
 1106 002e 1A68     		ldr	r2, [r3]
 1107 0030 019B     		ldr	r3, [sp, #4]
 1108 0032 5A40     		eors	r2, r3, r2
 1109 0034 02D1     		bne	.L105
 1110 0036 03B0     		add	sp, sp, #12
 1111              		.cfi_remember_state
 1112              		.cfi_def_cfa_offset 4
 1113              		@ sp needed
 1114 0038 5DF804FB 		ldr	pc, [sp], #4
 1115              	.L105:
 1116              		.cfi_restore_state
 1117 003c FFF7FEFF 		bl	__stack_chk_fail
 1118              	.LVL64:
 1119              	.L107:
 1120              		.loc 1 518 1 view .LVU265
 1121              		.align	2
 1122              	.L106:
 1123 0040 00000000 		.word	.LC9
 1124              		.cfi_endproc
 1125              	.LFE270:
 1126              		.size	sdc_lld_send_cmd_none, .-sdc_lld_send_cmd_none
 1127              		.section	.rodata.sdc_lld_send_cmd_short.cst4,"aM",%progbits,4
 1128              		.align	2
 1129              	.LC10:
 1130 0000 00000000 		.word	__stack_chk_guard
 1131              		.section	.text.sdc_lld_send_cmd_short,"ax",%progbits
 1132              		.align	1
 1133              		.p2align 4,,15
 1134              		.global	sdc_lld_send_cmd_short
 1135              		.syntax unified
 1136              		.thumb
 1137              		.thumb_func
 1138              		.fpu fpv4-sp-d16
 1139              		.type	sdc_lld_send_cmd_short, %function
 1140              	sdc_lld_send_cmd_short:
ARM GAS  /tmp/ccDzFi87.s 			page 21


 1141              	.LVL65:
 1142              	.LFB271:
 1143              		.loc 1 536 45 is_stmt 1 view -0
 1144              		.cfi_startproc
 1145              		@ args = 0, pretend = 0, frame = 8
 1146              		@ frame_needed = 0, uses_anonymous_args = 0
 1147              		.loc 1 536 45 is_stmt 0 view .LVU267
 1148 0000 10B5     		push	{r4, lr}
 1149              		.cfi_def_cfa_offset 8
 1150              		.cfi_offset 4, -8
 1151              		.cfi_offset 14, -4
 1152 0002 DFF854C0 		ldr	ip, .L118
 1153              		.loc 1 539 7 view .LVU268
 1154 0006 846C     		ldr	r4, [r0, #72]
 1155              		.loc 1 536 45 view .LVU269
 1156 0008 82B0     		sub	sp, sp, #8
 1157              		.cfi_def_cfa_offset 16
 1158              		.loc 1 536 45 view .LVU270
 1159 000a DCF800C0 		ldr	ip, [ip]
 1160 000e CDF804C0 		str	ip, [sp, #4]
 1161 0012 4FF0000C 		mov	ip,#0
 1162              		.loc 1 537 3 is_stmt 1 view .LVU271
 1163              		.loc 1 539 3 view .LVU272
 1164              		.loc 1 539 19 is_stmt 0 view .LVU273
 1165 0016 A260     		str	r2, [r4, #8]
 1166              		.loc 1 540 3 is_stmt 1 view .LVU274
 1167              		.loc 1 540 7 is_stmt 0 view .LVU275
 1168 0018 826C     		ldr	r2, [r0, #72]
 1169              	.LVL66:
 1170              		.loc 1 540 57 view .LVU276
 1171 001a 41F48861 		orr	r1, r1, #1088
 1172              	.LVL67:
 1173              		.loc 1 540 19 view .LVU277
 1174 001e D160     		str	r1, [r2, #12]
 1175              	.LVL68:
 1176              		.loc 1 541 3 is_stmt 1 view .LVU278
 1177              		.loc 1 541 22 is_stmt 0 view .LVU279
 1178 0020 826C     		ldr	r2, [r0, #72]
 1179              	.L109:
 1180              		.loc 1 543 5 is_stmt 1 discriminator 1 view .LVU280
 1181              		.loc 1 541 9 discriminator 1 view .LVU281
 1182              		.loc 1 541 16 is_stmt 0 discriminator 1 view .LVU282
 1183 0022 516B     		ldr	r1, [r2, #52]
 1184              	.LVL69:
 1185              		.loc 1 541 9 discriminator 1 view .LVU283
 1186 0024 11F04504 		ands	r4, r1, #69
 1187 0028 FBD0     		beq	.L109
 1188              		.loc 1 544 3 is_stmt 1 view .LVU284
 1189              		.loc 1 544 19 is_stmt 0 view .LVU285
 1190 002a 9463     		str	r4, [r2, #56]
 1191              		.loc 1 546 3 is_stmt 1 view .LVU286
 1192              		.loc 1 546 6 is_stmt 0 view .LVU287
 1193 002c 11F00402 		ands	r2, r1, #4
 1194 0030 0AD1     		bne	.L116
 1195              		.loc 1 550 3 is_stmt 1 view .LVU288
 1196              		.loc 1 550 15 is_stmt 0 view .LVU289
 1197 0032 816C     		ldr	r1, [r0, #72]
ARM GAS  /tmp/ccDzFi87.s 			page 22


 1198              	.LVL70:
 1199              		.loc 1 550 21 view .LVU290
 1200 0034 4969     		ldr	r1, [r1, #20]
 1201              		.loc 1 550 9 view .LVU291
 1202 0036 1960     		str	r1, [r3]
 1203              		.loc 1 551 3 is_stmt 1 view .LVU292
 1204              		.loc 1 551 10 is_stmt 0 view .LVU293
 1205 0038 1046     		mov	r0, r2
 1206              	.LVL71:
 1207              	.L111:
 1208              		.loc 1 552 1 view .LVU294
 1209 003a 074B     		ldr	r3, .L118
 1210 003c 1A68     		ldr	r2, [r3]
 1211 003e 019B     		ldr	r3, [sp, #4]
 1212 0040 5A40     		eors	r2, r3, r2
 1213 0042 06D1     		bne	.L117
 1214 0044 02B0     		add	sp, sp, #8
 1215              		.cfi_remember_state
 1216              		.cfi_def_cfa_offset 8
 1217              		@ sp needed
 1218 0046 10BD     		pop	{r4, pc}
 1219              	.LVL72:
 1220              	.L116:
 1221              		.cfi_restore_state
 1222              		.loc 1 547 5 is_stmt 1 view .LVU295
 1223 0048 3430     		adds	r0, r0, #52
 1224              	.LVL73:
 1225              		.loc 1 547 5 is_stmt 0 view .LVU296
 1226 004a FFF7FEFF 		bl	sdc_lld_collect_errors.isra.0
 1227              	.LVL74:
 1228              		.loc 1 548 5 is_stmt 1 view .LVU297
 1229              		.loc 1 548 12 is_stmt 0 view .LVU298
 1230 004e 0120     		movs	r0, #1
 1231 0050 F3E7     		b	.L111
 1232              	.L117:
 1233              		.loc 1 552 1 view .LVU299
 1234 0052 FFF7FEFF 		bl	__stack_chk_fail
 1235              	.LVL75:
 1236              	.L119:
 1237 0056 00BF     		.align	2
 1238              	.L118:
 1239 0058 00000000 		.word	.LC10
 1240              		.cfi_endproc
 1241              	.LFE271:
 1242              		.size	sdc_lld_send_cmd_short, .-sdc_lld_send_cmd_short
 1243              		.section	.rodata.sdc_lld_send_cmd_short_crc.cst4,"aM",%progbits,4
 1244              		.align	2
 1245              	.LC11:
 1246 0000 00000000 		.word	__stack_chk_guard
 1247              		.section	.text.sdc_lld_send_cmd_short_crc,"ax",%progbits
 1248              		.align	1
 1249              		.p2align 4,,15
 1250              		.global	sdc_lld_send_cmd_short_crc
 1251              		.syntax unified
 1252              		.thumb
 1253              		.thumb_func
 1254              		.fpu fpv4-sp-d16
ARM GAS  /tmp/ccDzFi87.s 			page 23


 1255              		.type	sdc_lld_send_cmd_short_crc, %function
 1256              	sdc_lld_send_cmd_short_crc:
 1257              	.LVL76:
 1258              	.LFB272:
 1259              		.loc 1 569 49 is_stmt 1 view -0
 1260              		.cfi_startproc
 1261              		@ args = 0, pretend = 0, frame = 8
 1262              		@ frame_needed = 0, uses_anonymous_args = 0
 1263              		.loc 1 569 49 is_stmt 0 view .LVU301
 1264 0000 10B5     		push	{r4, lr}
 1265              		.cfi_def_cfa_offset 8
 1266              		.cfi_offset 4, -8
 1267              		.cfi_offset 14, -4
 1268 0002 DFF854C0 		ldr	ip, .L130
 1269              		.loc 1 572 7 view .LVU302
 1270 0006 846C     		ldr	r4, [r0, #72]
 1271              		.loc 1 569 49 view .LVU303
 1272 0008 82B0     		sub	sp, sp, #8
 1273              		.cfi_def_cfa_offset 16
 1274              		.loc 1 569 49 view .LVU304
 1275 000a DCF800C0 		ldr	ip, [ip]
 1276 000e CDF804C0 		str	ip, [sp, #4]
 1277 0012 4FF0000C 		mov	ip,#0
 1278              		.loc 1 570 3 is_stmt 1 view .LVU305
 1279              		.loc 1 572 3 view .LVU306
 1280              		.loc 1 572 19 is_stmt 0 view .LVU307
 1281 0016 A260     		str	r2, [r4, #8]
 1282              		.loc 1 573 3 is_stmt 1 view .LVU308
 1283              		.loc 1 573 7 is_stmt 0 view .LVU309
 1284 0018 826C     		ldr	r2, [r0, #72]
 1285              	.LVL77:
 1286              		.loc 1 573 57 view .LVU310
 1287 001a 41F48861 		orr	r1, r1, #1088
 1288              	.LVL78:
 1289              		.loc 1 573 19 view .LVU311
 1290 001e D160     		str	r1, [r2, #12]
 1291              	.LVL79:
 1292              		.loc 1 574 3 is_stmt 1 view .LVU312
 1293              		.loc 1 574 22 is_stmt 0 view .LVU313
 1294 0020 826C     		ldr	r2, [r0, #72]
 1295              	.L121:
 1296              		.loc 1 576 5 is_stmt 1 discriminator 1 view .LVU314
 1297              		.loc 1 574 9 discriminator 1 view .LVU315
 1298              		.loc 1 574 16 is_stmt 0 discriminator 1 view .LVU316
 1299 0022 516B     		ldr	r1, [r2, #52]
 1300              	.LVL80:
 1301              		.loc 1 574 9 discriminator 1 view .LVU317
 1302 0024 11F04504 		ands	r4, r1, #69
 1303 0028 FBD0     		beq	.L121
 1304              		.loc 1 577 3 is_stmt 1 view .LVU318
 1305              		.loc 1 577 19 is_stmt 0 view .LVU319
 1306 002a 9463     		str	r4, [r2, #56]
 1307              		.loc 1 578 3 is_stmt 1 view .LVU320
 1308              		.loc 1 578 6 is_stmt 0 view .LVU321
 1309 002c 11F00502 		ands	r2, r1, #5
 1310 0030 0AD1     		bne	.L128
 1311              		.loc 1 582 3 is_stmt 1 view .LVU322
ARM GAS  /tmp/ccDzFi87.s 			page 24


 1312              		.loc 1 582 15 is_stmt 0 view .LVU323
 1313 0032 816C     		ldr	r1, [r0, #72]
 1314              	.LVL81:
 1315              		.loc 1 582 21 view .LVU324
 1316 0034 4969     		ldr	r1, [r1, #20]
 1317              		.loc 1 582 9 view .LVU325
 1318 0036 1960     		str	r1, [r3]
 1319              		.loc 1 583 3 is_stmt 1 view .LVU326
 1320              		.loc 1 583 10 is_stmt 0 view .LVU327
 1321 0038 1046     		mov	r0, r2
 1322              	.LVL82:
 1323              	.L123:
 1324              		.loc 1 584 1 view .LVU328
 1325 003a 074B     		ldr	r3, .L130
 1326 003c 1A68     		ldr	r2, [r3]
 1327 003e 019B     		ldr	r3, [sp, #4]
 1328 0040 5A40     		eors	r2, r3, r2
 1329 0042 06D1     		bne	.L129
 1330 0044 02B0     		add	sp, sp, #8
 1331              		.cfi_remember_state
 1332              		.cfi_def_cfa_offset 8
 1333              		@ sp needed
 1334 0046 10BD     		pop	{r4, pc}
 1335              	.LVL83:
 1336              	.L128:
 1337              		.cfi_restore_state
 1338              		.loc 1 579 5 is_stmt 1 view .LVU329
 1339 0048 3430     		adds	r0, r0, #52
 1340              	.LVL84:
 1341              		.loc 1 579 5 is_stmt 0 view .LVU330
 1342 004a FFF7FEFF 		bl	sdc_lld_collect_errors.isra.0
 1343              	.LVL85:
 1344              		.loc 1 580 5 is_stmt 1 view .LVU331
 1345              		.loc 1 580 12 is_stmt 0 view .LVU332
 1346 004e 0120     		movs	r0, #1
 1347 0050 F3E7     		b	.L123
 1348              	.L129:
 1349              		.loc 1 584 1 view .LVU333
 1350 0052 FFF7FEFF 		bl	__stack_chk_fail
 1351              	.LVL86:
 1352              	.L131:
 1353 0056 00BF     		.align	2
 1354              	.L130:
 1355 0058 00000000 		.word	.LC11
 1356              		.cfi_endproc
 1357              	.LFE272:
 1358              		.size	sdc_lld_send_cmd_short_crc, .-sdc_lld_send_cmd_short_crc
 1359              		.section	.rodata.sdc_lld_wait_transaction_end.cst4,"aM",%progbits,4
 1360              		.align	2
 1361              	.LC12:
 1362 0000 00000000 		.word	__stack_chk_guard
 1363              		.section	.text.sdc_lld_wait_transaction_end,"ax",%progbits
 1364              		.align	1
 1365              		.p2align 4,,15
 1366              		.syntax unified
 1367              		.thumb
 1368              		.thumb_func
ARM GAS  /tmp/ccDzFi87.s 			page 25


 1369              		.fpu fpv4-sp-d16
 1370              		.type	sdc_lld_wait_transaction_end, %function
 1371              	sdc_lld_wait_transaction_end:
 1372              	.LVL87:
 1373              	.LFB259:
 1374              		.loc 1 209 58 is_stmt 1 view -0
 1375              		.cfi_startproc
 1376              		@ args = 0, pretend = 0, frame = 8
 1377              		@ frame_needed = 0, uses_anonymous_args = 0
 1378              		.loc 1 209 58 is_stmt 0 view .LVU335
 1379 0000 F0B5     		push	{r4, r5, r6, r7, lr}
 1380              		.cfi_def_cfa_offset 20
 1381              		.cfi_offset 4, -20
 1382              		.cfi_offset 5, -16
 1383              		.cfi_offset 6, -12
 1384              		.cfi_offset 7, -8
 1385              		.cfi_offset 14, -4
 1386 0002 394B     		ldr	r3, .L153
 1387 0004 83B0     		sub	sp, sp, #12
 1388              		.cfi_def_cfa_offset 32
 1389              		.loc 1 209 58 view .LVU336
 1390 0006 1B68     		ldr	r3, [r3]
 1391 0008 0193     		str	r3, [sp, #4]
 1392 000a 4FF00003 		mov	r3,#0
 1393 000e 0546     		mov	r5, r0
 1394              		.loc 1 213 3 is_stmt 1 view .LVU337
 1395              	.LBB174:
 1396              	.LBI174:
 1397              		.loc 2 445 20 view .LVU338
 1398              	.LBE174:
 1399              		.loc 2 447 3 view .LVU339
 1400              	.LBB188:
 1401              	.LBB175:
 1402              	.LBI175:
 1403              		.loc 3 346 20 view .LVU340
 1404              	.LBB176:
 1405              		.loc 3 348 3 view .LVU341
 1406              	.LBB177:
 1407              	.LBI177:
 1408              		.loc 4 444 20 view .LVU342
 1409              	.LBE177:
 1410              	.LBE176:
 1411              	.LBE175:
 1412              	.LBE188:
 1413              		.loc 4 447 3 view .LVU343
 1414              	.LVL88:
 1415              	.LBB189:
 1416              	.LBB186:
 1417              	.LBB184:
 1418              	.LBB182:
 1419              	.LBB178:
 1420              	.LBI178:
 1421              		.loc 5 544 57 view .LVU344
 1422              	.LBB179:
 1423              		.loc 5 546 3 view .LVU345
 1424              	.LBE179:
 1425              	.LBE178:
ARM GAS  /tmp/ccDzFi87.s 			page 26


 1426              	.LBE182:
 1427              	.LBE184:
 1428              	.LBE186:
 1429              	.LBE189:
 1430              		.loc 1 209 58 is_stmt 0 view .LVU346
 1431 0010 0E46     		mov	r6, r1
 1432 0012 1746     		mov	r7, r2
 1433              	.LBB190:
 1434              	.LBB187:
 1435              	.LBB185:
 1436              	.LBB183:
 1437              	.LBB181:
 1438              	.LBB180:
 1439              		.loc 5 546 3 view .LVU347
 1440 0014 2023     		movs	r3, #32
 1441              		.syntax unified
 1442              	@ 546 ".//ChibiOS//os/ext/CMSIS/include/core_cmFunc.h" 1
 1443 0016 83F31188 		MSR basepri, r3
 1444              	@ 0 "" 2
 1445              	.LVL89:
 1446              		.loc 5 546 3 view .LVU348
 1447              		.thumb
 1448              		.syntax unified
 1449              	.LBE180:
 1450              	.LBE181:
 1451              	.LBE183:
 1452              		.loc 3 349 3 is_stmt 1 view .LVU349
 1453 001a FFF7FEFF 		bl	_stats_start_measure_crit_thd
 1454              	.LVL90:
 1455              		.loc 3 350 3 view .LVU350
 1456 001e FFF7FEFF 		bl	_dbg_check_lock
 1457              	.LVL91:
 1458              	.LBE185:
 1459              	.LBE187:
 1460              	.LBE190:
 1461              		.loc 1 214 3 view .LVU351
 1462              		.loc 1 214 11 is_stmt 0 view .LVU352
 1463 0022 AB6C     		ldr	r3, [r5, #72]
 1464              		.loc 1 214 17 view .LVU353
 1465 0024 DA6B     		ldr	r2, [r3, #60]
 1466              		.loc 1 214 6 view .LVU354
 1467 0026 002A     		cmp	r2, #0
 1468 0028 2BD1     		bne	.L148
 1469              		.loc 1 216 3 is_stmt 1 view .LVU355
 1470              		.loc 1 216 18 is_stmt 0 view .LVU356
 1471 002a 5B6B     		ldr	r3, [r3, #52]
 1472              		.loc 1 216 6 view .LVU357
 1473 002c DB05     		lsls	r3, r3, #23
 1474 002e 30D5     		bpl	.L149
 1475              	.L134:
 1476              		.loc 1 223 14 view .LVU358
 1477 0030 696C     		ldr	r1, [r5, #68]
 1478              		.loc 1 223 19 view .LVU359
 1479 0032 0C68     		ldr	r4, [r1]
 1480              	.L137:
 1481              		.loc 1 224 5 is_stmt 1 discriminator 1 view .LVU360
 1482              		.loc 1 223 9 discriminator 1 view .LVU361
ARM GAS  /tmp/ccDzFi87.s 			page 27


 1483              		.loc 1 223 27 is_stmt 0 discriminator 1 view .LVU362
 1484 0034 2368     		ldr	r3, [r4]
 1485              		.loc 1 223 9 discriminator 1 view .LVU363
 1486 0036 13F00103 		ands	r3, r3, #1
 1487 003a FBD1     		bne	.L137
 1488              		.loc 1 227 3 is_stmt 1 view .LVU364
 1489 003c 0C7A     		ldrb	r4, [r1, #8]	@ zero_extendqisi2
 1490 003e 4868     		ldr	r0, [r1, #4]
 1491              		.loc 1 229 19 is_stmt 0 view .LVU365
 1492 0040 2A49     		ldr	r1, .L153+4
 1493              		.loc 1 227 3 view .LVU366
 1494 0042 3D22     		movs	r2, #61
 1495 0044 A240     		lsls	r2, r2, r4
 1496 0046 0260     		str	r2, [r0]
 1497              		.loc 1 227 37 is_stmt 1 view .LVU367
 1498              		.loc 1 229 3 view .LVU368
 1499              		.loc 1 229 7 is_stmt 0 view .LVU369
 1500 0048 AA6C     		ldr	r2, [r5, #72]
 1501              		.loc 1 229 19 view .LVU370
 1502 004a 9163     		str	r1, [r2, #56]
 1503              		.loc 1 230 3 is_stmt 1 view .LVU371
 1504              		.loc 1 230 7 is_stmt 0 view .LVU372
 1505 004c AA6C     		ldr	r2, [r5, #72]
 1506              		.loc 1 230 21 view .LVU373
 1507 004e D362     		str	r3, [r2, #44]
 1508              		.loc 1 231 3 is_stmt 1 view .LVU374
 1509              	.LBB191:
 1510              	.LBI191:
 1511              		.loc 2 456 20 view .LVU375
 1512              	.LBE191:
 1513              		.loc 2 458 3 view .LVU376
 1514              	.LBB202:
 1515              	.LBB192:
 1516              	.LBI192:
 1517              		.loc 3 358 20 view .LVU377
 1518              	.LBB193:
 1519              		.loc 3 360 3 view .LVU378
 1520 0050 FFF7FEFF 		bl	_dbg_check_unlock
 1521              	.LVL92:
 1522              		.loc 3 361 3 view .LVU379
 1523 0054 FFF7FEFF 		bl	_stats_stop_measure_crit_thd
 1524              	.LVL93:
 1525              		.loc 3 367 3 view .LVU380
 1526              		.loc 3 367 3 view .LVU381
 1527              		.loc 3 367 3 view .LVU382
 1528 0058 254B     		ldr	r3, .L153+8
 1529 005a 1A68     		ldr	r2, [r3]
 1530 005c 9A42     		cmp	r2, r3
 1531 005e 04D0     		beq	.L138
 1532 0060 9969     		ldr	r1, [r3, #24]
 1533 0062 9368     		ldr	r3, [r2, #8]
 1534 0064 8A68     		ldr	r2, [r1, #8]
 1535 0066 9A42     		cmp	r2, r3
 1536 0068 33D3     		bcc	.L150
 1537              	.L138:
 1538              		.loc 3 367 3 view .LVU383
 1539              		.loc 3 371 3 view .LVU384
ARM GAS  /tmp/ccDzFi87.s 			page 28


 1540              	.LBB194:
 1541              	.LBI194:
 1542              		.loc 4 458 20 view .LVU385
 1543              	.LBE194:
 1544              	.LBE193:
 1545              	.LBE192:
 1546              	.LBE202:
 1547              		.loc 4 461 3 view .LVU386
 1548              	.LVL94:
 1549              	.LBB203:
 1550              	.LBB200:
 1551              	.LBB198:
 1552              	.LBB197:
 1553              	.LBB195:
 1554              	.LBI195:
 1555              		.loc 5 544 57 view .LVU387
 1556              	.LBB196:
 1557              		.loc 5 546 3 view .LVU388
 1558 006a 0020     		movs	r0, #0
 1559              		.syntax unified
 1560              	@ 546 ".//ChibiOS//os/ext/CMSIS/include/core_cmFunc.h" 1
 1561 006c 80F31188 		MSR basepri, r0
 1562              	@ 0 "" 2
 1563              	.LVL95:
 1564              		.loc 5 546 3 is_stmt 0 view .LVU389
 1565              		.thumb
 1566              		.syntax unified
 1567              	.LBE196:
 1568              	.LBE195:
 1569              	.LBE197:
 1570              	.LBE198:
 1571              	.LBE200:
 1572              	.LBE203:
 1573              		.loc 1 247 3 is_stmt 1 view .LVU390
 1574              		.loc 1 247 6 is_stmt 0 view .LVU391
 1575 0070 012E     		cmp	r6, #1
 1576 0072 20D8     		bhi	.L151
 1577              	.L136:
 1578              		.loc 1 251 1 view .LVU392
 1579 0074 1C4B     		ldr	r3, .L153
 1580 0076 1A68     		ldr	r2, [r3]
 1581 0078 019B     		ldr	r3, [sp, #4]
 1582 007a 5A40     		eors	r2, r3, r2
 1583 007c 31D1     		bne	.L147
 1584 007e 03B0     		add	sp, sp, #12
 1585              		.cfi_remember_state
 1586              		.cfi_def_cfa_offset 20
 1587              		@ sp needed
 1588 0080 F0BD     		pop	{r4, r5, r6, r7, pc}
 1589              	.LVL96:
 1590              	.L148:
 1591              		.cfi_restore_state
 1592              		.loc 1 215 5 is_stmt 1 view .LVU393
 1593              	.LBB204:
 1594              	.LBI204:
 1595              		.loc 2 640 21 view .LVU394
 1596              	.LBB205:
ARM GAS  /tmp/ccDzFi87.s 			page 29


 1597              		.loc 2 642 3 view .LVU395
 1598              		.loc 2 642 10 is_stmt 0 view .LVU396
 1599 0082 05F13C00 		add	r0, r5, #60
 1600              	.LVL97:
 1601              		.loc 2 642 10 view .LVU397
 1602 0086 FFF7FEFF 		bl	chThdSuspendS
 1603              	.LVL98:
 1604              		.loc 2 642 10 view .LVU398
 1605 008a AB6C     		ldr	r3, [r5, #72]
 1606              	.LVL99:
 1607              		.loc 2 642 10 view .LVU399
 1608              	.LBE205:
 1609              	.LBE204:
 1610              		.loc 1 216 3 is_stmt 1 view .LVU400
 1611              		.loc 1 216 18 is_stmt 0 view .LVU401
 1612 008c 5B6B     		ldr	r3, [r3, #52]
 1613              		.loc 1 216 6 view .LVU402
 1614 008e DB05     		lsls	r3, r3, #23
 1615 0090 CED4     		bmi	.L134
 1616              	.L149:
 1617              		.loc 1 217 5 is_stmt 1 view .LVU403
 1618              	.LBB206:
 1619              	.LBI206:
 1620              		.loc 2 456 20 view .LVU404
 1621              	.LBE206:
 1622              		.loc 2 458 3 view .LVU405
 1623              	.LBB219:
 1624              	.LBB207:
 1625              	.LBI207:
 1626              		.loc 3 358 20 view .LVU406
 1627              	.LBB208:
 1628              		.loc 3 360 3 view .LVU407
 1629 0092 FFF7FEFF 		bl	_dbg_check_unlock
 1630              	.LVL100:
 1631              		.loc 3 361 3 view .LVU408
 1632 0096 FFF7FEFF 		bl	_stats_stop_measure_crit_thd
 1633              	.LVL101:
 1634              		.loc 3 367 3 view .LVU409
 1635              		.loc 3 367 3 view .LVU410
 1636              		.loc 3 367 3 view .LVU411
 1637 009a 154B     		ldr	r3, .L153+8
 1638 009c 1A68     		ldr	r2, [r3]
 1639 009e 9A42     		cmp	r2, r3
 1640 00a0 04D0     		beq	.L135
 1641 00a2 9969     		ldr	r1, [r3, #24]
 1642 00a4 9368     		ldr	r3, [r2, #8]
 1643 00a6 8A68     		ldr	r2, [r1, #8]
 1644 00a8 9A42     		cmp	r2, r3
 1645 00aa 16D3     		bcc	.L152
 1646              	.L135:
 1647              		.loc 3 367 3 view .LVU412
 1648              		.loc 3 371 3 view .LVU413
 1649              	.LBB209:
 1650              	.LBI209:
 1651              		.loc 4 458 20 view .LVU414
 1652              	.LBE209:
 1653              	.LBE208:
ARM GAS  /tmp/ccDzFi87.s 			page 30


 1654              	.LBE207:
 1655              	.LBE219:
 1656              		.loc 4 461 3 view .LVU415
 1657              	.LVL102:
 1658              	.LBB220:
 1659              	.LBB216:
 1660              	.LBB213:
 1661              	.LBB212:
 1662              	.LBB210:
 1663              	.LBI210:
 1664              		.loc 5 544 57 view .LVU416
 1665              	.LBB211:
 1666              		.loc 5 546 3 view .LVU417
 1667 00ac 0023     		movs	r3, #0
 1668              		.syntax unified
 1669              	@ 546 ".//ChibiOS//os/ext/CMSIS/include/core_cmFunc.h" 1
 1670 00ae 83F31188 		MSR basepri, r3
 1671              	@ 0 "" 2
 1672              	.LVL103:
 1673              		.loc 5 546 3 is_stmt 0 view .LVU418
 1674              		.thumb
 1675              		.syntax unified
 1676              	.LBE211:
 1677              	.LBE210:
 1678              	.LBE212:
 1679              	.LBE213:
 1680              	.LBE216:
 1681              	.LBE220:
 1682              		.loc 1 218 12 view .LVU419
 1683 00b2 0120     		movs	r0, #1
 1684              	.LBB221:
 1685              	.LBB217:
 1686              	.LBB214:
 1687              		.loc 3 372 1 view .LVU420
 1688 00b4 DEE7     		b	.L136
 1689              	.L151:
 1690              	.LVL104:
 1691              		.loc 3 372 1 view .LVU421
 1692              	.LBE214:
 1693              	.LBE217:
 1694              	.LBE221:
 1695              	.LBB222:
 1696              	.LBI222:
 1697              		.loc 1 208 13 is_stmt 1 view .LVU422
 1698              	.LBB223:
 1699              		.loc 1 248 5 view .LVU423
 1700              		.loc 1 248 12 is_stmt 0 view .LVU424
 1701 00b6 0C4B     		ldr	r3, .L153
 1702 00b8 1A68     		ldr	r2, [r3]
 1703 00ba 019B     		ldr	r3, [sp, #4]
 1704 00bc 5A40     		eors	r2, r3, r2
 1705 00be 10D1     		bne	.L147
 1706 00c0 0246     		mov	r2, r0
 1707 00c2 3B46     		mov	r3, r7
 1708 00c4 2846     		mov	r0, r5
 1709 00c6 0C21     		movs	r1, #12
 1710              	.LBE223:
ARM GAS  /tmp/ccDzFi87.s 			page 31


 1711              	.LBE222:
 1712              		.loc 1 251 1 view .LVU425
 1713 00c8 03B0     		add	sp, sp, #12
 1714              		.cfi_remember_state
 1715              		.cfi_def_cfa_offset 20
 1716              		@ sp needed
 1717 00ca BDE8F040 		pop	{r4, r5, r6, r7, lr}
 1718              		.cfi_restore 14
 1719              		.cfi_restore 7
 1720              		.cfi_restore 6
 1721              		.cfi_restore 5
 1722              		.cfi_restore 4
 1723              		.cfi_def_cfa_offset 0
 1724              	.LVL105:
 1725              	.LBB225:
 1726              	.LBB224:
 1727              		.loc 1 248 12 view .LVU426
 1728 00ce FFF7FEBF 		b	sdc_lld_send_cmd_short_crc
 1729              	.LVL106:
 1730              	.L150:
 1731              		.cfi_restore_state
 1732              		.loc 1 248 12 view .LVU427
 1733              	.LBE224:
 1734              	.LBE225:
 1735              	.LBB226:
 1736              	.LBB201:
 1737              	.LBB199:
 1738              		.loc 3 367 3 is_stmt 1 view .LVU428
 1739 00d2 0848     		ldr	r0, .L153+12
 1740 00d4 FFF7FEFF 		bl	chSysHalt
 1741              	.LVL107:
 1742 00d8 C7E7     		b	.L138
 1743              	.L152:
 1744              		.loc 3 367 3 is_stmt 0 view .LVU429
 1745              	.LBE199:
 1746              	.LBE201:
 1747              	.LBE226:
 1748              	.LBB227:
 1749              	.LBB218:
 1750              	.LBB215:
 1751              		.loc 3 367 3 is_stmt 1 view .LVU430
 1752 00da 0648     		ldr	r0, .L153+12
 1753 00dc FFF7FEFF 		bl	chSysHalt
 1754              	.LVL108:
 1755 00e0 E4E7     		b	.L135
 1756              	.L147:
 1757              	.LBE215:
 1758              	.LBE218:
 1759              	.LBE227:
 1760              		.loc 1 251 1 is_stmt 0 view .LVU431
 1761 00e2 FFF7FEFF 		bl	__stack_chk_fail
 1762              	.LVL109:
 1763              	.L154:
 1764 00e6 00BF     		.align	2
 1765              	.L153:
 1766 00e8 00000000 		.word	.LC12
 1767 00ec FF07C000 		.word	12584959
ARM GAS  /tmp/ccDzFi87.s 			page 32


 1768 00f0 00000000 		.word	ch
 1769 00f4 00000000 		.word	.LANCHOR3
 1770              		.cfi_endproc
 1771              	.LFE259:
 1772              		.size	sdc_lld_wait_transaction_end, .-sdc_lld_wait_transaction_end
 1773              		.section	.rodata.sdc_lld_error_cleanup.cst4,"aM",%progbits,4
 1774              		.align	2
 1775              	.LC13:
 1776 0000 00000000 		.word	__stack_chk_guard
 1777              		.section	.text.sdc_lld_error_cleanup,"ax",%progbits
 1778              		.align	1
 1779              		.p2align 4,,15
 1780              		.syntax unified
 1781              		.thumb
 1782              		.thumb_func
 1783              		.fpu fpv4-sp-d16
 1784              		.type	sdc_lld_error_cleanup, %function
 1785              	sdc_lld_error_cleanup:
 1786              	.LVL110:
 1787              	.LFB261:
 1788              		.loc 1 293 51 is_stmt 1 view -0
 1789              		.cfi_startproc
 1790              		@ args = 0, pretend = 0, frame = 8
 1791              		@ frame_needed = 0, uses_anonymous_args = 0
 1792              		.loc 1 293 51 is_stmt 0 view .LVU433
 1793 0000 F0B5     		push	{r4, r5, r6, r7, lr}
 1794              		.cfi_def_cfa_offset 20
 1795              		.cfi_offset 4, -20
 1796              		.cfi_offset 5, -16
 1797              		.cfi_offset 6, -12
 1798              		.cfi_offset 7, -8
 1799              		.cfi_offset 14, -4
 1800 0002 0546     		mov	r5, r0
 1801              		.loc 1 296 3 view .LVU434
 1802 0004 406C     		ldr	r0, [r0, #68]
 1803              	.LVL111:
 1804              		.loc 1 293 51 view .LVU435
 1805 0006 244C     		ldr	r4, .L164
 1806              		.loc 1 296 3 view .LVU436
 1807 0008 067A     		ldrb	r6, [r0, #8]	@ zero_extendqisi2
 1808 000a 4068     		ldr	r0, [r0, #4]
 1809              		.loc 1 293 51 view .LVU437
 1810 000c 83B0     		sub	sp, sp, #12
 1811              		.cfi_def_cfa_offset 32
 1812              		.loc 1 293 51 view .LVU438
 1813 000e 2468     		ldr	r4, [r4]
 1814 0010 0194     		str	r4, [sp, #4]
 1815 0012 4FF00004 		mov	r4,#0
 1816              		.loc 1 294 3 is_stmt 1 view .LVU439
 1817              		.loc 1 296 3 is_stmt 0 view .LVU440
 1818 0016 3D23     		movs	r3, #61
 1819              		.loc 1 294 22 view .LVU441
 1820 0018 AC6C     		ldr	r4, [r5, #72]
 1821              		.loc 1 296 3 view .LVU442
 1822 001a B340     		lsls	r3, r3, r6
 1823              		.loc 1 294 12 view .LVU443
 1824 001c D4F834E0 		ldr	lr, [r4, #52]
ARM GAS  /tmp/ccDzFi87.s 			page 33


 1825              	.LVL112:
 1826              		.loc 1 296 3 is_stmt 1 view .LVU444
 1827 0020 0360     		str	r3, [r0]
 1828              		.loc 1 296 37 view .LVU445
 1829              		.loc 1 297 3 view .LVU446
 1830 0022 6B6C     		ldr	r3, [r5, #68]
 1831 0024 1868     		ldr	r0, [r3]
 1832 0026 0368     		ldr	r3, [r0]
 1833 0028 23F01F03 		bic	r3, r3, #31
 1834 002c 0360     		str	r3, [r0]
 1835              		.loc 1 297 3 view .LVU447
 1836 002e D5F844C0 		ldr	ip, [r5, #68]
 1837 0032 DCF80000 		ldr	r0, [ip]
 1838              		.loc 1 293 51 is_stmt 0 view .LVU448
 1839 0036 0E46     		mov	r6, r1
 1840 0038 1746     		mov	r7, r2
 1841              	.L156:
 1842              		.loc 1 297 3 is_stmt 1 discriminator 2 view .LVU449
 1843              		.loc 1 297 3 discriminator 2 view .LVU450
 1844 003a 0468     		ldr	r4, [r0]
 1845 003c 14F00104 		ands	r4, r4, #1
 1846 0040 FBD1     		bne	.L156
 1847              		.loc 1 297 3 discriminator 3 view .LVU451
 1848 0042 9CF80800 		ldrb	r0, [ip, #8]	@ zero_extendqisi2
 1849 0046 DCF80410 		ldr	r1, [ip, #4]
 1850              	.LVL113:
 1851              		.loc 1 298 21 is_stmt 0 discriminator 3 view .LVU452
 1852 004a 144A     		ldr	r2, .L164+4
 1853              	.LVL114:
 1854              		.loc 1 297 3 discriminator 3 view .LVU453
 1855 004c 3D23     		movs	r3, #61
 1856 004e 8340     		lsls	r3, r3, r0
 1857 0050 0B60     		str	r3, [r1]
 1858              		.loc 1 297 3 is_stmt 1 discriminator 3 view .LVU454
 1859              		.loc 1 297 30 discriminator 3 view .LVU455
 1860              		.loc 1 298 3 discriminator 3 view .LVU456
 1861              		.loc 1 298 7 is_stmt 0 discriminator 3 view .LVU457
 1862 0052 AB6C     		ldr	r3, [r5, #72]
 1863              		.loc 1 298 21 discriminator 3 view .LVU458
 1864 0054 9A63     		str	r2, [r3, #56]
 1865              		.loc 1 299 3 is_stmt 1 discriminator 3 view .LVU459
 1866              		.loc 1 299 7 is_stmt 0 discriminator 3 view .LVU460
 1867 0056 AB6C     		ldr	r3, [r5, #72]
 1868              		.loc 1 299 21 discriminator 3 view .LVU461
 1869 0058 DC63     		str	r4, [r3, #60]
 1870              		.loc 1 300 3 is_stmt 1 discriminator 3 view .LVU462
 1871              		.loc 1 300 7 is_stmt 0 discriminator 3 view .LVU463
 1872 005a AB6C     		ldr	r3, [r5, #72]
 1873              		.loc 1 301 3 discriminator 3 view .LVU464
 1874 005c 7146     		mov	r1, lr
 1875              		.loc 1 300 21 discriminator 3 view .LVU465
 1876 005e DC62     		str	r4, [r3, #44]
 1877              		.loc 1 301 3 is_stmt 1 discriminator 3 view .LVU466
 1878 0060 05F13400 		add	r0, r5, #52
 1879 0064 FFF7FEFF 		bl	sdc_lld_collect_errors.isra.0
 1880              	.LVL115:
 1881              		.loc 1 302 3 discriminator 3 view .LVU467
ARM GAS  /tmp/ccDzFi87.s 			page 34


 1882              		.loc 1 302 6 is_stmt 0 discriminator 3 view .LVU468
 1883 0068 012E     		cmp	r6, #1
 1884              	.LBB230:
 1885              	.LBB231:
 1886              		.loc 1 303 5 discriminator 3 view .LVU469
 1887 006a 0B4B     		ldr	r3, .L164
 1888              	.LBE231:
 1889              	.LBE230:
 1890              		.loc 1 302 6 discriminator 3 view .LVU470
 1891 006c 05D8     		bhi	.L163
 1892              		.loc 1 304 1 view .LVU471
 1893 006e 1A68     		ldr	r2, [r3]
 1894 0070 019B     		ldr	r3, [sp, #4]
 1895 0072 5A40     		eors	r2, r3, r2
 1896 0074 0ED1     		bne	.L162
 1897 0076 03B0     		add	sp, sp, #12
 1898              		.cfi_remember_state
 1899              		.cfi_def_cfa_offset 20
 1900              		@ sp needed
 1901 0078 F0BD     		pop	{r4, r5, r6, r7, pc}
 1902              	.LVL116:
 1903              	.L163:
 1904              		.cfi_restore_state
 1905              	.LBB234:
 1906              	.LBI230:
 1907              		.loc 1 291 13 is_stmt 1 view .LVU472
 1908              	.LBB232:
 1909              		.loc 1 303 5 view .LVU473
 1910 007a 1A68     		ldr	r2, [r3]
 1911 007c 019B     		ldr	r3, [sp, #4]
 1912 007e 5A40     		eors	r2, r3, r2
 1913 0080 08D1     		bne	.L162
 1914 0082 3B46     		mov	r3, r7
 1915 0084 2246     		mov	r2, r4
 1916 0086 2846     		mov	r0, r5
 1917 0088 0C21     		movs	r1, #12
 1918              	.LBE232:
 1919              	.LBE234:
 1920              		.loc 1 304 1 is_stmt 0 view .LVU474
 1921 008a 03B0     		add	sp, sp, #12
 1922              		.cfi_remember_state
 1923              		.cfi_def_cfa_offset 20
 1924              		@ sp needed
 1925 008c BDE8F040 		pop	{r4, r5, r6, r7, lr}
 1926              		.cfi_restore 14
 1927              		.cfi_restore 7
 1928              		.cfi_restore 6
 1929              		.cfi_restore 5
 1930              		.cfi_restore 4
 1931              		.cfi_def_cfa_offset 0
 1932              	.LVL117:
 1933              	.LBB235:
 1934              	.LBB233:
 1935              		.loc 1 303 5 view .LVU475
 1936 0090 FFF7FEBF 		b	sdc_lld_send_cmd_short_crc
 1937              	.LVL118:
 1938              	.L162:
ARM GAS  /tmp/ccDzFi87.s 			page 35


 1939              		.cfi_restore_state
 1940              		.loc 1 303 5 view .LVU476
 1941              	.LBE233:
 1942              	.LBE235:
 1943              		.loc 1 304 1 view .LVU477
 1944 0094 FFF7FEFF 		bl	__stack_chk_fail
 1945              	.LVL119:
 1946              	.L165:
 1947              		.align	2
 1948              	.L164:
 1949 0098 00000000 		.word	.LC13
 1950 009c FF07C000 		.word	12584959
 1951              		.cfi_endproc
 1952              	.LFE261:
 1953              		.size	sdc_lld_error_cleanup, .-sdc_lld_error_cleanup
 1954              		.section	.rodata.sdc_lld_send_cmd_long_crc.cst4,"aM",%progbits,4
 1955              		.align	2
 1956              	.LC14:
 1957 0000 00000000 		.word	__stack_chk_guard
 1958              		.section	.text.sdc_lld_send_cmd_long_crc,"ax",%progbits
 1959              		.align	1
 1960              		.p2align 4,,15
 1961              		.global	sdc_lld_send_cmd_long_crc
 1962              		.syntax unified
 1963              		.thumb
 1964              		.thumb_func
 1965              		.fpu fpv4-sp-d16
 1966              		.type	sdc_lld_send_cmd_long_crc, %function
 1967              	sdc_lld_send_cmd_long_crc:
 1968              	.LVL120:
 1969              	.LFB273:
 1970              		.loc 1 601 48 is_stmt 1 view -0
 1971              		.cfi_startproc
 1972              		@ args = 0, pretend = 0, frame = 8
 1973              		@ frame_needed = 0, uses_anonymous_args = 0
 1974              		.loc 1 601 48 is_stmt 0 view .LVU479
 1975 0000 10B5     		push	{r4, lr}
 1976              		.cfi_def_cfa_offset 8
 1977              		.cfi_offset 4, -8
 1978              		.cfi_offset 14, -4
 1979 0002 DFF864C0 		ldr	ip, .L176
 1980              		.loc 1 606 7 view .LVU480
 1981 0006 846C     		ldr	r4, [r0, #72]
 1982              		.loc 1 601 48 view .LVU481
 1983 0008 82B0     		sub	sp, sp, #8
 1984              		.cfi_def_cfa_offset 16
 1985              		.loc 1 601 48 view .LVU482
 1986 000a DCF800C0 		ldr	ip, [ip]
 1987 000e CDF804C0 		str	ip, [sp, #4]
 1988 0012 4FF0000C 		mov	ip,#0
 1989              		.loc 1 602 3 is_stmt 1 view .LVU483
 1990              		.loc 1 604 3 view .LVU484
 1991              		.loc 1 606 3 view .LVU485
 1992              		.loc 1 606 19 is_stmt 0 view .LVU486
 1993 0016 A260     		str	r2, [r4, #8]
 1994              		.loc 1 607 3 is_stmt 1 view .LVU487
 1995              		.loc 1 607 7 is_stmt 0 view .LVU488
ARM GAS  /tmp/ccDzFi87.s 			page 36


 1996 0018 826C     		ldr	r2, [r0, #72]
 1997              	.LVL121:
 1998              		.loc 1 607 79 view .LVU489
 1999 001a 41F49861 		orr	r1, r1, #1216
 2000              	.LVL122:
 2001              		.loc 1 607 19 view .LVU490
 2002 001e D160     		str	r1, [r2, #12]
 2003              	.LVL123:
 2004              		.loc 1 609 3 is_stmt 1 view .LVU491
 2005              		.loc 1 609 22 is_stmt 0 view .LVU492
 2006 0020 826C     		ldr	r2, [r0, #72]
 2007              	.L167:
 2008              		.loc 1 611 5 is_stmt 1 discriminator 1 view .LVU493
 2009              		.loc 1 609 9 discriminator 1 view .LVU494
 2010              		.loc 1 609 16 is_stmt 0 discriminator 1 view .LVU495
 2011 0022 516B     		ldr	r1, [r2, #52]
 2012              	.LVL124:
 2013              		.loc 1 609 9 discriminator 1 view .LVU496
 2014 0024 11F04504 		ands	r4, r1, #69
 2015 0028 FBD0     		beq	.L167
 2016              		.loc 1 612 3 is_stmt 1 view .LVU497
 2017              		.loc 1 612 19 is_stmt 0 view .LVU498
 2018 002a 9463     		str	r4, [r2, #56]
 2019              		.loc 1 614 3 is_stmt 1 view .LVU499
 2020              		.loc 1 614 6 is_stmt 0 view .LVU500
 2021 002c 11F03F02 		ands	r2, r1, #63
 2022 0030 13D1     		bne	.L174
 2023              		.loc 1 619 3 is_stmt 1 view .LVU501
 2024              		.loc 1 619 17 is_stmt 0 view .LVU502
 2025 0032 816C     		ldr	r1, [r0, #72]
 2026              	.LVL125:
 2027              		.loc 1 619 23 view .LVU503
 2028 0034 096A     		ldr	r1, [r1, #32]
 2029              		.loc 1 619 11 view .LVU504
 2030 0036 1960     		str	r1, [r3]
 2031              		.loc 1 620 3 is_stmt 1 view .LVU505
 2032              		.loc 1 620 17 is_stmt 0 view .LVU506
 2033 0038 816C     		ldr	r1, [r0, #72]
 2034              	.LVL126:
 2035              		.loc 1 620 23 view .LVU507
 2036 003a C969     		ldr	r1, [r1, #28]
 2037              		.loc 1 620 11 view .LVU508
 2038 003c 5960     		str	r1, [r3, #4]
 2039              		.loc 1 621 3 is_stmt 1 view .LVU509
 2040              		.loc 1 621 17 is_stmt 0 view .LVU510
 2041 003e 816C     		ldr	r1, [r0, #72]
 2042              	.LVL127:
 2043              		.loc 1 621 23 view .LVU511
 2044 0040 8969     		ldr	r1, [r1, #24]
 2045              		.loc 1 621 11 view .LVU512
 2046 0042 9960     		str	r1, [r3, #8]
 2047              		.loc 1 622 3 is_stmt 1 view .LVU513
 2048              		.loc 1 622 17 is_stmt 0 view .LVU514
 2049 0044 816C     		ldr	r1, [r0, #72]
 2050              		.loc 1 622 23 view .LVU515
 2051 0046 4969     		ldr	r1, [r1, #20]
 2052              		.loc 1 622 11 view .LVU516
ARM GAS  /tmp/ccDzFi87.s 			page 37


 2053 0048 D960     		str	r1, [r3, #12]
 2054              		.loc 1 623 3 is_stmt 1 view .LVU517
 2055              		.loc 1 623 10 is_stmt 0 view .LVU518
 2056 004a 1046     		mov	r0, r2
 2057              	.LVL128:
 2058              	.L169:
 2059              		.loc 1 624 1 view .LVU519
 2060 004c 064B     		ldr	r3, .L176
 2061 004e 1A68     		ldr	r2, [r3]
 2062 0050 019B     		ldr	r3, [sp, #4]
 2063 0052 5A40     		eors	r2, r3, r2
 2064 0054 06D1     		bne	.L175
 2065 0056 02B0     		add	sp, sp, #8
 2066              		.cfi_remember_state
 2067              		.cfi_def_cfa_offset 8
 2068              		@ sp needed
 2069 0058 10BD     		pop	{r4, pc}
 2070              	.LVL129:
 2071              	.L174:
 2072              		.cfi_restore_state
 2073              		.loc 1 615 5 is_stmt 1 view .LVU520
 2074 005a 3430     		adds	r0, r0, #52
 2075              	.LVL130:
 2076              		.loc 1 615 5 is_stmt 0 view .LVU521
 2077 005c FFF7FEFF 		bl	sdc_lld_collect_errors.isra.0
 2078              	.LVL131:
 2079              		.loc 1 616 5 is_stmt 1 view .LVU522
 2080              		.loc 1 616 12 is_stmt 0 view .LVU523
 2081 0060 0120     		movs	r0, #1
 2082 0062 F3E7     		b	.L169
 2083              	.LVL132:
 2084              	.L175:
 2085              		.loc 1 624 1 view .LVU524
 2086 0064 FFF7FEFF 		bl	__stack_chk_fail
 2087              	.LVL133:
 2088              	.L177:
 2089              		.align	2
 2090              	.L176:
 2091 0068 00000000 		.word	.LC14
 2092              		.cfi_endproc
 2093              	.LFE273:
 2094              		.size	sdc_lld_send_cmd_long_crc, .-sdc_lld_send_cmd_long_crc
 2095              		.section	.rodata.sdc_lld_read_special.cst4,"aM",%progbits,4
 2096              		.align	2
 2097              	.LC15:
 2098 0000 00000000 		.word	__stack_chk_guard
 2099              		.section	.text.sdc_lld_read_special,"ax",%progbits
 2100              		.align	1
 2101              		.p2align 4,,15
 2102              		.global	sdc_lld_read_special
 2103              		.syntax unified
 2104              		.thumb
 2105              		.thumb_func
 2106              		.fpu fpv4-sp-d16
 2107              		.type	sdc_lld_read_special, %function
 2108              	sdc_lld_read_special:
 2109              	.LVL134:
ARM GAS  /tmp/ccDzFi87.s 			page 38


 2110              	.LFB274:
 2111              		.loc 1 643 54 is_stmt 1 view -0
 2112              		.cfi_startproc
 2113              		@ args = 4, pretend = 0, frame = 8
 2114              		@ frame_needed = 0, uses_anonymous_args = 0
 2115              		.loc 1 643 54 is_stmt 0 view .LVU526
 2116 0000 2DE9F041 		push	{r4, r5, r6, r7, r8, lr}
 2117              		.cfi_def_cfa_offset 24
 2118              		.cfi_offset 4, -24
 2119              		.cfi_offset 5, -20
 2120              		.cfi_offset 6, -16
 2121              		.cfi_offset 7, -12
 2122              		.cfi_offset 8, -8
 2123              		.cfi_offset 14, -4
 2124 0004 1E46     		mov	r6, r3
 2125 0006 82B0     		sub	sp, sp, #8
 2126              		.cfi_def_cfa_offset 32
 2127              		.loc 1 643 54 view .LVU527
 2128 0008 2D4B     		ldr	r3, .L189
 2129              	.LVL135:
 2130              		.loc 1 643 54 view .LVU528
 2131 000a DDF82080 		ldr	r8, [sp, #32]
 2132              	.LBB238:
 2133              	.LBB239:
 2134              		.loc 1 89 3 view .LVU529
 2135 000e B2F1807F 		cmp	r2, #16777216
 2136              	.LBE239:
 2137              	.LBE238:
 2138              		.loc 1 643 54 view .LVU530
 2139 0012 1546     		mov	r5, r2
 2140 0014 0446     		mov	r4, r0
 2141 0016 0F46     		mov	r7, r1
 2142 0018 1B68     		ldr	r3, [r3]
 2143 001a 0193     		str	r3, [sp, #4]
 2144 001c 4FF00003 		mov	r3,#0
 2145              		.loc 1 644 3 is_stmt 1 view .LVU531
 2146              		.loc 1 646 3 view .LVU532
 2147              	.LVL136:
 2148              	.LBB243:
 2149              	.LBI238:
 2150              		.loc 1 87 13 view .LVU533
 2151              	.LBB240:
 2152              		.loc 1 89 3 view .LVU534
 2153              		.loc 1 89 3 view .LVU535
 2154              		.loc 1 89 3 view .LVU536
 2155 0020 40D2     		bcs	.L185
 2156              	.LVL137:
 2157              	.L179:
 2158              		.loc 1 89 3 view .LVU537
 2159              		.loc 1 91 3 view .LVU538
 2160              		.loc 1 91 7 is_stmt 0 view .LVU539
 2161 0022 A36C     		ldr	r3, [r4, #72]
 2162              		.loc 1 91 22 view .LVU540
 2163 0024 274A     		ldr	r2, .L189+4
 2164 0026 5A62     		str	r2, [r3, #36]
 2165              		.loc 1 94 3 is_stmt 1 view .LVU541
 2166              		.loc 1 94 7 is_stmt 0 view .LVU542
ARM GAS  /tmp/ccDzFi87.s 			page 39


 2167 0028 2046     		mov	r0, r4
 2168 002a FFF7FEFF 		bl	_sdc_wait_for_transfer_state
 2169              	.LVL138:
 2170              		.loc 1 94 6 view .LVU543
 2171 002e 0028     		cmp	r0, #0
 2172 0030 36D1     		bne	.L186
 2173              		.loc 1 98 3 is_stmt 1 view .LVU544
 2174 0032 636C     		ldr	r3, [r4, #68]
 2175              		.loc 1 104 21 is_stmt 0 view .LVU545
 2176 0034 2449     		ldr	r1, .L189+8
 2177              		.loc 1 98 3 view .LVU546
 2178 0036 1B68     		ldr	r3, [r3]
 2179 0038 DF60     		str	r7, [r3, #12]
 2180              		.loc 1 98 38 is_stmt 1 view .LVU547
 2181              		.loc 1 99 3 view .LVU548
 2182 003a 636C     		ldr	r3, [r4, #68]
 2183 003c 1B68     		ldr	r3, [r3]
 2184 003e AA08     		lsrs	r2, r5, #2
 2185 0040 5A60     		str	r2, [r3, #4]
 2186              		.loc 1 99 68 view .LVU549
 2187              		.loc 1 100 3 view .LVU550
 2188 0042 D4E91023 		ldrd	r2, r3, [r4, #64]
 2189 0046 1B68     		ldr	r3, [r3]
 2190 0048 1A60     		str	r2, [r3]
 2191              		.loc 1 100 68 view .LVU551
 2192              		.loc 1 101 3 view .LVU552
 2193 004a 636C     		ldr	r3, [r4, #68]
 2194 004c 1A68     		ldr	r2, [r3]
 2195 004e 1368     		ldr	r3, [r2]
 2196 0050 43F00103 		orr	r3, r3, #1
 2197 0054 1360     		str	r3, [r2]
 2198              		.loc 1 101 29 view .LVU553
 2199              		.loc 1 104 3 view .LVU554
 2200              		.loc 1 104 7 is_stmt 0 view .LVU555
 2201 0056 A36C     		ldr	r3, [r4, #72]
 2202              		.loc 1 104 21 view .LVU556
 2203 0058 9963     		str	r1, [r3, #56]
 2204              		.loc 1 105 3 is_stmt 1 view .LVU557
 2205              		.loc 1 105 7 is_stmt 0 view .LVU558
 2206 005a A36C     		ldr	r3, [r4, #72]
 2207              		.loc 1 105 21 view .LVU559
 2208 005c 40F22A32 		movw	r2, #810
 2209 0060 DA63     		str	r2, [r3, #60]
 2210              		.loc 1 110 3 is_stmt 1 view .LVU560
 2211              		.loc 1 110 7 is_stmt 0 view .LVU561
 2212 0062 A36C     		ldr	r3, [r4, #72]
 2213              		.loc 1 110 21 view .LVU562
 2214 0064 9D62     		str	r5, [r3, #40]
 2215              		.loc 1 113 3 is_stmt 1 view .LVU563
 2216              		.loc 1 113 7 is_stmt 0 view .LVU564
 2217 0066 A36C     		ldr	r3, [r4, #72]
 2218              		.loc 1 113 21 view .LVU565
 2219 0068 0F20     		movs	r0, #15
 2220              	.LBE240:
 2221              	.LBE243:
 2222              		.loc 1 649 7 view .LVU566
 2223 006a 6D46     		mov	r5, sp
ARM GAS  /tmp/ccDzFi87.s 			page 40


 2224              	.LVL139:
 2225              	.LBB244:
 2226              	.LBB241:
 2227              		.loc 1 113 21 view .LVU567
 2228 006c D862     		str	r0, [r3, #44]
 2229              		.loc 1 118 3 is_stmt 1 view .LVU568
 2230              	.LVL140:
 2231              		.loc 1 118 3 is_stmt 0 view .LVU569
 2232              	.LBE241:
 2233              	.LBE244:
 2234              		.loc 1 649 3 is_stmt 1 view .LVU570
 2235              		.loc 1 649 7 is_stmt 0 view .LVU571
 2236 006e 4246     		mov	r2, r8
 2237 0070 3146     		mov	r1, r6
 2238 0072 2B46     		mov	r3, r5
 2239 0074 2046     		mov	r0, r4
 2240 0076 FFF7FEFF 		bl	sdc_lld_send_cmd_short_crc
 2241              	.LVL141:
 2242              		.loc 1 649 6 view .LVU572
 2243 007a 18B9     		cbnz	r0, .L182
 2244              		.loc 1 650 37 view .LVU573
 2245 007c 009A     		ldr	r2, [sp]
 2246 007e 134B     		ldr	r3, .L189+12
 2247 0080 1340     		ands	r3, r3, r2
 2248              		.loc 1 650 34 view .LVU574
 2249 0082 9BB1     		cbz	r3, .L187
 2250              	.L182:
 2251              	.LDL1:
 2252              		.loc 1 659 3 is_stmt 1 view .LVU575
 2253 0084 2046     		mov	r0, r4
 2254 0086 2A46     		mov	r2, r5
 2255 0088 0121     		movs	r1, #1
 2256 008a FFF7FEFF 		bl	sdc_lld_error_cleanup
 2257              	.LVL142:
 2258              		.loc 1 660 3 view .LVU576
 2259              		.loc 1 660 10 is_stmt 0 view .LVU577
 2260 008e 0120     		movs	r0, #1
 2261              	.L181:
 2262              		.loc 1 661 1 view .LVU578
 2263 0090 0B4B     		ldr	r3, .L189
 2264 0092 1A68     		ldr	r2, [r3]
 2265 0094 019B     		ldr	r3, [sp, #4]
 2266 0096 5A40     		eors	r2, r3, r2
 2267 0098 10D1     		bne	.L188
 2268 009a 02B0     		add	sp, sp, #8
 2269              		.cfi_remember_state
 2270              		.cfi_def_cfa_offset 24
 2271              		@ sp needed
 2272 009c BDE8F081 		pop	{r4, r5, r6, r7, r8, pc}
 2273              	.LVL143:
 2274              	.L186:
 2275              		.cfi_restore_state
 2276              		.loc 1 661 1 view .LVU579
 2277 00a0 6D46     		mov	r5, sp
 2278              	.LVL144:
 2279              		.loc 1 661 1 view .LVU580
 2280 00a2 EFE7     		b	.L182
ARM GAS  /tmp/ccDzFi87.s 			page 41


 2281              	.LVL145:
 2282              	.L185:
 2283              	.LBB245:
 2284              	.LBB242:
 2285              		.loc 1 89 3 is_stmt 1 view .LVU581
 2286 00a4 0A48     		ldr	r0, .L189+16
 2287              	.LVL146:
 2288              		.loc 1 89 3 is_stmt 0 view .LVU582
 2289 00a6 FFF7FEFF 		bl	chSysHalt
 2290              	.LVL147:
 2291              		.loc 1 89 3 view .LVU583
 2292 00aa BAE7     		b	.L179
 2293              	.LVL148:
 2294              	.L187:
 2295              		.loc 1 89 3 view .LVU584
 2296              	.LBE242:
 2297              	.LBE245:
 2298              		.loc 1 653 3 is_stmt 1 view .LVU585
 2299              		.loc 1 653 7 is_stmt 0 view .LVU586
 2300 00ac 2A46     		mov	r2, r5
 2301 00ae 0121     		movs	r1, #1
 2302 00b0 2046     		mov	r0, r4
 2303 00b2 FFF7FEFF 		bl	sdc_lld_wait_transaction_end
 2304              	.LVL149:
 2305              		.loc 1 653 6 view .LVU587
 2306 00b6 0028     		cmp	r0, #0
 2307 00b8 EAD0     		beq	.L181
 2308 00ba E3E7     		b	.L182
 2309              	.L188:
 2310              		.loc 1 661 1 view .LVU588
 2311 00bc FFF7FEFF 		bl	__stack_chk_fail
 2312              	.LVL150:
 2313              	.L190:
 2314              		.align	2
 2315              	.L189:
 2316 00c0 00000000 		.word	.LC15
 2317 00c4 C0270900 		.word	600000
 2318 00c8 FF07C000 		.word	12584959
 2319 00cc 08E0FFFD 		.word	-33562616
 2320 00d0 00000000 		.word	.LANCHOR4
 2321              		.cfi_endproc
 2322              	.LFE274:
 2323              		.size	sdc_lld_read_special, .-sdc_lld_read_special
 2324              		.section	.rodata.sdc_lld_read_aligned.cst4,"aM",%progbits,4
 2325              		.align	2
 2326              	.LC16:
 2327 0000 00000000 		.word	__stack_chk_guard
 2328              		.section	.text.sdc_lld_read_aligned,"ax",%progbits
 2329              		.align	1
 2330              		.p2align 4,,15
 2331              		.global	sdc_lld_read_aligned
 2332              		.syntax unified
 2333              		.thumb
 2334              		.thumb_func
 2335              		.fpu fpv4-sp-d16
 2336              		.type	sdc_lld_read_aligned, %function
 2337              	sdc_lld_read_aligned:
ARM GAS  /tmp/ccDzFi87.s 			page 42


 2338              	.LVL151:
 2339              	.LFB275:
 2340              		.loc 1 678 58 is_stmt 1 view -0
 2341              		.cfi_startproc
 2342              		@ args = 0, pretend = 0, frame = 8
 2343              		@ frame_needed = 0, uses_anonymous_args = 0
 2344              		.loc 1 678 58 is_stmt 0 view .LVU590
 2345 0000 F0B5     		push	{r4, r5, r6, r7, lr}
 2346              		.cfi_def_cfa_offset 20
 2347              		.cfi_offset 4, -20
 2348              		.cfi_offset 5, -16
 2349              		.cfi_offset 6, -12
 2350              		.cfi_offset 7, -8
 2351              		.cfi_offset 14, -4
 2352 0002 1D46     		mov	r5, r3
 2353 0004 324B     		ldr	r3, .L206
 2354              	.LVL152:
 2355              		.loc 1 678 58 view .LVU591
 2356 0006 83B0     		sub	sp, sp, #12
 2357              		.cfi_def_cfa_offset 32
 2358              		.loc 1 681 3 view .LVU592
 2359 0008 B5F5004F 		cmp	r5, #32768
 2360              		.loc 1 678 58 view .LVU593
 2361 000c 0446     		mov	r4, r0
 2362 000e 0E46     		mov	r6, r1
 2363 0010 1746     		mov	r7, r2
 2364 0012 1B68     		ldr	r3, [r3]
 2365 0014 0193     		str	r3, [sp, #4]
 2366 0016 4FF00003 		mov	r3,#0
 2367              		.loc 1 679 3 is_stmt 1 view .LVU594
 2368              		.loc 1 681 3 view .LVU595
 2369              		.loc 1 681 3 view .LVU596
 2370              		.loc 1 681 3 view .LVU597
 2371 001a 4BD2     		bcs	.L203
 2372              	.LVL153:
 2373              	.L192:
 2374              		.loc 1 681 3 discriminator 5 view .LVU598
 2375              		.loc 1 683 3 discriminator 5 view .LVU599
 2376              		.loc 1 683 7 is_stmt 0 discriminator 5 view .LVU600
 2377 001c A36C     		ldr	r3, [r4, #72]
 2378              		.loc 1 683 22 discriminator 5 view .LVU601
 2379 001e 2D49     		ldr	r1, .L206+4
 2380 0020 5962     		str	r1, [r3, #36]
 2381              		.loc 1 686 3 is_stmt 1 discriminator 5 view .LVU602
 2382              		.loc 1 686 7 is_stmt 0 discriminator 5 view .LVU603
 2383 0022 2046     		mov	r0, r4
 2384 0024 FFF7FEFF 		bl	_sdc_wait_for_transfer_state
 2385              	.LVL154:
 2386              		.loc 1 686 6 discriminator 5 view .LVU604
 2387 0028 30B1     		cbz	r0, .L204
 2388              	.LVL155:
 2389              	.L193:
 2390              		.loc 1 723 1 view .LVU605
 2391 002a 294B     		ldr	r3, .L206
 2392 002c 1A68     		ldr	r2, [r3]
 2393 002e 019B     		ldr	r3, [sp, #4]
 2394 0030 5A40     		eors	r2, r3, r2
ARM GAS  /tmp/ccDzFi87.s 			page 43


 2395 0032 4AD1     		bne	.L205
 2396 0034 03B0     		add	sp, sp, #12
 2397              		.cfi_remember_state
 2398              		.cfi_def_cfa_offset 20
 2399              		@ sp needed
 2400 0036 F0BD     		pop	{r4, r5, r6, r7, pc}
 2401              	.LVL156:
 2402              	.L204:
 2403              		.cfi_restore_state
 2404              	.LBB250:
 2405              	.LBI250:
 2406              		.loc 1 677 6 is_stmt 1 view .LVU606
 2407              	.LBB251:
 2408              		.loc 1 690 3 view .LVU607
 2409 0038 636C     		ldr	r3, [r4, #68]
 2410              		.loc 1 697 21 is_stmt 0 view .LVU608
 2411 003a 2748     		ldr	r0, .L206+8
 2412              		.loc 1 690 3 view .LVU609
 2413 003c 1B68     		ldr	r3, [r3]
 2414 003e DF60     		str	r7, [r3, #12]
 2415              		.loc 1 690 38 is_stmt 1 view .LVU610
 2416              		.loc 1 691 3 view .LVU611
 2417 0040 626C     		ldr	r2, [r4, #68]
 2418 0042 6B02     		lsls	r3, r5, #9
 2419 0044 1268     		ldr	r2, [r2]
 2420 0046 9908     		lsrs	r1, r3, #2
 2421 0048 5160     		str	r1, [r2, #4]
 2422              		.loc 1 692 79 view .LVU612
 2423              		.loc 1 693 3 view .LVU613
 2424 004a D4E91012 		ldrd	r1, r2, [r4, #64]
 2425 004e 1268     		ldr	r2, [r2]
 2426 0050 1160     		str	r1, [r2]
 2427              		.loc 1 693 68 view .LVU614
 2428              		.loc 1 694 3 view .LVU615
 2429 0052 626C     		ldr	r2, [r4, #68]
 2430 0054 1168     		ldr	r1, [r2]
 2431 0056 0A68     		ldr	r2, [r1]
 2432 0058 42F00102 		orr	r2, r2, #1
 2433 005c 0A60     		str	r2, [r1]
 2434              		.loc 1 694 29 view .LVU616
 2435              		.loc 1 697 3 view .LVU617
 2436              		.loc 1 697 7 is_stmt 0 view .LVU618
 2437 005e A26C     		ldr	r2, [r4, #72]
 2438              		.loc 1 697 21 view .LVU619
 2439 0060 9063     		str	r0, [r2, #56]
 2440              		.loc 1 698 3 is_stmt 1 view .LVU620
 2441              		.loc 1 698 7 is_stmt 0 view .LVU621
 2442 0062 A26C     		ldr	r2, [r4, #72]
 2443              		.loc 1 698 21 view .LVU622
 2444 0064 40F22A31 		movw	r1, #810
 2445 0068 D163     		str	r1, [r2, #60]
 2446              		.loc 1 703 3 is_stmt 1 view .LVU623
 2447              		.loc 1 703 7 is_stmt 0 view .LVU624
 2448 006a A26C     		ldr	r2, [r4, #72]
 2449              		.loc 1 703 21 view .LVU625
 2450 006c 9362     		str	r3, [r2, #40]
 2451              		.loc 1 706 3 is_stmt 1 view .LVU626
ARM GAS  /tmp/ccDzFi87.s 			page 44


 2452              		.loc 1 706 7 is_stmt 0 view .LVU627
 2453 006e A36C     		ldr	r3, [r4, #72]
 2454              		.loc 1 706 21 view .LVU628
 2455 0070 9B22     		movs	r2, #155
 2456 0072 DA62     		str	r2, [r3, #44]
 2457              		.loc 1 712 3 is_stmt 1 view .LVU629
 2458              	.LVL157:
 2459              	.LBB252:
 2460              	.LBI252:
 2461              		.loc 1 135 13 view .LVU630
 2462              	.LBB253:
 2463              		.loc 1 140 3 view .LVU631
 2464              		.loc 1 140 24 is_stmt 0 view .LVU632
 2465 0074 236B     		ldr	r3, [r4, #48]
 2466              		.loc 1 140 6 view .LVU633
 2467 0076 DB06     		lsls	r3, r3, #27
 2468              		.loc 1 141 5 is_stmt 1 view .LVU634
 2469              		.loc 1 141 14 is_stmt 0 view .LVU635
 2470 0078 58BF     		it	pl
 2471 007a 7602     		lslpl	r6, r6, #9
 2472              	.LVL158:
 2473              		.loc 1 143 3 is_stmt 1 view .LVU636
 2474              		.loc 1 145 9 is_stmt 0 view .LVU637
 2475 007c 6F46     		mov	r7, sp
 2476              	.LVL159:
 2477              		.loc 1 143 6 view .LVU638
 2478 007e 012D     		cmp	r5, #1
 2479              		.loc 1 145 9 view .LVU639
 2480 0080 3246     		mov	r2, r6
 2481 0082 3B46     		mov	r3, r7
 2482              		.loc 1 143 6 view .LVU640
 2483 0084 1AD9     		bls	.L195
 2484              		.loc 1 145 5 is_stmt 1 view .LVU641
 2485              		.loc 1 145 9 is_stmt 0 view .LVU642
 2486 0086 1221     		movs	r1, #18
 2487 0088 2046     		mov	r0, r4
 2488 008a FFF7FEFF 		bl	sdc_lld_send_cmd_short_crc
 2489              	.LVL160:
 2490              		.loc 1 145 8 view .LVU643
 2491 008e 50B9     		cbnz	r0, .L198
 2492              	.L202:
 2493              		.loc 1 152 55 view .LVU644
 2494 0090 009A     		ldr	r2, [sp]
 2495 0092 124B     		ldr	r3, .L206+12
 2496 0094 1340     		ands	r3, r3, r2
 2497              		.loc 1 152 52 view .LVU645
 2498 0096 33B9     		cbnz	r3, .L198
 2499              	.LVL161:
 2500              		.loc 1 152 52 view .LVU646
 2501              	.LBE253:
 2502              	.LBE252:
 2503              		.loc 1 715 3 is_stmt 1 view .LVU647
 2504              		.loc 1 715 7 is_stmt 0 view .LVU648
 2505 0098 3A46     		mov	r2, r7
 2506 009a 2946     		mov	r1, r5
 2507 009c 2046     		mov	r0, r4
 2508 009e FFF7FEFF 		bl	sdc_lld_wait_transaction_end
ARM GAS  /tmp/ccDzFi87.s 			page 45


 2509              	.LVL162:
 2510              		.loc 1 715 6 view .LVU649
 2511 00a2 0028     		cmp	r0, #0
 2512 00a4 C1D0     		beq	.L193
 2513              	.L198:
 2514              	.LDL2:
 2515              		.loc 1 721 3 is_stmt 1 view .LVU650
 2516 00a6 2046     		mov	r0, r4
 2517 00a8 3A46     		mov	r2, r7
 2518 00aa 2946     		mov	r1, r5
 2519 00ac FFF7FEFF 		bl	sdc_lld_error_cleanup
 2520              	.LVL163:
 2521              		.loc 1 722 3 view .LVU651
 2522              		.loc 1 722 10 is_stmt 0 view .LVU652
 2523 00b0 0120     		movs	r0, #1
 2524 00b2 BAE7     		b	.L193
 2525              	.LVL164:
 2526              	.L203:
 2527              		.loc 1 722 10 view .LVU653
 2528              	.LBE251:
 2529              	.LBE250:
 2530              		.loc 1 681 3 is_stmt 1 discriminator 3 view .LVU654
 2531 00b4 0A48     		ldr	r0, .L206+16
 2532              	.LVL165:
 2533              		.loc 1 681 3 is_stmt 0 discriminator 3 view .LVU655
 2534 00b6 FFF7FEFF 		bl	chSysHalt
 2535              	.LVL166:
 2536              		.loc 1 681 3 discriminator 3 view .LVU656
 2537 00ba AFE7     		b	.L192
 2538              	.LVL167:
 2539              	.L195:
 2540              	.LBB257:
 2541              	.LBB256:
 2542              	.LBB255:
 2543              	.LBB254:
 2544              		.loc 1 151 5 is_stmt 1 view .LVU657
 2545              		.loc 1 151 9 is_stmt 0 view .LVU658
 2546 00bc 1121     		movs	r1, #17
 2547 00be 2046     		mov	r0, r4
 2548 00c0 FFF7FEFF 		bl	sdc_lld_send_cmd_short_crc
 2549              	.LVL168:
 2550              		.loc 1 151 8 view .LVU659
 2551 00c4 0028     		cmp	r0, #0
 2552 00c6 E3D0     		beq	.L202
 2553 00c8 EDE7     		b	.L198
 2554              	.LVL169:
 2555              	.L205:
 2556              		.loc 1 151 8 view .LVU660
 2557              	.LBE254:
 2558              	.LBE255:
 2559              	.LBE256:
 2560              	.LBE257:
 2561              		.loc 1 723 1 view .LVU661
 2562 00ca FFF7FEFF 		bl	__stack_chk_fail
 2563              	.LVL170:
 2564              	.L207:
 2565 00ce 00BF     		.align	2
ARM GAS  /tmp/ccDzFi87.s 			page 46


 2566              	.L206:
 2567 00d0 00000000 		.word	.LC16
 2568 00d4 C0270900 		.word	600000
 2569 00d8 FF07C000 		.word	12584959
 2570 00dc 08E0FFFD 		.word	-33562616
 2571 00e0 00000000 		.word	.LANCHOR5
 2572              		.cfi_endproc
 2573              	.LFE275:
 2574              		.size	sdc_lld_read_aligned, .-sdc_lld_read_aligned
 2575              		.section	.rodata.sdc_lld_write_aligned.cst4,"aM",%progbits,4
 2576              		.align	2
 2577              	.LC17:
 2578 0000 00000000 		.word	__stack_chk_guard
 2579              		.section	.text.sdc_lld_write_aligned,"ax",%progbits
 2580              		.align	1
 2581              		.p2align 4,,15
 2582              		.global	sdc_lld_write_aligned
 2583              		.syntax unified
 2584              		.thumb
 2585              		.thumb_func
 2586              		.fpu fpv4-sp-d16
 2587              		.type	sdc_lld_write_aligned, %function
 2588              	sdc_lld_write_aligned:
 2589              	.LVL171:
 2590              	.LFB276:
 2591              		.loc 1 740 65 is_stmt 1 view -0
 2592              		.cfi_startproc
 2593              		@ args = 0, pretend = 0, frame = 16
 2594              		@ frame_needed = 0, uses_anonymous_args = 0
 2595              		.loc 1 740 65 is_stmt 0 view .LVU663
 2596 0000 F0B5     		push	{r4, r5, r6, r7, lr}
 2597              		.cfi_def_cfa_offset 20
 2598              		.cfi_offset 4, -20
 2599              		.cfi_offset 5, -16
 2600              		.cfi_offset 6, -12
 2601              		.cfi_offset 7, -8
 2602              		.cfi_offset 14, -4
 2603 0002 1D46     		mov	r5, r3
 2604 0004 334B     		ldr	r3, .L223
 2605              	.LVL172:
 2606              		.loc 1 740 65 view .LVU664
 2607 0006 85B0     		sub	sp, sp, #20
 2608              		.cfi_def_cfa_offset 40
 2609              		.loc 1 743 3 view .LVU665
 2610 0008 B5F5004F 		cmp	r5, #32768
 2611              		.loc 1 740 65 view .LVU666
 2612 000c 0446     		mov	r4, r0
 2613 000e 0E46     		mov	r6, r1
 2614 0010 1746     		mov	r7, r2
 2615 0012 1B68     		ldr	r3, [r3]
 2616 0014 0393     		str	r3, [sp, #12]
 2617 0016 4FF00003 		mov	r3,#0
 2618              		.loc 1 741 3 is_stmt 1 view .LVU667
 2619              		.loc 1 743 3 view .LVU668
 2620              		.loc 1 743 3 view .LVU669
 2621              		.loc 1 743 3 view .LVU670
 2622 001a 4ED2     		bcs	.L220
ARM GAS  /tmp/ccDzFi87.s 			page 47


 2623              	.LVL173:
 2624              	.L209:
 2625              		.loc 1 743 3 discriminator 5 view .LVU671
 2626              		.loc 1 745 3 discriminator 5 view .LVU672
 2627              		.loc 1 745 7 is_stmt 0 discriminator 5 view .LVU673
 2628 001c A36C     		ldr	r3, [r4, #72]
 2629              		.loc 1 745 22 discriminator 5 view .LVU674
 2630 001e 2E49     		ldr	r1, .L223+4
 2631 0020 5962     		str	r1, [r3, #36]
 2632              		.loc 1 748 3 is_stmt 1 discriminator 5 view .LVU675
 2633              		.loc 1 748 7 is_stmt 0 discriminator 5 view .LVU676
 2634 0022 2046     		mov	r0, r4
 2635 0024 FFF7FEFF 		bl	_sdc_wait_for_transfer_state
 2636              	.LVL174:
 2637              		.loc 1 748 6 discriminator 5 view .LVU677
 2638 0028 30B1     		cbz	r0, .L221
 2639              	.LVL175:
 2640              	.L210:
 2641              		.loc 1 785 1 view .LVU678
 2642 002a 2A4B     		ldr	r3, .L223
 2643 002c 1A68     		ldr	r2, [r3]
 2644 002e 039B     		ldr	r3, [sp, #12]
 2645 0030 5A40     		eors	r2, r3, r2
 2646 0032 4DD1     		bne	.L222
 2647 0034 05B0     		add	sp, sp, #20
 2648              		.cfi_remember_state
 2649              		.cfi_def_cfa_offset 20
 2650              		@ sp needed
 2651 0036 F0BD     		pop	{r4, r5, r6, r7, pc}
 2652              	.LVL176:
 2653              	.L221:
 2654              		.cfi_restore_state
 2655              	.LBB262:
 2656              	.LBI262:
 2657              		.loc 1 739 6 is_stmt 1 view .LVU679
 2658              	.LBB263:
 2659              		.loc 1 752 3 view .LVU680
 2660 0038 636C     		ldr	r3, [r4, #68]
 2661              		.loc 1 759 21 is_stmt 0 view .LVU681
 2662 003a 2848     		ldr	r0, .L223+8
 2663              		.loc 1 752 3 view .LVU682
 2664 003c 1B68     		ldr	r3, [r3]
 2665 003e DF60     		str	r7, [r3, #12]
 2666              		.loc 1 752 38 is_stmt 1 view .LVU683
 2667              		.loc 1 753 3 view .LVU684
 2668 0040 626C     		ldr	r2, [r4, #68]
 2669 0042 6B02     		lsls	r3, r5, #9
 2670 0044 1268     		ldr	r2, [r2]
 2671 0046 9908     		lsrs	r1, r3, #2
 2672 0048 5160     		str	r1, [r2, #4]
 2673              		.loc 1 754 78 view .LVU685
 2674              		.loc 1 755 3 view .LVU686
 2675 004a D4E91021 		ldrd	r2, r1, [r4, #64]
 2676 004e 0968     		ldr	r1, [r1]
 2677 0050 42F04002 		orr	r2, r2, #64
 2678 0054 0A60     		str	r2, [r1]
 2679              		.loc 1 755 68 view .LVU687
ARM GAS  /tmp/ccDzFi87.s 			page 48


 2680              		.loc 1 756 3 view .LVU688
 2681 0056 626C     		ldr	r2, [r4, #68]
 2682 0058 1168     		ldr	r1, [r2]
 2683 005a 0A68     		ldr	r2, [r1]
 2684 005c 42F00102 		orr	r2, r2, #1
 2685 0060 0A60     		str	r2, [r1]
 2686              		.loc 1 756 29 view .LVU689
 2687              		.loc 1 759 3 view .LVU690
 2688              		.loc 1 759 7 is_stmt 0 view .LVU691
 2689 0062 A26C     		ldr	r2, [r4, #72]
 2690              		.loc 1 759 21 view .LVU692
 2691 0064 9063     		str	r0, [r2, #56]
 2692              		.loc 1 760 3 is_stmt 1 view .LVU693
 2693              		.loc 1 760 7 is_stmt 0 view .LVU694
 2694 0066 A26C     		ldr	r2, [r4, #72]
 2695              		.loc 1 760 21 view .LVU695
 2696 0068 40F21A31 		movw	r1, #794
 2697 006c D163     		str	r1, [r2, #60]
 2698              		.loc 1 765 3 is_stmt 1 view .LVU696
 2699              		.loc 1 765 7 is_stmt 0 view .LVU697
 2700 006e A26C     		ldr	r2, [r4, #72]
 2701              		.loc 1 765 21 view .LVU698
 2702 0070 9362     		str	r3, [r2, #40]
 2703              		.loc 1 768 3 is_stmt 1 view .LVU699
 2704              	.LVL177:
 2705              	.LBB264:
 2706              	.LBI264:
 2707              		.loc 1 173 13 view .LVU700
 2708              	.LBB265:
 2709              		.loc 1 178 3 view .LVU701
 2710              		.loc 1 178 24 is_stmt 0 view .LVU702
 2711 0072 236B     		ldr	r3, [r4, #48]
 2712              		.loc 1 178 6 view .LVU703
 2713 0074 DB06     		lsls	r3, r3, #27
 2714              		.loc 1 179 5 is_stmt 1 view .LVU704
 2715              		.loc 1 179 14 is_stmt 0 view .LVU705
 2716 0076 58BF     		it	pl
 2717 0078 7602     		lslpl	r6, r6, #9
 2718              	.LVL178:
 2719              		.loc 1 181 3 is_stmt 1 view .LVU706
 2720              		.loc 1 183 9 is_stmt 0 view .LVU707
 2721 007a 02AF     		add	r7, sp, #8
 2722              	.LVL179:
 2723              		.loc 1 181 6 view .LVU708
 2724 007c 012D     		cmp	r5, #1
 2725              		.loc 1 183 9 view .LVU709
 2726 007e 3246     		mov	r2, r6
 2727 0080 3B46     		mov	r3, r7
 2728              		.loc 1 181 6 view .LVU710
 2729 0082 1ED9     		bls	.L212
 2730              		.loc 1 183 5 is_stmt 1 view .LVU711
 2731              		.loc 1 183 9 is_stmt 0 view .LVU712
 2732 0084 1921     		movs	r1, #25
 2733 0086 2046     		mov	r0, r4
 2734 0088 FFF7FEFF 		bl	sdc_lld_send_cmd_short_crc
 2735              	.LVL180:
 2736              		.loc 1 183 8 view .LVU713
ARM GAS  /tmp/ccDzFi87.s 			page 49


 2737 008c 70B9     		cbnz	r0, .L215
 2738              	.L219:
 2739              		.loc 1 190 55 view .LVU714
 2740 008e 029A     		ldr	r2, [sp, #8]
 2741 0090 134B     		ldr	r3, .L223+12
 2742 0092 1340     		ands	r3, r3, r2
 2743              		.loc 1 190 52 view .LVU715
 2744 0094 53B9     		cbnz	r3, .L215
 2745              	.LVL181:
 2746              		.loc 1 190 52 view .LVU716
 2747              	.LBE265:
 2748              	.LBE264:
 2749              		.loc 1 772 3 is_stmt 1 view .LVU717
 2750              		.loc 1 772 7 is_stmt 0 view .LVU718
 2751 0096 A36C     		ldr	r3, [r4, #72]
 2752              		.loc 1 772 21 view .LVU719
 2753 0098 9922     		movs	r2, #153
 2754 009a DA62     		str	r2, [r3, #44]
 2755              		.loc 1 777 3 is_stmt 1 view .LVU720
 2756              		.loc 1 777 7 is_stmt 0 view .LVU721
 2757 009c 2946     		mov	r1, r5
 2758 009e 3A46     		mov	r2, r7
 2759 00a0 2046     		mov	r0, r4
 2760 00a2 FFF7FEFF 		bl	sdc_lld_wait_transaction_end
 2761              	.LVL182:
 2762 00a6 0190     		str	r0, [sp, #4]
 2763              		.loc 1 777 6 view .LVU722
 2764 00a8 0028     		cmp	r0, #0
 2765 00aa BED0     		beq	.L210
 2766              	.L215:
 2767              	.LDL3:
 2768              		.loc 1 783 3 is_stmt 1 view .LVU723
 2769 00ac 2046     		mov	r0, r4
 2770 00ae 3A46     		mov	r2, r7
 2771 00b0 2946     		mov	r1, r5
 2772 00b2 FFF7FEFF 		bl	sdc_lld_error_cleanup
 2773              	.LVL183:
 2774              		.loc 1 784 3 view .LVU724
 2775              		.loc 1 784 10 is_stmt 0 view .LVU725
 2776 00b6 0120     		movs	r0, #1
 2777 00b8 B7E7     		b	.L210
 2778              	.LVL184:
 2779              	.L220:
 2780              		.loc 1 784 10 view .LVU726
 2781              	.LBE263:
 2782              	.LBE262:
 2783              		.loc 1 743 3 is_stmt 1 discriminator 3 view .LVU727
 2784 00ba 0A48     		ldr	r0, .L223+16
 2785              	.LVL185:
 2786              		.loc 1 743 3 is_stmt 0 discriminator 3 view .LVU728
 2787 00bc FFF7FEFF 		bl	chSysHalt
 2788              	.LVL186:
 2789              		.loc 1 743 3 discriminator 3 view .LVU729
 2790 00c0 ACE7     		b	.L209
 2791              	.LVL187:
 2792              	.L212:
 2793              	.LBB269:
ARM GAS  /tmp/ccDzFi87.s 			page 50


 2794              	.LBB268:
 2795              	.LBB267:
 2796              	.LBB266:
 2797              		.loc 1 189 5 is_stmt 1 view .LVU730
 2798              		.loc 1 189 9 is_stmt 0 view .LVU731
 2799 00c2 1821     		movs	r1, #24
 2800 00c4 2046     		mov	r0, r4
 2801 00c6 FFF7FEFF 		bl	sdc_lld_send_cmd_short_crc
 2802              	.LVL188:
 2803              		.loc 1 189 8 view .LVU732
 2804 00ca 0028     		cmp	r0, #0
 2805 00cc DFD0     		beq	.L219
 2806 00ce EDE7     		b	.L215
 2807              	.LVL189:
 2808              	.L222:
 2809              		.loc 1 189 8 view .LVU733
 2810              	.LBE266:
 2811              	.LBE267:
 2812              	.LBE268:
 2813              	.LBE269:
 2814              		.loc 1 785 1 view .LVU734
 2815 00d0 FFF7FEFF 		bl	__stack_chk_fail
 2816              	.LVL190:
 2817              	.L224:
 2818              		.align	2
 2819              	.L223:
 2820 00d4 00000000 		.word	.LC17
 2821 00d8 808D5B00 		.word	6000000
 2822 00dc FF07C000 		.word	12584959
 2823 00e0 08E0FFFD 		.word	-33562616
 2824 00e4 00000000 		.word	.LANCHOR6
 2825              		.cfi_endproc
 2826              	.LFE276:
 2827              		.size	sdc_lld_write_aligned, .-sdc_lld_write_aligned
 2828              		.section	.rodata.sdc_lld_read.cst4,"aM",%progbits,4
 2829              		.align	2
 2830              	.LC18:
 2831 0000 00000000 		.word	__stack_chk_guard
 2832              		.section	.text.sdc_lld_read,"ax",%progbits
 2833              		.align	1
 2834              		.p2align 4,,15
 2835              		.global	sdc_lld_read
 2836              		.syntax unified
 2837              		.thumb
 2838              		.thumb_func
 2839              		.fpu fpv4-sp-d16
 2840              		.type	sdc_lld_read, %function
 2841              	sdc_lld_read:
 2842              	.LVL191:
 2843              	.LFB277:
 2844              		.loc 1 802 50 is_stmt 1 view -0
 2845              		.cfi_startproc
 2846              		@ args = 0, pretend = 0, frame = 8
 2847              		@ frame_needed = 0, uses_anonymous_args = 0
 2848              		.loc 1 802 50 is_stmt 0 view .LVU736
 2849 0000 2DE9F041 		push	{r4, r5, r6, r7, r8, lr}
 2850              		.cfi_def_cfa_offset 24
ARM GAS  /tmp/ccDzFi87.s 			page 51


 2851              		.cfi_offset 4, -24
 2852              		.cfi_offset 5, -20
 2853              		.cfi_offset 6, -16
 2854              		.cfi_offset 7, -12
 2855              		.cfi_offset 8, -8
 2856              		.cfi_offset 14, -4
 2857 0004 1D4C     		ldr	r4, .L237
 2858 0006 82B0     		sub	sp, sp, #8
 2859              		.cfi_def_cfa_offset 32
 2860              		.loc 1 802 50 view .LVU737
 2861 0008 2468     		ldr	r4, [r4]
 2862 000a 0194     		str	r4, [sp, #4]
 2863 000c 4FF00004 		mov	r4,#0
 2864              		.loc 1 805 3 is_stmt 1 view .LVU738
 2865              		.loc 1 805 6 is_stmt 0 view .LVU739
 2866 0010 9407     		lsls	r4, r2, #30
 2867 0012 27D0     		beq	.L226
 2868              	.LVL192:
 2869              	.LBB270:
 2870              		.loc 1 807 17 is_stmt 1 view .LVU740
 2871 0014 1F46     		mov	r7, r3
 2872              		.loc 1 807 5 is_stmt 0 view .LVU741
 2873 0016 1BB3     		cbz	r3, .L230
 2874 0018 1646     		mov	r6, r2
 2875 001a C1EBC152 		rsb	r2, r1, r1, lsl #23
 2876              	.LVL193:
 2877              		.loc 1 808 11 view .LVU742
 2878 001e 184D     		ldr	r5, .L237+4
 2879 0020 8046     		mov	r8, r0
 2880 0022 0C46     		mov	r4, r1
 2881 0024 0F44     		add	r7, r7, r1
 2882 0026 06EB4226 		add	r6, r6, r2, lsl #9
 2883              	.LVL194:
 2884              		.loc 1 808 11 view .LVU743
 2885 002a 09E0     		b	.L229
 2886              	.LVL195:
 2887              	.L236:
 2888              		.loc 1 810 7 is_stmt 1 discriminator 2 view .LVU744
 2889 002c 06EB4420 		add	r0, r6, r4, lsl #9
 2890 0030 4FF40072 		mov	r2, #512
 2891 0034 2946     		mov	r1, r5
 2892              		.loc 1 812 15 is_stmt 0 discriminator 2 view .LVU745
 2893 0036 0134     		adds	r4, r4, #1
 2894              	.LVL196:
 2895              		.loc 1 810 7 discriminator 2 view .LVU746
 2896 0038 FFF7FEFF 		bl	memcpy
 2897              	.LVL197:
 2898              		.loc 1 811 7 is_stmt 1 discriminator 2 view .LVU747
 2899              		.loc 1 812 7 discriminator 2 view .LVU748
 2900              		.loc 1 807 29 discriminator 2 view .LVU749
 2901              		.loc 1 807 17 discriminator 2 view .LVU750
 2902              		.loc 1 807 5 is_stmt 0 discriminator 2 view .LVU751
 2903 003c A742     		cmp	r7, r4
 2904 003e 0FD0     		beq	.L230
 2905              	.LVL198:
 2906              	.L229:
 2907              		.loc 1 808 7 is_stmt 1 view .LVU752
ARM GAS  /tmp/ccDzFi87.s 			page 52


 2908              		.loc 1 808 11 is_stmt 0 view .LVU753
 2909 0040 0123     		movs	r3, #1
 2910 0042 2A46     		mov	r2, r5
 2911 0044 2146     		mov	r1, r4
 2912 0046 4046     		mov	r0, r8
 2913 0048 FFF7FEFF 		bl	sdc_lld_read_aligned
 2914              	.LVL199:
 2915              		.loc 1 808 10 view .LVU754
 2916 004c 0028     		cmp	r0, #0
 2917 004e EDD0     		beq	.L236
 2918              	.LVL200:
 2919              	.L228:
 2920              		.loc 1 808 10 view .LVU755
 2921              	.LBE270:
 2922              		.loc 1 818 1 view .LVU756
 2923 0050 0A4B     		ldr	r3, .L237
 2924 0052 1A68     		ldr	r2, [r3]
 2925 0054 019B     		ldr	r3, [sp, #4]
 2926 0056 5A40     		eors	r2, r3, r2
 2927 0058 0ED1     		bne	.L235
 2928 005a 02B0     		add	sp, sp, #8
 2929              		.cfi_remember_state
 2930              		.cfi_def_cfa_offset 24
 2931              		@ sp needed
 2932 005c BDE8F081 		pop	{r4, r5, r6, r7, r8, pc}
 2933              	.L230:
 2934              		.cfi_restore_state
 2935              	.LBB271:
 2936              		.loc 1 814 12 view .LVU757
 2937 0060 0020     		movs	r0, #0
 2938 0062 F5E7     		b	.L228
 2939              	.LVL201:
 2940              	.L226:
 2941              		.loc 1 814 12 view .LVU758
 2942              	.LBE271:
 2943              		.loc 1 817 3 is_stmt 1 view .LVU759
 2944              		.loc 1 817 10 is_stmt 0 view .LVU760
 2945 0064 054C     		ldr	r4, .L237
 2946 0066 2568     		ldr	r5, [r4]
 2947 0068 019C     		ldr	r4, [sp, #4]
 2948 006a 6540     		eors	r5, r4, r5
 2949 006c 04D1     		bne	.L235
 2950              		.loc 1 818 1 view .LVU761
 2951 006e 02B0     		add	sp, sp, #8
 2952              		.cfi_remember_state
 2953              		.cfi_def_cfa_offset 24
 2954              		@ sp needed
 2955 0070 BDE8F041 		pop	{r4, r5, r6, r7, r8, lr}
 2956              		.cfi_restore 14
 2957              		.cfi_restore 8
 2958              		.cfi_restore 7
 2959              		.cfi_restore 6
 2960              		.cfi_restore 5
 2961              		.cfi_restore 4
 2962              		.cfi_def_cfa_offset 0
 2963              		.loc 1 817 10 view .LVU762
 2964 0074 FFF7FEBF 		b	sdc_lld_read_aligned
ARM GAS  /tmp/ccDzFi87.s 			page 53


 2965              	.LVL202:
 2966              	.L235:
 2967              		.cfi_restore_state
 2968              		.loc 1 818 1 view .LVU763
 2969 0078 FFF7FEFF 		bl	__stack_chk_fail
 2970              	.LVL203:
 2971              	.L238:
 2972              		.align	2
 2973              	.L237:
 2974 007c 00000000 		.word	.LC18
 2975 0080 00000000 		.word	.LANCHOR7
 2976              		.cfi_endproc
 2977              	.LFE277:
 2978              		.size	sdc_lld_read, .-sdc_lld_read
 2979              		.section	.rodata.sdc_lld_write.cst4,"aM",%progbits,4
 2980              		.align	2
 2981              	.LC19:
 2982 0000 00000000 		.word	__stack_chk_guard
 2983              		.section	.text.sdc_lld_write,"ax",%progbits
 2984              		.align	1
 2985              		.p2align 4,,15
 2986              		.global	sdc_lld_write
 2987              		.syntax unified
 2988              		.thumb
 2989              		.thumb_func
 2990              		.fpu fpv4-sp-d16
 2991              		.type	sdc_lld_write, %function
 2992              	sdc_lld_write:
 2993              	.LVL204:
 2994              	.LFB278:
 2995              		.loc 1 835 57 is_stmt 1 view -0
 2996              		.cfi_startproc
 2997              		@ args = 0, pretend = 0, frame = 8
 2998              		@ frame_needed = 0, uses_anonymous_args = 0
 2999              		.loc 1 835 57 is_stmt 0 view .LVU765
 3000 0000 2DE9F041 		push	{r4, r5, r6, r7, r8, lr}
 3001              		.cfi_def_cfa_offset 24
 3002              		.cfi_offset 4, -24
 3003              		.cfi_offset 5, -20
 3004              		.cfi_offset 6, -16
 3005              		.cfi_offset 7, -12
 3006              		.cfi_offset 8, -8
 3007              		.cfi_offset 14, -4
 3008 0004 1D4C     		ldr	r4, .L251
 3009 0006 82B0     		sub	sp, sp, #8
 3010              		.cfi_def_cfa_offset 32
 3011              		.loc 1 835 57 view .LVU766
 3012 0008 2468     		ldr	r4, [r4]
 3013 000a 0194     		str	r4, [sp, #4]
 3014 000c 4FF00004 		mov	r4,#0
 3015              		.loc 1 838 3 is_stmt 1 view .LVU767
 3016              		.loc 1 838 6 is_stmt 0 view .LVU768
 3017 0010 9407     		lsls	r4, r2, #30
 3018 0012 27D0     		beq	.L240
 3019              	.LVL205:
 3020              	.LBB272:
 3021              		.loc 1 840 17 is_stmt 1 view .LVU769
ARM GAS  /tmp/ccDzFi87.s 			page 54


 3022 0014 1F46     		mov	r7, r3
 3023              		.loc 1 840 5 is_stmt 0 view .LVU770
 3024 0016 1BB3     		cbz	r3, .L244
 3025 0018 1646     		mov	r6, r2
 3026 001a C1EBC152 		rsb	r2, r1, r1, lsl #23
 3027              	.LVL206:
 3028              		.loc 1 841 7 view .LVU771
 3029 001e 184D     		ldr	r5, .L251+4
 3030 0020 8046     		mov	r8, r0
 3031 0022 0C46     		mov	r4, r1
 3032 0024 0F44     		add	r7, r7, r1
 3033 0026 06EB4226 		add	r6, r6, r2, lsl #9
 3034              	.LVL207:
 3035              		.loc 1 841 7 view .LVU772
 3036 002a 02E0     		b	.L243
 3037              	.LVL208:
 3038              	.L250:
 3039              		.loc 1 845 7 is_stmt 1 discriminator 2 view .LVU773
 3040              		.loc 1 845 15 is_stmt 0 discriminator 2 view .LVU774
 3041 002c 0134     		adds	r4, r4, #1
 3042              	.LVL209:
 3043              		.loc 1 840 29 is_stmt 1 discriminator 2 view .LVU775
 3044              		.loc 1 840 17 discriminator 2 view .LVU776
 3045              		.loc 1 840 5 is_stmt 0 discriminator 2 view .LVU777
 3046 002e A742     		cmp	r7, r4
 3047 0030 16D0     		beq	.L244
 3048              	.LVL210:
 3049              	.L243:
 3050              		.loc 1 841 7 is_stmt 1 view .LVU778
 3051 0032 4FF40072 		mov	r2, #512
 3052 0036 06EB4421 		add	r1, r6, r4, lsl #9
 3053 003a 2846     		mov	r0, r5
 3054 003c FFF7FEFF 		bl	memcpy
 3055              	.LVL211:
 3056              		.loc 1 842 7 view .LVU779
 3057              		.loc 1 843 7 view .LVU780
 3058              		.loc 1 843 11 is_stmt 0 view .LVU781
 3059 0040 0123     		movs	r3, #1
 3060 0042 2A46     		mov	r2, r5
 3061 0044 2146     		mov	r1, r4
 3062 0046 4046     		mov	r0, r8
 3063 0048 FFF7FEFF 		bl	sdc_lld_write_aligned
 3064              	.LVL212:
 3065              		.loc 1 843 10 view .LVU782
 3066 004c 0028     		cmp	r0, #0
 3067 004e EDD0     		beq	.L250
 3068              	.LVL213:
 3069              	.L242:
 3070              		.loc 1 843 10 view .LVU783
 3071              	.LBE272:
 3072              		.loc 1 851 1 view .LVU784
 3073 0050 0A4B     		ldr	r3, .L251
 3074 0052 1A68     		ldr	r2, [r3]
 3075 0054 019B     		ldr	r3, [sp, #4]
 3076 0056 5A40     		eors	r2, r3, r2
 3077 0058 0ED1     		bne	.L249
 3078 005a 02B0     		add	sp, sp, #8
ARM GAS  /tmp/ccDzFi87.s 			page 55


 3079              		.cfi_remember_state
 3080              		.cfi_def_cfa_offset 24
 3081              		@ sp needed
 3082 005c BDE8F081 		pop	{r4, r5, r6, r7, r8, pc}
 3083              	.L244:
 3084              		.cfi_restore_state
 3085              	.LBB273:
 3086              		.loc 1 847 12 view .LVU785
 3087 0060 0020     		movs	r0, #0
 3088 0062 F5E7     		b	.L242
 3089              	.LVL214:
 3090              	.L240:
 3091              		.loc 1 847 12 view .LVU786
 3092              	.LBE273:
 3093              		.loc 1 850 3 is_stmt 1 view .LVU787
 3094              		.loc 1 850 10 is_stmt 0 view .LVU788
 3095 0064 054C     		ldr	r4, .L251
 3096 0066 2568     		ldr	r5, [r4]
 3097 0068 019C     		ldr	r4, [sp, #4]
 3098 006a 6540     		eors	r5, r4, r5
 3099 006c 04D1     		bne	.L249
 3100              		.loc 1 851 1 view .LVU789
 3101 006e 02B0     		add	sp, sp, #8
 3102              		.cfi_remember_state
 3103              		.cfi_def_cfa_offset 24
 3104              		@ sp needed
 3105 0070 BDE8F041 		pop	{r4, r5, r6, r7, r8, lr}
 3106              		.cfi_restore 14
 3107              		.cfi_restore 8
 3108              		.cfi_restore 7
 3109              		.cfi_restore 6
 3110              		.cfi_restore 5
 3111              		.cfi_restore 4
 3112              		.cfi_def_cfa_offset 0
 3113              		.loc 1 850 10 view .LVU790
 3114 0074 FFF7FEBF 		b	sdc_lld_write_aligned
 3115              	.LVL215:
 3116              	.L249:
 3117              		.cfi_restore_state
 3118              		.loc 1 851 1 view .LVU791
 3119 0078 FFF7FEFF 		bl	__stack_chk_fail
 3120              	.LVL216:
 3121              	.L252:
 3122              		.align	2
 3123              	.L251:
 3124 007c 00000000 		.word	.LC19
 3125 0080 00000000 		.word	.LANCHOR7
 3126              		.cfi_endproc
 3127              	.LFE278:
 3128              		.size	sdc_lld_write, .-sdc_lld_write
 3129              		.section	.rodata.sdc_lld_sync.cst4,"aM",%progbits,4
 3130              		.align	2
 3131              	.LC20:
 3132 0000 00000000 		.word	__stack_chk_guard
 3133              		.section	.text.sdc_lld_sync,"ax",%progbits
 3134              		.align	1
 3135              		.p2align 4,,15
ARM GAS  /tmp/ccDzFi87.s 			page 56


 3136              		.global	sdc_lld_sync
 3137              		.syntax unified
 3138              		.thumb
 3139              		.thumb_func
 3140              		.fpu fpv4-sp-d16
 3141              		.type	sdc_lld_sync, %function
 3142              	sdc_lld_sync:
 3143              	.LVL217:
 3144              	.LFB279:
 3145              		.loc 1 864 36 is_stmt 1 view -0
 3146              		.cfi_startproc
 3147              		@ args = 0, pretend = 0, frame = 8
 3148              		@ frame_needed = 0, uses_anonymous_args = 0
 3149              		.loc 1 864 36 is_stmt 0 view .LVU793
 3150 0000 00B5     		push	{lr}
 3151              		.cfi_def_cfa_offset 4
 3152              		.cfi_offset 14, -4
 3153 0002 084B     		ldr	r3, .L257
 3154 0004 83B0     		sub	sp, sp, #12
 3155              		.cfi_def_cfa_offset 16
 3156              		.loc 1 864 36 view .LVU794
 3157 0006 1B68     		ldr	r3, [r3]
 3158 0008 0193     		str	r3, [sp, #4]
 3159 000a 4FF00003 		mov	r3,#0
 3160              		.loc 1 867 3 is_stmt 1 view .LVU795
 3161              		.loc 1 868 3 view .LVU796
 3162              		.loc 1 869 1 is_stmt 0 view .LVU797
 3163 000e 054B     		ldr	r3, .L257
 3164 0010 1A68     		ldr	r2, [r3]
 3165 0012 019B     		ldr	r3, [sp, #4]
 3166 0014 5A40     		eors	r2, r3, r2
 3167 0016 03D1     		bne	.L256
 3168 0018 0020     		movs	r0, #0
 3169              	.LVL218:
 3170              		.loc 1 869 1 view .LVU798
 3171 001a 03B0     		add	sp, sp, #12
 3172              		.cfi_remember_state
 3173              		.cfi_def_cfa_offset 4
 3174              		@ sp needed
 3175 001c 5DF804FB 		ldr	pc, [sp], #4
 3176              	.LVL219:
 3177              	.L256:
 3178              		.cfi_restore_state
 3179              		.loc 1 869 1 view .LVU799
 3180 0020 FFF7FEFF 		bl	__stack_chk_fail
 3181              	.LVL220:
 3182              	.L258:
 3183              		.loc 1 869 1 view .LVU800
 3184              		.align	2
 3185              	.L257:
 3186 0024 00000000 		.word	.LC20
 3187              		.cfi_endproc
 3188              	.LFE279:
 3189              		.size	sdc_lld_sync, .-sdc_lld_sync
 3190              		.global	SDCD1
 3191              		.section	.bss.SDCD1,"aw",%nobits
 3192              		.align	2
ARM GAS  /tmp/ccDzFi87.s 			page 57


 3193              		.set	.LANCHOR0,. + 0
 3194              		.type	SDCD1, %object
 3195              		.size	SDCD1, 76
 3196              	SDCD1:
 3197 0000 00000000 		.space	76
 3197      00000000 
 3197      00000000 
 3197      00000000 
 3197      00000000 
 3198              		.section	.bss.u,"aw",%nobits
 3199              		.align	2
 3200              		.set	.LANCHOR7,. + 0
 3201              		.type	u, %object
 3202              		.size	u, 512
 3203              	u:
 3204 0000 00000000 		.space	512
 3204      00000000 
 3204      00000000 
 3204      00000000 
 3204      00000000 
 3205              		.section	.rodata.__func__.10359,"a"
 3206              		.align	2
 3207              		.set	.LANCHOR4,. + 0
 3208              		.type	__func__.10359, %object
 3209              		.size	__func__.10359, 27
 3210              	__func__.10359:
 3211 0000 7364635F 		.ascii	"sdc_lld_prepare_read_bytes\000"
 3211      6C6C645F 
 3211      70726570 
 3211      6172655F 
 3211      72656164 
 3212              		.section	.rodata.__func__.10404,"a"
 3213              		.align	2
 3214              		.set	.LANCHOR2,. + 0
 3215              		.type	__func__.10404, %object
 3216              		.size	__func__.10404, 14
 3217              	__func__.10404:
 3218 0000 7364635F 		.ascii	"sdc_lld_start\000"
 3218      6C6C645F 
 3218      73746172 
 3218      7400
 3219              		.section	.rodata.__func__.10481,"a"
 3220              		.align	2
 3221              		.set	.LANCHOR5,. + 0
 3222              		.type	__func__.10481, %object
 3223              		.size	__func__.10481, 21
 3224              	__func__.10481:
 3225 0000 7364635F 		.ascii	"sdc_lld_read_aligned\000"
 3225      6C6C645F 
 3225      72656164 
 3225      5F616C69 
 3225      676E6564 
 3226              		.section	.rodata.__func__.10490,"a"
 3227              		.align	2
 3228              		.set	.LANCHOR6,. + 0
 3229              		.type	__func__.10490, %object
 3230              		.size	__func__.10490, 22
ARM GAS  /tmp/ccDzFi87.s 			page 58


 3231              	__func__.10490:
 3232 0000 7364635F 		.ascii	"sdc_lld_write_aligned\000"
 3232      6C6C645F 
 3232      77726974 
 3232      655F616C 
 3232      69676E65 
 3233              		.section	.rodata.__func__.7663,"a"
 3234              		.align	2
 3235              		.set	.LANCHOR3,. + 0
 3236              		.type	__func__.7663, %object
 3237              		.size	__func__.7663, 12
 3238              	__func__.7663:
 3239 0000 63685379 		.ascii	"chSysUnlock\000"
 3239      73556E6C 
 3239      6F636B00 
 3240              		.section	.rodata.sdc_default_cfg,"a"
 3241              		.align	2
 3242              		.set	.LANCHOR1,. + 0
 3243              		.type	sdc_default_cfg, %object
 3244              		.size	sdc_default_cfg, 8
 3245              	sdc_default_cfg:
 3246 0000 00000000 		.word	0
 3247 0004 01       		.byte	1
 3248 0005 000000   		.space	3
 3249              		.text
 3250              	.Letext0:
 3251              		.file 6 "/usr/lib/gcc/arm-none-eabi/9.2.1/include/stddef.h"
 3252              		.file 7 "/usr/include/newlib/sys/_types.h"
 3253              		.file 8 "/usr/include/newlib/sys/reent.h"
 3254              		.file 9 "/usr/include/newlib/sys/lock.h"
 3255              		.file 10 "/usr/lib/gcc/arm-none-eabi/9.2.1/include/stdint.h"
 3256              		.file 11 ".//ChibiOS//os/rt/ports/ARMCMx/compilers/GCC/chtypes.h"
 3257              		.file 12 ".//ChibiOS//os/rt/include/chsystypes.h"
 3258              		.file 13 ".//ChibiOS//os/rt/include/chschd.h"
 3259              		.file 14 ".//ChibiOS//os/ext/CMSIS/include/core_cm4.h"
 3260              		.file 15 ".//ChibiOS//os/ext/CMSIS/ST/system_stm32f4xx.h"
 3261              		.file 16 ".//ChibiOS//os/ext/CMSIS/ST/stm32f407xx.h"
 3262              		.file 17 ".//ChibiOS//os/rt/ports/ARMCMx/chcore.h"
 3263              		.file 18 ".//ChibiOS//os/rt/include/chdebug.h"
 3264              		.file 19 ".//ChibiOS//os/rt/include/chtm.h"
 3265              		.file 20 ".//ChibiOS//os/rt/include/chstats.h"
 3266              		.file 21 ".//ChibiOS//os/rt/include/chsem.h"
 3267              		.file 22 ".//ChibiOS//os/rt/include/chmtx.h"
 3268              		.file 23 ".//ChibiOS//os/rt/include/chregistry.h"
 3269              		.file 24 ".//ChibiOS//os/rt/include/chevents.h"
 3270              		.file 25 ".//ChibiOS//os/rt/include/chqueues.h"
 3271              		.file 26 ".//ChibiOS//os/hal/ports/STM32/STM32F4xx/stm32_dma.h"
 3272              		.file 27 ".//ChibiOS//os/hal/include/hal_ioblock.h"
 3273              		.file 28 ".//ChibiOS//os/hal/ports/STM32/LLD/GPIOv2/pal_lld.h"
 3274              		.file 29 ".//ChibiOS//os/hal/include/adc.h"
 3275              		.file 30 ".//ChibiOS//os/hal/ports/STM32/STM32F4xx/adc_lld.h"
 3276              		.file 31 ".//ChibiOS//os/hal/include/can.h"
 3277              		.file 32 ".//ChibiOS//os/hal/ports/STM32/LLD/can_lld.h"
 3278              		.file 33 ".//ChibiOS//os/hal/include/dac.h"
 3279              		.file 34 ".//ChibiOS//os/hal/ports/STM32/LLD/DACv1/dac_lld.h"
 3280              		.file 35 ".//ChibiOS//os/hal/include/ext.h"
 3281              		.file 36 ".//ChibiOS//os/hal/ports/STM32/LLD/ext_lld.h"
ARM GAS  /tmp/ccDzFi87.s 			page 59


 3282              		.file 37 ".//ChibiOS//os/hal/include/gpt.h"
 3283              		.file 38 ".//ChibiOS//os/hal/ports/STM32/LLD/TIMv1/gpt_lld.h"
 3284              		.file 39 ".//ChibiOS//os/hal/ports/STM32/LLD/TIMv1/stm32_tim.h"
 3285              		.file 40 ".//ChibiOS//os/hal/include/i2c.h"
 3286              		.file 41 ".//ChibiOS//os/hal/ports/STM32/LLD/I2Cv1/i2c_lld.h"
 3287              		.file 42 ".//ChibiOS//os/hal/include/i2s.h"
 3288              		.file 43 ".//ChibiOS//os/hal/ports/STM32/LLD/SPIv1/i2s_lld.h"
 3289              		.file 44 ".//ChibiOS//os/hal/include/pwm.h"
 3290              		.file 45 ".//ChibiOS//os/hal/ports/STM32/LLD/TIMv1/pwm_lld.h"
 3291              		.file 46 ".//ChibiOS//os/hal/include/serial.h"
 3292              		.file 47 ".//ChibiOS//os/hal/ports/STM32/LLD/USARTv1/serial_lld.h"
 3293              		.file 48 ".//ChibiOS//os/hal/include/sdc.h"
 3294              		.file 49 ".//ChibiOS//os/hal/ports/STM32/LLD/sdc_lld.h"
 3295              		.file 50 ".//ChibiOS//os/hal/include/spi.h"
 3296              		.file 51 ".//ChibiOS//os/hal/ports/STM32/LLD/SPIv1/spi_lld.h"
 3297              		.file 52 ".//ChibiOS//os/hal/include/usb.h"
 3298              		.file 53 ".//ChibiOS//os/hal/ports/STM32/LLD/OTGv1/usb_lld.h"
 3299              		.file 54 ".//ChibiOS//os/hal/ports/STM32/LLD/OTGv1/stm32_otg.h"
 3300              		.file 55 ".//ChibiOS//os/rt/include/chthreads.h"
 3301              		.file 56 ".//ChibiOS//os/hal/ports/common/ARMCMx/nvic.h"
 3302              		.file 57 "<built-in>"