ARM GAS  /tmp/ccDzFi87.s 			page 1


   1              		.cpu cortex-m4
   2              		.eabi_attribute 27, 1
   3              		.eabi_attribute 28, 1
   4              		.eabi_attribute 20, 1
   5              		.eabi_attribute 21, 1
   6              		.eabi_attribute 23, 3
   7              		.eabi_attribute 24, 1
   8              		.eabi_attribute 25, 1
   9              		.eabi_attribute 26, 1
  10              		.eabi_attribute 30, 2
  11              		.eabi_attribute 34, 1
  12              		.eabi_attribute 18, 4
  13              		.file	"sdc_lld.c"
  14              		.text
  15              	.Ltext0:
  16              		.cfi_sections	.debug_frame
  17              		.section	.rodata.sdc_lld_collect_errors.isra.0.cst4,"aM",%progbits,4
  18              		.align	2
  19              	.LC0:
  20 0000 00000000 		.word	__stack_chk_guard
  21              		.section	.text.sdc_lld_collect_errors.isra.0,"ax",%progbits
  22              		.align	1
  23              		.p2align 4,,15
  24              		.arch armv7e-m
  25              		.syntax unified
  26              		.thumb
  27              		.thumb_func
  28              		.fpu fpv4-sp-d16
  29              		.type	sdc_lld_collect_errors.isra.0, %function
  30              	sdc_lld_collect_errors.isra.0:
  31              	.LVL0:
  32              	.LFB280:
  33              		.file 1 ".//ChibiOS//os/hal/ports/STM32/LLD/sdc_lld.c"
  34              		.loc 1 261 13 view -0
  35              		.cfi_startproc
  36              		@ args = 0, pretend = 0, frame = 8
  37              		@ frame_needed = 0, uses_anonymous_args = 0
  38              		.loc 1 261 13 is_stmt 0 view .LVU1
  39 0000 00B5     		push	{lr}
  40              		.cfi_def_cfa_offset 4
  41              		.cfi_offset 14, -4
  42 0002 164B     		ldr	r3, .L30
  43 0004 83B0     		sub	sp, sp, #12
  44              		.cfi_def_cfa_offset 16
  45              		.loc 1 261 13 view .LVU2
  46 0006 1B68     		ldr	r3, [r3]
  47 0008 0193     		str	r3, [sp, #4]
  48 000a 4FF00003 		mov	r3,#0
  49              		.loc 1 262 3 is_stmt 1 view .LVU3
  50              	.LVL1:
  51              		.loc 1 264 3 view .LVU4
  52              		.loc 1 266 6 is_stmt 0 view .LVU5
  53 000e 8A07     		lsls	r2, r1, #30
  54              		.loc 1 264 11 view .LVU6
  55 0010 01F00103 		and	r3, r1, #1
  56              	.LVL2:
  57              		.loc 1 266 3 is_stmt 1 view .LVU7
ARM GAS  /tmp/ccDzFi87.s 			page 2


  58              		.loc 1 267 5 view .LVU8
  59              		.loc 1 267 12 is_stmt 0 view .LVU9
  60 0014 48BF     		it	mi
  61 0016 43F00203 		orrmi	r3, r3, #2
  62              	.LVL3:
  63              		.loc 1 268 3 is_stmt 1 view .LVU10
  64              		.loc 1 268 6 is_stmt 0 view .LVU11
  65 001a 4A07     		lsls	r2, r1, #29
  66              		.loc 1 269 5 is_stmt 1 view .LVU12
  67              		.loc 1 269 12 is_stmt 0 view .LVU13
  68 001c 48BF     		it	mi
  69 001e 43F00803 		orrmi	r3, r3, #8
  70              	.LVL4:
  71              		.loc 1 270 3 is_stmt 1 view .LVU14
  72              		.loc 1 270 6 is_stmt 0 view .LVU15
  73 0022 0A07     		lsls	r2, r1, #28
  74              		.loc 1 271 5 is_stmt 1 view .LVU16
  75              		.loc 1 271 12 is_stmt 0 view .LVU17
  76 0024 48BF     		it	mi
  77 0026 43F00403 		orrmi	r3, r3, #4
  78              	.LVL5:
  79              		.loc 1 272 3 is_stmt 1 view .LVU18
  80              		.loc 1 272 6 is_stmt 0 view .LVU19
  81 002a CA06     		lsls	r2, r1, #27
  82              		.loc 1 273 5 is_stmt 1 view .LVU20
  83              		.loc 1 273 12 is_stmt 0 view .LVU21
  84 002c 48BF     		it	mi
  85 002e 43F01003 		orrmi	r3, r3, #16
  86              	.LVL6:
  87              		.loc 1 274 3 is_stmt 1 view .LVU22
  88              		.loc 1 274 6 is_stmt 0 view .LVU23
  89 0032 8A06     		lsls	r2, r1, #26
  90              		.loc 1 275 5 is_stmt 1 view .LVU24
  91              		.loc 1 275 12 is_stmt 0 view .LVU25
  92 0034 48BF     		it	mi
  93 0036 43F02003 		orrmi	r3, r3, #32
  94              	.LVL7:
  95              		.loc 1 276 3 is_stmt 1 view .LVU26
  96              		.loc 1 276 6 is_stmt 0 view .LVU27
  97 003a 8A05     		lsls	r2, r1, #22
  98              		.loc 1 277 5 is_stmt 1 view .LVU28
  99              		.loc 1 279 16 is_stmt 0 view .LVU29
 100 003c 0268     		ldr	r2, [r0]
 101              		.loc 1 277 12 view .LVU30
 102 003e 48BF     		it	mi
 103 0040 43F04003 		orrmi	r3, r3, #64
 104              	.LVL8:
 105              		.loc 1 279 3 is_stmt 1 view .LVU31
 106              		.loc 1 279 16 is_stmt 0 view .LVU32
 107 0044 1343     		orrs	r3, r3, r2
 108              	.LVL9:
 109              		.loc 1 279 16 view .LVU33
 110 0046 0360     		str	r3, [r0]
 111              		.loc 1 280 1 view .LVU34
 112 0048 044B     		ldr	r3, .L30
 113 004a 1A68     		ldr	r2, [r3]
 114 004c 019B     		ldr	r3, [sp, #4]
ARM GAS  /tmp/ccDzFi87.s 			page 3


 115 004e 5A40     		eors	r2, r3, r2
 116              	.LVL10:
 117              		.loc 1 280 1 view .LVU35
 118 0050 02D1     		bne	.L29
 119 0052 03B0     		add	sp, sp, #12
 120              		.cfi_remember_state
 121              		.cfi_def_cfa_offset 4
 122              		@ sp needed
 123 0054 5DF804FB 		ldr	pc, [sp], #4
 124              	.L29:
 125              		.cfi_restore_state
 126 0058 FFF7FEFF 		bl	__stack_chk_fail
 127              	.LVL11:
 128              	.L31:
 129              		.loc 1 280 1 view .LVU36
 130              		.align	2
 131              	.L30:
 132 005c 00000000 		.word	.LC0
 133              		.cfi_endproc
 134              	.LFE280:
 135              		.size	sdc_lld_collect_errors.isra.0, .-sdc_lld_collect_errors.isra.0
 136              		.section	.rodata.Vector104.cst4,"aM",%progbits,4
 137              		.align	2
 138              	.LC1:
 139 0000 00000000 		.word	__stack_chk_guard
 140              		.section	.text.Vector104,"ax",%progbits
 141              		.align	1
 142              		.p2align 4,,15
 143              		.global	Vector104
 144              		.syntax unified
 145              		.thumb
 146              		.thumb_func
 147              		.fpu fpv4-sp-d16
 148              		.type	Vector104, %function
 149              	Vector104:
 150              	.LFB262:
 151              		.loc 1 320 38 is_stmt 1 view -0
 152              		.cfi_startproc
 153              		@ args = 0, pretend = 0, frame = 8
 154              		@ frame_needed = 0, uses_anonymous_args = 0
 155 0000 10B5     		push	{r4, lr}
 156              		.cfi_def_cfa_offset 8
 157              		.cfi_offset 4, -8
 158              		.cfi_offset 14, -4
 159 0002 164B     		ldr	r3, .L37
 160 0004 82B0     		sub	sp, sp, #8
 161              		.cfi_def_cfa_offset 16
 162              		.loc 1 320 38 is_stmt 0 view .LVU38
 163 0006 1B68     		ldr	r3, [r3]
 164 0008 0193     		str	r3, [sp, #4]
 165 000a 4FF00003 		mov	r3,#0
 166              		.loc 1 322 3 is_stmt 1 view .LVU39
 167              		.loc 1 322 3 view .LVU40
 168 000e FFF7FEFF 		bl	_stats_increase_irq
 169              	.LVL12:
 170              		.loc 1 322 3 view .LVU41
 171 0012 FFF7FEFF 		bl	_dbg_check_enter_isr
ARM GAS  /tmp/ccDzFi87.s 			page 4


 172              	.LVL13:
 173              		.loc 1 324 3 view .LVU42
 174              	.LBB94:
 175              	.LBI94:
 176              		.file 2 ".//ChibiOS//os/hal/osal/rt/osal.h"
 177              		.loc 2 467 20 view .LVU43
 178              	.LBE94:
 179              		.loc 2 469 3 view .LVU44
 180              	.LBB108:
 181              	.LBB95:
 182              	.LBI95:
 183              		.file 3 ".//ChibiOS//os/rt/include/chsys.h"
 184              		.loc 3 386 20 view .LVU45
 185              	.LBB96:
 186              		.loc 3 388 3 view .LVU46
 187              	.LBB97:
 188              	.LBI97:
 189              		.file 4 ".//ChibiOS//os/rt/ports/ARMCMx/chcore_v7m.h"
 190              		.loc 4 473 20 view .LVU47
 191              	.LBE97:
 192              	.LBE96:
 193              	.LBE95:
 194              	.LBE108:
 195              		.loc 4 475 3 view .LVU48
 196              	.LBB109:
 197              	.LBB106:
 198              	.LBB104:
 199              	.LBB102:
 200              	.LBB98:
 201              	.LBI98:
 202              		.loc 4 444 20 view .LVU49
 203              	.LBE98:
 204              	.LBE102:
 205              	.LBE104:
 206              	.LBE106:
 207              	.LBE109:
 208              		.loc 4 447 3 view .LVU50
 209              	.LBB110:
 210              	.LBB107:
 211              	.LBB105:
 212              	.LBB103:
 213              	.LBB101:
 214              	.LBB99:
 215              	.LBI99:
 216              		.file 5 ".//ChibiOS//os/ext/CMSIS/include/core_cmFunc.h"
 217              		.loc 5 544 57 view .LVU51
 218              	.LBB100:
 219              		.loc 5 546 3 view .LVU52
 220 0016 2023     		movs	r3, #32
 221              		.syntax unified
 222              	@ 546 ".//ChibiOS//os/ext/CMSIS/include/core_cmFunc.h" 1
 223 0018 83F31188 		MSR basepri, r3
 224              	@ 0 "" 2
 225              	.LVL14:
 226              		.loc 5 546 3 is_stmt 0 view .LVU53
 227              		.thumb
 228              		.syntax unified
ARM GAS  /tmp/ccDzFi87.s 			page 5


 229              	.LBE100:
 230              	.LBE99:
 231              	.LBE101:
 232              	.LBE103:
 233              		.loc 3 389 3 is_stmt 1 view .LVU54
 234 001c FFF7FEFF 		bl	_stats_start_measure_crit_isr
 235              	.LVL15:
 236              		.loc 3 390 3 view .LVU55
 237 0020 FFF7FEFF 		bl	_dbg_check_lock_from_isr
 238              	.LVL16:
 239              	.LBE105:
 240              	.LBE107:
 241              	.LBE110:
 242              		.loc 1 328 3 view .LVU56
 243              		.loc 1 328 14 is_stmt 0 view .LVU57
 244 0024 0E4B     		ldr	r3, .L37+4
 245              	.LBB111:
 246              	.LBB112:
 247              		.loc 2 682 3 view .LVU58
 248 0026 0F48     		ldr	r0, .L37+8
 249              	.LBE112:
 250              	.LBE111:
 251              		.loc 1 328 14 view .LVU59
 252 0028 0024     		movs	r4, #0
 253 002a DC63     		str	r4, [r3, #60]
 254              		.loc 1 330 3 is_stmt 1 view .LVU60
 255              	.LVL17:
 256              	.LBB114:
 257              	.LBI111:
 258              		.loc 2 680 20 view .LVU61
 259              	.LBB113:
 260              		.loc 2 682 3 view .LVU62
 261 002c 2146     		mov	r1, r4
 262 002e FFF7FEFF 		bl	chThdResumeI
 263              	.LVL18:
 264              		.loc 2 682 3 is_stmt 0 view .LVU63
 265              	.LBE113:
 266              	.LBE114:
 267              		.loc 1 332 3 is_stmt 1 view .LVU64
 268              	.LBB115:
 269              	.LBI115:
 270              		.loc 2 478 20 view .LVU65
 271              	.LBE115:
 272              		.loc 2 480 3 view .LVU66
 273              	.LBB129:
 274              	.LBB116:
 275              	.LBI116:
 276              		.loc 3 406 20 view .LVU67
 277              	.LBB117:
 278              		.loc 3 408 3 view .LVU68
 279 0032 FFF7FEFF 		bl	_dbg_check_unlock_from_isr
 280              	.LVL19:
 281              		.loc 3 409 3 view .LVU69
 282 0036 FFF7FEFF 		bl	_stats_stop_measure_crit_isr
 283              	.LVL20:
 284              		.loc 3 410 3 view .LVU70
 285              	.LBB118:
ARM GAS  /tmp/ccDzFi87.s 			page 6


 286              	.LBI118:
 287              		.loc 4 484 20 view .LVU71
 288              	.LBE118:
 289              	.LBE117:
 290              	.LBE116:
 291              	.LBE129:
 292              		.loc 4 486 3 view .LVU72
 293              	.LBB130:
 294              	.LBB127:
 295              	.LBB125:
 296              	.LBB123:
 297              	.LBB119:
 298              	.LBI119:
 299              		.loc 4 458 20 view .LVU73
 300              	.LBE119:
 301              	.LBE123:
 302              	.LBE125:
 303              	.LBE127:
 304              	.LBE130:
 305              		.loc 4 461 3 view .LVU74
 306              	.LBB131:
 307              	.LBB128:
 308              	.LBB126:
 309              	.LBB124:
 310              	.LBB122:
 311              	.LBB120:
 312              	.LBI120:
 313              		.loc 5 544 57 view .LVU75
 314              	.LBB121:
 315              		.loc 5 546 3 view .LVU76
 316              		.syntax unified
 317              	@ 546 ".//ChibiOS//os/ext/CMSIS/include/core_cmFunc.h" 1
 318 003a 84F31188 		MSR basepri, r4
 319              	@ 0 "" 2
 320              	.LVL21:
 321              		.loc 5 546 3 is_stmt 0 view .LVU77
 322              		.thumb
 323              		.syntax unified
 324              	.LBE121:
 325              	.LBE120:
 326              	.LBE122:
 327              	.LBE124:
 328              	.LBE126:
 329              	.LBE128:
 330              	.LBE131:
 331              		.loc 1 334 3 is_stmt 1 view .LVU78
 332 003e FFF7FEFF 		bl	_dbg_check_leave_isr
 333              	.LVL22:
 334              		.loc 1 334 3 view .LVU79
 335 0042 064B     		ldr	r3, .L37
 336 0044 1A68     		ldr	r2, [r3]
 337 0046 019B     		ldr	r3, [sp, #4]
 338 0048 5A40     		eors	r2, r3, r2
 339 004a 04D1     		bne	.L36
 340              		.loc 1 335 1 is_stmt 0 view .LVU80
 341 004c 02B0     		add	sp, sp, #8
 342              		.cfi_remember_state
ARM GAS  /tmp/ccDzFi87.s 			page 7


 343              		.cfi_def_cfa_offset 8
 344              		@ sp needed
 345 004e BDE81040 		pop	{r4, lr}
 346              		.cfi_restore 14
 347              		.cfi_restore 4
 348              		.cfi_def_cfa_offset 0
 349              		.loc 1 334 3 view .LVU81
 350 0052 FFF7FEBF 		b	_port_irq_epilogue
 351              	.LVL23:
 352              	.L36:
 353              		.cfi_restore_state
 354 0056 FFF7FEFF 		bl	__stack_chk_fail
 355              	.LVL24:
 356              	.L38:
 357 005a 00BF     		.align	2
 358              	.L37:
 359 005c 00000000 		.word	.LC1
 360 0060 002C0140 		.word	1073818624
 361 0064 3C000000 		.word	.LANCHOR0+60
 362              		.cfi_endproc
 363              	.LFE262:
 364              		.size	Vector104, .-Vector104
 365              		.section	.rodata.sdc_lld_init.cst4,"aM",%progbits,4
 366              		.align	2
 367              	.LC2:
 368 0000 00000000 		.word	__stack_chk_guard
 369              		.section	.text.sdc_lld_init,"ax",%progbits
 370              		.align	1
 371              		.p2align 4,,15
 372              		.global	sdc_lld_init
 373              		.syntax unified
 374              		.thumb
 375              		.thumb_func
 376              		.fpu fpv4-sp-d16
 377              		.type	sdc_lld_init, %function
 378              	sdc_lld_init:
 379              	.LFB263:
 380              		.loc 1 346 25 is_stmt 1 view -0
 381              		.cfi_startproc
 382              		@ args = 0, pretend = 0, frame = 8
 383              		@ frame_needed = 0, uses_anonymous_args = 0
 384 0000 10B5     		push	{r4, lr}
 385              		.cfi_def_cfa_offset 8
 386              		.cfi_offset 4, -8
 387              		.cfi_offset 14, -4
 388              		.loc 1 348 3 is_stmt 0 view .LVU83
 389 0002 0C4C     		ldr	r4, .L43
 390              		.loc 1 346 25 view .LVU84
 391 0004 0C4B     		ldr	r3, .L43+4
 392 0006 82B0     		sub	sp, sp, #8
 393              		.cfi_def_cfa_offset 16
 394              		.loc 1 348 3 view .LVU85
 395 0008 2046     		mov	r0, r4
 396              		.loc 1 346 25 view .LVU86
 397 000a 1B68     		ldr	r3, [r3]
 398 000c 0193     		str	r3, [sp, #4]
 399 000e 4FF00003 		mov	r3,#0
ARM GAS  /tmp/ccDzFi87.s 			page 8


 400              		.loc 1 348 3 is_stmt 1 view .LVU87
 401 0012 FFF7FEFF 		bl	sdcObjectInit
 402              	.LVL25:
 403              		.loc 1 349 3 view .LVU88
 404              		.loc 1 350 16 is_stmt 0 view .LVU89
 405 0016 094A     		ldr	r2, .L43+8
 406              		.loc 1 351 16 view .LVU90
 407 0018 094B     		ldr	r3, .L43+12
 408 001a C4E91123 		strd	r2, r3, [r4, #68]
 409              		.loc 1 349 16 view .LVU91
 410 001e 0021     		movs	r1, #0
 411              		.loc 1 352 1 view .LVU92
 412 0020 054B     		ldr	r3, .L43+4
 413              		.loc 1 349 16 view .LVU93
 414 0022 E163     		str	r1, [r4, #60]
 415              		.loc 1 350 3 is_stmt 1 view .LVU94
 416              		.loc 1 352 1 is_stmt 0 view .LVU95
 417 0024 1A68     		ldr	r2, [r3]
 418 0026 019B     		ldr	r3, [sp, #4]
 419 0028 5A40     		eors	r2, r3, r2
 420 002a 01D1     		bne	.L42
 421 002c 02B0     		add	sp, sp, #8
 422              		.cfi_remember_state
 423              		.cfi_def_cfa_offset 8
 424              		@ sp needed
 425 002e 10BD     		pop	{r4, pc}
 426              	.L42:
 427              		.cfi_restore_state
 428 0030 FFF7FEFF 		bl	__stack_chk_fail
 429              	.LVL26:
 430              	.L44:
 431              		.align	2
 432              	.L43:
 433 0034 00000000 		.word	.LANCHOR0
 434 0038 00000000 		.word	.LC2
 435 003c 84000000 		.word	_stm32_dma_streams+132
 436 0040 002C0140 		.word	1073818624
 437              		.cfi_endproc
 438              	.LFE263:
 439              		.size	sdc_lld_init, .-sdc_lld_init
 440              		.section	.rodata.sdc_lld_start.cst4,"aM",%progbits,4
 441              		.align	2
 442              	.LC3:
 443 0000 00000000 		.word	__stack_chk_guard
 444              		.section	.text.sdc_lld_start,"ax",%progbits
 445              		.align	1
 446              		.p2align 4,,15
 447              		.global	sdc_lld_start
 448              		.syntax unified
 449              		.thumb
 450              		.thumb_func
 451              		.fpu fpv4-sp-d16
 452              		.type	sdc_lld_start, %function
 453              	sdc_lld_start:
 454              	.LVL27:
 455              	.LFB264:
 456              		.loc 1 361 37 is_stmt 1 view -0
ARM GAS  /tmp/ccDzFi87.s 			page 9


 457              		.cfi_startproc
 458              		@ args = 0, pretend = 0, frame = 8
 459              		@ frame_needed = 0, uses_anonymous_args = 0
 460              		.loc 1 361 37 is_stmt 0 view .LVU97
 461 0000 10B5     		push	{r4, lr}
 462              		.cfi_def_cfa_offset 8
 463              		.cfi_offset 4, -8
 464              		.cfi_offset 14, -4
 465 0002 224B     		ldr	r3, .L58
 466 0004 82B0     		sub	sp, sp, #8
 467              		.cfi_def_cfa_offset 16
 468              		.loc 1 361 37 view .LVU98
 469 0006 1B68     		ldr	r3, [r3]
 470 0008 0193     		str	r3, [sp, #4]
 471 000a 4FF00003 		mov	r3,#0
 472              		.loc 1 364 3 is_stmt 1 view .LVU99
 473              		.loc 1 364 6 is_stmt 0 view .LVU100
 474 000e C36A     		ldr	r3, [r0, #44]
 475              		.loc 1 361 37 view .LVU101
 476 0010 0446     		mov	r4, r0
 477              		.loc 1 364 6 view .LVU102
 478 0012 A3B1     		cbz	r3, .L54
 479              		.loc 1 368 3 is_stmt 1 view .LVU103
 480              		.loc 1 375 3 view .LVU104
 481              		.loc 1 380 6 is_stmt 0 view .LVU105
 482 0014 2379     		ldrb	r3, [r4, #4]	@ zero_extendqisi2
 483              		.loc 1 375 17 view .LVU106
 484 0016 1E4A     		ldr	r2, .L58+4
 485 0018 2264     		str	r2, [r4, #64]
 486              		.loc 1 380 3 is_stmt 1 view .LVU107
 487              		.loc 1 380 6 is_stmt 0 view .LVU108
 488 001a 012B     		cmp	r3, #1
 489 001c 16D0     		beq	.L55
 490              	.LVL28:
 491              	.L47:
 492              	.LBB132:
 493              		.loc 1 390 25 is_stmt 1 discriminator 3 view .LVU109
 494              	.LBE132:
 495              		.loc 1 394 3 discriminator 3 view .LVU110
 496              		.loc 1 394 7 is_stmt 0 discriminator 3 view .LVU111
 497 001e A26C     		ldr	r2, [r4, #72]
 498              		.loc 1 394 22 discriminator 3 view .LVU112
 499 0020 0023     		movs	r3, #0
 500 0022 1360     		str	r3, [r2]
 501              		.loc 1 395 3 is_stmt 1 discriminator 3 view .LVU113
 502              		.loc 1 395 7 is_stmt 0 discriminator 3 view .LVU114
 503 0024 A26C     		ldr	r2, [r4, #72]
 504              		.loc 1 395 22 discriminator 3 view .LVU115
 505 0026 5360     		str	r3, [r2, #4]
 506              		.loc 1 396 3 is_stmt 1 discriminator 3 view .LVU116
 507              		.loc 1 396 7 is_stmt 0 discriminator 3 view .LVU117
 508 0028 A26C     		ldr	r2, [r4, #72]
 509              		.loc 1 396 22 discriminator 3 view .LVU118
 510 002a D362     		str	r3, [r2, #44]
 511              		.loc 1 397 3 is_stmt 1 discriminator 3 view .LVU119
 512              		.loc 1 397 7 is_stmt 0 discriminator 3 view .LVU120
 513 002c A26C     		ldr	r2, [r4, #72]
ARM GAS  /tmp/ccDzFi87.s 			page 10


 514              		.loc 1 397 22 discriminator 3 view .LVU121
 515 002e 5362     		str	r3, [r2, #36]
 516              		.loc 1 398 1 discriminator 3 view .LVU122
 517 0030 164B     		ldr	r3, .L58
 518 0032 1A68     		ldr	r2, [r3]
 519 0034 019B     		ldr	r3, [sp, #4]
 520 0036 5A40     		eors	r2, r3, r2
 521 0038 26D1     		bne	.L56
 522              		.loc 1 398 1 view .LVU123
 523 003a 02B0     		add	sp, sp, #8
 524              		.cfi_remember_state
 525              		.cfi_def_cfa_offset 8
 526              		@ sp needed
 527 003c 10BD     		pop	{r4, pc}
 528              	.LVL29:
 529              	.L54:
 530              		.cfi_restore_state
 531              		.loc 1 365 5 is_stmt 1 view .LVU124
 532              		.loc 1 365 18 is_stmt 0 view .LVU125
 533 003e 154B     		ldr	r3, .L58+8
 534 0040 C362     		str	r3, [r0, #44]
 535              		.loc 1 368 3 is_stmt 1 view .LVU126
 536              		.loc 1 375 3 view .LVU127
 537              		.loc 1 380 6 is_stmt 0 view .LVU128
 538 0042 2379     		ldrb	r3, [r4, #4]	@ zero_extendqisi2
 539              		.loc 1 375 17 view .LVU129
 540 0044 124A     		ldr	r2, .L58+4
 541 0046 2264     		str	r2, [r4, #64]
 542              		.loc 1 380 3 is_stmt 1 view .LVU130
 543              		.loc 1 380 6 is_stmt 0 view .LVU131
 544 0048 012B     		cmp	r3, #1
 545 004a E8D1     		bne	.L47
 546              	.L55:
 547              	.LBB133:
 548              		.loc 1 382 5 is_stmt 1 view .LVU132
 549              		.loc 1 383 5 view .LVU133
 550              		.loc 1 383 9 is_stmt 0 view .LVU134
 551 004c 0023     		movs	r3, #0
 552 004e 606C     		ldr	r0, [r4, #68]
 553              	.LVL30:
 554              		.loc 1 383 9 view .LVU135
 555 0050 1A46     		mov	r2, r3
 556 0052 0921     		movs	r1, #9
 557 0054 FFF7FEFF 		bl	dmaStreamAllocate
 558              	.LVL31:
 559              		.loc 1 384 5 is_stmt 1 view .LVU136
 560              		.loc 1 384 5 view .LVU137
 561              		.loc 1 384 5 view .LVU138
 562 0058 90B9     		cbnz	r0, .L57
 563              	.LVL32:
 564              	.L48:
 565              		.loc 1 384 5 discriminator 5 view .LVU139
 566              		.loc 1 385 5 discriminator 5 view .LVU140
 567 005a D4E91123 		ldrd	r2, r3, [r4, #68]
 568 005e 1268     		ldr	r2, [r2]
 569 0060 8033     		adds	r3, r3, #128
 570 0062 9360     		str	r3, [r2, #8]
ARM GAS  /tmp/ccDzFi87.s 			page 11


 571              		.loc 1 385 57 discriminator 5 view .LVU141
 572              		.loc 1 387 5 discriminator 5 view .LVU142
 573 0064 636C     		ldr	r3, [r4, #68]
 574 0066 1B68     		ldr	r3, [r3]
 575 0068 0722     		movs	r2, #7
 576 006a 5A61     		str	r2, [r3, #20]
 577              		.loc 1 387 78 discriminator 5 view .LVU143
 578              		.loc 1 389 5 discriminator 5 view .LVU144
 579 006c 0921     		movs	r1, #9
 580 006e 3120     		movs	r0, #49
 581 0070 FFF7FEFF 		bl	nvicEnableVector
 582              	.LVL33:
 583              		.loc 1 390 5 discriminator 5 view .LVU145
 584 0074 084A     		ldr	r2, .L58+12
 585 0076 536C     		ldr	r3, [r2, #68]
 586 0078 43F40063 		orr	r3, r3, #2048
 587 007c 5364     		str	r3, [r2, #68]
 588              		.loc 1 390 5 discriminator 5 view .LVU146
 589 007e CEE7     		b	.L47
 590              	.LVL34:
 591              	.L57:
 592              		.loc 1 384 5 discriminator 3 view .LVU147
 593 0080 0648     		ldr	r0, .L58+16
 594              	.LVL35:
 595              		.loc 1 384 5 is_stmt 0 discriminator 3 view .LVU148
 596 0082 FFF7FEFF 		bl	chSysHalt
 597              	.LVL36:
 598 0086 E8E7     		b	.L48
 599              	.L56:
 600              		.loc 1 384 5 discriminator 3 view .LVU149
 601              	.LBE133:
 602              		.loc 1 398 1 view .LVU150
 603 0088 FFF7FEFF 		bl	__stack_chk_fail
 604              	.LVL37:
 605              	.L59:
 606              		.align	2
 607              	.L58:
 608 008c 00000000 		.word	.LC3
 609 0090 2054A308 		.word	144921632
 610 0094 00000000 		.word	.LANCHOR1
 611 0098 00380240 		.word	1073887232
 612 009c 00000000 		.word	.LANCHOR2
 613              		.cfi_endproc
 614              	.LFE264:
 615              		.size	sdc_lld_start, .-sdc_lld_start
 616              		.section	.rodata.sdc_lld_stop.cst4,"aM",%progbits,4
 617              		.align	2
 618              	.LC4:
 619 0000 00000000 		.word	__stack_chk_guard
 620              		.section	.text.sdc_lld_stop,"ax",%progbits
 621              		.align	1
 622              		.p2align 4,,15
 623              		.global	sdc_lld_stop
 624              		.syntax unified
 625              		.thumb
 626              		.thumb_func
 627              		.fpu fpv4-sp-d16
ARM GAS  /tmp/ccDzFi87.s 			page 12


 628              		.type	sdc_lld_stop, %function
 629              	sdc_lld_stop:
 630              	.LVL38:
 631              	.LFB265:
 632              		.loc 1 407 36 is_stmt 1 view -0
 633              		.cfi_startproc
 634              		@ args = 0, pretend = 0, frame = 8
 635              		@ frame_needed = 0, uses_anonymous_args = 0
 636              		.loc 1 407 36 is_stmt 0 view .LVU152
 637 0000 10B5     		push	{r4, lr}
 638              		.cfi_def_cfa_offset 8
 639              		.cfi_offset 4, -8
 640              		.cfi_offset 14, -4
 641 0002 134B     		ldr	r3, .L68
 642 0004 82B0     		sub	sp, sp, #8
 643              		.cfi_def_cfa_offset 16
 644              		.loc 1 407 36 view .LVU153
 645 0006 1B68     		ldr	r3, [r3]
 646 0008 0193     		str	r3, [sp, #4]
 647 000a 4FF00003 		mov	r3,#0
 648              		.loc 1 409 3 is_stmt 1 view .LVU154
 649              		.loc 1 409 6 is_stmt 0 view .LVU155
 650 000e 0379     		ldrb	r3, [r0, #4]	@ zero_extendqisi2
 651 0010 012B     		cmp	r3, #1
 652 0012 14D0     		beq	.L60
 653              		.loc 1 412 5 is_stmt 1 view .LVU156
 654              		.loc 1 412 9 is_stmt 0 view .LVU157
 655 0014 826C     		ldr	r2, [r0, #72]
 656              		.loc 1 412 24 view .LVU158
 657 0016 0023     		movs	r3, #0
 658 0018 1360     		str	r3, [r2]
 659              		.loc 1 413 5 is_stmt 1 view .LVU159
 660              		.loc 1 413 9 is_stmt 0 view .LVU160
 661 001a 826C     		ldr	r2, [r0, #72]
 662              		.loc 1 413 24 view .LVU161
 663 001c 5360     		str	r3, [r2, #4]
 664              		.loc 1 414 5 is_stmt 1 view .LVU162
 665              		.loc 1 414 9 is_stmt 0 view .LVU163
 666 001e 826C     		ldr	r2, [r0, #72]
 667              		.loc 1 414 24 view .LVU164
 668 0020 D362     		str	r3, [r2, #44]
 669              		.loc 1 415 5 is_stmt 1 view .LVU165
 670              		.loc 1 415 9 is_stmt 0 view .LVU166
 671 0022 826C     		ldr	r2, [r0, #72]
 672 0024 0446     		mov	r4, r0
 673              		.loc 1 415 24 view .LVU167
 674 0026 5362     		str	r3, [r2, #36]
 675              		.loc 1 418 5 is_stmt 1 view .LVU168
 676 0028 3120     		movs	r0, #49
 677              	.LVL39:
 678              		.loc 1 418 5 is_stmt 0 view .LVU169
 679 002a FFF7FEFF 		bl	nvicDisableVector
 680              	.LVL40:
 681              		.loc 1 419 5 is_stmt 1 view .LVU170
 682 002e 606C     		ldr	r0, [r4, #68]
 683 0030 FFF7FEFF 		bl	dmaStreamRelease
 684              	.LVL41:
ARM GAS  /tmp/ccDzFi87.s 			page 13


 685              		.loc 1 420 5 view .LVU171
 686 0034 074A     		ldr	r2, .L68+4
 687 0036 536C     		ldr	r3, [r2, #68]
 688 0038 23F40063 		bic	r3, r3, #2048
 689 003c 5364     		str	r3, [r2, #68]
 690              		.loc 1 420 5 view .LVU172
 691              		.loc 1 420 26 view .LVU173
 692              	.LVL42:
 693              	.L60:
 694              		.loc 1 422 1 is_stmt 0 view .LVU174
 695 003e 044B     		ldr	r3, .L68
 696 0040 1A68     		ldr	r2, [r3]
 697 0042 019B     		ldr	r3, [sp, #4]
 698 0044 5A40     		eors	r2, r3, r2
 699 0046 01D1     		bne	.L67
 700 0048 02B0     		add	sp, sp, #8
 701              		.cfi_remember_state
 702              		.cfi_def_cfa_offset 8
 703              		@ sp needed
 704 004a 10BD     		pop	{r4, pc}
 705              	.L67:
 706              		.cfi_restore_state
 707 004c FFF7FEFF 		bl	__stack_chk_fail
 708              	.LVL43:
 709              	.L69:
 710              		.align	2
 711              	.L68:
 712 0050 00000000 		.word	.LC4
 713 0054 00380240 		.word	1073887232
 714              		.cfi_endproc
 715              	.LFE265:
 716              		.size	sdc_lld_stop, .-sdc_lld_stop
 717              		.section	.rodata.sdc_lld_start_clk.cst4,"aM",%progbits,4
 718              		.align	2
 719              	.LC5:
 720 0000 00000000 		.word	__stack_chk_guard
 721              		.section	.text.sdc_lld_start_clk,"ax",%progbits
 722              		.align	1
 723              		.p2align 4,,15
 724              		.global	sdc_lld_start_clk
 725              		.syntax unified
 726              		.thumb
 727              		.thumb_func
 728              		.fpu fpv4-sp-d16
 729              		.type	sdc_lld_start_clk, %function
 730              	sdc_lld_start_clk:
 731              	.LVL44:
 732              	.LFB266:
 733              		.loc 1 431 41 is_stmt 1 view -0
 734              		.cfi_startproc
 735              		@ args = 0, pretend = 0, frame = 8
 736              		@ frame_needed = 0, uses_anonymous_args = 0
 737              		.loc 1 431 41 is_stmt 0 view .LVU176
 738 0000 00B5     		push	{lr}
 739              		.cfi_def_cfa_offset 4
 740              		.cfi_offset 14, -4
 741 0002 1049     		ldr	r1, .L75
ARM GAS  /tmp/ccDzFi87.s 			page 14


 742              		.loc 1 434 7 view .LVU177
 743 0004 836C     		ldr	r3, [r0, #72]
 744              		.loc 1 431 41 view .LVU178
 745 0006 83B0     		sub	sp, sp, #12
 746              		.cfi_def_cfa_offset 16
 747              		.loc 1 434 22 view .LVU179
 748 0008 7822     		movs	r2, #120
 749              		.loc 1 431 41 view .LVU180
 750 000a 0968     		ldr	r1, [r1]
 751 000c 0191     		str	r1, [sp, #4]
 752 000e 4FF00001 		mov	r1,#0
 753              		.loc 1 434 3 is_stmt 1 view .LVU181
 754              		.loc 1 434 22 is_stmt 0 view .LVU182
 755 0012 5A60     		str	r2, [r3, #4]
 756              		.loc 1 435 3 is_stmt 1 view .LVU183
 757              		.loc 1 435 7 is_stmt 0 view .LVU184
 758 0014 826C     		ldr	r2, [r0, #72]
 759              		.loc 1 435 21 view .LVU185
 760 0016 1368     		ldr	r3, [r2]
 761 0018 43F00303 		orr	r3, r3, #3
 762 001c 1360     		str	r3, [r2]
 763              		.loc 1 436 3 is_stmt 1 view .LVU186
 764              		.loc 1 436 7 is_stmt 0 view .LVU187
 765 001e 826C     		ldr	r2, [r0, #72]
 766              		.loc 1 436 21 view .LVU188
 767 0020 5368     		ldr	r3, [r2, #4]
 768 0022 43F48073 		orr	r3, r3, #256
 769 0026 5360     		str	r3, [r2, #4]
 770              		.loc 1 439 3 is_stmt 1 view .LVU189
 771              	.LVL45:
 772              	.LBB134:
 773              	.LBI134:
 774              		.loc 2 625 20 view .LVU190
 775              	.LBB135:
 776              		.loc 2 627 3 view .LVU191
 777 0028 064B     		ldr	r3, .L75
 778 002a 1A68     		ldr	r2, [r3]
 779 002c 019B     		ldr	r3, [sp, #4]
 780 002e 5A40     		eors	r2, r3, r2
 781 0030 05D1     		bne	.L74
 782 0032 0A20     		movs	r0, #10
 783              	.LVL46:
 784              		.loc 2 627 3 is_stmt 0 view .LVU192
 785              	.LBE135:
 786              	.LBE134:
 787              		.loc 1 440 1 view .LVU193
 788 0034 03B0     		add	sp, sp, #12
 789              		.cfi_remember_state
 790              		.cfi_def_cfa_offset 4
 791              		@ sp needed
 792 0036 5DF804EB 		ldr	lr, [sp], #4
 793              		.cfi_restore 14
 794              		.cfi_def_cfa_offset 0
 795              	.LBB137:
 796              	.LBB136:
 797              		.loc 2 627 3 view .LVU194
 798 003a FFF7FEBF 		b	chThdSleep
ARM GAS  /tmp/ccDzFi87.s 			page 15


 799              	.LVL47:
 800              	.L74:
 801              		.cfi_restore_state
 802              		.loc 2 627 3 view .LVU195
 803 003e FFF7FEFF 		bl	__stack_chk_fail
 804              	.LVL48:
 805              	.L76:
 806              		.loc 2 627 3 view .LVU196
 807 0042 00BF     		.align	2
 808              	.L75:
 809 0044 00000000 		.word	.LC5
 810              	.LBE136:
 811              	.LBE137:
 812              		.cfi_endproc
 813              	.LFE266:
 814              		.size	sdc_lld_start_clk, .-sdc_lld_start_clk
 815              		.section	.rodata.sdc_lld_set_data_clk.cst4,"aM",%progbits,4
 816              		.align	2
 817              	.LC6:
 818 0000 00000000 		.word	__stack_chk_guard
 819              		.section	.text.sdc_lld_set_data_clk,"ax",%progbits
 820              		.align	1
 821              		.p2align 4,,15
 822              		.global	sdc_lld_set_data_clk
 823              		.syntax unified
 824              		.thumb
 825              		.thumb_func
 826              		.fpu fpv4-sp-d16
 827              		.type	sdc_lld_set_data_clk, %function
 828              	sdc_lld_set_data_clk:
 829              	.LVL49:
 830              	.LFB267:
 831              		.loc 1 450 61 is_stmt 1 view -0
 832              		.cfi_startproc
 833              		@ args = 0, pretend = 0, frame = 8
 834              		@ frame_needed = 0, uses_anonymous_args = 0
 835              		.loc 1 450 61 is_stmt 0 view .LVU198
 836 0000 00B5     		push	{lr}
 837              		.cfi_def_cfa_offset 4
 838              		.cfi_offset 14, -4
 839 0002 0A4B     		ldr	r3, .L81
 840              		.loc 1 461 28 view .LVU199
 841 0004 826C     		ldr	r2, [r0, #72]
 842              		.loc 1 450 61 view .LVU200
 843 0006 83B0     		sub	sp, sp, #12
 844              		.cfi_def_cfa_offset 16
 845              		.loc 1 450 61 view .LVU201
 846 0008 1B68     		ldr	r3, [r3]
 847 000a 0193     		str	r3, [sp, #4]
 848 000c 4FF00003 		mov	r3,#0
 849              		.loc 1 459 3 is_stmt 1 view .LVU202
 850              		.loc 1 461 3 view .LVU203
 851              		.loc 1 461 34 is_stmt 0 view .LVU204
 852 0010 5368     		ldr	r3, [r2, #4]
 853              		.loc 1 461 57 view .LVU205
 854 0012 23F0FF03 		bic	r3, r3, #255
 855              		.loc 1 461 21 view .LVU206
ARM GAS  /tmp/ccDzFi87.s 			page 16


 856 0016 5360     		str	r3, [r2, #4]
 857              		.loc 1 463 1 view .LVU207
 858 0018 044B     		ldr	r3, .L81
 859 001a 1A68     		ldr	r2, [r3]
 860 001c 019B     		ldr	r3, [sp, #4]
 861 001e 5A40     		eors	r2, r3, r2
 862 0020 02D1     		bne	.L80
 863 0022 03B0     		add	sp, sp, #12
 864              		.cfi_remember_state
 865              		.cfi_def_cfa_offset 4
 866              		@ sp needed
 867 0024 5DF804FB 		ldr	pc, [sp], #4
 868              	.L80:
 869              		.cfi_restore_state
 870 0028 FFF7FEFF 		bl	__stack_chk_fail
 871              	.LVL50:
 872              	.L82:
 873              		.loc 1 463 1 view .LVU208
 874              		.align	2
 875              	.L81:
 876 002c 00000000 		.word	.LC6
 877              		.cfi_endproc
 878              	.LFE267:
 879              		.size	sdc_lld_set_data_clk, .-sdc_lld_set_data_clk
 880              		.section	.rodata.sdc_lld_stop_clk.cst4,"aM",%progbits,4
 881              		.align	2
 882              	.LC7:
 883 0000 00000000 		.word	__stack_chk_guard
 884              		.section	.text.sdc_lld_stop_clk,"ax",%progbits
 885              		.align	1
 886              		.p2align 4,,15
 887              		.global	sdc_lld_stop_clk
 888              		.syntax unified
 889              		.thumb
 890              		.thumb_func
 891              		.fpu fpv4-sp-d16
 892              		.type	sdc_lld_stop_clk, %function
 893              	sdc_lld_stop_clk:
 894              	.LVL51:
 895              	.LFB268:
 896              		.loc 1 472 40 is_stmt 1 view -0
 897              		.cfi_startproc
 898              		@ args = 0, pretend = 0, frame = 8
 899              		@ frame_needed = 0, uses_anonymous_args = 0
 900              		.loc 1 472 40 is_stmt 0 view .LVU210
 901 0000 00B5     		push	{lr}
 902              		.cfi_def_cfa_offset 4
 903              		.cfi_offset 14, -4
 904              		.loc 1 474 7 view .LVU211
 905 0002 826C     		ldr	r2, [r0, #72]
 906              		.loc 1 472 40 view .LVU212
 907 0004 0949     		ldr	r1, .L87
 908              		.loc 1 474 21 view .LVU213
 909 0006 0023     		movs	r3, #0
 910              		.loc 1 472 40 view .LVU214
 911 0008 83B0     		sub	sp, sp, #12
 912              		.cfi_def_cfa_offset 16
ARM GAS  /tmp/ccDzFi87.s 			page 17


 913              		.loc 1 472 40 view .LVU215
 914 000a 0968     		ldr	r1, [r1]
 915 000c 0191     		str	r1, [sp, #4]
 916 000e 4FF00001 		mov	r1,#0
 917              		.loc 1 474 3 is_stmt 1 view .LVU216
 918              		.loc 1 474 21 is_stmt 0 view .LVU217
 919 0012 5360     		str	r3, [r2, #4]
 920              		.loc 1 475 3 is_stmt 1 view .LVU218
 921              		.loc 1 475 7 is_stmt 0 view .LVU219
 922 0014 826C     		ldr	r2, [r0, #72]
 923              		.loc 1 475 21 view .LVU220
 924 0016 1360     		str	r3, [r2]
 925              		.loc 1 476 1 view .LVU221
 926 0018 044B     		ldr	r3, .L87
 927 001a 1A68     		ldr	r2, [r3]
 928 001c 019B     		ldr	r3, [sp, #4]
 929 001e 5A40     		eors	r2, r3, r2
 930 0020 02D1     		bne	.L86
 931 0022 03B0     		add	sp, sp, #12
 932              		.cfi_remember_state
 933              		.cfi_def_cfa_offset 4
 934              		@ sp needed
 935 0024 5DF804FB 		ldr	pc, [sp], #4
 936              	.L86:
 937              		.cfi_restore_state
 938 0028 FFF7FEFF 		bl	__stack_chk_fail
 939              	.LVL52:
 940              	.L88:
 941              		.loc 1 476 1 view .LVU222
 942              		.align	2
 943              	.L87:
 944 002c 00000000 		.word	.LC7
 945              		.cfi_endproc
 946              	.LFE268:
 947              		.size	sdc_lld_stop_clk, .-sdc_lld_stop_clk
 948              		.section	.rodata.sdc_lld_set_bus_mode.cst4,"aM",%progbits,4
 949              		.align	2
 950              	.LC8:
 951 0000 00000000 		.word	__stack_chk_guard
 952              		.section	.text.sdc_lld_set_bus_mode,"ax",%progbits
 953              		.align	1
 954              		.p2align 4,,15
 955              		.global	sdc_lld_set_bus_mode
 956              		.syntax unified
 957              		.thumb
 958              		.thumb_func
 959              		.fpu fpv4-sp-d16
 960              		.type	sdc_lld_set_bus_mode, %function
 961              	sdc_lld_set_bus_mode:
 962              	.LVL53:
 963              	.LFB269:
 964              		.loc 1 486 63 is_stmt 1 view -0
 965              		.cfi_startproc
 966              		@ args = 0, pretend = 0, frame = 8
 967              		@ frame_needed = 0, uses_anonymous_args = 0
 968              		.loc 1 486 63 is_stmt 0 view .LVU224
 969 0000 00B5     		push	{lr}
ARM GAS  /tmp/ccDzFi87.s 			page 18


 970              		.cfi_def_cfa_offset 4
 971              		.cfi_offset 14, -4
 972 0002 104B     		ldr	r3, .L97
 973              		.loc 1 487 22 view .LVU225
 974 0004 826C     		ldr	r2, [r0, #72]
 975              		.loc 1 486 63 view .LVU226
 976 0006 83B0     		sub	sp, sp, #12
 977              		.cfi_def_cfa_offset 16
 978              		.loc 1 486 63 view .LVU227
 979 0008 1B68     		ldr	r3, [r3]
 980 000a 0193     		str	r3, [sp, #4]
 981 000c 4FF00003 		mov	r3,#0
 982              		.loc 1 487 3 is_stmt 1 view .LVU228
 983              		.loc 1 489 3 is_stmt 0 view .LVU229
 984 0010 0129     		cmp	r1, #1
 985              		.loc 1 487 28 view .LVU230
 986 0012 5368     		ldr	r3, [r2, #4]
 987              		.loc 1 487 12 view .LVU231
 988 0014 23F4C053 		bic	r3, r3, #6144
 989              	.LVL54:
 990              		.loc 1 489 3 is_stmt 1 view .LVU232
 991 0018 0ED0     		beq	.L90
 992 001a 0229     		cmp	r1, #2
 993 001c 08D0     		beq	.L91
 994 001e 49B1     		cbz	r1, .L95
 995              	.LVL55:
 996              	.L89:
 997              		.loc 1 500 1 is_stmt 0 view .LVU233
 998 0020 084B     		ldr	r3, .L97
 999 0022 1A68     		ldr	r2, [r3]
 1000 0024 019B     		ldr	r3, [sp, #4]
 1001 0026 5A40     		eors	r2, r3, r2
 1002 0028 0AD1     		bne	.L96
 1003 002a 03B0     		add	sp, sp, #12
 1004              		.cfi_remember_state
 1005              		.cfi_def_cfa_offset 4
 1006              		@ sp needed
 1007 002c 5DF804FB 		ldr	pc, [sp], #4
 1008              	.LVL56:
 1009              	.L91:
 1010              		.cfi_restore_state
 1011              		.loc 1 497 5 is_stmt 1 view .LVU234
 1012              		.loc 1 497 29 is_stmt 0 view .LVU235
 1013 0030 43F48053 		orr	r3, r3, #4096
 1014              	.LVL57:
 1015              	.L95:
 1016              		.loc 1 497 23 view .LVU236
 1017 0034 5360     		str	r3, [r2, #4]
 1018              		.loc 1 498 5 is_stmt 1 view .LVU237
 1019              		.loc 1 500 1 is_stmt 0 view .LVU238
 1020 0036 F3E7     		b	.L89
 1021              	.LVL58:
 1022              	.L90:
 1023              		.loc 1 494 5 is_stmt 1 view .LVU239
 1024              		.loc 1 494 29 is_stmt 0 view .LVU240
 1025 0038 43F40063 		orr	r3, r3, #2048
 1026              	.LVL59:
ARM GAS  /tmp/ccDzFi87.s 			page 19


 1027              		.loc 1 494 23 view .LVU241
 1028 003c 5360     		str	r3, [r2, #4]
 1029              		.loc 1 495 5 is_stmt 1 view .LVU242
 1030 003e EFE7     		b	.L89
 1031              	.L96:
 1032              		.loc 1 500 1 is_stmt 0 view .LVU243
 1033 0040 FFF7FEFF 		bl	__stack_chk_fail
 1034              	.LVL60:
 1035              	.L98:
 1036              		.loc 1 500 1 view .LVU244
 1037              		.align	2
 1038              	.L97:
 1039 0044 00000000 		.word	.LC8
 1040              		.cfi_endproc
 1041              	.LFE269:
 1042              		.size	sdc_lld_set_bus_mode, .-sdc_lld_set_bus_mode
 1043              		.section	.rodata.sdc_lld_send_cmd_none.cst4,"aM",%progbits,4
 1044              		.align	2
 1045              	.LC9:
 1046 0000 00000000 		.word	__stack_chk_guard
 1047              		.section	.text.sdc_lld_send_cmd_none,"ax",%progbits
 1048              		.align	1
 1049              		.p2align 4,,15
 1050              		.global	sdc_lld_send_cmd_none
 1051              		.syntax unified
 1052              		.thumb
 1053              		.thumb_func
 1054              		.fpu fpv4-sp-d16
 1055              		.type	sdc_lld_send_cmd_none, %function
 1056              	sdc_lld_send_cmd_none:
 1057              	.LVL61:
 1058              	.LFB270:
 1059              		.loc 1 511 72 is_stmt 1 view -0
 1060              		.cfi_startproc
 1061              		@ args = 0, pretend = 0, frame = 8
 1062              		@ frame_needed = 0, uses_anonymous_args = 0
 1063              		.loc 1 511 72 is_stmt 0 view .LVU246
 1064 0000 00B5     		push	{lr}
 1065              		.cfi_def_cfa_offset 4
 1066              		.cfi_offset 14, -4
 1067              		.loc 1 513 7 view .LVU247
 1068 0002 836C     		ldr	r3, [r0, #72]
 1069              		.loc 1 511 72 view .LVU248
 1070 0004 DFF838C0 		ldr	ip, .L106
 1071 0008 83B0     		sub	sp, sp, #12
 1072              		.cfi_def_cfa_offset 16
 1073              		.loc 1 511 72 view .LVU249
 1074 000a DCF800C0 		ldr	ip, [ip]
 1075 000e CDF804C0 		str	ip, [sp, #4]
 1076 0012 4FF0000C 		mov	ip,#0
 1077              		.loc 1 513 3 is_stmt 1 view .LVU250
 1078              		.loc 1 513 19 is_stmt 0 view .LVU251
 1079 0016 9A60     		str	r2, [r3, #8]
 1080              		.loc 1 514 3 is_stmt 1 view .LVU252
 1081              		.loc 1 514 7 is_stmt 0 view .LVU253
 1082 0018 836C     		ldr	r3, [r0, #72]
 1083              		.loc 1 514 35 view .LVU254
ARM GAS  /tmp/ccDzFi87.s 			page 20


 1084 001a 41F48061 		orr	r1, r1, #1024
 1085              	.LVL62:
 1086              		.loc 1 514 19 view .LVU255
 1087 001e D960     		str	r1, [r3, #12]
 1088              		.loc 1 515 3 is_stmt 1 view .LVU256
 1089              		.loc 1 515 15 is_stmt 0 view .LVU257
 1090 0020 826C     		ldr	r2, [r0, #72]
 1091              	.LVL63:
 1092              	.L100:
 1093              		.loc 1 516 5 is_stmt 1 discriminator 1 view .LVU258
 1094              		.loc 1 515 9 discriminator 1 view .LVU259
 1095              		.loc 1 515 21 is_stmt 0 discriminator 1 view .LVU260
 1096 0022 536B     		ldr	r3, [r2, #52]
 1097              		.loc 1 515 9 discriminator 1 view .LVU261
 1098 0024 1B06     		lsls	r3, r3, #24
 1099 0026 FCD5     		bpl	.L100
 1100              		.loc 1 517 3 is_stmt 1 view .LVU262
 1101              		.loc 1 517 19 is_stmt 0 view .LVU263
 1102 0028 8023     		movs	r3, #128
 1103 002a 9363     		str	r3, [r2, #56]
 1104              		.loc 1 518 1 view .LVU264
 1105 002c 044B     		ldr	r3, .L106
 1106 002e 1A68     		ldr	r2, [r3]
 1107 0030 019B     		ldr	r3, [sp, #4]
 1108 0032 5A40     		eors	r2, r3, r2
 1109 0034 02D1     		bne	.L105
 1110 0036 03B0     		add	sp, sp, #12
 1111              		.cfi_remember_state
 1112              		.cfi_def_cfa_offset 4
 1113              		@ sp needed
 1114 0038 5DF804FB 		ldr	pc, [sp], #4
 1115              	.L105:
 1116              		.cfi_restore_state
 1117 003c FFF7FEFF 		bl	__stack_chk_fail
 1118              	.LVL64:
 1119              	.L107:
 1120              		.loc 1 518 1 view .LVU265
 1121              		.align	2
 1122              	.L106:
 1123 0040 00000000 		.word	.LC9
 1124              		.cfi_endproc
 1125              	.LFE270:
 1126              		.size	sdc_lld_send_cmd_none, .-sdc_lld_send_cmd_none
 1127              		.section	.rodata.sdc_lld_send_cmd_short.cst4,"aM",%progbits,4
 1128              		.align	2
 1129              	.LC10:
 1130 0000 00000000 		.word	__stack_chk_guard
 1131              		.section	.text.sdc_lld_send_cmd_short,"ax",%progbits
 1132              		.align	1
 1133              		.p2align 4,,15
 1134              		.global	sdc_lld_send_cmd_short
 1135              		.syntax unified
 1136              		.thumb
 1137              		.thumb_func
 1138              		.fpu fpv4-sp-d16
 1139              		.type	sdc_lld_send_cmd_short, %function
 1140              	sdc_lld_send_cmd_short:
ARM GAS  /tmp/ccDzFi87.s 			page 21


 1141              	.LVL65:
 1142              	.LFB271:
 1143              		.loc 1 536 45 is_stmt 1 view -0
 1144              		.cfi_startproc
 1145              		@ args = 0, pretend = 0, frame = 8
 1146              		@ frame_needed = 0, uses_anonymous_args = 0
 1147              		.loc 1 536 45 is_stmt 0 view .LVU267
 1148 0000 10B5     		push	{r4, lr}
 1149              		.cfi_def_cfa_offset 8
 1150              		.cfi_offset 4, -8
 1151              		.cfi_offset 14, -4
 1152 0002 DFF854C0 		ldr	ip, .L118
 1153              		.loc 1 539 7 view .LVU268
 1154 0006 846C     		ldr	r4, [r0, #72]
 1155              		.loc 1 536 45 view .LVU269
 1156 0008 82B0     		sub	sp, sp, #8
 1157              		.cfi_def_cfa_offset 16
 1158              		.loc 1 536 45 view .LVU270
 1159 000a DCF800C0 		ldr	ip, [ip]
 1160 000e CDF804C0 		str	ip, [sp, #4]
 1161 0012 4FF0000C 		mov	ip,#0
 1162              		.loc 1 537 3 is_stmt 1 view .LVU271
 1163              		.loc 1 539 3 view .LVU272
 1164              		.loc 1 539 19 is_stmt 0 view .LVU273
 1165 0016 A260     		str	r2, [r4, #8]
 1166              		.loc 1 540 3 is_stmt 1 view .LVU274
 1167              		.loc 1 540 7 is_stmt 0 view .LVU275
 1168 0018 826C     		ldr	r2, [r0, #72]
 1169              	.LVL66:
 1170              		.loc 1 540 57 view .LVU276
 1171 001a 41F48861 		orr	r1, r1, #1088
 1172              	.LVL67:
 1173              		.loc 1 540 19 view .LVU277
 1174 001e D160     		str	r1, [r2, #12]
 1175              	.LVL68:
 1176              		.loc 1 541 3 is_stmt 1 view .LVU278
 1177              		.loc 1 541 22 is_stmt 0 view .LVU279
 1178 0020 826C     		ldr	r2, [r0, #72]
 1179              	.L109:
 1180              		.loc 1 543 5 is_stmt 1 discriminator 1 view .LVU280
 1181              		.loc 1 541 9 discriminator 1 view .LVU281
 1182              		.loc 1 541 16 is_stmt 0 discriminator 1 view .LVU282
 1183 0022 516B     		ldr	r1, [r2, #52]
 1184              	.LVL69:
 1185              		.loc 1 541 9 discriminator 1 view .LVU283
 1186 0024 11F04504 		ands	r4, r1, #69
 1187 0028 FBD0     		beq	.L109
 1188              		.loc 1 544 3 is_stmt 1 view .LVU284
 1189              		.loc 1 544 19 is_stmt 0 view .LVU285
 1190 002a 9463     		str	r4, [r2, #56]
 1191              		.loc 1 546 3 is_stmt 1 view .LVU286
 1192              		.loc 1 546 6 is_stmt 0 view .LVU287
 1193 002c 11F00402 		ands	r2, r1, #4
 1194 0030 0AD1     		bne	.L116
 1195              		.loc 1 550 3 is_stmt 1 view .LVU288
 1196              		.loc 1 550 15 is_stmt 0 view .LVU289
 1197 0032 816C     		ldr	r1, [r0, #72]
ARM GAS  /tmp/ccDzFi87.s 			page 22


 1198              	.LVL70:
 1199              		.loc 1 550 21 view .LVU290
 1200 0034 4969     		ldr	r1, [r1, #20]
 1201              		.loc 1 550 9 view .LVU291
 1202 0036 1960     		str	r1, [r3]
 1203              		.loc 1 551 3 is_stmt 1 view .LVU292
 1204              		.loc 1 551 10 is_stmt 0 view .LVU293
 1205 0038 1046     		mov	r0, r2
 1206              	.LVL71:
 1207              	.L111:
 1208              		.loc 1 552 1 view .LVU294
 1209 003a 074B     		ldr	r3, .L118
 1210 003c 1A68     		ldr	r2, [r3]
 1211 003e 019B     		ldr	r3, [sp, #4]
 1212 0040 5A40     		eors	r2, r3, r2
 1213 0042 06D1     		bne	.L117
 1214 0044 02B0     		add	sp, sp, #8
 1215              		.cfi_remember_state
 1216              		.cfi_def_cfa_offset 8
 1217              		@ sp needed
 1218 0046 10BD     		pop	{r4, pc}
 1219              	.LVL72:
 1220              	.L116:
 1221              		.cfi_restore_state
 1222              		.loc 1 547 5 is_stmt 1 view .LVU295
 1223 0048 3430     		adds	r0, r0, #52
 1224              	.LVL73:
 1225              		.loc 1 547 5 is_stmt 0 view .LVU296
 1226 004a FFF7FEFF 		bl	sdc_lld_collect_errors.isra.0
 1227              	.LVL74:
 1228              		.loc 1 548 5 is_stmt 1 view .LVU297
 1229              		.loc 1 548 12 is_stmt 0 view .LVU298
 1230 004e 0120     		movs	r0, #1
 1231 0050 F3E7     		b	.L111
 1232              	.L117:
 1233              		.loc 1 552 1 view .LVU299
 1234 0052 FFF7FEFF 		bl	__stack_chk_fail
 1235              	.LVL75:
 1236              	.L119:
 1237 0056 00BF     		.align	2
 1238              	.L118:
 1239 0058 00000000 		.word	.LC10
 1240              		.cfi_endproc
 1241              	.LFE271:
 1242              		.size	sdc_lld_send_cmd_short, .-sdc_lld_send_cmd_short
 1243              		.section	.rodata.sdc_lld_send_cmd_short_crc.cst4,"aM",%progbits,4
 1244              		.align	2
 1245              	.LC11:
 1246 0000 00000000 		.word	__stack_chk_guard
 1247              		.section	.text.sdc_lld_send_cmd_short_crc,"ax",%progbits
 1248              		.align	1
 1249              		.p2align 4,,15
 1250              		.global	sdc_lld_send_cmd_short_crc
 1251              		.syntax unified
 1252              		.thumb
 1253              		.thumb_func
 1254              		.fpu fpv4-sp-d16
ARM GAS  /tmp/ccDzFi87.s 			page 23


 1255              		.type	sdc_lld_send_cmd_short_crc, %function
 1256              	sdc_lld_send_cmd_short_crc:
 1257              	.LVL76:
 1258              	.LFB272:
 1259              		.loc 1 569 49 is_stmt 1 view -0
 1260              		.cfi_startproc
 1261              		@ args = 0, pretend = 0, frame = 8
 1262              		@ frame_needed = 0, uses_anonymous_args = 0
 1263              		.loc 1 569 49 is_stmt 0 view .LVU301
 1264 0000 10B5     		push	{r4, lr}
 1265              		.cfi_def_cfa_offset 8
 1266              		.cfi_offset 4, -8
 1267              		.cfi_offset 14, -4
 1268 0002 DFF854C0 		ldr	ip, .L130
 1269              		.loc 1 572 7 view .LVU302
 1270 0006 846C     		ldr	r4, [r0, #72]
 1271              		.loc 1 569 49 view .LVU303
 1272 0008 82B0     		sub	sp, sp, #8
 1273              		.cfi_def_cfa_offset 16
 1274              		.loc 1 569 49 view .LVU304
 1275 000a DCF800C0 		ldr	ip, [ip]
 1276 000e CDF804C0 		str	ip, [sp, #4]
 1277 0012 4FF0000C 		mov	ip,#0
 1278              		.loc 1 570 3 is_stmt 1 view .LVU305
 1279              		.loc 1 572 3 view .LVU306
 1280              		.loc 1 572 19 is_stmt 0 view .LVU307
 1281 0016 A260     		str	r2, [r4, #8]
 1282              		.loc 1 573 3 is_stmt 1 view .LVU308
 1283              		.loc 1 573 7 is_stmt 0 view .LVU309
 1284 0018 826C     		ldr	r2, [r0, #72]
 1285              	.LVL77:
 1286              		.loc 1 573 57 view .LVU310
 1287 001a 41F48861 		orr	r1, r1, #1088
 1288              	.LVL78:
 1289              		.loc 1 573 19 view .LVU311
 1290 001e D160     		str	r1, [r2, #12]
 1291              	.LVL79:
 1292              		.loc 1 574 3 is_stmt 1 view .LVU312
 1293              		.loc 1 574 22 is_stmt 0 view .LVU313
 1294 0020 826C     		ldr	r2, [r0, #72]
 1295              	.L121:
 1296              		.loc 1 576 5 is_stmt 1 discriminator 1 view .LVU314
 1297              		.loc 1 574 9 discriminator 1 view .LVU315
 1298              		.loc 1 574 16 is_stmt 0 discriminator 1 view .LVU316
 1299 0022 516B     		ldr	r1, [r2, #52]
 1300              	.LVL80:
 1301              		.loc 1 574 9 discriminator 1 view .LVU317
 1302 0024 11F04504 		ands	r4, r1, #69
 1303 0028 FBD0     		beq	.L121
 1304              		.loc 1 577 3 is_stmt 1 view .LVU318
 1305              		.loc 1 577 19 is_stmt 0 view .LVU319
 1306 002a 9463     		str	r4, [r2, #56]
 1307              		.loc 1 578 3 is_stmt 1 view .LVU320
 1308              		.loc 1 578 6 is_stmt 0 view .LVU321
 1309 002c 11F00502 		ands	r2, r1, #5
 1310 0030 0AD1     		bne	.L128
 1311              		.loc 1 582 3 is_stmt 1 view .LVU322
ARM GAS  /tmp/ccDzFi87.s 			page 24


 1312              		.loc 1 582 15 is_stmt 0 view .LVU323
 1313 0032 816C     		ldr	r1, [r0, #72]
 1314              	.LVL81:
 1315              		.loc 1 582 21 view .LVU324
 1316 0034 4969     		ldr	r1, [r1, #20]
 1317              		.loc 1 582 9 view .LVU325
 1318 0036 1960     		str	r1, [r3]
 1319              		.loc 1 583 3 is_stmt 1 view .LVU326
 1320              		.loc 1 583 10 is_stmt 0 view .LVU327
 1321 0038 1046     		mov	r0, r2
 1322              	.LVL82:
 1323              	.L123:
 1324              		.loc 1 584 1 view .LVU328
 1325 003a 074B     		ldr	r3, .L130
 1326 003c 1A68     		ldr	r2, [r3]
 1327 003e 019B     		ldr	r3, [sp, #4]
 1328 0040 5A40     		eors	r2, r3, r2
 1329 0042 06D1     		bne	.L129
 1330 0044 02B0     		add	sp, sp, #8
 1331              		.cfi_remember_state
 1332              		.cfi_def_cfa_offset 8
 1333              		@ sp needed
 1334 0046 10BD     		pop	{r4, pc}
 1335              	.LVL83:
 1336              	.L128:
 1337              		.cfi_restore_state
 1338              		.loc 1 579 5 is_stmt 1 view .LVU329
 1339 0048 3430     		adds	r0, r0, #52
 1340              	.LVL84:
 1341              		.loc 1 579 5 is_stmt 0 view .LVU330
 1342 004a FFF7FEFF 		bl	sdc_lld_collect_errors.isra.0
 1343              	.LVL85:
 1344              		.loc 1 580 5 is_stmt 1 view .LVU331
 1345              		.loc 1 580 12 is_stmt 0 view .LVU332
 1346 004e 0120     		movs	r0, #1
 1347 0050 F3E7     		b	.L123
 1348              	.L129:
 1349              		.loc 1 584 1 view .LVU333
 1350 0052 FFF7FEFF 		bl	__stack_chk_fail
 1351              	.LVL86:
 1352              	.L131:
 1353 0056 00BF     		.align	2
 1354              	.L130:
 1355 0058 00000000 		.word	.LC11
 1356              		.cfi_endproc
 1357              	.LFE272:
 1358              		.size	sdc_lld_send_cmd_short_crc, .-sdc_lld_send_cmd_short_crc
 1359              		.section	.rodata.sdc_lld_wait_transaction_end.cst4,"aM",%progbits,4
 1360              		.align	2
 1361              	.LC12:
 1362 0000 00000000 		.word	__stack_chk_guard
 1363              		.section	.text.sdc_lld_wait_transaction_end,"ax",%progbits
 1364              		.align	1
 1365              		.p2align 4,,15
 1366              		.syntax unified
 1367              		.thumb
 1368              		.thumb_func
ARM GAS  /tmp/ccDzFi87.s 			page 25


 1369              		.fpu fpv4-sp-d16
 1370              		.type	sdc_lld_wait_transaction_end, %function
 1371              	sdc_lld_wait_transaction_end:
 1372              	.LVL87:
 1373              	.LFB259:
 1374              		.loc 1 209 58 is_stmt 1 view -0
 1375              		.cfi_startproc
 1376              		@ args = 0, pretend = 0, frame = 8
 1377              		@ frame_needed = 0, uses_anonymous_args = 0
 1378              		.loc 1 209 58 is_stmt 0 view .LVU335
 1379 0000 F0B5     		push	{r4, r5, r6, r7, lr}
 1380              		.cfi_def_cfa_offset 20
 1381              		.cfi_offset 4, -20
 1382              		.cfi_offset 5, -16
 1383              		.cfi_offset 6, -12
 1384              		.cfi_offset 7, -8
 1385              		.cfi_offset 14, -4
 1386 0002 394B     		ldr	r3, .L153
 1387 0004 83B0     		sub	sp, sp, #12
 1388              		.cfi_def_cfa_offset 32
 1389              		.loc 1 209 58 view .LVU336
 1390 0006 1B68     		ldr	r3, [r3]
 1391 0008 0193     		str	r3, [sp, #4]
 1392 000a 4FF00003 		mov	r3,#0
 1393 000e 0546     		mov	r5, r0
 1394              		.loc 1 213 3 is_stmt 1 view .LVU337
 1395              	.LBB174:
 1396              	.LBI174:
 1397              		.loc 2 445 20 view .LVU338
 1398              	.LBE174:
 1399              		.loc 2 447 3 view .LVU339
 1400              	.LBB188:
 1401              	.LBB175:
 1402              	.LBI175:
 1403              		.loc 3 346 20 view .LVU340
 1404              	.LBB176:
 1405              		.loc 3 348 3 view .LVU341
 1406              	.LBB177:
 1407              	.LBI177:
 1408              		.loc 4 444 20 view .LVU342
 1409              	.LBE177:
 1410              	.LBE176:
 1411              	.LBE175:
 1412              	.LBE188:
 1413              		.loc 4 447 3 view .LVU343
 1414              	.LVL88:
 1415              	.LBB189:
 1416              	.LBB186:
 1417              	.LBB184:
 1418              	.LBB182:
 1419              	.LBB178:
 1420              	.LBI178:
 1421              		.loc 5 544 57 view .LVU344
 1422              	.LBB179:
 1423              		.loc 5 546 3 view .LVU345
 1424              	.LBE179:
 1425              	.LBE178:
ARM GAS  /tmp/ccDzFi87.s 			page 26


 1426              	.LBE182:
 1427              	.LBE184:
 1428              	.LBE186:
 1429              	.LBE189:
 1430              		.loc 1 209 58 is_stmt 0 view .LVU346
 1431 0010 0E46     		mov	r6, r1
 1432 0012 1746     		mov	r7, r2
 1433              	.LBB190:
 1434              	.LBB187:
 1435              	.LBB185:
 1436              	.LBB183:
 1437              	.LBB181:
 1438              	.LBB180:
 1439              		.loc 5 546 3 view .LVU347
 1440 0014 2023     		movs	r3, #32
 1441              		.syntax unified
 1442              	@ 546 ".//ChibiOS//os/ext/CMSIS/include/core_cmFunc.h" 1
 1443 0016 83F31188 		MSR basepri, r3
 1444              	@ 0 "" 2
 1445              	.LVL89:
 1446              		.loc 5 546 3 view .LVU348
 1447              		.thumb
 1448              		.syntax unified
 1449              	.LBE180:
 1450              	.LBE181:
 1451              	.LBE183:
 1452              		.loc 3 349 3 is_stmt 1 view .LVU349
 1453 001a FFF7FEFF 		bl	_stats_start_measure_crit_thd
 1454              	.LVL90:
 1455              		.loc 3 350 3 view .LVU350
 1456 001e FFF7FEFF 		bl	_dbg_check_lock
 1457              	.LVL91:
 1458              	.LBE185:
 1459              	.LBE187:
 1460              	.LBE190:
 1461              		.loc 1 214 3 view .LVU351
 1462              		.loc 1 214 11 is_stmt 0 view .LVU352
 1463 0022 AB6C     		ldr	r3, [r5, #72]
 1464              		.loc 1 214 17 view .LVU353
 1465 0024 DA6B     		ldr	r2, [r3, #60]
 1466              		.loc 1 214 6 view .LVU354
 1467 0026 002A     		cmp	r2, #0
 1468 0028 2BD1     		bne	.L148
 1469              		.loc 1 216 3 is_stmt 1 view .LVU355
 1470              		.loc 1 216 18 is_stmt 0 view .LVU356
 1471 002a 5B6B     		ldr	r3, [r3, #52]
 1472              		.loc 1 216 6 view .LVU357
 1473 002c DB05     		lsls	r3, r3, #23
 1474 002e 30D5     		bpl	.L149
 1475              	.L134:
 1476              		.loc 1 223 14 view .LVU358
 1477 0030 696C     		ldr	r1, [r5, #68]
 1478              		.loc 1 223 19 view .LVU359
 1479 0032 0C68     		ldr	r4, [r1]
 1480              	.L137:
 1481              		.loc 1 224 5 is_stmt 1 discriminator 1 view .LVU360
 1482              		.loc 1 223 9 discriminator 1 view .LVU361
ARM GAS  /tmp/ccDzFi87.s 			page 27


 1483              		.loc 1 223 27 is_stmt 0 discriminator 1 view .LVU362
 1484 0034 2368     		ldr	r3, [r4]
 1485              		.loc 1 223 9 discriminator 1 view .LVU363
 1486 0036 13F00103 		ands	r3, r3, #1
 1487 003a FBD1     		bne	.L137
 1488              		.loc 1 227 3 is_stmt 1 view .LVU364
 1489 003c 0C7A     		ldrb	r4, [r1, #8]	@ zero_extendqisi2
 1490 003e 4868     		ldr	r0, [r1, #4]
 1491              		.loc 1 229 19 is_stmt 0 view .LVU365
 1492 0040 2A49     		ldr	r1, .L153+4
 1493              		.loc 1 227 3 view .LVU366
 1494 0042 3D22     		movs	r2, #61
 1495 0044 A240     		lsls	r2, r2, r4
 1496 0046 0260     		str	r2, [r0]
 1497              		.loc 1 227 37 is_stmt 1 view .LVU367
 1498              		.loc 1 229 3 view .LVU368
 1499              		.loc 1 229 7 is_stmt 0 view .LVU369
 1500 0048 AA6C     		ldr	r2, [r5, #72]
 1501              		.loc 1 229 19 view .LVU370
 1502 004a 9163     		str	r1, [r2, #56]
 1503              		.loc 1 230 3 is_stmt 1 view .LVU371
 1504              		.loc 1 230 7 is_stmt 0 view .LVU372
 1505 004c AA6C     		ldr	r2, [r5, #72]
 1506              		.loc 1 230 21 view .LVU373
 1507 004e D362     		str	r3, [r2, #44]
 1508              		.loc 1 231 3 is_stmt 1 view .LVU374
 1509              	.LBB191:
 1510              	.LBI191:
 1511              		.loc 2 456 20 view .LVU375
 1512              	.LBE191:
 1513              		.loc 2 458 3 view .LVU376
 1514              	.LBB202:
 1515              	.LBB192:
 1516              	.LBI192:
 1517              		.loc 3 358 20 view .LVU377
 1518              	.LBB193:
 1519              		.loc 3 360 3 view .LVU378
 1520 0050 FFF7FEFF 		bl	_dbg_check_unlock
 1521              	.LVL92:
 1522              		.loc 3 361 3 view .LVU379
 1523 0054 FFF7FEFF 		bl	_stats_stop_measure_crit_thd
 1524              	.LVL93:
 1525              		.loc 3 367 3 view .LVU380
 1526              		.loc 3 367 3 view .LVU381
 1527              		.loc 3 367 3 view .LVU382
 1528 0058 254B     		ldr	r3, .L153+8
 1529 005a 1A68     		ldr	r2, [r3]
 1530 005c 9A42     		cmp	r2, r3
 1531 005e 04D0     		beq	.L138
 1532 0060 9969     		ldr	r1, [r3, #24]
 1533 0062 9368     		ldr	r3, [r2, #8]
 1534 0064 8A68     		ldr	r2, [r1, #8]
 1535 0066 9A42     		cmp	r2, r3
 1536 0068 33D3     		bcc	.L150
 1537              	.L138:
 1538              		.loc 3 367 3 view .LVU383
 1539              		.loc 3 371 3 view .LVU384
ARM GAS  /tmp/ccDzFi87.s 			page 28


 1540              	.LBB194:
 1541              	.LBI194:
 1542              		.loc 4 458 20 view .LVU385
 1543              	.LBE194:
 1544              	.LBE193:
 1545              	.LBE192:
 1546              	.LBE202:
 1547              		.loc 4 461 3 view .LVU386
 1548              	.LVL94:
 1549              	.LBB203:
 1550              	.LBB200:
 1551              	.LBB198:
 1552              	.LBB197:
 1553              	.LBB195:
 1554              	.LBI195:
 1555              		.loc 5 544 57 view .LVU387
 1556              	.LBB196:
 1557              		.loc 5 546 3 view .LVU388
 1558 006a 0020     		movs	r0, #0
 1559              		.syntax unified
 1560              	@ 546 ".//ChibiOS//os/ext/CMSIS/include/core_cmFunc.h" 1
 1561 006c 80F31188 		MSR basepri, r0
 1562              	@ 0 "" 2
 1563              	.LVL95:
 1564              		.loc 5 546 3 is_stmt 0 view .LVU389
 1565              		.thumb
 1566              		.syntax unified
 1567              	.LBE196:
 1568              	.LBE195:
 1569              	.LBE197:
 1570              	.LBE198:
 1571              	.LBE200:
 1572              	.LBE203:
 1573              		.loc 1 247 3 is_stmt 1 view .LVU390
 1574              		.loc 1 247 6 is_stmt 0 view .LVU391
 1575 0070 012E     		cmp	r6, #1
 1576 0072 20D8     		bhi	.L151
 1577              	.L136:
 1578              		.loc 1 251 1 view .LVU392
 1579 0074 1C4B     		ldr	r3, .L153
 1580 0076 1A68     		ldr	r2, [r3]
 1581 0078 019B     		ldr	r3, [sp, #4]
 1582 007a 5A40     		eors	r2, r3, r2
 1583 007c 31D1     		bne	.L147
 1584 007e 03B0     		add	sp, sp, #12
 1585              		.cfi_remember_state
 1586              		.cfi_def_cfa_offset 20
 1587              		@ sp needed
 1588 0080 F0BD     		pop	{r4, r5, r6, r7, pc}
 1589              	.LVL96:
 1590              	.L148:
 1591              		.cfi_restore_state
 1592              		.loc 1 215 5 is_stmt 1 view .LVU393
 1593              	.LBB204:
 1594              	.LBI204:
 1595              		.loc 2 640 21 view .LVU394
 1596              	.LBB205:
ARM GAS  /tmp/ccDzFi87.s 			page 29


 1597              		.loc 2 642 3 view .LVU395
 1598              		.loc 2 642 10 is_stmt 0 view .LVU396
 1599 0082 05F13C00 		add	r0, r5, #60
 1600              	.LVL97:
 1601              		.loc 2 642 10 view .LVU397
 1602 0086 FFF7FEFF 		bl	chThdSuspendS
 1603              	.LVL98:
 1604              		.loc 2 642 10 view .LVU398
 1605 008a AB6C     		ldr	r3, [r5, #72]
 1606              	.LVL99:
 1607              		.loc 2 642 10 view .LVU399
 1608              	.LBE205:
 1609              	.LBE204:
 1610              		.loc 1 216 3 is_stmt 1 view .LVU400
 1611              		.loc 1 216 18 is_stmt 0 view .LVU401
 1612 008c 5B6B     		ldr	r3, [r3, #52]
 1613              		.loc 1 216 6 view .LVU402
 1614 008e DB05     		lsls	r3, r3, #23
 1615 0090 CED4     		bmi	.L134
 1616              	.L149:
 1617              		.loc 1 217 5 is_stmt 1 view .LVU403
 1618              	.LBB206:
 1619              	.LBI206:
 1620              		.loc 2 456 20 view .LVU404
 1621              	.LBE206:
 1622              		.loc 2 458 3 view .LVU405
 1623              	.LBB219:
 1624              	.LBB207:
 1625              	.LBI207:
 1626              		.loc 3 358 20 view .LVU406
 1627              	.LBB208:
 1628              		.loc 3 360 3 view .LVU407
 1629 0092 FFF7FEFF 		bl	_dbg_check_unlock
 1630              	.LVL100:
 1631              		.loc 3 361 3 view .LVU408
 1632 0096 FFF7FEFF 		bl	_stats_stop_measure_crit_thd
 1633              	.LVL101:
 1634              		.loc 3 367 3 view .LVU409
 1635              		.loc 3 367 3 view .LVU410
 1636              		.loc 3 367 3 view .LVU411
 1637 009a 154B     		ldr	r3, .L153+8
 1638 009c 1A68     		ldr	r2, [r3]
 1639 009e 9A42     		cmp	r2, r3
 1640 00a0 04D0     		beq	.L135
 1641 00a2 9969     		ldr	r1, [r3, #24]
 1642 00a4 9368     		ldr	r3, [r2, #8]
 1643 00a6 8A68     		ldr	r2, [r1, #8]
 1644 00a8 9A42     		cmp	r2, r3
 1645 00aa 16D3     		bcc	.L152
 1646              	.L135:
 1647              		.loc 3 367 3 view .LVU412
 1648              		.loc 3 371 3 view .LVU413
 1649              	.LBB209:
 1650              	.LBI209:
 1651              		.loc 4 458 20 view .LVU414
 1652              	.LBE209:
 1653              	.LBE208:
ARM GAS  /tmp/ccDzFi87.s 			page 30


 1654              	.LBE207:
 1655              	.LBE219:
 1656              		.loc 4 461 3 view .LVU415
 1657              	.LVL102:
 1658              	.LBB220:
 1659              	.LBB216:
 1660              	.LBB213:
 1661              	.LBB212:
 1662              	.LBB210:
 1663              	.LBI210:
 1664              		.loc 5 544 57 view .LVU416
 1665              	.LBB211:
 1666              		.loc 5 546 3 view .LVU417
 1667 00ac 0023     		movs	r3, #0
 1668              		.syntax unified
 1669              	@ 546 ".//ChibiOS//os/ext/CMSIS/include/core_cmFunc.h" 1
 1670 00ae 83F31188 		MSR basepri, r3
 1671              	@ 0 "" 2
 1672              	.LVL103:
 1673              		.loc 5 546 3 is_stmt 0 view .LVU418
 1674              		.thumb
 1675              		.syntax unified
 1676              	.LBE211:
 1677              	.LBE210:
 1678              	.LBE212:
 1679              	.LBE213:
 1680              	.LBE216:
 1681              	.LBE220:
 1682              		.loc 1 218 12 view .LVU419
 1683 00b2 0120     		movs	r0, #1
 1684              	.LBB221:
 1685              	.LBB217:
 1686              	.LBB214:
 1687              		.loc 3 372 1 view .LVU420
 1688 00b4 DEE7     		b	.L136
 1689              	.L151:
 1690              	.LVL104:
 1691              		.loc 3 372 1 view .LVU421
 1692              	.LBE214:
 1693              	.LBE217:
 1694              	.LBE221:
 1695              	.LBB222:
 1696              	.LBI222:
 1697              		.loc 1 208 13 is_stmt 1 view .LVU422
 1698              	.LBB223:
 1699              		.loc 1 248 5 view .LVU423
 1700              		.loc 1 248 12 is_stmt 0 view .LVU424
 1701 00b6 0C4B     		ldr	r3, .L153
 1702 00b8 1A68     		ldr	r2, [r3]
 1703 00ba 019B     		ldr	r3, [sp, #4]
 1704 00bc 5A40     		eors	r2, r3, r2
 1705 00be 10D1     		bne	.L147
 1706 00c0 0246     		mov	r2, r0
 1707 00c2 3B46     		mov	r3, r7
 1708 00c4 2846     		mov	r0, r5
 1709 00c6 0C21     		movs	r1, #12
 1710              	.LBE223:
ARM GAS  /tmp/ccDzFi87.s 			page 31


 1711              	.LBE222:
 1712              		.loc 1 251 1 view .LVU425
 1713 00c8 03B0     		add	sp, sp, #12
 1714              		.cfi_remember_state
 1715              		.cfi_def_cfa_offset 20
 1716              		@ sp needed
 1717 00ca BDE8F040 		pop	{r4, r5, r6, r7, lr}
 1718              		.cfi_restore 14
 1719              		.cfi_restore 7
 1720              		.cfi_restore 6
 1721              		.cfi_restore 5
 1722              		.cfi_restore 4
 1723              		.cfi_def_cfa_offset 0
 1724              	.LVL105:
 1725              	.LBB225:
 1726              	.LBB224:
 1727              		.loc 1 248 12 view .LVU426
 1728 00ce FFF7FEBF 		b	sdc_lld_send_cmd_short_crc
 1729              	.LVL106:
 1730              	.L150:
 1731              		.cfi_restore_state
 1732              		.loc 1 248 12 view .LVU427
 1733              	.LBE224:
 1734              	.LBE225:
 1735              	.LBB226:
 1736              	.LBB201:
 1737              	.LBB199:
 1738              		.loc 3 367 3 is_stmt 1 view .LVU428
 1739 00d2 0848     		ldr	r0, .L153+12
 1740 00d4 FFF7FEFF 		bl	chSysHalt
 1741              	.LVL107:
 1742 00d8 C7E7     		b	.L138
 1743              	.L152:
 1744              		.loc 3 367 3 is_stmt 0 view .LVU429
 1745              	.LBE199:
 1746              	.LBE201:
 1747              	.LBE226:
 1748              	.LBB227:
 1749              	.LBB218:
 1750              	.LBB215:
 1751              		.loc 3 367 3 is_stmt 1 view .LVU430
 1752 00da 0648     		ldr	r0, .L153+12
 1753 00dc FFF7FEFF 		bl	chSysHalt
 1754              	.LVL108:
 1755 00e0 E4E7     		b	.L135
 1756              	.L147:
 1757              	.LBE215:
 1758              	.LBE218:
 1759              	.LBE227:
 1760              		.loc 1 251 1 is_stmt 0 view .LVU431
 1761 00e2 FFF7FEFF 		bl	__stack_chk_fail
 1762              	.LVL109:
 1763              	.L154:
 1764 00e6 00BF     		.align	2
 1765              	.L153:
 1766 00e8 00000000 		.word	.LC12
 1767 00ec FF07C000 		.word	12584959
ARM GAS  /tmp/ccDzFi87.s 			page 32


 1768 00f0 00000000 		.word	ch
 1769 00f4 00000000 		.word	.LANCHOR3
 1770              		.cfi_endproc
 1771              	.LFE259:
 1772              		.size	sdc_lld_wait_transaction_end, .-sdc_lld_wait_transaction_end
 1773              		.section	.rodata.sdc_lld_error_cleanup.cst4,"aM",%progbits,4
 1774              		.align	2
 1775              	.LC13:
 1776 0000 00000000 		.word	__stack_chk_guard
 1777              		.section	.text.sdc_lld_error_cleanup,"ax",%progbits
 1778              		.align	1
 1779              		.p2align 4,,15
 1780              		.syntax unified
 1781              		.thumb
 1782              		.thumb_func
 1783              		.fpu fpv4-sp-d16
 1784              		.type	sdc_lld_error_cleanup, %function
 1785              	sdc_lld_error_cleanup:
 1786              	.LVL110:
 1787              	.LFB261:
 1788              		.loc 1 293 51 is_stmt 1 view -0
 1789              		.cfi_startproc
 1790              		@ args = 0, pretend = 0, frame = 8
 1791              		@ frame_needed = 0, uses_anonymous_args = 0
 1792              		.loc 1 293 51 is_stmt 0 view .LVU433
 1793 0000 F0B5     		push	{r4, r5, r6, r7, lr}
 1794              		.cfi_def_cfa_offset 20
 1795              		.cfi_offset 4, -20
 1796              		.cfi_offset 5, -16
 1797              		.cfi_offset 6, -12
 1798              		.cfi_offset 7, -8
 1799              		.cfi_offset 14, -4
 1800 0002 0546     		mov	r5, r0
 1801              		.loc 1 296 3 view .LVU434
 1802 0004 406C     		ldr	r0, [r0, #68]
 1803              	.LVL111:
 1804              		.loc 1 293 51 view .LVU435
 1805 0006 244C     		ldr	r4, .L164
 1806              		.loc 1 296 3 view .LVU436
 1807 0008 067A     		ldrb	r6, [r0, #8]	@ zero_extendqisi2
 1808 000a 4068     		ldr	r0, [r0, #4]
 1809              		.loc 1 293 51 view .LVU437
 1810 000c 83B0     		sub	sp, sp, #12
 1811              		.cfi_def_cfa_offset 32
 1812              		.loc 1 293 51 view .LVU438
 1813 000e 2468     		ldr	r4, [r4]
 1814 0010 0194     		str	r4, [sp, #4]
 1815 0012 4FF00004 		mov	r4,#0
 1816              		.loc 1 294 3 is_stmt 1 view .LVU439
 1817              		.loc 1 296 3 is_stmt 0 view .LVU440
 1818 0016 3D23     		movs	r3, #61
 1819              		.loc 1 294 22 view .LVU441
 1820 0018 AC6C     		ldr	r4, [r5, #72]
 1821              		.loc 1 296 3 view .LVU442
 1822 001a B340     		lsls	r3, r3, r6
 1823              		.loc 1 294 12 view .LVU443
 1824 001c D4F834E0 		ldr	lr, [r4, #52]
ARM GAS  /tmp/ccDzFi87.s 			page 33


 1825              	.LVL112:
 1826              		.loc 1 296 3 is_stmt 1 view .LVU444
 1827 0020 0360     		str	r3, [r0]
 1828              		.loc 1 296 37 view .LVU445
 1829              		.loc 1 297 3 view .LVU446
 1830 0022 6B6C     		ldr	r3, [r5, #68]
 1831 0024 1868     		ldr	r0, [r3]
 1832 0026 0368     		ldr	r3, [r0]
 1833 0028 23F01F03 		bic	r3, r3, #31
 1834 002c 0360     		str	r3, [r0]
 1835              		.loc 1 297 3 view .LVU447
 1836 002e D5F844C0 		ldr	ip, [r5, #68]
 1837 0032 DCF80000 		ldr	r0, [ip]
 1838              		.loc 1 293 51 is_stmt 0 view .LVU448
 1839 0036 0E46     		mov	r6, r1
 1840 0038 1746     		mov	r7, r2
 1841              	.L156:
 1842              		.loc 1 297 3 is_stmt 1 discriminator 2 view .LVU449
 1843              		.loc 1 297 3 discriminator 2 view .LVU450
 1844 003a 0468     		ldr	r4, [r0]
 1845 003c 14F00104 		ands	r4, r4, #1
 1846 0040 FBD1     		bne	.L156
 1847              		.loc 1 297 3 discriminator 3 view .LVU451
 1848 0042 9CF80800 		ldrb	r0, [ip, #8]	@ zero_extendqisi2
 1849 0046 DCF80410 		ldr	r1, [ip, #4]
 1850              	.LVL113:
 1851              		.loc 1 298 21 is_stmt 0 discriminator 3 view .LVU452
 1852 004a 144A     		ldr	r2, .L164+4
 1853              	.LVL114:
 1854              		.loc 1 297 3 discriminator 3 view .LVU453
 1855 004c 3D23     		movs	r3, #61
 1856 004e 8340     		lsls	r3, r3, r0
 1857 0050 0B60     		str	r3, [r1]
 1858              		.loc 1 297 3 is_stmt 1 discriminator 3 view .LVU454
 1859              		.loc 1 297 30 discriminator 3 view .LVU455
 1860              		.loc 1 298 3 discriminator 3 view .LVU456
 1861              		.loc 1 298 7 is_stmt 0 discriminator 3 view .LVU457
 1862 0052 AB6C     		ldr	r3, [r5, #72]
 1863              		.loc 1 298 21 discriminator 3 view .LVU458
 1864 0054 9A63     		str	r2, [r3, #56]
 1865              		.loc 1 299 3 is_stmt 1 discriminator 3 view .LVU459
 1866              		.loc 1 299 7 is_stmt 0 discriminator 3 view .LVU460
 1867 0056 AB6C     		ldr	r3, [r5, #72]
 1868              		.loc 1 299 21 discriminator 3 view .LVU461
 1869 0058 DC63     		str	r4, [r3, #60]
 1870              		.loc 1 300 3 is_stmt 1 discriminator 3 view .LVU462
 1871              		.loc 1 300 7 is_stmt 0 discriminator 3 view .LVU463
 1872 005a AB6C     		ldr	r3, [r5, #72]
 1873              		.loc 1 301 3 discriminator 3 view .LVU464
 1874 005c 7146     		mov	r1, lr
 1875              		.loc 1 300 21 discriminator 3 view .LVU465
 1876 005e DC62     		str	r4, [r3, #44]
 1877              		.loc 1 301 3 is_stmt 1 discriminator 3 view .LVU466
 1878 0060 05F13400 		add	r0, r5, #52
 1879 0064 FFF7FEFF 		bl	sdc_lld_collect_errors.isra.0
 1880              	.LVL115:
 1881              		.loc 1 302 3 discriminator 3 view .LVU467
ARM GAS  /tmp/ccDzFi87.s 			page 34


 1882              		.loc 1 302 6 is_stmt 0 discriminator 3 view .LVU468
 1883 0068 012E     		cmp	r6, #1
 1884              	.LBB230:
 1885              	.LBB231:
 1886              		.loc 1 303 5 discriminator 3 view .LVU469
 1887 006a 0B4B     		ldr	r3, .L164
 1888              	.LBE231:
 1889              	.LBE230:
 1890              		.loc 1 302 6 discriminator 3 view .LVU470
 1891 006c 05D8     		bhi	.L163
 1892              		.loc 1 304 1 view .LVU471
 1893 006e 1A68     		ldr	r2, [r3]
 1894 0070 019B     		ldr	r3, [sp, #4]
 1895 0072 5A40     		eors	r2, r3, r2
 1896 0074 0ED1     		bne	.L162
 1897 0076 03B0     		add	sp, sp, #12
 1898              		.cfi_remember_state
 1899              		.cfi_def_cfa_offset 20
 1900              		@ sp needed
 1901 0078 F0BD     		pop	{r4, r5, r6, r7, pc}
 1902              	.LVL116:
 1903              	.L163:
 1904              		.cfi_restore_state
 1905              	.LBB234:
 1906              	.LBI230:
 1907              		.loc 1 291 13 is_stmt 1 view .LVU472
 1908              	.LBB232:
 1909              		.loc 1 303 5 view .LVU473
 1910 007a 1A68     		ldr	r2, [r3]
 1911 007c 019B     		ldr	r3, [sp, #4]
 1912 007e 5A40     		eors	r2, r3, r2
 1913 0080 08D1     		bne	.L162
 1914 0082 3B46     		mov	r3, r7
 1915 0084 2246     		mov	r2, r4
 1916 0086 2846     		mov	r0, r5
 1917 0088 0C21     		movs	r1, #12
 1918              	.LBE232:
 1919              	.LBE234:
 1920              		.loc 1 304 1 is_stmt 0 view .LVU474
 1921 008a 03B0     		add	sp, sp, #12
 1922              		.cfi_remember_state
 1923              		.cfi_def_cfa_offset 20
 1924              		@ sp needed
 1925 008c BDE8F040 		pop	{r4, r5, r6, r7, lr}
 1926              		.cfi_restore 14
 1927              		.cfi_restore 7
 1928              		.cfi_restore 6
 1929              		.cfi_restore 5
 1930              		.cfi_restore 4
 1931              		.cfi_def_cfa_offset 0
 1932              	.LVL117:
 1933              	.LBB235:
 1934              	.LBB233:
 1935              		.loc 1 303 5 view .LVU475
 1936 0090 FFF7FEBF 		b	sdc_lld_send_cmd_short_crc
 1937              	.LVL118:
 1938              	.L162:
ARM GAS  /tmp/ccDzFi87.s 			page 35


 1939              		.cfi_restore_state
 1940              		.loc 1 303 5 view .LVU476
 1941              	.LBE233:
 1942              	.LBE235:
 1943              		.loc 1 304 1 view .LVU477
 1944 0094 FFF7FEFF 		bl	__stack_chk_fail
 1945              	.LVL119:
 1946              	.L165:
 1947              		.align	2
 1948              	.L164:
 1949 0098 00000000 		.word	.LC13
 1950 009c FF07C000 		.word	12584959
 1951              		.cfi_endproc
 1952              	.LFE261:
 1953              		.size	sdc_lld_error_cleanup, .-sdc_lld_error_cleanup
 1954              		.section	.rodata.sdc_lld_send_cmd_long_crc.cst4,"aM",%progbits,4
 1955              		.align	2
 1956              	.LC14:
 1957 0000 00000000 		.word	__stack_chk_guard
 1958              		.section	.text.sdc_lld_send_cmd_long_crc,"ax",%progbits
 1959              		.align	1
 1960              		.p2align 4,,15
 1961              		.global	sdc_lld_send_cmd_long_crc
 1962              		.syntax unified
 1963              		.thumb
 1964              		.thumb_func
 1965              		.fpu fpv4-sp-d16
 1966              		.type	sdc_lld_send_cmd_long_crc, %function
 1967              	sdc_lld_send_cmd_long_crc:
 1968              	.LVL120:
 1969              	.LFB273:
 1970              		.loc 1 601 48 is_stmt 1 view -0
 1971              		.cfi_startproc
 1972              		@ args = 0, pretend = 0, frame = 8
 1973              		@ frame_needed = 0, uses_anonymous_args = 0
 1974              		.loc 1 601 48 is_stmt 0 view .LVU479
 1975 0000 10B5     		push	{r4, lr}
 1976              		.cfi_def_cfa_offset 8
 1977              		.cfi_offset 4, -8
 1978              		.cfi_offset 14, -4
 1979 0002 DFF864C0 		ldr	ip, .L176
 1980              		.loc 1 606 7 view .LVU480
 1981 0006 846C     		ldr	r4, [r0, #72]
 1982              		.loc 1 601 48 view .LVU481
 1983 0008 82B0     		sub	sp, sp, #8
 1984              		.cfi_def_cfa_offset 16
 1985              		.loc 1 601 48 view .LVU482
 1986 000a DCF800C0 		ldr	ip, [ip]
 1987 000e CDF804C0 		str	ip, [sp, #4]
 1988 0012 4FF0000C 		mov	ip,#0
 1989              		.loc 1 602 3 is_stmt 1 view .LVU483
 1990              		.loc 1 604 3 view .LVU484
 1991              		.loc 1 606 3 view .LVU485
 1992              		.loc 1 606 19 is_stmt 0 view .LVU486
 1993 0016 A260     		str	r2, [r4, #8]
 1994              		.loc 1 607 3 is_stmt 1 view .LVU487
 1995              		.loc 1 607 7 is_stmt 0 view .LVU488
ARM GAS  /tmp/ccDzFi87.s 			page 36


 1996 0018 826C     		ldr	r2, [r0, #72]
 1997              	.LVL121:
 1998              		.loc 1 607 79 view .LVU489
 1999 001a 41F49861 		orr	r1, r1, #1216
 2000              	.LVL122:
 2001              		.loc 1 607 19 view .LVU490
 2002 001e D160     		str	r1, [r2, #12]
 2003              	.LVL123:
 2004              		.loc 1 609 3 is_stmt 1 view .LVU491
 2005              		.loc 1 609 22 is_stmt 0 view .LVU492
 2006 0020 826C     		ldr	r2, [r0, #72]
 2007              	.L167:
 2008              		.loc 1 611 5 is_stmt 1 discriminator 1 view .LVU493
 2009              		.loc 1 609 9 discriminator 1 view .LVU494
 2010              		.loc 1 609 16 is_stmt 0 discriminator 1 view .LVU495
 2011 0022 516B     		ldr	r1, [r2, #52]
 2012              	.LVL124:
 2013              		.loc 1 609 9 discriminator 1 view .LVU496
 2014 0024 11F04504 		ands	r4, r1, #69
 2015 0028 FBD0     		beq	.L167
 2016              		.loc 1 612 3 is_stmt 1 view .LVU497
 2017              		.loc 1 612 19 is_stmt 0 view .LVU498
 2018 002a 9463     		str	r4, [r2, #56]
 2019              		.loc 1 614 3 is_stmt 1 view .LVU499
 2020              		.loc 1 614 6 is_stmt 0 view .LVU500
 2021 002c 11F03F02 		ands	r2, r1, #63
 2022 0030 13D1     		bne	.L174
 2023              		.loc 1 619 3 is_stmt 1 view .LVU501
 2024              		.loc 1 619 17 is_stmt 0 view .LVU502
 2025 0032 816C     		ldr	r1, [r0, #72]
 2026              	.LVL125:
 2027              		.loc 1 619 23 view .LVU503
 2028 0034 096A     		ldr	r1, [r1, #32]
 2029              		.loc 1 619 11 view .LVU504
 2030 0036 1960     		str	r1, [r3]
 2031              		.loc 1 620 3 is_stmt 1 view .LVU505
 2032              		.loc 1 620 17 is_stmt 0 view .LVU506
 2033 0038 816C     		ldr	r1, [r0, #72]
 2034              	.LVL126:
 2035              		.loc 1 620 23 view .LVU507
 2036 003a C969     		ldr	r1, [r1, #28]
 2037              		.loc 1 620 11 view .LVU508
 2038 003c 5960     		str	r1, [r3, #4]
 2039              		.loc 1 621 3 is_stmt 1 view .LVU509
 2040              		.loc 1 621 17 is_stmt 0 view .LVU510
 2041 003e 816C     		ldr	r1, [r0, #72]
 2042              	.LVL127:
 2043              		.loc 1 621 23 view .LVU511
 2044 0040 8969     		ldr	r1, [r1, #24]
 2045              		.loc 1 621 11 view .LVU512
 2046 0042 9960     		str	r1, [r3, #8]
 2047              		.loc 1 622 3 is_stmt 1 view .LVU513
 2048              		.loc 1 622 17 is_stmt 0 view .LVU514
 2049 0044 816C     		ldr	r1, [r0, #72]
 2050              		.loc 1 622 23 view .LVU515
 2051 0046 4969     		ldr	r1, [r1, #20]
 2052              		.loc 1 622 11 view .LVU516
ARM GAS  /tmp/ccDzFi87.s 			page 37


 2053 0048 D960     		str	r1, [r3, #12]
 2054              		.loc 1 623 3 is_stmt 1 view .LVU517
 2055              		.loc 1 623 10 is_stmt 0 view .LVU518
 2056 004a 1046     		mov	r0, r2
 2057              	.LVL128:
 2058              	.L169:
 2059              		.loc 1 624 1 view .LVU519
 2060 004c 064B     		ldr	r3, .L176
 2061 004e 1A68     		ldr	r2, [r3]
 2062 0050 019B     		ldr	r3, [sp, #4]
 2063 0052 5A40     		eors	r2, r3, r2
 2064 0054 06D1     		bne	.L175
 2065 0056 02B0     		add	sp, sp, #8
 2066              		.cfi_remember_state
 2067              		.cfi_def_cfa_offset 8
 2068              		@ sp needed
 2069 0058 10BD     		pop	{r4, pc}
 2070              	.LVL129:
 2071              	.L174:
 2072              		.cfi_restore_state
 2073              		.loc 1 615 5 is_stmt 1 view .LVU520
 2074 005a 3430     		adds	r0, r0, #52
 2075              	.LVL130:
 2076              		.loc 1 615 5 is_stmt 0 view .LVU521
 2077 005c FFF7FEFF 		bl	sdc_lld_collect_errors.isra.0
 2078              	.LVL131:
 2079              		.loc 1 616 5 is_stmt 1 view .LVU522
 2080              		.loc 1 616 12 is_stmt 0 view .LVU523
 2081 0060 0120     		movs	r0, #1
 2082 0062 F3E7     		b	.L169
 2083              	.LVL132:
 2084              	.L175:
 2085              		.loc 1 624 1 view .LVU524
 2086 0064 FFF7FEFF 		bl	__stack_chk_fail
 2087              	.LVL133:
 2088              	.L177:
 2089              		.align	2
 2090              	.L176:
 2091 0068 00000000 		.word	.LC14
 2092              		.cfi_endproc
 2093              	.LFE273:
 2094              		.size	sdc_lld_send_cmd_long_crc, .-sdc_lld_send_cmd_long_crc
 2095              		.section	.rodata.sdc_lld_read_special.cst4,"aM",%progbits,4
 2096              		.align	2
 2097              	.LC15:
 2098 0000 00000000 		.word	__stack_chk_guard
 2099              		.section	.text.sdc_lld_read_special,"ax",%progbits
 2100              		.align	1
 2101              		.p2align 4,,15
 2102              		.global	sdc_lld_read_special
 2103              		.syntax unified
 2104              		.thumb
 2105              		.thumb_func
 2106              		.fpu fpv4-sp-d16
 2107              		.type	sdc_lld_read_special, %function
 2108              	sdc_lld_read_special:
 2109              	.LVL134:
ARM GAS  /tmp/ccDzFi87.s 			page 38


 2110              	.LFB274:
 2111              		.loc 1 643 54 is_stmt 1 view -0
 2112              		.cfi_startproc
 2113              		@ args = 4, pretend = 0, frame = 8
 2114              		@ frame_needed = 0, uses_anonymous_args = 0
 2115              		.loc 1 643 54 is_stmt 0 view .LVU526
 2116 0000 2DE9F041 		push	{r4, r5, r6, r7, r8, lr}
 2117              		.cfi_def_cfa_offset 24
 2118              		.cfi_offset 4, -24
 2119              		.cfi_offset 5, -20
 2120              		.cfi_offset 6, -16
 2121              		.cfi_offset 7, -12
 2122              		.cfi_offset 8, -8
 2123              		.cfi_offset 14, -4
 2124 0004 1E46     		mov	r6, r3
 2125 0006 82B0     		sub	sp, sp, #8
 2126              		.cfi_def_cfa_offset 32
 2127              		.loc 1 643 54 view .LVU527
 2128 0008 2D4B     		ldr	r3, .L189
 2129              	.LVL135:
 2130              		.loc 1 643 54 view .LVU528
 2131 000a DDF82080 		ldr	r8, [sp, #32]
 2132              	.LBB238:
 2133              	.LBB239:
 2134              		.loc 1 89 3 view .LVU529
 2135 000e B2F1807F 		cmp	r2, #16777216
 2136              	.LBE239:
 2137              	.LBE238:
 2138              		.loc 1 643 54 view .LVU530
 2139 0012 1546     		mov	r5, r2
 2140 0014 0446     		mov	r4, r0
 2141 0016 0F46     		mov	r7, r1
 2142 0018 1B68     		ldr	r3, [r3]
 2143 001a 0193     		str	r3, [sp, #4]
 2144 001c 4FF00003 		mov	r3,#0
 2145              		.loc 1 644 3 is_stmt 1 view .LVU531
 2146              		.loc 1 646 3 view .LVU532
 2147              	.LVL136:
 2148              	.LBB243:
 2149              	.LBI238:
 2150              		.loc 1 87 13 view .LVU533
 2151              	.LBB240:
 2152              		.loc 1 89 3 view .LVU534
 2153              		.loc 1 89 3 view .LVU535
 2154              		.loc 1 89 3 view .LVU536
 2155 0020 40D2     		bcs	.L185
 2156              	.LVL137:
 2157              	.L179:
 2158              		.loc 1 89 3 view .LVU537
 2159              		.loc 1 91 3 view .LVU538
 2160              		.loc 1 91 7 is_stmt 0 view .LVU539
 2161 0022 A36C     		ldr	r3, [r4, #72]
 2162              		.loc 1 91 22 view .LVU540
 2163 0024 274A     		ldr	r2, .L189+4
 2164 0026 5A62     		str	r2, [r3, #36]
 2165              		.loc 1 94 3 is_stmt 1 view .LVU541
 2166              		.loc 1 94 7 is_stmt 0 view .LVU542
ARM GAS  /tmp/ccDzFi87.s 			page 39


 2167 0028 2046     		mov	r0, r4
 2168 002a FFF7FEFF 		bl	_sdc_wait_for_transfer_state
 2169              	.LVL138:
 2170              		.loc 1 94 6 view .LVU543
 2171 002e 0028     		cmp	r0, #0
 2172 0030 36D1     		bne	.L186
 2173              		.loc 1 98 3 is_stmt 1 view .LVU544
 2174 0032 636C     		ldr	r3, [r4, #68]
 2175              		.loc 1 104 21 is_stmt 0 view .LVU545
 2176 0034 2449     		ldr	r1, .L189+8
 2177              		.loc 1 98 3 view .LVU546
 2178 0036 1B68     		ldr	r3, [r3]
 2179 0038 DF60     		str	r7, [r3, #12]
 2180              		.loc 1 98 38 is_stmt 1 view .LVU547
 2181              		.loc 1 99 3 view .LVU548
 2182 003a 636C     		ldr	r3, [r4, #68]
 2183 003c 1B68     		ldr	r3, [r3]
 2184 003e AA08     		lsrs	r2, r5, #2
 2185 0040 5A60     		str	r2, [r3, #4]
 2186              		.loc 1 99 68 view .LVU549
 2187              		.loc 1 100 3 view .LVU550
 2188 0042 D4E91023 		ldrd	r2, r3, [r4, #64]
 2189 0046 1B68     		ldr	r3, [r3]
 2190 0048 1A60     		str	r2, [r3]
 2191              		.loc 1 100 68 view .LVU551
 2192              		.loc 1 101 3 view .LVU552
 2193 004a 636C     		ldr	r3, [r4, #68]
 2194 004c 1A68     		ldr	r2, [r3]
 2195 004e 1368     		ldr	r3, [r2]
 2196 0050 43F00103 		orr	r3, r3, #1
 2197 0054 1360     		str	r3, [r2]
 2198              		.loc 1 101 29 view .LVU553
 2199              		.loc 1 104 3 view .LVU554
 2200              		.loc 1 104 7 is_stmt 0 view .LVU555
 2201 0056 A36C     		ldr	r3, [r4, #72]
 2202              		.loc 1 104 21 view .LVU556
 2203 0058 9963     		str	r1, [r3, #56]
 2204              		.loc 1 105 3 is_stmt 1 view .LVU557
 2205              		.loc 1 105 7 is_stmt 0 view .LVU558
 2206 005a A36C     		ldr	r3, [r4, #72]
 2207              		.loc 1 105 21 view .LVU559
 2208 005c 40F22A32 		movw	r2, #810
 2209 0060 DA63     		str	r2, [r3, #60]
 2210              		.loc 1 110 3 is_stmt 1 view .LVU560
 2211              		.loc 1 110 7 is_stmt 0 view .LVU561
 2212 0062 A36C     		ldr	r3, [r4, #72]
 2213              		.loc 1 110 21 view .LVU562
 2214 0064 9D62     		str	r5, [r3, #40]
 2215              		.loc 1 113 3 is_stmt 1 view .LVU563
 2216              		.loc 1 113 7 is_stmt 0 view .LVU564
 2217 0066 A36C     		ldr	r3, [r4, #72]
 2218              		.loc 1 113 21 view .LVU565
 2219 0068 0F20     		movs	r0, #15
 2220              	.LBE240:
 2221              	.LBE243:
 2222              		.loc 1 649 7 view .LVU566
 2223 006a 6D46     		mov	r5, sp
ARM GAS  /tmp/ccDzFi87.s 			page 40


 2224              	.LVL139:
 2225              	.LBB244:
 2226              	.LBB241:
 2227              		.loc 1 113 21 view .LVU567
 2228 006c D862     		str	r0, [r3, #44]
 2229              		.loc 1 118 3 is_stmt 1 view .LVU568
 2230              	.LVL140:
 2231              		.loc 1 118 3 is_stmt 0 view .LVU569
 2232              	.LBE241:
 2233              	.LBE244:
 2234              		.loc 1 649 3 is_stmt 1 view .LVU570
 2235              		.loc 1 649 7 is_stmt 0 view .LVU571
 2236 006e 4246     		mov	r2, r8
 2237 0070 3146     		mov	r1, r6
 2238 0072 2B46     		mov	r3, r5
 2239 0074 2046     		mov	r0, r4
 2240 0076 FFF7FEFF 		bl	sdc_lld_send_cmd_short_crc
 2241              	.LVL141:
 2242              		.loc 1 649 6 view .LVU572
 2243 007a 18B9     		cbnz	r0, .L182
 2244              		.loc 1 650 37 view .LVU573
 2245 007c 009A     		ldr	r2, [sp]
 2246 007e 134B     		ldr	r3, .L189+12
 2247 0080 1340     		ands	r3, r3, r2
 2248              		.loc 1 650 34 view .LVU574
 2249 0082 9BB1     		cbz	r3, .L187
 2250              	.L182:
 2251              	.LDL1:
 2252              		.loc 1 659 3 is_stmt 1 view .LVU575
 2253 0084 2046     		mov	r0, r4
 2254 0086 2A46     		mov	r2, r5
 2255 0088 0121     		movs	r1, #1
 2256 008a FFF7FEFF 		bl	sdc_lld_error_cleanup
 2257              	.LVL142:
 2258              		.loc 1 660 3 view .LVU576
 2259              		.loc 1 660 10 is_stmt 0 view .LVU577
 2260 008e 0120     		movs	r0, #1
 2261              	.L181:
 2262              		.loc 1 661 1 view .LVU578
 2263 0090 0B4B     		ldr	r3, .L189
 2264 0092 1A68     		ldr	r2, [r3]
 2265 0094 019B     		ldr	r3, [sp, #4]
 2266 0096 5A40     		eors	r2, r3, r2
 2267 0098 10D1     		bne	.L188
 2268 009a 02B0     		add	sp, sp, #8
 2269              		.cfi_remember_state
 2270              		.cfi_def_cfa_offset 24
 2271              		@ sp needed
 2272 009c BDE8F081 		pop	{r4, r5, r6, r7, r8, pc}
 2273              	.LVL143:
 2274              	.L186:
 2275              		.cfi_restore_state
 2276              		.loc 1 661 1 view .LVU579
 2277 00a0 6D46     		mov	r5, sp
 2278              	.LVL144:
 2279              		.loc 1 661 1 view .LVU580
 2280 00a2 EFE7     		b	.L182
ARM GAS  /tmp/ccDzFi87.s 			page 41


 2281              	.LVL145:
 2282              	.L185:
 2283              	.LBB245:
 2284              	.LBB242:
 2285              		.loc 1 89 3 is_stmt 1 view .LVU581
 2286 00a4 0A48     		ldr	r0, .L189+16
 2287              	.LVL146:
 2288              		.loc 1 89 3 is_stmt 0 view .LVU582
 2289 00a6 FFF7FEFF 		bl	chSysHalt
 2290              	.LVL147:
 2291              		.loc 1 89 3 view .LVU583
 2292 00aa BAE7     		b	.L179
 2293              	.LVL148:
 2294              	.L187:
 2295              		.loc 1 89 3 view .LVU584
 2296              	.LBE242:
 2297              	.LBE245:
 2298              		.loc 1 653 3 is_stmt 1 view .LVU585
 2299              		.loc 1 653 7 is_stmt 0 view .LVU586
 2300 00ac 2A46     		mov	r2, r5
 2301 00ae 0121     		movs	r1, #1
 2302 00b0 2046     		mov	r0, r4
 2303 00b2 FFF7FEFF 		bl	sdc_lld_wait_transaction_end
 2304              	.LVL149:
 2305              		.loc 1 653 6 view .LVU587
 2306 00b6 0028     		cmp	r0, #0
 2307 00b8 EAD0     		beq	.L181
 2308 00ba E3E7     		b	.L182
 2309              	.L188:
 2310              		.loc 1 661 1 view .LVU588
 2311 00bc FFF7FEFF 		bl	__stack_chk_fail
 2312              	.LVL150:
 2313              	.L190:
 2314              		.align	2
 2315              	.L189:
 2316 00c0 00000000 		.word	.LC15
 2317 00c4 C0270900 		.word	600000
 2318 00c8 FF07C000 		.word	12584959
 2319 00cc 08E0FFFD 		.word	-33562616
 2320 00d0 00000000 		.word	.LANCHOR4
 2321              		.cfi_endproc
 2322              	.LFE274:
 2323              		.size	sdc_lld_read_special, .-sdc_lld_read_special
 2324              		.section	.rodata.sdc_lld_read_aligned.cst4,"aM",%progbits,4
 2325              		.align	2
 2326              	.LC16:
 2327 0000 00000000 		.word	__stack_chk_guard
 2328              		.section	.text.sdc_lld_read_aligned,"ax",%progbits
 2329              		.align	1
 2330              		.p2align 4,,15
 2331              		.global	sdc_lld_read_aligned
 2332              		.syntax unified
 2333              		.thumb
 2334              		.thumb_func
 2335              		.fpu fpv4-sp-d16
 2336              		.type	sdc_lld_read_aligned, %function
 2337              	sdc_lld_read_aligned:
ARM GAS  /tmp/ccDzFi87.s 			page 42


 2338              	.LVL151:
 2339              	.LFB275:
 2340              		.loc 1 678 58 is_stmt 1 view -0
 2341              		.cfi_startproc
 2342              		@ args = 0, pretend = 0, frame = 8
 2343              		@ frame_needed = 0, uses_anonymous_args = 0
 2344              		.loc 1 678 58 is_stmt 0 view .LVU590
 2345 0000 F0B5     		push	{r4, r5, r6, r7, lr}
 2346              		.cfi_def_cfa_offset 20
 2347              		.cfi_offset 4, -20
 2348              		.cfi_offset 5, -16
 2349              		.cfi_offset 6, -12
 2350              		.cfi_offset 7, -8
 2351              		.cfi_offset 14, -4
 2352 0002 1D46     		mov	r5, r3
 2353 0004 324B     		ldr	r3, .L206
 2354              	.LVL152:
 2355              		.loc 1 678 58 view .LVU591
 2356 0006 83B0     		sub	sp, sp, #12
 2357              		.cfi_def_cfa_offset 32
 2358              		.loc 1 681 3 view .LVU592
 2359 0008 B5F5004F 		cmp	r5, #32768
 2360              		.loc 1 678 58 view .LVU593
 2361 000c 0446     		mov	r4, r0
 2362 000e 0E46     		mov	r6, r1
 2363 0010 1746     		mov	r7, r2
 2364 0012 1B68     		ldr	r3, [r3]
 2365 0014 0193     		str	r3, [sp, #4]
 2366 0016 4FF00003 		mov	r3,#0
 2367              		.loc 1 679 3 is_stmt 1 view .LVU594
 2368              		.loc 1 681 3 view .LVU595
 2369              		.loc 1 681 3 view .LVU596
 2370              		.loc 1 681 3 view .LVU597
 2371 001a 4BD2     		bcs	.L203
 2372              	.LVL153:
 2373              	.L192:
 2374              		.loc 1 681 3 discriminator 5 view .LVU598
 2375              		.loc 1 683 3 discriminator 5 view .LVU599
 2376              		.loc 1 683 7 is_stmt 0 discriminator 5 view .LVU600
 2377 001c A36C     		ldr	r3, [r4, #72]
 2378              		.loc 1 683 22 discriminator 5 view .LVU601
 2379 001e 2D49     		ldr	r1, .L206+4
 2380 0020 5962     		str	r1, [r3, #36]
 2381              		.loc 1 686 3 is_stmt 1 discriminator 5 view .LVU602
 2382              		.loc 1 686 7 is_stmt 0 discriminator 5 view .LVU603
 2383 0022 2046     		mov	r0, r4
 2384 0024 FFF7FEFF 		bl	_sdc_wait_for_transfer_state
 2385              	.LVL154:
 2386              		.loc 1 686 6 discriminator 5 view .LVU604
 2387 0028 30B1     		cbz	r0, .L204
 2388              	.LVL155:
 2389              	.L193:
 2390              		.loc 1 723 1 view .LVU605
 2391 002a 294B     		ldr	r3, .L206
 2392 002c 1A68     		ldr	r2, [r3]
 2393 002e 019B     		ldr	r3, [sp, #4]
 2394 0030 5A40     		eors	r2, r3, r2
ARM GAS  /tmp/ccDzFi87.s 			page 43


 2395 0032 4AD1     		bne	.L205
 2396 0034 03B0     		add	sp, sp, #12
 2397              		.cfi_remember_state
 2398              		.cfi_def_cfa_offset 20
 2399              		@ sp needed
 2400 0036 F0BD     		pop	{r4, r5, r6, r7, pc}
 2401              	.LVL156:
 2402              	.L204:
 2403              		.cfi_restore_state
 2404              	.LBB250:
 2405              	.LBI250:
 2406              		.loc 1 677 6 is_stmt 1 view .LVU606
 2407              	.LBB251:
 2408              		.loc 1 690 3 view .LVU607
 2409 0038 636C     		ldr	r3, [r4, #68]
 2410              		.loc 1 697 21 is_stmt 0 view .LVU608
 2411 003a 2748     		ldr	r0, .L206+8
 2412              		.loc 1 690 3 view .LVU609
 2413 003c 1B68     		ldr	r3, [r3]
 2414 003e DF60     		str	r7, [r3, #12]
 2415              		.loc 1 690 38 is_stmt 1 view .LVU610
 2416              		.loc 1 691 3 view .LVU611
 2417 0040 626C     		ldr	r2, [r4, #68]
 2418 0042 6B02     		lsls	r3, r5, #9
 2419 0044 1268     		ldr	r2, [r2]
 2420 0046 9908     		lsrs	r1, r3, #2
 2421 0048 5160     		str	r1, [r2, #4]
 2422              		.loc 1 692 79 view .LVU612
 2423              		.loc 1 693 3 view .LVU613
 2424 004a D4E91012 		ldrd	r1, r2, [r4, #64]
 2425 004e 1268     		ldr	r2, [r2]
 2426 0050 1160     		str	r1, [r2]
 2427              		.loc 1 693 68 view .LVU614
 2428              		.loc 1 694 3 view .LVU615
 2429 0052 626C     		ldr	r2, [r4, #68]
 2430 0054 1168     		ldr	r1, [r2]
 2431 0056 0A68     		ldr	r2, [r1]
 2432 0058 42F00102 		orr	r2, r2, #1
 2433 005c 0A60     		str	r2, [r1]
 2434              		.loc 1 694 29 view .LVU616
 2435              		.loc 1 697 3 view .LVU617
 2436              		.loc 1 697 7 is_stmt 0 view .LVU618
 2437 005e A26C     		ldr	r2, [r4, #72]
 2438              		.loc 1 697 21 view .LVU619
 2439 0060 9063     		str	r0, [r2, #56]
 2440              		.loc 1 698 3 is_stmt 1 view .LVU620
 2441              		.loc 1 698 7 is_stmt 0 view .LVU621
 2442 0062 A26C     		ldr	r2, [r4, #72]
 2443              		.loc 1 698 21 view .LVU622
 2444 0064 40F22A31 		movw	r1, #810
 2445 0068 D163     		str	r1, [r2, #60]
 2446              		.loc 1 703 3 is_stmt 1 view .LVU623
 2447              		.loc 1 703 7 is_stmt 0 view .LVU624
 2448 006a A26C     		ldr	r2, [r4, #72]
 2449              		.loc 1 703 21 view .LVU625
 2450 006c 9362     		str	r3, [r2, #40]
 2451              		.loc 1 706 3 is_stmt 1 view .LVU626
ARM GAS  /tmp/ccDzFi87.s 			page 44


 2452              		.loc 1 706 7 is_stmt 0 view .LVU627
 2453 006e A36C     		ldr	r3, [r4, #72]
 2454              		.loc 1 706 21 view .LVU628
 2455 0070 9B22     		movs	r2, #155
 2456 0072 DA62     		str	r2, [r3, #44]
 2457              		.loc 1 712 3 is_stmt 1 view .LVU629
 2458              	.LVL157:
 2459              	.LBB252:
 2460              	.LBI252:
 2461              		.loc 1 135 13 view .LVU630
 2462              	.LBB253:
 2463              		.loc 1 140 3 view .LVU631
 2464              		.loc 1 140 24 is_stmt 0 view .LVU632
 2465 0074 236B     		ldr	r3, [r4, #48]
 2466              		.loc 1 140 6 view .LVU633
 2467 0076 DB06     		lsls	r3, r3, #27
 2468              		.loc 1 141 5 is_stmt 1 view .LVU634
 2469              		.loc 1 141 14 is_stmt 0 view .LVU635
 2470 0078 58BF     		it	pl
 2471 007a 7602     		lslpl	r6, r6, #9
 2472              	.LVL158:
 2473              		.loc 1 143 3 is_stmt 1 view .LVU636
 2474              		.loc 1 145 9 is_stmt 0 view .LVU637
 2475 007c 6F46     		mov	r7, sp
 2476              	.LVL159:
 2477              		.loc 1 143 6 view .LVU638
 2478 007e 012D     		cmp	r5, #1
 2479              		.loc 1 145 9 view .LVU639
 2480 0080 3246     		mov	r2, r6
 2481 0082 3B46     		mov	r3, r7
 2482              		.loc 1 143 6 view .LVU640
 2483 0084 1AD9     		bls	.L195
 2484              		.loc 1 145 5 is_stmt 1 view .LVU641
 2485              		.loc 1 145 9 is_stmt 0 view .LVU642
 2486 0086 1221     		movs	r1, #18
 2487 0088 2046     		mov	r0, r4
 2488 008a FFF7FEFF 		bl	sdc_lld_send_cmd_short_crc
 2489              	.LVL160:
 2490              		.loc 1 145 8 view .LVU643
 2491 008e 50B9     		cbnz	r0, .L198
 2492              	.L202:
 2493              		.loc 1 152 55 view .LVU644
 2494 0090 009A     		ldr	r2, [sp]
 2495 0092 124B     		ldr	r3, .L206+12
 2496 0094 1340     		ands	r3, r3, r2
 2497              		.loc 1 152 52 view .LVU645
 2498 0096 33B9     		cbnz	r3, .L198
 2499              	.LVL161:
 2500              		.loc 1 152 52 view .LVU646
 2501              	.LBE253:
 2502              	.LBE252:
 2503              		.loc 1 715 3 is_stmt 1 view .LVU647
 2504              		.loc 1 715 7 is_stmt 0 view .LVU648
 2505 0098 3A46     		mov	r2, r7
 2506 009a 2946     		mov	r1, r5
 2507 009c 2046     		mov	r0, r4
 2508 009e FFF7FEFF 		bl	sdc_lld_wait_transaction_end
ARM GAS  /tmp/ccDzFi87.s 			page 45


 2509              	.LVL162:
 2510              		.loc 1 715 6 view .LVU649
 2511 00a2 0028     		cmp	r0, #0
 2512 00a4 C1D0     		beq	.L193
 2513              	.L198:
 2514              	.LDL2:
 2515              		.loc 1 721 3 is_stmt 1 view .LVU650
 2516 00a6 2046     		mov	r0, r4
 2517 00a8 3A46     		mov	r2, r7
 2518 00aa 2946     		mov	r1, r5
 2519 00ac FFF7FEFF 		bl	sdc_lld_error_cleanup
 2520              	.LVL163:
 2521              		.loc 1 722 3 view .LVU651
 2522              		.loc 1 722 10 is_stmt 0 view .LVU652
 2523 00b0 0120     		movs	r0, #1
 2524 00b2 BAE7     		b	.L193
 2525              	.LVL164:
 2526              	.L203:
 2527              		.loc 1 722 10 view .LVU653
 2528              	.LBE251:
 2529              	.LBE250:
 2530              		.loc 1 681 3 is_stmt 1 discriminator 3 view .LVU654
 2531 00b4 0A48     		ldr	r0, .L206+16
 2532              	.LVL165:
 2533              		.loc 1 681 3 is_stmt 0 discriminator 3 view .LVU655
 2534 00b6 FFF7FEFF 		bl	chSysHalt
 2535              	.LVL166:
 2536              		.loc 1 681 3 discriminator 3 view .LVU656
 2537 00ba AFE7     		b	.L192
 2538              	.LVL167:
 2539              	.L195:
 2540              	.LBB257:
 2541              	.LBB256:
 2542              	.LBB255:
 2543              	.LBB254:
 2544              		.loc 1 151 5 is_stmt 1 view .LVU657
 2545              		.loc 1 151 9 is_stmt 0 view .LVU658
 2546 00bc 1121     		movs	r1, #17
 2547 00be 2046     		mov	r0, r4
 2548 00c0 FFF7FEFF 		bl	sdc_lld_send_cmd_short_crc
 2549              	.LVL168:
 2550              		.loc 1 151 8 view .LVU659
 2551 00c4 0028     		cmp	r0, #0
 2552 00c6 E3D0     		beq	.L202
 2553 00c8 EDE7     		b	.L198
 2554              	.LVL169:
 2555              	.L205:
 2556              		.loc 1 151 8 view .LVU660
 2557              	.LBE254:
 2558              	.LBE255:
 2559              	.LBE256:
 2560              	.LBE257:
 2561              		.loc 1 723 1 view .LVU661
 2562 00ca FFF7FEFF 		bl	__stack_chk_fail
 2563              	.LVL170:
 2564              	.L207:
 2565 00ce 00BF     		.align	2
ARM GAS  /tmp/ccDzFi87.s 			page 46


 2566              	.L206:
 2567 00d0 00000000 		.word	.LC16
 2568 00d4 C0270900 		.word	600000
 2569 00d8 FF07C000 		.word	12584959
 2570 00dc 08E0FFFD 		.word	-33562616
 2571 00e0 00000000 		.word	.LANCHOR5
 2572              		.cfi_endproc
 2573              	.LFE275:
 2574              		.size	sdc_lld_read_aligned, .-sdc_lld_read_aligned
 2575              		.section	.rodata.sdc_lld_write_aligned.cst4,"aM",%progbits,4
 2576              		.align	2
 2577              	.LC17:
 2578 0000 00000000 		.word	__stack_chk_guard
 2579              		.section	.text.sdc_lld_write_aligned,"ax",%progbits
 2580              		.align	1
 2581              		.p2align 4,,15
 2582              		.global	sdc_lld_write_aligned
 2583              		.syntax unified
 2584              		.thumb
 2585              		.thumb_func
 2586              		.fpu fpv4-sp-d16
 2587              		.type	sdc_lld_write_aligned, %function
 2588              	sdc_lld_write_aligned:
 2589              	.LVL171:
 2590              	.LFB276:
 2591              		.loc 1 740 65 is_stmt 1 view -0
 2592              		.cfi_startproc
 2593              		@ args = 0, pretend = 0, frame = 16
 2594              		@ frame_needed = 0, uses_anonymous_args = 0
 2595              		.loc 1 740 65 is_stmt 0 view .LVU663
 2596 0000 F0B5     		push	{r4, r5, r6, r7, lr}
 2597              		.cfi_def_cfa_offset 20
 2598              		.cfi_offset 4, -20
 2599              		.cfi_offset 5, -16
 2600              		.cfi_offset 6, -12
 2601              		.cfi_offset 7, -8
 2602              		.cfi_offset 14, -4
 2603 0002 1D46     		mov	r5, r3
 2604 0004 334B     		ldr	r3, .L223
 2605              	.LVL172:
 2606              		.loc 1 740 65 view .LVU664
 2607 0006 85B0     		sub	sp, sp, #20
 2608              		.cfi_def_cfa_offset 40
 2609              		.loc 1 743 3 view .LVU665
 2610 0008 B5F5004F 		cmp	r5, #32768
 2611              		.loc 1 740 65 view .LVU666
 2612 000c 0446     		mov	r4, r0
 2613 000e 0E46     		mov	r6, r1
 2614 0010 1746     		mov	r7, r2
 2615 0012 1B68     		ldr	r3, [r3]
 2616 0014 0393     		str	r3, [sp, #12]
 2617 0016 4FF00003 		mov	r3,#0
 2618              		.loc 1 741 3 is_stmt 1 view .LVU667
 2619              		.loc 1 743 3 view .LVU668
 2620              		.loc 1 743 3 view .LVU669
 2621              		.loc 1 743 3 view .LVU670
 2622 001a 4ED2     		bcs	.L220
ARM GAS  /tmp/ccDzFi87.s 			page 47


 2623              	.LVL173:
 2624              	.L209:
 2625              		.loc 1 743 3 discriminator 5 view .LVU671
 2626              		.loc 1 745 3 discriminator 5 view .LVU672
 2627              		.loc 1 745 7 is_stmt 0 discriminator 5 view .LVU673
 2628 001c A36C     		ldr	r3, [r4, #72]
 2629              		.loc 1 745 22 discriminator 5 view .LVU674
 2630 001e 2E49     		ldr	r1, .L223+4
 2631 0020 5962     		str	r1, [r3, #36]
 2632              		.loc 1 748 3 is_stmt 1 discriminator 5 view .LVU675
 2633              		.loc 1 748 7 is_stmt 0 discriminator 5 view .LVU676
 2634 0022 2046     		mov	r0, r4
 2635 0024 FFF7FEFF 		bl	_sdc_wait_for_transfer_state
 2636              	.LVL174:
 2637              		.loc 1 748 6 discriminator 5 view .LVU677
 2638 0028 30B1     		cbz	r0, .L221
 2639              	.LVL175:
 2640              	.L210:
 2641              		.loc 1 785 1 view .LVU678
 2642 002a 2A4B     		ldr	r3, .L223
 2643 002c 1A68     		ldr	r2, [r3]
 2644 002e 039B     		ldr	r3, [sp, #12]
 2645 0030 5A40     		eors	r2, r3, r2
 2646 0032 4DD1     		bne	.L222
 2647 0034 05B0     		add	sp, sp, #20
 2648              		.cfi_remember_state
 2649              		.cfi_def_cfa_offset 20
 2650              		@ sp needed
 2651 0036 F0BD     		pop	{r4, r5, r6, r7, pc}
 2652              	.LVL176:
 2653              	.L221:
 2654              		.cfi_restore_state
 2655              	.LBB262:
 2656              	.LBI262:
 2657              		.loc 1 739 6 is_stmt 1 view .LVU679
 2658              	.LBB263:
 2659              		.loc 1 752 3 view .LVU680
 2660 0038 636C     		ldr	r3, [r4, #68]
 2661              		.loc 1 759 21 is_stmt 0 view .LVU681
 2662 003a 2848     		ldr	r0, .L223+8
 2663              		.loc 1 752 3 view .LVU682
 2664 003c 1B68     		ldr	r3, [r3]
 2665 003e DF60     		str	r7, [r3, #12]
 2666              		.loc 1 752 38 is_stmt 1 view .LVU683
 2667              		.loc 1 753 3 view .LVU684
 2668 0040 626C     		ldr	r2, [r4, #68]
 2669 0042 6B02     		lsls	r3, r5, #9
 2670 0044 1268     		ldr	r2, [r2]
 2671 0046 9908     		lsrs	r1, r3, #2
 2672 0048 5160     		str	r1, [r2, #4]
 2673              		.loc 1 754 78 view .LVU685
 2674              		.loc 1 755 3 view .LVU686
 2675 004a D4E91021 		ldrd	r2, r1, [r4, #64]
 2676 004e 0968     		ldr	r1, [r1]
 2677 0050 42F04002 		orr	r2, r2, #64
 2678 0054 0A60     		str	r2, [r1]
 2679              		.loc 1 755 68 view .LVU687
ARM GAS  /tmp/ccDzFi87.s 			page 48


 2680              		.loc 1 756 3 view .LVU688
 2681 0056 626C     		ldr	r2, [r4, #68]
 2682 0058 1168     		ldr	r1, [r2]
 2683 005a 0A68     		ldr	r2, [r1]
 2684 005c 42F00102 		orr	r2, r2, #1
 2685 0060 0A60     		str	r2, [r1]
 2686              		.loc 1 756 29 view .LVU689
 2687              		.loc 1 759 3 view .LVU690
 2688              		.loc 1 759 7 is_stmt 0 view .LVU691
 2689 0062 A26C     		ldr	r2, [r4, #72]
 2690              		.loc 1 759 21 view .LVU692
 2691 0064 9063     		str	r0, [r2, #56]
 2692              		.loc 1 760 3 is_stmt 1 view .LVU693
 2693              		.loc 1 760 7 is_stmt 0 view .LVU694
 2694 0066 A26C     		ldr	r2, [r4, #72]
 2695              		.loc 1 760 21 view .LVU695
 2696 0068 40F21A31 		movw	r1, #794
 2697 006c D163     		str	r1, [r2, #60]
 2698              		.loc 1 765 3 is_stmt 1 view .LVU696
 2699              		.loc 1 765 7 is_stmt 0 view .LVU697
 2700 006e A26C     		ldr	r2, [r4, #72]
 2701              		.loc 1 765 21 view .LVU698
 2702 0070 9362     		str	r3, [r2, #40]
 2703              		.loc 1 768 3 is_stmt 1 view .LVU699
 2704              	.LVL177:
 2705              	.LBB264:
 2706              	.LBI264:
 2707              		.loc 1 173 13 view .LVU700
 2708              	.LBB265:
 2709              		.loc 1 178 3 view .LVU701
 2710              		.loc 1 178 24 is_stmt 0 view .LVU702
 2711 0072 236B     		ldr	r3, [r4, #48]
 2712              		.loc 1 178 6 view .LVU703
 2713 0074 DB06     		lsls	r3, r3, #27
 2714              		.loc 1 179 5 is_stmt 1 view .LVU704
 2715              		.loc 1 179 14 is_stmt 0 view .LVU705
 2716 0076 58BF     		it	pl
 2717 0078 7602     		lslpl	r6, r6, #9
 2718              	.LVL178:
 2719              		.loc 1 181 3 is_stmt 1 view .LVU706
 2720              		.loc 1 183 9 is_stmt 0 view .LVU707
 2721 007a 02AF     		add	r7, sp, #8
 2722              	.LVL179:
 2723              		.loc 1 181 6 view .LVU708
 2724 007c 012D     		cmp	r5, #1
 2725              		.loc 1 183 9 view .LVU709
 2726 007e 3246     		mov	r2, r6
 2727 0080 3B46     		mov	r3, r7
 2728              		.loc 1 181 6 view .LVU710
 2729 0082 1ED9     		bls	.L212
 2730              		.loc 1 183 5 is_stmt 1 view .LVU711
 2731              		.loc 1 183 9 is_stmt 0 view .LVU712
 2732 0084 1921     		movs	r1, #25
 2733 0086 2046     		mov	r0, r4
 2734 0088 FFF7FEFF 		bl	sdc_lld_send_cmd_short_crc
 2735              	.LVL180:
 2736              		.loc 1 183 8 view .LVU713
ARM GAS  /tmp/ccDzFi87.s 			page 49


 2737 008c 70B9     		cbnz	r0, .L215
 2738              	.L219:
 2739              		.loc 1 190 55 view .LVU714
 2740 008e 029A     		ldr	r2, [sp, #8]
 2741 0090 134B     		ldr	r3, .L223+12
 2742 0092 1340     		ands	r3, r3, r2
 2743              		.loc 1 190 52 view .LVU715
 2744 0094 53B9     		cbnz	r3, .L215
 2745              	.LVL181:
 2746              		.loc 1 190 52 view .LVU716
 2747              	.LBE265:
 2748              	.LBE264:
 2749              		.loc 1 772 3 is_stmt 1 view .LVU717
 2750              		.loc 1 772 7 is_stmt 0 view .LVU718
 2751 0096 A36C     		ldr	r3, [r4, #72]
 2752              		.loc 1 772 21 view .LVU719
 2753 0098 9922     		movs	r2, #153
 2754 009a DA62     		str	r2, [r3, #44]
 2755              		.loc 1 777 3 is_stmt 1 view .LVU720
 2756              		.loc 1 777 7 is_stmt 0 view .LVU721
 2757 009c 2946     		mov	r1, r5
 2758 009e 3A46     		mov	r2, r7
 2759 00a0 2046     		mov	r0, r4
 2760 00a2 FFF7FEFF 		bl	sdc_lld_wait_transaction_end
 2761              	.LVL182:
 2762 00a6 0190     		str	r0, [sp, #4]
 2763              		.loc 1 777 6 view .LVU722
 2764 00a8 0028     		cmp	r0, #0
 2765 00aa BED0     		beq	.L210
 2766              	.L215:
 2767              	.LDL3:
 2768              		.loc 1 783 3 is_stmt 1 view .LVU723
 2769 00ac 2046     		mov	r0, r4
 2770 00ae 3A46     		mov	r2, r7
 2771 00b0 2946     		mov	r1, r5
 2772 00b2 FFF7FEFF 		bl	sdc_lld_error_cleanup
 2773              	.LVL183:
 2774              		.loc 1 784 3 view .LVU724
 2775              		.loc 1 784 10 is_stmt 0 view .LVU725
 2776 00b6 0120     		movs	r0, #1
 2777 00b8 B7E7     		b	.L210
 2778              	.LVL184:
 2779              	.L220:
 2780              		.loc 1 784 10 view .LVU726
 2781              	.LBE263:
 2782              	.LBE262:
 2783              		.loc 1 743 3 is_stmt 1 discriminator 3 view .LVU727
 2784 00ba 0A48     		ldr	r0, .L223+16
 2785              	.LVL185:
 2786              		.loc 1 743 3 is_stmt 0 discriminator 3 view .LVU728
 2787 00bc FFF7FEFF 		bl	chSysHalt
 2788              	.LVL186:
 2789              		.loc 1 743 3 discriminator 3 view .LVU729
 2790 00c0 ACE7     		b	.L209
 2791              	.LVL187:
 2792              	.L212:
 2793              	.LBB269:
ARM GAS  /tmp/ccDzFi87.s 			page 50


 2794              	.LBB268:
 2795              	.LBB267:
 2796              	.LBB266:
 2797              		.loc 1 189 5 is_stmt 1 view .LVU730
 2798              		.loc 1 189 9 is_stmt 0 view .LVU731
 2799 00c2 1821     		movs	r1, #24
 2800 00c4 2046     		mov	r0, r4
 2801 00c6 FFF7FEFF 		bl	sdc_lld_send_cmd_short_crc
 2802              	.LVL188:
 2803              		.loc 1 189 8 view .LVU732
 2804 00ca 0028     		cmp	r0, #0
 2805 00cc DFD0     		beq	.L219
 2806 00ce EDE7     		b	.L215
 2807              	.LVL189:
 2808              	.L222:
 2809              		.loc 1 189 8 view .LVU733
 2810              	.LBE266:
 2811              	.LBE267:
 2812              	.LBE268:
 2813              	.LBE269:
 2814              		.loc 1 785 1 view .LVU734
 2815 00d0 FFF7FEFF 		bl	__stack_chk_fail
 2816              	.LVL190:
 2817              	.L224:
 2818              		.align	2
 2819              	.L223:
 2820 00d4 00000000 		.word	.LC17
 2821 00d8 808D5B00 		.word	6000000
 2822 00dc FF07C000 		.word	12584959
 2823 00e0 08E0FFFD 		.word	-33562616
 2824 00e4 00000000 		.word	.LANCHOR6
 2825              		.cfi_endproc
 2826              	.LFE276:
 2827              		.size	sdc_lld_write_aligned, .-sdc_lld_write_aligned
 2828              		.section	.rodata.sdc_lld_read.cst4,"aM",%progbits,4
 2829              		.align	2
 2830              	.LC18:
 2831 0000 00000000 		.word	__stack_chk_guard
 2832              		.section	.text.sdc_lld_read,"ax",%progbits
 2833              		.align	1
 2834              		.p2align 4,,15
 2835              		.global	sdc_lld_read
 2836              		.syntax unified
 2837              		.thumb
 2838              		.thumb_func
 2839              		.fpu fpv4-sp-d16
 2840              		.type	sdc_lld_read, %function
 2841              	sdc_lld_read:
 2842              	.LVL191:
 2843              	.LFB277:
 2844              		.loc 1 802 50 is_stmt 1 view -0
 2845              		.cfi_startproc
 2846              		@ args = 0, pretend = 0, frame = 8
 2847              		@ frame_needed = 0, uses_anonymous_args = 0
 2848              		.loc 1 802 50 is_stmt 0 view .LVU736
 2849 0000 2DE9F041 		push	{r4, r5, r6, r7, r8, lr}
 2850              		.cfi_def_cfa_offset 24
ARM GAS  /tmp/ccDzFi87.s 			page 51


 2851              		.cfi_offset 4, -24
 2852              		.cfi_offset 5, -20
 2853              		.cfi_offset 6, -16
 2854              		.cfi_offset 7, -12
 2855              		.cfi_offset 8, -8
 2856              		.cfi_offset 14, -4
 2857 0004 1D4C     		ldr	r4, .L237
 2858 0006 82B0     		sub	sp, sp, #8
 2859              		.cfi_def_cfa_offset 32
 2860              		.loc 1 802 50 view .LVU737
 2861 0008 2468     		ldr	r4, [r4]
 2862 000a 0194     		str	r4, [sp, #4]
 2863 000c 4FF00004 		mov	r4,#0
 2864              		.loc 1 805 3 is_stmt 1 view .LVU738
 2865              		.loc 1 805 6 is_stmt 0 view .LVU739
 2866 0010 9407     		lsls	r4, r2, #30
 2867 0012 27D0     		beq	.L226
 2868              	.LVL192:
 2869              	.LBB270:
 2870              		.loc 1 807 17 is_stmt 1 view .LVU740
 2871 0014 1F46     		mov	r7, r3
 2872              		.loc 1 807 5 is_stmt 0 view .LVU741
 2873 0016 1BB3     		cbz	r3, .L230
 2874 0018 1646     		mov	r6, r2
 2875 001a C1EBC152 		rsb	r2, r1, r1, lsl #23
 2876              	.LVL193:
 2877              		.loc 1 808 11 view .LVU742
 2878 001e 184D     		ldr	r5, .L237+4
 2879 0020 8046     		mov	r8, r0
 2880 0022 0C46     		mov	r4, r1
 2881 0024 0F44     		add	r7, r7, r1
 2882 0026 06EB4226 		add	r6, r6, r2, lsl #9
 2883              	.LVL194:
 2884              		.loc 1 808 11 view .LVU743
 2885 002a 09E0     		b	.L229
 2886              	.LVL195:
 2887              	.L236:
 2888              		.loc 1 810 7 is_stmt 1 discriminator 2 view .LVU744
 2889 002c 06EB4420 		add	r0, r6, r4, lsl #9
 2890 0030 4FF40072 		mov	r2, #512
 2891 0034 2946     		mov	r1, r5
 2892              		.loc 1 812 15 is_stmt 0 discriminator 2 view .LVU745
 2893 0036 0134     		adds	r4, r4, #1
 2894              	.LVL196:
 2895              		.loc 1 810 7 discriminator 2 view .LVU746
 2896 0038 FFF7FEFF 		bl	memcpy
 2897              	.LVL197:
 2898              		.loc 1 811 7 is_stmt 1 discriminator 2 view .LVU747
 2899              		.loc 1 812 7 discriminator 2 view .LVU748
 2900              		.loc 1 807 29 discriminator 2 view .LVU749
 2901              		.loc 1 807 17 discriminator 2 view .LVU750
 2902              		.loc 1 807 5 is_stmt 0 discriminator 2 view .LVU751
 2903 003c A742     		cmp	r7, r4
 2904 003e 0FD0     		beq	.L230
 2905              	.LVL198:
 2906              	.L229:
 2907              		.loc 1 808 7 is_stmt 1 view .LVU752
ARM GAS  /tmp/ccDzFi87.s 			page 52


 2908              		.loc 1 808 11 is_stmt 0 view .LVU753
 2909 0040 0123     		movs	r3, #1
 2910 0042 2A46     		mov	r2, r5
 2911 0044 2146     		mov	r1, r4
 2912 0046 4046     		mov	r0, r8
 2913 0048 FFF7FEFF 		bl	sdc_lld_read_aligned
 2914              	.LVL199:
 2915              		.loc 1 808 10 view .LVU754
 2916 004c 0028     		cmp	r0, #0
 2917 004e EDD0     		beq	.L236
 2918              	.LVL200:
 2919              	.L228:
 2920              		.loc 1 808 10 view .LVU755
 2921              	.LBE270:
 2922              		.loc 1 818 1 view .LVU756
 2923 0050 0A4B     		ldr	r3, .L237
 2924 0052 1A68     		ldr	r2, [r3]
 2925 0054 019B     		ldr	r3, [sp, #4]
 2926 0056 5A40     		eors	r2, r3, r2
 2927 0058 0ED1     		bne	.L235
 2928 005a 02B0     		add	sp, sp, #8
 2929              		.cfi_remember_state
 2930              		.cfi_def_cfa_offset 24
 2931              		@ sp needed
 2932 005c BDE8F081 		pop	{r4, r5, r6, r7, r8, pc}
 2933              	.L230:
 2934              		.cfi_restore_state
 2935              	.LBB271:
 2936              		.loc 1 814 12 view .LVU757
 2937 0060 0020     		movs	r0, #0
 2938 0062 F5E7     		b	.L228
 2939              	.LVL201:
 2940              	.L226:
 2941              		.loc 1 814 12 view .LVU758
 2942              	.LBE271:
 2943              		.loc 1 817 3 is_stmt 1 view .LVU759
 2944              		.loc 1 817 10 is_stmt 0 view .LVU760
 2945 0064 054C     		ldr	r4, .L237
 2946 0066 2568     		ldr	r5, [r4]
 2947 0068 019C     		ldr	r4, [sp, #4]
 2948 006a 6540     		eors	r5, r4, r5
 2949 006c 04D1     		bne	.L235
 2950              		.loc 1 818 1 view .LVU761
 2951 006e 02B0     		add	sp, sp, #8
 2952              		.cfi_remember_state
 2953              		.cfi_def_cfa_offset 24
 2954              		@ sp needed
 2955 0070 BDE8F041 		pop	{r4, r5, r6, r7, r8, lr}
 2956              		.cfi_restore 14
 2957              		.cfi_restore 8
 2958              		.cfi_restore 7
 2959              		.cfi_restore 6
 2960              		.cfi_restore 5
 2961              		.cfi_restore 4
 2962              		.cfi_def_cfa_offset 0
 2963              		.loc 1 817 10 view .LVU762
 2964 0074 FFF7FEBF 		b	sdc_lld_read_aligned
ARM GAS  /tmp/ccDzFi87.s 			page 53


 2965              	.LVL202:
 2966              	.L235:
 2967              		.cfi_restore_state
 2968              		.loc 1 818 1 view .LVU763
 2969 0078 FFF7FEFF 		bl	__stack_chk_fail
 2970              	.LVL203:
 2971              	.L238:
 2972              		.align	2
 2973              	.L237:
 2974 007c 00000000 		.word	.LC18
 2975 0080 00000000 		.word	.LANCHOR7
 2976              		.cfi_endproc
 2977              	.LFE277:
 2978              		.size	sdc_lld_read, .-sdc_lld_read
 2979              		.section	.rodata.sdc_lld_write.cst4,"aM",%progbits,4
 2980              		.align	2
 2981              	.LC19:
 2982 0000 00000000 		.word	__stack_chk_guard
 2983              		.section	.text.sdc_lld_write,"ax",%progbits
 2984              		.align	1
 2985              		.p2align 4,,15
 2986              		.global	sdc_lld_write
 2987              		.syntax unified
 2988              		.thumb
 2989              		.thumb_func
 2990              		.fpu fpv4-sp-d16
 2991              		.type	sdc_lld_write, %function
 2992              	sdc_lld_write:
 2993              	.LVL204:
 2994              	.LFB278:
 2995              		.loc 1 835 57 is_stmt 1 view -0
 2996              		.cfi_startproc
 2997              		@ args = 0, pretend = 0, frame = 8
 2998              		@ frame_needed = 0, uses_anonymous_args = 0
 2999              		.loc 1 835 57 is_stmt 0 view .LVU765
 3000 0000 2DE9F041 		push	{r4, r5, r6, r7, r8, lr}
 3001              		.cfi_def_cfa_offset 24
 3002              		.cfi_offset 4, -24
 3003              		.cfi_offset 5, -20
 3004              		.cfi_offset 6, -16
 3005              		.cfi_offset 7, -12
 3006              		.cfi_offset 8, -8
 3007              		.cfi_offset 14, -4
 3008 0004 1D4C     		ldr	r4, .L251
 3009 0006 82B0     		sub	sp, sp, #8
 3010              		.cfi_def_cfa_offset 32
 3011              		.loc 1 835 57 view .LVU766
 3012 0008 2468     		ldr	r4, [r4]
 3013 000a 0194     		str	r4, [sp, #4]
 3014 000c 4FF00004 		mov	r4,#0
 3015              		.loc 1 838 3 is_stmt 1 view .LVU767
 3016              		.loc 1 838 6 is_stmt 0 view .LVU768
 3017 0010 9407     		lsls	r4, r2, #30
 3018 0012 27D0     		beq	.L240
 3019              	.LVL205:
 3020              	.LBB272:
 3021              		.loc 1 840 17 is_stmt 1 view .LVU769
ARM GAS  /tmp/ccDzFi87.s 			page 54


 3022 0014 1F46     		mov	r7, r3
 3023              		.loc 1 840 5 is_stmt 0 view .LVU770
 3024 0016 1BB3     		cbz	r3, .L244
 3025 0018 1646     		mov	r6, r2
 3026 001a C1EBC152 		rsb	r2, r1, r1, lsl #23
 3027              	.LVL206:
 3028              		.loc 1 841 7 view .LVU771
 3029 001e 184D     		ldr	r5, .L251+4
 3030 0020 8046     		mov	r8, r0
 3031 0022 0C46     		mov	r4, r1
 3032 0024 0F44     		add	r7, r7, r1
 3033 0026 06EB4226 		add	r6, r6, r2, lsl #9
 3034              	.LVL207:
 3035              		.loc 1 841 7 view .LVU772
 3036 002a 02E0     		b	.L243
 3037              	.LVL208:
 3038              	.L250:
 3039              		.loc 1 845 7 is_stmt 1 discriminator 2 view .LVU773
 3040              		.loc 1 845 15 is_stmt 0 discriminator 2 view .LVU774
 3041 002c 0134     		adds	r4, r4, #1
 3042              	.LVL209:
 3043              		.loc 1 840 29 is_stmt 1 discriminator 2 view .LVU775
 3044              		.loc 1 840 17 discriminator 2 view .LVU776
 3045              		.loc 1 840 5 is_stmt 0 discriminator 2 view .LVU777
 3046 002e A742     		cmp	r7, r4
 3047 0030 16D0     		beq	.L244
 3048              	.LVL210:
 3049              	.L243:
 3050              		.loc 1 841 7 is_stmt 1 view .LVU778
 3051 0032 4FF40072 		mov	r2, #512
 3052 0036 06EB4421 		add	r1, r6, r4, lsl #9
 3053 003a 2846     		mov	r0, r5
 3054 003c FFF7FEFF 		bl	memcpy
 3055              	.LVL211:
 3056              		.loc 1 842 7 view .LVU779
 3057              		.loc 1 843 7 view .LVU780
 3058              		.loc 1 843 11 is_stmt 0 view .LVU781
 3059 0040 0123     		movs	r3, #1
 3060 0042 2A46     		mov	r2, r5
 3061 0044 2146     		mov	r1, r4
 3062 0046 4046     		mov	r0, r8
 3063 0048 FFF7FEFF 		bl	sdc_lld_write_aligned
 3064              	.LVL212:
 3065              		.loc 1 843 10 view .LVU782
 3066 004c 0028     		cmp	r0, #0
 3067 004e EDD0     		beq	.L250
 3068              	.LVL213:
 3069              	.L242:
 3070              		.loc 1 843 10 view .LVU783
 3071              	.LBE272:
 3072              		.loc 1 851 1 view .LVU784
 3073 0050 0A4B     		ldr	r3, .L251
 3074 0052 1A68     		ldr	r2, [r3]
 3075 0054 019B     		ldr	r3, [sp, #4]
 3076 0056 5A40     		eors	r2, r3, r2
 3077 0058 0ED1     		bne	.L249
 3078 005a 02B0     		add	sp, sp, #8
ARM GAS  /tmp/ccDzFi87.s 			page 55


 3079              		.cfi_remember_state
 3080              		.cfi_def_cfa_offset 24
 3081              		@ sp needed
 3082 005c BDE8F081 		pop	{r4, r5, r6, r7, r8, pc}
 3083              	.L244:
 3084              		.cfi_restore_state
 3085              	.LBB273:
 3086              		.loc 1 847 12 view .LVU785
 3087 0060 0020     		movs	r0, #0
 3088 0062 F5E7     		b	.L242
 3089              	.LVL214:
 3090              	.L240:
 3091              		.loc 1 847 12 view .LVU786
 3092              	.LBE273:
 3093              		.loc 1 850 3 is_stmt 1 view .LVU787
 3094              		.loc 1 850 10 is_stmt 0 view .LVU788
 3095 0064 054C     		ldr	r4, .L251
 3096 0066 2568     		ldr	r5, [r4]
 3097 0068 019C     		ldr	r4, [sp, #4]
 3098 006a 6540     		eors	r5, r4, r5
 3099 006c 04D1     		bne	.L249
 3100              		.loc 1 851 1 view .LVU789
 3101 006e 02B0     		add	sp, sp, #8
 3102              		.cfi_remember_state
 3103              		.cfi_def_cfa_offset 24
 3104              		@ sp needed
 3105 0070 BDE8F041 		pop	{r4, r5, r6, r7, r8, lr}
 3106              		.cfi_restore 14
 3107              		.cfi_restore 8
 3108              		.cfi_restore 7
 3109              		.cfi_restore 6
 3110              		.cfi_restore 5
 3111              		.cfi_restore 4
 3112              		.cfi_def_cfa_offset 0
 3113              		.loc 1 850 10 view .LVU790
 3114 0074 FFF7FEBF 		b	sdc_lld_write_aligned
 3115              	.LVL215:
 3116              	.L249:
 3117              		.cfi_restore_state
 3118              		.loc 1 851 1 view .LVU791
 3119 0078 FFF7FEFF 		bl	__stack_chk_fail
 3120              	.LVL216:
 3121              	.L252:
 3122              		.align	2
 3123              	.L251:
 3124 007c 00000000 		.word	.LC19
 3125 0080 00000000 		.word	.LANCHOR7
 3126              		.cfi_endproc
 3127              	.LFE278:
 3128              		.size	sdc_lld_write, .-sdc_lld_write
 3129              		.section	.rodata.sdc_lld_sync.cst4,"aM",%progbits,4
 3130              		.align	2
 3131              	.LC20:
 3132 0000 00000000 		.word	__stack_chk_guard
 3133              		.section	.text.sdc_lld_sync,"ax",%progbits
 3134              		.align	1
 3135              		.p2align 4,,15
ARM GAS  /tmp/ccDzFi87.s 			page 56


 3136              		.global	sdc_lld_sync
 3137              		.syntax unified
 3138              		.thumb
 3139              		.thumb_func
 3140              		.fpu fpv4-sp-d16
 3141              		.type	sdc_lld_sync, %function
 3142              	sdc_lld_sync:
 3143              	.LVL217:
 3144              	.LFB279:
 3145              		.loc 1 864 36 is_stmt 1 view -0
 3146              		.cfi_startproc
 3147              		@ args = 0, pretend = 0, frame = 8
 3148              		@ frame_needed = 0, uses_anonymous_args = 0
 3149              		.loc 1 864 36 is_stmt 0 view .LVU793
 3150 0000 00B5     		push	{lr}
 3151              		.cfi_def_cfa_offset 4
 3152              		.cfi_offset 14, -4
 3153 0002 084B     		ldr	r3, .L257
 3154 0004 83B0     		sub	sp, sp, #12
 3155              		.cfi_def_cfa_offset 16
 3156              		.loc 1 864 36 view .LVU794
 3157 0006 1B68     		ldr	r3, [r3]
 3158 0008 0193     		str	r3, [sp, #4]
 3159 000a 4FF00003 		mov	r3,#0
 3160              		.loc 1 867 3 is_stmt 1 view .LVU795
 3161              		.loc 1 868 3 view .LVU796
 3162              		.loc 1 869 1 is_stmt 0 view .LVU797
 3163 000e 054B     		ldr	r3, .L257
 3164 0010 1A68     		ldr	r2, [r3]
 3165 0012 019B     		ldr	r3, [sp, #4]
 3166 0014 5A40     		eors	r2, r3, r2
 3167 0016 03D1     		bne	.L256
 3168 0018 0020     		movs	r0, #0
 3169              	.LVL218:
 3170              		.loc 1 869 1 view .LVU798
 3171 001a 03B0     		add	sp, sp, #12
 3172              		.cfi_remember_state
 3173              		.cfi_def_cfa_offset 4
 3174              		@ sp needed
 3175 001c 5DF804FB 		ldr	pc, [sp], #4
 3176              	.LVL219:
 3177              	.L256:
 3178              		.cfi_restore_state
 3179              		.loc 1 869 1 view .LVU799
 3180 0020 FFF7FEFF 		bl	__stack_chk_fail
 3181              	.LVL220:
 3182              	.L258:
 3183              		.loc 1 869 1 view .LVU800
 3184              		.align	2
 3185              	.L257:
 3186 0024 00000000 		.word	.LC20
 3187              		.cfi_endproc
 3188              	.LFE279:
 3189              		.size	sdc_lld_sync, .-sdc_lld_sync
 3190              		.global	SDCD1
 3191              		.section	.bss.SDCD1,"aw",%nobits
 3192              		.align	2
ARM GAS  /tmp/ccDzFi87.s 			page 57


 3193              		.set	.LANCHOR0,. + 0
 3194              		.type	SDCD1, %object
 3195              		.size	SDCD1, 76
 3196              	SDCD1:
 3197 0000 00000000 		.space	76
 3197      00000000 
 3197      00000000 
 3197      00000000 
 3197      00000000 
 3198              		.section	.bss.u,"aw",%nobits
 3199              		.align	2
 3200              		.set	.LANCHOR7,. + 0
 3201              		.type	u, %object
 3202              		.size	u, 512
 3203              	u:
 3204 0000 00000000 		.space	512
 3204      00000000 
 3204      00000000 
 3204      00000000 
 3204      00000000 
 3205              		.section	.rodata.__func__.10359,"a"
 3206              		.align	2
 3207              		.set	.LANCHOR4,. + 0
 3208              		.type	__func__.10359, %object
 3209              		.size	__func__.10359, 27
 3210              	__func__.10359:
 3211 0000 7364635F 		.ascii	"sdc_lld_prepare_read_bytes\000"
 3211      6C6C645F 
 3211      70726570 
 3211      6172655F 
 3211      72656164 
 3212              		.section	.rodata.__func__.10404,"a"
 3213              		.align	2
 3214              		.set	.LANCHOR2,. + 0
 3215              		.type	__func__.10404, %object
 3216              		.size	__func__.10404, 14
 3217              	__func__.10404:
 3218 0000 7364635F 		.ascii	"sdc_lld_start\000"
 3218      6C6C645F 
 3218      73746172 
 3218      7400
 3219              		.section	.rodata.__func__.10481,"a"
 3220              		.align	2
 3221              		.set	.LANCHOR5,. + 0
 3222              		.type	__func__.10481, %object
 3223              		.size	__func__.10481, 21
 3224              	__func__.10481:
 3225 0000 7364635F 		.ascii	"sdc_lld_read_aligned\000"
 3225      6C6C645F 
 3225      72656164 
 3225      5F616C69 
 3225      676E6564 
 3226              		.section	.rodata.__func__.10490,"a"
 3227              		.align	2
 3228              		.set	.LANCHOR6,. + 0
 3229              		.type	__func__.10490, %object
 3230              		.size	__func__.10490, 22
ARM GAS  /tmp/ccDzFi87.s 			page 58


 3231              	__func__.10490:
 3232 0000 7364635F 		.ascii	"sdc_lld_write_aligned\000"
 3232      6C6C645F 
 3232      77726974 
 3232      655F616C 
 3232      69676E65 
 3233              		.section	.rodata.__func__.7663,"a"
 3234              		.align	2
 3235              		.set	.LANCHOR3,. + 0
 3236              		.type	__func__.7663, %object
 3237              		.size	__func__.7663, 12
 3238              	__func__.7663:
 3239 0000 63685379 		.ascii	"chSysUnlock\000"
 3239      73556E6C 
 3239      6F636B00 
 3240              		.section	.rodata.sdc_default_cfg,"a"
 3241              		.align	2
 3242              		.set	.LANCHOR1,. + 0
 3243              		.type	sdc_default_cfg, %object
 3244              		.size	sdc_default_cfg, 8
 3245              	sdc_default_cfg:
 3246 0000 00000000 		.word	0
 3247 0004 01       		.byte	1
 3248 0005 000000   		.space	3
 3249              		.text
 3250              	.Letext0:
 3251              		.file 6 "/usr/lib/gcc/arm-none-eabi/9.2.1/include/stddef.h"
 3252              		.file 7 "/usr/include/newlib/sys/_types.h"
 3253              		.file 8 "/usr/include/newlib/sys/reent.h"
 3254              		.file 9 "/usr/include/newlib/sys/lock.h"
 3255              		.file 10 "/usr/lib/gcc/arm-none-eabi/9.2.1/include/stdint.h"
 3256              		.file 11 ".//ChibiOS//os/rt/ports/ARMCMx/compilers/GCC/chtypes.h"
 3257              		.file 12 ".//ChibiOS//os/rt/include/chsystypes.h"
 3258              		.file 13 ".//ChibiOS//os/rt/include/chschd.h"
 3259              		.file 14 ".//ChibiOS//os/ext/CMSIS/include/core_cm4.h"
 3260              		.file 15 ".//ChibiOS//os/ext/CMSIS/ST/system_stm32f4xx.h"
 3261              		.file 16 ".//ChibiOS//os/ext/CMSIS/ST/stm32f407xx.h"
 3262              		.file 17 ".//ChibiOS//os/rt/ports/ARMCMx/chcore.h"
 3263              		.file 18 ".//ChibiOS//os/rt/include/chdebug.h"
 3264              		.file 19 ".//ChibiOS//os/rt/include/chtm.h"
 3265              		.file 20 ".//ChibiOS//os/rt/include/chstats.h"
 3266              		.file 21 ".//ChibiOS//os/rt/include/chsem.h"
 3267              		.file 22 ".//ChibiOS//os/rt/include/chmtx.h"
 3268              		.file 23 ".//ChibiOS//os/rt/include/chregistry.h"
 3269              		.file 24 ".//ChibiOS//os/rt/include/chevents.h"
 3270              		.file 25 ".//ChibiOS//os/rt/include/chqueues.h"
 3271              		.file 26 ".//ChibiOS//os/hal/ports/STM32/STM32F4xx/stm32_dma.h"
 3272              		.file 27 ".//ChibiOS//os/hal/include/hal_ioblock.h"
 3273              		.file 28 ".//ChibiOS//os/hal/ports/STM32/LLD/GPIOv2/pal_lld.h"
 3274              		.file 29 ".//ChibiOS//os/hal/include/adc.h"
 3275              		.file 30 ".//ChibiOS//os/hal/ports/STM32/STM32F4xx/adc_lld.h"
 3276              		.file 31 ".//ChibiOS//os/hal/include/can.h"
 3277              		.file 32 ".//ChibiOS//os/hal/ports/STM32/LLD/can_lld.h"
 3278              		.file 33 ".//ChibiOS//os/hal/include/dac.h"
 3279              		.file 34 ".//ChibiOS//os/hal/ports/STM32/LLD/DACv1/dac_lld.h"
 3280              		.file 35 ".//ChibiOS//os/hal/include/ext.h"
 3281              		.file 36 ".//ChibiOS//os/hal/ports/STM32/LLD/ext_lld.h"
ARM GAS  /tmp/ccDzFi87.s 			page 59


 3282              		.file 37 ".//ChibiOS//os/hal/include/gpt.h"
 3283              		.file 38 ".//ChibiOS//os/hal/ports/STM32/LLD/TIMv1/gpt_lld.h"
 3284              		.file 39 ".//ChibiOS//os/hal/ports/STM32/LLD/TIMv1/stm32_tim.h"
 3285              		.file 40 ".//ChibiOS//os/hal/include/i2c.h"
 3286              		.file 41 ".//ChibiOS//os/hal/ports/STM32/LLD/I2Cv1/i2c_lld.h"
 3287              		.file 42 ".//ChibiOS//os/hal/include/i2s.h"
 3288              		.file 43 ".//ChibiOS//os/hal/ports/STM32/LLD/SPIv1/i2s_lld.h"
 3289              		.file 44 ".//ChibiOS//os/hal/include/pwm.h"
 3290              		.file 45 ".//ChibiOS//os/hal/ports/STM32/LLD/TIMv1/pwm_lld.h"
 3291              		.file 46 ".//ChibiOS//os/hal/include/serial.h"
 3292              		.file 47 ".//ChibiOS//os/hal/ports/STM32/LLD/USARTv1/serial_lld.h"
 3293              		.file 48 ".//ChibiOS//os/hal/include/sdc.h"
 3294              		.file 49 ".//ChibiOS//os/hal/ports/STM32/LLD/sdc_lld.h"
 3295              		.file 50 ".//ChibiOS//os/hal/include/spi.h"
 3296              		.file 51 ".//ChibiOS//os/hal/ports/STM32/LLD/SPIv1/spi_lld.h"
 3297              		.file 52 ".//ChibiOS//os/hal/include/usb.h"
 3298              		.file 53 ".//ChibiOS//os/hal/ports/STM32/LLD/OTGv1/usb_lld.h"
 3299              		.file 54 ".//ChibiOS//os/hal/ports/STM32/LLD/OTGv1/stm32_otg.h"
 3300              		.file 55 ".//ChibiOS//os/rt/include/chthreads.h"
 3301              		.file 56 ".//ChibiOS//os/hal/ports/common/ARMCMx/nvic.h"
 3302              		.file 57 "<built-in>"
 3303              		.section	.debug_info,"",%progbits
 3304              	.Ldebug_info0:
 3305 0000 9D580000 		.4byte	0x589d
 3306 0004 0400     		.2byte	0x4
 3307 0006 00000000 		.4byte	.Ldebug_abbrev0
 3308 000a 04       		.byte	0x4
 3309 000b 01       		.uleb128 0x1
 3310 000c A3120000 		.4byte	.LASF908
 3311 0010 0C       		.byte	0xc
 3312 0011 DA160000 		.4byte	.LASF909
 3313 0015 971B0000 		.4byte	.LASF910
 3314 0019 98020000 		.4byte	.Ldebug_ranges0+0x298
 3315 001d 00000000 		.4byte	0
 3316 0021 00000000 		.4byte	.Ldebug_line0
 3317 0025 02       		.uleb128 0x2
 3318 0026 04       		.byte	0x4
 3319 0027 05       		.byte	0x5
 3320 0028 696E7400 		.ascii	"int\000"
 3321 002c 03       		.uleb128 0x3
 3322 002d B90C0000 		.4byte	.LASF3
 3323 0031 06       		.byte	0x6
 3324 0032 D1       		.byte	0xd1
 3325 0033 17       		.byte	0x17
 3326 0034 38000000 		.4byte	0x38
 3327 0038 04       		.uleb128 0x4
 3328 0039 04       		.byte	0x4
 3329 003a 07       		.byte	0x7
 3330 003b 24250000 		.4byte	.LASF0
 3331 003f 04       		.uleb128 0x4
 3332 0040 08       		.byte	0x8
 3333 0041 05       		.byte	0x5
 3334 0042 BC220000 		.4byte	.LASF1
 3335 0046 04       		.uleb128 0x4
 3336 0047 08       		.byte	0x8
 3337 0048 04       		.byte	0x4
 3338 0049 61190000 		.4byte	.LASF2
ARM GAS  /tmp/ccDzFi87.s 			page 60


 3339 004d 05       		.uleb128 0x5
 3340 004e 790E0000 		.4byte	.LASF4
 3341 0052 06       		.byte	0x6
 3342 0053 5E01     		.2byte	0x15e
 3343 0055 17       		.byte	0x17
 3344 0056 38000000 		.4byte	0x38
 3345 005a 04       		.uleb128 0x4
 3346 005b 01       		.byte	0x1
 3347 005c 06       		.byte	0x6
 3348 005d 5B150000 		.4byte	.LASF5
 3349 0061 04       		.uleb128 0x4
 3350 0062 01       		.byte	0x1
 3351 0063 08       		.byte	0x8
 3352 0064 61090000 		.4byte	.LASF6
 3353 0068 04       		.uleb128 0x4
 3354 0069 02       		.byte	0x2
 3355 006a 05       		.byte	0x5
 3356 006b 94250000 		.4byte	.LASF7
 3357 006f 04       		.uleb128 0x4
 3358 0070 02       		.byte	0x2
 3359 0071 07       		.byte	0x7
 3360 0072 40150000 		.4byte	.LASF8
 3361 0076 04       		.uleb128 0x4
 3362 0077 04       		.byte	0x4
 3363 0078 05       		.byte	0x5
 3364 0079 27180000 		.4byte	.LASF9
 3365 007d 04       		.uleb128 0x4
 3366 007e 04       		.byte	0x4
 3367 007f 07       		.byte	0x7
 3368 0080 AA190000 		.4byte	.LASF10
 3369 0084 04       		.uleb128 0x4
 3370 0085 08       		.byte	0x8
 3371 0086 07       		.byte	0x7
 3372 0087 28200000 		.4byte	.LASF11
 3373 008b 03       		.uleb128 0x3
 3374 008c 940C0000 		.4byte	.LASF12
 3375 0090 07       		.byte	0x7
 3376 0091 2E       		.byte	0x2e
 3377 0092 0E       		.byte	0xe
 3378 0093 76000000 		.4byte	0x76
 3379 0097 03       		.uleb128 0x3
 3380 0098 461D0000 		.4byte	.LASF13
 3381 009c 07       		.byte	0x7
 3382 009d 74       		.byte	0x74
 3383 009e 0E       		.byte	0xe
 3384 009f 76000000 		.4byte	0x76
 3385 00a3 06       		.uleb128 0x6
 3386 00a4 04       		.byte	0x4
 3387 00a5 07       		.byte	0x7
 3388 00a6 A5       		.byte	0xa5
 3389 00a7 03       		.byte	0x3
 3390 00a8 C5000000 		.4byte	0xc5
 3391 00ac 07       		.uleb128 0x7
 3392 00ad 7E170000 		.4byte	.LASF14
 3393 00b1 07       		.byte	0x7
 3394 00b2 A7       		.byte	0xa7
 3395 00b3 0C       		.byte	0xc
ARM GAS  /tmp/ccDzFi87.s 			page 61


 3396 00b4 4D000000 		.4byte	0x4d
 3397 00b8 07       		.uleb128 0x7
 3398 00b9 270E0000 		.4byte	.LASF15
 3399 00bd 07       		.byte	0x7
 3400 00be A8       		.byte	0xa8
 3401 00bf 13       		.byte	0x13
 3402 00c0 C5000000 		.4byte	0xc5
 3403 00c4 00       		.byte	0
 3404 00c5 08       		.uleb128 0x8
 3405 00c6 61000000 		.4byte	0x61
 3406 00ca D5000000 		.4byte	0xd5
 3407 00ce 09       		.uleb128 0x9
 3408 00cf 38000000 		.4byte	0x38
 3409 00d3 03       		.byte	0x3
 3410 00d4 00       		.byte	0
 3411 00d5 0A       		.uleb128 0xa
 3412 00d6 08       		.byte	0x8
 3413 00d7 07       		.byte	0x7
 3414 00d8 A2       		.byte	0xa2
 3415 00d9 09       		.byte	0x9
 3416 00da F9000000 		.4byte	0xf9
 3417 00de 0B       		.uleb128 0xb
 3418 00df DD0C0000 		.4byte	.LASF16
 3419 00e3 07       		.byte	0x7
 3420 00e4 A4       		.byte	0xa4
 3421 00e5 07       		.byte	0x7
 3422 00e6 25000000 		.4byte	0x25
 3423 00ea 00       		.byte	0
 3424 00eb 0B       		.uleb128 0xb
 3425 00ec 701E0000 		.4byte	.LASF17
 3426 00f0 07       		.byte	0x7
 3427 00f1 A9       		.byte	0xa9
 3428 00f2 05       		.byte	0x5
 3429 00f3 A3000000 		.4byte	0xa3
 3430 00f7 04       		.byte	0x4
 3431 00f8 00       		.byte	0
 3432 00f9 03       		.uleb128 0x3
 3433 00fa F91D0000 		.4byte	.LASF18
 3434 00fe 07       		.byte	0x7
 3435 00ff AA       		.byte	0xaa
 3436 0100 03       		.byte	0x3
 3437 0101 D5000000 		.4byte	0xd5
 3438 0105 0C       		.uleb128 0xc
 3439 0106 04       		.byte	0x4
 3440 0107 03       		.uleb128 0x3
 3441 0108 84120000 		.4byte	.LASF19
 3442 010c 08       		.byte	0x8
 3443 010d 16       		.byte	0x16
 3444 010e 19       		.byte	0x19
 3445 010f 7D000000 		.4byte	0x7d
 3446 0113 03       		.uleb128 0x3
 3447 0114 DE170000 		.4byte	.LASF20
 3448 0118 09       		.byte	0x9
 3449 0119 0C       		.byte	0xc
 3450 011a 0D       		.byte	0xd
 3451 011b 25000000 		.4byte	0x25
 3452 011f 03       		.uleb128 0x3
ARM GAS  /tmp/ccDzFi87.s 			page 62


 3453 0120 10220000 		.4byte	.LASF21
 3454 0124 08       		.byte	0x8
 3455 0125 23       		.byte	0x23
 3456 0126 1B       		.byte	0x1b
 3457 0127 13010000 		.4byte	0x113
 3458 012b 0D       		.uleb128 0xd
 3459 012c FC1A0000 		.4byte	.LASF26
 3460 0130 18       		.byte	0x18
 3461 0131 08       		.byte	0x8
 3462 0132 34       		.byte	0x34
 3463 0133 08       		.byte	0x8
 3464 0134 85010000 		.4byte	0x185
 3465 0138 0B       		.uleb128 0xb
 3466 0139 EA0F0000 		.4byte	.LASF22
 3467 013d 08       		.byte	0x8
 3468 013e 36       		.byte	0x36
 3469 013f 13       		.byte	0x13
 3470 0140 85010000 		.4byte	0x185
 3471 0144 00       		.byte	0
 3472 0145 0E       		.uleb128 0xe
 3473 0146 5F6B00   		.ascii	"_k\000"
 3474 0149 08       		.byte	0x8
 3475 014a 37       		.byte	0x37
 3476 014b 07       		.byte	0x7
 3477 014c 25000000 		.4byte	0x25
 3478 0150 04       		.byte	0x4
 3479 0151 0B       		.uleb128 0xb
 3480 0152 3E190000 		.4byte	.LASF23
 3481 0156 08       		.byte	0x8
 3482 0157 37       		.byte	0x37
 3483 0158 0B       		.byte	0xb
 3484 0159 25000000 		.4byte	0x25
 3485 015d 08       		.byte	0x8
 3486 015e 0B       		.uleb128 0xb
 3487 015f BE240000 		.4byte	.LASF24
 3488 0163 08       		.byte	0x8
 3489 0164 37       		.byte	0x37
 3490 0165 14       		.byte	0x14
 3491 0166 25000000 		.4byte	0x25
 3492 016a 0C       		.byte	0xc
 3493 016b 0B       		.uleb128 0xb
 3494 016c E0090000 		.4byte	.LASF25
 3495 0170 08       		.byte	0x8
 3496 0171 37       		.byte	0x37
 3497 0172 1B       		.byte	0x1b
 3498 0173 25000000 		.4byte	0x25
 3499 0177 10       		.byte	0x10
 3500 0178 0E       		.uleb128 0xe
 3501 0179 5F7800   		.ascii	"_x\000"
 3502 017c 08       		.byte	0x8
 3503 017d 38       		.byte	0x38
 3504 017e 0B       		.byte	0xb
 3505 017f 8B010000 		.4byte	0x18b
 3506 0183 14       		.byte	0x14
 3507 0184 00       		.byte	0
 3508 0185 0F       		.uleb128 0xf
 3509 0186 04       		.byte	0x4
ARM GAS  /tmp/ccDzFi87.s 			page 63


 3510 0187 2B010000 		.4byte	0x12b
 3511 018b 08       		.uleb128 0x8
 3512 018c 07010000 		.4byte	0x107
 3513 0190 9B010000 		.4byte	0x19b
 3514 0194 09       		.uleb128 0x9
 3515 0195 38000000 		.4byte	0x38
 3516 0199 00       		.byte	0
 3517 019a 00       		.byte	0
 3518 019b 0D       		.uleb128 0xd
 3519 019c 0A070000 		.4byte	.LASF27
 3520 01a0 24       		.byte	0x24
 3521 01a1 08       		.byte	0x8
 3522 01a2 3C       		.byte	0x3c
 3523 01a3 08       		.byte	0x8
 3524 01a4 1E020000 		.4byte	0x21e
 3525 01a8 0B       		.uleb128 0xb
 3526 01a9 29110000 		.4byte	.LASF28
 3527 01ad 08       		.byte	0x8
 3528 01ae 3E       		.byte	0x3e
 3529 01af 09       		.byte	0x9
 3530 01b0 25000000 		.4byte	0x25
 3531 01b4 00       		.byte	0
 3532 01b5 0B       		.uleb128 0xb
 3533 01b6 CD240000 		.4byte	.LASF29
 3534 01ba 08       		.byte	0x8
 3535 01bb 3F       		.byte	0x3f
 3536 01bc 09       		.byte	0x9
 3537 01bd 25000000 		.4byte	0x25
 3538 01c1 04       		.byte	0x4
 3539 01c2 0B       		.uleb128 0xb
 3540 01c3 480E0000 		.4byte	.LASF30
 3541 01c7 08       		.byte	0x8
 3542 01c8 40       		.byte	0x40
 3543 01c9 09       		.byte	0x9
 3544 01ca 25000000 		.4byte	0x25
 3545 01ce 08       		.byte	0x8
 3546 01cf 0B       		.uleb128 0xb
 3547 01d0 260F0000 		.4byte	.LASF31
 3548 01d4 08       		.byte	0x8
 3549 01d5 41       		.byte	0x41
 3550 01d6 09       		.byte	0x9
 3551 01d7 25000000 		.4byte	0x25
 3552 01db 0C       		.byte	0xc
 3553 01dc 0B       		.uleb128 0xb
 3554 01dd 94010000 		.4byte	.LASF32
 3555 01e1 08       		.byte	0x8
 3556 01e2 42       		.byte	0x42
 3557 01e3 09       		.byte	0x9
 3558 01e4 25000000 		.4byte	0x25
 3559 01e8 10       		.byte	0x10
 3560 01e9 0B       		.uleb128 0xb
 3561 01ea F90A0000 		.4byte	.LASF33
 3562 01ee 08       		.byte	0x8
 3563 01ef 43       		.byte	0x43
 3564 01f0 09       		.byte	0x9
 3565 01f1 25000000 		.4byte	0x25
 3566 01f5 14       		.byte	0x14
ARM GAS  /tmp/ccDzFi87.s 			page 64


 3567 01f6 0B       		.uleb128 0xb
 3568 01f7 FD080000 		.4byte	.LASF34
 3569 01fb 08       		.byte	0x8
 3570 01fc 44       		.byte	0x44
 3571 01fd 09       		.byte	0x9
 3572 01fe 25000000 		.4byte	0x25
 3573 0202 18       		.byte	0x18
 3574 0203 0B       		.uleb128 0xb
 3575 0204 6C070000 		.4byte	.LASF35
 3576 0208 08       		.byte	0x8
 3577 0209 45       		.byte	0x45
 3578 020a 09       		.byte	0x9
 3579 020b 25000000 		.4byte	0x25
 3580 020f 1C       		.byte	0x1c
 3581 0210 0B       		.uleb128 0xb
 3582 0211 07090000 		.4byte	.LASF36
 3583 0215 08       		.byte	0x8
 3584 0216 46       		.byte	0x46
 3585 0217 09       		.byte	0x9
 3586 0218 25000000 		.4byte	0x25
 3587 021c 20       		.byte	0x20
 3588 021d 00       		.byte	0
 3589 021e 10       		.uleb128 0x10
 3590 021f 4A110000 		.4byte	.LASF37
 3591 0223 0801     		.2byte	0x108
 3592 0225 08       		.byte	0x8
 3593 0226 4F       		.byte	0x4f
 3594 0227 08       		.byte	0x8
 3595 0228 63020000 		.4byte	0x263
 3596 022c 0B       		.uleb128 0xb
 3597 022d 540F0000 		.4byte	.LASF38
 3598 0231 08       		.byte	0x8
 3599 0232 50       		.byte	0x50
 3600 0233 0A       		.byte	0xa
 3601 0234 63020000 		.4byte	0x263
 3602 0238 00       		.byte	0
 3603 0239 0B       		.uleb128 0xb
 3604 023a C9080000 		.4byte	.LASF39
 3605 023e 08       		.byte	0x8
 3606 023f 51       		.byte	0x51
 3607 0240 09       		.byte	0x9
 3608 0241 63020000 		.4byte	0x263
 3609 0245 80       		.byte	0x80
 3610 0246 11       		.uleb128 0x11
 3611 0247 9D010000 		.4byte	.LASF40
 3612 024b 08       		.byte	0x8
 3613 024c 53       		.byte	0x53
 3614 024d 0A       		.byte	0xa
 3615 024e 07010000 		.4byte	0x107
 3616 0252 0001     		.2byte	0x100
 3617 0254 11       		.uleb128 0x11
 3618 0255 8E1E0000 		.4byte	.LASF41
 3619 0259 08       		.byte	0x8
 3620 025a 56       		.byte	0x56
 3621 025b 0A       		.byte	0xa
 3622 025c 07010000 		.4byte	0x107
 3623 0260 0401     		.2byte	0x104
ARM GAS  /tmp/ccDzFi87.s 			page 65


 3624 0262 00       		.byte	0
 3625 0263 08       		.uleb128 0x8
 3626 0264 05010000 		.4byte	0x105
 3627 0268 73020000 		.4byte	0x273
 3628 026c 09       		.uleb128 0x9
 3629 026d 38000000 		.4byte	0x38
 3630 0271 1F       		.byte	0x1f
 3631 0272 00       		.byte	0
 3632 0273 10       		.uleb128 0x10
 3633 0274 17010000 		.4byte	.LASF42
 3634 0278 9001     		.2byte	0x190
 3635 027a 08       		.byte	0x8
 3636 027b 62       		.byte	0x62
 3637 027c 08       		.byte	0x8
 3638 027d B6020000 		.4byte	0x2b6
 3639 0281 0B       		.uleb128 0xb
 3640 0282 EA0F0000 		.4byte	.LASF22
 3641 0286 08       		.byte	0x8
 3642 0287 63       		.byte	0x63
 3643 0288 12       		.byte	0x12
 3644 0289 B6020000 		.4byte	0x2b6
 3645 028d 00       		.byte	0
 3646 028e 0B       		.uleb128 0xb
 3647 028f B9010000 		.4byte	.LASF43
 3648 0293 08       		.byte	0x8
 3649 0294 64       		.byte	0x64
 3650 0295 06       		.byte	0x6
 3651 0296 25000000 		.4byte	0x25
 3652 029a 04       		.byte	0x4
 3653 029b 0B       		.uleb128 0xb
 3654 029c 951D0000 		.4byte	.LASF44
 3655 02a0 08       		.byte	0x8
 3656 02a1 66       		.byte	0x66
 3657 02a2 09       		.byte	0x9
 3658 02a3 BC020000 		.4byte	0x2bc
 3659 02a7 08       		.byte	0x8
 3660 02a8 0B       		.uleb128 0xb
 3661 02a9 4A110000 		.4byte	.LASF37
 3662 02ad 08       		.byte	0x8
 3663 02ae 67       		.byte	0x67
 3664 02af 1E       		.byte	0x1e
 3665 02b0 1E020000 		.4byte	0x21e
 3666 02b4 88       		.byte	0x88
 3667 02b5 00       		.byte	0
 3668 02b6 0F       		.uleb128 0xf
 3669 02b7 04       		.byte	0x4
 3670 02b8 73020000 		.4byte	0x273
 3671 02bc 08       		.uleb128 0x8
 3672 02bd CC020000 		.4byte	0x2cc
 3673 02c1 CC020000 		.4byte	0x2cc
 3674 02c5 09       		.uleb128 0x9
 3675 02c6 38000000 		.4byte	0x38
 3676 02ca 1F       		.byte	0x1f
 3677 02cb 00       		.byte	0
 3678 02cc 0F       		.uleb128 0xf
 3679 02cd 04       		.byte	0x4
 3680 02ce D2020000 		.4byte	0x2d2
ARM GAS  /tmp/ccDzFi87.s 			page 66


 3681 02d2 12       		.uleb128 0x12
 3682 02d3 0D       		.uleb128 0xd
 3683 02d4 A3160000 		.4byte	.LASF45
 3684 02d8 08       		.byte	0x8
 3685 02d9 08       		.byte	0x8
 3686 02da 7A       		.byte	0x7a
 3687 02db 08       		.byte	0x8
 3688 02dc FB020000 		.4byte	0x2fb
 3689 02e0 0B       		.uleb128 0xb
 3690 02e1 3D060000 		.4byte	.LASF46
 3691 02e5 08       		.byte	0x8
 3692 02e6 7B       		.byte	0x7b
 3693 02e7 11       		.byte	0x11
 3694 02e8 FB020000 		.4byte	0x2fb
 3695 02ec 00       		.byte	0
 3696 02ed 0B       		.uleb128 0xb
 3697 02ee 030A0000 		.4byte	.LASF47
 3698 02f2 08       		.byte	0x8
 3699 02f3 7C       		.byte	0x7c
 3700 02f4 06       		.byte	0x6
 3701 02f5 25000000 		.4byte	0x25
 3702 02f9 04       		.byte	0x4
 3703 02fa 00       		.byte	0
 3704 02fb 0F       		.uleb128 0xf
 3705 02fc 04       		.byte	0x4
 3706 02fd 61000000 		.4byte	0x61
 3707 0301 0D       		.uleb128 0xd
 3708 0302 8D1D0000 		.4byte	.LASF48
 3709 0306 68       		.byte	0x68
 3710 0307 08       		.byte	0x8
 3711 0308 BA       		.byte	0xba
 3712 0309 08       		.byte	0x8
 3713 030a 44040000 		.4byte	0x444
 3714 030e 0E       		.uleb128 0xe
 3715 030f 5F7000   		.ascii	"_p\000"
 3716 0312 08       		.byte	0x8
 3717 0313 BB       		.byte	0xbb
 3718 0314 12       		.byte	0x12
 3719 0315 FB020000 		.4byte	0x2fb
 3720 0319 00       		.byte	0
 3721 031a 0E       		.uleb128 0xe
 3722 031b 5F7200   		.ascii	"_r\000"
 3723 031e 08       		.byte	0x8
 3724 031f BC       		.byte	0xbc
 3725 0320 07       		.byte	0x7
 3726 0321 25000000 		.4byte	0x25
 3727 0325 04       		.byte	0x4
 3728 0326 0E       		.uleb128 0xe
 3729 0327 5F7700   		.ascii	"_w\000"
 3730 032a 08       		.byte	0x8
 3731 032b BD       		.byte	0xbd
 3732 032c 07       		.byte	0x7
 3733 032d 25000000 		.4byte	0x25
 3734 0331 08       		.byte	0x8
 3735 0332 0B       		.uleb128 0xb
 3736 0333 09020000 		.4byte	.LASF49
 3737 0337 08       		.byte	0x8
ARM GAS  /tmp/ccDzFi87.s 			page 67


 3738 0338 BE       		.byte	0xbe
 3739 0339 09       		.byte	0x9
 3740 033a 68000000 		.4byte	0x68
 3741 033e 0C       		.byte	0xc
 3742 033f 0B       		.uleb128 0xb
 3743 0340 631D0000 		.4byte	.LASF50
 3744 0344 08       		.byte	0x8
 3745 0345 BF       		.byte	0xbf
 3746 0346 09       		.byte	0x9
 3747 0347 68000000 		.4byte	0x68
 3748 034b 0E       		.byte	0xe
 3749 034c 0E       		.uleb128 0xe
 3750 034d 5F626600 		.ascii	"_bf\000"
 3751 0351 08       		.byte	0x8
 3752 0352 C0       		.byte	0xc0
 3753 0353 11       		.byte	0x11
 3754 0354 D3020000 		.4byte	0x2d3
 3755 0358 10       		.byte	0x10
 3756 0359 0B       		.uleb128 0xb
 3757 035a A8040000 		.4byte	.LASF51
 3758 035e 08       		.byte	0x8
 3759 035f C1       		.byte	0xc1
 3760 0360 07       		.byte	0x7
 3761 0361 25000000 		.4byte	0x25
 3762 0365 18       		.byte	0x18
 3763 0366 0B       		.uleb128 0xb
 3764 0367 30100000 		.4byte	.LASF52
 3765 036b 08       		.byte	0x8
 3766 036c C8       		.byte	0xc8
 3767 036d 0A       		.byte	0xa
 3768 036e 05010000 		.4byte	0x105
 3769 0372 1C       		.byte	0x1c
 3770 0373 0B       		.uleb128 0xb
 3771 0374 AC250000 		.4byte	.LASF53
 3772 0378 08       		.byte	0x8
 3773 0379 CA       		.byte	0xca
 3774 037a 1D       		.byte	0x1d
 3775 037b C8050000 		.4byte	0x5c8
 3776 037f 20       		.byte	0x20
 3777 0380 0B       		.uleb128 0xb
 3778 0381 750A0000 		.4byte	.LASF54
 3779 0385 08       		.byte	0x8
 3780 0386 CC       		.byte	0xcc
 3781 0387 1D       		.byte	0x1d
 3782 0388 F7050000 		.4byte	0x5f7
 3783 038c 24       		.byte	0x24
 3784 038d 0B       		.uleb128 0xb
 3785 038e 03150000 		.4byte	.LASF55
 3786 0392 08       		.byte	0x8
 3787 0393 CF       		.byte	0xcf
 3788 0394 0D       		.byte	0xd
 3789 0395 1B060000 		.4byte	0x61b
 3790 0399 28       		.byte	0x28
 3791 039a 0B       		.uleb128 0xb
 3792 039b 451A0000 		.4byte	.LASF56
 3793 039f 08       		.byte	0x8
 3794 03a0 D0       		.byte	0xd0
ARM GAS  /tmp/ccDzFi87.s 			page 68


 3795 03a1 09       		.byte	0x9
 3796 03a2 35060000 		.4byte	0x635
 3797 03a6 2C       		.byte	0x2c
 3798 03a7 0E       		.uleb128 0xe
 3799 03a8 5F756200 		.ascii	"_ub\000"
 3800 03ac 08       		.byte	0x8
 3801 03ad D3       		.byte	0xd3
 3802 03ae 11       		.byte	0x11
 3803 03af D3020000 		.4byte	0x2d3
 3804 03b3 30       		.byte	0x30
 3805 03b4 0E       		.uleb128 0xe
 3806 03b5 5F757000 		.ascii	"_up\000"
 3807 03b9 08       		.byte	0x8
 3808 03ba D4       		.byte	0xd4
 3809 03bb 12       		.byte	0x12
 3810 03bc FB020000 		.4byte	0x2fb
 3811 03c0 38       		.byte	0x38
 3812 03c1 0E       		.uleb128 0xe
 3813 03c2 5F757200 		.ascii	"_ur\000"
 3814 03c6 08       		.byte	0x8
 3815 03c7 D5       		.byte	0xd5
 3816 03c8 07       		.byte	0x7
 3817 03c9 25000000 		.4byte	0x25
 3818 03cd 3C       		.byte	0x3c
 3819 03ce 0B       		.uleb128 0xb
 3820 03cf 9F1C0000 		.4byte	.LASF57
 3821 03d3 08       		.byte	0x8
 3822 03d4 D8       		.byte	0xd8
 3823 03d5 11       		.byte	0x11
 3824 03d6 3B060000 		.4byte	0x63b
 3825 03da 40       		.byte	0x40
 3826 03db 0B       		.uleb128 0xb
 3827 03dc CF020000 		.4byte	.LASF58
 3828 03e0 08       		.byte	0x8
 3829 03e1 D9       		.byte	0xd9
 3830 03e2 11       		.byte	0x11
 3831 03e3 4B060000 		.4byte	0x64b
 3832 03e7 43       		.byte	0x43
 3833 03e8 0E       		.uleb128 0xe
 3834 03e9 5F6C6200 		.ascii	"_lb\000"
 3835 03ed 08       		.byte	0x8
 3836 03ee DC       		.byte	0xdc
 3837 03ef 11       		.byte	0x11
 3838 03f0 D3020000 		.4byte	0x2d3
 3839 03f4 44       		.byte	0x44
 3840 03f5 0B       		.uleb128 0xb
 3841 03f6 8D1C0000 		.4byte	.LASF59
 3842 03fa 08       		.byte	0x8
 3843 03fb DF       		.byte	0xdf
 3844 03fc 07       		.byte	0x7
 3845 03fd 25000000 		.4byte	0x25
 3846 0401 4C       		.byte	0x4c
 3847 0402 0B       		.uleb128 0xb
 3848 0403 49160000 		.4byte	.LASF60
 3849 0407 08       		.byte	0x8
 3850 0408 E0       		.byte	0xe0
 3851 0409 0A       		.byte	0xa
ARM GAS  /tmp/ccDzFi87.s 			page 69


 3852 040a 8B000000 		.4byte	0x8b
 3853 040e 50       		.byte	0x50
 3854 040f 0B       		.uleb128 0xb
 3855 0410 0D050000 		.4byte	.LASF61
 3856 0414 08       		.byte	0x8
 3857 0415 E3       		.byte	0xe3
 3858 0416 12       		.byte	0x12
 3859 0417 62040000 		.4byte	0x462
 3860 041b 54       		.byte	0x54
 3861 041c 0B       		.uleb128 0xb
 3862 041d C9020000 		.4byte	.LASF62
 3863 0421 08       		.byte	0x8
 3864 0422 E7       		.byte	0xe7
 3865 0423 0C       		.byte	0xc
 3866 0424 1F010000 		.4byte	0x11f
 3867 0428 58       		.byte	0x58
 3868 0429 0B       		.uleb128 0xb
 3869 042a 0E010000 		.4byte	.LASF63
 3870 042e 08       		.byte	0x8
 3871 042f E9       		.byte	0xe9
 3872 0430 0E       		.byte	0xe
 3873 0431 F9000000 		.4byte	0xf9
 3874 0435 5C       		.byte	0x5c
 3875 0436 0B       		.uleb128 0xb
 3876 0437 DF220000 		.4byte	.LASF64
 3877 043b 08       		.byte	0x8
 3878 043c EA       		.byte	0xea
 3879 043d 09       		.byte	0x9
 3880 043e 25000000 		.4byte	0x25
 3881 0442 64       		.byte	0x64
 3882 0443 00       		.byte	0
 3883 0444 13       		.uleb128 0x13
 3884 0445 25000000 		.4byte	0x25
 3885 0449 62040000 		.4byte	0x462
 3886 044d 14       		.uleb128 0x14
 3887 044e 62040000 		.4byte	0x462
 3888 0452 14       		.uleb128 0x14
 3889 0453 05010000 		.4byte	0x105
 3890 0457 14       		.uleb128 0x14
 3891 0458 B6050000 		.4byte	0x5b6
 3892 045c 14       		.uleb128 0x14
 3893 045d 25000000 		.4byte	0x25
 3894 0461 00       		.byte	0
 3895 0462 0F       		.uleb128 0xf
 3896 0463 04       		.byte	0x4
 3897 0464 6D040000 		.4byte	0x46d
 3898 0468 15       		.uleb128 0x15
 3899 0469 62040000 		.4byte	0x462
 3900 046d 16       		.uleb128 0x16
 3901 046e BD050000 		.4byte	.LASF65
 3902 0472 2804     		.2byte	0x428
 3903 0474 08       		.byte	0x8
 3904 0475 6502     		.2byte	0x265
 3905 0477 08       		.byte	0x8
 3906 0478 B6050000 		.4byte	0x5b6
 3907 047c 17       		.uleb128 0x17
 3908 047d 0B0F0000 		.4byte	.LASF66
ARM GAS  /tmp/ccDzFi87.s 			page 70


 3909 0481 08       		.byte	0x8
 3910 0482 6702     		.2byte	0x267
 3911 0484 07       		.byte	0x7
 3912 0485 25000000 		.4byte	0x25
 3913 0489 00       		.byte	0
 3914 048a 17       		.uleb128 0x17
 3915 048b E80B0000 		.4byte	.LASF67
 3916 048f 08       		.byte	0x8
 3917 0490 6C02     		.2byte	0x26c
 3918 0492 0B       		.byte	0xb
 3919 0493 A7060000 		.4byte	0x6a7
 3920 0497 04       		.byte	0x4
 3921 0498 17       		.uleb128 0x17
 3922 0499 6F090000 		.4byte	.LASF68
 3923 049d 08       		.byte	0x8
 3924 049e 6C02     		.2byte	0x26c
 3925 04a0 14       		.byte	0x14
 3926 04a1 A7060000 		.4byte	0x6a7
 3927 04a5 08       		.byte	0x8
 3928 04a6 17       		.uleb128 0x17
 3929 04a7 A9080000 		.4byte	.LASF69
 3930 04ab 08       		.byte	0x8
 3931 04ac 6C02     		.2byte	0x26c
 3932 04ae 1E       		.byte	0x1e
 3933 04af A7060000 		.4byte	0x6a7
 3934 04b3 0C       		.byte	0xc
 3935 04b4 17       		.uleb128 0x17
 3936 04b5 B4010000 		.4byte	.LASF70
 3937 04b9 08       		.byte	0x8
 3938 04ba 6E02     		.2byte	0x26e
 3939 04bc 08       		.byte	0x8
 3940 04bd 25000000 		.4byte	0x25
 3941 04c1 10       		.byte	0x10
 3942 04c2 17       		.uleb128 0x17
 3943 04c3 CB180000 		.4byte	.LASF71
 3944 04c7 08       		.byte	0x8
 3945 04c8 6F02     		.2byte	0x26f
 3946 04ca 08       		.byte	0x8
 3947 04cb A7080000 		.4byte	0x8a7
 3948 04cf 14       		.byte	0x14
 3949 04d0 17       		.uleb128 0x17
 3950 04d1 48210000 		.4byte	.LASF72
 3951 04d5 08       		.byte	0x8
 3952 04d6 7202     		.2byte	0x272
 3953 04d8 07       		.byte	0x7
 3954 04d9 25000000 		.4byte	0x25
 3955 04dd 30       		.byte	0x30
 3956 04de 17       		.uleb128 0x17
 3957 04df 4A230000 		.4byte	.LASF73
 3958 04e3 08       		.byte	0x8
 3959 04e4 7302     		.2byte	0x273
 3960 04e6 16       		.byte	0x16
 3961 04e7 BC080000 		.4byte	0x8bc
 3962 04eb 34       		.byte	0x34
 3963 04ec 17       		.uleb128 0x17
 3964 04ed A7210000 		.4byte	.LASF74
 3965 04f1 08       		.byte	0x8
ARM GAS  /tmp/ccDzFi87.s 			page 71


 3966 04f2 7502     		.2byte	0x275
 3967 04f4 07       		.byte	0x7
 3968 04f5 25000000 		.4byte	0x25
 3969 04f9 38       		.byte	0x38
 3970 04fa 17       		.uleb128 0x17
 3971 04fb E21C0000 		.4byte	.LASF75
 3972 04ff 08       		.byte	0x8
 3973 0500 7702     		.2byte	0x277
 3974 0502 0A       		.byte	0xa
 3975 0503 CD080000 		.4byte	0x8cd
 3976 0507 3C       		.byte	0x3c
 3977 0508 17       		.uleb128 0x17
 3978 0509 B1080000 		.4byte	.LASF76
 3979 050d 08       		.byte	0x8
 3980 050e 7A02     		.2byte	0x27a
 3981 0510 13       		.byte	0x13
 3982 0511 85010000 		.4byte	0x185
 3983 0515 40       		.byte	0x40
 3984 0516 17       		.uleb128 0x17
 3985 0517 9A080000 		.4byte	.LASF77
 3986 051b 08       		.byte	0x8
 3987 051c 7B02     		.2byte	0x27b
 3988 051e 07       		.byte	0x7
 3989 051f 25000000 		.4byte	0x25
 3990 0523 44       		.byte	0x44
 3991 0524 17       		.uleb128 0x17
 3992 0525 DE1E0000 		.4byte	.LASF78
 3993 0529 08       		.byte	0x8
 3994 052a 7C02     		.2byte	0x27c
 3995 052c 13       		.byte	0x13
 3996 052d 85010000 		.4byte	0x185
 3997 0531 48       		.byte	0x48
 3998 0532 17       		.uleb128 0x17
 3999 0533 0B160000 		.4byte	.LASF79
 4000 0537 08       		.byte	0x8
 4001 0538 7D02     		.2byte	0x27d
 4002 053a 14       		.byte	0x14
 4003 053b D3080000 		.4byte	0x8d3
 4004 053f 4C       		.byte	0x4c
 4005 0540 17       		.uleb128 0x17
 4006 0541 39020000 		.4byte	.LASF80
 4007 0545 08       		.byte	0x8
 4008 0546 8002     		.2byte	0x280
 4009 0548 07       		.byte	0x7
 4010 0549 25000000 		.4byte	0x25
 4011 054d 50       		.byte	0x50
 4012 054e 17       		.uleb128 0x17
 4013 054f 8B0D0000 		.4byte	.LASF81
 4014 0553 08       		.byte	0x8
 4015 0554 8102     		.2byte	0x281
 4016 0556 09       		.byte	0x9
 4017 0557 B6050000 		.4byte	0x5b6
 4018 055b 54       		.byte	0x54
 4019 055c 17       		.uleb128 0x17
 4020 055d 880E0000 		.4byte	.LASF82
 4021 0561 08       		.byte	0x8
 4022 0562 A402     		.2byte	0x2a4
ARM GAS  /tmp/ccDzFi87.s 			page 72


 4023 0564 07       		.byte	0x7
 4024 0565 82080000 		.4byte	0x882
 4025 0569 58       		.byte	0x58
 4026 056a 18       		.uleb128 0x18
 4027 056b 17010000 		.4byte	.LASF42
 4028 056f 08       		.byte	0x8
 4029 0570 A802     		.2byte	0x2a8
 4030 0572 13       		.byte	0x13
 4031 0573 B6020000 		.4byte	0x2b6
 4032 0577 4801     		.2byte	0x148
 4033 0579 18       		.uleb128 0x18
 4034 057a 341B0000 		.4byte	.LASF83
 4035 057e 08       		.byte	0x8
 4036 057f A902     		.2byte	0x2a9
 4037 0581 12       		.byte	0x12
 4038 0582 73020000 		.4byte	0x273
 4039 0586 4C01     		.2byte	0x14c
 4040 0588 18       		.uleb128 0x18
 4041 0589 5B020000 		.4byte	.LASF84
 4042 058d 08       		.byte	0x8
 4043 058e AD02     		.2byte	0x2ad
 4044 0590 0C       		.byte	0xc
 4045 0591 E4080000 		.4byte	0x8e4
 4046 0595 DC02     		.2byte	0x2dc
 4047 0597 18       		.uleb128 0x18
 4048 0598 C01C0000 		.4byte	.LASF85
 4049 059c 08       		.byte	0x8
 4050 059d B202     		.2byte	0x2b2
 4051 059f 10       		.byte	0x10
 4052 05a0 68060000 		.4byte	0x668
 4053 05a4 E002     		.2byte	0x2e0
 4054 05a6 18       		.uleb128 0x18
 4055 05a7 2F060000 		.4byte	.LASF86
 4056 05ab 08       		.byte	0x8
 4057 05ac B402     		.2byte	0x2b4
 4058 05ae 0A       		.byte	0xa
 4059 05af F0080000 		.4byte	0x8f0
 4060 05b3 EC02     		.2byte	0x2ec
 4061 05b5 00       		.byte	0
 4062 05b6 0F       		.uleb128 0xf
 4063 05b7 04       		.byte	0x4
 4064 05b8 BC050000 		.4byte	0x5bc
 4065 05bc 04       		.uleb128 0x4
 4066 05bd 01       		.byte	0x1
 4067 05be 08       		.byte	0x8
 4068 05bf 4C1A0000 		.4byte	.LASF87
 4069 05c3 15       		.uleb128 0x15
 4070 05c4 BC050000 		.4byte	0x5bc
 4071 05c8 0F       		.uleb128 0xf
 4072 05c9 04       		.byte	0x4
 4073 05ca 44040000 		.4byte	0x444
 4074 05ce 13       		.uleb128 0x13
 4075 05cf 25000000 		.4byte	0x25
 4076 05d3 EC050000 		.4byte	0x5ec
 4077 05d7 14       		.uleb128 0x14
 4078 05d8 62040000 		.4byte	0x462
 4079 05dc 14       		.uleb128 0x14
ARM GAS  /tmp/ccDzFi87.s 			page 73


 4080 05dd 05010000 		.4byte	0x105
 4081 05e1 14       		.uleb128 0x14
 4082 05e2 EC050000 		.4byte	0x5ec
 4083 05e6 14       		.uleb128 0x14
 4084 05e7 25000000 		.4byte	0x25
 4085 05eb 00       		.byte	0
 4086 05ec 0F       		.uleb128 0xf
 4087 05ed 04       		.byte	0x4
 4088 05ee C3050000 		.4byte	0x5c3
 4089 05f2 19       		.uleb128 0x19
 4090 05f3 EC050000 		.4byte	0x5ec
 4091 05f7 0F       		.uleb128 0xf
 4092 05f8 04       		.byte	0x4
 4093 05f9 CE050000 		.4byte	0x5ce
 4094 05fd 13       		.uleb128 0x13
 4095 05fe 97000000 		.4byte	0x97
 4096 0602 1B060000 		.4byte	0x61b
 4097 0606 14       		.uleb128 0x14
 4098 0607 62040000 		.4byte	0x462
 4099 060b 14       		.uleb128 0x14
 4100 060c 05010000 		.4byte	0x105
 4101 0610 14       		.uleb128 0x14
 4102 0611 97000000 		.4byte	0x97
 4103 0615 14       		.uleb128 0x14
 4104 0616 25000000 		.4byte	0x25
 4105 061a 00       		.byte	0
 4106 061b 0F       		.uleb128 0xf
 4107 061c 04       		.byte	0x4
 4108 061d FD050000 		.4byte	0x5fd
 4109 0621 13       		.uleb128 0x13
 4110 0622 25000000 		.4byte	0x25
 4111 0626 35060000 		.4byte	0x635
 4112 062a 14       		.uleb128 0x14
 4113 062b 62040000 		.4byte	0x462
 4114 062f 14       		.uleb128 0x14
 4115 0630 05010000 		.4byte	0x105
 4116 0634 00       		.byte	0
 4117 0635 0F       		.uleb128 0xf
 4118 0636 04       		.byte	0x4
 4119 0637 21060000 		.4byte	0x621
 4120 063b 08       		.uleb128 0x8
 4121 063c 61000000 		.4byte	0x61
 4122 0640 4B060000 		.4byte	0x64b
 4123 0644 09       		.uleb128 0x9
 4124 0645 38000000 		.4byte	0x38
 4125 0649 02       		.byte	0x2
 4126 064a 00       		.byte	0
 4127 064b 08       		.uleb128 0x8
 4128 064c 61000000 		.4byte	0x61
 4129 0650 5B060000 		.4byte	0x65b
 4130 0654 09       		.uleb128 0x9
 4131 0655 38000000 		.4byte	0x38
 4132 0659 00       		.byte	0
 4133 065a 00       		.byte	0
 4134 065b 05       		.uleb128 0x5
 4135 065c 8F240000 		.4byte	.LASF88
 4136 0660 08       		.byte	0x8
ARM GAS  /tmp/ccDzFi87.s 			page 74


 4137 0661 2401     		.2byte	0x124
 4138 0663 1A       		.byte	0x1a
 4139 0664 01030000 		.4byte	0x301
 4140 0668 1A       		.uleb128 0x1a
 4141 0669 6A1A0000 		.4byte	.LASF89
 4142 066d 0C       		.byte	0xc
 4143 066e 08       		.byte	0x8
 4144 066f 2801     		.2byte	0x128
 4145 0671 08       		.byte	0x8
 4146 0672 A1060000 		.4byte	0x6a1
 4147 0676 17       		.uleb128 0x17
 4148 0677 EA0F0000 		.4byte	.LASF22
 4149 067b 08       		.byte	0x8
 4150 067c 2A01     		.2byte	0x12a
 4151 067e 11       		.byte	0x11
 4152 067f A1060000 		.4byte	0x6a1
 4153 0683 00       		.byte	0
 4154 0684 17       		.uleb128 0x17
 4155 0685 C40E0000 		.4byte	.LASF90
 4156 0689 08       		.byte	0x8
 4157 068a 2B01     		.2byte	0x12b
 4158 068c 07       		.byte	0x7
 4159 068d 25000000 		.4byte	0x25
 4160 0691 04       		.byte	0x4
 4161 0692 17       		.uleb128 0x17
 4162 0693 C5180000 		.4byte	.LASF91
 4163 0697 08       		.byte	0x8
 4164 0698 2C01     		.2byte	0x12c
 4165 069a 0B       		.byte	0xb
 4166 069b A7060000 		.4byte	0x6a7
 4167 069f 08       		.byte	0x8
 4168 06a0 00       		.byte	0
 4169 06a1 0F       		.uleb128 0xf
 4170 06a2 04       		.byte	0x4
 4171 06a3 68060000 		.4byte	0x668
 4172 06a7 0F       		.uleb128 0xf
 4173 06a8 04       		.byte	0x4
 4174 06a9 5B060000 		.4byte	0x65b
 4175 06ad 1A       		.uleb128 0x1a
 4176 06ae D7250000 		.4byte	.LASF92
 4177 06b2 0E       		.byte	0xe
 4178 06b3 08       		.byte	0x8
 4179 06b4 4401     		.2byte	0x144
 4180 06b6 08       		.byte	0x8
 4181 06b7 E6060000 		.4byte	0x6e6
 4182 06bb 17       		.uleb128 0x17
 4183 06bc EE140000 		.4byte	.LASF93
 4184 06c0 08       		.byte	0x8
 4185 06c1 4501     		.2byte	0x145
 4186 06c3 12       		.byte	0x12
 4187 06c4 E6060000 		.4byte	0x6e6
 4188 06c8 00       		.byte	0
 4189 06c9 17       		.uleb128 0x17
 4190 06ca 4A0B0000 		.4byte	.LASF94
 4191 06ce 08       		.byte	0x8
 4192 06cf 4601     		.2byte	0x146
 4193 06d1 12       		.byte	0x12
ARM GAS  /tmp/ccDzFi87.s 			page 75


 4194 06d2 E6060000 		.4byte	0x6e6
 4195 06d6 06       		.byte	0x6
 4196 06d7 17       		.uleb128 0x17
 4197 06d8 EA030000 		.4byte	.LASF95
 4198 06dc 08       		.byte	0x8
 4199 06dd 4701     		.2byte	0x147
 4200 06df 12       		.byte	0x12
 4201 06e0 6F000000 		.4byte	0x6f
 4202 06e4 0C       		.byte	0xc
 4203 06e5 00       		.byte	0
 4204 06e6 08       		.uleb128 0x8
 4205 06e7 6F000000 		.4byte	0x6f
 4206 06eb F6060000 		.4byte	0x6f6
 4207 06ef 09       		.uleb128 0x9
 4208 06f0 38000000 		.4byte	0x38
 4209 06f4 02       		.byte	0x2
 4210 06f5 00       		.byte	0
 4211 06f6 1B       		.uleb128 0x1b
 4212 06f7 D0       		.byte	0xd0
 4213 06f8 08       		.byte	0x8
 4214 06f9 8502     		.2byte	0x285
 4215 06fb 07       		.byte	0x7
 4216 06fc 0B080000 		.4byte	0x80b
 4217 0700 17       		.uleb128 0x17
 4218 0701 E8070000 		.4byte	.LASF96
 4219 0705 08       		.byte	0x8
 4220 0706 8702     		.2byte	0x287
 4221 0708 18       		.byte	0x18
 4222 0709 38000000 		.4byte	0x38
 4223 070d 00       		.byte	0
 4224 070e 17       		.uleb128 0x17
 4225 070f 9F140000 		.4byte	.LASF97
 4226 0713 08       		.byte	0x8
 4227 0714 8802     		.2byte	0x288
 4228 0716 12       		.byte	0x12
 4229 0717 B6050000 		.4byte	0x5b6
 4230 071b 04       		.byte	0x4
 4231 071c 17       		.uleb128 0x17
 4232 071d 52170000 		.4byte	.LASF98
 4233 0721 08       		.byte	0x8
 4234 0722 8902     		.2byte	0x289
 4235 0724 10       		.byte	0x10
 4236 0725 0B080000 		.4byte	0x80b
 4237 0729 08       		.byte	0x8
 4238 072a 17       		.uleb128 0x17
 4239 072b C00C0000 		.4byte	.LASF99
 4240 072f 08       		.byte	0x8
 4241 0730 8A02     		.2byte	0x28a
 4242 0732 17       		.byte	0x17
 4243 0733 9B010000 		.4byte	0x19b
 4244 0737 24       		.byte	0x24
 4245 0738 17       		.uleb128 0x17
 4246 0739 7C200000 		.4byte	.LASF100
 4247 073d 08       		.byte	0x8
 4248 073e 8B02     		.2byte	0x28b
 4249 0740 0F       		.byte	0xf
 4250 0741 25000000 		.4byte	0x25
ARM GAS  /tmp/ccDzFi87.s 			page 76


 4251 0745 48       		.byte	0x48
 4252 0746 17       		.uleb128 0x17
 4253 0747 F6180000 		.4byte	.LASF101
 4254 074b 08       		.byte	0x8
 4255 074c 8C02     		.2byte	0x28c
 4256 074e 2C       		.byte	0x2c
 4257 074f 84000000 		.4byte	0x84
 4258 0753 50       		.byte	0x50
 4259 0754 17       		.uleb128 0x17
 4260 0755 3B250000 		.4byte	.LASF102
 4261 0759 08       		.byte	0x8
 4262 075a 8D02     		.2byte	0x28d
 4263 075c 1A       		.byte	0x1a
 4264 075d AD060000 		.4byte	0x6ad
 4265 0761 58       		.byte	0x58
 4266 0762 17       		.uleb128 0x17
 4267 0763 B31C0000 		.4byte	.LASF103
 4268 0767 08       		.byte	0x8
 4269 0768 8E02     		.2byte	0x28e
 4270 076a 16       		.byte	0x16
 4271 076b F9000000 		.4byte	0xf9
 4272 076f 68       		.byte	0x68
 4273 0770 17       		.uleb128 0x17
 4274 0771 6C060000 		.4byte	.LASF104
 4275 0775 08       		.byte	0x8
 4276 0776 8F02     		.2byte	0x28f
 4277 0778 16       		.byte	0x16
 4278 0779 F9000000 		.4byte	0xf9
 4279 077d 70       		.byte	0x70
 4280 077e 17       		.uleb128 0x17
 4281 077f 53180000 		.4byte	.LASF105
 4282 0783 08       		.byte	0x8
 4283 0784 9002     		.2byte	0x290
 4284 0786 16       		.byte	0x16
 4285 0787 F9000000 		.4byte	0xf9
 4286 078b 78       		.byte	0x78
 4287 078c 17       		.uleb128 0x17
 4288 078d CB160000 		.4byte	.LASF106
 4289 0791 08       		.byte	0x8
 4290 0792 9102     		.2byte	0x291
 4291 0794 10       		.byte	0x10
 4292 0795 1B080000 		.4byte	0x81b
 4293 0799 80       		.byte	0x80
 4294 079a 17       		.uleb128 0x17
 4295 079b 19100000 		.4byte	.LASF107
 4296 079f 08       		.byte	0x8
 4297 07a0 9202     		.2byte	0x292
 4298 07a2 10       		.byte	0x10
 4299 07a3 2B080000 		.4byte	0x82b
 4300 07a7 88       		.byte	0x88
 4301 07a8 17       		.uleb128 0x17
 4302 07a9 7D1B0000 		.4byte	.LASF108
 4303 07ad 08       		.byte	0x8
 4304 07ae 9302     		.2byte	0x293
 4305 07b0 0F       		.byte	0xf
 4306 07b1 25000000 		.4byte	0x25
 4307 07b5 A0       		.byte	0xa0
ARM GAS  /tmp/ccDzFi87.s 			page 77


 4308 07b6 17       		.uleb128 0x17
 4309 07b7 8B0B0000 		.4byte	.LASF109
 4310 07bb 08       		.byte	0x8
 4311 07bc 9402     		.2byte	0x294
 4312 07be 16       		.byte	0x16
 4313 07bf F9000000 		.4byte	0xf9
 4314 07c3 A4       		.byte	0xa4
 4315 07c4 17       		.uleb128 0x17
 4316 07c5 2E0E0000 		.4byte	.LASF110
 4317 07c9 08       		.byte	0x8
 4318 07ca 9502     		.2byte	0x295
 4319 07cc 16       		.byte	0x16
 4320 07cd F9000000 		.4byte	0xf9
 4321 07d1 AC       		.byte	0xac
 4322 07d2 17       		.uleb128 0x17
 4323 07d3 BD090000 		.4byte	.LASF111
 4324 07d7 08       		.byte	0x8
 4325 07d8 9602     		.2byte	0x296
 4326 07da 16       		.byte	0x16
 4327 07db F9000000 		.4byte	0xf9
 4328 07df B4       		.byte	0xb4
 4329 07e0 17       		.uleb128 0x17
 4330 07e1 D7110000 		.4byte	.LASF112
 4331 07e5 08       		.byte	0x8
 4332 07e6 9702     		.2byte	0x297
 4333 07e8 16       		.byte	0x16
 4334 07e9 F9000000 		.4byte	0xf9
 4335 07ed BC       		.byte	0xbc
 4336 07ee 17       		.uleb128 0x17
 4337 07ef 91170000 		.4byte	.LASF113
 4338 07f3 08       		.byte	0x8
 4339 07f4 9802     		.2byte	0x298
 4340 07f6 16       		.byte	0x16
 4341 07f7 F9000000 		.4byte	0xf9
 4342 07fb C4       		.byte	0xc4
 4343 07fc 17       		.uleb128 0x17
 4344 07fd 041E0000 		.4byte	.LASF114
 4345 0801 08       		.byte	0x8
 4346 0802 9902     		.2byte	0x299
 4347 0804 08       		.byte	0x8
 4348 0805 25000000 		.4byte	0x25
 4349 0809 CC       		.byte	0xcc
 4350 080a 00       		.byte	0
 4351 080b 08       		.uleb128 0x8
 4352 080c BC050000 		.4byte	0x5bc
 4353 0810 1B080000 		.4byte	0x81b
 4354 0814 09       		.uleb128 0x9
 4355 0815 38000000 		.4byte	0x38
 4356 0819 19       		.byte	0x19
 4357 081a 00       		.byte	0
 4358 081b 08       		.uleb128 0x8
 4359 081c BC050000 		.4byte	0x5bc
 4360 0820 2B080000 		.4byte	0x82b
 4361 0824 09       		.uleb128 0x9
 4362 0825 38000000 		.4byte	0x38
 4363 0829 07       		.byte	0x7
 4364 082a 00       		.byte	0
ARM GAS  /tmp/ccDzFi87.s 			page 78


 4365 082b 08       		.uleb128 0x8
 4366 082c BC050000 		.4byte	0x5bc
 4367 0830 3B080000 		.4byte	0x83b
 4368 0834 09       		.uleb128 0x9
 4369 0835 38000000 		.4byte	0x38
 4370 0839 17       		.byte	0x17
 4371 083a 00       		.byte	0
 4372 083b 1B       		.uleb128 0x1b
 4373 083c F0       		.byte	0xf0
 4374 083d 08       		.byte	0x8
 4375 083e 9E02     		.2byte	0x29e
 4376 0840 07       		.byte	0x7
 4377 0841 62080000 		.4byte	0x862
 4378 0845 17       		.uleb128 0x17
 4379 0846 E9180000 		.4byte	.LASF115
 4380 084a 08       		.byte	0x8
 4381 084b A102     		.2byte	0x2a1
 4382 084d 1B       		.byte	0x1b
 4383 084e 62080000 		.4byte	0x862
 4384 0852 00       		.byte	0
 4385 0853 17       		.uleb128 0x17
 4386 0854 EF0B0000 		.4byte	.LASF116
 4387 0858 08       		.byte	0x8
 4388 0859 A202     		.2byte	0x2a2
 4389 085b 18       		.byte	0x18
 4390 085c 72080000 		.4byte	0x872
 4391 0860 78       		.byte	0x78
 4392 0861 00       		.byte	0
 4393 0862 08       		.uleb128 0x8
 4394 0863 FB020000 		.4byte	0x2fb
 4395 0867 72080000 		.4byte	0x872
 4396 086b 09       		.uleb128 0x9
 4397 086c 38000000 		.4byte	0x38
 4398 0870 1D       		.byte	0x1d
 4399 0871 00       		.byte	0
 4400 0872 08       		.uleb128 0x8
 4401 0873 38000000 		.4byte	0x38
 4402 0877 82080000 		.4byte	0x882
 4403 087b 09       		.uleb128 0x9
 4404 087c 38000000 		.4byte	0x38
 4405 0880 1D       		.byte	0x1d
 4406 0881 00       		.byte	0
 4407 0882 1C       		.uleb128 0x1c
 4408 0883 F0       		.byte	0xf0
 4409 0884 08       		.byte	0x8
 4410 0885 8302     		.2byte	0x283
 4411 0887 03       		.byte	0x3
 4412 0888 A7080000 		.4byte	0x8a7
 4413 088c 1D       		.uleb128 0x1d
 4414 088d BD050000 		.4byte	.LASF65
 4415 0891 08       		.byte	0x8
 4416 0892 9A02     		.2byte	0x29a
 4417 0894 0B       		.byte	0xb
 4418 0895 F6060000 		.4byte	0x6f6
 4419 0899 1D       		.uleb128 0x1d
 4420 089a DE020000 		.4byte	.LASF117
 4421 089e 08       		.byte	0x8
ARM GAS  /tmp/ccDzFi87.s 			page 79


 4422 089f A302     		.2byte	0x2a3
 4423 08a1 0B       		.byte	0xb
 4424 08a2 3B080000 		.4byte	0x83b
 4425 08a6 00       		.byte	0
 4426 08a7 08       		.uleb128 0x8
 4427 08a8 BC050000 		.4byte	0x5bc
 4428 08ac B7080000 		.4byte	0x8b7
 4429 08b0 09       		.uleb128 0x9
 4430 08b1 38000000 		.4byte	0x38
 4431 08b5 18       		.byte	0x18
 4432 08b6 00       		.byte	0
 4433 08b7 1E       		.uleb128 0x1e
 4434 08b8 C81C0000 		.4byte	.LASF911
 4435 08bc 0F       		.uleb128 0xf
 4436 08bd 04       		.byte	0x4
 4437 08be B7080000 		.4byte	0x8b7
 4438 08c2 1F       		.uleb128 0x1f
 4439 08c3 CD080000 		.4byte	0x8cd
 4440 08c7 14       		.uleb128 0x14
 4441 08c8 62040000 		.4byte	0x462
 4442 08cc 00       		.byte	0
 4443 08cd 0F       		.uleb128 0xf
 4444 08ce 04       		.byte	0x4
 4445 08cf C2080000 		.4byte	0x8c2
 4446 08d3 0F       		.uleb128 0xf
 4447 08d4 04       		.byte	0x4
 4448 08d5 85010000 		.4byte	0x185
 4449 08d9 1F       		.uleb128 0x1f
 4450 08da E4080000 		.4byte	0x8e4
 4451 08de 14       		.uleb128 0x14
 4452 08df 25000000 		.4byte	0x25
 4453 08e3 00       		.byte	0
 4454 08e4 0F       		.uleb128 0xf
 4455 08e5 04       		.byte	0x4
 4456 08e6 EA080000 		.4byte	0x8ea
 4457 08ea 0F       		.uleb128 0xf
 4458 08eb 04       		.byte	0x4
 4459 08ec D9080000 		.4byte	0x8d9
 4460 08f0 08       		.uleb128 0x8
 4461 08f1 5B060000 		.4byte	0x65b
 4462 08f5 00090000 		.4byte	0x900
 4463 08f9 09       		.uleb128 0x9
 4464 08fa 38000000 		.4byte	0x38
 4465 08fe 02       		.byte	0x2
 4466 08ff 00       		.byte	0
 4467 0900 20       		.uleb128 0x20
 4468 0901 651C0000 		.4byte	.LASF118
 4469 0905 08       		.byte	0x8
 4470 0906 3303     		.2byte	0x333
 4471 0908 17       		.byte	0x17
 4472 0909 62040000 		.4byte	0x462
 4473 090d 20       		.uleb128 0x20
 4474 090e 25210000 		.4byte	.LASF119
 4475 0912 08       		.byte	0x8
 4476 0913 3403     		.2byte	0x334
 4477 0915 1D       		.byte	0x1d
 4478 0916 68040000 		.4byte	0x468
ARM GAS  /tmp/ccDzFi87.s 			page 80


 4479 091a 03       		.uleb128 0x3
 4480 091b 1B150000 		.4byte	.LASF120
 4481 091f 0A       		.byte	0xa
 4482 0920 25       		.byte	0x25
 4483 0921 18       		.byte	0x18
 4484 0922 68000000 		.4byte	0x68
 4485 0926 03       		.uleb128 0x3
 4486 0927 BC030000 		.4byte	.LASF121
 4487 092b 0A       		.byte	0xa
 4488 092c 28       		.byte	0x28
 4489 092d 18       		.byte	0x18
 4490 092e 76000000 		.4byte	0x76
 4491 0932 19       		.uleb128 0x19
 4492 0933 26090000 		.4byte	0x926
 4493 0937 03       		.uleb128 0x3
 4494 0938 E50C0000 		.4byte	.LASF122
 4495 093c 0A       		.byte	0xa
 4496 093d 2E       		.byte	0x2e
 4497 093e 18       		.byte	0x18
 4498 093f 61000000 		.4byte	0x61
 4499 0943 15       		.uleb128 0x15
 4500 0944 37090000 		.4byte	0x937
 4501 0948 03       		.uleb128 0x3
 4502 0949 E8010000 		.4byte	.LASF123
 4503 094d 0A       		.byte	0xa
 4504 094e 31       		.byte	0x31
 4505 094f 19       		.byte	0x19
 4506 0950 6F000000 		.4byte	0x6f
 4507 0954 03       		.uleb128 0x3
 4508 0955 2A190000 		.4byte	.LASF124
 4509 0959 0A       		.byte	0xa
 4510 095a 34       		.byte	0x34
 4511 095b 19       		.byte	0x19
 4512 095c 7D000000 		.4byte	0x7d
 4513 0960 19       		.uleb128 0x19
 4514 0961 54090000 		.4byte	0x954
 4515 0965 15       		.uleb128 0x15
 4516 0966 60090000 		.4byte	0x960
 4517 096a 03       		.uleb128 0x3
 4518 096b AC0A0000 		.4byte	.LASF125
 4519 096f 0A       		.byte	0xa
 4520 0970 37       		.byte	0x37
 4521 0971 19       		.byte	0x19
 4522 0972 84000000 		.4byte	0x84
 4523 0976 03       		.uleb128 0x3
 4524 0977 460C0000 		.4byte	.LASF126
 4525 097b 0B       		.byte	0xb
 4526 097c 45       		.byte	0x45
 4527 097d 1D       		.byte	0x1d
 4528 097e 54090000 		.4byte	0x954
 4529 0982 03       		.uleb128 0x3
 4530 0983 E8050000 		.4byte	.LASF127
 4531 0987 0B       		.byte	0xb
 4532 0988 46       		.byte	0x46
 4533 0989 1D       		.byte	0x1d
 4534 098a 6A090000 		.4byte	0x96a
 4535 098e 03       		.uleb128 0x3
ARM GAS  /tmp/ccDzFi87.s 			page 81


 4536 098f 60110000 		.4byte	.LASF128
 4537 0993 0B       		.byte	0xb
 4538 0994 48       		.byte	0x48
 4539 0995 1D       		.byte	0x1d
 4540 0996 37090000 		.4byte	0x937
 4541 099a 03       		.uleb128 0x3
 4542 099b 1C210000 		.4byte	.LASF129
 4543 099f 0B       		.byte	0xb
 4544 09a0 49       		.byte	0x49
 4545 09a1 1D       		.byte	0x1d
 4546 09a2 37090000 		.4byte	0x937
 4547 09a6 03       		.uleb128 0x3
 4548 09a7 E9100000 		.4byte	.LASF130
 4549 09ab 0B       		.byte	0xb
 4550 09ac 4A       		.byte	0x4a
 4551 09ad 1D       		.byte	0x1d
 4552 09ae 37090000 		.4byte	0x937
 4553 09b2 03       		.uleb128 0x3
 4554 09b3 95140000 		.4byte	.LASF131
 4555 09b7 0B       		.byte	0xb
 4556 09b8 4B       		.byte	0x4b
 4557 09b9 1D       		.byte	0x1d
 4558 09ba 37090000 		.4byte	0x937
 4559 09be 03       		.uleb128 0x3
 4560 09bf DB060000 		.4byte	.LASF132
 4561 09c3 0B       		.byte	0xb
 4562 09c4 4C       		.byte	0x4c
 4563 09c5 1D       		.byte	0x1d
 4564 09c6 54090000 		.4byte	0x954
 4565 09ca 03       		.uleb128 0x3
 4566 09cb 4E000000 		.4byte	.LASF133
 4567 09cf 0B       		.byte	0xb
 4568 09d0 4D       		.byte	0x4d
 4569 09d1 1D       		.byte	0x1d
 4570 09d2 26090000 		.4byte	0x926
 4571 09d6 03       		.uleb128 0x3
 4572 09d7 76190000 		.4byte	.LASF134
 4573 09db 0B       		.byte	0xb
 4574 09dc 4F       		.byte	0x4f
 4575 09dd 1D       		.byte	0x1d
 4576 09de 54090000 		.4byte	0x954
 4577 09e2 03       		.uleb128 0x3
 4578 09e3 52230000 		.4byte	.LASF135
 4579 09e7 0B       		.byte	0xb
 4580 09e8 50       		.byte	0x50
 4581 09e9 1D       		.byte	0x1d
 4582 09ea 54090000 		.4byte	0x954
 4583 09ee 03       		.uleb128 0x3
 4584 09ef 0D1C0000 		.4byte	.LASF136
 4585 09f3 0B       		.byte	0xb
 4586 09f4 51       		.byte	0x51
 4587 09f5 1D       		.byte	0x1d
 4588 09f6 26090000 		.4byte	0x926
 4589 09fa 03       		.uleb128 0x3
 4590 09fb A5150000 		.4byte	.LASF137
 4591 09ff 0B       		.byte	0xb
 4592 0a00 52       		.byte	0x52
ARM GAS  /tmp/ccDzFi87.s 			page 82


 4593 0a01 1D       		.byte	0x1d
 4594 0a02 54090000 		.4byte	0x954
 4595 0a06 03       		.uleb128 0x3
 4596 0a07 D0030000 		.4byte	.LASF138
 4597 0a0b 0C       		.byte	0xc
 4598 0a0c 33       		.byte	0x33
 4599 0a0d 12       		.byte	0x12
 4600 0a0e 54090000 		.4byte	0x954
 4601 0a12 19       		.uleb128 0x19
 4602 0a13 060A0000 		.4byte	0xa06
 4603 0a17 03       		.uleb128 0x3
 4604 0a18 6C030000 		.4byte	.LASF139
 4605 0a1c 0C       		.byte	0xc
 4606 0a1d 3F       		.byte	0x3f
 4607 0a1e 1A       		.byte	0x1a
 4608 0a1f 230A0000 		.4byte	0xa23
 4609 0a23 0D       		.uleb128 0xd
 4610 0a24 A1090000 		.4byte	.LASF140
 4611 0a28 68       		.byte	0x68
 4612 0a29 0D       		.byte	0xd
 4613 0a2a C2       		.byte	0xc2
 4614 0a2b 08       		.byte	0x8
 4615 0a2c 580B0000 		.4byte	0xb58
 4616 0a30 0B       		.uleb128 0xb
 4617 0a31 88100000 		.4byte	.LASF141
 4618 0a35 0D       		.byte	0xd
 4619 0a36 C3       		.byte	0xc3
 4620 0a37 1A       		.byte	0x1a
 4621 0a38 640B0000 		.4byte	0xb64
 4622 0a3c 00       		.byte	0
 4623 0a3d 0B       		.uleb128 0xb
 4624 0a3e 100D0000 		.4byte	.LASF142
 4625 0a42 0D       		.byte	0xd
 4626 0a43 C5       		.byte	0xc5
 4627 0a44 1A       		.byte	0x1a
 4628 0a45 640B0000 		.4byte	0xb64
 4629 0a49 04       		.byte	0x4
 4630 0a4a 0B       		.uleb128 0xb
 4631 0a4b D30F0000 		.4byte	.LASF143
 4632 0a4f 0D       		.byte	0xd
 4633 0a50 C7       		.byte	0xc7
 4634 0a51 19       		.byte	0x19
 4635 0a52 BE090000 		.4byte	0x9be
 4636 0a56 08       		.byte	0x8
 4637 0a57 0B       		.uleb128 0xb
 4638 0a58 560A0000 		.4byte	.LASF144
 4639 0a5c 0D       		.byte	0xd
 4640 0a5d C8       		.byte	0xc8
 4641 0a5e 19       		.byte	0x19
 4642 0a5f F3170000 		.4byte	0x17f3
 4643 0a63 0C       		.byte	0xc
 4644 0a64 0B       		.uleb128 0xb
 4645 0a65 80020000 		.4byte	.LASF145
 4646 0a69 0D       		.byte	0xd
 4647 0a6a CA       		.byte	0xca
 4648 0a6b 1A       		.byte	0x1a
 4649 0a6c 640B0000 		.4byte	0xb64
ARM GAS  /tmp/ccDzFi87.s 			page 83


 4650 0a70 10       		.byte	0x10
 4651 0a71 0B       		.uleb128 0xb
 4652 0a72 10240000 		.4byte	.LASF146
 4653 0a76 0D       		.byte	0xd
 4654 0a77 CB       		.byte	0xcb
 4655 0a78 1A       		.byte	0x1a
 4656 0a79 640B0000 		.4byte	0xb64
 4657 0a7d 14       		.byte	0x14
 4658 0a7e 0B       		.uleb128 0xb
 4659 0a7f A0210000 		.4byte	.LASF147
 4660 0a83 0D       		.byte	0xd
 4661 0a84 D2       		.byte	0xd2
 4662 0a85 1A       		.byte	0x1a
 4663 0a86 EC050000 		.4byte	0x5ec
 4664 0a8a 18       		.byte	0x18
 4665 0a8b 0B       		.uleb128 0xb
 4666 0a8c 021C0000 		.4byte	.LASF148
 4667 0a90 0D       		.byte	0xd
 4668 0a91 D8       		.byte	0xd8
 4669 0a92 1A       		.byte	0x1a
 4670 0a93 B01B0000 		.4byte	0x1bb0
 4671 0a97 1C       		.byte	0x1c
 4672 0a98 0B       		.uleb128 0xb
 4673 0a99 4E260000 		.4byte	.LASF149
 4674 0a9d 0D       		.byte	0xd
 4675 0a9e DD       		.byte	0xdd
 4676 0a9f 19       		.byte	0x19
 4677 0aa0 9A090000 		.4byte	0x99a
 4678 0aa4 20       		.byte	0x20
 4679 0aa5 0B       		.uleb128 0xb
 4680 0aa6 DC200000 		.4byte	.LASF150
 4681 0aaa 0D       		.byte	0xd
 4682 0aab E1       		.byte	0xe1
 4683 0aac 19       		.byte	0x19
 4684 0aad 8E090000 		.4byte	0x98e
 4685 0ab1 21       		.byte	0x21
 4686 0ab2 0B       		.uleb128 0xb
 4687 0ab3 06180000 		.4byte	.LASF151
 4688 0ab7 0D       		.byte	0xd
 4689 0ab8 E6       		.byte	0xe6
 4690 0ab9 19       		.byte	0x19
 4691 0aba A6090000 		.4byte	0x9a6
 4692 0abe 22       		.byte	0x22
 4693 0abf 0B       		.uleb128 0xb
 4694 0ac0 91150000 		.4byte	.LASF152
 4695 0ac4 0D       		.byte	0xd
 4696 0ac5 EC       		.byte	0xec
 4697 0ac6 19       		.byte	0x19
 4698 0ac7 B2090000 		.4byte	0x9b2
 4699 0acb 23       		.byte	0x23
 4700 0acc 0B       		.uleb128 0xb
 4701 0acd FF170000 		.4byte	.LASF153
 4702 0ad1 0D       		.byte	0xd
 4703 0ad2 F3       		.byte	0xf3
 4704 0ad3 19       		.byte	0x19
 4705 0ad4 120A0000 		.4byte	0xa12
 4706 0ad8 24       		.byte	0x24
ARM GAS  /tmp/ccDzFi87.s 			page 84


 4707 0ad9 21       		.uleb128 0x21
 4708 0ada 705F7500 		.ascii	"p_u\000"
 4709 0ade 0D       		.byte	0xd
 4710 0adf 3101     		.2byte	0x131
 4711 0ae1 19       		.byte	0x19
 4712 0ae2 CF1A0000 		.4byte	0x1acf
 4713 0ae6 28       		.byte	0x28
 4714 0ae7 17       		.uleb128 0x17
 4715 0ae8 29050000 		.4byte	.LASF154
 4716 0aec 0D       		.byte	0xd
 4717 0aed 3601     		.2byte	0x136
 4718 0aef 19       		.byte	0x19
 4719 0af0 6A0B0000 		.4byte	0xb6a
 4720 0af4 2C       		.byte	0x2c
 4721 0af5 17       		.uleb128 0x17
 4722 0af6 1D160000 		.4byte	.LASF155
 4723 0afa 0D       		.byte	0xd
 4724 0afb 3C01     		.2byte	0x13c
 4725 0afd 19       		.byte	0x19
 4726 0afe 910B0000 		.4byte	0xb91
 4727 0b02 30       		.byte	0x30
 4728 0b03 17       		.uleb128 0x17
 4729 0b04 E2070000 		.4byte	.LASF156
 4730 0b08 0D       		.byte	0xd
 4731 0b09 4001     		.2byte	0x140
 4732 0b0b 19       		.byte	0x19
 4733 0b0c CA090000 		.4byte	0x9ca
 4734 0b10 38       		.byte	0x38
 4735 0b11 17       		.uleb128 0x17
 4736 0b12 E31E0000 		.4byte	.LASF157
 4737 0b16 0D       		.byte	0xd
 4738 0b17 4601     		.2byte	0x146
 4739 0b19 19       		.byte	0x19
 4740 0b1a D6090000 		.4byte	0x9d6
 4741 0b1e 3C       		.byte	0x3c
 4742 0b1f 17       		.uleb128 0x17
 4743 0b20 07210000 		.4byte	.LASF158
 4744 0b24 0D       		.byte	0xd
 4745 0b25 4D01     		.2byte	0x14d
 4746 0b27 1A       		.byte	0x1a
 4747 0b28 AA1B0000 		.4byte	0x1baa
 4748 0b2c 40       		.byte	0x40
 4749 0b2d 17       		.uleb128 0x17
 4750 0b2e 691D0000 		.4byte	.LASF159
 4751 0b32 0D       		.byte	0xd
 4752 0b33 5101     		.2byte	0x151
 4753 0b35 19       		.byte	0x19
 4754 0b36 BE090000 		.4byte	0x9be
 4755 0b3a 44       		.byte	0x44
 4756 0b3b 17       		.uleb128 0x17
 4757 0b3c F1100000 		.4byte	.LASF160
 4758 0b40 0D       		.byte	0xd
 4759 0b41 5801     		.2byte	0x158
 4760 0b43 1A       		.byte	0x1a
 4761 0b44 05010000 		.4byte	0x105
 4762 0b48 48       		.byte	0x48
 4763 0b49 17       		.uleb128 0x17
ARM GAS  /tmp/ccDzFi87.s 			page 85


 4764 0b4a 89260000 		.4byte	.LASF161
 4765 0b4e 0D       		.byte	0xd
 4766 0b4f 5E01     		.2byte	0x15e
 4767 0b51 19       		.byte	0x19
 4768 0b52 791A0000 		.4byte	0x1a79
 4769 0b56 50       		.byte	0x50
 4770 0b57 00       		.byte	0
 4771 0b58 03       		.uleb128 0x3
 4772 0b59 65240000 		.4byte	.LASF162
 4773 0b5d 0C       		.byte	0xc
 4774 0b5e 44       		.byte	0x44
 4775 0b5f 14       		.byte	0x14
 4776 0b60 640B0000 		.4byte	0xb64
 4777 0b64 0F       		.uleb128 0xf
 4778 0b65 04       		.byte	0x4
 4779 0b66 170A0000 		.4byte	0xa17
 4780 0b6a 03       		.uleb128 0x3
 4781 0b6b 68050000 		.4byte	.LASF163
 4782 0b6f 0C       		.byte	0xc
 4783 0b70 49       		.byte	0x49
 4784 0b71 20       		.byte	0x20
 4785 0b72 760B0000 		.4byte	0xb76
 4786 0b76 0D       		.uleb128 0xd
 4787 0b77 68260000 		.4byte	.LASF164
 4788 0b7b 04       		.byte	0x4
 4789 0b7c 0D       		.byte	0xd
 4790 0b7d B0       		.byte	0xb0
 4791 0b7e 08       		.byte	0x8
 4792 0b7f 910B0000 		.4byte	0xb91
 4793 0b83 0B       		.uleb128 0xb
 4794 0b84 88100000 		.4byte	.LASF141
 4795 0b88 0D       		.byte	0xd
 4796 0b89 B1       		.byte	0xb1
 4797 0b8a 1A       		.byte	0x1a
 4798 0b8b 640B0000 		.4byte	0xb64
 4799 0b8f 00       		.byte	0
 4800 0b90 00       		.byte	0
 4801 0b91 03       		.uleb128 0x3
 4802 0b92 C3170000 		.4byte	.LASF165
 4803 0b96 0C       		.byte	0xc
 4804 0b97 50       		.byte	0x50
 4805 0b98 21       		.byte	0x21
 4806 0b99 9D0B0000 		.4byte	0xb9d
 4807 0b9d 0D       		.uleb128 0xd
 4808 0b9e 4A020000 		.4byte	.LASF166
 4809 0ba2 08       		.byte	0x8
 4810 0ba3 0D       		.byte	0xd
 4811 0ba4 B7       		.byte	0xb7
 4812 0ba5 08       		.byte	0x8
 4813 0ba6 C50B0000 		.4byte	0xbc5
 4814 0baa 0B       		.uleb128 0xb
 4815 0bab 88100000 		.4byte	.LASF141
 4816 0baf 0D       		.byte	0xd
 4817 0bb0 B8       		.byte	0xb8
 4818 0bb1 1A       		.byte	0x1a
 4819 0bb2 640B0000 		.4byte	0xb64
 4820 0bb6 00       		.byte	0
ARM GAS  /tmp/ccDzFi87.s 			page 86


 4821 0bb7 0B       		.uleb128 0xb
 4822 0bb8 100D0000 		.4byte	.LASF142
 4823 0bbc 0D       		.byte	0xd
 4824 0bbd B9       		.byte	0xb9
 4825 0bbe 1A       		.byte	0x1a
 4826 0bbf 640B0000 		.4byte	0xb64
 4827 0bc3 04       		.byte	0x4
 4828 0bc4 00       		.byte	0
 4829 0bc5 03       		.uleb128 0x3
 4830 0bc6 94090000 		.4byte	.LASF167
 4831 0bca 0C       		.byte	0xc
 4832 0bcb 57       		.byte	0x57
 4833 0bcc 1E       		.byte	0x1e
 4834 0bcd D10B0000 		.4byte	0xbd1
 4835 0bd1 1A       		.uleb128 0x1a
 4836 0bd2 2F1E0000 		.4byte	.LASF168
 4837 0bd6 1C       		.byte	0x1c
 4838 0bd7 0D       		.byte	0xd
 4839 0bd8 9001     		.2byte	0x190
 4840 0bda 08       		.byte	0x8
 4841 0bdb 340C0000 		.4byte	0xc34
 4842 0bdf 17       		.uleb128 0x17
 4843 0be0 621A0000 		.4byte	.LASF169
 4844 0be4 0D       		.byte	0xd
 4845 0be5 9101     		.2byte	0x191
 4846 0be7 19       		.byte	0x19
 4847 0be8 910B0000 		.4byte	0xb91
 4848 0bec 00       		.byte	0
 4849 0bed 17       		.uleb128 0x17
 4850 0bee FD1F0000 		.4byte	.LASF170
 4851 0bf2 0D       		.byte	0xd
 4852 0bf3 9201     		.2byte	0x192
 4853 0bf5 19       		.byte	0x19
 4854 0bf6 BE090000 		.4byte	0x9be
 4855 0bfa 08       		.byte	0x8
 4856 0bfb 17       		.uleb128 0x17
 4857 0bfc 260C0000 		.4byte	.LASF171
 4858 0c00 0D       		.byte	0xd
 4859 0c01 9401     		.2byte	0x194
 4860 0c03 19       		.byte	0x19
 4861 0c04 F3170000 		.4byte	0x17f3
 4862 0c08 0C       		.byte	0xc
 4863 0c09 17       		.uleb128 0x17
 4864 0c0a F5130000 		.4byte	.LASF172
 4865 0c0e 0D       		.byte	0xd
 4866 0c0f 9701     		.2byte	0x197
 4867 0c11 1A       		.byte	0x1a
 4868 0c12 640B0000 		.4byte	0xb64
 4869 0c16 10       		.byte	0x10
 4870 0c17 17       		.uleb128 0x17
 4871 0c18 080D0000 		.4byte	.LASF173
 4872 0c1c 0D       		.byte	0xd
 4873 0c1d 9801     		.2byte	0x198
 4874 0c1f 1A       		.byte	0x1a
 4875 0c20 640B0000 		.4byte	0xb64
 4876 0c24 14       		.byte	0x14
 4877 0c25 17       		.uleb128 0x17
ARM GAS  /tmp/ccDzFi87.s 			page 87


 4878 0c26 010F0000 		.4byte	.LASF174
 4879 0c2a 0D       		.byte	0xd
 4880 0c2b 9B01     		.2byte	0x19b
 4881 0c2d 1A       		.byte	0x1a
 4882 0c2e 640B0000 		.4byte	0xb64
 4883 0c32 18       		.byte	0x18
 4884 0c33 00       		.byte	0
 4885 0c34 03       		.uleb128 0x3
 4886 0c35 121D0000 		.4byte	.LASF175
 4887 0c39 0C       		.byte	0xc
 4888 0c3a 5C       		.byte	0x5c
 4889 0c3b 10       		.byte	0x10
 4890 0c3c 400C0000 		.4byte	0xc40
 4891 0c40 0F       		.uleb128 0xf
 4892 0c41 04       		.byte	0x4
 4893 0c42 460C0000 		.4byte	0xc46
 4894 0c46 1F       		.uleb128 0x1f
 4895 0c47 510C0000 		.4byte	0xc51
 4896 0c4b 14       		.uleb128 0x14
 4897 0c4c 05010000 		.4byte	0x105
 4898 0c50 00       		.byte	0
 4899 0c51 03       		.uleb128 0x3
 4900 0c52 0A0C0000 		.4byte	.LASF176
 4901 0c56 0C       		.byte	0xc
 4902 0c57 61       		.byte	0x61
 4903 0c58 21       		.byte	0x21
 4904 0c59 5D0C0000 		.4byte	0xc5d
 4905 0c5d 1A       		.uleb128 0x1a
 4906 0c5e CB200000 		.4byte	.LASF177
 4907 0c62 14       		.byte	0x14
 4908 0c63 0D       		.byte	0xd
 4909 0c64 6B01     		.2byte	0x16b
 4910 0c66 08       		.byte	0x8
 4911 0c67 B20C0000 		.4byte	0xcb2
 4912 0c6b 17       		.uleb128 0x17
 4913 0c6c 2C0C0000 		.4byte	.LASF178
 4914 0c70 0D       		.byte	0xd
 4915 0c71 6C01     		.2byte	0x16c
 4916 0c73 1A       		.byte	0x1a
 4917 0c74 B61B0000 		.4byte	0x1bb6
 4918 0c78 00       		.byte	0
 4919 0c79 17       		.uleb128 0x17
 4920 0c7a 49090000 		.4byte	.LASF179
 4921 0c7e 0D       		.byte	0xd
 4922 0c7f 6D01     		.2byte	0x16d
 4923 0c81 1A       		.byte	0x1a
 4924 0c82 B61B0000 		.4byte	0x1bb6
 4925 0c86 04       		.byte	0x4
 4926 0c87 17       		.uleb128 0x17
 4927 0c88 E5140000 		.4byte	.LASF180
 4928 0c8c 0D       		.byte	0xd
 4929 0c8d 6E01     		.2byte	0x16e
 4930 0c8f 19       		.byte	0x19
 4931 0c90 060A0000 		.4byte	0xa06
 4932 0c94 08       		.byte	0x8
 4933 0c95 17       		.uleb128 0x17
 4934 0c96 B6200000 		.4byte	.LASF181
ARM GAS  /tmp/ccDzFi87.s 			page 88


 4935 0c9a 0D       		.byte	0xd
 4936 0c9b 6F01     		.2byte	0x16f
 4937 0c9d 19       		.byte	0x19
 4938 0c9e 340C0000 		.4byte	0xc34
 4939 0ca2 0C       		.byte	0xc
 4940 0ca3 17       		.uleb128 0x17
 4941 0ca4 5C0A0000 		.4byte	.LASF182
 4942 0ca8 0D       		.byte	0xd
 4943 0ca9 7101     		.2byte	0x171
 4944 0cab 1A       		.byte	0x1a
 4945 0cac 05010000 		.4byte	0x105
 4946 0cb0 10       		.byte	0x10
 4947 0cb1 00       		.byte	0
 4948 0cb2 03       		.uleb128 0x3
 4949 0cb3 19220000 		.4byte	.LASF183
 4950 0cb7 0C       		.byte	0xc
 4951 0cb8 66       		.byte	0x66
 4952 0cb9 28       		.byte	0x28
 4953 0cba BE0C0000 		.4byte	0xcbe
 4954 0cbe 1A       		.uleb128 0x1a
 4955 0cbf 96030000 		.4byte	.LASF184
 4956 0cc3 10       		.byte	0x10
 4957 0cc4 0D       		.byte	0xd
 4958 0cc5 7B01     		.2byte	0x17b
 4959 0cc7 08       		.byte	0x8
 4960 0cc8 050D0000 		.4byte	0xd05
 4961 0ccc 17       		.uleb128 0x17
 4962 0ccd 2C0C0000 		.4byte	.LASF178
 4963 0cd1 0D       		.byte	0xd
 4964 0cd2 7C01     		.2byte	0x17c
 4965 0cd4 1A       		.byte	0x1a
 4966 0cd5 B61B0000 		.4byte	0x1bb6
 4967 0cd9 00       		.byte	0
 4968 0cda 17       		.uleb128 0x17
 4969 0cdb 49090000 		.4byte	.LASF179
 4970 0cdf 0D       		.byte	0xd
 4971 0ce0 7E01     		.2byte	0x17e
 4972 0ce2 1A       		.byte	0x1a
 4973 0ce3 B61B0000 		.4byte	0x1bb6
 4974 0ce7 04       		.byte	0x4
 4975 0ce8 17       		.uleb128 0x17
 4976 0ce9 E5140000 		.4byte	.LASF180
 4977 0ced 0D       		.byte	0xd
 4978 0cee 8001     		.2byte	0x180
 4979 0cf0 19       		.byte	0x19
 4980 0cf1 060A0000 		.4byte	0xa06
 4981 0cf5 08       		.byte	0x8
 4982 0cf6 17       		.uleb128 0x17
 4983 0cf7 62010000 		.4byte	.LASF185
 4984 0cfb 0D       		.byte	0xd
 4985 0cfc 8201     		.2byte	0x182
 4986 0cfe 19       		.byte	0x19
 4987 0cff 120A0000 		.4byte	0xa12
 4988 0d03 0C       		.byte	0xc
 4989 0d04 00       		.byte	0
 4990 0d05 03       		.uleb128 0x3
 4991 0d06 0F0A0000 		.4byte	.LASF186
ARM GAS  /tmp/ccDzFi87.s 			page 89


 4992 0d0a 0C       		.byte	0xc
 4993 0d0b 6B       		.byte	0x6b
 4994 0d0c 20       		.byte	0x20
 4995 0d0d 110D0000 		.4byte	0xd11
 4996 0d11 16       		.uleb128 0x16
 4997 0d12 4D1E0000 		.4byte	.LASF187
 4998 0d16 1404     		.2byte	0x414
 4999 0d18 0D       		.byte	0xd
 5000 0d19 A201     		.2byte	0x1a2
 5001 0d1b 08       		.byte	0x8
 5002 0d1c 590D0000 		.4byte	0xd59
 5003 0d20 17       		.uleb128 0x17
 5004 0d21 8C120000 		.4byte	.LASF188
 5005 0d25 0D       		.byte	0xd
 5006 0d26 AA01     		.2byte	0x1aa
 5007 0d28 24       		.byte	0x24
 5008 0d29 F2050000 		.4byte	0x5f2
 5009 0d2d 00       		.byte	0
 5010 0d2e 17       		.uleb128 0x17
 5011 0d2f 3F120000 		.4byte	.LASF189
 5012 0d33 0D       		.byte	0xd
 5013 0d34 AF01     		.2byte	0x1af
 5014 0d36 19       		.byte	0x19
 5015 0d37 EE090000 		.4byte	0x9ee
 5016 0d3b 04       		.byte	0x4
 5017 0d3c 17       		.uleb128 0x17
 5018 0d3d 41020000 		.4byte	.LASF190
 5019 0d41 0D       		.byte	0xd
 5020 0d42 B301     		.2byte	0x1b3
 5021 0d44 19       		.byte	0x19
 5022 0d45 EE090000 		.4byte	0x9ee
 5023 0d49 08       		.byte	0x8
 5024 0d4a 17       		.uleb128 0x17
 5025 0d4b 45170000 		.4byte	.LASF191
 5026 0d4f 0D       		.byte	0xd
 5027 0d50 B901     		.2byte	0x1b9
 5028 0d52 19       		.byte	0x19
 5029 0d53 011A0000 		.4byte	0x1a01
 5030 0d57 0C       		.byte	0xc
 5031 0d58 00       		.byte	0
 5032 0d59 03       		.uleb128 0x3
 5033 0d5a D4000000 		.4byte	.LASF192
 5034 0d5e 0C       		.byte	0xc
 5035 0d5f 70       		.byte	0x70
 5036 0d60 1A       		.byte	0x1a
 5037 0d61 650D0000 		.4byte	0xd65
 5038 0d65 16       		.uleb128 0x16
 5039 0d66 15170000 		.4byte	.LASF193
 5040 0d6a 7006     		.2byte	0x670
 5041 0d6c 0D       		.byte	0xd
 5042 0d6d C201     		.2byte	0x1c2
 5043 0d6f 08       		.byte	0x8
 5044 0d70 DA0D0000 		.4byte	0xdda
 5045 0d74 17       		.uleb128 0x17
 5046 0d75 62050000 		.4byte	.LASF194
 5047 0d79 0D       		.byte	0xd
 5048 0d7a C601     		.2byte	0x1c6
ARM GAS  /tmp/ccDzFi87.s 			page 90


 5049 0d7c 19       		.byte	0x19
 5050 0d7d C50B0000 		.4byte	0xbc5
 5051 0d81 00       		.byte	0
 5052 0d82 17       		.uleb128 0x17
 5053 0d83 13050000 		.4byte	.LASF195
 5054 0d87 0D       		.byte	0xd
 5055 0d88 CA01     		.2byte	0x1ca
 5056 0d8a 19       		.byte	0x19
 5057 0d8b B20C0000 		.4byte	0xcb2
 5058 0d8f 1C       		.byte	0x1c
 5059 0d90 21       		.uleb128 0x21
 5060 0d91 64626700 		.ascii	"dbg\000"
 5061 0d95 0D       		.byte	0xd
 5062 0d96 CE01     		.2byte	0x1ce
 5063 0d98 19       		.byte	0x19
 5064 0d99 050D0000 		.4byte	0xd05
 5065 0d9d 2C       		.byte	0x2c
 5066 0d9e 18       		.uleb128 0x18
 5067 0d9f 30180000 		.4byte	.LASF196
 5068 0da3 0D       		.byte	0xd
 5069 0da4 D201     		.2byte	0x1d2
 5070 0da6 19       		.byte	0x19
 5071 0da7 170A0000 		.4byte	0xa17
 5072 0dab 4004     		.2byte	0x440
 5073 0dad 22       		.uleb128 0x22
 5074 0dae 746D00   		.ascii	"tm\000"
 5075 0db1 0D       		.byte	0xd
 5076 0db2 D701     		.2byte	0x1d7
 5077 0db4 19       		.byte	0x19
 5078 0db5 241A0000 		.4byte	0x1a24
 5079 0db9 A804     		.2byte	0x4a8
 5080 0dbb 18       		.uleb128 0x18
 5081 0dbc E71B0000 		.4byte	.LASF197
 5082 0dc0 0D       		.byte	0xd
 5083 0dc1 DD01     		.2byte	0x1dd
 5084 0dc3 19       		.byte	0x19
 5085 0dc4 C31A0000 		.4byte	0x1ac3
 5086 0dc8 B004     		.2byte	0x4b0
 5087 0dca 18       		.uleb128 0x18
 5088 0dcb 93200000 		.4byte	.LASF198
 5089 0dcf 0D       		.byte	0xd
 5090 0dd0 E301     		.2byte	0x1e3
 5091 0dd2 03       		.byte	0x3
 5092 0dd3 BC1B0000 		.4byte	0x1bbc
 5093 0dd7 E804     		.2byte	0x4e8
 5094 0dd9 00       		.byte	0
 5095 0dda 08       		.uleb128 0x8
 5096 0ddb 54090000 		.4byte	0x954
 5097 0ddf EA0D0000 		.4byte	0xdea
 5098 0de3 09       		.uleb128 0x9
 5099 0de4 38000000 		.4byte	0x38
 5100 0de8 00       		.byte	0
 5101 0de9 00       		.byte	0
 5102 0dea 08       		.uleb128 0x8
 5103 0deb 54090000 		.4byte	0x954
 5104 0def FA0D0000 		.4byte	0xdfa
 5105 0df3 09       		.uleb128 0x9
ARM GAS  /tmp/ccDzFi87.s 			page 91


 5106 0df4 38000000 		.4byte	0x38
 5107 0df8 01       		.byte	0x1
 5108 0df9 00       		.byte	0
 5109 0dfa 08       		.uleb128 0x8
 5110 0dfb 54090000 		.4byte	0x954
 5111 0dff 0A0E0000 		.4byte	0xe0a
 5112 0e03 09       		.uleb128 0x9
 5113 0e04 38000000 		.4byte	0x38
 5114 0e08 07       		.byte	0x7
 5115 0e09 00       		.byte	0
 5116 0e0a 20       		.uleb128 0x20
 5117 0e0b 0B200000 		.4byte	.LASF199
 5118 0e0f 0E       		.byte	0xe
 5119 0e10 A706     		.2byte	0x6a7
 5120 0e12 19       		.byte	0x19
 5121 0e13 32090000 		.4byte	0x932
 5122 0e17 23       		.uleb128 0x23
 5123 0e18 51160000 		.4byte	.LASF200
 5124 0e1c 0F       		.byte	0xf
 5125 0e1d 4C       		.byte	0x4c
 5126 0e1e 11       		.byte	0x11
 5127 0e1f 54090000 		.4byte	0x954
 5128 0e23 0A       		.uleb128 0xa
 5129 0e24 50       		.byte	0x50
 5130 0e25 10       		.byte	0x10
 5131 0e26 C4       		.byte	0xc4
 5132 0e27 09       		.byte	0x9
 5133 0e28 2F0F0000 		.4byte	0xf2f
 5134 0e2c 0E       		.uleb128 0xe
 5135 0e2d 535200   		.ascii	"SR\000"
 5136 0e30 10       		.byte	0x10
 5137 0e31 C6       		.byte	0xc6
 5138 0e32 11       		.byte	0x11
 5139 0e33 60090000 		.4byte	0x960
 5140 0e37 00       		.byte	0
 5141 0e38 0E       		.uleb128 0xe
 5142 0e39 43523100 		.ascii	"CR1\000"
 5143 0e3d 10       		.byte	0x10
 5144 0e3e C7       		.byte	0xc7
 5145 0e3f 11       		.byte	0x11
 5146 0e40 60090000 		.4byte	0x960
 5147 0e44 04       		.byte	0x4
 5148 0e45 0E       		.uleb128 0xe
 5149 0e46 43523200 		.ascii	"CR2\000"
 5150 0e4a 10       		.byte	0x10
 5151 0e4b C8       		.byte	0xc8
 5152 0e4c 11       		.byte	0x11
 5153 0e4d 60090000 		.4byte	0x960
 5154 0e51 08       		.byte	0x8
 5155 0e52 0B       		.uleb128 0xb
 5156 0e53 B0020000 		.4byte	.LASF201
 5157 0e57 10       		.byte	0x10
 5158 0e58 C9       		.byte	0xc9
 5159 0e59 11       		.byte	0x11
 5160 0e5a 60090000 		.4byte	0x960
 5161 0e5e 0C       		.byte	0xc
 5162 0e5f 0B       		.uleb128 0xb
ARM GAS  /tmp/ccDzFi87.s 			page 92


 5163 0e60 B6020000 		.4byte	.LASF202
 5164 0e64 10       		.byte	0x10
 5165 0e65 CA       		.byte	0xca
 5166 0e66 11       		.byte	0x11
 5167 0e67 60090000 		.4byte	0x960
 5168 0e6b 10       		.byte	0x10
 5169 0e6c 0B       		.uleb128 0xb
 5170 0e6d 630A0000 		.4byte	.LASF203
 5171 0e71 10       		.byte	0x10
 5172 0e72 CB       		.byte	0xcb
 5173 0e73 11       		.byte	0x11
 5174 0e74 60090000 		.4byte	0x960
 5175 0e78 14       		.byte	0x14
 5176 0e79 0B       		.uleb128 0xb
 5177 0e7a 690A0000 		.4byte	.LASF204
 5178 0e7e 10       		.byte	0x10
 5179 0e7f CC       		.byte	0xcc
 5180 0e80 11       		.byte	0x11
 5181 0e81 60090000 		.4byte	0x960
 5182 0e85 18       		.byte	0x18
 5183 0e86 0B       		.uleb128 0xb
 5184 0e87 B20F0000 		.4byte	.LASF205
 5185 0e8b 10       		.byte	0x10
 5186 0e8c CD       		.byte	0xcd
 5187 0e8d 11       		.byte	0x11
 5188 0e8e 60090000 		.4byte	0x960
 5189 0e92 1C       		.byte	0x1c
 5190 0e93 0B       		.uleb128 0xb
 5191 0e94 6F0A0000 		.4byte	.LASF206
 5192 0e98 10       		.byte	0x10
 5193 0e99 CE       		.byte	0xce
 5194 0e9a 11       		.byte	0x11
 5195 0e9b 60090000 		.4byte	0x960
 5196 0e9f 20       		.byte	0x20
 5197 0ea0 0E       		.uleb128 0xe
 5198 0ea1 48545200 		.ascii	"HTR\000"
 5199 0ea5 10       		.byte	0x10
 5200 0ea6 CF       		.byte	0xcf
 5201 0ea7 11       		.byte	0x11
 5202 0ea8 60090000 		.4byte	0x960
 5203 0eac 24       		.byte	0x24
 5204 0ead 0E       		.uleb128 0xe
 5205 0eae 4C545200 		.ascii	"LTR\000"
 5206 0eb2 10       		.byte	0x10
 5207 0eb3 D0       		.byte	0xd0
 5208 0eb4 11       		.byte	0x11
 5209 0eb5 60090000 		.4byte	0x960
 5210 0eb9 28       		.byte	0x28
 5211 0eba 0B       		.uleb128 0xb
 5212 0ebb 7B110000 		.4byte	.LASF207
 5213 0ebf 10       		.byte	0x10
 5214 0ec0 D1       		.byte	0xd1
 5215 0ec1 11       		.byte	0x11
 5216 0ec2 60090000 		.4byte	0x960
 5217 0ec6 2C       		.byte	0x2c
 5218 0ec7 0B       		.uleb128 0xb
 5219 0ec8 80110000 		.4byte	.LASF208
ARM GAS  /tmp/ccDzFi87.s 			page 93


 5220 0ecc 10       		.byte	0x10
 5221 0ecd D2       		.byte	0xd2
 5222 0ece 11       		.byte	0x11
 5223 0ecf 60090000 		.4byte	0x960
 5224 0ed3 30       		.byte	0x30
 5225 0ed4 0B       		.uleb128 0xb
 5226 0ed5 85110000 		.4byte	.LASF209
 5227 0ed9 10       		.byte	0x10
 5228 0eda D3       		.byte	0xd3
 5229 0edb 11       		.byte	0x11
 5230 0edc 60090000 		.4byte	0x960
 5231 0ee0 34       		.byte	0x34
 5232 0ee1 0B       		.uleb128 0xb
 5233 0ee2 D70B0000 		.4byte	.LASF210
 5234 0ee6 10       		.byte	0x10
 5235 0ee7 D4       		.byte	0xd4
 5236 0ee8 11       		.byte	0x11
 5237 0ee9 60090000 		.4byte	0x960
 5238 0eed 38       		.byte	0x38
 5239 0eee 0B       		.uleb128 0xb
 5240 0eef BF210000 		.4byte	.LASF211
 5241 0ef3 10       		.byte	0x10
 5242 0ef4 D5       		.byte	0xd5
 5243 0ef5 11       		.byte	0x11
 5244 0ef6 60090000 		.4byte	0x960
 5245 0efa 3C       		.byte	0x3c
 5246 0efb 0B       		.uleb128 0xb
 5247 0efc C4210000 		.4byte	.LASF212
 5248 0f00 10       		.byte	0x10
 5249 0f01 D6       		.byte	0xd6
 5250 0f02 11       		.byte	0x11
 5251 0f03 60090000 		.4byte	0x960
 5252 0f07 40       		.byte	0x40
 5253 0f08 0B       		.uleb128 0xb
 5254 0f09 C9210000 		.4byte	.LASF213
 5255 0f0d 10       		.byte	0x10
 5256 0f0e D7       		.byte	0xd7
 5257 0f0f 11       		.byte	0x11
 5258 0f10 60090000 		.4byte	0x960
 5259 0f14 44       		.byte	0x44
 5260 0f15 0B       		.uleb128 0xb
 5261 0f16 CE210000 		.4byte	.LASF214
 5262 0f1a 10       		.byte	0x10
 5263 0f1b D8       		.byte	0xd8
 5264 0f1c 11       		.byte	0x11
 5265 0f1d 60090000 		.4byte	0x960
 5266 0f21 48       		.byte	0x48
 5267 0f22 0E       		.uleb128 0xe
 5268 0f23 445200   		.ascii	"DR\000"
 5269 0f26 10       		.byte	0x10
 5270 0f27 D9       		.byte	0xd9
 5271 0f28 11       		.byte	0x11
 5272 0f29 60090000 		.4byte	0x960
 5273 0f2d 4C       		.byte	0x4c
 5274 0f2e 00       		.byte	0
 5275 0f2f 03       		.uleb128 0x3
 5276 0f30 2C150000 		.4byte	.LASF215
ARM GAS  /tmp/ccDzFi87.s 			page 94


 5277 0f34 10       		.byte	0x10
 5278 0f35 DA       		.byte	0xda
 5279 0f36 03       		.byte	0x3
 5280 0f37 230E0000 		.4byte	0xe23
 5281 0f3b 0A       		.uleb128 0xa
 5282 0f3c 10       		.byte	0x10
 5283 0f3d 10       		.byte	0x10
 5284 0f3e E9       		.byte	0xe9
 5285 0f3f 09       		.byte	0x9
 5286 0f40 790F0000 		.4byte	0xf79
 5287 0f44 0E       		.uleb128 0xe
 5288 0f45 54495200 		.ascii	"TIR\000"
 5289 0f49 10       		.byte	0x10
 5290 0f4a EB       		.byte	0xeb
 5291 0f4b 11       		.byte	0x11
 5292 0f4c 60090000 		.4byte	0x960
 5293 0f50 00       		.byte	0
 5294 0f51 0B       		.uleb128 0xb
 5295 0f52 660F0000 		.4byte	.LASF216
 5296 0f56 10       		.byte	0x10
 5297 0f57 EC       		.byte	0xec
 5298 0f58 11       		.byte	0x11
 5299 0f59 60090000 		.4byte	0x960
 5300 0f5d 04       		.byte	0x4
 5301 0f5e 0B       		.uleb128 0xb
 5302 0f5f 22180000 		.4byte	.LASF217
 5303 0f63 10       		.byte	0x10
 5304 0f64 ED       		.byte	0xed
 5305 0f65 11       		.byte	0x11
 5306 0f66 60090000 		.4byte	0x960
 5307 0f6a 08       		.byte	0x8
 5308 0f6b 0B       		.uleb128 0xb
 5309 0f6c AC150000 		.4byte	.LASF218
 5310 0f70 10       		.byte	0x10
 5311 0f71 EE       		.byte	0xee
 5312 0f72 11       		.byte	0x11
 5313 0f73 60090000 		.4byte	0x960
 5314 0f77 0C       		.byte	0xc
 5315 0f78 00       		.byte	0
 5316 0f79 03       		.uleb128 0x3
 5317 0f7a 4C050000 		.4byte	.LASF219
 5318 0f7e 10       		.byte	0x10
 5319 0f7f EF       		.byte	0xef
 5320 0f80 03       		.byte	0x3
 5321 0f81 3B0F0000 		.4byte	0xf3b
 5322 0f85 0A       		.uleb128 0xa
 5323 0f86 10       		.byte	0x10
 5324 0f87 10       		.byte	0x10
 5325 0f88 F5       		.byte	0xf5
 5326 0f89 09       		.byte	0x9
 5327 0f8a C30F0000 		.4byte	0xfc3
 5328 0f8e 0E       		.uleb128 0xe
 5329 0f8f 52495200 		.ascii	"RIR\000"
 5330 0f93 10       		.byte	0x10
 5331 0f94 F7       		.byte	0xf7
 5332 0f95 11       		.byte	0x11
 5333 0f96 60090000 		.4byte	0x960
ARM GAS  /tmp/ccDzFi87.s 			page 95


 5334 0f9a 00       		.byte	0
 5335 0f9b 0B       		.uleb128 0xb
 5336 0f9c 0D1E0000 		.4byte	.LASF220
 5337 0fa0 10       		.byte	0x10
 5338 0fa1 F8       		.byte	0xf8
 5339 0fa2 11       		.byte	0x11
 5340 0fa3 60090000 		.4byte	0x960
 5341 0fa7 04       		.byte	0x4
 5342 0fa8 0B       		.uleb128 0xb
 5343 0fa9 52190000 		.4byte	.LASF221
 5344 0fad 10       		.byte	0x10
 5345 0fae F9       		.byte	0xf9
 5346 0faf 11       		.byte	0x11
 5347 0fb0 60090000 		.4byte	0x960
 5348 0fb4 08       		.byte	0x8
 5349 0fb5 0B       		.uleb128 0xb
 5350 0fb6 D5160000 		.4byte	.LASF222
 5351 0fba 10       		.byte	0x10
 5352 0fbb FA       		.byte	0xfa
 5353 0fbc 11       		.byte	0x11
 5354 0fbd 60090000 		.4byte	0x960
 5355 0fc1 0C       		.byte	0xc
 5356 0fc2 00       		.byte	0
 5357 0fc3 03       		.uleb128 0x3
 5358 0fc4 1B1D0000 		.4byte	.LASF223
 5359 0fc8 10       		.byte	0x10
 5360 0fc9 FB       		.byte	0xfb
 5361 0fca 03       		.byte	0x3
 5362 0fcb 850F0000 		.4byte	0xf85
 5363 0fcf 1B       		.uleb128 0x1b
 5364 0fd0 08       		.byte	0x8
 5365 0fd1 10       		.byte	0x10
 5366 0fd2 0101     		.2byte	0x101
 5367 0fd4 09       		.byte	0x9
 5368 0fd5 F60F0000 		.4byte	0xff6
 5369 0fd9 21       		.uleb128 0x21
 5370 0fda 46523100 		.ascii	"FR1\000"
 5371 0fde 10       		.byte	0x10
 5372 0fdf 0301     		.2byte	0x103
 5373 0fe1 11       		.byte	0x11
 5374 0fe2 60090000 		.4byte	0x960
 5375 0fe6 00       		.byte	0
 5376 0fe7 21       		.uleb128 0x21
 5377 0fe8 46523200 		.ascii	"FR2\000"
 5378 0fec 10       		.byte	0x10
 5379 0fed 0401     		.2byte	0x104
 5380 0fef 11       		.byte	0x11
 5381 0ff0 60090000 		.4byte	0x960
 5382 0ff4 04       		.byte	0x4
 5383 0ff5 00       		.byte	0
 5384 0ff6 05       		.uleb128 0x5
 5385 0ff7 7E0F0000 		.4byte	.LASF224
 5386 0ffb 10       		.byte	0x10
 5387 0ffc 0501     		.2byte	0x105
 5388 0ffe 03       		.byte	0x3
 5389 0fff CF0F0000 		.4byte	0xfcf
 5390 1003 24       		.uleb128 0x24
ARM GAS  /tmp/ccDzFi87.s 			page 96


 5391 1004 2003     		.2byte	0x320
 5392 1006 10       		.byte	0x10
 5393 1007 0B01     		.2byte	0x10b
 5394 1009 09       		.byte	0x9
 5395 100a 50110000 		.4byte	0x1150
 5396 100e 21       		.uleb128 0x21
 5397 100f 4D435200 		.ascii	"MCR\000"
 5398 1013 10       		.byte	0x10
 5399 1014 0D01     		.2byte	0x10d
 5400 1016 1E       		.byte	0x1e
 5401 1017 60090000 		.4byte	0x960
 5402 101b 00       		.byte	0
 5403 101c 21       		.uleb128 0x21
 5404 101d 4D535200 		.ascii	"MSR\000"
 5405 1021 10       		.byte	0x10
 5406 1022 0E01     		.2byte	0x10e
 5407 1024 1E       		.byte	0x1e
 5408 1025 60090000 		.4byte	0x960
 5409 1029 04       		.byte	0x4
 5410 102a 21       		.uleb128 0x21
 5411 102b 54535200 		.ascii	"TSR\000"
 5412 102f 10       		.byte	0x10
 5413 1030 0F01     		.2byte	0x10f
 5414 1032 1E       		.byte	0x1e
 5415 1033 60090000 		.4byte	0x960
 5416 1037 08       		.byte	0x8
 5417 1038 17       		.uleb128 0x17
 5418 1039 D40D0000 		.4byte	.LASF225
 5419 103d 10       		.byte	0x10
 5420 103e 1001     		.2byte	0x110
 5421 1040 1E       		.byte	0x1e
 5422 1041 60090000 		.4byte	0x960
 5423 1045 0C       		.byte	0xc
 5424 1046 17       		.uleb128 0x17
 5425 1047 8E190000 		.4byte	.LASF226
 5426 104b 10       		.byte	0x10
 5427 104c 1101     		.2byte	0x111
 5428 104e 1E       		.byte	0x1e
 5429 104f 60090000 		.4byte	0x960
 5430 1053 10       		.byte	0x10
 5431 1054 21       		.uleb128 0x21
 5432 1055 49455200 		.ascii	"IER\000"
 5433 1059 10       		.byte	0x10
 5434 105a 1201     		.2byte	0x112
 5435 105c 1E       		.byte	0x1e
 5436 105d 60090000 		.4byte	0x960
 5437 1061 14       		.byte	0x14
 5438 1062 21       		.uleb128 0x21
 5439 1063 45535200 		.ascii	"ESR\000"
 5440 1067 10       		.byte	0x10
 5441 1068 1301     		.2byte	0x113
 5442 106a 1E       		.byte	0x1e
 5443 106b 60090000 		.4byte	0x960
 5444 106f 18       		.byte	0x18
 5445 1070 21       		.uleb128 0x21
 5446 1071 42545200 		.ascii	"BTR\000"
 5447 1075 10       		.byte	0x10
ARM GAS  /tmp/ccDzFi87.s 			page 97


 5448 1076 1401     		.2byte	0x114
 5449 1078 1E       		.byte	0x1e
 5450 1079 60090000 		.4byte	0x960
 5451 107d 1C       		.byte	0x1c
 5452 107e 17       		.uleb128 0x17
 5453 107f 1E1F0000 		.4byte	.LASF227
 5454 1083 10       		.byte	0x10
 5455 1084 1501     		.2byte	0x115
 5456 1086 1E       		.byte	0x1e
 5457 1087 50110000 		.4byte	0x1150
 5458 108b 20       		.byte	0x20
 5459 108c 18       		.uleb128 0x18
 5460 108d 51100000 		.4byte	.LASF228
 5461 1091 10       		.byte	0x10
 5462 1092 1601     		.2byte	0x116
 5463 1094 1E       		.byte	0x1e
 5464 1095 60110000 		.4byte	0x1160
 5465 1099 8001     		.2byte	0x180
 5466 109b 18       		.uleb128 0x18
 5467 109c 7A230000 		.4byte	.LASF229
 5468 10a0 10       		.byte	0x10
 5469 10a1 1701     		.2byte	0x117
 5470 10a3 1E       		.byte	0x1e
 5471 10a4 70110000 		.4byte	0x1170
 5472 10a8 B001     		.2byte	0x1b0
 5473 10aa 18       		.uleb128 0x18
 5474 10ab 281F0000 		.4byte	.LASF230
 5475 10af 10       		.byte	0x10
 5476 10b0 1801     		.2byte	0x118
 5477 10b2 1E       		.byte	0x1e
 5478 10b3 80110000 		.4byte	0x1180
 5479 10b7 D001     		.2byte	0x1d0
 5480 10b9 22       		.uleb128 0x22
 5481 10ba 464D5200 		.ascii	"FMR\000"
 5482 10be 10       		.byte	0x10
 5483 10bf 1901     		.2byte	0x119
 5484 10c1 1E       		.byte	0x1e
 5485 10c2 60090000 		.4byte	0x960
 5486 10c6 0002     		.2byte	0x200
 5487 10c8 18       		.uleb128 0x18
 5488 10c9 CC0A0000 		.4byte	.LASF231
 5489 10cd 10       		.byte	0x10
 5490 10ce 1A01     		.2byte	0x11a
 5491 10d0 1E       		.byte	0x1e
 5492 10d1 60090000 		.4byte	0x960
 5493 10d5 0402     		.2byte	0x204
 5494 10d7 18       		.uleb128 0x18
 5495 10d8 321F0000 		.4byte	.LASF232
 5496 10dc 10       		.byte	0x10
 5497 10dd 1B01     		.2byte	0x11b
 5498 10df 1E       		.byte	0x1e
 5499 10e0 54090000 		.4byte	0x954
 5500 10e4 0802     		.2byte	0x208
 5501 10e6 18       		.uleb128 0x18
 5502 10e7 17210000 		.4byte	.LASF233
 5503 10eb 10       		.byte	0x10
 5504 10ec 1C01     		.2byte	0x11c
ARM GAS  /tmp/ccDzFi87.s 			page 98


 5505 10ee 1E       		.byte	0x1e
 5506 10ef 60090000 		.4byte	0x960
 5507 10f3 0C02     		.2byte	0x20c
 5508 10f5 18       		.uleb128 0x18
 5509 10f6 3C1F0000 		.4byte	.LASF234
 5510 10fa 10       		.byte	0x10
 5511 10fb 1D01     		.2byte	0x11d
 5512 10fd 1E       		.byte	0x1e
 5513 10fe 54090000 		.4byte	0x954
 5514 1102 1002     		.2byte	0x210
 5515 1104 18       		.uleb128 0x18
 5516 1105 88190000 		.4byte	.LASF235
 5517 1109 10       		.byte	0x10
 5518 110a 1E01     		.2byte	0x11e
 5519 110c 1E       		.byte	0x1e
 5520 110d 60090000 		.4byte	0x960
 5521 1111 1402     		.2byte	0x214
 5522 1113 18       		.uleb128 0x18
 5523 1114 461F0000 		.4byte	.LASF236
 5524 1118 10       		.byte	0x10
 5525 1119 1F01     		.2byte	0x11f
 5526 111b 1E       		.byte	0x1e
 5527 111c 54090000 		.4byte	0x954
 5528 1120 1802     		.2byte	0x218
 5529 1122 18       		.uleb128 0x18
 5530 1123 32040000 		.4byte	.LASF237
 5531 1127 10       		.byte	0x10
 5532 1128 2001     		.2byte	0x120
 5533 112a 1E       		.byte	0x1e
 5534 112b 60090000 		.4byte	0x960
 5535 112f 1C02     		.2byte	0x21c
 5536 1131 18       		.uleb128 0x18
 5537 1132 501F0000 		.4byte	.LASF238
 5538 1136 10       		.byte	0x10
 5539 1137 2101     		.2byte	0x121
 5540 1139 1E       		.byte	0x1e
 5541 113a FA0D0000 		.4byte	0xdfa
 5542 113e 2002     		.2byte	0x220
 5543 1140 18       		.uleb128 0x18
 5544 1141 0B060000 		.4byte	.LASF239
 5545 1145 10       		.byte	0x10
 5546 1146 2201     		.2byte	0x122
 5547 1148 1E       		.byte	0x1e
 5548 1149 90110000 		.4byte	0x1190
 5549 114d 4002     		.2byte	0x240
 5550 114f 00       		.byte	0
 5551 1150 08       		.uleb128 0x8
 5552 1151 54090000 		.4byte	0x954
 5553 1155 60110000 		.4byte	0x1160
 5554 1159 09       		.uleb128 0x9
 5555 115a 38000000 		.4byte	0x38
 5556 115e 57       		.byte	0x57
 5557 115f 00       		.byte	0
 5558 1160 08       		.uleb128 0x8
 5559 1161 790F0000 		.4byte	0xf79
 5560 1165 70110000 		.4byte	0x1170
 5561 1169 09       		.uleb128 0x9
ARM GAS  /tmp/ccDzFi87.s 			page 99


 5562 116a 38000000 		.4byte	0x38
 5563 116e 02       		.byte	0x2
 5564 116f 00       		.byte	0
 5565 1170 08       		.uleb128 0x8
 5566 1171 C30F0000 		.4byte	0xfc3
 5567 1175 80110000 		.4byte	0x1180
 5568 1179 09       		.uleb128 0x9
 5569 117a 38000000 		.4byte	0x38
 5570 117e 01       		.byte	0x1
 5571 117f 00       		.byte	0
 5572 1180 08       		.uleb128 0x8
 5573 1181 54090000 		.4byte	0x954
 5574 1185 90110000 		.4byte	0x1190
 5575 1189 09       		.uleb128 0x9
 5576 118a 38000000 		.4byte	0x38
 5577 118e 0B       		.byte	0xb
 5578 118f 00       		.byte	0
 5579 1190 08       		.uleb128 0x8
 5580 1191 F60F0000 		.4byte	0xff6
 5581 1195 A0110000 		.4byte	0x11a0
 5582 1199 09       		.uleb128 0x9
 5583 119a 38000000 		.4byte	0x38
 5584 119e 1B       		.byte	0x1b
 5585 119f 00       		.byte	0
 5586 11a0 05       		.uleb128 0x5
 5587 11a1 880C0000 		.4byte	.LASF240
 5588 11a5 10       		.byte	0x10
 5589 11a6 2301     		.2byte	0x123
 5590 11a8 03       		.byte	0x3
 5591 11a9 03100000 		.4byte	0x1003
 5592 11ad 1B       		.uleb128 0x1b
 5593 11ae 38       		.byte	0x38
 5594 11af 10       		.byte	0x10
 5595 11b0 3601     		.2byte	0x136
 5596 11b2 09       		.byte	0x9
 5597 11b3 7A120000 		.4byte	0x127a
 5598 11b7 21       		.uleb128 0x21
 5599 11b8 435200   		.ascii	"CR\000"
 5600 11bb 10       		.byte	0x10
 5601 11bc 3801     		.2byte	0x138
 5602 11be 11       		.byte	0x11
 5603 11bf 60090000 		.4byte	0x960
 5604 11c3 00       		.byte	0
 5605 11c4 17       		.uleb128 0x17
 5606 11c5 AF160000 		.4byte	.LASF241
 5607 11c9 10       		.byte	0x10
 5608 11ca 3901     		.2byte	0x139
 5609 11cc 11       		.byte	0x11
 5610 11cd 60090000 		.4byte	0x960
 5611 11d1 04       		.byte	0x4
 5612 11d2 17       		.uleb128 0x17
 5613 11d3 761F0000 		.4byte	.LASF242
 5614 11d7 10       		.byte	0x10
 5615 11d8 3A01     		.2byte	0x13a
 5616 11da 11       		.byte	0x11
 5617 11db 60090000 		.4byte	0x960
 5618 11df 08       		.byte	0x8
ARM GAS  /tmp/ccDzFi87.s 			page 100


 5619 11e0 17       		.uleb128 0x17
 5620 11e1 6D1B0000 		.4byte	.LASF243
 5621 11e5 10       		.byte	0x10
 5622 11e6 3B01     		.2byte	0x13b
 5623 11e8 11       		.byte	0x11
 5624 11e9 60090000 		.4byte	0x960
 5625 11ed 0C       		.byte	0xc
 5626 11ee 17       		.uleb128 0x17
 5627 11ef 1E0A0000 		.4byte	.LASF244
 5628 11f3 10       		.byte	0x10
 5629 11f4 3C01     		.2byte	0x13c
 5630 11f6 11       		.byte	0x11
 5631 11f7 60090000 		.4byte	0x960
 5632 11fb 10       		.byte	0x10
 5633 11fc 17       		.uleb128 0x17
 5634 11fd 7E1F0000 		.4byte	.LASF245
 5635 1201 10       		.byte	0x10
 5636 1202 3D01     		.2byte	0x13d
 5637 1204 11       		.byte	0x11
 5638 1205 60090000 		.4byte	0x960
 5639 1209 14       		.byte	0x14
 5640 120a 17       		.uleb128 0x17
 5641 120b 751B0000 		.4byte	.LASF246
 5642 120f 10       		.byte	0x10
 5643 1210 3E01     		.2byte	0x13e
 5644 1212 11       		.byte	0x11
 5645 1213 60090000 		.4byte	0x960
 5646 1217 18       		.byte	0x18
 5647 1218 17       		.uleb128 0x17
 5648 1219 250A0000 		.4byte	.LASF247
 5649 121d 10       		.byte	0x10
 5650 121e 3F01     		.2byte	0x13f
 5651 1220 11       		.byte	0x11
 5652 1221 60090000 		.4byte	0x960
 5653 1225 1C       		.byte	0x1c
 5654 1226 17       		.uleb128 0x17
 5655 1227 C51F0000 		.4byte	.LASF248
 5656 122b 10       		.byte	0x10
 5657 122c 4001     		.2byte	0x140
 5658 122e 11       		.byte	0x11
 5659 122f 60090000 		.4byte	0x960
 5660 1233 20       		.byte	0x20
 5661 1234 17       		.uleb128 0x17
 5662 1235 DF1B0000 		.4byte	.LASF249
 5663 1239 10       		.byte	0x10
 5664 123a 4101     		.2byte	0x141
 5665 123c 11       		.byte	0x11
 5666 123d 60090000 		.4byte	0x960
 5667 1241 24       		.byte	0x24
 5668 1242 17       		.uleb128 0x17
 5669 1243 91230000 		.4byte	.LASF250
 5670 1247 10       		.byte	0x10
 5671 1248 4201     		.2byte	0x142
 5672 124a 11       		.byte	0x11
 5673 124b 60090000 		.4byte	0x960
 5674 124f 28       		.byte	0x28
 5675 1250 17       		.uleb128 0x17
ARM GAS  /tmp/ccDzFi87.s 			page 101


 5676 1251 6D010000 		.4byte	.LASF251
 5677 1255 10       		.byte	0x10
 5678 1256 4301     		.2byte	0x143
 5679 1258 11       		.byte	0x11
 5680 1259 60090000 		.4byte	0x960
 5681 125d 2C       		.byte	0x2c
 5682 125e 17       		.uleb128 0x17
 5683 125f 72010000 		.4byte	.LASF252
 5684 1263 10       		.byte	0x10
 5685 1264 4401     		.2byte	0x144
 5686 1266 11       		.byte	0x11
 5687 1267 60090000 		.4byte	0x960
 5688 126b 30       		.byte	0x30
 5689 126c 21       		.uleb128 0x21
 5690 126d 535200   		.ascii	"SR\000"
 5691 1270 10       		.byte	0x10
 5692 1271 4501     		.2byte	0x145
 5693 1273 11       		.byte	0x11
 5694 1274 60090000 		.4byte	0x960
 5695 1278 34       		.byte	0x34
 5696 1279 00       		.byte	0
 5697 127a 05       		.uleb128 0x5
 5698 127b 331D0000 		.4byte	.LASF253
 5699 127f 10       		.byte	0x10
 5700 1280 4601     		.2byte	0x146
 5701 1282 03       		.byte	0x3
 5702 1283 AD110000 		.4byte	0x11ad
 5703 1287 1B       		.uleb128 0x1b
 5704 1288 18       		.byte	0x18
 5705 1289 10       		.byte	0x10
 5706 128a 6B01     		.2byte	0x16b
 5707 128c 09       		.byte	0x9
 5708 128d E5120000 		.4byte	0x12e5
 5709 1291 21       		.uleb128 0x21
 5710 1292 435200   		.ascii	"CR\000"
 5711 1295 10       		.byte	0x10
 5712 1296 6D01     		.2byte	0x16d
 5713 1298 11       		.byte	0x11
 5714 1299 60090000 		.4byte	0x960
 5715 129d 00       		.byte	0
 5716 129e 17       		.uleb128 0x17
 5717 129f 6F200000 		.4byte	.LASF254
 5718 12a3 10       		.byte	0x10
 5719 12a4 6E01     		.2byte	0x16e
 5720 12a6 11       		.byte	0x11
 5721 12a7 60090000 		.4byte	0x960
 5722 12ab 04       		.byte	0x4
 5723 12ac 21       		.uleb128 0x21
 5724 12ad 50415200 		.ascii	"PAR\000"
 5725 12b1 10       		.byte	0x10
 5726 12b2 6F01     		.2byte	0x16f
 5727 12b4 11       		.byte	0x11
 5728 12b5 60090000 		.4byte	0x960
 5729 12b9 08       		.byte	0x8
 5730 12ba 17       		.uleb128 0x17
 5731 12bb EF030000 		.4byte	.LASF255
 5732 12bf 10       		.byte	0x10
ARM GAS  /tmp/ccDzFi87.s 			page 102


 5733 12c0 7001     		.2byte	0x170
 5734 12c2 11       		.byte	0x11
 5735 12c3 60090000 		.4byte	0x960
 5736 12c7 0C       		.byte	0xc
 5737 12c8 17       		.uleb128 0x17
 5738 12c9 2E080000 		.4byte	.LASF256
 5739 12cd 10       		.byte	0x10
 5740 12ce 7101     		.2byte	0x171
 5741 12d0 11       		.byte	0x11
 5742 12d1 60090000 		.4byte	0x960
 5743 12d5 10       		.byte	0x10
 5744 12d6 21       		.uleb128 0x21
 5745 12d7 46435200 		.ascii	"FCR\000"
 5746 12db 10       		.byte	0x10
 5747 12dc 7201     		.2byte	0x172
 5748 12de 11       		.byte	0x11
 5749 12df 60090000 		.4byte	0x960
 5750 12e3 14       		.byte	0x14
 5751 12e4 00       		.byte	0
 5752 12e5 05       		.uleb128 0x5
 5753 12e6 38080000 		.4byte	.LASF257
 5754 12ea 10       		.byte	0x10
 5755 12eb 7301     		.2byte	0x173
 5756 12ed 03       		.byte	0x3
 5757 12ee 87120000 		.4byte	0x1287
 5758 12f2 08       		.uleb128 0x8
 5759 12f3 60090000 		.4byte	0x960
 5760 12f7 02130000 		.4byte	0x1302
 5761 12fb 09       		.uleb128 0x9
 5762 12fc 38000000 		.4byte	0x38
 5763 1300 01       		.byte	0x1
 5764 1301 00       		.byte	0
 5765 1302 19       		.uleb128 0x19
 5766 1303 F2120000 		.4byte	0x12f2
 5767 1307 08       		.uleb128 0x8
 5768 1308 60090000 		.4byte	0x960
 5769 130c 17130000 		.4byte	0x1317
 5770 1310 09       		.uleb128 0x9
 5771 1311 38000000 		.4byte	0x38
 5772 1315 03       		.byte	0x3
 5773 1316 00       		.byte	0
 5774 1317 19       		.uleb128 0x19
 5775 1318 07130000 		.4byte	0x1307
 5776 131c 1B       		.uleb128 0x1b
 5777 131d 28       		.byte	0x28
 5778 131e 10       		.byte	0x10
 5779 131f 3F02     		.2byte	0x23f
 5780 1321 09       		.byte	0x9
 5781 1322 B2130000 		.4byte	0x13b2
 5782 1326 21       		.uleb128 0x21
 5783 1327 43523100 		.ascii	"CR1\000"
 5784 132b 10       		.byte	0x10
 5785 132c 4102     		.2byte	0x241
 5786 132e 11       		.byte	0x11
 5787 132f 60090000 		.4byte	0x960
 5788 1333 00       		.byte	0
 5789 1334 21       		.uleb128 0x21
ARM GAS  /tmp/ccDzFi87.s 			page 103


 5790 1335 43523200 		.ascii	"CR2\000"
 5791 1339 10       		.byte	0x10
 5792 133a 4202     		.2byte	0x242
 5793 133c 11       		.byte	0x11
 5794 133d 60090000 		.4byte	0x960
 5795 1341 04       		.byte	0x4
 5796 1342 17       		.uleb128 0x17
 5797 1343 7F260000 		.4byte	.LASF258
 5798 1347 10       		.byte	0x10
 5799 1348 4302     		.2byte	0x243
 5800 134a 11       		.byte	0x11
 5801 134b 60090000 		.4byte	0x960
 5802 134f 08       		.byte	0x8
 5803 1350 17       		.uleb128 0x17
 5804 1351 84260000 		.4byte	.LASF259
 5805 1355 10       		.byte	0x10
 5806 1356 4402     		.2byte	0x244
 5807 1358 11       		.byte	0x11
 5808 1359 60090000 		.4byte	0x960
 5809 135d 0C       		.byte	0xc
 5810 135e 21       		.uleb128 0x21
 5811 135f 445200   		.ascii	"DR\000"
 5812 1362 10       		.byte	0x10
 5813 1363 4502     		.2byte	0x245
 5814 1365 11       		.byte	0x11
 5815 1366 60090000 		.4byte	0x960
 5816 136a 10       		.byte	0x10
 5817 136b 21       		.uleb128 0x21
 5818 136c 53523100 		.ascii	"SR1\000"
 5819 1370 10       		.byte	0x10
 5820 1371 4602     		.2byte	0x246
 5821 1373 11       		.byte	0x11
 5822 1374 60090000 		.4byte	0x960
 5823 1378 14       		.byte	0x14
 5824 1379 21       		.uleb128 0x21
 5825 137a 53523200 		.ascii	"SR2\000"
 5826 137e 10       		.byte	0x10
 5827 137f 4702     		.2byte	0x247
 5828 1381 11       		.byte	0x11
 5829 1382 60090000 		.4byte	0x960
 5830 1386 18       		.byte	0x18
 5831 1387 21       		.uleb128 0x21
 5832 1388 43435200 		.ascii	"CCR\000"
 5833 138c 10       		.byte	0x10
 5834 138d 4802     		.2byte	0x248
 5835 138f 11       		.byte	0x11
 5836 1390 60090000 		.4byte	0x960
 5837 1394 1C       		.byte	0x1c
 5838 1395 17       		.uleb128 0x17
 5839 1396 1A050000 		.4byte	.LASF260
 5840 139a 10       		.byte	0x10
 5841 139b 4902     		.2byte	0x249
 5842 139d 11       		.byte	0x11
 5843 139e 60090000 		.4byte	0x960
 5844 13a2 20       		.byte	0x20
 5845 13a3 17       		.uleb128 0x17
 5846 13a4 0D250000 		.4byte	.LASF261
ARM GAS  /tmp/ccDzFi87.s 			page 104


 5847 13a8 10       		.byte	0x10
 5848 13a9 4A02     		.2byte	0x24a
 5849 13ab 11       		.byte	0x11
 5850 13ac 60090000 		.4byte	0x960
 5851 13b0 24       		.byte	0x24
 5852 13b1 00       		.byte	0
 5853 13b2 05       		.uleb128 0x5
 5854 13b3 F9100000 		.4byte	.LASF262
 5855 13b7 10       		.byte	0x10
 5856 13b8 4B02     		.2byte	0x24b
 5857 13ba 03       		.byte	0x3
 5858 13bb 1C130000 		.4byte	0x131c
 5859 13bf 1B       		.uleb128 0x1b
 5860 13c0 88       		.byte	0x88
 5861 13c1 10       		.byte	0x10
 5862 13c2 6702     		.2byte	0x267
 5863 13c4 09       		.byte	0x9
 5864 13c5 6D150000 		.4byte	0x156d
 5865 13c9 21       		.uleb128 0x21
 5866 13ca 435200   		.ascii	"CR\000"
 5867 13cd 10       		.byte	0x10
 5868 13ce 6902     		.2byte	0x269
 5869 13d0 11       		.byte	0x11
 5870 13d1 60090000 		.4byte	0x960
 5871 13d5 00       		.byte	0
 5872 13d6 17       		.uleb128 0x17
 5873 13d7 EC1C0000 		.4byte	.LASF263
 5874 13db 10       		.byte	0x10
 5875 13dc 6A02     		.2byte	0x26a
 5876 13de 11       		.byte	0x11
 5877 13df 60090000 		.4byte	0x960
 5878 13e3 04       		.byte	0x4
 5879 13e4 17       		.uleb128 0x17
 5880 13e5 B8140000 		.4byte	.LASF264
 5881 13e9 10       		.byte	0x10
 5882 13ea 6B02     		.2byte	0x26b
 5883 13ec 11       		.byte	0x11
 5884 13ed 60090000 		.4byte	0x960
 5885 13f1 08       		.byte	0x8
 5886 13f2 21       		.uleb128 0x21
 5887 13f3 43495200 		.ascii	"CIR\000"
 5888 13f7 10       		.byte	0x10
 5889 13f8 6C02     		.2byte	0x26c
 5890 13fa 11       		.byte	0x11
 5891 13fb 60090000 		.4byte	0x960
 5892 13ff 0C       		.byte	0xc
 5893 1400 17       		.uleb128 0x17
 5894 1401 2A260000 		.4byte	.LASF265
 5895 1405 10       		.byte	0x10
 5896 1406 6D02     		.2byte	0x26d
 5897 1408 11       		.byte	0x11
 5898 1409 60090000 		.4byte	0x960
 5899 140d 10       		.byte	0x10
 5900 140e 17       		.uleb128 0x17
 5901 140f 670B0000 		.4byte	.LASF266
 5902 1413 10       		.byte	0x10
 5903 1414 6E02     		.2byte	0x26e
ARM GAS  /tmp/ccDzFi87.s 			page 105


 5904 1416 11       		.byte	0x11
 5905 1417 60090000 		.4byte	0x960
 5906 141b 14       		.byte	0x14
 5907 141c 17       		.uleb128 0x17
 5908 141d 76180000 		.4byte	.LASF267
 5909 1421 10       		.byte	0x10
 5910 1422 6F02     		.2byte	0x26f
 5911 1424 11       		.byte	0x11
 5912 1425 60090000 		.4byte	0x960
 5913 1429 18       		.byte	0x18
 5914 142a 17       		.uleb128 0x17
 5915 142b 1E1F0000 		.4byte	.LASF227
 5916 142f 10       		.byte	0x10
 5917 1430 7002     		.2byte	0x270
 5918 1432 11       		.byte	0x11
 5919 1433 54090000 		.4byte	0x954
 5920 1437 1C       		.byte	0x1c
 5921 1438 17       		.uleb128 0x17
 5922 1439 7D040000 		.4byte	.LASF268
 5923 143d 10       		.byte	0x10
 5924 143e 7102     		.2byte	0x271
 5925 1440 11       		.byte	0x11
 5926 1441 60090000 		.4byte	0x960
 5927 1445 20       		.byte	0x20
 5928 1446 17       		.uleb128 0x17
 5929 1447 7F100000 		.4byte	.LASF269
 5930 144b 10       		.byte	0x10
 5931 144c 7202     		.2byte	0x272
 5932 144e 11       		.byte	0x11
 5933 144f 60090000 		.4byte	0x960
 5934 1453 24       		.byte	0x24
 5935 1454 17       		.uleb128 0x17
 5936 1455 281F0000 		.4byte	.LASF230
 5937 1459 10       		.byte	0x10
 5938 145a 7302     		.2byte	0x273
 5939 145c 11       		.byte	0x11
 5940 145d EA0D0000 		.4byte	0xdea
 5941 1461 28       		.byte	0x28
 5942 1462 17       		.uleb128 0x17
 5943 1463 1D140000 		.4byte	.LASF270
 5944 1467 10       		.byte	0x10
 5945 1468 7402     		.2byte	0x274
 5946 146a 11       		.byte	0x11
 5947 146b 60090000 		.4byte	0x960
 5948 146f 30       		.byte	0x30
 5949 1470 17       		.uleb128 0x17
 5950 1471 22260000 		.4byte	.LASF271
 5951 1475 10       		.byte	0x10
 5952 1476 7502     		.2byte	0x275
 5953 1478 11       		.byte	0x11
 5954 1479 60090000 		.4byte	0x960
 5955 147d 34       		.byte	0x34
 5956 147e 17       		.uleb128 0x17
 5957 147f 68110000 		.4byte	.LASF272
 5958 1483 10       		.byte	0x10
 5959 1484 7602     		.2byte	0x276
 5960 1486 11       		.byte	0x11
ARM GAS  /tmp/ccDzFi87.s 			page 106


 5961 1487 60090000 		.4byte	0x960
 5962 148b 38       		.byte	0x38
 5963 148c 17       		.uleb128 0x17
 5964 148d 321F0000 		.4byte	.LASF232
 5965 1491 10       		.byte	0x10
 5966 1492 7702     		.2byte	0x277
 5967 1494 11       		.byte	0x11
 5968 1495 54090000 		.4byte	0x954
 5969 1499 3C       		.byte	0x3c
 5970 149a 17       		.uleb128 0x17
 5971 149b 1E1B0000 		.4byte	.LASF273
 5972 149f 10       		.byte	0x10
 5973 14a0 7802     		.2byte	0x278
 5974 14a2 11       		.byte	0x11
 5975 14a3 60090000 		.4byte	0x960
 5976 14a7 40       		.byte	0x40
 5977 14a8 17       		.uleb128 0x17
 5978 14a9 F9060000 		.4byte	.LASF274
 5979 14ad 10       		.byte	0x10
 5980 14ae 7902     		.2byte	0x279
 5981 14b0 11       		.byte	0x11
 5982 14b1 60090000 		.4byte	0x960
 5983 14b5 44       		.byte	0x44
 5984 14b6 17       		.uleb128 0x17
 5985 14b7 3C1F0000 		.4byte	.LASF234
 5986 14bb 10       		.byte	0x10
 5987 14bc 7A02     		.2byte	0x27a
 5988 14be 11       		.byte	0x11
 5989 14bf EA0D0000 		.4byte	0xdea
 5990 14c3 48       		.byte	0x48
 5991 14c4 17       		.uleb128 0x17
 5992 14c5 53200000 		.4byte	.LASF275
 5993 14c9 10       		.byte	0x10
 5994 14ca 7B02     		.2byte	0x27b
 5995 14cc 11       		.byte	0x11
 5996 14cd 60090000 		.4byte	0x960
 5997 14d1 50       		.byte	0x50
 5998 14d2 17       		.uleb128 0x17
 5999 14d3 4C0A0000 		.4byte	.LASF276
 6000 14d7 10       		.byte	0x10
 6001 14d8 7C02     		.2byte	0x27c
 6002 14da 11       		.byte	0x11
 6003 14db 60090000 		.4byte	0x960
 6004 14df 54       		.byte	0x54
 6005 14e0 17       		.uleb128 0x17
 6006 14e1 D6090000 		.4byte	.LASF277
 6007 14e5 10       		.byte	0x10
 6008 14e6 7D02     		.2byte	0x27d
 6009 14e8 11       		.byte	0x11
 6010 14e9 60090000 		.4byte	0x960
 6011 14ed 58       		.byte	0x58
 6012 14ee 17       		.uleb128 0x17
 6013 14ef 461F0000 		.4byte	.LASF236
 6014 14f3 10       		.byte	0x10
 6015 14f4 7E02     		.2byte	0x27e
 6016 14f6 11       		.byte	0x11
 6017 14f7 54090000 		.4byte	0x954
ARM GAS  /tmp/ccDzFi87.s 			page 107


 6018 14fb 5C       		.byte	0x5c
 6019 14fc 17       		.uleb128 0x17
 6020 14fd D8100000 		.4byte	.LASF278
 6021 1501 10       		.byte	0x10
 6022 1502 7F02     		.2byte	0x27f
 6023 1504 11       		.byte	0x11
 6024 1505 60090000 		.4byte	0x960
 6025 1509 60       		.byte	0x60
 6026 150a 17       		.uleb128 0x17
 6027 150b DC210000 		.4byte	.LASF279
 6028 150f 10       		.byte	0x10
 6029 1510 8002     		.2byte	0x280
 6030 1512 11       		.byte	0x11
 6031 1513 60090000 		.4byte	0x960
 6032 1517 64       		.byte	0x64
 6033 1518 17       		.uleb128 0x17
 6034 1519 501F0000 		.4byte	.LASF238
 6035 151d 10       		.byte	0x10
 6036 151e 8102     		.2byte	0x281
 6037 1520 11       		.byte	0x11
 6038 1521 EA0D0000 		.4byte	0xdea
 6039 1525 68       		.byte	0x68
 6040 1526 17       		.uleb128 0x17
 6041 1527 1A1E0000 		.4byte	.LASF280
 6042 152b 10       		.byte	0x10
 6043 152c 8202     		.2byte	0x282
 6044 152e 11       		.byte	0x11
 6045 152f 60090000 		.4byte	0x960
 6046 1533 70       		.byte	0x70
 6047 1534 21       		.uleb128 0x21
 6048 1535 43535200 		.ascii	"CSR\000"
 6049 1539 10       		.byte	0x10
 6050 153a 8302     		.2byte	0x283
 6051 153c 11       		.byte	0x11
 6052 153d 60090000 		.4byte	0x960
 6053 1541 74       		.byte	0x74
 6054 1542 17       		.uleb128 0x17
 6055 1543 5A1F0000 		.4byte	.LASF281
 6056 1547 10       		.byte	0x10
 6057 1548 8402     		.2byte	0x284
 6058 154a 11       		.byte	0x11
 6059 154b EA0D0000 		.4byte	0xdea
 6060 154f 78       		.byte	0x78
 6061 1550 17       		.uleb128 0x17
 6062 1551 DB150000 		.4byte	.LASF282
 6063 1555 10       		.byte	0x10
 6064 1556 8502     		.2byte	0x285
 6065 1558 11       		.byte	0x11
 6066 1559 60090000 		.4byte	0x960
 6067 155d 80       		.byte	0x80
 6068 155e 17       		.uleb128 0x17
 6069 155f 25170000 		.4byte	.LASF283
 6070 1563 10       		.byte	0x10
 6071 1564 8602     		.2byte	0x286
 6072 1566 11       		.byte	0x11
 6073 1567 60090000 		.4byte	0x960
 6074 156b 84       		.byte	0x84
ARM GAS  /tmp/ccDzFi87.s 			page 108


 6075 156c 00       		.byte	0
 6076 156d 05       		.uleb128 0x5
 6077 156e 88010000 		.4byte	.LASF284
 6078 1572 10       		.byte	0x10
 6079 1573 8802     		.2byte	0x288
 6080 1575 03       		.byte	0x3
 6081 1576 BF130000 		.4byte	0x13bf
 6082 157a 1B       		.uleb128 0x1b
 6083 157b 84       		.byte	0x84
 6084 157c 10       		.byte	0x10
 6085 157d BF02     		.2byte	0x2bf
 6086 157f 09       		.byte	0x9
 6087 1580 9D160000 		.4byte	0x169d
 6088 1584 17       		.uleb128 0x17
 6089 1585 1F170000 		.4byte	.LASF285
 6090 1589 10       		.byte	0x10
 6091 158a C102     		.2byte	0x2c1
 6092 158c 11       		.byte	0x11
 6093 158d 60090000 		.4byte	0x960
 6094 1591 00       		.byte	0
 6095 1592 17       		.uleb128 0x17
 6096 1593 90210000 		.4byte	.LASF286
 6097 1597 10       		.byte	0x10
 6098 1598 C202     		.2byte	0x2c2
 6099 159a 11       		.byte	0x11
 6100 159b 60090000 		.4byte	0x960
 6101 159f 04       		.byte	0x4
 6102 15a0 21       		.uleb128 0x21
 6103 15a1 41524700 		.ascii	"ARG\000"
 6104 15a5 10       		.byte	0x10
 6105 15a6 C302     		.2byte	0x2c3
 6106 15a8 11       		.byte	0x11
 6107 15a9 60090000 		.4byte	0x960
 6108 15ad 08       		.byte	0x8
 6109 15ae 21       		.uleb128 0x21
 6110 15af 434D4400 		.ascii	"CMD\000"
 6111 15b3 10       		.byte	0x10
 6112 15b4 C402     		.2byte	0x2c4
 6113 15b6 11       		.byte	0x11
 6114 15b7 60090000 		.4byte	0x960
 6115 15bb 0C       		.byte	0xc
 6116 15bc 17       		.uleb128 0x17
 6117 15bd 251A0000 		.4byte	.LASF287
 6118 15c1 10       		.byte	0x10
 6119 15c2 C502     		.2byte	0x2c5
 6120 15c4 11       		.byte	0x11
 6121 15c5 65090000 		.4byte	0x965
 6122 15c9 10       		.byte	0x10
 6123 15ca 17       		.uleb128 0x17
 6124 15cb 54060000 		.4byte	.LASF288
 6125 15cf 10       		.byte	0x10
 6126 15d0 C602     		.2byte	0x2c6
 6127 15d2 11       		.byte	0x11
 6128 15d3 65090000 		.4byte	0x965
 6129 15d7 14       		.byte	0x14
 6130 15d8 17       		.uleb128 0x17
 6131 15d9 5A060000 		.4byte	.LASF289
ARM GAS  /tmp/ccDzFi87.s 			page 109


 6132 15dd 10       		.byte	0x10
 6133 15de C702     		.2byte	0x2c7
 6134 15e0 11       		.byte	0x11
 6135 15e1 65090000 		.4byte	0x965
 6136 15e5 18       		.byte	0x18
 6137 15e6 17       		.uleb128 0x17
 6138 15e7 60060000 		.4byte	.LASF290
 6139 15eb 10       		.byte	0x10
 6140 15ec C802     		.2byte	0x2c8
 6141 15ee 11       		.byte	0x11
 6142 15ef 65090000 		.4byte	0x965
 6143 15f3 1C       		.byte	0x1c
 6144 15f4 17       		.uleb128 0x17
 6145 15f5 66060000 		.4byte	.LASF291
 6146 15f9 10       		.byte	0x10
 6147 15fa C902     		.2byte	0x2c9
 6148 15fc 11       		.byte	0x11
 6149 15fd 65090000 		.4byte	0x965
 6150 1601 20       		.byte	0x20
 6151 1602 17       		.uleb128 0x17
 6152 1603 8D250000 		.4byte	.LASF292
 6153 1607 10       		.byte	0x10
 6154 1608 CA02     		.2byte	0x2ca
 6155 160a 11       		.byte	0x11
 6156 160b 60090000 		.4byte	0x960
 6157 160f 24       		.byte	0x24
 6158 1610 17       		.uleb128 0x17
 6159 1611 D6150000 		.4byte	.LASF293
 6160 1615 10       		.byte	0x10
 6161 1616 CB02     		.2byte	0x2cb
 6162 1618 11       		.byte	0x11
 6163 1619 60090000 		.4byte	0x960
 6164 161d 28       		.byte	0x28
 6165 161e 17       		.uleb128 0x17
 6166 161f F9240000 		.4byte	.LASF294
 6167 1623 10       		.byte	0x10
 6168 1624 CC02     		.2byte	0x2cc
 6169 1626 11       		.byte	0x11
 6170 1627 60090000 		.4byte	0x960
 6171 162b 2C       		.byte	0x2c
 6172 162c 17       		.uleb128 0x17
 6173 162d 78260000 		.4byte	.LASF295
 6174 1631 10       		.byte	0x10
 6175 1632 CD02     		.2byte	0x2cd
 6176 1634 11       		.byte	0x11
 6177 1635 65090000 		.4byte	0x965
 6178 1639 30       		.byte	0x30
 6179 163a 21       		.uleb128 0x21
 6180 163b 53544100 		.ascii	"STA\000"
 6181 163f 10       		.byte	0x10
 6182 1640 CE02     		.2byte	0x2ce
 6183 1642 11       		.byte	0x11
 6184 1643 65090000 		.4byte	0x965
 6185 1647 34       		.byte	0x34
 6186 1648 21       		.uleb128 0x21
 6187 1649 49435200 		.ascii	"ICR\000"
 6188 164d 10       		.byte	0x10
ARM GAS  /tmp/ccDzFi87.s 			page 110


 6189 164e CF02     		.2byte	0x2cf
 6190 1650 11       		.byte	0x11
 6191 1651 60090000 		.4byte	0x960
 6192 1655 38       		.byte	0x38
 6193 1656 17       		.uleb128 0x17
 6194 1657 BE010000 		.4byte	.LASF296
 6195 165b 10       		.byte	0x10
 6196 165c D002     		.2byte	0x2d0
 6197 165e 11       		.byte	0x11
 6198 165f 60090000 		.4byte	0x960
 6199 1663 3C       		.byte	0x3c
 6200 1664 17       		.uleb128 0x17
 6201 1665 1E1F0000 		.4byte	.LASF227
 6202 1669 10       		.byte	0x10
 6203 166a D102     		.2byte	0x2d1
 6204 166c 11       		.byte	0x11
 6205 166d EA0D0000 		.4byte	0xdea
 6206 1671 40       		.byte	0x40
 6207 1672 17       		.uleb128 0x17
 6208 1673 C5140000 		.4byte	.LASF297
 6209 1677 10       		.byte	0x10
 6210 1678 D202     		.2byte	0x2d2
 6211 167a 11       		.byte	0x11
 6212 167b 65090000 		.4byte	0x965
 6213 167f 48       		.byte	0x48
 6214 1680 17       		.uleb128 0x17
 6215 1681 281F0000 		.4byte	.LASF230
 6216 1685 10       		.byte	0x10
 6217 1686 D302     		.2byte	0x2d3
 6218 1688 11       		.byte	0x11
 6219 1689 9D160000 		.4byte	0x169d
 6220 168d 4C       		.byte	0x4c
 6221 168e 17       		.uleb128 0x17
 6222 168f 77090000 		.4byte	.LASF298
 6223 1693 10       		.byte	0x10
 6224 1694 D402     		.2byte	0x2d4
 6225 1696 11       		.byte	0x11
 6226 1697 60090000 		.4byte	0x960
 6227 169b 80       		.byte	0x80
 6228 169c 00       		.byte	0
 6229 169d 08       		.uleb128 0x8
 6230 169e 54090000 		.4byte	0x954
 6231 16a2 AD160000 		.4byte	0x16ad
 6232 16a6 09       		.uleb128 0x9
 6233 16a7 38000000 		.4byte	0x38
 6234 16ab 0C       		.byte	0xc
 6235 16ac 00       		.byte	0
 6236 16ad 05       		.uleb128 0x5
 6237 16ae 3F200000 		.4byte	.LASF299
 6238 16b2 10       		.byte	0x10
 6239 16b3 D502     		.2byte	0x2d5
 6240 16b5 03       		.byte	0x3
 6241 16b6 7A150000 		.4byte	0x157a
 6242 16ba 1B       		.uleb128 0x1b
 6243 16bb 24       		.byte	0x24
 6244 16bc 10       		.byte	0x10
 6245 16bd DB02     		.2byte	0x2db
ARM GAS  /tmp/ccDzFi87.s 			page 111


 6246 16bf 09       		.byte	0x9
 6247 16c0 41170000 		.4byte	0x1741
 6248 16c4 21       		.uleb128 0x21
 6249 16c5 43523100 		.ascii	"CR1\000"
 6250 16c9 10       		.byte	0x10
 6251 16ca DD02     		.2byte	0x2dd
 6252 16cc 11       		.byte	0x11
 6253 16cd 60090000 		.4byte	0x960
 6254 16d1 00       		.byte	0
 6255 16d2 21       		.uleb128 0x21
 6256 16d3 43523200 		.ascii	"CR2\000"
 6257 16d7 10       		.byte	0x10
 6258 16d8 DE02     		.2byte	0x2de
 6259 16da 11       		.byte	0x11
 6260 16db 60090000 		.4byte	0x960
 6261 16df 04       		.byte	0x4
 6262 16e0 21       		.uleb128 0x21
 6263 16e1 535200   		.ascii	"SR\000"
 6264 16e4 10       		.byte	0x10
 6265 16e5 DF02     		.2byte	0x2df
 6266 16e7 11       		.byte	0x11
 6267 16e8 60090000 		.4byte	0x960
 6268 16ec 08       		.byte	0x8
 6269 16ed 21       		.uleb128 0x21
 6270 16ee 445200   		.ascii	"DR\000"
 6271 16f1 10       		.byte	0x10
 6272 16f2 E002     		.2byte	0x2e0
 6273 16f4 11       		.byte	0x11
 6274 16f5 60090000 		.4byte	0x960
 6275 16f9 0C       		.byte	0xc
 6276 16fa 17       		.uleb128 0x17
 6277 16fb BA070000 		.4byte	.LASF300
 6278 16ff 10       		.byte	0x10
 6279 1700 E102     		.2byte	0x2e1
 6280 1702 11       		.byte	0x11
 6281 1703 60090000 		.4byte	0x960
 6282 1707 10       		.byte	0x10
 6283 1708 17       		.uleb128 0x17
 6284 1709 3D0B0000 		.4byte	.LASF301
 6285 170d 10       		.byte	0x10
 6286 170e E202     		.2byte	0x2e2
 6287 1710 11       		.byte	0x11
 6288 1711 60090000 		.4byte	0x960
 6289 1715 14       		.byte	0x14
 6290 1716 17       		.uleb128 0x17
 6291 1717 7C0A0000 		.4byte	.LASF302
 6292 171b 10       		.byte	0x10
 6293 171c E302     		.2byte	0x2e3
 6294 171e 11       		.byte	0x11
 6295 171f 60090000 		.4byte	0x960
 6296 1723 18       		.byte	0x18
 6297 1724 17       		.uleb128 0x17
 6298 1725 92220000 		.4byte	.LASF303
 6299 1729 10       		.byte	0x10
 6300 172a E402     		.2byte	0x2e4
 6301 172c 11       		.byte	0x11
 6302 172d 60090000 		.4byte	0x960
ARM GAS  /tmp/ccDzFi87.s 			page 112


 6303 1731 1C       		.byte	0x1c
 6304 1732 17       		.uleb128 0x17
 6305 1733 85070000 		.4byte	.LASF304
 6306 1737 10       		.byte	0x10
 6307 1738 E502     		.2byte	0x2e5
 6308 173a 11       		.byte	0x11
 6309 173b 60090000 		.4byte	0x960
 6310 173f 20       		.byte	0x20
 6311 1740 00       		.byte	0
 6312 1741 05       		.uleb128 0x5
 6313 1742 AA200000 		.4byte	.LASF305
 6314 1746 10       		.byte	0x10
 6315 1747 E602     		.2byte	0x2e6
 6316 1749 03       		.byte	0x3
 6317 174a BA160000 		.4byte	0x16ba
 6318 174e 1B       		.uleb128 0x1b
 6319 174f 1C       		.byte	0x1c
 6320 1750 10       		.byte	0x10
 6321 1751 0903     		.2byte	0x309
 6322 1753 09       		.byte	0x9
 6323 1754 B9170000 		.4byte	0x17b9
 6324 1758 21       		.uleb128 0x21
 6325 1759 535200   		.ascii	"SR\000"
 6326 175c 10       		.byte	0x10
 6327 175d 0B03     		.2byte	0x30b
 6328 175f 11       		.byte	0x11
 6329 1760 60090000 		.4byte	0x960
 6330 1764 00       		.byte	0
 6331 1765 21       		.uleb128 0x21
 6332 1766 445200   		.ascii	"DR\000"
 6333 1769 10       		.byte	0x10
 6334 176a 0C03     		.2byte	0x30c
 6335 176c 11       		.byte	0x11
 6336 176d 60090000 		.4byte	0x960
 6337 1771 04       		.byte	0x4
 6338 1772 21       		.uleb128 0x21
 6339 1773 42525200 		.ascii	"BRR\000"
 6340 1777 10       		.byte	0x10
 6341 1778 0D03     		.2byte	0x30d
 6342 177a 11       		.byte	0x11
 6343 177b 60090000 		.4byte	0x960
 6344 177f 08       		.byte	0x8
 6345 1780 21       		.uleb128 0x21
 6346 1781 43523100 		.ascii	"CR1\000"
 6347 1785 10       		.byte	0x10
 6348 1786 0E03     		.2byte	0x30e
 6349 1788 11       		.byte	0x11
 6350 1789 60090000 		.4byte	0x960
 6351 178d 0C       		.byte	0xc
 6352 178e 21       		.uleb128 0x21
 6353 178f 43523200 		.ascii	"CR2\000"
 6354 1793 10       		.byte	0x10
 6355 1794 0F03     		.2byte	0x30f
 6356 1796 11       		.byte	0x11
 6357 1797 60090000 		.4byte	0x960
 6358 179b 10       		.byte	0x10
 6359 179c 21       		.uleb128 0x21
ARM GAS  /tmp/ccDzFi87.s 			page 113


 6360 179d 43523300 		.ascii	"CR3\000"
 6361 17a1 10       		.byte	0x10
 6362 17a2 1003     		.2byte	0x310
 6363 17a4 11       		.byte	0x11
 6364 17a5 60090000 		.4byte	0x960
 6365 17a9 14       		.byte	0x14
 6366 17aa 17       		.uleb128 0x17
 6367 17ab F70D0000 		.4byte	.LASF306
 6368 17af 10       		.byte	0x10
 6369 17b0 1103     		.2byte	0x311
 6370 17b2 11       		.byte	0x11
 6371 17b3 60090000 		.4byte	0x960
 6372 17b7 18       		.byte	0x18
 6373 17b8 00       		.byte	0
 6374 17b9 05       		.uleb128 0x5
 6375 17ba BA250000 		.4byte	.LASF307
 6376 17be 10       		.byte	0x10
 6377 17bf 1203     		.2byte	0x312
 6378 17c1 03       		.byte	0x3
 6379 17c2 4E170000 		.4byte	0x174e
 6380 17c6 08       		.uleb128 0x8
 6381 17c7 60090000 		.4byte	0x960
 6382 17cb D6170000 		.4byte	0x17d6
 6383 17cf 09       		.uleb128 0x9
 6384 17d0 38000000 		.4byte	0x38
 6385 17d4 0E       		.byte	0xe
 6386 17d5 00       		.byte	0
 6387 17d6 19       		.uleb128 0x19
 6388 17d7 C6170000 		.4byte	0x17c6
 6389 17db 03       		.uleb128 0x3
 6390 17dc 6D190000 		.4byte	.LASF308
 6391 17e0 11       		.byte	0x11
 6392 17e1 65       		.byte	0x65
 6393 17e2 0F       		.byte	0xf
 6394 17e3 05010000 		.4byte	0x105
 6395 17e7 03       		.uleb128 0x3
 6396 17e8 1F090000 		.4byte	.LASF309
 6397 17ec 11       		.byte	0x11
 6398 17ed 6D       		.byte	0x6d
 6399 17ee 12       		.byte	0x12
 6400 17ef 6A090000 		.4byte	0x96a
 6401 17f3 0D       		.uleb128 0xd
 6402 17f4 58110000 		.4byte	.LASF310
 6403 17f8 04       		.byte	0x4
 6404 17f9 11       		.byte	0x11
 6405 17fa 89       		.byte	0x89
 6406 17fb 08       		.byte	0x8
 6407 17fc 0E180000 		.4byte	0x180e
 6408 1800 0E       		.uleb128 0xe
 6409 1801 72313300 		.ascii	"r13\000"
 6410 1805 11       		.byte	0x11
 6411 1806 8A       		.byte	0x8a
 6412 1807 17       		.byte	0x17
 6413 1808 69190000 		.4byte	0x1969
 6414 180c 00       		.byte	0
 6415 180d 00       		.byte	0
 6416 180e 0D       		.uleb128 0xd
ARM GAS  /tmp/ccDzFi87.s 			page 114


 6417 180f 09000000 		.4byte	.LASF311
 6418 1813 64       		.byte	0x64
 6419 1814 04       		.byte	0x4
 6420 1815 F4       		.byte	0xf4
 6421 1816 08       		.byte	0x8
 6422 1817 69190000 		.4byte	0x1969
 6423 181b 0E       		.uleb128 0xe
 6424 181c 73313600 		.ascii	"s16\000"
 6425 1820 04       		.byte	0x4
 6426 1821 F6       		.byte	0xf6
 6427 1822 11       		.byte	0x11
 6428 1823 DB170000 		.4byte	0x17db
 6429 1827 00       		.byte	0
 6430 1828 0E       		.uleb128 0xe
 6431 1829 73313700 		.ascii	"s17\000"
 6432 182d 04       		.byte	0x4
 6433 182e F7       		.byte	0xf7
 6434 182f 11       		.byte	0x11
 6435 1830 DB170000 		.4byte	0x17db
 6436 1834 04       		.byte	0x4
 6437 1835 0E       		.uleb128 0xe
 6438 1836 73313800 		.ascii	"s18\000"
 6439 183a 04       		.byte	0x4
 6440 183b F8       		.byte	0xf8
 6441 183c 11       		.byte	0x11
 6442 183d DB170000 		.4byte	0x17db
 6443 1841 08       		.byte	0x8
 6444 1842 0E       		.uleb128 0xe
 6445 1843 73313900 		.ascii	"s19\000"
 6446 1847 04       		.byte	0x4
 6447 1848 F9       		.byte	0xf9
 6448 1849 11       		.byte	0x11
 6449 184a DB170000 		.4byte	0x17db
 6450 184e 0C       		.byte	0xc
 6451 184f 0E       		.uleb128 0xe
 6452 1850 73323000 		.ascii	"s20\000"
 6453 1854 04       		.byte	0x4
 6454 1855 FA       		.byte	0xfa
 6455 1856 11       		.byte	0x11
 6456 1857 DB170000 		.4byte	0x17db
 6457 185b 10       		.byte	0x10
 6458 185c 0E       		.uleb128 0xe
 6459 185d 73323100 		.ascii	"s21\000"
 6460 1861 04       		.byte	0x4
 6461 1862 FB       		.byte	0xfb
 6462 1863 11       		.byte	0x11
 6463 1864 DB170000 		.4byte	0x17db
 6464 1868 14       		.byte	0x14
 6465 1869 0E       		.uleb128 0xe
 6466 186a 73323200 		.ascii	"s22\000"
 6467 186e 04       		.byte	0x4
 6468 186f FC       		.byte	0xfc
 6469 1870 11       		.byte	0x11
 6470 1871 DB170000 		.4byte	0x17db
 6471 1875 18       		.byte	0x18
 6472 1876 0E       		.uleb128 0xe
 6473 1877 73323300 		.ascii	"s23\000"
ARM GAS  /tmp/ccDzFi87.s 			page 115


 6474 187b 04       		.byte	0x4
 6475 187c FD       		.byte	0xfd
 6476 187d 11       		.byte	0x11
 6477 187e DB170000 		.4byte	0x17db
 6478 1882 1C       		.byte	0x1c
 6479 1883 0E       		.uleb128 0xe
 6480 1884 73323400 		.ascii	"s24\000"
 6481 1888 04       		.byte	0x4
 6482 1889 FE       		.byte	0xfe
 6483 188a 11       		.byte	0x11
 6484 188b DB170000 		.4byte	0x17db
 6485 188f 20       		.byte	0x20
 6486 1890 0E       		.uleb128 0xe
 6487 1891 73323500 		.ascii	"s25\000"
 6488 1895 04       		.byte	0x4
 6489 1896 FF       		.byte	0xff
 6490 1897 11       		.byte	0x11
 6491 1898 DB170000 		.4byte	0x17db
 6492 189c 24       		.byte	0x24
 6493 189d 21       		.uleb128 0x21
 6494 189e 73323600 		.ascii	"s26\000"
 6495 18a2 04       		.byte	0x4
 6496 18a3 0001     		.2byte	0x100
 6497 18a5 11       		.byte	0x11
 6498 18a6 DB170000 		.4byte	0x17db
 6499 18aa 28       		.byte	0x28
 6500 18ab 21       		.uleb128 0x21
 6501 18ac 73323700 		.ascii	"s27\000"
 6502 18b0 04       		.byte	0x4
 6503 18b1 0101     		.2byte	0x101
 6504 18b3 11       		.byte	0x11
 6505 18b4 DB170000 		.4byte	0x17db
 6506 18b8 2C       		.byte	0x2c
 6507 18b9 21       		.uleb128 0x21
 6508 18ba 73323800 		.ascii	"s28\000"
 6509 18be 04       		.byte	0x4
 6510 18bf 0201     		.2byte	0x102
 6511 18c1 11       		.byte	0x11
 6512 18c2 DB170000 		.4byte	0x17db
 6513 18c6 30       		.byte	0x30
 6514 18c7 21       		.uleb128 0x21
 6515 18c8 73323900 		.ascii	"s29\000"
 6516 18cc 04       		.byte	0x4
 6517 18cd 0301     		.2byte	0x103
 6518 18cf 11       		.byte	0x11
 6519 18d0 DB170000 		.4byte	0x17db
 6520 18d4 34       		.byte	0x34
 6521 18d5 21       		.uleb128 0x21
 6522 18d6 73333000 		.ascii	"s30\000"
 6523 18da 04       		.byte	0x4
 6524 18db 0401     		.2byte	0x104
 6525 18dd 11       		.byte	0x11
 6526 18de DB170000 		.4byte	0x17db
 6527 18e2 38       		.byte	0x38
 6528 18e3 21       		.uleb128 0x21
 6529 18e4 73333100 		.ascii	"s31\000"
 6530 18e8 04       		.byte	0x4
ARM GAS  /tmp/ccDzFi87.s 			page 116


 6531 18e9 0501     		.2byte	0x105
 6532 18eb 11       		.byte	0x11
 6533 18ec DB170000 		.4byte	0x17db
 6534 18f0 3C       		.byte	0x3c
 6535 18f1 21       		.uleb128 0x21
 6536 18f2 723400   		.ascii	"r4\000"
 6537 18f5 04       		.byte	0x4
 6538 18f6 0701     		.2byte	0x107
 6539 18f8 11       		.byte	0x11
 6540 18f9 DB170000 		.4byte	0x17db
 6541 18fd 40       		.byte	0x40
 6542 18fe 21       		.uleb128 0x21
 6543 18ff 723500   		.ascii	"r5\000"
 6544 1902 04       		.byte	0x4
 6545 1903 0801     		.2byte	0x108
 6546 1905 11       		.byte	0x11
 6547 1906 DB170000 		.4byte	0x17db
 6548 190a 44       		.byte	0x44
 6549 190b 21       		.uleb128 0x21
 6550 190c 723600   		.ascii	"r6\000"
 6551 190f 04       		.byte	0x4
 6552 1910 0901     		.2byte	0x109
 6553 1912 11       		.byte	0x11
 6554 1913 DB170000 		.4byte	0x17db
 6555 1917 48       		.byte	0x48
 6556 1918 21       		.uleb128 0x21
 6557 1919 723700   		.ascii	"r7\000"
 6558 191c 04       		.byte	0x4
 6559 191d 0A01     		.2byte	0x10a
 6560 191f 11       		.byte	0x11
 6561 1920 DB170000 		.4byte	0x17db
 6562 1924 4C       		.byte	0x4c
 6563 1925 21       		.uleb128 0x21
 6564 1926 723800   		.ascii	"r8\000"
 6565 1929 04       		.byte	0x4
 6566 192a 0B01     		.2byte	0x10b
 6567 192c 11       		.byte	0x11
 6568 192d DB170000 		.4byte	0x17db
 6569 1931 50       		.byte	0x50
 6570 1932 21       		.uleb128 0x21
 6571 1933 723900   		.ascii	"r9\000"
 6572 1936 04       		.byte	0x4
 6573 1937 0C01     		.2byte	0x10c
 6574 1939 11       		.byte	0x11
 6575 193a DB170000 		.4byte	0x17db
 6576 193e 54       		.byte	0x54
 6577 193f 21       		.uleb128 0x21
 6578 1940 72313000 		.ascii	"r10\000"
 6579 1944 04       		.byte	0x4
 6580 1945 0D01     		.2byte	0x10d
 6581 1947 11       		.byte	0x11
 6582 1948 DB170000 		.4byte	0x17db
 6583 194c 58       		.byte	0x58
 6584 194d 21       		.uleb128 0x21
 6585 194e 72313100 		.ascii	"r11\000"
 6586 1952 04       		.byte	0x4
 6587 1953 0E01     		.2byte	0x10e
ARM GAS  /tmp/ccDzFi87.s 			page 117


 6588 1955 11       		.byte	0x11
 6589 1956 DB170000 		.4byte	0x17db
 6590 195a 5C       		.byte	0x5c
 6591 195b 21       		.uleb128 0x21
 6592 195c 6C7200   		.ascii	"lr\000"
 6593 195f 04       		.byte	0x4
 6594 1960 0F01     		.2byte	0x10f
 6595 1962 11       		.byte	0x11
 6596 1963 DB170000 		.4byte	0x17db
 6597 1967 60       		.byte	0x60
 6598 1968 00       		.byte	0
 6599 1969 0F       		.uleb128 0xf
 6600 196a 04       		.byte	0x4
 6601 196b 0E180000 		.4byte	0x180e
 6602 196f 0A       		.uleb128 0xa
 6603 1970 10       		.byte	0x10
 6604 1971 12       		.byte	0x12
 6605 1972 51       		.byte	0x51
 6606 1973 09       		.byte	0x9
 6607 1974 AD190000 		.4byte	0x19ad
 6608 1978 0B       		.uleb128 0xb
 6609 1979 9C1F0000 		.4byte	.LASF312
 6610 197d 12       		.byte	0x12
 6611 197e 55       		.byte	0x55
 6612 197f 19       		.byte	0x19
 6613 1980 060A0000 		.4byte	0xa06
 6614 1984 00       		.byte	0
 6615 1985 0B       		.uleb128 0xb
 6616 1986 F1190000 		.4byte	.LASF313
 6617 198a 12       		.byte	0x12
 6618 198b 59       		.byte	0x59
 6619 198c 1A       		.byte	0x1a
 6620 198d 640B0000 		.4byte	0xb64
 6621 1991 04       		.byte	0x4
 6622 1992 0B       		.uleb128 0xb
 6623 1993 431E0000 		.4byte	.LASF314
 6624 1997 12       		.byte	0x12
 6625 1998 5D       		.byte	0x5d
 6626 1999 1A       		.byte	0x1a
 6627 199a 05010000 		.4byte	0x105
 6628 199e 08       		.byte	0x8
 6629 199f 0B       		.uleb128 0xb
 6630 19a0 FA090000 		.4byte	.LASF315
 6631 19a4 12       		.byte	0x12
 6632 19a5 61       		.byte	0x61
 6633 19a6 19       		.byte	0x19
 6634 19a7 37090000 		.4byte	0x937
 6635 19ab 0C       		.byte	0xc
 6636 19ac 00       		.byte	0
 6637 19ad 03       		.uleb128 0x3
 6638 19ae 9B0C0000 		.4byte	.LASF316
 6639 19b2 12       		.byte	0x12
 6640 19b3 62       		.byte	0x62
 6641 19b4 03       		.byte	0x3
 6642 19b5 6F190000 		.4byte	0x196f
 6643 19b9 25       		.uleb128 0x25
 6644 19ba 0804     		.2byte	0x408
ARM GAS  /tmp/ccDzFi87.s 			page 118


 6645 19bc 12       		.byte	0x12
 6646 19bd 67       		.byte	0x67
 6647 19be 09       		.byte	0x9
 6648 19bf EB190000 		.4byte	0x19eb
 6649 19c3 0B       		.uleb128 0xb
 6650 19c4 710D0000 		.4byte	.LASF317
 6651 19c8 12       		.byte	0x12
 6652 19c9 6B       		.byte	0x6b
 6653 19ca 19       		.byte	0x19
 6654 19cb 38000000 		.4byte	0x38
 6655 19cf 00       		.byte	0
 6656 19d0 0B       		.uleb128 0xb
 6657 19d1 F4140000 		.4byte	.LASF318
 6658 19d5 12       		.byte	0x12
 6659 19d6 6F       		.byte	0x6f
 6660 19d7 1A       		.byte	0x1a
 6661 19d8 EB190000 		.4byte	0x19eb
 6662 19dc 04       		.byte	0x4
 6663 19dd 0B       		.uleb128 0xb
 6664 19de 7C090000 		.4byte	.LASF319
 6665 19e2 12       		.byte	0x12
 6666 19e3 73       		.byte	0x73
 6667 19e4 19       		.byte	0x19
 6668 19e5 F1190000 		.4byte	0x19f1
 6669 19e9 08       		.byte	0x8
 6670 19ea 00       		.byte	0
 6671 19eb 0F       		.uleb128 0xf
 6672 19ec 04       		.byte	0x4
 6673 19ed AD190000 		.4byte	0x19ad
 6674 19f1 08       		.uleb128 0x8
 6675 19f2 AD190000 		.4byte	0x19ad
 6676 19f6 011A0000 		.4byte	0x1a01
 6677 19fa 09       		.uleb128 0x9
 6678 19fb 38000000 		.4byte	0x38
 6679 19ff 3F       		.byte	0x3f
 6680 1a00 00       		.byte	0
 6681 1a01 03       		.uleb128 0x3
 6682 1a02 15000000 		.4byte	.LASF320
 6683 1a06 12       		.byte	0x12
 6684 1a07 74       		.byte	0x74
 6685 1a08 03       		.byte	0x3
 6686 1a09 B9190000 		.4byte	0x19b9
 6687 1a0d 0A       		.uleb128 0xa
 6688 1a0e 04       		.byte	0x4
 6689 1a0f 13       		.byte	0x13
 6690 1a10 38       		.byte	0x38
 6691 1a11 09       		.byte	0x9
 6692 1a12 241A0000 		.4byte	0x1a24
 6693 1a16 0B       		.uleb128 0xb
 6694 1a17 4C200000 		.4byte	.LASF321
 6695 1a1b 13       		.byte	0x13
 6696 1a1c 3C       		.byte	0x3c
 6697 1a1d 19       		.byte	0x19
 6698 1a1e 76090000 		.4byte	0x976
 6699 1a22 00       		.byte	0
 6700 1a23 00       		.byte	0
 6701 1a24 03       		.uleb128 0x3
ARM GAS  /tmp/ccDzFi87.s 			page 119


 6702 1a25 77050000 		.4byte	.LASF322
 6703 1a29 13       		.byte	0x13
 6704 1a2a 3D       		.byte	0x3d
 6705 1a2b 03       		.byte	0x3
 6706 1a2c 0D1A0000 		.4byte	0x1a0d
 6707 1a30 0A       		.uleb128 0xa
 6708 1a31 18       		.byte	0x18
 6709 1a32 13       		.byte	0x13
 6710 1a33 48       		.byte	0x48
 6711 1a34 09       		.byte	0x9
 6712 1a35 791A0000 		.4byte	0x1a79
 6713 1a39 0B       		.uleb128 0xb
 6714 1a3a 96070000 		.4byte	.LASF323
 6715 1a3e 13       		.byte	0x13
 6716 1a3f 49       		.byte	0x49
 6717 1a40 19       		.byte	0x19
 6718 1a41 76090000 		.4byte	0x976
 6719 1a45 00       		.byte	0
 6720 1a46 0B       		.uleb128 0xb
 6721 1a47 5C010000 		.4byte	.LASF324
 6722 1a4b 13       		.byte	0x13
 6723 1a4c 4A       		.byte	0x4a
 6724 1a4d 19       		.byte	0x19
 6725 1a4e 76090000 		.4byte	0x976
 6726 1a52 04       		.byte	0x4
 6727 1a53 0B       		.uleb128 0xb
 6728 1a54 16190000 		.4byte	.LASF325
 6729 1a58 13       		.byte	0x13
 6730 1a59 4B       		.byte	0x4b
 6731 1a5a 19       		.byte	0x19
 6732 1a5b 76090000 		.4byte	0x976
 6733 1a5f 08       		.byte	0x8
 6734 1a60 0E       		.uleb128 0xe
 6735 1a61 6E00     		.ascii	"n\000"
 6736 1a63 13       		.byte	0x13
 6737 1a64 4C       		.byte	0x4c
 6738 1a65 19       		.byte	0x19
 6739 1a66 FA090000 		.4byte	0x9fa
 6740 1a6a 0C       		.byte	0xc
 6741 1a6b 0B       		.uleb128 0xb
 6742 1a6c BA180000 		.4byte	.LASF326
 6743 1a70 13       		.byte	0x13
 6744 1a71 4D       		.byte	0x4d
 6745 1a72 19       		.byte	0x19
 6746 1a73 82090000 		.4byte	0x982
 6747 1a77 10       		.byte	0x10
 6748 1a78 00       		.byte	0
 6749 1a79 03       		.uleb128 0x3
 6750 1a7a F8220000 		.4byte	.LASF327
 6751 1a7e 13       		.byte	0x13
 6752 1a7f 4E       		.byte	0x4e
 6753 1a80 03       		.byte	0x3
 6754 1a81 301A0000 		.4byte	0x1a30
 6755 1a85 0A       		.uleb128 0xa
 6756 1a86 38       		.byte	0x38
 6757 1a87 14       		.byte	0x14
 6758 1a88 38       		.byte	0x38
ARM GAS  /tmp/ccDzFi87.s 			page 120


 6759 1a89 09       		.byte	0x9
 6760 1a8a C31A0000 		.4byte	0x1ac3
 6761 1a8e 0B       		.uleb128 0xb
 6762 1a8f E3060000 		.4byte	.LASF328
 6763 1a93 14       		.byte	0x14
 6764 1a94 39       		.byte	0x39
 6765 1a95 19       		.byte	0x19
 6766 1a96 FA090000 		.4byte	0x9fa
 6767 1a9a 00       		.byte	0
 6768 1a9b 0B       		.uleb128 0xb
 6769 1a9c B50A0000 		.4byte	.LASF329
 6770 1aa0 14       		.byte	0x14
 6771 1aa1 3A       		.byte	0x3a
 6772 1aa2 19       		.byte	0x19
 6773 1aa3 FA090000 		.4byte	0x9fa
 6774 1aa7 04       		.byte	0x4
 6775 1aa8 0B       		.uleb128 0xb
 6776 1aa9 75220000 		.4byte	.LASF330
 6777 1aad 14       		.byte	0x14
 6778 1aae 3B       		.byte	0x3b
 6779 1aaf 19       		.byte	0x19
 6780 1ab0 791A0000 		.4byte	0x1a79
 6781 1ab4 08       		.byte	0x8
 6782 1ab5 0B       		.uleb128 0xb
 6783 1ab6 6D000000 		.4byte	.LASF331
 6784 1aba 14       		.byte	0x14
 6785 1abb 3D       		.byte	0x3d
 6786 1abc 19       		.byte	0x19
 6787 1abd 791A0000 		.4byte	0x1a79
 6788 1ac1 20       		.byte	0x20
 6789 1ac2 00       		.byte	0
 6790 1ac3 03       		.uleb128 0x3
 6791 1ac4 33050000 		.4byte	.LASF332
 6792 1ac8 14       		.byte	0x14
 6793 1ac9 3F       		.byte	0x3f
 6794 1aca 03       		.byte	0x3
 6795 1acb 851A0000 		.4byte	0x1a85
 6796 1acf 06       		.uleb128 0x6
 6797 1ad0 04       		.byte	0x4
 6798 1ad1 0D       		.byte	0xd
 6799 1ad2 FA       		.byte	0xfa
 6800 1ad3 03       		.byte	0x3
 6801 1ad4 341B0000 		.4byte	0x1b34
 6802 1ad8 1D       		.uleb128 0x1d
 6803 1ad9 4D0F0000 		.4byte	.LASF333
 6804 1add 0D       		.byte	0xd
 6805 1ade 0101     		.2byte	0x101
 6806 1ae0 19       		.byte	0x19
 6807 1ae1 CA090000 		.4byte	0x9ca
 6808 1ae5 1D       		.uleb128 0x1d
 6809 1ae6 25080000 		.4byte	.LASF334
 6810 1aea 0D       		.byte	0xd
 6811 1aeb 0801     		.2byte	0x108
 6812 1aed 19       		.byte	0x19
 6813 1aee CA090000 		.4byte	0x9ca
 6814 1af2 1D       		.uleb128 0x1d
 6815 1af3 3F1D0000 		.4byte	.LASF335
ARM GAS  /tmp/ccDzFi87.s 			page 121


 6816 1af7 0D       		.byte	0xd
 6817 1af8 0F01     		.2byte	0x10f
 6818 1afa 1A       		.byte	0x1a
 6819 1afb 05010000 		.4byte	0x105
 6820 1aff 1D       		.uleb128 0x1d
 6821 1b00 DB180000 		.4byte	.LASF336
 6822 1b04 0D       		.byte	0xd
 6823 1b05 1601     		.2byte	0x116
 6824 1b07 1A       		.byte	0x1a
 6825 1b08 341B0000 		.4byte	0x1b34
 6826 1b0c 1D       		.uleb128 0x1d
 6827 1b0d E0000000 		.4byte	.LASF337
 6828 1b11 0D       		.byte	0xd
 6829 1b12 1E01     		.2byte	0x11e
 6830 1b14 1A       		.byte	0x1a
 6831 1b15 621B0000 		.4byte	0x1b62
 6832 1b19 1D       		.uleb128 0x1d
 6833 1b1a 861D0000 		.4byte	.LASF338
 6834 1b1e 0D       		.byte	0xd
 6835 1b1f 2701     		.2byte	0x127
 6836 1b21 1A       		.byte	0x1a
 6837 1b22 AA1B0000 		.4byte	0x1baa
 6838 1b26 1D       		.uleb128 0x1d
 6839 1b27 EA200000 		.4byte	.LASF339
 6840 1b2b 0D       		.byte	0xd
 6841 1b2c 2F01     		.2byte	0x12f
 6842 1b2e 19       		.byte	0x19
 6843 1b2f D6090000 		.4byte	0x9d6
 6844 1b33 00       		.byte	0
 6845 1b34 0F       		.uleb128 0xf
 6846 1b35 04       		.byte	0x4
 6847 1b36 580B0000 		.4byte	0xb58
 6848 1b3a 0D       		.uleb128 0xd
 6849 1b3b 84170000 		.4byte	.LASF340
 6850 1b3f 0C       		.byte	0xc
 6851 1b40 15       		.byte	0x15
 6852 1b41 34       		.byte	0x34
 6853 1b42 10       		.byte	0x10
 6854 1b43 621B0000 		.4byte	0x1b62
 6855 1b47 0B       		.uleb128 0xb
 6856 1b48 6D220000 		.4byte	.LASF341
 6857 1b4c 15       		.byte	0x15
 6858 1b4d 35       		.byte	0x35
 6859 1b4e 19       		.byte	0x19
 6860 1b4f 910B0000 		.4byte	0xb91
 6861 1b53 00       		.byte	0
 6862 1b54 0B       		.uleb128 0xb
 6863 1b55 8E090000 		.4byte	.LASF342
 6864 1b59 15       		.byte	0x15
 6865 1b5a 37       		.byte	0x37
 6866 1b5b 19       		.byte	0x19
 6867 1b5c EE090000 		.4byte	0x9ee
 6868 1b60 08       		.byte	0x8
 6869 1b61 00       		.byte	0
 6870 1b62 0F       		.uleb128 0xf
 6871 1b63 04       		.byte	0x4
 6872 1b64 3A1B0000 		.4byte	0x1b3a
ARM GAS  /tmp/ccDzFi87.s 			page 122


 6873 1b68 0D       		.uleb128 0xd
 6874 1b69 500B0000 		.4byte	.LASF343
 6875 1b6d 14       		.byte	0x14
 6876 1b6e 16       		.byte	0x16
 6877 1b6f 39       		.byte	0x39
 6878 1b70 08       		.byte	0x8
 6879 1b71 AA1B0000 		.4byte	0x1baa
 6880 1b75 0B       		.uleb128 0xb
 6881 1b76 16120000 		.4byte	.LASF344
 6882 1b7a 16       		.byte	0x16
 6883 1b7b 3A       		.byte	0x3a
 6884 1b7c 19       		.byte	0x19
 6885 1b7d 910B0000 		.4byte	0xb91
 6886 1b81 00       		.byte	0
 6887 1b82 0B       		.uleb128 0xb
 6888 1b83 41160000 		.4byte	.LASF345
 6889 1b87 16       		.byte	0x16
 6890 1b88 3C       		.byte	0x3c
 6891 1b89 1A       		.byte	0x1a
 6892 1b8a 640B0000 		.4byte	0xb64
 6893 1b8e 08       		.byte	0x8
 6894 1b8f 0B       		.uleb128 0xb
 6895 1b90 A6010000 		.4byte	.LASF346
 6896 1b94 16       		.byte	0x16
 6897 1b95 3E       		.byte	0x3e
 6898 1b96 1A       		.byte	0x1a
 6899 1b97 051D0000 		.4byte	0x1d05
 6900 1b9b 0C       		.byte	0xc
 6901 1b9c 0B       		.uleb128 0xb
 6902 1b9d B9080000 		.4byte	.LASF347
 6903 1ba1 16       		.byte	0x16
 6904 1ba2 41       		.byte	0x41
 6905 1ba3 19       		.byte	0x19
 6906 1ba4 EE090000 		.4byte	0x9ee
 6907 1ba8 10       		.byte	0x10
 6908 1ba9 00       		.byte	0
 6909 1baa 0F       		.uleb128 0xf
 6910 1bab 04       		.byte	0x4
 6911 1bac 681B0000 		.4byte	0x1b68
 6912 1bb0 0F       		.uleb128 0xf
 6913 1bb1 04       		.byte	0x4
 6914 1bb2 E7170000 		.4byte	0x17e7
 6915 1bb6 0F       		.uleb128 0xf
 6916 1bb7 04       		.byte	0x4
 6917 1bb8 510C0000 		.4byte	0xc51
 6918 1bbc 08       		.uleb128 0x8
 6919 1bbd E7170000 		.4byte	0x17e7
 6920 1bc1 CC1B0000 		.4byte	0x1bcc
 6921 1bc5 09       		.uleb128 0x9
 6922 1bc6 38000000 		.4byte	0x38
 6923 1bca 30       		.byte	0x30
 6924 1bcb 00       		.byte	0
 6925 1bcc 26       		.uleb128 0x26
 6926 1bcd 636800   		.ascii	"ch\000"
 6927 1bd0 0D       		.byte	0xd
 6928 1bd1 0902     		.2byte	0x209
 6929 1bd3 14       		.byte	0x14
ARM GAS  /tmp/ccDzFi87.s 			page 123


 6930 1bd4 590D0000 		.4byte	0xd59
 6931 1bd8 0A       		.uleb128 0xa
 6932 1bd9 16       		.byte	0x16
 6933 1bda 17       		.byte	0x17
 6934 1bdb 34       		.byte	0x34
 6935 1bdc 09       		.byte	0x9
 6936 1bdd CC1C0000 		.4byte	0x1ccc
 6937 1be1 0B       		.uleb128 0xb
 6938 1be2 A7220000 		.4byte	.LASF348
 6939 1be6 17       		.byte	0x17
 6940 1be7 35       		.byte	0x35
 6941 1be8 0D       		.byte	0xd
 6942 1be9 CC1C0000 		.4byte	0x1ccc
 6943 1bed 00       		.byte	0
 6944 1bee 0B       		.uleb128 0xb
 6945 1bef DF240000 		.4byte	.LASF349
 6946 1bf3 17       		.byte	0x17
 6947 1bf4 36       		.byte	0x36
 6948 1bf5 0D       		.byte	0xd
 6949 1bf6 37090000 		.4byte	0x937
 6950 1bfa 04       		.byte	0x4
 6951 1bfb 0B       		.uleb128 0xb
 6952 1bfc ED020000 		.4byte	.LASF350
 6953 1c00 17       		.byte	0x17
 6954 1c01 37       		.byte	0x37
 6955 1c02 0D       		.byte	0xd
 6956 1c03 37090000 		.4byte	0x937
 6957 1c07 05       		.byte	0x5
 6958 1c08 0B       		.uleb128 0xb
 6959 1c09 98160000 		.4byte	.LASF351
 6960 1c0d 17       		.byte	0x17
 6961 1c0e 38       		.byte	0x38
 6962 1c0f 0D       		.byte	0xd
 6963 1c10 48090000 		.4byte	0x948
 6964 1c14 06       		.byte	0x6
 6965 1c15 0B       		.uleb128 0xb
 6966 1c16 27000000 		.4byte	.LASF352
 6967 1c1a 17       		.byte	0x17
 6968 1c1b 39       		.byte	0x39
 6969 1c1c 0D       		.byte	0xd
 6970 1c1d 37090000 		.4byte	0x937
 6971 1c21 08       		.byte	0x8
 6972 1c22 0B       		.uleb128 0xb
 6973 1c23 AC140000 		.4byte	.LASF353
 6974 1c27 17       		.byte	0x17
 6975 1c28 3A       		.byte	0x3a
 6976 1c29 0D       		.byte	0xd
 6977 1c2a 37090000 		.4byte	0x937
 6978 1c2e 09       		.byte	0x9
 6979 1c2f 0B       		.uleb128 0xb
 6980 1c30 FF240000 		.4byte	.LASF354
 6981 1c34 17       		.byte	0x17
 6982 1c35 3B       		.byte	0x3b
 6983 1c36 0D       		.byte	0xd
 6984 1c37 37090000 		.4byte	0x937
 6985 1c3b 0A       		.byte	0xa
 6986 1c3c 0B       		.uleb128 0xb
ARM GAS  /tmp/ccDzFi87.s 			page 124


 6987 1c3d D3220000 		.4byte	.LASF355
 6988 1c41 17       		.byte	0x17
 6989 1c42 3C       		.byte	0x3c
 6990 1c43 0D       		.byte	0xd
 6991 1c44 37090000 		.4byte	0x937
 6992 1c48 0B       		.byte	0xb
 6993 1c49 0B       		.uleb128 0xb
 6994 1c4a F0210000 		.4byte	.LASF356
 6995 1c4e 17       		.byte	0x17
 6996 1c4f 3D       		.byte	0x3d
 6997 1c50 0D       		.byte	0xd
 6998 1c51 37090000 		.4byte	0x937
 6999 1c55 0C       		.byte	0xc
 7000 1c56 0B       		.uleb128 0xb
 7001 1c57 9F0B0000 		.4byte	.LASF357
 7002 1c5b 17       		.byte	0x17
 7003 1c5c 3E       		.byte	0x3e
 7004 1c5d 0D       		.byte	0xd
 7005 1c5e 37090000 		.4byte	0x937
 7006 1c62 0D       		.byte	0xd
 7007 1c63 0B       		.uleb128 0xb
 7008 1c64 DB050000 		.4byte	.LASF358
 7009 1c68 17       		.byte	0x17
 7010 1c69 3F       		.byte	0x3f
 7011 1c6a 0D       		.byte	0xd
 7012 1c6b 37090000 		.4byte	0x937
 7013 1c6f 0E       		.byte	0xe
 7014 1c70 0B       		.uleb128 0xb
 7015 1c71 170D0000 		.4byte	.LASF359
 7016 1c75 17       		.byte	0x17
 7017 1c76 40       		.byte	0x40
 7018 1c77 0D       		.byte	0xd
 7019 1c78 37090000 		.4byte	0x937
 7020 1c7c 0F       		.byte	0xf
 7021 1c7d 0B       		.uleb128 0xb
 7022 1c7e CB0E0000 		.4byte	.LASF360
 7023 1c82 17       		.byte	0x17
 7024 1c83 41       		.byte	0x41
 7025 1c84 0D       		.byte	0xd
 7026 1c85 37090000 		.4byte	0x937
 7027 1c89 10       		.byte	0x10
 7028 1c8a 0B       		.uleb128 0xb
 7029 1c8b 34160000 		.4byte	.LASF361
 7030 1c8f 17       		.byte	0x17
 7031 1c90 43       		.byte	0x43
 7032 1c91 0D       		.byte	0xd
 7033 1c92 37090000 		.4byte	0x937
 7034 1c96 11       		.byte	0x11
 7035 1c97 0B       		.uleb128 0xb
 7036 1c98 BC020000 		.4byte	.LASF362
 7037 1c9c 17       		.byte	0x17
 7038 1c9d 44       		.byte	0x44
 7039 1c9e 0D       		.byte	0xd
 7040 1c9f 37090000 		.4byte	0x937
 7041 1ca3 12       		.byte	0x12
 7042 1ca4 0B       		.uleb128 0xb
 7043 1ca5 28160000 		.4byte	.LASF363
ARM GAS  /tmp/ccDzFi87.s 			page 125


 7044 1ca9 17       		.byte	0x17
 7045 1caa 45       		.byte	0x45
 7046 1cab 0D       		.byte	0xd
 7047 1cac 37090000 		.4byte	0x937
 7048 1cb0 13       		.byte	0x13
 7049 1cb1 0B       		.uleb128 0xb
 7050 1cb2 711C0000 		.4byte	.LASF364
 7051 1cb6 17       		.byte	0x17
 7052 1cb7 46       		.byte	0x46
 7053 1cb8 0D       		.byte	0xd
 7054 1cb9 37090000 		.4byte	0x937
 7055 1cbd 14       		.byte	0x14
 7056 1cbe 0B       		.uleb128 0xb
 7057 1cbf C8000000 		.4byte	.LASF365
 7058 1cc3 17       		.byte	0x17
 7059 1cc4 48       		.byte	0x48
 7060 1cc5 0D       		.byte	0xd
 7061 1cc6 37090000 		.4byte	0x937
 7062 1cca 15       		.byte	0x15
 7063 1ccb 00       		.byte	0
 7064 1ccc 08       		.uleb128 0x8
 7065 1ccd BC050000 		.4byte	0x5bc
 7066 1cd1 DC1C0000 		.4byte	0x1cdc
 7067 1cd5 09       		.uleb128 0x9
 7068 1cd6 38000000 		.4byte	0x38
 7069 1cda 03       		.byte	0x3
 7070 1cdb 00       		.byte	0
 7071 1cdc 03       		.uleb128 0x3
 7072 1cdd 25140000 		.4byte	.LASF366
 7073 1ce1 17       		.byte	0x17
 7074 1ce2 49       		.byte	0x49
 7075 1ce3 03       		.byte	0x3
 7076 1ce4 D81B0000 		.4byte	0x1bd8
 7077 1ce8 15       		.uleb128 0x15
 7078 1ce9 DC1C0000 		.4byte	0x1cdc
 7079 1ced 23       		.uleb128 0x23
 7080 1cee BE0A0000 		.4byte	.LASF367
 7081 1cf2 17       		.byte	0x17
 7082 1cf3 6E       		.byte	0x6e
 7083 1cf4 1D       		.byte	0x1d
 7084 1cf5 E81C0000 		.4byte	0x1ce8
 7085 1cf9 03       		.uleb128 0x3
 7086 1cfa D61E0000 		.4byte	.LASF368
 7087 1cfe 16       		.byte	0x16
 7088 1cff 34       		.byte	0x34
 7089 1d00 19       		.byte	0x19
 7090 1d01 681B0000 		.4byte	0x1b68
 7091 1d05 0F       		.uleb128 0xf
 7092 1d06 04       		.byte	0x4
 7093 1d07 F91C0000 		.4byte	0x1cf9
 7094 1d0b 03       		.uleb128 0x3
 7095 1d0c 030B0000 		.4byte	.LASF369
 7096 1d10 18       		.byte	0x18
 7097 1d11 34       		.byte	0x34
 7098 1d12 1F       		.byte	0x1f
 7099 1d13 171D0000 		.4byte	0x1d17
 7100 1d17 0D       		.uleb128 0xd
ARM GAS  /tmp/ccDzFi87.s 			page 126


 7101 1d18 7E250000 		.4byte	.LASF370
 7102 1d1c 14       		.byte	0x14
 7103 1d1d 18       		.byte	0x18
 7104 1d1e 39       		.byte	0x39
 7105 1d1f 08       		.byte	0x8
 7106 1d20 661D0000 		.4byte	0x1d66
 7107 1d24 0B       		.uleb128 0xb
 7108 1d25 20020000 		.4byte	.LASF371
 7109 1d29 18       		.byte	0x18
 7110 1d2a 3A       		.byte	0x3a
 7111 1d2b 1A       		.byte	0x1a
 7112 1d2c 661D0000 		.4byte	0x1d66
 7113 1d30 00       		.byte	0
 7114 1d31 0B       		.uleb128 0xb
 7115 1d32 D31F0000 		.4byte	.LASF372
 7116 1d36 18       		.byte	0x18
 7117 1d37 3D       		.byte	0x3d
 7118 1d38 1A       		.byte	0x1a
 7119 1d39 640B0000 		.4byte	0xb64
 7120 1d3d 04       		.byte	0x4
 7121 1d3e 0B       		.uleb128 0xb
 7122 1d3f 75030000 		.4byte	.LASF373
 7123 1d43 18       		.byte	0x18
 7124 1d44 3F       		.byte	0x3f
 7125 1d45 19       		.byte	0x19
 7126 1d46 D6090000 		.4byte	0x9d6
 7127 1d4a 08       		.byte	0x8
 7128 1d4b 0B       		.uleb128 0xb
 7129 1d4c F1200000 		.4byte	.LASF374
 7130 1d50 18       		.byte	0x18
 7131 1d51 41       		.byte	0x41
 7132 1d52 19       		.byte	0x19
 7133 1d53 E2090000 		.4byte	0x9e2
 7134 1d57 0C       		.byte	0xc
 7135 1d58 0B       		.uleb128 0xb
 7136 1d59 5D0D0000 		.4byte	.LASF375
 7137 1d5d 18       		.byte	0x18
 7138 1d5e 43       		.byte	0x43
 7139 1d5f 19       		.byte	0x19
 7140 1d60 E2090000 		.4byte	0x9e2
 7141 1d64 10       		.byte	0x10
 7142 1d65 00       		.byte	0
 7143 1d66 0F       		.uleb128 0xf
 7144 1d67 04       		.byte	0x4
 7145 1d68 0B1D0000 		.4byte	0x1d0b
 7146 1d6c 0D       		.uleb128 0xd
 7147 1d6d FA200000 		.4byte	.LASF376
 7148 1d71 04       		.byte	0x4
 7149 1d72 18       		.byte	0x18
 7150 1d73 4A       		.byte	0x4a
 7151 1d74 10       		.byte	0x10
 7152 1d75 871D0000 		.4byte	0x1d87
 7153 1d79 0B       		.uleb128 0xb
 7154 1d7a 74200000 		.4byte	.LASF377
 7155 1d7e 18       		.byte	0x18
 7156 1d7f 4B       		.byte	0x4b
 7157 1d80 1A       		.byte	0x1a
ARM GAS  /tmp/ccDzFi87.s 			page 127


 7158 1d81 661D0000 		.4byte	0x1d66
 7159 1d85 00       		.byte	0
 7160 1d86 00       		.byte	0
 7161 1d87 03       		.uleb128 0x3
 7162 1d88 CD140000 		.4byte	.LASF378
 7163 1d8c 18       		.byte	0x18
 7164 1d8d 4E       		.byte	0x4e
 7165 1d8e 03       		.byte	0x3
 7166 1d8f 6C1D0000 		.4byte	0x1d6c
 7167 1d93 03       		.uleb128 0x3
 7168 1d94 9D0D0000 		.4byte	.LASF379
 7169 1d98 19       		.byte	0x19
 7170 1d99 3F       		.byte	0x3f
 7171 1d9a 19       		.byte	0x19
 7172 1d9b 9F1D0000 		.4byte	0x1d9f
 7173 1d9f 0D       		.uleb128 0xd
 7174 1da0 DA0F0000 		.4byte	.LASF380
 7175 1da4 24       		.byte	0x24
 7176 1da5 19       		.byte	0x19
 7177 1da6 4D       		.byte	0x4d
 7178 1da7 08       		.byte	0x8
 7179 1da8 151E0000 		.4byte	0x1e15
 7180 1dac 0B       		.uleb128 0xb
 7181 1dad 42050000 		.4byte	.LASF381
 7182 1db1 19       		.byte	0x19
 7183 1db2 4E       		.byte	0x4e
 7184 1db3 19       		.byte	0x19
 7185 1db4 910B0000 		.4byte	0xb91
 7186 1db8 00       		.byte	0
 7187 1db9 0B       		.uleb128 0xb
 7188 1dba 7F180000 		.4byte	.LASF382
 7189 1dbe 19       		.byte	0x19
 7190 1dbf 4F       		.byte	0x4f
 7191 1dc0 19       		.byte	0x19
 7192 1dc1 2C000000 		.4byte	0x2c
 7193 1dc5 08       		.byte	0x8
 7194 1dc6 0B       		.uleb128 0xb
 7195 1dc7 76100000 		.4byte	.LASF383
 7196 1dcb 19       		.byte	0x19
 7197 1dcc 50       		.byte	0x50
 7198 1dcd 1A       		.byte	0x1a
 7199 1dce 381E0000 		.4byte	0x1e38
 7200 1dd2 0C       		.byte	0xc
 7201 1dd3 0B       		.uleb128 0xb
 7202 1dd4 A2040000 		.4byte	.LASF384
 7203 1dd8 19       		.byte	0x19
 7204 1dd9 51       		.byte	0x51
 7205 1dda 1A       		.byte	0x1a
 7206 1ddb 381E0000 		.4byte	0x1e38
 7207 1ddf 10       		.byte	0x10
 7208 1de0 0B       		.uleb128 0xb
 7209 1de1 F7190000 		.4byte	.LASF385
 7210 1de5 19       		.byte	0x19
 7211 1de6 53       		.byte	0x53
 7212 1de7 1A       		.byte	0x1a
 7213 1de8 381E0000 		.4byte	0x1e38
 7214 1dec 14       		.byte	0x14
ARM GAS  /tmp/ccDzFi87.s 			page 128


 7215 1ded 0B       		.uleb128 0xb
 7216 1dee E1180000 		.4byte	.LASF386
 7217 1df2 19       		.byte	0x19
 7218 1df3 54       		.byte	0x54
 7219 1df4 1A       		.byte	0x1a
 7220 1df5 381E0000 		.4byte	0x1e38
 7221 1df9 18       		.byte	0x18
 7222 1dfa 0B       		.uleb128 0xb
 7223 1dfb 7D1D0000 		.4byte	.LASF387
 7224 1dff 19       		.byte	0x19
 7225 1e00 55       		.byte	0x55
 7226 1e01 19       		.byte	0x19
 7227 1e02 151E0000 		.4byte	0x1e15
 7228 1e06 1C       		.byte	0x1c
 7229 1e07 0B       		.uleb128 0xb
 7230 1e08 F01A0000 		.4byte	.LASF388
 7231 1e0c 19       		.byte	0x19
 7232 1e0d 56       		.byte	0x56
 7233 1e0e 1A       		.byte	0x1a
 7234 1e0f 05010000 		.4byte	0x105
 7235 1e13 20       		.byte	0x20
 7236 1e14 00       		.byte	0
 7237 1e15 03       		.uleb128 0x3
 7238 1e16 68040000 		.4byte	.LASF389
 7239 1e1a 19       		.byte	0x19
 7240 1e1b 42       		.byte	0x42
 7241 1e1c 10       		.byte	0x10
 7242 1e1d 211E0000 		.4byte	0x1e21
 7243 1e21 0F       		.uleb128 0xf
 7244 1e22 04       		.byte	0x4
 7245 1e23 271E0000 		.4byte	0x1e27
 7246 1e27 1F       		.uleb128 0x1f
 7247 1e28 321E0000 		.4byte	0x1e32
 7248 1e2c 14       		.uleb128 0x14
 7249 1e2d 321E0000 		.4byte	0x1e32
 7250 1e31 00       		.byte	0
 7251 1e32 0F       		.uleb128 0xf
 7252 1e33 04       		.byte	0x4
 7253 1e34 931D0000 		.4byte	0x1d93
 7254 1e38 0F       		.uleb128 0xf
 7255 1e39 04       		.byte	0x4
 7256 1e3a 37090000 		.4byte	0x937
 7257 1e3e 03       		.uleb128 0x3
 7258 1e3f 88050000 		.4byte	.LASF390
 7259 1e43 19       		.byte	0x19
 7260 1e44 64       		.byte	0x64
 7261 1e45 14       		.byte	0x14
 7262 1e46 931D0000 		.4byte	0x1d93
 7263 1e4a 03       		.uleb128 0x3
 7264 1e4b C8250000 		.4byte	.LASF391
 7265 1e4f 19       		.byte	0x19
 7266 1e50 71       		.byte	0x71
 7267 1e51 14       		.byte	0x14
 7268 1e52 931D0000 		.4byte	0x1d93
 7269 1e56 13       		.uleb128 0x13
 7270 1e57 2C000000 		.4byte	0x2c
 7271 1e5b 6F1E0000 		.4byte	0x1e6f
ARM GAS  /tmp/ccDzFi87.s 			page 129


 7272 1e5f 14       		.uleb128 0x14
 7273 1e60 05010000 		.4byte	0x105
 7274 1e64 14       		.uleb128 0x14
 7275 1e65 6F1E0000 		.4byte	0x1e6f
 7276 1e69 14       		.uleb128 0x14
 7277 1e6a 2C000000 		.4byte	0x2c
 7278 1e6e 00       		.byte	0
 7279 1e6f 0F       		.uleb128 0xf
 7280 1e70 04       		.byte	0x4
 7281 1e71 43090000 		.4byte	0x943
 7282 1e75 0F       		.uleb128 0xf
 7283 1e76 04       		.byte	0x4
 7284 1e77 561E0000 		.4byte	0x1e56
 7285 1e7b 13       		.uleb128 0x13
 7286 1e7c 2C000000 		.4byte	0x2c
 7287 1e80 941E0000 		.4byte	0x1e94
 7288 1e84 14       		.uleb128 0x14
 7289 1e85 05010000 		.4byte	0x105
 7290 1e89 14       		.uleb128 0x14
 7291 1e8a 381E0000 		.4byte	0x1e38
 7292 1e8e 14       		.uleb128 0x14
 7293 1e8f 2C000000 		.4byte	0x2c
 7294 1e93 00       		.byte	0
 7295 1e94 0F       		.uleb128 0xf
 7296 1e95 04       		.byte	0x4
 7297 1e96 7B1E0000 		.4byte	0x1e7b
 7298 1e9a 13       		.uleb128 0x13
 7299 1e9b CA090000 		.4byte	0x9ca
 7300 1e9f AE1E0000 		.4byte	0x1eae
 7301 1ea3 14       		.uleb128 0x14
 7302 1ea4 05010000 		.4byte	0x105
 7303 1ea8 14       		.uleb128 0x14
 7304 1ea9 37090000 		.4byte	0x937
 7305 1ead 00       		.byte	0
 7306 1eae 0F       		.uleb128 0xf
 7307 1eaf 04       		.byte	0x4
 7308 1eb0 9A1E0000 		.4byte	0x1e9a
 7309 1eb4 13       		.uleb128 0x13
 7310 1eb5 CA090000 		.4byte	0x9ca
 7311 1eb9 C31E0000 		.4byte	0x1ec3
 7312 1ebd 14       		.uleb128 0x14
 7313 1ebe 05010000 		.4byte	0x105
 7314 1ec2 00       		.byte	0
 7315 1ec3 0F       		.uleb128 0xf
 7316 1ec4 04       		.byte	0x4
 7317 1ec5 B41E0000 		.4byte	0x1eb4
 7318 1ec9 0A       		.uleb128 0xa
 7319 1eca 0C       		.byte	0xc
 7320 1ecb 1A       		.byte	0x1a
 7321 1ecc DA       		.byte	0xda
 7322 1ecd 09       		.byte	0x9
 7323 1ece 141F0000 		.4byte	0x1f14
 7324 1ed2 0B       		.uleb128 0xb
 7325 1ed3 65250000 		.4byte	.LASF392
 7326 1ed7 1A       		.byte	0x1a
 7327 1ed8 DB       		.byte	0xdb
 7328 1ed9 1A       		.byte	0x1a
ARM GAS  /tmp/ccDzFi87.s 			page 130


 7329 1eda 141F0000 		.4byte	0x1f14
 7330 1ede 00       		.byte	0
 7331 1edf 0B       		.uleb128 0xb
 7332 1ee0 300F0000 		.4byte	.LASF393
 7333 1ee4 1A       		.byte	0x1a
 7334 1ee5 DC       		.byte	0xdc
 7335 1ee6 1A       		.byte	0x1a
 7336 1ee7 1A1F0000 		.4byte	0x1f1a
 7337 1eeb 04       		.byte	0x4
 7338 1eec 0B       		.uleb128 0xb
 7339 1eed 8F040000 		.4byte	.LASF394
 7340 1ef1 1A       		.byte	0x1a
 7341 1ef2 DD       		.byte	0xdd
 7342 1ef3 19       		.byte	0x19
 7343 1ef4 37090000 		.4byte	0x937
 7344 1ef8 08       		.byte	0x8
 7345 1ef9 0B       		.uleb128 0xb
 7346 1efa CC1E0000 		.4byte	.LASF395
 7347 1efe 1A       		.byte	0x1a
 7348 1eff DF       		.byte	0xdf
 7349 1f00 19       		.byte	0x19
 7350 1f01 37090000 		.4byte	0x937
 7351 1f05 09       		.byte	0x9
 7352 1f06 0B       		.uleb128 0xb
 7353 1f07 AD030000 		.4byte	.LASF396
 7354 1f0b 1A       		.byte	0x1a
 7355 1f0c E0       		.byte	0xe0
 7356 1f0d 19       		.byte	0x19
 7357 1f0e 37090000 		.4byte	0x937
 7358 1f12 0A       		.byte	0xa
 7359 1f13 00       		.byte	0
 7360 1f14 0F       		.uleb128 0xf
 7361 1f15 04       		.byte	0x4
 7362 1f16 E5120000 		.4byte	0x12e5
 7363 1f1a 0F       		.uleb128 0xf
 7364 1f1b 04       		.byte	0x4
 7365 1f1c 60090000 		.4byte	0x960
 7366 1f20 03       		.uleb128 0x3
 7367 1f21 B3110000 		.4byte	.LASF397
 7368 1f25 1A       		.byte	0x1a
 7369 1f26 E1       		.byte	0xe1
 7370 1f27 03       		.byte	0x3
 7371 1f28 C91E0000 		.4byte	0x1ec9
 7372 1f2c 15       		.uleb128 0x15
 7373 1f2d 201F0000 		.4byte	0x1f20
 7374 1f31 08       		.uleb128 0x8
 7375 1f32 2C1F0000 		.4byte	0x1f2c
 7376 1f36 411F0000 		.4byte	0x1f41
 7377 1f3a 09       		.uleb128 0x9
 7378 1f3b 38000000 		.4byte	0x38
 7379 1f3f 0F       		.byte	0xf
 7380 1f40 00       		.byte	0
 7381 1f41 15       		.uleb128 0x15
 7382 1f42 311F0000 		.4byte	0x1f31
 7383 1f46 20       		.uleb128 0x20
 7384 1f47 5A1B0000 		.4byte	.LASF398
 7385 1f4b 1A       		.byte	0x1a
ARM GAS  /tmp/ccDzFi87.s 			page 131


 7386 1f4c BB01     		.2byte	0x1bb
 7387 1f4e 21       		.byte	0x21
 7388 1f4f 411F0000 		.4byte	0x1f41
 7389 1f53 13       		.uleb128 0x13
 7390 1f54 CA090000 		.4byte	0x9ca
 7391 1f58 6C1F0000 		.4byte	0x1f6c
 7392 1f5c 14       		.uleb128 0x14
 7393 1f5d 05010000 		.4byte	0x105
 7394 1f61 14       		.uleb128 0x14
 7395 1f62 37090000 		.4byte	0x937
 7396 1f66 14       		.uleb128 0x14
 7397 1f67 060A0000 		.4byte	0xa06
 7398 1f6b 00       		.byte	0
 7399 1f6c 0F       		.uleb128 0xf
 7400 1f6d 04       		.byte	0x4
 7401 1f6e 531F0000 		.4byte	0x1f53
 7402 1f72 13       		.uleb128 0x13
 7403 1f73 CA090000 		.4byte	0x9ca
 7404 1f77 861F0000 		.4byte	0x1f86
 7405 1f7b 14       		.uleb128 0x14
 7406 1f7c 05010000 		.4byte	0x105
 7407 1f80 14       		.uleb128 0x14
 7408 1f81 060A0000 		.4byte	0xa06
 7409 1f85 00       		.byte	0
 7410 1f86 0F       		.uleb128 0xf
 7411 1f87 04       		.byte	0x4
 7412 1f88 721F0000 		.4byte	0x1f72
 7413 1f8c 13       		.uleb128 0x13
 7414 1f8d 2C000000 		.4byte	0x2c
 7415 1f91 AA1F0000 		.4byte	0x1faa
 7416 1f95 14       		.uleb128 0x14
 7417 1f96 05010000 		.4byte	0x105
 7418 1f9a 14       		.uleb128 0x14
 7419 1f9b 6F1E0000 		.4byte	0x1e6f
 7420 1f9f 14       		.uleb128 0x14
 7421 1fa0 2C000000 		.4byte	0x2c
 7422 1fa4 14       		.uleb128 0x14
 7423 1fa5 060A0000 		.4byte	0xa06
 7424 1fa9 00       		.byte	0
 7425 1faa 0F       		.uleb128 0xf
 7426 1fab 04       		.byte	0x4
 7427 1fac 8C1F0000 		.4byte	0x1f8c
 7428 1fb0 13       		.uleb128 0x13
 7429 1fb1 2C000000 		.4byte	0x2c
 7430 1fb5 CE1F0000 		.4byte	0x1fce
 7431 1fb9 14       		.uleb128 0x14
 7432 1fba 05010000 		.4byte	0x105
 7433 1fbe 14       		.uleb128 0x14
 7434 1fbf 381E0000 		.4byte	0x1e38
 7435 1fc3 14       		.uleb128 0x14
 7436 1fc4 2C000000 		.4byte	0x2c
 7437 1fc8 14       		.uleb128 0x14
 7438 1fc9 060A0000 		.4byte	0xa06
 7439 1fcd 00       		.byte	0
 7440 1fce 0F       		.uleb128 0xf
 7441 1fcf 04       		.byte	0x4
 7442 1fd0 B01F0000 		.4byte	0x1fb0
ARM GAS  /tmp/ccDzFi87.s 			page 132


 7443 1fd4 27       		.uleb128 0x27
 7444 1fd5 07       		.byte	0x7
 7445 1fd6 01       		.byte	0x1
 7446 1fd7 61000000 		.4byte	0x61
 7447 1fdb 1B       		.byte	0x1b
 7448 1fdc 28       		.byte	0x28
 7449 1fdd 0E       		.byte	0xe
 7450 1fde 19200000 		.4byte	0x2019
 7451 1fe2 28       		.uleb128 0x28
 7452 1fe3 32010000 		.4byte	.LASF399
 7453 1fe7 00       		.byte	0
 7454 1fe8 28       		.uleb128 0x28
 7455 1fe9 520E0000 		.4byte	.LASF400
 7456 1fed 01       		.byte	0x1
 7457 1fee 28       		.uleb128 0x28
 7458 1fef EE0A0000 		.4byte	.LASF401
 7459 1ff3 02       		.byte	0x2
 7460 1ff4 28       		.uleb128 0x28
 7461 1ff5 D31C0000 		.4byte	.LASF402
 7462 1ff9 03       		.byte	0x3
 7463 1ffa 28       		.uleb128 0x28
 7464 1ffb 4C240000 		.4byte	.LASF403
 7465 1fff 04       		.byte	0x4
 7466 2000 28       		.uleb128 0x28
 7467 2001 C0070000 		.4byte	.LASF404
 7468 2005 05       		.byte	0x5
 7469 2006 28       		.uleb128 0x28
 7470 2007 961E0000 		.4byte	.LASF405
 7471 200b 06       		.byte	0x6
 7472 200c 28       		.uleb128 0x28
 7473 200d 46190000 		.4byte	.LASF406
 7474 2011 07       		.byte	0x7
 7475 2012 28       		.uleb128 0x28
 7476 2013 18240000 		.4byte	.LASF407
 7477 2017 08       		.byte	0x8
 7478 2018 00       		.byte	0
 7479 2019 03       		.uleb128 0x3
 7480 201a D3170000 		.4byte	.LASF408
 7481 201e 1B       		.byte	0x1b
 7482 201f 32       		.byte	0x32
 7483 2020 03       		.byte	0x3
 7484 2021 D41F0000 		.4byte	0x1fd4
 7485 2025 0A       		.uleb128 0xa
 7486 2026 08       		.byte	0x8
 7487 2027 1B       		.byte	0x1b
 7488 2028 37       		.byte	0x37
 7489 2029 09       		.byte	0x9
 7490 202a 49200000 		.4byte	0x2049
 7491 202e 0B       		.uleb128 0xb
 7492 202f 59070000 		.4byte	.LASF409
 7493 2033 1B       		.byte	0x1b
 7494 2034 38       		.byte	0x38
 7495 2035 11       		.byte	0x11
 7496 2036 54090000 		.4byte	0x954
 7497 203a 00       		.byte	0
 7498 203b 0B       		.uleb128 0xb
 7499 203c 121E0000 		.4byte	.LASF410
ARM GAS  /tmp/ccDzFi87.s 			page 133


 7500 2040 1B       		.byte	0x1b
 7501 2041 39       		.byte	0x39
 7502 2042 11       		.byte	0x11
 7503 2043 54090000 		.4byte	0x954
 7504 2047 04       		.byte	0x4
 7505 2048 00       		.byte	0
 7506 2049 03       		.uleb128 0x3
 7507 204a 18200000 		.4byte	.LASF411
 7508 204e 1B       		.byte	0x1b
 7509 204f 3A       		.byte	0x3a
 7510 2050 03       		.byte	0x3
 7511 2051 25200000 		.4byte	0x2025
 7512 2055 13       		.uleb128 0x13
 7513 2056 64200000 		.4byte	0x2064
 7514 205a 64200000 		.4byte	0x2064
 7515 205e 14       		.uleb128 0x14
 7516 205f 05010000 		.4byte	0x105
 7517 2063 00       		.byte	0
 7518 2064 04       		.uleb128 0x4
 7519 2065 01       		.byte	0x1
 7520 2066 02       		.byte	0x2
 7521 2067 E7000000 		.4byte	.LASF412
 7522 206b 0F       		.uleb128 0xf
 7523 206c 04       		.byte	0x4
 7524 206d 55200000 		.4byte	0x2055
 7525 2071 13       		.uleb128 0x13
 7526 2072 64200000 		.4byte	0x2064
 7527 2076 8F200000 		.4byte	0x208f
 7528 207a 14       		.uleb128 0x14
 7529 207b 05010000 		.4byte	0x105
 7530 207f 14       		.uleb128 0x14
 7531 2080 54090000 		.4byte	0x954
 7532 2084 14       		.uleb128 0x14
 7533 2085 381E0000 		.4byte	0x1e38
 7534 2089 14       		.uleb128 0x14
 7535 208a 54090000 		.4byte	0x954
 7536 208e 00       		.byte	0
 7537 208f 0F       		.uleb128 0xf
 7538 2090 04       		.byte	0x4
 7539 2091 71200000 		.4byte	0x2071
 7540 2095 13       		.uleb128 0x13
 7541 2096 64200000 		.4byte	0x2064
 7542 209a B3200000 		.4byte	0x20b3
 7543 209e 14       		.uleb128 0x14
 7544 209f 05010000 		.4byte	0x105
 7545 20a3 14       		.uleb128 0x14
 7546 20a4 54090000 		.4byte	0x954
 7547 20a8 14       		.uleb128 0x14
 7548 20a9 6F1E0000 		.4byte	0x1e6f
 7549 20ad 14       		.uleb128 0x14
 7550 20ae 54090000 		.4byte	0x954
 7551 20b2 00       		.byte	0
 7552 20b3 0F       		.uleb128 0xf
 7553 20b4 04       		.byte	0x4
 7554 20b5 95200000 		.4byte	0x2095
 7555 20b9 13       		.uleb128 0x13
 7556 20ba 64200000 		.4byte	0x2064
ARM GAS  /tmp/ccDzFi87.s 			page 134


 7557 20be CD200000 		.4byte	0x20cd
 7558 20c2 14       		.uleb128 0x14
 7559 20c3 05010000 		.4byte	0x105
 7560 20c7 14       		.uleb128 0x14
 7561 20c8 CD200000 		.4byte	0x20cd
 7562 20cc 00       		.byte	0
 7563 20cd 0F       		.uleb128 0xf
 7564 20ce 04       		.byte	0x4
 7565 20cf 49200000 		.4byte	0x2049
 7566 20d3 0F       		.uleb128 0xf
 7567 20d4 04       		.byte	0x4
 7568 20d5 B9200000 		.4byte	0x20b9
 7569 20d9 08       		.uleb128 0x8
 7570 20da 54090000 		.4byte	0x954
 7571 20de E9200000 		.4byte	0x20e9
 7572 20e2 09       		.uleb128 0x9
 7573 20e3 38000000 		.4byte	0x38
 7574 20e7 03       		.byte	0x3
 7575 20e8 00       		.byte	0
 7576 20e9 0A       		.uleb128 0xa
 7577 20ea 04       		.byte	0x4
 7578 20eb 1C       		.byte	0x1c
 7579 20ec B3       		.byte	0xb3
 7580 20ed 05       		.byte	0x5
 7581 20ee 0D210000 		.4byte	0x210d
 7582 20f2 0E       		.uleb128 0xe
 7583 20f3 73657400 		.ascii	"set\000"
 7584 20f7 1C       		.byte	0x1c
 7585 20f8 B4       		.byte	0xb4
 7586 20f9 19       		.byte	0x19
 7587 20fa 48090000 		.4byte	0x948
 7588 20fe 00       		.byte	0
 7589 20ff 0B       		.uleb128 0xb
 7590 2100 7D0C0000 		.4byte	.LASF413
 7591 2104 1C       		.byte	0x1c
 7592 2105 B5       		.byte	0xb5
 7593 2106 19       		.byte	0x19
 7594 2107 48090000 		.4byte	0x948
 7595 210b 02       		.byte	0x2
 7596 210c 00       		.byte	0
 7597 210d 06       		.uleb128 0x6
 7598 210e 04       		.byte	0x4
 7599 210f 1C       		.byte	0x1c
 7600 2110 B1       		.byte	0xb1
 7601 2111 0C       		.byte	0xc
 7602 2112 2B210000 		.4byte	0x212b
 7603 2116 29       		.uleb128 0x29
 7604 2117 5700     		.ascii	"W\000"
 7605 2119 1C       		.byte	0x1c
 7606 211a B2       		.byte	0xb2
 7607 211b 19       		.byte	0x19
 7608 211c 54090000 		.4byte	0x954
 7609 2120 29       		.uleb128 0x29
 7610 2121 4800     		.ascii	"H\000"
 7611 2123 1C       		.byte	0x1c
 7612 2124 B6       		.byte	0xb6
 7613 2125 07       		.byte	0x7
ARM GAS  /tmp/ccDzFi87.s 			page 135


 7614 2126 E9200000 		.4byte	0x20e9
 7615 212a 00       		.byte	0
 7616 212b 19       		.uleb128 0x19
 7617 212c 0D210000 		.4byte	0x210d
 7618 2130 0A       		.uleb128 0xa
 7619 2131 2C       		.byte	0x2c
 7620 2132 1C       		.byte	0x1c
 7621 2133 A9       		.byte	0xa9
 7622 2134 09       		.byte	0x9
 7623 2135 C9210000 		.4byte	0x21c9
 7624 2139 0B       		.uleb128 0xb
 7625 213a 0B1F0000 		.4byte	.LASF414
 7626 213e 1C       		.byte	0x1c
 7627 213f AB       		.byte	0xab
 7628 2140 19       		.byte	0x19
 7629 2141 60090000 		.4byte	0x960
 7630 2145 00       		.byte	0
 7631 2146 0B       		.uleb128 0xb
 7632 2147 19030000 		.4byte	.LASF415
 7633 214b 1C       		.byte	0x1c
 7634 214c AC       		.byte	0xac
 7635 214d 19       		.byte	0x19
 7636 214e 60090000 		.4byte	0x960
 7637 2152 04       		.byte	0x4
 7638 2153 0B       		.uleb128 0xb
 7639 2154 0D0E0000 		.4byte	.LASF416
 7640 2158 1C       		.byte	0x1c
 7641 2159 AD       		.byte	0xad
 7642 215a 19       		.byte	0x19
 7643 215b 60090000 		.4byte	0x960
 7644 215f 08       		.byte	0x8
 7645 2160 0B       		.uleb128 0xb
 7646 2161 3D1E0000 		.4byte	.LASF417
 7647 2165 1C       		.byte	0x1c
 7648 2166 AE       		.byte	0xae
 7649 2167 19       		.byte	0x19
 7650 2168 60090000 		.4byte	0x960
 7651 216c 0C       		.byte	0xc
 7652 216d 0E       		.uleb128 0xe
 7653 216e 49445200 		.ascii	"IDR\000"
 7654 2172 1C       		.byte	0x1c
 7655 2173 AF       		.byte	0xaf
 7656 2174 19       		.byte	0x19
 7657 2175 60090000 		.4byte	0x960
 7658 2179 10       		.byte	0x10
 7659 217a 0E       		.uleb128 0xe
 7660 217b 4F445200 		.ascii	"ODR\000"
 7661 217f 1C       		.byte	0x1c
 7662 2180 B0       		.byte	0xb0
 7663 2181 19       		.byte	0x19
 7664 2182 60090000 		.4byte	0x960
 7665 2186 14       		.byte	0x14
 7666 2187 0B       		.uleb128 0xb
 7667 2188 9C110000 		.4byte	.LASF418
 7668 218c 1C       		.byte	0x1c
 7669 218d B7       		.byte	0xb7
 7670 218e 05       		.byte	0x5
ARM GAS  /tmp/ccDzFi87.s 			page 136


 7671 218f 2B210000 		.4byte	0x212b
 7672 2193 18       		.byte	0x18
 7673 2194 0B       		.uleb128 0xb
 7674 2195 1B190000 		.4byte	.LASF419
 7675 2199 1C       		.byte	0x1c
 7676 219a B8       		.byte	0xb8
 7677 219b 19       		.byte	0x19
 7678 219c 60090000 		.4byte	0x960
 7679 21a0 1C       		.byte	0x1c
 7680 21a1 0B       		.uleb128 0xb
 7681 21a2 601C0000 		.4byte	.LASF420
 7682 21a6 1C       		.byte	0x1c
 7683 21a7 B9       		.byte	0xb9
 7684 21a8 19       		.byte	0x19
 7685 21a9 60090000 		.4byte	0x960
 7686 21ad 20       		.byte	0x20
 7687 21ae 0B       		.uleb128 0xb
 7688 21af 5B1C0000 		.4byte	.LASF421
 7689 21b3 1C       		.byte	0x1c
 7690 21b4 BA       		.byte	0xba
 7691 21b5 19       		.byte	0x19
 7692 21b6 60090000 		.4byte	0x960
 7693 21ba 24       		.byte	0x24
 7694 21bb 0E       		.uleb128 0xe
 7695 21bc 42525200 		.ascii	"BRR\000"
 7696 21c0 1C       		.byte	0x1c
 7697 21c1 BB       		.byte	0xbb
 7698 21c2 19       		.byte	0x19
 7699 21c3 60090000 		.4byte	0x960
 7700 21c7 28       		.byte	0x28
 7701 21c8 00       		.byte	0
 7702 21c9 03       		.uleb128 0x3
 7703 21ca 400F0000 		.4byte	.LASF422
 7704 21ce 1C       		.byte	0x1c
 7705 21cf BC       		.byte	0xbc
 7706 21d0 03       		.byte	0x3
 7707 21d1 30210000 		.4byte	0x2130
 7708 21d5 0A       		.uleb128 0xa
 7709 21d6 1C       		.byte	0x1c
 7710 21d7 1C       		.byte	0x1c
 7711 21d8 C1       		.byte	0xc1
 7712 21d9 09       		.byte	0x9
 7713 21da 3A220000 		.4byte	0x223a
 7714 21de 0B       		.uleb128 0xb
 7715 21df 5D220000 		.4byte	.LASF423
 7716 21e3 1C       		.byte	0x1c
 7717 21e4 C3       		.byte	0xc3
 7718 21e5 19       		.byte	0x19
 7719 21e6 54090000 		.4byte	0x954
 7720 21ea 00       		.byte	0
 7721 21eb 0B       		.uleb128 0xb
 7722 21ec FD020000 		.4byte	.LASF424
 7723 21f0 1C       		.byte	0x1c
 7724 21f1 C5       		.byte	0xc5
 7725 21f2 19       		.byte	0x19
 7726 21f3 54090000 		.4byte	0x954
 7727 21f7 04       		.byte	0x4
ARM GAS  /tmp/ccDzFi87.s 			page 137


 7728 21f8 0B       		.uleb128 0xb
 7729 21f9 10020000 		.4byte	.LASF425
 7730 21fd 1C       		.byte	0x1c
 7731 21fe C7       		.byte	0xc7
 7732 21ff 19       		.byte	0x19
 7733 2200 54090000 		.4byte	0x954
 7734 2204 08       		.byte	0x8
 7735 2205 0B       		.uleb128 0xb
 7736 2206 61210000 		.4byte	.LASF426
 7737 220a 1C       		.byte	0x1c
 7738 220b C9       		.byte	0xc9
 7739 220c 19       		.byte	0x19
 7740 220d 54090000 		.4byte	0x954
 7741 2211 0C       		.byte	0xc
 7742 2212 0E       		.uleb128 0xe
 7743 2213 6F647200 		.ascii	"odr\000"
 7744 2217 1C       		.byte	0x1c
 7745 2218 CB       		.byte	0xcb
 7746 2219 19       		.byte	0x19
 7747 221a 54090000 		.4byte	0x954
 7748 221e 10       		.byte	0x10
 7749 221f 0B       		.uleb128 0xb
 7750 2220 A21E0000 		.4byte	.LASF427
 7751 2224 1C       		.byte	0x1c
 7752 2225 CD       		.byte	0xcd
 7753 2226 19       		.byte	0x19
 7754 2227 54090000 		.4byte	0x954
 7755 222b 14       		.byte	0x14
 7756 222c 0B       		.uleb128 0xb
 7757 222d 54000000 		.4byte	.LASF428
 7758 2231 1C       		.byte	0x1c
 7759 2232 CF       		.byte	0xcf
 7760 2233 19       		.byte	0x19
 7761 2234 54090000 		.4byte	0x954
 7762 2238 18       		.byte	0x18
 7763 2239 00       		.byte	0
 7764 223a 03       		.uleb128 0x3
 7765 223b 3D1B0000 		.4byte	.LASF429
 7766 223f 1C       		.byte	0x1c
 7767 2240 D0       		.byte	0xd0
 7768 2241 03       		.byte	0x3
 7769 2242 D5210000 		.4byte	0x21d5
 7770 2246 0A       		.uleb128 0xa
 7771 2247 FC       		.byte	0xfc
 7772 2248 1C       		.byte	0x1c
 7773 2249 D9       		.byte	0xd9
 7774 224a 09       		.byte	0x9
 7775 224b C5220000 		.4byte	0x22c5
 7776 224f 0B       		.uleb128 0xb
 7777 2250 E30F0000 		.4byte	.LASF430
 7778 2254 1C       		.byte	0x1c
 7779 2255 DC       		.byte	0xdc
 7780 2256 19       		.byte	0x19
 7781 2257 3A220000 		.4byte	0x223a
 7782 225b 00       		.byte	0
 7783 225c 0B       		.uleb128 0xb
 7784 225d E6020000 		.4byte	.LASF431
ARM GAS  /tmp/ccDzFi87.s 			page 138


 7785 2261 1C       		.byte	0x1c
 7786 2262 E0       		.byte	0xe0
 7787 2263 19       		.byte	0x19
 7788 2264 3A220000 		.4byte	0x223a
 7789 2268 1C       		.byte	0x1c
 7790 2269 0B       		.uleb128 0xb
 7791 226a AD010000 		.4byte	.LASF432
 7792 226e 1C       		.byte	0x1c
 7793 226f E4       		.byte	0xe4
 7794 2270 19       		.byte	0x19
 7795 2271 3A220000 		.4byte	0x223a
 7796 2275 38       		.byte	0x38
 7797 2276 0B       		.uleb128 0xb
 7798 2277 790D0000 		.4byte	.LASF433
 7799 227b 1C       		.byte	0x1c
 7800 227c E8       		.byte	0xe8
 7801 227d 19       		.byte	0x19
 7802 227e 3A220000 		.4byte	0x223a
 7803 2282 54       		.byte	0x54
 7804 2283 0B       		.uleb128 0xb
 7805 2284 5B1A0000 		.4byte	.LASF434
 7806 2288 1C       		.byte	0x1c
 7807 2289 EC       		.byte	0xec
 7808 228a 19       		.byte	0x19
 7809 228b 3A220000 		.4byte	0x223a
 7810 228f 70       		.byte	0x70
 7811 2290 0B       		.uleb128 0xb
 7812 2291 3E260000 		.4byte	.LASF435
 7813 2295 1C       		.byte	0x1c
 7814 2296 F0       		.byte	0xf0
 7815 2297 19       		.byte	0x19
 7816 2298 3A220000 		.4byte	0x223a
 7817 229c 8C       		.byte	0x8c
 7818 229d 0B       		.uleb128 0xb
 7819 229e 7A0B0000 		.4byte	.LASF436
 7820 22a2 1C       		.byte	0x1c
 7821 22a3 F4       		.byte	0xf4
 7822 22a4 19       		.byte	0x19
 7823 22a5 3A220000 		.4byte	0x223a
 7824 22a9 A8       		.byte	0xa8
 7825 22aa 0B       		.uleb128 0xb
 7826 22ab 89180000 		.4byte	.LASF437
 7827 22af 1C       		.byte	0x1c
 7828 22b0 F8       		.byte	0xf8
 7829 22b1 19       		.byte	0x19
 7830 22b2 3A220000 		.4byte	0x223a
 7831 22b6 C4       		.byte	0xc4
 7832 22b7 0B       		.uleb128 0xb
 7833 22b8 24240000 		.4byte	.LASF438
 7834 22bc 1C       		.byte	0x1c
 7835 22bd FC       		.byte	0xfc
 7836 22be 19       		.byte	0x19
 7837 22bf 3A220000 		.4byte	0x223a
 7838 22c3 E0       		.byte	0xe0
 7839 22c4 00       		.byte	0
 7840 22c5 03       		.uleb128 0x3
 7841 22c6 D10A0000 		.4byte	.LASF439
ARM GAS  /tmp/ccDzFi87.s 			page 139


 7842 22ca 1C       		.byte	0x1c
 7843 22cb FE       		.byte	0xfe
 7844 22cc 03       		.byte	0x3
 7845 22cd 46220000 		.4byte	0x2246
 7846 22d1 15       		.uleb128 0x15
 7847 22d2 C5220000 		.4byte	0x22c5
 7848 22d6 05       		.uleb128 0x5
 7849 22d7 90180000 		.4byte	.LASF440
 7850 22db 1C       		.byte	0x1c
 7851 22dc 1B01     		.2byte	0x11b
 7852 22de 18       		.byte	0x18
 7853 22df E3220000 		.4byte	0x22e3
 7854 22e3 0F       		.uleb128 0xf
 7855 22e4 04       		.byte	0x4
 7856 22e5 C9210000 		.4byte	0x21c9
 7857 22e9 20       		.uleb128 0x20
 7858 22ea AD1F0000 		.4byte	.LASF441
 7859 22ee 1C       		.byte	0x1c
 7860 22ef DA01     		.2byte	0x1da
 7861 22f1 18       		.byte	0x18
 7862 22f2 D1220000 		.4byte	0x22d1
 7863 22f6 27       		.uleb128 0x27
 7864 22f7 07       		.byte	0x7
 7865 22f8 01       		.byte	0x1
 7866 22f9 61000000 		.4byte	0x61
 7867 22fd 1D       		.byte	0x1d
 7868 22fe 46       		.byte	0x46
 7869 22ff 0E       		.byte	0xe
 7870 2300 29230000 		.4byte	0x2329
 7871 2304 28       		.uleb128 0x28
 7872 2305 6E080000 		.4byte	.LASF442
 7873 2309 00       		.byte	0
 7874 230a 28       		.uleb128 0x28
 7875 230b B1150000 		.4byte	.LASF443
 7876 230f 01       		.byte	0x1
 7877 2310 28       		.uleb128 0x28
 7878 2311 E6210000 		.4byte	.LASF444
 7879 2315 02       		.byte	0x2
 7880 2316 28       		.uleb128 0x28
 7881 2317 70110000 		.4byte	.LASF445
 7882 231b 03       		.byte	0x3
 7883 231c 28       		.uleb128 0x28
 7884 231d BA060000 		.4byte	.LASF446
 7885 2321 04       		.byte	0x4
 7886 2322 28       		.uleb128 0x28
 7887 2323 40110000 		.4byte	.LASF447
 7888 2327 05       		.byte	0x5
 7889 2328 00       		.byte	0
 7890 2329 03       		.uleb128 0x3
 7891 232a 72040000 		.4byte	.LASF448
 7892 232e 1D       		.byte	0x1d
 7893 232f 4D       		.byte	0x4d
 7894 2330 03       		.byte	0x3
 7895 2331 F6220000 		.4byte	0x22f6
 7896 2335 05       		.uleb128 0x5
 7897 2336 5C100000 		.4byte	.LASF449
 7898 233a 1E       		.byte	0x1e
ARM GAS  /tmp/ccDzFi87.s 			page 140


 7899 233b 2701     		.2byte	0x127
 7900 233d 12       		.byte	0x12
 7901 233e 48090000 		.4byte	0x948
 7902 2342 05       		.uleb128 0x5
 7903 2343 FF1C0000 		.4byte	.LASF450
 7904 2347 1E       		.byte	0x1e
 7905 2348 2C01     		.2byte	0x12c
 7906 234a 12       		.byte	0x12
 7907 234b 48090000 		.4byte	0x948
 7908 234f 2A       		.uleb128 0x2a
 7909 2350 07       		.byte	0x7
 7910 2351 01       		.byte	0x1
 7911 2352 61000000 		.4byte	0x61
 7912 2356 1E       		.byte	0x1e
 7913 2357 3301     		.2byte	0x133
 7914 2359 0E       		.byte	0xe
 7915 235a 6B230000 		.4byte	0x236b
 7916 235e 28       		.uleb128 0x28
 7917 235f D90D0000 		.4byte	.LASF451
 7918 2363 00       		.byte	0
 7919 2364 28       		.uleb128 0x28
 7920 2365 28020000 		.4byte	.LASF452
 7921 2369 01       		.byte	0x1
 7922 236a 00       		.byte	0
 7923 236b 05       		.uleb128 0x5
 7924 236c 2D230000 		.4byte	.LASF453
 7925 2370 1E       		.byte	0x1e
 7926 2371 3601     		.2byte	0x136
 7927 2373 03       		.byte	0x3
 7928 2374 4F230000 		.4byte	0x234f
 7929 2378 05       		.uleb128 0x5
 7930 2379 9A0E0000 		.4byte	.LASF454
 7931 237d 1E       		.byte	0x1e
 7932 237e 3B01     		.2byte	0x13b
 7933 2380 1A       		.byte	0x1a
 7934 2381 85230000 		.4byte	0x2385
 7935 2385 1A       		.uleb128 0x1a
 7936 2386 9A0E0000 		.4byte	.LASF454
 7937 238a 38       		.byte	0x38
 7938 238b 1E       		.byte	0x1e
 7939 238c 9F01     		.2byte	0x19f
 7940 238e 08       		.byte	0x8
 7941 238f 20240000 		.4byte	0x2420
 7942 2393 17       		.uleb128 0x17
 7943 2394 92160000 		.4byte	.LASF455
 7944 2398 1E       		.byte	0x1e
 7945 2399 A301     		.2byte	0x1a3
 7946 239b 1D       		.byte	0x1d
 7947 239c 29230000 		.4byte	0x2329
 7948 23a0 00       		.byte	0
 7949 23a1 17       		.uleb128 0x17
 7950 23a2 A51C0000 		.4byte	.LASF456
 7951 23a6 1E       		.byte	0x1e
 7952 23a7 A701     		.2byte	0x1a7
 7953 23a9 1E       		.byte	0x1e
 7954 23aa 59250000 		.4byte	0x2559
 7955 23ae 04       		.byte	0x4
ARM GAS  /tmp/ccDzFi87.s 			page 141


 7956 23af 17       		.uleb128 0x17
 7957 23b0 C3010000 		.4byte	.LASF457
 7958 23b4 1E       		.byte	0x1e
 7959 23b5 AB01     		.2byte	0x1ab
 7960 23b7 1E       		.byte	0x1e
 7961 23b8 4E240000 		.4byte	0x244e
 7962 23bc 08       		.byte	0x8
 7963 23bd 17       		.uleb128 0x17
 7964 23be 82190000 		.4byte	.LASF458
 7965 23c2 1E       		.byte	0x1e
 7966 23c3 AF01     		.2byte	0x1af
 7967 23c5 1D       		.byte	0x1d
 7968 23c6 2C000000 		.4byte	0x2c
 7969 23ca 0C       		.byte	0xc
 7970 23cb 17       		.uleb128 0x17
 7971 23cc C01F0000 		.4byte	.LASF459
 7972 23d0 1E       		.byte	0x1e
 7973 23d1 B301     		.2byte	0x1b3
 7974 23d3 1E       		.byte	0x1e
 7975 23d4 5F250000 		.4byte	0x255f
 7976 23d8 10       		.byte	0x10
 7977 23d9 17       		.uleb128 0x17
 7978 23da 30070000 		.4byte	.LASF460
 7979 23de 1E       		.byte	0x1e
 7980 23df B801     		.2byte	0x1b8
 7981 23e1 1D       		.byte	0x1d
 7982 23e2 580B0000 		.4byte	0xb58
 7983 23e6 14       		.byte	0x14
 7984 23e7 17       		.uleb128 0x17
 7985 23e8 4E0C0000 		.4byte	.LASF461
 7986 23ec 1E       		.byte	0x1e
 7987 23ed BE01     		.2byte	0x1be
 7988 23ef 1D       		.byte	0x1d
 7989 23f0 F91C0000 		.4byte	0x1cf9
 7990 23f4 18       		.byte	0x18
 7991 23f5 21       		.uleb128 0x21
 7992 23f6 61646300 		.ascii	"adc\000"
 7993 23fa 1E       		.byte	0x1e
 7994 23fb C701     		.2byte	0x1c7
 7995 23fd 1E       		.byte	0x1e
 7996 23fe 65250000 		.4byte	0x2565
 7997 2402 2C       		.byte	0x2c
 7998 2403 17       		.uleb128 0x17
 7999 2404 900A0000 		.4byte	.LASF462
 8000 2408 1E       		.byte	0x1e
 8001 2409 CB01     		.2byte	0x1cb
 8002 240b 1E       		.byte	0x1e
 8003 240c 6B250000 		.4byte	0x256b
 8004 2410 30       		.byte	0x30
 8005 2411 17       		.uleb128 0x17
 8006 2412 B2180000 		.4byte	.LASF463
 8007 2416 1E       		.byte	0x1e
 8008 2417 CF01     		.2byte	0x1cf
 8009 2419 1D       		.byte	0x1d
 8010 241a 54090000 		.4byte	0x954
 8011 241e 34       		.byte	0x34
 8012 241f 00       		.byte	0
ARM GAS  /tmp/ccDzFi87.s 			page 142


 8013 2420 05       		.uleb128 0x5
 8014 2421 F41B0000 		.4byte	.LASF464
 8015 2425 1E       		.byte	0x1e
 8016 2426 4501     		.2byte	0x145
 8017 2428 10       		.byte	0x10
 8018 2429 2D240000 		.4byte	0x242d
 8019 242d 0F       		.uleb128 0xf
 8020 242e 04       		.byte	0x4
 8021 242f 33240000 		.4byte	0x2433
 8022 2433 1F       		.uleb128 0x1f
 8023 2434 48240000 		.4byte	0x2448
 8024 2438 14       		.uleb128 0x14
 8025 2439 48240000 		.4byte	0x2448
 8026 243d 14       		.uleb128 0x14
 8027 243e 4E240000 		.4byte	0x244e
 8028 2442 14       		.uleb128 0x14
 8029 2443 2C000000 		.4byte	0x2c
 8030 2447 00       		.byte	0
 8031 2448 0F       		.uleb128 0xf
 8032 2449 04       		.byte	0x4
 8033 244a 78230000 		.4byte	0x2378
 8034 244e 0F       		.uleb128 0xf
 8035 244f 04       		.byte	0x4
 8036 2450 35230000 		.4byte	0x2335
 8037 2454 05       		.uleb128 0x5
 8038 2455 61160000 		.4byte	.LASF465
 8039 2459 1E       		.byte	0x1e
 8040 245a 4E01     		.2byte	0x14e
 8041 245c 10       		.byte	0x10
 8042 245d 61240000 		.4byte	0x2461
 8043 2461 0F       		.uleb128 0xf
 8044 2462 04       		.byte	0x4
 8045 2463 67240000 		.4byte	0x2467
 8046 2467 1F       		.uleb128 0x1f
 8047 2468 77240000 		.4byte	0x2477
 8048 246c 14       		.uleb128 0x14
 8049 246d 48240000 		.4byte	0x2448
 8050 2471 14       		.uleb128 0x14
 8051 2472 6B230000 		.4byte	0x236b
 8052 2476 00       		.byte	0
 8053 2477 1B       		.uleb128 0x1b
 8054 2478 28       		.byte	0x28
 8055 2479 1E       		.byte	0x1e
 8056 247a 5801     		.2byte	0x158
 8057 247c 09       		.byte	0x9
 8058 247d 1C250000 		.4byte	0x251c
 8059 2481 17       		.uleb128 0x17
 8060 2482 49220000 		.4byte	.LASF466
 8061 2486 1E       		.byte	0x1e
 8062 2487 5C01     		.2byte	0x15c
 8063 2489 1D       		.byte	0x1d
 8064 248a 64200000 		.4byte	0x2064
 8065 248e 00       		.byte	0
 8066 248f 17       		.uleb128 0x17
 8067 2490 A50F0000 		.4byte	.LASF467
 8068 2494 1E       		.byte	0x1e
 8069 2495 6001     		.2byte	0x160
ARM GAS  /tmp/ccDzFi87.s 			page 143


 8070 2497 1D       		.byte	0x1d
 8071 2498 42230000 		.4byte	0x2342
 8072 249c 02       		.byte	0x2
 8073 249d 17       		.uleb128 0x17
 8074 249e 51090000 		.4byte	.LASF468
 8075 24a2 1E       		.byte	0x1e
 8076 24a3 6401     		.2byte	0x164
 8077 24a5 1D       		.byte	0x1d
 8078 24a6 20240000 		.4byte	0x2420
 8079 24aa 04       		.byte	0x4
 8080 24ab 17       		.uleb128 0x17
 8081 24ac 43240000 		.4byte	.LASF469
 8082 24b0 1E       		.byte	0x1e
 8083 24b1 6801     		.2byte	0x168
 8084 24b3 1D       		.byte	0x1d
 8085 24b4 54240000 		.4byte	0x2454
 8086 24b8 08       		.byte	0x8
 8087 24b9 21       		.uleb128 0x21
 8088 24ba 63723100 		.ascii	"cr1\000"
 8089 24be 1E       		.byte	0x1e
 8090 24bf 6F01     		.2byte	0x16f
 8091 24c1 1D       		.byte	0x1d
 8092 24c2 54090000 		.4byte	0x954
 8093 24c6 0C       		.byte	0xc
 8094 24c7 21       		.uleb128 0x21
 8095 24c8 63723200 		.ascii	"cr2\000"
 8096 24cc 1E       		.byte	0x1e
 8097 24cd 7601     		.2byte	0x176
 8098 24cf 1D       		.byte	0x1d
 8099 24d0 54090000 		.4byte	0x954
 8100 24d4 10       		.byte	0x10
 8101 24d5 17       		.uleb128 0x17
 8102 24d6 B7170000 		.4byte	.LASF470
 8103 24da 1E       		.byte	0x1e
 8104 24db 7C01     		.2byte	0x17c
 8105 24dd 1D       		.byte	0x1d
 8106 24de 54090000 		.4byte	0x954
 8107 24e2 14       		.byte	0x14
 8108 24e3 17       		.uleb128 0x17
 8109 24e4 BD170000 		.4byte	.LASF471
 8110 24e8 1E       		.byte	0x1e
 8111 24e9 8201     		.2byte	0x182
 8112 24eb 1D       		.byte	0x1d
 8113 24ec 54090000 		.4byte	0x954
 8114 24f0 18       		.byte	0x18
 8115 24f1 17       		.uleb128 0x17
 8116 24f2 2D010000 		.4byte	.LASF472
 8117 24f6 1E       		.byte	0x1e
 8118 24f7 8701     		.2byte	0x187
 8119 24f9 1D       		.byte	0x1d
 8120 24fa 54090000 		.4byte	0x954
 8121 24fe 1C       		.byte	0x1c
 8122 24ff 17       		.uleb128 0x17
 8123 2500 31250000 		.4byte	.LASF473
 8124 2504 1E       		.byte	0x1e
 8125 2505 8C01     		.2byte	0x18c
 8126 2507 1D       		.byte	0x1d
ARM GAS  /tmp/ccDzFi87.s 			page 144


 8127 2508 54090000 		.4byte	0x954
 8128 250c 20       		.byte	0x20
 8129 250d 17       		.uleb128 0x17
 8130 250e 36250000 		.4byte	.LASF474
 8131 2512 1E       		.byte	0x1e
 8132 2513 9101     		.2byte	0x191
 8133 2515 1D       		.byte	0x1d
 8134 2516 54090000 		.4byte	0x954
 8135 251a 24       		.byte	0x24
 8136 251b 00       		.byte	0
 8137 251c 05       		.uleb128 0x5
 8138 251d 96050000 		.4byte	.LASF475
 8139 2521 1E       		.byte	0x1e
 8140 2522 9201     		.2byte	0x192
 8141 2524 03       		.byte	0x3
 8142 2525 77240000 		.4byte	0x2477
 8143 2529 15       		.uleb128 0x15
 8144 252a 1C250000 		.4byte	0x251c
 8145 252e 1B       		.uleb128 0x1b
 8146 252f 04       		.byte	0x4
 8147 2530 1E       		.byte	0x1e
 8148 2531 9801     		.2byte	0x198
 8149 2533 09       		.byte	0x9
 8150 2534 47250000 		.4byte	0x2547
 8151 2538 17       		.uleb128 0x17
 8152 2539 6C250000 		.4byte	.LASF476
 8153 253d 1E       		.byte	0x1e
 8154 253e 9901     		.2byte	0x199
 8155 2540 1D       		.byte	0x1d
 8156 2541 54090000 		.4byte	0x954
 8157 2545 00       		.byte	0
 8158 2546 00       		.byte	0
 8159 2547 05       		.uleb128 0x5
 8160 2548 B20E0000 		.4byte	.LASF477
 8161 254c 1E       		.byte	0x1e
 8162 254d 9A01     		.2byte	0x19a
 8163 254f 03       		.byte	0x3
 8164 2550 2E250000 		.4byte	0x252e
 8165 2554 15       		.uleb128 0x15
 8166 2555 47250000 		.4byte	0x2547
 8167 2559 0F       		.uleb128 0xf
 8168 255a 04       		.byte	0x4
 8169 255b 54250000 		.4byte	0x2554
 8170 255f 0F       		.uleb128 0xf
 8171 2560 04       		.byte	0x4
 8172 2561 29250000 		.4byte	0x2529
 8173 2565 0F       		.uleb128 0xf
 8174 2566 04       		.byte	0x4
 8175 2567 2F0F0000 		.4byte	0xf2f
 8176 256b 0F       		.uleb128 0xf
 8177 256c 04       		.byte	0x4
 8178 256d 2C1F0000 		.4byte	0x1f2c
 8179 2571 20       		.uleb128 0x20
 8180 2572 9B180000 		.4byte	.LASF478
 8181 2576 1E       		.byte	0x1e
 8182 2577 1402     		.2byte	0x214
 8183 2579 12       		.byte	0x12
ARM GAS  /tmp/ccDzFi87.s 			page 145


 8184 257a 78230000 		.4byte	0x2378
 8185 257e 20       		.uleb128 0x20
 8186 257f A1180000 		.4byte	.LASF479
 8187 2583 1E       		.byte	0x1e
 8188 2584 1802     		.2byte	0x218
 8189 2586 12       		.byte	0x12
 8190 2587 78230000 		.4byte	0x2378
 8191 258b 20       		.uleb128 0x20
 8192 258c A7180000 		.4byte	.LASF480
 8193 2590 1E       		.byte	0x1e
 8194 2591 1C02     		.2byte	0x21c
 8195 2593 12       		.byte	0x12
 8196 2594 78230000 		.4byte	0x2378
 8197 2598 27       		.uleb128 0x27
 8198 2599 07       		.byte	0x7
 8199 259a 01       		.byte	0x1
 8200 259b 61000000 		.4byte	0x61
 8201 259f 1F       		.byte	0x1f
 8202 25a0 5F       		.byte	0x5f
 8203 25a1 0E       		.byte	0xe
 8204 25a2 C5250000 		.4byte	0x25c5
 8205 25a6 28       		.uleb128 0x28
 8206 25a7 F50C0000 		.4byte	.LASF481
 8207 25ab 00       		.byte	0
 8208 25ac 28       		.uleb128 0x28
 8209 25ad BF000000 		.4byte	.LASF482
 8210 25b1 01       		.byte	0x1
 8211 25b2 28       		.uleb128 0x28
 8212 25b3 38000000 		.4byte	.LASF483
 8213 25b7 02       		.byte	0x2
 8214 25b8 28       		.uleb128 0x28
 8215 25b9 A0190000 		.4byte	.LASF484
 8216 25bd 03       		.byte	0x3
 8217 25be 28       		.uleb128 0x28
 8218 25bf F0090000 		.4byte	.LASF485
 8219 25c3 04       		.byte	0x4
 8220 25c4 00       		.byte	0
 8221 25c5 03       		.uleb128 0x3
 8222 25c6 00060000 		.4byte	.LASF486
 8223 25ca 1F       		.byte	0x1f
 8224 25cb 65       		.byte	0x65
 8225 25cc 03       		.byte	0x3
 8226 25cd 98250000 		.4byte	0x2598
 8227 25d1 08       		.uleb128 0x8
 8228 25d2 37090000 		.4byte	0x937
 8229 25d6 E1250000 		.4byte	0x25e1
 8230 25da 09       		.uleb128 0x9
 8231 25db 38000000 		.4byte	0x38
 8232 25df 07       		.byte	0x7
 8233 25e0 00       		.byte	0
 8234 25e1 0A       		.uleb128 0xa
 8235 25e2 08       		.byte	0x8
 8236 25e3 20       		.byte	0x20
 8237 25e4 F4       		.byte	0xf4
 8238 25e5 09       		.byte	0x9
 8239 25e6 06260000 		.4byte	0x2606
 8240 25ea 0E       		.uleb128 0xe
ARM GAS  /tmp/ccDzFi87.s 			page 146


 8241 25eb 6D637200 		.ascii	"mcr\000"
 8242 25ef 20       		.byte	0x20
 8243 25f0 FA       		.byte	0xfa
 8244 25f1 1D       		.byte	0x1d
 8245 25f2 54090000 		.4byte	0x954
 8246 25f6 00       		.byte	0
 8247 25f7 21       		.uleb128 0x21
 8248 25f8 62747200 		.ascii	"btr\000"
 8249 25fc 20       		.byte	0x20
 8250 25fd 0001     		.2byte	0x100
 8251 25ff 1D       		.byte	0x1d
 8252 2600 54090000 		.4byte	0x954
 8253 2604 04       		.byte	0x4
 8254 2605 00       		.byte	0
 8255 2606 05       		.uleb128 0x5
 8256 2607 511A0000 		.4byte	.LASF487
 8257 260b 20       		.byte	0x20
 8258 260c 0101     		.2byte	0x101
 8259 260e 03       		.byte	0x3
 8260 260f E1250000 		.4byte	0x25e1
 8261 2613 15       		.uleb128 0x15
 8262 2614 06260000 		.4byte	0x2606
 8263 2618 1B       		.uleb128 0x1b
 8264 2619 30       		.byte	0x30
 8265 261a 20       		.byte	0x20
 8266 261b 0601     		.2byte	0x106
 8267 261d 09       		.byte	0x9
 8268 261e AF260000 		.4byte	0x26af
 8269 2622 17       		.uleb128 0x17
 8270 2623 92160000 		.4byte	.LASF455
 8271 2627 20       		.byte	0x20
 8272 2628 0A01     		.2byte	0x10a
 8273 262a 1D       		.byte	0x1d
 8274 262b C5250000 		.4byte	0x25c5
 8275 262f 00       		.byte	0
 8276 2630 17       		.uleb128 0x17
 8277 2631 A51C0000 		.4byte	.LASF456
 8278 2635 20       		.byte	0x20
 8279 2636 0E01     		.2byte	0x10e
 8280 2638 1E       		.byte	0x1e
 8281 2639 AF260000 		.4byte	0x26af
 8282 263d 04       		.byte	0x4
 8283 263e 17       		.uleb128 0x17
 8284 263f 86090000 		.4byte	.LASF488
 8285 2643 20       		.byte	0x20
 8286 2644 1201     		.2byte	0x112
 8287 2646 1D       		.byte	0x1d
 8288 2647 910B0000 		.4byte	0xb91
 8289 264b 08       		.byte	0x8
 8290 264c 17       		.uleb128 0x17
 8291 264d 941F0000 		.4byte	.LASF489
 8292 2651 20       		.byte	0x20
 8293 2652 1601     		.2byte	0x116
 8294 2654 1D       		.byte	0x1d
 8295 2655 910B0000 		.4byte	0xb91
 8296 2659 10       		.byte	0x10
 8297 265a 17       		.uleb128 0x17
ARM GAS  /tmp/ccDzFi87.s 			page 147


 8298 265b 2D1A0000 		.4byte	.LASF490
 8299 265f 20       		.byte	0x20
 8300 2660 2301     		.2byte	0x123
 8301 2662 1D       		.byte	0x1d
 8302 2663 871D0000 		.4byte	0x1d87
 8303 2667 18       		.byte	0x18
 8304 2668 17       		.uleb128 0x17
 8305 2669 590B0000 		.4byte	.LASF491
 8306 266d 20       		.byte	0x20
 8307 266e 2A01     		.2byte	0x12a
 8308 2670 1D       		.byte	0x1d
 8309 2671 871D0000 		.4byte	0x1d87
 8310 2675 1C       		.byte	0x1c
 8311 2676 17       		.uleb128 0x17
 8312 2677 990F0000 		.4byte	.LASF492
 8313 267b 20       		.byte	0x20
 8314 267c 3001     		.2byte	0x130
 8315 267e 1D       		.byte	0x1d
 8316 267f 871D0000 		.4byte	0x1d87
 8317 2683 20       		.byte	0x20
 8318 2684 17       		.uleb128 0x17
 8319 2685 8A030000 		.4byte	.LASF493
 8320 2689 20       		.byte	0x20
 8321 268a 3501     		.2byte	0x135
 8322 268c 1D       		.byte	0x1d
 8323 268d 871D0000 		.4byte	0x1d87
 8324 2691 24       		.byte	0x24
 8325 2692 17       		.uleb128 0x17
 8326 2693 3C090000 		.4byte	.LASF494
 8327 2697 20       		.byte	0x20
 8328 2698 3901     		.2byte	0x139
 8329 269a 1D       		.byte	0x1d
 8330 269b 871D0000 		.4byte	0x1d87
 8331 269f 28       		.byte	0x28
 8332 26a0 21       		.uleb128 0x21
 8333 26a1 63616E00 		.ascii	"can\000"
 8334 26a5 20       		.byte	0x20
 8335 26a6 3F01     		.2byte	0x13f
 8336 26a8 1E       		.byte	0x1e
 8337 26a9 B5260000 		.4byte	0x26b5
 8338 26ad 2C       		.byte	0x2c
 8339 26ae 00       		.byte	0
 8340 26af 0F       		.uleb128 0xf
 8341 26b0 04       		.byte	0x4
 8342 26b1 13260000 		.4byte	0x2613
 8343 26b5 0F       		.uleb128 0xf
 8344 26b6 04       		.byte	0x4
 8345 26b7 A0110000 		.4byte	0x11a0
 8346 26bb 05       		.uleb128 0x5
 8347 26bc E0030000 		.4byte	.LASF495
 8348 26c0 20       		.byte	0x20
 8349 26c1 4001     		.2byte	0x140
 8350 26c3 03       		.byte	0x3
 8351 26c4 18260000 		.4byte	0x2618
 8352 26c8 20       		.uleb128 0x20
 8353 26c9 11210000 		.4byte	.LASF496
 8354 26cd 20       		.byte	0x20
ARM GAS  /tmp/ccDzFi87.s 			page 148


 8355 26ce 4B01     		.2byte	0x14b
 8356 26d0 12       		.byte	0x12
 8357 26d1 BB260000 		.4byte	0x26bb
 8358 26d5 27       		.uleb128 0x27
 8359 26d6 07       		.byte	0x7
 8360 26d7 01       		.byte	0x1
 8361 26d8 61000000 		.4byte	0x61
 8362 26dc 21       		.byte	0x21
 8363 26dd 46       		.byte	0x46
 8364 26de 0E       		.byte	0xe
 8365 26df 08270000 		.4byte	0x2708
 8366 26e3 28       		.uleb128 0x28
 8367 26e4 F41C0000 		.4byte	.LASF497
 8368 26e8 00       		.byte	0
 8369 26e9 28       		.uleb128 0x28
 8370 26ea 80220000 		.4byte	.LASF498
 8371 26ee 01       		.byte	0x1
 8372 26ef 28       		.uleb128 0x28
 8373 26f0 150E0000 		.4byte	.LASF499
 8374 26f4 02       		.byte	0x2
 8375 26f5 28       		.uleb128 0x28
 8376 26f6 87160000 		.4byte	.LASF500
 8377 26fa 03       		.byte	0x3
 8378 26fb 28       		.uleb128 0x28
 8379 26fc 801C0000 		.4byte	.LASF501
 8380 2700 04       		.byte	0x4
 8381 2701 28       		.uleb128 0x28
 8382 2702 F70E0000 		.4byte	.LASF502
 8383 2706 05       		.byte	0x5
 8384 2707 00       		.byte	0
 8385 2708 03       		.uleb128 0x3
 8386 2709 E6190000 		.4byte	.LASF503
 8387 270d 21       		.byte	0x21
 8388 270e 4D       		.byte	0x4d
 8389 270f 03       		.byte	0x3
 8390 2710 D5260000 		.4byte	0x26d5
 8391 2714 0A       		.uleb128 0xa
 8392 2715 1C       		.byte	0x1c
 8393 2716 22       		.byte	0x22
 8394 2717 F9       		.byte	0xf9
 8395 2718 09       		.byte	0x9
 8396 2719 7F270000 		.4byte	0x277f
 8397 271d 0E       		.uleb128 0xe
 8398 271e 64616300 		.ascii	"dac\000"
 8399 2722 22       		.byte	0x22
 8400 2723 FD       		.byte	0xfd
 8401 2724 1E       		.byte	0x1e
 8402 2725 7F270000 		.4byte	0x277f
 8403 2729 00       		.byte	0
 8404 272a 17       		.uleb128 0x17
 8405 272b 33190000 		.4byte	.LASF504
 8406 272f 22       		.byte	0x22
 8407 2730 0101     		.2byte	0x101
 8408 2732 1D       		.byte	0x1d
 8409 2733 54090000 		.4byte	0x954
 8410 2737 04       		.byte	0x4
 8411 2738 17       		.uleb128 0x17
ARM GAS  /tmp/ccDzFi87.s 			page 149


 8412 2739 37070000 		.4byte	.LASF505
 8413 273d 22       		.byte	0x22
 8414 273e 0501     		.2byte	0x105
 8415 2740 1D       		.byte	0x1d
 8416 2741 54090000 		.4byte	0x954
 8417 2745 08       		.byte	0x8
 8418 2746 17       		.uleb128 0x17
 8419 2747 D6010000 		.4byte	.LASF506
 8420 274b 22       		.byte	0x22
 8421 274c 0901     		.2byte	0x109
 8422 274e 1D       		.byte	0x1d
 8423 274f 54090000 		.4byte	0x954
 8424 2753 0C       		.byte	0xc
 8425 2754 21       		.uleb128 0x21
 8426 2755 646D6100 		.ascii	"dma\000"
 8427 2759 22       		.byte	0x22
 8428 275a 0D01     		.2byte	0x10d
 8429 275c 1E       		.byte	0x1e
 8430 275d 6B250000 		.4byte	0x256b
 8431 2761 10       		.byte	0x10
 8432 2762 17       		.uleb128 0x17
 8433 2763 B2180000 		.4byte	.LASF463
 8434 2767 22       		.byte	0x22
 8435 2768 1101     		.2byte	0x111
 8436 276a 1D       		.byte	0x1d
 8437 276b 54090000 		.4byte	0x954
 8438 276f 14       		.byte	0x14
 8439 2770 17       		.uleb128 0x17
 8440 2771 61180000 		.4byte	.LASF507
 8441 2775 22       		.byte	0x22
 8442 2776 1501     		.2byte	0x115
 8443 2778 1D       		.byte	0x1d
 8444 2779 54090000 		.4byte	0x954
 8445 277d 18       		.byte	0x18
 8446 277e 00       		.byte	0
 8447 277f 0F       		.uleb128 0xf
 8448 2780 04       		.byte	0x4
 8449 2781 7A120000 		.4byte	0x127a
 8450 2785 05       		.uleb128 0x5
 8451 2786 20030000 		.4byte	.LASF508
 8452 278a 22       		.byte	0x22
 8453 278b 1601     		.2byte	0x116
 8454 278d 03       		.byte	0x3
 8455 278e 14270000 		.4byte	0x2714
 8456 2792 15       		.uleb128 0x15
 8457 2793 85270000 		.4byte	0x2785
 8458 2797 05       		.uleb128 0x5
 8459 2798 590C0000 		.4byte	.LASF509
 8460 279c 22       		.byte	0x22
 8461 279d 1B01     		.2byte	0x11b
 8462 279f 1A       		.byte	0x1a
 8463 27a0 A4270000 		.4byte	0x27a4
 8464 27a4 1A       		.uleb128 0x1a
 8465 27a5 590C0000 		.4byte	.LASF509
 8466 27a9 30       		.byte	0x30
 8467 27aa 22       		.byte	0x22
 8468 27ab 7B01     		.2byte	0x17b
ARM GAS  /tmp/ccDzFi87.s 			page 150


 8469 27ad 08       		.byte	0x8
 8470 27ae 23280000 		.4byte	0x2823
 8471 27b2 17       		.uleb128 0x17
 8472 27b3 92160000 		.4byte	.LASF455
 8473 27b7 22       		.byte	0x22
 8474 27b8 7F01     		.2byte	0x17f
 8475 27ba 1D       		.byte	0x1d
 8476 27bb 08270000 		.4byte	0x2708
 8477 27bf 00       		.byte	0
 8478 27c0 17       		.uleb128 0x17
 8479 27c1 C01F0000 		.4byte	.LASF459
 8480 27c5 22       		.byte	0x22
 8481 27c6 8301     		.2byte	0x183
 8482 27c8 1E       		.byte	0x1e
 8483 27c9 72290000 		.4byte	0x2972
 8484 27cd 04       		.byte	0x4
 8485 27ce 17       		.uleb128 0x17
 8486 27cf C3010000 		.4byte	.LASF457
 8487 27d3 22       		.byte	0x22
 8488 27d4 8701     		.2byte	0x187
 8489 27d6 1E       		.byte	0x1e
 8490 27d7 8C280000 		.4byte	0x288c
 8491 27db 08       		.byte	0x8
 8492 27dc 17       		.uleb128 0x17
 8493 27dd 82190000 		.4byte	.LASF458
 8494 27e1 22       		.byte	0x22
 8495 27e2 8B01     		.2byte	0x18b
 8496 27e4 1D       		.byte	0x1d
 8497 27e5 48090000 		.4byte	0x948
 8498 27e9 0C       		.byte	0xc
 8499 27ea 17       		.uleb128 0x17
 8500 27eb A51C0000 		.4byte	.LASF456
 8501 27ef 22       		.byte	0x22
 8502 27f0 8F01     		.2byte	0x18f
 8503 27f2 1E       		.byte	0x1e
 8504 27f3 78290000 		.4byte	0x2978
 8505 27f7 10       		.byte	0x10
 8506 27f8 17       		.uleb128 0x17
 8507 27f9 30070000 		.4byte	.LASF460
 8508 27fd 22       		.byte	0x22
 8509 27fe 9401     		.2byte	0x194
 8510 2800 1D       		.byte	0x1d
 8511 2801 580B0000 		.4byte	0xb58
 8512 2805 14       		.byte	0x14
 8513 2806 17       		.uleb128 0x17
 8514 2807 4E0C0000 		.4byte	.LASF461
 8515 280b 22       		.byte	0x22
 8516 280c 9A01     		.2byte	0x19a
 8517 280e 1D       		.byte	0x1d
 8518 280f F91C0000 		.4byte	0x1cf9
 8519 2813 18       		.byte	0x18
 8520 2814 17       		.uleb128 0x17
 8521 2815 FE0F0000 		.4byte	.LASF510
 8522 2819 22       		.byte	0x22
 8523 281a A301     		.2byte	0x1a3
 8524 281c 1E       		.byte	0x1e
 8525 281d 7E290000 		.4byte	0x297e
ARM GAS  /tmp/ccDzFi87.s 			page 151


 8526 2821 2C       		.byte	0x2c
 8527 2822 00       		.byte	0
 8528 2823 05       		.uleb128 0x5
 8529 2824 FF190000 		.4byte	.LASF511
 8530 2828 22       		.byte	0x22
 8531 2829 2001     		.2byte	0x120
 8532 282b 12       		.byte	0x12
 8533 282c 48090000 		.4byte	0x948
 8534 2830 15       		.uleb128 0x15
 8535 2831 23280000 		.4byte	0x2823
 8536 2835 2A       		.uleb128 0x2a
 8537 2836 07       		.byte	0x7
 8538 2837 01       		.byte	0x1
 8539 2838 61000000 		.4byte	0x61
 8540 283c 22       		.byte	0x22
 8541 283d 2701     		.2byte	0x127
 8542 283f 0E       		.byte	0xe
 8543 2840 51280000 		.4byte	0x2851
 8544 2844 28       		.uleb128 0x28
 8545 2845 951A0000 		.4byte	.LASF512
 8546 2849 00       		.byte	0
 8547 284a 28       		.uleb128 0x28
 8548 284b 2A090000 		.4byte	.LASF513
 8549 284f 01       		.byte	0x1
 8550 2850 00       		.byte	0
 8551 2851 05       		.uleb128 0x5
 8552 2852 46100000 		.4byte	.LASF514
 8553 2856 22       		.byte	0x22
 8554 2857 2A01     		.2byte	0x12a
 8555 2859 03       		.byte	0x3
 8556 285a 35280000 		.4byte	0x2835
 8557 285e 05       		.uleb128 0x5
 8558 285f A3070000 		.4byte	.LASF515
 8559 2863 22       		.byte	0x22
 8560 2864 3401     		.2byte	0x134
 8561 2866 10       		.byte	0x10
 8562 2867 6B280000 		.4byte	0x286b
 8563 286b 0F       		.uleb128 0xf
 8564 286c 04       		.byte	0x4
 8565 286d 71280000 		.4byte	0x2871
 8566 2871 1F       		.uleb128 0x1f
 8567 2872 86280000 		.4byte	0x2886
 8568 2876 14       		.uleb128 0x14
 8569 2877 86280000 		.4byte	0x2886
 8570 287b 14       		.uleb128 0x14
 8571 287c 8C280000 		.4byte	0x288c
 8572 2880 14       		.uleb128 0x14
 8573 2881 2C000000 		.4byte	0x2c
 8574 2885 00       		.byte	0
 8575 2886 0F       		.uleb128 0xf
 8576 2887 04       		.byte	0x4
 8577 2888 97270000 		.4byte	0x2797
 8578 288c 0F       		.uleb128 0xf
 8579 288d 04       		.byte	0x4
 8580 288e 30280000 		.4byte	0x2830
 8581 2892 05       		.uleb128 0x5
 8582 2893 67210000 		.4byte	.LASF516
ARM GAS  /tmp/ccDzFi87.s 			page 152


 8583 2897 22       		.byte	0x22
 8584 2898 3F01     		.2byte	0x13f
 8585 289a 10       		.byte	0x10
 8586 289b 9F280000 		.4byte	0x289f
 8587 289f 0F       		.uleb128 0xf
 8588 28a0 04       		.byte	0x4
 8589 28a1 A5280000 		.4byte	0x28a5
 8590 28a5 1F       		.uleb128 0x1f
 8591 28a6 B5280000 		.4byte	0x28b5
 8592 28aa 14       		.uleb128 0x14
 8593 28ab 86280000 		.4byte	0x2886
 8594 28af 14       		.uleb128 0x14
 8595 28b0 51280000 		.4byte	0x2851
 8596 28b4 00       		.byte	0
 8597 28b5 2A       		.uleb128 0x2a
 8598 28b6 07       		.byte	0x7
 8599 28b7 01       		.byte	0x1
 8600 28b8 61000000 		.4byte	0x61
 8601 28bc 22       		.byte	0x22
 8602 28bd 4401     		.2byte	0x144
 8603 28bf 0E       		.byte	0xe
 8604 28c0 D7280000 		.4byte	0x28d7
 8605 28c4 28       		.uleb128 0x28
 8606 28c5 4E1D0000 		.4byte	.LASF517
 8607 28c9 00       		.byte	0
 8608 28ca 28       		.uleb128 0x28
 8609 28cb FB110000 		.4byte	.LASF518
 8610 28cf 01       		.byte	0x1
 8611 28d0 28       		.uleb128 0x28
 8612 28d1 5F170000 		.4byte	.LASF519
 8613 28d5 02       		.byte	0x2
 8614 28d6 00       		.byte	0
 8615 28d7 05       		.uleb128 0x5
 8616 28d8 830A0000 		.4byte	.LASF520
 8617 28dc 22       		.byte	0x22
 8618 28dd 4D01     		.2byte	0x14d
 8619 28df 03       		.byte	0x3
 8620 28e0 B5280000 		.4byte	0x28b5
 8621 28e4 1B       		.uleb128 0x1b
 8622 28e5 10       		.byte	0x10
 8623 28e6 22       		.byte	0x22
 8624 28e7 5201     		.2byte	0x152
 8625 28e9 09       		.byte	0x9
 8626 28ea 27290000 		.4byte	0x2927
 8627 28ee 17       		.uleb128 0x17
 8628 28ef A50F0000 		.4byte	.LASF467
 8629 28f3 22       		.byte	0x22
 8630 28f4 5601     		.2byte	0x156
 8631 28f6 1D       		.byte	0x1d
 8632 28f7 54090000 		.4byte	0x954
 8633 28fb 00       		.byte	0
 8634 28fc 17       		.uleb128 0x17
 8635 28fd 51090000 		.4byte	.LASF468
 8636 2901 22       		.byte	0x22
 8637 2902 5A01     		.2byte	0x15a
 8638 2904 1D       		.byte	0x1d
 8639 2905 5E280000 		.4byte	0x285e
ARM GAS  /tmp/ccDzFi87.s 			page 153


 8640 2909 04       		.byte	0x4
 8641 290a 17       		.uleb128 0x17
 8642 290b 43240000 		.4byte	.LASF469
 8643 290f 22       		.byte	0x22
 8644 2910 5E01     		.2byte	0x15e
 8645 2912 1D       		.byte	0x1d
 8646 2913 92280000 		.4byte	0x2892
 8647 2917 08       		.byte	0x8
 8648 2918 17       		.uleb128 0x17
 8649 2919 FB140000 		.4byte	.LASF521
 8650 291d 22       		.byte	0x22
 8651 291e 6601     		.2byte	0x166
 8652 2920 1D       		.byte	0x1d
 8653 2921 54090000 		.4byte	0x954
 8654 2925 0C       		.byte	0xc
 8655 2926 00       		.byte	0
 8656 2927 05       		.uleb128 0x5
 8657 2928 16110000 		.4byte	.LASF522
 8658 292c 22       		.byte	0x22
 8659 292d 6701     		.2byte	0x167
 8660 292f 03       		.byte	0x3
 8661 2930 E4280000 		.4byte	0x28e4
 8662 2934 15       		.uleb128 0x15
 8663 2935 27290000 		.4byte	0x2927
 8664 2939 1B       		.uleb128 0x1b
 8665 293a 04       		.byte	0x4
 8666 293b 22       		.byte	0x22
 8667 293c 6C01     		.2byte	0x16c
 8668 293e 09       		.byte	0x9
 8669 293f 60290000 		.4byte	0x2960
 8670 2943 17       		.uleb128 0x17
 8671 2944 C70A0000 		.4byte	.LASF523
 8672 2948 22       		.byte	0x22
 8673 2949 7101     		.2byte	0x171
 8674 294b 1D       		.byte	0x1d
 8675 294c 23280000 		.4byte	0x2823
 8676 2950 00       		.byte	0
 8677 2951 17       		.uleb128 0x17
 8678 2952 FF000000 		.4byte	.LASF524
 8679 2956 22       		.byte	0x22
 8680 2957 7501     		.2byte	0x175
 8681 2959 1D       		.byte	0x1d
 8682 295a D7280000 		.4byte	0x28d7
 8683 295e 02       		.byte	0x2
 8684 295f 00       		.byte	0
 8685 2960 05       		.uleb128 0x5
 8686 2961 630C0000 		.4byte	.LASF525
 8687 2965 22       		.byte	0x22
 8688 2966 7601     		.2byte	0x176
 8689 2968 03       		.byte	0x3
 8690 2969 39290000 		.4byte	0x2939
 8691 296d 15       		.uleb128 0x15
 8692 296e 60290000 		.4byte	0x2960
 8693 2972 0F       		.uleb128 0xf
 8694 2973 04       		.byte	0x4
 8695 2974 34290000 		.4byte	0x2934
 8696 2978 0F       		.uleb128 0xf
ARM GAS  /tmp/ccDzFi87.s 			page 154


 8697 2979 04       		.byte	0x4
 8698 297a 6D290000 		.4byte	0x296d
 8699 297e 0F       		.uleb128 0xf
 8700 297f 04       		.byte	0x4
 8701 2980 92270000 		.4byte	0x2792
 8702 2984 20       		.uleb128 0x20
 8703 2985 DA030000 		.4byte	.LASF526
 8704 2989 22       		.byte	0x22
 8705 298a B301     		.2byte	0x1b3
 8706 298c 12       		.byte	0x12
 8707 298d 97270000 		.4byte	0x2797
 8708 2991 27       		.uleb128 0x27
 8709 2992 07       		.byte	0x7
 8710 2993 01       		.byte	0x1
 8711 2994 61000000 		.4byte	0x61
 8712 2998 23       		.byte	0x23
 8713 2999 3F       		.byte	0x3f
 8714 299a 0E       		.byte	0xe
 8715 299b B2290000 		.4byte	0x29b2
 8716 299f 28       		.uleb128 0x28
 8717 29a0 E5090000 		.4byte	.LASF527
 8718 29a4 00       		.byte	0
 8719 29a5 28       		.uleb128 0x28
 8720 29a6 45260000 		.4byte	.LASF528
 8721 29aa 01       		.byte	0x1
 8722 29ab 28       		.uleb128 0x28
 8723 29ac FE010000 		.4byte	.LASF529
 8724 29b0 02       		.byte	0x2
 8725 29b1 00       		.byte	0
 8726 29b2 03       		.uleb128 0x3
 8727 29b3 131C0000 		.4byte	.LASF530
 8728 29b7 23       		.byte	0x23
 8729 29b8 43       		.byte	0x43
 8730 29b9 03       		.byte	0x3
 8731 29ba 91290000 		.4byte	0x2991
 8732 29be 03       		.uleb128 0x3
 8733 29bf BF080000 		.4byte	.LASF531
 8734 29c3 23       		.byte	0x23
 8735 29c4 48       		.byte	0x48
 8736 29c5 1A       		.byte	0x1a
 8737 29c6 CA290000 		.4byte	0x29ca
 8738 29ca 0D       		.uleb128 0xd
 8739 29cb BF080000 		.4byte	.LASF531
 8740 29cf 08       		.byte	0x8
 8741 29d0 24       		.byte	0x24
 8742 29d1 71       		.byte	0x71
 8743 29d2 08       		.byte	0x8
 8744 29d3 F2290000 		.4byte	0x29f2
 8745 29d7 0B       		.uleb128 0xb
 8746 29d8 92160000 		.4byte	.LASF455
 8747 29dc 24       		.byte	0x24
 8748 29dd 75       		.byte	0x75
 8749 29de 1D       		.byte	0x1d
 8750 29df B2290000 		.4byte	0x29b2
 8751 29e3 00       		.byte	0
 8752 29e4 0B       		.uleb128 0xb
 8753 29e5 A51C0000 		.4byte	.LASF456
ARM GAS  /tmp/ccDzFi87.s 			page 155


 8754 29e9 24       		.byte	0x24
 8755 29ea 79       		.byte	0x79
 8756 29eb 1E       		.byte	0x1e
 8757 29ec 8D2A0000 		.4byte	0x2a8d
 8758 29f0 04       		.byte	0x4
 8759 29f1 00       		.byte	0
 8760 29f2 03       		.uleb128 0x3
 8761 29f3 78240000 		.4byte	.LASF532
 8762 29f7 24       		.byte	0x24
 8763 29f8 47       		.byte	0x47
 8764 29f9 12       		.byte	0x12
 8765 29fa 54090000 		.4byte	0x954
 8766 29fe 03       		.uleb128 0x3
 8767 29ff 861F0000 		.4byte	.LASF533
 8768 2a03 24       		.byte	0x24
 8769 2a04 4F       		.byte	0x4f
 8770 2a05 10       		.byte	0x10
 8771 2a06 0A2A0000 		.4byte	0x2a0a
 8772 2a0a 0F       		.uleb128 0xf
 8773 2a0b 04       		.byte	0x4
 8774 2a0c 102A0000 		.4byte	0x2a10
 8775 2a10 1F       		.uleb128 0x1f
 8776 2a11 202A0000 		.4byte	0x2a20
 8777 2a15 14       		.uleb128 0x14
 8778 2a16 202A0000 		.4byte	0x2a20
 8779 2a1a 14       		.uleb128 0x14
 8780 2a1b F2290000 		.4byte	0x29f2
 8781 2a1f 00       		.byte	0
 8782 2a20 0F       		.uleb128 0xf
 8783 2a21 04       		.byte	0x4
 8784 2a22 BE290000 		.4byte	0x29be
 8785 2a26 0A       		.uleb128 0xa
 8786 2a27 08       		.byte	0x8
 8787 2a28 24       		.byte	0x24
 8788 2a29 54       		.byte	0x54
 8789 2a2a 09       		.byte	0x9
 8790 2a2b 492A0000 		.4byte	0x2a49
 8791 2a2f 0B       		.uleb128 0xb
 8792 2a30 A4080000 		.4byte	.LASF534
 8793 2a34 24       		.byte	0x24
 8794 2a35 58       		.byte	0x58
 8795 2a36 19       		.byte	0x19
 8796 2a37 54090000 		.4byte	0x954
 8797 2a3b 00       		.byte	0
 8798 2a3c 0E       		.uleb128 0xe
 8799 2a3d 636200   		.ascii	"cb\000"
 8800 2a40 24       		.byte	0x24
 8801 2a41 5F       		.byte	0x5f
 8802 2a42 19       		.byte	0x19
 8803 2a43 FE290000 		.4byte	0x29fe
 8804 2a47 04       		.byte	0x4
 8805 2a48 00       		.byte	0
 8806 2a49 03       		.uleb128 0x3
 8807 2a4a FC0D0000 		.4byte	.LASF535
 8808 2a4e 24       		.byte	0x24
 8809 2a4f 60       		.byte	0x60
 8810 2a50 03       		.byte	0x3
ARM GAS  /tmp/ccDzFi87.s 			page 156


 8811 2a51 262A0000 		.4byte	0x2a26
 8812 2a55 0A       		.uleb128 0xa
 8813 2a56 B8       		.byte	0xb8
 8814 2a57 24       		.byte	0x24
 8815 2a58 66       		.byte	0x66
 8816 2a59 09       		.byte	0x9
 8817 2a5a 6C2A0000 		.4byte	0x2a6c
 8818 2a5e 0B       		.uleb128 0xb
 8819 2a5f 87210000 		.4byte	.LASF536
 8820 2a63 24       		.byte	0x24
 8821 2a64 6A       		.byte	0x6a
 8822 2a65 19       		.byte	0x19
 8823 2a66 6C2A0000 		.4byte	0x2a6c
 8824 2a6a 00       		.byte	0
 8825 2a6b 00       		.byte	0
 8826 2a6c 08       		.uleb128 0x8
 8827 2a6d 492A0000 		.4byte	0x2a49
 8828 2a71 7C2A0000 		.4byte	0x2a7c
 8829 2a75 09       		.uleb128 0x9
 8830 2a76 38000000 		.4byte	0x38
 8831 2a7a 16       		.byte	0x16
 8832 2a7b 00       		.byte	0
 8833 2a7c 03       		.uleb128 0x3
 8834 2a7d 661E0000 		.4byte	.LASF537
 8835 2a81 24       		.byte	0x24
 8836 2a82 6C       		.byte	0x6c
 8837 2a83 03       		.byte	0x3
 8838 2a84 552A0000 		.4byte	0x2a55
 8839 2a88 15       		.uleb128 0x15
 8840 2a89 7C2A0000 		.4byte	0x2a7c
 8841 2a8d 0F       		.uleb128 0xf
 8842 2a8e 04       		.byte	0x4
 8843 2a8f 882A0000 		.4byte	0x2a88
 8844 2a93 23       		.uleb128 0x23
 8845 2a94 F1050000 		.4byte	.LASF538
 8846 2a98 24       		.byte	0x24
 8847 2a99 86       		.byte	0x86
 8848 2a9a 12       		.byte	0x12
 8849 2a9b BE290000 		.4byte	0x29be
 8850 2a9f 27       		.uleb128 0x27
 8851 2aa0 07       		.byte	0x7
 8852 2aa1 01       		.byte	0x1
 8853 2aa2 61000000 		.4byte	0x61
 8854 2aa6 25       		.byte	0x25
 8855 2aa7 31       		.byte	0x31
 8856 2aa8 0E       		.byte	0xe
 8857 2aa9 CC2A0000 		.4byte	0x2acc
 8858 2aad 28       		.uleb128 0x28
 8859 2aae 73170000 		.4byte	.LASF539
 8860 2ab2 00       		.byte	0
 8861 2ab3 28       		.uleb128 0x28
 8862 2ab4 23150000 		.4byte	.LASF540
 8863 2ab8 01       		.byte	0x1
 8864 2ab9 28       		.uleb128 0x28
 8865 2aba DC190000 		.4byte	.LASF541
 8866 2abe 02       		.byte	0x2
 8867 2abf 28       		.uleb128 0x28
ARM GAS  /tmp/ccDzFi87.s 			page 157


 8868 2ac0 CA070000 		.4byte	.LASF542
 8869 2ac4 03       		.byte	0x3
 8870 2ac5 28       		.uleb128 0x28
 8871 2ac6 96040000 		.4byte	.LASF543
 8872 2aca 04       		.byte	0x4
 8873 2acb 00       		.byte	0
 8874 2acc 03       		.uleb128 0x3
 8875 2acd 79120000 		.4byte	.LASF544
 8876 2ad1 25       		.byte	0x25
 8877 2ad2 37       		.byte	0x37
 8878 2ad3 03       		.byte	0x3
 8879 2ad4 9F2A0000 		.4byte	0x2a9f
 8880 2ad8 03       		.uleb128 0x3
 8881 2ad9 6C180000 		.4byte	.LASF545
 8882 2add 25       		.byte	0x25
 8883 2ade 3C       		.byte	0x3c
 8884 2adf 1A       		.byte	0x1a
 8885 2ae0 E42A0000 		.4byte	0x2ae4
 8886 2ae4 1A       		.uleb128 0x1a
 8887 2ae5 6C180000 		.4byte	.LASF545
 8888 2ae9 10       		.byte	0x10
 8889 2aea 26       		.byte	0x26
 8890 2aeb 9701     		.2byte	0x197
 8891 2aed 08       		.byte	0x8
 8892 2aee 2B2B0000 		.4byte	0x2b2b
 8893 2af2 17       		.uleb128 0x17
 8894 2af3 92160000 		.4byte	.LASF455
 8895 2af7 26       		.byte	0x26
 8896 2af8 9B01     		.2byte	0x19b
 8897 2afa 1D       		.byte	0x1d
 8898 2afb CC2A0000 		.4byte	0x2acc
 8899 2aff 00       		.byte	0
 8900 2b00 17       		.uleb128 0x17
 8901 2b01 A51C0000 		.4byte	.LASF456
 8902 2b05 26       		.byte	0x26
 8903 2b06 9F01     		.2byte	0x19f
 8904 2b08 1E       		.byte	0x1e
 8905 2b09 DE2C0000 		.4byte	0x2cde
 8906 2b0d 04       		.byte	0x4
 8907 2b0e 17       		.uleb128 0x17
 8908 2b0f 770C0000 		.4byte	.LASF546
 8909 2b13 26       		.byte	0x26
 8910 2b14 A701     		.2byte	0x1a7
 8911 2b16 1D       		.byte	0x1d
 8912 2b17 54090000 		.4byte	0x954
 8913 2b1b 08       		.byte	0x8
 8914 2b1c 21       		.uleb128 0x21
 8915 2b1d 74696D00 		.ascii	"tim\000"
 8916 2b21 26       		.byte	0x26
 8917 2b22 AB01     		.2byte	0x1ab
 8918 2b24 1E       		.byte	0x1e
 8919 2b25 E42C0000 		.4byte	0x2ce4
 8920 2b29 0C       		.byte	0xc
 8921 2b2a 00       		.byte	0
 8922 2b2b 03       		.uleb128 0x3
 8923 2b2c 68100000 		.4byte	.LASF547
 8924 2b30 25       		.byte	0x25
ARM GAS  /tmp/ccDzFi87.s 			page 158


 8925 2b31 43       		.byte	0x43
 8926 2b32 10       		.byte	0x10
 8927 2b33 372B0000 		.4byte	0x2b37
 8928 2b37 0F       		.uleb128 0xf
 8929 2b38 04       		.byte	0x4
 8930 2b39 3D2B0000 		.4byte	0x2b3d
 8931 2b3d 1F       		.uleb128 0x1f
 8932 2b3e 482B0000 		.4byte	0x2b48
 8933 2b42 14       		.uleb128 0x14
 8934 2b43 482B0000 		.4byte	0x2b48
 8935 2b47 00       		.byte	0
 8936 2b48 0F       		.uleb128 0xf
 8937 2b49 04       		.byte	0x4
 8938 2b4a D82A0000 		.4byte	0x2ad8
 8939 2b4e 1B       		.uleb128 0x1b
 8940 2b4f 60       		.byte	0x60
 8941 2b50 27       		.byte	0x27
 8942 2b51 9E01     		.2byte	0x19e
 8943 2b53 09       		.byte	0x9
 8944 2b54 6F2C0000 		.4byte	0x2c6f
 8945 2b58 21       		.uleb128 0x21
 8946 2b59 43523100 		.ascii	"CR1\000"
 8947 2b5d 27       		.byte	0x27
 8948 2b5e 9F01     		.2byte	0x19f
 8949 2b60 19       		.byte	0x19
 8950 2b61 60090000 		.4byte	0x960
 8951 2b65 00       		.byte	0
 8952 2b66 21       		.uleb128 0x21
 8953 2b67 43523200 		.ascii	"CR2\000"
 8954 2b6b 27       		.byte	0x27
 8955 2b6c A001     		.2byte	0x1a0
 8956 2b6e 19       		.byte	0x19
 8957 2b6f 60090000 		.4byte	0x960
 8958 2b73 04       		.byte	0x4
 8959 2b74 17       		.uleb128 0x17
 8960 2b75 BE200000 		.4byte	.LASF548
 8961 2b79 27       		.byte	0x27
 8962 2b7a A101     		.2byte	0x1a1
 8963 2b7c 19       		.byte	0x19
 8964 2b7d 60090000 		.4byte	0x960
 8965 2b81 08       		.byte	0x8
 8966 2b82 17       		.uleb128 0x17
 8967 2b83 2C0A0000 		.4byte	.LASF549
 8968 2b87 27       		.byte	0x27
 8969 2b88 A201     		.2byte	0x1a2
 8970 2b8a 19       		.byte	0x19
 8971 2b8b 60090000 		.4byte	0x960
 8972 2b8f 0C       		.byte	0xc
 8973 2b90 21       		.uleb128 0x21
 8974 2b91 535200   		.ascii	"SR\000"
 8975 2b94 27       		.byte	0x27
 8976 2b95 A301     		.2byte	0x1a3
 8977 2b97 19       		.byte	0x19
 8978 2b98 60090000 		.4byte	0x960
 8979 2b9c 10       		.byte	0x10
 8980 2b9d 21       		.uleb128 0x21
 8981 2b9e 45475200 		.ascii	"EGR\000"
ARM GAS  /tmp/ccDzFi87.s 			page 159


 8982 2ba2 27       		.byte	0x27
 8983 2ba3 A401     		.2byte	0x1a4
 8984 2ba5 19       		.byte	0x19
 8985 2ba6 60090000 		.4byte	0x960
 8986 2baa 14       		.byte	0x14
 8987 2bab 17       		.uleb128 0x17
 8988 2bac 12250000 		.4byte	.LASF550
 8989 2bb0 27       		.byte	0x27
 8990 2bb1 A501     		.2byte	0x1a5
 8991 2bb3 19       		.byte	0x19
 8992 2bb4 60090000 		.4byte	0x960
 8993 2bb8 18       		.byte	0x18
 8994 2bb9 17       		.uleb128 0x17
 8995 2bba 18250000 		.4byte	.LASF551
 8996 2bbe 27       		.byte	0x27
 8997 2bbf A601     		.2byte	0x1a6
 8998 2bc1 19       		.byte	0x19
 8999 2bc2 60090000 		.4byte	0x960
 9000 2bc6 1C       		.byte	0x1c
 9001 2bc7 17       		.uleb128 0x17
 9002 2bc8 80070000 		.4byte	.LASF552
 9003 2bcc 27       		.byte	0x27
 9004 2bcd A701     		.2byte	0x1a7
 9005 2bcf 19       		.byte	0x19
 9006 2bd0 60090000 		.4byte	0x960
 9007 2bd4 20       		.byte	0x20
 9008 2bd5 21       		.uleb128 0x21
 9009 2bd6 434E5400 		.ascii	"CNT\000"
 9010 2bda 27       		.byte	0x27
 9011 2bdb A801     		.2byte	0x1a8
 9012 2bdd 19       		.byte	0x19
 9013 2bde 60090000 		.4byte	0x960
 9014 2be2 24       		.byte	0x24
 9015 2be3 21       		.uleb128 0x21
 9016 2be4 50534300 		.ascii	"PSC\000"
 9017 2be8 27       		.byte	0x27
 9018 2be9 A901     		.2byte	0x1a9
 9019 2beb 19       		.byte	0x19
 9020 2bec 60090000 		.4byte	0x960
 9021 2bf0 28       		.byte	0x28
 9022 2bf1 21       		.uleb128 0x21
 9023 2bf2 41525200 		.ascii	"ARR\000"
 9024 2bf6 27       		.byte	0x27
 9025 2bf7 AA01     		.2byte	0x1aa
 9026 2bf9 19       		.byte	0x19
 9027 2bfa 60090000 		.4byte	0x960
 9028 2bfe 2C       		.byte	0x2c
 9029 2bff 21       		.uleb128 0x21
 9030 2c00 52435200 		.ascii	"RCR\000"
 9031 2c04 27       		.byte	0x27
 9032 2c05 AB01     		.2byte	0x1ab
 9033 2c07 19       		.byte	0x19
 9034 2c08 60090000 		.4byte	0x960
 9035 2c0c 30       		.byte	0x30
 9036 2c0d 21       		.uleb128 0x21
 9037 2c0e 43435200 		.ascii	"CCR\000"
 9038 2c12 27       		.byte	0x27
ARM GAS  /tmp/ccDzFi87.s 			page 160


 9039 2c13 AC01     		.2byte	0x1ac
 9040 2c15 19       		.byte	0x19
 9041 2c16 17130000 		.4byte	0x1317
 9042 2c1a 34       		.byte	0x34
 9043 2c1b 17       		.uleb128 0x17
 9044 2c1c D1010000 		.4byte	.LASF553
 9045 2c20 27       		.byte	0x27
 9046 2c21 AD01     		.2byte	0x1ad
 9047 2c23 19       		.byte	0x19
 9048 2c24 60090000 		.4byte	0x960
 9049 2c28 44       		.byte	0x44
 9050 2c29 21       		.uleb128 0x21
 9051 2c2a 44435200 		.ascii	"DCR\000"
 9052 2c2e 27       		.byte	0x27
 9053 2c2f AE01     		.2byte	0x1ae
 9054 2c31 19       		.byte	0x19
 9055 2c32 60090000 		.4byte	0x960
 9056 2c36 48       		.byte	0x48
 9057 2c37 17       		.uleb128 0x17
 9058 2c38 07170000 		.4byte	.LASF554
 9059 2c3c 27       		.byte	0x27
 9060 2c3d AF01     		.2byte	0x1af
 9061 2c3f 19       		.byte	0x19
 9062 2c40 60090000 		.4byte	0x960
 9063 2c44 4C       		.byte	0x4c
 9064 2c45 21       		.uleb128 0x21
 9065 2c46 4F5200   		.ascii	"OR\000"
 9066 2c49 27       		.byte	0x27
 9067 2c4a B001     		.2byte	0x1b0
 9068 2c4c 19       		.byte	0x19
 9069 2c4d 60090000 		.4byte	0x960
 9070 2c51 50       		.byte	0x50
 9071 2c52 17       		.uleb128 0x17
 9072 2c53 1E250000 		.4byte	.LASF555
 9073 2c57 27       		.byte	0x27
 9074 2c58 B101     		.2byte	0x1b1
 9075 2c5a 19       		.byte	0x19
 9076 2c5b 60090000 		.4byte	0x960
 9077 2c5f 54       		.byte	0x54
 9078 2c60 17       		.uleb128 0x17
 9079 2c61 830C0000 		.4byte	.LASF556
 9080 2c65 27       		.byte	0x27
 9081 2c66 B201     		.2byte	0x1b2
 9082 2c68 19       		.byte	0x19
 9083 2c69 02130000 		.4byte	0x1302
 9084 2c6d 58       		.byte	0x58
 9085 2c6e 00       		.byte	0
 9086 2c6f 05       		.uleb128 0x5
 9087 2c70 F11F0000 		.4byte	.LASF557
 9088 2c74 27       		.byte	0x27
 9089 2c75 B301     		.2byte	0x1b3
 9090 2c77 03       		.byte	0x3
 9091 2c78 4E2B0000 		.4byte	0x2b4e
 9092 2c7c 05       		.uleb128 0x5
 9093 2c7d F3080000 		.4byte	.LASF558
 9094 2c81 26       		.byte	0x26
 9095 2c82 6D01     		.2byte	0x16d
ARM GAS  /tmp/ccDzFi87.s 			page 161


 9096 2c84 12       		.byte	0x12
 9097 2c85 54090000 		.4byte	0x954
 9098 2c89 1B       		.uleb128 0x1b
 9099 2c8a 10       		.byte	0x10
 9100 2c8b 26       		.byte	0x26
 9101 2c8c 7801     		.2byte	0x178
 9102 2c8e 09       		.byte	0x9
 9103 2c8f CC2C0000 		.4byte	0x2ccc
 9104 2c93 17       		.uleb128 0x17
 9105 2c94 96240000 		.4byte	.LASF559
 9106 2c98 26       		.byte	0x26
 9107 2c99 7E01     		.2byte	0x17e
 9108 2c9b 1D       		.byte	0x1d
 9109 2c9c 7C2C0000 		.4byte	0x2c7c
 9110 2ca0 00       		.byte	0
 9111 2ca1 17       		.uleb128 0x17
 9112 2ca2 0C170000 		.4byte	.LASF560
 9113 2ca6 26       		.byte	0x26
 9114 2ca7 8501     		.2byte	0x185
 9115 2ca9 1D       		.byte	0x1d
 9116 2caa 2B2B0000 		.4byte	0x2b2b
 9117 2cae 04       		.byte	0x4
 9118 2caf 21       		.uleb128 0x21
 9119 2cb0 63723200 		.ascii	"cr2\000"
 9120 2cb4 26       		.byte	0x26
 9121 2cb5 8B01     		.2byte	0x18b
 9122 2cb7 1D       		.byte	0x1d
 9123 2cb8 54090000 		.4byte	0x954
 9124 2cbc 08       		.byte	0x8
 9125 2cbd 17       		.uleb128 0x17
 9126 2cbe F80B0000 		.4byte	.LASF561
 9127 2cc2 26       		.byte	0x26
 9128 2cc3 9101     		.2byte	0x191
 9129 2cc5 1D       		.byte	0x1d
 9130 2cc6 54090000 		.4byte	0x954
 9131 2cca 0C       		.byte	0xc
 9132 2ccb 00       		.byte	0
 9133 2ccc 05       		.uleb128 0x5
 9134 2ccd C7060000 		.4byte	.LASF562
 9135 2cd1 26       		.byte	0x26
 9136 2cd2 9201     		.2byte	0x192
 9137 2cd4 03       		.byte	0x3
 9138 2cd5 892C0000 		.4byte	0x2c89
 9139 2cd9 15       		.uleb128 0x15
 9140 2cda CC2C0000 		.4byte	0x2ccc
 9141 2cde 0F       		.uleb128 0xf
 9142 2cdf 04       		.byte	0x4
 9143 2ce0 D92C0000 		.4byte	0x2cd9
 9144 2ce4 0F       		.uleb128 0xf
 9145 2ce5 04       		.byte	0x4
 9146 2ce6 6F2C0000 		.4byte	0x2c6f
 9147 2cea 20       		.uleb128 0x20
 9148 2ceb 3D240000 		.4byte	.LASF563
 9149 2cef 26       		.byte	0x26
 9150 2cf0 F201     		.2byte	0x1f2
 9151 2cf2 12       		.byte	0x12
 9152 2cf3 D82A0000 		.4byte	0x2ad8
ARM GAS  /tmp/ccDzFi87.s 			page 162


 9153 2cf7 20       		.uleb128 0x20
 9154 2cf8 AC1C0000 		.4byte	.LASF564
 9155 2cfc 26       		.byte	0x26
 9156 2cfd 0202     		.2byte	0x202
 9157 2cff 12       		.byte	0x12
 9158 2d00 D82A0000 		.4byte	0x2ad8
 9159 2d04 27       		.uleb128 0x27
 9160 2d05 07       		.byte	0x7
 9161 2d06 01       		.byte	0x1
 9162 2d07 61000000 		.4byte	0x61
 9163 2d0b 28       		.byte	0x28
 9164 2d0c 4C       		.byte	0x4c
 9165 2d0d 0E       		.byte	0xe
 9166 2d0e 372D0000 		.4byte	0x2d37
 9167 2d12 28       		.uleb128 0x28
 9168 2d13 9F060000 		.4byte	.LASF565
 9169 2d17 00       		.byte	0
 9170 2d18 28       		.uleb128 0x28
 9171 2d19 B30D0000 		.4byte	.LASF566
 9172 2d1d 01       		.byte	0x1
 9173 2d1e 28       		.uleb128 0x28
 9174 2d1f 62070000 		.4byte	.LASF567
 9175 2d23 02       		.byte	0x2
 9176 2d24 28       		.uleb128 0x28
 9177 2d25 C5040000 		.4byte	.LASF568
 9178 2d29 03       		.byte	0x3
 9179 2d2a 28       		.uleb128 0x28
 9180 2d2b 5E030000 		.4byte	.LASF569
 9181 2d2f 04       		.byte	0x4
 9182 2d30 28       		.uleb128 0x28
 9183 2d31 34120000 		.4byte	.LASF570
 9184 2d35 05       		.byte	0x5
 9185 2d36 00       		.byte	0
 9186 2d37 03       		.uleb128 0x3
 9187 2d38 25100000 		.4byte	.LASF571
 9188 2d3c 28       		.byte	0x28
 9189 2d3d 53       		.byte	0x53
 9190 2d3e 03       		.byte	0x3
 9191 2d3f 042D0000 		.4byte	0x2d04
 9192 2d43 05       		.uleb128 0x5
 9193 2d44 49180000 		.4byte	.LASF572
 9194 2d48 29       		.byte	0x29
 9195 2d49 6A01     		.2byte	0x16a
 9196 2d4b 12       		.byte	0x12
 9197 2d4c 48090000 		.4byte	0x948
 9198 2d50 05       		.uleb128 0x5
 9199 2d51 FC030000 		.4byte	.LASF573
 9200 2d55 29       		.byte	0x29
 9201 2d56 6F01     		.2byte	0x16f
 9202 2d58 12       		.byte	0x12
 9203 2d59 54090000 		.4byte	0x954
 9204 2d5d 2A       		.uleb128 0x2a
 9205 2d5e 07       		.byte	0x7
 9206 2d5f 01       		.byte	0x1
 9207 2d60 61000000 		.4byte	0x61
 9208 2d64 29       		.byte	0x29
 9209 2d65 7401     		.2byte	0x174
ARM GAS  /tmp/ccDzFi87.s 			page 163


 9210 2d67 0E       		.byte	0xe
 9211 2d68 7F2D0000 		.4byte	0x2d7f
 9212 2d6c 28       		.uleb128 0x28
 9213 2d6d D8040000 		.4byte	.LASF574
 9214 2d71 01       		.byte	0x1
 9215 2d72 28       		.uleb128 0x28
 9216 2d73 59000000 		.4byte	.LASF575
 9217 2d77 02       		.byte	0x2
 9218 2d78 28       		.uleb128 0x28
 9219 2d79 AB090000 		.4byte	.LASF576
 9220 2d7d 03       		.byte	0x3
 9221 2d7e 00       		.byte	0
 9222 2d7f 05       		.uleb128 0x5
 9223 2d80 72250000 		.4byte	.LASF577
 9224 2d84 29       		.byte	0x29
 9225 2d85 7801     		.2byte	0x178
 9226 2d87 03       		.byte	0x3
 9227 2d88 5D2D0000 		.4byte	0x2d5d
 9228 2d8c 2A       		.uleb128 0x2a
 9229 2d8d 07       		.byte	0x7
 9230 2d8e 01       		.byte	0x1
 9231 2d8f 61000000 		.4byte	0x61
 9232 2d93 29       		.byte	0x29
 9233 2d94 7D01     		.2byte	0x17d
 9234 2d96 0E       		.byte	0xe
 9235 2d97 AE2D0000 		.4byte	0x2dae
 9236 2d9b 28       		.uleb128 0x28
 9237 2d9c AE050000 		.4byte	.LASF578
 9238 2da0 01       		.byte	0x1
 9239 2da1 28       		.uleb128 0x28
 9240 2da2 E7240000 		.4byte	.LASF579
 9241 2da6 02       		.byte	0x2
 9242 2da7 28       		.uleb128 0x28
 9243 2da8 970A0000 		.4byte	.LASF580
 9244 2dac 03       		.byte	0x3
 9245 2dad 00       		.byte	0
 9246 2dae 05       		.uleb128 0x5
 9247 2daf 18070000 		.4byte	.LASF581
 9248 2db3 29       		.byte	0x29
 9249 2db4 8101     		.2byte	0x181
 9250 2db6 03       		.byte	0x3
 9251 2db7 8C2D0000 		.4byte	0x2d8c
 9252 2dbb 1B       		.uleb128 0x1b
 9253 2dbc 0C       		.byte	0xc
 9254 2dbd 29       		.byte	0x29
 9255 2dbe 8601     		.2byte	0x186
 9256 2dc0 09       		.byte	0x9
 9257 2dc1 F02D0000 		.4byte	0x2df0
 9258 2dc5 17       		.uleb128 0x17
 9259 2dc6 53150000 		.4byte	.LASF582
 9260 2dca 29       		.byte	0x29
 9261 2dcb 8801     		.2byte	0x188
 9262 2dcd 13       		.byte	0x13
 9263 2dce 7F2D0000 		.4byte	0x2d7f
 9264 2dd2 00       		.byte	0
 9265 2dd3 17       		.uleb128 0x17
 9266 2dd4 C4030000 		.4byte	.LASF583
ARM GAS  /tmp/ccDzFi87.s 			page 164


 9267 2dd8 29       		.byte	0x29
 9268 2dd9 8901     		.2byte	0x189
 9269 2ddb 13       		.byte	0x13
 9270 2ddc 54090000 		.4byte	0x954
 9271 2de0 04       		.byte	0x4
 9272 2de1 17       		.uleb128 0x17
 9273 2de2 05260000 		.4byte	.LASF584
 9274 2de6 29       		.byte	0x29
 9275 2de7 8C01     		.2byte	0x18c
 9276 2de9 13       		.byte	0x13
 9277 2dea AE2D0000 		.4byte	0x2dae
 9278 2dee 08       		.byte	0x8
 9279 2def 00       		.byte	0
 9280 2df0 05       		.uleb128 0x5
 9281 2df1 DE010000 		.4byte	.LASF585
 9282 2df5 29       		.byte	0x29
 9283 2df6 8E01     		.2byte	0x18e
 9284 2df8 03       		.byte	0x3
 9285 2df9 BB2D0000 		.4byte	0x2dbb
 9286 2dfd 15       		.uleb128 0x15
 9287 2dfe F02D0000 		.4byte	0x2df0
 9288 2e02 05       		.uleb128 0x5
 9289 2e03 BB040000 		.4byte	.LASF586
 9290 2e07 29       		.byte	0x29
 9291 2e08 9301     		.2byte	0x193
 9292 2e0a 1A       		.byte	0x1a
 9293 2e0b 0F2E0000 		.4byte	0x2e0f
 9294 2e0f 1A       		.uleb128 0x1a
 9295 2e10 BB040000 		.4byte	.LASF586
 9296 2e14 3C       		.byte	0x3c
 9297 2e15 29       		.byte	0x29
 9298 2e16 9801     		.2byte	0x198
 9299 2e18 08       		.byte	0x8
 9300 2e19 B82E0000 		.4byte	0x2eb8
 9301 2e1d 17       		.uleb128 0x17
 9302 2e1e 92160000 		.4byte	.LASF455
 9303 2e22 29       		.byte	0x29
 9304 2e23 9C01     		.2byte	0x19c
 9305 2e25 1D       		.byte	0x1d
 9306 2e26 372D0000 		.4byte	0x2d37
 9307 2e2a 00       		.byte	0
 9308 2e2b 17       		.uleb128 0x17
 9309 2e2c A51C0000 		.4byte	.LASF456
 9310 2e30 29       		.byte	0x29
 9311 2e31 A001     		.2byte	0x1a0
 9312 2e33 1E       		.byte	0x1e
 9313 2e34 B82E0000 		.4byte	0x2eb8
 9314 2e38 04       		.byte	0x4
 9315 2e39 17       		.uleb128 0x17
 9316 2e3a 47010000 		.4byte	.LASF587
 9317 2e3e 29       		.byte	0x29
 9318 2e3f A401     		.2byte	0x1a4
 9319 2e41 1D       		.byte	0x1d
 9320 2e42 502D0000 		.4byte	0x2d50
 9321 2e46 08       		.byte	0x8
 9322 2e47 17       		.uleb128 0x17
 9323 2e48 4E0C0000 		.4byte	.LASF461
ARM GAS  /tmp/ccDzFi87.s 			page 165


 9324 2e4c 29       		.byte	0x29
 9325 2e4d A901     		.2byte	0x1a9
 9326 2e4f 1D       		.byte	0x1d
 9327 2e50 F91C0000 		.4byte	0x1cf9
 9328 2e54 0C       		.byte	0xc
 9329 2e55 17       		.uleb128 0x17
 9330 2e56 30070000 		.4byte	.LASF460
 9331 2e5a 29       		.byte	0x29
 9332 2e5b B201     		.2byte	0x1b2
 9333 2e5d 1D       		.byte	0x1d
 9334 2e5e 580B0000 		.4byte	0xb58
 9335 2e62 20       		.byte	0x20
 9336 2e63 17       		.uleb128 0x17
 9337 2e64 BC0D0000 		.4byte	.LASF588
 9338 2e68 29       		.byte	0x29
 9339 2e69 B601     		.2byte	0x1b6
 9340 2e6b 1D       		.byte	0x1d
 9341 2e6c 432D0000 		.4byte	0x2d43
 9342 2e70 24       		.byte	0x24
 9343 2e71 17       		.uleb128 0x17
 9344 2e72 90080000 		.4byte	.LASF589
 9345 2e76 29       		.byte	0x29
 9346 2e77 BA01     		.2byte	0x1ba
 9347 2e79 1D       		.byte	0x1d
 9348 2e7a 54090000 		.4byte	0x954
 9349 2e7e 28       		.byte	0x28
 9350 2e7f 17       		.uleb128 0x17
 9351 2e80 E9080000 		.4byte	.LASF590
 9352 2e84 29       		.byte	0x29
 9353 2e85 BE01     		.2byte	0x1be
 9354 2e87 1D       		.byte	0x1d
 9355 2e88 54090000 		.4byte	0x954
 9356 2e8c 2C       		.byte	0x2c
 9357 2e8d 17       		.uleb128 0x17
 9358 2e8e 08010000 		.4byte	.LASF591
 9359 2e92 29       		.byte	0x29
 9360 2e93 C201     		.2byte	0x1c2
 9361 2e95 1E       		.byte	0x1e
 9362 2e96 6B250000 		.4byte	0x256b
 9363 2e9a 30       		.byte	0x30
 9364 2e9b 17       		.uleb128 0x17
 9365 2e9c F1010000 		.4byte	.LASF592
 9366 2ea0 29       		.byte	0x29
 9367 2ea1 C601     		.2byte	0x1c6
 9368 2ea3 1E       		.byte	0x1e
 9369 2ea4 6B250000 		.4byte	0x256b
 9370 2ea8 34       		.byte	0x34
 9371 2ea9 21       		.uleb128 0x21
 9372 2eaa 69326300 		.ascii	"i2c\000"
 9373 2eae 29       		.byte	0x29
 9374 2eaf CA01     		.2byte	0x1ca
 9375 2eb1 1E       		.byte	0x1e
 9376 2eb2 BE2E0000 		.4byte	0x2ebe
 9377 2eb6 38       		.byte	0x38
 9378 2eb7 00       		.byte	0
 9379 2eb8 0F       		.uleb128 0xf
 9380 2eb9 04       		.byte	0x4
ARM GAS  /tmp/ccDzFi87.s 			page 166


 9381 2eba FD2D0000 		.4byte	0x2dfd
 9382 2ebe 0F       		.uleb128 0xf
 9383 2ebf 04       		.byte	0x4
 9384 2ec0 B2130000 		.4byte	0x13b2
 9385 2ec4 20       		.uleb128 0x20
 9386 2ec5 8F100000 		.4byte	.LASF593
 9387 2ec9 29       		.byte	0x29
 9388 2eca E001     		.2byte	0x1e0
 9389 2ecc 12       		.byte	0x12
 9390 2ecd 022E0000 		.4byte	0x2e02
 9391 2ed1 27       		.uleb128 0x27
 9392 2ed2 07       		.byte	0x7
 9393 2ed3 01       		.byte	0x1
 9394 2ed4 61000000 		.4byte	0x61
 9395 2ed8 2A       		.byte	0x2a
 9396 2ed9 39       		.byte	0x39
 9397 2eda 0E       		.byte	0xe
 9398 2edb FE2E0000 		.4byte	0x2efe
 9399 2edf 28       		.uleb128 0x28
 9400 2ee0 350F0000 		.4byte	.LASF594
 9401 2ee4 00       		.byte	0
 9402 2ee5 28       		.uleb128 0x28
 9403 2ee6 340C0000 		.4byte	.LASF595
 9404 2eea 01       		.byte	0x1
 9405 2eeb 28       		.uleb128 0x28
 9406 2eec 9B150000 		.4byte	.LASF596
 9407 2ef0 02       		.byte	0x2
 9408 2ef1 28       		.uleb128 0x28
 9409 2ef2 BC190000 		.4byte	.LASF597
 9410 2ef6 03       		.byte	0x3
 9411 2ef7 28       		.uleb128 0x28
 9412 2ef8 111F0000 		.4byte	.LASF598
 9413 2efc 04       		.byte	0x4
 9414 2efd 00       		.byte	0
 9415 2efe 03       		.uleb128 0x3
 9416 2eff 52220000 		.4byte	.LASF599
 9417 2f03 2A       		.byte	0x2a
 9418 2f04 3F       		.byte	0x3f
 9419 2f05 03       		.byte	0x3
 9420 2f06 D12E0000 		.4byte	0x2ed1
 9421 2f0a 03       		.uleb128 0x3
 9422 2f0b EB250000 		.4byte	.LASF600
 9423 2f0f 2B       		.byte	0x2b
 9424 2f10 E2       		.byte	0xe2
 9425 2f11 1A       		.byte	0x1a
 9426 2f12 162F0000 		.4byte	0x2f16
 9427 2f16 1A       		.uleb128 0x1a
 9428 2f17 EB250000 		.4byte	.LASF600
 9429 2f1b 20       		.byte	0x20
 9430 2f1c 2B       		.byte	0x2b
 9431 2f1d 1B01     		.2byte	0x11b
 9432 2f1f 08       		.byte	0x8
 9433 2f20 952F0000 		.4byte	0x2f95
 9434 2f24 17       		.uleb128 0x17
 9435 2f25 92160000 		.4byte	.LASF455
 9436 2f29 2B       		.byte	0x2b
 9437 2f2a 1F01     		.2byte	0x11f
ARM GAS  /tmp/ccDzFi87.s 			page 167


 9438 2f2c 1D       		.byte	0x1d
 9439 2f2d FE2E0000 		.4byte	0x2efe
 9440 2f31 00       		.byte	0
 9441 2f32 17       		.uleb128 0x17
 9442 2f33 A51C0000 		.4byte	.LASF456
 9443 2f37 2B       		.byte	0x2b
 9444 2f38 2301     		.2byte	0x123
 9445 2f3a 1E       		.byte	0x1e
 9446 2f3b 36300000 		.4byte	0x3036
 9447 2f3f 04       		.byte	0x4
 9448 2f40 21       		.uleb128 0x21
 9449 2f41 73706900 		.ascii	"spi\000"
 9450 2f45 2B       		.byte	0x2b
 9451 2f46 2801     		.2byte	0x128
 9452 2f48 1E       		.byte	0x1e
 9453 2f49 3C300000 		.4byte	0x303c
 9454 2f4d 08       		.byte	0x8
 9455 2f4e 21       		.uleb128 0x21
 9456 2f4f 63666700 		.ascii	"cfg\000"
 9457 2f53 2B       		.byte	0x2b
 9458 2f54 2C01     		.2byte	0x12c
 9459 2f56 1D       		.byte	0x1d
 9460 2f57 48090000 		.4byte	0x948
 9461 2f5b 0C       		.byte	0xc
 9462 2f5c 17       		.uleb128 0x17
 9463 2f5d 08010000 		.4byte	.LASF591
 9464 2f61 2B       		.byte	0x2b
 9465 2f62 3001     		.2byte	0x130
 9466 2f64 1E       		.byte	0x1e
 9467 2f65 6B250000 		.4byte	0x256b
 9468 2f69 10       		.byte	0x10
 9469 2f6a 17       		.uleb128 0x17
 9470 2f6b F1010000 		.4byte	.LASF592
 9471 2f6f 2B       		.byte	0x2b
 9472 2f70 3401     		.2byte	0x134
 9473 2f72 1E       		.byte	0x1e
 9474 2f73 6B250000 		.4byte	0x256b
 9475 2f77 14       		.byte	0x14
 9476 2f78 17       		.uleb128 0x17
 9477 2f79 90080000 		.4byte	.LASF589
 9478 2f7d 2B       		.byte	0x2b
 9479 2f7e 3801     		.2byte	0x138
 9480 2f80 1D       		.byte	0x1d
 9481 2f81 54090000 		.4byte	0x954
 9482 2f85 18       		.byte	0x18
 9483 2f86 17       		.uleb128 0x17
 9484 2f87 E9080000 		.4byte	.LASF590
 9485 2f8b 2B       		.byte	0x2b
 9486 2f8c 3C01     		.2byte	0x13c
 9487 2f8e 1D       		.byte	0x1d
 9488 2f8f 54090000 		.4byte	0x954
 9489 2f93 1C       		.byte	0x1c
 9490 2f94 00       		.byte	0
 9491 2f95 03       		.uleb128 0x3
 9492 2f96 D5080000 		.4byte	.LASF601
 9493 2f9a 2B       		.byte	0x2b
 9494 2f9b EB       		.byte	0xeb
ARM GAS  /tmp/ccDzFi87.s 			page 168


 9495 2f9c 10       		.byte	0x10
 9496 2f9d A12F0000 		.4byte	0x2fa1
 9497 2fa1 0F       		.uleb128 0xf
 9498 2fa2 04       		.byte	0x4
 9499 2fa3 A72F0000 		.4byte	0x2fa7
 9500 2fa7 1F       		.uleb128 0x1f
 9501 2fa8 BC2F0000 		.4byte	0x2fbc
 9502 2fac 14       		.uleb128 0x14
 9503 2fad BC2F0000 		.4byte	0x2fbc
 9504 2fb1 14       		.uleb128 0x14
 9505 2fb2 2C000000 		.4byte	0x2c
 9506 2fb6 14       		.uleb128 0x14
 9507 2fb7 2C000000 		.4byte	0x2c
 9508 2fbb 00       		.byte	0
 9509 2fbc 0F       		.uleb128 0xf
 9510 2fbd 04       		.byte	0x4
 9511 2fbe 0A2F0000 		.4byte	0x2f0a
 9512 2fc2 0A       		.uleb128 0xa
 9513 2fc3 14       		.byte	0x14
 9514 2fc4 2B       		.byte	0x2b
 9515 2fc5 F1       		.byte	0xf1
 9516 2fc6 09       		.byte	0x9
 9517 2fc7 1D300000 		.4byte	0x301d
 9518 2fcb 0B       		.uleb128 0xb
 9519 2fcc 7E010000 		.4byte	.LASF602
 9520 2fd0 2B       		.byte	0x2b
 9521 2fd1 F6       		.byte	0xf6
 9522 2fd2 1E       		.byte	0x1e
 9523 2fd3 1D300000 		.4byte	0x301d
 9524 2fd7 00       		.byte	0
 9525 2fd8 0B       		.uleb128 0xb
 9526 2fd9 3D010000 		.4byte	.LASF603
 9527 2fdd 2B       		.byte	0x2b
 9528 2fde FB       		.byte	0xfb
 9529 2fdf 1E       		.byte	0x1e
 9530 2fe0 05010000 		.4byte	0x105
 9531 2fe4 04       		.byte	0x4
 9532 2fe5 0B       		.uleb128 0xb
 9533 2fe6 540C0000 		.4byte	.LASF604
 9534 2fea 2B       		.byte	0x2b
 9535 2feb FF       		.byte	0xff
 9536 2fec 1D       		.byte	0x1d
 9537 2fed 2C000000 		.4byte	0x2c
 9538 2ff1 08       		.byte	0x8
 9539 2ff2 17       		.uleb128 0x17
 9540 2ff3 51090000 		.4byte	.LASF468
 9541 2ff7 2B       		.byte	0x2b
 9542 2ff8 0301     		.2byte	0x103
 9543 2ffa 1D       		.byte	0x1d
 9544 2ffb 952F0000 		.4byte	0x2f95
 9545 2fff 0C       		.byte	0xc
 9546 3000 17       		.uleb128 0x17
 9547 3001 1D1A0000 		.4byte	.LASF605
 9548 3005 2B       		.byte	0x2b
 9549 3006 0F01     		.2byte	0x10f
 9550 3008 1D       		.byte	0x1d
 9551 3009 1A090000 		.4byte	0x91a
ARM GAS  /tmp/ccDzFi87.s 			page 169


 9552 300d 10       		.byte	0x10
 9553 300e 17       		.uleb128 0x17
 9554 300f E9060000 		.4byte	.LASF606
 9555 3013 2B       		.byte	0x2b
 9556 3014 1501     		.2byte	0x115
 9557 3016 1D       		.byte	0x1d
 9558 3017 1A090000 		.4byte	0x91a
 9559 301b 12       		.byte	0x12
 9560 301c 00       		.byte	0
 9561 301d 0F       		.uleb128 0xf
 9562 301e 04       		.byte	0x4
 9563 301f 23300000 		.4byte	0x3023
 9564 3023 2B       		.uleb128 0x2b
 9565 3024 05       		.uleb128 0x5
 9566 3025 10260000 		.4byte	.LASF607
 9567 3029 2B       		.byte	0x2b
 9568 302a 1601     		.2byte	0x116
 9569 302c 03       		.byte	0x3
 9570 302d C22F0000 		.4byte	0x2fc2
 9571 3031 15       		.uleb128 0x15
 9572 3032 24300000 		.4byte	0x3024
 9573 3036 0F       		.uleb128 0xf
 9574 3037 04       		.byte	0x4
 9575 3038 31300000 		.4byte	0x3031
 9576 303c 0F       		.uleb128 0xf
 9577 303d 04       		.byte	0x4
 9578 303e 41170000 		.4byte	0x1741
 9579 3042 20       		.uleb128 0x20
 9580 3043 56260000 		.4byte	.LASF608
 9581 3047 2B       		.byte	0x2b
 9582 3048 4801     		.2byte	0x148
 9583 304a 12       		.byte	0x12
 9584 304b 0A2F0000 		.4byte	0x2f0a
 9585 304f 27       		.uleb128 0x27
 9586 3050 07       		.byte	0x7
 9587 3051 01       		.byte	0x1
 9588 3052 61000000 		.4byte	0x61
 9589 3056 2C       		.byte	0x2c
 9590 3057 4A       		.byte	0x4a
 9591 3058 0E       		.byte	0xe
 9592 3059 70300000 		.4byte	0x3070
 9593 305d 28       		.uleb128 0x28
 9594 305e 8B070000 		.4byte	.LASF609
 9595 3062 00       		.byte	0
 9596 3063 28       		.uleb128 0x28
 9597 3064 3D0C0000 		.4byte	.LASF610
 9598 3068 01       		.byte	0x1
 9599 3069 28       		.uleb128 0x28
 9600 306a 5C0F0000 		.4byte	.LASF611
 9601 306e 02       		.byte	0x2
 9602 306f 00       		.byte	0
 9603 3070 03       		.uleb128 0x3
 9604 3071 7F030000 		.4byte	.LASF612
 9605 3075 2C       		.byte	0x2c
 9606 3076 4E       		.byte	0x4e
 9607 3077 03       		.byte	0x3
 9608 3078 4F300000 		.4byte	0x304f
ARM GAS  /tmp/ccDzFi87.s 			page 170


 9609 307c 03       		.uleb128 0x3
 9610 307d 700B0000 		.4byte	.LASF613
 9611 3081 2C       		.byte	0x2c
 9612 3082 53       		.byte	0x53
 9613 3083 1A       		.byte	0x1a
 9614 3084 88300000 		.4byte	0x3088
 9615 3088 1A       		.uleb128 0x1a
 9616 3089 700B0000 		.4byte	.LASF613
 9617 308d 1C       		.byte	0x1c
 9618 308e 2D       		.byte	0x2d
 9619 308f 7901     		.2byte	0x179
 9620 3091 08       		.byte	0x8
 9621 3092 F9300000 		.4byte	0x30f9
 9622 3096 17       		.uleb128 0x17
 9623 3097 92160000 		.4byte	.LASF455
 9624 309b 2D       		.byte	0x2d
 9625 309c 7D01     		.2byte	0x17d
 9626 309e 1D       		.byte	0x1d
 9627 309f 70300000 		.4byte	0x3070
 9628 30a3 00       		.byte	0
 9629 30a4 17       		.uleb128 0x17
 9630 30a5 A51C0000 		.4byte	.LASF456
 9631 30a9 2D       		.byte	0x2d
 9632 30aa 8101     		.2byte	0x181
 9633 30ac 1E       		.byte	0x1e
 9634 30ad 05320000 		.4byte	0x3205
 9635 30b1 04       		.byte	0x4
 9636 30b2 17       		.uleb128 0x17
 9637 30b3 0F120000 		.4byte	.LASF614
 9638 30b7 2D       		.byte	0x2d
 9639 30b8 8501     		.2byte	0x185
 9640 30ba 1D       		.byte	0x1d
 9641 30bb 43310000 		.4byte	0x3143
 9642 30bf 08       		.byte	0x8
 9643 30c0 17       		.uleb128 0x17
 9644 30c1 8D1A0000 		.4byte	.LASF615
 9645 30c5 2D       		.byte	0x2d
 9646 30c6 8901     		.2byte	0x189
 9647 30c8 1D       		.byte	0x1d
 9648 30c9 36310000 		.4byte	0x3136
 9649 30cd 0C       		.byte	0xc
 9650 30ce 17       		.uleb128 0x17
 9651 30cf 87210000 		.4byte	.LASF536
 9652 30d3 2D       		.byte	0x2d
 9653 30d4 8D01     		.2byte	0x18d
 9654 30d6 1D       		.byte	0x1d
 9655 30d7 29310000 		.4byte	0x3129
 9656 30db 10       		.byte	0x10
 9657 30dc 17       		.uleb128 0x17
 9658 30dd 770C0000 		.4byte	.LASF546
 9659 30e1 2D       		.byte	0x2d
 9660 30e2 9501     		.2byte	0x195
 9661 30e4 1D       		.byte	0x1d
 9662 30e5 54090000 		.4byte	0x954
 9663 30e9 14       		.byte	0x14
 9664 30ea 21       		.uleb128 0x21
 9665 30eb 74696D00 		.ascii	"tim\000"
ARM GAS  /tmp/ccDzFi87.s 			page 171


 9666 30ef 2D       		.byte	0x2d
 9667 30f0 9901     		.2byte	0x199
 9668 30f2 1E       		.byte	0x1e
 9669 30f3 E42C0000 		.4byte	0x2ce4
 9670 30f7 18       		.byte	0x18
 9671 30f8 00       		.byte	0
 9672 30f9 03       		.uleb128 0x3
 9673 30fa F00F0000 		.4byte	.LASF616
 9674 30fe 2C       		.byte	0x2c
 9675 30ff 5A       		.byte	0x5a
 9676 3100 10       		.byte	0x10
 9677 3101 05310000 		.4byte	0x3105
 9678 3105 0F       		.uleb128 0xf
 9679 3106 04       		.byte	0x4
 9680 3107 0B310000 		.4byte	0x310b
 9681 310b 1F       		.uleb128 0x1f
 9682 310c 16310000 		.4byte	0x3116
 9683 3110 14       		.uleb128 0x14
 9684 3111 16310000 		.4byte	0x3116
 9685 3115 00       		.byte	0
 9686 3116 0F       		.uleb128 0xf
 9687 3117 04       		.byte	0x4
 9688 3118 7C300000 		.4byte	0x307c
 9689 311c 05       		.uleb128 0x5
 9690 311d C5150000 		.4byte	.LASF617
 9691 3121 2D       		.byte	0x2d
 9692 3122 2501     		.2byte	0x125
 9693 3124 12       		.byte	0x12
 9694 3125 54090000 		.4byte	0x954
 9695 3129 05       		.uleb128 0x5
 9696 312a 15180000 		.4byte	.LASF618
 9697 312e 2D       		.byte	0x2d
 9698 312f 2A01     		.2byte	0x12a
 9699 3131 11       		.byte	0x11
 9700 3132 37090000 		.4byte	0x937
 9701 3136 05       		.uleb128 0x5
 9702 3137 67150000 		.4byte	.LASF619
 9703 313b 2D       		.byte	0x2d
 9704 313c 2F01     		.2byte	0x12f
 9705 313e 12       		.byte	0x12
 9706 313f 54090000 		.4byte	0x954
 9707 3143 05       		.uleb128 0x5
 9708 3144 340D0000 		.4byte	.LASF620
 9709 3148 2D       		.byte	0x2d
 9710 3149 3401     		.2byte	0x134
 9711 314b 12       		.byte	0x12
 9712 314c 54090000 		.4byte	0x954
 9713 3150 1B       		.uleb128 0x1b
 9714 3151 08       		.byte	0x8
 9715 3152 2D       		.byte	0x2d
 9716 3153 3901     		.2byte	0x139
 9717 3155 09       		.byte	0x9
 9718 3156 77310000 		.4byte	0x3177
 9719 315a 17       		.uleb128 0x17
 9720 315b A4080000 		.4byte	.LASF534
 9721 315f 2D       		.byte	0x2d
 9722 3160 3D01     		.2byte	0x13d
ARM GAS  /tmp/ccDzFi87.s 			page 172


 9723 3162 1D       		.byte	0x1d
 9724 3163 1C310000 		.4byte	0x311c
 9725 3167 00       		.byte	0
 9726 3168 17       		.uleb128 0x17
 9727 3169 0C170000 		.4byte	.LASF560
 9728 316d 2D       		.byte	0x2d
 9729 316e 4301     		.2byte	0x143
 9730 3170 1D       		.byte	0x1d
 9731 3171 F9300000 		.4byte	0x30f9
 9732 3175 04       		.byte	0x4
 9733 3176 00       		.byte	0
 9734 3177 05       		.uleb128 0x5
 9735 3178 230D0000 		.4byte	.LASF621
 9736 317c 2D       		.byte	0x2d
 9737 317d 4501     		.2byte	0x145
 9738 317f 03       		.byte	0x3
 9739 3180 50310000 		.4byte	0x3150
 9740 3184 1B       		.uleb128 0x1b
 9741 3185 34       		.byte	0x34
 9742 3186 2D       		.byte	0x2d
 9743 3187 4A01     		.2byte	0x14a
 9744 3189 09       		.byte	0x9
 9745 318a E3310000 		.4byte	0x31e3
 9746 318e 17       		.uleb128 0x17
 9747 318f 96240000 		.4byte	.LASF559
 9748 3193 2D       		.byte	0x2d
 9749 3194 5001     		.2byte	0x150
 9750 3196 1D       		.byte	0x1d
 9751 3197 54090000 		.4byte	0x954
 9752 319b 00       		.byte	0
 9753 319c 17       		.uleb128 0x17
 9754 319d 0F120000 		.4byte	.LASF614
 9755 31a1 2D       		.byte	0x2d
 9756 31a2 5601     		.2byte	0x156
 9757 31a4 1D       		.byte	0x1d
 9758 31a5 43310000 		.4byte	0x3143
 9759 31a9 04       		.byte	0x4
 9760 31aa 17       		.uleb128 0x17
 9761 31ab 0C170000 		.4byte	.LASF560
 9762 31af 2D       		.byte	0x2d
 9763 31b0 5C01     		.2byte	0x15c
 9764 31b2 1D       		.byte	0x1d
 9765 31b3 F9300000 		.4byte	0x30f9
 9766 31b7 08       		.byte	0x8
 9767 31b8 17       		.uleb128 0x17
 9768 31b9 87210000 		.4byte	.LASF536
 9769 31bd 2D       		.byte	0x2d
 9770 31be 6001     		.2byte	0x160
 9771 31c0 1D       		.byte	0x1d
 9772 31c1 E3310000 		.4byte	0x31e3
 9773 31c5 0C       		.byte	0xc
 9774 31c6 21       		.uleb128 0x21
 9775 31c7 63723200 		.ascii	"cr2\000"
 9776 31cb 2D       		.byte	0x2d
 9777 31cc 6601     		.2byte	0x166
 9778 31ce 1D       		.byte	0x1d
 9779 31cf 54090000 		.4byte	0x954
ARM GAS  /tmp/ccDzFi87.s 			page 173


 9780 31d3 2C       		.byte	0x2c
 9781 31d4 17       		.uleb128 0x17
 9782 31d5 F80B0000 		.4byte	.LASF561
 9783 31d9 2D       		.byte	0x2d
 9784 31da 7301     		.2byte	0x173
 9785 31dc 1D       		.byte	0x1d
 9786 31dd 54090000 		.4byte	0x954
 9787 31e1 30       		.byte	0x30
 9788 31e2 00       		.byte	0
 9789 31e3 08       		.uleb128 0x8
 9790 31e4 77310000 		.4byte	0x3177
 9791 31e8 F3310000 		.4byte	0x31f3
 9792 31ec 09       		.uleb128 0x9
 9793 31ed 38000000 		.4byte	0x38
 9794 31f1 03       		.byte	0x3
 9795 31f2 00       		.byte	0
 9796 31f3 05       		.uleb128 0x5
 9797 31f4 810B0000 		.4byte	.LASF622
 9798 31f8 2D       		.byte	0x2d
 9799 31f9 7401     		.2byte	0x174
 9800 31fb 03       		.byte	0x3
 9801 31fc 84310000 		.4byte	0x3184
 9802 3200 15       		.uleb128 0x15
 9803 3201 F3310000 		.4byte	0x31f3
 9804 3205 0F       		.uleb128 0xf
 9805 3206 04       		.byte	0x4
 9806 3207 00320000 		.4byte	0x3200
 9807 320b 20       		.uleb128 0x20
 9808 320c C0100000 		.4byte	.LASF623
 9809 3210 2D       		.byte	0x2d
 9810 3211 BC01     		.2byte	0x1bc
 9811 3213 12       		.byte	0x12
 9812 3214 7C300000 		.4byte	0x307c
 9813 3218 20       		.uleb128 0x20
 9814 3219 C6100000 		.4byte	.LASF624
 9815 321d 2D       		.byte	0x2d
 9816 321e C001     		.2byte	0x1c0
 9817 3220 12       		.byte	0x12
 9818 3221 7C300000 		.4byte	0x307c
 9819 3225 20       		.uleb128 0x20
 9820 3226 CC100000 		.4byte	.LASF625
 9821 322a 2D       		.byte	0x2d
 9822 322b C401     		.2byte	0x1c4
 9823 322d 12       		.byte	0x12
 9824 322e 7C300000 		.4byte	0x307c
 9825 3232 20       		.uleb128 0x20
 9826 3233 D2100000 		.4byte	.LASF626
 9827 3237 2D       		.byte	0x2d
 9828 3238 C801     		.2byte	0x1c8
 9829 323a 12       		.byte	0x12
 9830 323b 7C300000 		.4byte	0x307c
 9831 323f 27       		.uleb128 0x27
 9832 3240 07       		.byte	0x7
 9833 3241 01       		.byte	0x1
 9834 3242 61000000 		.4byte	0x61
 9835 3246 2E       		.byte	0x2e
 9836 3247 55       		.byte	0x55
ARM GAS  /tmp/ccDzFi87.s 			page 174


 9837 3248 0E       		.byte	0xe
 9838 3249 60320000 		.4byte	0x3260
 9839 324d 28       		.uleb128 0x28
 9840 324e D1060000 		.4byte	.LASF627
 9841 3252 00       		.byte	0
 9842 3253 28       		.uleb128 0x28
 9843 3254 AA0C0000 		.4byte	.LASF628
 9844 3258 01       		.byte	0x1
 9845 3259 28       		.uleb128 0x28
 9846 325a DB0E0000 		.4byte	.LASF629
 9847 325e 02       		.byte	0x2
 9848 325f 00       		.byte	0
 9849 3260 03       		.uleb128 0x3
 9850 3261 20190000 		.4byte	.LASF630
 9851 3265 2E       		.byte	0x2e
 9852 3266 59       		.byte	0x59
 9853 3267 03       		.byte	0x3
 9854 3268 3F320000 		.4byte	0x323f
 9855 326c 03       		.uleb128 0x3
 9856 326d B2210000 		.4byte	.LASF631
 9857 3271 2E       		.byte	0x2e
 9858 3272 5E       		.byte	0x5e
 9859 3273 1D       		.byte	0x1d
 9860 3274 78320000 		.4byte	0x3278
 9861 3278 0D       		.uleb128 0xd
 9862 3279 B2210000 		.4byte	.LASF631
 9863 327d 78       		.byte	0x78
 9864 327e 2E       		.byte	0x2e
 9865 327f 78       		.byte	0x78
 9866 3280 08       		.byte	0x8
 9867 3281 EC320000 		.4byte	0x32ec
 9868 3285 0E       		.uleb128 0xe
 9869 3286 766D7400 		.ascii	"vmt\000"
 9870 328a 2E       		.byte	0x2e
 9871 328b 7A       		.byte	0x7a
 9872 328c 21       		.byte	0x21
 9873 328d 74330000 		.4byte	0x3374
 9874 3291 00       		.byte	0
 9875 3292 0B       		.uleb128 0xb
 9876 3293 32000000 		.4byte	.LASF632
 9877 3297 2E       		.byte	0x2e
 9878 3298 7B       		.byte	0x7b
 9879 3299 03       		.byte	0x3
 9880 329a 871D0000 		.4byte	0x1d87
 9881 329e 04       		.byte	0x4
 9882 329f 0B       		.uleb128 0xb
 9883 32a0 92160000 		.4byte	.LASF455
 9884 32a4 2E       		.byte	0x2e
 9885 32a5 7B       		.byte	0x7b
 9886 32a6 03       		.byte	0x3
 9887 32a7 60320000 		.4byte	0x3260
 9888 32ab 08       		.byte	0x8
 9889 32ac 0B       		.uleb128 0xb
 9890 32ad 01190000 		.4byte	.LASF633
 9891 32b1 2E       		.byte	0x2e
 9892 32b2 7B       		.byte	0x7b
 9893 32b3 03       		.byte	0x3
ARM GAS  /tmp/ccDzFi87.s 			page 175


 9894 32b4 3E1E0000 		.4byte	0x1e3e
 9895 32b8 0C       		.byte	0xc
 9896 32b9 0B       		.uleb128 0xb
 9897 32ba E2100000 		.4byte	.LASF634
 9898 32be 2E       		.byte	0x2e
 9899 32bf 7B       		.byte	0x7b
 9900 32c0 03       		.byte	0x3
 9901 32c1 4A1E0000 		.4byte	0x1e4a
 9902 32c5 30       		.byte	0x30
 9903 32c6 0E       		.uleb128 0xe
 9904 32c7 696200   		.ascii	"ib\000"
 9905 32ca 2E       		.byte	0x2e
 9906 32cb 7B       		.byte	0x7b
 9907 32cc 03       		.byte	0x3
 9908 32cd 7A330000 		.4byte	0x337a
 9909 32d1 54       		.byte	0x54
 9910 32d2 0E       		.uleb128 0xe
 9911 32d3 6F6200   		.ascii	"ob\000"
 9912 32d6 2E       		.byte	0x2e
 9913 32d7 7B       		.byte	0x7b
 9914 32d8 03       		.byte	0x3
 9915 32d9 7A330000 		.4byte	0x337a
 9916 32dd 64       		.byte	0x64
 9917 32de 0B       		.uleb128 0xb
 9918 32df B51A0000 		.4byte	.LASF635
 9919 32e3 2E       		.byte	0x2e
 9920 32e4 7B       		.byte	0x7b
 9921 32e5 03       		.byte	0x3
 9922 32e6 8A330000 		.4byte	0x338a
 9923 32ea 74       		.byte	0x74
 9924 32eb 00       		.byte	0
 9925 32ec 26       		.uleb128 0x26
 9926 32ed 53443300 		.ascii	"SD3\000"
 9927 32f1 2F       		.byte	0x2f
 9928 32f2 1501     		.2byte	0x115
 9929 32f4 15       		.byte	0x15
 9930 32f5 6C320000 		.4byte	0x326c
 9931 32f9 0D       		.uleb128 0xd
 9932 32fa 5B0E0000 		.4byte	.LASF636
 9933 32fe 20       		.byte	0x20
 9934 32ff 2E       		.byte	0x2e
 9935 3300 6D       		.byte	0x6d
 9936 3301 08       		.byte	0x8
 9937 3302 6F330000 		.4byte	0x336f
 9938 3306 0B       		.uleb128 0xb
 9939 3307 F0180000 		.4byte	.LASF637
 9940 330b 2E       		.byte	0x2e
 9941 330c 6E       		.byte	0x6e
 9942 330d 03       		.byte	0x3
 9943 330e 751E0000 		.4byte	0x1e75
 9944 3312 00       		.byte	0
 9945 3313 0B       		.uleb128 0xb
 9946 3314 D3040000 		.4byte	.LASF638
 9947 3318 2E       		.byte	0x2e
 9948 3319 6E       		.byte	0x6e
 9949 331a 03       		.byte	0x3
 9950 331b 941E0000 		.4byte	0x1e94
ARM GAS  /tmp/ccDzFi87.s 			page 176


 9951 331f 04       		.byte	0x4
 9952 3320 0E       		.uleb128 0xe
 9953 3321 70757400 		.ascii	"put\000"
 9954 3325 2E       		.byte	0x2e
 9955 3326 6E       		.byte	0x6e
 9956 3327 03       		.byte	0x3
 9957 3328 AE1E0000 		.4byte	0x1eae
 9958 332c 08       		.byte	0x8
 9959 332d 0E       		.uleb128 0xe
 9960 332e 67657400 		.ascii	"get\000"
 9961 3332 2E       		.byte	0x2e
 9962 3333 6E       		.byte	0x6e
 9963 3334 03       		.byte	0x3
 9964 3335 C31E0000 		.4byte	0x1ec3
 9965 3339 0C       		.byte	0xc
 9966 333a 0B       		.uleb128 0xb
 9967 333b 90140000 		.4byte	.LASF639
 9968 333f 2E       		.byte	0x2e
 9969 3340 6E       		.byte	0x6e
 9970 3341 03       		.byte	0x3
 9971 3342 6C1F0000 		.4byte	0x1f6c
 9972 3346 10       		.byte	0x10
 9973 3347 0B       		.uleb128 0xb
 9974 3348 D6180000 		.4byte	.LASF640
 9975 334c 2E       		.byte	0x2e
 9976 334d 6E       		.byte	0x6e
 9977 334e 03       		.byte	0x3
 9978 334f 861F0000 		.4byte	0x1f86
 9979 3353 14       		.byte	0x14
 9980 3354 0B       		.uleb128 0xb
 9981 3355 B5220000 		.4byte	.LASF641
 9982 3359 2E       		.byte	0x2e
 9983 335a 6E       		.byte	0x6e
 9984 335b 03       		.byte	0x3
 9985 335c AA1F0000 		.4byte	0x1faa
 9986 3360 18       		.byte	0x18
 9987 3361 0B       		.uleb128 0xb
 9988 3362 6B120000 		.4byte	.LASF642
 9989 3366 2E       		.byte	0x2e
 9990 3367 6E       		.byte	0x6e
 9991 3368 03       		.byte	0x3
 9992 3369 CE1F0000 		.4byte	0x1fce
 9993 336d 1C       		.byte	0x1c
 9994 336e 00       		.byte	0
 9995 336f 15       		.uleb128 0x15
 9996 3370 F9320000 		.4byte	0x32f9
 9997 3374 0F       		.uleb128 0xf
 9998 3375 04       		.byte	0x4
 9999 3376 6F330000 		.4byte	0x336f
 10000 337a 08       		.uleb128 0x8
 10001 337b 37090000 		.4byte	0x937
 10002 337f 8A330000 		.4byte	0x338a
 10003 3383 09       		.uleb128 0x9
 10004 3384 38000000 		.4byte	0x38
 10005 3388 0F       		.byte	0xf
 10006 3389 00       		.byte	0
 10007 338a 0F       		.uleb128 0xf
ARM GAS  /tmp/ccDzFi87.s 			page 177


 10008 338b 04       		.byte	0x4
 10009 338c B9170000 		.4byte	0x17b9
 10010 3390 27       		.uleb128 0x27
 10011 3391 07       		.byte	0x7
 10012 3392 01       		.byte	0x1
 10013 3393 61000000 		.4byte	0x61
 10014 3397 30       		.byte	0x30
 10015 3398 6C       		.byte	0x6c
 10016 3399 0E       		.byte	0xe
 10017 339a B1330000 		.4byte	0x33b1
 10018 339e 28       		.uleb128 0x28
 10019 339f 2C030000 		.4byte	.LASF643
 10020 33a3 00       		.byte	0
 10021 33a4 28       		.uleb128 0x28
 10022 33a5 E1150000 		.4byte	.LASF644
 10023 33a9 01       		.byte	0x1
 10024 33aa 28       		.uleb128 0x28
 10025 33ab E6110000 		.4byte	.LASF645
 10026 33af 02       		.byte	0x2
 10027 33b0 00       		.byte	0
 10028 33b1 03       		.uleb128 0x3
 10029 33b2 8A1B0000 		.4byte	.LASF646
 10030 33b6 30       		.byte	0x30
 10031 33b7 70       		.byte	0x70
 10032 33b8 03       		.byte	0x3
 10033 33b9 90330000 		.4byte	0x3390
 10034 33bd 27       		.uleb128 0x27
 10035 33be 07       		.byte	0x7
 10036 33bf 01       		.byte	0x1
 10037 33c0 61000000 		.4byte	0x61
 10038 33c4 30       		.byte	0x30
 10039 33c5 75       		.byte	0x75
 10040 33c6 0E       		.byte	0xe
 10041 33c7 D8330000 		.4byte	0x33d8
 10042 33cb 28       		.uleb128 0x28
 10043 33cc 82140000 		.4byte	.LASF647
 10044 33d0 00       		.byte	0
 10045 33d1 28       		.uleb128 0x28
 10046 33d2 4E010000 		.4byte	.LASF648
 10047 33d6 01       		.byte	0x1
 10048 33d7 00       		.byte	0
 10049 33d8 03       		.uleb128 0x3
 10050 33d9 DC0B0000 		.4byte	.LASF649
 10051 33dd 30       		.byte	0x30
 10052 33de 78       		.byte	0x78
 10053 33df 03       		.byte	0x3
 10054 33e0 BD330000 		.4byte	0x33bd
 10055 33e4 03       		.uleb128 0x3
 10056 33e5 E61A0000 		.4byte	.LASF650
 10057 33e9 31       		.byte	0x31
 10058 33ea BF       		.byte	0xbf
 10059 33eb 12       		.byte	0x12
 10060 33ec 54090000 		.4byte	0x954
 10061 33f0 03       		.uleb128 0x3
 10062 33f1 9B000000 		.4byte	.LASF651
 10063 33f5 31       		.byte	0x31
 10064 33f6 C4       		.byte	0xc4
ARM GAS  /tmp/ccDzFi87.s 			page 178


 10065 33f7 12       		.byte	0x12
 10066 33f8 54090000 		.4byte	0x954
 10067 33fc 03       		.uleb128 0x3
 10068 33fd 96210000 		.4byte	.LASF652
 10069 3401 31       		.byte	0x31
 10070 3402 C9       		.byte	0xc9
 10071 3403 1A       		.byte	0x1a
 10072 3404 08340000 		.4byte	0x3408
 10073 3408 0D       		.uleb128 0xd
 10074 3409 96210000 		.4byte	.LASF652
 10075 340d 4C       		.byte	0x4c
 10076 340e 31       		.byte	0x31
 10077 340f F2       		.byte	0xf2
 10078 3410 08       		.byte	0x8
 10079 3411 C5340000 		.4byte	0x34c5
 10080 3415 0E       		.uleb128 0xe
 10081 3416 766D7400 		.ascii	"vmt\000"
 10082 341a 31       		.byte	0x31
 10083 341b F6       		.byte	0xf6
 10084 341c 1E       		.byte	0x1e
 10085 341d 75350000 		.4byte	0x3575
 10086 3421 00       		.byte	0
 10087 3422 0B       		.uleb128 0xb
 10088 3423 92160000 		.4byte	.LASF455
 10089 3427 31       		.byte	0x31
 10090 3428 F7       		.byte	0xf7
 10091 3429 03       		.byte	0x3
 10092 342a 19200000 		.4byte	0x2019
 10093 342e 04       		.byte	0x4
 10094 342f 0E       		.uleb128 0xe
 10095 3430 63696400 		.ascii	"cid\000"
 10096 3434 31       		.byte	0x31
 10097 3435 F7       		.byte	0xf7
 10098 3436 03       		.byte	0x3
 10099 3437 D9200000 		.4byte	0x20d9
 10100 343b 08       		.byte	0x8
 10101 343c 0E       		.uleb128 0xe
 10102 343d 63736400 		.ascii	"csd\000"
 10103 3441 31       		.byte	0x31
 10104 3442 F7       		.byte	0xf7
 10105 3443 03       		.byte	0x3
 10106 3444 D9200000 		.4byte	0x20d9
 10107 3448 18       		.byte	0x18
 10108 3449 0B       		.uleb128 0xb
 10109 344a 741D0000 		.4byte	.LASF653
 10110 344e 31       		.byte	0x31
 10111 344f F7       		.byte	0xf7
 10112 3450 03       		.byte	0x3
 10113 3451 54090000 		.4byte	0x954
 10114 3455 28       		.byte	0x28
 10115 3456 0B       		.uleb128 0xb
 10116 3457 A51C0000 		.4byte	.LASF456
 10117 345b 31       		.byte	0x31
 10118 345c FB       		.byte	0xfb
 10119 345d 1E       		.byte	0x1e
 10120 345e 7B350000 		.4byte	0x357b
 10121 3462 2C       		.byte	0x2c
ARM GAS  /tmp/ccDzFi87.s 			page 179


 10122 3463 0B       		.uleb128 0xb
 10123 3464 86040000 		.4byte	.LASF654
 10124 3468 31       		.byte	0x31
 10125 3469 FF       		.byte	0xff
 10126 346a 1D       		.byte	0x1d
 10127 346b E4330000 		.4byte	0x33e4
 10128 346f 30       		.byte	0x30
 10129 3470 17       		.uleb128 0x17
 10130 3471 47010000 		.4byte	.LASF587
 10131 3475 31       		.byte	0x31
 10132 3476 0301     		.2byte	0x103
 10133 3478 1D       		.byte	0x1d
 10134 3479 F0330000 		.4byte	0x33f0
 10135 347d 34       		.byte	0x34
 10136 347e 21       		.uleb128 0x21
 10137 347f 72636100 		.ascii	"rca\000"
 10138 3483 31       		.byte	0x31
 10139 3484 0701     		.2byte	0x107
 10140 3486 1D       		.byte	0x1d
 10141 3487 54090000 		.4byte	0x954
 10142 348b 38       		.byte	0x38
 10143 348c 17       		.uleb128 0x17
 10144 348d 30070000 		.4byte	.LASF460
 10145 3491 31       		.byte	0x31
 10146 3492 0C01     		.2byte	0x10c
 10147 3494 1D       		.byte	0x1d
 10148 3495 580B0000 		.4byte	0xb58
 10149 3499 3C       		.byte	0x3c
 10150 349a 17       		.uleb128 0x17
 10151 349b B2180000 		.4byte	.LASF463
 10152 349f 31       		.byte	0x31
 10153 34a0 1001     		.2byte	0x110
 10154 34a2 1D       		.byte	0x1d
 10155 34a3 54090000 		.4byte	0x954
 10156 34a7 40       		.byte	0x40
 10157 34a8 21       		.uleb128 0x21
 10158 34a9 646D6100 		.ascii	"dma\000"
 10159 34ad 31       		.byte	0x31
 10160 34ae 1401     		.2byte	0x114
 10161 34b0 1E       		.byte	0x1e
 10162 34b1 6B250000 		.4byte	0x256b
 10163 34b5 44       		.byte	0x44
 10164 34b6 17       		.uleb128 0x17
 10165 34b7 AA160000 		.4byte	.LASF655
 10166 34bb 31       		.byte	0x31
 10167 34bc 1901     		.2byte	0x119
 10168 34be 1E       		.byte	0x1e
 10169 34bf 81350000 		.4byte	0x3581
 10170 34c3 48       		.byte	0x48
 10171 34c4 00       		.byte	0
 10172 34c5 0A       		.uleb128 0xa
 10173 34c6 08       		.byte	0x8
 10174 34c7 31       		.byte	0x31
 10175 34c8 CF       		.byte	0xcf
 10176 34c9 09       		.byte	0x9
 10177 34ca E9340000 		.4byte	0x34e9
 10178 34ce 0B       		.uleb128 0xb
ARM GAS  /tmp/ccDzFi87.s 			page 180


 10179 34cf 800D0000 		.4byte	.LASF656
 10180 34d3 31       		.byte	0x31
 10181 34d4 D8       		.byte	0xd8
 10182 34d5 12       		.byte	0x12
 10183 34d6 381E0000 		.4byte	0x1e38
 10184 34da 00       		.byte	0
 10185 34db 0B       		.uleb128 0xb
 10186 34dc 87230000 		.4byte	.LASF657
 10187 34e0 31       		.byte	0x31
 10188 34e1 DC       		.byte	0xdc
 10189 34e2 11       		.byte	0x11
 10190 34e3 B1330000 		.4byte	0x33b1
 10191 34e7 04       		.byte	0x4
 10192 34e8 00       		.byte	0
 10193 34e9 03       		.uleb128 0x3
 10194 34ea 831A0000 		.4byte	.LASF658
 10195 34ee 31       		.byte	0x31
 10196 34ef DE       		.byte	0xde
 10197 34f0 03       		.byte	0x3
 10198 34f1 C5340000 		.4byte	0x34c5
 10199 34f5 15       		.uleb128 0x15
 10200 34f6 E9340000 		.4byte	0x34e9
 10201 34fa 0D       		.uleb128 0xd
 10202 34fb B2230000 		.4byte	.LASF659
 10203 34ff 20       		.byte	0x20
 10204 3500 31       		.byte	0x31
 10205 3501 EB       		.byte	0xeb
 10206 3502 08       		.byte	0x8
 10207 3503 70350000 		.4byte	0x3570
 10208 3507 0B       		.uleb128 0xb
 10209 3508 5C260000 		.4byte	.LASF660
 10210 350c 31       		.byte	0x31
 10211 350d EC       		.byte	0xec
 10212 350e 03       		.byte	0x3
 10213 350f 6B200000 		.4byte	0x206b
 10214 3513 00       		.byte	0
 10215 3514 0B       		.uleb128 0xb
 10216 3515 FD0B0000 		.4byte	.LASF661
 10217 3519 31       		.byte	0x31
 10218 351a EC       		.byte	0xec
 10219 351b 03       		.byte	0x3
 10220 351c 6B200000 		.4byte	0x206b
 10221 3520 04       		.byte	0x4
 10222 3521 0B       		.uleb128 0xb
 10223 3522 800E0000 		.4byte	.LASF662
 10224 3526 31       		.byte	0x31
 10225 3527 EC       		.byte	0xec
 10226 3528 03       		.byte	0x3
 10227 3529 6B200000 		.4byte	0x206b
 10228 352d 08       		.byte	0x8
 10229 352e 0B       		.uleb128 0xb
 10230 352f 77140000 		.4byte	.LASF663
 10231 3533 31       		.byte	0x31
 10232 3534 EC       		.byte	0xec
 10233 3535 03       		.byte	0x3
 10234 3536 6B200000 		.4byte	0x206b
 10235 353a 0C       		.byte	0xc
ARM GAS  /tmp/ccDzFi87.s 			page 181


 10236 353b 0B       		.uleb128 0xb
 10237 353c D3040000 		.4byte	.LASF638
 10238 3540 31       		.byte	0x31
 10239 3541 EC       		.byte	0xec
 10240 3542 03       		.byte	0x3
 10241 3543 8F200000 		.4byte	0x208f
 10242 3547 10       		.byte	0x10
 10243 3548 0B       		.uleb128 0xb
 10244 3549 F0180000 		.4byte	.LASF637
 10245 354d 31       		.byte	0x31
 10246 354e EC       		.byte	0xec
 10247 354f 03       		.byte	0x3
 10248 3550 B3200000 		.4byte	0x20b3
 10249 3554 14       		.byte	0x14
 10250 3555 0B       		.uleb128 0xb
 10251 3556 B01A0000 		.4byte	.LASF664
 10252 355a 31       		.byte	0x31
 10253 355b EC       		.byte	0xec
 10254 355c 03       		.byte	0x3
 10255 355d 6B200000 		.4byte	0x206b
 10256 3561 18       		.byte	0x18
 10257 3562 0B       		.uleb128 0xb
 10258 3563 0B230000 		.4byte	.LASF665
 10259 3567 31       		.byte	0x31
 10260 3568 EC       		.byte	0xec
 10261 3569 03       		.byte	0x3
 10262 356a D3200000 		.4byte	0x20d3
 10263 356e 1C       		.byte	0x1c
 10264 356f 00       		.byte	0
 10265 3570 15       		.uleb128 0x15
 10266 3571 FA340000 		.4byte	0x34fa
 10267 3575 0F       		.uleb128 0xf
 10268 3576 04       		.byte	0x4
 10269 3577 70350000 		.4byte	0x3570
 10270 357b 0F       		.uleb128 0xf
 10271 357c 04       		.byte	0x4
 10272 357d F5340000 		.4byte	0x34f5
 10273 3581 0F       		.uleb128 0xf
 10274 3582 04       		.byte	0x4
 10275 3583 AD160000 		.4byte	0x16ad
 10276 3587 20       		.uleb128 0x20
 10277 3588 090A0000 		.4byte	.LASF666
 10278 358c 31       		.byte	0x31
 10279 358d 2501     		.2byte	0x125
 10280 358f 12       		.byte	0x12
 10281 3590 FC330000 		.4byte	0x33fc
 10282 3594 27       		.uleb128 0x27
 10283 3595 07       		.byte	0x7
 10284 3596 01       		.byte	0x1
 10285 3597 61000000 		.4byte	0x61
 10286 359b 32       		.byte	0x32
 10287 359c 46       		.byte	0x46
 10288 359d 0E       		.byte	0xe
 10289 359e C1350000 		.4byte	0x35c1
 10290 35a2 28       		.uleb128 0x28
 10291 35a3 46070000 		.4byte	.LASF667
 10292 35a7 00       		.byte	0
ARM GAS  /tmp/ccDzFi87.s 			page 182


 10293 35a8 28       		.uleb128 0x28
 10294 35a9 D5020000 		.4byte	.LASF668
 10295 35ad 01       		.byte	0x1
 10296 35ae 28       		.uleb128 0x28
 10297 35af 5F230000 		.4byte	.LASF669
 10298 35b3 02       		.byte	0x2
 10299 35b4 28       		.uleb128 0x28
 10300 35b5 EC0D0000 		.4byte	.LASF670
 10301 35b9 03       		.byte	0x3
 10302 35ba 28       		.uleb128 0x28
 10303 35bb 96120000 		.4byte	.LASF671
 10304 35bf 04       		.byte	0x4
 10305 35c0 00       		.byte	0
 10306 35c1 03       		.uleb128 0x3
 10307 35c2 A80D0000 		.4byte	.LASF672
 10308 35c6 32       		.byte	0x32
 10309 35c7 4C       		.byte	0x4c
 10310 35c8 03       		.byte	0x3
 10311 35c9 94350000 		.4byte	0x3594
 10312 35cd 05       		.uleb128 0x5
 10313 35ce 63220000 		.4byte	.LASF673
 10314 35d2 33       		.byte	0x33
 10315 35d3 9601     		.2byte	0x196
 10316 35d5 1A       		.byte	0x1a
 10317 35d6 DA350000 		.4byte	0x35da
 10318 35da 1A       		.uleb128 0x1a
 10319 35db 63220000 		.4byte	.LASF673
 10320 35df 34       		.byte	0x34
 10321 35e0 33       		.byte	0x33
 10322 35e1 BA01     		.2byte	0x1ba
 10323 35e3 08       		.byte	0x8
 10324 35e4 67360000 		.4byte	0x3667
 10325 35e8 17       		.uleb128 0x17
 10326 35e9 92160000 		.4byte	.LASF455
 10327 35ed 33       		.byte	0x33
 10328 35ee BE01     		.2byte	0x1be
 10329 35f0 1D       		.byte	0x1d
 10330 35f1 C1350000 		.4byte	0x35c1
 10331 35f5 00       		.byte	0
 10332 35f6 17       		.uleb128 0x17
 10333 35f7 A51C0000 		.4byte	.LASF456
 10334 35fb 33       		.byte	0x33
 10335 35fc C201     		.2byte	0x1c2
 10336 35fe 1E       		.byte	0x1e
 10337 35ff E0360000 		.4byte	0x36e0
 10338 3603 04       		.byte	0x4
 10339 3604 17       		.uleb128 0x17
 10340 3605 30070000 		.4byte	.LASF460
 10341 3609 33       		.byte	0x33
 10342 360a C701     		.2byte	0x1c7
 10343 360c 1D       		.byte	0x1d
 10344 360d 580B0000 		.4byte	0xb58
 10345 3611 08       		.byte	0x8
 10346 3612 17       		.uleb128 0x17
 10347 3613 4E0C0000 		.4byte	.LASF461
 10348 3617 33       		.byte	0x33
 10349 3618 CD01     		.2byte	0x1cd
ARM GAS  /tmp/ccDzFi87.s 			page 183


 10350 361a 1D       		.byte	0x1d
 10351 361b F91C0000 		.4byte	0x1cf9
 10352 361f 0C       		.byte	0xc
 10353 3620 21       		.uleb128 0x21
 10354 3621 73706900 		.ascii	"spi\000"
 10355 3625 33       		.byte	0x33
 10356 3626 D601     		.2byte	0x1d6
 10357 3628 1E       		.byte	0x1e
 10358 3629 3C300000 		.4byte	0x303c
 10359 362d 20       		.byte	0x20
 10360 362e 17       		.uleb128 0x17
 10361 362f 08010000 		.4byte	.LASF591
 10362 3633 33       		.byte	0x33
 10363 3634 DA01     		.2byte	0x1da
 10364 3636 1E       		.byte	0x1e
 10365 3637 6B250000 		.4byte	0x256b
 10366 363b 24       		.byte	0x24
 10367 363c 17       		.uleb128 0x17
 10368 363d F1010000 		.4byte	.LASF592
 10369 3641 33       		.byte	0x33
 10370 3642 DE01     		.2byte	0x1de
 10371 3644 1E       		.byte	0x1e
 10372 3645 6B250000 		.4byte	0x256b
 10373 3649 28       		.byte	0x28
 10374 364a 17       		.uleb128 0x17
 10375 364b 90080000 		.4byte	.LASF589
 10376 364f 33       		.byte	0x33
 10377 3650 E201     		.2byte	0x1e2
 10378 3652 1D       		.byte	0x1d
 10379 3653 54090000 		.4byte	0x954
 10380 3657 2C       		.byte	0x2c
 10381 3658 17       		.uleb128 0x17
 10382 3659 E9080000 		.4byte	.LASF590
 10383 365d 33       		.byte	0x33
 10384 365e E601     		.2byte	0x1e6
 10385 3660 1D       		.byte	0x1d
 10386 3661 54090000 		.4byte	0x954
 10387 3665 30       		.byte	0x30
 10388 3666 00       		.byte	0
 10389 3667 05       		.uleb128 0x5
 10390 3668 FD150000 		.4byte	.LASF674
 10391 366c 33       		.byte	0x33
 10392 366d 9E01     		.2byte	0x19e
 10393 366f 10       		.byte	0x10
 10394 3670 74360000 		.4byte	0x3674
 10395 3674 0F       		.uleb128 0xf
 10396 3675 04       		.byte	0x4
 10397 3676 7A360000 		.4byte	0x367a
 10398 367a 1F       		.uleb128 0x1f
 10399 367b 85360000 		.4byte	0x3685
 10400 367f 14       		.uleb128 0x14
 10401 3680 85360000 		.4byte	0x3685
 10402 3684 00       		.byte	0
 10403 3685 0F       		.uleb128 0xf
 10404 3686 04       		.byte	0x4
 10405 3687 CD350000 		.4byte	0x35cd
 10406 368b 1B       		.uleb128 0x1b
ARM GAS  /tmp/ccDzFi87.s 			page 184


 10407 368c 0C       		.byte	0xc
 10408 368d 33       		.byte	0x33
 10409 368e A301     		.2byte	0x1a3
 10410 3690 09       		.byte	0x9
 10411 3691 CE360000 		.4byte	0x36ce
 10412 3695 17       		.uleb128 0x17
 10413 3696 51090000 		.4byte	.LASF468
 10414 369a 33       		.byte	0x33
 10415 369b A701     		.2byte	0x1a7
 10416 369d 1D       		.byte	0x1d
 10417 369e 67360000 		.4byte	0x3667
 10418 36a2 00       		.byte	0
 10419 36a3 17       		.uleb128 0x17
 10420 36a4 5E240000 		.4byte	.LASF675
 10421 36a8 33       		.byte	0x33
 10422 36a9 AC01     		.2byte	0x1ac
 10423 36ab 1D       		.byte	0x1d
 10424 36ac D6220000 		.4byte	0x22d6
 10425 36b0 04       		.byte	0x4
 10426 36b1 17       		.uleb128 0x17
 10427 36b2 E3080000 		.4byte	.LASF676
 10428 36b6 33       		.byte	0x33
 10429 36b7 B001     		.2byte	0x1b0
 10430 36b9 1D       		.byte	0x1d
 10431 36ba 48090000 		.4byte	0x948
 10432 36be 08       		.byte	0x8
 10433 36bf 21       		.uleb128 0x21
 10434 36c0 63723100 		.ascii	"cr1\000"
 10435 36c4 33       		.byte	0x33
 10436 36c5 B401     		.2byte	0x1b4
 10437 36c7 1D       		.byte	0x1d
 10438 36c8 48090000 		.4byte	0x948
 10439 36cc 0A       		.byte	0xa
 10440 36cd 00       		.byte	0
 10441 36ce 05       		.uleb128 0x5
 10442 36cf 3E210000 		.4byte	.LASF677
 10443 36d3 33       		.byte	0x33
 10444 36d4 B501     		.2byte	0x1b5
 10445 36d6 03       		.byte	0x3
 10446 36d7 8B360000 		.4byte	0x368b
 10447 36db 15       		.uleb128 0x15
 10448 36dc CE360000 		.4byte	0x36ce
 10449 36e0 0F       		.uleb128 0xf
 10450 36e1 04       		.byte	0x4
 10451 36e2 DB360000 		.4byte	0x36db
 10452 36e6 20       		.uleb128 0x20
 10453 36e7 5D200000 		.4byte	.LASF678
 10454 36eb 33       		.byte	0x33
 10455 36ec F201     		.2byte	0x1f2
 10456 36ee 12       		.byte	0x12
 10457 36ef CD350000 		.4byte	0x35cd
 10458 36f3 03       		.uleb128 0x3
 10459 36f4 9C100000 		.4byte	.LASF679
 10460 36f8 34       		.byte	0x34
 10461 36f9 FA       		.byte	0xfa
 10462 36fa 1A       		.byte	0x1a
 10463 36fb FF360000 		.4byte	0x36ff
ARM GAS  /tmp/ccDzFi87.s 			page 185


 10464 36ff 16       		.uleb128 0x16
 10465 3700 9C100000 		.4byte	.LASF679
 10466 3704 6002     		.2byte	0x260
 10467 3706 35       		.byte	0x35
 10468 3707 7701     		.2byte	0x177
 10469 3709 08       		.byte	0x8
 10470 370a 42380000 		.4byte	0x3842
 10471 370e 17       		.uleb128 0x17
 10472 370f 92160000 		.4byte	.LASF455
 10473 3713 35       		.byte	0x35
 10474 3714 7B01     		.2byte	0x17b
 10475 3716 21       		.byte	0x21
 10476 3717 7C380000 		.4byte	0x387c
 10477 371b 00       		.byte	0
 10478 371c 17       		.uleb128 0x17
 10479 371d A51C0000 		.4byte	.LASF456
 10480 3721 35       		.byte	0x35
 10481 3722 7F01     		.2byte	0x17f
 10482 3724 22       		.byte	0x22
 10483 3725 39420000 		.4byte	0x4239
 10484 3729 04       		.byte	0x4
 10485 372a 17       		.uleb128 0x17
 10486 372b 7A210000 		.4byte	.LASF680
 10487 372f 35       		.byte	0x35
 10488 3730 8301     		.2byte	0x183
 10489 3732 21       		.byte	0x21
 10490 3733 48090000 		.4byte	0x948
 10491 3737 08       		.byte	0x8
 10492 3738 17       		.uleb128 0x17
 10493 3739 85240000 		.4byte	.LASF681
 10494 373d 35       		.byte	0x35
 10495 373e 8701     		.2byte	0x187
 10496 3740 21       		.byte	0x21
 10497 3741 48090000 		.4byte	0x948
 10498 3745 0A       		.byte	0xa
 10499 3746 21       		.uleb128 0x21
 10500 3747 65706300 		.ascii	"epc\000"
 10501 374b 35       		.byte	0x35
 10502 374c 8B01     		.2byte	0x18b
 10503 374e 22       		.byte	0x22
 10504 374f 3F420000 		.4byte	0x423f
 10505 3753 0C       		.byte	0xc
 10506 3754 17       		.uleb128 0x17
 10507 3755 76070000 		.4byte	.LASF682
 10508 3759 35       		.byte	0x35
 10509 375a 9201     		.2byte	0x192
 10510 375c 22       		.byte	0x22
 10511 375d 55420000 		.4byte	0x4255
 10512 3761 1C       		.byte	0x1c
 10513 3762 17       		.uleb128 0x17
 10514 3763 CC0B0000 		.4byte	.LASF683
 10515 3767 35       		.byte	0x35
 10516 3768 9901     		.2byte	0x199
 10517 376a 22       		.byte	0x22
 10518 376b 55420000 		.4byte	0x4255
 10519 376f 28       		.byte	0x28
 10520 3770 17       		.uleb128 0x17
ARM GAS  /tmp/ccDzFi87.s 			page 186


 10521 3771 1D0F0000 		.4byte	.LASF684
 10522 3775 35       		.byte	0x35
 10523 3776 9D01     		.2byte	0x19d
 10524 3778 21       		.byte	0x21
 10525 3779 C3380000 		.4byte	0x38c3
 10526 377d 34       		.byte	0x34
 10527 377e 17       		.uleb128 0x17
 10528 377f 321C0000 		.4byte	.LASF685
 10529 3783 35       		.byte	0x35
 10530 3784 A101     		.2byte	0x1a1
 10531 3786 22       		.byte	0x22
 10532 3787 381E0000 		.4byte	0x1e38
 10533 378b 38       		.byte	0x38
 10534 378c 17       		.uleb128 0x17
 10535 378d 3B180000 		.4byte	.LASF686
 10536 3791 35       		.byte	0x35
 10537 3792 A501     		.2byte	0x1a5
 10538 3794 21       		.byte	0x21
 10539 3795 2C000000 		.4byte	0x2c
 10540 3799 3C       		.byte	0x3c
 10541 379a 17       		.uleb128 0x17
 10542 379b C31E0000 		.4byte	.LASF687
 10543 379f 35       		.byte	0x35
 10544 37a0 A901     		.2byte	0x1a9
 10545 37a2 21       		.byte	0x21
 10546 37a3 4A390000 		.4byte	0x394a
 10547 37a7 40       		.byte	0x40
 10548 37a8 17       		.uleb128 0x17
 10549 37a9 40070000 		.4byte	.LASF688
 10550 37ad 35       		.byte	0x35
 10551 37ae AD01     		.2byte	0x1ad
 10552 37b0 21       		.byte	0x21
 10553 37b1 D1250000 		.4byte	0x25d1
 10554 37b5 44       		.byte	0x44
 10555 37b6 17       		.uleb128 0x17
 10556 37b7 CF150000 		.4byte	.LASF689
 10557 37bb 35       		.byte	0x35
 10558 37bc B101     		.2byte	0x1b1
 10559 37be 21       		.byte	0x21
 10560 37bf 48090000 		.4byte	0x948
 10561 37c3 4C       		.byte	0x4c
 10562 37c4 17       		.uleb128 0x17
 10563 37c5 15160000 		.4byte	.LASF690
 10564 37c9 35       		.byte	0x35
 10565 37ca B501     		.2byte	0x1b5
 10566 37cc 21       		.byte	0x21
 10567 37cd 37090000 		.4byte	0x937
 10568 37d1 4E       		.byte	0x4e
 10569 37d2 17       		.uleb128 0x17
 10570 37d3 261B0000 		.4byte	.LASF691
 10571 37d7 35       		.byte	0x35
 10572 37d8 B901     		.2byte	0x1b9
 10573 37da 21       		.byte	0x21
 10574 37db 37090000 		.4byte	0x937
 10575 37df 4F       		.byte	0x4f
 10576 37e0 21       		.uleb128 0x21
 10577 37e1 6F746700 		.ascii	"otg\000"
ARM GAS  /tmp/ccDzFi87.s 			page 187


 10578 37e5 35       		.byte	0x35
 10579 37e6 C101     		.2byte	0x1c1
 10580 37e8 22       		.byte	0x22
 10581 37e9 65420000 		.4byte	0x4265
 10582 37ed 50       		.byte	0x50
 10583 37ee 17       		.uleb128 0x17
 10584 37ef 670D0000 		.4byte	.LASF692
 10585 37f3 35       		.byte	0x35
 10586 37f4 C501     		.2byte	0x1c5
 10587 37f6 22       		.byte	0x22
 10588 37f7 6B420000 		.4byte	0x426b
 10589 37fb 54       		.byte	0x54
 10590 37fc 17       		.uleb128 0x17
 10591 37fd 04200000 		.4byte	.LASF693
 10592 3801 35       		.byte	0x35
 10593 3802 C901     		.2byte	0x1c9
 10594 3804 21       		.byte	0x21
 10595 3805 54090000 		.4byte	0x954
 10596 3809 58       		.byte	0x58
 10597 380a 17       		.uleb128 0x17
 10598 380b 6D0C0000 		.4byte	.LASF694
 10599 380f 35       		.byte	0x35
 10600 3810 CD01     		.2byte	0x1cd
 10601 3812 21       		.byte	0x21
 10602 3813 54090000 		.4byte	0x954
 10603 3817 5C       		.byte	0x5c
 10604 3818 17       		.uleb128 0x17
 10605 3819 33080000 		.4byte	.LASF695
 10606 381d 35       		.byte	0x35
 10607 381e D101     		.2byte	0x1d1
 10608 3820 21       		.byte	0x21
 10609 3821 580B0000 		.4byte	0xb58
 10610 3825 60       		.byte	0x60
 10611 3826 21       		.uleb128 0x21
 10612 3827 747200   		.ascii	"tr\000"
 10613 382a 35       		.byte	0x35
 10614 382b D601     		.2byte	0x1d6
 10615 382d 21       		.byte	0x21
 10616 382e 580B0000 		.4byte	0xb58
 10617 3832 64       		.byte	0x64
 10618 3833 17       		.uleb128 0x17
 10619 3834 BD140000 		.4byte	.LASF696
 10620 3838 35       		.byte	0x35
 10621 3839 DA01     		.2byte	0x1da
 10622 383b 03       		.byte	0x3
 10623 383c 71420000 		.4byte	0x4271
 10624 3840 68       		.byte	0x68
 10625 3841 00       		.byte	0
 10626 3842 03       		.uleb128 0x3
 10627 3843 CE090000 		.4byte	.LASF697
 10628 3847 34       		.byte	0x34
 10629 3848 FF       		.byte	0xff
 10630 3849 11       		.byte	0x11
 10631 384a 37090000 		.4byte	0x937
 10632 384e 2A       		.uleb128 0x2a
 10633 384f 07       		.byte	0x7
 10634 3850 01       		.byte	0x1
ARM GAS  /tmp/ccDzFi87.s 			page 188


 10635 3851 61000000 		.4byte	0x61
 10636 3855 34       		.byte	0x34
 10637 3856 0401     		.2byte	0x104
 10638 3858 0E       		.byte	0xe
 10639 3859 7C380000 		.4byte	0x387c
 10640 385d 28       		.uleb128 0x28
 10641 385e 45250000 		.4byte	.LASF698
 10642 3862 00       		.byte	0
 10643 3863 28       		.uleb128 0x28
 10644 3864 00000000 		.4byte	.LASF699
 10645 3868 01       		.byte	0x1
 10646 3869 28       		.uleb128 0x28
 10647 386a 47120000 		.4byte	.LASF700
 10648 386e 02       		.byte	0x2
 10649 386f 28       		.uleb128 0x28
 10650 3870 93190000 		.4byte	.LASF701
 10651 3874 03       		.byte	0x3
 10652 3875 28       		.uleb128 0x28
 10653 3876 4B080000 		.4byte	.LASF702
 10654 387a 04       		.byte	0x4
 10655 387b 00       		.byte	0
 10656 387c 05       		.uleb128 0x5
 10657 387d 91260000 		.4byte	.LASF703
 10658 3881 34       		.byte	0x34
 10659 3882 0A01     		.2byte	0x10a
 10660 3884 03       		.byte	0x3
 10661 3885 4E380000 		.4byte	0x384e
 10662 3889 2A       		.uleb128 0x2a
 10663 388a 07       		.byte	0x7
 10664 388b 01       		.byte	0x1
 10665 388c 61000000 		.4byte	0x61
 10666 3890 34       		.byte	0x34
 10667 3891 1801     		.2byte	0x118
 10668 3893 0E       		.byte	0xe
 10669 3894 C3380000 		.4byte	0x38c3
 10670 3898 28       		.uleb128 0x28
 10671 3899 781E0000 		.4byte	.LASF704
 10672 389d 00       		.byte	0
 10673 389e 28       		.uleb128 0x28
 10674 389f 120F0000 		.4byte	.LASF705
 10675 38a3 01       		.byte	0x1
 10676 38a4 28       		.uleb128 0x28
 10677 38a5 1E1C0000 		.4byte	.LASF706
 10678 38a9 02       		.byte	0x2
 10679 38aa 28       		.uleb128 0x28
 10680 38ab B7160000 		.4byte	.LASF707
 10681 38af 03       		.byte	0x3
 10682 38b0 28       		.uleb128 0x28
 10683 38b1 BA150000 		.4byte	.LASF708
 10684 38b5 04       		.byte	0x4
 10685 38b6 28       		.uleb128 0x28
 10686 38b7 05100000 		.4byte	.LASF709
 10687 38bb 05       		.byte	0x5
 10688 38bc 28       		.uleb128 0x28
 10689 38bd 6B0E0000 		.4byte	.LASF710
 10690 38c1 06       		.byte	0x6
 10691 38c2 00       		.byte	0
ARM GAS  /tmp/ccDzFi87.s 			page 189


 10692 38c3 05       		.uleb128 0x5
 10693 38c4 38100000 		.4byte	.LASF711
 10694 38c8 34       		.byte	0x34
 10695 38c9 2001     		.2byte	0x120
 10696 38cb 03       		.byte	0x3
 10697 38cc 89380000 		.4byte	0x3889
 10698 38d0 2A       		.uleb128 0x2a
 10699 38d1 07       		.byte	0x7
 10700 38d2 01       		.byte	0x1
 10701 38d3 61000000 		.4byte	0x61
 10702 38d7 34       		.byte	0x34
 10703 38d8 2501     		.2byte	0x125
 10704 38da 0E       		.byte	0xe
 10705 38db 04390000 		.4byte	0x3904
 10706 38df 28       		.uleb128 0x28
 10707 38e0 1F1E0000 		.4byte	.LASF712
 10708 38e4 00       		.byte	0
 10709 38e5 28       		.uleb128 0x28
 10710 38e6 0B1A0000 		.4byte	.LASF713
 10711 38ea 01       		.byte	0x1
 10712 38eb 28       		.uleb128 0x28
 10713 38ec 62140000 		.4byte	.LASF714
 10714 38f0 02       		.byte	0x2
 10715 38f1 28       		.uleb128 0x28
 10716 38f2 09150000 		.4byte	.LASF715
 10717 38f6 03       		.byte	0x3
 10718 38f7 28       		.uleb128 0x28
 10719 38f8 DB230000 		.4byte	.LASF716
 10720 38fc 04       		.byte	0x4
 10721 38fd 28       		.uleb128 0x28
 10722 38fe FD130000 		.4byte	.LASF717
 10723 3902 05       		.byte	0x5
 10724 3903 00       		.byte	0
 10725 3904 05       		.uleb128 0x5
 10726 3905 3A1A0000 		.4byte	.LASF718
 10727 3909 34       		.byte	0x34
 10728 390a 2C01     		.2byte	0x12c
 10729 390c 03       		.byte	0x3
 10730 390d D0380000 		.4byte	0x38d0
 10731 3911 1B       		.uleb128 0x1b
 10732 3912 08       		.byte	0x8
 10733 3913 34       		.byte	0x34
 10734 3914 3101     		.2byte	0x131
 10735 3916 09       		.byte	0x9
 10736 3917 38390000 		.4byte	0x3938
 10737 391b 17       		.uleb128 0x17
 10738 391c 1A260000 		.4byte	.LASF719
 10739 3920 34       		.byte	0x34
 10740 3921 3501     		.2byte	0x135
 10741 3923 21       		.byte	0x21
 10742 3924 2C000000 		.4byte	0x2c
 10743 3928 00       		.byte	0
 10744 3929 17       		.uleb128 0x17
 10745 392a B1040000 		.4byte	.LASF720
 10746 392e 34       		.byte	0x34
 10747 392f 3901     		.2byte	0x139
 10748 3931 22       		.byte	0x22
ARM GAS  /tmp/ccDzFi87.s 			page 190


 10749 3932 6F1E0000 		.4byte	0x1e6f
 10750 3936 04       		.byte	0x4
 10751 3937 00       		.byte	0
 10752 3938 05       		.uleb128 0x5
 10753 3939 EF150000 		.4byte	.LASF721
 10754 393d 34       		.byte	0x34
 10755 393e 3A01     		.2byte	0x13a
 10756 3940 03       		.byte	0x3
 10757 3941 11390000 		.4byte	0x3911
 10758 3945 15       		.uleb128 0x15
 10759 3946 38390000 		.4byte	0x3938
 10760 394a 05       		.uleb128 0x5
 10761 394b 9E250000 		.4byte	.LASF722
 10762 394f 34       		.byte	0x34
 10763 3950 4201     		.2byte	0x142
 10764 3952 10       		.byte	0x10
 10765 3953 57390000 		.4byte	0x3957
 10766 3957 0F       		.uleb128 0xf
 10767 3958 04       		.byte	0x4
 10768 3959 5D390000 		.4byte	0x395d
 10769 395d 1F       		.uleb128 0x1f
 10770 395e 68390000 		.4byte	0x3968
 10771 3962 14       		.uleb128 0x14
 10772 3963 68390000 		.4byte	0x3968
 10773 3967 00       		.byte	0
 10774 3968 0F       		.uleb128 0xf
 10775 3969 04       		.byte	0x4
 10776 396a F3360000 		.4byte	0x36f3
 10777 396e 05       		.uleb128 0x5
 10778 396f FD040000 		.4byte	.LASF723
 10779 3973 34       		.byte	0x34
 10780 3974 4B01     		.2byte	0x14b
 10781 3976 10       		.byte	0x10
 10782 3977 7B390000 		.4byte	0x397b
 10783 397b 0F       		.uleb128 0xf
 10784 397c 04       		.byte	0x4
 10785 397d 81390000 		.4byte	0x3981
 10786 3981 1F       		.uleb128 0x1f
 10787 3982 91390000 		.4byte	0x3991
 10788 3986 14       		.uleb128 0x14
 10789 3987 68390000 		.4byte	0x3968
 10790 398b 14       		.uleb128 0x14
 10791 398c 42380000 		.4byte	0x3842
 10792 3990 00       		.byte	0
 10793 3991 05       		.uleb128 0x5
 10794 3992 E10A0000 		.4byte	.LASF724
 10795 3996 34       		.byte	0x34
 10796 3997 5401     		.2byte	0x154
 10797 3999 10       		.byte	0x10
 10798 399a 9E390000 		.4byte	0x399e
 10799 399e 0F       		.uleb128 0xf
 10800 399f 04       		.byte	0x4
 10801 39a0 A4390000 		.4byte	0x39a4
 10802 39a4 1F       		.uleb128 0x1f
 10803 39a5 B4390000 		.4byte	0x39b4
 10804 39a9 14       		.uleb128 0x14
 10805 39aa 68390000 		.4byte	0x3968
ARM GAS  /tmp/ccDzFi87.s 			page 191


 10806 39ae 14       		.uleb128 0x14
 10807 39af 04390000 		.4byte	0x3904
 10808 39b3 00       		.byte	0
 10809 39b4 05       		.uleb128 0x5
 10810 39b5 AA060000 		.4byte	.LASF725
 10811 39b9 34       		.byte	0x34
 10812 39ba 6001     		.2byte	0x160
 10813 39bc 10       		.byte	0x10
 10814 39bd C1390000 		.4byte	0x39c1
 10815 39c1 0F       		.uleb128 0xf
 10816 39c2 04       		.byte	0x4
 10817 39c3 C7390000 		.4byte	0x39c7
 10818 39c7 13       		.uleb128 0x13
 10819 39c8 64200000 		.4byte	0x2064
 10820 39cc D6390000 		.4byte	0x39d6
 10821 39d0 14       		.uleb128 0x14
 10822 39d1 68390000 		.4byte	0x3968
 10823 39d5 00       		.byte	0
 10824 39d6 05       		.uleb128 0x5
 10825 39d7 E40E0000 		.4byte	.LASF726
 10826 39db 34       		.byte	0x34
 10827 39dc 6501     		.2byte	0x165
 10828 39de 21       		.byte	0x21
 10829 39df E3390000 		.4byte	0x39e3
 10830 39e3 0F       		.uleb128 0xf
 10831 39e4 04       		.byte	0x4
 10832 39e5 E9390000 		.4byte	0x39e9
 10833 39e9 13       		.uleb128 0x13
 10834 39ea 073A0000 		.4byte	0x3a07
 10835 39ee 073A0000 		.4byte	0x3a07
 10836 39f2 14       		.uleb128 0x14
 10837 39f3 68390000 		.4byte	0x3968
 10838 39f7 14       		.uleb128 0x14
 10839 39f8 37090000 		.4byte	0x937
 10840 39fc 14       		.uleb128 0x14
 10841 39fd 37090000 		.4byte	0x937
 10842 3a01 14       		.uleb128 0x14
 10843 3a02 48090000 		.4byte	0x948
 10844 3a06 00       		.byte	0
 10845 3a07 0F       		.uleb128 0xf
 10846 3a08 04       		.byte	0x4
 10847 3a09 45390000 		.4byte	0x3945
 10848 3a0d 0A       		.uleb128 0xa
 10849 3a0e 20       		.byte	0x20
 10850 3a0f 36       		.byte	0x36
 10851 3a10 35       		.byte	0x35
 10852 3a11 09       		.byte	0x9
 10853 3a12 7F3A0000 		.4byte	0x3a7f
 10854 3a16 0B       		.uleb128 0xb
 10855 3a17 3A030000 		.4byte	.LASF727
 10856 3a1b 36       		.byte	0x36
 10857 3a1c 36       		.byte	0x36
 10858 3a1d 15       		.byte	0x15
 10859 3a1e 60090000 		.4byte	0x960
 10860 3a22 00       		.byte	0
 10861 3a23 0B       		.uleb128 0xb
 10862 3a24 B20C0000 		.4byte	.LASF728
ARM GAS  /tmp/ccDzFi87.s 			page 192


 10863 3a28 36       		.byte	0x36
 10864 3a29 38       		.byte	0x38
 10865 3a2a 15       		.byte	0x15
 10866 3a2b 60090000 		.4byte	0x960
 10867 3a2f 04       		.byte	0x4
 10868 3a30 0B       		.uleb128 0xb
 10869 3a31 8D020000 		.4byte	.LASF729
 10870 3a35 36       		.byte	0x36
 10871 3a36 39       		.byte	0x39
 10872 3a37 15       		.byte	0x15
 10873 3a38 60090000 		.4byte	0x960
 10874 3a3c 08       		.byte	0x8
 10875 3a3d 0B       		.uleb128 0xb
 10876 3a3e 961C0000 		.4byte	.LASF730
 10877 3a42 36       		.byte	0x36
 10878 3a43 3A       		.byte	0x3a
 10879 3a44 15       		.byte	0x15
 10880 3a45 60090000 		.4byte	0x960
 10881 3a49 0C       		.byte	0xc
 10882 3a4a 0B       		.uleb128 0xb
 10883 3a4b 5B140000 		.4byte	.LASF731
 10884 3a4f 36       		.byte	0x36
 10885 3a50 3C       		.byte	0x3c
 10886 3a51 15       		.byte	0x15
 10887 3a52 60090000 		.4byte	0x960
 10888 3a56 10       		.byte	0x10
 10889 3a57 0B       		.uleb128 0xb
 10890 3a58 ED0C0000 		.4byte	.LASF732
 10891 3a5c 36       		.byte	0x36
 10892 3a5d 3E       		.byte	0x3e
 10893 3a5e 15       		.byte	0x15
 10894 3a5f 60090000 		.4byte	0x960
 10895 3a63 14       		.byte	0x14
 10896 3a64 0B       		.uleb128 0xb
 10897 3a65 000D0000 		.4byte	.LASF733
 10898 3a69 36       		.byte	0x36
 10899 3a6a 3F       		.byte	0x3f
 10900 3a6b 15       		.byte	0x15
 10901 3a6c 60090000 		.4byte	0x960
 10902 3a70 18       		.byte	0x18
 10903 3a71 0B       		.uleb128 0xb
 10904 3a72 F4030000 		.4byte	.LASF734
 10905 3a76 36       		.byte	0x36
 10906 3a77 40       		.byte	0x40
 10907 3a78 15       		.byte	0x15
 10908 3a79 60090000 		.4byte	0x960
 10909 3a7d 1C       		.byte	0x1c
 10910 3a7e 00       		.byte	0
 10911 3a7f 03       		.uleb128 0x3
 10912 3a80 3A1C0000 		.4byte	.LASF735
 10913 3a84 36       		.byte	0x36
 10914 3a85 41       		.byte	0x41
 10915 3a86 03       		.byte	0x3
 10916 3a87 0D3A0000 		.4byte	0x3a0d
 10917 3a8b 0A       		.uleb128 0xa
 10918 3a8c 20       		.byte	0x20
 10919 3a8d 36       		.byte	0x36
ARM GAS  /tmp/ccDzFi87.s 			page 193


 10920 3a8e 46       		.byte	0x46
 10921 3a8f 09       		.byte	0x9
 10922 3a90 FD3A0000 		.4byte	0x3afd
 10923 3a94 0B       		.uleb128 0xb
 10924 3a95 550D0000 		.4byte	.LASF736
 10925 3a99 36       		.byte	0x36
 10926 3a9a 47       		.byte	0x47
 10927 3a9b 15       		.byte	0x15
 10928 3a9c 60090000 		.4byte	0x960
 10929 3aa0 00       		.byte	0
 10930 3aa1 0B       		.uleb128 0xb
 10931 3aa2 95100000 		.4byte	.LASF737
 10932 3aa6 36       		.byte	0x36
 10933 3aa7 49       		.byte	0x49
 10934 3aa8 15       		.byte	0x15
 10935 3aa9 60090000 		.4byte	0x960
 10936 3aad 04       		.byte	0x4
 10937 3aae 0B       		.uleb128 0xb
 10938 3aaf A2200000 		.4byte	.LASF738
 10939 3ab3 36       		.byte	0x36
 10940 3ab4 4A       		.byte	0x4a
 10941 3ab5 15       		.byte	0x15
 10942 3ab6 60090000 		.4byte	0x960
 10943 3aba 08       		.byte	0x8
 10944 3abb 0B       		.uleb128 0xb
 10945 3abc B9100000 		.4byte	.LASF739
 10946 3ac0 36       		.byte	0x36
 10947 3ac1 4C       		.byte	0x4c
 10948 3ac2 15       		.byte	0x15
 10949 3ac3 60090000 		.4byte	0x960
 10950 3ac7 0C       		.byte	0xc
 10951 3ac8 0B       		.uleb128 0xb
 10952 3ac9 A2170000 		.4byte	.LASF740
 10953 3acd 36       		.byte	0x36
 10954 3ace 4D       		.byte	0x4d
 10955 3acf 15       		.byte	0x15
 10956 3ad0 60090000 		.4byte	0x960
 10957 3ad4 10       		.byte	0x10
 10958 3ad5 0B       		.uleb128 0xb
 10959 3ad6 ED0C0000 		.4byte	.LASF732
 10960 3ada 36       		.byte	0x36
 10961 3adb 4F       		.byte	0x4f
 10962 3adc 15       		.byte	0x15
 10963 3add 60090000 		.4byte	0x960
 10964 3ae1 14       		.byte	0x14
 10965 3ae2 0B       		.uleb128 0xb
 10966 3ae3 51070000 		.4byte	.LASF741
 10967 3ae7 36       		.byte	0x36
 10968 3ae8 50       		.byte	0x50
 10969 3ae9 15       		.byte	0x15
 10970 3aea 60090000 		.4byte	0x960
 10971 3aee 18       		.byte	0x18
 10972 3aef 0B       		.uleb128 0xb
 10973 3af0 8B200000 		.4byte	.LASF742
 10974 3af4 36       		.byte	0x36
 10975 3af5 52       		.byte	0x52
 10976 3af6 15       		.byte	0x15
ARM GAS  /tmp/ccDzFi87.s 			page 194


 10977 3af7 60090000 		.4byte	0x960
 10978 3afb 1C       		.byte	0x1c
 10979 3afc 00       		.byte	0
 10980 3afd 03       		.uleb128 0x3
 10981 3afe 56080000 		.4byte	.LASF743
 10982 3b02 36       		.byte	0x36
 10983 3b03 53       		.byte	0x53
 10984 3b04 03       		.byte	0x3
 10985 3b05 8B3A0000 		.4byte	0x3a8b
 10986 3b09 0A       		.uleb128 0xa
 10987 3b0a 20       		.byte	0x20
 10988 3b0b 36       		.byte	0x36
 10989 3b0c 58       		.byte	0x58
 10990 3b0d 09       		.byte	0x9
 10991 3b0e 7B3B0000 		.4byte	0x3b7b
 10992 3b12 0B       		.uleb128 0xb
 10993 3b13 38150000 		.4byte	.LASF744
 10994 3b17 36       		.byte	0x36
 10995 3b18 59       		.byte	0x59
 10996 3b19 15       		.byte	0x15
 10997 3b1a 60090000 		.4byte	0x960
 10998 3b1e 00       		.byte	0
 10999 3b1f 0B       		.uleb128 0xb
 11000 3b20 95100000 		.4byte	.LASF737
 11001 3b24 36       		.byte	0x36
 11002 3b25 5B       		.byte	0x5b
 11003 3b26 15       		.byte	0x15
 11004 3b27 60090000 		.4byte	0x960
 11005 3b2b 04       		.byte	0x4
 11006 3b2c 0B       		.uleb128 0xb
 11007 3b2d 0E190000 		.4byte	.LASF745
 11008 3b31 36       		.byte	0x36
 11009 3b32 5C       		.byte	0x5c
 11010 3b33 15       		.byte	0x15
 11011 3b34 60090000 		.4byte	0x960
 11012 3b38 08       		.byte	0x8
 11013 3b39 0B       		.uleb128 0xb
 11014 3b3a B9100000 		.4byte	.LASF739
 11015 3b3e 36       		.byte	0x36
 11016 3b3f 5E       		.byte	0x5e
 11017 3b40 15       		.byte	0x15
 11018 3b41 60090000 		.4byte	0x960
 11019 3b45 0C       		.byte	0xc
 11020 3b46 0B       		.uleb128 0xb
 11021 3b47 D3210000 		.4byte	.LASF746
 11022 3b4b 36       		.byte	0x36
 11023 3b4c 5F       		.byte	0x5f
 11024 3b4d 15       		.byte	0x15
 11025 3b4e 60090000 		.4byte	0x960
 11026 3b52 10       		.byte	0x10
 11027 3b53 0B       		.uleb128 0xb
 11028 3b54 ED0C0000 		.4byte	.LASF732
 11029 3b58 36       		.byte	0x36
 11030 3b59 61       		.byte	0x61
 11031 3b5a 15       		.byte	0x15
 11032 3b5b 60090000 		.4byte	0x960
 11033 3b5f 14       		.byte	0x14
ARM GAS  /tmp/ccDzFi87.s 			page 195


 11034 3b60 0B       		.uleb128 0xb
 11035 3b61 000D0000 		.4byte	.LASF733
 11036 3b65 36       		.byte	0x36
 11037 3b66 62       		.byte	0x62
 11038 3b67 15       		.byte	0x15
 11039 3b68 60090000 		.4byte	0x960
 11040 3b6c 18       		.byte	0x18
 11041 3b6d 0B       		.uleb128 0xb
 11042 3b6e 8B200000 		.4byte	.LASF742
 11043 3b72 36       		.byte	0x36
 11044 3b73 63       		.byte	0x63
 11045 3b74 15       		.byte	0x15
 11046 3b75 60090000 		.4byte	0x960
 11047 3b79 1C       		.byte	0x1c
 11048 3b7a 00       		.byte	0
 11049 3b7b 03       		.uleb128 0x3
 11050 3b7c F5070000 		.4byte	.LASF747
 11051 3b80 36       		.byte	0x36
 11052 3b81 64       		.byte	0x64
 11053 3b82 03       		.byte	0x3
 11054 3b83 093B0000 		.4byte	0x3b09
 11055 3b87 2C       		.uleb128 0x2c
 11056 3b88 00100100 		.4byte	0x11000
 11057 3b8c 36       		.byte	0x36
 11058 3b8d 69       		.byte	0x69
 11059 3b8e 09       		.byte	0x9
 11060 3b8f 9E3E0000 		.4byte	0x3e9e
 11061 3b93 0B       		.uleb128 0xb
 11062 3b94 F5040000 		.4byte	.LASF748
 11063 3b98 36       		.byte	0x36
 11064 3b99 6A       		.byte	0x6a
 11065 3b9a 15       		.byte	0x15
 11066 3b9b 60090000 		.4byte	0x960
 11067 3b9f 00       		.byte	0
 11068 3ba0 0B       		.uleb128 0xb
 11069 3ba1 B40B0000 		.4byte	.LASF749
 11070 3ba5 36       		.byte	0x36
 11071 3ba6 6B       		.byte	0x6b
 11072 3ba7 15       		.byte	0x15
 11073 3ba8 60090000 		.4byte	0x960
 11074 3bac 04       		.byte	0x4
 11075 3bad 0B       		.uleb128 0xb
 11076 3bae 9B070000 		.4byte	.LASF750
 11077 3bb2 36       		.byte	0x36
 11078 3bb3 6C       		.byte	0x6c
 11079 3bb4 15       		.byte	0x15
 11080 3bb5 60090000 		.4byte	0x960
 11081 3bb9 08       		.byte	0x8
 11082 3bba 0B       		.uleb128 0xb
 11083 3bbb B2250000 		.4byte	.LASF751
 11084 3bbf 36       		.byte	0x36
 11085 3bc0 6D       		.byte	0x6d
 11086 3bc1 15       		.byte	0x15
 11087 3bc2 60090000 		.4byte	0x960
 11088 3bc6 0C       		.byte	0xc
 11089 3bc7 0B       		.uleb128 0xb
 11090 3bc8 71120000 		.4byte	.LASF752
ARM GAS  /tmp/ccDzFi87.s 			page 196


 11091 3bcc 36       		.byte	0x36
 11092 3bcd 6E       		.byte	0x6e
 11093 3bce 15       		.byte	0x15
 11094 3bcf 60090000 		.4byte	0x960
 11095 3bd3 10       		.byte	0x10
 11096 3bd4 0B       		.uleb128 0xb
 11097 3bd5 B4030000 		.4byte	.LASF753
 11098 3bd9 36       		.byte	0x36
 11099 3bda 6F       		.byte	0x6f
 11100 3bdb 15       		.byte	0x15
 11101 3bdc 60090000 		.4byte	0x960
 11102 3be0 14       		.byte	0x14
 11103 3be1 0B       		.uleb128 0xb
 11104 3be2 0D1B0000 		.4byte	.LASF754
 11105 3be6 36       		.byte	0x36
 11106 3be7 70       		.byte	0x70
 11107 3be8 15       		.byte	0x15
 11108 3be9 60090000 		.4byte	0x960
 11109 3bed 18       		.byte	0x18
 11110 3bee 0B       		.uleb128 0xb
 11111 3bef 10080000 		.4byte	.LASF755
 11112 3bf3 36       		.byte	0x36
 11113 3bf4 71       		.byte	0x71
 11114 3bf5 15       		.byte	0x15
 11115 3bf6 60090000 		.4byte	0x960
 11116 3bfa 1C       		.byte	0x1c
 11117 3bfb 0B       		.uleb128 0xb
 11118 3bfc 08080000 		.4byte	.LASF756
 11119 3c00 36       		.byte	0x36
 11120 3c01 73       		.byte	0x73
 11121 3c02 15       		.byte	0x15
 11122 3c03 60090000 		.4byte	0x960
 11123 3c07 20       		.byte	0x20
 11124 3c08 0B       		.uleb128 0xb
 11125 3c09 A81A0000 		.4byte	.LASF757
 11126 3c0d 36       		.byte	0x36
 11127 3c0e 75       		.byte	0x75
 11128 3c0f 15       		.byte	0x15
 11129 3c10 60090000 		.4byte	0x960
 11130 3c14 24       		.byte	0x24
 11131 3c15 0B       		.uleb128 0xb
 11132 3c16 B0000000 		.4byte	.LASF758
 11133 3c1a 36       		.byte	0x36
 11134 3c1b 76       		.byte	0x76
 11135 3c1c 15       		.byte	0x15
 11136 3c1d 60090000 		.4byte	0x960
 11137 3c21 28       		.byte	0x28
 11138 3c22 0B       		.uleb128 0xb
 11139 3c23 151B0000 		.4byte	.LASF759
 11140 3c27 36       		.byte	0x36
 11141 3c28 78       		.byte	0x78
 11142 3c29 15       		.byte	0x15
 11143 3c2a 60090000 		.4byte	0x960
 11144 3c2e 2C       		.byte	0x2c
 11145 3c2f 0B       		.uleb128 0xb
 11146 3c30 1F0E0000 		.4byte	.LASF760
 11147 3c34 36       		.byte	0x36
ARM GAS  /tmp/ccDzFi87.s 			page 197


 11148 3c35 7A       		.byte	0x7a
 11149 3c36 15       		.byte	0x15
 11150 3c37 60090000 		.4byte	0x960
 11151 3c3b 30       		.byte	0x30
 11152 3c3c 0B       		.uleb128 0xb
 11153 3c3d 35240000 		.4byte	.LASF761
 11154 3c41 36       		.byte	0x36
 11155 3c42 7B       		.byte	0x7b
 11156 3c43 15       		.byte	0x15
 11157 3c44 60090000 		.4byte	0x960
 11158 3c48 34       		.byte	0x34
 11159 3c49 0B       		.uleb128 0xb
 11160 3c4a CB010000 		.4byte	.LASF762
 11161 3c4e 36       		.byte	0x36
 11162 3c4f 7C       		.byte	0x7c
 11163 3c50 15       		.byte	0x15
 11164 3c51 60090000 		.4byte	0x960
 11165 3c55 38       		.byte	0x38
 11166 3c56 0E       		.uleb128 0xe
 11167 3c57 43494400 		.ascii	"CID\000"
 11168 3c5b 36       		.byte	0x36
 11169 3c5c 7D       		.byte	0x7d
 11170 3c5d 15       		.byte	0x15
 11171 3c5e 60090000 		.4byte	0x960
 11172 3c62 3C       		.byte	0x3c
 11173 3c63 0B       		.uleb128 0xb
 11174 3c64 B80F0000 		.4byte	.LASF763
 11175 3c68 36       		.byte	0x36
 11176 3c69 7E       		.byte	0x7e
 11177 3c6a 15       		.byte	0x15
 11178 3c6b AE3E0000 		.4byte	0x3eae
 11179 3c6f 40       		.byte	0x40
 11180 3c70 11       		.uleb128 0x11
 11181 3c71 CA220000 		.4byte	.LASF764
 11182 3c75 36       		.byte	0x36
 11183 3c76 7F       		.byte	0x7f
 11184 3c77 15       		.byte	0x15
 11185 3c78 60090000 		.4byte	0x960
 11186 3c7c 0001     		.2byte	0x100
 11187 3c7e 11       		.uleb128 0x11
 11188 3c7f 18020000 		.4byte	.LASF765
 11189 3c83 36       		.byte	0x36
 11190 3c84 81       		.byte	0x81
 11191 3c85 15       		.byte	0x15
 11192 3c86 D6170000 		.4byte	0x17d6
 11193 3c8a 0401     		.2byte	0x104
 11194 3c8c 11       		.uleb128 0x11
 11195 3c8d DC140000 		.4byte	.LASF766
 11196 3c91 36       		.byte	0x36
 11197 3c92 83       		.byte	0x83
 11198 3c93 15       		.byte	0x15
 11199 3c94 C33E0000 		.4byte	0x3ec3
 11200 3c98 4001     		.2byte	0x140
 11201 3c9a 11       		.uleb128 0x11
 11202 3c9b AD180000 		.4byte	.LASF767
 11203 3c9f 36       		.byte	0x36
 11204 3ca0 84       		.byte	0x84
ARM GAS  /tmp/ccDzFi87.s 			page 198


 11205 3ca1 15       		.byte	0x15
 11206 3ca2 60090000 		.4byte	0x960
 11207 3ca6 0004     		.2byte	0x400
 11208 3ca8 11       		.uleb128 0x11
 11209 3ca9 40250000 		.4byte	.LASF768
 11210 3cad 36       		.byte	0x36
 11211 3cae 85       		.byte	0x85
 11212 3caf 15       		.byte	0x15
 11213 3cb0 60090000 		.4byte	0x960
 11214 3cb4 0404     		.2byte	0x404
 11215 3cb6 11       		.uleb128 0x11
 11216 3cb7 62040000 		.4byte	.LASF769
 11217 3cbb 36       		.byte	0x36
 11218 3cbc 86       		.byte	0x86
 11219 3cbd 15       		.byte	0x15
 11220 3cbe 60090000 		.4byte	0x960
 11221 3cc2 0804     		.2byte	0x408
 11222 3cc4 11       		.uleb128 0x11
 11223 3cc5 40220000 		.4byte	.LASF770
 11224 3cc9 36       		.byte	0x36
 11225 3cca 88       		.byte	0x88
 11226 3ccb 15       		.byte	0x15
 11227 3ccc 60090000 		.4byte	0x960
 11228 3cd0 0C04     		.2byte	0x40c
 11229 3cd2 11       		.uleb128 0x11
 11230 3cd3 F5020000 		.4byte	.LASF771
 11231 3cd7 36       		.byte	0x36
 11232 3cd8 89       		.byte	0x89
 11233 3cd9 15       		.byte	0x15
 11234 3cda 60090000 		.4byte	0x960
 11235 3cde 1004     		.2byte	0x410
 11236 3ce0 11       		.uleb128 0x11
 11237 3ce1 07040000 		.4byte	.LASF772
 11238 3ce5 36       		.byte	0x36
 11239 3ce6 8B       		.byte	0x8b
 11240 3ce7 15       		.byte	0x15
 11241 3ce8 60090000 		.4byte	0x960
 11242 3cec 1404     		.2byte	0x414
 11243 3cee 11       		.uleb128 0x11
 11244 3cef C30B0000 		.4byte	.LASF773
 11245 3cf3 36       		.byte	0x36
 11246 3cf4 8D       		.byte	0x8d
 11247 3cf5 15       		.byte	0x15
 11248 3cf6 60090000 		.4byte	0x960
 11249 3cfa 1804     		.2byte	0x418
 11250 3cfc 11       		.uleb128 0x11
 11251 3cfd DA1D0000 		.4byte	.LASF774
 11252 3d01 36       		.byte	0x36
 11253 3d02 8F       		.byte	0x8f
 11254 3d03 15       		.byte	0x15
 11255 3d04 D83E0000 		.4byte	0x3ed8
 11256 3d08 1C04     		.2byte	0x41c
 11257 3d0a 11       		.uleb128 0x11
 11258 3d0b 88020000 		.4byte	.LASF775
 11259 3d0f 36       		.byte	0x36
 11260 3d10 90       		.byte	0x90
 11261 3d11 15       		.byte	0x15
ARM GAS  /tmp/ccDzFi87.s 			page 199


 11262 3d12 60090000 		.4byte	0x960
 11263 3d16 4004     		.2byte	0x440
 11264 3d18 11       		.uleb128 0x11
 11265 3d19 A41F0000 		.4byte	.LASF776
 11266 3d1d 36       		.byte	0x36
 11267 3d1e 92       		.byte	0x92
 11268 3d1f 15       		.byte	0x15
 11269 3d20 ED3E0000 		.4byte	0x3eed
 11270 3d24 4404     		.2byte	0x444
 11271 3d26 2D       		.uleb128 0x2d
 11272 3d27 686300   		.ascii	"hc\000"
 11273 3d2a 36       		.byte	0x36
 11274 3d2b 93       		.byte	0x93
 11275 3d2c 18       		.byte	0x18
 11276 3d2d F23E0000 		.4byte	0x3ef2
 11277 3d31 0005     		.2byte	0x500
 11278 3d33 11       		.uleb128 0x11
 11279 3d34 89220000 		.4byte	.LASF777
 11280 3d38 36       		.byte	0x36
 11281 3d39 94       		.byte	0x94
 11282 3d3a 15       		.byte	0x15
 11283 3d3b 123F0000 		.4byte	0x3f12
 11284 3d3f 0007     		.2byte	0x700
 11285 3d41 11       		.uleb128 0x11
 11286 3d42 F71A0000 		.4byte	.LASF778
 11287 3d46 36       		.byte	0x36
 11288 3d47 95       		.byte	0x95
 11289 3d48 15       		.byte	0x15
 11290 3d49 60090000 		.4byte	0x960
 11291 3d4d 0008     		.2byte	0x800
 11292 3d4f 11       		.uleb128 0x11
 11293 3d50 AD230000 		.4byte	.LASF779
 11294 3d54 36       		.byte	0x36
 11295 3d55 96       		.byte	0x96
 11296 3d56 15       		.byte	0x15
 11297 3d57 60090000 		.4byte	0x960
 11298 3d5b 0408     		.2byte	0x804
 11299 3d5d 11       		.uleb128 0x11
 11300 3d5e A9050000 		.4byte	.LASF780
 11301 3d62 36       		.byte	0x36
 11302 3d63 97       		.byte	0x97
 11303 3d64 15       		.byte	0x15
 11304 3d65 60090000 		.4byte	0x960
 11305 3d69 0808     		.2byte	0x808
 11306 3d6b 11       		.uleb128 0x11
 11307 3d6c E3040000 		.4byte	.LASF781
 11308 3d70 36       		.byte	0x36
 11309 3d71 98       		.byte	0x98
 11310 3d72 15       		.byte	0x15
 11311 3d73 60090000 		.4byte	0x960
 11312 3d77 0C08     		.2byte	0x80c
 11313 3d79 11       		.uleb128 0x11
 11314 3d7a AC0B0000 		.4byte	.LASF782
 11315 3d7e 36       		.byte	0x36
 11316 3d7f 99       		.byte	0x99
 11317 3d80 15       		.byte	0x15
 11318 3d81 60090000 		.4byte	0x960
ARM GAS  /tmp/ccDzFi87.s 			page 200


 11319 3d85 1008     		.2byte	0x810
 11320 3d87 11       		.uleb128 0x11
 11321 3d88 C3200000 		.4byte	.LASF783
 11322 3d8c 36       		.byte	0x36
 11323 3d8d 9B       		.byte	0x9b
 11324 3d8e 15       		.byte	0x15
 11325 3d8f 60090000 		.4byte	0x960
 11326 3d93 1408     		.2byte	0x814
 11327 3d95 11       		.uleb128 0x11
 11328 3d96 38210000 		.4byte	.LASF784
 11329 3d9a 36       		.byte	0x36
 11330 3d9b 9D       		.byte	0x9d
 11331 3d9c 15       		.byte	0x15
 11332 3d9d 60090000 		.4byte	0x960
 11333 3da1 1808     		.2byte	0x818
 11334 3da3 11       		.uleb128 0x11
 11335 3da4 5D1E0000 		.4byte	.LASF785
 11336 3da8 36       		.byte	0x36
 11337 3da9 9F       		.byte	0x9f
 11338 3daa 15       		.byte	0x15
 11339 3dab 60090000 		.4byte	0x960
 11340 3daf 1C08     		.2byte	0x81c
 11341 3db1 11       		.uleb128 0x11
 11342 3db2 34060000 		.4byte	.LASF786
 11343 3db6 36       		.byte	0x36
 11344 3db7 A1       		.byte	0xa1
 11345 3db8 15       		.byte	0x15
 11346 3db9 60090000 		.4byte	0x960
 11347 3dbd 2008     		.2byte	0x820
 11348 3dbf 11       		.uleb128 0x11
 11349 3dc0 20050000 		.4byte	.LASF787
 11350 3dc4 36       		.byte	0x36
 11351 3dc5 A2       		.byte	0xa2
 11352 3dc6 15       		.byte	0x15
 11353 3dc7 60090000 		.4byte	0x960
 11354 3dcb 2408     		.2byte	0x824
 11355 3dcd 11       		.uleb128 0x11
 11356 3dce 041B0000 		.4byte	.LASF788
 11357 3dd2 36       		.byte	0x36
 11358 3dd3 A3       		.byte	0xa3
 11359 3dd4 15       		.byte	0x15
 11360 3dd5 60090000 		.4byte	0x960
 11361 3dd9 2808     		.2byte	0x828
 11362 3ddb 11       		.uleb128 0x11
 11363 3ddc 3D0E0000 		.4byte	.LASF789
 11364 3de0 36       		.byte	0x36
 11365 3de1 A5       		.byte	0xa5
 11366 3de2 15       		.byte	0x15
 11367 3de3 60090000 		.4byte	0x960
 11368 3de7 2C08     		.2byte	0x82c
 11369 3de9 11       		.uleb128 0x11
 11370 3dea 01070000 		.4byte	.LASF790
 11371 3dee 36       		.byte	0x36
 11372 3def A7       		.byte	0xa7
 11373 3df0 15       		.byte	0x15
 11374 3df1 60090000 		.4byte	0x960
 11375 3df5 3008     		.2byte	0x830
ARM GAS  /tmp/ccDzFi87.s 			page 201


 11376 3df7 11       		.uleb128 0x11
 11377 3df8 4A0D0000 		.4byte	.LASF791
 11378 3dfc 36       		.byte	0x36
 11379 3dfd A8       		.byte	0xa8
 11380 3dfe 15       		.byte	0x15
 11381 3dff 60090000 		.4byte	0x960
 11382 3e03 3408     		.2byte	0x834
 11383 3e05 11       		.uleb128 0x11
 11384 3e06 0F070000 		.4byte	.LASF792
 11385 3e0a 36       		.byte	0x36
 11386 3e0b AA       		.byte	0xaa
 11387 3e0c 15       		.byte	0x15
 11388 3e0d 60090000 		.4byte	0x960
 11389 3e11 3808     		.2byte	0x838
 11390 3e13 11       		.uleb128 0x11
 11391 3e14 27070000 		.4byte	.LASF793
 11392 3e18 36       		.byte	0x36
 11393 3e19 AB       		.byte	0xab
 11394 3e1a 15       		.byte	0x15
 11395 3e1b 60090000 		.4byte	0x960
 11396 3e1f 3C08     		.2byte	0x83c
 11397 3e21 11       		.uleb128 0x11
 11398 3e22 B1070000 		.4byte	.LASF794
 11399 3e26 36       		.byte	0x36
 11400 3e27 AC       		.byte	0xac
 11401 3e28 15       		.byte	0x15
 11402 3e29 273F0000 		.4byte	0x3f27
 11403 3e2d 4008     		.2byte	0x840
 11404 3e2f 11       		.uleb128 0x11
 11405 3e30 CF0C0000 		.4byte	.LASF795
 11406 3e34 36       		.byte	0x36
 11407 3e35 AD       		.byte	0xad
 11408 3e36 15       		.byte	0x15
 11409 3e37 273F0000 		.4byte	0x3f27
 11410 3e3b 8008     		.2byte	0x880
 11411 3e3d 11       		.uleb128 0x11
 11412 3e3e A6100000 		.4byte	.LASF796
 11413 3e42 36       		.byte	0x36
 11414 3e43 AE       		.byte	0xae
 11415 3e44 15       		.byte	0x15
 11416 3e45 273F0000 		.4byte	0x3f27
 11417 3e49 C008     		.2byte	0x8c0
 11418 3e4b 2D       		.uleb128 0x2d
 11419 3e4c 696500   		.ascii	"ie\000"
 11420 3e4f 36       		.byte	0x36
 11421 3e50 AF       		.byte	0xaf
 11422 3e51 15       		.byte	0x15
 11423 3e52 2C3F0000 		.4byte	0x3f2c
 11424 3e56 0009     		.2byte	0x900
 11425 3e58 2D       		.uleb128 0x2d
 11426 3e59 6F6500   		.ascii	"oe\000"
 11427 3e5c 36       		.byte	0x36
 11428 3e5d B0       		.byte	0xb0
 11429 3e5e 16       		.byte	0x16
 11430 3e5f 3C3F0000 		.4byte	0x3f3c
 11431 3e63 000B     		.2byte	0xb00
 11432 3e65 11       		.uleb128 0x11
ARM GAS  /tmp/ccDzFi87.s 			page 202


 11433 3e66 340B0000 		.4byte	.LASF797
 11434 3e6a 36       		.byte	0x36
 11435 3e6b B1       		.byte	0xb1
 11436 3e6c 15       		.byte	0x15
 11437 3e6d 123F0000 		.4byte	0x3f12
 11438 3e71 000D     		.2byte	0xd00
 11439 3e73 11       		.uleb128 0x11
 11440 3e74 D3230000 		.4byte	.LASF798
 11441 3e78 36       		.byte	0x36
 11442 3e79 B2       		.byte	0xb2
 11443 3e7a 15       		.byte	0x15
 11444 3e7b 60090000 		.4byte	0x960
 11445 3e7f 000E     		.2byte	0xe00
 11446 3e81 11       		.uleb128 0x11
 11447 3e82 40180000 		.4byte	.LASF799
 11448 3e86 36       		.byte	0x36
 11449 3e87 B4       		.byte	0xb4
 11450 3e88 15       		.byte	0x15
 11451 3e89 5C3F0000 		.4byte	0x3f5c
 11452 3e8d 040E     		.2byte	0xe04
 11453 3e8f 11       		.uleb128 0x11
 11454 3e90 77090000 		.4byte	.LASF298
 11455 3e94 36       		.byte	0x36
 11456 3e95 B5       		.byte	0xb5
 11457 3e96 15       		.byte	0x15
 11458 3e97 783F0000 		.4byte	0x3f78
 11459 3e9b 0010     		.2byte	0x1000
 11460 3e9d 00       		.byte	0
 11461 3e9e 08       		.uleb128 0x8
 11462 3e9f 60090000 		.4byte	0x960
 11463 3ea3 AE3E0000 		.4byte	0x3eae
 11464 3ea7 09       		.uleb128 0x9
 11465 3ea8 38000000 		.4byte	0x38
 11466 3eac 2F       		.byte	0x2f
 11467 3ead 00       		.byte	0
 11468 3eae 19       		.uleb128 0x19
 11469 3eaf 9E3E0000 		.4byte	0x3e9e
 11470 3eb3 08       		.uleb128 0x8
 11471 3eb4 60090000 		.4byte	0x960
 11472 3eb8 C33E0000 		.4byte	0x3ec3
 11473 3ebc 09       		.uleb128 0x9
 11474 3ebd 38000000 		.4byte	0x38
 11475 3ec1 AF       		.byte	0xaf
 11476 3ec2 00       		.byte	0
 11477 3ec3 19       		.uleb128 0x19
 11478 3ec4 B33E0000 		.4byte	0x3eb3
 11479 3ec8 08       		.uleb128 0x8
 11480 3ec9 60090000 		.4byte	0x960
 11481 3ecd D83E0000 		.4byte	0x3ed8
 11482 3ed1 09       		.uleb128 0x9
 11483 3ed2 38000000 		.4byte	0x38
 11484 3ed6 08       		.byte	0x8
 11485 3ed7 00       		.byte	0
 11486 3ed8 19       		.uleb128 0x19
 11487 3ed9 C83E0000 		.4byte	0x3ec8
 11488 3edd 08       		.uleb128 0x8
 11489 3ede 60090000 		.4byte	0x960
ARM GAS  /tmp/ccDzFi87.s 			page 203


 11490 3ee2 ED3E0000 		.4byte	0x3eed
 11491 3ee6 09       		.uleb128 0x9
 11492 3ee7 38000000 		.4byte	0x38
 11493 3eeb 2E       		.byte	0x2e
 11494 3eec 00       		.byte	0
 11495 3eed 19       		.uleb128 0x19
 11496 3eee DD3E0000 		.4byte	0x3edd
 11497 3ef2 08       		.uleb128 0x8
 11498 3ef3 7F3A0000 		.4byte	0x3a7f
 11499 3ef7 023F0000 		.4byte	0x3f02
 11500 3efb 09       		.uleb128 0x9
 11501 3efc 38000000 		.4byte	0x38
 11502 3f00 0F       		.byte	0xf
 11503 3f01 00       		.byte	0
 11504 3f02 08       		.uleb128 0x8
 11505 3f03 60090000 		.4byte	0x960
 11506 3f07 123F0000 		.4byte	0x3f12
 11507 3f0b 09       		.uleb128 0x9
 11508 3f0c 38000000 		.4byte	0x38
 11509 3f10 3F       		.byte	0x3f
 11510 3f11 00       		.byte	0
 11511 3f12 19       		.uleb128 0x19
 11512 3f13 023F0000 		.4byte	0x3f02
 11513 3f17 08       		.uleb128 0x8
 11514 3f18 60090000 		.4byte	0x960
 11515 3f1c 273F0000 		.4byte	0x3f27
 11516 3f20 09       		.uleb128 0x9
 11517 3f21 38000000 		.4byte	0x38
 11518 3f25 0F       		.byte	0xf
 11519 3f26 00       		.byte	0
 11520 3f27 19       		.uleb128 0x19
 11521 3f28 173F0000 		.4byte	0x3f17
 11522 3f2c 08       		.uleb128 0x8
 11523 3f2d FD3A0000 		.4byte	0x3afd
 11524 3f31 3C3F0000 		.4byte	0x3f3c
 11525 3f35 09       		.uleb128 0x9
 11526 3f36 38000000 		.4byte	0x38
 11527 3f3a 0F       		.byte	0xf
 11528 3f3b 00       		.byte	0
 11529 3f3c 08       		.uleb128 0x8
 11530 3f3d 7B3B0000 		.4byte	0x3b7b
 11531 3f41 4C3F0000 		.4byte	0x3f4c
 11532 3f45 09       		.uleb128 0x9
 11533 3f46 38000000 		.4byte	0x38
 11534 3f4a 0F       		.byte	0xf
 11535 3f4b 00       		.byte	0
 11536 3f4c 08       		.uleb128 0x8
 11537 3f4d 60090000 		.4byte	0x960
 11538 3f51 5C3F0000 		.4byte	0x3f5c
 11539 3f55 09       		.uleb128 0x9
 11540 3f56 38000000 		.4byte	0x38
 11541 3f5a 7E       		.byte	0x7e
 11542 3f5b 00       		.byte	0
 11543 3f5c 19       		.uleb128 0x19
 11544 3f5d 4C3F0000 		.4byte	0x3f4c
 11545 3f61 08       		.uleb128 0x8
 11546 3f62 60090000 		.4byte	0x960
ARM GAS  /tmp/ccDzFi87.s 			page 204


 11547 3f66 783F0000 		.4byte	0x3f78
 11548 3f6a 09       		.uleb128 0x9
 11549 3f6b 38000000 		.4byte	0x38
 11550 3f6f 0F       		.byte	0xf
 11551 3f70 2E       		.uleb128 0x2e
 11552 3f71 38000000 		.4byte	0x38
 11553 3f75 FF03     		.2byte	0x3ff
 11554 3f77 00       		.byte	0
 11555 3f78 19       		.uleb128 0x19
 11556 3f79 613F0000 		.4byte	0x3f61
 11557 3f7d 03       		.uleb128 0x3
 11558 3f7e DF250000 		.4byte	.LASF800
 11559 3f82 36       		.byte	0x36
 11560 3f83 B6       		.byte	0xb6
 11561 3f84 03       		.byte	0x3
 11562 3f85 873B0000 		.4byte	0x3b87
 11563 3f89 0A       		.uleb128 0xa
 11564 3f8a 0C       		.byte	0xc
 11565 3f8b 35       		.byte	0x35
 11566 3f8c C6       		.byte	0xc6
 11567 3f8d 09       		.byte	0x9
 11568 3f8e BA3F0000 		.4byte	0x3fba
 11569 3f92 0B       		.uleb128 0xb
 11570 3f93 12090000 		.4byte	.LASF801
 11571 3f97 35       		.byte	0x35
 11572 3f98 C7       		.byte	0xc7
 11573 3f99 21       		.byte	0x21
 11574 3f9a 54090000 		.4byte	0x954
 11575 3f9e 00       		.byte	0
 11576 3f9f 0B       		.uleb128 0xb
 11577 3fa0 140B0000 		.4byte	.LASF802
 11578 3fa4 35       		.byte	0x35
 11579 3fa5 C8       		.byte	0xc8
 11580 3fa6 21       		.byte	0x21
 11581 3fa7 54090000 		.4byte	0x954
 11582 3fab 04       		.byte	0x4
 11583 3fac 0B       		.uleb128 0xb
 11584 3fad A40E0000 		.4byte	.LASF803
 11585 3fb1 35       		.byte	0x35
 11586 3fb2 C9       		.byte	0xc9
 11587 3fb3 21       		.byte	0x21
 11588 3fb4 54090000 		.4byte	0x954
 11589 3fb8 08       		.byte	0x8
 11590 3fb9 00       		.byte	0
 11591 3fba 03       		.uleb128 0x3
 11592 3fbb 210B0000 		.4byte	.LASF804
 11593 3fbf 35       		.byte	0x35
 11594 3fc0 CA       		.byte	0xca
 11595 3fc1 03       		.byte	0x3
 11596 3fc2 893F0000 		.4byte	0x3f89
 11597 3fc6 15       		.uleb128 0x15
 11598 3fc7 BA3F0000 		.4byte	0x3fba
 11599 3fcb 0A       		.uleb128 0xa
 11600 3fcc 04       		.byte	0x4
 11601 3fcd 35       		.byte	0x35
 11602 3fce DD       		.byte	0xdd
 11603 3fcf 05       		.byte	0x5
ARM GAS  /tmp/ccDzFi87.s 			page 205


 11604 3fd0 E23F0000 		.4byte	0x3fe2
 11605 3fd4 0B       		.uleb128 0xb
 11606 3fd5 CD230000 		.4byte	.LASF805
 11607 3fd9 35       		.byte	0x35
 11608 3fda E1       		.byte	0xe1
 11609 3fdb 22       		.byte	0x22
 11610 3fdc 6F1E0000 		.4byte	0x1e6f
 11611 3fe0 00       		.byte	0
 11612 3fe1 00       		.byte	0
 11613 3fe2 0A       		.uleb128 0xa
 11614 3fe3 04       		.byte	0x4
 11615 3fe4 35       		.byte	0x35
 11616 3fe5 E3       		.byte	0xe3
 11617 3fe6 05       		.byte	0x5
 11618 3fe7 F93F0000 		.4byte	0x3ff9
 11619 3feb 0B       		.uleb128 0xb
 11620 3fec 86090000 		.4byte	.LASF488
 11621 3ff0 35       		.byte	0x35
 11622 3ff1 E7       		.byte	0xe7
 11623 3ff2 22       		.byte	0x22
 11624 3ff3 F93F0000 		.4byte	0x3ff9
 11625 3ff7 00       		.byte	0
 11626 3ff8 00       		.byte	0
 11627 3ff9 0F       		.uleb128 0xf
 11628 3ffa 04       		.byte	0x4
 11629 3ffb 4A1E0000 		.4byte	0x1e4a
 11630 3fff 06       		.uleb128 0x6
 11631 4000 04       		.byte	0x4
 11632 4001 35       		.byte	0x35
 11633 4002 DC       		.byte	0xdc
 11634 4003 03       		.byte	0x3
 11635 4004 21400000 		.4byte	0x4021
 11636 4008 07       		.uleb128 0x7
 11637 4009 DF1F0000 		.4byte	.LASF806
 11638 400d 35       		.byte	0x35
 11639 400e E2       		.byte	0xe2
 11640 400f 07       		.byte	0x7
 11641 4010 CB3F0000 		.4byte	0x3fcb
 11642 4014 07       		.uleb128 0x7
 11643 4015 BD1E0000 		.4byte	.LASF807
 11644 4019 35       		.byte	0x35
 11645 401a E8       		.byte	0xe8
 11646 401b 07       		.byte	0x7
 11647 401c E23F0000 		.4byte	0x3fe2
 11648 4020 00       		.byte	0
 11649 4021 0A       		.uleb128 0xa
 11650 4022 14       		.byte	0x14
 11651 4023 35       		.byte	0x35
 11652 4024 CF       		.byte	0xcf
 11653 4025 09       		.byte	0x9
 11654 4026 6C400000 		.4byte	0x406c
 11655 402a 0B       		.uleb128 0xb
 11656 402b D9070000 		.4byte	.LASF808
 11657 402f 35       		.byte	0x35
 11658 4030 D3       		.byte	0xd3
 11659 4031 21       		.byte	0x21
 11660 4032 64200000 		.4byte	0x2064
ARM GAS  /tmp/ccDzFi87.s 			page 206


 11661 4036 00       		.byte	0
 11662 4037 0B       		.uleb128 0xb
 11663 4038 F4110000 		.4byte	.LASF809
 11664 403c 35       		.byte	0x35
 11665 403d D7       		.byte	0xd7
 11666 403e 21       		.byte	0x21
 11667 403f 2C000000 		.4byte	0x2c
 11668 4043 04       		.byte	0x4
 11669 4044 0B       		.uleb128 0xb
 11670 4045 DB0A0000 		.4byte	.LASF810
 11671 4049 35       		.byte	0x35
 11672 404a DB       		.byte	0xdb
 11673 404b 21       		.byte	0x21
 11674 404c 2C000000 		.4byte	0x2c
 11675 4050 08       		.byte	0x8
 11676 4051 0B       		.uleb128 0xb
 11677 4052 A4080000 		.4byte	.LASF534
 11678 4056 35       		.byte	0x35
 11679 4057 E9       		.byte	0xe9
 11680 4058 05       		.byte	0x5
 11681 4059 FF3F0000 		.4byte	0x3fff
 11682 405d 0C       		.byte	0xc
 11683 405e 0B       		.uleb128 0xb
 11684 405f BC0E0000 		.4byte	.LASF811
 11685 4063 35       		.byte	0x35
 11686 4064 ED       		.byte	0xed
 11687 4065 21       		.byte	0x21
 11688 4066 2C000000 		.4byte	0x2c
 11689 406a 10       		.byte	0x10
 11690 406b 00       		.byte	0
 11691 406c 03       		.uleb128 0x3
 11692 406d C00F0000 		.4byte	.LASF812
 11693 4071 35       		.byte	0x35
 11694 4072 EE       		.byte	0xee
 11695 4073 03       		.byte	0x3
 11696 4074 21400000 		.4byte	0x4021
 11697 4078 1B       		.uleb128 0x1b
 11698 4079 04       		.byte	0x4
 11699 407a 35       		.byte	0x35
 11700 407b 0101     		.2byte	0x101
 11701 407d 05       		.byte	0x5
 11702 407e 91400000 		.4byte	0x4091
 11703 4082 17       		.uleb128 0x17
 11704 4083 440B0000 		.4byte	.LASF813
 11705 4087 35       		.byte	0x35
 11706 4088 0501     		.2byte	0x105
 11707 408a 22       		.byte	0x22
 11708 408b 381E0000 		.4byte	0x1e38
 11709 408f 00       		.byte	0
 11710 4090 00       		.byte	0
 11711 4091 1B       		.uleb128 0x1b
 11712 4092 04       		.byte	0x4
 11713 4093 35       		.byte	0x35
 11714 4094 0701     		.2byte	0x107
 11715 4096 05       		.byte	0x5
 11716 4097 AA400000 		.4byte	0x40aa
 11717 409b 17       		.uleb128 0x17
ARM GAS  /tmp/ccDzFi87.s 			page 207


 11718 409c 941F0000 		.4byte	.LASF489
 11719 40a0 35       		.byte	0x35
 11720 40a1 0B01     		.2byte	0x10b
 11721 40a3 21       		.byte	0x21
 11722 40a4 AA400000 		.4byte	0x40aa
 11723 40a8 00       		.byte	0
 11724 40a9 00       		.byte	0
 11725 40aa 0F       		.uleb128 0xf
 11726 40ab 04       		.byte	0x4
 11727 40ac 3E1E0000 		.4byte	0x1e3e
 11728 40b0 1C       		.uleb128 0x1c
 11729 40b1 04       		.byte	0x4
 11730 40b2 35       		.byte	0x35
 11731 40b3 0001     		.2byte	0x100
 11732 40b5 03       		.byte	0x3
 11733 40b6 D5400000 		.4byte	0x40d5
 11734 40ba 1D       		.uleb128 0x1d
 11735 40bb DF1F0000 		.4byte	.LASF806
 11736 40bf 35       		.byte	0x35
 11737 40c0 0601     		.2byte	0x106
 11738 40c2 07       		.byte	0x7
 11739 40c3 78400000 		.4byte	0x4078
 11740 40c7 1D       		.uleb128 0x1d
 11741 40c8 BD1E0000 		.4byte	.LASF807
 11742 40cc 35       		.byte	0x35
 11743 40cd 0C01     		.2byte	0x10c
 11744 40cf 07       		.byte	0x7
 11745 40d0 91400000 		.4byte	0x4091
 11746 40d4 00       		.byte	0
 11747 40d5 0A       		.uleb128 0xa
 11748 40d6 14       		.byte	0x14
 11749 40d7 35       		.byte	0x35
 11750 40d8 F3       		.byte	0xf3
 11751 40d9 09       		.byte	0x9
 11752 40da 22410000 		.4byte	0x4122
 11753 40de 0B       		.uleb128 0xb
 11754 40df F7050000 		.4byte	.LASF814
 11755 40e3 35       		.byte	0x35
 11756 40e4 F7       		.byte	0xf7
 11757 40e5 21       		.byte	0x21
 11758 40e6 64200000 		.4byte	0x2064
 11759 40ea 00       		.byte	0
 11760 40eb 0B       		.uleb128 0xb
 11761 40ec 54140000 		.4byte	.LASF815
 11762 40f0 35       		.byte	0x35
 11763 40f1 FB       		.byte	0xfb
 11764 40f2 21       		.byte	0x21
 11765 40f3 2C000000 		.4byte	0x2c
 11766 40f7 04       		.byte	0x4
 11767 40f8 0B       		.uleb128 0xb
 11768 40f9 68080000 		.4byte	.LASF816
 11769 40fd 35       		.byte	0x35
 11770 40fe FF       		.byte	0xff
 11771 40ff 21       		.byte	0x21
 11772 4100 2C000000 		.4byte	0x2c
 11773 4104 08       		.byte	0x8
 11774 4105 17       		.uleb128 0x17
ARM GAS  /tmp/ccDzFi87.s 			page 208


 11775 4106 A4080000 		.4byte	.LASF534
 11776 410a 35       		.byte	0x35
 11777 410b 0D01     		.2byte	0x10d
 11778 410d 05       		.byte	0x5
 11779 410e B0400000 		.4byte	0x40b0
 11780 4112 0C       		.byte	0xc
 11781 4113 17       		.uleb128 0x17
 11782 4114 BC0E0000 		.4byte	.LASF811
 11783 4118 35       		.byte	0x35
 11784 4119 1101     		.2byte	0x111
 11785 411b 21       		.byte	0x21
 11786 411c 2C000000 		.4byte	0x2c
 11787 4120 10       		.byte	0x10
 11788 4121 00       		.byte	0
 11789 4122 05       		.uleb128 0x5
 11790 4123 B51D0000 		.4byte	.LASF817
 11791 4127 35       		.byte	0x35
 11792 4128 1201     		.2byte	0x112
 11793 412a 03       		.byte	0x3
 11794 412b D5400000 		.4byte	0x40d5
 11795 412f 1B       		.uleb128 0x1b
 11796 4130 24       		.byte	0x24
 11797 4131 35       		.byte	0x35
 11798 4132 1801     		.2byte	0x118
 11799 4134 09       		.byte	0x9
 11800 4135 C6410000 		.4byte	0x41c6
 11801 4139 17       		.uleb128 0x17
 11802 413a 0D180000 		.4byte	.LASF818
 11803 413e 35       		.byte	0x35
 11804 413f 1C01     		.2byte	0x11c
 11805 4141 21       		.byte	0x21
 11806 4142 54090000 		.4byte	0x954
 11807 4146 00       		.byte	0
 11808 4147 17       		.uleb128 0x17
 11809 4148 58090000 		.4byte	.LASF819
 11810 414c 35       		.byte	0x35
 11811 414d 2701     		.2byte	0x127
 11812 414f 21       		.byte	0x21
 11813 4150 6E390000 		.4byte	0x396e
 11814 4154 04       		.byte	0x4
 11815 4155 17       		.uleb128 0x17
 11816 4156 08190000 		.4byte	.LASF820
 11817 415a 35       		.byte	0x35
 11818 415b 2D01     		.2byte	0x12d
 11819 415d 21       		.byte	0x21
 11820 415e 6E390000 		.4byte	0x396e
 11821 4162 08       		.byte	0x8
 11822 4163 17       		.uleb128 0x17
 11823 4164 BC0B0000 		.4byte	.LASF821
 11824 4168 35       		.byte	0x35
 11825 4169 3301     		.2byte	0x133
 11826 416b 21       		.byte	0x21
 11827 416c 6E390000 		.4byte	0x396e
 11828 4170 0C       		.byte	0xc
 11829 4171 17       		.uleb128 0x17
 11830 4172 33260000 		.4byte	.LASF822
 11831 4176 35       		.byte	0x35
ARM GAS  /tmp/ccDzFi87.s 			page 209


 11832 4177 3901     		.2byte	0x139
 11833 4179 21       		.byte	0x21
 11834 417a 48090000 		.4byte	0x948
 11835 417e 10       		.byte	0x10
 11836 417f 17       		.uleb128 0x17
 11837 4180 1A0C0000 		.4byte	.LASF823
 11838 4184 35       		.byte	0x35
 11839 4185 3F01     		.2byte	0x13f
 11840 4187 21       		.byte	0x21
 11841 4188 48090000 		.4byte	0x948
 11842 418c 12       		.byte	0x12
 11843 418d 17       		.uleb128 0x17
 11844 418e C4240000 		.4byte	.LASF824
 11845 4192 35       		.byte	0x35
 11846 4193 4401     		.2byte	0x144
 11847 4195 22       		.byte	0x22
 11848 4196 C6410000 		.4byte	0x41c6
 11849 419a 14       		.byte	0x14
 11850 419b 17       		.uleb128 0x17
 11851 419c 930D0000 		.4byte	.LASF825
 11852 41a0 35       		.byte	0x35
 11853 41a1 4901     		.2byte	0x149
 11854 41a3 22       		.byte	0x22
 11855 41a4 CC410000 		.4byte	0x41cc
 11856 41a8 18       		.byte	0x18
 11857 41a9 17       		.uleb128 0x17
 11858 41aa 32110000 		.4byte	.LASF826
 11859 41ae 35       		.byte	0x35
 11860 41af 5001     		.2byte	0x150
 11861 41b1 21       		.byte	0x21
 11862 41b2 48090000 		.4byte	0x948
 11863 41b6 1C       		.byte	0x1c
 11864 41b7 17       		.uleb128 0x17
 11865 41b8 2B240000 		.4byte	.LASF827
 11866 41bc 35       		.byte	0x35
 11867 41bd 5601     		.2byte	0x156
 11868 41bf 22       		.byte	0x22
 11869 41c0 381E0000 		.4byte	0x1e38
 11870 41c4 20       		.byte	0x20
 11871 41c5 00       		.byte	0
 11872 41c6 0F       		.uleb128 0xf
 11873 41c7 04       		.byte	0x4
 11874 41c8 6C400000 		.4byte	0x406c
 11875 41cc 0F       		.uleb128 0xf
 11876 41cd 04       		.byte	0x4
 11877 41ce 22410000 		.4byte	0x4122
 11878 41d2 05       		.uleb128 0x5
 11879 41d3 641F0000 		.4byte	.LASF828
 11880 41d7 35       		.byte	0x35
 11881 41d8 5701     		.2byte	0x157
 11882 41da 03       		.byte	0x3
 11883 41db 2F410000 		.4byte	0x412f
 11884 41df 15       		.uleb128 0x15
 11885 41e0 D2410000 		.4byte	0x41d2
 11886 41e4 1B       		.uleb128 0x1b
 11887 41e5 10       		.byte	0x10
 11888 41e6 35       		.byte	0x35
ARM GAS  /tmp/ccDzFi87.s 			page 210


 11889 41e7 5C01     		.2byte	0x15c
 11890 41e9 09       		.byte	0x9
 11891 41ea 27420000 		.4byte	0x4227
 11892 41ee 17       		.uleb128 0x17
 11893 41ef EC040000 		.4byte	.LASF829
 11894 41f3 35       		.byte	0x35
 11895 41f4 6101     		.2byte	0x161
 11896 41f6 21       		.byte	0x21
 11897 41f7 91390000 		.4byte	0x3991
 11898 41fb 00       		.byte	0
 11899 41fc 17       		.uleb128 0x17
 11900 41fd 38230000 		.4byte	.LASF830
 11901 4201 35       		.byte	0x35
 11902 4202 6601     		.2byte	0x166
 11903 4204 21       		.byte	0x21
 11904 4205 D6390000 		.4byte	0x39d6
 11905 4209 04       		.byte	0x4
 11906 420a 17       		.uleb128 0x17
 11907 420b C6110000 		.4byte	.LASF831
 11908 420f 35       		.byte	0x35
 11909 4210 6C01     		.2byte	0x16c
 11910 4212 21       		.byte	0x21
 11911 4213 B4390000 		.4byte	0x39b4
 11912 4217 08       		.byte	0x8
 11913 4218 17       		.uleb128 0x17
 11914 4219 F7010000 		.4byte	.LASF832
 11915 421d 35       		.byte	0x35
 11916 421e 7001     		.2byte	0x170
 11917 4220 21       		.byte	0x21
 11918 4221 4A390000 		.4byte	0x394a
 11919 4225 0C       		.byte	0xc
 11920 4226 00       		.byte	0
 11921 4227 05       		.uleb128 0x5
 11922 4228 AF100000 		.4byte	.LASF833
 11923 422c 35       		.byte	0x35
 11924 422d 7201     		.2byte	0x172
 11925 422f 03       		.byte	0x3
 11926 4230 E4410000 		.4byte	0x41e4
 11927 4234 15       		.uleb128 0x15
 11928 4235 27420000 		.4byte	0x4227
 11929 4239 0F       		.uleb128 0xf
 11930 423a 04       		.byte	0x4
 11931 423b 34420000 		.4byte	0x4234
 11932 423f 08       		.uleb128 0x8
 11933 4240 4F420000 		.4byte	0x424f
 11934 4244 4F420000 		.4byte	0x424f
 11935 4248 09       		.uleb128 0x9
 11936 4249 38000000 		.4byte	0x38
 11937 424d 03       		.byte	0x3
 11938 424e 00       		.byte	0
 11939 424f 0F       		.uleb128 0xf
 11940 4250 04       		.byte	0x4
 11941 4251 DF410000 		.4byte	0x41df
 11942 4255 08       		.uleb128 0x8
 11943 4256 05010000 		.4byte	0x105
 11944 425a 65420000 		.4byte	0x4265
 11945 425e 09       		.uleb128 0x9
ARM GAS  /tmp/ccDzFi87.s 			page 211


 11946 425f 38000000 		.4byte	0x38
 11947 4263 02       		.byte	0x2
 11948 4264 00       		.byte	0
 11949 4265 0F       		.uleb128 0xf
 11950 4266 04       		.byte	0x4
 11951 4267 7D3F0000 		.4byte	0x3f7d
 11952 426b 0F       		.uleb128 0xf
 11953 426c 04       		.byte	0x4
 11954 426d C63F0000 		.4byte	0x3fc6
 11955 4271 08       		.uleb128 0x8
 11956 4272 E7170000 		.4byte	0x17e7
 11957 4276 81420000 		.4byte	0x4281
 11958 427a 09       		.uleb128 0x9
 11959 427b 38000000 		.4byte	0x38
 11960 427f 3E       		.byte	0x3e
 11961 4280 00       		.byte	0
 11962 4281 20       		.uleb128 0x20
 11963 4282 B9000000 		.4byte	.LASF834
 11964 4286 35       		.byte	0x35
 11965 4287 0602     		.2byte	0x206
 11966 4289 12       		.byte	0x12
 11967 428a F3360000 		.4byte	0x36f3
 11968 428e 2F       		.uleb128 0x2f
 11969 428f 87350000 		.4byte	0x3587
 11970 4293 01       		.byte	0x1
 11971 4294 2C       		.byte	0x2c
 11972 4295 0B       		.byte	0xb
 11973 4296 05       		.uleb128 0x5
 11974 4297 03       		.byte	0x3
 11975 4298 00000000 		.4byte	SDCD1
 11976 429c 30       		.uleb128 0x30
 11977 429d 0002     		.2byte	0x200
 11978 429f 01       		.byte	0x1
 11979 42a0 36       		.byte	0x36
 11980 42a1 08       		.byte	0x8
 11981 42a2 BF420000 		.4byte	0x42bf
 11982 42a6 07       		.uleb128 0x7
 11983 42a7 A6000000 		.4byte	.LASF835
 11984 42ab 01       		.byte	0x1
 11985 42ac 37       		.byte	0x37
 11986 42ad 0D       		.byte	0xd
 11987 42ae 54090000 		.4byte	0x954
 11988 42b2 29       		.uleb128 0x29
 11989 42b3 62756600 		.ascii	"buf\000"
 11990 42b7 01       		.byte	0x1
 11991 42b8 38       		.byte	0x38
 11992 42b9 0D       		.byte	0xd
 11993 42ba BF420000 		.4byte	0x42bf
 11994 42be 00       		.byte	0
 11995 42bf 08       		.uleb128 0x8
 11996 42c0 37090000 		.4byte	0x937
 11997 42c4 D0420000 		.4byte	0x42d0
 11998 42c8 2E       		.uleb128 0x2e
 11999 42c9 38000000 		.4byte	0x38
 12000 42cd FF01     		.2byte	0x1ff
 12001 42cf 00       		.byte	0
 12002 42d0 31       		.uleb128 0x31
ARM GAS  /tmp/ccDzFi87.s 			page 212


 12003 42d1 7500     		.ascii	"u\000"
 12004 42d3 01       		.byte	0x1
 12005 42d4 39       		.byte	0x39
 12006 42d5 03       		.byte	0x3
 12007 42d6 9C420000 		.4byte	0x429c
 12008 42da 05       		.uleb128 0x5
 12009 42db 03       		.byte	0x3
 12010 42dc 00000000 		.4byte	u
 12011 42e0 32       		.uleb128 0x32
 12012 42e1 F5250000 		.4byte	.LASF836
 12013 42e5 01       		.byte	0x1
 12014 42e6 40       		.byte	0x40
 12015 42e7 18       		.byte	0x18
 12016 42e8 F5340000 		.4byte	0x34f5
 12017 42ec 05       		.uleb128 0x5
 12018 42ed 03       		.byte	0x3
 12019 42ee 00000000 		.4byte	sdc_default_cfg
 12020 42f2 33       		.uleb128 0x33
 12021 42f3 3D0D0000 		.4byte	.LASF837
 12022 42f7 01       		.byte	0x1
 12023 42f8 6003     		.2byte	0x360
 12024 42fa 06       		.byte	0x6
 12025 42fb 64200000 		.4byte	0x2064
 12026 42ff 00000000 		.4byte	.LFB279
 12027 4303 28000000 		.4byte	.LFE279-.LFB279
 12028 4307 01       		.uleb128 0x1
 12029 4308 9C       		.byte	0x9c
 12030 4309 2C430000 		.4byte	0x432c
 12031 430d 34       		.uleb128 0x34
 12032 430e 97110000 		.4byte	.LASF839
 12033 4312 01       		.byte	0x1
 12034 4313 6003     		.2byte	0x360
 12035 4315 1E       		.byte	0x1e
 12036 4316 2C430000 		.4byte	0x432c
 12037 431a 08000000 		.4byte	.LLST93
 12038 431e 00000000 		.4byte	.LVUS93
 12039 4322 35       		.uleb128 0x35
 12040 4323 24000000 		.4byte	.LVL220
 12041 4327 80570000 		.4byte	0x5780
 12042 432b 00       		.byte	0
 12043 432c 0F       		.uleb128 0xf
 12044 432d 04       		.byte	0x4
 12045 432e FC330000 		.4byte	0x33fc
 12046 4332 33       		.uleb128 0x33
 12047 4333 8D000000 		.4byte	.LASF838
 12048 4337 01       		.byte	0x1
 12049 4338 4203     		.2byte	0x342
 12050 433a 06       		.byte	0x6
 12051 433b 64200000 		.4byte	0x2064
 12052 433f 00000000 		.4byte	.LFB278
 12053 4343 84000000 		.4byte	.LFE278-.LFB278
 12054 4347 01       		.uleb128 0x1
 12055 4348 9C       		.byte	0x9c
 12056 4349 18440000 		.4byte	0x4418
 12057 434d 34       		.uleb128 0x34
 12058 434e 97110000 		.4byte	.LASF839
 12059 4352 01       		.byte	0x1
ARM GAS  /tmp/ccDzFi87.s 			page 213


 12060 4353 4203     		.2byte	0x342
 12061 4355 1F       		.byte	0x1f
 12062 4356 2C430000 		.4byte	0x432c
 12063 435a 4C000000 		.4byte	.LLST88
 12064 435e 42000000 		.4byte	.LVUS88
 12065 4362 34       		.uleb128 0x34
 12066 4363 D6240000 		.4byte	.LASF840
 12067 4367 01       		.byte	0x1
 12068 4368 4203     		.2byte	0x342
 12069 436a 2E       		.byte	0x2e
 12070 436b 54090000 		.4byte	0x954
 12071 436f 99000000 		.4byte	.LLST89
 12072 4373 91000000 		.4byte	.LVUS89
 12073 4377 36       		.uleb128 0x36
 12074 4378 62756600 		.ascii	"buf\000"
 12075 437c 01       		.byte	0x1
 12076 437d 4303     		.2byte	0x343
 12077 437f 23       		.byte	0x23
 12078 4380 6F1E0000 		.4byte	0x1e6f
 12079 4384 E0000000 		.4byte	.LLST90
 12080 4388 D0000000 		.4byte	.LVUS90
 12081 438c 34       		.uleb128 0x34
 12082 438d 77010000 		.4byte	.LASF841
 12083 4391 01       		.byte	0x1
 12084 4392 4303     		.2byte	0x343
 12085 4394 31       		.byte	0x31
 12086 4395 54090000 		.4byte	0x954
 12087 4399 5D010000 		.4byte	.LLST91
 12088 439d 55010000 		.4byte	.LVUS91
 12089 43a1 37       		.uleb128 0x37
 12090 43a2 80020000 		.4byte	.Ldebug_ranges0+0x280
 12091 43a6 05440000 		.4byte	0x4405
 12092 43aa 38       		.uleb128 0x38
 12093 43ab 6900     		.ascii	"i\000"
 12094 43ad 01       		.byte	0x1
 12095 43ae 4703     		.2byte	0x347
 12096 43b0 0E       		.byte	0xe
 12097 43b1 54090000 		.4byte	0x954
 12098 43b5 99010000 		.4byte	.LLST92
 12099 43b9 97010000 		.4byte	.LVUS92
 12100 43bd 39       		.uleb128 0x39
 12101 43be 40000000 		.4byte	.LVL211
 12102 43c2 89570000 		.4byte	0x5789
 12103 43c6 E3430000 		.4byte	0x43e3
 12104 43ca 3A       		.uleb128 0x3a
 12105 43cb 01       		.uleb128 0x1
 12106 43cc 50       		.byte	0x50
 12107 43cd 02       		.uleb128 0x2
 12108 43ce 75       		.byte	0x75
 12109 43cf 00       		.sleb128 0
 12110 43d0 3A       		.uleb128 0x3a
 12111 43d1 01       		.uleb128 0x1
 12112 43d2 51       		.byte	0x51
 12113 43d3 07       		.uleb128 0x7
 12114 43d4 74       		.byte	0x74
 12115 43d5 00       		.sleb128 0
 12116 43d6 39       		.byte	0x39
ARM GAS  /tmp/ccDzFi87.s 			page 214


 12117 43d7 24       		.byte	0x24
 12118 43d8 76       		.byte	0x76
 12119 43d9 00       		.sleb128 0
 12120 43da 22       		.byte	0x22
 12121 43db 3A       		.uleb128 0x3a
 12122 43dc 01       		.uleb128 0x1
 12123 43dd 52       		.byte	0x52
 12124 43de 03       		.uleb128 0x3
 12125 43df 0A       		.byte	0xa
 12126 43e0 0002     		.2byte	0x200
 12127 43e2 00       		.byte	0
 12128 43e3 3B       		.uleb128 0x3b
 12129 43e4 4C000000 		.4byte	.LVL212
 12130 43e8 FE440000 		.4byte	0x44fe
 12131 43ec 3A       		.uleb128 0x3a
 12132 43ed 01       		.uleb128 0x1
 12133 43ee 50       		.byte	0x50
 12134 43ef 02       		.uleb128 0x2
 12135 43f0 78       		.byte	0x78
 12136 43f1 00       		.sleb128 0
 12137 43f2 3A       		.uleb128 0x3a
 12138 43f3 01       		.uleb128 0x1
 12139 43f4 51       		.byte	0x51
 12140 43f5 02       		.uleb128 0x2
 12141 43f6 74       		.byte	0x74
 12142 43f7 00       		.sleb128 0
 12143 43f8 3A       		.uleb128 0x3a
 12144 43f9 01       		.uleb128 0x1
 12145 43fa 52       		.byte	0x52
 12146 43fb 02       		.uleb128 0x2
 12147 43fc 75       		.byte	0x75
 12148 43fd 00       		.sleb128 0
 12149 43fe 3A       		.uleb128 0x3a
 12150 43ff 01       		.uleb128 0x1
 12151 4400 53       		.byte	0x53
 12152 4401 01       		.uleb128 0x1
 12153 4402 31       		.byte	0x31
 12154 4403 00       		.byte	0
 12155 4404 00       		.byte	0
 12156 4405 3C       		.uleb128 0x3c
 12157 4406 78000000 		.4byte	.LVL215
 12158 440a FE440000 		.4byte	0x44fe
 12159 440e 35       		.uleb128 0x35
 12160 440f 7C000000 		.4byte	.LVL216
 12161 4413 80570000 		.4byte	0x5780
 12162 4417 00       		.byte	0
 12163 4418 33       		.uleb128 0x33
 12164 4419 8A110000 		.4byte	.LASF842
 12165 441d 01       		.byte	0x1
 12166 441e 2103     		.2byte	0x321
 12167 4420 06       		.byte	0x6
 12168 4421 64200000 		.4byte	0x2064
 12169 4425 00000000 		.4byte	.LFB277
 12170 4429 84000000 		.4byte	.LFE277-.LFB277
 12171 442d 01       		.uleb128 0x1
 12172 442e 9C       		.byte	0x9c
 12173 442f FE440000 		.4byte	0x44fe
ARM GAS  /tmp/ccDzFi87.s 			page 215


 12174 4433 34       		.uleb128 0x34
 12175 4434 97110000 		.4byte	.LASF839
 12176 4438 01       		.byte	0x1
 12177 4439 2103     		.2byte	0x321
 12178 443b 1E       		.byte	0x1e
 12179 443c 2C430000 		.4byte	0x432c
 12180 4440 B7010000 		.4byte	.LLST83
 12181 4444 AD010000 		.4byte	.LVUS83
 12182 4448 34       		.uleb128 0x34
 12183 4449 D6240000 		.4byte	.LASF840
 12184 444d 01       		.byte	0x1
 12185 444e 2103     		.2byte	0x321
 12186 4450 2D       		.byte	0x2d
 12187 4451 54090000 		.4byte	0x954
 12188 4455 08020000 		.4byte	.LLST84
 12189 4459 FC010000 		.4byte	.LVUS84
 12190 445d 36       		.uleb128 0x36
 12191 445e 62756600 		.ascii	"buf\000"
 12192 4462 01       		.byte	0x1
 12193 4463 2203     		.2byte	0x322
 12194 4465 1C       		.byte	0x1c
 12195 4466 381E0000 		.4byte	0x1e38
 12196 446a 65020000 		.4byte	.LLST85
 12197 446e 57020000 		.4byte	.LVUS85
 12198 4472 34       		.uleb128 0x34
 12199 4473 77010000 		.4byte	.LASF841
 12200 4477 01       		.byte	0x1
 12201 4478 2203     		.2byte	0x322
 12202 447a 2A       		.byte	0x2a
 12203 447b 54090000 		.4byte	0x954
 12204 447f D1020000 		.4byte	.LLST86
 12205 4483 C9020000 		.4byte	.LVUS86
 12206 4487 37       		.uleb128 0x37
 12207 4488 68020000 		.4byte	.Ldebug_ranges0+0x268
 12208 448c EB440000 		.4byte	0x44eb
 12209 4490 38       		.uleb128 0x38
 12210 4491 6900     		.ascii	"i\000"
 12211 4493 01       		.byte	0x1
 12212 4494 2603     		.2byte	0x326
 12213 4496 0E       		.byte	0xe
 12214 4497 54090000 		.4byte	0x954
 12215 449b 0D030000 		.4byte	.LLST87
 12216 449f 0B030000 		.4byte	.LVUS87
 12217 44a3 39       		.uleb128 0x39
 12218 44a4 3C000000 		.4byte	.LVL197
 12219 44a8 89570000 		.4byte	0x5789
 12220 44ac C9440000 		.4byte	0x44c9
 12221 44b0 3A       		.uleb128 0x3a
 12222 44b1 01       		.uleb128 0x1
 12223 44b2 50       		.byte	0x50
 12224 44b3 07       		.uleb128 0x7
 12225 44b4 74       		.byte	0x74
 12226 44b5 7F       		.sleb128 -1
 12227 44b6 39       		.byte	0x39
 12228 44b7 24       		.byte	0x24
 12229 44b8 76       		.byte	0x76
 12230 44b9 00       		.sleb128 0
ARM GAS  /tmp/ccDzFi87.s 			page 216


 12231 44ba 22       		.byte	0x22
 12232 44bb 3A       		.uleb128 0x3a
 12233 44bc 01       		.uleb128 0x1
 12234 44bd 51       		.byte	0x51
 12235 44be 02       		.uleb128 0x2
 12236 44bf 75       		.byte	0x75
 12237 44c0 00       		.sleb128 0
 12238 44c1 3A       		.uleb128 0x3a
 12239 44c2 01       		.uleb128 0x1
 12240 44c3 52       		.byte	0x52
 12241 44c4 03       		.uleb128 0x3
 12242 44c5 0A       		.byte	0xa
 12243 44c6 0002     		.2byte	0x200
 12244 44c8 00       		.byte	0
 12245 44c9 3B       		.uleb128 0x3b
 12246 44ca 4C000000 		.4byte	.LVL199
 12247 44ce 7F450000 		.4byte	0x457f
 12248 44d2 3A       		.uleb128 0x3a
 12249 44d3 01       		.uleb128 0x1
 12250 44d4 50       		.byte	0x50
 12251 44d5 02       		.uleb128 0x2
 12252 44d6 78       		.byte	0x78
 12253 44d7 00       		.sleb128 0
 12254 44d8 3A       		.uleb128 0x3a
 12255 44d9 01       		.uleb128 0x1
 12256 44da 51       		.byte	0x51
 12257 44db 02       		.uleb128 0x2
 12258 44dc 74       		.byte	0x74
 12259 44dd 00       		.sleb128 0
 12260 44de 3A       		.uleb128 0x3a
 12261 44df 01       		.uleb128 0x1
 12262 44e0 52       		.byte	0x52
 12263 44e1 02       		.uleb128 0x2
 12264 44e2 75       		.byte	0x75
 12265 44e3 00       		.sleb128 0
 12266 44e4 3A       		.uleb128 0x3a
 12267 44e5 01       		.uleb128 0x1
 12268 44e6 53       		.byte	0x53
 12269 44e7 01       		.uleb128 0x1
 12270 44e8 31       		.byte	0x31
 12271 44e9 00       		.byte	0
 12272 44ea 00       		.byte	0
 12273 44eb 3C       		.uleb128 0x3c
 12274 44ec 78000000 		.4byte	.LVL202
 12275 44f0 7F450000 		.4byte	0x457f
 12276 44f4 35       		.uleb128 0x35
 12277 44f5 7C000000 		.4byte	.LVL203
 12278 44f9 80570000 		.4byte	0x5780
 12279 44fd 00       		.byte	0
 12280 44fe 3D       		.uleb128 0x3d
 12281 44ff E31D0000 		.4byte	.LASF843
 12282 4503 01       		.byte	0x1
 12283 4504 E302     		.2byte	0x2e3
 12284 4506 06       		.byte	0x6
 12285 4507 64200000 		.4byte	0x2064
 12286 450b 01       		.byte	0x1
 12287 450c 6A450000 		.4byte	0x456a
ARM GAS  /tmp/ccDzFi87.s 			page 217


 12288 4510 3E       		.uleb128 0x3e
 12289 4511 97110000 		.4byte	.LASF839
 12290 4515 01       		.byte	0x1
 12291 4516 E302     		.2byte	0x2e3
 12292 4518 27       		.byte	0x27
 12293 4519 2C430000 		.4byte	0x432c
 12294 451d 3E       		.uleb128 0x3e
 12295 451e D6240000 		.4byte	.LASF840
 12296 4522 01       		.byte	0x1
 12297 4523 E302     		.2byte	0x2e3
 12298 4525 36       		.byte	0x36
 12299 4526 54090000 		.4byte	0x954
 12300 452a 3F       		.uleb128 0x3f
 12301 452b 62756600 		.ascii	"buf\000"
 12302 452f 01       		.byte	0x1
 12303 4530 E402     		.2byte	0x2e4
 12304 4532 2B       		.byte	0x2b
 12305 4533 6F1E0000 		.4byte	0x1e6f
 12306 4537 3E       		.uleb128 0x3e
 12307 4538 77010000 		.4byte	.LASF841
 12308 453c 01       		.byte	0x1
 12309 453d E402     		.2byte	0x2e4
 12310 453f 39       		.byte	0x39
 12311 4540 54090000 		.4byte	0x954
 12312 4544 40       		.uleb128 0x40
 12313 4545 D80C0000 		.4byte	.LASF845
 12314 4549 01       		.byte	0x1
 12315 454a E502     		.2byte	0x2e5
 12316 454c 0C       		.byte	0xc
 12317 454d DA0D0000 		.4byte	0xdda
 12318 4551 41       		.uleb128 0x41
 12319 4552 45000000 		.4byte	.LASF846
 12320 4556 7A450000 		.4byte	0x457a
 12321 455a 05       		.uleb128 0x5
 12322 455b 03       		.byte	0x3
 12323 455c 00000000 		.4byte	__func__.10490
 12324 4560 42       		.uleb128 0x42
 12325 4561 E4200000 		.4byte	.LASF847
 12326 4565 01       		.byte	0x1
 12327 4566 0E03     		.2byte	0x30e
 12328 4568 01       		.byte	0x1
 12329 4569 00       		.byte	0
 12330 456a 08       		.uleb128 0x8
 12331 456b C3050000 		.4byte	0x5c3
 12332 456f 7A450000 		.4byte	0x457a
 12333 4573 09       		.uleb128 0x9
 12334 4574 38000000 		.4byte	0x38
 12335 4578 15       		.byte	0x15
 12336 4579 00       		.byte	0
 12337 457a 15       		.uleb128 0x15
 12338 457b 6A450000 		.4byte	0x456a
 12339 457f 3D       		.uleb128 0x3d
 12340 4580 C7190000 		.4byte	.LASF844
 12341 4584 01       		.byte	0x1
 12342 4585 A502     		.2byte	0x2a5
 12343 4587 06       		.byte	0x6
 12344 4588 64200000 		.4byte	0x2064
ARM GAS  /tmp/ccDzFi87.s 			page 218


 12345 458c 01       		.byte	0x1
 12346 458d EB450000 		.4byte	0x45eb
 12347 4591 3E       		.uleb128 0x3e
 12348 4592 97110000 		.4byte	.LASF839
 12349 4596 01       		.byte	0x1
 12350 4597 A502     		.2byte	0x2a5
 12351 4599 26       		.byte	0x26
 12352 459a 2C430000 		.4byte	0x432c
 12353 459e 3E       		.uleb128 0x3e
 12354 459f D6240000 		.4byte	.LASF840
 12355 45a3 01       		.byte	0x1
 12356 45a4 A502     		.2byte	0x2a5
 12357 45a6 35       		.byte	0x35
 12358 45a7 54090000 		.4byte	0x954
 12359 45ab 3F       		.uleb128 0x3f
 12360 45ac 62756600 		.ascii	"buf\000"
 12361 45b0 01       		.byte	0x1
 12362 45b1 A602     		.2byte	0x2a6
 12363 45b3 24       		.byte	0x24
 12364 45b4 381E0000 		.4byte	0x1e38
 12365 45b8 3E       		.uleb128 0x3e
 12366 45b9 77010000 		.4byte	.LASF841
 12367 45bd 01       		.byte	0x1
 12368 45be A602     		.2byte	0x2a6
 12369 45c0 32       		.byte	0x32
 12370 45c1 54090000 		.4byte	0x954
 12371 45c5 40       		.uleb128 0x40
 12372 45c6 D80C0000 		.4byte	.LASF845
 12373 45ca 01       		.byte	0x1
 12374 45cb A702     		.2byte	0x2a7
 12375 45cd 0C       		.byte	0xc
 12376 45ce DA0D0000 		.4byte	0xdda
 12377 45d2 41       		.uleb128 0x41
 12378 45d3 45000000 		.4byte	.LASF846
 12379 45d7 FB450000 		.4byte	0x45fb
 12380 45db 05       		.uleb128 0x5
 12381 45dc 03       		.byte	0x3
 12382 45dd 00000000 		.4byte	__func__.10481
 12383 45e1 42       		.uleb128 0x42
 12384 45e2 E4200000 		.4byte	.LASF847
 12385 45e6 01       		.byte	0x1
 12386 45e7 D002     		.2byte	0x2d0
 12387 45e9 01       		.byte	0x1
 12388 45ea 00       		.byte	0
 12389 45eb 08       		.uleb128 0x8
 12390 45ec C3050000 		.4byte	0x5c3
 12391 45f0 FB450000 		.4byte	0x45fb
 12392 45f4 09       		.uleb128 0x9
 12393 45f5 38000000 		.4byte	0x38
 12394 45f9 14       		.byte	0x14
 12395 45fa 00       		.byte	0
 12396 45fb 15       		.uleb128 0x15
 12397 45fc EB450000 		.4byte	0x45eb
 12398 4600 33       		.uleb128 0x33
 12399 4601 30170000 		.4byte	.LASF848
 12400 4605 01       		.byte	0x1
 12401 4606 8202     		.2byte	0x282
ARM GAS  /tmp/ccDzFi87.s 			page 219


 12402 4608 06       		.byte	0x6
 12403 4609 64200000 		.4byte	0x2064
 12404 460d 00000000 		.4byte	.LFB274
 12405 4611 D4000000 		.4byte	.LFE274-.LFB274
 12406 4615 01       		.uleb128 0x1
 12407 4616 9C       		.byte	0x9c
 12408 4617 7A470000 		.4byte	0x477a
 12409 461b 34       		.uleb128 0x34
 12410 461c 97110000 		.4byte	.LASF839
 12411 4620 01       		.byte	0x1
 12412 4621 8202     		.2byte	0x282
 12413 4623 26       		.byte	0x26
 12414 4624 2C430000 		.4byte	0x432c
 12415 4628 29030000 		.4byte	.LLST51
 12416 462c 21030000 		.4byte	.LVUS51
 12417 4630 36       		.uleb128 0x36
 12418 4631 62756600 		.ascii	"buf\000"
 12419 4635 01       		.byte	0x1
 12420 4636 8202     		.2byte	0x282
 12421 4638 35       		.byte	0x35
 12422 4639 381E0000 		.4byte	0x1e38
 12423 463d 65030000 		.4byte	.LLST52
 12424 4641 5D030000 		.4byte	.LVUS52
 12425 4645 34       		.uleb128 0x34
 12426 4646 CD1F0000 		.4byte	.LASF849
 12427 464a 01       		.byte	0x1
 12428 464b 8202     		.2byte	0x282
 12429 464d 41       		.byte	0x41
 12430 464e 2C000000 		.4byte	0x2c
 12431 4652 A9030000 		.4byte	.LLST53
 12432 4656 99030000 		.4byte	.LVUS53
 12433 465a 36       		.uleb128 0x36
 12434 465b 636D6400 		.ascii	"cmd\000"
 12435 465f 01       		.byte	0x1
 12436 4660 8302     		.2byte	0x283
 12437 4662 23       		.byte	0x23
 12438 4663 37090000 		.4byte	0x937
 12439 4667 16040000 		.4byte	.LLST54
 12440 466b 12040000 		.4byte	.LVUS54
 12441 466f 36       		.uleb128 0x36
 12442 4670 61726700 		.ascii	"arg\000"
 12443 4674 01       		.byte	0x1
 12444 4675 8302     		.2byte	0x283
 12445 4677 31       		.byte	0x31
 12446 4678 54090000 		.4byte	0x954
 12447 467c 3B040000 		.4byte	.LLST55
 12448 4680 37040000 		.4byte	.LVUS55
 12449 4684 43       		.uleb128 0x43
 12450 4685 D80C0000 		.4byte	.LASF845
 12451 4689 01       		.byte	0x1
 12452 468a 8402     		.2byte	0x284
 12453 468c 0C       		.byte	0xc
 12454 468d DA0D0000 		.4byte	0xdda
 12455 4691 02       		.uleb128 0x2
 12456 4692 91       		.byte	0x91
 12457 4693 60       		.sleb128 -32
 12458 4694 44       		.uleb128 0x44
ARM GAS  /tmp/ccDzFi87.s 			page 220


 12459 4695 E4200000 		.4byte	.LASF847
 12460 4699 01       		.byte	0x1
 12461 469a 9202     		.2byte	0x292
 12462 469c 01       		.byte	0x1
 12463 469d 84000000 		.4byte	.LDL1
 12464 46a1 45       		.uleb128 0x45
 12465 46a2 434F0000 		.4byte	0x4f43
 12466 46a6 20000000 		.4byte	.LBI238
 12467 46aa 02       		.byte	.LVU533
 12468 46ab E0010000 		.4byte	.Ldebug_ranges0+0x1e0
 12469 46af 01       		.byte	0x1
 12470 46b0 8602     		.2byte	0x286
 12471 46b2 06       		.byte	0x6
 12472 46b3 0C470000 		.4byte	0x470c
 12473 46b7 46       		.uleb128 0x46
 12474 46b8 6C4F0000 		.4byte	0x4f6c
 12475 46bc 69040000 		.4byte	.LLST56
 12476 46c0 5B040000 		.4byte	.LVUS56
 12477 46c4 46       		.uleb128 0x46
 12478 46c5 604F0000 		.4byte	0x4f60
 12479 46c9 CE040000 		.4byte	.LLST57
 12480 46cd C4040000 		.4byte	.LVUS57
 12481 46d1 46       		.uleb128 0x46
 12482 46d2 544F0000 		.4byte	0x4f54
 12483 46d6 17050000 		.4byte	.LLST58
 12484 46da 0D050000 		.4byte	.LVUS58
 12485 46de 47       		.uleb128 0x47
 12486 46df E0010000 		.4byte	.Ldebug_ranges0+0x1e0
 12487 46e3 39       		.uleb128 0x39
 12488 46e4 2E000000 		.4byte	.LVL138
 12489 46e8 94570000 		.4byte	0x5794
 12490 46ec F7460000 		.4byte	0x46f7
 12491 46f0 3A       		.uleb128 0x3a
 12492 46f1 01       		.uleb128 0x1
 12493 46f2 50       		.byte	0x50
 12494 46f3 02       		.uleb128 0x2
 12495 46f4 74       		.byte	0x74
 12496 46f5 00       		.sleb128 0
 12497 46f6 00       		.byte	0
 12498 46f7 3B       		.uleb128 0x3b
 12499 46f8 AA000000 		.4byte	.LVL147
 12500 46fc A0570000 		.4byte	0x57a0
 12501 4700 3A       		.uleb128 0x3a
 12502 4701 01       		.uleb128 0x1
 12503 4702 50       		.byte	0x50
 12504 4703 05       		.uleb128 0x5
 12505 4704 03       		.byte	0x3
 12506 4705 00000000 		.4byte	.LANCHOR4
 12507 4709 00       		.byte	0
 12508 470a 00       		.byte	0
 12509 470b 00       		.byte	0
 12510 470c 39       		.uleb128 0x39
 12511 470d 7A000000 		.4byte	.LVL141
 12512 4711 2E480000 		.4byte	0x482e
 12513 4715 32470000 		.4byte	0x4732
 12514 4719 3A       		.uleb128 0x3a
 12515 471a 01       		.uleb128 0x1
ARM GAS  /tmp/ccDzFi87.s 			page 221


 12516 471b 50       		.byte	0x50
 12517 471c 02       		.uleb128 0x2
 12518 471d 74       		.byte	0x74
 12519 471e 00       		.sleb128 0
 12520 471f 3A       		.uleb128 0x3a
 12521 4720 01       		.uleb128 0x1
 12522 4721 51       		.byte	0x51
 12523 4722 02       		.uleb128 0x2
 12524 4723 76       		.byte	0x76
 12525 4724 00       		.sleb128 0
 12526 4725 3A       		.uleb128 0x3a
 12527 4726 01       		.uleb128 0x1
 12528 4727 52       		.byte	0x52
 12529 4728 02       		.uleb128 0x2
 12530 4729 78       		.byte	0x78
 12531 472a 00       		.sleb128 0
 12532 472b 3A       		.uleb128 0x3a
 12533 472c 01       		.uleb128 0x1
 12534 472d 53       		.byte	0x53
 12535 472e 02       		.uleb128 0x2
 12536 472f 75       		.byte	0x75
 12537 4730 00       		.sleb128 0
 12538 4731 00       		.byte	0
 12539 4732 39       		.uleb128 0x39
 12540 4733 8E000000 		.4byte	.LVL142
 12541 4737 184E0000 		.4byte	0x4e18
 12542 473b 51470000 		.4byte	0x4751
 12543 473f 3A       		.uleb128 0x3a
 12544 4740 01       		.uleb128 0x1
 12545 4741 50       		.byte	0x50
 12546 4742 02       		.uleb128 0x2
 12547 4743 74       		.byte	0x74
 12548 4744 00       		.sleb128 0
 12549 4745 3A       		.uleb128 0x3a
 12550 4746 01       		.uleb128 0x1
 12551 4747 51       		.byte	0x51
 12552 4748 01       		.uleb128 0x1
 12553 4749 31       		.byte	0x31
 12554 474a 3A       		.uleb128 0x3a
 12555 474b 01       		.uleb128 0x1
 12556 474c 52       		.byte	0x52
 12557 474d 02       		.uleb128 0x2
 12558 474e 75       		.byte	0x75
 12559 474f 00       		.sleb128 0
 12560 4750 00       		.byte	0
 12561 4751 39       		.uleb128 0x39
 12562 4752 B6000000 		.4byte	.LVL149
 12563 4756 8F4E0000 		.4byte	0x4e8f
 12564 475a 70470000 		.4byte	0x4770
 12565 475e 3A       		.uleb128 0x3a
 12566 475f 01       		.uleb128 0x1
 12567 4760 50       		.byte	0x50
 12568 4761 02       		.uleb128 0x2
 12569 4762 74       		.byte	0x74
 12570 4763 00       		.sleb128 0
 12571 4764 3A       		.uleb128 0x3a
 12572 4765 01       		.uleb128 0x1
ARM GAS  /tmp/ccDzFi87.s 			page 222


 12573 4766 51       		.byte	0x51
 12574 4767 01       		.uleb128 0x1
 12575 4768 31       		.byte	0x31
 12576 4769 3A       		.uleb128 0x3a
 12577 476a 01       		.uleb128 0x1
 12578 476b 52       		.byte	0x52
 12579 476c 02       		.uleb128 0x2
 12580 476d 75       		.byte	0x75
 12581 476e 00       		.sleb128 0
 12582 476f 00       		.byte	0
 12583 4770 35       		.uleb128 0x35
 12584 4771 C0000000 		.4byte	.LVL150
 12585 4775 80570000 		.4byte	0x5780
 12586 4779 00       		.byte	0
 12587 477a 33       		.uleb128 0x33
 12588 477b 51120000 		.4byte	.LASF850
 12589 477f 01       		.byte	0x1
 12590 4780 5802     		.2byte	0x258
 12591 4782 06       		.byte	0x6
 12592 4783 64200000 		.4byte	0x2064
 12593 4787 00000000 		.4byte	.LFB273
 12594 478b 6C000000 		.4byte	.LFE273-.LFB273
 12595 478f 01       		.uleb128 0x1
 12596 4790 9C       		.byte	0x9c
 12597 4791 28480000 		.4byte	0x4828
 12598 4795 34       		.uleb128 0x34
 12599 4796 97110000 		.4byte	.LASF839
 12600 479a 01       		.byte	0x1
 12601 479b 5802     		.2byte	0x258
 12602 479d 2B       		.byte	0x2b
 12603 479e 2C430000 		.4byte	0x432c
 12604 47a2 60050000 		.4byte	.LLST46
 12605 47a6 56050000 		.4byte	.LVUS46
 12606 47aa 36       		.uleb128 0x36
 12607 47ab 636D6400 		.ascii	"cmd\000"
 12608 47af 01       		.byte	0x1
 12609 47b0 5802     		.2byte	0x258
 12610 47b2 39       		.byte	0x39
 12611 47b3 37090000 		.4byte	0x937
 12612 47b7 AB050000 		.4byte	.LLST47
 12613 47bb A7050000 		.4byte	.LVUS47
 12614 47bf 36       		.uleb128 0x36
 12615 47c0 61726700 		.ascii	"arg\000"
 12616 47c4 01       		.byte	0x1
 12617 47c5 5802     		.2byte	0x258
 12618 47c7 47       		.byte	0x47
 12619 47c8 54090000 		.4byte	0x954
 12620 47cc D2050000 		.4byte	.LLST48
 12621 47d0 CC050000 		.4byte	.LVUS48
 12622 47d4 34       		.uleb128 0x34
 12623 47d5 D80C0000 		.4byte	.LASF845
 12624 47d9 01       		.byte	0x1
 12625 47da 5902     		.2byte	0x259
 12626 47dc 2A       		.byte	0x2a
 12627 47dd 28480000 		.4byte	0x4828
 12628 47e1 0B060000 		.4byte	.LLST49
 12629 47e5 FF050000 		.4byte	.LVUS49
ARM GAS  /tmp/ccDzFi87.s 			page 223


 12630 47e9 38       		.uleb128 0x38
 12631 47ea 73746100 		.ascii	"sta\000"
 12632 47ee 01       		.byte	0x1
 12633 47ef 5A02     		.2byte	0x25a
 12634 47f1 0C       		.byte	0xc
 12635 47f2 54090000 		.4byte	0x954
 12636 47f6 62060000 		.4byte	.LLST50
 12637 47fa 5E060000 		.4byte	.LVUS50
 12638 47fe 39       		.uleb128 0x39
 12639 47ff 60000000 		.4byte	.LVL131
 12640 4803 BF500000 		.4byte	0x50bf
 12641 4807 1E480000 		.4byte	0x481e
 12642 480b 3A       		.uleb128 0x3a
 12643 480c 01       		.uleb128 0x1
 12644 480d 50       		.byte	0x50
 12645 480e 05       		.uleb128 0x5
 12646 480f F3       		.byte	0xf3
 12647 4810 01       		.uleb128 0x1
 12648 4811 50       		.byte	0x50
 12649 4812 23       		.byte	0x23
 12650 4813 34       		.uleb128 0x34
 12651 4814 48       		.uleb128 0x48
 12652 4815 674E0000 		.4byte	0x4e67
 12653 4819 03       		.uleb128 0x3
 12654 481a F3       		.byte	0xf3
 12655 481b 01       		.uleb128 0x1
 12656 481c 50       		.byte	0x50
 12657 481d 00       		.byte	0
 12658 481e 35       		.uleb128 0x35
 12659 481f 68000000 		.4byte	.LVL133
 12660 4823 80570000 		.4byte	0x5780
 12661 4827 00       		.byte	0
 12662 4828 0F       		.uleb128 0xf
 12663 4829 04       		.byte	0x4
 12664 482a 54090000 		.4byte	0x954
 12665 482e 33       		.uleb128 0x33
 12666 482f 65020000 		.4byte	.LASF851
 12667 4833 01       		.byte	0x1
 12668 4834 3802     		.2byte	0x238
 12669 4836 06       		.byte	0x6
 12670 4837 64200000 		.4byte	0x2064
 12671 483b 00000000 		.4byte	.LFB272
 12672 483f 5C000000 		.4byte	.LFE272-.LFB272
 12673 4843 01       		.uleb128 0x1
 12674 4844 9C       		.byte	0x9c
 12675 4845 DC480000 		.4byte	0x48dc
 12676 4849 34       		.uleb128 0x34
 12677 484a 97110000 		.4byte	.LASF839
 12678 484e 01       		.byte	0x1
 12679 484f 3802     		.2byte	0x238
 12680 4851 2C       		.byte	0x2c
 12681 4852 2C430000 		.4byte	0x432c
 12682 4856 8A060000 		.4byte	.LLST24
 12683 485a 80060000 		.4byte	.LVUS24
 12684 485e 36       		.uleb128 0x36
 12685 485f 636D6400 		.ascii	"cmd\000"
 12686 4863 01       		.byte	0x1
ARM GAS  /tmp/ccDzFi87.s 			page 224


 12687 4864 3802     		.2byte	0x238
 12688 4866 3A       		.byte	0x3a
 12689 4867 37090000 		.4byte	0x937
 12690 486b D5060000 		.4byte	.LLST25
 12691 486f D1060000 		.4byte	.LVUS25
 12692 4873 36       		.uleb128 0x36
 12693 4874 61726700 		.ascii	"arg\000"
 12694 4878 01       		.byte	0x1
 12695 4879 3802     		.2byte	0x238
 12696 487b 48       		.byte	0x48
 12697 487c 54090000 		.4byte	0x954
 12698 4880 FC060000 		.4byte	.LLST26
 12699 4884 F6060000 		.4byte	.LVUS26
 12700 4888 34       		.uleb128 0x34
 12701 4889 D80C0000 		.4byte	.LASF845
 12702 488d 01       		.byte	0x1
 12703 488e 3902     		.2byte	0x239
 12704 4890 2B       		.byte	0x2b
 12705 4891 28480000 		.4byte	0x4828
 12706 4895 31070000 		.4byte	.LLST27
 12707 4899 29070000 		.4byte	.LVUS27
 12708 489d 38       		.uleb128 0x38
 12709 489e 73746100 		.ascii	"sta\000"
 12710 48a2 01       		.byte	0x1
 12711 48a3 3A02     		.2byte	0x23a
 12712 48a5 0C       		.byte	0xc
 12713 48a6 54090000 		.4byte	0x954
 12714 48aa 6F070000 		.4byte	.LLST28
 12715 48ae 6B070000 		.4byte	.LVUS28
 12716 48b2 39       		.uleb128 0x39
 12717 48b3 4E000000 		.4byte	.LVL85
 12718 48b7 BF500000 		.4byte	0x50bf
 12719 48bb D2480000 		.4byte	0x48d2
 12720 48bf 3A       		.uleb128 0x3a
 12721 48c0 01       		.uleb128 0x1
 12722 48c1 50       		.byte	0x50
 12723 48c2 05       		.uleb128 0x5
 12724 48c3 F3       		.byte	0xf3
 12725 48c4 01       		.uleb128 0x1
 12726 48c5 50       		.byte	0x50
 12727 48c6 23       		.byte	0x23
 12728 48c7 34       		.uleb128 0x34
 12729 48c8 48       		.uleb128 0x48
 12730 48c9 674E0000 		.4byte	0x4e67
 12731 48cd 03       		.uleb128 0x3
 12732 48ce F3       		.byte	0xf3
 12733 48cf 01       		.uleb128 0x1
 12734 48d0 50       		.byte	0x50
 12735 48d1 00       		.byte	0
 12736 48d2 35       		.uleb128 0x35
 12737 48d3 56000000 		.4byte	.LVL86
 12738 48d7 80570000 		.4byte	0x5780
 12739 48db 00       		.byte	0
 12740 48dc 33       		.uleb128 0x33
 12741 48dd 79080000 		.4byte	.LASF852
 12742 48e1 01       		.byte	0x1
 12743 48e2 1702     		.2byte	0x217
ARM GAS  /tmp/ccDzFi87.s 			page 225


 12744 48e4 06       		.byte	0x6
 12745 48e5 64200000 		.4byte	0x2064
 12746 48e9 00000000 		.4byte	.LFB271
 12747 48ed 5C000000 		.4byte	.LFE271-.LFB271
 12748 48f1 01       		.uleb128 0x1
 12749 48f2 9C       		.byte	0x9c
 12750 48f3 8A490000 		.4byte	0x498a
 12751 48f7 34       		.uleb128 0x34
 12752 48f8 97110000 		.4byte	.LASF839
 12753 48fc 01       		.byte	0x1
 12754 48fd 1702     		.2byte	0x217
 12755 48ff 28       		.byte	0x28
 12756 4900 2C430000 		.4byte	0x432c
 12757 4904 97070000 		.4byte	.LLST19
 12758 4908 8D070000 		.4byte	.LVUS19
 12759 490c 36       		.uleb128 0x36
 12760 490d 636D6400 		.ascii	"cmd\000"
 12761 4911 01       		.byte	0x1
 12762 4912 1702     		.2byte	0x217
 12763 4914 36       		.byte	0x36
 12764 4915 37090000 		.4byte	0x937
 12765 4919 E2070000 		.4byte	.LLST20
 12766 491d DE070000 		.4byte	.LVUS20
 12767 4921 36       		.uleb128 0x36
 12768 4922 61726700 		.ascii	"arg\000"
 12769 4926 01       		.byte	0x1
 12770 4927 1702     		.2byte	0x217
 12771 4929 44       		.byte	0x44
 12772 492a 54090000 		.4byte	0x954
 12773 492e 09080000 		.4byte	.LLST21
 12774 4932 03080000 		.4byte	.LVUS21
 12775 4936 34       		.uleb128 0x34
 12776 4937 D80C0000 		.4byte	.LASF845
 12777 493b 01       		.byte	0x1
 12778 493c 1802     		.2byte	0x218
 12779 493e 27       		.byte	0x27
 12780 493f 28480000 		.4byte	0x4828
 12781 4943 3E080000 		.4byte	.LLST22
 12782 4947 36080000 		.4byte	.LVUS22
 12783 494b 38       		.uleb128 0x38
 12784 494c 73746100 		.ascii	"sta\000"
 12785 4950 01       		.byte	0x1
 12786 4951 1902     		.2byte	0x219
 12787 4953 0C       		.byte	0xc
 12788 4954 54090000 		.4byte	0x954
 12789 4958 7C080000 		.4byte	.LLST23
 12790 495c 78080000 		.4byte	.LVUS23
 12791 4960 39       		.uleb128 0x39
 12792 4961 4E000000 		.4byte	.LVL74
 12793 4965 BF500000 		.4byte	0x50bf
 12794 4969 80490000 		.4byte	0x4980
 12795 496d 3A       		.uleb128 0x3a
 12796 496e 01       		.uleb128 0x1
 12797 496f 50       		.byte	0x50
 12798 4970 05       		.uleb128 0x5
 12799 4971 F3       		.byte	0xf3
 12800 4972 01       		.uleb128 0x1
ARM GAS  /tmp/ccDzFi87.s 			page 226


 12801 4973 50       		.byte	0x50
 12802 4974 23       		.byte	0x23
 12803 4975 34       		.uleb128 0x34
 12804 4976 48       		.uleb128 0x48
 12805 4977 674E0000 		.4byte	0x4e67
 12806 497b 03       		.uleb128 0x3
 12807 497c F3       		.byte	0xf3
 12808 497d 01       		.uleb128 0x1
 12809 497e 50       		.byte	0x50
 12810 497f 00       		.byte	0
 12811 4980 35       		.uleb128 0x35
 12812 4981 56000000 		.4byte	.LVL75
 12813 4985 80570000 		.4byte	0x5780
 12814 4989 00       		.byte	0
 12815 498a 49       		.uleb128 0x49
 12816 498b A71E0000 		.4byte	.LASF853
 12817 498f 01       		.byte	0x1
 12818 4990 FF01     		.2byte	0x1ff
 12819 4992 06       		.byte	0x6
 12820 4993 00000000 		.4byte	.LFB270
 12821 4997 44000000 		.4byte	.LFE270-.LFB270
 12822 499b 01       		.uleb128 0x1
 12823 499c 9C       		.byte	0x9c
 12824 499d EA490000 		.4byte	0x49ea
 12825 49a1 34       		.uleb128 0x34
 12826 49a2 97110000 		.4byte	.LASF839
 12827 49a6 01       		.byte	0x1
 12828 49a7 FF01     		.2byte	0x1ff
 12829 49a9 27       		.byte	0x27
 12830 49aa 2C430000 		.4byte	0x432c
 12831 49ae 9E080000 		.4byte	.LLST16
 12832 49b2 9A080000 		.4byte	.LVUS16
 12833 49b6 36       		.uleb128 0x36
 12834 49b7 636D6400 		.ascii	"cmd\000"
 12835 49bb 01       		.byte	0x1
 12836 49bc FF01     		.2byte	0x1ff
 12837 49be 35       		.byte	0x35
 12838 49bf 37090000 		.4byte	0x937
 12839 49c3 C3080000 		.4byte	.LLST17
 12840 49c7 BF080000 		.4byte	.LVUS17
 12841 49cb 36       		.uleb128 0x36
 12842 49cc 61726700 		.ascii	"arg\000"
 12843 49d0 01       		.byte	0x1
 12844 49d1 FF01     		.2byte	0x1ff
 12845 49d3 43       		.byte	0x43
 12846 49d4 54090000 		.4byte	0x954
 12847 49d8 E8080000 		.4byte	.LLST18
 12848 49dc E4080000 		.4byte	.LVUS18
 12849 49e0 35       		.uleb128 0x35
 12850 49e1 40000000 		.4byte	.LVL64
 12851 49e5 80570000 		.4byte	0x5780
 12852 49e9 00       		.byte	0
 12853 49ea 49       		.uleb128 0x49
 12854 49eb 04030000 		.4byte	.LASF854
 12855 49ef 01       		.byte	0x1
 12856 49f0 E601     		.2byte	0x1e6
 12857 49f2 06       		.byte	0x6
ARM GAS  /tmp/ccDzFi87.s 			page 227


 12858 49f3 00000000 		.4byte	.LFB269
 12859 49f7 48000000 		.4byte	.LFE269-.LFB269
 12860 49fb 01       		.uleb128 0x1
 12861 49fc 9C       		.byte	0x9c
 12862 49fd 4A4A0000 		.4byte	0x4a4a
 12863 4a01 34       		.uleb128 0x34
 12864 4a02 97110000 		.4byte	.LASF839
 12865 4a06 01       		.byte	0x1
 12866 4a07 E601     		.2byte	0x1e6
 12867 4a09 26       		.byte	0x26
 12868 4a0a 2C430000 		.4byte	0x432c
 12869 4a0e 0D090000 		.4byte	.LLST13
 12870 4a12 09090000 		.4byte	.LVUS13
 12871 4a16 34       		.uleb128 0x34
 12872 4a17 A4080000 		.4byte	.LASF534
 12873 4a1b 01       		.byte	0x1
 12874 4a1c E601     		.2byte	0x1e6
 12875 4a1e 39       		.byte	0x39
 12876 4a1f B1330000 		.4byte	0x33b1
 12877 4a23 32090000 		.4byte	.LLST14
 12878 4a27 2E090000 		.4byte	.LVUS14
 12879 4a2b 38       		.uleb128 0x38
 12880 4a2c 636C6B00 		.ascii	"clk\000"
 12881 4a30 01       		.byte	0x1
 12882 4a31 E701     		.2byte	0x1e7
 12883 4a33 0C       		.byte	0xc
 12884 4a34 54090000 		.4byte	0x954
 12885 4a38 59090000 		.4byte	.LLST15
 12886 4a3c 53090000 		.4byte	.LVUS15
 12887 4a40 35       		.uleb128 0x35
 12888 4a41 44000000 		.4byte	.LVL60
 12889 4a45 80570000 		.4byte	0x5780
 12890 4a49 00       		.byte	0
 12891 4a4a 49       		.uleb128 0x49
 12892 4a4b 69230000 		.4byte	.LASF855
 12893 4a4f 01       		.byte	0x1
 12894 4a50 D801     		.2byte	0x1d8
 12895 4a52 06       		.byte	0x6
 12896 4a53 00000000 		.4byte	.LFB268
 12897 4a57 30000000 		.4byte	.LFE268-.LFB268
 12898 4a5b 01       		.uleb128 0x1
 12899 4a5c 9C       		.byte	0x9c
 12900 4a5d 804A0000 		.4byte	0x4a80
 12901 4a61 34       		.uleb128 0x34
 12902 4a62 97110000 		.4byte	.LASF839
 12903 4a66 01       		.byte	0x1
 12904 4a67 D801     		.2byte	0x1d8
 12905 4a69 22       		.byte	0x22
 12906 4a6a 2C430000 		.4byte	0x432c
 12907 4a6e 86090000 		.4byte	.LLST12
 12908 4a72 82090000 		.4byte	.LVUS12
 12909 4a76 35       		.uleb128 0x35
 12910 4a77 2C000000 		.4byte	.LVL52
 12911 4a7b 80570000 		.4byte	0x5780
 12912 4a7f 00       		.byte	0
 12913 4a80 49       		.uleb128 0x49
 12914 4a81 50250000 		.4byte	.LASF856
ARM GAS  /tmp/ccDzFi87.s 			page 228


 12915 4a85 01       		.byte	0x1
 12916 4a86 C201     		.2byte	0x1c2
 12917 4a88 06       		.byte	0x6
 12918 4a89 00000000 		.4byte	.LFB267
 12919 4a8d 30000000 		.4byte	.LFE267-.LFB267
 12920 4a91 01       		.uleb128 0x1
 12921 4a92 9C       		.byte	0x9c
 12922 4a93 CB4A0000 		.4byte	0x4acb
 12923 4a97 34       		.uleb128 0x34
 12924 4a98 97110000 		.4byte	.LASF839
 12925 4a9c 01       		.byte	0x1
 12926 4a9d C201     		.2byte	0x1c2
 12927 4a9f 26       		.byte	0x26
 12928 4aa0 2C430000 		.4byte	0x432c
 12929 4aa4 AB090000 		.4byte	.LLST10
 12930 4aa8 A7090000 		.4byte	.LVUS10
 12931 4aac 36       		.uleb128 0x36
 12932 4aad 636C6B00 		.ascii	"clk\000"
 12933 4ab1 01       		.byte	0x1
 12934 4ab2 C201     		.2byte	0x1c2
 12935 4ab4 38       		.byte	0x38
 12936 4ab5 D8330000 		.4byte	0x33d8
 12937 4ab9 D0090000 		.4byte	.LLST11
 12938 4abd CC090000 		.4byte	.LVUS11
 12939 4ac1 35       		.uleb128 0x35
 12940 4ac2 2C000000 		.4byte	.LVL50
 12941 4ac6 80570000 		.4byte	0x5780
 12942 4aca 00       		.byte	0
 12943 4acb 49       		.uleb128 0x49
 12944 4acc ED000000 		.4byte	.LASF857
 12945 4ad0 01       		.byte	0x1
 12946 4ad1 AF01     		.2byte	0x1af
 12947 4ad3 06       		.byte	0x6
 12948 4ad4 00000000 		.4byte	.LFB266
 12949 4ad8 48000000 		.4byte	.LFE266-.LFB266
 12950 4adc 01       		.uleb128 0x1
 12951 4add 9C       		.byte	0x9c
 12952 4ade 2D4B0000 		.4byte	0x4b2d
 12953 4ae2 34       		.uleb128 0x34
 12954 4ae3 97110000 		.4byte	.LASF839
 12955 4ae7 01       		.byte	0x1
 12956 4ae8 AF01     		.2byte	0x1af
 12957 4aea 23       		.byte	0x23
 12958 4aeb 2C430000 		.4byte	0x432c
 12959 4aef F9090000 		.4byte	.LLST9
 12960 4af3 F1090000 		.4byte	.LVUS9
 12961 4af7 4A       		.uleb128 0x4a
 12962 4af8 E64F0000 		.4byte	0x4fe6
 12963 4afc 28000000 		.4byte	.LBI134
 12964 4b00 01       		.byte	.LVU190
 12965 4b01 C0000000 		.4byte	.Ldebug_ranges0+0xc0
 12966 4b05 01       		.byte	0x1
 12967 4b06 B701     		.2byte	0x1b7
 12968 4b08 03       		.byte	0x3
 12969 4b09 4B       		.uleb128 0x4b
 12970 4b0a F44F0000 		.4byte	0x4ff4
 12971 4b0e 0A       		.byte	0xa
ARM GAS  /tmp/ccDzFi87.s 			page 229


 12972 4b0f 4C       		.uleb128 0x4c
 12973 4b10 3E000000 		.4byte	.LVL47
 12974 4b14 AD570000 		.4byte	0x57ad
 12975 4b18 224B0000 		.4byte	0x4b22
 12976 4b1c 3A       		.uleb128 0x3a
 12977 4b1d 01       		.uleb128 0x1
 12978 4b1e 50       		.byte	0x50
 12979 4b1f 01       		.uleb128 0x1
 12980 4b20 3A       		.byte	0x3a
 12981 4b21 00       		.byte	0
 12982 4b22 35       		.uleb128 0x35
 12983 4b23 42000000 		.4byte	.LVL48
 12984 4b27 80570000 		.4byte	0x5780
 12985 4b2b 00       		.byte	0
 12986 4b2c 00       		.byte	0
 12987 4b2d 49       		.uleb128 0x49
 12988 4b2e 9A220000 		.4byte	.LASF858
 12989 4b32 01       		.byte	0x1
 12990 4b33 9701     		.2byte	0x197
 12991 4b35 06       		.byte	0x6
 12992 4b36 00000000 		.4byte	.LFB265
 12993 4b3a 58000000 		.4byte	.LFE265-.LFB265
 12994 4b3e 01       		.uleb128 0x1
 12995 4b3f 9C       		.byte	0x9c
 12996 4b40 804B0000 		.4byte	0x4b80
 12997 4b44 34       		.uleb128 0x34
 12998 4b45 97110000 		.4byte	.LASF839
 12999 4b49 01       		.byte	0x1
 13000 4b4a 9701     		.2byte	0x197
 13001 4b4c 1E       		.byte	0x1e
 13002 4b4d 2C430000 		.4byte	0x432c
 13003 4b51 390A0000 		.4byte	.LLST8
 13004 4b55 330A0000 		.4byte	.LVUS8
 13005 4b59 39       		.uleb128 0x39
 13006 4b5a 2E000000 		.4byte	.LVL40
 13007 4b5e B9570000 		.4byte	0x57b9
 13008 4b62 6D4B0000 		.4byte	0x4b6d
 13009 4b66 3A       		.uleb128 0x3a
 13010 4b67 01       		.uleb128 0x1
 13011 4b68 50       		.byte	0x50
 13012 4b69 02       		.uleb128 0x2
 13013 4b6a 08       		.byte	0x8
 13014 4b6b 31       		.byte	0x31
 13015 4b6c 00       		.byte	0
 13016 4b6d 35       		.uleb128 0x35
 13017 4b6e 34000000 		.4byte	.LVL41
 13018 4b72 C5570000 		.4byte	0x57c5
 13019 4b76 35       		.uleb128 0x35
 13020 4b77 50000000 		.4byte	.LVL43
 13021 4b7b 80570000 		.4byte	0x5780
 13022 4b7f 00       		.byte	0
 13023 4b80 49       		.uleb128 0x49
 13024 4b81 BF230000 		.4byte	.LASF859
 13025 4b85 01       		.byte	0x1
 13026 4b86 6901     		.2byte	0x169
 13027 4b88 06       		.byte	0x6
 13028 4b89 00000000 		.4byte	.LFB264
ARM GAS  /tmp/ccDzFi87.s 			page 230


 13029 4b8d A0000000 		.4byte	.LFE264-.LFB264
 13030 4b91 01       		.uleb128 0x1
 13031 4b92 9C       		.byte	0x9c
 13032 4b93 2B4C0000 		.4byte	0x4c2b
 13033 4b97 34       		.uleb128 0x34
 13034 4b98 97110000 		.4byte	.LASF839
 13035 4b9c 01       		.byte	0x1
 13036 4b9d 6901     		.2byte	0x169
 13037 4b9f 1F       		.byte	0x1f
 13038 4ba0 2C430000 		.4byte	0x432c
 13039 4ba4 6D0A0000 		.4byte	.LLST6
 13040 4ba8 650A0000 		.4byte	.LVUS6
 13041 4bac 41       		.uleb128 0x41
 13042 4bad 45000000 		.4byte	.LASF846
 13043 4bb1 3B4C0000 		.4byte	0x4c3b
 13044 4bb5 05       		.uleb128 0x5
 13045 4bb6 03       		.byte	0x3
 13046 4bb7 00000000 		.4byte	__func__.10404
 13047 4bbb 37       		.uleb128 0x37
 13048 4bbc A8000000 		.4byte	.Ldebug_ranges0+0xa8
 13049 4bc0 214C0000 		.4byte	0x4c21
 13050 4bc4 38       		.uleb128 0x38
 13051 4bc5 6200     		.ascii	"b\000"
 13052 4bc7 01       		.byte	0x1
 13053 4bc8 7E01     		.2byte	0x17e
 13054 4bca 0A       		.byte	0xa
 13055 4bcb 64200000 		.4byte	0x2064
 13056 4bcf A50A0000 		.4byte	.LLST7
 13057 4bd3 A10A0000 		.4byte	.LVUS7
 13058 4bd7 39       		.uleb128 0x39
 13059 4bd8 58000000 		.4byte	.LVL31
 13060 4bdc D2570000 		.4byte	0x57d2
 13061 4be0 F44B0000 		.4byte	0x4bf4
 13062 4be4 3A       		.uleb128 0x3a
 13063 4be5 01       		.uleb128 0x1
 13064 4be6 51       		.byte	0x51
 13065 4be7 01       		.uleb128 0x1
 13066 4be8 39       		.byte	0x39
 13067 4be9 3A       		.uleb128 0x3a
 13068 4bea 01       		.uleb128 0x1
 13069 4beb 52       		.byte	0x52
 13070 4bec 01       		.uleb128 0x1
 13071 4bed 30       		.byte	0x30
 13072 4bee 3A       		.uleb128 0x3a
 13073 4bef 01       		.uleb128 0x1
 13074 4bf0 53       		.byte	0x53
 13075 4bf1 01       		.uleb128 0x1
 13076 4bf2 30       		.byte	0x30
 13077 4bf3 00       		.byte	0
 13078 4bf4 39       		.uleb128 0x39
 13079 4bf5 74000000 		.4byte	.LVL33
 13080 4bf9 DF570000 		.4byte	0x57df
 13081 4bfd 0D4C0000 		.4byte	0x4c0d
 13082 4c01 3A       		.uleb128 0x3a
 13083 4c02 01       		.uleb128 0x1
 13084 4c03 50       		.byte	0x50
 13085 4c04 02       		.uleb128 0x2
ARM GAS  /tmp/ccDzFi87.s 			page 231


 13086 4c05 08       		.byte	0x8
 13087 4c06 31       		.byte	0x31
 13088 4c07 3A       		.uleb128 0x3a
 13089 4c08 01       		.uleb128 0x1
 13090 4c09 51       		.byte	0x51
 13091 4c0a 01       		.uleb128 0x1
 13092 4c0b 39       		.byte	0x39
 13093 4c0c 00       		.byte	0
 13094 4c0d 3B       		.uleb128 0x3b
 13095 4c0e 86000000 		.4byte	.LVL36
 13096 4c12 A0570000 		.4byte	0x57a0
 13097 4c16 3A       		.uleb128 0x3a
 13098 4c17 01       		.uleb128 0x1
 13099 4c18 50       		.byte	0x50
 13100 4c19 05       		.uleb128 0x5
 13101 4c1a 03       		.byte	0x3
 13102 4c1b 00000000 		.4byte	.LANCHOR2
 13103 4c1f 00       		.byte	0
 13104 4c20 00       		.byte	0
 13105 4c21 35       		.uleb128 0x35
 13106 4c22 8C000000 		.4byte	.LVL37
 13107 4c26 80570000 		.4byte	0x5780
 13108 4c2a 00       		.byte	0
 13109 4c2b 08       		.uleb128 0x8
 13110 4c2c C3050000 		.4byte	0x5c3
 13111 4c30 3B4C0000 		.4byte	0x4c3b
 13112 4c34 09       		.uleb128 0x9
 13113 4c35 38000000 		.4byte	0x38
 13114 4c39 0D       		.byte	0xd
 13115 4c3a 00       		.byte	0
 13116 4c3b 15       		.uleb128 0x15
 13117 4c3c 2B4C0000 		.4byte	0x4c2b
 13118 4c40 49       		.uleb128 0x49
 13119 4c41 8D0E0000 		.4byte	.LASF860
 13120 4c45 01       		.byte	0x1
 13121 4c46 5A01     		.2byte	0x15a
 13122 4c48 06       		.byte	0x6
 13123 4c49 00000000 		.4byte	.LFB263
 13124 4c4d 44000000 		.4byte	.LFE263-.LFB263
 13125 4c51 01       		.uleb128 0x1
 13126 4c52 9C       		.byte	0x9c
 13127 4c53 754C0000 		.4byte	0x4c75
 13128 4c57 39       		.uleb128 0x39
 13129 4c58 16000000 		.4byte	.LVL25
 13130 4c5c EB570000 		.4byte	0x57eb
 13131 4c60 6B4C0000 		.4byte	0x4c6b
 13132 4c64 3A       		.uleb128 0x3a
 13133 4c65 01       		.uleb128 0x1
 13134 4c66 50       		.byte	0x50
 13135 4c67 02       		.uleb128 0x2
 13136 4c68 74       		.byte	0x74
 13137 4c69 00       		.sleb128 0
 13138 4c6a 00       		.byte	0
 13139 4c6b 35       		.uleb128 0x35
 13140 4c6c 34000000 		.4byte	.LVL26
 13141 4c70 80570000 		.4byte	0x5780
 13142 4c74 00       		.byte	0
ARM GAS  /tmp/ccDzFi87.s 			page 232


 13143 4c75 49       		.uleb128 0x49
 13144 4c76 501B0000 		.4byte	.LASF861
 13145 4c7a 01       		.byte	0x1
 13146 4c7b 4001     		.2byte	0x140
 13147 4c7d 01       		.byte	0x1
 13148 4c7e 00000000 		.4byte	.LFB262
 13149 4c82 68000000 		.4byte	.LFE262-.LFB262
 13150 4c86 01       		.uleb128 0x1
 13151 4c87 9C       		.byte	0x9c
 13152 4c88 184E0000 		.4byte	0x4e18
 13153 4c8c 45       		.uleb128 0x45
 13154 4c8d 0C500000 		.4byte	0x500c
 13155 4c91 16000000 		.4byte	.LBI94
 13156 4c95 01       		.byte	.LVU43
 13157 4c96 00000000 		.4byte	.Ldebug_ranges0+0
 13158 4c9a 01       		.byte	0x1
 13159 4c9b 4401     		.2byte	0x144
 13160 4c9d 03       		.byte	0x3
 13161 4c9e 164D0000 		.4byte	0x4d16
 13162 4ca2 4A       		.uleb128 0x4a
 13163 4ca3 34500000 		.4byte	0x5034
 13164 4ca7 16000000 		.4byte	.LBI95
 13165 4cab 03       		.byte	.LVU45
 13166 4cac 08000000 		.4byte	.Ldebug_ranges0+0x8
 13167 4cb0 02       		.byte	0x2
 13168 4cb1 D501     		.2byte	0x1d5
 13169 4cb3 03       		.byte	0x3
 13170 4cb4 45       		.uleb128 0x45
 13171 4cb5 85500000 		.4byte	0x5085
 13172 4cb9 16000000 		.4byte	.LBI97
 13173 4cbd 05       		.byte	.LVU47
 13174 4cbe 28000000 		.4byte	.Ldebug_ranges0+0x28
 13175 4cc2 03       		.byte	0x3
 13176 4cc3 8401     		.2byte	0x184
 13177 4cc5 03       		.byte	0x3
 13178 4cc6 024D0000 		.4byte	0x4d02
 13179 4cca 4A       		.uleb128 0x4a
 13180 4ccb 99500000 		.4byte	0x5099
 13181 4ccf 16000000 		.4byte	.LBI98
 13182 4cd3 07       		.byte	.LVU49
 13183 4cd4 30000000 		.4byte	.Ldebug_ranges0+0x30
 13184 4cd8 04       		.byte	0x4
 13185 4cd9 DB01     		.2byte	0x1db
 13186 4cdb 03       		.byte	0x3
 13187 4cdc 4D       		.uleb128 0x4d
 13188 4cdd A3500000 		.4byte	0x50a3
 13189 4ce1 16000000 		.4byte	.LBI99
 13190 4ce5 09       		.byte	.LVU51
 13191 4ce6 16000000 		.4byte	.LBB99
 13192 4cea 06000000 		.4byte	.LBE99-.LBB99
 13193 4cee 04       		.byte	0x4
 13194 4cef BF01     		.2byte	0x1bf
 13195 4cf1 03       		.byte	0x3
 13196 4cf2 46       		.uleb128 0x46
 13197 4cf3 B1500000 		.4byte	0x50b1
 13198 4cf7 C50A0000 		.4byte	.LLST2
 13199 4cfb C30A0000 		.4byte	.LVUS2
ARM GAS  /tmp/ccDzFi87.s 			page 233


 13200 4cff 00       		.byte	0
 13201 4d00 00       		.byte	0
 13202 4d01 00       		.byte	0
 13203 4d02 35       		.uleb128 0x35
 13204 4d03 20000000 		.4byte	.LVL15
 13205 4d07 F7570000 		.4byte	0x57f7
 13206 4d0b 35       		.uleb128 0x35
 13207 4d0c 24000000 		.4byte	.LVL16
 13208 4d10 03580000 		.4byte	0x5803
 13209 4d14 00       		.byte	0
 13210 4d15 00       		.byte	0
 13211 4d16 45       		.uleb128 0x45
 13212 4d17 9D4F0000 		.4byte	0x4f9d
 13213 4d1b 2C000000 		.4byte	.LBI111
 13214 4d1f 01       		.byte	.LVU61
 13215 4d20 48000000 		.4byte	.Ldebug_ranges0+0x48
 13216 4d24 01       		.byte	0x1
 13217 4d25 4A01     		.2byte	0x14a
 13218 4d27 03       		.byte	0x3
 13219 4d28 604D0000 		.4byte	0x4d60
 13220 4d2c 46       		.uleb128 0x46
 13221 4d2d B84F0000 		.4byte	0x4fb8
 13222 4d31 DC0A0000 		.4byte	.LLST3
 13223 4d35 DA0A0000 		.4byte	.LVUS3
 13224 4d39 46       		.uleb128 0x46
 13225 4d3a AB4F0000 		.4byte	0x4fab
 13226 4d3e F20A0000 		.4byte	.LLST4
 13227 4d42 F00A0000 		.4byte	.LVUS4
 13228 4d46 3B       		.uleb128 0x3b
 13229 4d47 32000000 		.4byte	.LVL18
 13230 4d4b 0F580000 		.4byte	0x580f
 13231 4d4f 3A       		.uleb128 0x3a
 13232 4d50 01       		.uleb128 0x1
 13233 4d51 50       		.byte	0x50
 13234 4d52 05       		.uleb128 0x5
 13235 4d53 03       		.byte	0x3
 13236 4d54 3C000000 		.4byte	.LANCHOR0+60
 13237 4d58 3A       		.uleb128 0x3a
 13238 4d59 01       		.uleb128 0x1
 13239 4d5a 51       		.byte	0x51
 13240 4d5b 02       		.uleb128 0x2
 13241 4d5c 74       		.byte	0x74
 13242 4d5d 00       		.sleb128 0
 13243 4d5e 00       		.byte	0
 13244 4d5f 00       		.byte	0
 13245 4d60 45       		.uleb128 0x45
 13246 4d61 02500000 		.4byte	0x5002
 13247 4d65 32000000 		.4byte	.LBI115
 13248 4d69 02       		.byte	.LVU65
 13249 4d6a 60000000 		.4byte	.Ldebug_ranges0+0x60
 13250 4d6e 01       		.byte	0x1
 13251 4d6f 4C01     		.2byte	0x14c
 13252 4d71 03       		.byte	0x3
 13253 4d72 EA4D0000 		.4byte	0x4dea
 13254 4d76 4A       		.uleb128 0x4a
 13255 4d77 2A500000 		.4byte	0x502a
 13256 4d7b 32000000 		.4byte	.LBI116
ARM GAS  /tmp/ccDzFi87.s 			page 234


 13257 4d7f 04       		.byte	.LVU67
 13258 4d80 68000000 		.4byte	.Ldebug_ranges0+0x68
 13259 4d84 02       		.byte	0x2
 13260 4d85 E001     		.2byte	0x1e0
 13261 4d87 03       		.byte	0x3
 13262 4d88 45       		.uleb128 0x45
 13263 4d89 7B500000 		.4byte	0x507b
 13264 4d8d 3A000000 		.4byte	.LBI118
 13265 4d91 01       		.byte	.LVU71
 13266 4d92 88000000 		.4byte	.Ldebug_ranges0+0x88
 13267 4d96 03       		.byte	0x3
 13268 4d97 9A01     		.2byte	0x19a
 13269 4d99 03       		.byte	0x3
 13270 4d9a D64D0000 		.4byte	0x4dd6
 13271 4d9e 4A       		.uleb128 0x4a
 13272 4d9f 8F500000 		.4byte	0x508f
 13273 4da3 3A000000 		.4byte	.LBI119
 13274 4da7 03       		.byte	.LVU73
 13275 4da8 90000000 		.4byte	.Ldebug_ranges0+0x90
 13276 4dac 04       		.byte	0x4
 13277 4dad E601     		.2byte	0x1e6
 13278 4daf 03       		.byte	0x3
 13279 4db0 4D       		.uleb128 0x4d
 13280 4db1 A3500000 		.4byte	0x50a3
 13281 4db5 3A000000 		.4byte	.LBI120
 13282 4db9 05       		.byte	.LVU75
 13283 4dba 3A000000 		.4byte	.LBB120
 13284 4dbe 04000000 		.4byte	.LBE120-.LBB120
 13285 4dc2 04       		.byte	0x4
 13286 4dc3 CD01     		.2byte	0x1cd
 13287 4dc5 03       		.byte	0x3
 13288 4dc6 46       		.uleb128 0x46
 13289 4dc7 B1500000 		.4byte	0x50b1
 13290 4dcb 0C0B0000 		.4byte	.LLST5
 13291 4dcf 0A0B0000 		.4byte	.LVUS5
 13292 4dd3 00       		.byte	0
 13293 4dd4 00       		.byte	0
 13294 4dd5 00       		.byte	0
 13295 4dd6 35       		.uleb128 0x35
 13296 4dd7 36000000 		.4byte	.LVL19
 13297 4ddb 1B580000 		.4byte	0x581b
 13298 4ddf 35       		.uleb128 0x35
 13299 4de0 3A000000 		.4byte	.LVL20
 13300 4de4 27580000 		.4byte	0x5827
 13301 4de8 00       		.byte	0
 13302 4de9 00       		.byte	0
 13303 4dea 35       		.uleb128 0x35
 13304 4deb 12000000 		.4byte	.LVL12
 13305 4def 33580000 		.4byte	0x5833
 13306 4df3 35       		.uleb128 0x35
 13307 4df4 16000000 		.4byte	.LVL13
 13308 4df8 3F580000 		.4byte	0x583f
 13309 4dfc 35       		.uleb128 0x35
 13310 4dfd 42000000 		.4byte	.LVL22
 13311 4e01 4B580000 		.4byte	0x584b
 13312 4e05 3C       		.uleb128 0x3c
 13313 4e06 56000000 		.4byte	.LVL23
ARM GAS  /tmp/ccDzFi87.s 			page 235


 13314 4e0a 57580000 		.4byte	0x5857
 13315 4e0e 35       		.uleb128 0x35
 13316 4e0f 5A000000 		.4byte	.LVL24
 13317 4e13 80570000 		.4byte	0x5780
 13318 4e17 00       		.byte	0
 13319 4e18 4E       		.uleb128 0x4e
 13320 4e19 FA230000 		.4byte	.LASF862
 13321 4e1d 01       		.byte	0x1
 13322 4e1e 2301     		.2byte	0x123
 13323 4e20 0D       		.byte	0xd
 13324 4e21 01       		.byte	0x1
 13325 4e22 594E0000 		.4byte	0x4e59
 13326 4e26 3E       		.uleb128 0x3e
 13327 4e27 97110000 		.4byte	.LASF839
 13328 4e2b 01       		.byte	0x1
 13329 4e2c 2301     		.2byte	0x123
 13330 4e2e 2E       		.byte	0x2e
 13331 4e2f 2C430000 		.4byte	0x432c
 13332 4e33 3F       		.uleb128 0x3f
 13333 4e34 6E00     		.ascii	"n\000"
 13334 4e36 01       		.byte	0x1
 13335 4e37 2401     		.2byte	0x124
 13336 4e39 2C       		.byte	0x2c
 13337 4e3a 54090000 		.4byte	0x954
 13338 4e3e 3E       		.uleb128 0x3e
 13339 4e3f D80C0000 		.4byte	.LASF845
 13340 4e43 01       		.byte	0x1
 13341 4e44 2501     		.2byte	0x125
 13342 4e46 2D       		.byte	0x2d
 13343 4e47 28480000 		.4byte	0x4828
 13344 4e4b 4F       		.uleb128 0x4f
 13345 4e4c 73746100 		.ascii	"sta\000"
 13346 4e50 01       		.byte	0x1
 13347 4e51 2601     		.2byte	0x126
 13348 4e53 0C       		.byte	0xc
 13349 4e54 54090000 		.4byte	0x954
 13350 4e58 00       		.byte	0
 13351 4e59 4E       		.uleb128 0x4e
 13352 4e5a C4050000 		.4byte	.LASF863
 13353 4e5e 01       		.byte	0x1
 13354 4e5f 0501     		.2byte	0x105
 13355 4e61 0D       		.byte	0xd
 13356 4e62 01       		.byte	0x1
 13357 4e63 8F4E0000 		.4byte	0x4e8f
 13358 4e67 3E       		.uleb128 0x3e
 13359 4e68 97110000 		.4byte	.LASF839
 13360 4e6c 01       		.byte	0x1
 13361 4e6d 0501     		.2byte	0x105
 13362 4e6f 2F       		.byte	0x2f
 13363 4e70 2C430000 		.4byte	0x432c
 13364 4e74 3F       		.uleb128 0x3f
 13365 4e75 73746100 		.ascii	"sta\000"
 13366 4e79 01       		.byte	0x1
 13367 4e7a 0501     		.2byte	0x105
 13368 4e7c 3E       		.byte	0x3e
 13369 4e7d 54090000 		.4byte	0x954
 13370 4e81 40       		.uleb128 0x40
ARM GAS  /tmp/ccDzFi87.s 			page 236


 13371 4e82 47010000 		.4byte	.LASF587
 13372 4e86 01       		.byte	0x1
 13373 4e87 0601     		.2byte	0x106
 13374 4e89 0C       		.byte	0xc
 13375 4e8a 54090000 		.4byte	0x954
 13376 4e8e 00       		.byte	0
 13377 4e8f 50       		.uleb128 0x50
 13378 4e90 41030000 		.4byte	.LASF864
 13379 4e94 01       		.byte	0x1
 13380 4e95 D0       		.byte	0xd0
 13381 4e96 0D       		.byte	0xd
 13382 4e97 64200000 		.4byte	0x2064
 13383 4e9b 01       		.byte	0x1
 13384 4e9c C34E0000 		.4byte	0x4ec3
 13385 4ea0 51       		.uleb128 0x51
 13386 4ea1 97110000 		.4byte	.LASF839
 13387 4ea5 01       		.byte	0x1
 13388 4ea6 D0       		.byte	0xd0
 13389 4ea7 35       		.byte	0x35
 13390 4ea8 2C430000 		.4byte	0x432c
 13391 4eac 52       		.uleb128 0x52
 13392 4ead 6E00     		.ascii	"n\000"
 13393 4eaf 01       		.byte	0x1
 13394 4eb0 D0       		.byte	0xd0
 13395 4eb1 44       		.byte	0x44
 13396 4eb2 54090000 		.4byte	0x954
 13397 4eb6 51       		.uleb128 0x51
 13398 4eb7 D80C0000 		.4byte	.LASF845
 13399 4ebb 01       		.byte	0x1
 13400 4ebc D1       		.byte	0xd1
 13401 4ebd 34       		.byte	0x34
 13402 4ebe 28480000 		.4byte	0x4828
 13403 4ec2 00       		.byte	0
 13404 4ec3 50       		.uleb128 0x50
 13405 4ec4 1E120000 		.4byte	.LASF865
 13406 4ec8 01       		.byte	0x1
 13407 4ec9 AD       		.byte	0xad
 13408 4eca 0D       		.byte	0xd
 13409 4ecb 64200000 		.4byte	0x2064
 13410 4ecf 01       		.byte	0x1
 13411 4ed0 034F0000 		.4byte	0x4f03
 13412 4ed4 51       		.uleb128 0x51
 13413 4ed5 97110000 		.4byte	.LASF839
 13414 4ed9 01       		.byte	0x1
 13415 4eda AD       		.byte	0xad
 13416 4edb 2E       		.byte	0x2e
 13417 4edc 2C430000 		.4byte	0x432c
 13418 4ee0 51       		.uleb128 0x51
 13419 4ee1 D6240000 		.4byte	.LASF840
 13420 4ee5 01       		.byte	0x1
 13421 4ee6 AD       		.byte	0xad
 13422 4ee7 3D       		.byte	0x3d
 13423 4ee8 54090000 		.4byte	0x954
 13424 4eec 52       		.uleb128 0x52
 13425 4eed 6E00     		.ascii	"n\000"
 13426 4eef 01       		.byte	0x1
 13427 4ef0 AE       		.byte	0xae
ARM GAS  /tmp/ccDzFi87.s 			page 237


 13428 4ef1 2C       		.byte	0x2c
 13429 4ef2 54090000 		.4byte	0x954
 13430 4ef6 51       		.uleb128 0x51
 13431 4ef7 D80C0000 		.4byte	.LASF845
 13432 4efb 01       		.byte	0x1
 13433 4efc AE       		.byte	0xae
 13434 4efd 39       		.byte	0x39
 13435 4efe 28480000 		.4byte	0x4828
 13436 4f02 00       		.byte	0
 13437 4f03 50       		.uleb128 0x50
 13438 4f04 98230000 		.4byte	.LASF866
 13439 4f08 01       		.byte	0x1
 13440 4f09 87       		.byte	0x87
 13441 4f0a 0D       		.byte	0xd
 13442 4f0b 64200000 		.4byte	0x2064
 13443 4f0f 01       		.byte	0x1
 13444 4f10 434F0000 		.4byte	0x4f43
 13445 4f14 51       		.uleb128 0x51
 13446 4f15 97110000 		.4byte	.LASF839
 13447 4f19 01       		.byte	0x1
 13448 4f1a 87       		.byte	0x87
 13449 4f1b 2D       		.byte	0x2d
 13450 4f1c 2C430000 		.4byte	0x432c
 13451 4f20 51       		.uleb128 0x51
 13452 4f21 D6240000 		.4byte	.LASF840
 13453 4f25 01       		.byte	0x1
 13454 4f26 87       		.byte	0x87
 13455 4f27 3C       		.byte	0x3c
 13456 4f28 54090000 		.4byte	0x954
 13457 4f2c 52       		.uleb128 0x52
 13458 4f2d 6E00     		.ascii	"n\000"
 13459 4f2f 01       		.byte	0x1
 13460 4f30 88       		.byte	0x88
 13461 4f31 2B       		.byte	0x2b
 13462 4f32 54090000 		.4byte	0x954
 13463 4f36 51       		.uleb128 0x51
 13464 4f37 D80C0000 		.4byte	.LASF845
 13465 4f3b 01       		.byte	0x1
 13466 4f3c 88       		.byte	0x88
 13467 4f3d 38       		.byte	0x38
 13468 4f3e 28480000 		.4byte	0x4828
 13469 4f42 00       		.byte	0
 13470 4f43 50       		.uleb128 0x50
 13471 4f44 310A0000 		.4byte	.LASF867
 13472 4f48 01       		.byte	0x1
 13473 4f49 57       		.byte	0x57
 13474 4f4a 0D       		.byte	0xd
 13475 4f4b 64200000 		.4byte	0x2064
 13476 4f4f 01       		.byte	0x1
 13477 4f50 884F0000 		.4byte	0x4f88
 13478 4f54 51       		.uleb128 0x51
 13479 4f55 97110000 		.4byte	.LASF839
 13480 4f59 01       		.byte	0x1
 13481 4f5a 57       		.byte	0x57
 13482 4f5b 33       		.byte	0x33
 13483 4f5c 2C430000 		.4byte	0x432c
 13484 4f60 52       		.uleb128 0x52
ARM GAS  /tmp/ccDzFi87.s 			page 238


 13485 4f61 62756600 		.ascii	"buf\000"
 13486 4f65 01       		.byte	0x1
 13487 4f66 58       		.byte	0x58
 13488 4f67 31       		.byte	0x31
 13489 4f68 381E0000 		.4byte	0x1e38
 13490 4f6c 51       		.uleb128 0x51
 13491 4f6d CD1F0000 		.4byte	.LASF849
 13492 4f71 01       		.byte	0x1
 13493 4f72 58       		.byte	0x58
 13494 4f73 3F       		.byte	0x3f
 13495 4f74 54090000 		.4byte	0x954
 13496 4f78 41       		.uleb128 0x41
 13497 4f79 45000000 		.4byte	.LASF846
 13498 4f7d 984F0000 		.4byte	0x4f98
 13499 4f81 05       		.uleb128 0x5
 13500 4f82 03       		.byte	0x3
 13501 4f83 00000000 		.4byte	__func__.10359
 13502 4f87 00       		.byte	0
 13503 4f88 08       		.uleb128 0x8
 13504 4f89 C3050000 		.4byte	0x5c3
 13505 4f8d 984F0000 		.4byte	0x4f98
 13506 4f91 09       		.uleb128 0x9
 13507 4f92 38000000 		.4byte	0x38
 13508 4f96 1A       		.byte	0x1a
 13509 4f97 00       		.byte	0
 13510 4f98 15       		.uleb128 0x15
 13511 4f99 884F0000 		.4byte	0x4f88
 13512 4f9d 4E       		.uleb128 0x4e
 13513 4f9e 37040000 		.4byte	.LASF868
 13514 4fa2 02       		.byte	0x2
 13515 4fa3 A802     		.2byte	0x2a8
 13516 4fa5 14       		.byte	0x14
 13517 4fa6 03       		.byte	0x3
 13518 4fa7 C64F0000 		.4byte	0x4fc6
 13519 4fab 3F       		.uleb128 0x3f
 13520 4fac 74727000 		.ascii	"trp\000"
 13521 4fb0 02       		.byte	0x2
 13522 4fb1 A802     		.2byte	0x2a8
 13523 4fb3 3A       		.byte	0x3a
 13524 4fb4 341B0000 		.4byte	0x1b34
 13525 4fb8 3F       		.uleb128 0x3f
 13526 4fb9 6D736700 		.ascii	"msg\000"
 13527 4fbd 02       		.byte	0x2
 13528 4fbe A802     		.2byte	0x2a8
 13529 4fc0 45       		.byte	0x45
 13530 4fc1 CA090000 		.4byte	0x9ca
 13531 4fc5 00       		.byte	0
 13532 4fc6 53       		.uleb128 0x53
 13533 4fc7 C10D0000 		.4byte	.LASF869
 13534 4fcb 02       		.byte	0x2
 13535 4fcc 8002     		.2byte	0x280
 13536 4fce 15       		.byte	0x15
 13537 4fcf CA090000 		.4byte	0x9ca
 13538 4fd3 03       		.byte	0x3
 13539 4fd4 E64F0000 		.4byte	0x4fe6
 13540 4fd8 3F       		.uleb128 0x3f
 13541 4fd9 74727000 		.ascii	"trp\000"
ARM GAS  /tmp/ccDzFi87.s 			page 239


 13542 4fdd 02       		.byte	0x2
 13543 4fde 8002     		.2byte	0x280
 13544 4fe0 3C       		.byte	0x3c
 13545 4fe1 341B0000 		.4byte	0x1b34
 13546 4fe5 00       		.byte	0
 13547 4fe6 4E       		.uleb128 0x4e
 13548 4fe7 7A060000 		.4byte	.LASF870
 13549 4feb 02       		.byte	0x2
 13550 4fec 7102     		.2byte	0x271
 13551 4fee 14       		.byte	0x14
 13552 4fef 03       		.byte	0x3
 13553 4ff0 02500000 		.4byte	0x5002
 13554 4ff4 3E       		.uleb128 0x3e
 13555 4ff5 F0170000 		.4byte	.LASF871
 13556 4ff9 02       		.byte	0x2
 13557 4ffa 7102     		.2byte	0x271
 13558 4ffc 2E       		.byte	0x2e
 13559 4ffd 060A0000 		.4byte	0xa06
 13560 5001 00       		.byte	0
 13561 5002 54       		.uleb128 0x54
 13562 5003 8A060000 		.4byte	.LASF872
 13563 5007 02       		.byte	0x2
 13564 5008 DE01     		.2byte	0x1de
 13565 500a 14       		.byte	0x14
 13566 500b 03       		.byte	0x3
 13567 500c 54       		.uleb128 0x54
 13568 500d 74160000 		.4byte	.LASF873
 13569 5011 02       		.byte	0x2
 13570 5012 D301     		.2byte	0x1d3
 13571 5014 14       		.byte	0x14
 13572 5015 03       		.byte	0x3
 13573 5016 54       		.uleb128 0x54
 13574 5017 1F010000 		.4byte	.LASF874
 13575 501b 02       		.byte	0x2
 13576 501c C801     		.2byte	0x1c8
 13577 501e 14       		.byte	0x14
 13578 501f 03       		.byte	0x3
 13579 5020 54       		.uleb128 0x54
 13580 5021 4F1C0000 		.4byte	.LASF875
 13581 5025 02       		.byte	0x2
 13582 5026 BD01     		.2byte	0x1bd
 13583 5028 14       		.byte	0x14
 13584 5029 03       		.byte	0x3
 13585 502a 54       		.uleb128 0x54
 13586 502b 701A0000 		.4byte	.LASF876
 13587 502f 03       		.byte	0x3
 13588 5030 9601     		.2byte	0x196
 13589 5032 14       		.byte	0x14
 13590 5033 03       		.byte	0x3
 13591 5034 54       		.uleb128 0x54
 13592 5035 E7220000 		.4byte	.LASF877
 13593 5039 03       		.byte	0x3
 13594 503a 8201     		.2byte	0x182
 13595 503c 14       		.byte	0x14
 13596 503d 03       		.byte	0x3
 13597 503e 4E       		.uleb128 0x4e
 13598 503f 63200000 		.4byte	.LASF878
ARM GAS  /tmp/ccDzFi87.s 			page 240


 13599 5043 03       		.byte	0x3
 13600 5044 6601     		.2byte	0x166
 13601 5046 14       		.byte	0x14
 13602 5047 03       		.byte	0x3
 13603 5048 5C500000 		.4byte	0x505c
 13604 504c 41       		.uleb128 0x41
 13605 504d 45000000 		.4byte	.LASF846
 13606 5051 6C500000 		.4byte	0x506c
 13607 5055 05       		.uleb128 0x5
 13608 5056 03       		.byte	0x3
 13609 5057 00000000 		.4byte	__func__.7663
 13610 505b 00       		.byte	0
 13611 505c 08       		.uleb128 0x8
 13612 505d C3050000 		.4byte	0x5c3
 13613 5061 6C500000 		.4byte	0x506c
 13614 5065 09       		.uleb128 0x9
 13615 5066 38000000 		.4byte	0x38
 13616 506a 0B       		.byte	0xb
 13617 506b 00       		.byte	0
 13618 506c 15       		.uleb128 0x15
 13619 506d 5C500000 		.4byte	0x505c
 13620 5071 54       		.uleb128 0x54
 13621 5072 F5170000 		.4byte	.LASF879
 13622 5076 03       		.byte	0x3
 13623 5077 5A01     		.2byte	0x15a
 13624 5079 14       		.byte	0x14
 13625 507a 03       		.byte	0x3
 13626 507b 54       		.uleb128 0x54
 13627 507c 78000000 		.4byte	.LASF880
 13628 5080 04       		.byte	0x4
 13629 5081 E401     		.2byte	0x1e4
 13630 5083 14       		.byte	0x14
 13631 5084 03       		.byte	0x3
 13632 5085 54       		.uleb128 0x54
 13633 5086 2F140000 		.4byte	.LASF881
 13634 508a 04       		.byte	0x4
 13635 508b D901     		.2byte	0x1d9
 13636 508d 14       		.byte	0x14
 13637 508e 03       		.byte	0x3
 13638 508f 54       		.uleb128 0x54
 13639 5090 AB170000 		.4byte	.LASF882
 13640 5094 04       		.byte	0x4
 13641 5095 CA01     		.2byte	0x1ca
 13642 5097 14       		.byte	0x14
 13643 5098 03       		.byte	0x3
 13644 5099 54       		.uleb128 0x54
 13645 509a 57190000 		.4byte	.LASF883
 13646 509e 04       		.byte	0x4
 13647 509f BC01     		.2byte	0x1bc
 13648 50a1 14       		.byte	0x14
 13649 50a2 03       		.byte	0x3
 13650 50a3 4E       		.uleb128 0x4e
 13651 50a4 EC230000 		.4byte	.LASF884
 13652 50a8 05       		.byte	0x5
 13653 50a9 2002     		.2byte	0x220
 13654 50ab 39       		.byte	0x39
 13655 50ac 03       		.byte	0x3
ARM GAS  /tmp/ccDzFi87.s 			page 241


 13656 50ad BF500000 		.4byte	0x50bf
 13657 50b1 3E       		.uleb128 0x3e
 13658 50b2 990B0000 		.4byte	.LASF885
 13659 50b6 05       		.byte	0x5
 13660 50b7 2002     		.2byte	0x220
 13661 50b9 50       		.byte	0x50
 13662 50ba 54090000 		.4byte	0x954
 13663 50be 00       		.byte	0
 13664 50bf 55       		.uleb128 0x55
 13665 50c0 594E0000 		.4byte	0x4e59
 13666 50c4 00000000 		.4byte	.LFB280
 13667 50c8 60000000 		.4byte	.LFE280-.LFB280
 13668 50cc 01       		.uleb128 0x1
 13669 50cd 9C       		.byte	0x9c
 13670 50ce FB500000 		.4byte	0x50fb
 13671 50d2 46       		.uleb128 0x46
 13672 50d3 744E0000 		.4byte	0x4e74
 13673 50d7 240B0000 		.4byte	.LLST0
 13674 50db 200B0000 		.4byte	.LVUS0
 13675 50df 56       		.uleb128 0x56
 13676 50e0 674E0000 		.4byte	0x4e67
 13677 50e4 57       		.uleb128 0x57
 13678 50e5 814E0000 		.4byte	0x4e81
 13679 50e9 4D0B0000 		.4byte	.LLST1
 13680 50ed 450B0000 		.4byte	.LVUS1
 13681 50f1 35       		.uleb128 0x35
 13682 50f2 5C000000 		.4byte	.LVL11
 13683 50f6 80570000 		.4byte	0x5780
 13684 50fa 00       		.byte	0
 13685 50fb 55       		.uleb128 0x55
 13686 50fc 8F4E0000 		.4byte	0x4e8f
 13687 5100 00000000 		.4byte	.LFB259
 13688 5104 F8000000 		.4byte	.LFE259-.LFB259
 13689 5108 01       		.uleb128 0x1
 13690 5109 9C       		.byte	0x9c
 13691 510a 65530000 		.4byte	0x5365
 13692 510e 46       		.uleb128 0x46
 13693 510f A04E0000 		.4byte	0x4ea0
 13694 5113 77140000 		.4byte	.LLST29
 13695 5117 6D140000 		.4byte	.LVUS29
 13696 511b 46       		.uleb128 0x46
 13697 511c AC4E0000 		.4byte	0x4eac
 13698 5120 C1140000 		.4byte	.LLST30
 13699 5124 B9140000 		.4byte	.LVUS30
 13700 5128 46       		.uleb128 0x46
 13701 5129 B64E0000 		.4byte	0x4eb6
 13702 512d 02150000 		.4byte	.LLST31
 13703 5131 F8140000 		.4byte	.LVUS31
 13704 5135 58       		.uleb128 0x58
 13705 5136 20500000 		.4byte	0x5020
 13706 513a 10000000 		.4byte	.LBI174
 13707 513e 01       		.byte	.LVU338
 13708 513f D8000000 		.4byte	.Ldebug_ranges0+0xd8
 13709 5143 01       		.byte	0x1
 13710 5144 D5       		.byte	0xd5
 13711 5145 03       		.byte	0x3
 13712 5146 A7510000 		.4byte	0x51a7
ARM GAS  /tmp/ccDzFi87.s 			page 242


 13713 514a 4A       		.uleb128 0x4a
 13714 514b 71500000 		.4byte	0x5071
 13715 514f 10000000 		.4byte	.LBI175
 13716 5153 03       		.byte	.LVU340
 13717 5154 E0000000 		.4byte	.Ldebug_ranges0+0xe0
 13718 5158 02       		.byte	0x2
 13719 5159 BF01     		.2byte	0x1bf
 13720 515b 03       		.byte	0x3
 13721 515c 45       		.uleb128 0x45
 13722 515d 99500000 		.4byte	0x5099
 13723 5161 10000000 		.4byte	.LBI177
 13724 5165 05       		.byte	.LVU342
 13725 5166 00010000 		.4byte	.Ldebug_ranges0+0x100
 13726 516a 03       		.byte	0x3
 13727 516b 5C01     		.2byte	0x15c
 13728 516d 03       		.byte	0x3
 13729 516e 93510000 		.4byte	0x5193
 13730 5172 4A       		.uleb128 0x4a
 13731 5173 A3500000 		.4byte	0x50a3
 13732 5177 10000000 		.4byte	.LBI178
 13733 517b 07       		.byte	.LVU344
 13734 517c 08010000 		.4byte	.Ldebug_ranges0+0x108
 13735 5180 04       		.byte	0x4
 13736 5181 BF01     		.2byte	0x1bf
 13737 5183 03       		.byte	0x3
 13738 5184 46       		.uleb128 0x46
 13739 5185 B1500000 		.4byte	0x50b1
 13740 5189 46150000 		.4byte	.LLST32
 13741 518d 44150000 		.4byte	.LVUS32
 13742 5191 00       		.byte	0
 13743 5192 00       		.byte	0
 13744 5193 35       		.uleb128 0x35
 13745 5194 1E000000 		.4byte	.LVL90
 13746 5198 64580000 		.4byte	0x5864
 13747 519c 35       		.uleb128 0x35
 13748 519d 22000000 		.4byte	.LVL91
 13749 51a1 70580000 		.4byte	0x5870
 13750 51a5 00       		.byte	0
 13751 51a6 00       		.byte	0
 13752 51a7 58       		.uleb128 0x58
 13753 51a8 16500000 		.4byte	0x5016
 13754 51ac 50000000 		.4byte	.LBI191
 13755 51b0 01       		.byte	.LVU375
 13756 51b1 20010000 		.4byte	.Ldebug_ranges0+0x120
 13757 51b5 01       		.byte	0x1
 13758 51b6 E7       		.byte	0xe7
 13759 51b7 03       		.byte	0x3
 13760 51b8 36520000 		.4byte	0x5236
 13761 51bc 4A       		.uleb128 0x4a
 13762 51bd 3E500000 		.4byte	0x503e
 13763 51c1 50000000 		.4byte	.LBI192
 13764 51c5 03       		.byte	.LVU377
 13765 51c6 28010000 		.4byte	.Ldebug_ranges0+0x128
 13766 51ca 02       		.byte	0x2
 13767 51cb CA01     		.2byte	0x1ca
 13768 51cd 03       		.byte	0x3
 13769 51ce 47       		.uleb128 0x47
ARM GAS  /tmp/ccDzFi87.s 			page 243


 13770 51cf 28010000 		.4byte	.Ldebug_ranges0+0x128
 13771 51d3 45       		.uleb128 0x45
 13772 51d4 8F500000 		.4byte	0x508f
 13773 51d8 6A000000 		.4byte	.LBI194
 13774 51dc 02       		.byte	.LVU385
 13775 51dd 48010000 		.4byte	.Ldebug_ranges0+0x148
 13776 51e1 03       		.byte	0x3
 13777 51e2 7301     		.2byte	0x173
 13778 51e4 03       		.byte	0x3
 13779 51e5 0E520000 		.4byte	0x520e
 13780 51e9 4D       		.uleb128 0x4d
 13781 51ea A3500000 		.4byte	0x50a3
 13782 51ee 6A000000 		.4byte	.LBI195
 13783 51f2 04       		.byte	.LVU387
 13784 51f3 6A000000 		.4byte	.LBB195
 13785 51f7 06000000 		.4byte	.LBE195-.LBB195
 13786 51fb 04       		.byte	0x4
 13787 51fc CD01     		.2byte	0x1cd
 13788 51fe 03       		.byte	0x3
 13789 51ff 46       		.uleb128 0x46
 13790 5200 B1500000 		.4byte	0x50b1
 13791 5204 5D150000 		.4byte	.LLST33
 13792 5208 5B150000 		.4byte	.LVUS33
 13793 520c 00       		.byte	0
 13794 520d 00       		.byte	0
 13795 520e 35       		.uleb128 0x35
 13796 520f 54000000 		.4byte	.LVL92
 13797 5213 7C580000 		.4byte	0x587c
 13798 5217 35       		.uleb128 0x35
 13799 5218 58000000 		.4byte	.LVL93
 13800 521c 88580000 		.4byte	0x5888
 13801 5220 3B       		.uleb128 0x3b
 13802 5221 D8000000 		.4byte	.LVL107
 13803 5225 A0570000 		.4byte	0x57a0
 13804 5229 3A       		.uleb128 0x3a
 13805 522a 01       		.uleb128 0x1
 13806 522b 50       		.byte	0x50
 13807 522c 05       		.uleb128 0x5
 13808 522d 03       		.byte	0x3
 13809 522e 00000000 		.4byte	.LANCHOR3
 13810 5232 00       		.byte	0
 13811 5233 00       		.byte	0
 13812 5234 00       		.byte	0
 13813 5235 00       		.byte	0
 13814 5236 59       		.uleb128 0x59
 13815 5237 C64F0000 		.4byte	0x4fc6
 13816 523b 82000000 		.4byte	.LBI204
 13817 523f 01       		.byte	.LVU394
 13818 5240 82000000 		.4byte	.LBB204
 13819 5244 0A000000 		.4byte	.LBE204-.LBB204
 13820 5248 01       		.byte	0x1
 13821 5249 D7       		.byte	0xd7
 13822 524a 05       		.byte	0x5
 13823 524b 6D520000 		.4byte	0x526d
 13824 524f 46       		.uleb128 0x46
 13825 5250 D84F0000 		.4byte	0x4fd8
 13826 5254 77150000 		.4byte	.LLST34
ARM GAS  /tmp/ccDzFi87.s 			page 244


 13827 5258 71150000 		.4byte	.LVUS34
 13828 525c 3B       		.uleb128 0x3b
 13829 525d 8A000000 		.4byte	.LVL98
 13830 5261 94580000 		.4byte	0x5894
 13831 5265 3A       		.uleb128 0x3a
 13832 5266 01       		.uleb128 0x1
 13833 5267 50       		.byte	0x50
 13834 5268 02       		.uleb128 0x2
 13835 5269 75       		.byte	0x75
 13836 526a 3C       		.sleb128 60
 13837 526b 00       		.byte	0
 13838 526c 00       		.byte	0
 13839 526d 58       		.uleb128 0x58
 13840 526e 16500000 		.4byte	0x5016
 13841 5272 92000000 		.4byte	.LBI206
 13842 5276 01       		.byte	.LVU404
 13843 5277 60010000 		.4byte	.Ldebug_ranges0+0x160
 13844 527b 01       		.byte	0x1
 13845 527c D9       		.byte	0xd9
 13846 527d 05       		.byte	0x5
 13847 527e FC520000 		.4byte	0x52fc
 13848 5282 4A       		.uleb128 0x4a
 13849 5283 3E500000 		.4byte	0x503e
 13850 5287 92000000 		.4byte	.LBI207
 13851 528b 03       		.byte	.LVU406
 13852 528c 68010000 		.4byte	.Ldebug_ranges0+0x168
 13853 5290 02       		.byte	0x2
 13854 5291 CA01     		.2byte	0x1ca
 13855 5293 03       		.byte	0x3
 13856 5294 47       		.uleb128 0x47
 13857 5295 68010000 		.4byte	.Ldebug_ranges0+0x168
 13858 5299 45       		.uleb128 0x45
 13859 529a 8F500000 		.4byte	0x508f
 13860 529e AC000000 		.4byte	.LBI209
 13861 52a2 02       		.byte	.LVU414
 13862 52a3 90010000 		.4byte	.Ldebug_ranges0+0x190
 13863 52a7 03       		.byte	0x3
 13864 52a8 7301     		.2byte	0x173
 13865 52aa 03       		.byte	0x3
 13866 52ab D4520000 		.4byte	0x52d4
 13867 52af 4D       		.uleb128 0x4d
 13868 52b0 A3500000 		.4byte	0x50a3
 13869 52b4 AC000000 		.4byte	.LBI210
 13870 52b8 04       		.byte	.LVU416
 13871 52b9 AC000000 		.4byte	.LBB210
 13872 52bd 06000000 		.4byte	.LBE210-.LBB210
 13873 52c1 04       		.byte	0x4
 13874 52c2 CD01     		.2byte	0x1cd
 13875 52c4 03       		.byte	0x3
 13876 52c5 46       		.uleb128 0x46
 13877 52c6 B1500000 		.4byte	0x50b1
 13878 52ca A6150000 		.4byte	.LLST35
 13879 52ce A4150000 		.4byte	.LVUS35
 13880 52d2 00       		.byte	0
 13881 52d3 00       		.byte	0
 13882 52d4 35       		.uleb128 0x35
 13883 52d5 96000000 		.4byte	.LVL100
ARM GAS  /tmp/ccDzFi87.s 			page 245


 13884 52d9 7C580000 		.4byte	0x587c
 13885 52dd 35       		.uleb128 0x35
 13886 52de 9A000000 		.4byte	.LVL101
 13887 52e2 88580000 		.4byte	0x5888
 13888 52e6 3B       		.uleb128 0x3b
 13889 52e7 E0000000 		.4byte	.LVL108
 13890 52eb A0570000 		.4byte	0x57a0
 13891 52ef 3A       		.uleb128 0x3a
 13892 52f0 01       		.uleb128 0x1
 13893 52f1 50       		.byte	0x50
 13894 52f2 05       		.uleb128 0x5
 13895 52f3 03       		.byte	0x3
 13896 52f4 00000000 		.4byte	.LANCHOR3
 13897 52f8 00       		.byte	0
 13898 52f9 00       		.byte	0
 13899 52fa 00       		.byte	0
 13900 52fb 00       		.byte	0
 13901 52fc 58       		.uleb128 0x58
 13902 52fd 8F4E0000 		.4byte	0x4e8f
 13903 5301 B6000000 		.4byte	.LBI222
 13904 5305 01       		.byte	.LVU422
 13905 5306 A8010000 		.4byte	.Ldebug_ranges0+0x1a8
 13906 530a 01       		.byte	0x1
 13907 530b D0       		.byte	0xd0
 13908 530c 0D       		.byte	0xd
 13909 530d 5B530000 		.4byte	0x535b
 13910 5311 46       		.uleb128 0x46
 13911 5312 AC4E0000 		.4byte	0x4eac
 13912 5316 BE150000 		.4byte	.LLST36
 13913 531a BA150000 		.4byte	.LVUS36
 13914 531e 46       		.uleb128 0x46
 13915 531f B64E0000 		.4byte	0x4eb6
 13916 5323 E5150000 		.4byte	.LLST37
 13917 5327 DF150000 		.4byte	.LVUS37
 13918 532b 46       		.uleb128 0x46
 13919 532c A04E0000 		.4byte	0x4ea0
 13920 5330 17160000 		.4byte	.LLST38
 13921 5334 11160000 		.4byte	.LVUS38
 13922 5338 5A       		.uleb128 0x5a
 13923 5339 D2000000 		.4byte	.LVL106
 13924 533d 2E480000 		.4byte	0x482e
 13925 5341 3A       		.uleb128 0x3a
 13926 5342 01       		.uleb128 0x1
 13927 5343 50       		.byte	0x50
 13928 5344 03       		.uleb128 0x3
 13929 5345 F3       		.byte	0xf3
 13930 5346 01       		.uleb128 0x1
 13931 5347 50       		.byte	0x50
 13932 5348 3A       		.uleb128 0x3a
 13933 5349 01       		.uleb128 0x1
 13934 534a 51       		.byte	0x51
 13935 534b 01       		.uleb128 0x1
 13936 534c 3C       		.byte	0x3c
 13937 534d 3A       		.uleb128 0x3a
 13938 534e 01       		.uleb128 0x1
 13939 534f 52       		.byte	0x52
 13940 5350 01       		.uleb128 0x1
ARM GAS  /tmp/ccDzFi87.s 			page 246


 13941 5351 30       		.byte	0x30
 13942 5352 3A       		.uleb128 0x3a
 13943 5353 01       		.uleb128 0x1
 13944 5354 53       		.byte	0x53
 13945 5355 03       		.uleb128 0x3
 13946 5356 F3       		.byte	0xf3
 13947 5357 01       		.uleb128 0x1
 13948 5358 52       		.byte	0x52
 13949 5359 00       		.byte	0
 13950 535a 00       		.byte	0
 13951 535b 35       		.uleb128 0x35
 13952 535c E6000000 		.4byte	.LVL109
 13953 5360 80570000 		.4byte	0x5780
 13954 5364 00       		.byte	0
 13955 5365 55       		.uleb128 0x55
 13956 5366 184E0000 		.4byte	0x4e18
 13957 536a 00000000 		.4byte	.LFB261
 13958 536e A0000000 		.4byte	.LFE261-.LFB261
 13959 5372 01       		.uleb128 0x1
 13960 5373 9C       		.byte	0x9c
 13961 5374 38540000 		.4byte	0x5438
 13962 5378 46       		.uleb128 0x46
 13963 5379 264E0000 		.4byte	0x4e26
 13964 537d 4D160000 		.4byte	.LLST39
 13965 5381 43160000 		.4byte	.LVUS39
 13966 5385 46       		.uleb128 0x46
 13967 5386 334E0000 		.4byte	0x4e33
 13968 538a 97160000 		.4byte	.LLST40
 13969 538e 8F160000 		.4byte	.LVUS40
 13970 5392 46       		.uleb128 0x46
 13971 5393 3E4E0000 		.4byte	0x4e3e
 13972 5397 D8160000 		.4byte	.LLST41
 13973 539b CE160000 		.4byte	.LVUS41
 13974 539f 57       		.uleb128 0x57
 13975 53a0 4B4E0000 		.4byte	0x4e4b
 13976 53a4 1C170000 		.4byte	.LLST42
 13977 53a8 1A170000 		.4byte	.LVUS42
 13978 53ac 45       		.uleb128 0x45
 13979 53ad 184E0000 		.4byte	0x4e18
 13980 53b1 7A000000 		.4byte	.LBI230
 13981 53b5 00       		.byte	.LVU472
 13982 53b6 C0010000 		.4byte	.Ldebug_ranges0+0x1c0
 13983 53ba 01       		.byte	0x1
 13984 53bb 2301     		.2byte	0x123
 13985 53bd 0D       		.byte	0xd
 13986 53be 12540000 		.4byte	0x5412
 13987 53c2 46       		.uleb128 0x46
 13988 53c3 334E0000 		.4byte	0x4e33
 13989 53c7 33170000 		.4byte	.LLST43
 13990 53cb 2F170000 		.4byte	.LVUS43
 13991 53cf 46       		.uleb128 0x46
 13992 53d0 3E4E0000 		.4byte	0x4e3e
 13993 53d4 5A170000 		.4byte	.LLST44
 13994 53d8 54170000 		.4byte	.LVUS44
 13995 53dc 46       		.uleb128 0x46
 13996 53dd 264E0000 		.4byte	0x4e26
 13997 53e1 8C170000 		.4byte	.LLST45
ARM GAS  /tmp/ccDzFi87.s 			page 247


 13998 53e5 86170000 		.4byte	.LVUS45
 13999 53e9 47       		.uleb128 0x47
 14000 53ea C0010000 		.4byte	.Ldebug_ranges0+0x1c0
 14001 53ee 5B       		.uleb128 0x5b
 14002 53ef 4B4E0000 		.4byte	0x4e4b
 14003 53f3 5A       		.uleb128 0x5a
 14004 53f4 94000000 		.4byte	.LVL118
 14005 53f8 2E480000 		.4byte	0x482e
 14006 53fc 3A       		.uleb128 0x3a
 14007 53fd 01       		.uleb128 0x1
 14008 53fe 50       		.byte	0x50
 14009 53ff 03       		.uleb128 0x3
 14010 5400 F3       		.byte	0xf3
 14011 5401 01       		.uleb128 0x1
 14012 5402 50       		.byte	0x50
 14013 5403 3A       		.uleb128 0x3a
 14014 5404 01       		.uleb128 0x1
 14015 5405 51       		.byte	0x51
 14016 5406 01       		.uleb128 0x1
 14017 5407 3C       		.byte	0x3c
 14018 5408 3A       		.uleb128 0x3a
 14019 5409 01       		.uleb128 0x1
 14020 540a 53       		.byte	0x53
 14021 540b 03       		.uleb128 0x3
 14022 540c F3       		.byte	0xf3
 14023 540d 01       		.uleb128 0x1
 14024 540e 52       		.byte	0x52
 14025 540f 00       		.byte	0
 14026 5410 00       		.byte	0
 14027 5411 00       		.byte	0
 14028 5412 39       		.uleb128 0x39
 14029 5413 68000000 		.4byte	.LVL115
 14030 5417 BF500000 		.4byte	0x50bf
 14031 541b 2E540000 		.4byte	0x542e
 14032 541f 3A       		.uleb128 0x3a
 14033 5420 01       		.uleb128 0x1
 14034 5421 50       		.byte	0x50
 14035 5422 02       		.uleb128 0x2
 14036 5423 75       		.byte	0x75
 14037 5424 34       		.sleb128 52
 14038 5425 48       		.uleb128 0x48
 14039 5426 674E0000 		.4byte	0x4e67
 14040 542a 02       		.uleb128 0x2
 14041 542b 75       		.byte	0x75
 14042 542c 00       		.sleb128 0
 14043 542d 00       		.byte	0
 14044 542e 35       		.uleb128 0x35
 14045 542f 98000000 		.4byte	.LVL119
 14046 5433 80570000 		.4byte	0x5780
 14047 5437 00       		.byte	0
 14048 5438 55       		.uleb128 0x55
 14049 5439 7F450000 		.4byte	0x457f
 14050 543d 00000000 		.4byte	.LFB275
 14051 5441 E4000000 		.4byte	.LFE275-.LFB275
 14052 5445 01       		.uleb128 0x1
 14053 5446 9C       		.byte	0x9c
 14054 5447 DC550000 		.4byte	0x55dc
ARM GAS  /tmp/ccDzFi87.s 			page 248


 14055 544b 46       		.uleb128 0x46
 14056 544c 91450000 		.4byte	0x4591
 14057 5450 C0170000 		.4byte	.LLST59
 14058 5454 B8170000 		.4byte	.LVUS59
 14059 5458 46       		.uleb128 0x46
 14060 5459 9E450000 		.4byte	0x459e
 14061 545d 04180000 		.4byte	.LLST60
 14062 5461 F4170000 		.4byte	.LVUS60
 14063 5465 46       		.uleb128 0x46
 14064 5466 AB450000 		.4byte	0x45ab
 14065 546a 7D180000 		.4byte	.LLST61
 14066 546e 6D180000 		.4byte	.LVUS61
 14067 5472 46       		.uleb128 0x46
 14068 5473 B8450000 		.4byte	0x45b8
 14069 5477 EA180000 		.4byte	.LLST62
 14070 547b E6180000 		.4byte	.LVUS62
 14071 547f 5B       		.uleb128 0x5b
 14072 5480 C5450000 		.4byte	0x45c5
 14073 5484 45       		.uleb128 0x45
 14074 5485 7F450000 		.4byte	0x457f
 14075 5489 38000000 		.4byte	.LBI250
 14076 548d 00       		.byte	.LVU606
 14077 548e 08020000 		.4byte	.Ldebug_ranges0+0x208
 14078 5492 01       		.byte	0x1
 14079 5493 A502     		.2byte	0x2a5
 14080 5495 06       		.byte	0x6
 14081 5496 A7550000 		.4byte	0x55a7
 14082 549a 46       		.uleb128 0x46
 14083 549b B8450000 		.4byte	0x45b8
 14084 549f 0C190000 		.4byte	.LLST63
 14085 54a3 08190000 		.4byte	.LVUS63
 14086 54a7 46       		.uleb128 0x46
 14087 54a8 AB450000 		.4byte	0x45ab
 14088 54ac 30190000 		.4byte	.LLST64
 14089 54b0 2A190000 		.4byte	.LVUS64
 14090 54b4 46       		.uleb128 0x46
 14091 54b5 9E450000 		.4byte	0x459e
 14092 54b9 65190000 		.4byte	.LLST65
 14093 54bd 5F190000 		.4byte	.LVUS65
 14094 54c1 46       		.uleb128 0x46
 14095 54c2 91450000 		.4byte	0x4591
 14096 54c6 98190000 		.4byte	.LLST66
 14097 54ca 94190000 		.4byte	.LVUS66
 14098 54ce 47       		.uleb128 0x47
 14099 54cf 08020000 		.4byte	.Ldebug_ranges0+0x208
 14100 54d3 5C       		.uleb128 0x5c
 14101 54d4 C5450000 		.4byte	0x45c5
 14102 54d8 02       		.uleb128 0x2
 14103 54d9 91       		.byte	0x91
 14104 54da 60       		.sleb128 -32
 14105 54db 5D       		.uleb128 0x5d
 14106 54dc E1450000 		.4byte	0x45e1
 14107 54e0 A6000000 		.4byte	.LDL2
 14108 54e4 45       		.uleb128 0x45
 14109 54e5 034F0000 		.4byte	0x4f03
 14110 54e9 74000000 		.4byte	.LBI252
 14111 54ed 01       		.byte	.LVU630
ARM GAS  /tmp/ccDzFi87.s 			page 249


 14112 54ee 20020000 		.4byte	.Ldebug_ranges0+0x220
 14113 54f2 01       		.byte	0x1
 14114 54f3 C802     		.2byte	0x2c8
 14115 54f5 07       		.byte	0x7
 14116 54f6 69550000 		.4byte	0x5569
 14117 54fa 46       		.uleb128 0x46
 14118 54fb 364F0000 		.4byte	0x4f36
 14119 54ff BC190000 		.4byte	.LLST67
 14120 5503 B6190000 		.4byte	.LVUS67
 14121 5507 46       		.uleb128 0x46
 14122 5508 2C4F0000 		.4byte	0x4f2c
 14123 550c E9190000 		.4byte	.LLST68
 14124 5510 E5190000 		.4byte	.LVUS68
 14125 5514 46       		.uleb128 0x46
 14126 5515 204F0000 		.4byte	0x4f20
 14127 5519 0D1A0000 		.4byte	.LLST69
 14128 551d 071A0000 		.4byte	.LVUS69
 14129 5521 46       		.uleb128 0x46
 14130 5522 144F0000 		.4byte	0x4f14
 14131 5526 3A1A0000 		.4byte	.LLST70
 14132 552a 361A0000 		.4byte	.LVUS70
 14133 552e 39       		.uleb128 0x39
 14134 552f 8E000000 		.4byte	.LVL160
 14135 5533 2E480000 		.4byte	0x482e
 14136 5537 53550000 		.4byte	0x5553
 14137 553b 3A       		.uleb128 0x3a
 14138 553c 01       		.uleb128 0x1
 14139 553d 50       		.byte	0x50
 14140 553e 02       		.uleb128 0x2
 14141 553f 74       		.byte	0x74
 14142 5540 00       		.sleb128 0
 14143 5541 3A       		.uleb128 0x3a
 14144 5542 01       		.uleb128 0x1
 14145 5543 51       		.byte	0x51
 14146 5544 01       		.uleb128 0x1
 14147 5545 42       		.byte	0x42
 14148 5546 3A       		.uleb128 0x3a
 14149 5547 01       		.uleb128 0x1
 14150 5548 52       		.byte	0x52
 14151 5549 02       		.uleb128 0x2
 14152 554a 76       		.byte	0x76
 14153 554b 00       		.sleb128 0
 14154 554c 3A       		.uleb128 0x3a
 14155 554d 01       		.uleb128 0x1
 14156 554e 53       		.byte	0x53
 14157 554f 02       		.uleb128 0x2
 14158 5550 7D       		.byte	0x7d
 14159 5551 00       		.sleb128 0
 14160 5552 00       		.byte	0
 14161 5553 3B       		.uleb128 0x3b
 14162 5554 C4000000 		.4byte	.LVL168
 14163 5558 2E480000 		.4byte	0x482e
 14164 555c 3A       		.uleb128 0x3a
 14165 555d 01       		.uleb128 0x1
 14166 555e 50       		.byte	0x50
 14167 555f 02       		.uleb128 0x2
 14168 5560 74       		.byte	0x74
ARM GAS  /tmp/ccDzFi87.s 			page 250


 14169 5561 00       		.sleb128 0
 14170 5562 3A       		.uleb128 0x3a
 14171 5563 01       		.uleb128 0x1
 14172 5564 51       		.byte	0x51
 14173 5565 01       		.uleb128 0x1
 14174 5566 41       		.byte	0x41
 14175 5567 00       		.byte	0
 14176 5568 00       		.byte	0
 14177 5569 39       		.uleb128 0x39
 14178 556a A2000000 		.4byte	.LVL162
 14179 556e 8F4E0000 		.4byte	0x4e8f
 14180 5572 89550000 		.4byte	0x5589
 14181 5576 3A       		.uleb128 0x3a
 14182 5577 01       		.uleb128 0x1
 14183 5578 50       		.byte	0x50
 14184 5579 02       		.uleb128 0x2
 14185 557a 74       		.byte	0x74
 14186 557b 00       		.sleb128 0
 14187 557c 3A       		.uleb128 0x3a
 14188 557d 01       		.uleb128 0x1
 14189 557e 51       		.byte	0x51
 14190 557f 02       		.uleb128 0x2
 14191 5580 75       		.byte	0x75
 14192 5581 00       		.sleb128 0
 14193 5582 3A       		.uleb128 0x3a
 14194 5583 01       		.uleb128 0x1
 14195 5584 52       		.byte	0x52
 14196 5585 02       		.uleb128 0x2
 14197 5586 7D       		.byte	0x7d
 14198 5587 00       		.sleb128 0
 14199 5588 00       		.byte	0
 14200 5589 3B       		.uleb128 0x3b
 14201 558a B0000000 		.4byte	.LVL163
 14202 558e 184E0000 		.4byte	0x4e18
 14203 5592 3A       		.uleb128 0x3a
 14204 5593 01       		.uleb128 0x1
 14205 5594 50       		.byte	0x50
 14206 5595 02       		.uleb128 0x2
 14207 5596 74       		.byte	0x74
 14208 5597 00       		.sleb128 0
 14209 5598 3A       		.uleb128 0x3a
 14210 5599 01       		.uleb128 0x1
 14211 559a 51       		.byte	0x51
 14212 559b 02       		.uleb128 0x2
 14213 559c 75       		.byte	0x75
 14214 559d 00       		.sleb128 0
 14215 559e 3A       		.uleb128 0x3a
 14216 559f 01       		.uleb128 0x1
 14217 55a0 52       		.byte	0x52
 14218 55a1 02       		.uleb128 0x2
 14219 55a2 77       		.byte	0x77
 14220 55a3 00       		.sleb128 0
 14221 55a4 00       		.byte	0
 14222 55a5 00       		.byte	0
 14223 55a6 00       		.byte	0
 14224 55a7 39       		.uleb128 0x39
 14225 55a8 28000000 		.4byte	.LVL154
ARM GAS  /tmp/ccDzFi87.s 			page 251


 14226 55ac 94570000 		.4byte	0x5794
 14227 55b0 BB550000 		.4byte	0x55bb
 14228 55b4 3A       		.uleb128 0x3a
 14229 55b5 01       		.uleb128 0x1
 14230 55b6 50       		.byte	0x50
 14231 55b7 02       		.uleb128 0x2
 14232 55b8 74       		.byte	0x74
 14233 55b9 00       		.sleb128 0
 14234 55ba 00       		.byte	0
 14235 55bb 39       		.uleb128 0x39
 14236 55bc BA000000 		.4byte	.LVL166
 14237 55c0 A0570000 		.4byte	0x57a0
 14238 55c4 D2550000 		.4byte	0x55d2
 14239 55c8 3A       		.uleb128 0x3a
 14240 55c9 01       		.uleb128 0x1
 14241 55ca 50       		.byte	0x50
 14242 55cb 05       		.uleb128 0x5
 14243 55cc 03       		.byte	0x3
 14244 55cd 00000000 		.4byte	.LANCHOR5
 14245 55d1 00       		.byte	0
 14246 55d2 35       		.uleb128 0x35
 14247 55d3 CE000000 		.4byte	.LVL170
 14248 55d7 80570000 		.4byte	0x5780
 14249 55db 00       		.byte	0
 14250 55dc 55       		.uleb128 0x55
 14251 55dd FE440000 		.4byte	0x44fe
 14252 55e1 00000000 		.4byte	.LFB276
 14253 55e5 E8000000 		.4byte	.LFE276-.LFB276
 14254 55e9 01       		.uleb128 0x1
 14255 55ea 9C       		.byte	0x9c
 14256 55eb 80570000 		.4byte	0x5780
 14257 55ef 46       		.uleb128 0x46
 14258 55f0 10450000 		.4byte	0x4510
 14259 55f4 601A0000 		.4byte	.LLST71
 14260 55f8 581A0000 		.4byte	.LVUS71
 14261 55fc 46       		.uleb128 0x46
 14262 55fd 1D450000 		.4byte	0x451d
 14263 5601 A41A0000 		.4byte	.LLST72
 14264 5605 941A0000 		.4byte	.LVUS72
 14265 5609 46       		.uleb128 0x46
 14266 560a 2A450000 		.4byte	0x452a
 14267 560e 1D1B0000 		.4byte	.LLST73
 14268 5612 0D1B0000 		.4byte	.LVUS73
 14269 5616 46       		.uleb128 0x46
 14270 5617 37450000 		.4byte	0x4537
 14271 561b 8A1B0000 		.4byte	.LLST74
 14272 561f 861B0000 		.4byte	.LVUS74
 14273 5623 5B       		.uleb128 0x5b
 14274 5624 44450000 		.4byte	0x4544
 14275 5628 45       		.uleb128 0x45
 14276 5629 FE440000 		.4byte	0x44fe
 14277 562d 38000000 		.4byte	.LBI262
 14278 5631 00       		.byte	.LVU679
 14279 5632 38020000 		.4byte	.Ldebug_ranges0+0x238
 14280 5636 01       		.byte	0x1
 14281 5637 E302     		.2byte	0x2e3
 14282 5639 06       		.byte	0x6
ARM GAS  /tmp/ccDzFi87.s 			page 252


 14283 563a 4B570000 		.4byte	0x574b
 14284 563e 46       		.uleb128 0x46
 14285 563f 37450000 		.4byte	0x4537
 14286 5643 AC1B0000 		.4byte	.LLST75
 14287 5647 A81B0000 		.4byte	.LVUS75
 14288 564b 46       		.uleb128 0x46
 14289 564c 2A450000 		.4byte	0x452a
 14290 5650 D01B0000 		.4byte	.LLST76
 14291 5654 CA1B0000 		.4byte	.LVUS76
 14292 5658 46       		.uleb128 0x46
 14293 5659 1D450000 		.4byte	0x451d
 14294 565d 051C0000 		.4byte	.LLST77
 14295 5661 FF1B0000 		.4byte	.LVUS77
 14296 5665 46       		.uleb128 0x46
 14297 5666 10450000 		.4byte	0x4510
 14298 566a 381C0000 		.4byte	.LLST78
 14299 566e 341C0000 		.4byte	.LVUS78
 14300 5672 47       		.uleb128 0x47
 14301 5673 38020000 		.4byte	.Ldebug_ranges0+0x238
 14302 5677 5C       		.uleb128 0x5c
 14303 5678 44450000 		.4byte	0x4544
 14304 567c 02       		.uleb128 0x2
 14305 567d 91       		.byte	0x91
 14306 567e 60       		.sleb128 -32
 14307 567f 5D       		.uleb128 0x5d
 14308 5680 60450000 		.4byte	0x4560
 14309 5684 AC000000 		.4byte	.LDL3
 14310 5688 45       		.uleb128 0x45
 14311 5689 C34E0000 		.4byte	0x4ec3
 14312 568d 72000000 		.4byte	.LBI264
 14313 5691 01       		.byte	.LVU700
 14314 5692 50020000 		.4byte	.Ldebug_ranges0+0x250
 14315 5696 01       		.byte	0x1
 14316 5697 0003     		.2byte	0x300
 14317 5699 07       		.byte	0x7
 14318 569a 0D570000 		.4byte	0x570d
 14319 569e 46       		.uleb128 0x46
 14320 569f F64E0000 		.4byte	0x4ef6
 14321 56a3 5E1C0000 		.4byte	.LLST79
 14322 56a7 561C0000 		.4byte	.LVUS79
 14323 56ab 46       		.uleb128 0x46
 14324 56ac EC4E0000 		.4byte	0x4eec
 14325 56b0 981C0000 		.4byte	.LLST80
 14326 56b4 941C0000 		.4byte	.LVUS80
 14327 56b8 46       		.uleb128 0x46
 14328 56b9 E04E0000 		.4byte	0x4ee0
 14329 56bd BC1C0000 		.4byte	.LLST81
 14330 56c1 B61C0000 		.4byte	.LVUS81
 14331 56c5 46       		.uleb128 0x46
 14332 56c6 D44E0000 		.4byte	0x4ed4
 14333 56ca E91C0000 		.4byte	.LLST82
 14334 56ce E51C0000 		.4byte	.LVUS82
 14335 56d2 39       		.uleb128 0x39
 14336 56d3 8C000000 		.4byte	.LVL180
 14337 56d7 2E480000 		.4byte	0x482e
 14338 56db F7560000 		.4byte	0x56f7
 14339 56df 3A       		.uleb128 0x3a
ARM GAS  /tmp/ccDzFi87.s 			page 253


 14340 56e0 01       		.uleb128 0x1
 14341 56e1 50       		.byte	0x50
 14342 56e2 02       		.uleb128 0x2
 14343 56e3 74       		.byte	0x74
 14344 56e4 00       		.sleb128 0
 14345 56e5 3A       		.uleb128 0x3a
 14346 56e6 01       		.uleb128 0x1
 14347 56e7 51       		.byte	0x51
 14348 56e8 01       		.uleb128 0x1
 14349 56e9 49       		.byte	0x49
 14350 56ea 3A       		.uleb128 0x3a
 14351 56eb 01       		.uleb128 0x1
 14352 56ec 52       		.byte	0x52
 14353 56ed 02       		.uleb128 0x2
 14354 56ee 76       		.byte	0x76
 14355 56ef 00       		.sleb128 0
 14356 56f0 3A       		.uleb128 0x3a
 14357 56f1 01       		.uleb128 0x1
 14358 56f2 53       		.byte	0x53
 14359 56f3 02       		.uleb128 0x2
 14360 56f4 77       		.byte	0x77
 14361 56f5 00       		.sleb128 0
 14362 56f6 00       		.byte	0
 14363 56f7 3B       		.uleb128 0x3b
 14364 56f8 CA000000 		.4byte	.LVL188
 14365 56fc 2E480000 		.4byte	0x482e
 14366 5700 3A       		.uleb128 0x3a
 14367 5701 01       		.uleb128 0x1
 14368 5702 50       		.byte	0x50
 14369 5703 02       		.uleb128 0x2
 14370 5704 74       		.byte	0x74
 14371 5705 00       		.sleb128 0
 14372 5706 3A       		.uleb128 0x3a
 14373 5707 01       		.uleb128 0x1
 14374 5708 51       		.byte	0x51
 14375 5709 01       		.uleb128 0x1
 14376 570a 48       		.byte	0x48
 14377 570b 00       		.byte	0
 14378 570c 00       		.byte	0
 14379 570d 39       		.uleb128 0x39
 14380 570e A6000000 		.4byte	.LVL182
 14381 5712 8F4E0000 		.4byte	0x4e8f
 14382 5716 2D570000 		.4byte	0x572d
 14383 571a 3A       		.uleb128 0x3a
 14384 571b 01       		.uleb128 0x1
 14385 571c 50       		.byte	0x50
 14386 571d 02       		.uleb128 0x2
 14387 571e 74       		.byte	0x74
 14388 571f 00       		.sleb128 0
 14389 5720 3A       		.uleb128 0x3a
 14390 5721 01       		.uleb128 0x1
 14391 5722 51       		.byte	0x51
 14392 5723 02       		.uleb128 0x2
 14393 5724 75       		.byte	0x75
 14394 5725 00       		.sleb128 0
 14395 5726 3A       		.uleb128 0x3a
 14396 5727 01       		.uleb128 0x1
ARM GAS  /tmp/ccDzFi87.s 			page 254


 14397 5728 52       		.byte	0x52
 14398 5729 02       		.uleb128 0x2
 14399 572a 77       		.byte	0x77
 14400 572b 00       		.sleb128 0
 14401 572c 00       		.byte	0
 14402 572d 3B       		.uleb128 0x3b
 14403 572e B6000000 		.4byte	.LVL183
 14404 5732 184E0000 		.4byte	0x4e18
 14405 5736 3A       		.uleb128 0x3a
 14406 5737 01       		.uleb128 0x1
 14407 5738 50       		.byte	0x50
 14408 5739 02       		.uleb128 0x2
 14409 573a 74       		.byte	0x74
 14410 573b 00       		.sleb128 0
 14411 573c 3A       		.uleb128 0x3a
 14412 573d 01       		.uleb128 0x1
 14413 573e 51       		.byte	0x51
 14414 573f 02       		.uleb128 0x2
 14415 5740 75       		.byte	0x75
 14416 5741 00       		.sleb128 0
 14417 5742 3A       		.uleb128 0x3a
 14418 5743 01       		.uleb128 0x1
 14419 5744 52       		.byte	0x52
 14420 5745 02       		.uleb128 0x2
 14421 5746 77       		.byte	0x77
 14422 5747 00       		.sleb128 0
 14423 5748 00       		.byte	0
 14424 5749 00       		.byte	0
 14425 574a 00       		.byte	0
 14426 574b 39       		.uleb128 0x39
 14427 574c 28000000 		.4byte	.LVL174
 14428 5750 94570000 		.4byte	0x5794
 14429 5754 5F570000 		.4byte	0x575f
 14430 5758 3A       		.uleb128 0x3a
 14431 5759 01       		.uleb128 0x1
 14432 575a 50       		.byte	0x50
 14433 575b 02       		.uleb128 0x2
 14434 575c 74       		.byte	0x74
 14435 575d 00       		.sleb128 0
 14436 575e 00       		.byte	0
 14437 575f 39       		.uleb128 0x39
 14438 5760 C0000000 		.4byte	.LVL186
 14439 5764 A0570000 		.4byte	0x57a0
 14440 5768 76570000 		.4byte	0x5776
 14441 576c 3A       		.uleb128 0x3a
 14442 576d 01       		.uleb128 0x1
 14443 576e 50       		.byte	0x50
 14444 576f 05       		.uleb128 0x5
 14445 5770 03       		.byte	0x3
 14446 5771 00000000 		.4byte	.LANCHOR6
 14447 5775 00       		.byte	0
 14448 5776 35       		.uleb128 0x35
 14449 5777 D4000000 		.4byte	.LVL190
 14450 577b 80570000 		.4byte	0x5780
 14451 577f 00       		.byte	0
 14452 5780 5E       		.uleb128 0x5e
 14453 5781 43060000 		.4byte	.LASF912
ARM GAS  /tmp/ccDzFi87.s 			page 255


 14454 5785 43060000 		.4byte	.LASF912
 14455 5789 5F       		.uleb128 0x5f
 14456 578a 49040000 		.4byte	.LASF913
 14457 578e C91D0000 		.4byte	.LASF914
 14458 5792 39       		.byte	0x39
 14459 5793 00       		.byte	0
 14460 5794 60       		.uleb128 0x60
 14461 5795 93020000 		.4byte	.LASF886
 14462 5799 93020000 		.4byte	.LASF886
 14463 579d 30       		.byte	0x30
 14464 579e BA       		.byte	0xba
 14465 579f 08       		.byte	0x8
 14466 57a0 61       		.uleb128 0x61
 14467 57a1 EF060000 		.4byte	.LASF887
 14468 57a5 EF060000 		.4byte	.LASF887
 14469 57a9 03       		.byte	0x3
 14470 57aa 1601     		.2byte	0x116
 14471 57ac 08       		.byte	0x8
 14472 57ad 60       		.uleb128 0x60
 14473 57ae E61F0000 		.4byte	.LASF888
 14474 57b2 E61F0000 		.4byte	.LASF888
 14475 57b6 37       		.byte	0x37
 14476 57b7 96       		.byte	0x96
 14477 57b8 08       		.byte	0x8
 14478 57b9 60       		.uleb128 0x60
 14479 57ba 50040000 		.4byte	.LASF889
 14480 57be 50040000 		.4byte	.LASF889
 14481 57c2 38       		.byte	0x38
 14482 57c3 4F       		.byte	0x4f
 14483 57c4 08       		.byte	0x8
 14484 57c5 61       		.uleb128 0x61
 14485 57c6 05110000 		.4byte	.LASF890
 14486 57ca 05110000 		.4byte	.LASF890
 14487 57ce 1A       		.byte	0x1a
 14488 57cf C601     		.2byte	0x1c6
 14489 57d1 08       		.byte	0x8
 14490 57d2 61       		.uleb128 0x61
 14491 57d3 A1110000 		.4byte	.LASF891
 14492 57d7 A1110000 		.4byte	.LASF891
 14493 57db 1A       		.byte	0x1a
 14494 57dc C201     		.2byte	0x1c2
 14495 57de 08       		.byte	0x8
 14496 57df 60       		.uleb128 0x60
 14497 57e0 2F220000 		.4byte	.LASF892
 14498 57e4 2F220000 		.4byte	.LASF892
 14499 57e8 38       		.byte	0x38
 14500 57e9 4E       		.byte	0x4e
 14501 57ea 08       		.byte	0x8
 14502 57eb 60       		.uleb128 0x60
 14503 57ec D81A0000 		.4byte	.LASF893
 14504 57f0 D81A0000 		.4byte	.LASF893
 14505 57f4 30       		.byte	0x30
 14506 57f5 AD       		.byte	0xad
 14507 57f6 08       		.byte	0x8
 14508 57f7 60       		.uleb128 0x60
 14509 57f8 73150000 		.4byte	.LASF894
 14510 57fc 73150000 		.4byte	.LASF894
ARM GAS  /tmp/ccDzFi87.s 			page 256


 14511 5800 14       		.byte	0x14
 14512 5801 51       		.byte	0x51
 14513 5802 08       		.byte	0x8
 14514 5803 60       		.uleb128 0x60
 14515 5804 14230000 		.4byte	.LASF895
 14516 5808 14230000 		.4byte	.LASF895
 14517 580c 12       		.byte	0x12
 14518 580d DA       		.byte	0xda
 14519 580e 08       		.byte	0x8
 14520 580f 60       		.uleb128 0x60
 14521 5810 18080000 		.4byte	.LASF896
 14522 5814 18080000 		.4byte	.LASF896
 14523 5818 37       		.byte	0x37
 14524 5819 8F       		.byte	0x8f
 14525 581a 08       		.byte	0x8
 14526 581b 60       		.uleb128 0x60
 14527 581c 9A1D0000 		.4byte	.LASF897
 14528 5820 9A1D0000 		.4byte	.LASF897
 14529 5824 12       		.byte	0x12
 14530 5825 DB       		.byte	0xdb
 14531 5826 08       		.byte	0x8
 14532 5827 60       		.uleb128 0x60
 14533 5828 EE1E0000 		.4byte	.LASF898
 14534 582c EE1E0000 		.4byte	.LASF898
 14535 5830 14       		.byte	0x14
 14536 5831 52       		.byte	0x52
 14537 5832 08       		.byte	0x8
 14538 5833 60       		.uleb128 0x60
 14539 5834 1B060000 		.4byte	.LASF899
 14540 5838 1B060000 		.4byte	.LASF899
 14541 583c 14       		.byte	0x14
 14542 583d 4D       		.byte	0x4d
 14543 583e 08       		.byte	0x8
 14544 583f 60       		.uleb128 0x60
 14545 5840 0D040000 		.4byte	.LASF900
 14546 5844 0D040000 		.4byte	.LASF900
 14547 5848 12       		.byte	0x12
 14548 5849 DC       		.byte	0xdc
 14549 584a 08       		.byte	0x8
 14550 584b 60       		.uleb128 0x60
 14551 584c FB210000 		.4byte	.LASF901
 14552 5850 FB210000 		.4byte	.LASF901
 14553 5854 12       		.byte	0x12
 14554 5855 DD       		.byte	0xdd
 14555 5856 08       		.byte	0x8
 14556 5857 61       		.uleb128 0x61
 14557 5858 6B0F0000 		.4byte	.LASF902
 14558 585c 6B0F0000 		.4byte	.LASF902
 14559 5860 04       		.byte	0x4
 14560 5861 6601     		.2byte	0x166
 14561 5863 08       		.byte	0x8
 14562 5864 60       		.uleb128 0x60
 14563 5865 A0240000 		.4byte	.LASF903
 14564 5869 A0240000 		.4byte	.LASF903
 14565 586d 14       		.byte	0x14
 14566 586e 4F       		.byte	0x4f
 14567 586f 08       		.byte	0x8
ARM GAS  /tmp/ccDzFi87.s 			page 257


 14568 5870 60       		.uleb128 0x60
 14569 5871 22040000 		.4byte	.LASF904
 14570 5875 22040000 		.4byte	.LASF904
 14571 5879 12       		.byte	0x12
 14572 587a D8       		.byte	0xd8
 14573 587b 08       		.byte	0x8
 14574 587c 60       		.uleb128 0x60
 14575 587d 42140000 		.4byte	.LASF905
 14576 5881 42140000 		.4byte	.LASF905
 14577 5885 12       		.byte	0x12
 14578 5886 D9       		.byte	0xd9
 14579 5887 08       		.byte	0x8
 14580 5888 60       		.uleb128 0x60
 14581 5889 BB1A0000 		.4byte	.LASF906
 14582 588d BB1A0000 		.4byte	.LASF906
 14583 5891 14       		.byte	0x14
 14584 5892 50       		.byte	0x50
 14585 5893 08       		.byte	0x8
 14586 5894 60       		.uleb128 0x60
 14587 5895 0F140000 		.4byte	.LASF907
 14588 5899 0F140000 		.4byte	.LASF907
 14589 589d 37       		.byte	0x37
 14590 589e 8D       		.byte	0x8d
 14591 589f 09       		.byte	0x9
 14592 58a0 00       		.byte	0
 14593              		.section	.debug_abbrev,"",%progbits
 14594              	.Ldebug_abbrev0:
 14595 0000 01       		.uleb128 0x1
 14596 0001 11       		.uleb128 0x11
 14597 0002 01       		.byte	0x1
 14598 0003 25       		.uleb128 0x25
 14599 0004 0E       		.uleb128 0xe
 14600 0005 13       		.uleb128 0x13
 14601 0006 0B       		.uleb128 0xb
 14602 0007 03       		.uleb128 0x3
 14603 0008 0E       		.uleb128 0xe
 14604 0009 1B       		.uleb128 0x1b
 14605 000a 0E       		.uleb128 0xe
 14606 000b 55       		.uleb128 0x55
 14607 000c 17       		.uleb128 0x17
 14608 000d 11       		.uleb128 0x11
 14609 000e 01       		.uleb128 0x1
 14610 000f 10       		.uleb128 0x10
 14611 0010 17       		.uleb128 0x17
 14612 0011 00       		.byte	0
 14613 0012 00       		.byte	0
 14614 0013 02       		.uleb128 0x2
 14615 0014 24       		.uleb128 0x24
 14616 0015 00       		.byte	0
 14617 0016 0B       		.uleb128 0xb
 14618 0017 0B       		.uleb128 0xb
 14619 0018 3E       		.uleb128 0x3e
 14620 0019 0B       		.uleb128 0xb
 14621 001a 03       		.uleb128 0x3
 14622 001b 08       		.uleb128 0x8
 14623 001c 00       		.byte	0
 14624 001d 00       		.byte	0
ARM GAS  /tmp/ccDzFi87.s 			page 258


 14625 001e 03       		.uleb128 0x3
 14626 001f 16       		.uleb128 0x16
 14627 0020 00       		.byte	0
 14628 0021 03       		.uleb128 0x3
 14629 0022 0E       		.uleb128 0xe
 14630 0023 3A       		.uleb128 0x3a
 14631 0024 0B       		.uleb128 0xb
 14632 0025 3B       		.uleb128 0x3b
 14633 0026 0B       		.uleb128 0xb
 14634 0027 39       		.uleb128 0x39
 14635 0028 0B       		.uleb128 0xb
 14636 0029 49       		.uleb128 0x49
 14637 002a 13       		.uleb128 0x13
 14638 002b 00       		.byte	0
 14639 002c 00       		.byte	0
 14640 002d 04       		.uleb128 0x4
 14641 002e 24       		.uleb128 0x24
 14642 002f 00       		.byte	0
 14643 0030 0B       		.uleb128 0xb
 14644 0031 0B       		.uleb128 0xb
 14645 0032 3E       		.uleb128 0x3e
 14646 0033 0B       		.uleb128 0xb
 14647 0034 03       		.uleb128 0x3
 14648 0035 0E       		.uleb128 0xe
 14649 0036 00       		.byte	0
 14650 0037 00       		.byte	0
 14651 0038 05       		.uleb128 0x5
 14652 0039 16       		.uleb128 0x16
 14653 003a 00       		.byte	0
 14654 003b 03       		.uleb128 0x3
 14655 003c 0E       		.uleb128 0xe
 14656 003d 3A       		.uleb128 0x3a
 14657 003e 0B       		.uleb128 0xb
 14658 003f 3B       		.uleb128 0x3b
 14659 0040 05       		.uleb128 0x5
 14660 0041 39       		.uleb128 0x39
 14661 0042 0B       		.uleb128 0xb
 14662 0043 49       		.uleb128 0x49
 14663 0044 13       		.uleb128 0x13
 14664 0045 00       		.byte	0
 14665 0046 00       		.byte	0
 14666 0047 06       		.uleb128 0x6
 14667 0048 17       		.uleb128 0x17
 14668 0049 01       		.byte	0x1
 14669 004a 0B       		.uleb128 0xb
 14670 004b 0B       		.uleb128 0xb
 14671 004c 3A       		.uleb128 0x3a
 14672 004d 0B       		.uleb128 0xb
 14673 004e 3B       		.uleb128 0x3b
 14674 004f 0B       		.uleb128 0xb
 14675 0050 39       		.uleb128 0x39
 14676 0051 0B       		.uleb128 0xb
 14677 0052 01       		.uleb128 0x1
 14678 0053 13       		.uleb128 0x13
 14679 0054 00       		.byte	0
 14680 0055 00       		.byte	0
 14681 0056 07       		.uleb128 0x7
ARM GAS  /tmp/ccDzFi87.s 			page 259


 14682 0057 0D       		.uleb128 0xd
 14683 0058 00       		.byte	0
 14684 0059 03       		.uleb128 0x3
 14685 005a 0E       		.uleb128 0xe
 14686 005b 3A       		.uleb128 0x3a
 14687 005c 0B       		.uleb128 0xb
 14688 005d 3B       		.uleb128 0x3b
 14689 005e 0B       		.uleb128 0xb
 14690 005f 39       		.uleb128 0x39
 14691 0060 0B       		.uleb128 0xb
 14692 0061 49       		.uleb128 0x49
 14693 0062 13       		.uleb128 0x13
 14694 0063 00       		.byte	0
 14695 0064 00       		.byte	0
 14696 0065 08       		.uleb128 0x8
 14697 0066 01       		.uleb128 0x1
 14698 0067 01       		.byte	0x1
 14699 0068 49       		.uleb128 0x49
 14700 0069 13       		.uleb128 0x13
 14701 006a 01       		.uleb128 0x1
 14702 006b 13       		.uleb128 0x13
 14703 006c 00       		.byte	0
 14704 006d 00       		.byte	0
 14705 006e 09       		.uleb128 0x9
 14706 006f 21       		.uleb128 0x21
 14707 0070 00       		.byte	0
 14708 0071 49       		.uleb128 0x49
 14709 0072 13       		.uleb128 0x13
 14710 0073 2F       		.uleb128 0x2f
 14711 0074 0B       		.uleb128 0xb
 14712 0075 00       		.byte	0
 14713 0076 00       		.byte	0
 14714 0077 0A       		.uleb128 0xa
 14715 0078 13       		.uleb128 0x13
 14716 0079 01       		.byte	0x1
 14717 007a 0B       		.uleb128 0xb
 14718 007b 0B       		.uleb128 0xb
 14719 007c 3A       		.uleb128 0x3a
 14720 007d 0B       		.uleb128 0xb
 14721 007e 3B       		.uleb128 0x3b
 14722 007f 0B       		.uleb128 0xb
 14723 0080 39       		.uleb128 0x39
 14724 0081 0B       		.uleb128 0xb
 14725 0082 01       		.uleb128 0x1
 14726 0083 13       		.uleb128 0x13
 14727 0084 00       		.byte	0
 14728 0085 00       		.byte	0
 14729 0086 0B       		.uleb128 0xb
 14730 0087 0D       		.uleb128 0xd
 14731 0088 00       		.byte	0
 14732 0089 03       		.uleb128 0x3
 14733 008a 0E       		.uleb128 0xe
 14734 008b 3A       		.uleb128 0x3a
 14735 008c 0B       		.uleb128 0xb
 14736 008d 3B       		.uleb128 0x3b
 14737 008e 0B       		.uleb128 0xb
 14738 008f 39       		.uleb128 0x39
ARM GAS  /tmp/ccDzFi87.s 			page 260


 14739 0090 0B       		.uleb128 0xb
 14740 0091 49       		.uleb128 0x49
 14741 0092 13       		.uleb128 0x13
 14742 0093 38       		.uleb128 0x38
 14743 0094 0B       		.uleb128 0xb
 14744 0095 00       		.byte	0
 14745 0096 00       		.byte	0
 14746 0097 0C       		.uleb128 0xc
 14747 0098 0F       		.uleb128 0xf
 14748 0099 00       		.byte	0
 14749 009a 0B       		.uleb128 0xb
 14750 009b 0B       		.uleb128 0xb
 14751 009c 00       		.byte	0
 14752 009d 00       		.byte	0
 14753 009e 0D       		.uleb128 0xd
 14754 009f 13       		.uleb128 0x13
 14755 00a0 01       		.byte	0x1
 14756 00a1 03       		.uleb128 0x3
 14757 00a2 0E       		.uleb128 0xe
 14758 00a3 0B       		.uleb128 0xb
 14759 00a4 0B       		.uleb128 0xb
 14760 00a5 3A       		.uleb128 0x3a
 14761 00a6 0B       		.uleb128 0xb
 14762 00a7 3B       		.uleb128 0x3b
 14763 00a8 0B       		.uleb128 0xb
 14764 00a9 39       		.uleb128 0x39
 14765 00aa 0B       		.uleb128 0xb
 14766 00ab 01       		.uleb128 0x1
 14767 00ac 13       		.uleb128 0x13
 14768 00ad 00       		.byte	0
 14769 00ae 00       		.byte	0
 14770 00af 0E       		.uleb128 0xe
 14771 00b0 0D       		.uleb128 0xd
 14772 00b1 00       		.byte	0
 14773 00b2 03       		.uleb128 0x3
 14774 00b3 08       		.uleb128 0x8
 14775 00b4 3A       		.uleb128 0x3a
 14776 00b5 0B       		.uleb128 0xb
 14777 00b6 3B       		.uleb128 0x3b
 14778 00b7 0B       		.uleb128 0xb
 14779 00b8 39       		.uleb128 0x39
 14780 00b9 0B       		.uleb128 0xb
 14781 00ba 49       		.uleb128 0x49
 14782 00bb 13       		.uleb128 0x13
 14783 00bc 38       		.uleb128 0x38
 14784 00bd 0B       		.uleb128 0xb
 14785 00be 00       		.byte	0
 14786 00bf 00       		.byte	0
 14787 00c0 0F       		.uleb128 0xf
 14788 00c1 0F       		.uleb128 0xf
 14789 00c2 00       		.byte	0
 14790 00c3 0B       		.uleb128 0xb
 14791 00c4 0B       		.uleb128 0xb
 14792 00c5 49       		.uleb128 0x49
 14793 00c6 13       		.uleb128 0x13
 14794 00c7 00       		.byte	0
 14795 00c8 00       		.byte	0
ARM GAS  /tmp/ccDzFi87.s 			page 261


 14796 00c9 10       		.uleb128 0x10
 14797 00ca 13       		.uleb128 0x13
 14798 00cb 01       		.byte	0x1
 14799 00cc 03       		.uleb128 0x3
 14800 00cd 0E       		.uleb128 0xe
 14801 00ce 0B       		.uleb128 0xb
 14802 00cf 05       		.uleb128 0x5
 14803 00d0 3A       		.uleb128 0x3a
 14804 00d1 0B       		.uleb128 0xb
 14805 00d2 3B       		.uleb128 0x3b
 14806 00d3 0B       		.uleb128 0xb
 14807 00d4 39       		.uleb128 0x39
 14808 00d5 0B       		.uleb128 0xb
 14809 00d6 01       		.uleb128 0x1
 14810 00d7 13       		.uleb128 0x13
 14811 00d8 00       		.byte	0
 14812 00d9 00       		.byte	0
 14813 00da 11       		.uleb128 0x11
 14814 00db 0D       		.uleb128 0xd
 14815 00dc 00       		.byte	0
 14816 00dd 03       		.uleb128 0x3
 14817 00de 0E       		.uleb128 0xe
 14818 00df 3A       		.uleb128 0x3a
 14819 00e0 0B       		.uleb128 0xb
 14820 00e1 3B       		.uleb128 0x3b
 14821 00e2 0B       		.uleb128 0xb
 14822 00e3 39       		.uleb128 0x39
 14823 00e4 0B       		.uleb128 0xb
 14824 00e5 49       		.uleb128 0x49
 14825 00e6 13       		.uleb128 0x13
 14826 00e7 38       		.uleb128 0x38
 14827 00e8 05       		.uleb128 0x5
 14828 00e9 00       		.byte	0
 14829 00ea 00       		.byte	0
 14830 00eb 12       		.uleb128 0x12
 14831 00ec 15       		.uleb128 0x15
 14832 00ed 00       		.byte	0
 14833 00ee 27       		.uleb128 0x27
 14834 00ef 19       		.uleb128 0x19
 14835 00f0 00       		.byte	0
 14836 00f1 00       		.byte	0
 14837 00f2 13       		.uleb128 0x13
 14838 00f3 15       		.uleb128 0x15
 14839 00f4 01       		.byte	0x1
 14840 00f5 27       		.uleb128 0x27
 14841 00f6 19       		.uleb128 0x19
 14842 00f7 49       		.uleb128 0x49
 14843 00f8 13       		.uleb128 0x13
 14844 00f9 01       		.uleb128 0x1
 14845 00fa 13       		.uleb128 0x13
 14846 00fb 00       		.byte	0
 14847 00fc 00       		.byte	0
 14848 00fd 14       		.uleb128 0x14
 14849 00fe 05       		.uleb128 0x5
 14850 00ff 00       		.byte	0
 14851 0100 49       		.uleb128 0x49
 14852 0101 13       		.uleb128 0x13
ARM GAS  /tmp/ccDzFi87.s 			page 262


 14853 0102 00       		.byte	0
 14854 0103 00       		.byte	0
 14855 0104 15       		.uleb128 0x15
 14856 0105 26       		.uleb128 0x26
 14857 0106 00       		.byte	0
 14858 0107 49       		.uleb128 0x49
 14859 0108 13       		.uleb128 0x13
 14860 0109 00       		.byte	0
 14861 010a 00       		.byte	0
 14862 010b 16       		.uleb128 0x16
 14863 010c 13       		.uleb128 0x13
 14864 010d 01       		.byte	0x1
 14865 010e 03       		.uleb128 0x3
 14866 010f 0E       		.uleb128 0xe
 14867 0110 0B       		.uleb128 0xb
 14868 0111 05       		.uleb128 0x5
 14869 0112 3A       		.uleb128 0x3a
 14870 0113 0B       		.uleb128 0xb
 14871 0114 3B       		.uleb128 0x3b
 14872 0115 05       		.uleb128 0x5
 14873 0116 39       		.uleb128 0x39
 14874 0117 0B       		.uleb128 0xb
 14875 0118 01       		.uleb128 0x1
 14876 0119 13       		.uleb128 0x13
 14877 011a 00       		.byte	0
 14878 011b 00       		.byte	0
 14879 011c 17       		.uleb128 0x17
 14880 011d 0D       		.uleb128 0xd
 14881 011e 00       		.byte	0
 14882 011f 03       		.uleb128 0x3
 14883 0120 0E       		.uleb128 0xe
 14884 0121 3A       		.uleb128 0x3a
 14885 0122 0B       		.uleb128 0xb
 14886 0123 3B       		.uleb128 0x3b
 14887 0124 05       		.uleb128 0x5
 14888 0125 39       		.uleb128 0x39
 14889 0126 0B       		.uleb128 0xb
 14890 0127 49       		.uleb128 0x49
 14891 0128 13       		.uleb128 0x13
 14892 0129 38       		.uleb128 0x38
 14893 012a 0B       		.uleb128 0xb
 14894 012b 00       		.byte	0
 14895 012c 00       		.byte	0
 14896 012d 18       		.uleb128 0x18
 14897 012e 0D       		.uleb128 0xd
 14898 012f 00       		.byte	0
 14899 0130 03       		.uleb128 0x3
 14900 0131 0E       		.uleb128 0xe
 14901 0132 3A       		.uleb128 0x3a
 14902 0133 0B       		.uleb128 0xb
 14903 0134 3B       		.uleb128 0x3b
 14904 0135 05       		.uleb128 0x5
 14905 0136 39       		.uleb128 0x39
 14906 0137 0B       		.uleb128 0xb
 14907 0138 49       		.uleb128 0x49
 14908 0139 13       		.uleb128 0x13
 14909 013a 38       		.uleb128 0x38
ARM GAS  /tmp/ccDzFi87.s 			page 263


 14910 013b 05       		.uleb128 0x5
 14911 013c 00       		.byte	0
 14912 013d 00       		.byte	0
 14913 013e 19       		.uleb128 0x19
 14914 013f 35       		.uleb128 0x35
 14915 0140 00       		.byte	0
 14916 0141 49       		.uleb128 0x49
 14917 0142 13       		.uleb128 0x13
 14918 0143 00       		.byte	0
 14919 0144 00       		.byte	0
 14920 0145 1A       		.uleb128 0x1a
 14921 0146 13       		.uleb128 0x13
 14922 0147 01       		.byte	0x1
 14923 0148 03       		.uleb128 0x3
 14924 0149 0E       		.uleb128 0xe
 14925 014a 0B       		.uleb128 0xb
 14926 014b 0B       		.uleb128 0xb
 14927 014c 3A       		.uleb128 0x3a
 14928 014d 0B       		.uleb128 0xb
 14929 014e 3B       		.uleb128 0x3b
 14930 014f 05       		.uleb128 0x5
 14931 0150 39       		.uleb128 0x39
 14932 0151 0B       		.uleb128 0xb
 14933 0152 01       		.uleb128 0x1
 14934 0153 13       		.uleb128 0x13
 14935 0154 00       		.byte	0
 14936 0155 00       		.byte	0
 14937 0156 1B       		.uleb128 0x1b
 14938 0157 13       		.uleb128 0x13
 14939 0158 01       		.byte	0x1
 14940 0159 0B       		.uleb128 0xb
 14941 015a 0B       		.uleb128 0xb
 14942 015b 3A       		.uleb128 0x3a
 14943 015c 0B       		.uleb128 0xb
 14944 015d 3B       		.uleb128 0x3b
 14945 015e 05       		.uleb128 0x5
 14946 015f 39       		.uleb128 0x39
 14947 0160 0B       		.uleb128 0xb
 14948 0161 01       		.uleb128 0x1
 14949 0162 13       		.uleb128 0x13
 14950 0163 00       		.byte	0
 14951 0164 00       		.byte	0
 14952 0165 1C       		.uleb128 0x1c
 14953 0166 17       		.uleb128 0x17
 14954 0167 01       		.byte	0x1
 14955 0168 0B       		.uleb128 0xb
 14956 0169 0B       		.uleb128 0xb
 14957 016a 3A       		.uleb128 0x3a
 14958 016b 0B       		.uleb128 0xb
 14959 016c 3B       		.uleb128 0x3b
 14960 016d 05       		.uleb128 0x5
 14961 016e 39       		.uleb128 0x39
 14962 016f 0B       		.uleb128 0xb
 14963 0170 01       		.uleb128 0x1
 14964 0171 13       		.uleb128 0x13
 14965 0172 00       		.byte	0
 14966 0173 00       		.byte	0
ARM GAS  /tmp/ccDzFi87.s 			page 264


 14967 0174 1D       		.uleb128 0x1d
 14968 0175 0D       		.uleb128 0xd
 14969 0176 00       		.byte	0
 14970 0177 03       		.uleb128 0x3
 14971 0178 0E       		.uleb128 0xe
 14972 0179 3A       		.uleb128 0x3a
 14973 017a 0B       		.uleb128 0xb
 14974 017b 3B       		.uleb128 0x3b
 14975 017c 05       		.uleb128 0x5
 14976 017d 39       		.uleb128 0x39
 14977 017e 0B       		.uleb128 0xb
 14978 017f 49       		.uleb128 0x49
 14979 0180 13       		.uleb128 0x13
 14980 0181 00       		.byte	0
 14981 0182 00       		.byte	0
 14982 0183 1E       		.uleb128 0x1e
 14983 0184 13       		.uleb128 0x13
 14984 0185 00       		.byte	0
 14985 0186 03       		.uleb128 0x3
 14986 0187 0E       		.uleb128 0xe
 14987 0188 3C       		.uleb128 0x3c
 14988 0189 19       		.uleb128 0x19
 14989 018a 00       		.byte	0
 14990 018b 00       		.byte	0
 14991 018c 1F       		.uleb128 0x1f
 14992 018d 15       		.uleb128 0x15
 14993 018e 01       		.byte	0x1
 14994 018f 27       		.uleb128 0x27
 14995 0190 19       		.uleb128 0x19
 14996 0191 01       		.uleb128 0x1
 14997 0192 13       		.uleb128 0x13
 14998 0193 00       		.byte	0
 14999 0194 00       		.byte	0
 15000 0195 20       		.uleb128 0x20
 15001 0196 34       		.uleb128 0x34
 15002 0197 00       		.byte	0
 15003 0198 03       		.uleb128 0x3
 15004 0199 0E       		.uleb128 0xe
 15005 019a 3A       		.uleb128 0x3a
 15006 019b 0B       		.uleb128 0xb
 15007 019c 3B       		.uleb128 0x3b
 15008 019d 05       		.uleb128 0x5
 15009 019e 39       		.uleb128 0x39
 15010 019f 0B       		.uleb128 0xb
 15011 01a0 49       		.uleb128 0x49
 15012 01a1 13       		.uleb128 0x13
 15013 01a2 3F       		.uleb128 0x3f
 15014 01a3 19       		.uleb128 0x19
 15015 01a4 3C       		.uleb128 0x3c
 15016 01a5 19       		.uleb128 0x19
 15017 01a6 00       		.byte	0
 15018 01a7 00       		.byte	0
 15019 01a8 21       		.uleb128 0x21
 15020 01a9 0D       		.uleb128 0xd
 15021 01aa 00       		.byte	0
 15022 01ab 03       		.uleb128 0x3
 15023 01ac 08       		.uleb128 0x8
ARM GAS  /tmp/ccDzFi87.s 			page 265


 15024 01ad 3A       		.uleb128 0x3a
 15025 01ae 0B       		.uleb128 0xb
 15026 01af 3B       		.uleb128 0x3b
 15027 01b0 05       		.uleb128 0x5
 15028 01b1 39       		.uleb128 0x39
 15029 01b2 0B       		.uleb128 0xb
 15030 01b3 49       		.uleb128 0x49
 15031 01b4 13       		.uleb128 0x13
 15032 01b5 38       		.uleb128 0x38
 15033 01b6 0B       		.uleb128 0xb
 15034 01b7 00       		.byte	0
 15035 01b8 00       		.byte	0
 15036 01b9 22       		.uleb128 0x22
 15037 01ba 0D       		.uleb128 0xd
 15038 01bb 00       		.byte	0
 15039 01bc 03       		.uleb128 0x3
 15040 01bd 08       		.uleb128 0x8
 15041 01be 3A       		.uleb128 0x3a
 15042 01bf 0B       		.uleb128 0xb
 15043 01c0 3B       		.uleb128 0x3b
 15044 01c1 05       		.uleb128 0x5
 15045 01c2 39       		.uleb128 0x39
 15046 01c3 0B       		.uleb128 0xb
 15047 01c4 49       		.uleb128 0x49
 15048 01c5 13       		.uleb128 0x13
 15049 01c6 38       		.uleb128 0x38
 15050 01c7 05       		.uleb128 0x5
 15051 01c8 00       		.byte	0
 15052 01c9 00       		.byte	0
 15053 01ca 23       		.uleb128 0x23
 15054 01cb 34       		.uleb128 0x34
 15055 01cc 00       		.byte	0
 15056 01cd 03       		.uleb128 0x3
 15057 01ce 0E       		.uleb128 0xe
 15058 01cf 3A       		.uleb128 0x3a
 15059 01d0 0B       		.uleb128 0xb
 15060 01d1 3B       		.uleb128 0x3b
 15061 01d2 0B       		.uleb128 0xb
 15062 01d3 39       		.uleb128 0x39
 15063 01d4 0B       		.uleb128 0xb
 15064 01d5 49       		.uleb128 0x49
 15065 01d6 13       		.uleb128 0x13
 15066 01d7 3F       		.uleb128 0x3f
 15067 01d8 19       		.uleb128 0x19
 15068 01d9 3C       		.uleb128 0x3c
 15069 01da 19       		.uleb128 0x19
 15070 01db 00       		.byte	0
 15071 01dc 00       		.byte	0
 15072 01dd 24       		.uleb128 0x24
 15073 01de 13       		.uleb128 0x13
 15074 01df 01       		.byte	0x1
 15075 01e0 0B       		.uleb128 0xb
 15076 01e1 05       		.uleb128 0x5
 15077 01e2 3A       		.uleb128 0x3a
 15078 01e3 0B       		.uleb128 0xb
 15079 01e4 3B       		.uleb128 0x3b
 15080 01e5 05       		.uleb128 0x5
ARM GAS  /tmp/ccDzFi87.s 			page 266


 15081 01e6 39       		.uleb128 0x39
 15082 01e7 0B       		.uleb128 0xb
 15083 01e8 01       		.uleb128 0x1
 15084 01e9 13       		.uleb128 0x13
 15085 01ea 00       		.byte	0
 15086 01eb 00       		.byte	0
 15087 01ec 25       		.uleb128 0x25
 15088 01ed 13       		.uleb128 0x13
 15089 01ee 01       		.byte	0x1
 15090 01ef 0B       		.uleb128 0xb
 15091 01f0 05       		.uleb128 0x5
 15092 01f1 3A       		.uleb128 0x3a
 15093 01f2 0B       		.uleb128 0xb
 15094 01f3 3B       		.uleb128 0x3b
 15095 01f4 0B       		.uleb128 0xb
 15096 01f5 39       		.uleb128 0x39
 15097 01f6 0B       		.uleb128 0xb
 15098 01f7 01       		.uleb128 0x1
 15099 01f8 13       		.uleb128 0x13
 15100 01f9 00       		.byte	0
 15101 01fa 00       		.byte	0
 15102 01fb 26       		.uleb128 0x26
 15103 01fc 34       		.uleb128 0x34
 15104 01fd 00       		.byte	0
 15105 01fe 03       		.uleb128 0x3
 15106 01ff 08       		.uleb128 0x8
 15107 0200 3A       		.uleb128 0x3a
 15108 0201 0B       		.uleb128 0xb
 15109 0202 3B       		.uleb128 0x3b
 15110 0203 05       		.uleb128 0x5
 15111 0204 39       		.uleb128 0x39
 15112 0205 0B       		.uleb128 0xb
 15113 0206 49       		.uleb128 0x49
 15114 0207 13       		.uleb128 0x13
 15115 0208 3F       		.uleb128 0x3f
 15116 0209 19       		.uleb128 0x19
 15117 020a 3C       		.uleb128 0x3c
 15118 020b 19       		.uleb128 0x19
 15119 020c 00       		.byte	0
 15120 020d 00       		.byte	0
 15121 020e 27       		.uleb128 0x27
 15122 020f 04       		.uleb128 0x4
 15123 0210 01       		.byte	0x1
 15124 0211 3E       		.uleb128 0x3e
 15125 0212 0B       		.uleb128 0xb
 15126 0213 0B       		.uleb128 0xb
 15127 0214 0B       		.uleb128 0xb
 15128 0215 49       		.uleb128 0x49
 15129 0216 13       		.uleb128 0x13
 15130 0217 3A       		.uleb128 0x3a
 15131 0218 0B       		.uleb128 0xb
 15132 0219 3B       		.uleb128 0x3b
 15133 021a 0B       		.uleb128 0xb
 15134 021b 39       		.uleb128 0x39
 15135 021c 0B       		.uleb128 0xb
 15136 021d 01       		.uleb128 0x1
 15137 021e 13       		.uleb128 0x13
ARM GAS  /tmp/ccDzFi87.s 			page 267


 15138 021f 00       		.byte	0
 15139 0220 00       		.byte	0
 15140 0221 28       		.uleb128 0x28
 15141 0222 28       		.uleb128 0x28
 15142 0223 00       		.byte	0
 15143 0224 03       		.uleb128 0x3
 15144 0225 0E       		.uleb128 0xe
 15145 0226 1C       		.uleb128 0x1c
 15146 0227 0B       		.uleb128 0xb
 15147 0228 00       		.byte	0
 15148 0229 00       		.byte	0
 15149 022a 29       		.uleb128 0x29
 15150 022b 0D       		.uleb128 0xd
 15151 022c 00       		.byte	0
 15152 022d 03       		.uleb128 0x3
 15153 022e 08       		.uleb128 0x8
 15154 022f 3A       		.uleb128 0x3a
 15155 0230 0B       		.uleb128 0xb
 15156 0231 3B       		.uleb128 0x3b
 15157 0232 0B       		.uleb128 0xb
 15158 0233 39       		.uleb128 0x39
 15159 0234 0B       		.uleb128 0xb
 15160 0235 49       		.uleb128 0x49
 15161 0236 13       		.uleb128 0x13
 15162 0237 00       		.byte	0
 15163 0238 00       		.byte	0
 15164 0239 2A       		.uleb128 0x2a
 15165 023a 04       		.uleb128 0x4
 15166 023b 01       		.byte	0x1
 15167 023c 3E       		.uleb128 0x3e
 15168 023d 0B       		.uleb128 0xb
 15169 023e 0B       		.uleb128 0xb
 15170 023f 0B       		.uleb128 0xb
 15171 0240 49       		.uleb128 0x49
 15172 0241 13       		.uleb128 0x13
 15173 0242 3A       		.uleb128 0x3a
 15174 0243 0B       		.uleb128 0xb
 15175 0244 3B       		.uleb128 0x3b
 15176 0245 05       		.uleb128 0x5
 15177 0246 39       		.uleb128 0x39
 15178 0247 0B       		.uleb128 0xb
 15179 0248 01       		.uleb128 0x1
 15180 0249 13       		.uleb128 0x13
 15181 024a 00       		.byte	0
 15182 024b 00       		.byte	0
 15183 024c 2B       		.uleb128 0x2b
 15184 024d 26       		.uleb128 0x26
 15185 024e 00       		.byte	0
 15186 024f 00       		.byte	0
 15187 0250 00       		.byte	0
 15188 0251 2C       		.uleb128 0x2c
 15189 0252 13       		.uleb128 0x13
 15190 0253 01       		.byte	0x1
 15191 0254 0B       		.uleb128 0xb
 15192 0255 06       		.uleb128 0x6
 15193 0256 3A       		.uleb128 0x3a
 15194 0257 0B       		.uleb128 0xb
ARM GAS  /tmp/ccDzFi87.s 			page 268


 15195 0258 3B       		.uleb128 0x3b
 15196 0259 0B       		.uleb128 0xb
 15197 025a 39       		.uleb128 0x39
 15198 025b 0B       		.uleb128 0xb
 15199 025c 01       		.uleb128 0x1
 15200 025d 13       		.uleb128 0x13
 15201 025e 00       		.byte	0
 15202 025f 00       		.byte	0
 15203 0260 2D       		.uleb128 0x2d
 15204 0261 0D       		.uleb128 0xd
 15205 0262 00       		.byte	0
 15206 0263 03       		.uleb128 0x3
 15207 0264 08       		.uleb128 0x8
 15208 0265 3A       		.uleb128 0x3a
 15209 0266 0B       		.uleb128 0xb
 15210 0267 3B       		.uleb128 0x3b
 15211 0268 0B       		.uleb128 0xb
 15212 0269 39       		.uleb128 0x39
 15213 026a 0B       		.uleb128 0xb
 15214 026b 49       		.uleb128 0x49
 15215 026c 13       		.uleb128 0x13
 15216 026d 38       		.uleb128 0x38
 15217 026e 05       		.uleb128 0x5
 15218 026f 00       		.byte	0
 15219 0270 00       		.byte	0
 15220 0271 2E       		.uleb128 0x2e
 15221 0272 21       		.uleb128 0x21
 15222 0273 00       		.byte	0
 15223 0274 49       		.uleb128 0x49
 15224 0275 13       		.uleb128 0x13
 15225 0276 2F       		.uleb128 0x2f
 15226 0277 05       		.uleb128 0x5
 15227 0278 00       		.byte	0
 15228 0279 00       		.byte	0
 15229 027a 2F       		.uleb128 0x2f
 15230 027b 34       		.uleb128 0x34
 15231 027c 00       		.byte	0
 15232 027d 47       		.uleb128 0x47
 15233 027e 13       		.uleb128 0x13
 15234 027f 3A       		.uleb128 0x3a
 15235 0280 0B       		.uleb128 0xb
 15236 0281 3B       		.uleb128 0x3b
 15237 0282 0B       		.uleb128 0xb
 15238 0283 39       		.uleb128 0x39
 15239 0284 0B       		.uleb128 0xb
 15240 0285 02       		.uleb128 0x2
 15241 0286 18       		.uleb128 0x18
 15242 0287 00       		.byte	0
 15243 0288 00       		.byte	0
 15244 0289 30       		.uleb128 0x30
 15245 028a 17       		.uleb128 0x17
 15246 028b 01       		.byte	0x1
 15247 028c 0B       		.uleb128 0xb
 15248 028d 05       		.uleb128 0x5
 15249 028e 3A       		.uleb128 0x3a
 15250 028f 0B       		.uleb128 0xb
 15251 0290 3B       		.uleb128 0x3b
ARM GAS  /tmp/ccDzFi87.s 			page 269


 15252 0291 0B       		.uleb128 0xb
 15253 0292 39       		.uleb128 0x39
 15254 0293 0B       		.uleb128 0xb
 15255 0294 01       		.uleb128 0x1
 15256 0295 13       		.uleb128 0x13
 15257 0296 00       		.byte	0
 15258 0297 00       		.byte	0
 15259 0298 31       		.uleb128 0x31
 15260 0299 34       		.uleb128 0x34
 15261 029a 00       		.byte	0
 15262 029b 03       		.uleb128 0x3
 15263 029c 08       		.uleb128 0x8
 15264 029d 3A       		.uleb128 0x3a
 15265 029e 0B       		.uleb128 0xb
 15266 029f 3B       		.uleb128 0x3b
 15267 02a0 0B       		.uleb128 0xb
 15268 02a1 39       		.uleb128 0x39
 15269 02a2 0B       		.uleb128 0xb
 15270 02a3 49       		.uleb128 0x49
 15271 02a4 13       		.uleb128 0x13
 15272 02a5 02       		.uleb128 0x2
 15273 02a6 18       		.uleb128 0x18
 15274 02a7 00       		.byte	0
 15275 02a8 00       		.byte	0
 15276 02a9 32       		.uleb128 0x32
 15277 02aa 34       		.uleb128 0x34
 15278 02ab 00       		.byte	0
 15279 02ac 03       		.uleb128 0x3
 15280 02ad 0E       		.uleb128 0xe
 15281 02ae 3A       		.uleb128 0x3a
 15282 02af 0B       		.uleb128 0xb
 15283 02b0 3B       		.uleb128 0x3b
 15284 02b1 0B       		.uleb128 0xb
 15285 02b2 39       		.uleb128 0x39
 15286 02b3 0B       		.uleb128 0xb
 15287 02b4 49       		.uleb128 0x49
 15288 02b5 13       		.uleb128 0x13
 15289 02b6 02       		.uleb128 0x2
 15290 02b7 18       		.uleb128 0x18
 15291 02b8 00       		.byte	0
 15292 02b9 00       		.byte	0
 15293 02ba 33       		.uleb128 0x33
 15294 02bb 2E       		.uleb128 0x2e
 15295 02bc 01       		.byte	0x1
 15296 02bd 3F       		.uleb128 0x3f
 15297 02be 19       		.uleb128 0x19
 15298 02bf 03       		.uleb128 0x3
 15299 02c0 0E       		.uleb128 0xe
 15300 02c1 3A       		.uleb128 0x3a
 15301 02c2 0B       		.uleb128 0xb
 15302 02c3 3B       		.uleb128 0x3b
 15303 02c4 05       		.uleb128 0x5
 15304 02c5 39       		.uleb128 0x39
 15305 02c6 0B       		.uleb128 0xb
 15306 02c7 27       		.uleb128 0x27
 15307 02c8 19       		.uleb128 0x19
 15308 02c9 49       		.uleb128 0x49
ARM GAS  /tmp/ccDzFi87.s 			page 270


 15309 02ca 13       		.uleb128 0x13
 15310 02cb 11       		.uleb128 0x11
 15311 02cc 01       		.uleb128 0x1
 15312 02cd 12       		.uleb128 0x12
 15313 02ce 06       		.uleb128 0x6
 15314 02cf 40       		.uleb128 0x40
 15315 02d0 18       		.uleb128 0x18
 15316 02d1 9742     		.uleb128 0x2117
 15317 02d3 19       		.uleb128 0x19
 15318 02d4 01       		.uleb128 0x1
 15319 02d5 13       		.uleb128 0x13
 15320 02d6 00       		.byte	0
 15321 02d7 00       		.byte	0
 15322 02d8 34       		.uleb128 0x34
 15323 02d9 05       		.uleb128 0x5
 15324 02da 00       		.byte	0
 15325 02db 03       		.uleb128 0x3
 15326 02dc 0E       		.uleb128 0xe
 15327 02dd 3A       		.uleb128 0x3a
 15328 02de 0B       		.uleb128 0xb
 15329 02df 3B       		.uleb128 0x3b
 15330 02e0 05       		.uleb128 0x5
 15331 02e1 39       		.uleb128 0x39
 15332 02e2 0B       		.uleb128 0xb
 15333 02e3 49       		.uleb128 0x49
 15334 02e4 13       		.uleb128 0x13
 15335 02e5 02       		.uleb128 0x2
 15336 02e6 17       		.uleb128 0x17
 15337 02e7 B742     		.uleb128 0x2137
 15338 02e9 17       		.uleb128 0x17
 15339 02ea 00       		.byte	0
 15340 02eb 00       		.byte	0
 15341 02ec 35       		.uleb128 0x35
 15342 02ed 898201   		.uleb128 0x4109
 15343 02f0 00       		.byte	0
 15344 02f1 11       		.uleb128 0x11
 15345 02f2 01       		.uleb128 0x1
 15346 02f3 31       		.uleb128 0x31
 15347 02f4 13       		.uleb128 0x13
 15348 02f5 00       		.byte	0
 15349 02f6 00       		.byte	0
 15350 02f7 36       		.uleb128 0x36
 15351 02f8 05       		.uleb128 0x5
 15352 02f9 00       		.byte	0
 15353 02fa 03       		.uleb128 0x3
 15354 02fb 08       		.uleb128 0x8
 15355 02fc 3A       		.uleb128 0x3a
 15356 02fd 0B       		.uleb128 0xb
 15357 02fe 3B       		.uleb128 0x3b
 15358 02ff 05       		.uleb128 0x5
 15359 0300 39       		.uleb128 0x39
 15360 0301 0B       		.uleb128 0xb
 15361 0302 49       		.uleb128 0x49
 15362 0303 13       		.uleb128 0x13
 15363 0304 02       		.uleb128 0x2
 15364 0305 17       		.uleb128 0x17
 15365 0306 B742     		.uleb128 0x2137
ARM GAS  /tmp/ccDzFi87.s 			page 271


 15366 0308 17       		.uleb128 0x17
 15367 0309 00       		.byte	0
 15368 030a 00       		.byte	0
 15369 030b 37       		.uleb128 0x37
 15370 030c 0B       		.uleb128 0xb
 15371 030d 01       		.byte	0x1
 15372 030e 55       		.uleb128 0x55
 15373 030f 17       		.uleb128 0x17
 15374 0310 01       		.uleb128 0x1
 15375 0311 13       		.uleb128 0x13
 15376 0312 00       		.byte	0
 15377 0313 00       		.byte	0
 15378 0314 38       		.uleb128 0x38
 15379 0315 34       		.uleb128 0x34
 15380 0316 00       		.byte	0
 15381 0317 03       		.uleb128 0x3
 15382 0318 08       		.uleb128 0x8
 15383 0319 3A       		.uleb128 0x3a
 15384 031a 0B       		.uleb128 0xb
 15385 031b 3B       		.uleb128 0x3b
 15386 031c 05       		.uleb128 0x5
 15387 031d 39       		.uleb128 0x39
 15388 031e 0B       		.uleb128 0xb
 15389 031f 49       		.uleb128 0x49
 15390 0320 13       		.uleb128 0x13
 15391 0321 02       		.uleb128 0x2
 15392 0322 17       		.uleb128 0x17
 15393 0323 B742     		.uleb128 0x2137
 15394 0325 17       		.uleb128 0x17
 15395 0326 00       		.byte	0
 15396 0327 00       		.byte	0
 15397 0328 39       		.uleb128 0x39
 15398 0329 898201   		.uleb128 0x4109
 15399 032c 01       		.byte	0x1
 15400 032d 11       		.uleb128 0x11
 15401 032e 01       		.uleb128 0x1
 15402 032f 31       		.uleb128 0x31
 15403 0330 13       		.uleb128 0x13
 15404 0331 01       		.uleb128 0x1
 15405 0332 13       		.uleb128 0x13
 15406 0333 00       		.byte	0
 15407 0334 00       		.byte	0
 15408 0335 3A       		.uleb128 0x3a
 15409 0336 8A8201   		.uleb128 0x410a
 15410 0339 00       		.byte	0
 15411 033a 02       		.uleb128 0x2
 15412 033b 18       		.uleb128 0x18
 15413 033c 9142     		.uleb128 0x2111
 15414 033e 18       		.uleb128 0x18
 15415 033f 00       		.byte	0
 15416 0340 00       		.byte	0
 15417 0341 3B       		.uleb128 0x3b
 15418 0342 898201   		.uleb128 0x4109
 15419 0345 01       		.byte	0x1
 15420 0346 11       		.uleb128 0x11
 15421 0347 01       		.uleb128 0x1
 15422 0348 31       		.uleb128 0x31
ARM GAS  /tmp/ccDzFi87.s 			page 272


 15423 0349 13       		.uleb128 0x13
 15424 034a 00       		.byte	0
 15425 034b 00       		.byte	0
 15426 034c 3C       		.uleb128 0x3c
 15427 034d 898201   		.uleb128 0x4109
 15428 0350 00       		.byte	0
 15429 0351 11       		.uleb128 0x11
 15430 0352 01       		.uleb128 0x1
 15431 0353 9542     		.uleb128 0x2115
 15432 0355 19       		.uleb128 0x19
 15433 0356 31       		.uleb128 0x31
 15434 0357 13       		.uleb128 0x13
 15435 0358 00       		.byte	0
 15436 0359 00       		.byte	0
 15437 035a 3D       		.uleb128 0x3d
 15438 035b 2E       		.uleb128 0x2e
 15439 035c 01       		.byte	0x1
 15440 035d 3F       		.uleb128 0x3f
 15441 035e 19       		.uleb128 0x19
 15442 035f 03       		.uleb128 0x3
 15443 0360 0E       		.uleb128 0xe
 15444 0361 3A       		.uleb128 0x3a
 15445 0362 0B       		.uleb128 0xb
 15446 0363 3B       		.uleb128 0x3b
 15447 0364 05       		.uleb128 0x5
 15448 0365 39       		.uleb128 0x39
 15449 0366 0B       		.uleb128 0xb
 15450 0367 27       		.uleb128 0x27
 15451 0368 19       		.uleb128 0x19
 15452 0369 49       		.uleb128 0x49
 15453 036a 13       		.uleb128 0x13
 15454 036b 20       		.uleb128 0x20
 15455 036c 0B       		.uleb128 0xb
 15456 036d 01       		.uleb128 0x1
 15457 036e 13       		.uleb128 0x13
 15458 036f 00       		.byte	0
 15459 0370 00       		.byte	0
 15460 0371 3E       		.uleb128 0x3e
 15461 0372 05       		.uleb128 0x5
 15462 0373 00       		.byte	0
 15463 0374 03       		.uleb128 0x3
 15464 0375 0E       		.uleb128 0xe
 15465 0376 3A       		.uleb128 0x3a
 15466 0377 0B       		.uleb128 0xb
 15467 0378 3B       		.uleb128 0x3b
 15468 0379 05       		.uleb128 0x5
 15469 037a 39       		.uleb128 0x39
 15470 037b 0B       		.uleb128 0xb
 15471 037c 49       		.uleb128 0x49
 15472 037d 13       		.uleb128 0x13
 15473 037e 00       		.byte	0
 15474 037f 00       		.byte	0
 15475 0380 3F       		.uleb128 0x3f
 15476 0381 05       		.uleb128 0x5
 15477 0382 00       		.byte	0
 15478 0383 03       		.uleb128 0x3
 15479 0384 08       		.uleb128 0x8
ARM GAS  /tmp/ccDzFi87.s 			page 273


 15480 0385 3A       		.uleb128 0x3a
 15481 0386 0B       		.uleb128 0xb
 15482 0387 3B       		.uleb128 0x3b
 15483 0388 05       		.uleb128 0x5
 15484 0389 39       		.uleb128 0x39
 15485 038a 0B       		.uleb128 0xb
 15486 038b 49       		.uleb128 0x49
 15487 038c 13       		.uleb128 0x13
 15488 038d 00       		.byte	0
 15489 038e 00       		.byte	0
 15490 038f 40       		.uleb128 0x40
 15491 0390 34       		.uleb128 0x34
 15492 0391 00       		.byte	0
 15493 0392 03       		.uleb128 0x3
 15494 0393 0E       		.uleb128 0xe
 15495 0394 3A       		.uleb128 0x3a
 15496 0395 0B       		.uleb128 0xb
 15497 0396 3B       		.uleb128 0x3b
 15498 0397 05       		.uleb128 0x5
 15499 0398 39       		.uleb128 0x39
 15500 0399 0B       		.uleb128 0xb
 15501 039a 49       		.uleb128 0x49
 15502 039b 13       		.uleb128 0x13
 15503 039c 00       		.byte	0
 15504 039d 00       		.byte	0
 15505 039e 41       		.uleb128 0x41
 15506 039f 34       		.uleb128 0x34
 15507 03a0 00       		.byte	0
 15508 03a1 03       		.uleb128 0x3
 15509 03a2 0E       		.uleb128 0xe
 15510 03a3 49       		.uleb128 0x49
 15511 03a4 13       		.uleb128 0x13
 15512 03a5 34       		.uleb128 0x34
 15513 03a6 19       		.uleb128 0x19
 15514 03a7 02       		.uleb128 0x2
 15515 03a8 18       		.uleb128 0x18
 15516 03a9 00       		.byte	0
 15517 03aa 00       		.byte	0
 15518 03ab 42       		.uleb128 0x42
 15519 03ac 0A       		.uleb128 0xa
 15520 03ad 00       		.byte	0
 15521 03ae 03       		.uleb128 0x3
 15522 03af 0E       		.uleb128 0xe
 15523 03b0 3A       		.uleb128 0x3a
 15524 03b1 0B       		.uleb128 0xb
 15525 03b2 3B       		.uleb128 0x3b
 15526 03b3 05       		.uleb128 0x5
 15527 03b4 39       		.uleb128 0x39
 15528 03b5 0B       		.uleb128 0xb
 15529 03b6 00       		.byte	0
 15530 03b7 00       		.byte	0
 15531 03b8 43       		.uleb128 0x43
 15532 03b9 34       		.uleb128 0x34
 15533 03ba 00       		.byte	0
 15534 03bb 03       		.uleb128 0x3
 15535 03bc 0E       		.uleb128 0xe
 15536 03bd 3A       		.uleb128 0x3a
ARM GAS  /tmp/ccDzFi87.s 			page 274


 15537 03be 0B       		.uleb128 0xb
 15538 03bf 3B       		.uleb128 0x3b
 15539 03c0 05       		.uleb128 0x5
 15540 03c1 39       		.uleb128 0x39
 15541 03c2 0B       		.uleb128 0xb
 15542 03c3 49       		.uleb128 0x49
 15543 03c4 13       		.uleb128 0x13
 15544 03c5 02       		.uleb128 0x2
 15545 03c6 18       		.uleb128 0x18
 15546 03c7 00       		.byte	0
 15547 03c8 00       		.byte	0
 15548 03c9 44       		.uleb128 0x44
 15549 03ca 0A       		.uleb128 0xa
 15550 03cb 00       		.byte	0
 15551 03cc 03       		.uleb128 0x3
 15552 03cd 0E       		.uleb128 0xe
 15553 03ce 3A       		.uleb128 0x3a
 15554 03cf 0B       		.uleb128 0xb
 15555 03d0 3B       		.uleb128 0x3b
 15556 03d1 05       		.uleb128 0x5
 15557 03d2 39       		.uleb128 0x39
 15558 03d3 0B       		.uleb128 0xb
 15559 03d4 11       		.uleb128 0x11
 15560 03d5 01       		.uleb128 0x1
 15561 03d6 00       		.byte	0
 15562 03d7 00       		.byte	0
 15563 03d8 45       		.uleb128 0x45
 15564 03d9 1D       		.uleb128 0x1d
 15565 03da 01       		.byte	0x1
 15566 03db 31       		.uleb128 0x31
 15567 03dc 13       		.uleb128 0x13
 15568 03dd 52       		.uleb128 0x52
 15569 03de 01       		.uleb128 0x1
 15570 03df B842     		.uleb128 0x2138
 15571 03e1 0B       		.uleb128 0xb
 15572 03e2 55       		.uleb128 0x55
 15573 03e3 17       		.uleb128 0x17
 15574 03e4 58       		.uleb128 0x58
 15575 03e5 0B       		.uleb128 0xb
 15576 03e6 59       		.uleb128 0x59
 15577 03e7 05       		.uleb128 0x5
 15578 03e8 57       		.uleb128 0x57
 15579 03e9 0B       		.uleb128 0xb
 15580 03ea 01       		.uleb128 0x1
 15581 03eb 13       		.uleb128 0x13
 15582 03ec 00       		.byte	0
 15583 03ed 00       		.byte	0
 15584 03ee 46       		.uleb128 0x46
 15585 03ef 05       		.uleb128 0x5
 15586 03f0 00       		.byte	0
 15587 03f1 31       		.uleb128 0x31
 15588 03f2 13       		.uleb128 0x13
 15589 03f3 02       		.uleb128 0x2
 15590 03f4 17       		.uleb128 0x17
 15591 03f5 B742     		.uleb128 0x2137
 15592 03f7 17       		.uleb128 0x17
 15593 03f8 00       		.byte	0
ARM GAS  /tmp/ccDzFi87.s 			page 275


 15594 03f9 00       		.byte	0
 15595 03fa 47       		.uleb128 0x47
 15596 03fb 0B       		.uleb128 0xb
 15597 03fc 01       		.byte	0x1
 15598 03fd 55       		.uleb128 0x55
 15599 03fe 17       		.uleb128 0x17
 15600 03ff 00       		.byte	0
 15601 0400 00       		.byte	0
 15602 0401 48       		.uleb128 0x48
 15603 0402 8A8201   		.uleb128 0x410a
 15604 0405 00       		.byte	0
 15605 0406 31       		.uleb128 0x31
 15606 0407 13       		.uleb128 0x13
 15607 0408 9142     		.uleb128 0x2111
 15608 040a 18       		.uleb128 0x18
 15609 040b 00       		.byte	0
 15610 040c 00       		.byte	0
 15611 040d 49       		.uleb128 0x49
 15612 040e 2E       		.uleb128 0x2e
 15613 040f 01       		.byte	0x1
 15614 0410 3F       		.uleb128 0x3f
 15615 0411 19       		.uleb128 0x19
 15616 0412 03       		.uleb128 0x3
 15617 0413 0E       		.uleb128 0xe
 15618 0414 3A       		.uleb128 0x3a
 15619 0415 0B       		.uleb128 0xb
 15620 0416 3B       		.uleb128 0x3b
 15621 0417 05       		.uleb128 0x5
 15622 0418 39       		.uleb128 0x39
 15623 0419 0B       		.uleb128 0xb
 15624 041a 27       		.uleb128 0x27
 15625 041b 19       		.uleb128 0x19
 15626 041c 11       		.uleb128 0x11
 15627 041d 01       		.uleb128 0x1
 15628 041e 12       		.uleb128 0x12
 15629 041f 06       		.uleb128 0x6
 15630 0420 40       		.uleb128 0x40
 15631 0421 18       		.uleb128 0x18
 15632 0422 9742     		.uleb128 0x2117
 15633 0424 19       		.uleb128 0x19
 15634 0425 01       		.uleb128 0x1
 15635 0426 13       		.uleb128 0x13
 15636 0427 00       		.byte	0
 15637 0428 00       		.byte	0
 15638 0429 4A       		.uleb128 0x4a
 15639 042a 1D       		.uleb128 0x1d
 15640 042b 01       		.byte	0x1
 15641 042c 31       		.uleb128 0x31
 15642 042d 13       		.uleb128 0x13
 15643 042e 52       		.uleb128 0x52
 15644 042f 01       		.uleb128 0x1
 15645 0430 B842     		.uleb128 0x2138
 15646 0432 0B       		.uleb128 0xb
 15647 0433 55       		.uleb128 0x55
 15648 0434 17       		.uleb128 0x17
 15649 0435 58       		.uleb128 0x58
 15650 0436 0B       		.uleb128 0xb
ARM GAS  /tmp/ccDzFi87.s 			page 276


 15651 0437 59       		.uleb128 0x59
 15652 0438 05       		.uleb128 0x5
 15653 0439 57       		.uleb128 0x57
 15654 043a 0B       		.uleb128 0xb
 15655 043b 00       		.byte	0
 15656 043c 00       		.byte	0
 15657 043d 4B       		.uleb128 0x4b
 15658 043e 05       		.uleb128 0x5
 15659 043f 00       		.byte	0
 15660 0440 31       		.uleb128 0x31
 15661 0441 13       		.uleb128 0x13
 15662 0442 1C       		.uleb128 0x1c
 15663 0443 0B       		.uleb128 0xb
 15664 0444 00       		.byte	0
 15665 0445 00       		.byte	0
 15666 0446 4C       		.uleb128 0x4c
 15667 0447 898201   		.uleb128 0x4109
 15668 044a 01       		.byte	0x1
 15669 044b 11       		.uleb128 0x11
 15670 044c 01       		.uleb128 0x1
 15671 044d 9542     		.uleb128 0x2115
 15672 044f 19       		.uleb128 0x19
 15673 0450 31       		.uleb128 0x31
 15674 0451 13       		.uleb128 0x13
 15675 0452 01       		.uleb128 0x1
 15676 0453 13       		.uleb128 0x13
 15677 0454 00       		.byte	0
 15678 0455 00       		.byte	0
 15679 0456 4D       		.uleb128 0x4d
 15680 0457 1D       		.uleb128 0x1d
 15681 0458 01       		.byte	0x1
 15682 0459 31       		.uleb128 0x31
 15683 045a 13       		.uleb128 0x13
 15684 045b 52       		.uleb128 0x52
 15685 045c 01       		.uleb128 0x1
 15686 045d B842     		.uleb128 0x2138
 15687 045f 0B       		.uleb128 0xb
 15688 0460 11       		.uleb128 0x11
 15689 0461 01       		.uleb128 0x1
 15690 0462 12       		.uleb128 0x12
 15691 0463 06       		.uleb128 0x6
 15692 0464 58       		.uleb128 0x58
 15693 0465 0B       		.uleb128 0xb
 15694 0466 59       		.uleb128 0x59
 15695 0467 05       		.uleb128 0x5
 15696 0468 57       		.uleb128 0x57
 15697 0469 0B       		.uleb128 0xb
 15698 046a 00       		.byte	0
 15699 046b 00       		.byte	0
 15700 046c 4E       		.uleb128 0x4e
 15701 046d 2E       		.uleb128 0x2e
 15702 046e 01       		.byte	0x1
 15703 046f 03       		.uleb128 0x3
 15704 0470 0E       		.uleb128 0xe
 15705 0471 3A       		.uleb128 0x3a
 15706 0472 0B       		.uleb128 0xb
 15707 0473 3B       		.uleb128 0x3b
ARM GAS  /tmp/ccDzFi87.s 			page 277


 15708 0474 05       		.uleb128 0x5
 15709 0475 39       		.uleb128 0x39
 15710 0476 0B       		.uleb128 0xb
 15711 0477 27       		.uleb128 0x27
 15712 0478 19       		.uleb128 0x19
 15713 0479 20       		.uleb128 0x20
 15714 047a 0B       		.uleb128 0xb
 15715 047b 01       		.uleb128 0x1
 15716 047c 13       		.uleb128 0x13
 15717 047d 00       		.byte	0
 15718 047e 00       		.byte	0
 15719 047f 4F       		.uleb128 0x4f
 15720 0480 34       		.uleb128 0x34
 15721 0481 00       		.byte	0
 15722 0482 03       		.uleb128 0x3
 15723 0483 08       		.uleb128 0x8
 15724 0484 3A       		.uleb128 0x3a
 15725 0485 0B       		.uleb128 0xb
 15726 0486 3B       		.uleb128 0x3b
 15727 0487 05       		.uleb128 0x5
 15728 0488 39       		.uleb128 0x39
 15729 0489 0B       		.uleb128 0xb
 15730 048a 49       		.uleb128 0x49
 15731 048b 13       		.uleb128 0x13
 15732 048c 00       		.byte	0
 15733 048d 00       		.byte	0
 15734 048e 50       		.uleb128 0x50
 15735 048f 2E       		.uleb128 0x2e
 15736 0490 01       		.byte	0x1
 15737 0491 03       		.uleb128 0x3
 15738 0492 0E       		.uleb128 0xe
 15739 0493 3A       		.uleb128 0x3a
 15740 0494 0B       		.uleb128 0xb
 15741 0495 3B       		.uleb128 0x3b
 15742 0496 0B       		.uleb128 0xb
 15743 0497 39       		.uleb128 0x39
 15744 0498 0B       		.uleb128 0xb
 15745 0499 27       		.uleb128 0x27
 15746 049a 19       		.uleb128 0x19
 15747 049b 49       		.uleb128 0x49
 15748 049c 13       		.uleb128 0x13
 15749 049d 20       		.uleb128 0x20
 15750 049e 0B       		.uleb128 0xb
 15751 049f 01       		.uleb128 0x1
 15752 04a0 13       		.uleb128 0x13
 15753 04a1 00       		.byte	0
 15754 04a2 00       		.byte	0
 15755 04a3 51       		.uleb128 0x51
 15756 04a4 05       		.uleb128 0x5
 15757 04a5 00       		.byte	0
 15758 04a6 03       		.uleb128 0x3
 15759 04a7 0E       		.uleb128 0xe
 15760 04a8 3A       		.uleb128 0x3a
 15761 04a9 0B       		.uleb128 0xb
 15762 04aa 3B       		.uleb128 0x3b
 15763 04ab 0B       		.uleb128 0xb
 15764 04ac 39       		.uleb128 0x39
ARM GAS  /tmp/ccDzFi87.s 			page 278


 15765 04ad 0B       		.uleb128 0xb
 15766 04ae 49       		.uleb128 0x49
 15767 04af 13       		.uleb128 0x13
 15768 04b0 00       		.byte	0
 15769 04b1 00       		.byte	0
 15770 04b2 52       		.uleb128 0x52
 15771 04b3 05       		.uleb128 0x5
 15772 04b4 00       		.byte	0
 15773 04b5 03       		.uleb128 0x3
 15774 04b6 08       		.uleb128 0x8
 15775 04b7 3A       		.uleb128 0x3a
 15776 04b8 0B       		.uleb128 0xb
 15777 04b9 3B       		.uleb128 0x3b
 15778 04ba 0B       		.uleb128 0xb
 15779 04bb 39       		.uleb128 0x39
 15780 04bc 0B       		.uleb128 0xb
 15781 04bd 49       		.uleb128 0x49
 15782 04be 13       		.uleb128 0x13
 15783 04bf 00       		.byte	0
 15784 04c0 00       		.byte	0
 15785 04c1 53       		.uleb128 0x53
 15786 04c2 2E       		.uleb128 0x2e
 15787 04c3 01       		.byte	0x1
 15788 04c4 03       		.uleb128 0x3
 15789 04c5 0E       		.uleb128 0xe
 15790 04c6 3A       		.uleb128 0x3a
 15791 04c7 0B       		.uleb128 0xb
 15792 04c8 3B       		.uleb128 0x3b
 15793 04c9 05       		.uleb128 0x5
 15794 04ca 39       		.uleb128 0x39
 15795 04cb 0B       		.uleb128 0xb
 15796 04cc 27       		.uleb128 0x27
 15797 04cd 19       		.uleb128 0x19
 15798 04ce 49       		.uleb128 0x49
 15799 04cf 13       		.uleb128 0x13
 15800 04d0 20       		.uleb128 0x20
 15801 04d1 0B       		.uleb128 0xb
 15802 04d2 01       		.uleb128 0x1
 15803 04d3 13       		.uleb128 0x13
 15804 04d4 00       		.byte	0
 15805 04d5 00       		.byte	0
 15806 04d6 54       		.uleb128 0x54
 15807 04d7 2E       		.uleb128 0x2e
 15808 04d8 00       		.byte	0
 15809 04d9 03       		.uleb128 0x3
 15810 04da 0E       		.uleb128 0xe
 15811 04db 3A       		.uleb128 0x3a
 15812 04dc 0B       		.uleb128 0xb
 15813 04dd 3B       		.uleb128 0x3b
 15814 04de 05       		.uleb128 0x5
 15815 04df 39       		.uleb128 0x39
 15816 04e0 0B       		.uleb128 0xb
 15817 04e1 27       		.uleb128 0x27
 15818 04e2 19       		.uleb128 0x19
 15819 04e3 20       		.uleb128 0x20
 15820 04e4 0B       		.uleb128 0xb
 15821 04e5 00       		.byte	0
ARM GAS  /tmp/ccDzFi87.s 			page 279


 15822 04e6 00       		.byte	0
 15823 04e7 55       		.uleb128 0x55
 15824 04e8 2E       		.uleb128 0x2e
 15825 04e9 01       		.byte	0x1
 15826 04ea 31       		.uleb128 0x31
 15827 04eb 13       		.uleb128 0x13
 15828 04ec 11       		.uleb128 0x11
 15829 04ed 01       		.uleb128 0x1
 15830 04ee 12       		.uleb128 0x12
 15831 04ef 06       		.uleb128 0x6
 15832 04f0 40       		.uleb128 0x40
 15833 04f1 18       		.uleb128 0x18
 15834 04f2 9742     		.uleb128 0x2117
 15835 04f4 19       		.uleb128 0x19
 15836 04f5 01       		.uleb128 0x1
 15837 04f6 13       		.uleb128 0x13
 15838 04f7 00       		.byte	0
 15839 04f8 00       		.byte	0
 15840 04f9 56       		.uleb128 0x56
 15841 04fa 05       		.uleb128 0x5
 15842 04fb 00       		.byte	0
 15843 04fc 31       		.uleb128 0x31
 15844 04fd 13       		.uleb128 0x13
 15845 04fe 00       		.byte	0
 15846 04ff 00       		.byte	0
 15847 0500 57       		.uleb128 0x57
 15848 0501 34       		.uleb128 0x34
 15849 0502 00       		.byte	0
 15850 0503 31       		.uleb128 0x31
 15851 0504 13       		.uleb128 0x13
 15852 0505 02       		.uleb128 0x2
 15853 0506 17       		.uleb128 0x17
 15854 0507 B742     		.uleb128 0x2137
 15855 0509 17       		.uleb128 0x17
 15856 050a 00       		.byte	0
 15857 050b 00       		.byte	0
 15858 050c 58       		.uleb128 0x58
 15859 050d 1D       		.uleb128 0x1d
 15860 050e 01       		.byte	0x1
 15861 050f 31       		.uleb128 0x31
 15862 0510 13       		.uleb128 0x13
 15863 0511 52       		.uleb128 0x52
 15864 0512 01       		.uleb128 0x1
 15865 0513 B842     		.uleb128 0x2138
 15866 0515 0B       		.uleb128 0xb
 15867 0516 55       		.uleb128 0x55
 15868 0517 17       		.uleb128 0x17
 15869 0518 58       		.uleb128 0x58
 15870 0519 0B       		.uleb128 0xb
 15871 051a 59       		.uleb128 0x59
 15872 051b 0B       		.uleb128 0xb
 15873 051c 57       		.uleb128 0x57
 15874 051d 0B       		.uleb128 0xb
 15875 051e 01       		.uleb128 0x1
 15876 051f 13       		.uleb128 0x13
 15877 0520 00       		.byte	0
 15878 0521 00       		.byte	0
ARM GAS  /tmp/ccDzFi87.s 			page 280


 15879 0522 59       		.uleb128 0x59
 15880 0523 1D       		.uleb128 0x1d
 15881 0524 01       		.byte	0x1
 15882 0525 31       		.uleb128 0x31
 15883 0526 13       		.uleb128 0x13
 15884 0527 52       		.uleb128 0x52
 15885 0528 01       		.uleb128 0x1
 15886 0529 B842     		.uleb128 0x2138
 15887 052b 0B       		.uleb128 0xb
 15888 052c 11       		.uleb128 0x11
 15889 052d 01       		.uleb128 0x1
 15890 052e 12       		.uleb128 0x12
 15891 052f 06       		.uleb128 0x6
 15892 0530 58       		.uleb128 0x58
 15893 0531 0B       		.uleb128 0xb
 15894 0532 59       		.uleb128 0x59
 15895 0533 0B       		.uleb128 0xb
 15896 0534 57       		.uleb128 0x57
 15897 0535 0B       		.uleb128 0xb
 15898 0536 01       		.uleb128 0x1
 15899 0537 13       		.uleb128 0x13
 15900 0538 00       		.byte	0
 15901 0539 00       		.byte	0
 15902 053a 5A       		.uleb128 0x5a
 15903 053b 898201   		.uleb128 0x4109
 15904 053e 01       		.byte	0x1
 15905 053f 11       		.uleb128 0x11
 15906 0540 01       		.uleb128 0x1
 15907 0541 9542     		.uleb128 0x2115
 15908 0543 19       		.uleb128 0x19
 15909 0544 31       		.uleb128 0x31
 15910 0545 13       		.uleb128 0x13
 15911 0546 00       		.byte	0
 15912 0547 00       		.byte	0
 15913 0548 5B       		.uleb128 0x5b
 15914 0549 34       		.uleb128 0x34
 15915 054a 00       		.byte	0
 15916 054b 31       		.uleb128 0x31
 15917 054c 13       		.uleb128 0x13
 15918 054d 00       		.byte	0
 15919 054e 00       		.byte	0
 15920 054f 5C       		.uleb128 0x5c
 15921 0550 34       		.uleb128 0x34
 15922 0551 00       		.byte	0
 15923 0552 31       		.uleb128 0x31
 15924 0553 13       		.uleb128 0x13
 15925 0554 02       		.uleb128 0x2
 15926 0555 18       		.uleb128 0x18
 15927 0556 00       		.byte	0
 15928 0557 00       		.byte	0
 15929 0558 5D       		.uleb128 0x5d
 15930 0559 0A       		.uleb128 0xa
 15931 055a 00       		.byte	0
 15932 055b 31       		.uleb128 0x31
 15933 055c 13       		.uleb128 0x13
 15934 055d 11       		.uleb128 0x11
 15935 055e 01       		.uleb128 0x1
ARM GAS  /tmp/ccDzFi87.s 			page 281


 15936 055f 00       		.byte	0
 15937 0560 00       		.byte	0
 15938 0561 5E       		.uleb128 0x5e
 15939 0562 2E       		.uleb128 0x2e
 15940 0563 00       		.byte	0
 15941 0564 3F       		.uleb128 0x3f
 15942 0565 19       		.uleb128 0x19
 15943 0566 3C       		.uleb128 0x3c
 15944 0567 19       		.uleb128 0x19
 15945 0568 6E       		.uleb128 0x6e
 15946 0569 0E       		.uleb128 0xe
 15947 056a 03       		.uleb128 0x3
 15948 056b 0E       		.uleb128 0xe
 15949 056c 00       		.byte	0
 15950 056d 00       		.byte	0
 15951 056e 5F       		.uleb128 0x5f
 15952 056f 2E       		.uleb128 0x2e
 15953 0570 00       		.byte	0
 15954 0571 3F       		.uleb128 0x3f
 15955 0572 19       		.uleb128 0x19
 15956 0573 3C       		.uleb128 0x3c
 15957 0574 19       		.uleb128 0x19
 15958 0575 6E       		.uleb128 0x6e
 15959 0576 0E       		.uleb128 0xe
 15960 0577 03       		.uleb128 0x3
 15961 0578 0E       		.uleb128 0xe
 15962 0579 3A       		.uleb128 0x3a
 15963 057a 0B       		.uleb128 0xb
 15964 057b 3B       		.uleb128 0x3b
 15965 057c 0B       		.uleb128 0xb
 15966 057d 00       		.byte	0
 15967 057e 00       		.byte	0
 15968 057f 60       		.uleb128 0x60
 15969 0580 2E       		.uleb128 0x2e
 15970 0581 00       		.byte	0
 15971 0582 3F       		.uleb128 0x3f
 15972 0583 19       		.uleb128 0x19
 15973 0584 3C       		.uleb128 0x3c
 15974 0585 19       		.uleb128 0x19
 15975 0586 6E       		.uleb128 0x6e
 15976 0587 0E       		.uleb128 0xe
 15977 0588 03       		.uleb128 0x3
 15978 0589 0E       		.uleb128 0xe
 15979 058a 3A       		.uleb128 0x3a
 15980 058b 0B       		.uleb128 0xb
 15981 058c 3B       		.uleb128 0x3b
 15982 058d 0B       		.uleb128 0xb
 15983 058e 39       		.uleb128 0x39
 15984 058f 0B       		.uleb128 0xb
 15985 0590 00       		.byte	0
 15986 0591 00       		.byte	0
 15987 0592 61       		.uleb128 0x61
 15988 0593 2E       		.uleb128 0x2e
 15989 0594 00       		.byte	0
 15990 0595 3F       		.uleb128 0x3f
 15991 0596 19       		.uleb128 0x19
 15992 0597 3C       		.uleb128 0x3c
ARM GAS  /tmp/ccDzFi87.s 			page 282


 15993 0598 19       		.uleb128 0x19
 15994 0599 6E       		.uleb128 0x6e
 15995 059a 0E       		.uleb128 0xe
 15996 059b 03       		.uleb128 0x3
 15997 059c 0E       		.uleb128 0xe
 15998 059d 3A       		.uleb128 0x3a
 15999 059e 0B       		.uleb128 0xb
 16000 059f 3B       		.uleb128 0x3b
 16001 05a0 05       		.uleb128 0x5
 16002 05a1 39       		.uleb128 0x39
 16003 05a2 0B       		.uleb128 0xb
 16004 05a3 00       		.byte	0
 16005 05a4 00       		.byte	0
 16006 05a5 00       		.byte	0
 16007              		.section	.debug_loc,"",%progbits
 16008              	.Ldebug_loc0:
 16009              	.LVUS93:
 16010 0000 00       		.uleb128 0
 16011 0001 00       		.uleb128 .LVU798
 16012 0002 00       		.uleb128 .LVU798
 16013 0003 00       		.uleb128 .LVU799
 16014 0004 00       		.uleb128 .LVU799
 16015 0005 00       		.uleb128 .LVU800
 16016 0006 00       		.uleb128 .LVU800
 16017 0007 00       		.uleb128 0
 16018              	.LLST93:
 16019 0008 00000000 		.4byte	.LVL217
 16020 000c 1A000000 		.4byte	.LVL218
 16021 0010 0100     		.2byte	0x1
 16022 0012 50       		.byte	0x50
 16023 0013 1A000000 		.4byte	.LVL218
 16024 0017 20000000 		.4byte	.LVL219
 16025 001b 0400     		.2byte	0x4
 16026 001d F3       		.byte	0xf3
 16027 001e 01       		.uleb128 0x1
 16028 001f 50       		.byte	0x50
 16029 0020 9F       		.byte	0x9f
 16030 0021 20000000 		.4byte	.LVL219
 16031 0025 23000000 		.4byte	.LVL220-1
 16032 0029 0100     		.2byte	0x1
 16033 002b 50       		.byte	0x50
 16034 002c 23000000 		.4byte	.LVL220-1
 16035 0030 28000000 		.4byte	.LFE279
 16036 0034 0400     		.2byte	0x4
 16037 0036 F3       		.byte	0xf3
 16038 0037 01       		.uleb128 0x1
 16039 0038 50       		.byte	0x50
 16040 0039 9F       		.byte	0x9f
 16041 003a 00000000 		.4byte	0
 16042 003e 00000000 		.4byte	0
 16043              	.LVUS88:
 16044 0042 00       		.uleb128 0
 16045 0043 00       		.uleb128 .LVU773
 16046 0044 00       		.uleb128 .LVU773
 16047 0045 00       		.uleb128 .LVU783
 16048 0046 00       		.uleb128 .LVU783
 16049 0047 00       		.uleb128 .LVU786
ARM GAS  /tmp/ccDzFi87.s 			page 283


 16050 0048 00       		.uleb128 .LVU786
 16051 0049 00       		.uleb128 .LVU791
 16052 004a 00       		.uleb128 .LVU791
 16053 004b 00       		.uleb128 0
 16054              	.LLST88:
 16055 004c 00000000 		.4byte	.LVL204
 16056 0050 2C000000 		.4byte	.LVL208
 16057 0054 0100     		.2byte	0x1
 16058 0056 50       		.byte	0x50
 16059 0057 2C000000 		.4byte	.LVL208
 16060 005b 50000000 		.4byte	.LVL213
 16061 005f 0100     		.2byte	0x1
 16062 0061 58       		.byte	0x58
 16063 0062 50000000 		.4byte	.LVL213
 16064 0066 64000000 		.4byte	.LVL214
 16065 006a 0400     		.2byte	0x4
 16066 006c F3       		.byte	0xf3
 16067 006d 01       		.uleb128 0x1
 16068 006e 50       		.byte	0x50
 16069 006f 9F       		.byte	0x9f
 16070 0070 64000000 		.4byte	.LVL214
 16071 0074 77000000 		.4byte	.LVL215-1
 16072 0078 0100     		.2byte	0x1
 16073 007a 50       		.byte	0x50
 16074 007b 77000000 		.4byte	.LVL215-1
 16075 007f 84000000 		.4byte	.LFE278
 16076 0083 0400     		.2byte	0x4
 16077 0085 F3       		.byte	0xf3
 16078 0086 01       		.uleb128 0x1
 16079 0087 50       		.byte	0x50
 16080 0088 9F       		.byte	0x9f
 16081 0089 00000000 		.4byte	0
 16082 008d 00000000 		.4byte	0
 16083              	.LVUS89:
 16084 0091 00       		.uleb128 0
 16085 0092 00       		.uleb128 .LVU773
 16086 0093 00       		.uleb128 .LVU773
 16087 0094 00       		.uleb128 .LVU783
 16088 0095 00       		.uleb128 .LVU786
 16089 0096 00       		.uleb128 .LVU791
 16090 0097 00       		.uleb128 .LVU791
 16091 0098 00       		.uleb128 .LVU791
 16092              	.LLST89:
 16093 0099 00000000 		.4byte	.LVL204
 16094 009d 2C000000 		.4byte	.LVL208
 16095 00a1 0100     		.2byte	0x1
 16096 00a3 51       		.byte	0x51
 16097 00a4 2C000000 		.4byte	.LVL208
 16098 00a8 50000000 		.4byte	.LVL213
 16099 00ac 0100     		.2byte	0x1
 16100 00ae 54       		.byte	0x54
 16101 00af 64000000 		.4byte	.LVL214
 16102 00b3 77000000 		.4byte	.LVL215-1
 16103 00b7 0100     		.2byte	0x1
 16104 00b9 51       		.byte	0x51
 16105 00ba 77000000 		.4byte	.LVL215-1
 16106 00be 78000000 		.4byte	.LVL215
ARM GAS  /tmp/ccDzFi87.s 			page 284


 16107 00c2 0400     		.2byte	0x4
 16108 00c4 F3       		.byte	0xf3
 16109 00c5 01       		.uleb128 0x1
 16110 00c6 51       		.byte	0x51
 16111 00c7 9F       		.byte	0x9f
 16112 00c8 00000000 		.4byte	0
 16113 00cc 00000000 		.4byte	0
 16114              	.LVUS90:
 16115 00d0 00       		.uleb128 0
 16116 00d1 00       		.uleb128 .LVU771
 16117 00d2 00       		.uleb128 .LVU771
 16118 00d3 00       		.uleb128 .LVU772
 16119 00d4 00       		.uleb128 .LVU772
 16120 00d5 00       		.uleb128 .LVU773
 16121 00d6 00       		.uleb128 .LVU773
 16122 00d7 00       		.uleb128 .LVU778
 16123 00d8 00       		.uleb128 .LVU778
 16124 00d9 01       		.uleb128 .LVU780
 16125 00da 01       		.uleb128 .LVU780
 16126 00db 00       		.uleb128 .LVU783
 16127 00dc 00       		.uleb128 .LVU786
 16128 00dd 00       		.uleb128 .LVU791
 16129 00de 00       		.uleb128 .LVU791
 16130 00df 00       		.uleb128 .LVU791
 16131              	.LLST90:
 16132 00e0 00000000 		.4byte	.LVL204
 16133 00e4 1E000000 		.4byte	.LVL206
 16134 00e8 0100     		.2byte	0x1
 16135 00ea 52       		.byte	0x52
 16136 00eb 1E000000 		.4byte	.LVL206
 16137 00ef 2A000000 		.4byte	.LVL207
 16138 00f3 0100     		.2byte	0x1
 16139 00f5 56       		.byte	0x56
 16140 00f6 2A000000 		.4byte	.LVL207
 16141 00fa 2C000000 		.4byte	.LVL208
 16142 00fe 0400     		.2byte	0x4
 16143 0100 F3       		.byte	0xf3
 16144 0101 01       		.uleb128 0x1
 16145 0102 52       		.byte	0x52
 16146 0103 9F       		.byte	0x9f
 16147 0104 2C000000 		.4byte	.LVL208
 16148 0108 32000000 		.4byte	.LVL210
 16149 010c 0700     		.2byte	0x7
 16150 010e F3       		.byte	0xf3
 16151 010f 01       		.uleb128 0x1
 16152 0110 52       		.byte	0x52
 16153 0111 23       		.byte	0x23
 16154 0112 8004     		.uleb128 0x200
 16155 0114 9F       		.byte	0x9f
 16156 0115 32000000 		.4byte	.LVL210
 16157 0119 40000000 		.4byte	.LVL211
 16158 011d 0400     		.2byte	0x4
 16159 011f F3       		.byte	0xf3
 16160 0120 01       		.uleb128 0x1
 16161 0121 52       		.byte	0x52
 16162 0122 9F       		.byte	0x9f
 16163 0123 40000000 		.4byte	.LVL211
ARM GAS  /tmp/ccDzFi87.s 			page 285


 16164 0127 50000000 		.4byte	.LVL213
 16165 012b 0700     		.2byte	0x7
 16166 012d F3       		.byte	0xf3
 16167 012e 01       		.uleb128 0x1
 16168 012f 52       		.byte	0x52
 16169 0130 23       		.byte	0x23
 16170 0131 8004     		.uleb128 0x200
 16171 0133 9F       		.byte	0x9f
 16172 0134 64000000 		.4byte	.LVL214
 16173 0138 77000000 		.4byte	.LVL215-1
 16174 013c 0100     		.2byte	0x1
 16175 013e 52       		.byte	0x52
 16176 013f 77000000 		.4byte	.LVL215-1
 16177 0143 78000000 		.4byte	.LVL215
 16178 0147 0400     		.2byte	0x4
 16179 0149 F3       		.byte	0xf3
 16180 014a 01       		.uleb128 0x1
 16181 014b 52       		.byte	0x52
 16182 014c 9F       		.byte	0x9f
 16183 014d 00000000 		.4byte	0
 16184 0151 00000000 		.4byte	0
 16185              	.LVUS91:
 16186 0155 00       		.uleb128 0
 16187 0156 00       		.uleb128 .LVU773
 16188 0157 00       		.uleb128 .LVU773
 16189 0158 00       		.uleb128 .LVU786
 16190 0159 00       		.uleb128 .LVU786
 16191 015a 00       		.uleb128 .LVU791
 16192 015b 00       		.uleb128 .LVU791
 16193 015c 00       		.uleb128 0
 16194              	.LLST91:
 16195 015d 00000000 		.4byte	.LVL204
 16196 0161 2C000000 		.4byte	.LVL208
 16197 0165 0100     		.2byte	0x1
 16198 0167 53       		.byte	0x53
 16199 0168 2C000000 		.4byte	.LVL208
 16200 016c 64000000 		.4byte	.LVL214
 16201 0170 0400     		.2byte	0x4
 16202 0172 F3       		.byte	0xf3
 16203 0173 01       		.uleb128 0x1
 16204 0174 53       		.byte	0x53
 16205 0175 9F       		.byte	0x9f
 16206 0176 64000000 		.4byte	.LVL214
 16207 017a 77000000 		.4byte	.LVL215-1
 16208 017e 0100     		.2byte	0x1
 16209 0180 53       		.byte	0x53
 16210 0181 77000000 		.4byte	.LVL215-1
 16211 0185 84000000 		.4byte	.LFE278
 16212 0189 0400     		.2byte	0x4
 16213 018b F3       		.byte	0xf3
 16214 018c 01       		.uleb128 0x1
 16215 018d 53       		.byte	0x53
 16216 018e 9F       		.byte	0x9f
 16217 018f 00000000 		.4byte	0
 16218 0193 00000000 		.4byte	0
 16219              	.LVUS92:
 16220 0197 00       		.uleb128 .LVU769
ARM GAS  /tmp/ccDzFi87.s 			page 286


 16221 0198 00       		.uleb128 .LVU786
 16222              	.LLST92:
 16223 0199 14000000 		.4byte	.LVL205
 16224 019d 64000000 		.4byte	.LVL214
 16225 01a1 0200     		.2byte	0x2
 16226 01a3 30       		.byte	0x30
 16227 01a4 9F       		.byte	0x9f
 16228 01a5 00000000 		.4byte	0
 16229 01a9 00000000 		.4byte	0
 16230              	.LVUS83:
 16231 01ad 00       		.uleb128 0
 16232 01ae 00       		.uleb128 .LVU744
 16233 01af 00       		.uleb128 .LVU744
 16234 01b0 00       		.uleb128 .LVU755
 16235 01b1 00       		.uleb128 .LVU755
 16236 01b2 00       		.uleb128 .LVU758
 16237 01b3 00       		.uleb128 .LVU758
 16238 01b4 00       		.uleb128 .LVU763
 16239 01b5 00       		.uleb128 .LVU763
 16240 01b6 00       		.uleb128 0
 16241              	.LLST83:
 16242 01b7 00000000 		.4byte	.LVL191
 16243 01bb 2C000000 		.4byte	.LVL195
 16244 01bf 0100     		.2byte	0x1
 16245 01c1 50       		.byte	0x50
 16246 01c2 2C000000 		.4byte	.LVL195
 16247 01c6 50000000 		.4byte	.LVL200
 16248 01ca 0100     		.2byte	0x1
 16249 01cc 58       		.byte	0x58
 16250 01cd 50000000 		.4byte	.LVL200
 16251 01d1 64000000 		.4byte	.LVL201
 16252 01d5 0400     		.2byte	0x4
 16253 01d7 F3       		.byte	0xf3
 16254 01d8 01       		.uleb128 0x1
 16255 01d9 50       		.byte	0x50
 16256 01da 9F       		.byte	0x9f
 16257 01db 64000000 		.4byte	.LVL201
 16258 01df 77000000 		.4byte	.LVL202-1
 16259 01e3 0100     		.2byte	0x1
 16260 01e5 50       		.byte	0x50
 16261 01e6 77000000 		.4byte	.LVL202-1
 16262 01ea 84000000 		.4byte	.LFE277
 16263 01ee 0400     		.2byte	0x4
 16264 01f0 F3       		.byte	0xf3
 16265 01f1 01       		.uleb128 0x1
 16266 01f2 50       		.byte	0x50
 16267 01f3 9F       		.byte	0x9f
 16268 01f4 00000000 		.4byte	0
 16269 01f8 00000000 		.4byte	0
 16270              	.LVUS84:
 16271 01fc 00       		.uleb128 0
 16272 01fd 00       		.uleb128 .LVU744
 16273 01fe 00       		.uleb128 .LVU744
 16274 01ff 00       		.uleb128 .LVU746
 16275 0200 00       		.uleb128 .LVU746
 16276 0201 02       		.uleb128 .LVU749
 16277 0202 02       		.uleb128 .LVU749
ARM GAS  /tmp/ccDzFi87.s 			page 287


 16278 0203 00       		.uleb128 .LVU755
 16279 0204 00       		.uleb128 .LVU758
 16280 0205 00       		.uleb128 .LVU763
 16281 0206 00       		.uleb128 .LVU763
 16282 0207 00       		.uleb128 .LVU763
 16283              	.LLST84:
 16284 0208 00000000 		.4byte	.LVL191
 16285 020c 2C000000 		.4byte	.LVL195
 16286 0210 0100     		.2byte	0x1
 16287 0212 51       		.byte	0x51
 16288 0213 2C000000 		.4byte	.LVL195
 16289 0217 38000000 		.4byte	.LVL196
 16290 021b 0100     		.2byte	0x1
 16291 021d 54       		.byte	0x54
 16292 021e 38000000 		.4byte	.LVL196
 16293 0222 3C000000 		.4byte	.LVL197
 16294 0226 0300     		.2byte	0x3
 16295 0228 74       		.byte	0x74
 16296 0229 7F       		.sleb128 -1
 16297 022a 9F       		.byte	0x9f
 16298 022b 3C000000 		.4byte	.LVL197
 16299 022f 50000000 		.4byte	.LVL200
 16300 0233 0100     		.2byte	0x1
 16301 0235 54       		.byte	0x54
 16302 0236 64000000 		.4byte	.LVL201
 16303 023a 77000000 		.4byte	.LVL202-1
 16304 023e 0100     		.2byte	0x1
 16305 0240 51       		.byte	0x51
 16306 0241 77000000 		.4byte	.LVL202-1
 16307 0245 78000000 		.4byte	.LVL202
 16308 0249 0400     		.2byte	0x4
 16309 024b F3       		.byte	0xf3
 16310 024c 01       		.uleb128 0x1
 16311 024d 51       		.byte	0x51
 16312 024e 9F       		.byte	0x9f
 16313 024f 00000000 		.4byte	0
 16314 0253 00000000 		.4byte	0
 16315              	.LVUS85:
 16316 0257 00       		.uleb128 0
 16317 0258 00       		.uleb128 .LVU742
 16318 0259 00       		.uleb128 .LVU742
 16319 025a 00       		.uleb128 .LVU743
 16320 025b 00       		.uleb128 .LVU743
 16321 025c 01       		.uleb128 .LVU748
 16322 025d 01       		.uleb128 .LVU748
 16323 025e 00       		.uleb128 .LVU752
 16324 025f 00       		.uleb128 .LVU752
 16325 0260 00       		.uleb128 .LVU755
 16326 0261 00       		.uleb128 .LVU758
 16327 0262 00       		.uleb128 .LVU763
 16328 0263 00       		.uleb128 .LVU763
 16329 0264 00       		.uleb128 .LVU763
 16330              	.LLST85:
 16331 0265 00000000 		.4byte	.LVL191
 16332 0269 1E000000 		.4byte	.LVL193
 16333 026d 0100     		.2byte	0x1
 16334 026f 52       		.byte	0x52
ARM GAS  /tmp/ccDzFi87.s 			page 288


 16335 0270 1E000000 		.4byte	.LVL193
 16336 0274 2A000000 		.4byte	.LVL194
 16337 0278 0100     		.2byte	0x1
 16338 027a 56       		.byte	0x56
 16339 027b 2A000000 		.4byte	.LVL194
 16340 027f 3C000000 		.4byte	.LVL197
 16341 0283 0400     		.2byte	0x4
 16342 0285 F3       		.byte	0xf3
 16343 0286 01       		.uleb128 0x1
 16344 0287 52       		.byte	0x52
 16345 0288 9F       		.byte	0x9f
 16346 0289 3C000000 		.4byte	.LVL197
 16347 028d 40000000 		.4byte	.LVL198
 16348 0291 0700     		.2byte	0x7
 16349 0293 F3       		.byte	0xf3
 16350 0294 01       		.uleb128 0x1
 16351 0295 52       		.byte	0x52
 16352 0296 23       		.byte	0x23
 16353 0297 8004     		.uleb128 0x200
 16354 0299 9F       		.byte	0x9f
 16355 029a 40000000 		.4byte	.LVL198
 16356 029e 50000000 		.4byte	.LVL200
 16357 02a2 0400     		.2byte	0x4
 16358 02a4 F3       		.byte	0xf3
 16359 02a5 01       		.uleb128 0x1
 16360 02a6 52       		.byte	0x52
 16361 02a7 9F       		.byte	0x9f
 16362 02a8 64000000 		.4byte	.LVL201
 16363 02ac 77000000 		.4byte	.LVL202-1
 16364 02b0 0100     		.2byte	0x1
 16365 02b2 52       		.byte	0x52
 16366 02b3 77000000 		.4byte	.LVL202-1
 16367 02b7 78000000 		.4byte	.LVL202
 16368 02bb 0400     		.2byte	0x4
 16369 02bd F3       		.byte	0xf3
 16370 02be 01       		.uleb128 0x1
 16371 02bf 52       		.byte	0x52
 16372 02c0 9F       		.byte	0x9f
 16373 02c1 00000000 		.4byte	0
 16374 02c5 00000000 		.4byte	0
 16375              	.LVUS86:
 16376 02c9 00       		.uleb128 0
 16377 02ca 00       		.uleb128 .LVU744
 16378 02cb 00       		.uleb128 .LVU744
 16379 02cc 00       		.uleb128 .LVU758
 16380 02cd 00       		.uleb128 .LVU758
 16381 02ce 00       		.uleb128 .LVU763
 16382 02cf 00       		.uleb128 .LVU763
 16383 02d0 00       		.uleb128 0
 16384              	.LLST86:
 16385 02d1 00000000 		.4byte	.LVL191
 16386 02d5 2C000000 		.4byte	.LVL195
 16387 02d9 0100     		.2byte	0x1
 16388 02db 53       		.byte	0x53
 16389 02dc 2C000000 		.4byte	.LVL195
 16390 02e0 64000000 		.4byte	.LVL201
 16391 02e4 0400     		.2byte	0x4
ARM GAS  /tmp/ccDzFi87.s 			page 289


 16392 02e6 F3       		.byte	0xf3
 16393 02e7 01       		.uleb128 0x1
 16394 02e8 53       		.byte	0x53
 16395 02e9 9F       		.byte	0x9f
 16396 02ea 64000000 		.4byte	.LVL201
 16397 02ee 77000000 		.4byte	.LVL202-1
 16398 02f2 0100     		.2byte	0x1
 16399 02f4 53       		.byte	0x53
 16400 02f5 77000000 		.4byte	.LVL202-1
 16401 02f9 84000000 		.4byte	.LFE277
 16402 02fd 0400     		.2byte	0x4
 16403 02ff F3       		.byte	0xf3
 16404 0300 01       		.uleb128 0x1
 16405 0301 53       		.byte	0x53
 16406 0302 9F       		.byte	0x9f
 16407 0303 00000000 		.4byte	0
 16408 0307 00000000 		.4byte	0
 16409              	.LVUS87:
 16410 030b 00       		.uleb128 .LVU740
 16411 030c 00       		.uleb128 .LVU758
 16412              	.LLST87:
 16413 030d 14000000 		.4byte	.LVL192
 16414 0311 64000000 		.4byte	.LVL201
 16415 0315 0200     		.2byte	0x2
 16416 0317 30       		.byte	0x30
 16417 0318 9F       		.byte	0x9f
 16418 0319 00000000 		.4byte	0
 16419 031d 00000000 		.4byte	0
 16420              	.LVUS51:
 16421 0321 00       		.uleb128 0
 16422 0322 00       		.uleb128 .LVU537
 16423 0323 00       		.uleb128 .LVU537
 16424 0324 00       		.uleb128 .LVU581
 16425 0325 00       		.uleb128 .LVU581
 16426 0326 00       		.uleb128 .LVU582
 16427 0327 00       		.uleb128 .LVU582
 16428 0328 00       		.uleb128 0
 16429              	.LLST51:
 16430 0329 00000000 		.4byte	.LVL134
 16431 032d 22000000 		.4byte	.LVL137
 16432 0331 0100     		.2byte	0x1
 16433 0333 50       		.byte	0x50
 16434 0334 22000000 		.4byte	.LVL137
 16435 0338 A4000000 		.4byte	.LVL145
 16436 033c 0100     		.2byte	0x1
 16437 033e 54       		.byte	0x54
 16438 033f A4000000 		.4byte	.LVL145
 16439 0343 A6000000 		.4byte	.LVL146
 16440 0347 0100     		.2byte	0x1
 16441 0349 50       		.byte	0x50
 16442 034a A6000000 		.4byte	.LVL146
 16443 034e D4000000 		.4byte	.LFE274
 16444 0352 0100     		.2byte	0x1
 16445 0354 54       		.byte	0x54
 16446 0355 00000000 		.4byte	0
 16447 0359 00000000 		.4byte	0
 16448              	.LVUS52:
ARM GAS  /tmp/ccDzFi87.s 			page 290


 16449 035d 00       		.uleb128 0
 16450 035e 00       		.uleb128 .LVU537
 16451 035f 00       		.uleb128 .LVU537
 16452 0360 00       		.uleb128 .LVU581
 16453 0361 00       		.uleb128 .LVU581
 16454 0362 00       		.uleb128 .LVU583
 16455 0363 00       		.uleb128 .LVU583
 16456 0364 00       		.uleb128 0
 16457              	.LLST52:
 16458 0365 00000000 		.4byte	.LVL134
 16459 0369 22000000 		.4byte	.LVL137
 16460 036d 0100     		.2byte	0x1
 16461 036f 51       		.byte	0x51
 16462 0370 22000000 		.4byte	.LVL137
 16463 0374 A4000000 		.4byte	.LVL145
 16464 0378 0100     		.2byte	0x1
 16465 037a 57       		.byte	0x57
 16466 037b A4000000 		.4byte	.LVL145
 16467 037f A9000000 		.4byte	.LVL147-1
 16468 0383 0100     		.2byte	0x1
 16469 0385 51       		.byte	0x51
 16470 0386 A9000000 		.4byte	.LVL147-1
 16471 038a D4000000 		.4byte	.LFE274
 16472 038e 0100     		.2byte	0x1
 16473 0390 57       		.byte	0x57
 16474 0391 00000000 		.4byte	0
 16475 0395 00000000 		.4byte	0
 16476              	.LVUS53:
 16477 0399 00       		.uleb128 0
 16478 039a 00       		.uleb128 .LVU537
 16479 039b 00       		.uleb128 .LVU537
 16480 039c 00       		.uleb128 .LVU567
 16481 039d 00       		.uleb128 .LVU567
 16482 039e 00       		.uleb128 .LVU579
 16483 039f 00       		.uleb128 .LVU579
 16484 03a0 00       		.uleb128 .LVU580
 16485 03a1 00       		.uleb128 .LVU580
 16486 03a2 00       		.uleb128 .LVU581
 16487 03a3 00       		.uleb128 .LVU581
 16488 03a4 00       		.uleb128 .LVU583
 16489 03a5 00       		.uleb128 .LVU583
 16490 03a6 00       		.uleb128 .LVU584
 16491 03a7 00       		.uleb128 .LVU584
 16492 03a8 00       		.uleb128 0
 16493              	.LLST53:
 16494 03a9 00000000 		.4byte	.LVL134
 16495 03ad 22000000 		.4byte	.LVL137
 16496 03b1 0100     		.2byte	0x1
 16497 03b3 52       		.byte	0x52
 16498 03b4 22000000 		.4byte	.LVL137
 16499 03b8 6C000000 		.4byte	.LVL139
 16500 03bc 0100     		.2byte	0x1
 16501 03be 55       		.byte	0x55
 16502 03bf 6C000000 		.4byte	.LVL139
 16503 03c3 A0000000 		.4byte	.LVL143
 16504 03c7 0400     		.2byte	0x4
 16505 03c9 F3       		.byte	0xf3
ARM GAS  /tmp/ccDzFi87.s 			page 291


 16506 03ca 01       		.uleb128 0x1
 16507 03cb 52       		.byte	0x52
 16508 03cc 9F       		.byte	0x9f
 16509 03cd A0000000 		.4byte	.LVL143
 16510 03d1 A2000000 		.4byte	.LVL144
 16511 03d5 0100     		.2byte	0x1
 16512 03d7 55       		.byte	0x55
 16513 03d8 A2000000 		.4byte	.LVL144
 16514 03dc A4000000 		.4byte	.LVL145
 16515 03e0 0400     		.2byte	0x4
 16516 03e2 F3       		.byte	0xf3
 16517 03e3 01       		.uleb128 0x1
 16518 03e4 52       		.byte	0x52
 16519 03e5 9F       		.byte	0x9f
 16520 03e6 A4000000 		.4byte	.LVL145
 16521 03ea A9000000 		.4byte	.LVL147-1
 16522 03ee 0100     		.2byte	0x1
 16523 03f0 52       		.byte	0x52
 16524 03f1 A9000000 		.4byte	.LVL147-1
 16525 03f5 AC000000 		.4byte	.LVL148
 16526 03f9 0100     		.2byte	0x1
 16527 03fb 55       		.byte	0x55
 16528 03fc AC000000 		.4byte	.LVL148
 16529 0400 D4000000 		.4byte	.LFE274
 16530 0404 0400     		.2byte	0x4
 16531 0406 F3       		.byte	0xf3
 16532 0407 01       		.uleb128 0x1
 16533 0408 52       		.byte	0x52
 16534 0409 9F       		.byte	0x9f
 16535 040a 00000000 		.4byte	0
 16536 040e 00000000 		.4byte	0
 16537              	.LVUS54:
 16538 0412 00       		.uleb128 0
 16539 0413 00       		.uleb128 .LVU528
 16540 0414 00       		.uleb128 .LVU528
 16541 0415 00       		.uleb128 0
 16542              	.LLST54:
 16543 0416 00000000 		.4byte	.LVL134
 16544 041a 0A000000 		.4byte	.LVL135
 16545 041e 0100     		.2byte	0x1
 16546 0420 53       		.byte	0x53
 16547 0421 0A000000 		.4byte	.LVL135
 16548 0425 D4000000 		.4byte	.LFE274
 16549 0429 0400     		.2byte	0x4
 16550 042b F3       		.byte	0xf3
 16551 042c 01       		.uleb128 0x1
 16552 042d 53       		.byte	0x53
 16553 042e 9F       		.byte	0x9f
 16554 042f 00000000 		.4byte	0
 16555 0433 00000000 		.4byte	0
 16556              	.LVUS55:
 16557 0437 00       		.uleb128 0
 16558 0438 00       		.uleb128 .LVU579
 16559 0439 00       		.uleb128 .LVU579
 16560 043a 00       		.uleb128 0
 16561              	.LLST55:
 16562 043b 00000000 		.4byte	.LVL134
ARM GAS  /tmp/ccDzFi87.s 			page 292


 16563 043f A0000000 		.4byte	.LVL143
 16564 0443 0200     		.2byte	0x2
 16565 0445 91       		.byte	0x91
 16566 0446 00       		.sleb128 0
 16567 0447 A0000000 		.4byte	.LVL143
 16568 044b D4000000 		.4byte	.LFE274
 16569 044f 0200     		.2byte	0x2
 16570 0451 91       		.byte	0x91
 16571 0452 00       		.sleb128 0
 16572 0453 00000000 		.4byte	0
 16573 0457 00000000 		.4byte	0
 16574              	.LVUS56:
 16575 045b 02       		.uleb128 .LVU533
 16576 045c 00       		.uleb128 .LVU537
 16577 045d 00       		.uleb128 .LVU537
 16578 045e 00       		.uleb128 .LVU567
 16579 045f 00       		.uleb128 .LVU567
 16580 0460 01       		.uleb128 .LVU569
 16581 0461 00       		.uleb128 .LVU579
 16582 0462 00       		.uleb128 .LVU580
 16583 0463 00       		.uleb128 .LVU580
 16584 0464 00       		.uleb128 .LVU581
 16585 0465 00       		.uleb128 .LVU581
 16586 0466 00       		.uleb128 .LVU583
 16587 0467 00       		.uleb128 .LVU583
 16588 0468 00       		.uleb128 .LVU584
 16589              	.LLST56:
 16590 0469 20000000 		.4byte	.LVL136
 16591 046d 22000000 		.4byte	.LVL137
 16592 0471 0100     		.2byte	0x1
 16593 0473 52       		.byte	0x52
 16594 0474 22000000 		.4byte	.LVL137
 16595 0478 6C000000 		.4byte	.LVL139
 16596 047c 0100     		.2byte	0x1
 16597 047e 55       		.byte	0x55
 16598 047f 6C000000 		.4byte	.LVL139
 16599 0483 6E000000 		.4byte	.LVL140
 16600 0487 0400     		.2byte	0x4
 16601 0489 F3       		.byte	0xf3
 16602 048a 01       		.uleb128 0x1
 16603 048b 52       		.byte	0x52
 16604 048c 9F       		.byte	0x9f
 16605 048d A0000000 		.4byte	.LVL143
 16606 0491 A2000000 		.4byte	.LVL144
 16607 0495 0100     		.2byte	0x1
 16608 0497 55       		.byte	0x55
 16609 0498 A2000000 		.4byte	.LVL144
 16610 049c A4000000 		.4byte	.LVL145
 16611 04a0 0400     		.2byte	0x4
 16612 04a2 F3       		.byte	0xf3
 16613 04a3 01       		.uleb128 0x1
 16614 04a4 52       		.byte	0x52
 16615 04a5 9F       		.byte	0x9f
 16616 04a6 A4000000 		.4byte	.LVL145
 16617 04aa A9000000 		.4byte	.LVL147-1
 16618 04ae 0100     		.2byte	0x1
 16619 04b0 52       		.byte	0x52
ARM GAS  /tmp/ccDzFi87.s 			page 293


 16620 04b1 A9000000 		.4byte	.LVL147-1
 16621 04b5 AC000000 		.4byte	.LVL148
 16622 04b9 0100     		.2byte	0x1
 16623 04bb 55       		.byte	0x55
 16624 04bc 00000000 		.4byte	0
 16625 04c0 00000000 		.4byte	0
 16626              	.LVUS57:
 16627 04c4 02       		.uleb128 .LVU533
 16628 04c5 00       		.uleb128 .LVU537
 16629 04c6 00       		.uleb128 .LVU537
 16630 04c7 01       		.uleb128 .LVU569
 16631 04c8 00       		.uleb128 .LVU579
 16632 04c9 00       		.uleb128 .LVU581
 16633 04ca 00       		.uleb128 .LVU581
 16634 04cb 00       		.uleb128 .LVU583
 16635 04cc 00       		.uleb128 .LVU583
 16636 04cd 00       		.uleb128 .LVU584
 16637              	.LLST57:
 16638 04ce 20000000 		.4byte	.LVL136
 16639 04d2 22000000 		.4byte	.LVL137
 16640 04d6 0100     		.2byte	0x1
 16641 04d8 51       		.byte	0x51
 16642 04d9 22000000 		.4byte	.LVL137
 16643 04dd 6E000000 		.4byte	.LVL140
 16644 04e1 0100     		.2byte	0x1
 16645 04e3 57       		.byte	0x57
 16646 04e4 A0000000 		.4byte	.LVL143
 16647 04e8 A4000000 		.4byte	.LVL145
 16648 04ec 0100     		.2byte	0x1
 16649 04ee 57       		.byte	0x57
 16650 04ef A4000000 		.4byte	.LVL145
 16651 04f3 A9000000 		.4byte	.LVL147-1
 16652 04f7 0100     		.2byte	0x1
 16653 04f9 51       		.byte	0x51
 16654 04fa A9000000 		.4byte	.LVL147-1
 16655 04fe AC000000 		.4byte	.LVL148
 16656 0502 0100     		.2byte	0x1
 16657 0504 57       		.byte	0x57
 16658 0505 00000000 		.4byte	0
 16659 0509 00000000 		.4byte	0
 16660              	.LVUS58:
 16661 050d 02       		.uleb128 .LVU533
 16662 050e 00       		.uleb128 .LVU537
 16663 050f 00       		.uleb128 .LVU537
 16664 0510 01       		.uleb128 .LVU569
 16665 0511 00       		.uleb128 .LVU579
 16666 0512 00       		.uleb128 .LVU581
 16667 0513 00       		.uleb128 .LVU581
 16668 0514 00       		.uleb128 .LVU582
 16669 0515 00       		.uleb128 .LVU582
 16670 0516 00       		.uleb128 .LVU584
 16671              	.LLST58:
 16672 0517 20000000 		.4byte	.LVL136
 16673 051b 22000000 		.4byte	.LVL137
 16674 051f 0100     		.2byte	0x1
 16675 0521 50       		.byte	0x50
 16676 0522 22000000 		.4byte	.LVL137
ARM GAS  /tmp/ccDzFi87.s 			page 294


 16677 0526 6E000000 		.4byte	.LVL140
 16678 052a 0100     		.2byte	0x1
 16679 052c 54       		.byte	0x54
 16680 052d A0000000 		.4byte	.LVL143
 16681 0531 A4000000 		.4byte	.LVL145
 16682 0535 0100     		.2byte	0x1
 16683 0537 54       		.byte	0x54
 16684 0538 A4000000 		.4byte	.LVL145
 16685 053c A6000000 		.4byte	.LVL146
 16686 0540 0100     		.2byte	0x1
 16687 0542 50       		.byte	0x50
 16688 0543 A6000000 		.4byte	.LVL146
 16689 0547 AC000000 		.4byte	.LVL148
 16690 054b 0100     		.2byte	0x1
 16691 054d 54       		.byte	0x54
 16692 054e 00000000 		.4byte	0
 16693 0552 00000000 		.4byte	0
 16694              	.LVUS46:
 16695 0556 00       		.uleb128 0
 16696 0557 00       		.uleb128 .LVU519
 16697 0558 00       		.uleb128 .LVU519
 16698 0559 00       		.uleb128 .LVU520
 16699 055a 00       		.uleb128 .LVU520
 16700 055b 00       		.uleb128 .LVU521
 16701 055c 00       		.uleb128 .LVU521
 16702 055d 00       		.uleb128 .LVU522
 16703 055e 00       		.uleb128 .LVU522
 16704 055f 00       		.uleb128 0
 16705              	.LLST46:
 16706 0560 00000000 		.4byte	.LVL120
 16707 0564 4C000000 		.4byte	.LVL128
 16708 0568 0100     		.2byte	0x1
 16709 056a 50       		.byte	0x50
 16710 056b 4C000000 		.4byte	.LVL128
 16711 056f 5A000000 		.4byte	.LVL129
 16712 0573 0400     		.2byte	0x4
 16713 0575 F3       		.byte	0xf3
 16714 0576 01       		.uleb128 0x1
 16715 0577 50       		.byte	0x50
 16716 0578 9F       		.byte	0x9f
 16717 0579 5A000000 		.4byte	.LVL129
 16718 057d 5C000000 		.4byte	.LVL130
 16719 0581 0100     		.2byte	0x1
 16720 0583 50       		.byte	0x50
 16721 0584 5C000000 		.4byte	.LVL130
 16722 0588 5F000000 		.4byte	.LVL131-1
 16723 058c 0300     		.2byte	0x3
 16724 058e 70       		.byte	0x70
 16725 058f 4C       		.sleb128 -52
 16726 0590 9F       		.byte	0x9f
 16727 0591 5F000000 		.4byte	.LVL131-1
 16728 0595 6C000000 		.4byte	.LFE273
 16729 0599 0400     		.2byte	0x4
 16730 059b F3       		.byte	0xf3
 16731 059c 01       		.uleb128 0x1
 16732 059d 50       		.byte	0x50
 16733 059e 9F       		.byte	0x9f
ARM GAS  /tmp/ccDzFi87.s 			page 295


 16734 059f 00000000 		.4byte	0
 16735 05a3 00000000 		.4byte	0
 16736              	.LVUS47:
 16737 05a7 00       		.uleb128 0
 16738 05a8 00       		.uleb128 .LVU490
 16739 05a9 00       		.uleb128 .LVU490
 16740 05aa 00       		.uleb128 0
 16741              	.LLST47:
 16742 05ab 00000000 		.4byte	.LVL120
 16743 05af 1E000000 		.4byte	.LVL122
 16744 05b3 0100     		.2byte	0x1
 16745 05b5 51       		.byte	0x51
 16746 05b6 1E000000 		.4byte	.LVL122
 16747 05ba 6C000000 		.4byte	.LFE273
 16748 05be 0400     		.2byte	0x4
 16749 05c0 F3       		.byte	0xf3
 16750 05c1 01       		.uleb128 0x1
 16751 05c2 51       		.byte	0x51
 16752 05c3 9F       		.byte	0x9f
 16753 05c4 00000000 		.4byte	0
 16754 05c8 00000000 		.4byte	0
 16755              	.LVUS48:
 16756 05cc 00       		.uleb128 0
 16757 05cd 00       		.uleb128 .LVU489
 16758 05ce 00       		.uleb128 .LVU489
 16759 05cf 00       		.uleb128 .LVU491
 16760 05d0 00       		.uleb128 .LVU491
 16761 05d1 00       		.uleb128 0
 16762              	.LLST48:
 16763 05d2 00000000 		.4byte	.LVL120
 16764 05d6 1A000000 		.4byte	.LVL121
 16765 05da 0100     		.2byte	0x1
 16766 05dc 52       		.byte	0x52
 16767 05dd 1A000000 		.4byte	.LVL121
 16768 05e1 20000000 		.4byte	.LVL123
 16769 05e5 0200     		.2byte	0x2
 16770 05e7 74       		.byte	0x74
 16771 05e8 08       		.sleb128 8
 16772 05e9 20000000 		.4byte	.LVL123
 16773 05ed 6C000000 		.4byte	.LFE273
 16774 05f1 0400     		.2byte	0x4
 16775 05f3 F3       		.byte	0xf3
 16776 05f4 01       		.uleb128 0x1
 16777 05f5 52       		.byte	0x52
 16778 05f6 9F       		.byte	0x9f
 16779 05f7 00000000 		.4byte	0
 16780 05fb 00000000 		.4byte	0
 16781              	.LVUS49:
 16782 05ff 00       		.uleb128 0
 16783 0600 00       		.uleb128 .LVU503
 16784 0601 00       		.uleb128 .LVU503
 16785 0602 00       		.uleb128 .LVU507
 16786 0603 00       		.uleb128 .LVU507
 16787 0604 00       		.uleb128 .LVU511
 16788 0605 00       		.uleb128 .LVU511
 16789 0606 00       		.uleb128 .LVU519
 16790 0607 00       		.uleb128 .LVU520
ARM GAS  /tmp/ccDzFi87.s 			page 296


 16791 0608 00       		.uleb128 .LVU522
 16792 0609 00       		.uleb128 .LVU522
 16793 060a 00       		.uleb128 .LVU524
 16794              	.LLST49:
 16795 060b 00000000 		.4byte	.LVL120
 16796 060f 34000000 		.4byte	.LVL125
 16797 0613 0100     		.2byte	0x1
 16798 0615 53       		.byte	0x53
 16799 0616 34000000 		.4byte	.LVL125
 16800 061a 3A000000 		.4byte	.LVL126
 16801 061e 0300     		.2byte	0x3
 16802 0620 73       		.byte	0x73
 16803 0621 04       		.sleb128 4
 16804 0622 9F       		.byte	0x9f
 16805 0623 3A000000 		.4byte	.LVL126
 16806 0627 40000000 		.4byte	.LVL127
 16807 062b 0300     		.2byte	0x3
 16808 062d 73       		.byte	0x73
 16809 062e 08       		.sleb128 8
 16810 062f 9F       		.byte	0x9f
 16811 0630 40000000 		.4byte	.LVL127
 16812 0634 4C000000 		.4byte	.LVL128
 16813 0638 0300     		.2byte	0x3
 16814 063a 73       		.byte	0x73
 16815 063b 0C       		.sleb128 12
 16816 063c 9F       		.byte	0x9f
 16817 063d 5A000000 		.4byte	.LVL129
 16818 0641 5F000000 		.4byte	.LVL131-1
 16819 0645 0100     		.2byte	0x1
 16820 0647 53       		.byte	0x53
 16821 0648 5F000000 		.4byte	.LVL131-1
 16822 064c 64000000 		.4byte	.LVL132
 16823 0650 0400     		.2byte	0x4
 16824 0652 F3       		.byte	0xf3
 16825 0653 01       		.uleb128 0x1
 16826 0654 53       		.byte	0x53
 16827 0655 9F       		.byte	0x9f
 16828 0656 00000000 		.4byte	0
 16829 065a 00000000 		.4byte	0
 16830              	.LVUS50:
 16831 065e 00       		.uleb128 .LVU496
 16832 065f 00       		.uleb128 .LVU503
 16833 0660 00       		.uleb128 .LVU520
 16834 0661 00       		.uleb128 .LVU522
 16835              	.LLST50:
 16836 0662 24000000 		.4byte	.LVL124
 16837 0666 34000000 		.4byte	.LVL125
 16838 066a 0100     		.2byte	0x1
 16839 066c 51       		.byte	0x51
 16840 066d 5A000000 		.4byte	.LVL129
 16841 0671 5F000000 		.4byte	.LVL131-1
 16842 0675 0100     		.2byte	0x1
 16843 0677 51       		.byte	0x51
 16844 0678 00000000 		.4byte	0
 16845 067c 00000000 		.4byte	0
 16846              	.LVUS24:
 16847 0680 00       		.uleb128 0
ARM GAS  /tmp/ccDzFi87.s 			page 297


 16848 0681 00       		.uleb128 .LVU328
 16849 0682 00       		.uleb128 .LVU328
 16850 0683 00       		.uleb128 .LVU329
 16851 0684 00       		.uleb128 .LVU329
 16852 0685 00       		.uleb128 .LVU330
 16853 0686 00       		.uleb128 .LVU330
 16854 0687 00       		.uleb128 .LVU331
 16855 0688 00       		.uleb128 .LVU331
 16856 0689 00       		.uleb128 0
 16857              	.LLST24:
 16858 068a 00000000 		.4byte	.LVL76
 16859 068e 3A000000 		.4byte	.LVL82
 16860 0692 0100     		.2byte	0x1
 16861 0694 50       		.byte	0x50
 16862 0695 3A000000 		.4byte	.LVL82
 16863 0699 48000000 		.4byte	.LVL83
 16864 069d 0400     		.2byte	0x4
 16865 069f F3       		.byte	0xf3
 16866 06a0 01       		.uleb128 0x1
 16867 06a1 50       		.byte	0x50
 16868 06a2 9F       		.byte	0x9f
 16869 06a3 48000000 		.4byte	.LVL83
 16870 06a7 4A000000 		.4byte	.LVL84
 16871 06ab 0100     		.2byte	0x1
 16872 06ad 50       		.byte	0x50
 16873 06ae 4A000000 		.4byte	.LVL84
 16874 06b2 4D000000 		.4byte	.LVL85-1
 16875 06b6 0300     		.2byte	0x3
 16876 06b8 70       		.byte	0x70
 16877 06b9 4C       		.sleb128 -52
 16878 06ba 9F       		.byte	0x9f
 16879 06bb 4D000000 		.4byte	.LVL85-1
 16880 06bf 5C000000 		.4byte	.LFE272
 16881 06c3 0400     		.2byte	0x4
 16882 06c5 F3       		.byte	0xf3
 16883 06c6 01       		.uleb128 0x1
 16884 06c7 50       		.byte	0x50
 16885 06c8 9F       		.byte	0x9f
 16886 06c9 00000000 		.4byte	0
 16887 06cd 00000000 		.4byte	0
 16888              	.LVUS25:
 16889 06d1 00       		.uleb128 0
 16890 06d2 00       		.uleb128 .LVU311
 16891 06d3 00       		.uleb128 .LVU311
 16892 06d4 00       		.uleb128 0
 16893              	.LLST25:
 16894 06d5 00000000 		.4byte	.LVL76
 16895 06d9 1E000000 		.4byte	.LVL78
 16896 06dd 0100     		.2byte	0x1
 16897 06df 51       		.byte	0x51
 16898 06e0 1E000000 		.4byte	.LVL78
 16899 06e4 5C000000 		.4byte	.LFE272
 16900 06e8 0400     		.2byte	0x4
 16901 06ea F3       		.byte	0xf3
 16902 06eb 01       		.uleb128 0x1
 16903 06ec 51       		.byte	0x51
 16904 06ed 9F       		.byte	0x9f
ARM GAS  /tmp/ccDzFi87.s 			page 298


 16905 06ee 00000000 		.4byte	0
 16906 06f2 00000000 		.4byte	0
 16907              	.LVUS26:
 16908 06f6 00       		.uleb128 0
 16909 06f7 00       		.uleb128 .LVU310
 16910 06f8 00       		.uleb128 .LVU310
 16911 06f9 00       		.uleb128 .LVU312
 16912 06fa 00       		.uleb128 .LVU312
 16913 06fb 00       		.uleb128 0
 16914              	.LLST26:
 16915 06fc 00000000 		.4byte	.LVL76
 16916 0700 1A000000 		.4byte	.LVL77
 16917 0704 0100     		.2byte	0x1
 16918 0706 52       		.byte	0x52
 16919 0707 1A000000 		.4byte	.LVL77
 16920 070b 20000000 		.4byte	.LVL79
 16921 070f 0200     		.2byte	0x2
 16922 0711 74       		.byte	0x74
 16923 0712 08       		.sleb128 8
 16924 0713 20000000 		.4byte	.LVL79
 16925 0717 5C000000 		.4byte	.LFE272
 16926 071b 0400     		.2byte	0x4
 16927 071d F3       		.byte	0xf3
 16928 071e 01       		.uleb128 0x1
 16929 071f 52       		.byte	0x52
 16930 0720 9F       		.byte	0x9f
 16931 0721 00000000 		.4byte	0
 16932 0725 00000000 		.4byte	0
 16933              	.LVUS27:
 16934 0729 00       		.uleb128 0
 16935 072a 00       		.uleb128 .LVU328
 16936 072b 00       		.uleb128 .LVU328
 16937 072c 00       		.uleb128 .LVU329
 16938 072d 00       		.uleb128 .LVU329
 16939 072e 00       		.uleb128 .LVU331
 16940 072f 00       		.uleb128 .LVU331
 16941 0730 00       		.uleb128 0
 16942              	.LLST27:
 16943 0731 00000000 		.4byte	.LVL76
 16944 0735 3A000000 		.4byte	.LVL82
 16945 0739 0100     		.2byte	0x1
 16946 073b 53       		.byte	0x53
 16947 073c 3A000000 		.4byte	.LVL82
 16948 0740 48000000 		.4byte	.LVL83
 16949 0744 0400     		.2byte	0x4
 16950 0746 F3       		.byte	0xf3
 16951 0747 01       		.uleb128 0x1
 16952 0748 53       		.byte	0x53
 16953 0749 9F       		.byte	0x9f
 16954 074a 48000000 		.4byte	.LVL83
 16955 074e 4D000000 		.4byte	.LVL85-1
 16956 0752 0100     		.2byte	0x1
 16957 0754 53       		.byte	0x53
 16958 0755 4D000000 		.4byte	.LVL85-1
 16959 0759 5C000000 		.4byte	.LFE272
 16960 075d 0400     		.2byte	0x4
 16961 075f F3       		.byte	0xf3
ARM GAS  /tmp/ccDzFi87.s 			page 299


 16962 0760 01       		.uleb128 0x1
 16963 0761 53       		.byte	0x53
 16964 0762 9F       		.byte	0x9f
 16965 0763 00000000 		.4byte	0
 16966 0767 00000000 		.4byte	0
 16967              	.LVUS28:
 16968 076b 00       		.uleb128 .LVU317
 16969 076c 00       		.uleb128 .LVU324
 16970 076d 00       		.uleb128 .LVU329
 16971 076e 00       		.uleb128 .LVU331
 16972              	.LLST28:
 16973 076f 24000000 		.4byte	.LVL80
 16974 0773 34000000 		.4byte	.LVL81
 16975 0777 0100     		.2byte	0x1
 16976 0779 51       		.byte	0x51
 16977 077a 48000000 		.4byte	.LVL83
 16978 077e 4D000000 		.4byte	.LVL85-1
 16979 0782 0100     		.2byte	0x1
 16980 0784 51       		.byte	0x51
 16981 0785 00000000 		.4byte	0
 16982 0789 00000000 		.4byte	0
 16983              	.LVUS19:
 16984 078d 00       		.uleb128 0
 16985 078e 00       		.uleb128 .LVU294
 16986 078f 00       		.uleb128 .LVU294
 16987 0790 00       		.uleb128 .LVU295
 16988 0791 00       		.uleb128 .LVU295
 16989 0792 00       		.uleb128 .LVU296
 16990 0793 00       		.uleb128 .LVU296
 16991 0794 00       		.uleb128 .LVU297
 16992 0795 00       		.uleb128 .LVU297
 16993 0796 00       		.uleb128 0
 16994              	.LLST19:
 16995 0797 00000000 		.4byte	.LVL65
 16996 079b 3A000000 		.4byte	.LVL71
 16997 079f 0100     		.2byte	0x1
 16998 07a1 50       		.byte	0x50
 16999 07a2 3A000000 		.4byte	.LVL71
 17000 07a6 48000000 		.4byte	.LVL72
 17001 07aa 0400     		.2byte	0x4
 17002 07ac F3       		.byte	0xf3
 17003 07ad 01       		.uleb128 0x1
 17004 07ae 50       		.byte	0x50
 17005 07af 9F       		.byte	0x9f
 17006 07b0 48000000 		.4byte	.LVL72
 17007 07b4 4A000000 		.4byte	.LVL73
 17008 07b8 0100     		.2byte	0x1
 17009 07ba 50       		.byte	0x50
 17010 07bb 4A000000 		.4byte	.LVL73
 17011 07bf 4D000000 		.4byte	.LVL74-1
 17012 07c3 0300     		.2byte	0x3
 17013 07c5 70       		.byte	0x70
 17014 07c6 4C       		.sleb128 -52
 17015 07c7 9F       		.byte	0x9f
 17016 07c8 4D000000 		.4byte	.LVL74-1
 17017 07cc 5C000000 		.4byte	.LFE271
 17018 07d0 0400     		.2byte	0x4
ARM GAS  /tmp/ccDzFi87.s 			page 300


 17019 07d2 F3       		.byte	0xf3
 17020 07d3 01       		.uleb128 0x1
 17021 07d4 50       		.byte	0x50
 17022 07d5 9F       		.byte	0x9f
 17023 07d6 00000000 		.4byte	0
 17024 07da 00000000 		.4byte	0
 17025              	.LVUS20:
 17026 07de 00       		.uleb128 0
 17027 07df 00       		.uleb128 .LVU277
 17028 07e0 00       		.uleb128 .LVU277
 17029 07e1 00       		.uleb128 0
 17030              	.LLST20:
 17031 07e2 00000000 		.4byte	.LVL65
 17032 07e6 1E000000 		.4byte	.LVL67
 17033 07ea 0100     		.2byte	0x1
 17034 07ec 51       		.byte	0x51
 17035 07ed 1E000000 		.4byte	.LVL67
 17036 07f1 5C000000 		.4byte	.LFE271
 17037 07f5 0400     		.2byte	0x4
 17038 07f7 F3       		.byte	0xf3
 17039 07f8 01       		.uleb128 0x1
 17040 07f9 51       		.byte	0x51
 17041 07fa 9F       		.byte	0x9f
 17042 07fb 00000000 		.4byte	0
 17043 07ff 00000000 		.4byte	0
 17044              	.LVUS21:
 17045 0803 00       		.uleb128 0
 17046 0804 00       		.uleb128 .LVU276
 17047 0805 00       		.uleb128 .LVU276
 17048 0806 00       		.uleb128 .LVU278
 17049 0807 00       		.uleb128 .LVU278
 17050 0808 00       		.uleb128 0
 17051              	.LLST21:
 17052 0809 00000000 		.4byte	.LVL65
 17053 080d 1A000000 		.4byte	.LVL66
 17054 0811 0100     		.2byte	0x1
 17055 0813 52       		.byte	0x52
 17056 0814 1A000000 		.4byte	.LVL66
 17057 0818 20000000 		.4byte	.LVL68
 17058 081c 0200     		.2byte	0x2
 17059 081e 74       		.byte	0x74
 17060 081f 08       		.sleb128 8
 17061 0820 20000000 		.4byte	.LVL68
 17062 0824 5C000000 		.4byte	.LFE271
 17063 0828 0400     		.2byte	0x4
 17064 082a F3       		.byte	0xf3
 17065 082b 01       		.uleb128 0x1
 17066 082c 52       		.byte	0x52
 17067 082d 9F       		.byte	0x9f
 17068 082e 00000000 		.4byte	0
 17069 0832 00000000 		.4byte	0
 17070              	.LVUS22:
 17071 0836 00       		.uleb128 0
 17072 0837 00       		.uleb128 .LVU294
 17073 0838 00       		.uleb128 .LVU294
 17074 0839 00       		.uleb128 .LVU295
 17075 083a 00       		.uleb128 .LVU295
ARM GAS  /tmp/ccDzFi87.s 			page 301


 17076 083b 00       		.uleb128 .LVU297
 17077 083c 00       		.uleb128 .LVU297
 17078 083d 00       		.uleb128 0
 17079              	.LLST22:
 17080 083e 00000000 		.4byte	.LVL65
 17081 0842 3A000000 		.4byte	.LVL71
 17082 0846 0100     		.2byte	0x1
 17083 0848 53       		.byte	0x53
 17084 0849 3A000000 		.4byte	.LVL71
 17085 084d 48000000 		.4byte	.LVL72
 17086 0851 0400     		.2byte	0x4
 17087 0853 F3       		.byte	0xf3
 17088 0854 01       		.uleb128 0x1
 17089 0855 53       		.byte	0x53
 17090 0856 9F       		.byte	0x9f
 17091 0857 48000000 		.4byte	.LVL72
 17092 085b 4D000000 		.4byte	.LVL74-1
 17093 085f 0100     		.2byte	0x1
 17094 0861 53       		.byte	0x53
 17095 0862 4D000000 		.4byte	.LVL74-1
 17096 0866 5C000000 		.4byte	.LFE271
 17097 086a 0400     		.2byte	0x4
 17098 086c F3       		.byte	0xf3
 17099 086d 01       		.uleb128 0x1
 17100 086e 53       		.byte	0x53
 17101 086f 9F       		.byte	0x9f
 17102 0870 00000000 		.4byte	0
 17103 0874 00000000 		.4byte	0
 17104              	.LVUS23:
 17105 0878 00       		.uleb128 .LVU283
 17106 0879 00       		.uleb128 .LVU290
 17107 087a 00       		.uleb128 .LVU295
 17108 087b 00       		.uleb128 .LVU297
 17109              	.LLST23:
 17110 087c 24000000 		.4byte	.LVL69
 17111 0880 34000000 		.4byte	.LVL70
 17112 0884 0100     		.2byte	0x1
 17113 0886 51       		.byte	0x51
 17114 0887 48000000 		.4byte	.LVL72
 17115 088b 4D000000 		.4byte	.LVL74-1
 17116 088f 0100     		.2byte	0x1
 17117 0891 51       		.byte	0x51
 17118 0892 00000000 		.4byte	0
 17119 0896 00000000 		.4byte	0
 17120              	.LVUS16:
 17121 089a 00       		.uleb128 0
 17122 089b 00       		.uleb128 .LVU265
 17123 089c 00       		.uleb128 .LVU265
 17124 089d 00       		.uleb128 0
 17125              	.LLST16:
 17126 089e 00000000 		.4byte	.LVL61
 17127 08a2 3F000000 		.4byte	.LVL64-1
 17128 08a6 0100     		.2byte	0x1
 17129 08a8 50       		.byte	0x50
 17130 08a9 3F000000 		.4byte	.LVL64-1
 17131 08ad 44000000 		.4byte	.LFE270
 17132 08b1 0400     		.2byte	0x4
ARM GAS  /tmp/ccDzFi87.s 			page 302


 17133 08b3 F3       		.byte	0xf3
 17134 08b4 01       		.uleb128 0x1
 17135 08b5 50       		.byte	0x50
 17136 08b6 9F       		.byte	0x9f
 17137 08b7 00000000 		.4byte	0
 17138 08bb 00000000 		.4byte	0
 17139              	.LVUS17:
 17140 08bf 00       		.uleb128 0
 17141 08c0 00       		.uleb128 .LVU255
 17142 08c1 00       		.uleb128 .LVU255
 17143 08c2 00       		.uleb128 0
 17144              	.LLST17:
 17145 08c3 00000000 		.4byte	.LVL61
 17146 08c7 1E000000 		.4byte	.LVL62
 17147 08cb 0100     		.2byte	0x1
 17148 08cd 51       		.byte	0x51
 17149 08ce 1E000000 		.4byte	.LVL62
 17150 08d2 44000000 		.4byte	.LFE270
 17151 08d6 0400     		.2byte	0x4
 17152 08d8 F3       		.byte	0xf3
 17153 08d9 01       		.uleb128 0x1
 17154 08da 51       		.byte	0x51
 17155 08db 9F       		.byte	0x9f
 17156 08dc 00000000 		.4byte	0
 17157 08e0 00000000 		.4byte	0
 17158              	.LVUS18:
 17159 08e4 00       		.uleb128 0
 17160 08e5 00       		.uleb128 .LVU258
 17161 08e6 00       		.uleb128 .LVU258
 17162 08e7 00       		.uleb128 0
 17163              	.LLST18:
 17164 08e8 00000000 		.4byte	.LVL61
 17165 08ec 22000000 		.4byte	.LVL63
 17166 08f0 0100     		.2byte	0x1
 17167 08f2 52       		.byte	0x52
 17168 08f3 22000000 		.4byte	.LVL63
 17169 08f7 44000000 		.4byte	.LFE270
 17170 08fb 0400     		.2byte	0x4
 17171 08fd F3       		.byte	0xf3
 17172 08fe 01       		.uleb128 0x1
 17173 08ff 52       		.byte	0x52
 17174 0900 9F       		.byte	0x9f
 17175 0901 00000000 		.4byte	0
 17176 0905 00000000 		.4byte	0
 17177              	.LVUS13:
 17178 0909 00       		.uleb128 0
 17179 090a 00       		.uleb128 .LVU244
 17180 090b 00       		.uleb128 .LVU244
 17181 090c 00       		.uleb128 0
 17182              	.LLST13:
 17183 090d 00000000 		.4byte	.LVL53
 17184 0911 43000000 		.4byte	.LVL60-1
 17185 0915 0100     		.2byte	0x1
 17186 0917 50       		.byte	0x50
 17187 0918 43000000 		.4byte	.LVL60-1
 17188 091c 48000000 		.4byte	.LFE269
 17189 0920 0400     		.2byte	0x4
ARM GAS  /tmp/ccDzFi87.s 			page 303


 17190 0922 F3       		.byte	0xf3
 17191 0923 01       		.uleb128 0x1
 17192 0924 50       		.byte	0x50
 17193 0925 9F       		.byte	0x9f
 17194 0926 00000000 		.4byte	0
 17195 092a 00000000 		.4byte	0
 17196              	.LVUS14:
 17197 092e 00       		.uleb128 0
 17198 092f 00       		.uleb128 .LVU244
 17199 0930 00       		.uleb128 .LVU244
 17200 0931 00       		.uleb128 0
 17201              	.LLST14:
 17202 0932 00000000 		.4byte	.LVL53
 17203 0936 43000000 		.4byte	.LVL60-1
 17204 093a 0100     		.2byte	0x1
 17205 093c 51       		.byte	0x51
 17206 093d 43000000 		.4byte	.LVL60-1
 17207 0941 48000000 		.4byte	.LFE269
 17208 0945 0400     		.2byte	0x4
 17209 0947 F3       		.byte	0xf3
 17210 0948 01       		.uleb128 0x1
 17211 0949 51       		.byte	0x51
 17212 094a 9F       		.byte	0x9f
 17213 094b 00000000 		.4byte	0
 17214 094f 00000000 		.4byte	0
 17215              	.LVUS15:
 17216 0953 00       		.uleb128 .LVU232
 17217 0954 00       		.uleb128 .LVU233
 17218 0955 00       		.uleb128 .LVU234
 17219 0956 00       		.uleb128 .LVU236
 17220 0957 00       		.uleb128 .LVU239
 17221 0958 00       		.uleb128 .LVU241
 17222              	.LLST15:
 17223 0959 18000000 		.4byte	.LVL54
 17224 095d 20000000 		.4byte	.LVL55
 17225 0961 0100     		.2byte	0x1
 17226 0963 53       		.byte	0x53
 17227 0964 30000000 		.4byte	.LVL56
 17228 0968 34000000 		.4byte	.LVL57
 17229 096c 0100     		.2byte	0x1
 17230 096e 53       		.byte	0x53
 17231 096f 38000000 		.4byte	.LVL58
 17232 0973 3C000000 		.4byte	.LVL59
 17233 0977 0100     		.2byte	0x1
 17234 0979 53       		.byte	0x53
 17235 097a 00000000 		.4byte	0
 17236 097e 00000000 		.4byte	0
 17237              	.LVUS12:
 17238 0982 00       		.uleb128 0
 17239 0983 00       		.uleb128 .LVU222
 17240 0984 00       		.uleb128 .LVU222
 17241 0985 00       		.uleb128 0
 17242              	.LLST12:
 17243 0986 00000000 		.4byte	.LVL51
 17244 098a 2B000000 		.4byte	.LVL52-1
 17245 098e 0100     		.2byte	0x1
 17246 0990 50       		.byte	0x50
ARM GAS  /tmp/ccDzFi87.s 			page 304


 17247 0991 2B000000 		.4byte	.LVL52-1
 17248 0995 30000000 		.4byte	.LFE268
 17249 0999 0400     		.2byte	0x4
 17250 099b F3       		.byte	0xf3
 17251 099c 01       		.uleb128 0x1
 17252 099d 50       		.byte	0x50
 17253 099e 9F       		.byte	0x9f
 17254 099f 00000000 		.4byte	0
 17255 09a3 00000000 		.4byte	0
 17256              	.LVUS10:
 17257 09a7 00       		.uleb128 0
 17258 09a8 00       		.uleb128 .LVU208
 17259 09a9 00       		.uleb128 .LVU208
 17260 09aa 00       		.uleb128 0
 17261              	.LLST10:
 17262 09ab 00000000 		.4byte	.LVL49
 17263 09af 2B000000 		.4byte	.LVL50-1
 17264 09b3 0100     		.2byte	0x1
 17265 09b5 50       		.byte	0x50
 17266 09b6 2B000000 		.4byte	.LVL50-1
 17267 09ba 30000000 		.4byte	.LFE267
 17268 09be 0400     		.2byte	0x4
 17269 09c0 F3       		.byte	0xf3
 17270 09c1 01       		.uleb128 0x1
 17271 09c2 50       		.byte	0x50
 17272 09c3 9F       		.byte	0x9f
 17273 09c4 00000000 		.4byte	0
 17274 09c8 00000000 		.4byte	0
 17275              	.LVUS11:
 17276 09cc 00       		.uleb128 0
 17277 09cd 00       		.uleb128 .LVU208
 17278 09ce 00       		.uleb128 .LVU208
 17279 09cf 00       		.uleb128 0
 17280              	.LLST11:
 17281 09d0 00000000 		.4byte	.LVL49
 17282 09d4 2B000000 		.4byte	.LVL50-1
 17283 09d8 0100     		.2byte	0x1
 17284 09da 51       		.byte	0x51
 17285 09db 2B000000 		.4byte	.LVL50-1
 17286 09df 30000000 		.4byte	.LFE267
 17287 09e3 0400     		.2byte	0x4
 17288 09e5 F3       		.byte	0xf3
 17289 09e6 01       		.uleb128 0x1
 17290 09e7 51       		.byte	0x51
 17291 09e8 9F       		.byte	0x9f
 17292 09e9 00000000 		.4byte	0
 17293 09ed 00000000 		.4byte	0
 17294              	.LVUS9:
 17295 09f1 00       		.uleb128 0
 17296 09f2 00       		.uleb128 .LVU192
 17297 09f3 00       		.uleb128 .LVU192
 17298 09f4 00       		.uleb128 .LVU195
 17299 09f5 00       		.uleb128 .LVU195
 17300 09f6 00       		.uleb128 .LVU196
 17301 09f7 00       		.uleb128 .LVU196
 17302 09f8 00       		.uleb128 0
 17303              	.LLST9:
ARM GAS  /tmp/ccDzFi87.s 			page 305


 17304 09f9 00000000 		.4byte	.LVL44
 17305 09fd 34000000 		.4byte	.LVL46
 17306 0a01 0100     		.2byte	0x1
 17307 0a03 50       		.byte	0x50
 17308 0a04 34000000 		.4byte	.LVL46
 17309 0a08 3E000000 		.4byte	.LVL47
 17310 0a0c 0400     		.2byte	0x4
 17311 0a0e F3       		.byte	0xf3
 17312 0a0f 01       		.uleb128 0x1
 17313 0a10 50       		.byte	0x50
 17314 0a11 9F       		.byte	0x9f
 17315 0a12 3E000000 		.4byte	.LVL47
 17316 0a16 41000000 		.4byte	.LVL48-1
 17317 0a1a 0100     		.2byte	0x1
 17318 0a1c 50       		.byte	0x50
 17319 0a1d 41000000 		.4byte	.LVL48-1
 17320 0a21 48000000 		.4byte	.LFE266
 17321 0a25 0400     		.2byte	0x4
 17322 0a27 F3       		.byte	0xf3
 17323 0a28 01       		.uleb128 0x1
 17324 0a29 50       		.byte	0x50
 17325 0a2a 9F       		.byte	0x9f
 17326 0a2b 00000000 		.4byte	0
 17327 0a2f 00000000 		.4byte	0
 17328              	.LVUS8:
 17329 0a33 00       		.uleb128 0
 17330 0a34 00       		.uleb128 .LVU169
 17331 0a35 00       		.uleb128 .LVU169
 17332 0a36 02       		.uleb128 .LVU174
 17333 0a37 02       		.uleb128 .LVU174
 17334 0a38 00       		.uleb128 0
 17335              	.LLST8:
 17336 0a39 00000000 		.4byte	.LVL38
 17337 0a3d 2A000000 		.4byte	.LVL39
 17338 0a41 0100     		.2byte	0x1
 17339 0a43 50       		.byte	0x50
 17340 0a44 2A000000 		.4byte	.LVL39
 17341 0a48 3E000000 		.4byte	.LVL42
 17342 0a4c 0100     		.2byte	0x1
 17343 0a4e 54       		.byte	0x54
 17344 0a4f 3E000000 		.4byte	.LVL42
 17345 0a53 58000000 		.4byte	.LFE265
 17346 0a57 0400     		.2byte	0x4
 17347 0a59 F3       		.byte	0xf3
 17348 0a5a 01       		.uleb128 0x1
 17349 0a5b 50       		.byte	0x50
 17350 0a5c 9F       		.byte	0x9f
 17351 0a5d 00000000 		.4byte	0
 17352 0a61 00000000 		.4byte	0
 17353              	.LVUS6:
 17354 0a65 00       		.uleb128 0
 17355 0a66 00       		.uleb128 .LVU109
 17356 0a67 00       		.uleb128 .LVU109
 17357 0a68 00       		.uleb128 .LVU124
 17358 0a69 00       		.uleb128 .LVU124
 17359 0a6a 00       		.uleb128 .LVU135
 17360 0a6b 00       		.uleb128 .LVU135
ARM GAS  /tmp/ccDzFi87.s 			page 306


 17361 0a6c 00       		.uleb128 0
 17362              	.LLST6:
 17363 0a6d 00000000 		.4byte	.LVL27
 17364 0a71 1E000000 		.4byte	.LVL28
 17365 0a75 0100     		.2byte	0x1
 17366 0a77 50       		.byte	0x50
 17367 0a78 1E000000 		.4byte	.LVL28
 17368 0a7c 3E000000 		.4byte	.LVL29
 17369 0a80 0100     		.2byte	0x1
 17370 0a82 54       		.byte	0x54
 17371 0a83 3E000000 		.4byte	.LVL29
 17372 0a87 50000000 		.4byte	.LVL30
 17373 0a8b 0100     		.2byte	0x1
 17374 0a8d 50       		.byte	0x50
 17375 0a8e 50000000 		.4byte	.LVL30
 17376 0a92 A0000000 		.4byte	.LFE264
 17377 0a96 0100     		.2byte	0x1
 17378 0a98 54       		.byte	0x54
 17379 0a99 00000000 		.4byte	0
 17380 0a9d 00000000 		.4byte	0
 17381              	.LVUS7:
 17382 0aa1 00       		.uleb128 .LVU136
 17383 0aa2 00       		.uleb128 .LVU139
 17384 0aa3 00       		.uleb128 .LVU147
 17385 0aa4 00       		.uleb128 .LVU148
 17386              	.LLST7:
 17387 0aa5 58000000 		.4byte	.LVL31
 17388 0aa9 5A000000 		.4byte	.LVL32
 17389 0aad 0100     		.2byte	0x1
 17390 0aaf 50       		.byte	0x50
 17391 0ab0 80000000 		.4byte	.LVL34
 17392 0ab4 82000000 		.4byte	.LVL35
 17393 0ab8 0100     		.2byte	0x1
 17394 0aba 50       		.byte	0x50
 17395 0abb 00000000 		.4byte	0
 17396 0abf 00000000 		.4byte	0
 17397              	.LVUS2:
 17398 0ac3 09       		.uleb128 .LVU51
 17399 0ac4 00       		.uleb128 .LVU53
 17400              	.LLST2:
 17401 0ac5 16000000 		.4byte	.LVL13
 17402 0ac9 1C000000 		.4byte	.LVL14
 17403 0acd 0300     		.2byte	0x3
 17404 0acf 08       		.byte	0x8
 17405 0ad0 20       		.byte	0x20
 17406 0ad1 9F       		.byte	0x9f
 17407 0ad2 00000000 		.4byte	0
 17408 0ad6 00000000 		.4byte	0
 17409              	.LVUS3:
 17410 0ada 01       		.uleb128 .LVU61
 17411 0adb 00       		.uleb128 .LVU63
 17412              	.LLST3:
 17413 0adc 2C000000 		.4byte	.LVL17
 17414 0ae0 32000000 		.4byte	.LVL18
 17415 0ae4 0200     		.2byte	0x2
 17416 0ae6 30       		.byte	0x30
 17417 0ae7 9F       		.byte	0x9f
ARM GAS  /tmp/ccDzFi87.s 			page 307


 17418 0ae8 00000000 		.4byte	0
 17419 0aec 00000000 		.4byte	0
 17420              	.LVUS4:
 17421 0af0 01       		.uleb128 .LVU61
 17422 0af1 00       		.uleb128 .LVU63
 17423              	.LLST4:
 17424 0af2 2C000000 		.4byte	.LVL17
 17425 0af6 32000000 		.4byte	.LVL18
 17426 0afa 0600     		.2byte	0x6
 17427 0afc 03       		.byte	0x3
 17428 0afd 3C000000 		.4byte	SDCD1+60
 17429 0b01 9F       		.byte	0x9f
 17430 0b02 00000000 		.4byte	0
 17431 0b06 00000000 		.4byte	0
 17432              	.LVUS5:
 17433 0b0a 05       		.uleb128 .LVU75
 17434 0b0b 00       		.uleb128 .LVU77
 17435              	.LLST5:
 17436 0b0c 3A000000 		.4byte	.LVL20
 17437 0b10 3E000000 		.4byte	.LVL21
 17438 0b14 0200     		.2byte	0x2
 17439 0b16 30       		.byte	0x30
 17440 0b17 9F       		.byte	0x9f
 17441 0b18 00000000 		.4byte	0
 17442 0b1c 00000000 		.4byte	0
 17443              	.LVUS0:
 17444 0b20 00       		.uleb128 0
 17445 0b21 00       		.uleb128 .LVU36
 17446 0b22 00       		.uleb128 .LVU36
 17447 0b23 00       		.uleb128 0
 17448              	.LLST0:
 17449 0b24 00000000 		.4byte	.LVL0
 17450 0b28 5B000000 		.4byte	.LVL11-1
 17451 0b2c 0100     		.2byte	0x1
 17452 0b2e 51       		.byte	0x51
 17453 0b2f 5B000000 		.4byte	.LVL11-1
 17454 0b33 60000000 		.4byte	.LFE280
 17455 0b37 0400     		.2byte	0x4
 17456 0b39 F3       		.byte	0xf3
 17457 0b3a 01       		.uleb128 0x1
 17458 0b3b 51       		.byte	0x51
 17459 0b3c 9F       		.byte	0x9f
 17460 0b3d 00000000 		.4byte	0
 17461 0b41 00000000 		.4byte	0
 17462              	.LVUS1:
 17463 0b45 01       		.uleb128 .LVU4
 17464 0b46 00       		.uleb128 .LVU7
 17465 0b47 00       		.uleb128 .LVU7
 17466 0b48 00       		.uleb128 .LVU33
 17467 0b49 00       		.uleb128 .LVU35
 17468 0b4a 00       		.uleb128 .LVU36
 17469 0b4b 00       		.uleb128 .LVU36
 17470 0b4c 00       		.uleb128 0
 17471              	.LLST1:
 17472 0b4d 0E000000 		.4byte	.LVL1
 17473 0b51 14000000 		.4byte	.LVL2
 17474 0b55 0200     		.2byte	0x2
ARM GAS  /tmp/ccDzFi87.s 			page 308


 17475 0b57 30       		.byte	0x30
 17476 0b58 9F       		.byte	0x9f
 17477 0b59 14000000 		.4byte	.LVL2
 17478 0b5d 46000000 		.4byte	.LVL9
 17479 0b61 0100     		.2byte	0x1
 17480 0b63 53       		.byte	0x53
 17481 0b64 50000000 		.4byte	.LVL10
 17482 0b68 5B000000 		.4byte	.LVL11-1
 17483 0b6c 3704     		.2byte	0x437
 17484 0b6e 71       		.byte	0x71
 17485 0b6f 00       		.sleb128 0
 17486 0b70 31       		.byte	0x31
 17487 0b71 1A       		.byte	0x1a
 17488 0b72 32       		.byte	0x32
 17489 0b73 21       		.byte	0x21
 17490 0b74 71       		.byte	0x71
 17491 0b75 00       		.sleb128 0
 17492 0b76 31       		.byte	0x31
 17493 0b77 1A       		.byte	0x1a
 17494 0b78 71       		.byte	0x71
 17495 0b79 00       		.sleb128 0
 17496 0b7a 4E       		.byte	0x4e
 17497 0b7b 24       		.byte	0x24
 17498 0b7c 30       		.byte	0x30
 17499 0b7d 2D       		.byte	0x2d
 17500 0b7e 28       		.byte	0x28
 17501 0b7f 0100     		.2byte	0x1
 17502 0b81 16       		.byte	0x16
 17503 0b82 13       		.byte	0x13
 17504 0b83 38       		.byte	0x38
 17505 0b84 21       		.byte	0x21
 17506 0b85 71       		.byte	0x71
 17507 0b86 00       		.sleb128 0
 17508 0b87 31       		.byte	0x31
 17509 0b88 1A       		.byte	0x1a
 17510 0b89 32       		.byte	0x32
 17511 0b8a 21       		.byte	0x21
 17512 0b8b 71       		.byte	0x71
 17513 0b8c 00       		.sleb128 0
 17514 0b8d 31       		.byte	0x31
 17515 0b8e 1A       		.byte	0x1a
 17516 0b8f 71       		.byte	0x71
 17517 0b90 00       		.sleb128 0
 17518 0b91 4E       		.byte	0x4e
 17519 0b92 24       		.byte	0x24
 17520 0b93 30       		.byte	0x30
 17521 0b94 2D       		.byte	0x2d
 17522 0b95 28       		.byte	0x28
 17523 0b96 0100     		.2byte	0x1
 17524 0b98 16       		.byte	0x16
 17525 0b99 13       		.byte	0x13
 17526 0b9a 71       		.byte	0x71
 17527 0b9b 00       		.sleb128 0
 17528 0b9c 4D       		.byte	0x4d
 17529 0b9d 24       		.byte	0x24
 17530 0b9e 30       		.byte	0x30
 17531 0b9f 2D       		.byte	0x2d
ARM GAS  /tmp/ccDzFi87.s 			page 309


 17532 0ba0 28       		.byte	0x28
 17533 0ba1 0100     		.2byte	0x1
 17534 0ba3 16       		.byte	0x16
 17535 0ba4 13       		.byte	0x13
 17536 0ba5 34       		.byte	0x34
 17537 0ba6 21       		.byte	0x21
 17538 0ba7 71       		.byte	0x71
 17539 0ba8 00       		.sleb128 0
 17540 0ba9 31       		.byte	0x31
 17541 0baa 1A       		.byte	0x1a
 17542 0bab 32       		.byte	0x32
 17543 0bac 21       		.byte	0x21
 17544 0bad 71       		.byte	0x71
 17545 0bae 00       		.sleb128 0
 17546 0baf 31       		.byte	0x31
 17547 0bb0 1A       		.byte	0x1a
 17548 0bb1 71       		.byte	0x71
 17549 0bb2 00       		.sleb128 0
 17550 0bb3 4E       		.byte	0x4e
 17551 0bb4 24       		.byte	0x24
 17552 0bb5 30       		.byte	0x30
 17553 0bb6 2D       		.byte	0x2d
 17554 0bb7 28       		.byte	0x28
 17555 0bb8 0100     		.2byte	0x1
 17556 0bba 16       		.byte	0x16
 17557 0bbb 13       		.byte	0x13
 17558 0bbc 38       		.byte	0x38
 17559 0bbd 21       		.byte	0x21
 17560 0bbe 71       		.byte	0x71
 17561 0bbf 00       		.sleb128 0
 17562 0bc0 31       		.byte	0x31
 17563 0bc1 1A       		.byte	0x1a
 17564 0bc2 32       		.byte	0x32
 17565 0bc3 21       		.byte	0x21
 17566 0bc4 71       		.byte	0x71
 17567 0bc5 00       		.sleb128 0
 17568 0bc6 31       		.byte	0x31
 17569 0bc7 1A       		.byte	0x1a
 17570 0bc8 71       		.byte	0x71
 17571 0bc9 00       		.sleb128 0
 17572 0bca 4E       		.byte	0x4e
 17573 0bcb 24       		.byte	0x24
 17574 0bcc 30       		.byte	0x30
 17575 0bcd 2D       		.byte	0x2d
 17576 0bce 28       		.byte	0x28
 17577 0bcf 0100     		.2byte	0x1
 17578 0bd1 16       		.byte	0x16
 17579 0bd2 13       		.byte	0x13
 17580 0bd3 71       		.byte	0x71
 17581 0bd4 00       		.sleb128 0
 17582 0bd5 4D       		.byte	0x4d
 17583 0bd6 24       		.byte	0x24
 17584 0bd7 30       		.byte	0x30
 17585 0bd8 2D       		.byte	0x2d
 17586 0bd9 28       		.byte	0x28
 17587 0bda 0100     		.2byte	0x1
 17588 0bdc 16       		.byte	0x16
ARM GAS  /tmp/ccDzFi87.s 			page 310


 17589 0bdd 13       		.byte	0x13
 17590 0bde 71       		.byte	0x71
 17591 0bdf 00       		.sleb128 0
 17592 0be0 4C       		.byte	0x4c
 17593 0be1 24       		.byte	0x24
 17594 0be2 30       		.byte	0x30
 17595 0be3 2D       		.byte	0x2d
 17596 0be4 28       		.byte	0x28
 17597 0be5 0100     		.2byte	0x1
 17598 0be7 16       		.byte	0x16
 17599 0be8 13       		.byte	0x13
 17600 0be9 40       		.byte	0x40
 17601 0bea 21       		.byte	0x21
 17602 0beb 71       		.byte	0x71
 17603 0bec 00       		.sleb128 0
 17604 0bed 31       		.byte	0x31
 17605 0bee 1A       		.byte	0x1a
 17606 0bef 32       		.byte	0x32
 17607 0bf0 21       		.byte	0x21
 17608 0bf1 71       		.byte	0x71
 17609 0bf2 00       		.sleb128 0
 17610 0bf3 31       		.byte	0x31
 17611 0bf4 1A       		.byte	0x1a
 17612 0bf5 71       		.byte	0x71
 17613 0bf6 00       		.sleb128 0
 17614 0bf7 4E       		.byte	0x4e
 17615 0bf8 24       		.byte	0x24
 17616 0bf9 30       		.byte	0x30
 17617 0bfa 2D       		.byte	0x2d
 17618 0bfb 28       		.byte	0x28
 17619 0bfc 0100     		.2byte	0x1
 17620 0bfe 16       		.byte	0x16
 17621 0bff 13       		.byte	0x13
 17622 0c00 38       		.byte	0x38
 17623 0c01 21       		.byte	0x21
 17624 0c02 71       		.byte	0x71
 17625 0c03 00       		.sleb128 0
 17626 0c04 31       		.byte	0x31
 17627 0c05 1A       		.byte	0x1a
 17628 0c06 32       		.byte	0x32
 17629 0c07 21       		.byte	0x21
 17630 0c08 71       		.byte	0x71
 17631 0c09 00       		.sleb128 0
 17632 0c0a 31       		.byte	0x31
 17633 0c0b 1A       		.byte	0x1a
 17634 0c0c 71       		.byte	0x71
 17635 0c0d 00       		.sleb128 0
 17636 0c0e 4E       		.byte	0x4e
 17637 0c0f 24       		.byte	0x24
 17638 0c10 30       		.byte	0x30
 17639 0c11 2D       		.byte	0x2d
 17640 0c12 28       		.byte	0x28
 17641 0c13 0100     		.2byte	0x1
 17642 0c15 16       		.byte	0x16
 17643 0c16 13       		.byte	0x13
 17644 0c17 71       		.byte	0x71
 17645 0c18 00       		.sleb128 0
ARM GAS  /tmp/ccDzFi87.s 			page 311


 17646 0c19 4D       		.byte	0x4d
 17647 0c1a 24       		.byte	0x24
 17648 0c1b 30       		.byte	0x30
 17649 0c1c 2D       		.byte	0x2d
 17650 0c1d 28       		.byte	0x28
 17651 0c1e 0100     		.2byte	0x1
 17652 0c20 16       		.byte	0x16
 17653 0c21 13       		.byte	0x13
 17654 0c22 34       		.byte	0x34
 17655 0c23 21       		.byte	0x21
 17656 0c24 71       		.byte	0x71
 17657 0c25 00       		.sleb128 0
 17658 0c26 31       		.byte	0x31
 17659 0c27 1A       		.byte	0x1a
 17660 0c28 32       		.byte	0x32
 17661 0c29 21       		.byte	0x21
 17662 0c2a 71       		.byte	0x71
 17663 0c2b 00       		.sleb128 0
 17664 0c2c 31       		.byte	0x31
 17665 0c2d 1A       		.byte	0x1a
 17666 0c2e 71       		.byte	0x71
 17667 0c2f 00       		.sleb128 0
 17668 0c30 4E       		.byte	0x4e
 17669 0c31 24       		.byte	0x24
 17670 0c32 30       		.byte	0x30
 17671 0c33 2D       		.byte	0x2d
 17672 0c34 28       		.byte	0x28
 17673 0c35 0100     		.2byte	0x1
 17674 0c37 16       		.byte	0x16
 17675 0c38 13       		.byte	0x13
 17676 0c39 38       		.byte	0x38
 17677 0c3a 21       		.byte	0x21
 17678 0c3b 71       		.byte	0x71
 17679 0c3c 00       		.sleb128 0
 17680 0c3d 31       		.byte	0x31
 17681 0c3e 1A       		.byte	0x1a
 17682 0c3f 32       		.byte	0x32
 17683 0c40 21       		.byte	0x21
 17684 0c41 71       		.byte	0x71
 17685 0c42 00       		.sleb128 0
 17686 0c43 31       		.byte	0x31
 17687 0c44 1A       		.byte	0x1a
 17688 0c45 71       		.byte	0x71
 17689 0c46 00       		.sleb128 0
 17690 0c47 4E       		.byte	0x4e
 17691 0c48 24       		.byte	0x24
 17692 0c49 30       		.byte	0x30
 17693 0c4a 2D       		.byte	0x2d
 17694 0c4b 28       		.byte	0x28
 17695 0c4c 0100     		.2byte	0x1
 17696 0c4e 16       		.byte	0x16
 17697 0c4f 13       		.byte	0x13
 17698 0c50 71       		.byte	0x71
 17699 0c51 00       		.sleb128 0
 17700 0c52 4D       		.byte	0x4d
 17701 0c53 24       		.byte	0x24
 17702 0c54 30       		.byte	0x30
ARM GAS  /tmp/ccDzFi87.s 			page 312


 17703 0c55 2D       		.byte	0x2d
 17704 0c56 28       		.byte	0x28
 17705 0c57 0100     		.2byte	0x1
 17706 0c59 16       		.byte	0x16
 17707 0c5a 13       		.byte	0x13
 17708 0c5b 71       		.byte	0x71
 17709 0c5c 00       		.sleb128 0
 17710 0c5d 4C       		.byte	0x4c
 17711 0c5e 24       		.byte	0x24
 17712 0c5f 30       		.byte	0x30
 17713 0c60 2D       		.byte	0x2d
 17714 0c61 28       		.byte	0x28
 17715 0c62 0100     		.2byte	0x1
 17716 0c64 16       		.byte	0x16
 17717 0c65 13       		.byte	0x13
 17718 0c66 71       		.byte	0x71
 17719 0c67 00       		.sleb128 0
 17720 0c68 4B       		.byte	0x4b
 17721 0c69 24       		.byte	0x24
 17722 0c6a 30       		.byte	0x30
 17723 0c6b 2D       		.byte	0x2d
 17724 0c6c 28       		.byte	0x28
 17725 0c6d 0100     		.2byte	0x1
 17726 0c6f 16       		.byte	0x16
 17727 0c70 13       		.byte	0x13
 17728 0c71 08       		.byte	0x8
 17729 0c72 20       		.byte	0x20
 17730 0c73 21       		.byte	0x21
 17731 0c74 71       		.byte	0x71
 17732 0c75 00       		.sleb128 0
 17733 0c76 31       		.byte	0x31
 17734 0c77 1A       		.byte	0x1a
 17735 0c78 32       		.byte	0x32
 17736 0c79 21       		.byte	0x21
 17737 0c7a 71       		.byte	0x71
 17738 0c7b 00       		.sleb128 0
 17739 0c7c 31       		.byte	0x31
 17740 0c7d 1A       		.byte	0x1a
 17741 0c7e 71       		.byte	0x71
 17742 0c7f 00       		.sleb128 0
 17743 0c80 4E       		.byte	0x4e
 17744 0c81 24       		.byte	0x24
 17745 0c82 30       		.byte	0x30
 17746 0c83 2D       		.byte	0x2d
 17747 0c84 28       		.byte	0x28
 17748 0c85 0100     		.2byte	0x1
 17749 0c87 16       		.byte	0x16
 17750 0c88 13       		.byte	0x13
 17751 0c89 38       		.byte	0x38
 17752 0c8a 21       		.byte	0x21
 17753 0c8b 71       		.byte	0x71
 17754 0c8c 00       		.sleb128 0
 17755 0c8d 31       		.byte	0x31
 17756 0c8e 1A       		.byte	0x1a
 17757 0c8f 32       		.byte	0x32
 17758 0c90 21       		.byte	0x21
 17759 0c91 71       		.byte	0x71
ARM GAS  /tmp/ccDzFi87.s 			page 313


 17760 0c92 00       		.sleb128 0
 17761 0c93 31       		.byte	0x31
 17762 0c94 1A       		.byte	0x1a
 17763 0c95 71       		.byte	0x71
 17764 0c96 00       		.sleb128 0
 17765 0c97 4E       		.byte	0x4e
 17766 0c98 24       		.byte	0x24
 17767 0c99 30       		.byte	0x30
 17768 0c9a 2D       		.byte	0x2d
 17769 0c9b 28       		.byte	0x28
 17770 0c9c 0100     		.2byte	0x1
 17771 0c9e 16       		.byte	0x16
 17772 0c9f 13       		.byte	0x13
 17773 0ca0 71       		.byte	0x71
 17774 0ca1 00       		.sleb128 0
 17775 0ca2 4D       		.byte	0x4d
 17776 0ca3 24       		.byte	0x24
 17777 0ca4 30       		.byte	0x30
 17778 0ca5 2D       		.byte	0x2d
 17779 0ca6 28       		.byte	0x28
 17780 0ca7 0100     		.2byte	0x1
 17781 0ca9 16       		.byte	0x16
 17782 0caa 13       		.byte	0x13
 17783 0cab 34       		.byte	0x34
 17784 0cac 21       		.byte	0x21
 17785 0cad 71       		.byte	0x71
 17786 0cae 00       		.sleb128 0
 17787 0caf 31       		.byte	0x31
 17788 0cb0 1A       		.byte	0x1a
 17789 0cb1 32       		.byte	0x32
 17790 0cb2 21       		.byte	0x21
 17791 0cb3 71       		.byte	0x71
 17792 0cb4 00       		.sleb128 0
 17793 0cb5 31       		.byte	0x31
 17794 0cb6 1A       		.byte	0x1a
 17795 0cb7 71       		.byte	0x71
 17796 0cb8 00       		.sleb128 0
 17797 0cb9 4E       		.byte	0x4e
 17798 0cba 24       		.byte	0x24
 17799 0cbb 30       		.byte	0x30
 17800 0cbc 2D       		.byte	0x2d
 17801 0cbd 28       		.byte	0x28
 17802 0cbe 0100     		.2byte	0x1
 17803 0cc0 16       		.byte	0x16
 17804 0cc1 13       		.byte	0x13
 17805 0cc2 38       		.byte	0x38
 17806 0cc3 21       		.byte	0x21
 17807 0cc4 71       		.byte	0x71
 17808 0cc5 00       		.sleb128 0
 17809 0cc6 31       		.byte	0x31
 17810 0cc7 1A       		.byte	0x1a
 17811 0cc8 32       		.byte	0x32
 17812 0cc9 21       		.byte	0x21
 17813 0cca 71       		.byte	0x71
 17814 0ccb 00       		.sleb128 0
 17815 0ccc 31       		.byte	0x31
 17816 0ccd 1A       		.byte	0x1a
ARM GAS  /tmp/ccDzFi87.s 			page 314


 17817 0cce 71       		.byte	0x71
 17818 0ccf 00       		.sleb128 0
 17819 0cd0 4E       		.byte	0x4e
 17820 0cd1 24       		.byte	0x24
 17821 0cd2 30       		.byte	0x30
 17822 0cd3 2D       		.byte	0x2d
 17823 0cd4 28       		.byte	0x28
 17824 0cd5 0100     		.2byte	0x1
 17825 0cd7 16       		.byte	0x16
 17826 0cd8 13       		.byte	0x13
 17827 0cd9 71       		.byte	0x71
 17828 0cda 00       		.sleb128 0
 17829 0cdb 4D       		.byte	0x4d
 17830 0cdc 24       		.byte	0x24
 17831 0cdd 30       		.byte	0x30
 17832 0cde 2D       		.byte	0x2d
 17833 0cdf 28       		.byte	0x28
 17834 0ce0 0100     		.2byte	0x1
 17835 0ce2 16       		.byte	0x16
 17836 0ce3 13       		.byte	0x13
 17837 0ce4 71       		.byte	0x71
 17838 0ce5 00       		.sleb128 0
 17839 0ce6 4C       		.byte	0x4c
 17840 0ce7 24       		.byte	0x24
 17841 0ce8 30       		.byte	0x30
 17842 0ce9 2D       		.byte	0x2d
 17843 0cea 28       		.byte	0x28
 17844 0ceb 0100     		.2byte	0x1
 17845 0ced 16       		.byte	0x16
 17846 0cee 13       		.byte	0x13
 17847 0cef 40       		.byte	0x40
 17848 0cf0 21       		.byte	0x21
 17849 0cf1 71       		.byte	0x71
 17850 0cf2 00       		.sleb128 0
 17851 0cf3 31       		.byte	0x31
 17852 0cf4 1A       		.byte	0x1a
 17853 0cf5 32       		.byte	0x32
 17854 0cf6 21       		.byte	0x21
 17855 0cf7 71       		.byte	0x71
 17856 0cf8 00       		.sleb128 0
 17857 0cf9 31       		.byte	0x31
 17858 0cfa 1A       		.byte	0x1a
 17859 0cfb 71       		.byte	0x71
 17860 0cfc 00       		.sleb128 0
 17861 0cfd 4E       		.byte	0x4e
 17862 0cfe 24       		.byte	0x24
 17863 0cff 30       		.byte	0x30
 17864 0d00 2D       		.byte	0x2d
 17865 0d01 28       		.byte	0x28
 17866 0d02 0100     		.2byte	0x1
 17867 0d04 16       		.byte	0x16
 17868 0d05 13       		.byte	0x13
 17869 0d06 38       		.byte	0x38
 17870 0d07 21       		.byte	0x21
 17871 0d08 71       		.byte	0x71
 17872 0d09 00       		.sleb128 0
 17873 0d0a 31       		.byte	0x31
ARM GAS  /tmp/ccDzFi87.s 			page 315


 17874 0d0b 1A       		.byte	0x1a
 17875 0d0c 32       		.byte	0x32
 17876 0d0d 21       		.byte	0x21
 17877 0d0e 71       		.byte	0x71
 17878 0d0f 00       		.sleb128 0
 17879 0d10 31       		.byte	0x31
 17880 0d11 1A       		.byte	0x1a
 17881 0d12 71       		.byte	0x71
 17882 0d13 00       		.sleb128 0
 17883 0d14 4E       		.byte	0x4e
 17884 0d15 24       		.byte	0x24
 17885 0d16 30       		.byte	0x30
 17886 0d17 2D       		.byte	0x2d
 17887 0d18 28       		.byte	0x28
 17888 0d19 0100     		.2byte	0x1
 17889 0d1b 16       		.byte	0x16
 17890 0d1c 13       		.byte	0x13
 17891 0d1d 71       		.byte	0x71
 17892 0d1e 00       		.sleb128 0
 17893 0d1f 4D       		.byte	0x4d
 17894 0d20 24       		.byte	0x24
 17895 0d21 30       		.byte	0x30
 17896 0d22 2D       		.byte	0x2d
 17897 0d23 28       		.byte	0x28
 17898 0d24 0100     		.2byte	0x1
 17899 0d26 16       		.byte	0x16
 17900 0d27 13       		.byte	0x13
 17901 0d28 34       		.byte	0x34
 17902 0d29 21       		.byte	0x21
 17903 0d2a 71       		.byte	0x71
 17904 0d2b 00       		.sleb128 0
 17905 0d2c 31       		.byte	0x31
 17906 0d2d 1A       		.byte	0x1a
 17907 0d2e 32       		.byte	0x32
 17908 0d2f 21       		.byte	0x21
 17909 0d30 71       		.byte	0x71
 17910 0d31 00       		.sleb128 0
 17911 0d32 31       		.byte	0x31
 17912 0d33 1A       		.byte	0x1a
 17913 0d34 71       		.byte	0x71
 17914 0d35 00       		.sleb128 0
 17915 0d36 4E       		.byte	0x4e
 17916 0d37 24       		.byte	0x24
 17917 0d38 30       		.byte	0x30
 17918 0d39 2D       		.byte	0x2d
 17919 0d3a 28       		.byte	0x28
 17920 0d3b 0100     		.2byte	0x1
 17921 0d3d 16       		.byte	0x16
 17922 0d3e 13       		.byte	0x13
 17923 0d3f 38       		.byte	0x38
 17924 0d40 21       		.byte	0x21
 17925 0d41 71       		.byte	0x71
 17926 0d42 00       		.sleb128 0
 17927 0d43 31       		.byte	0x31
 17928 0d44 1A       		.byte	0x1a
 17929 0d45 32       		.byte	0x32
 17930 0d46 21       		.byte	0x21
ARM GAS  /tmp/ccDzFi87.s 			page 316


 17931 0d47 71       		.byte	0x71
 17932 0d48 00       		.sleb128 0
 17933 0d49 31       		.byte	0x31
 17934 0d4a 1A       		.byte	0x1a
 17935 0d4b 71       		.byte	0x71
 17936 0d4c 00       		.sleb128 0
 17937 0d4d 4E       		.byte	0x4e
 17938 0d4e 24       		.byte	0x24
 17939 0d4f 30       		.byte	0x30
 17940 0d50 2D       		.byte	0x2d
 17941 0d51 28       		.byte	0x28
 17942 0d52 0100     		.2byte	0x1
 17943 0d54 16       		.byte	0x16
 17944 0d55 13       		.byte	0x13
 17945 0d56 71       		.byte	0x71
 17946 0d57 00       		.sleb128 0
 17947 0d58 4D       		.byte	0x4d
 17948 0d59 24       		.byte	0x24
 17949 0d5a 30       		.byte	0x30
 17950 0d5b 2D       		.byte	0x2d
 17951 0d5c 28       		.byte	0x28
 17952 0d5d 0100     		.2byte	0x1
 17953 0d5f 16       		.byte	0x16
 17954 0d60 13       		.byte	0x13
 17955 0d61 71       		.byte	0x71
 17956 0d62 00       		.sleb128 0
 17957 0d63 4C       		.byte	0x4c
 17958 0d64 24       		.byte	0x24
 17959 0d65 30       		.byte	0x30
 17960 0d66 2D       		.byte	0x2d
 17961 0d67 28       		.byte	0x28
 17962 0d68 0100     		.2byte	0x1
 17963 0d6a 16       		.byte	0x16
 17964 0d6b 13       		.byte	0x13
 17965 0d6c 71       		.byte	0x71
 17966 0d6d 00       		.sleb128 0
 17967 0d6e 4B       		.byte	0x4b
 17968 0d6f 24       		.byte	0x24
 17969 0d70 30       		.byte	0x30
 17970 0d71 2D       		.byte	0x2d
 17971 0d72 28       		.byte	0x28
 17972 0d73 0100     		.2byte	0x1
 17973 0d75 16       		.byte	0x16
 17974 0d76 13       		.byte	0x13
 17975 0d77 71       		.byte	0x71
 17976 0d78 00       		.sleb128 0
 17977 0d79 4A       		.byte	0x4a
 17978 0d7a 24       		.byte	0x24
 17979 0d7b 30       		.byte	0x30
 17980 0d7c 2D       		.byte	0x2d
 17981 0d7d 28       		.byte	0x28
 17982 0d7e 0100     		.2byte	0x1
 17983 0d80 16       		.byte	0x16
 17984 0d81 13       		.byte	0x13
 17985 0d82 08       		.byte	0x8
 17986 0d83 40       		.byte	0x40
 17987 0d84 21       		.byte	0x21
ARM GAS  /tmp/ccDzFi87.s 			page 317


 17988 0d85 71       		.byte	0x71
 17989 0d86 00       		.sleb128 0
 17990 0d87 31       		.byte	0x31
 17991 0d88 1A       		.byte	0x1a
 17992 0d89 32       		.byte	0x32
 17993 0d8a 21       		.byte	0x21
 17994 0d8b 71       		.byte	0x71
 17995 0d8c 00       		.sleb128 0
 17996 0d8d 31       		.byte	0x31
 17997 0d8e 1A       		.byte	0x1a
 17998 0d8f 71       		.byte	0x71
 17999 0d90 00       		.sleb128 0
 18000 0d91 4E       		.byte	0x4e
 18001 0d92 24       		.byte	0x24
 18002 0d93 30       		.byte	0x30
 18003 0d94 2D       		.byte	0x2d
 18004 0d95 28       		.byte	0x28
 18005 0d96 0100     		.2byte	0x1
 18006 0d98 16       		.byte	0x16
 18007 0d99 13       		.byte	0x13
 18008 0d9a 38       		.byte	0x38
 18009 0d9b 21       		.byte	0x21
 18010 0d9c 71       		.byte	0x71
 18011 0d9d 00       		.sleb128 0
 18012 0d9e 31       		.byte	0x31
 18013 0d9f 1A       		.byte	0x1a
 18014 0da0 32       		.byte	0x32
 18015 0da1 21       		.byte	0x21
 18016 0da2 71       		.byte	0x71
 18017 0da3 00       		.sleb128 0
 18018 0da4 31       		.byte	0x31
 18019 0da5 1A       		.byte	0x1a
 18020 0da6 71       		.byte	0x71
 18021 0da7 00       		.sleb128 0
 18022 0da8 4E       		.byte	0x4e
 18023 0da9 24       		.byte	0x24
 18024 0daa 30       		.byte	0x30
 18025 0dab 2D       		.byte	0x2d
 18026 0dac 28       		.byte	0x28
 18027 0dad 0100     		.2byte	0x1
 18028 0daf 16       		.byte	0x16
 18029 0db0 13       		.byte	0x13
 18030 0db1 71       		.byte	0x71
 18031 0db2 00       		.sleb128 0
 18032 0db3 4D       		.byte	0x4d
 18033 0db4 24       		.byte	0x24
 18034 0db5 30       		.byte	0x30
 18035 0db6 2D       		.byte	0x2d
 18036 0db7 28       		.byte	0x28
 18037 0db8 0100     		.2byte	0x1
 18038 0dba 16       		.byte	0x16
 18039 0dbb 13       		.byte	0x13
 18040 0dbc 34       		.byte	0x34
 18041 0dbd 21       		.byte	0x21
 18042 0dbe 71       		.byte	0x71
 18043 0dbf 00       		.sleb128 0
 18044 0dc0 31       		.byte	0x31
ARM GAS  /tmp/ccDzFi87.s 			page 318


 18045 0dc1 1A       		.byte	0x1a
 18046 0dc2 32       		.byte	0x32
 18047 0dc3 21       		.byte	0x21
 18048 0dc4 71       		.byte	0x71
 18049 0dc5 00       		.sleb128 0
 18050 0dc6 31       		.byte	0x31
 18051 0dc7 1A       		.byte	0x1a
 18052 0dc8 71       		.byte	0x71
 18053 0dc9 00       		.sleb128 0
 18054 0dca 4E       		.byte	0x4e
 18055 0dcb 24       		.byte	0x24
 18056 0dcc 30       		.byte	0x30
 18057 0dcd 2D       		.byte	0x2d
 18058 0dce 28       		.byte	0x28
 18059 0dcf 0100     		.2byte	0x1
 18060 0dd1 16       		.byte	0x16
 18061 0dd2 13       		.byte	0x13
 18062 0dd3 38       		.byte	0x38
 18063 0dd4 21       		.byte	0x21
 18064 0dd5 71       		.byte	0x71
 18065 0dd6 00       		.sleb128 0
 18066 0dd7 31       		.byte	0x31
 18067 0dd8 1A       		.byte	0x1a
 18068 0dd9 32       		.byte	0x32
 18069 0dda 21       		.byte	0x21
 18070 0ddb 71       		.byte	0x71
 18071 0ddc 00       		.sleb128 0
 18072 0ddd 31       		.byte	0x31
 18073 0dde 1A       		.byte	0x1a
 18074 0ddf 71       		.byte	0x71
 18075 0de0 00       		.sleb128 0
 18076 0de1 4E       		.byte	0x4e
 18077 0de2 24       		.byte	0x24
 18078 0de3 30       		.byte	0x30
 18079 0de4 2D       		.byte	0x2d
 18080 0de5 28       		.byte	0x28
 18081 0de6 0100     		.2byte	0x1
 18082 0de8 16       		.byte	0x16
 18083 0de9 13       		.byte	0x13
 18084 0dea 71       		.byte	0x71
 18085 0deb 00       		.sleb128 0
 18086 0dec 4D       		.byte	0x4d
 18087 0ded 24       		.byte	0x24
 18088 0dee 30       		.byte	0x30
 18089 0def 2D       		.byte	0x2d
 18090 0df0 28       		.byte	0x28
 18091 0df1 0100     		.2byte	0x1
 18092 0df3 16       		.byte	0x16
 18093 0df4 13       		.byte	0x13
 18094 0df5 71       		.byte	0x71
 18095 0df6 00       		.sleb128 0
 18096 0df7 4C       		.byte	0x4c
 18097 0df8 24       		.byte	0x24
 18098 0df9 30       		.byte	0x30
 18099 0dfa 2D       		.byte	0x2d
 18100 0dfb 28       		.byte	0x28
 18101 0dfc 0100     		.2byte	0x1
ARM GAS  /tmp/ccDzFi87.s 			page 319


 18102 0dfe 16       		.byte	0x16
 18103 0dff 13       		.byte	0x13
 18104 0e00 40       		.byte	0x40
 18105 0e01 21       		.byte	0x21
 18106 0e02 71       		.byte	0x71
 18107 0e03 00       		.sleb128 0
 18108 0e04 31       		.byte	0x31
 18109 0e05 1A       		.byte	0x1a
 18110 0e06 32       		.byte	0x32
 18111 0e07 21       		.byte	0x21
 18112 0e08 71       		.byte	0x71
 18113 0e09 00       		.sleb128 0
 18114 0e0a 31       		.byte	0x31
 18115 0e0b 1A       		.byte	0x1a
 18116 0e0c 71       		.byte	0x71
 18117 0e0d 00       		.sleb128 0
 18118 0e0e 4E       		.byte	0x4e
 18119 0e0f 24       		.byte	0x24
 18120 0e10 30       		.byte	0x30
 18121 0e11 2D       		.byte	0x2d
 18122 0e12 28       		.byte	0x28
 18123 0e13 0100     		.2byte	0x1
 18124 0e15 16       		.byte	0x16
 18125 0e16 13       		.byte	0x13
 18126 0e17 38       		.byte	0x38
 18127 0e18 21       		.byte	0x21
 18128 0e19 71       		.byte	0x71
 18129 0e1a 00       		.sleb128 0
 18130 0e1b 31       		.byte	0x31
 18131 0e1c 1A       		.byte	0x1a
 18132 0e1d 32       		.byte	0x32
 18133 0e1e 21       		.byte	0x21
 18134 0e1f 71       		.byte	0x71
 18135 0e20 00       		.sleb128 0
 18136 0e21 31       		.byte	0x31
 18137 0e22 1A       		.byte	0x1a
 18138 0e23 71       		.byte	0x71
 18139 0e24 00       		.sleb128 0
 18140 0e25 4E       		.byte	0x4e
 18141 0e26 24       		.byte	0x24
 18142 0e27 30       		.byte	0x30
 18143 0e28 2D       		.byte	0x2d
 18144 0e29 28       		.byte	0x28
 18145 0e2a 0100     		.2byte	0x1
 18146 0e2c 16       		.byte	0x16
 18147 0e2d 13       		.byte	0x13
 18148 0e2e 71       		.byte	0x71
 18149 0e2f 00       		.sleb128 0
 18150 0e30 4D       		.byte	0x4d
 18151 0e31 24       		.byte	0x24
 18152 0e32 30       		.byte	0x30
 18153 0e33 2D       		.byte	0x2d
 18154 0e34 28       		.byte	0x28
 18155 0e35 0100     		.2byte	0x1
 18156 0e37 16       		.byte	0x16
 18157 0e38 13       		.byte	0x13
 18158 0e39 34       		.byte	0x34
ARM GAS  /tmp/ccDzFi87.s 			page 320


 18159 0e3a 21       		.byte	0x21
 18160 0e3b 71       		.byte	0x71
 18161 0e3c 00       		.sleb128 0
 18162 0e3d 31       		.byte	0x31
 18163 0e3e 1A       		.byte	0x1a
 18164 0e3f 32       		.byte	0x32
 18165 0e40 21       		.byte	0x21
 18166 0e41 71       		.byte	0x71
 18167 0e42 00       		.sleb128 0
 18168 0e43 31       		.byte	0x31
 18169 0e44 1A       		.byte	0x1a
 18170 0e45 71       		.byte	0x71
 18171 0e46 00       		.sleb128 0
 18172 0e47 4E       		.byte	0x4e
 18173 0e48 24       		.byte	0x24
 18174 0e49 30       		.byte	0x30
 18175 0e4a 2D       		.byte	0x2d
 18176 0e4b 28       		.byte	0x28
 18177 0e4c 0100     		.2byte	0x1
 18178 0e4e 16       		.byte	0x16
 18179 0e4f 13       		.byte	0x13
 18180 0e50 38       		.byte	0x38
 18181 0e51 21       		.byte	0x21
 18182 0e52 71       		.byte	0x71
 18183 0e53 00       		.sleb128 0
 18184 0e54 31       		.byte	0x31
 18185 0e55 1A       		.byte	0x1a
 18186 0e56 32       		.byte	0x32
 18187 0e57 21       		.byte	0x21
 18188 0e58 71       		.byte	0x71
 18189 0e59 00       		.sleb128 0
 18190 0e5a 31       		.byte	0x31
 18191 0e5b 1A       		.byte	0x1a
 18192 0e5c 71       		.byte	0x71
 18193 0e5d 00       		.sleb128 0
 18194 0e5e 4E       		.byte	0x4e
 18195 0e5f 24       		.byte	0x24
 18196 0e60 30       		.byte	0x30
 18197 0e61 2D       		.byte	0x2d
 18198 0e62 28       		.byte	0x28
 18199 0e63 0100     		.2byte	0x1
 18200 0e65 16       		.byte	0x16
 18201 0e66 13       		.byte	0x13
 18202 0e67 71       		.byte	0x71
 18203 0e68 00       		.sleb128 0
 18204 0e69 4D       		.byte	0x4d
 18205 0e6a 24       		.byte	0x24
 18206 0e6b 30       		.byte	0x30
 18207 0e6c 2D       		.byte	0x2d
 18208 0e6d 28       		.byte	0x28
 18209 0e6e 0100     		.2byte	0x1
 18210 0e70 16       		.byte	0x16
 18211 0e71 13       		.byte	0x13
 18212 0e72 71       		.byte	0x71
 18213 0e73 00       		.sleb128 0
 18214 0e74 4C       		.byte	0x4c
 18215 0e75 24       		.byte	0x24
ARM GAS  /tmp/ccDzFi87.s 			page 321


 18216 0e76 30       		.byte	0x30
 18217 0e77 2D       		.byte	0x2d
 18218 0e78 28       		.byte	0x28
 18219 0e79 0100     		.2byte	0x1
 18220 0e7b 16       		.byte	0x16
 18221 0e7c 13       		.byte	0x13
 18222 0e7d 71       		.byte	0x71
 18223 0e7e 00       		.sleb128 0
 18224 0e7f 4B       		.byte	0x4b
 18225 0e80 24       		.byte	0x24
 18226 0e81 30       		.byte	0x30
 18227 0e82 2D       		.byte	0x2d
 18228 0e83 28       		.byte	0x28
 18229 0e84 0100     		.2byte	0x1
 18230 0e86 16       		.byte	0x16
 18231 0e87 13       		.byte	0x13
 18232 0e88 08       		.byte	0x8
 18233 0e89 20       		.byte	0x20
 18234 0e8a 21       		.byte	0x21
 18235 0e8b 71       		.byte	0x71
 18236 0e8c 00       		.sleb128 0
 18237 0e8d 31       		.byte	0x31
 18238 0e8e 1A       		.byte	0x1a
 18239 0e8f 32       		.byte	0x32
 18240 0e90 21       		.byte	0x21
 18241 0e91 71       		.byte	0x71
 18242 0e92 00       		.sleb128 0
 18243 0e93 31       		.byte	0x31
 18244 0e94 1A       		.byte	0x1a
 18245 0e95 71       		.byte	0x71
 18246 0e96 00       		.sleb128 0
 18247 0e97 4E       		.byte	0x4e
 18248 0e98 24       		.byte	0x24
 18249 0e99 30       		.byte	0x30
 18250 0e9a 2D       		.byte	0x2d
 18251 0e9b 28       		.byte	0x28
 18252 0e9c 0100     		.2byte	0x1
 18253 0e9e 16       		.byte	0x16
 18254 0e9f 13       		.byte	0x13
 18255 0ea0 38       		.byte	0x38
 18256 0ea1 21       		.byte	0x21
 18257 0ea2 71       		.byte	0x71
 18258 0ea3 00       		.sleb128 0
 18259 0ea4 31       		.byte	0x31
 18260 0ea5 1A       		.byte	0x1a
 18261 0ea6 32       		.byte	0x32
 18262 0ea7 21       		.byte	0x21
 18263 0ea8 71       		.byte	0x71
 18264 0ea9 00       		.sleb128 0
 18265 0eaa 31       		.byte	0x31
 18266 0eab 1A       		.byte	0x1a
 18267 0eac 71       		.byte	0x71
 18268 0ead 00       		.sleb128 0
 18269 0eae 4E       		.byte	0x4e
 18270 0eaf 24       		.byte	0x24
 18271 0eb0 30       		.byte	0x30
 18272 0eb1 2D       		.byte	0x2d
ARM GAS  /tmp/ccDzFi87.s 			page 322


 18273 0eb2 28       		.byte	0x28
 18274 0eb3 0100     		.2byte	0x1
 18275 0eb5 16       		.byte	0x16
 18276 0eb6 13       		.byte	0x13
 18277 0eb7 71       		.byte	0x71
 18278 0eb8 00       		.sleb128 0
 18279 0eb9 4D       		.byte	0x4d
 18280 0eba 24       		.byte	0x24
 18281 0ebb 30       		.byte	0x30
 18282 0ebc 2D       		.byte	0x2d
 18283 0ebd 28       		.byte	0x28
 18284 0ebe 0100     		.2byte	0x1
 18285 0ec0 16       		.byte	0x16
 18286 0ec1 13       		.byte	0x13
 18287 0ec2 34       		.byte	0x34
 18288 0ec3 21       		.byte	0x21
 18289 0ec4 71       		.byte	0x71
 18290 0ec5 00       		.sleb128 0
 18291 0ec6 31       		.byte	0x31
 18292 0ec7 1A       		.byte	0x1a
 18293 0ec8 32       		.byte	0x32
 18294 0ec9 21       		.byte	0x21
 18295 0eca 71       		.byte	0x71
 18296 0ecb 00       		.sleb128 0
 18297 0ecc 31       		.byte	0x31
 18298 0ecd 1A       		.byte	0x1a
 18299 0ece 71       		.byte	0x71
 18300 0ecf 00       		.sleb128 0
 18301 0ed0 4E       		.byte	0x4e
 18302 0ed1 24       		.byte	0x24
 18303 0ed2 30       		.byte	0x30
 18304 0ed3 2D       		.byte	0x2d
 18305 0ed4 28       		.byte	0x28
 18306 0ed5 0100     		.2byte	0x1
 18307 0ed7 16       		.byte	0x16
 18308 0ed8 13       		.byte	0x13
 18309 0ed9 38       		.byte	0x38
 18310 0eda 21       		.byte	0x21
 18311 0edb 71       		.byte	0x71
 18312 0edc 00       		.sleb128 0
 18313 0edd 31       		.byte	0x31
 18314 0ede 1A       		.byte	0x1a
 18315 0edf 32       		.byte	0x32
 18316 0ee0 21       		.byte	0x21
 18317 0ee1 71       		.byte	0x71
 18318 0ee2 00       		.sleb128 0
 18319 0ee3 31       		.byte	0x31
 18320 0ee4 1A       		.byte	0x1a
 18321 0ee5 71       		.byte	0x71
 18322 0ee6 00       		.sleb128 0
 18323 0ee7 4E       		.byte	0x4e
 18324 0ee8 24       		.byte	0x24
 18325 0ee9 30       		.byte	0x30
 18326 0eea 2D       		.byte	0x2d
 18327 0eeb 28       		.byte	0x28
 18328 0eec 0100     		.2byte	0x1
 18329 0eee 16       		.byte	0x16
ARM GAS  /tmp/ccDzFi87.s 			page 323


 18330 0eef 13       		.byte	0x13
 18331 0ef0 71       		.byte	0x71
 18332 0ef1 00       		.sleb128 0
 18333 0ef2 4D       		.byte	0x4d
 18334 0ef3 24       		.byte	0x24
 18335 0ef4 30       		.byte	0x30
 18336 0ef5 2D       		.byte	0x2d
 18337 0ef6 28       		.byte	0x28
 18338 0ef7 0100     		.2byte	0x1
 18339 0ef9 16       		.byte	0x16
 18340 0efa 13       		.byte	0x13
 18341 0efb 71       		.byte	0x71
 18342 0efc 00       		.sleb128 0
 18343 0efd 4C       		.byte	0x4c
 18344 0efe 24       		.byte	0x24
 18345 0eff 30       		.byte	0x30
 18346 0f00 2D       		.byte	0x2d
 18347 0f01 28       		.byte	0x28
 18348 0f02 0100     		.2byte	0x1
 18349 0f04 16       		.byte	0x16
 18350 0f05 13       		.byte	0x13
 18351 0f06 40       		.byte	0x40
 18352 0f07 21       		.byte	0x21
 18353 0f08 71       		.byte	0x71
 18354 0f09 00       		.sleb128 0
 18355 0f0a 31       		.byte	0x31
 18356 0f0b 1A       		.byte	0x1a
 18357 0f0c 32       		.byte	0x32
 18358 0f0d 21       		.byte	0x21
 18359 0f0e 71       		.byte	0x71
 18360 0f0f 00       		.sleb128 0
 18361 0f10 31       		.byte	0x31
 18362 0f11 1A       		.byte	0x1a
 18363 0f12 71       		.byte	0x71
 18364 0f13 00       		.sleb128 0
 18365 0f14 4E       		.byte	0x4e
 18366 0f15 24       		.byte	0x24
 18367 0f16 30       		.byte	0x30
 18368 0f17 2D       		.byte	0x2d
 18369 0f18 28       		.byte	0x28
 18370 0f19 0100     		.2byte	0x1
 18371 0f1b 16       		.byte	0x16
 18372 0f1c 13       		.byte	0x13
 18373 0f1d 38       		.byte	0x38
 18374 0f1e 21       		.byte	0x21
 18375 0f1f 71       		.byte	0x71
 18376 0f20 00       		.sleb128 0
 18377 0f21 31       		.byte	0x31
 18378 0f22 1A       		.byte	0x1a
 18379 0f23 32       		.byte	0x32
 18380 0f24 21       		.byte	0x21
 18381 0f25 71       		.byte	0x71
 18382 0f26 00       		.sleb128 0
 18383 0f27 31       		.byte	0x31
 18384 0f28 1A       		.byte	0x1a
 18385 0f29 71       		.byte	0x71
 18386 0f2a 00       		.sleb128 0
ARM GAS  /tmp/ccDzFi87.s 			page 324


 18387 0f2b 4E       		.byte	0x4e
 18388 0f2c 24       		.byte	0x24
 18389 0f2d 30       		.byte	0x30
 18390 0f2e 2D       		.byte	0x2d
 18391 0f2f 28       		.byte	0x28
 18392 0f30 0100     		.2byte	0x1
 18393 0f32 16       		.byte	0x16
 18394 0f33 13       		.byte	0x13
 18395 0f34 71       		.byte	0x71
 18396 0f35 00       		.sleb128 0
 18397 0f36 4D       		.byte	0x4d
 18398 0f37 24       		.byte	0x24
 18399 0f38 30       		.byte	0x30
 18400 0f39 2D       		.byte	0x2d
 18401 0f3a 28       		.byte	0x28
 18402 0f3b 0100     		.2byte	0x1
 18403 0f3d 16       		.byte	0x16
 18404 0f3e 13       		.byte	0x13
 18405 0f3f 34       		.byte	0x34
 18406 0f40 21       		.byte	0x21
 18407 0f41 71       		.byte	0x71
 18408 0f42 00       		.sleb128 0
 18409 0f43 31       		.byte	0x31
 18410 0f44 1A       		.byte	0x1a
 18411 0f45 32       		.byte	0x32
 18412 0f46 21       		.byte	0x21
 18413 0f47 71       		.byte	0x71
 18414 0f48 00       		.sleb128 0
 18415 0f49 31       		.byte	0x31
 18416 0f4a 1A       		.byte	0x1a
 18417 0f4b 71       		.byte	0x71
 18418 0f4c 00       		.sleb128 0
 18419 0f4d 4E       		.byte	0x4e
 18420 0f4e 24       		.byte	0x24
 18421 0f4f 30       		.byte	0x30
 18422 0f50 2D       		.byte	0x2d
 18423 0f51 28       		.byte	0x28
 18424 0f52 0100     		.2byte	0x1
 18425 0f54 16       		.byte	0x16
 18426 0f55 13       		.byte	0x13
 18427 0f56 38       		.byte	0x38
 18428 0f57 21       		.byte	0x21
 18429 0f58 71       		.byte	0x71
 18430 0f59 00       		.sleb128 0
 18431 0f5a 31       		.byte	0x31
 18432 0f5b 1A       		.byte	0x1a
 18433 0f5c 32       		.byte	0x32
 18434 0f5d 21       		.byte	0x21
 18435 0f5e 71       		.byte	0x71
 18436 0f5f 00       		.sleb128 0
 18437 0f60 31       		.byte	0x31
 18438 0f61 1A       		.byte	0x1a
 18439 0f62 71       		.byte	0x71
 18440 0f63 00       		.sleb128 0
 18441 0f64 4E       		.byte	0x4e
 18442 0f65 24       		.byte	0x24
 18443 0f66 30       		.byte	0x30
ARM GAS  /tmp/ccDzFi87.s 			page 325


 18444 0f67 2D       		.byte	0x2d
 18445 0f68 28       		.byte	0x28
 18446 0f69 0100     		.2byte	0x1
 18447 0f6b 16       		.byte	0x16
 18448 0f6c 13       		.byte	0x13
 18449 0f6d 71       		.byte	0x71
 18450 0f6e 00       		.sleb128 0
 18451 0f6f 4D       		.byte	0x4d
 18452 0f70 24       		.byte	0x24
 18453 0f71 30       		.byte	0x30
 18454 0f72 2D       		.byte	0x2d
 18455 0f73 28       		.byte	0x28
 18456 0f74 0100     		.2byte	0x1
 18457 0f76 16       		.byte	0x16
 18458 0f77 13       		.byte	0x13
 18459 0f78 71       		.byte	0x71
 18460 0f79 00       		.sleb128 0
 18461 0f7a 4C       		.byte	0x4c
 18462 0f7b 24       		.byte	0x24
 18463 0f7c 30       		.byte	0x30
 18464 0f7d 2D       		.byte	0x2d
 18465 0f7e 28       		.byte	0x28
 18466 0f7f 0100     		.2byte	0x1
 18467 0f81 16       		.byte	0x16
 18468 0f82 13       		.byte	0x13
 18469 0f83 71       		.byte	0x71
 18470 0f84 00       		.sleb128 0
 18471 0f85 4B       		.byte	0x4b
 18472 0f86 24       		.byte	0x24
 18473 0f87 30       		.byte	0x30
 18474 0f88 2D       		.byte	0x2d
 18475 0f89 28       		.byte	0x28
 18476 0f8a 0100     		.2byte	0x1
 18477 0f8c 16       		.byte	0x16
 18478 0f8d 13       		.byte	0x13
 18479 0f8e 71       		.byte	0x71
 18480 0f8f 00       		.sleb128 0
 18481 0f90 4A       		.byte	0x4a
 18482 0f91 24       		.byte	0x24
 18483 0f92 30       		.byte	0x30
 18484 0f93 2D       		.byte	0x2d
 18485 0f94 28       		.byte	0x28
 18486 0f95 0100     		.2byte	0x1
 18487 0f97 16       		.byte	0x16
 18488 0f98 13       		.byte	0x13
 18489 0f99 71       		.byte	0x71
 18490 0f9a 00       		.sleb128 0
 18491 0f9b 46       		.byte	0x46
 18492 0f9c 24       		.byte	0x24
 18493 0f9d 30       		.byte	0x30
 18494 0f9e 2D       		.byte	0x2d
 18495 0f9f 28       		.byte	0x28
 18496 0fa0 0100     		.2byte	0x1
 18497 0fa2 16       		.byte	0x16
 18498 0fa3 13       		.byte	0x13
 18499 0fa4 9F       		.byte	0x9f
 18500 0fa5 5B000000 		.4byte	.LVL11-1
ARM GAS  /tmp/ccDzFi87.s 			page 326


 18501 0fa9 60000000 		.4byte	.LFE280
 18502 0fad B604     		.2byte	0x4b6
 18503 0faf F3       		.byte	0xf3
 18504 0fb0 01       		.uleb128 0x1
 18505 0fb1 51       		.byte	0x51
 18506 0fb2 31       		.byte	0x31
 18507 0fb3 1A       		.byte	0x1a
 18508 0fb4 32       		.byte	0x32
 18509 0fb5 21       		.byte	0x21
 18510 0fb6 F3       		.byte	0xf3
 18511 0fb7 01       		.uleb128 0x1
 18512 0fb8 51       		.byte	0x51
 18513 0fb9 31       		.byte	0x31
 18514 0fba 1A       		.byte	0x1a
 18515 0fbb F3       		.byte	0xf3
 18516 0fbc 01       		.uleb128 0x1
 18517 0fbd 51       		.byte	0x51
 18518 0fbe 4E       		.byte	0x4e
 18519 0fbf 24       		.byte	0x24
 18520 0fc0 30       		.byte	0x30
 18521 0fc1 2D       		.byte	0x2d
 18522 0fc2 28       		.byte	0x28
 18523 0fc3 0100     		.2byte	0x1
 18524 0fc5 16       		.byte	0x16
 18525 0fc6 13       		.byte	0x13
 18526 0fc7 38       		.byte	0x38
 18527 0fc8 21       		.byte	0x21
 18528 0fc9 F3       		.byte	0xf3
 18529 0fca 01       		.uleb128 0x1
 18530 0fcb 51       		.byte	0x51
 18531 0fcc 31       		.byte	0x31
 18532 0fcd 1A       		.byte	0x1a
 18533 0fce 32       		.byte	0x32
 18534 0fcf 21       		.byte	0x21
 18535 0fd0 F3       		.byte	0xf3
 18536 0fd1 01       		.uleb128 0x1
 18537 0fd2 51       		.byte	0x51
 18538 0fd3 31       		.byte	0x31
 18539 0fd4 1A       		.byte	0x1a
 18540 0fd5 F3       		.byte	0xf3
 18541 0fd6 01       		.uleb128 0x1
 18542 0fd7 51       		.byte	0x51
 18543 0fd8 4E       		.byte	0x4e
 18544 0fd9 24       		.byte	0x24
 18545 0fda 30       		.byte	0x30
 18546 0fdb 2D       		.byte	0x2d
 18547 0fdc 28       		.byte	0x28
 18548 0fdd 0100     		.2byte	0x1
 18549 0fdf 16       		.byte	0x16
 18550 0fe0 13       		.byte	0x13
 18551 0fe1 F3       		.byte	0xf3
 18552 0fe2 01       		.uleb128 0x1
 18553 0fe3 51       		.byte	0x51
 18554 0fe4 4D       		.byte	0x4d
 18555 0fe5 24       		.byte	0x24
 18556 0fe6 30       		.byte	0x30
 18557 0fe7 2D       		.byte	0x2d
ARM GAS  /tmp/ccDzFi87.s 			page 327


 18558 0fe8 28       		.byte	0x28
 18559 0fe9 0100     		.2byte	0x1
 18560 0feb 16       		.byte	0x16
 18561 0fec 13       		.byte	0x13
 18562 0fed 34       		.byte	0x34
 18563 0fee 21       		.byte	0x21
 18564 0fef F3       		.byte	0xf3
 18565 0ff0 01       		.uleb128 0x1
 18566 0ff1 51       		.byte	0x51
 18567 0ff2 31       		.byte	0x31
 18568 0ff3 1A       		.byte	0x1a
 18569 0ff4 32       		.byte	0x32
 18570 0ff5 21       		.byte	0x21
 18571 0ff6 F3       		.byte	0xf3
 18572 0ff7 01       		.uleb128 0x1
 18573 0ff8 51       		.byte	0x51
 18574 0ff9 31       		.byte	0x31
 18575 0ffa 1A       		.byte	0x1a
 18576 0ffb F3       		.byte	0xf3
 18577 0ffc 01       		.uleb128 0x1
 18578 0ffd 51       		.byte	0x51
 18579 0ffe 4E       		.byte	0x4e
 18580 0fff 24       		.byte	0x24
 18581 1000 30       		.byte	0x30
 18582 1001 2D       		.byte	0x2d
 18583 1002 28       		.byte	0x28
 18584 1003 0100     		.2byte	0x1
 18585 1005 16       		.byte	0x16
 18586 1006 13       		.byte	0x13
 18587 1007 38       		.byte	0x38
 18588 1008 21       		.byte	0x21
 18589 1009 F3       		.byte	0xf3
 18590 100a 01       		.uleb128 0x1
 18591 100b 51       		.byte	0x51
 18592 100c 31       		.byte	0x31
 18593 100d 1A       		.byte	0x1a
 18594 100e 32       		.byte	0x32
 18595 100f 21       		.byte	0x21
 18596 1010 F3       		.byte	0xf3
 18597 1011 01       		.uleb128 0x1
 18598 1012 51       		.byte	0x51
 18599 1013 31       		.byte	0x31
 18600 1014 1A       		.byte	0x1a
 18601 1015 F3       		.byte	0xf3
 18602 1016 01       		.uleb128 0x1
 18603 1017 51       		.byte	0x51
 18604 1018 4E       		.byte	0x4e
 18605 1019 24       		.byte	0x24
 18606 101a 30       		.byte	0x30
 18607 101b 2D       		.byte	0x2d
 18608 101c 28       		.byte	0x28
 18609 101d 0100     		.2byte	0x1
 18610 101f 16       		.byte	0x16
 18611 1020 13       		.byte	0x13
 18612 1021 F3       		.byte	0xf3
 18613 1022 01       		.uleb128 0x1
 18614 1023 51       		.byte	0x51
ARM GAS  /tmp/ccDzFi87.s 			page 328


 18615 1024 4D       		.byte	0x4d
 18616 1025 24       		.byte	0x24
 18617 1026 30       		.byte	0x30
 18618 1027 2D       		.byte	0x2d
 18619 1028 28       		.byte	0x28
 18620 1029 0100     		.2byte	0x1
 18621 102b 16       		.byte	0x16
 18622 102c 13       		.byte	0x13
 18623 102d F3       		.byte	0xf3
 18624 102e 01       		.uleb128 0x1
 18625 102f 51       		.byte	0x51
 18626 1030 4C       		.byte	0x4c
 18627 1031 24       		.byte	0x24
 18628 1032 30       		.byte	0x30
 18629 1033 2D       		.byte	0x2d
 18630 1034 28       		.byte	0x28
 18631 1035 0100     		.2byte	0x1
 18632 1037 16       		.byte	0x16
 18633 1038 13       		.byte	0x13
 18634 1039 40       		.byte	0x40
 18635 103a 21       		.byte	0x21
 18636 103b F3       		.byte	0xf3
 18637 103c 01       		.uleb128 0x1
 18638 103d 51       		.byte	0x51
 18639 103e 31       		.byte	0x31
 18640 103f 1A       		.byte	0x1a
 18641 1040 32       		.byte	0x32
 18642 1041 21       		.byte	0x21
 18643 1042 F3       		.byte	0xf3
 18644 1043 01       		.uleb128 0x1
 18645 1044 51       		.byte	0x51
 18646 1045 31       		.byte	0x31
 18647 1046 1A       		.byte	0x1a
 18648 1047 F3       		.byte	0xf3
 18649 1048 01       		.uleb128 0x1
 18650 1049 51       		.byte	0x51
 18651 104a 4E       		.byte	0x4e
 18652 104b 24       		.byte	0x24
 18653 104c 30       		.byte	0x30
 18654 104d 2D       		.byte	0x2d
 18655 104e 28       		.byte	0x28
 18656 104f 0100     		.2byte	0x1
 18657 1051 16       		.byte	0x16
 18658 1052 13       		.byte	0x13
 18659 1053 38       		.byte	0x38
 18660 1054 21       		.byte	0x21
 18661 1055 F3       		.byte	0xf3
 18662 1056 01       		.uleb128 0x1
 18663 1057 51       		.byte	0x51
 18664 1058 31       		.byte	0x31
 18665 1059 1A       		.byte	0x1a
 18666 105a 32       		.byte	0x32
 18667 105b 21       		.byte	0x21
 18668 105c F3       		.byte	0xf3
 18669 105d 01       		.uleb128 0x1
 18670 105e 51       		.byte	0x51
 18671 105f 31       		.byte	0x31
ARM GAS  /tmp/ccDzFi87.s 			page 329


 18672 1060 1A       		.byte	0x1a
 18673 1061 F3       		.byte	0xf3
 18674 1062 01       		.uleb128 0x1
 18675 1063 51       		.byte	0x51
 18676 1064 4E       		.byte	0x4e
 18677 1065 24       		.byte	0x24
 18678 1066 30       		.byte	0x30
 18679 1067 2D       		.byte	0x2d
 18680 1068 28       		.byte	0x28
 18681 1069 0100     		.2byte	0x1
 18682 106b 16       		.byte	0x16
 18683 106c 13       		.byte	0x13
 18684 106d F3       		.byte	0xf3
 18685 106e 01       		.uleb128 0x1
 18686 106f 51       		.byte	0x51
 18687 1070 4D       		.byte	0x4d
 18688 1071 24       		.byte	0x24
 18689 1072 30       		.byte	0x30
 18690 1073 2D       		.byte	0x2d
 18691 1074 28       		.byte	0x28
 18692 1075 0100     		.2byte	0x1
 18693 1077 16       		.byte	0x16
 18694 1078 13       		.byte	0x13
 18695 1079 34       		.byte	0x34
 18696 107a 21       		.byte	0x21
 18697 107b F3       		.byte	0xf3
 18698 107c 01       		.uleb128 0x1
 18699 107d 51       		.byte	0x51
 18700 107e 31       		.byte	0x31
 18701 107f 1A       		.byte	0x1a
 18702 1080 32       		.byte	0x32
 18703 1081 21       		.byte	0x21
 18704 1082 F3       		.byte	0xf3
 18705 1083 01       		.uleb128 0x1
 18706 1084 51       		.byte	0x51
 18707 1085 31       		.byte	0x31
 18708 1086 1A       		.byte	0x1a
 18709 1087 F3       		.byte	0xf3
 18710 1088 01       		.uleb128 0x1
 18711 1089 51       		.byte	0x51
 18712 108a 4E       		.byte	0x4e
 18713 108b 24       		.byte	0x24
 18714 108c 30       		.byte	0x30
 18715 108d 2D       		.byte	0x2d
 18716 108e 28       		.byte	0x28
 18717 108f 0100     		.2byte	0x1
 18718 1091 16       		.byte	0x16
 18719 1092 13       		.byte	0x13
 18720 1093 38       		.byte	0x38
 18721 1094 21       		.byte	0x21
 18722 1095 F3       		.byte	0xf3
 18723 1096 01       		.uleb128 0x1
 18724 1097 51       		.byte	0x51
 18725 1098 31       		.byte	0x31
 18726 1099 1A       		.byte	0x1a
 18727 109a 32       		.byte	0x32
 18728 109b 21       		.byte	0x21
ARM GAS  /tmp/ccDzFi87.s 			page 330


 18729 109c F3       		.byte	0xf3
 18730 109d 01       		.uleb128 0x1
 18731 109e 51       		.byte	0x51
 18732 109f 31       		.byte	0x31
 18733 10a0 1A       		.byte	0x1a
 18734 10a1 F3       		.byte	0xf3
 18735 10a2 01       		.uleb128 0x1
 18736 10a3 51       		.byte	0x51
 18737 10a4 4E       		.byte	0x4e
 18738 10a5 24       		.byte	0x24
 18739 10a6 30       		.byte	0x30
 18740 10a7 2D       		.byte	0x2d
 18741 10a8 28       		.byte	0x28
 18742 10a9 0100     		.2byte	0x1
 18743 10ab 16       		.byte	0x16
 18744 10ac 13       		.byte	0x13
 18745 10ad F3       		.byte	0xf3
 18746 10ae 01       		.uleb128 0x1
 18747 10af 51       		.byte	0x51
 18748 10b0 4D       		.byte	0x4d
 18749 10b1 24       		.byte	0x24
 18750 10b2 30       		.byte	0x30
 18751 10b3 2D       		.byte	0x2d
 18752 10b4 28       		.byte	0x28
 18753 10b5 0100     		.2byte	0x1
 18754 10b7 16       		.byte	0x16
 18755 10b8 13       		.byte	0x13
 18756 10b9 F3       		.byte	0xf3
 18757 10ba 01       		.uleb128 0x1
 18758 10bb 51       		.byte	0x51
 18759 10bc 4C       		.byte	0x4c
 18760 10bd 24       		.byte	0x24
 18761 10be 30       		.byte	0x30
 18762 10bf 2D       		.byte	0x2d
 18763 10c0 28       		.byte	0x28
 18764 10c1 0100     		.2byte	0x1
 18765 10c3 16       		.byte	0x16
 18766 10c4 13       		.byte	0x13
 18767 10c5 F3       		.byte	0xf3
 18768 10c6 01       		.uleb128 0x1
 18769 10c7 51       		.byte	0x51
 18770 10c8 4B       		.byte	0x4b
 18771 10c9 24       		.byte	0x24
 18772 10ca 30       		.byte	0x30
 18773 10cb 2D       		.byte	0x2d
 18774 10cc 28       		.byte	0x28
 18775 10cd 0100     		.2byte	0x1
 18776 10cf 16       		.byte	0x16
 18777 10d0 13       		.byte	0x13
 18778 10d1 08       		.byte	0x8
 18779 10d2 20       		.byte	0x20
 18780 10d3 21       		.byte	0x21
 18781 10d4 F3       		.byte	0xf3
 18782 10d5 01       		.uleb128 0x1
 18783 10d6 51       		.byte	0x51
 18784 10d7 31       		.byte	0x31
 18785 10d8 1A       		.byte	0x1a
ARM GAS  /tmp/ccDzFi87.s 			page 331


 18786 10d9 32       		.byte	0x32
 18787 10da 21       		.byte	0x21
 18788 10db F3       		.byte	0xf3
 18789 10dc 01       		.uleb128 0x1
 18790 10dd 51       		.byte	0x51
 18791 10de 31       		.byte	0x31
 18792 10df 1A       		.byte	0x1a
 18793 10e0 F3       		.byte	0xf3
 18794 10e1 01       		.uleb128 0x1
 18795 10e2 51       		.byte	0x51
 18796 10e3 4E       		.byte	0x4e
 18797 10e4 24       		.byte	0x24
 18798 10e5 30       		.byte	0x30
 18799 10e6 2D       		.byte	0x2d
 18800 10e7 28       		.byte	0x28
 18801 10e8 0100     		.2byte	0x1
 18802 10ea 16       		.byte	0x16
 18803 10eb 13       		.byte	0x13
 18804 10ec 38       		.byte	0x38
 18805 10ed 21       		.byte	0x21
 18806 10ee F3       		.byte	0xf3
 18807 10ef 01       		.uleb128 0x1
 18808 10f0 51       		.byte	0x51
 18809 10f1 31       		.byte	0x31
 18810 10f2 1A       		.byte	0x1a
 18811 10f3 32       		.byte	0x32
 18812 10f4 21       		.byte	0x21
 18813 10f5 F3       		.byte	0xf3
 18814 10f6 01       		.uleb128 0x1
 18815 10f7 51       		.byte	0x51
 18816 10f8 31       		.byte	0x31
 18817 10f9 1A       		.byte	0x1a
 18818 10fa F3       		.byte	0xf3
 18819 10fb 01       		.uleb128 0x1
 18820 10fc 51       		.byte	0x51
 18821 10fd 4E       		.byte	0x4e
 18822 10fe 24       		.byte	0x24
 18823 10ff 30       		.byte	0x30
 18824 1100 2D       		.byte	0x2d
 18825 1101 28       		.byte	0x28
 18826 1102 0100     		.2byte	0x1
 18827 1104 16       		.byte	0x16
 18828 1105 13       		.byte	0x13
 18829 1106 F3       		.byte	0xf3
 18830 1107 01       		.uleb128 0x1
 18831 1108 51       		.byte	0x51
 18832 1109 4D       		.byte	0x4d
 18833 110a 24       		.byte	0x24
 18834 110b 30       		.byte	0x30
 18835 110c 2D       		.byte	0x2d
 18836 110d 28       		.byte	0x28
 18837 110e 0100     		.2byte	0x1
 18838 1110 16       		.byte	0x16
 18839 1111 13       		.byte	0x13
 18840 1112 34       		.byte	0x34
 18841 1113 21       		.byte	0x21
 18842 1114 F3       		.byte	0xf3
ARM GAS  /tmp/ccDzFi87.s 			page 332


 18843 1115 01       		.uleb128 0x1
 18844 1116 51       		.byte	0x51
 18845 1117 31       		.byte	0x31
 18846 1118 1A       		.byte	0x1a
 18847 1119 32       		.byte	0x32
 18848 111a 21       		.byte	0x21
 18849 111b F3       		.byte	0xf3
 18850 111c 01       		.uleb128 0x1
 18851 111d 51       		.byte	0x51
 18852 111e 31       		.byte	0x31
 18853 111f 1A       		.byte	0x1a
 18854 1120 F3       		.byte	0xf3
 18855 1121 01       		.uleb128 0x1
 18856 1122 51       		.byte	0x51
 18857 1123 4E       		.byte	0x4e
 18858 1124 24       		.byte	0x24
 18859 1125 30       		.byte	0x30
 18860 1126 2D       		.byte	0x2d
 18861 1127 28       		.byte	0x28
 18862 1128 0100     		.2byte	0x1
 18863 112a 16       		.byte	0x16
 18864 112b 13       		.byte	0x13
 18865 112c 38       		.byte	0x38
 18866 112d 21       		.byte	0x21
 18867 112e F3       		.byte	0xf3
 18868 112f 01       		.uleb128 0x1
 18869 1130 51       		.byte	0x51
 18870 1131 31       		.byte	0x31
 18871 1132 1A       		.byte	0x1a
 18872 1133 32       		.byte	0x32
 18873 1134 21       		.byte	0x21
 18874 1135 F3       		.byte	0xf3
 18875 1136 01       		.uleb128 0x1
 18876 1137 51       		.byte	0x51
 18877 1138 31       		.byte	0x31
 18878 1139 1A       		.byte	0x1a
 18879 113a F3       		.byte	0xf3
 18880 113b 01       		.uleb128 0x1
 18881 113c 51       		.byte	0x51
 18882 113d 4E       		.byte	0x4e
 18883 113e 24       		.byte	0x24
 18884 113f 30       		.byte	0x30
 18885 1140 2D       		.byte	0x2d
 18886 1141 28       		.byte	0x28
 18887 1142 0100     		.2byte	0x1
 18888 1144 16       		.byte	0x16
 18889 1145 13       		.byte	0x13
 18890 1146 F3       		.byte	0xf3
 18891 1147 01       		.uleb128 0x1
 18892 1148 51       		.byte	0x51
 18893 1149 4D       		.byte	0x4d
 18894 114a 24       		.byte	0x24
 18895 114b 30       		.byte	0x30
 18896 114c 2D       		.byte	0x2d
 18897 114d 28       		.byte	0x28
 18898 114e 0100     		.2byte	0x1
 18899 1150 16       		.byte	0x16
ARM GAS  /tmp/ccDzFi87.s 			page 333


 18900 1151 13       		.byte	0x13
 18901 1152 F3       		.byte	0xf3
 18902 1153 01       		.uleb128 0x1
 18903 1154 51       		.byte	0x51
 18904 1155 4C       		.byte	0x4c
 18905 1156 24       		.byte	0x24
 18906 1157 30       		.byte	0x30
 18907 1158 2D       		.byte	0x2d
 18908 1159 28       		.byte	0x28
 18909 115a 0100     		.2byte	0x1
 18910 115c 16       		.byte	0x16
 18911 115d 13       		.byte	0x13
 18912 115e 40       		.byte	0x40
 18913 115f 21       		.byte	0x21
 18914 1160 F3       		.byte	0xf3
 18915 1161 01       		.uleb128 0x1
 18916 1162 51       		.byte	0x51
 18917 1163 31       		.byte	0x31
 18918 1164 1A       		.byte	0x1a
 18919 1165 32       		.byte	0x32
 18920 1166 21       		.byte	0x21
 18921 1167 F3       		.byte	0xf3
 18922 1168 01       		.uleb128 0x1
 18923 1169 51       		.byte	0x51
 18924 116a 31       		.byte	0x31
 18925 116b 1A       		.byte	0x1a
 18926 116c F3       		.byte	0xf3
 18927 116d 01       		.uleb128 0x1
 18928 116e 51       		.byte	0x51
 18929 116f 4E       		.byte	0x4e
 18930 1170 24       		.byte	0x24
 18931 1171 30       		.byte	0x30
 18932 1172 2D       		.byte	0x2d
 18933 1173 28       		.byte	0x28
 18934 1174 0100     		.2byte	0x1
 18935 1176 16       		.byte	0x16
 18936 1177 13       		.byte	0x13
 18937 1178 38       		.byte	0x38
 18938 1179 21       		.byte	0x21
 18939 117a F3       		.byte	0xf3
 18940 117b 01       		.uleb128 0x1
 18941 117c 51       		.byte	0x51
 18942 117d 31       		.byte	0x31
 18943 117e 1A       		.byte	0x1a
 18944 117f 32       		.byte	0x32
 18945 1180 21       		.byte	0x21
 18946 1181 F3       		.byte	0xf3
 18947 1182 01       		.uleb128 0x1
 18948 1183 51       		.byte	0x51
 18949 1184 31       		.byte	0x31
 18950 1185 1A       		.byte	0x1a
 18951 1186 F3       		.byte	0xf3
 18952 1187 01       		.uleb128 0x1
 18953 1188 51       		.byte	0x51
 18954 1189 4E       		.byte	0x4e
 18955 118a 24       		.byte	0x24
 18956 118b 30       		.byte	0x30
ARM GAS  /tmp/ccDzFi87.s 			page 334


 18957 118c 2D       		.byte	0x2d
 18958 118d 28       		.byte	0x28
 18959 118e 0100     		.2byte	0x1
 18960 1190 16       		.byte	0x16
 18961 1191 13       		.byte	0x13
 18962 1192 F3       		.byte	0xf3
 18963 1193 01       		.uleb128 0x1
 18964 1194 51       		.byte	0x51
 18965 1195 4D       		.byte	0x4d
 18966 1196 24       		.byte	0x24
 18967 1197 30       		.byte	0x30
 18968 1198 2D       		.byte	0x2d
 18969 1199 28       		.byte	0x28
 18970 119a 0100     		.2byte	0x1
 18971 119c 16       		.byte	0x16
 18972 119d 13       		.byte	0x13
 18973 119e 34       		.byte	0x34
 18974 119f 21       		.byte	0x21
 18975 11a0 F3       		.byte	0xf3
 18976 11a1 01       		.uleb128 0x1
 18977 11a2 51       		.byte	0x51
 18978 11a3 31       		.byte	0x31
 18979 11a4 1A       		.byte	0x1a
 18980 11a5 32       		.byte	0x32
 18981 11a6 21       		.byte	0x21
 18982 11a7 F3       		.byte	0xf3
 18983 11a8 01       		.uleb128 0x1
 18984 11a9 51       		.byte	0x51
 18985 11aa 31       		.byte	0x31
 18986 11ab 1A       		.byte	0x1a
 18987 11ac F3       		.byte	0xf3
 18988 11ad 01       		.uleb128 0x1
 18989 11ae 51       		.byte	0x51
 18990 11af 4E       		.byte	0x4e
 18991 11b0 24       		.byte	0x24
 18992 11b1 30       		.byte	0x30
 18993 11b2 2D       		.byte	0x2d
 18994 11b3 28       		.byte	0x28
 18995 11b4 0100     		.2byte	0x1
 18996 11b6 16       		.byte	0x16
 18997 11b7 13       		.byte	0x13
 18998 11b8 38       		.byte	0x38
 18999 11b9 21       		.byte	0x21
 19000 11ba F3       		.byte	0xf3
 19001 11bb 01       		.uleb128 0x1
 19002 11bc 51       		.byte	0x51
 19003 11bd 31       		.byte	0x31
 19004 11be 1A       		.byte	0x1a
 19005 11bf 32       		.byte	0x32
 19006 11c0 21       		.byte	0x21
 19007 11c1 F3       		.byte	0xf3
 19008 11c2 01       		.uleb128 0x1
 19009 11c3 51       		.byte	0x51
 19010 11c4 31       		.byte	0x31
 19011 11c5 1A       		.byte	0x1a
 19012 11c6 F3       		.byte	0xf3
 19013 11c7 01       		.uleb128 0x1
ARM GAS  /tmp/ccDzFi87.s 			page 335


 19014 11c8 51       		.byte	0x51
 19015 11c9 4E       		.byte	0x4e
 19016 11ca 24       		.byte	0x24
 19017 11cb 30       		.byte	0x30
 19018 11cc 2D       		.byte	0x2d
 19019 11cd 28       		.byte	0x28
 19020 11ce 0100     		.2byte	0x1
 19021 11d0 16       		.byte	0x16
 19022 11d1 13       		.byte	0x13
 19023 11d2 F3       		.byte	0xf3
 19024 11d3 01       		.uleb128 0x1
 19025 11d4 51       		.byte	0x51
 19026 11d5 4D       		.byte	0x4d
 19027 11d6 24       		.byte	0x24
 19028 11d7 30       		.byte	0x30
 19029 11d8 2D       		.byte	0x2d
 19030 11d9 28       		.byte	0x28
 19031 11da 0100     		.2byte	0x1
 19032 11dc 16       		.byte	0x16
 19033 11dd 13       		.byte	0x13
 19034 11de F3       		.byte	0xf3
 19035 11df 01       		.uleb128 0x1
 19036 11e0 51       		.byte	0x51
 19037 11e1 4C       		.byte	0x4c
 19038 11e2 24       		.byte	0x24
 19039 11e3 30       		.byte	0x30
 19040 11e4 2D       		.byte	0x2d
 19041 11e5 28       		.byte	0x28
 19042 11e6 0100     		.2byte	0x1
 19043 11e8 16       		.byte	0x16
 19044 11e9 13       		.byte	0x13
 19045 11ea F3       		.byte	0xf3
 19046 11eb 01       		.uleb128 0x1
 19047 11ec 51       		.byte	0x51
 19048 11ed 4B       		.byte	0x4b
 19049 11ee 24       		.byte	0x24
 19050 11ef 30       		.byte	0x30
 19051 11f0 2D       		.byte	0x2d
 19052 11f1 28       		.byte	0x28
 19053 11f2 0100     		.2byte	0x1
 19054 11f4 16       		.byte	0x16
 19055 11f5 13       		.byte	0x13
 19056 11f6 F3       		.byte	0xf3
 19057 11f7 01       		.uleb128 0x1
 19058 11f8 51       		.byte	0x51
 19059 11f9 4A       		.byte	0x4a
 19060 11fa 24       		.byte	0x24
 19061 11fb 30       		.byte	0x30
 19062 11fc 2D       		.byte	0x2d
 19063 11fd 28       		.byte	0x28
 19064 11fe 0100     		.2byte	0x1
 19065 1200 16       		.byte	0x16
 19066 1201 13       		.byte	0x13
 19067 1202 08       		.byte	0x8
 19068 1203 40       		.byte	0x40
 19069 1204 21       		.byte	0x21
 19070 1205 F3       		.byte	0xf3
ARM GAS  /tmp/ccDzFi87.s 			page 336


 19071 1206 01       		.uleb128 0x1
 19072 1207 51       		.byte	0x51
 19073 1208 31       		.byte	0x31
 19074 1209 1A       		.byte	0x1a
 19075 120a 32       		.byte	0x32
 19076 120b 21       		.byte	0x21
 19077 120c F3       		.byte	0xf3
 19078 120d 01       		.uleb128 0x1
 19079 120e 51       		.byte	0x51
 19080 120f 31       		.byte	0x31
 19081 1210 1A       		.byte	0x1a
 19082 1211 F3       		.byte	0xf3
 19083 1212 01       		.uleb128 0x1
 19084 1213 51       		.byte	0x51
 19085 1214 4E       		.byte	0x4e
 19086 1215 24       		.byte	0x24
 19087 1216 30       		.byte	0x30
 19088 1217 2D       		.byte	0x2d
 19089 1218 28       		.byte	0x28
 19090 1219 0100     		.2byte	0x1
 19091 121b 16       		.byte	0x16
 19092 121c 13       		.byte	0x13
 19093 121d 38       		.byte	0x38
 19094 121e 21       		.byte	0x21
 19095 121f F3       		.byte	0xf3
 19096 1220 01       		.uleb128 0x1
 19097 1221 51       		.byte	0x51
 19098 1222 31       		.byte	0x31
 19099 1223 1A       		.byte	0x1a
 19100 1224 32       		.byte	0x32
 19101 1225 21       		.byte	0x21
 19102 1226 F3       		.byte	0xf3
 19103 1227 01       		.uleb128 0x1
 19104 1228 51       		.byte	0x51
 19105 1229 31       		.byte	0x31
 19106 122a 1A       		.byte	0x1a
 19107 122b F3       		.byte	0xf3
 19108 122c 01       		.uleb128 0x1
 19109 122d 51       		.byte	0x51
 19110 122e 4E       		.byte	0x4e
 19111 122f 24       		.byte	0x24
 19112 1230 30       		.byte	0x30
 19113 1231 2D       		.byte	0x2d
 19114 1232 28       		.byte	0x28
 19115 1233 0100     		.2byte	0x1
 19116 1235 16       		.byte	0x16
 19117 1236 13       		.byte	0x13
 19118 1237 F3       		.byte	0xf3
 19119 1238 01       		.uleb128 0x1
 19120 1239 51       		.byte	0x51
 19121 123a 4D       		.byte	0x4d
 19122 123b 24       		.byte	0x24
 19123 123c 30       		.byte	0x30
 19124 123d 2D       		.byte	0x2d
 19125 123e 28       		.byte	0x28
 19126 123f 0100     		.2byte	0x1
 19127 1241 16       		.byte	0x16
ARM GAS  /tmp/ccDzFi87.s 			page 337


 19128 1242 13       		.byte	0x13
 19129 1243 34       		.byte	0x34
 19130 1244 21       		.byte	0x21
 19131 1245 F3       		.byte	0xf3
 19132 1246 01       		.uleb128 0x1
 19133 1247 51       		.byte	0x51
 19134 1248 31       		.byte	0x31
 19135 1249 1A       		.byte	0x1a
 19136 124a 32       		.byte	0x32
 19137 124b 21       		.byte	0x21
 19138 124c F3       		.byte	0xf3
 19139 124d 01       		.uleb128 0x1
 19140 124e 51       		.byte	0x51
 19141 124f 31       		.byte	0x31
 19142 1250 1A       		.byte	0x1a
 19143 1251 F3       		.byte	0xf3
 19144 1252 01       		.uleb128 0x1
 19145 1253 51       		.byte	0x51
 19146 1254 4E       		.byte	0x4e
 19147 1255 24       		.byte	0x24
 19148 1256 30       		.byte	0x30
 19149 1257 2D       		.byte	0x2d
 19150 1258 28       		.byte	0x28
 19151 1259 0100     		.2byte	0x1
 19152 125b 16       		.byte	0x16
 19153 125c 13       		.byte	0x13
 19154 125d 38       		.byte	0x38
 19155 125e 21       		.byte	0x21
 19156 125f F3       		.byte	0xf3
 19157 1260 01       		.uleb128 0x1
 19158 1261 51       		.byte	0x51
 19159 1262 31       		.byte	0x31
 19160 1263 1A       		.byte	0x1a
 19161 1264 32       		.byte	0x32
 19162 1265 21       		.byte	0x21
 19163 1266 F3       		.byte	0xf3
 19164 1267 01       		.uleb128 0x1
 19165 1268 51       		.byte	0x51
 19166 1269 31       		.byte	0x31
 19167 126a 1A       		.byte	0x1a
 19168 126b F3       		.byte	0xf3
 19169 126c 01       		.uleb128 0x1
 19170 126d 51       		.byte	0x51
 19171 126e 4E       		.byte	0x4e
 19172 126f 24       		.byte	0x24
 19173 1270 30       		.byte	0x30
 19174 1271 2D       		.byte	0x2d
 19175 1272 28       		.byte	0x28
 19176 1273 0100     		.2byte	0x1
 19177 1275 16       		.byte	0x16
 19178 1276 13       		.byte	0x13
 19179 1277 F3       		.byte	0xf3
 19180 1278 01       		.uleb128 0x1
 19181 1279 51       		.byte	0x51
 19182 127a 4D       		.byte	0x4d
 19183 127b 24       		.byte	0x24
 19184 127c 30       		.byte	0x30
ARM GAS  /tmp/ccDzFi87.s 			page 338


 19185 127d 2D       		.byte	0x2d
 19186 127e 28       		.byte	0x28
 19187 127f 0100     		.2byte	0x1
 19188 1281 16       		.byte	0x16
 19189 1282 13       		.byte	0x13
 19190 1283 F3       		.byte	0xf3
 19191 1284 01       		.uleb128 0x1
 19192 1285 51       		.byte	0x51
 19193 1286 4C       		.byte	0x4c
 19194 1287 24       		.byte	0x24
 19195 1288 30       		.byte	0x30
 19196 1289 2D       		.byte	0x2d
 19197 128a 28       		.byte	0x28
 19198 128b 0100     		.2byte	0x1
 19199 128d 16       		.byte	0x16
 19200 128e 13       		.byte	0x13
 19201 128f 40       		.byte	0x40
 19202 1290 21       		.byte	0x21
 19203 1291 F3       		.byte	0xf3
 19204 1292 01       		.uleb128 0x1
 19205 1293 51       		.byte	0x51
 19206 1294 31       		.byte	0x31
 19207 1295 1A       		.byte	0x1a
 19208 1296 32       		.byte	0x32
 19209 1297 21       		.byte	0x21
 19210 1298 F3       		.byte	0xf3
 19211 1299 01       		.uleb128 0x1
 19212 129a 51       		.byte	0x51
 19213 129b 31       		.byte	0x31
 19214 129c 1A       		.byte	0x1a
 19215 129d F3       		.byte	0xf3
 19216 129e 01       		.uleb128 0x1
 19217 129f 51       		.byte	0x51
 19218 12a0 4E       		.byte	0x4e
 19219 12a1 24       		.byte	0x24
 19220 12a2 30       		.byte	0x30
 19221 12a3 2D       		.byte	0x2d
 19222 12a4 28       		.byte	0x28
 19223 12a5 0100     		.2byte	0x1
 19224 12a7 16       		.byte	0x16
 19225 12a8 13       		.byte	0x13
 19226 12a9 38       		.byte	0x38
 19227 12aa 21       		.byte	0x21
 19228 12ab F3       		.byte	0xf3
 19229 12ac 01       		.uleb128 0x1
 19230 12ad 51       		.byte	0x51
 19231 12ae 31       		.byte	0x31
 19232 12af 1A       		.byte	0x1a
 19233 12b0 32       		.byte	0x32
 19234 12b1 21       		.byte	0x21
 19235 12b2 F3       		.byte	0xf3
 19236 12b3 01       		.uleb128 0x1
 19237 12b4 51       		.byte	0x51
 19238 12b5 31       		.byte	0x31
 19239 12b6 1A       		.byte	0x1a
 19240 12b7 F3       		.byte	0xf3
 19241 12b8 01       		.uleb128 0x1
ARM GAS  /tmp/ccDzFi87.s 			page 339


 19242 12b9 51       		.byte	0x51
 19243 12ba 4E       		.byte	0x4e
 19244 12bb 24       		.byte	0x24
 19245 12bc 30       		.byte	0x30
 19246 12bd 2D       		.byte	0x2d
 19247 12be 28       		.byte	0x28
 19248 12bf 0100     		.2byte	0x1
 19249 12c1 16       		.byte	0x16
 19250 12c2 13       		.byte	0x13
 19251 12c3 F3       		.byte	0xf3
 19252 12c4 01       		.uleb128 0x1
 19253 12c5 51       		.byte	0x51
 19254 12c6 4D       		.byte	0x4d
 19255 12c7 24       		.byte	0x24
 19256 12c8 30       		.byte	0x30
 19257 12c9 2D       		.byte	0x2d
 19258 12ca 28       		.byte	0x28
 19259 12cb 0100     		.2byte	0x1
 19260 12cd 16       		.byte	0x16
 19261 12ce 13       		.byte	0x13
 19262 12cf 34       		.byte	0x34
 19263 12d0 21       		.byte	0x21
 19264 12d1 F3       		.byte	0xf3
 19265 12d2 01       		.uleb128 0x1
 19266 12d3 51       		.byte	0x51
 19267 12d4 31       		.byte	0x31
 19268 12d5 1A       		.byte	0x1a
 19269 12d6 32       		.byte	0x32
 19270 12d7 21       		.byte	0x21
 19271 12d8 F3       		.byte	0xf3
 19272 12d9 01       		.uleb128 0x1
 19273 12da 51       		.byte	0x51
 19274 12db 31       		.byte	0x31
 19275 12dc 1A       		.byte	0x1a
 19276 12dd F3       		.byte	0xf3
 19277 12de 01       		.uleb128 0x1
 19278 12df 51       		.byte	0x51
 19279 12e0 4E       		.byte	0x4e
 19280 12e1 24       		.byte	0x24
 19281 12e2 30       		.byte	0x30
 19282 12e3 2D       		.byte	0x2d
 19283 12e4 28       		.byte	0x28
 19284 12e5 0100     		.2byte	0x1
 19285 12e7 16       		.byte	0x16
 19286 12e8 13       		.byte	0x13
 19287 12e9 38       		.byte	0x38
 19288 12ea 21       		.byte	0x21
 19289 12eb F3       		.byte	0xf3
 19290 12ec 01       		.uleb128 0x1
 19291 12ed 51       		.byte	0x51
 19292 12ee 31       		.byte	0x31
 19293 12ef 1A       		.byte	0x1a
 19294 12f0 32       		.byte	0x32
 19295 12f1 21       		.byte	0x21
 19296 12f2 F3       		.byte	0xf3
 19297 12f3 01       		.uleb128 0x1
 19298 12f4 51       		.byte	0x51
ARM GAS  /tmp/ccDzFi87.s 			page 340


 19299 12f5 31       		.byte	0x31
 19300 12f6 1A       		.byte	0x1a
 19301 12f7 F3       		.byte	0xf3
 19302 12f8 01       		.uleb128 0x1
 19303 12f9 51       		.byte	0x51
 19304 12fa 4E       		.byte	0x4e
 19305 12fb 24       		.byte	0x24
 19306 12fc 30       		.byte	0x30
 19307 12fd 2D       		.byte	0x2d
 19308 12fe 28       		.byte	0x28
 19309 12ff 0100     		.2byte	0x1
 19310 1301 16       		.byte	0x16
 19311 1302 13       		.byte	0x13
 19312 1303 F3       		.byte	0xf3
 19313 1304 01       		.uleb128 0x1
 19314 1305 51       		.byte	0x51
 19315 1306 4D       		.byte	0x4d
 19316 1307 24       		.byte	0x24
 19317 1308 30       		.byte	0x30
 19318 1309 2D       		.byte	0x2d
 19319 130a 28       		.byte	0x28
 19320 130b 0100     		.2byte	0x1
 19321 130d 16       		.byte	0x16
 19322 130e 13       		.byte	0x13
 19323 130f F3       		.byte	0xf3
 19324 1310 01       		.uleb128 0x1
 19325 1311 51       		.byte	0x51
 19326 1312 4C       		.byte	0x4c
 19327 1313 24       		.byte	0x24
 19328 1314 30       		.byte	0x30
 19329 1315 2D       		.byte	0x2d
 19330 1316 28       		.byte	0x28
 19331 1317 0100     		.2byte	0x1
 19332 1319 16       		.byte	0x16
 19333 131a 13       		.byte	0x13
 19334 131b F3       		.byte	0xf3
 19335 131c 01       		.uleb128 0x1
 19336 131d 51       		.byte	0x51
 19337 131e 4B       		.byte	0x4b
 19338 131f 24       		.byte	0x24
 19339 1320 30       		.byte	0x30
 19340 1321 2D       		.byte	0x2d
 19341 1322 28       		.byte	0x28
 19342 1323 0100     		.2byte	0x1
 19343 1325 16       		.byte	0x16
 19344 1326 13       		.byte	0x13
 19345 1327 08       		.byte	0x8
 19346 1328 20       		.byte	0x20
 19347 1329 21       		.byte	0x21
 19348 132a F3       		.byte	0xf3
 19349 132b 01       		.uleb128 0x1
 19350 132c 51       		.byte	0x51
 19351 132d 31       		.byte	0x31
 19352 132e 1A       		.byte	0x1a
 19353 132f 32       		.byte	0x32
 19354 1330 21       		.byte	0x21
 19355 1331 F3       		.byte	0xf3
ARM GAS  /tmp/ccDzFi87.s 			page 341


 19356 1332 01       		.uleb128 0x1
 19357 1333 51       		.byte	0x51
 19358 1334 31       		.byte	0x31
 19359 1335 1A       		.byte	0x1a
 19360 1336 F3       		.byte	0xf3
 19361 1337 01       		.uleb128 0x1
 19362 1338 51       		.byte	0x51
 19363 1339 4E       		.byte	0x4e
 19364 133a 24       		.byte	0x24
 19365 133b 30       		.byte	0x30
 19366 133c 2D       		.byte	0x2d
 19367 133d 28       		.byte	0x28
 19368 133e 0100     		.2byte	0x1
 19369 1340 16       		.byte	0x16
 19370 1341 13       		.byte	0x13
 19371 1342 38       		.byte	0x38
 19372 1343 21       		.byte	0x21
 19373 1344 F3       		.byte	0xf3
 19374 1345 01       		.uleb128 0x1
 19375 1346 51       		.byte	0x51
 19376 1347 31       		.byte	0x31
 19377 1348 1A       		.byte	0x1a
 19378 1349 32       		.byte	0x32
 19379 134a 21       		.byte	0x21
 19380 134b F3       		.byte	0xf3
 19381 134c 01       		.uleb128 0x1
 19382 134d 51       		.byte	0x51
 19383 134e 31       		.byte	0x31
 19384 134f 1A       		.byte	0x1a
 19385 1350 F3       		.byte	0xf3
 19386 1351 01       		.uleb128 0x1
 19387 1352 51       		.byte	0x51
 19388 1353 4E       		.byte	0x4e
 19389 1354 24       		.byte	0x24
 19390 1355 30       		.byte	0x30
 19391 1356 2D       		.byte	0x2d
 19392 1357 28       		.byte	0x28
 19393 1358 0100     		.2byte	0x1
 19394 135a 16       		.byte	0x16
 19395 135b 13       		.byte	0x13
 19396 135c F3       		.byte	0xf3
 19397 135d 01       		.uleb128 0x1
 19398 135e 51       		.byte	0x51
 19399 135f 4D       		.byte	0x4d
 19400 1360 24       		.byte	0x24
 19401 1361 30       		.byte	0x30
 19402 1362 2D       		.byte	0x2d
 19403 1363 28       		.byte	0x28
 19404 1364 0100     		.2byte	0x1
 19405 1366 16       		.byte	0x16
 19406 1367 13       		.byte	0x13
 19407 1368 34       		.byte	0x34
 19408 1369 21       		.byte	0x21
 19409 136a F3       		.byte	0xf3
 19410 136b 01       		.uleb128 0x1
 19411 136c 51       		.byte	0x51
 19412 136d 31       		.byte	0x31
ARM GAS  /tmp/ccDzFi87.s 			page 342


 19413 136e 1A       		.byte	0x1a
 19414 136f 32       		.byte	0x32
 19415 1370 21       		.byte	0x21
 19416 1371 F3       		.byte	0xf3
 19417 1372 01       		.uleb128 0x1
 19418 1373 51       		.byte	0x51
 19419 1374 31       		.byte	0x31
 19420 1375 1A       		.byte	0x1a
 19421 1376 F3       		.byte	0xf3
 19422 1377 01       		.uleb128 0x1
 19423 1378 51       		.byte	0x51
 19424 1379 4E       		.byte	0x4e
 19425 137a 24       		.byte	0x24
 19426 137b 30       		.byte	0x30
 19427 137c 2D       		.byte	0x2d
 19428 137d 28       		.byte	0x28
 19429 137e 0100     		.2byte	0x1
 19430 1380 16       		.byte	0x16
 19431 1381 13       		.byte	0x13
 19432 1382 38       		.byte	0x38
 19433 1383 21       		.byte	0x21
 19434 1384 F3       		.byte	0xf3
 19435 1385 01       		.uleb128 0x1
 19436 1386 51       		.byte	0x51
 19437 1387 31       		.byte	0x31
 19438 1388 1A       		.byte	0x1a
 19439 1389 32       		.byte	0x32
 19440 138a 21       		.byte	0x21
 19441 138b F3       		.byte	0xf3
 19442 138c 01       		.uleb128 0x1
 19443 138d 51       		.byte	0x51
 19444 138e 31       		.byte	0x31
 19445 138f 1A       		.byte	0x1a
 19446 1390 F3       		.byte	0xf3
 19447 1391 01       		.uleb128 0x1
 19448 1392 51       		.byte	0x51
 19449 1393 4E       		.byte	0x4e
 19450 1394 24       		.byte	0x24
 19451 1395 30       		.byte	0x30
 19452 1396 2D       		.byte	0x2d
 19453 1397 28       		.byte	0x28
 19454 1398 0100     		.2byte	0x1
 19455 139a 16       		.byte	0x16
 19456 139b 13       		.byte	0x13
 19457 139c F3       		.byte	0xf3
 19458 139d 01       		.uleb128 0x1
 19459 139e 51       		.byte	0x51
 19460 139f 4D       		.byte	0x4d
 19461 13a0 24       		.byte	0x24
 19462 13a1 30       		.byte	0x30
 19463 13a2 2D       		.byte	0x2d
 19464 13a3 28       		.byte	0x28
 19465 13a4 0100     		.2byte	0x1
 19466 13a6 16       		.byte	0x16
 19467 13a7 13       		.byte	0x13
 19468 13a8 F3       		.byte	0xf3
 19469 13a9 01       		.uleb128 0x1
ARM GAS  /tmp/ccDzFi87.s 			page 343


 19470 13aa 51       		.byte	0x51
 19471 13ab 4C       		.byte	0x4c
 19472 13ac 24       		.byte	0x24
 19473 13ad 30       		.byte	0x30
 19474 13ae 2D       		.byte	0x2d
 19475 13af 28       		.byte	0x28
 19476 13b0 0100     		.2byte	0x1
 19477 13b2 16       		.byte	0x16
 19478 13b3 13       		.byte	0x13
 19479 13b4 40       		.byte	0x40
 19480 13b5 21       		.byte	0x21
 19481 13b6 F3       		.byte	0xf3
 19482 13b7 01       		.uleb128 0x1
 19483 13b8 51       		.byte	0x51
 19484 13b9 31       		.byte	0x31
 19485 13ba 1A       		.byte	0x1a
 19486 13bb 32       		.byte	0x32
 19487 13bc 21       		.byte	0x21
 19488 13bd F3       		.byte	0xf3
 19489 13be 01       		.uleb128 0x1
 19490 13bf 51       		.byte	0x51
 19491 13c0 31       		.byte	0x31
 19492 13c1 1A       		.byte	0x1a
 19493 13c2 F3       		.byte	0xf3
 19494 13c3 01       		.uleb128 0x1
 19495 13c4 51       		.byte	0x51
 19496 13c5 4E       		.byte	0x4e
 19497 13c6 24       		.byte	0x24
 19498 13c7 30       		.byte	0x30
 19499 13c8 2D       		.byte	0x2d
 19500 13c9 28       		.byte	0x28
 19501 13ca 0100     		.2byte	0x1
 19502 13cc 16       		.byte	0x16
 19503 13cd 13       		.byte	0x13
 19504 13ce 38       		.byte	0x38
 19505 13cf 21       		.byte	0x21
 19506 13d0 F3       		.byte	0xf3
 19507 13d1 01       		.uleb128 0x1
 19508 13d2 51       		.byte	0x51
 19509 13d3 31       		.byte	0x31
 19510 13d4 1A       		.byte	0x1a
 19511 13d5 32       		.byte	0x32
 19512 13d6 21       		.byte	0x21
 19513 13d7 F3       		.byte	0xf3
 19514 13d8 01       		.uleb128 0x1
 19515 13d9 51       		.byte	0x51
 19516 13da 31       		.byte	0x31
 19517 13db 1A       		.byte	0x1a
 19518 13dc F3       		.byte	0xf3
 19519 13dd 01       		.uleb128 0x1
 19520 13de 51       		.byte	0x51
 19521 13df 4E       		.byte	0x4e
 19522 13e0 24       		.byte	0x24
 19523 13e1 30       		.byte	0x30
 19524 13e2 2D       		.byte	0x2d
 19525 13e3 28       		.byte	0x28
 19526 13e4 0100     		.2byte	0x1
ARM GAS  /tmp/ccDzFi87.s 			page 344


 19527 13e6 16       		.byte	0x16
 19528 13e7 13       		.byte	0x13
 19529 13e8 F3       		.byte	0xf3
 19530 13e9 01       		.uleb128 0x1
 19531 13ea 51       		.byte	0x51
 19532 13eb 4D       		.byte	0x4d
 19533 13ec 24       		.byte	0x24
 19534 13ed 30       		.byte	0x30
 19535 13ee 2D       		.byte	0x2d
 19536 13ef 28       		.byte	0x28
 19537 13f0 0100     		.2byte	0x1
 19538 13f2 16       		.byte	0x16
 19539 13f3 13       		.byte	0x13
 19540 13f4 34       		.byte	0x34
 19541 13f5 21       		.byte	0x21
 19542 13f6 F3       		.byte	0xf3
 19543 13f7 01       		.uleb128 0x1
 19544 13f8 51       		.byte	0x51
 19545 13f9 31       		.byte	0x31
 19546 13fa 1A       		.byte	0x1a
 19547 13fb 32       		.byte	0x32
 19548 13fc 21       		.byte	0x21
 19549 13fd F3       		.byte	0xf3
 19550 13fe 01       		.uleb128 0x1
 19551 13ff 51       		.byte	0x51
 19552 1400 31       		.byte	0x31
 19553 1401 1A       		.byte	0x1a
 19554 1402 F3       		.byte	0xf3
 19555 1403 01       		.uleb128 0x1
 19556 1404 51       		.byte	0x51
 19557 1405 4E       		.byte	0x4e
 19558 1406 24       		.byte	0x24
 19559 1407 30       		.byte	0x30
 19560 1408 2D       		.byte	0x2d
 19561 1409 28       		.byte	0x28
 19562 140a 0100     		.2byte	0x1
 19563 140c 16       		.byte	0x16
 19564 140d 13       		.byte	0x13
 19565 140e 38       		.byte	0x38
 19566 140f 21       		.byte	0x21
 19567 1410 F3       		.byte	0xf3
 19568 1411 01       		.uleb128 0x1
 19569 1412 51       		.byte	0x51
 19570 1413 31       		.byte	0x31
 19571 1414 1A       		.byte	0x1a
 19572 1415 32       		.byte	0x32
 19573 1416 21       		.byte	0x21
 19574 1417 F3       		.byte	0xf3
 19575 1418 01       		.uleb128 0x1
 19576 1419 51       		.byte	0x51
 19577 141a 31       		.byte	0x31
 19578 141b 1A       		.byte	0x1a
 19579 141c F3       		.byte	0xf3
 19580 141d 01       		.uleb128 0x1
 19581 141e 51       		.byte	0x51
 19582 141f 4E       		.byte	0x4e
 19583 1420 24       		.byte	0x24
ARM GAS  /tmp/ccDzFi87.s 			page 345


 19584 1421 30       		.byte	0x30
 19585 1422 2D       		.byte	0x2d
 19586 1423 28       		.byte	0x28
 19587 1424 0100     		.2byte	0x1
 19588 1426 16       		.byte	0x16
 19589 1427 13       		.byte	0x13
 19590 1428 F3       		.byte	0xf3
 19591 1429 01       		.uleb128 0x1
 19592 142a 51       		.byte	0x51
 19593 142b 4D       		.byte	0x4d
 19594 142c 24       		.byte	0x24
 19595 142d 30       		.byte	0x30
 19596 142e 2D       		.byte	0x2d
 19597 142f 28       		.byte	0x28
 19598 1430 0100     		.2byte	0x1
 19599 1432 16       		.byte	0x16
 19600 1433 13       		.byte	0x13
 19601 1434 F3       		.byte	0xf3
 19602 1435 01       		.uleb128 0x1
 19603 1436 51       		.byte	0x51
 19604 1437 4C       		.byte	0x4c
 19605 1438 24       		.byte	0x24
 19606 1439 30       		.byte	0x30
 19607 143a 2D       		.byte	0x2d
 19608 143b 28       		.byte	0x28
 19609 143c 0100     		.2byte	0x1
 19610 143e 16       		.byte	0x16
 19611 143f 13       		.byte	0x13
 19612 1440 F3       		.byte	0xf3
 19613 1441 01       		.uleb128 0x1
 19614 1442 51       		.byte	0x51
 19615 1443 4B       		.byte	0x4b
 19616 1444 24       		.byte	0x24
 19617 1445 30       		.byte	0x30
 19618 1446 2D       		.byte	0x2d
 19619 1447 28       		.byte	0x28
 19620 1448 0100     		.2byte	0x1
 19621 144a 16       		.byte	0x16
 19622 144b 13       		.byte	0x13
 19623 144c F3       		.byte	0xf3
 19624 144d 01       		.uleb128 0x1
 19625 144e 51       		.byte	0x51
 19626 144f 4A       		.byte	0x4a
 19627 1450 24       		.byte	0x24
 19628 1451 30       		.byte	0x30
 19629 1452 2D       		.byte	0x2d
 19630 1453 28       		.byte	0x28
 19631 1454 0100     		.2byte	0x1
 19632 1456 16       		.byte	0x16
 19633 1457 13       		.byte	0x13
 19634 1458 F3       		.byte	0xf3
 19635 1459 01       		.uleb128 0x1
 19636 145a 51       		.byte	0x51
 19637 145b 46       		.byte	0x46
 19638 145c 24       		.byte	0x24
 19639 145d 30       		.byte	0x30
 19640 145e 2D       		.byte	0x2d
ARM GAS  /tmp/ccDzFi87.s 			page 346


 19641 145f 28       		.byte	0x28
 19642 1460 0100     		.2byte	0x1
 19643 1462 16       		.byte	0x16
 19644 1463 13       		.byte	0x13
 19645 1464 9F       		.byte	0x9f
 19646 1465 00000000 		.4byte	0
 19647 1469 00000000 		.4byte	0
 19648              	.LVUS29:
 19649 146d 00       		.uleb128 0
 19650 146e 00       		.uleb128 .LVU350
 19651 146f 00       		.uleb128 .LVU350
 19652 1470 00       		.uleb128 .LVU426
 19653 1471 00       		.uleb128 .LVU426
 19654 1472 00       		.uleb128 .LVU427
 19655 1473 00       		.uleb128 .LVU427
 19656 1474 00       		.uleb128 .LVU427
 19657 1475 00       		.uleb128 .LVU427
 19658 1476 00       		.uleb128 0
 19659              	.LLST29:
 19660 1477 00000000 		.4byte	.LVL87
 19661 147b 1D000000 		.4byte	.LVL90-1
 19662 147f 0100     		.2byte	0x1
 19663 1481 50       		.byte	0x50
 19664 1482 1D000000 		.4byte	.LVL90-1
 19665 1486 CE000000 		.4byte	.LVL105
 19666 148a 0100     		.2byte	0x1
 19667 148c 55       		.byte	0x55
 19668 148d CE000000 		.4byte	.LVL105
 19669 1491 D1000000 		.4byte	.LVL106-1
 19670 1495 0100     		.2byte	0x1
 19671 1497 50       		.byte	0x50
 19672 1498 D1000000 		.4byte	.LVL106-1
 19673 149c D2000000 		.4byte	.LVL106
 19674 14a0 0400     		.2byte	0x4
 19675 14a2 F3       		.byte	0xf3
 19676 14a3 01       		.uleb128 0x1
 19677 14a4 50       		.byte	0x50
 19678 14a5 9F       		.byte	0x9f
 19679 14a6 D2000000 		.4byte	.LVL106
 19680 14aa F8000000 		.4byte	.LFE259
 19681 14ae 0100     		.2byte	0x1
 19682 14b0 55       		.byte	0x55
 19683 14b1 00000000 		.4byte	0
 19684 14b5 00000000 		.4byte	0
 19685              	.LVUS30:
 19686 14b9 00       		.uleb128 0
 19687 14ba 00       		.uleb128 .LVU350
 19688 14bb 00       		.uleb128 .LVU350
 19689 14bc 00       		.uleb128 .LVU426
 19690 14bd 00       		.uleb128 .LVU426
 19691 14be 00       		.uleb128 .LVU427
 19692 14bf 00       		.uleb128 .LVU427
 19693 14c0 00       		.uleb128 0
 19694              	.LLST30:
 19695 14c1 00000000 		.4byte	.LVL87
 19696 14c5 1D000000 		.4byte	.LVL90-1
 19697 14c9 0100     		.2byte	0x1
ARM GAS  /tmp/ccDzFi87.s 			page 347


 19698 14cb 51       		.byte	0x51
 19699 14cc 1D000000 		.4byte	.LVL90-1
 19700 14d0 CE000000 		.4byte	.LVL105
 19701 14d4 0100     		.2byte	0x1
 19702 14d6 56       		.byte	0x56
 19703 14d7 CE000000 		.4byte	.LVL105
 19704 14db D2000000 		.4byte	.LVL106
 19705 14df 0400     		.2byte	0x4
 19706 14e1 F3       		.byte	0xf3
 19707 14e2 01       		.uleb128 0x1
 19708 14e3 51       		.byte	0x51
 19709 14e4 9F       		.byte	0x9f
 19710 14e5 D2000000 		.4byte	.LVL106
 19711 14e9 F8000000 		.4byte	.LFE259
 19712 14ed 0100     		.2byte	0x1
 19713 14ef 56       		.byte	0x56
 19714 14f0 00000000 		.4byte	0
 19715 14f4 00000000 		.4byte	0
 19716              	.LVUS31:
 19717 14f8 00       		.uleb128 0
 19718 14f9 00       		.uleb128 .LVU350
 19719 14fa 00       		.uleb128 .LVU350
 19720 14fb 00       		.uleb128 .LVU426
 19721 14fc 00       		.uleb128 .LVU426
 19722 14fd 00       		.uleb128 .LVU427
 19723 14fe 00       		.uleb128 .LVU427
 19724 14ff 00       		.uleb128 .LVU427
 19725 1500 00       		.uleb128 .LVU427
 19726 1501 00       		.uleb128 0
 19727              	.LLST31:
 19728 1502 00000000 		.4byte	.LVL87
 19729 1506 1D000000 		.4byte	.LVL90-1
 19730 150a 0100     		.2byte	0x1
 19731 150c 52       		.byte	0x52
 19732 150d 1D000000 		.4byte	.LVL90-1
 19733 1511 CE000000 		.4byte	.LVL105
 19734 1515 0100     		.2byte	0x1
 19735 1517 57       		.byte	0x57
 19736 1518 CE000000 		.4byte	.LVL105
 19737 151c D1000000 		.4byte	.LVL106-1
 19738 1520 0100     		.2byte	0x1
 19739 1522 53       		.byte	0x53
 19740 1523 D1000000 		.4byte	.LVL106-1
 19741 1527 D2000000 		.4byte	.LVL106
 19742 152b 0400     		.2byte	0x4
 19743 152d F3       		.byte	0xf3
 19744 152e 01       		.uleb128 0x1
 19745 152f 52       		.byte	0x52
 19746 1530 9F       		.byte	0x9f
 19747 1531 D2000000 		.4byte	.LVL106
 19748 1535 F8000000 		.4byte	.LFE259
 19749 1539 0100     		.2byte	0x1
 19750 153b 57       		.byte	0x57
 19751 153c 00000000 		.4byte	0
 19752 1540 00000000 		.4byte	0
 19753              	.LVUS32:
 19754 1544 07       		.uleb128 .LVU344
ARM GAS  /tmp/ccDzFi87.s 			page 348


 19755 1545 00       		.uleb128 .LVU348
 19756              	.LLST32:
 19757 1546 10000000 		.4byte	.LVL88
 19758 154a 1A000000 		.4byte	.LVL89
 19759 154e 0300     		.2byte	0x3
 19760 1550 08       		.byte	0x8
 19761 1551 20       		.byte	0x20
 19762 1552 9F       		.byte	0x9f
 19763 1553 00000000 		.4byte	0
 19764 1557 00000000 		.4byte	0
 19765              	.LVUS33:
 19766 155b 04       		.uleb128 .LVU387
 19767 155c 00       		.uleb128 .LVU389
 19768              	.LLST33:
 19769 155d 6A000000 		.4byte	.LVL94
 19770 1561 70000000 		.4byte	.LVL95
 19771 1565 0200     		.2byte	0x2
 19772 1567 30       		.byte	0x30
 19773 1568 9F       		.byte	0x9f
 19774 1569 00000000 		.4byte	0
 19775 156d 00000000 		.4byte	0
 19776              	.LVUS34:
 19777 1571 01       		.uleb128 .LVU394
 19778 1572 00       		.uleb128 .LVU397
 19779 1573 00       		.uleb128 .LVU397
 19780 1574 00       		.uleb128 .LVU398
 19781 1575 00       		.uleb128 .LVU398
 19782 1576 00       		.uleb128 .LVU399
 19783              	.LLST34:
 19784 1577 82000000 		.4byte	.LVL96
 19785 157b 86000000 		.4byte	.LVL97
 19786 157f 0300     		.2byte	0x3
 19787 1581 75       		.byte	0x75
 19788 1582 3C       		.sleb128 60
 19789 1583 9F       		.byte	0x9f
 19790 1584 86000000 		.4byte	.LVL97
 19791 1588 89000000 		.4byte	.LVL98-1
 19792 158c 0100     		.2byte	0x1
 19793 158e 50       		.byte	0x50
 19794 158f 89000000 		.4byte	.LVL98-1
 19795 1593 8C000000 		.4byte	.LVL99
 19796 1597 0300     		.2byte	0x3
 19797 1599 75       		.byte	0x75
 19798 159a 3C       		.sleb128 60
 19799 159b 9F       		.byte	0x9f
 19800 159c 00000000 		.4byte	0
 19801 15a0 00000000 		.4byte	0
 19802              	.LVUS35:
 19803 15a4 04       		.uleb128 .LVU416
 19804 15a5 00       		.uleb128 .LVU418
 19805              	.LLST35:
 19806 15a6 AC000000 		.4byte	.LVL102
 19807 15aa B2000000 		.4byte	.LVL103
 19808 15ae 0200     		.2byte	0x2
 19809 15b0 30       		.byte	0x30
 19810 15b1 9F       		.byte	0x9f
 19811 15b2 00000000 		.4byte	0
ARM GAS  /tmp/ccDzFi87.s 			page 349


 19812 15b6 00000000 		.4byte	0
 19813              	.LVUS36:
 19814 15ba 02       		.uleb128 .LVU423
 19815 15bb 00       		.uleb128 .LVU426
 19816 15bc 00       		.uleb128 .LVU426
 19817 15bd 00       		.uleb128 .LVU427
 19818              	.LLST36:
 19819 15be B6000000 		.4byte	.LVL104
 19820 15c2 CE000000 		.4byte	.LVL105
 19821 15c6 0100     		.2byte	0x1
 19822 15c8 56       		.byte	0x56
 19823 15c9 CE000000 		.4byte	.LVL105
 19824 15cd D2000000 		.4byte	.LVL106
 19825 15d1 0400     		.2byte	0x4
 19826 15d3 F3       		.byte	0xf3
 19827 15d4 01       		.uleb128 0x1
 19828 15d5 51       		.byte	0x51
 19829 15d6 9F       		.byte	0x9f
 19830 15d7 00000000 		.4byte	0
 19831 15db 00000000 		.4byte	0
 19832              	.LVUS37:
 19833 15df 00       		.uleb128 .LVU421
 19834 15e0 00       		.uleb128 .LVU426
 19835 15e1 00       		.uleb128 .LVU426
 19836 15e2 00       		.uleb128 .LVU427
 19837 15e3 00       		.uleb128 .LVU427
 19838 15e4 00       		.uleb128 .LVU427
 19839              	.LLST37:
 19840 15e5 B6000000 		.4byte	.LVL104
 19841 15e9 CE000000 		.4byte	.LVL105
 19842 15ed 0100     		.2byte	0x1
 19843 15ef 57       		.byte	0x57
 19844 15f0 CE000000 		.4byte	.LVL105
 19845 15f4 D1000000 		.4byte	.LVL106-1
 19846 15f8 0100     		.2byte	0x1
 19847 15fa 53       		.byte	0x53
 19848 15fb D1000000 		.4byte	.LVL106-1
 19849 15ff D2000000 		.4byte	.LVL106
 19850 1603 0400     		.2byte	0x4
 19851 1605 F3       		.byte	0xf3
 19852 1606 01       		.uleb128 0x1
 19853 1607 52       		.byte	0x52
 19854 1608 9F       		.byte	0x9f
 19855 1609 00000000 		.4byte	0
 19856 160d 00000000 		.4byte	0
 19857              	.LVUS38:
 19858 1611 00       		.uleb128 .LVU421
 19859 1612 00       		.uleb128 .LVU426
 19860 1613 00       		.uleb128 .LVU426
 19861 1614 00       		.uleb128 .LVU427
 19862 1615 00       		.uleb128 .LVU427
 19863 1616 00       		.uleb128 .LVU427
 19864              	.LLST38:
 19865 1617 B6000000 		.4byte	.LVL104
 19866 161b CE000000 		.4byte	.LVL105
 19867 161f 0100     		.2byte	0x1
 19868 1621 55       		.byte	0x55
ARM GAS  /tmp/ccDzFi87.s 			page 350


 19869 1622 CE000000 		.4byte	.LVL105
 19870 1626 D1000000 		.4byte	.LVL106-1
 19871 162a 0100     		.2byte	0x1
 19872 162c 50       		.byte	0x50
 19873 162d D1000000 		.4byte	.LVL106-1
 19874 1631 D2000000 		.4byte	.LVL106
 19875 1635 0400     		.2byte	0x4
 19876 1637 F3       		.byte	0xf3
 19877 1638 01       		.uleb128 0x1
 19878 1639 50       		.byte	0x50
 19879 163a 9F       		.byte	0x9f
 19880 163b 00000000 		.4byte	0
 19881 163f 00000000 		.4byte	0
 19882              	.LVUS39:
 19883 1643 00       		.uleb128 0
 19884 1644 00       		.uleb128 .LVU435
 19885 1645 00       		.uleb128 .LVU435
 19886 1646 00       		.uleb128 .LVU475
 19887 1647 00       		.uleb128 .LVU475
 19888 1648 00       		.uleb128 .LVU476
 19889 1649 00       		.uleb128 .LVU476
 19890 164a 00       		.uleb128 .LVU476
 19891 164b 00       		.uleb128 .LVU476
 19892 164c 00       		.uleb128 0
 19893              	.LLST39:
 19894 164d 00000000 		.4byte	.LVL110
 19895 1651 06000000 		.4byte	.LVL111
 19896 1655 0100     		.2byte	0x1
 19897 1657 50       		.byte	0x50
 19898 1658 06000000 		.4byte	.LVL111
 19899 165c 90000000 		.4byte	.LVL117
 19900 1660 0100     		.2byte	0x1
 19901 1662 55       		.byte	0x55
 19902 1663 90000000 		.4byte	.LVL117
 19903 1667 93000000 		.4byte	.LVL118-1
 19904 166b 0100     		.2byte	0x1
 19905 166d 50       		.byte	0x50
 19906 166e 93000000 		.4byte	.LVL118-1
 19907 1672 94000000 		.4byte	.LVL118
 19908 1676 0400     		.2byte	0x4
 19909 1678 F3       		.byte	0xf3
 19910 1679 01       		.uleb128 0x1
 19911 167a 50       		.byte	0x50
 19912 167b 9F       		.byte	0x9f
 19913 167c 94000000 		.4byte	.LVL118
 19914 1680 A0000000 		.4byte	.LFE261
 19915 1684 0100     		.2byte	0x1
 19916 1686 55       		.byte	0x55
 19917 1687 00000000 		.4byte	0
 19918 168b 00000000 		.4byte	0
 19919              	.LVUS40:
 19920 168f 00       		.uleb128 0
 19921 1690 00       		.uleb128 .LVU452
 19922 1691 00       		.uleb128 .LVU452
 19923 1692 00       		.uleb128 .LVU475
 19924 1693 00       		.uleb128 .LVU475
 19925 1694 00       		.uleb128 .LVU476
ARM GAS  /tmp/ccDzFi87.s 			page 351


 19926 1695 00       		.uleb128 .LVU476
 19927 1696 00       		.uleb128 0
 19928              	.LLST40:
 19929 1697 00000000 		.4byte	.LVL110
 19930 169b 4A000000 		.4byte	.LVL113
 19931 169f 0100     		.2byte	0x1
 19932 16a1 51       		.byte	0x51
 19933 16a2 4A000000 		.4byte	.LVL113
 19934 16a6 90000000 		.4byte	.LVL117
 19935 16aa 0100     		.2byte	0x1
 19936 16ac 56       		.byte	0x56
 19937 16ad 90000000 		.4byte	.LVL117
 19938 16b1 94000000 		.4byte	.LVL118
 19939 16b5 0400     		.2byte	0x4
 19940 16b7 F3       		.byte	0xf3
 19941 16b8 01       		.uleb128 0x1
 19942 16b9 51       		.byte	0x51
 19943 16ba 9F       		.byte	0x9f
 19944 16bb 94000000 		.4byte	.LVL118
 19945 16bf A0000000 		.4byte	.LFE261
 19946 16c3 0100     		.2byte	0x1
 19947 16c5 56       		.byte	0x56
 19948 16c6 00000000 		.4byte	0
 19949 16ca 00000000 		.4byte	0
 19950              	.LVUS41:
 19951 16ce 00       		.uleb128 0
 19952 16cf 00       		.uleb128 .LVU453
 19953 16d0 00       		.uleb128 .LVU453
 19954 16d1 00       		.uleb128 .LVU475
 19955 16d2 00       		.uleb128 .LVU475
 19956 16d3 00       		.uleb128 .LVU476
 19957 16d4 00       		.uleb128 .LVU476
 19958 16d5 00       		.uleb128 .LVU476
 19959 16d6 00       		.uleb128 .LVU476
 19960 16d7 00       		.uleb128 0
 19961              	.LLST41:
 19962 16d8 00000000 		.4byte	.LVL110
 19963 16dc 4C000000 		.4byte	.LVL114
 19964 16e0 0100     		.2byte	0x1
 19965 16e2 52       		.byte	0x52
 19966 16e3 4C000000 		.4byte	.LVL114
 19967 16e7 90000000 		.4byte	.LVL117
 19968 16eb 0100     		.2byte	0x1
 19969 16ed 57       		.byte	0x57
 19970 16ee 90000000 		.4byte	.LVL117
 19971 16f2 93000000 		.4byte	.LVL118-1
 19972 16f6 0100     		.2byte	0x1
 19973 16f8 53       		.byte	0x53
 19974 16f9 93000000 		.4byte	.LVL118-1
 19975 16fd 94000000 		.4byte	.LVL118
 19976 1701 0400     		.2byte	0x4
 19977 1703 F3       		.byte	0xf3
 19978 1704 01       		.uleb128 0x1
 19979 1705 52       		.byte	0x52
 19980 1706 9F       		.byte	0x9f
 19981 1707 94000000 		.4byte	.LVL118
 19982 170b A0000000 		.4byte	.LFE261
ARM GAS  /tmp/ccDzFi87.s 			page 352


 19983 170f 0100     		.2byte	0x1
 19984 1711 57       		.byte	0x57
 19985 1712 00000000 		.4byte	0
 19986 1716 00000000 		.4byte	0
 19987              	.LVUS42:
 19988 171a 00       		.uleb128 .LVU444
 19989 171b 00       		.uleb128 .LVU467
 19990              	.LLST42:
 19991 171c 20000000 		.4byte	.LVL112
 19992 1720 67000000 		.4byte	.LVL115-1
 19993 1724 0100     		.2byte	0x1
 19994 1726 5E       		.byte	0x5e
 19995 1727 00000000 		.4byte	0
 19996 172b 00000000 		.4byte	0
 19997              	.LVUS43:
 19998 172f 01       		.uleb128 .LVU473
 19999 1730 00       		.uleb128 .LVU475
 20000 1731 00       		.uleb128 .LVU475
 20001 1732 00       		.uleb128 .LVU476
 20002              	.LLST43:
 20003 1733 7A000000 		.4byte	.LVL116
 20004 1737 90000000 		.4byte	.LVL117
 20005 173b 0100     		.2byte	0x1
 20006 173d 56       		.byte	0x56
 20007 173e 90000000 		.4byte	.LVL117
 20008 1742 94000000 		.4byte	.LVL118
 20009 1746 0400     		.2byte	0x4
 20010 1748 F3       		.byte	0xf3
 20011 1749 01       		.uleb128 0x1
 20012 174a 51       		.byte	0x51
 20013 174b 9F       		.byte	0x9f
 20014 174c 00000000 		.4byte	0
 20015 1750 00000000 		.4byte	0
 20016              	.LVUS44:
 20017 1754 00       		.uleb128 .LVU472
 20018 1755 00       		.uleb128 .LVU475
 20019 1756 00       		.uleb128 .LVU475
 20020 1757 00       		.uleb128 .LVU476
 20021 1758 00       		.uleb128 .LVU476
 20022 1759 00       		.uleb128 .LVU476
 20023              	.LLST44:
 20024 175a 7A000000 		.4byte	.LVL116
 20025 175e 90000000 		.4byte	.LVL117
 20026 1762 0100     		.2byte	0x1
 20027 1764 57       		.byte	0x57
 20028 1765 90000000 		.4byte	.LVL117
 20029 1769 93000000 		.4byte	.LVL118-1
 20030 176d 0100     		.2byte	0x1
 20031 176f 53       		.byte	0x53
 20032 1770 93000000 		.4byte	.LVL118-1
 20033 1774 94000000 		.4byte	.LVL118
 20034 1778 0400     		.2byte	0x4
 20035 177a F3       		.byte	0xf3
 20036 177b 01       		.uleb128 0x1
 20037 177c 52       		.byte	0x52
 20038 177d 9F       		.byte	0x9f
 20039 177e 00000000 		.4byte	0
ARM GAS  /tmp/ccDzFi87.s 			page 353


 20040 1782 00000000 		.4byte	0
 20041              	.LVUS45:
 20042 1786 00       		.uleb128 .LVU472
 20043 1787 00       		.uleb128 .LVU475
 20044 1788 00       		.uleb128 .LVU475
 20045 1789 00       		.uleb128 .LVU476
 20046 178a 00       		.uleb128 .LVU476
 20047 178b 00       		.uleb128 .LVU476
 20048              	.LLST45:
 20049 178c 7A000000 		.4byte	.LVL116
 20050 1790 90000000 		.4byte	.LVL117
 20051 1794 0100     		.2byte	0x1
 20052 1796 55       		.byte	0x55
 20053 1797 90000000 		.4byte	.LVL117
 20054 179b 93000000 		.4byte	.LVL118-1
 20055 179f 0100     		.2byte	0x1
 20056 17a1 50       		.byte	0x50
 20057 17a2 93000000 		.4byte	.LVL118-1
 20058 17a6 94000000 		.4byte	.LVL118
 20059 17aa 0400     		.2byte	0x4
 20060 17ac F3       		.byte	0xf3
 20061 17ad 01       		.uleb128 0x1
 20062 17ae 50       		.byte	0x50
 20063 17af 9F       		.byte	0x9f
 20064 17b0 00000000 		.4byte	0
 20065 17b4 00000000 		.4byte	0
 20066              	.LVUS59:
 20067 17b8 00       		.uleb128 0
 20068 17b9 00       		.uleb128 .LVU598
 20069 17ba 00       		.uleb128 .LVU598
 20070 17bb 00       		.uleb128 .LVU653
 20071 17bc 00       		.uleb128 .LVU653
 20072 17bd 00       		.uleb128 .LVU655
 20073 17be 00       		.uleb128 .LVU655
 20074 17bf 00       		.uleb128 0
 20075              	.LLST59:
 20076 17c0 00000000 		.4byte	.LVL151
 20077 17c4 1C000000 		.4byte	.LVL153
 20078 17c8 0100     		.2byte	0x1
 20079 17ca 50       		.byte	0x50
 20080 17cb 1C000000 		.4byte	.LVL153
 20081 17cf B4000000 		.4byte	.LVL164
 20082 17d3 0100     		.2byte	0x1
 20083 17d5 54       		.byte	0x54
 20084 17d6 B4000000 		.4byte	.LVL164
 20085 17da B6000000 		.4byte	.LVL165
 20086 17de 0100     		.2byte	0x1
 20087 17e0 50       		.byte	0x50
 20088 17e1 B6000000 		.4byte	.LVL165
 20089 17e5 E4000000 		.4byte	.LFE275
 20090 17e9 0100     		.2byte	0x1
 20091 17eb 54       		.byte	0x54
 20092 17ec 00000000 		.4byte	0
 20093 17f0 00000000 		.4byte	0
 20094              	.LVUS60:
 20095 17f4 00       		.uleb128 0
 20096 17f5 00       		.uleb128 .LVU598
ARM GAS  /tmp/ccDzFi87.s 			page 354


 20097 17f6 00       		.uleb128 .LVU598
 20098 17f7 00       		.uleb128 .LVU605
 20099 17f8 00       		.uleb128 .LVU605
 20100 17f9 00       		.uleb128 .LVU606
 20101 17fa 00       		.uleb128 .LVU606
 20102 17fb 00       		.uleb128 .LVU636
 20103 17fc 00       		.uleb128 .LVU636
 20104 17fd 00       		.uleb128 .LVU653
 20105 17fe 00       		.uleb128 .LVU653
 20106 17ff 00       		.uleb128 .LVU656
 20107 1800 00       		.uleb128 .LVU656
 20108 1801 00       		.uleb128 .LVU657
 20109 1802 00       		.uleb128 .LVU657
 20110 1803 00       		.uleb128 0
 20111              	.LLST60:
 20112 1804 00000000 		.4byte	.LVL151
 20113 1808 1C000000 		.4byte	.LVL153
 20114 180c 0100     		.2byte	0x1
 20115 180e 51       		.byte	0x51
 20116 180f 1C000000 		.4byte	.LVL153
 20117 1813 2A000000 		.4byte	.LVL155
 20118 1817 0100     		.2byte	0x1
 20119 1819 56       		.byte	0x56
 20120 181a 2A000000 		.4byte	.LVL155
 20121 181e 38000000 		.4byte	.LVL156
 20122 1822 0400     		.2byte	0x4
 20123 1824 F3       		.byte	0xf3
 20124 1825 01       		.uleb128 0x1
 20125 1826 51       		.byte	0x51
 20126 1827 9F       		.byte	0x9f
 20127 1828 38000000 		.4byte	.LVL156
 20128 182c 7C000000 		.4byte	.LVL158
 20129 1830 0100     		.2byte	0x1
 20130 1832 56       		.byte	0x56
 20131 1833 7C000000 		.4byte	.LVL158
 20132 1837 B4000000 		.4byte	.LVL164
 20133 183b 0400     		.2byte	0x4
 20134 183d F3       		.byte	0xf3
 20135 183e 01       		.uleb128 0x1
 20136 183f 51       		.byte	0x51
 20137 1840 9F       		.byte	0x9f
 20138 1841 B4000000 		.4byte	.LVL164
 20139 1845 B9000000 		.4byte	.LVL166-1
 20140 1849 0100     		.2byte	0x1
 20141 184b 51       		.byte	0x51
 20142 184c B9000000 		.4byte	.LVL166-1
 20143 1850 BC000000 		.4byte	.LVL167
 20144 1854 0100     		.2byte	0x1
 20145 1856 56       		.byte	0x56
 20146 1857 BC000000 		.4byte	.LVL167
 20147 185b E4000000 		.4byte	.LFE275
 20148 185f 0400     		.2byte	0x4
 20149 1861 F3       		.byte	0xf3
 20150 1862 01       		.uleb128 0x1
 20151 1863 51       		.byte	0x51
 20152 1864 9F       		.byte	0x9f
 20153 1865 00000000 		.4byte	0
ARM GAS  /tmp/ccDzFi87.s 			page 355


 20154 1869 00000000 		.4byte	0
 20155              	.LVUS61:
 20156 186d 00       		.uleb128 0
 20157 186e 00       		.uleb128 .LVU598
 20158 186f 00       		.uleb128 .LVU598
 20159 1870 00       		.uleb128 .LVU605
 20160 1871 00       		.uleb128 .LVU605
 20161 1872 00       		.uleb128 .LVU606
 20162 1873 00       		.uleb128 .LVU606
 20163 1874 00       		.uleb128 .LVU638
 20164 1875 00       		.uleb128 .LVU638
 20165 1876 00       		.uleb128 .LVU653
 20166 1877 00       		.uleb128 .LVU653
 20167 1878 00       		.uleb128 .LVU656
 20168 1879 00       		.uleb128 .LVU656
 20169 187a 00       		.uleb128 .LVU657
 20170 187b 00       		.uleb128 .LVU657
 20171 187c 00       		.uleb128 0
 20172              	.LLST61:
 20173 187d 00000000 		.4byte	.LVL151
 20174 1881 1C000000 		.4byte	.LVL153
 20175 1885 0100     		.2byte	0x1
 20176 1887 52       		.byte	0x52
 20177 1888 1C000000 		.4byte	.LVL153
 20178 188c 2A000000 		.4byte	.LVL155
 20179 1890 0100     		.2byte	0x1
 20180 1892 57       		.byte	0x57
 20181 1893 2A000000 		.4byte	.LVL155
 20182 1897 38000000 		.4byte	.LVL156
 20183 189b 0400     		.2byte	0x4
 20184 189d F3       		.byte	0xf3
 20185 189e 01       		.uleb128 0x1
 20186 189f 52       		.byte	0x52
 20187 18a0 9F       		.byte	0x9f
 20188 18a1 38000000 		.4byte	.LVL156
 20189 18a5 7E000000 		.4byte	.LVL159
 20190 18a9 0100     		.2byte	0x1
 20191 18ab 57       		.byte	0x57
 20192 18ac 7E000000 		.4byte	.LVL159
 20193 18b0 B4000000 		.4byte	.LVL164
 20194 18b4 0400     		.2byte	0x4
 20195 18b6 F3       		.byte	0xf3
 20196 18b7 01       		.uleb128 0x1
 20197 18b8 52       		.byte	0x52
 20198 18b9 9F       		.byte	0x9f
 20199 18ba B4000000 		.4byte	.LVL164
 20200 18be B9000000 		.4byte	.LVL166-1
 20201 18c2 0100     		.2byte	0x1
 20202 18c4 52       		.byte	0x52
 20203 18c5 B9000000 		.4byte	.LVL166-1
 20204 18c9 BC000000 		.4byte	.LVL167
 20205 18cd 0100     		.2byte	0x1
 20206 18cf 57       		.byte	0x57
 20207 18d0 BC000000 		.4byte	.LVL167
 20208 18d4 E4000000 		.4byte	.LFE275
 20209 18d8 0400     		.2byte	0x4
 20210 18da F3       		.byte	0xf3
ARM GAS  /tmp/ccDzFi87.s 			page 356


 20211 18db 01       		.uleb128 0x1
 20212 18dc 52       		.byte	0x52
 20213 18dd 9F       		.byte	0x9f
 20214 18de 00000000 		.4byte	0
 20215 18e2 00000000 		.4byte	0
 20216              	.LVUS62:
 20217 18e6 00       		.uleb128 0
 20218 18e7 00       		.uleb128 .LVU591
 20219 18e8 00       		.uleb128 .LVU591
 20220 18e9 00       		.uleb128 0
 20221              	.LLST62:
 20222 18ea 00000000 		.4byte	.LVL151
 20223 18ee 06000000 		.4byte	.LVL152
 20224 18f2 0100     		.2byte	0x1
 20225 18f4 53       		.byte	0x53
 20226 18f5 06000000 		.4byte	.LVL152
 20227 18f9 E4000000 		.4byte	.LFE275
 20228 18fd 0100     		.2byte	0x1
 20229 18ff 55       		.byte	0x55
 20230 1900 00000000 		.4byte	0
 20231 1904 00000000 		.4byte	0
 20232              	.LVUS63:
 20233 1908 00       		.uleb128 .LVU606
 20234 1909 00       		.uleb128 .LVU653
 20235 190a 00       		.uleb128 .LVU657
 20236 190b 00       		.uleb128 .LVU660
 20237              	.LLST63:
 20238 190c 38000000 		.4byte	.LVL156
 20239 1910 B4000000 		.4byte	.LVL164
 20240 1914 0100     		.2byte	0x1
 20241 1916 55       		.byte	0x55
 20242 1917 BC000000 		.4byte	.LVL167
 20243 191b CA000000 		.4byte	.LVL169
 20244 191f 0100     		.2byte	0x1
 20245 1921 55       		.byte	0x55
 20246 1922 00000000 		.4byte	0
 20247 1926 00000000 		.4byte	0
 20248              	.LVUS64:
 20249 192a 00       		.uleb128 .LVU606
 20250 192b 00       		.uleb128 .LVU638
 20251 192c 00       		.uleb128 .LVU638
 20252 192d 00       		.uleb128 .LVU653
 20253 192e 00       		.uleb128 .LVU657
 20254 192f 00       		.uleb128 .LVU660
 20255              	.LLST64:
 20256 1930 38000000 		.4byte	.LVL156
 20257 1934 7E000000 		.4byte	.LVL159
 20258 1938 0100     		.2byte	0x1
 20259 193a 57       		.byte	0x57
 20260 193b 7E000000 		.4byte	.LVL159
 20261 193f B4000000 		.4byte	.LVL164
 20262 1943 0400     		.2byte	0x4
 20263 1945 F3       		.byte	0xf3
 20264 1946 01       		.uleb128 0x1
 20265 1947 52       		.byte	0x52
 20266 1948 9F       		.byte	0x9f
 20267 1949 BC000000 		.4byte	.LVL167
ARM GAS  /tmp/ccDzFi87.s 			page 357


 20268 194d CA000000 		.4byte	.LVL169
 20269 1951 0400     		.2byte	0x4
 20270 1953 F3       		.byte	0xf3
 20271 1954 01       		.uleb128 0x1
 20272 1955 52       		.byte	0x52
 20273 1956 9F       		.byte	0x9f
 20274 1957 00000000 		.4byte	0
 20275 195b 00000000 		.4byte	0
 20276              	.LVUS65:
 20277 195f 00       		.uleb128 .LVU606
 20278 1960 00       		.uleb128 .LVU636
 20279 1961 00       		.uleb128 .LVU636
 20280 1962 00       		.uleb128 .LVU653
 20281 1963 00       		.uleb128 .LVU657
 20282 1964 00       		.uleb128 .LVU660
 20283              	.LLST65:
 20284 1965 38000000 		.4byte	.LVL156
 20285 1969 7C000000 		.4byte	.LVL158
 20286 196d 0100     		.2byte	0x1
 20287 196f 56       		.byte	0x56
 20288 1970 7C000000 		.4byte	.LVL158
 20289 1974 B4000000 		.4byte	.LVL164
 20290 1978 0400     		.2byte	0x4
 20291 197a F3       		.byte	0xf3
 20292 197b 01       		.uleb128 0x1
 20293 197c 51       		.byte	0x51
 20294 197d 9F       		.byte	0x9f
 20295 197e BC000000 		.4byte	.LVL167
 20296 1982 CA000000 		.4byte	.LVL169
 20297 1986 0400     		.2byte	0x4
 20298 1988 F3       		.byte	0xf3
 20299 1989 01       		.uleb128 0x1
 20300 198a 51       		.byte	0x51
 20301 198b 9F       		.byte	0x9f
 20302 198c 00000000 		.4byte	0
 20303 1990 00000000 		.4byte	0
 20304              	.LVUS66:
 20305 1994 00       		.uleb128 .LVU606
 20306 1995 00       		.uleb128 .LVU653
 20307 1996 00       		.uleb128 .LVU657
 20308 1997 00       		.uleb128 .LVU660
 20309              	.LLST66:
 20310 1998 38000000 		.4byte	.LVL156
 20311 199c B4000000 		.4byte	.LVL164
 20312 19a0 0100     		.2byte	0x1
 20313 19a2 54       		.byte	0x54
 20314 19a3 BC000000 		.4byte	.LVL167
 20315 19a7 CA000000 		.4byte	.LVL169
 20316 19ab 0100     		.2byte	0x1
 20317 19ad 54       		.byte	0x54
 20318 19ae 00000000 		.4byte	0
 20319 19b2 00000000 		.4byte	0
 20320              	.LVUS67:
 20321 19b6 01       		.uleb128 .LVU630
 20322 19b7 00       		.uleb128 .LVU646
 20323 19b8 00       		.uleb128 .LVU657
 20324 19b9 00       		.uleb128 .LVU659
ARM GAS  /tmp/ccDzFi87.s 			page 358


 20325 19ba 00       		.uleb128 .LVU659
 20326 19bb 00       		.uleb128 .LVU660
 20327              	.LLST67:
 20328 19bc 74000000 		.4byte	.LVL157
 20329 19c0 98000000 		.4byte	.LVL161
 20330 19c4 0100     		.2byte	0x1
 20331 19c6 5D       		.byte	0x5d
 20332 19c7 BC000000 		.4byte	.LVL167
 20333 19cb C3000000 		.4byte	.LVL168-1
 20334 19cf 0100     		.2byte	0x1
 20335 19d1 53       		.byte	0x53
 20336 19d2 C3000000 		.4byte	.LVL168-1
 20337 19d6 CA000000 		.4byte	.LVL169
 20338 19da 0100     		.2byte	0x1
 20339 19dc 57       		.byte	0x57
 20340 19dd 00000000 		.4byte	0
 20341 19e1 00000000 		.4byte	0
 20342              	.LVUS68:
 20343 19e5 01       		.uleb128 .LVU630
 20344 19e6 00       		.uleb128 .LVU646
 20345 19e7 00       		.uleb128 .LVU657
 20346 19e8 00       		.uleb128 .LVU660
 20347              	.LLST68:
 20348 19e9 74000000 		.4byte	.LVL157
 20349 19ed 98000000 		.4byte	.LVL161
 20350 19f1 0100     		.2byte	0x1
 20351 19f3 55       		.byte	0x55
 20352 19f4 BC000000 		.4byte	.LVL167
 20353 19f8 CA000000 		.4byte	.LVL169
 20354 19fc 0100     		.2byte	0x1
 20355 19fe 55       		.byte	0x55
 20356 19ff 00000000 		.4byte	0
 20357 1a03 00000000 		.4byte	0
 20358              	.LVUS69:
 20359 1a07 01       		.uleb128 .LVU630
 20360 1a08 00       		.uleb128 .LVU646
 20361 1a09 00       		.uleb128 .LVU657
 20362 1a0a 00       		.uleb128 .LVU659
 20363 1a0b 00       		.uleb128 .LVU659
 20364 1a0c 00       		.uleb128 .LVU660
 20365              	.LLST69:
 20366 1a0d 74000000 		.4byte	.LVL157
 20367 1a11 98000000 		.4byte	.LVL161
 20368 1a15 0100     		.2byte	0x1
 20369 1a17 56       		.byte	0x56
 20370 1a18 BC000000 		.4byte	.LVL167
 20371 1a1c C3000000 		.4byte	.LVL168-1
 20372 1a20 0100     		.2byte	0x1
 20373 1a22 52       		.byte	0x52
 20374 1a23 C3000000 		.4byte	.LVL168-1
 20375 1a27 CA000000 		.4byte	.LVL169
 20376 1a2b 0100     		.2byte	0x1
 20377 1a2d 56       		.byte	0x56
 20378 1a2e 00000000 		.4byte	0
 20379 1a32 00000000 		.4byte	0
 20380              	.LVUS70:
 20381 1a36 01       		.uleb128 .LVU630
ARM GAS  /tmp/ccDzFi87.s 			page 359


 20382 1a37 00       		.uleb128 .LVU646
 20383 1a38 00       		.uleb128 .LVU657
 20384 1a39 00       		.uleb128 .LVU660
 20385              	.LLST70:
 20386 1a3a 74000000 		.4byte	.LVL157
 20387 1a3e 98000000 		.4byte	.LVL161
 20388 1a42 0100     		.2byte	0x1
 20389 1a44 54       		.byte	0x54
 20390 1a45 BC000000 		.4byte	.LVL167
 20391 1a49 CA000000 		.4byte	.LVL169
 20392 1a4d 0100     		.2byte	0x1
 20393 1a4f 54       		.byte	0x54
 20394 1a50 00000000 		.4byte	0
 20395 1a54 00000000 		.4byte	0
 20396              	.LVUS71:
 20397 1a58 00       		.uleb128 0
 20398 1a59 00       		.uleb128 .LVU671
 20399 1a5a 00       		.uleb128 .LVU671
 20400 1a5b 00       		.uleb128 .LVU726
 20401 1a5c 00       		.uleb128 .LVU726
 20402 1a5d 00       		.uleb128 .LVU728
 20403 1a5e 00       		.uleb128 .LVU728
 20404 1a5f 00       		.uleb128 0
 20405              	.LLST71:
 20406 1a60 00000000 		.4byte	.LVL171
 20407 1a64 1C000000 		.4byte	.LVL173
 20408 1a68 0100     		.2byte	0x1
 20409 1a6a 50       		.byte	0x50
 20410 1a6b 1C000000 		.4byte	.LVL173
 20411 1a6f BA000000 		.4byte	.LVL184
 20412 1a73 0100     		.2byte	0x1
 20413 1a75 54       		.byte	0x54
 20414 1a76 BA000000 		.4byte	.LVL184
 20415 1a7a BC000000 		.4byte	.LVL185
 20416 1a7e 0100     		.2byte	0x1
 20417 1a80 50       		.byte	0x50
 20418 1a81 BC000000 		.4byte	.LVL185
 20419 1a85 E8000000 		.4byte	.LFE276
 20420 1a89 0100     		.2byte	0x1
 20421 1a8b 54       		.byte	0x54
 20422 1a8c 00000000 		.4byte	0
 20423 1a90 00000000 		.4byte	0
 20424              	.LVUS72:
 20425 1a94 00       		.uleb128 0
 20426 1a95 00       		.uleb128 .LVU671
 20427 1a96 00       		.uleb128 .LVU671
 20428 1a97 00       		.uleb128 .LVU678
 20429 1a98 00       		.uleb128 .LVU678
 20430 1a99 00       		.uleb128 .LVU679
 20431 1a9a 00       		.uleb128 .LVU679
 20432 1a9b 00       		.uleb128 .LVU706
 20433 1a9c 00       		.uleb128 .LVU706
 20434 1a9d 00       		.uleb128 .LVU726
 20435 1a9e 00       		.uleb128 .LVU726
 20436 1a9f 00       		.uleb128 .LVU729
 20437 1aa0 00       		.uleb128 .LVU729
 20438 1aa1 00       		.uleb128 .LVU730
ARM GAS  /tmp/ccDzFi87.s 			page 360


 20439 1aa2 00       		.uleb128 .LVU730
 20440 1aa3 00       		.uleb128 0
 20441              	.LLST72:
 20442 1aa4 00000000 		.4byte	.LVL171
 20443 1aa8 1C000000 		.4byte	.LVL173
 20444 1aac 0100     		.2byte	0x1
 20445 1aae 51       		.byte	0x51
 20446 1aaf 1C000000 		.4byte	.LVL173
 20447 1ab3 2A000000 		.4byte	.LVL175
 20448 1ab7 0100     		.2byte	0x1
 20449 1ab9 56       		.byte	0x56
 20450 1aba 2A000000 		.4byte	.LVL175
 20451 1abe 38000000 		.4byte	.LVL176
 20452 1ac2 0400     		.2byte	0x4
 20453 1ac4 F3       		.byte	0xf3
 20454 1ac5 01       		.uleb128 0x1
 20455 1ac6 51       		.byte	0x51
 20456 1ac7 9F       		.byte	0x9f
 20457 1ac8 38000000 		.4byte	.LVL176
 20458 1acc 7A000000 		.4byte	.LVL178
 20459 1ad0 0100     		.2byte	0x1
 20460 1ad2 56       		.byte	0x56
 20461 1ad3 7A000000 		.4byte	.LVL178
 20462 1ad7 BA000000 		.4byte	.LVL184
 20463 1adb 0400     		.2byte	0x4
 20464 1add F3       		.byte	0xf3
 20465 1ade 01       		.uleb128 0x1
 20466 1adf 51       		.byte	0x51
 20467 1ae0 9F       		.byte	0x9f
 20468 1ae1 BA000000 		.4byte	.LVL184
 20469 1ae5 BF000000 		.4byte	.LVL186-1
 20470 1ae9 0100     		.2byte	0x1
 20471 1aeb 51       		.byte	0x51
 20472 1aec BF000000 		.4byte	.LVL186-1
 20473 1af0 C2000000 		.4byte	.LVL187
 20474 1af4 0100     		.2byte	0x1
 20475 1af6 56       		.byte	0x56
 20476 1af7 C2000000 		.4byte	.LVL187
 20477 1afb E8000000 		.4byte	.LFE276
 20478 1aff 0400     		.2byte	0x4
 20479 1b01 F3       		.byte	0xf3
 20480 1b02 01       		.uleb128 0x1
 20481 1b03 51       		.byte	0x51
 20482 1b04 9F       		.byte	0x9f
 20483 1b05 00000000 		.4byte	0
 20484 1b09 00000000 		.4byte	0
 20485              	.LVUS73:
 20486 1b0d 00       		.uleb128 0
 20487 1b0e 00       		.uleb128 .LVU671
 20488 1b0f 00       		.uleb128 .LVU671
 20489 1b10 00       		.uleb128 .LVU678
 20490 1b11 00       		.uleb128 .LVU678
 20491 1b12 00       		.uleb128 .LVU679
 20492 1b13 00       		.uleb128 .LVU679
 20493 1b14 00       		.uleb128 .LVU708
 20494 1b15 00       		.uleb128 .LVU708
 20495 1b16 00       		.uleb128 .LVU726
ARM GAS  /tmp/ccDzFi87.s 			page 361


 20496 1b17 00       		.uleb128 .LVU726
 20497 1b18 00       		.uleb128 .LVU729
 20498 1b19 00       		.uleb128 .LVU729
 20499 1b1a 00       		.uleb128 .LVU730
 20500 1b1b 00       		.uleb128 .LVU730
 20501 1b1c 00       		.uleb128 0
 20502              	.LLST73:
 20503 1b1d 00000000 		.4byte	.LVL171
 20504 1b21 1C000000 		.4byte	.LVL173
 20505 1b25 0100     		.2byte	0x1
 20506 1b27 52       		.byte	0x52
 20507 1b28 1C000000 		.4byte	.LVL173
 20508 1b2c 2A000000 		.4byte	.LVL175
 20509 1b30 0100     		.2byte	0x1
 20510 1b32 57       		.byte	0x57
 20511 1b33 2A000000 		.4byte	.LVL175
 20512 1b37 38000000 		.4byte	.LVL176
 20513 1b3b 0400     		.2byte	0x4
 20514 1b3d F3       		.byte	0xf3
 20515 1b3e 01       		.uleb128 0x1
 20516 1b3f 52       		.byte	0x52
 20517 1b40 9F       		.byte	0x9f
 20518 1b41 38000000 		.4byte	.LVL176
 20519 1b45 7C000000 		.4byte	.LVL179
 20520 1b49 0100     		.2byte	0x1
 20521 1b4b 57       		.byte	0x57
 20522 1b4c 7C000000 		.4byte	.LVL179
 20523 1b50 BA000000 		.4byte	.LVL184
 20524 1b54 0400     		.2byte	0x4
 20525 1b56 F3       		.byte	0xf3
 20526 1b57 01       		.uleb128 0x1
 20527 1b58 52       		.byte	0x52
 20528 1b59 9F       		.byte	0x9f
 20529 1b5a BA000000 		.4byte	.LVL184
 20530 1b5e BF000000 		.4byte	.LVL186-1
 20531 1b62 0100     		.2byte	0x1
 20532 1b64 52       		.byte	0x52
 20533 1b65 BF000000 		.4byte	.LVL186-1
 20534 1b69 C2000000 		.4byte	.LVL187
 20535 1b6d 0100     		.2byte	0x1
 20536 1b6f 57       		.byte	0x57
 20537 1b70 C2000000 		.4byte	.LVL187
 20538 1b74 E8000000 		.4byte	.LFE276
 20539 1b78 0400     		.2byte	0x4
 20540 1b7a F3       		.byte	0xf3
 20541 1b7b 01       		.uleb128 0x1
 20542 1b7c 52       		.byte	0x52
 20543 1b7d 9F       		.byte	0x9f
 20544 1b7e 00000000 		.4byte	0
 20545 1b82 00000000 		.4byte	0
 20546              	.LVUS74:
 20547 1b86 00       		.uleb128 0
 20548 1b87 00       		.uleb128 .LVU664
 20549 1b88 00       		.uleb128 .LVU664
 20550 1b89 00       		.uleb128 0
 20551              	.LLST74:
 20552 1b8a 00000000 		.4byte	.LVL171
ARM GAS  /tmp/ccDzFi87.s 			page 362


 20553 1b8e 06000000 		.4byte	.LVL172
 20554 1b92 0100     		.2byte	0x1
 20555 1b94 53       		.byte	0x53
 20556 1b95 06000000 		.4byte	.LVL172
 20557 1b99 E8000000 		.4byte	.LFE276
 20558 1b9d 0100     		.2byte	0x1
 20559 1b9f 55       		.byte	0x55
 20560 1ba0 00000000 		.4byte	0
 20561 1ba4 00000000 		.4byte	0
 20562              	.LVUS75:
 20563 1ba8 00       		.uleb128 .LVU679
 20564 1ba9 00       		.uleb128 .LVU726
 20565 1baa 00       		.uleb128 .LVU730
 20566 1bab 00       		.uleb128 .LVU733
 20567              	.LLST75:
 20568 1bac 38000000 		.4byte	.LVL176
 20569 1bb0 BA000000 		.4byte	.LVL184
 20570 1bb4 0100     		.2byte	0x1
 20571 1bb6 55       		.byte	0x55
 20572 1bb7 C2000000 		.4byte	.LVL187
 20573 1bbb D0000000 		.4byte	.LVL189
 20574 1bbf 0100     		.2byte	0x1
 20575 1bc1 55       		.byte	0x55
 20576 1bc2 00000000 		.4byte	0
 20577 1bc6 00000000 		.4byte	0
 20578              	.LVUS76:
 20579 1bca 00       		.uleb128 .LVU679
 20580 1bcb 00       		.uleb128 .LVU708
 20581 1bcc 00       		.uleb128 .LVU708
 20582 1bcd 00       		.uleb128 .LVU726
 20583 1bce 00       		.uleb128 .LVU730
 20584 1bcf 00       		.uleb128 .LVU733
 20585              	.LLST76:
 20586 1bd0 38000000 		.4byte	.LVL176
 20587 1bd4 7C000000 		.4byte	.LVL179
 20588 1bd8 0100     		.2byte	0x1
 20589 1bda 57       		.byte	0x57
 20590 1bdb 7C000000 		.4byte	.LVL179
 20591 1bdf BA000000 		.4byte	.LVL184
 20592 1be3 0400     		.2byte	0x4
 20593 1be5 F3       		.byte	0xf3
 20594 1be6 01       		.uleb128 0x1
 20595 1be7 52       		.byte	0x52
 20596 1be8 9F       		.byte	0x9f
 20597 1be9 C2000000 		.4byte	.LVL187
 20598 1bed D0000000 		.4byte	.LVL189
 20599 1bf1 0400     		.2byte	0x4
 20600 1bf3 F3       		.byte	0xf3
 20601 1bf4 01       		.uleb128 0x1
 20602 1bf5 52       		.byte	0x52
 20603 1bf6 9F       		.byte	0x9f
 20604 1bf7 00000000 		.4byte	0
 20605 1bfb 00000000 		.4byte	0
 20606              	.LVUS77:
 20607 1bff 00       		.uleb128 .LVU679
 20608 1c00 00       		.uleb128 .LVU706
 20609 1c01 00       		.uleb128 .LVU706
ARM GAS  /tmp/ccDzFi87.s 			page 363


 20610 1c02 00       		.uleb128 .LVU726
 20611 1c03 00       		.uleb128 .LVU730
 20612 1c04 00       		.uleb128 .LVU733
 20613              	.LLST77:
 20614 1c05 38000000 		.4byte	.LVL176
 20615 1c09 7A000000 		.4byte	.LVL178
 20616 1c0d 0100     		.2byte	0x1
 20617 1c0f 56       		.byte	0x56
 20618 1c10 7A000000 		.4byte	.LVL178
 20619 1c14 BA000000 		.4byte	.LVL184
 20620 1c18 0400     		.2byte	0x4
 20621 1c1a F3       		.byte	0xf3
 20622 1c1b 01       		.uleb128 0x1
 20623 1c1c 51       		.byte	0x51
 20624 1c1d 9F       		.byte	0x9f
 20625 1c1e C2000000 		.4byte	.LVL187
 20626 1c22 D0000000 		.4byte	.LVL189
 20627 1c26 0400     		.2byte	0x4
 20628 1c28 F3       		.byte	0xf3
 20629 1c29 01       		.uleb128 0x1
 20630 1c2a 51       		.byte	0x51
 20631 1c2b 9F       		.byte	0x9f
 20632 1c2c 00000000 		.4byte	0
 20633 1c30 00000000 		.4byte	0
 20634              	.LVUS78:
 20635 1c34 00       		.uleb128 .LVU679
 20636 1c35 00       		.uleb128 .LVU726
 20637 1c36 00       		.uleb128 .LVU730
 20638 1c37 00       		.uleb128 .LVU733
 20639              	.LLST78:
 20640 1c38 38000000 		.4byte	.LVL176
 20641 1c3c BA000000 		.4byte	.LVL184
 20642 1c40 0100     		.2byte	0x1
 20643 1c42 54       		.byte	0x54
 20644 1c43 C2000000 		.4byte	.LVL187
 20645 1c47 D0000000 		.4byte	.LVL189
 20646 1c4b 0100     		.2byte	0x1
 20647 1c4d 54       		.byte	0x54
 20648 1c4e 00000000 		.4byte	0
 20649 1c52 00000000 		.4byte	0
 20650              	.LVUS79:
 20651 1c56 01       		.uleb128 .LVU700
 20652 1c57 00       		.uleb128 .LVU708
 20653 1c58 00       		.uleb128 .LVU708
 20654 1c59 00       		.uleb128 .LVU716
 20655 1c5a 00       		.uleb128 .LVU730
 20656 1c5b 00       		.uleb128 .LVU732
 20657 1c5c 00       		.uleb128 .LVU732
 20658 1c5d 00       		.uleb128 .LVU733
 20659              	.LLST79:
 20660 1c5e 72000000 		.4byte	.LVL177
 20661 1c62 7C000000 		.4byte	.LVL179
 20662 1c66 0300     		.2byte	0x3
 20663 1c68 91       		.byte	0x91
 20664 1c69 60       		.sleb128 -32
 20665 1c6a 9F       		.byte	0x9f
 20666 1c6b 7C000000 		.4byte	.LVL179
ARM GAS  /tmp/ccDzFi87.s 			page 364


 20667 1c6f 96000000 		.4byte	.LVL181
 20668 1c73 0100     		.2byte	0x1
 20669 1c75 57       		.byte	0x57
 20670 1c76 C2000000 		.4byte	.LVL187
 20671 1c7a C9000000 		.4byte	.LVL188-1
 20672 1c7e 0100     		.2byte	0x1
 20673 1c80 53       		.byte	0x53
 20674 1c81 C9000000 		.4byte	.LVL188-1
 20675 1c85 D0000000 		.4byte	.LVL189
 20676 1c89 0100     		.2byte	0x1
 20677 1c8b 57       		.byte	0x57
 20678 1c8c 00000000 		.4byte	0
 20679 1c90 00000000 		.4byte	0
 20680              	.LVUS80:
 20681 1c94 01       		.uleb128 .LVU700
 20682 1c95 00       		.uleb128 .LVU716
 20683 1c96 00       		.uleb128 .LVU730
 20684 1c97 00       		.uleb128 .LVU733
 20685              	.LLST80:
 20686 1c98 72000000 		.4byte	.LVL177
 20687 1c9c 96000000 		.4byte	.LVL181
 20688 1ca0 0100     		.2byte	0x1
 20689 1ca2 55       		.byte	0x55
 20690 1ca3 C2000000 		.4byte	.LVL187
 20691 1ca7 D0000000 		.4byte	.LVL189
 20692 1cab 0100     		.2byte	0x1
 20693 1cad 55       		.byte	0x55
 20694 1cae 00000000 		.4byte	0
 20695 1cb2 00000000 		.4byte	0
 20696              	.LVUS81:
 20697 1cb6 01       		.uleb128 .LVU700
 20698 1cb7 00       		.uleb128 .LVU716
 20699 1cb8 00       		.uleb128 .LVU730
 20700 1cb9 00       		.uleb128 .LVU732
 20701 1cba 00       		.uleb128 .LVU732
 20702 1cbb 00       		.uleb128 .LVU733
 20703              	.LLST81:
 20704 1cbc 72000000 		.4byte	.LVL177
 20705 1cc0 96000000 		.4byte	.LVL181
 20706 1cc4 0100     		.2byte	0x1
 20707 1cc6 56       		.byte	0x56
 20708 1cc7 C2000000 		.4byte	.LVL187
 20709 1ccb C9000000 		.4byte	.LVL188-1
 20710 1ccf 0100     		.2byte	0x1
 20711 1cd1 52       		.byte	0x52
 20712 1cd2 C9000000 		.4byte	.LVL188-1
 20713 1cd6 D0000000 		.4byte	.LVL189
 20714 1cda 0100     		.2byte	0x1
 20715 1cdc 56       		.byte	0x56
 20716 1cdd 00000000 		.4byte	0
 20717 1ce1 00000000 		.4byte	0
 20718              	.LVUS82:
 20719 1ce5 01       		.uleb128 .LVU700
 20720 1ce6 00       		.uleb128 .LVU716
 20721 1ce7 00       		.uleb128 .LVU730
 20722 1ce8 00       		.uleb128 .LVU733
 20723              	.LLST82:
ARM GAS  /tmp/ccDzFi87.s 			page 365


 20724 1ce9 72000000 		.4byte	.LVL177
 20725 1ced 96000000 		.4byte	.LVL181
 20726 1cf1 0100     		.2byte	0x1
 20727 1cf3 54       		.byte	0x54
 20728 1cf4 C2000000 		.4byte	.LVL187
 20729 1cf8 D0000000 		.4byte	.LVL189
 20730 1cfc 0100     		.2byte	0x1
 20731 1cfe 54       		.byte	0x54
 20732 1cff 00000000 		.4byte	0
 20733 1d03 00000000 		.4byte	0
 20734              		.section	.debug_aranges,"",%progbits
 20735 0000 BC000000 		.4byte	0xbc
 20736 0004 0200     		.2byte	0x2
 20737 0006 00000000 		.4byte	.Ldebug_info0
 20738 000a 04       		.byte	0x4
 20739 000b 00       		.byte	0
 20740 000c 0000     		.2byte	0
 20741 000e 0000     		.2byte	0
 20742 0010 00000000 		.4byte	.LFB280
 20743 0014 60000000 		.4byte	.LFE280-.LFB280
 20744 0018 00000000 		.4byte	.LFB262
 20745 001c 68000000 		.4byte	.LFE262-.LFB262
 20746 0020 00000000 		.4byte	.LFB263
 20747 0024 44000000 		.4byte	.LFE263-.LFB263
 20748 0028 00000000 		.4byte	.LFB264
 20749 002c A0000000 		.4byte	.LFE264-.LFB264
 20750 0030 00000000 		.4byte	.LFB265
 20751 0034 58000000 		.4byte	.LFE265-.LFB265
 20752 0038 00000000 		.4byte	.LFB266
 20753 003c 48000000 		.4byte	.LFE266-.LFB266
 20754 0040 00000000 		.4byte	.LFB267
 20755 0044 30000000 		.4byte	.LFE267-.LFB267
 20756 0048 00000000 		.4byte	.LFB268
 20757 004c 30000000 		.4byte	.LFE268-.LFB268
 20758 0050 00000000 		.4byte	.LFB269
 20759 0054 48000000 		.4byte	.LFE269-.LFB269
 20760 0058 00000000 		.4byte	.LFB270
 20761 005c 44000000 		.4byte	.LFE270-.LFB270
 20762 0060 00000000 		.4byte	.LFB271
 20763 0064 5C000000 		.4byte	.LFE271-.LFB271
 20764 0068 00000000 		.4byte	.LFB272
 20765 006c 5C000000 		.4byte	.LFE272-.LFB272
 20766 0070 00000000 		.4byte	.LFB259
 20767 0074 F8000000 		.4byte	.LFE259-.LFB259
 20768 0078 00000000 		.4byte	.LFB261
 20769 007c A0000000 		.4byte	.LFE261-.LFB261
 20770 0080 00000000 		.4byte	.LFB273
 20771 0084 6C000000 		.4byte	.LFE273-.LFB273
 20772 0088 00000000 		.4byte	.LFB274
 20773 008c D4000000 		.4byte	.LFE274-.LFB274
 20774 0090 00000000 		.4byte	.LFB275
 20775 0094 E4000000 		.4byte	.LFE275-.LFB275
 20776 0098 00000000 		.4byte	.LFB276
 20777 009c E8000000 		.4byte	.LFE276-.LFB276
 20778 00a0 00000000 		.4byte	.LFB277
 20779 00a4 84000000 		.4byte	.LFE277-.LFB277
 20780 00a8 00000000 		.4byte	.LFB278
ARM GAS  /tmp/ccDzFi87.s 			page 366


 20781 00ac 84000000 		.4byte	.LFE278-.LFB278
 20782 00b0 00000000 		.4byte	.LFB279
 20783 00b4 28000000 		.4byte	.LFE279-.LFB279
 20784 00b8 00000000 		.4byte	0
 20785 00bc 00000000 		.4byte	0
 20786              		.section	.debug_ranges,"",%progbits
 20787              	.Ldebug_ranges0:
 20788 0000 16000000 		.4byte	.LBB94
 20789 0004 16000000 		.4byte	.LBE94
 20790 0008 16000000 		.4byte	.LBB108
 20791 000c 16000000 		.4byte	.LBE108
 20792 0010 16000000 		.4byte	.LBB109
 20793 0014 16000000 		.4byte	.LBE109
 20794 0018 16000000 		.4byte	.LBB110
 20795 001c 24000000 		.4byte	.LBE110
 20796 0020 00000000 		.4byte	0
 20797 0024 00000000 		.4byte	0
 20798 0028 16000000 		.4byte	.LBB97
 20799 002c 16000000 		.4byte	.LBE97
 20800 0030 16000000 		.4byte	.LBB102
 20801 0034 16000000 		.4byte	.LBE102
 20802 0038 16000000 		.4byte	.LBB103
 20803 003c 1C000000 		.4byte	.LBE103
 20804 0040 00000000 		.4byte	0
 20805 0044 00000000 		.4byte	0
 20806 0048 26000000 		.4byte	.LBB111
 20807 004c 28000000 		.4byte	.LBE111
 20808 0050 2C000000 		.4byte	.LBB114
 20809 0054 32000000 		.4byte	.LBE114
 20810 0058 00000000 		.4byte	0
 20811 005c 00000000 		.4byte	0
 20812 0060 32000000 		.4byte	.LBB115
 20813 0064 32000000 		.4byte	.LBE115
 20814 0068 32000000 		.4byte	.LBB129
 20815 006c 3A000000 		.4byte	.LBE129
 20816 0070 3A000000 		.4byte	.LBB130
 20817 0074 3A000000 		.4byte	.LBE130
 20818 0078 3A000000 		.4byte	.LBB131
 20819 007c 3E000000 		.4byte	.LBE131
 20820 0080 00000000 		.4byte	0
 20821 0084 00000000 		.4byte	0
 20822 0088 3A000000 		.4byte	.LBB118
 20823 008c 3A000000 		.4byte	.LBE118
 20824 0090 3A000000 		.4byte	.LBB123
 20825 0094 3A000000 		.4byte	.LBE123
 20826 0098 3A000000 		.4byte	.LBB124
 20827 009c 3E000000 		.4byte	.LBE124
 20828 00a0 00000000 		.4byte	0
 20829 00a4 00000000 		.4byte	0
 20830 00a8 1E000000 		.4byte	.LBB132
 20831 00ac 1E000000 		.4byte	.LBE132
 20832 00b0 4C000000 		.4byte	.LBB133
 20833 00b4 88000000 		.4byte	.LBE133
 20834 00b8 00000000 		.4byte	0
 20835 00bc 00000000 		.4byte	0
 20836 00c0 28000000 		.4byte	.LBB134
 20837 00c4 34000000 		.4byte	.LBE134
ARM GAS  /tmp/ccDzFi87.s 			page 367


 20838 00c8 3A000000 		.4byte	.LBB137
 20839 00cc 48000000 		.4byte	.LBE137
 20840 00d0 00000000 		.4byte	0
 20841 00d4 00000000 		.4byte	0
 20842 00d8 10000000 		.4byte	.LBB174
 20843 00dc 10000000 		.4byte	.LBE174
 20844 00e0 10000000 		.4byte	.LBB188
 20845 00e4 10000000 		.4byte	.LBE188
 20846 00e8 10000000 		.4byte	.LBB189
 20847 00ec 10000000 		.4byte	.LBE189
 20848 00f0 14000000 		.4byte	.LBB190
 20849 00f4 22000000 		.4byte	.LBE190
 20850 00f8 00000000 		.4byte	0
 20851 00fc 00000000 		.4byte	0
 20852 0100 10000000 		.4byte	.LBB177
 20853 0104 10000000 		.4byte	.LBE177
 20854 0108 10000000 		.4byte	.LBB182
 20855 010c 10000000 		.4byte	.LBE182
 20856 0110 14000000 		.4byte	.LBB183
 20857 0114 1A000000 		.4byte	.LBE183
 20858 0118 00000000 		.4byte	0
 20859 011c 00000000 		.4byte	0
 20860 0120 50000000 		.4byte	.LBB191
 20861 0124 50000000 		.4byte	.LBE191
 20862 0128 50000000 		.4byte	.LBB202
 20863 012c 6A000000 		.4byte	.LBE202
 20864 0130 6A000000 		.4byte	.LBB203
 20865 0134 70000000 		.4byte	.LBE203
 20866 0138 D2000000 		.4byte	.LBB226
 20867 013c DA000000 		.4byte	.LBE226
 20868 0140 00000000 		.4byte	0
 20869 0144 00000000 		.4byte	0
 20870 0148 6A000000 		.4byte	.LBB194
 20871 014c 6A000000 		.4byte	.LBE194
 20872 0150 6A000000 		.4byte	.LBB197
 20873 0154 70000000 		.4byte	.LBE197
 20874 0158 00000000 		.4byte	0
 20875 015c 00000000 		.4byte	0
 20876 0160 92000000 		.4byte	.LBB206
 20877 0164 92000000 		.4byte	.LBE206
 20878 0168 92000000 		.4byte	.LBB219
 20879 016c AC000000 		.4byte	.LBE219
 20880 0170 AC000000 		.4byte	.LBB220
 20881 0174 B2000000 		.4byte	.LBE220
 20882 0178 B4000000 		.4byte	.LBB221
 20883 017c B6000000 		.4byte	.LBE221
 20884 0180 DA000000 		.4byte	.LBB227
 20885 0184 E2000000 		.4byte	.LBE227
 20886 0188 00000000 		.4byte	0
 20887 018c 00000000 		.4byte	0
 20888 0190 AC000000 		.4byte	.LBB209
 20889 0194 AC000000 		.4byte	.LBE209
 20890 0198 AC000000 		.4byte	.LBB212
 20891 019c B2000000 		.4byte	.LBE212
 20892 01a0 00000000 		.4byte	0
 20893 01a4 00000000 		.4byte	0
 20894 01a8 B6000000 		.4byte	.LBB222
ARM GAS  /tmp/ccDzFi87.s 			page 368


 20895 01ac C8000000 		.4byte	.LBE222
 20896 01b0 CE000000 		.4byte	.LBB225
 20897 01b4 D2000000 		.4byte	.LBE225
 20898 01b8 00000000 		.4byte	0
 20899 01bc 00000000 		.4byte	0
 20900 01c0 6A000000 		.4byte	.LBB230
 20901 01c4 6C000000 		.4byte	.LBE230
 20902 01c8 7A000000 		.4byte	.LBB234
 20903 01cc 8A000000 		.4byte	.LBE234
 20904 01d0 90000000 		.4byte	.LBB235
 20905 01d4 94000000 		.4byte	.LBE235
 20906 01d8 00000000 		.4byte	0
 20907 01dc 00000000 		.4byte	0
 20908 01e0 0E000000 		.4byte	.LBB238
 20909 01e4 12000000 		.4byte	.LBE238
 20910 01e8 20000000 		.4byte	.LBB243
 20911 01ec 6A000000 		.4byte	.LBE243
 20912 01f0 6C000000 		.4byte	.LBB244
 20913 01f4 6E000000 		.4byte	.LBE244
 20914 01f8 A4000000 		.4byte	.LBB245
 20915 01fc AC000000 		.4byte	.LBE245
 20916 0200 00000000 		.4byte	0
 20917 0204 00000000 		.4byte	0
 20918 0208 38000000 		.4byte	.LBB250
 20919 020c B4000000 		.4byte	.LBE250
 20920 0210 BC000000 		.4byte	.LBB257
 20921 0214 CA000000 		.4byte	.LBE257
 20922 0218 00000000 		.4byte	0
 20923 021c 00000000 		.4byte	0
 20924 0220 74000000 		.4byte	.LBB252
 20925 0224 98000000 		.4byte	.LBE252
 20926 0228 BC000000 		.4byte	.LBB255
 20927 022c CA000000 		.4byte	.LBE255
 20928 0230 00000000 		.4byte	0
 20929 0234 00000000 		.4byte	0
 20930 0238 38000000 		.4byte	.LBB262
 20931 023c BA000000 		.4byte	.LBE262
 20932 0240 C2000000 		.4byte	.LBB269
 20933 0244 D0000000 		.4byte	.LBE269
 20934 0248 00000000 		.4byte	0
 20935 024c 00000000 		.4byte	0
 20936 0250 72000000 		.4byte	.LBB264
 20937 0254 96000000 		.4byte	.LBE264
 20938 0258 C2000000 		.4byte	.LBB267
 20939 025c D0000000 		.4byte	.LBE267
 20940 0260 00000000 		.4byte	0
 20941 0264 00000000 		.4byte	0
 20942 0268 14000000 		.4byte	.LBB270
 20943 026c 50000000 		.4byte	.LBE270
 20944 0270 60000000 		.4byte	.LBB271
 20945 0274 64000000 		.4byte	.LBE271
 20946 0278 00000000 		.4byte	0
 20947 027c 00000000 		.4byte	0
 20948 0280 14000000 		.4byte	.LBB272
 20949 0284 50000000 		.4byte	.LBE272
 20950 0288 60000000 		.4byte	.LBB273
 20951 028c 64000000 		.4byte	.LBE273
ARM GAS  /tmp/ccDzFi87.s 			page 369


 20952 0290 00000000 		.4byte	0
 20953 0294 00000000 		.4byte	0
 20954 0298 00000000 		.4byte	.LFB280
 20955 029c 60000000 		.4byte	.LFE280
 20956 02a0 00000000 		.4byte	.LFB262
 20957 02a4 68000000 		.4byte	.LFE262
 20958 02a8 00000000 		.4byte	.LFB263
 20959 02ac 44000000 		.4byte	.LFE263
 20960 02b0 00000000 		.4byte	.LFB264
 20961 02b4 A0000000 		.4byte	.LFE264
 20962 02b8 00000000 		.4byte	.LFB265
 20963 02bc 58000000 		.4byte	.LFE265
 20964 02c0 00000000 		.4byte	.LFB266
 20965 02c4 48000000 		.4byte	.LFE266
 20966 02c8 00000000 		.4byte	.LFB267
 20967 02cc 30000000 		.4byte	.LFE267
 20968 02d0 00000000 		.4byte	.LFB268
 20969 02d4 30000000 		.4byte	.LFE268
 20970 02d8 00000000 		.4byte	.LFB269
 20971 02dc 48000000 		.4byte	.LFE269
 20972 02e0 00000000 		.4byte	.LFB270
 20973 02e4 44000000 		.4byte	.LFE270
 20974 02e8 00000000 		.4byte	.LFB271
 20975 02ec 5C000000 		.4byte	.LFE271
 20976 02f0 00000000 		.4byte	.LFB272
 20977 02f4 5C000000 		.4byte	.LFE272
 20978 02f8 00000000 		.4byte	.LFB259
 20979 02fc F8000000 		.4byte	.LFE259
 20980 0300 00000000 		.4byte	.LFB261
 20981 0304 A0000000 		.4byte	.LFE261
 20982 0308 00000000 		.4byte	.LFB273
 20983 030c 6C000000 		.4byte	.LFE273
 20984 0310 00000000 		.4byte	.LFB274
 20985 0314 D4000000 		.4byte	.LFE274
 20986 0318 00000000 		.4byte	.LFB275
 20987 031c E4000000 		.4byte	.LFE275
 20988 0320 00000000 		.4byte	.LFB276
 20989 0324 E8000000 		.4byte	.LFE276
 20990 0328 00000000 		.4byte	.LFB277
 20991 032c 84000000 		.4byte	.LFE277
 20992 0330 00000000 		.4byte	.LFB278
 20993 0334 84000000 		.4byte	.LFE278
 20994 0338 00000000 		.4byte	.LFB279
 20995 033c 28000000 		.4byte	.LFE279
 20996 0340 00000000 		.4byte	0
 20997 0344 00000000 		.4byte	0
 20998              		.section	.debug_line,"",%progbits
 20999              	.Ldebug_line0:
 21000 0000 F8120000 		.section	.debug_str,"MS",%progbits,1
 21000      03008E05 
 21000      00000201 
 21000      FB0E0D00 
 21000      01010101 
 21001              	.LASF699:
 21002 0000 5553425F 		.ascii	"USB_STOP\000"
 21002      53544F50 
 21002      00
ARM GAS  /tmp/ccDzFi87.s 			page 370


 21003              	.LASF311:
 21004 0009 706F7274 		.ascii	"port_intctx\000"
 21004      5F696E74 
 21004      63747800 
 21005              	.LASF320:
 21006 0015 63685F74 		.ascii	"ch_trace_buffer_t\000"
 21006      72616365 
 21006      5F627566 
 21006      6665725F 
 21006      7400
 21007              	.LASF352:
 21008 0027 63685F70 		.ascii	"ch_ptrsize\000"
 21008      74727369 
 21008      7A6500
 21009              	.LASF632:
 21010 0032 6576656E 		.ascii	"event\000"
 21010      7400
 21011              	.LASF483:
 21012 0038 43414E5F 		.ascii	"CAN_STARTING\000"
 21012      53544152 
 21012      54494E47 
 21012      00
 21013              	.LASF846:
 21014 0045 5F5F6675 		.ascii	"__func__\000"
 21014      6E635F5F 
 21014      00
 21015              	.LASF133:
 21016 004e 6D73675F 		.ascii	"msg_t\000"
 21016      7400
 21017              	.LASF428:
 21018 0054 61667268 		.ascii	"afrh\000"
 21018      00
 21019              	.LASF575:
 21020 0059 4F504D4F 		.ascii	"OPMODE_SMBUS_DEVICE\000"
 21020      44455F53 
 21020      4D425553 
 21020      5F444556 
 21020      49434500 
 21021              	.LASF331:
 21022 006d 6D5F6372 		.ascii	"m_crit_isr\000"
 21022      69745F69 
 21022      737200
 21023              	.LASF880:
 21024 0078 706F7274 		.ascii	"port_unlock_from_isr\000"
 21024      5F756E6C 
 21024      6F636B5F 
 21024      66726F6D 
 21024      5F697372 
 21025              	.LASF838:
 21026 008d 7364635F 		.ascii	"sdc_lld_write\000"
 21026      6C6C645F 
 21026      77726974 
 21026      6500
 21027              	.LASF651:
 21028 009b 73646366 		.ascii	"sdcflags_t\000"
 21028      6C616773 
 21028      5F7400
ARM GAS  /tmp/ccDzFi87.s 			page 371


 21029              	.LASF835:
 21030 00a6 616C6967 		.ascii	"alignment\000"
 21030      6E6D656E 
 21030      7400
 21031              	.LASF758:
 21032 00b0 44494550 		.ascii	"DIEPTXF0\000"
 21032      54584630 
 21032      00
 21033              	.LASF834:
 21034 00b9 55534244 		.ascii	"USBD1\000"
 21034      3100
 21035              	.LASF482:
 21036 00bf 43414E5F 		.ascii	"CAN_STOP\000"
 21036      53544F50 
 21036      00
 21037              	.LASF365:
 21038 00c8 63665F6F 		.ascii	"cf_off_time\000"
 21038      66665F74 
 21038      696D6500 
 21039              	.LASF192:
 21040 00d4 63685F73 		.ascii	"ch_system_t\000"
 21040      79737465 
 21040      6D5F7400 
 21041              	.LASF337:
 21042 00e0 77747365 		.ascii	"wtsemp\000"
 21042      6D7000
 21043              	.LASF412:
 21044 00e7 5F426F6F 		.ascii	"_Bool\000"
 21044      6C00
 21045              	.LASF857:
 21046 00ed 7364635F 		.ascii	"sdc_lld_start_clk\000"
 21046      6C6C645F 
 21046      73746172 
 21046      745F636C 
 21046      6B00
 21047              	.LASF524:
 21048 00ff 64617461 		.ascii	"datamode\000"
 21048      6D6F6465 
 21048      00
 21049              	.LASF591:
 21050 0108 646D6172 		.ascii	"dmarx\000"
 21050      7800
 21051              	.LASF63:
 21052 010e 5F6D6273 		.ascii	"_mbstate\000"
 21052      74617465 
 21052      00
 21053              	.LASF42:
 21054 0117 5F617465 		.ascii	"_atexit\000"
 21054      78697400 
 21055              	.LASF874:
 21056 011f 6F73616C 		.ascii	"osalSysUnlock\000"
 21056      53797355 
 21056      6E6C6F63 
 21056      6B00
 21057              	.LASF472:
 21058 012d 73717231 		.ascii	"sqr1\000"
 21058      00
ARM GAS  /tmp/ccDzFi87.s 			page 372


 21059              	.LASF399:
 21060 0132 424C4B5F 		.ascii	"BLK_UNINIT\000"
 21060      554E494E 
 21060      495400
 21061              	.LASF603:
 21062 013d 72785F62 		.ascii	"rx_buffer\000"
 21062      75666665 
 21062      7200
 21063              	.LASF587:
 21064 0147 6572726F 		.ascii	"errors\000"
 21064      727300
 21065              	.LASF648:
 21066 014e 5344435F 		.ascii	"SDC_CLK_50MHz\000"
 21066      434C4B5F 
 21066      35304D48 
 21066      7A00
 21067              	.LASF324:
 21068 015c 776F7273 		.ascii	"worst\000"
 21068      7400
 21069              	.LASF185:
 21070 0162 76745F73 		.ascii	"vt_systime\000"
 21070      79737469 
 21070      6D6500
 21071              	.LASF251:
 21072 016d 444F5231 		.ascii	"DOR1\000"
 21072      00
 21073              	.LASF252:
 21074 0172 444F5232 		.ascii	"DOR2\000"
 21074      00
 21075              	.LASF841:
 21076 0177 626C6F63 		.ascii	"blocks\000"
 21076      6B7300
 21077              	.LASF602:
 21078 017e 74785F62 		.ascii	"tx_buffer\000"
 21078      75666665 
 21078      7200
 21079              	.LASF284:
 21080 0188 5243435F 		.ascii	"RCC_TypeDef\000"
 21080      54797065 
 21080      44656600 
 21081              	.LASF32:
 21082 0194 5F5F746D 		.ascii	"__tm_mon\000"
 21082      5F6D6F6E 
 21082      00
 21083              	.LASF40:
 21084 019d 5F666E74 		.ascii	"_fntypes\000"
 21084      79706573 
 21084      00
 21085              	.LASF346:
 21086 01a6 6D5F6E65 		.ascii	"m_next\000"
 21086      787400
 21087              	.LASF432:
 21088 01ad 50434461 		.ascii	"PCData\000"
 21088      746100
 21089              	.LASF70:
 21090 01b4 5F696E63 		.ascii	"_inc\000"
 21090      00
ARM GAS  /tmp/ccDzFi87.s 			page 373


 21091              	.LASF43:
 21092 01b9 5F696E64 		.ascii	"_ind\000"
 21092      00
 21093              	.LASF296:
 21094 01be 4D41534B 		.ascii	"MASK\000"
 21094      00
 21095              	.LASF457:
 21096 01c3 73616D70 		.ascii	"samples\000"
 21096      6C657300 
 21097              	.LASF762:
 21098 01cb 47434346 		.ascii	"GCCFG\000"
 21098      4700
 21099              	.LASF553:
 21100 01d1 42445452 		.ascii	"BDTR\000"
 21100      00
 21101              	.LASF506:
 21102 01d6 7265676D 		.ascii	"regmask\000"
 21102      61736B00 
 21103              	.LASF585:
 21104 01de 49324343 		.ascii	"I2CConfig\000"
 21104      6F6E6669 
 21104      6700
 21105              	.LASF123:
 21106 01e8 75696E74 		.ascii	"uint16_t\000"
 21106      31365F74 
 21106      00
 21107              	.LASF592:
 21108 01f1 646D6174 		.ascii	"dmatx\000"
 21108      7800
 21109              	.LASF832:
 21110 01f7 736F665F 		.ascii	"sof_cb\000"
 21110      636200
 21111              	.LASF529:
 21112 01fe 4558545F 		.ascii	"EXT_ACTIVE\000"
 21112      41435449 
 21112      564500
 21113              	.LASF49:
 21114 0209 5F666C61 		.ascii	"_flags\000"
 21114      677300
 21115              	.LASF425:
 21116 0210 6F737065 		.ascii	"ospeedr\000"
 21116      65647200 
 21117              	.LASF765:
 21118 0218 44494550 		.ascii	"DIEPTXF\000"
 21118      54584600 
 21119              	.LASF371:
 21120 0220 656C5F6E 		.ascii	"el_next\000"
 21120      65787400 
 21121              	.LASF452:
 21122 0228 4144435F 		.ascii	"ADC_ERR_OVERFLOW\000"
 21122      4552525F 
 21122      4F564552 
 21122      464C4F57 
 21122      00
 21123              	.LASF80:
 21124 0239 5F637674 		.ascii	"_cvtlen\000"
 21124      6C656E00 
ARM GAS  /tmp/ccDzFi87.s 			page 374


 21125              	.LASF190:
 21126 0241 6C6F636B 		.ascii	"lock_cnt\000"
 21126      5F636E74 
 21126      00
 21127              	.LASF166:
 21128 024a 63685F74 		.ascii	"ch_threads_queue\000"
 21128      68726561 
 21128      64735F71 
 21128      75657565 
 21128      00
 21129              	.LASF84:
 21130 025b 5F736967 		.ascii	"_sig_func\000"
 21130      5F66756E 
 21130      6300
 21131              	.LASF851:
 21132 0265 7364635F 		.ascii	"sdc_lld_send_cmd_short_crc\000"
 21132      6C6C645F 
 21132      73656E64 
 21132      5F636D64 
 21132      5F73686F 
 21133              	.LASF145:
 21134 0280 705F6E65 		.ascii	"p_newer\000"
 21134      77657200 
 21135              	.LASF775:
 21136 0288 48505254 		.ascii	"HPRT\000"
 21136      00
 21137              	.LASF729:
 21138 028d 4843494E 		.ascii	"HCINT\000"
 21138      5400
 21139              	.LASF886:
 21140 0293 5F736463 		.ascii	"_sdc_wait_for_transfer_state\000"
 21140      5F776169 
 21140      745F666F 
 21140      725F7472 
 21140      616E7366 
 21141              	.LASF201:
 21142 02b0 534D5052 		.ascii	"SMPR1\000"
 21142      3100
 21143              	.LASF202:
 21144 02b6 534D5052 		.ascii	"SMPR2\000"
 21144      3200
 21145              	.LASF362:
 21146 02bc 63665F6F 		.ascii	"cf_off_flags\000"
 21146      66665F66 
 21146      6C616773 
 21146      00
 21147              	.LASF62:
 21148 02c9 5F6C6F63 		.ascii	"_lock\000"
 21148      6B00
 21149              	.LASF58:
 21150 02cf 5F6E6275 		.ascii	"_nbuf\000"
 21150      6600
 21151              	.LASF668:
 21152 02d5 5350495F 		.ascii	"SPI_STOP\000"
 21152      53544F50 
 21152      00
 21153              	.LASF117:
ARM GAS  /tmp/ccDzFi87.s 			page 375


 21154 02de 5F756E75 		.ascii	"_unused\000"
 21154      73656400 
 21155              	.LASF431:
 21156 02e6 50424461 		.ascii	"PBData\000"
 21156      746100
 21157              	.LASF350:
 21158 02ed 63685F73 		.ascii	"ch_size\000"
 21158      697A6500 
 21159              	.LASF771:
 21160 02f5 48505458 		.ascii	"HPTXSTS\000"
 21160      53545300 
 21161              	.LASF424:
 21162 02fd 6F747970 		.ascii	"otyper\000"
 21162      657200
 21163              	.LASF854:
 21164 0304 7364635F 		.ascii	"sdc_lld_set_bus_mode\000"
 21164      6C6C645F 
 21164      7365745F 
 21164      6275735F 
 21164      6D6F6465 
 21165              	.LASF415:
 21166 0319 4F545950 		.ascii	"OTYPER\000"
 21166      455200
 21167              	.LASF508:
 21168 0320 64616370 		.ascii	"dacparams_t\000"
 21168      6172616D 
 21168      735F7400 
 21169              	.LASF643:
 21170 032c 5344435F 		.ascii	"SDC_MODE_1BIT\000"
 21170      4D4F4445 
 21170      5F314249 
 21170      5400
 21171              	.LASF727:
 21172 033a 48434348 		.ascii	"HCCHAR\000"
 21172      415200
 21173              	.LASF864:
 21174 0341 7364635F 		.ascii	"sdc_lld_wait_transaction_end\000"
 21174      6C6C645F 
 21174      77616974 
 21174      5F747261 
 21174      6E736163 
 21175              	.LASF569:
 21176 035e 4932435F 		.ascii	"I2C_ACTIVE_RX\000"
 21176      41435449 
 21176      56455F52 
 21176      5800
 21177              	.LASF139:
 21178 036c 74687265 		.ascii	"thread_t\000"
 21178      61645F74 
 21178      00
 21179              	.LASF373:
 21180 0375 656C5F65 		.ascii	"el_events\000"
 21180      76656E74 
 21180      7300
 21181              	.LASF612:
 21182 037f 70776D73 		.ascii	"pwmstate_t\000"
 21182      74617465 
ARM GAS  /tmp/ccDzFi87.s 			page 376


 21182      5F7400
 21183              	.LASF493:
 21184 038a 736C6565 		.ascii	"sleep_event\000"
 21184      705F6576 
 21184      656E7400 
 21185              	.LASF184:
 21186 0396 63685F76 		.ascii	"ch_virtual_timers_list\000"
 21186      69727475 
 21186      616C5F74 
 21186      696D6572 
 21186      735F6C69 
 21187              	.LASF396:
 21188 03ad 76656374 		.ascii	"vector\000"
 21188      6F7200
 21189              	.LASF753:
 21190 03b4 47494E54 		.ascii	"GINTSTS\000"
 21190      53545300 
 21191              	.LASF121:
 21192 03bc 696E7433 		.ascii	"int32_t\000"
 21192      325F7400 
 21193              	.LASF583:
 21194 03c4 636C6F63 		.ascii	"clock_speed\000"
 21194      6B5F7370 
 21194      65656400 
 21195              	.LASF138:
 21196 03d0 73797374 		.ascii	"systime_t\000"
 21196      696D655F 
 21196      7400
 21197              	.LASF526:
 21198 03da 44414344 		.ascii	"DACD2\000"
 21198      3200
 21199              	.LASF495:
 21200 03e0 43414E44 		.ascii	"CANDriver\000"
 21200      72697665 
 21200      7200
 21201              	.LASF95:
 21202 03ea 5F616464 		.ascii	"_add\000"
 21202      00
 21203              	.LASF255:
 21204 03ef 4D304152 		.ascii	"M0AR\000"
 21204      00
 21205              	.LASF734:
 21206 03f4 72657376 		.ascii	"resvd1c\000"
 21206      64316300 
 21207              	.LASF573:
 21208 03fc 69326366 		.ascii	"i2cflags_t\000"
 21208      6C616773 
 21208      5F7400
 21209              	.LASF772:
 21210 0407 4841494E 		.ascii	"HAINT\000"
 21210      5400
 21211              	.LASF900:
 21212 040d 5F646267 		.ascii	"_dbg_check_enter_isr\000"
 21212      5F636865 
 21212      636B5F65 
 21212      6E746572 
 21212      5F697372 
ARM GAS  /tmp/ccDzFi87.s 			page 377


 21213              	.LASF904:
 21214 0422 5F646267 		.ascii	"_dbg_check_lock\000"
 21214      5F636865 
 21214      636B5F6C 
 21214      6F636B00 
 21215              	.LASF237:
 21216 0432 46413152 		.ascii	"FA1R\000"
 21216      00
 21217              	.LASF868:
 21218 0437 6F73616C 		.ascii	"osalThreadResumeI\000"
 21218      54687265 
 21218      61645265 
 21218      73756D65 
 21218      4900
 21219              	.LASF913:
 21220 0449 6D656D63 		.ascii	"memcpy\000"
 21220      707900
 21221              	.LASF889:
 21222 0450 6E766963 		.ascii	"nvicDisableVector\000"
 21222      44697361 
 21222      626C6556 
 21222      6563746F 
 21222      7200
 21223              	.LASF769:
 21224 0462 48464E55 		.ascii	"HFNUM\000"
 21224      4D00
 21225              	.LASF389:
 21226 0468 716E6F74 		.ascii	"qnotify_t\000"
 21226      6966795F 
 21226      7400
 21227              	.LASF448:
 21228 0472 61646373 		.ascii	"adcstate_t\000"
 21228      74617465 
 21228      5F7400
 21229              	.LASF268:
 21230 047d 41504231 		.ascii	"APB1RSTR\000"
 21230      52535452 
 21230      00
 21231              	.LASF654:
 21232 0486 63617264 		.ascii	"cardmode\000"
 21232      6D6F6465 
 21232      00
 21233              	.LASF394:
 21234 048f 69736869 		.ascii	"ishift\000"
 21234      667400
 21235              	.LASF543:
 21236 0496 4750545F 		.ascii	"GPT_ONESHOT\000"
 21236      4F4E4553 
 21236      484F5400 
 21237              	.LASF384:
 21238 04a2 715F746F 		.ascii	"q_top\000"
 21238      7000
 21239              	.LASF51:
 21240 04a8 5F6C6266 		.ascii	"_lbfsize\000"
 21240      73697A65 
 21240      00
 21241              	.LASF720:
ARM GAS  /tmp/ccDzFi87.s 			page 378


 21242 04b1 75645F73 		.ascii	"ud_string\000"
 21242      7472696E 
 21242      6700
 21243              	.LASF586:
 21244 04bb 49324344 		.ascii	"I2CDriver\000"
 21244      72697665 
 21244      7200
 21245              	.LASF568:
 21246 04c5 4932435F 		.ascii	"I2C_ACTIVE_TX\000"
 21246      41435449 
 21246      56455F54 
 21246      5800
 21247              	.LASF638:
 21248 04d3 72656164 		.ascii	"read\000"
 21248      00
 21249              	.LASF574:
 21250 04d8 4F504D4F 		.ascii	"OPMODE_I2C\000"
 21250      44455F49 
 21250      324300
 21251              	.LASF781:
 21252 04e3 72657376 		.ascii	"resvd80C\000"
 21252      64383043 
 21252      00
 21253              	.LASF829:
 21254 04ec 6576656E 		.ascii	"event_cb\000"
 21254      745F6362 
 21254      00
 21255              	.LASF748:
 21256 04f5 474F5447 		.ascii	"GOTGCTL\000"
 21256      43544C00 
 21257              	.LASF723:
 21258 04fd 75736265 		.ascii	"usbepcallback_t\000"
 21258      7063616C 
 21258      6C626163 
 21258      6B5F7400 
 21259              	.LASF61:
 21260 050d 5F646174 		.ascii	"_data\000"
 21260      6100
 21261              	.LASF195:
 21262 0513 76746C69 		.ascii	"vtlist\000"
 21262      737400
 21263              	.LASF260:
 21264 051a 54524953 		.ascii	"TRISE\000"
 21264      4500
 21265              	.LASF787:
 21266 0520 72657376 		.ascii	"resvd824\000"
 21266      64383234 
 21266      00
 21267              	.LASF154:
 21268 0529 705F7761 		.ascii	"p_waiting\000"
 21268      6974696E 
 21268      6700
 21269              	.LASF332:
 21270 0533 6B65726E 		.ascii	"kernel_stats_t\000"
 21270      656C5F73 
 21270      74617473 
 21270      5F7400
ARM GAS  /tmp/ccDzFi87.s 			page 379


 21271              	.LASF381:
 21272 0542 715F7761 		.ascii	"q_waiting\000"
 21272      6974696E 
 21272      6700
 21273              	.LASF219:
 21274 054c 43414E5F 		.ascii	"CAN_TxMailBox_TypeDef\000"
 21274      54784D61 
 21274      696C426F 
 21274      785F5479 
 21274      70654465 
 21275              	.LASF194:
 21276 0562 726C6973 		.ascii	"rlist\000"
 21276      7400
 21277              	.LASF163:
 21278 0568 74687265 		.ascii	"threads_list_t\000"
 21278      6164735F 
 21278      6C697374 
 21278      5F7400
 21279              	.LASF322:
 21280 0577 746D5F63 		.ascii	"tm_calibration_t\000"
 21280      616C6962 
 21280      72617469 
 21280      6F6E5F74 
 21280      00
 21281              	.LASF390:
 21282 0588 696E7075 		.ascii	"input_queue_t\000"
 21282      745F7175 
 21282      6575655F 
 21282      7400
 21283              	.LASF475:
 21284 0596 41444343 		.ascii	"ADCConversionGroup\000"
 21284      6F6E7665 
 21284      7273696F 
 21284      6E47726F 
 21284      757000
 21285              	.LASF780:
 21286 05a9 44535453 		.ascii	"DSTS\000"
 21286      00
 21287              	.LASF578:
 21288 05ae 5354445F 		.ascii	"STD_DUTY_CYCLE\000"
 21288      44555459 
 21288      5F435943 
 21288      4C4500
 21289              	.LASF65:
 21290 05bd 5F726565 		.ascii	"_reent\000"
 21290      6E7400
 21291              	.LASF863:
 21292 05c4 7364635F 		.ascii	"sdc_lld_collect_errors\000"
 21292      6C6C645F 
 21292      636F6C6C 
 21292      6563745F 
 21292      6572726F 
 21293              	.LASF358:
 21294 05db 63665F6F 		.ascii	"cf_off_older\000"
 21294      66665F6F 
 21294      6C646572 
 21294      00
ARM GAS  /tmp/ccDzFi87.s 			page 380


 21295              	.LASF127:
 21296 05e8 72747469 		.ascii	"rttime_t\000"
 21296      6D655F74 
 21296      00
 21297              	.LASF538:
 21298 05f1 45585444 		.ascii	"EXTD1\000"
 21298      3100
 21299              	.LASF814:
 21300 05f7 72787175 		.ascii	"rxqueued\000"
 21300      65756564 
 21300      00
 21301              	.LASF486:
 21302 0600 63616E73 		.ascii	"canstate_t\000"
 21302      74617465 
 21302      5F7400
 21303              	.LASF239:
 21304 060b 7346696C 		.ascii	"sFilterRegister\000"
 21304      74657252 
 21304      65676973 
 21304      74657200 
 21305              	.LASF899:
 21306 061b 5F737461 		.ascii	"_stats_increase_irq\000"
 21306      74735F69 
 21306      6E637265 
 21306      6173655F 
 21306      69727100 
 21307              	.LASF86:
 21308 062f 5F5F7366 		.ascii	"__sf\000"
 21308      00
 21309              	.LASF786:
 21310 0634 72657376 		.ascii	"resvd820\000"
 21310      64383230 
 21310      00
 21311              	.LASF46:
 21312 063d 5F626173 		.ascii	"_base\000"
 21312      6500
 21313              	.LASF912:
 21314 0643 5F5F7374 		.ascii	"__stack_chk_fail\000"
 21314      61636B5F 
 21314      63686B5F 
 21314      6661696C 
 21314      00
 21315              	.LASF288:
 21316 0654 52455350 		.ascii	"RESP1\000"
 21316      3100
 21317              	.LASF289:
 21318 065a 52455350 		.ascii	"RESP2\000"
 21318      3200
 21319              	.LASF290:
 21320 0660 52455350 		.ascii	"RESP3\000"
 21320      3300
 21321              	.LASF291:
 21322 0666 52455350 		.ascii	"RESP4\000"
 21322      3400
 21323              	.LASF104:
 21324 066c 5F6D6274 		.ascii	"_mbtowc_state\000"
 21324      6F77635F 
ARM GAS  /tmp/ccDzFi87.s 			page 381


 21324      73746174 
 21324      6500
 21325              	.LASF870:
 21326 067a 6F73616C 		.ascii	"osalThreadSleep\000"
 21326      54687265 
 21326      6164536C 
 21326      65657000 
 21327              	.LASF872:
 21328 068a 6F73616C 		.ascii	"osalSysUnlockFromISR\000"
 21328      53797355 
 21328      6E6C6F63 
 21328      6B46726F 
 21328      6D495352 
 21329              	.LASF565:
 21330 069f 4932435F 		.ascii	"I2C_UNINIT\000"
 21330      554E494E 
 21330      495400
 21331              	.LASF725:
 21332 06aa 75736272 		.ascii	"usbreqhandler_t\000"
 21332      65716861 
 21332      6E646C65 
 21332      725F7400 
 21333              	.LASF446:
 21334 06ba 4144435F 		.ascii	"ADC_COMPLETE\000"
 21334      434F4D50 
 21334      4C455445 
 21334      00
 21335              	.LASF562:
 21336 06c7 47505443 		.ascii	"GPTConfig\000"
 21336      6F6E6669 
 21336      6700
 21337              	.LASF627:
 21338 06d1 53445F55 		.ascii	"SD_UNINIT\000"
 21338      4E494E49 
 21338      5400
 21339              	.LASF132:
 21340 06db 74707269 		.ascii	"tprio_t\000"
 21340      6F5F7400 
 21341              	.LASF328:
 21342 06e3 6E5F6972 		.ascii	"n_irq\000"
 21342      7100
 21343              	.LASF606:
 21344 06e9 69327370 		.ascii	"i2spr\000"
 21344      7200
 21345              	.LASF887:
 21346 06ef 63685379 		.ascii	"chSysHalt\000"
 21346      7348616C 
 21346      7400
 21347              	.LASF274:
 21348 06f9 41504232 		.ascii	"APB2ENR\000"
 21348      454E5200 
 21349              	.LASF790:
 21350 0701 72657376 		.ascii	"resvd830\000"
 21350      64383330 
 21350      00
 21351              	.LASF27:
 21352 070a 5F5F746D 		.ascii	"__tm\000"
ARM GAS  /tmp/ccDzFi87.s 			page 382


 21352      00
 21353              	.LASF792:
 21354 070f 72657376 		.ascii	"resvd838\000"
 21354      64383338 
 21354      00
 21355              	.LASF581:
 21356 0718 69326364 		.ascii	"i2cdutycycle_t\000"
 21356      75747963 
 21356      79636C65 
 21356      5F7400
 21357              	.LASF793:
 21358 0727 72657376 		.ascii	"resvd83C\000"
 21358      64383343 
 21358      00
 21359              	.LASF460:
 21360 0730 74687265 		.ascii	"thread\000"
 21360      616400
 21361              	.LASF505:
 21362 0737 72656773 		.ascii	"regshift\000"
 21362      68696674 
 21362      00
 21363              	.LASF688:
 21364 0740 73657475 		.ascii	"setup\000"
 21364      7000
 21365              	.LASF667:
 21366 0746 5350495F 		.ascii	"SPI_UNINIT\000"
 21366      554E494E 
 21366      495400
 21367              	.LASF741:
 21368 0751 44545846 		.ascii	"DTXFSTS\000"
 21368      53545300 
 21369              	.LASF409:
 21370 0759 626C6B5F 		.ascii	"blk_size\000"
 21370      73697A65 
 21370      00
 21371              	.LASF567:
 21372 0762 4932435F 		.ascii	"I2C_READY\000"
 21372      52454144 
 21372      5900
 21373              	.LASF35:
 21374 076c 5F5F746D 		.ascii	"__tm_yday\000"
 21374      5F796461 
 21374      7900
 21375              	.LASF682:
 21376 0776 696E5F70 		.ascii	"in_params\000"
 21376      6172616D 
 21376      7300
 21377              	.LASF552:
 21378 0780 43434552 		.ascii	"CCER\000"
 21378      00
 21379              	.LASF304:
 21380 0785 49325350 		.ascii	"I2SPR\000"
 21380      5200
 21381              	.LASF609:
 21382 078b 50574D5F 		.ascii	"PWM_UNINIT\000"
 21382      554E494E 
 21382      495400
ARM GAS  /tmp/ccDzFi87.s 			page 383


 21383              	.LASF323:
 21384 0796 62657374 		.ascii	"best\000"
 21384      00
 21385              	.LASF750:
 21386 079b 47414842 		.ascii	"GAHBCFG\000"
 21386      43464700 
 21387              	.LASF515:
 21388 07a3 64616363 		.ascii	"daccallback_t\000"
 21388      616C6C62 
 21388      61636B5F 
 21388      7400
 21389              	.LASF794:
 21390 07b1 72657376 		.ascii	"resvd840\000"
 21390      64383430 
 21390      00
 21391              	.LASF300:
 21392 07ba 43524350 		.ascii	"CRCPR\000"
 21392      5200
 21393              	.LASF404:
 21394 07c0 424C4B5F 		.ascii	"BLK_READY\000"
 21394      52454144 
 21394      5900
 21395              	.LASF542:
 21396 07ca 4750545F 		.ascii	"GPT_CONTINUOUS\000"
 21396      434F4E54 
 21396      494E554F 
 21396      555300
 21397              	.LASF808:
 21398 07d9 74787175 		.ascii	"txqueued\000"
 21398      65756564 
 21398      00
 21399              	.LASF156:
 21400 07e2 705F6D73 		.ascii	"p_msg\000"
 21400      6700
 21401              	.LASF96:
 21402 07e8 5F756E75 		.ascii	"_unused_rand\000"
 21402      7365645F 
 21402      72616E64 
 21402      00
 21403              	.LASF747:
 21404 07f5 73746D33 		.ascii	"stm32_otg_out_ep_t\000"
 21404      325F6F74 
 21404      675F6F75 
 21404      745F6570 
 21404      5F7400
 21405              	.LASF756:
 21406 0808 47525853 		.ascii	"GRXSTSP\000"
 21406      54535000 
 21407              	.LASF755:
 21408 0810 47525853 		.ascii	"GRXSTSR\000"
 21408      54535200 
 21409              	.LASF896:
 21410 0818 63685468 		.ascii	"chThdResumeI\000"
 21410      64526573 
 21410      756D6549 
 21410      00
 21411              	.LASF334:
ARM GAS  /tmp/ccDzFi87.s 			page 384


 21412 0825 65786974 		.ascii	"exitcode\000"
 21412      636F6465 
 21412      00
 21413              	.LASF256:
 21414 082e 4D314152 		.ascii	"M1AR\000"
 21414      00
 21415              	.LASF695:
 21416 0833 77616974 		.ascii	"wait\000"
 21416      00
 21417              	.LASF257:
 21418 0838 444D415F 		.ascii	"DMA_Stream_TypeDef\000"
 21418      53747265 
 21418      616D5F54 
 21418      79706544 
 21418      656600
 21419              	.LASF702:
 21420 084b 5553425F 		.ascii	"USB_ACTIVE\000"
 21420      41435449 
 21420      564500
 21421              	.LASF743:
 21422 0856 73746D33 		.ascii	"stm32_otg_in_ep_t\000"
 21422      325F6F74 
 21422      675F696E 
 21422      5F65705F 
 21422      7400
 21423              	.LASF816:
 21424 0868 7278636E 		.ascii	"rxcnt\000"
 21424      7400
 21425              	.LASF442:
 21426 086e 4144435F 		.ascii	"ADC_UNINIT\000"
 21426      554E494E 
 21426      495400
 21427              	.LASF852:
 21428 0879 7364635F 		.ascii	"sdc_lld_send_cmd_short\000"
 21428      6C6C645F 
 21428      73656E64 
 21428      5F636D64 
 21428      5F73686F 
 21429              	.LASF589:
 21430 0890 7278646D 		.ascii	"rxdmamode\000"
 21430      616D6F64 
 21430      6500
 21431              	.LASF77:
 21432 089a 5F726573 		.ascii	"_result_k\000"
 21432      756C745F 
 21432      6B00
 21433              	.LASF534:
 21434 08a4 6D6F6465 		.ascii	"mode\000"
 21434      00
 21435              	.LASF69:
 21436 08a9 5F737464 		.ascii	"_stderr\000"
 21436      65727200 
 21437              	.LASF76:
 21438 08b1 5F726573 		.ascii	"_result\000"
 21438      756C7400 
 21439              	.LASF347:
 21440 08b9 6D5F636E 		.ascii	"m_cnt\000"
ARM GAS  /tmp/ccDzFi87.s 			page 385


 21440      7400
 21441              	.LASF531:
 21442 08bf 45585444 		.ascii	"EXTDriver\000"
 21442      72697665 
 21442      7200
 21443              	.LASF39:
 21444 08c9 5F64736F 		.ascii	"_dso_handle\000"
 21444      5F68616E 
 21444      646C6500 
 21445              	.LASF601:
 21446 08d5 69327363 		.ascii	"i2scallback_t\000"
 21446      616C6C62 
 21446      61636B5F 
 21446      7400
 21447              	.LASF676:
 21448 08e3 73737061 		.ascii	"sspad\000"
 21448      6400
 21449              	.LASF590:
 21450 08e9 7478646D 		.ascii	"txdmamode\000"
 21450      616D6F64 
 21450      6500
 21451              	.LASF558:
 21452 08f3 67707466 		.ascii	"gptfreq_t\000"
 21452      7265715F 
 21452      7400
 21453              	.LASF34:
 21454 08fd 5F5F746D 		.ascii	"__tm_wday\000"
 21454      5F776461 
 21454      7900
 21455              	.LASF36:
 21456 0907 5F5F746D 		.ascii	"__tm_isdst\000"
 21456      5F697364 
 21456      737400
 21457              	.LASF801:
 21458 0912 72785F66 		.ascii	"rx_fifo_size\000"
 21458      69666F5F 
 21458      73697A65 
 21458      00
 21459              	.LASF309:
 21460 091f 73746B61 		.ascii	"stkalign_t\000"
 21460      6C69676E 
 21460      5F7400
 21461              	.LASF513:
 21462 092a 4441435F 		.ascii	"DAC_ERR_UNDERFLOW\000"
 21462      4552525F 
 21462      554E4445 
 21462      52464C4F 
 21462      5700
 21463              	.LASF494:
 21464 093c 77616B65 		.ascii	"wakeup_event\000"
 21464      75705F65 
 21464      76656E74 
 21464      00
 21465              	.LASF179:
 21466 0949 76745F70 		.ascii	"vt_prev\000"
 21466      72657600 
 21467              	.LASF468:
ARM GAS  /tmp/ccDzFi87.s 			page 386


 21468 0951 656E645F 		.ascii	"end_cb\000"
 21468      636200
 21469              	.LASF819:
 21470 0958 73657475 		.ascii	"setup_cb\000"
 21470      705F6362 
 21470      00
 21471              	.LASF6:
 21472 0961 756E7369 		.ascii	"unsigned char\000"
 21472      676E6564 
 21472      20636861 
 21472      7200
 21473              	.LASF68:
 21474 096f 5F737464 		.ascii	"_stdout\000"
 21474      6F757400 
 21475              	.LASF298:
 21476 0977 4649464F 		.ascii	"FIFO\000"
 21476      00
 21477              	.LASF319:
 21478 097c 74625F62 		.ascii	"tb_buffer\000"
 21478      75666665 
 21478      7200
 21479              	.LASF488:
 21480 0986 74787175 		.ascii	"txqueue\000"
 21480      65756500 
 21481              	.LASF342:
 21482 098e 735F636E 		.ascii	"s_cnt\000"
 21482      7400
 21483              	.LASF167:
 21484 0994 72656164 		.ascii	"ready_list_t\000"
 21484      795F6C69 
 21484      73745F74 
 21484      00
 21485              	.LASF140:
 21486 09a1 63685F74 		.ascii	"ch_thread\000"
 21486      68726561 
 21486      6400
 21487              	.LASF576:
 21488 09ab 4F504D4F 		.ascii	"OPMODE_SMBUS_HOST\000"
 21488      44455F53 
 21488      4D425553 
 21488      5F484F53 
 21488      5400
 21489              	.LASF111:
 21490 09bd 5F6D6273 		.ascii	"_mbsrtowcs_state\000"
 21490      72746F77 
 21490      63735F73 
 21490      74617465 
 21490      00
 21491              	.LASF697:
 21492 09ce 75736265 		.ascii	"usbep_t\000"
 21492      705F7400 
 21493              	.LASF277:
 21494 09d6 41484233 		.ascii	"AHB3LPENR\000"
 21494      4C50454E 
 21494      5200
 21495              	.LASF25:
 21496 09e0 5F776473 		.ascii	"_wds\000"
ARM GAS  /tmp/ccDzFi87.s 			page 387


 21496      00
 21497              	.LASF527:
 21498 09e5 4558545F 		.ascii	"EXT_UNINIT\000"
 21498      554E494E 
 21498      495400
 21499              	.LASF485:
 21500 09f0 43414E5F 		.ascii	"CAN_SLEEP\000"
 21500      534C4545 
 21500      5000
 21501              	.LASF315:
 21502 09fa 73655F73 		.ascii	"se_state\000"
 21502      74617465 
 21502      00
 21503              	.LASF47:
 21504 0a03 5F73697A 		.ascii	"_size\000"
 21504      6500
 21505              	.LASF666:
 21506 0a09 53444344 		.ascii	"SDCD1\000"
 21506      3100
 21507              	.LASF186:
 21508 0a0f 73797374 		.ascii	"system_debug_t\000"
 21508      656D5F64 
 21508      65627567 
 21508      5F7400
 21509              	.LASF244:
 21510 0a1e 44485238 		.ascii	"DHR8R1\000"
 21510      523100
 21511              	.LASF247:
 21512 0a25 44485238 		.ascii	"DHR8R2\000"
 21512      523200
 21513              	.LASF549:
 21514 0a2c 44494552 		.ascii	"DIER\000"
 21514      00
 21515              	.LASF867:
 21516 0a31 7364635F 		.ascii	"sdc_lld_prepare_read_bytes\000"
 21516      6C6C645F 
 21516      70726570 
 21516      6172655F 
 21516      72656164 
 21517              	.LASF276:
 21518 0a4c 41484232 		.ascii	"AHB2LPENR\000"
 21518      4C50454E 
 21518      5200
 21519              	.LASF144:
 21520 0a56 705F6374 		.ascii	"p_ctx\000"
 21520      7800
 21521              	.LASF182:
 21522 0a5c 76745F70 		.ascii	"vt_par\000"
 21522      617200
 21523              	.LASF203:
 21524 0a63 4A4F4652 		.ascii	"JOFR1\000"
 21524      3100
 21525              	.LASF204:
 21526 0a69 4A4F4652 		.ascii	"JOFR2\000"
 21526      3200
 21527              	.LASF206:
 21528 0a6f 4A4F4652 		.ascii	"JOFR4\000"
ARM GAS  /tmp/ccDzFi87.s 			page 388


 21528      3400
 21529              	.LASF54:
 21530 0a75 5F777269 		.ascii	"_write\000"
 21530      746500
 21531              	.LASF302:
 21532 0a7c 54584352 		.ascii	"TXCRCR\000"
 21532      435200
 21533              	.LASF520:
 21534 0a83 64616364 		.ascii	"dacdhrmode_t\000"
 21534      68726D6F 
 21534      64655F74 
 21534      00
 21535              	.LASF462:
 21536 0a90 646D6173 		.ascii	"dmastp\000"
 21536      747000
 21537              	.LASF580:
 21538 0a97 46415354 		.ascii	"FAST_DUTY_CYCLE_16_9\000"
 21538      5F445554 
 21538      595F4359 
 21538      434C455F 
 21538      31365F39 
 21539              	.LASF125:
 21540 0aac 75696E74 		.ascii	"uint64_t\000"
 21540      36345F74 
 21540      00
 21541              	.LASF329:
 21542 0ab5 6E5F6374 		.ascii	"n_ctxswc\000"
 21542      78737763 
 21542      00
 21543              	.LASF367:
 21544 0abe 63685F64 		.ascii	"ch_debug\000"
 21544      65627567 
 21544      00
 21545              	.LASF523:
 21546 0ac7 696E6974 		.ascii	"init\000"
 21546      00
 21547              	.LASF231:
 21548 0acc 464D3152 		.ascii	"FM1R\000"
 21548      00
 21549              	.LASF439:
 21550 0ad1 50414C43 		.ascii	"PALConfig\000"
 21550      6F6E6669 
 21550      6700
 21551              	.LASF810:
 21552 0adb 7478636E 		.ascii	"txcnt\000"
 21552      7400
 21553              	.LASF724:
 21554 0ae1 75736265 		.ascii	"usbeventcb_t\000"
 21554      76656E74 
 21554      63625F74 
 21554      00
 21555              	.LASF401:
 21556 0aee 424C4B5F 		.ascii	"BLK_ACTIVE\000"
 21556      41435449 
 21556      564500
 21557              	.LASF33:
 21558 0af9 5F5F746D 		.ascii	"__tm_year\000"
ARM GAS  /tmp/ccDzFi87.s 			page 389


 21558      5F796561 
 21558      7200
 21559              	.LASF369:
 21560 0b03 6576656E 		.ascii	"event_listener_t\000"
 21560      745F6C69 
 21560      7374656E 
 21560      65725F74 
 21560      00
 21561              	.LASF802:
 21562 0b14 6F74675F 		.ascii	"otg_ram_size\000"
 21562      72616D5F 
 21562      73697A65 
 21562      00
 21563              	.LASF804:
 21564 0b21 73746D33 		.ascii	"stm32_otg_params_t\000"
 21564      325F6F74 
 21564      675F7061 
 21564      72616D73 
 21564      5F7400
 21565              	.LASF797:
 21566 0b34 72657376 		.ascii	"resvdD00\000"
 21566      64443030 
 21566      00
 21567              	.LASF301:
 21568 0b3d 52584352 		.ascii	"RXCRCR\000"
 21568      435200
 21569              	.LASF813:
 21570 0b44 72786275 		.ascii	"rxbuf\000"
 21570      6600
 21571              	.LASF94:
 21572 0b4a 5F6D756C 		.ascii	"_mult\000"
 21572      7400
 21573              	.LASF343:
 21574 0b50 63685F6D 		.ascii	"ch_mutex\000"
 21574      75746578 
 21574      00
 21575              	.LASF491:
 21576 0b59 7478656D 		.ascii	"txempty_event\000"
 21576      7074795F 
 21576      6576656E 
 21576      7400
 21577              	.LASF266:
 21578 0b67 41484232 		.ascii	"AHB2RSTR\000"
 21578      52535452 
 21578      00
 21579              	.LASF613:
 21580 0b70 50574D44 		.ascii	"PWMDriver\000"
 21580      72697665 
 21580      7200
 21581              	.LASF436:
 21582 0b7a 50474461 		.ascii	"PGData\000"
 21582      746100
 21583              	.LASF622:
 21584 0b81 50574D43 		.ascii	"PWMConfig\000"
 21584      6F6E6669 
 21584      6700
 21585              	.LASF109:
ARM GAS  /tmp/ccDzFi87.s 			page 390


 21586 0b8b 5F6D6272 		.ascii	"_mbrlen_state\000"
 21586      6C656E5F 
 21586      73746174 
 21586      6500
 21587              	.LASF885:
 21588 0b99 76616C75 		.ascii	"value\000"
 21588      6500
 21589              	.LASF357:
 21590 0b9f 63665F6F 		.ascii	"cf_off_newer\000"
 21590      66665F6E 
 21590      65776572 
 21590      00
 21591              	.LASF782:
 21592 0bac 44494550 		.ascii	"DIEPMSK\000"
 21592      4D534B00 
 21593              	.LASF749:
 21594 0bb4 474F5447 		.ascii	"GOTGINT\000"
 21594      494E5400 
 21595              	.LASF821:
 21596 0bbc 6F75745F 		.ascii	"out_cb\000"
 21596      636200
 21597              	.LASF773:
 21598 0bc3 4841494E 		.ascii	"HAINTMSK\000"
 21598      544D534B 
 21598      00
 21599              	.LASF683:
 21600 0bcc 6F75745F 		.ascii	"out_params\000"
 21600      70617261 
 21600      6D7300
 21601              	.LASF210:
 21602 0bd7 4A535152 		.ascii	"JSQR\000"
 21602      00
 21603              	.LASF649:
 21604 0bdc 73646362 		.ascii	"sdcbusclk_t\000"
 21604      7573636C 
 21604      6B5F7400 
 21605              	.LASF67:
 21606 0be8 5F737464 		.ascii	"_stdin\000"
 21606      696E00
 21607              	.LASF116:
 21608 0bef 5F6E6D61 		.ascii	"_nmalloc\000"
 21608      6C6C6F63 
 21608      00
 21609              	.LASF561:
 21610 0bf8 64696572 		.ascii	"dier\000"
 21610      00
 21611              	.LASF661:
 21612 0bfd 69735F70 		.ascii	"is_protected\000"
 21612      726F7465 
 21612      63746564 
 21612      00
 21613              	.LASF176:
 21614 0c0a 76697274 		.ascii	"virtual_timer_t\000"
 21614      75616C5F 
 21614      74696D65 
 21614      725F7400 
 21615              	.LASF823:
ARM GAS  /tmp/ccDzFi87.s 			page 391


 21616 0c1a 6F75745F 		.ascii	"out_maxsize\000"
 21616      6D617873 
 21616      697A6500 
 21617              	.LASF171:
 21618 0c26 725F6374 		.ascii	"r_ctx\000"
 21618      7800
 21619              	.LASF178:
 21620 0c2c 76745F6E 		.ascii	"vt_next\000"
 21620      65787400 
 21621              	.LASF595:
 21622 0c34 4932535F 		.ascii	"I2S_STOP\000"
 21622      53544F50 
 21622      00
 21623              	.LASF610:
 21624 0c3d 50574D5F 		.ascii	"PWM_STOP\000"
 21624      53544F50 
 21624      00
 21625              	.LASF126:
 21626 0c46 7274636E 		.ascii	"rtcnt_t\000"
 21626      745F7400 
 21627              	.LASF461:
 21628 0c4e 6D757465 		.ascii	"mutex\000"
 21628      7800
 21629              	.LASF604:
 21630 0c54 73697A65 		.ascii	"size\000"
 21630      00
 21631              	.LASF509:
 21632 0c59 44414344 		.ascii	"DACDriver\000"
 21632      72697665 
 21632      7200
 21633              	.LASF525:
 21634 0c63 44414343 		.ascii	"DACConfig\000"
 21634      6F6E6669 
 21634      6700
 21635              	.LASF694:
 21636 0c6d 74787065 		.ascii	"txpending\000"
 21636      6E64696E 
 21636      6700
 21637              	.LASF546:
 21638 0c77 636C6F63 		.ascii	"clock\000"
 21638      6B00
 21639              	.LASF413:
 21640 0c7d 636C6561 		.ascii	"clear\000"
 21640      7200
 21641              	.LASF556:
 21642 0c83 43435852 		.ascii	"CCXR\000"
 21642      00
 21643              	.LASF240:
 21644 0c88 43414E5F 		.ascii	"CAN_TypeDef\000"
 21644      54797065 
 21644      44656600 
 21645              	.LASF12:
 21646 0c94 5F6F6666 		.ascii	"_off_t\000"
 21646      5F7400
 21647              	.LASF316:
 21648 0c9b 63685F73 		.ascii	"ch_swc_event_t\000"
 21648      77635F65 
ARM GAS  /tmp/ccDzFi87.s 			page 392


 21648      76656E74 
 21648      5F7400
 21649              	.LASF628:
 21650 0caa 53445F53 		.ascii	"SD_STOP\000"
 21650      544F5000 
 21651              	.LASF728:
 21652 0cb2 72657376 		.ascii	"resvd8\000"
 21652      643800
 21653              	.LASF3:
 21654 0cb9 73697A65 		.ascii	"size_t\000"
 21654      5F7400
 21655              	.LASF99:
 21656 0cc0 5F6C6F63 		.ascii	"_localtime_buf\000"
 21656      616C7469 
 21656      6D655F62 
 21656      756600
 21657              	.LASF795:
 21658 0ccf 72657376 		.ascii	"resvd880\000"
 21658      64383830 
 21658      00
 21659              	.LASF845:
 21660 0cd8 72657370 		.ascii	"resp\000"
 21660      00
 21661              	.LASF16:
 21662 0cdd 5F5F636F 		.ascii	"__count\000"
 21662      756E7400 
 21663              	.LASF122:
 21664 0ce5 75696E74 		.ascii	"uint8_t\000"
 21664      385F7400 
 21665              	.LASF732:
 21666 0ced 72657376 		.ascii	"resvd14\000"
 21666      64313400 
 21667              	.LASF481:
 21668 0cf5 43414E5F 		.ascii	"CAN_UNINIT\000"
 21668      554E494E 
 21668      495400
 21669              	.LASF733:
 21670 0d00 72657376 		.ascii	"resvd18\000"
 21670      64313800 
 21671              	.LASF173:
 21672 0d08 725F6F6C 		.ascii	"r_older\000"
 21672      64657200 
 21673              	.LASF142:
 21674 0d10 705F7072 		.ascii	"p_prev\000"
 21674      657600
 21675              	.LASF359:
 21676 0d17 63665F6F 		.ascii	"cf_off_name\000"
 21676      66665F6E 
 21676      616D6500 
 21677              	.LASF621:
 21678 0d23 50574D43 		.ascii	"PWMChannelConfig\000"
 21678      68616E6E 
 21678      656C436F 
 21678      6E666967 
 21678      00
 21679              	.LASF620:
 21680 0d34 70776D63 		.ascii	"pwmcnt_t\000"
ARM GAS  /tmp/ccDzFi87.s 			page 393


 21680      6E745F74 
 21680      00
 21681              	.LASF837:
 21682 0d3d 7364635F 		.ascii	"sdc_lld_sync\000"
 21682      6C6C645F 
 21682      73796E63 
 21682      00
 21683              	.LASF791:
 21684 0d4a 44494550 		.ascii	"DIEPEMPMSK\000"
 21684      454D504D 
 21684      534B00
 21685              	.LASF736:
 21686 0d55 44494550 		.ascii	"DIEPCTL\000"
 21686      43544C00 
 21687              	.LASF375:
 21688 0d5d 656C5F77 		.ascii	"el_wflags\000"
 21688      666C6167 
 21688      7300
 21689              	.LASF692:
 21690 0d67 6F746770 		.ascii	"otgparams\000"
 21690      6172616D 
 21690      7300
 21691              	.LASF317:
 21692 0d71 74625F73 		.ascii	"tb_size\000"
 21692      697A6500 
 21693              	.LASF433:
 21694 0d79 50444461 		.ascii	"PDData\000"
 21694      746100
 21695              	.LASF656:
 21696 0d80 73637261 		.ascii	"scratchpad\000"
 21696      74636870 
 21696      616400
 21697              	.LASF81:
 21698 0d8b 5F637674 		.ascii	"_cvtbuf\000"
 21698      62756600 
 21699              	.LASF825:
 21700 0d93 6F75745F 		.ascii	"out_state\000"
 21700      73746174 
 21700      6500
 21701              	.LASF379:
 21702 0d9d 696F5F71 		.ascii	"io_queue_t\000"
 21702      75657565 
 21702      5F7400
 21703              	.LASF672:
 21704 0da8 73706973 		.ascii	"spistate_t\000"
 21704      74617465 
 21704      5F7400
 21705              	.LASF566:
 21706 0db3 4932435F 		.ascii	"I2C_STOP\000"
 21706      53544F50 
 21706      00
 21707              	.LASF588:
 21708 0dbc 61646472 		.ascii	"addr\000"
 21708      00
 21709              	.LASF869:
 21710 0dc1 6F73616C 		.ascii	"osalThreadSuspendS\000"
 21710      54687265 
ARM GAS  /tmp/ccDzFi87.s 			page 394


 21710      61645375 
 21710      7370656E 
 21710      645300
 21711              	.LASF225:
 21712 0dd4 52463052 		.ascii	"RF0R\000"
 21712      00
 21713              	.LASF451:
 21714 0dd9 4144435F 		.ascii	"ADC_ERR_DMAFAILURE\000"
 21714      4552525F 
 21714      444D4146 
 21714      41494C55 
 21714      524500
 21715              	.LASF670:
 21716 0dec 5350495F 		.ascii	"SPI_ACTIVE\000"
 21716      41435449 
 21716      564500
 21717              	.LASF306:
 21718 0df7 47545052 		.ascii	"GTPR\000"
 21718      00
 21719              	.LASF535:
 21720 0dfc 45585443 		.ascii	"EXTChannelConfig\000"
 21720      68616E6E 
 21720      656C436F 
 21720      6E666967 
 21720      00
 21721              	.LASF416:
 21722 0e0d 4F535045 		.ascii	"OSPEEDR\000"
 21722      45445200 
 21723              	.LASF499:
 21724 0e15 4441435F 		.ascii	"DAC_READY\000"
 21724      52454144 
 21724      5900
 21725              	.LASF760:
 21726 0e1f 72657376 		.ascii	"resvd30\000"
 21726      64333000 
 21727              	.LASF15:
 21728 0e27 5F5F7763 		.ascii	"__wchb\000"
 21728      686200
 21729              	.LASF110:
 21730 0e2e 5F6D6272 		.ascii	"_mbrtowc_state\000"
 21730      746F7763 
 21730      5F737461 
 21730      746500
 21731              	.LASF789:
 21732 0e3d 44564255 		.ascii	"DVBUSPULSE\000"
 21732      5350554C 
 21732      534500
 21733              	.LASF30:
 21734 0e48 5F5F746D 		.ascii	"__tm_hour\000"
 21734      5F686F75 
 21734      7200
 21735              	.LASF400:
 21736 0e52 424C4B5F 		.ascii	"BLK_STOP\000"
 21736      53544F50 
 21736      00
 21737              	.LASF636:
 21738 0e5b 53657269 		.ascii	"SerialDriverVMT\000"
ARM GAS  /tmp/ccDzFi87.s 			page 395


 21738      616C4472 
 21738      69766572 
 21738      564D5400 
 21739              	.LASF710:
 21740 0e6b 5553425F 		.ascii	"USB_EP0_ERROR\000"
 21740      4550305F 
 21740      4552524F 
 21740      5200
 21741              	.LASF4:
 21742 0e79 77696E74 		.ascii	"wint_t\000"
 21742      5F7400
 21743              	.LASF662:
 21744 0e80 636F6E6E 		.ascii	"connect\000"
 21744      65637400 
 21745              	.LASF82:
 21746 0e88 5F6E6577 		.ascii	"_new\000"
 21746      00
 21747              	.LASF860:
 21748 0e8d 7364635F 		.ascii	"sdc_lld_init\000"
 21748      6C6C645F 
 21748      696E6974 
 21748      00
 21749              	.LASF454:
 21750 0e9a 41444344 		.ascii	"ADCDriver\000"
 21750      72697665 
 21750      7200
 21751              	.LASF803:
 21752 0ea4 6E756D5F 		.ascii	"num_endpoints\000"
 21752      656E6470 
 21752      6F696E74 
 21752      7300
 21753              	.LASF477:
 21754 0eb2 41444343 		.ascii	"ADCConfig\000"
 21754      6F6E6669 
 21754      6700
 21755              	.LASF811:
 21756 0ebc 746F7473 		.ascii	"totsize\000"
 21756      697A6500 
 21757              	.LASF90:
 21758 0ec4 5F6E696F 		.ascii	"_niobs\000"
 21758      627300
 21759              	.LASF360:
 21760 0ecb 63665F6F 		.ascii	"cf_off_stklimit\000"
 21760      66665F73 
 21760      746B6C69 
 21760      6D697400 
 21761              	.LASF629:
 21762 0edb 53445F52 		.ascii	"SD_READY\000"
 21762      45414459 
 21762      00
 21763              	.LASF726:
 21764 0ee4 75736267 		.ascii	"usbgetdescriptor_t\000"
 21764      65746465 
 21764      73637269 
 21764      70746F72 
 21764      5F7400
 21765              	.LASF502:
ARM GAS  /tmp/ccDzFi87.s 			page 396


 21766 0ef7 4441435F 		.ascii	"DAC_ERROR\000"
 21766      4552524F 
 21766      5200
 21767              	.LASF174:
 21768 0f01 725F6375 		.ascii	"r_current\000"
 21768      7272656E 
 21768      7400
 21769              	.LASF66:
 21770 0f0b 5F657272 		.ascii	"_errno\000"
 21770      6E6F00
 21771              	.LASF705:
 21772 0f12 5553425F 		.ascii	"USB_EP0_TX\000"
 21772      4550305F 
 21772      545800
 21773              	.LASF684:
 21774 0f1d 65703073 		.ascii	"ep0state\000"
 21774      74617465 
 21774      00
 21775              	.LASF31:
 21776 0f26 5F5F746D 		.ascii	"__tm_mday\000"
 21776      5F6D6461 
 21776      7900
 21777              	.LASF393:
 21778 0f30 69666372 		.ascii	"ifcr\000"
 21778      00
 21779              	.LASF594:
 21780 0f35 4932535F 		.ascii	"I2S_UNINIT\000"
 21780      554E494E 
 21780      495400
 21781              	.LASF422:
 21782 0f40 73746D33 		.ascii	"stm32_gpio_t\000"
 21782      325F6770 
 21782      696F5F74 
 21782      00
 21783              	.LASF333:
 21784 0f4d 7264796D 		.ascii	"rdymsg\000"
 21784      736700
 21785              	.LASF38:
 21786 0f54 5F666E61 		.ascii	"_fnargs\000"
 21786      72677300 
 21787              	.LASF611:
 21788 0f5c 50574D5F 		.ascii	"PWM_READY\000"
 21788      52454144 
 21788      5900
 21789              	.LASF216:
 21790 0f66 54445452 		.ascii	"TDTR\000"
 21790      00
 21791              	.LASF902:
 21792 0f6b 5F706F72 		.ascii	"_port_irq_epilogue\000"
 21792      745F6972 
 21792      715F6570 
 21792      696C6F67 
 21792      756500
 21793              	.LASF224:
 21794 0f7e 43414E5F 		.ascii	"CAN_FilterRegister_TypeDef\000"
 21794      46696C74 
 21794      65725265 
ARM GAS  /tmp/ccDzFi87.s 			page 397


 21794      67697374 
 21794      65725F54 
 21795              	.LASF492:
 21796 0f99 6572726F 		.ascii	"error_event\000"
 21796      725F6576 
 21796      656E7400 
 21797              	.LASF467:
 21798 0fa5 6E756D5F 		.ascii	"num_channels\000"
 21798      6368616E 
 21798      6E656C73 
 21798      00
 21799              	.LASF205:
 21800 0fb2 4A4F4652 		.ascii	"JOFR3\000"
 21800      3300
 21801              	.LASF763:
 21802 0fb8 72657376 		.ascii	"resvd58\000"
 21802      64353800 
 21803              	.LASF812:
 21804 0fc0 55534249 		.ascii	"USBInEndpointState\000"
 21804      6E456E64 
 21804      706F696E 
 21804      74537461 
 21804      746500
 21805              	.LASF143:
 21806 0fd3 705F7072 		.ascii	"p_prio\000"
 21806      696F00
 21807              	.LASF380:
 21808 0fda 696F5F71 		.ascii	"io_queue\000"
 21808      75657565 
 21808      00
 21809              	.LASF430:
 21810 0fe3 50414461 		.ascii	"PAData\000"
 21810      746100
 21811              	.LASF22:
 21812 0fea 5F6E6578 		.ascii	"_next\000"
 21812      7400
 21813              	.LASF616:
 21814 0ff0 70776D63 		.ascii	"pwmcallback_t\000"
 21814      616C6C62 
 21814      61636B5F 
 21814      7400
 21815              	.LASF510:
 21816 0ffe 70617261 		.ascii	"params\000"
 21816      6D7300
 21817              	.LASF709:
 21818 1005 5553425F 		.ascii	"USB_EP0_SENDING_STS\000"
 21818      4550305F 
 21818      53454E44 
 21818      494E475F 
 21818      53545300 
 21819              	.LASF107:
 21820 1019 5F736967 		.ascii	"_signal_buf\000"
 21820      6E616C5F 
 21820      62756600 
 21821              	.LASF571:
 21822 1025 69326373 		.ascii	"i2cstate_t\000"
 21822      74617465 
ARM GAS  /tmp/ccDzFi87.s 			page 398


 21822      5F7400
 21823              	.LASF52:
 21824 1030 5F636F6F 		.ascii	"_cookie\000"
 21824      6B696500 
 21825              	.LASF711:
 21826 1038 75736265 		.ascii	"usbep0state_t\000"
 21826      70307374 
 21826      6174655F 
 21826      7400
 21827              	.LASF514:
 21828 1046 64616365 		.ascii	"dacerror_t\000"
 21828      72726F72 
 21828      5F7400
 21829              	.LASF228:
 21830 1051 7354784D 		.ascii	"sTxMailBox\000"
 21830      61696C42 
 21830      6F7800
 21831              	.LASF449:
 21832 105c 61646373 		.ascii	"adcsample_t\000"
 21832      616D706C 
 21832      655F7400 
 21833              	.LASF547:
 21834 1068 67707463 		.ascii	"gptcallback_t\000"
 21834      616C6C62 
 21834      61636B5F 
 21834      7400
 21835              	.LASF383:
 21836 1076 715F6275 		.ascii	"q_buffer\000"
 21836      66666572 
 21836      00
 21837              	.LASF269:
 21838 107f 41504232 		.ascii	"APB2RSTR\000"
 21838      52535452 
 21838      00
 21839              	.LASF141:
 21840 1088 705F6E65 		.ascii	"p_next\000"
 21840      787400
 21841              	.LASF593:
 21842 108f 49324344 		.ascii	"I2CD1\000"
 21842      3100
 21843              	.LASF737:
 21844 1095 72657376 		.ascii	"resvd4\000"
 21844      643400
 21845              	.LASF679:
 21846 109c 55534244 		.ascii	"USBDriver\000"
 21846      72697665 
 21846      7200
 21847              	.LASF796:
 21848 10a6 72657376 		.ascii	"resvd8C0\000"
 21848      64384330 
 21848      00
 21849              	.LASF833:
 21850 10af 55534243 		.ascii	"USBConfig\000"
 21850      6F6E6669 
 21850      6700
 21851              	.LASF739:
 21852 10b9 72657376 		.ascii	"resvdC\000"
ARM GAS  /tmp/ccDzFi87.s 			page 399


 21852      644300
 21853              	.LASF623:
 21854 10c0 50574D44 		.ascii	"PWMD2\000"
 21854      3200
 21855              	.LASF624:
 21856 10c6 50574D44 		.ascii	"PWMD3\000"
 21856      3300
 21857              	.LASF625:
 21858 10cc 50574D44 		.ascii	"PWMD4\000"
 21858      3400
 21859              	.LASF626:
 21860 10d2 50574D44 		.ascii	"PWMD5\000"
 21860      3500
 21861              	.LASF278:
 21862 10d8 41504231 		.ascii	"APB1LPENR\000"
 21862      4C50454E 
 21862      5200
 21863              	.LASF634:
 21864 10e2 6F717565 		.ascii	"oqueue\000"
 21864      756500
 21865              	.LASF130:
 21866 10e9 74726566 		.ascii	"trefs_t\000"
 21866      735F7400 
 21867              	.LASF160:
 21868 10f1 705F6D70 		.ascii	"p_mpool\000"
 21868      6F6F6C00 
 21869              	.LASF262:
 21870 10f9 4932435F 		.ascii	"I2C_TypeDef\000"
 21870      54797065 
 21870      44656600 
 21871              	.LASF890:
 21872 1105 646D6153 		.ascii	"dmaStreamRelease\000"
 21872      74726561 
 21872      6D52656C 
 21872      65617365 
 21872      00
 21873              	.LASF522:
 21874 1116 44414343 		.ascii	"DACConversionGroup\000"
 21874      6F6E7665 
 21874      7273696F 
 21874      6E47726F 
 21874      757000
 21875              	.LASF28:
 21876 1129 5F5F746D 		.ascii	"__tm_sec\000"
 21876      5F736563 
 21876      00
 21877              	.LASF826:
 21878 1132 696E5F6D 		.ascii	"in_multiplier\000"
 21878      756C7469 
 21878      706C6965 
 21878      7200
 21879              	.LASF447:
 21880 1140 4144435F 		.ascii	"ADC_ERROR\000"
 21880      4552524F 
 21880      5200
 21881              	.LASF37:
 21882 114a 5F6F6E5F 		.ascii	"_on_exit_args\000"
ARM GAS  /tmp/ccDzFi87.s 			page 400


 21882      65786974 
 21882      5F617267 
 21882      7300
 21883              	.LASF310:
 21884 1158 636F6E74 		.ascii	"context\000"
 21884      65787400 
 21885              	.LASF128:
 21886 1160 746D6F64 		.ascii	"tmode_t\000"
 21886      655F7400 
 21887              	.LASF272:
 21888 1168 41484233 		.ascii	"AHB3ENR\000"
 21888      454E5200 
 21889              	.LASF445:
 21890 1170 4144435F 		.ascii	"ADC_ACTIVE\000"
 21890      41435449 
 21890      564500
 21891              	.LASF207:
 21892 117b 53515231 		.ascii	"SQR1\000"
 21892      00
 21893              	.LASF208:
 21894 1180 53515232 		.ascii	"SQR2\000"
 21894      00
 21895              	.LASF209:
 21896 1185 53515233 		.ascii	"SQR3\000"
 21896      00
 21897              	.LASF842:
 21898 118a 7364635F 		.ascii	"sdc_lld_read\000"
 21898      6C6C645F 
 21898      72656164 
 21898      00
 21899              	.LASF839:
 21900 1197 73646370 		.ascii	"sdcp\000"
 21900      00
 21901              	.LASF418:
 21902 119c 42535252 		.ascii	"BSRR\000"
 21902      00
 21903              	.LASF891:
 21904 11a1 646D6153 		.ascii	"dmaStreamAllocate\000"
 21904      74726561 
 21904      6D416C6C 
 21904      6F636174 
 21904      6500
 21905              	.LASF397:
 21906 11b3 73746D33 		.ascii	"stm32_dma_stream_t\000"
 21906      325F646D 
 21906      615F7374 
 21906      7265616D 
 21906      5F7400
 21907              	.LASF831:
 21908 11c6 72657175 		.ascii	"requests_hook_cb\000"
 21908      65737473 
 21908      5F686F6F 
 21908      6B5F6362 
 21908      00
 21909              	.LASF112:
 21910 11d7 5F776372 		.ascii	"_wcrtomb_state\000"
 21910      746F6D62 
ARM GAS  /tmp/ccDzFi87.s 			page 401


 21910      5F737461 
 21910      746500
 21911              	.LASF645:
 21912 11e6 5344435F 		.ascii	"SDC_MODE_8BIT\000"
 21912      4D4F4445 
 21912      5F384249 
 21912      5400
 21913              	.LASF809:
 21914 11f4 74787369 		.ascii	"txsize\000"
 21914      7A6500
 21915              	.LASF518:
 21916 11fb 4441435F 		.ascii	"DAC_DHRM_12BIT_LEFT\000"
 21916      4448524D 
 21916      5F313242 
 21916      49545F4C 
 21916      45465400 
 21917              	.LASF614:
 21918 120f 70657269 		.ascii	"period\000"
 21918      6F6400
 21919              	.LASF344:
 21920 1216 6D5F7175 		.ascii	"m_queue\000"
 21920      65756500 
 21921              	.LASF865:
 21922 121e 7364635F 		.ascii	"sdc_lld_prepare_write\000"
 21922      6C6C645F 
 21922      70726570 
 21922      6172655F 
 21922      77726974 
 21923              	.LASF570:
 21924 1234 4932435F 		.ascii	"I2C_LOCKED\000"
 21924      4C4F434B 
 21924      454400
 21925              	.LASF189:
 21926 123f 6973725F 		.ascii	"isr_cnt\000"
 21926      636E7400 
 21927              	.LASF700:
 21928 1247 5553425F 		.ascii	"USB_READY\000"
 21928      52454144 
 21928      5900
 21929              	.LASF850:
 21930 1251 7364635F 		.ascii	"sdc_lld_send_cmd_long_crc\000"
 21930      6C6C645F 
 21930      73656E64 
 21930      5F636D64 
 21930      5F6C6F6E 
 21931              	.LASF642:
 21932 126b 72656164 		.ascii	"readt\000"
 21932      7400
 21933              	.LASF752:
 21934 1271 47525354 		.ascii	"GRSTCTL\000"
 21934      43544C00 
 21935              	.LASF544:
 21936 1279 67707473 		.ascii	"gptstate_t\000"
 21936      74617465 
 21936      5F7400
 21937              	.LASF19:
 21938 1284 5F5F554C 		.ascii	"__ULong\000"
ARM GAS  /tmp/ccDzFi87.s 			page 402


 21938      6F6E6700 
 21939              	.LASF188:
 21940 128c 70616E69 		.ascii	"panic_msg\000"
 21940      635F6D73 
 21940      6700
 21941              	.LASF671:
 21942 1296 5350495F 		.ascii	"SPI_COMPLETE\000"
 21942      434F4D50 
 21942      4C455445 
 21942      00
 21943              	.LASF908:
 21944 12a3 474E5520 		.ascii	"GNU C17 9.2.1 20191025 (release) [ARM/arm-9-branch "
 21944      43313720 
 21944      392E322E 
 21944      31203230 
 21944      31393130 
 21945 12d6 72657669 		.ascii	"revision 277599] -mcpu=cortex-m4 -mfloat-abi=hard -"
 21945      73696F6E 
 21945      20323737 
 21945      3539395D 
 21945      202D6D63 
 21946 1309 6D667075 		.ascii	"mfpu=fpv4-sp-d16 -mno-thumb-interwork -mthumb -marc"
 21946      3D667076 
 21946      342D7370 
 21946      2D643136 
 21946      202D6D6E 
 21947 133c 683D6172 		.ascii	"h=armv7e-m+fp -ggdb -O2 -fomit-frame-pointer -falig"
 21947      6D763765 
 21947      2D6D2B66 
 21947      70202D67 
 21947      67646220 
 21948 136f 6E2D6675 		.ascii	"n-functions=16 -fno-strict-aliasing -fstack-protect"
 21948      6E637469 
 21948      6F6E733D 
 21948      3136202D 
 21948      666E6F2D 
 21949 13a2 6F722D61 		.ascii	"or-all -ffunction-sections -fdata-sections -fno-com"
 21949      6C6C202D 
 21949      6666756E 
 21949      6374696F 
 21949      6E2D7365 
 21950 13d5 6D6F6E20 		.ascii	"mon -fsingle-precision-constant\000"
 21950      2D667369 
 21950      6E676C65 
 21950      2D707265 
 21950      63697369 
 21951              	.LASF172:
 21952 13f5 725F6E65 		.ascii	"r_newer\000"
 21952      77657200 
 21953              	.LASF717:
 21954 13fd 5553425F 		.ascii	"USB_EVENT_STALLED\000"
 21954      4556454E 
 21954      545F5354 
 21954      414C4C45 
 21954      4400
 21955              	.LASF907:
 21956 140f 63685468 		.ascii	"chThdSuspendS\000"
ARM GAS  /tmp/ccDzFi87.s 			page 403


 21956      64537573 
 21956      70656E64 
 21956      5300
 21957              	.LASF270:
 21958 141d 41484231 		.ascii	"AHB1ENR\000"
 21958      454E5200 
 21959              	.LASF366:
 21960 1425 63686465 		.ascii	"chdebug_t\000"
 21960      6275675F 
 21960      7400
 21961              	.LASF881:
 21962 142f 706F7274 		.ascii	"port_lock_from_isr\000"
 21962      5F6C6F63 
 21962      6B5F6672 
 21962      6F6D5F69 
 21962      737200
 21963              	.LASF905:
 21964 1442 5F646267 		.ascii	"_dbg_check_unlock\000"
 21964      5F636865 
 21964      636B5F75 
 21964      6E6C6F63 
 21964      6B00
 21965              	.LASF815:
 21966 1454 72787369 		.ascii	"rxsize\000"
 21966      7A6500
 21967              	.LASF731:
 21968 145b 48435453 		.ascii	"HCTSIZ\000"
 21968      495A00
 21969              	.LASF714:
 21970 1462 5553425F 		.ascii	"USB_EVENT_CONFIGURED\000"
 21970      4556454E 
 21970      545F434F 
 21970      4E464947 
 21970      55524544 
 21971              	.LASF663:
 21972 1477 64697363 		.ascii	"disconnect\000"
 21972      6F6E6E65 
 21972      637400
 21973              	.LASF647:
 21974 1482 5344435F 		.ascii	"SDC_CLK_25MHz\000"
 21974      434C4B5F 
 21974      32354D48 
 21974      7A00
 21975              	.LASF639:
 21976 1490 70757474 		.ascii	"putt\000"
 21976      00
 21977              	.LASF131:
 21978 1495 74736C69 		.ascii	"tslices_t\000"
 21978      6365735F 
 21978      7400
 21979              	.LASF97:
 21980 149f 5F737472 		.ascii	"_strtok_last\000"
 21980      746F6B5F 
 21980      6C617374 
 21980      00
 21981              	.LASF353:
 21982 14ac 63685F74 		.ascii	"ch_timesize\000"
ARM GAS  /tmp/ccDzFi87.s 			page 404


 21982      696D6573 
 21982      697A6500 
 21983              	.LASF264:
 21984 14b8 43464752 		.ascii	"CFGR\000"
 21984      00
 21985              	.LASF696:
 21986 14bd 77615F70 		.ascii	"wa_pump\000"
 21986      756D7000 
 21987              	.LASF297:
 21988 14c5 4649464F 		.ascii	"FIFOCNT\000"
 21988      434E5400 
 21989              	.LASF378:
 21990 14cd 6576656E 		.ascii	"event_source_t\000"
 21990      745F736F 
 21990      75726365 
 21990      5F7400
 21991              	.LASF766:
 21992 14dc 72657376 		.ascii	"resvd140\000"
 21992      64313430 
 21992      00
 21993              	.LASF180:
 21994 14e5 76745F64 		.ascii	"vt_delta\000"
 21994      656C7461 
 21994      00
 21995              	.LASF93:
 21996 14ee 5F736565 		.ascii	"_seed\000"
 21996      6400
 21997              	.LASF318:
 21998 14f4 74625F70 		.ascii	"tb_ptr\000"
 21998      747200
 21999              	.LASF521:
 22000 14fb 74726967 		.ascii	"trigger\000"
 22000      67657200 
 22001              	.LASF55:
 22002 1503 5F736565 		.ascii	"_seek\000"
 22002      6B00
 22003              	.LASF715:
 22004 1509 5553425F 		.ascii	"USB_EVENT_SUSPEND\000"
 22004      4556454E 
 22004      545F5355 
 22004      5350454E 
 22004      4400
 22005              	.LASF120:
 22006 151b 696E7431 		.ascii	"int16_t\000"
 22006      365F7400 
 22007              	.LASF540:
 22008 1523 4750545F 		.ascii	"GPT_STOP\000"
 22008      53544F50 
 22008      00
 22009              	.LASF215:
 22010 152c 4144435F 		.ascii	"ADC_TypeDef\000"
 22010      54797065 
 22010      44656600 
 22011              	.LASF744:
 22012 1538 444F4550 		.ascii	"DOEPCTL\000"
 22012      43544C00 
 22013              	.LASF8:
ARM GAS  /tmp/ccDzFi87.s 			page 405


 22014 1540 73686F72 		.ascii	"short unsigned int\000"
 22014      7420756E 
 22014      7369676E 
 22014      65642069 
 22014      6E7400
 22015              	.LASF582:
 22016 1553 6F705F6D 		.ascii	"op_mode\000"
 22016      6F646500 
 22017              	.LASF5:
 22018 155b 7369676E 		.ascii	"signed char\000"
 22018      65642063 
 22018      68617200 
 22019              	.LASF619:
 22020 1567 70776D63 		.ascii	"pwmchnmsk_t\000"
 22020      686E6D73 
 22020      6B5F7400 
 22021              	.LASF894:
 22022 1573 5F737461 		.ascii	"_stats_start_measure_crit_isr\000"
 22022      74735F73 
 22022      74617274 
 22022      5F6D6561 
 22022      73757265 
 22023              	.LASF152:
 22024 1591 705F7072 		.ascii	"p_preempt\000"
 22024      65656D70 
 22024      7400
 22025              	.LASF596:
 22026 159b 4932535F 		.ascii	"I2S_READY\000"
 22026      52454144 
 22026      5900
 22027              	.LASF137:
 22028 15a5 75636E74 		.ascii	"ucnt_t\000"
 22028      5F7400
 22029              	.LASF218:
 22030 15ac 54444852 		.ascii	"TDHR\000"
 22030      00
 22031              	.LASF443:
 22032 15b1 4144435F 		.ascii	"ADC_STOP\000"
 22032      53544F50 
 22032      00
 22033              	.LASF708:
 22034 15ba 5553425F 		.ascii	"USB_EP0_RX\000"
 22034      4550305F 
 22034      525800
 22035              	.LASF617:
 22036 15c5 70776D6D 		.ascii	"pwmmode_t\000"
 22036      6F64655F 
 22036      7400
 22037              	.LASF689:
 22038 15cf 73746174 		.ascii	"status\000"
 22038      757300
 22039              	.LASF293:
 22040 15d6 444C454E 		.ascii	"DLEN\000"
 22040      00
 22041              	.LASF282:
 22042 15db 53534347 		.ascii	"SSCGR\000"
 22042      5200
ARM GAS  /tmp/ccDzFi87.s 			page 406


 22043              	.LASF644:
 22044 15e1 5344435F 		.ascii	"SDC_MODE_4BIT\000"
 22044      4D4F4445 
 22044      5F344249 
 22044      5400
 22045              	.LASF721:
 22046 15ef 55534244 		.ascii	"USBDescriptor\000"
 22046      65736372 
 22046      6970746F 
 22046      7200
 22047              	.LASF674:
 22048 15fd 73706963 		.ascii	"spicallback_t\000"
 22048      616C6C62 
 22048      61636B5F 
 22048      7400
 22049              	.LASF79:
 22050 160b 5F667265 		.ascii	"_freelist\000"
 22050      656C6973 
 22050      7400
 22051              	.LASF690:
 22052 1615 61646472 		.ascii	"address\000"
 22052      65737300 
 22053              	.LASF155:
 22054 161d 705F6D73 		.ascii	"p_msgqueue\000"
 22054      67717565 
 22054      756500
 22055              	.LASF363:
 22056 1628 63665F6F 		.ascii	"cf_off_refs\000"
 22056      66665F72 
 22056      65667300 
 22057              	.LASF361:
 22058 1634 63665F6F 		.ascii	"cf_off_state\000"
 22058      66665F73 
 22058      74617465 
 22058      00
 22059              	.LASF345:
 22060 1641 6D5F6F77 		.ascii	"m_owner\000"
 22060      6E657200 
 22061              	.LASF60:
 22062 1649 5F6F6666 		.ascii	"_offset\000"
 22062      73657400 
 22063              	.LASF200:
 22064 1651 53797374 		.ascii	"SystemCoreClock\000"
 22064      656D436F 
 22064      7265436C 
 22064      6F636B00 
 22065              	.LASF465:
 22066 1661 61646365 		.ascii	"adcerrorcallback_t\000"
 22066      72726F72 
 22066      63616C6C 
 22066      6261636B 
 22066      5F7400
 22067              	.LASF873:
 22068 1674 6F73616C 		.ascii	"osalSysLockFromISR\000"
 22068      5379734C 
 22068      6F636B46 
 22068      726F6D49 
ARM GAS  /tmp/ccDzFi87.s 			page 407


 22068      535200
 22069              	.LASF500:
 22070 1687 4441435F 		.ascii	"DAC_ACTIVE\000"
 22070      41435449 
 22070      564500
 22071              	.LASF455:
 22072 1692 73746174 		.ascii	"state\000"
 22072      6500
 22073              	.LASF351:
 22074 1698 63685F76 		.ascii	"ch_version\000"
 22074      65727369 
 22074      6F6E00
 22075              	.LASF45:
 22076 16a3 5F5F7362 		.ascii	"__sbuf\000"
 22076      756600
 22077              	.LASF655:
 22078 16aa 7364696F 		.ascii	"sdio\000"
 22078      00
 22079              	.LASF241:
 22080 16af 53575452 		.ascii	"SWTRIGR\000"
 22080      49475200 
 22081              	.LASF707:
 22082 16b7 5553425F 		.ascii	"USB_EP0_WAITING_STS\000"
 22082      4550305F 
 22082      57414954 
 22082      494E475F 
 22082      53545300 
 22083              	.LASF106:
 22084 16cb 5F6C3634 		.ascii	"_l64a_buf\000"
 22084      615F6275 
 22084      6600
 22085              	.LASF222:
 22086 16d5 52444852 		.ascii	"RDHR\000"
 22086      00
 22087              	.LASF909:
 22088 16da 2E2F2F43 		.ascii	".//ChibiOS//os/hal/ports/STM32/LLD/sdc_lld.c\000"
 22088      68696269 
 22088      4F532F2F 
 22088      6F732F68 
 22088      616C2F70 
 22089              	.LASF554:
 22090 1707 444D4152 		.ascii	"DMAR\000"
 22090      00
 22091              	.LASF560:
 22092 170c 63616C6C 		.ascii	"callback\000"
 22092      6261636B 
 22092      00
 22093              	.LASF193:
 22094 1715 63685F73 		.ascii	"ch_system\000"
 22094      79737465 
 22094      6D00
 22095              	.LASF285:
 22096 171f 504F5745 		.ascii	"POWER\000"
 22096      5200
 22097              	.LASF283:
 22098 1725 504C4C49 		.ascii	"PLLI2SCFGR\000"
 22098      32534346 
ARM GAS  /tmp/ccDzFi87.s 			page 408


 22098      475200
 22099              	.LASF848:
 22100 1730 7364635F 		.ascii	"sdc_lld_read_special\000"
 22100      6C6C645F 
 22100      72656164 
 22100      5F737065 
 22100      6369616C 
 22101              	.LASF191:
 22102 1745 74726163 		.ascii	"trace_buffer\000"
 22102      655F6275 
 22102      66666572 
 22102      00
 22103              	.LASF98:
 22104 1752 5F617363 		.ascii	"_asctime_buf\000"
 22104      74696D65 
 22104      5F627566 
 22104      00
 22105              	.LASF519:
 22106 175f 4441435F 		.ascii	"DAC_DHRM_8BIT_RIGHT\000"
 22106      4448524D 
 22106      5F384249 
 22106      545F5249 
 22106      47485400 
 22107              	.LASF539:
 22108 1773 4750545F 		.ascii	"GPT_UNINIT\000"
 22108      554E494E 
 22108      495400
 22109              	.LASF14:
 22110 177e 5F5F7763 		.ascii	"__wch\000"
 22110      6800
 22111              	.LASF340:
 22112 1784 63685F73 		.ascii	"ch_semaphore\000"
 22112      656D6170 
 22112      686F7265 
 22112      00
 22113              	.LASF113:
 22114 1791 5F776373 		.ascii	"_wcsrtombs_state\000"
 22114      72746F6D 
 22114      62735F73 
 22114      74617465 
 22114      00
 22115              	.LASF740:
 22116 17a2 44494550 		.ascii	"DIEPTSIZ\000"
 22116      5453495A 
 22116      00
 22117              	.LASF882:
 22118 17ab 706F7274 		.ascii	"port_unlock\000"
 22118      5F756E6C 
 22118      6F636B00 
 22119              	.LASF470:
 22120 17b7 736D7072 		.ascii	"smpr1\000"
 22120      3100
 22121              	.LASF471:
 22122 17bd 736D7072 		.ascii	"smpr2\000"
 22122      3200
 22123              	.LASF165:
 22124 17c3 74687265 		.ascii	"threads_queue_t\000"
ARM GAS  /tmp/ccDzFi87.s 			page 409


 22124      6164735F 
 22124      71756575 
 22124      655F7400 
 22125              	.LASF408:
 22126 17d3 626C6B73 		.ascii	"blkstate_t\000"
 22126      74617465 
 22126      5F7400
 22127              	.LASF20:
 22128 17de 5F4C4F43 		.ascii	"_LOCK_RECURSIVE_T\000"
 22128      4B5F5245 
 22128      43555253 
 22128      4956455F 
 22128      5400
 22129              	.LASF871:
 22130 17f0 74696D65 		.ascii	"time\000"
 22130      00
 22131              	.LASF879:
 22132 17f5 63685379 		.ascii	"chSysLock\000"
 22132      734C6F63 
 22132      6B00
 22133              	.LASF153:
 22134 17ff 705F7469 		.ascii	"p_time\000"
 22134      6D6500
 22135              	.LASF151:
 22136 1806 705F7265 		.ascii	"p_refs\000"
 22136      667300
 22137              	.LASF818:
 22138 180d 65705F6D 		.ascii	"ep_mode\000"
 22138      6F646500 
 22139              	.LASF618:
 22140 1815 70776D63 		.ascii	"pwmchannel_t\000"
 22140      68616E6E 
 22140      656C5F74 
 22140      00
 22141              	.LASF217:
 22142 1822 54444C52 		.ascii	"TDLR\000"
 22142      00
 22143              	.LASF9:
 22144 1827 6C6F6E67 		.ascii	"long int\000"
 22144      20696E74 
 22144      00
 22145              	.LASF196:
 22146 1830 6D61696E 		.ascii	"mainthread\000"
 22146      74687265 
 22146      616400
 22147              	.LASF686:
 22148 183b 6570306E 		.ascii	"ep0n\000"
 22148      00
 22149              	.LASF799:
 22150 1840 72657376 		.ascii	"resvdE04\000"
 22150      64453034 
 22150      00
 22151              	.LASF572:
 22152 1849 69326361 		.ascii	"i2caddr_t\000"
 22152      6464725F 
 22152      7400
 22153              	.LASF105:
ARM GAS  /tmp/ccDzFi87.s 			page 410


 22154 1853 5F776374 		.ascii	"_wctomb_state\000"
 22154      6F6D625F 
 22154      73746174 
 22154      6500
 22155              	.LASF507:
 22156 1861 646D6169 		.ascii	"dmairqprio\000"
 22156      72717072 
 22156      696F00
 22157              	.LASF545:
 22158 186c 47505444 		.ascii	"GPTDriver\000"
 22158      72697665 
 22158      7200
 22159              	.LASF267:
 22160 1876 41484233 		.ascii	"AHB3RSTR\000"
 22160      52535452 
 22160      00
 22161              	.LASF382:
 22162 187f 715F636F 		.ascii	"q_counter\000"
 22162      756E7465 
 22162      7200
 22163              	.LASF437:
 22164 1889 50484461 		.ascii	"PHData\000"
 22164      746100
 22165              	.LASF440:
 22166 1890 696F706F 		.ascii	"ioportid_t\000"
 22166      72746964 
 22166      5F7400
 22167              	.LASF478:
 22168 189b 41444344 		.ascii	"ADCD1\000"
 22168      3100
 22169              	.LASF479:
 22170 18a1 41444344 		.ascii	"ADCD2\000"
 22170      3200
 22171              	.LASF480:
 22172 18a7 41444344 		.ascii	"ADCD3\000"
 22172      3300
 22173              	.LASF767:
 22174 18ad 48434647 		.ascii	"HCFG\000"
 22174      00
 22175              	.LASF463:
 22176 18b2 646D616D 		.ascii	"dmamode\000"
 22176      6F646500 
 22177              	.LASF326:
 22178 18ba 63756D75 		.ascii	"cumulative\000"
 22178      6C617469 
 22178      766500
 22179              	.LASF91:
 22180 18c5 5F696F62 		.ascii	"_iobs\000"
 22180      7300
 22181              	.LASF71:
 22182 18cb 5F656D65 		.ascii	"_emergency\000"
 22182      7267656E 
 22182      637900
 22183              	.LASF640:
 22184 18d6 67657474 		.ascii	"gett\000"
 22184      00
 22185              	.LASF336:
ARM GAS  /tmp/ccDzFi87.s 			page 411


 22186 18db 77747472 		.ascii	"wttrp\000"
 22186      7000
 22187              	.LASF386:
 22188 18e1 715F7264 		.ascii	"q_rdptr\000"
 22188      70747200 
 22189              	.LASF115:
 22190 18e9 5F6E6578 		.ascii	"_nextf\000"
 22190      746600
 22191              	.LASF637:
 22192 18f0 77726974 		.ascii	"write\000"
 22192      6500
 22193              	.LASF101:
 22194 18f6 5F72616E 		.ascii	"_rand_next\000"
 22194      645F6E65 
 22194      787400
 22195              	.LASF633:
 22196 1901 69717565 		.ascii	"iqueue\000"
 22196      756500
 22197              	.LASF820:
 22198 1908 696E5F63 		.ascii	"in_cb\000"
 22198      6200
 22199              	.LASF745:
 22200 190e 444F4550 		.ascii	"DOEPINT\000"
 22200      494E5400 
 22201              	.LASF325:
 22202 1916 6C617374 		.ascii	"last\000"
 22202      00
 22203              	.LASF419:
 22204 191b 4C434B52 		.ascii	"LCKR\000"
 22204      00
 22205              	.LASF630:
 22206 1920 73647374 		.ascii	"sdstate_t\000"
 22206      6174655F 
 22206      7400
 22207              	.LASF124:
 22208 192a 75696E74 		.ascii	"uint32_t\000"
 22208      33325F74 
 22208      00
 22209              	.LASF504:
 22210 1933 64617461 		.ascii	"dataoffset\000"
 22210      6F666673 
 22210      657400
 22211              	.LASF23:
 22212 193e 5F6D6178 		.ascii	"_maxwds\000"
 22212      77647300 
 22213              	.LASF406:
 22214 1946 424C4B5F 		.ascii	"BLK_WRITING\000"
 22214      57524954 
 22214      494E4700 
 22215              	.LASF221:
 22216 1952 52444C52 		.ascii	"RDLR\000"
 22216      00
 22217              	.LASF883:
 22218 1957 706F7274 		.ascii	"port_lock\000"
 22218      5F6C6F63 
 22218      6B00
 22219              	.LASF2:
ARM GAS  /tmp/ccDzFi87.s 			page 412


 22220 1961 6C6F6E67 		.ascii	"long double\000"
 22220      20646F75 
 22220      626C6500 
 22221              	.LASF308:
 22222 196d 72656761 		.ascii	"regarm_t\000"
 22222      726D5F74 
 22222      00
 22223              	.LASF134:
 22224 1976 6576656E 		.ascii	"eventmask_t\000"
 22224      746D6173 
 22224      6B5F7400 
 22225              	.LASF458:
 22226 1982 64657074 		.ascii	"depth\000"
 22226      6800
 22227              	.LASF235:
 22228 1988 46464131 		.ascii	"FFA1R\000"
 22228      5200
 22229              	.LASF226:
 22230 198e 52463152 		.ascii	"RF1R\000"
 22230      00
 22231              	.LASF701:
 22232 1993 5553425F 		.ascii	"USB_SELECTED\000"
 22232      53454C45 
 22232      43544544 
 22232      00
 22233              	.LASF484:
 22234 19a0 43414E5F 		.ascii	"CAN_READY\000"
 22234      52454144 
 22234      5900
 22235              	.LASF10:
 22236 19aa 6C6F6E67 		.ascii	"long unsigned int\000"
 22236      20756E73 
 22236      69676E65 
 22236      6420696E 
 22236      7400
 22237              	.LASF597:
 22238 19bc 4932535F 		.ascii	"I2S_ACTIVE\000"
 22238      41435449 
 22238      564500
 22239              	.LASF844:
 22240 19c7 7364635F 		.ascii	"sdc_lld_read_aligned\000"
 22240      6C6C645F 
 22240      72656164 
 22240      5F616C69 
 22240      676E6564 
 22241              	.LASF541:
 22242 19dc 4750545F 		.ascii	"GPT_READY\000"
 22242      52454144 
 22242      5900
 22243              	.LASF503:
 22244 19e6 64616373 		.ascii	"dacstate_t\000"
 22244      74617465 
 22244      5F7400
 22245              	.LASF313:
 22246 19f1 73655F74 		.ascii	"se_tp\000"
 22246      7000
 22247              	.LASF385:
ARM GAS  /tmp/ccDzFi87.s 			page 413


 22248 19f7 715F7772 		.ascii	"q_wrptr\000"
 22248      70747200 
 22249              	.LASF511:
 22250 19ff 64616373 		.ascii	"dacsample_t\000"
 22250      616D706C 
 22250      655F7400 
 22251              	.LASF713:
 22252 1a0b 5553425F 		.ascii	"USB_EVENT_ADDRESS\000"
 22252      4556454E 
 22252      545F4144 
 22252      44524553 
 22252      5300
 22253              	.LASF605:
 22254 1a1d 69327363 		.ascii	"i2scfgr\000"
 22254      66677200 
 22255              	.LASF287:
 22256 1a25 52455350 		.ascii	"RESPCMD\000"
 22256      434D4400 
 22257              	.LASF490:
 22258 1a2d 72786675 		.ascii	"rxfull_event\000"
 22258      6C6C5F65 
 22258      76656E74 
 22258      00
 22259              	.LASF718:
 22260 1a3a 75736265 		.ascii	"usbevent_t\000"
 22260      76656E74 
 22260      5F7400
 22261              	.LASF56:
 22262 1a45 5F636C6F 		.ascii	"_close\000"
 22262      736500
 22263              	.LASF87:
 22264 1a4c 63686172 		.ascii	"char\000"
 22264      00
 22265              	.LASF487:
 22266 1a51 43414E43 		.ascii	"CANConfig\000"
 22266      6F6E6669 
 22266      6700
 22267              	.LASF434:
 22268 1a5b 50454461 		.ascii	"PEData\000"
 22268      746100
 22269              	.LASF169:
 22270 1a62 725F7175 		.ascii	"r_queue\000"
 22270      65756500 
 22271              	.LASF89:
 22272 1a6a 5F676C75 		.ascii	"_glue\000"
 22272      6500
 22273              	.LASF876:
 22274 1a70 63685379 		.ascii	"chSysUnlockFromISR\000"
 22274      73556E6C 
 22274      6F636B46 
 22274      726F6D49 
 22274      535200
 22275              	.LASF658:
 22276 1a83 53444343 		.ascii	"SDCConfig\000"
 22276      6F6E6669 
 22276      6700
 22277              	.LASF615:
ARM GAS  /tmp/ccDzFi87.s 			page 414


 22278 1a8d 656E6162 		.ascii	"enabled\000"
 22278      6C656400 
 22279              	.LASF512:
 22280 1a95 4441435F 		.ascii	"DAC_ERR_DMAFAILURE\000"
 22280      4552525F 
 22280      444D4146 
 22280      41494C55 
 22280      524500
 22281              	.LASF757:
 22282 1aa8 47525846 		.ascii	"GRXFSIZ\000"
 22282      53495A00 
 22283              	.LASF664:
 22284 1ab0 73796E63 		.ascii	"sync\000"
 22284      00
 22285              	.LASF635:
 22286 1ab5 75736172 		.ascii	"usart\000"
 22286      7400
 22287              	.LASF906:
 22288 1abb 5F737461 		.ascii	"_stats_stop_measure_crit_thd\000"
 22288      74735F73 
 22288      746F705F 
 22288      6D656173 
 22288      7572655F 
 22289              	.LASF893:
 22290 1ad8 7364634F 		.ascii	"sdcObjectInit\000"
 22290      626A6563 
 22290      74496E69 
 22290      7400
 22291              	.LASF650:
 22292 1ae6 7364636D 		.ascii	"sdcmode_t\000"
 22292      6F64655F 
 22292      7400
 22293              	.LASF388:
 22294 1af0 715F6C69 		.ascii	"q_link\000"
 22294      6E6B00
 22295              	.LASF778:
 22296 1af7 44434647 		.ascii	"DCFG\000"
 22296      00
 22297              	.LASF26:
 22298 1afc 5F426967 		.ascii	"_Bigint\000"
 22298      696E7400 
 22299              	.LASF788:
 22300 1b04 44564255 		.ascii	"DVBUSDIS\000"
 22300      53444953 
 22300      00
 22301              	.LASF754:
 22302 1b0d 47494E54 		.ascii	"GINTMSK\000"
 22302      4D534B00 
 22303              	.LASF759:
 22304 1b15 484E5054 		.ascii	"HNPTXSTS\000"
 22304      58535453 
 22304      00
 22305              	.LASF273:
 22306 1b1e 41504231 		.ascii	"APB1ENR\000"
 22306      454E5200 
 22307              	.LASF691:
 22308 1b26 636F6E66 		.ascii	"configuration\000"
ARM GAS  /tmp/ccDzFi87.s 			page 415


 22308      69677572 
 22308      6174696F 
 22308      6E00
 22309              	.LASF83:
 22310 1b34 5F617465 		.ascii	"_atexit0\000"
 22310      78697430 
 22310      00
 22311              	.LASF429:
 22312 1b3d 73746D33 		.ascii	"stm32_gpio_setup_t\000"
 22312      325F6770 
 22312      696F5F73 
 22312      65747570 
 22312      5F7400
 22313              	.LASF861:
 22314 1b50 56656374 		.ascii	"Vector104\000"
 22314      6F723130 
 22314      3400
 22315              	.LASF398:
 22316 1b5a 5F73746D 		.ascii	"_stm32_dma_streams\000"
 22316      33325F64 
 22316      6D615F73 
 22316      74726561 
 22316      6D7300
 22317              	.LASF243:
 22318 1b6d 44485231 		.ascii	"DHR12L1\000"
 22318      324C3100 
 22319              	.LASF246:
 22320 1b75 44485231 		.ascii	"DHR12L2\000"
 22320      324C3200 
 22321              	.LASF108:
 22322 1b7d 5F676574 		.ascii	"_getdate_err\000"
 22322      64617465 
 22322      5F657272 
 22322      00
 22323              	.LASF646:
 22324 1b8a 73646362 		.ascii	"sdcbusmode_t\000"
 22324      75736D6F 
 22324      64655F74 
 22324      00
 22325              	.LASF910:
 22326 1b97 2F686F6D 		.ascii	"/home/olof/Documents/MICRO-315/micro-315/tp4/lib/e-"
 22326      652F6F6C 
 22326      6F662F44 
 22326      6F63756D 
 22326      656E7473 
 22327 1bca 7075636B 		.ascii	"puck2_main-processor\000"
 22327      325F6D61 
 22327      696E2D70 
 22327      726F6365 
 22327      73736F72 
 22328              	.LASF249:
 22329 1bdf 44485231 		.ascii	"DHR12LD\000"
 22329      324C4400 
 22330              	.LASF197:
 22331 1be7 6B65726E 		.ascii	"kernel_stats\000"
 22331      656C5F73 
 22331      74617473 
ARM GAS  /tmp/ccDzFi87.s 			page 416


 22331      00
 22332              	.LASF464:
 22333 1bf4 61646363 		.ascii	"adccallback_t\000"
 22333      616C6C62 
 22333      61636B5F 
 22333      7400
 22334              	.LASF148:
 22335 1c02 705F7374 		.ascii	"p_stklimit\000"
 22335      6B6C696D 
 22335      697400
 22336              	.LASF136:
 22337 1c0d 636E745F 		.ascii	"cnt_t\000"
 22337      7400
 22338              	.LASF530:
 22339 1c13 65787473 		.ascii	"extstate_t\000"
 22339      74617465 
 22339      5F7400
 22340              	.LASF706:
 22341 1c1e 5553425F 		.ascii	"USB_EP0_WAITING_TX0\000"
 22341      4550305F 
 22341      57414954 
 22341      494E475F 
 22341      54583000 
 22342              	.LASF685:
 22343 1c32 6570306E 		.ascii	"ep0next\000"
 22343      65787400 
 22344              	.LASF735:
 22345 1c3a 73746D33 		.ascii	"stm32_otg_host_chn_t\000"
 22345      325F6F74 
 22345      675F686F 
 22345      73745F63 
 22345      686E5F74 
 22346              	.LASF875:
 22347 1c4f 6F73616C 		.ascii	"osalSysLock\000"
 22347      5379734C 
 22347      6F636B00 
 22348              	.LASF421:
 22349 1c5b 41465248 		.ascii	"AFRH\000"
 22349      00
 22350              	.LASF420:
 22351 1c60 4146524C 		.ascii	"AFRL\000"
 22351      00
 22352              	.LASF118:
 22353 1c65 5F696D70 		.ascii	"_impure_ptr\000"
 22353      7572655F 
 22353      70747200 
 22354              	.LASF364:
 22355 1c71 63665F6F 		.ascii	"cf_off_preempt\000"
 22355      66665F70 
 22355      7265656D 
 22355      707400
 22356              	.LASF501:
 22357 1c80 4441435F 		.ascii	"DAC_COMPLETE\000"
 22357      434F4D50 
 22357      4C455445 
 22357      00
 22358              	.LASF59:
ARM GAS  /tmp/ccDzFi87.s 			page 417


 22359 1c8d 5F626C6B 		.ascii	"_blksize\000"
 22359      73697A65 
 22359      00
 22360              	.LASF730:
 22361 1c96 4843494E 		.ascii	"HCINTMSK\000"
 22361      544D534B 
 22361      00
 22362              	.LASF57:
 22363 1c9f 5F756275 		.ascii	"_ubuf\000"
 22363      6600
 22364              	.LASF456:
 22365 1ca5 636F6E66 		.ascii	"config\000"
 22365      696700
 22366              	.LASF564:
 22367 1cac 47505444 		.ascii	"GPTD11\000"
 22367      313100
 22368              	.LASF103:
 22369 1cb3 5F6D626C 		.ascii	"_mblen_state\000"
 22369      656E5F73 
 22369      74617465 
 22369      00
 22370              	.LASF85:
 22371 1cc0 5F5F7367 		.ascii	"__sglue\000"
 22371      6C756500 
 22372              	.LASF911:
 22373 1cc8 5F5F6C6F 		.ascii	"__locale_t\000"
 22373      63616C65 
 22373      5F7400
 22374              	.LASF402:
 22375 1cd3 424C4B5F 		.ascii	"BLK_CONNECTING\000"
 22375      434F4E4E 
 22375      45435449 
 22375      4E4700
 22376              	.LASF75:
 22377 1ce2 5F5F636C 		.ascii	"__cleanup\000"
 22377      65616E75 
 22377      7000
 22378              	.LASF263:
 22379 1cec 504C4C43 		.ascii	"PLLCFGR\000"
 22379      46475200 
 22380              	.LASF497:
 22381 1cf4 4441435F 		.ascii	"DAC_UNINIT\000"
 22381      554E494E 
 22381      495400
 22382              	.LASF450:
 22383 1cff 6164635F 		.ascii	"adc_channels_num_t\000"
 22383      6368616E 
 22383      6E656C73 
 22383      5F6E756D 
 22383      5F7400
 22384              	.LASF175:
 22385 1d12 76746675 		.ascii	"vtfunc_t\000"
 22385      6E635F74 
 22385      00
 22386              	.LASF223:
 22387 1d1b 43414E5F 		.ascii	"CAN_FIFOMailBox_TypeDef\000"
 22387      4649464F 
ARM GAS  /tmp/ccDzFi87.s 			page 418


 22387      4D61696C 
 22387      426F785F 
 22387      54797065 
 22388              	.LASF253:
 22389 1d33 4441435F 		.ascii	"DAC_TypeDef\000"
 22389      54797065 
 22389      44656600 
 22390              	.LASF335:
 22391 1d3f 77746F62 		.ascii	"wtobjp\000"
 22391      6A7000
 22392              	.LASF13:
 22393 1d46 5F66706F 		.ascii	"_fpos_t\000"
 22393      735F7400 
 22394              	.LASF517:
 22395 1d4e 4441435F 		.ascii	"DAC_DHRM_12BIT_RIGHT\000"
 22395      4448524D 
 22395      5F313242 
 22395      49545F52 
 22395      49474854 
 22396              	.LASF50:
 22397 1d63 5F66696C 		.ascii	"_file\000"
 22397      6500
 22398              	.LASF159:
 22399 1d69 705F7265 		.ascii	"p_realprio\000"
 22399      616C7072 
 22399      696F00
 22400              	.LASF653:
 22401 1d74 63617061 		.ascii	"capacity\000"
 22401      63697479 
 22401      00
 22402              	.LASF387:
 22403 1d7d 715F6E6F 		.ascii	"q_notify\000"
 22403      74696679 
 22403      00
 22404              	.LASF338:
 22405 1d86 77746D74 		.ascii	"wtmtxp\000"
 22405      787000
 22406              	.LASF48:
 22407 1d8d 5F5F7346 		.ascii	"__sFILE\000"
 22407      494C4500 
 22408              	.LASF44:
 22409 1d95 5F666E73 		.ascii	"_fns\000"
 22409      00
 22410              	.LASF897:
 22411 1d9a 5F646267 		.ascii	"_dbg_check_unlock_from_isr\000"
 22411      5F636865 
 22411      636B5F75 
 22411      6E6C6F63 
 22411      6B5F6672 
 22412              	.LASF817:
 22413 1db5 5553424F 		.ascii	"USBOutEndpointState\000"
 22413      7574456E 
 22413      64706F69 
 22413      6E745374 
 22413      61746500 
 22414              	.LASF914:
 22415 1dc9 5F5F6275 		.ascii	"__builtin_memcpy\000"
ARM GAS  /tmp/ccDzFi87.s 			page 419


 22415      696C7469 
 22415      6E5F6D65 
 22415      6D637079 
 22415      00
 22416              	.LASF774:
 22417 1dda 72657376 		.ascii	"resvd41C\000"
 22417      64343143 
 22417      00
 22418              	.LASF843:
 22419 1de3 7364635F 		.ascii	"sdc_lld_write_aligned\000"
 22419      6C6C645F 
 22419      77726974 
 22419      655F616C 
 22419      69676E65 
 22420              	.LASF18:
 22421 1df9 5F6D6273 		.ascii	"_mbstate_t\000"
 22421      74617465 
 22421      5F7400
 22422              	.LASF114:
 22423 1e04 5F685F65 		.ascii	"_h_errno\000"
 22423      72726E6F 
 22423      00
 22424              	.LASF220:
 22425 1e0d 52445452 		.ascii	"RDTR\000"
 22425      00
 22426              	.LASF410:
 22427 1e12 626C6B5F 		.ascii	"blk_num\000"
 22427      6E756D00 
 22428              	.LASF280:
 22429 1e1a 42444352 		.ascii	"BDCR\000"
 22429      00
 22430              	.LASF712:
 22431 1e1f 5553425F 		.ascii	"USB_EVENT_RESET\000"
 22431      4556454E 
 22431      545F5245 
 22431      53455400 
 22432              	.LASF168:
 22433 1e2f 63685F72 		.ascii	"ch_ready_list\000"
 22433      65616479 
 22433      5F6C6973 
 22433      7400
 22434              	.LASF417:
 22435 1e3d 50555044 		.ascii	"PUPDR\000"
 22435      5200
 22436              	.LASF314:
 22437 1e43 73655F77 		.ascii	"se_wtobjp\000"
 22437      746F626A 
 22437      7000
 22438              	.LASF187:
 22439 1e4d 63685F73 		.ascii	"ch_system_debug\000"
 22439      79737465 
 22439      6D5F6465 
 22439      62756700 
 22440              	.LASF785:
 22441 1e5d 4441494E 		.ascii	"DAINTMSK\000"
 22441      544D534B 
 22441      00
ARM GAS  /tmp/ccDzFi87.s 			page 420


 22442              	.LASF537:
 22443 1e66 45585443 		.ascii	"EXTConfig\000"
 22443      6F6E6669 
 22443      6700
 22444              	.LASF17:
 22445 1e70 5F5F7661 		.ascii	"__value\000"
 22445      6C756500 
 22446              	.LASF704:
 22447 1e78 5553425F 		.ascii	"USB_EP0_WAITING_SETUP\000"
 22447      4550305F 
 22447      57414954 
 22447      494E475F 
 22447      53455455 
 22448              	.LASF41:
 22449 1e8e 5F69735F 		.ascii	"_is_cxa\000"
 22449      63786100 
 22450              	.LASF405:
 22451 1e96 424C4B5F 		.ascii	"BLK_READING\000"
 22451      52454144 
 22451      494E4700 
 22452              	.LASF427:
 22453 1ea2 6166726C 		.ascii	"afrl\000"
 22453      00
 22454              	.LASF853:
 22455 1ea7 7364635F 		.ascii	"sdc_lld_send_cmd_none\000"
 22455      6C6C645F 
 22455      73656E64 
 22455      5F636D64 
 22455      5F6E6F6E 
 22456              	.LASF807:
 22457 1ebd 71756575 		.ascii	"queue\000"
 22457      6500
 22458              	.LASF687:
 22459 1ec3 65703065 		.ascii	"ep0endcb\000"
 22459      6E646362 
 22459      00
 22460              	.LASF395:
 22461 1ecc 73656C66 		.ascii	"selfindex\000"
 22461      696E6465 
 22461      7800
 22462              	.LASF368:
 22463 1ed6 6D757465 		.ascii	"mutex_t\000"
 22463      785F7400 
 22464              	.LASF78:
 22465 1ede 5F703573 		.ascii	"_p5s\000"
 22465      00
 22466              	.LASF157:
 22467 1ee3 705F6570 		.ascii	"p_epending\000"
 22467      656E6469 
 22467      6E6700
 22468              	.LASF898:
 22469 1eee 5F737461 		.ascii	"_stats_stop_measure_crit_isr\000"
 22469      74735F73 
 22469      746F705F 
 22469      6D656173 
 22469      7572655F 
 22470              	.LASF414:
ARM GAS  /tmp/ccDzFi87.s 			page 421


 22471 1f0b 4D4F4445 		.ascii	"MODER\000"
 22471      5200
 22472              	.LASF598:
 22473 1f11 4932535F 		.ascii	"I2S_COMPLETE\000"
 22473      434F4D50 
 22473      4C455445 
 22473      00
 22474              	.LASF227:
 22475 1f1e 52455345 		.ascii	"RESERVED0\000"
 22475      52564544 
 22475      3000
 22476              	.LASF230:
 22477 1f28 52455345 		.ascii	"RESERVED1\000"
 22477      52564544 
 22477      3100
 22478              	.LASF232:
 22479 1f32 52455345 		.ascii	"RESERVED2\000"
 22479      52564544 
 22479      3200
 22480              	.LASF234:
 22481 1f3c 52455345 		.ascii	"RESERVED3\000"
 22481      52564544 
 22481      3300
 22482              	.LASF236:
 22483 1f46 52455345 		.ascii	"RESERVED4\000"
 22483      52564544 
 22483      3400
 22484              	.LASF238:
 22485 1f50 52455345 		.ascii	"RESERVED5\000"
 22485      52564544 
 22485      3500
 22486              	.LASF281:
 22487 1f5a 52455345 		.ascii	"RESERVED6\000"
 22487      52564544 
 22487      3600
 22488              	.LASF828:
 22489 1f64 55534245 		.ascii	"USBEndpointConfig\000"
 22489      6E64706F 
 22489      696E7443 
 22489      6F6E6669 
 22489      6700
 22490              	.LASF242:
 22491 1f76 44485231 		.ascii	"DHR12R1\000"
 22491      32523100 
 22492              	.LASF245:
 22493 1f7e 44485231 		.ascii	"DHR12R2\000"
 22493      32523200 
 22494              	.LASF533:
 22495 1f86 65787463 		.ascii	"extcallback_t\000"
 22495      616C6C62 
 22495      61636B5F 
 22495      7400
 22496              	.LASF489:
 22497 1f94 72787175 		.ascii	"rxqueue\000"
 22497      65756500 
 22498              	.LASF312:
 22499 1f9c 73655F74 		.ascii	"se_time\000"
ARM GAS  /tmp/ccDzFi87.s 			page 422


 22499      696D6500 
 22500              	.LASF776:
 22501 1fa4 72657376 		.ascii	"resvd444\000"
 22501      64343434 
 22501      00
 22502              	.LASF441:
 22503 1fad 70616C5F 		.ascii	"pal_default_config\000"
 22503      64656661 
 22503      756C745F 
 22503      636F6E66 
 22503      696700
 22504              	.LASF459:
 22505 1fc0 67727070 		.ascii	"grpp\000"
 22505      00
 22506              	.LASF248:
 22507 1fc5 44485231 		.ascii	"DHR12RD\000"
 22507      32524400 
 22508              	.LASF849:
 22509 1fcd 62797465 		.ascii	"bytes\000"
 22509      7300
 22510              	.LASF372:
 22511 1fd3 656C5F6C 		.ascii	"el_listener\000"
 22511      69737465 
 22511      6E657200 
 22512              	.LASF806:
 22513 1fdf 6C696E65 		.ascii	"linear\000"
 22513      617200
 22514              	.LASF888:
 22515 1fe6 63685468 		.ascii	"chThdSleep\000"
 22515      64536C65 
 22515      657000
 22516              	.LASF557:
 22517 1ff1 73746D33 		.ascii	"stm32_tim_t\000"
 22517      325F7469 
 22517      6D5F7400 
 22518              	.LASF170:
 22519 1ffd 725F7072 		.ascii	"r_prio\000"
 22519      696F00
 22520              	.LASF693:
 22521 2004 706D6E65 		.ascii	"pmnext\000"
 22521      787400
 22522              	.LASF199:
 22523 200b 49544D5F 		.ascii	"ITM_RxBuffer\000"
 22523      52784275 
 22523      66666572 
 22523      00
 22524              	.LASF411:
 22525 2018 426C6F63 		.ascii	"BlockDeviceInfo\000"
 22525      6B446576 
 22525      69636549 
 22525      6E666F00 
 22526              	.LASF11:
 22527 2028 6C6F6E67 		.ascii	"long long unsigned int\000"
 22527      206C6F6E 
 22527      6720756E 
 22527      7369676E 
 22527      65642069 
ARM GAS  /tmp/ccDzFi87.s 			page 423


 22528              	.LASF299:
 22529 203f 5344494F 		.ascii	"SDIO_TypeDef\000"
 22529      5F547970 
 22529      65446566 
 22529      00
 22530              	.LASF321:
 22531 204c 6F666673 		.ascii	"offset\000"
 22531      657400
 22532              	.LASF275:
 22533 2053 41484231 		.ascii	"AHB1LPENR\000"
 22533      4C50454E 
 22533      5200
 22534              	.LASF678:
 22535 205d 53504944 		.ascii	"SPID1\000"
 22535      3100
 22536              	.LASF878:
 22537 2063 63685379 		.ascii	"chSysUnlock\000"
 22537      73556E6C 
 22537      6F636B00 
 22538              	.LASF254:
 22539 206f 4E445452 		.ascii	"NDTR\000"
 22539      00
 22540              	.LASF377:
 22541 2074 65735F6E 		.ascii	"es_next\000"
 22541      65787400 
 22542              	.LASF100:
 22543 207c 5F67616D 		.ascii	"_gamma_signgam\000"
 22543      6D615F73 
 22543      69676E67 
 22543      616D00
 22544              	.LASF742:
 22545 208b 72657376 		.ascii	"resvd1C\000"
 22545      64314300 
 22546              	.LASF198:
 22547 2093 69646C65 		.ascii	"idle_thread_wa\000"
 22547      5F746872 
 22547      6561645F 
 22547      776100
 22548              	.LASF738:
 22549 20a2 44494550 		.ascii	"DIEPINT\000"
 22549      494E5400 
 22550              	.LASF305:
 22551 20aa 5350495F 		.ascii	"SPI_TypeDef\000"
 22551      54797065 
 22551      44656600 
 22552              	.LASF181:
 22553 20b6 76745F66 		.ascii	"vt_func\000"
 22553      756E6300 
 22554              	.LASF548:
 22555 20be 534D4352 		.ascii	"SMCR\000"
 22555      00
 22556              	.LASF783:
 22557 20c3 444F4550 		.ascii	"DOEPMSK\000"
 22557      4D534B00 
 22558              	.LASF177:
 22559 20cb 63685F76 		.ascii	"ch_virtual_timer\000"
 22559      69727475 
ARM GAS  /tmp/ccDzFi87.s 			page 424


 22559      616C5F74 
 22559      696D6572 
 22559      00
 22560              	.LASF150:
 22561 20dc 705F666C 		.ascii	"p_flags\000"
 22561      61677300 
 22562              	.LASF847:
 22563 20e4 6572726F 		.ascii	"error\000"
 22563      7200
 22564              	.LASF339:
 22565 20ea 65776D61 		.ascii	"ewmask\000"
 22565      736B00
 22566              	.LASF374:
 22567 20f1 656C5F66 		.ascii	"el_flags\000"
 22567      6C616773 
 22567      00
 22568              	.LASF376:
 22569 20fa 6576656E 		.ascii	"event_source\000"
 22569      745F736F 
 22569      75726365 
 22569      00
 22570              	.LASF158:
 22571 2107 705F6D74 		.ascii	"p_mtxlist\000"
 22571      786C6973 
 22571      7400
 22572              	.LASF496:
 22573 2111 43414E44 		.ascii	"CAND1\000"
 22573      3100
 22574              	.LASF233:
 22575 2117 46533152 		.ascii	"FS1R\000"
 22575      00
 22576              	.LASF129:
 22577 211c 74737461 		.ascii	"tstate_t\000"
 22577      74655F74 
 22577      00
 22578              	.LASF119:
 22579 2125 5F676C6F 		.ascii	"_global_impure_ptr\000"
 22579      62616C5F 
 22579      696D7075 
 22579      72655F70 
 22579      747200
 22580              	.LASF784:
 22581 2138 4441494E 		.ascii	"DAINT\000"
 22581      5400
 22582              	.LASF677:
 22583 213e 53504943 		.ascii	"SPIConfig\000"
 22583      6F6E6669 
 22583      6700
 22584              	.LASF72:
 22585 2148 5F756E73 		.ascii	"_unspecified_locale_info\000"
 22585      70656369 
 22585      66696564 
 22585      5F6C6F63 
 22585      616C655F 
 22586              	.LASF426:
 22587 2161 70757064 		.ascii	"pupdr\000"
 22587      7200
ARM GAS  /tmp/ccDzFi87.s 			page 425


 22588              	.LASF516:
 22589 2167 64616365 		.ascii	"dacerrorcallback_t\000"
 22589      72726F72 
 22589      63616C6C 
 22589      6261636B 
 22589      5F7400
 22590              	.LASF680:
 22591 217a 7472616E 		.ascii	"transmitting\000"
 22591      736D6974 
 22591      74696E67 
 22591      00
 22592              	.LASF536:
 22593 2187 6368616E 		.ascii	"channels\000"
 22593      6E656C73 
 22593      00
 22594              	.LASF286:
 22595 2190 434C4B43 		.ascii	"CLKCR\000"
 22595      5200
 22596              	.LASF652:
 22597 2196 53444344 		.ascii	"SDCDriver\000"
 22597      72697665 
 22597      7200
 22598              	.LASF147:
 22599 21a0 705F6E61 		.ascii	"p_name\000"
 22599      6D6500
 22600              	.LASF74:
 22601 21a7 5F5F7364 		.ascii	"__sdidinit\000"
 22601      6964696E 
 22601      697400
 22602              	.LASF631:
 22603 21b2 53657269 		.ascii	"SerialDriver\000"
 22603      616C4472 
 22603      69766572 
 22603      00
 22604              	.LASF211:
 22605 21bf 4A445231 		.ascii	"JDR1\000"
 22605      00
 22606              	.LASF212:
 22607 21c4 4A445232 		.ascii	"JDR2\000"
 22607      00
 22608              	.LASF213:
 22609 21c9 4A445233 		.ascii	"JDR3\000"
 22609      00
 22610              	.LASF214:
 22611 21ce 4A445234 		.ascii	"JDR4\000"
 22611      00
 22612              	.LASF746:
 22613 21d3 444F4550 		.ascii	"DOEPTSIZ\000"
 22613      5453495A 
 22613      00
 22614              	.LASF279:
 22615 21dc 41504232 		.ascii	"APB2LPENR\000"
 22615      4C50454E 
 22615      5200
 22616              	.LASF444:
 22617 21e6 4144435F 		.ascii	"ADC_READY\000"
 22617      52454144 
ARM GAS  /tmp/ccDzFi87.s 			page 426


 22617      5900
 22618              	.LASF356:
 22619 21f0 63665F6F 		.ascii	"cf_off_ctx\000"
 22619      66665F63 
 22619      747800
 22620              	.LASF901:
 22621 21fb 5F646267 		.ascii	"_dbg_check_leave_isr\000"
 22621      5F636865 
 22621      636B5F6C 
 22621      65617665 
 22621      5F697372 
 22622              	.LASF21:
 22623 2210 5F666C6F 		.ascii	"_flock_t\000"
 22623      636B5F74 
 22623      00
 22624              	.LASF183:
 22625 2219 76697274 		.ascii	"virtual_timers_list_t\000"
 22625      75616C5F 
 22625      74696D65 
 22625      72735F6C 
 22625      6973745F 
 22626              	.LASF892:
 22627 222f 6E766963 		.ascii	"nvicEnableVector\000"
 22627      456E6162 
 22627      6C655665 
 22627      63746F72 
 22627      00
 22628              	.LASF770:
 22629 2240 72657376 		.ascii	"resvd40C\000"
 22629      64343043 
 22629      00
 22630              	.LASF466:
 22631 2249 63697263 		.ascii	"circular\000"
 22631      756C6172 
 22631      00
 22632              	.LASF599:
 22633 2252 69327373 		.ascii	"i2sstate_t\000"
 22633      74617465 
 22633      5F7400
 22634              	.LASF423:
 22635 225d 6D6F6465 		.ascii	"moder\000"
 22635      7200
 22636              	.LASF673:
 22637 2263 53504944 		.ascii	"SPIDriver\000"
 22637      72697665 
 22637      7200
 22638              	.LASF341:
 22639 226d 735F7175 		.ascii	"s_queue\000"
 22639      65756500 
 22640              	.LASF330:
 22641 2275 6D5F6372 		.ascii	"m_crit_thd\000"
 22641      69745F74 
 22641      686400
 22642              	.LASF498:
 22643 2280 4441435F 		.ascii	"DAC_STOP\000"
 22643      53544F50 
 22643      00
ARM GAS  /tmp/ccDzFi87.s 			page 427


 22644              	.LASF777:
 22645 2289 72657376 		.ascii	"resvd700\000"
 22645      64373030 
 22645      00
 22646              	.LASF303:
 22647 2292 49325343 		.ascii	"I2SCFGR\000"
 22647      46475200 
 22648              	.LASF858:
 22649 229a 7364635F 		.ascii	"sdc_lld_stop\000"
 22649      6C6C645F 
 22649      73746F70 
 22649      00
 22650              	.LASF348:
 22651 22a7 63685F69 		.ascii	"ch_identifier\000"
 22651      64656E74 
 22651      69666965 
 22651      7200
 22652              	.LASF641:
 22653 22b5 77726974 		.ascii	"writet\000"
 22653      657400
 22654              	.LASF1:
 22655 22bc 6C6F6E67 		.ascii	"long long int\000"
 22655      206C6F6E 
 22655      6720696E 
 22655      7400
 22656              	.LASF764:
 22657 22ca 48505458 		.ascii	"HPTXFSIZ\000"
 22657      4653495A 
 22657      00
 22658              	.LASF355:
 22659 22d3 63665F6F 		.ascii	"cf_off_prio\000"
 22659      66665F70 
 22659      72696F00 
 22660              	.LASF64:
 22661 22df 5F666C61 		.ascii	"_flags2\000"
 22661      67733200 
 22662              	.LASF877:
 22663 22e7 63685379 		.ascii	"chSysLockFromISR\000"
 22663      734C6F63 
 22663      6B46726F 
 22663      6D495352 
 22663      00
 22664              	.LASF327:
 22665 22f8 74696D65 		.ascii	"time_measurement_t\000"
 22665      5F6D6561 
 22665      73757265 
 22665      6D656E74 
 22665      5F7400
 22666              	.LASF665:
 22667 230b 6765745F 		.ascii	"get_info\000"
 22667      696E666F 
 22667      00
 22668              	.LASF895:
 22669 2314 5F646267 		.ascii	"_dbg_check_lock_from_isr\000"
 22669      5F636865 
 22669      636B5F6C 
 22669      6F636B5F 
ARM GAS  /tmp/ccDzFi87.s 			page 428


 22669      66726F6D 
 22670              	.LASF453:
 22671 232d 61646365 		.ascii	"adcerror_t\000"
 22671      72726F72 
 22671      5F7400
 22672              	.LASF830:
 22673 2338 6765745F 		.ascii	"get_descriptor_cb\000"
 22673      64657363 
 22673      72697074 
 22673      6F725F63 
 22673      6200
 22674              	.LASF73:
 22675 234a 5F6C6F63 		.ascii	"_locale\000"
 22675      616C6500 
 22676              	.LASF135:
 22677 2352 6576656E 		.ascii	"eventflags_t\000"
 22677      74666C61 
 22677      67735F74 
 22677      00
 22678              	.LASF669:
 22679 235f 5350495F 		.ascii	"SPI_READY\000"
 22679      52454144 
 22679      5900
 22680              	.LASF855:
 22681 2369 7364635F 		.ascii	"sdc_lld_stop_clk\000"
 22681      6C6C645F 
 22681      73746F70 
 22681      5F636C6B 
 22681      00
 22682              	.LASF229:
 22683 237a 73464946 		.ascii	"sFIFOMailBox\000"
 22683      4F4D6169 
 22683      6C426F78 
 22683      00
 22684              	.LASF657:
 22685 2387 6275735F 		.ascii	"bus_width\000"
 22685      77696474 
 22685      6800
 22686              	.LASF250:
 22687 2391 44485238 		.ascii	"DHR8RD\000"
 22687      524400
 22688              	.LASF866:
 22689 2398 7364635F 		.ascii	"sdc_lld_prepare_read\000"
 22689      6C6C645F 
 22689      70726570 
 22689      6172655F 
 22689      72656164 
 22690              	.LASF779:
 22691 23ad 4443544C 		.ascii	"DCTL\000"
 22691      00
 22692              	.LASF659:
 22693 23b2 53444344 		.ascii	"SDCDriverVMT\000"
 22693      72697665 
 22693      72564D54 
 22693      00
 22694              	.LASF859:
 22695 23bf 7364635F 		.ascii	"sdc_lld_start\000"
ARM GAS  /tmp/ccDzFi87.s 			page 429


 22695      6C6C645F 
 22695      73746172 
 22695      7400
 22696              	.LASF805:
 22697 23cd 74786275 		.ascii	"txbuf\000"
 22697      6600
 22698              	.LASF798:
 22699 23d3 50434743 		.ascii	"PCGCCTL\000"
 22699      43544C00 
 22700              	.LASF716:
 22701 23db 5553425F 		.ascii	"USB_EVENT_WAKEUP\000"
 22701      4556454E 
 22701      545F5741 
 22701      4B455550 
 22701      00
 22702              	.LASF884:
 22703 23ec 5F5F7365 		.ascii	"__set_BASEPRI\000"
 22703      745F4241 
 22703      53455052 
 22703      4900
 22704              	.LASF862:
 22705 23fa 7364635F 		.ascii	"sdc_lld_error_cleanup\000"
 22705      6C6C645F 
 22705      6572726F 
 22705      725F636C 
 22705      65616E75 
 22706              	.LASF146:
 22707 2410 705F6F6C 		.ascii	"p_older\000"
 22707      64657200 
 22708              	.LASF407:
 22709 2418 424C4B5F 		.ascii	"BLK_SYNCING\000"
 22709      53594E43 
 22709      494E4700 
 22710              	.LASF438:
 22711 2424 50494461 		.ascii	"PIData\000"
 22711      746100
 22712              	.LASF827:
 22713 242b 73657475 		.ascii	"setup_buf\000"
 22713      705F6275 
 22713      6600
 22714              	.LASF761:
 22715 2435 72657376 		.ascii	"resvd34\000"
 22715      64333400 
 22716              	.LASF563:
 22717 243d 47505444 		.ascii	"GPTD6\000"
 22717      3600
 22718              	.LASF469:
 22719 2443 6572726F 		.ascii	"error_cb\000"
 22719      725F6362 
 22719      00
 22720              	.LASF403:
 22721 244c 424C4B5F 		.ascii	"BLK_DISCONNECTING\000"
 22721      44495343 
 22721      4F4E4E45 
 22721      4354494E 
 22721      4700
 22722              	.LASF675:
ARM GAS  /tmp/ccDzFi87.s 			page 430


 22723 245e 7373706F 		.ascii	"ssport\000"
 22723      727400
 22724              	.LASF162:
 22725 2465 74687265 		.ascii	"thread_reference_t\000"
 22725      61645F72 
 22725      65666572 
 22725      656E6365 
 22725      5F7400
 22726              	.LASF532:
 22727 2478 65787063 		.ascii	"expchannel_t\000"
 22727      68616E6E 
 22727      656C5F74 
 22727      00
 22728              	.LASF681:
 22729 2485 72656365 		.ascii	"receiving\000"
 22729      6976696E 
 22729      6700
 22730              	.LASF88:
 22731 248f 5F5F4649 		.ascii	"__FILE\000"
 22731      4C4500
 22732              	.LASF559:
 22733 2496 66726571 		.ascii	"frequency\000"
 22733      75656E63 
 22733      7900
 22734              	.LASF903:
 22735 24a0 5F737461 		.ascii	"_stats_start_measure_crit_thd\000"
 22735      74735F73 
 22735      74617274 
 22735      5F6D6561 
 22735      73757265 
 22736              	.LASF24:
 22737 24be 5F736967 		.ascii	"_sign\000"
 22737      6E00
 22738              	.LASF824:
 22739 24c4 696E5F73 		.ascii	"in_state\000"
 22739      74617465 
 22739      00
 22740              	.LASF29:
 22741 24cd 5F5F746D 		.ascii	"__tm_min\000"
 22741      5F6D696E 
 22741      00
 22742              	.LASF840:
 22743 24d6 73746172 		.ascii	"startblk\000"
 22743      74626C6B 
 22743      00
 22744              	.LASF349:
 22745 24df 63685F7A 		.ascii	"ch_zero\000"
 22745      65726F00 
 22746              	.LASF579:
 22747 24e7 46415354 		.ascii	"FAST_DUTY_CYCLE_2\000"
 22747      5F445554 
 22747      595F4359 
 22747      434C455F 
 22747      3200
 22748              	.LASF294:
 22749 24f9 44435452 		.ascii	"DCTRL\000"
 22749      4C00
ARM GAS  /tmp/ccDzFi87.s 			page 431


 22750              	.LASF354:
 22751 24ff 63685F74 		.ascii	"ch_threadsize\000"
 22751      68726561 
 22751      6473697A 
 22751      6500
 22752              	.LASF261:
 22753 250d 464C5452 		.ascii	"FLTR\000"
 22753      00
 22754              	.LASF550:
 22755 2512 43434D52 		.ascii	"CCMR1\000"
 22755      3100
 22756              	.LASF551:
 22757 2518 43434D52 		.ascii	"CCMR2\000"
 22757      3200
 22758              	.LASF555:
 22759 251e 43434D52 		.ascii	"CCMR3\000"
 22759      3300
 22760              	.LASF0:
 22761 2524 756E7369 		.ascii	"unsigned int\000"
 22761      676E6564 
 22761      20696E74 
 22761      00
 22762              	.LASF473:
 22763 2531 73717232 		.ascii	"sqr2\000"
 22763      00
 22764              	.LASF474:
 22765 2536 73717233 		.ascii	"sqr3\000"
 22765      00
 22766              	.LASF102:
 22767 253b 5F723438 		.ascii	"_r48\000"
 22767      00
 22768              	.LASF768:
 22769 2540 48464952 		.ascii	"HFIR\000"
 22769      00
 22770              	.LASF698:
 22771 2545 5553425F 		.ascii	"USB_UNINIT\000"
 22771      554E494E 
 22771      495400
 22772              	.LASF856:
 22773 2550 7364635F 		.ascii	"sdc_lld_set_data_clk\000"
 22773      6C6C645F 
 22773      7365745F 
 22773      64617461 
 22773      5F636C6B 
 22774              	.LASF392:
 22775 2565 73747265 		.ascii	"stream\000"
 22775      616D00
 22776              	.LASF476:
 22777 256c 64756D6D 		.ascii	"dummy\000"
 22777      7900
 22778              	.LASF577:
 22779 2572 6932636F 		.ascii	"i2copmode_t\000"
 22779      706D6F64 
 22779      655F7400 
 22780              	.LASF370:
 22781 257e 6576656E 		.ascii	"event_listener\000"
 22781      745F6C69 
ARM GAS  /tmp/ccDzFi87.s 			page 432


 22781      7374656E 
 22781      657200
 22782              	.LASF292:
 22783 258d 4454494D 		.ascii	"DTIMER\000"
 22783      455200
 22784              	.LASF7:
 22785 2594 73686F72 		.ascii	"short int\000"
 22785      7420696E 
 22785      7400
 22786              	.LASF722:
 22787 259e 75736263 		.ascii	"usbcallback_t\000"
 22787      616C6C62 
 22787      61636B5F 
 22787      7400
 22788              	.LASF53:
 22789 25ac 5F726561 		.ascii	"_read\000"
 22789      6400
 22790              	.LASF751:
 22791 25b2 47555342 		.ascii	"GUSBCFG\000"
 22791      43464700 
 22792              	.LASF307:
 22793 25ba 55534152 		.ascii	"USART_TypeDef\000"
 22793      545F5479 
 22793      70654465 
 22793      6600
 22794              	.LASF391:
 22795 25c8 6F757470 		.ascii	"output_queue_t\000"
 22795      75745F71 
 22795      75657565 
 22795      5F7400
 22796              	.LASF92:
 22797 25d7 5F72616E 		.ascii	"_rand48\000"
 22797      64343800 
 22798              	.LASF800:
 22799 25df 73746D33 		.ascii	"stm32_otg_t\000"
 22799      325F6F74 
 22799      675F7400 
 22800              	.LASF600:
 22801 25eb 49325344 		.ascii	"I2SDriver\000"
 22801      72697665 
 22801      7200
 22802              	.LASF836:
 22803 25f5 7364635F 		.ascii	"sdc_default_cfg\000"
 22803      64656661 
 22803      756C745F 
 22803      63666700 
 22804              	.LASF584:
 22805 2605 64757479 		.ascii	"duty_cycle\000"
 22805      5F637963 
 22805      6C6500
 22806              	.LASF607:
 22807 2610 49325343 		.ascii	"I2SConfig\000"
 22807      6F6E6669 
 22807      6700
 22808              	.LASF719:
 22809 261a 75645F73 		.ascii	"ud_size\000"
 22809      697A6500 
ARM GAS  /tmp/ccDzFi87.s 			page 433


 22810              	.LASF271:
 22811 2622 41484232 		.ascii	"AHB2ENR\000"
 22811      454E5200 
 22812              	.LASF265:
 22813 262a 41484231 		.ascii	"AHB1RSTR\000"
 22813      52535452 
 22813      00
 22814              	.LASF822:
 22815 2633 696E5F6D 		.ascii	"in_maxsize\000"
 22815      61787369 
 22815      7A6500
 22816              	.LASF435:
 22817 263e 50464461 		.ascii	"PFData\000"
 22817      746100
 22818              	.LASF528:
 22819 2645 4558545F 		.ascii	"EXT_STOP\000"
 22819      53544F50 
 22819      00
 22820              	.LASF149:
 22821 264e 705F7374 		.ascii	"p_state\000"
 22821      61746500 
 22822              	.LASF608:
 22823 2656 49325344 		.ascii	"I2SD2\000"
 22823      3200
 22824              	.LASF660:
 22825 265c 69735F69 		.ascii	"is_inserted\000"
 22825      6E736572 
 22825      74656400 
 22826              	.LASF164:
 22827 2668 63685F74 		.ascii	"ch_threads_list\000"
 22827      68726561 
 22827      64735F6C 
 22827      69737400 
 22828              	.LASF295:
 22829 2678 44434F55 		.ascii	"DCOUNT\000"
 22829      4E5400
 22830              	.LASF258:
 22831 267f 4F415231 		.ascii	"OAR1\000"
 22831      00
 22832              	.LASF259:
 22833 2684 4F415232 		.ascii	"OAR2\000"
 22833      00
 22834              	.LASF161:
 22835 2689 705F7374 		.ascii	"p_stats\000"
 22835      61747300 
 22836              	.LASF703:
 22837 2691 75736273 		.ascii	"usbstate_t\000"
 22837      74617465 
 22837      5F7400
 22838              		.ident	"GCC: (15:9-2019-q4-0ubuntu1) 9.2.1 20191025 (release) [ARM/arm-9-branch revision 277599]"
ARM GAS  /tmp/ccDzFi87.s 			page 434


DEFINED SYMBOLS
                            *ABS*:0000000000000000 sdc_lld.c
     /tmp/ccDzFi87.s:18     .rodata.sdc_lld_collect_errors.isra.0.cst4:0000000000000000 $d
     /tmp/ccDzFi87.s:22     .text.sdc_lld_collect_errors.isra.0:0000000000000000 $t
     /tmp/ccDzFi87.s:30     .text.sdc_lld_collect_errors.isra.0:0000000000000000 sdc_lld_collect_errors.isra.0
     /tmp/ccDzFi87.s:132    .text.sdc_lld_collect_errors.isra.0:000000000000005c $d
     /tmp/ccDzFi87.s:137    .rodata.Vector104.cst4:0000000000000000 $d
     /tmp/ccDzFi87.s:141    .text.Vector104:0000000000000000 $t
     /tmp/ccDzFi87.s:149    .text.Vector104:0000000000000000 Vector104
     /tmp/ccDzFi87.s:359    .text.Vector104:000000000000005c $d
     /tmp/ccDzFi87.s:366    .rodata.sdc_lld_init.cst4:0000000000000000 $d
     /tmp/ccDzFi87.s:370    .text.sdc_lld_init:0000000000000000 $t
     /tmp/ccDzFi87.s:378    .text.sdc_lld_init:0000000000000000 sdc_lld_init
     /tmp/ccDzFi87.s:433    .text.sdc_lld_init:0000000000000034 $d
     /tmp/ccDzFi87.s:441    .rodata.sdc_lld_start.cst4:0000000000000000 $d
     /tmp/ccDzFi87.s:445    .text.sdc_lld_start:0000000000000000 $t
     /tmp/ccDzFi87.s:453    .text.sdc_lld_start:0000000000000000 sdc_lld_start
     /tmp/ccDzFi87.s:608    .text.sdc_lld_start:000000000000008c $d
     /tmp/ccDzFi87.s:617    .rodata.sdc_lld_stop.cst4:0000000000000000 $d
     /tmp/ccDzFi87.s:621    .text.sdc_lld_stop:0000000000000000 $t
     /tmp/ccDzFi87.s:629    .text.sdc_lld_stop:0000000000000000 sdc_lld_stop
     /tmp/ccDzFi87.s:712    .text.sdc_lld_stop:0000000000000050 $d
     /tmp/ccDzFi87.s:718    .rodata.sdc_lld_start_clk.cst4:0000000000000000 $d
     /tmp/ccDzFi87.s:722    .text.sdc_lld_start_clk:0000000000000000 $t
     /tmp/ccDzFi87.s:730    .text.sdc_lld_start_clk:0000000000000000 sdc_lld_start_clk
     /tmp/ccDzFi87.s:809    .text.sdc_lld_start_clk:0000000000000044 $d
     /tmp/ccDzFi87.s:816    .rodata.sdc_lld_set_data_clk.cst4:0000000000000000 $d
     /tmp/ccDzFi87.s:820    .text.sdc_lld_set_data_clk:0000000000000000 $t
     /tmp/ccDzFi87.s:828    .text.sdc_lld_set_data_clk:0000000000000000 sdc_lld_set_data_clk
     /tmp/ccDzFi87.s:876    .text.sdc_lld_set_data_clk:000000000000002c $d
     /tmp/ccDzFi87.s:881    .rodata.sdc_lld_stop_clk.cst4:0000000000000000 $d
     /tmp/ccDzFi87.s:885    .text.sdc_lld_stop_clk:0000000000000000 $t
     /tmp/ccDzFi87.s:893    .text.sdc_lld_stop_clk:0000000000000000 sdc_lld_stop_clk
     /tmp/ccDzFi87.s:944    .text.sdc_lld_stop_clk:000000000000002c $d
     /tmp/ccDzFi87.s:949    .rodata.sdc_lld_set_bus_mode.cst4:0000000000000000 $d
     /tmp/ccDzFi87.s:953    .text.sdc_lld_set_bus_mode:0000000000000000 $t
     /tmp/ccDzFi87.s:961    .text.sdc_lld_set_bus_mode:0000000000000000 sdc_lld_set_bus_mode
     /tmp/ccDzFi87.s:1039   .text.sdc_lld_set_bus_mode:0000000000000044 $d
     /tmp/ccDzFi87.s:1044   .rodata.sdc_lld_send_cmd_none.cst4:0000000000000000 $d
     /tmp/ccDzFi87.s:1048   .text.sdc_lld_send_cmd_none:0000000000000000 $t
     /tmp/ccDzFi87.s:1056   .text.sdc_lld_send_cmd_none:0000000000000000 sdc_lld_send_cmd_none
     /tmp/ccDzFi87.s:1123   .text.sdc_lld_send_cmd_none:0000000000000040 $d
     /tmp/ccDzFi87.s:1128   .rodata.sdc_lld_send_cmd_short.cst4:0000000000000000 $d
     /tmp/ccDzFi87.s:1132   .text.sdc_lld_send_cmd_short:0000000000000000 $t
     /tmp/ccDzFi87.s:1140   .text.sdc_lld_send_cmd_short:0000000000000000 sdc_lld_send_cmd_short
     /tmp/ccDzFi87.s:1239   .text.sdc_lld_send_cmd_short:0000000000000058 $d
     /tmp/ccDzFi87.s:1244   .rodata.sdc_lld_send_cmd_short_crc.cst4:0000000000000000 $d
     /tmp/ccDzFi87.s:1248   .text.sdc_lld_send_cmd_short_crc:0000000000000000 $t
     /tmp/ccDzFi87.s:1256   .text.sdc_lld_send_cmd_short_crc:0000000000000000 sdc_lld_send_cmd_short_crc
     /tmp/ccDzFi87.s:1355   .text.sdc_lld_send_cmd_short_crc:0000000000000058 $d
     /tmp/ccDzFi87.s:1360   .rodata.sdc_lld_wait_transaction_end.cst4:0000000000000000 $d
     /tmp/ccDzFi87.s:1364   .text.sdc_lld_wait_transaction_end:0000000000000000 $t
     /tmp/ccDzFi87.s:1371   .text.sdc_lld_wait_transaction_end:0000000000000000 sdc_lld_wait_transaction_end
     /tmp/ccDzFi87.s:1766   .text.sdc_lld_wait_transaction_end:00000000000000e8 $d
     /tmp/ccDzFi87.s:1774   .rodata.sdc_lld_error_cleanup.cst4:0000000000000000 $d
     /tmp/ccDzFi87.s:1778   .text.sdc_lld_error_cleanup:0000000000000000 $t
     /tmp/ccDzFi87.s:1785   .text.sdc_lld_error_cleanup:0000000000000000 sdc_lld_error_cleanup
ARM GAS  /tmp/ccDzFi87.s 			page 435


     /tmp/ccDzFi87.s:1949   .text.sdc_lld_error_cleanup:0000000000000098 $d
     /tmp/ccDzFi87.s:1955   .rodata.sdc_lld_send_cmd_long_crc.cst4:0000000000000000 $d
     /tmp/ccDzFi87.s:1959   .text.sdc_lld_send_cmd_long_crc:0000000000000000 $t
     /tmp/ccDzFi87.s:1967   .text.sdc_lld_send_cmd_long_crc:0000000000000000 sdc_lld_send_cmd_long_crc
     /tmp/ccDzFi87.s:2091   .text.sdc_lld_send_cmd_long_crc:0000000000000068 $d
     /tmp/ccDzFi87.s:2096   .rodata.sdc_lld_read_special.cst4:0000000000000000 $d
     /tmp/ccDzFi87.s:2100   .text.sdc_lld_read_special:0000000000000000 $t
     /tmp/ccDzFi87.s:2108   .text.sdc_lld_read_special:0000000000000000 sdc_lld_read_special
     /tmp/ccDzFi87.s:2316   .text.sdc_lld_read_special:00000000000000c0 $d
     /tmp/ccDzFi87.s:2325   .rodata.sdc_lld_read_aligned.cst4:0000000000000000 $d
     /tmp/ccDzFi87.s:2329   .text.sdc_lld_read_aligned:0000000000000000 $t
     /tmp/ccDzFi87.s:2337   .text.sdc_lld_read_aligned:0000000000000000 sdc_lld_read_aligned
     /tmp/ccDzFi87.s:2567   .text.sdc_lld_read_aligned:00000000000000d0 $d
     /tmp/ccDzFi87.s:2576   .rodata.sdc_lld_write_aligned.cst4:0000000000000000 $d
     /tmp/ccDzFi87.s:2580   .text.sdc_lld_write_aligned:0000000000000000 $t
     /tmp/ccDzFi87.s:2588   .text.sdc_lld_write_aligned:0000000000000000 sdc_lld_write_aligned
     /tmp/ccDzFi87.s:2820   .text.sdc_lld_write_aligned:00000000000000d4 $d
     /tmp/ccDzFi87.s:2829   .rodata.sdc_lld_read.cst4:0000000000000000 $d
     /tmp/ccDzFi87.s:2833   .text.sdc_lld_read:0000000000000000 $t
     /tmp/ccDzFi87.s:2841   .text.sdc_lld_read:0000000000000000 sdc_lld_read
     /tmp/ccDzFi87.s:2974   .text.sdc_lld_read:000000000000007c $d
     /tmp/ccDzFi87.s:2980   .rodata.sdc_lld_write.cst4:0000000000000000 $d
     /tmp/ccDzFi87.s:2984   .text.sdc_lld_write:0000000000000000 $t
     /tmp/ccDzFi87.s:2992   .text.sdc_lld_write:0000000000000000 sdc_lld_write
     /tmp/ccDzFi87.s:3124   .text.sdc_lld_write:000000000000007c $d
     /tmp/ccDzFi87.s:3130   .rodata.sdc_lld_sync.cst4:0000000000000000 $d
     /tmp/ccDzFi87.s:3134   .text.sdc_lld_sync:0000000000000000 $t
     /tmp/ccDzFi87.s:3142   .text.sdc_lld_sync:0000000000000000 sdc_lld_sync
     /tmp/ccDzFi87.s:3186   .text.sdc_lld_sync:0000000000000024 $d
     /tmp/ccDzFi87.s:3196   .bss.SDCD1:0000000000000000 SDCD1
     /tmp/ccDzFi87.s:3192   .bss.SDCD1:0000000000000000 $d
     /tmp/ccDzFi87.s:3199   .bss.u:0000000000000000 $d
     /tmp/ccDzFi87.s:3203   .bss.u:0000000000000000 u
     /tmp/ccDzFi87.s:3206   .rodata.__func__.10359:0000000000000000 $d
     /tmp/ccDzFi87.s:3210   .rodata.__func__.10359:0000000000000000 __func__.10359
     /tmp/ccDzFi87.s:3213   .rodata.__func__.10404:0000000000000000 $d
     /tmp/ccDzFi87.s:3217   .rodata.__func__.10404:0000000000000000 __func__.10404
     /tmp/ccDzFi87.s:3220   .rodata.__func__.10481:0000000000000000 $d
     /tmp/ccDzFi87.s:3224   .rodata.__func__.10481:0000000000000000 __func__.10481
     /tmp/ccDzFi87.s:3227   .rodata.__func__.10490:0000000000000000 $d
     /tmp/ccDzFi87.s:3231   .rodata.__func__.10490:0000000000000000 __func__.10490
     /tmp/ccDzFi87.s:3234   .rodata.__func__.7663:0000000000000000 $d
     /tmp/ccDzFi87.s:3238   .rodata.__func__.7663:0000000000000000 __func__.7663
     /tmp/ccDzFi87.s:3241   .rodata.sdc_default_cfg:0000000000000000 $d
     /tmp/ccDzFi87.s:3245   .rodata.sdc_default_cfg:0000000000000000 sdc_default_cfg

UNDEFINED SYMBOLS
__stack_chk_guard
__stack_chk_fail
_stats_increase_irq
_dbg_check_enter_isr
_stats_start_measure_crit_isr
_dbg_check_lock_from_isr
chThdResumeI
_dbg_check_unlock_from_isr
_stats_stop_measure_crit_isr
_dbg_check_leave_isr
ARM GAS  /tmp/ccDzFi87.s 			page 436


_port_irq_epilogue
sdcObjectInit
_stm32_dma_streams
dmaStreamAllocate
nvicEnableVector
chSysHalt
nvicDisableVector
dmaStreamRelease
chThdSleep
_stats_start_measure_crit_thd
_dbg_check_lock
_dbg_check_unlock
_stats_stop_measure_crit_thd
chThdSuspendS
ch
_sdc_wait_for_transfer_state
memcpy
