ARM GAS  /tmp/ccpqxxpK.s 			page 1


   1              		.cpu cortex-m4
   2              		.eabi_attribute 27, 1
   3              		.eabi_attribute 28, 1
   4              		.eabi_attribute 20, 1
   5              		.eabi_attribute 21, 1
   6              		.eabi_attribute 23, 3
   7              		.eabi_attribute 24, 1
   8              		.eabi_attribute 25, 1
   9              		.eabi_attribute 26, 1
  10              		.eabi_attribute 30, 2
  11              		.eabi_attribute 34, 1
  12              		.eabi_attribute 18, 4
  13              		.file	"sdio.c"
  14              		.text
  15              	.Ltext0:
  16              		.cfi_sections	.debug_frame
  17              		.section	.rodata.sdio_start.cst4,"aM",%progbits,4
  18              		.align	2
  19              	.LC0:
  20 0000 00000000 		.word	__stack_chk_guard
  21              		.section	.text.sdio_start,"ax",%progbits
  22              		.align	1
  23              		.p2align 4,,15
  24              		.global	sdio_start
  25              		.arch armv7e-m
  26              		.syntax unified
  27              		.thumb
  28              		.thumb_func
  29              		.fpu fpv4-sp-d16
  30              		.type	sdio_start, %function
  31              	sdio_start:
  32              	.LFB256:
  33              		.file 1 ".//src/sdio.c"
  34              		.loc 1 6 23 view -0
  35              		.cfi_startproc
  36              		@ args = 0, pretend = 0, frame = 8
  37              		@ frame_needed = 0, uses_anonymous_args = 0
  38 0000 00B5     		push	{lr}
  39              		.cfi_def_cfa_offset 4
  40              		.cfi_offset 14, -4
  41 0002 0A4B     		ldr	r3, .L7
  42 0004 83B0     		sub	sp, sp, #12
  43              		.cfi_def_cfa_offset 16
  44              		.loc 1 6 23 is_stmt 0 view .LVU1
  45 0006 1B68     		ldr	r3, [r3]
  46 0008 0193     		str	r3, [sp, #4]
  47 000a 4FF00003 		mov	r3,#0
  48              		.loc 1 7 2 is_stmt 1 view .LVU2
  49              		.loc 1 8 2 view .LVU3
  50              		.loc 1 12 2 view .LVU4
  51 000e 074B     		ldr	r3, .L7
  52 0010 1A68     		ldr	r2, [r3]
  53 0012 019B     		ldr	r3, [sp, #4]
  54 0014 5A40     		eors	r2, r3, r2
  55 0016 06D1     		bne	.L6
  56 0018 0549     		ldr	r1, .L7+4
  57 001a 0648     		ldr	r0, .L7+8
ARM GAS  /tmp/ccpqxxpK.s 			page 2


  58              		.loc 1 13 1 is_stmt 0 view .LVU5
  59 001c 03B0     		add	sp, sp, #12
  60              		.cfi_remember_state
  61              		.cfi_def_cfa_offset 4
  62              		@ sp needed
  63 001e 5DF804EB 		ldr	lr, [sp], #4
  64              		.cfi_restore 14
  65              		.cfi_def_cfa_offset 0
  66              		.loc 1 12 2 view .LVU6
  67 0022 FFF7FEBF 		b	sdcStart
  68              	.LVL0:
  69              	.L6:
  70              		.cfi_restore_state
  71 0026 FFF7FEFF 		bl	__stack_chk_fail
  72              	.LVL1:
  73              	.L8:
  74 002a 00BF     		.align	2
  75              	.L7:
  76 002c 00000000 		.word	.LC0
  77 0030 00000000 		.word	.LANCHOR0
  78 0034 00000000 		.word	SDCD1
  79              		.cfi_endproc
  80              	.LFE256:
  81              		.size	sdio_start, .-sdio_start
  82              		.section	.rodata.sdio_is_present.cst4,"aM",%progbits,4
  83              		.align	2
  84              	.LC1:
  85 0000 00000000 		.word	__stack_chk_guard
  86              		.section	.text.sdio_is_present,"ax",%progbits
  87              		.align	1
  88              		.p2align 4,,15
  89              		.global	sdio_is_present
  90              		.syntax unified
  91              		.thumb
  92              		.thumb_func
  93              		.fpu fpv4-sp-d16
  94              		.type	sdio_is_present, %function
  95              	sdio_is_present:
  96              	.LFB257:
  97              		.loc 1 15 31 is_stmt 1 view -0
  98              		.cfi_startproc
  99              		@ args = 0, pretend = 0, frame = 8
 100              		@ frame_needed = 0, uses_anonymous_args = 0
 101 0000 00B5     		push	{lr}
 102              		.cfi_def_cfa_offset 4
 103              		.cfi_offset 14, -4
 104 0002 0A4B     		ldr	r3, .L14
 105 0004 83B0     		sub	sp, sp, #12
 106              		.cfi_def_cfa_offset 16
 107              		.loc 1 15 31 is_stmt 0 view .LVU8
 108 0006 1B68     		ldr	r3, [r3]
 109 0008 0193     		str	r3, [sp, #4]
 110 000a 4FF00003 		mov	r3,#0
 111              		.loc 1 16 2 is_stmt 1 view .LVU9
 112              		.loc 1 16 9 is_stmt 0 view .LVU10
 113 000e 074B     		ldr	r3, .L14
 114 0010 1A68     		ldr	r2, [r3]
ARM GAS  /tmp/ccpqxxpK.s 			page 3


 115 0012 019B     		ldr	r3, [sp, #4]
 116 0014 5A40     		eors	r2, r3, r2
 117 0016 06D1     		bne	.L13
 118 0018 0548     		ldr	r0, .L14+4
 119 001a 0368     		ldr	r3, [r0]
 120 001c 1B68     		ldr	r3, [r3]
 121              		.loc 1 17 1 view .LVU11
 122 001e 03B0     		add	sp, sp, #12
 123              		.cfi_remember_state
 124              		.cfi_def_cfa_offset 4
 125              		@ sp needed
 126 0020 5DF804EB 		ldr	lr, [sp], #4
 127              		.cfi_restore 14
 128              		.cfi_def_cfa_offset 0
 129              		.loc 1 16 9 view .LVU12
 130 0024 1847     		bx	r3
 131              	.LVL2:
 132              	.L13:
 133              		.cfi_restore_state
 134 0026 FFF7FEFF 		bl	__stack_chk_fail
 135              	.LVL3:
 136              	.L15:
 137 002a 00BF     		.align	2
 138              	.L14:
 139 002c 00000000 		.word	.LC1
 140 0030 00000000 		.word	SDCD1
 141              		.cfi_endproc
 142              	.LFE257:
 143              		.size	sdio_is_present, .-sdio_is_present
 144              		.section	.rodata.sdio_connect.cst4,"aM",%progbits,4
 145              		.align	2
 146              	.LC2:
 147 0000 00000000 		.word	__stack_chk_guard
 148              		.section	.text.sdio_connect,"ax",%progbits
 149              		.align	1
 150              		.p2align 4,,15
 151              		.global	sdio_connect
 152              		.syntax unified
 153              		.thumb
 154              		.thumb_func
 155              		.fpu fpv4-sp-d16
 156              		.type	sdio_connect, %function
 157              	sdio_connect:
 158              	.LFB258:
 159              		.loc 1 19 28 is_stmt 1 view -0
 160              		.cfi_startproc
 161              		@ args = 0, pretend = 0, frame = 8
 162              		@ frame_needed = 0, uses_anonymous_args = 0
 163 0000 10B5     		push	{r4, lr}
 164              		.cfi_def_cfa_offset 8
 165              		.cfi_offset 4, -8
 166              		.cfi_offset 14, -4
 167 0002 0E4B     		ldr	r3, .L24
 168              		.loc 1 20 5 is_stmt 0 view .LVU14
 169 0004 0E4C     		ldr	r4, .L24+4
 170              		.loc 1 19 28 view .LVU15
 171 0006 82B0     		sub	sp, sp, #8
ARM GAS  /tmp/ccpqxxpK.s 			page 4


 172              		.cfi_def_cfa_offset 16
 173              		.loc 1 19 28 view .LVU16
 174 0008 1B68     		ldr	r3, [r3]
 175 000a 0193     		str	r3, [sp, #4]
 176 000c 4FF00003 		mov	r3,#0
 177              		.loc 1 20 2 is_stmt 1 view .LVU17
 178              		.loc 1 20 4 is_stmt 0 view .LVU18
 179 0010 2378     		ldrb	r3, [r4]	@ zero_extendqisi2
 180 0012 3BB1     		cbz	r3, .L22
 181              		.loc 1 27 9 view .LVU19
 182 0014 0020     		movs	r0, #0
 183              	.L17:
 184              		.loc 1 28 1 view .LVU20
 185 0016 094B     		ldr	r3, .L24
 186 0018 1A68     		ldr	r2, [r3]
 187 001a 019B     		ldr	r3, [sp, #4]
 188 001c 5A40     		eors	r2, r3, r2
 189 001e 0AD1     		bne	.L23
 190 0020 02B0     		add	sp, sp, #8
 191              		.cfi_remember_state
 192              		.cfi_def_cfa_offset 8
 193              		@ sp needed
 194 0022 10BD     		pop	{r4, pc}
 195              	.L22:
 196              		.cfi_restore_state
 197              		.loc 1 21 3 is_stmt 1 view .LVU21
 198              		.loc 1 21 6 is_stmt 0 view .LVU22
 199 0024 0748     		ldr	r0, .L24+8
 200 0026 FFF7FEFF 		bl	sdcConnect
 201              	.LVL4:
 202              		.loc 1 21 5 view .LVU23
 203 002a 10B9     		cbnz	r0, .L20
 204              		.loc 1 22 4 is_stmt 1 view .LVU24
 205              		.loc 1 22 19 is_stmt 0 view .LVU25
 206 002c 0123     		movs	r3, #1
 207 002e 2370     		strb	r3, [r4]
 208 0030 F1E7     		b	.L17
 209              	.L20:
 210              		.loc 1 24 11 view .LVU26
 211 0032 0120     		movs	r0, #1
 212 0034 EFE7     		b	.L17
 213              	.L23:
 214              		.loc 1 28 1 view .LVU27
 215 0036 FFF7FEFF 		bl	__stack_chk_fail
 216              	.LVL5:
 217              	.L25:
 218 003a 00BF     		.align	2
 219              	.L24:
 220 003c 00000000 		.word	.LC2
 221 0040 00000000 		.word	.LANCHOR1
 222 0044 00000000 		.word	SDCD1
 223              		.cfi_endproc
 224              	.LFE258:
 225              		.size	sdio_connect, .-sdio_connect
 226              		.section	.rodata.sdio_disconnect.cst4,"aM",%progbits,4
 227              		.align	2
 228              	.LC3:
ARM GAS  /tmp/ccpqxxpK.s 			page 5


 229 0000 00000000 		.word	__stack_chk_guard
 230              		.section	.text.sdio_disconnect,"ax",%progbits
 231              		.align	1
 232              		.p2align 4,,15
 233              		.global	sdio_disconnect
 234              		.syntax unified
 235              		.thumb
 236              		.thumb_func
 237              		.fpu fpv4-sp-d16
 238              		.type	sdio_disconnect, %function
 239              	sdio_disconnect:
 240              	.LFB259:
 241              		.loc 1 30 31 is_stmt 1 view -0
 242              		.cfi_startproc
 243              		@ args = 0, pretend = 0, frame = 8
 244              		@ frame_needed = 0, uses_anonymous_args = 0
 245 0000 10B5     		push	{r4, lr}
 246              		.cfi_def_cfa_offset 8
 247              		.cfi_offset 4, -8
 248              		.cfi_offset 14, -4
 249              		.loc 1 31 5 is_stmt 0 view .LVU29
 250 0002 0D4C     		ldr	r4, .L34
 251              		.loc 1 30 31 view .LVU30
 252 0004 0D4B     		ldr	r3, .L34+4
 253              		.loc 1 31 4 view .LVU31
 254 0006 2078     		ldrb	r0, [r4]	@ zero_extendqisi2
 255              		.loc 1 30 31 view .LVU32
 256 0008 82B0     		sub	sp, sp, #8
 257              		.cfi_def_cfa_offset 16
 258              		.loc 1 30 31 view .LVU33
 259 000a 1B68     		ldr	r3, [r3]
 260 000c 0193     		str	r3, [sp, #4]
 261 000e 4FF00003 		mov	r3,#0
 262              		.loc 1 31 2 is_stmt 1 view .LVU34
 263              		.loc 1 31 4 is_stmt 0 view .LVU35
 264 0012 30B9     		cbnz	r0, .L32
 265              	.L27:
 266              		.loc 1 40 1 view .LVU36
 267 0014 094B     		ldr	r3, .L34+4
 268 0016 1A68     		ldr	r2, [r3]
 269 0018 019B     		ldr	r3, [sp, #4]
 270 001a 5A40     		eors	r2, r3, r2
 271 001c 09D1     		bne	.L33
 272 001e 02B0     		add	sp, sp, #8
 273              		.cfi_remember_state
 274              		.cfi_def_cfa_offset 8
 275              		@ sp needed
 276 0020 10BD     		pop	{r4, pc}
 277              	.L32:
 278              		.cfi_restore_state
 279              		.loc 1 32 3 is_stmt 1 view .LVU37
 280              		.loc 1 32 6 is_stmt 0 view .LVU38
 281 0022 0748     		ldr	r0, .L34+8
 282 0024 FFF7FEFF 		bl	sdcDisconnect
 283              	.LVL6:
 284              		.loc 1 32 5 view .LVU39
 285 0028 08B9     		cbnz	r0, .L30
ARM GAS  /tmp/ccpqxxpK.s 			page 6


 286              		.loc 1 33 4 is_stmt 1 view .LVU40
 287              		.loc 1 33 19 is_stmt 0 view .LVU41
 288 002a 2070     		strb	r0, [r4]
 289 002c F2E7     		b	.L27
 290              	.L30:
 291              		.loc 1 35 11 view .LVU42
 292 002e 0120     		movs	r0, #1
 293 0030 F0E7     		b	.L27
 294              	.L33:
 295              		.loc 1 40 1 view .LVU43
 296 0032 FFF7FEFF 		bl	__stack_chk_fail
 297              	.LVL7:
 298              	.L35:
 299 0036 00BF     		.align	2
 300              	.L34:
 301 0038 00000000 		.word	.LANCHOR1
 302 003c 00000000 		.word	.LC3
 303 0040 00000000 		.word	SDCD1
 304              		.cfi_endproc
 305              	.LFE259:
 306              		.size	sdio_disconnect, .-sdio_disconnect
 307              		.section	.bss.sd_scratchpad.9958,"aw",%nobits
 308              		.align	2
 309              		.type	sd_scratchpad.9958, %object
 310              		.size	sd_scratchpad.9958, 512
 311              	sd_scratchpad.9958:
 312 0000 00000000 		.space	512
 312      00000000 
 312      00000000 
 312      00000000 
 312      00000000 
 313              		.section	.bss.sdio_connected,"aw",%nobits
 314              		.set	.LANCHOR1,. + 0
 315              		.type	sdio_connected, %object
 316              		.size	sdio_connected, 1
 317              	sdio_connected:
 318 0000 00       		.space	1
 319              		.section	.rodata.sdccfg.9959,"a"
 320              		.align	2
 321              		.set	.LANCHOR0,. + 0
 322              		.type	sdccfg.9959, %object
 323              		.size	sdccfg.9959, 8
 324              	sdccfg.9959:
 325 0000 00000000 		.word	sd_scratchpad.9958
 326 0004 00       		.byte	0
 327 0005 000000   		.space	3
 328              		.text
 329              	.Letext0:
 330              		.file 2 "/usr/lib/gcc/arm-none-eabi/9.2.1/include/stddef.h"
 331              		.file 3 "/usr/lib/gcc/arm-none-eabi/9.2.1/include/stdint.h"
 332              		.file 4 ".//ChibiOS//os/rt/ports/ARMCMx/compilers/GCC/chtypes.h"
 333              		.file 5 ".//ChibiOS//os/rt/include/chsystypes.h"
 334              		.file 6 ".//ChibiOS//os/rt/include/chschd.h"
 335              		.file 7 ".//ChibiOS//os/ext/CMSIS/include/core_cm4.h"
 336              		.file 8 ".//ChibiOS//os/ext/CMSIS/ST/system_stm32f4xx.h"
 337              		.file 9 ".//ChibiOS//os/ext/CMSIS/ST/stm32f407xx.h"
 338              		.file 10 ".//ChibiOS//os/rt/ports/ARMCMx/chcore.h"
ARM GAS  /tmp/ccpqxxpK.s 			page 7


 339              		.file 11 ".//ChibiOS//os/rt/ports/ARMCMx/chcore_v7m.h"
 340              		.file 12 ".//ChibiOS//os/rt/include/chdebug.h"
 341              		.file 13 ".//ChibiOS//os/rt/include/chtm.h"
 342              		.file 14 ".//ChibiOS//os/rt/include/chstats.h"
 343              		.file 15 ".//ChibiOS//os/rt/include/chsem.h"
 344              		.file 16 ".//ChibiOS//os/rt/include/chmtx.h"
 345              		.file 17 ".//ChibiOS//os/rt/include/chregistry.h"
 346              		.file 18 ".//ChibiOS//os/rt/include/chevents.h"
 347              		.file 19 ".//ChibiOS//os/rt/include/chqueues.h"
 348              		.file 20 ".//ChibiOS//os/hal/ports/STM32/STM32F4xx/stm32_dma.h"
 349              		.file 21 ".//ChibiOS//os/hal/include/hal_ioblock.h"
 350              		.file 22 ".//ChibiOS//os/hal/ports/STM32/LLD/GPIOv2/pal_lld.h"
 351              		.file 23 ".//ChibiOS//os/hal/include/adc.h"
 352              		.file 24 ".//ChibiOS//os/hal/ports/STM32/STM32F4xx/adc_lld.h"
 353              		.file 25 ".//ChibiOS//os/hal/include/can.h"
 354              		.file 26 ".//ChibiOS//os/hal/ports/STM32/LLD/can_lld.h"
 355              		.file 27 ".//ChibiOS//os/hal/include/dac.h"
 356              		.file 28 ".//ChibiOS//os/hal/ports/STM32/LLD/DACv1/dac_lld.h"
 357              		.file 29 ".//ChibiOS//os/hal/include/ext.h"
 358              		.file 30 ".//ChibiOS//os/hal/ports/STM32/LLD/ext_lld.h"
 359              		.file 31 ".//ChibiOS//os/hal/include/gpt.h"
 360              		.file 32 ".//ChibiOS//os/hal/ports/STM32/LLD/TIMv1/gpt_lld.h"
 361              		.file 33 ".//ChibiOS//os/hal/ports/STM32/LLD/TIMv1/stm32_tim.h"
 362              		.file 34 ".//ChibiOS//os/hal/include/i2c.h"
 363              		.file 35 ".//ChibiOS//os/hal/ports/STM32/LLD/I2Cv1/i2c_lld.h"
 364              		.file 36 ".//ChibiOS//os/hal/include/i2s.h"
 365              		.file 37 ".//ChibiOS//os/hal/ports/STM32/LLD/SPIv1/i2s_lld.h"
 366              		.file 38 ".//ChibiOS//os/hal/include/pwm.h"
 367              		.file 39 ".//ChibiOS//os/hal/ports/STM32/LLD/TIMv1/pwm_lld.h"
 368              		.file 40 ".//ChibiOS//os/hal/include/serial.h"
 369              		.file 41 ".//ChibiOS//os/hal/ports/STM32/LLD/USARTv1/serial_lld.h"
 370              		.file 42 ".//ChibiOS//os/hal/include/sdc.h"
 371              		.file 43 ".//ChibiOS//os/hal/ports/STM32/LLD/sdc_lld.h"
 372              		.file 44 ".//ChibiOS//os/hal/include/spi.h"
 373              		.file 45 ".//ChibiOS//os/hal/ports/STM32/LLD/SPIv1/spi_lld.h"
 374              		.file 46 ".//ChibiOS//os/hal/include/usb.h"
 375              		.file 47 ".//ChibiOS//os/hal/ports/STM32/LLD/OTGv1/usb_lld.h"
 376              		.file 48 ".//ChibiOS//os/hal/ports/STM32/LLD/OTGv1/stm32_otg.h"