ARM GAS  /tmp/ccZDaYQB.s 			page 1


   1              		.cpu cortex-m4
   2              		.eabi_attribute 27, 1
   3              		.eabi_attribute 28, 1
   4              		.eabi_attribute 20, 1
   5              		.eabi_attribute 21, 1
   6              		.eabi_attribute 23, 3
   7              		.eabi_attribute 24, 1
   8              		.eabi_attribute 25, 1
   9              		.eabi_attribute 26, 1
  10              		.eabi_attribute 30, 2
  11              		.eabi_attribute 34, 1
  12              		.eabi_attribute 18, 4
  13              		.file	"serial_datagram.c"
  14              		.text
  15              	.Ltext0:
  16              		.cfi_sections	.debug_frame
  17              		.section	.rodata.serial_datagram_send_chunk.cst4,"aM",%progbits,4
  18              		.align	2
  19              	.LC0:
  20 0000 00000000 		.word	__stack_chk_guard
  21              		.section	.text.serial_datagram_send_chunk,"ax",%progbits
  22              		.align	1
  23              		.p2align 4,,15
  24              		.global	serial_datagram_send_chunk
  25              		.arch armv7e-m
  26              		.syntax unified
  27              		.thumb
  28              		.thumb_func
  29              		.fpu fpv4-sp-d16
  30              		.type	serial_datagram_send_chunk, %function
  31              	serial_datagram_send_chunk:
  32              	.LVL0:
  33              	.LFB1:
  34              		.file 1 ".//src/serial-datagram/serial_datagram.c"
  35              		.loc 1 22 1 view -0
  36              		.cfi_startproc
  37              		@ args = 4, pretend = 0, frame = 16
  38              		@ frame_needed = 0, uses_anonymous_args = 0
  39              		.loc 1 22 1 is_stmt 0 view .LVU1
  40 0000 2DE9F04F 		push	{r4, r5, r6, r7, r8, r9, r10, fp, lr}
  41              		.cfi_def_cfa_offset 36
  42              		.cfi_offset 4, -36
  43              		.cfi_offset 5, -32
  44              		.cfi_offset 6, -28
  45              		.cfi_offset 7, -24
  46              		.cfi_offset 8, -20
  47              		.cfi_offset 9, -16
  48              		.cfi_offset 10, -12
  49              		.cfi_offset 11, -8
  50              		.cfi_offset 14, -4
  51 0004 85B0     		sub	sp, sp, #20
  52              		.cfi_def_cfa_offset 56
  53              		.loc 1 22 1 view .LVU2
  54 0006 1F46     		mov	r7, r3
  55 0008 264B     		ldr	r3, .L15
  56              	.LVL1:
  57              		.loc 1 22 1 view .LVU3
ARM GAS  /tmp/ccZDaYQB.s 			page 2


  58 000a 0192     		str	r2, [sp, #4]
  59 000c 8046     		mov	r8, r0
  60 000e 1B68     		ldr	r3, [r3]
  61 0010 0393     		str	r3, [sp, #12]
  62 0012 4FF00003 		mov	r3,#0
  63              		.loc 1 23 5 is_stmt 1 view .LVU4
  64              	.LVL2:
  65              		.loc 1 25 5 view .LVU5
  66              		.loc 1 26 5 view .LVU6
  67              		.loc 1 26 11 view .LVU7
  68              		.loc 1 22 1 is_stmt 0 view .LVU8
  69 0016 0E98     		ldr	r0, [sp, #56]
  70              	.LVL3:
  71              		.loc 1 26 11 view .LVU9
  72 0018 8946     		mov	r9, r1
  73 001a 0029     		cmp	r1, #0
  74 001c 3DD0     		beq	.L8
  75              		.loc 1 33 13 view .LVU10
  76 001e DFF888B0 		ldr	fp, .L15+4
  77              		.loc 1 29 13 view .LVU11
  78 0022 DFF888A0 		ldr	r10, .L15+8
  79 0026 08F1FF34 		add	r4, r8, #-1
  80              		.loc 1 25 14 view .LVU12
  81 002a 0025     		movs	r5, #0
  82 002c C8F10106 		rsb	r6, r8, #1
  83 0030 04E0     		b	.L6
  84              	.LVL4:
  85              	.L3:
  86              		.loc 1 31 16 is_stmt 1 view .LVU13
  87              		.loc 1 31 19 is_stmt 0 view .LVU14
  88 0032 DB29     		cmp	r1, #219
  89 0034 29D0     		beq	.L5
  90 0036 A219     		adds	r2, r4, r6
  91              	.LVL5:
  92              		.loc 1 36 9 is_stmt 1 view .LVU15
  93              		.loc 1 26 11 view .LVU16
  94 0038 4A45     		cmp	r2, r9
  95 003a 12D2     		bcs	.L13
  96              	.LVL6:
  97              	.L6:
  98              		.loc 1 26 11 is_stmt 0 view .LVU17
  99 003c A219     		adds	r2, r4, r6
 100              	.LVL7:
 101              		.loc 1 27 9 is_stmt 1 view .LVU18
 102              		.loc 1 27 23 is_stmt 0 view .LVU19
 103 003e 14F8011F 		ldrb	r1, [r4, #1]!	@ zero_extendqisi2
 104              		.loc 1 27 12 view .LVU20
 105 0042 C029     		cmp	r1, #192
 106 0044 F5D1     		bne	.L3
 107              		.loc 1 28 13 is_stmt 1 view .LVU21
 108 0046 521B     		subs	r2, r2, r5
 109              	.LVL8:
 110              		.loc 1 28 13 is_stmt 0 view .LVU22
 111 0048 08EB0501 		add	r1, r8, r5
 112 004c 0090     		str	r0, [sp]
 113 004e B847     		blx	r7
 114              	.LVL9:
ARM GAS  /tmp/ccZDaYQB.s 			page 3


 115              		.loc 1 29 13 is_stmt 1 view .LVU23
 116 0050 0222     		movs	r2, #2
 117 0052 5146     		mov	r1, r10
 118              	.L11:
 119              		.loc 1 33 13 is_stmt 0 view .LVU24
 120 0054 0098     		ldr	r0, [sp]
 121 0056 A519     		adds	r5, r4, r6
 122              	.LVL10:
 123              		.loc 1 33 13 view .LVU25
 124 0058 B847     		blx	r7
 125              	.LVL11:
 126              		.loc 1 34 13 is_stmt 1 view .LVU26
 127              		.loc 1 33 13 is_stmt 0 view .LVU27
 128 005a 2A46     		mov	r2, r5
 129              		.loc 1 26 11 view .LVU28
 130 005c 4A45     		cmp	r2, r9
 131              		.loc 1 33 13 view .LVU29
 132 005e 0098     		ldr	r0, [sp]
 133              		.loc 1 36 9 is_stmt 1 view .LVU30
 134              	.LVL12:
 135              		.loc 1 26 11 view .LVU31
 136 0060 ECD3     		bcc	.L6
 137              	.LVL13:
 138              	.L13:
 139              		.loc 1 26 11 is_stmt 0 view .LVU32
 140 0062 08EB0501 		add	r1, r8, r5
 141 0066 A9EB0502 		sub	r2, r9, r5
 142              	.LVL14:
 143              	.L2:
 144              		.loc 1 38 5 is_stmt 1 view .LVU33
 145 006a B847     		blx	r7
 146              	.LVL15:
 147              		.loc 1 41 5 view .LVU34
 148              		.loc 1 41 12 is_stmt 0 view .LVU35
 149 006c 019C     		ldr	r4, [sp, #4]
 150 006e 4A46     		mov	r2, r9
 151 0070 2068     		ldr	r0, [r4]
 152 0072 4146     		mov	r1, r8
 153 0074 FFF7FEFF 		bl	crc32
 154              	.LVL16:
 155              		.loc 1 42 1 view .LVU36
 156 0078 0A4B     		ldr	r3, .L15
 157              		.loc 1 41 10 view .LVU37
 158 007a 2060     		str	r0, [r4]
 159              		.loc 1 42 1 view .LVU38
 160 007c 1A68     		ldr	r2, [r3]
 161 007e 039B     		ldr	r3, [sp, #12]
 162 0080 5A40     		eors	r2, r3, r2
 163 0082 0DD1     		bne	.L14
 164 0084 05B0     		add	sp, sp, #20
 165              		.cfi_remember_state
 166              		.cfi_def_cfa_offset 36
 167              		@ sp needed
 168 0086 BDE8F08F 		pop	{r4, r5, r6, r7, r8, r9, r10, fp, pc}
 169              	.LVL17:
 170              	.L5:
 171              		.cfi_restore_state
ARM GAS  /tmp/ccZDaYQB.s 			page 4


 172              		.loc 1 32 13 is_stmt 1 view .LVU39
 173 008a 521B     		subs	r2, r2, r5
 174              	.LVL18:
 175              		.loc 1 32 13 is_stmt 0 view .LVU40
 176 008c 08EB0501 		add	r1, r8, r5
 177 0090 0090     		str	r0, [sp]
 178 0092 B847     		blx	r7
 179              	.LVL19:
 180              		.loc 1 33 13 is_stmt 1 view .LVU41
 181 0094 0222     		movs	r2, #2
 182 0096 5946     		mov	r1, fp
 183 0098 DCE7     		b	.L11
 184              	.LVL20:
 185              	.L8:
 186              		.loc 1 26 11 is_stmt 0 view .LVU42
 187 009a 0A46     		mov	r2, r1
 188              	.LVL21:
 189              		.loc 1 26 11 view .LVU43
 190 009c 4146     		mov	r1, r8
 191              	.LVL22:
 192              		.loc 1 26 11 view .LVU44
 193 009e E4E7     		b	.L2
 194              	.LVL23:
 195              	.L14:
 196              		.loc 1 42 1 view .LVU45
 197 00a0 FFF7FEFF 		bl	__stack_chk_fail
 198              	.LVL24:
 199              	.L16:
 200              		.align	2
 201              	.L15:
 202 00a4 00000000 		.word	.LC0
 203 00a8 00000000 		.word	.LANCHOR1
 204 00ac 00000000 		.word	.LANCHOR0
 205              		.cfi_endproc
 206              	.LFE1:
 207              		.size	serial_datagram_send_chunk, .-serial_datagram_send_chunk
 208              		.section	.rodata.serial_datagram_send_end.cst4,"aM",%progbits,4
 209              		.align	2
 210              	.LC1:
 211 0000 00000000 		.word	__stack_chk_guard
 212              		.section	.text.serial_datagram_send_end,"ax",%progbits
 213              		.align	1
 214              		.p2align 4,,15
 215              		.global	serial_datagram_send_end
 216              		.syntax unified
 217              		.thumb
 218              		.thumb_func
 219              		.fpu fpv4-sp-d16
 220              		.type	serial_datagram_send_end, %function
 221              	serial_datagram_send_end:
 222              	.LVL25:
 223              	.LFB2:
 224              		.loc 1 46 1 is_stmt 1 view -0
 225              		.cfi_startproc
 226              		@ args = 0, pretend = 0, frame = 16
 227              		@ frame_needed = 0, uses_anonymous_args = 0
 228              		.loc 1 46 1 is_stmt 0 view .LVU47
ARM GAS  /tmp/ccZDaYQB.s 			page 5


 229 0000 2DE9F041 		push	{r4, r5, r6, r7, r8, lr}
 230              		.cfi_def_cfa_offset 24
 231              		.cfi_offset 4, -24
 232              		.cfi_offset 5, -20
 233              		.cfi_offset 6, -16
 234              		.cfi_offset 7, -12
 235              		.cfi_offset 8, -8
 236              		.cfi_offset 14, -4
 237 0004 8846     		mov	r8, r1
 238 0006 2249     		ldr	r1, .L28
 239              	.LVL26:
 240              		.loc 1 46 1 view .LVU48
 241 0008 84B0     		sub	sp, sp, #16
 242              		.cfi_def_cfa_offset 40
 243              		.loc 1 46 1 view .LVU49
 244 000a 0746     		mov	r7, r0
 245              		.loc 1 51 12 view .LVU50
 246 000c 1824     		movs	r4, #24
 247              		.loc 1 46 1 view .LVU51
 248 000e 1046     		mov	r0, r2
 249              	.LVL27:
 250              		.loc 1 49 14 view .LVU52
 251 0010 0023     		movs	r3, #0
 252              		.loc 1 56 30 view .LVU53
 253 0012 4FF0DB0E 		mov	lr, #219
 254              		.loc 1 57 30 view .LVU54
 255 0016 4FF0DC0C 		mov	ip, #220
 256              		.loc 1 54 30 view .LVU55
 257 001a DD22     		movs	r2, #221
 258              	.LVL28:
 259              		.loc 1 46 1 view .LVU56
 260 001c 0968     		ldr	r1, [r1]
 261 001e 0391     		str	r1, [sp, #12]
 262 0020 4FF00001 		mov	r1,#0
 263              		.loc 1 48 5 is_stmt 1 view .LVU57
 264              		.loc 1 49 5 view .LVU58
 265              	.LVL29:
 266              		.loc 1 50 5 view .LVU59
 267              		.loc 1 51 5 view .LVU60
 268              		.loc 1 51 19 view .LVU61
 269              	.L21:
 270              		.loc 1 52 9 view .LVU62
 271              		.loc 1 52 19 is_stmt 0 view .LVU63
 272 0024 27FA04F6 		lsr	r6, r7, r4
 273              		.loc 1 52 25 view .LVU64
 274 0028 F5B2     		uxtb	r5, r6
 275              		.loc 1 52 12 view .LVU65
 276 002a DB2D     		cmp	r5, #219
 277 002c 1AD0     		beq	.L25
 278              		.loc 1 55 16 is_stmt 1 view .LVU66
 279              		.loc 1 55 19 is_stmt 0 view .LVU67
 280 002e C02D     		cmp	r5, #192
 281 0030 22D0     		beq	.L26
 282              		.loc 1 59 13 is_stmt 1 view .LVU68
 283              	.LVL30:
 284              		.loc 1 59 30 is_stmt 0 view .LVU69
 285 0032 04A9     		add	r1, sp, #16
ARM GAS  /tmp/ccZDaYQB.s 			page 6


 286 0034 CD18     		adds	r5, r1, r3
 287 0036 0133     		adds	r3, r3, #1
 288              	.LVL31:
 289              		.loc 1 59 30 view .LVU70
 290 0038 05F8106C 		strb	r6, [r5, #-16]
 291              	.L19:
 292              		.loc 1 51 27 is_stmt 1 discriminator 2 view .LVU71
 293              		.loc 1 51 29 is_stmt 0 discriminator 2 view .LVU72
 294 003c 083C     		subs	r4, r4, #8
 295              	.LVL32:
 296              		.loc 1 51 19 is_stmt 1 discriminator 2 view .LVU73
 297              		.loc 1 51 5 is_stmt 0 discriminator 2 view .LVU74
 298 003e 14F1080F 		cmn	r4, #8
 299 0042 EFD1     		bne	.L21
 300              		.loc 1 62 5 is_stmt 1 view .LVU75
 301              	.LVL33:
 302              		.loc 1 62 22 is_stmt 0 view .LVU76
 303 0044 04AA     		add	r2, sp, #16
 304 0046 D418     		adds	r4, r2, r3
 305              	.LVL34:
 306              		.loc 1 63 5 view .LVU77
 307 0048 6946     		mov	r1, sp
 308 004a 5A1C     		adds	r2, r3, #1
 309              	.LVL35:
 310              		.loc 1 62 22 view .LVU78
 311 004c C023     		movs	r3, #192
 312 004e 04F8103C 		strb	r3, [r4, #-16]
 313              		.loc 1 63 5 is_stmt 1 view .LVU79
 314 0052 C047     		blx	r8
 315              	.LVL36:
 316              		.loc 1 64 1 is_stmt 0 view .LVU80
 317 0054 0E4B     		ldr	r3, .L28
 318 0056 1A68     		ldr	r2, [r3]
 319 0058 039B     		ldr	r3, [sp, #12]
 320 005a 5A40     		eors	r2, r3, r2
 321 005c 16D1     		bne	.L27
 322 005e 04B0     		add	sp, sp, #16
 323              		.cfi_remember_state
 324              		.cfi_def_cfa_offset 24
 325              		@ sp needed
 326 0060 BDE8F081 		pop	{r4, r5, r6, r7, r8, pc}
 327              	.LVL37:
 328              	.L25:
 329              		.cfi_restore_state
 330              		.loc 1 53 13 is_stmt 1 view .LVU81
 331              		.loc 1 53 26 is_stmt 0 view .LVU82
 332 0064 5E1C     		adds	r6, r3, #1
 333              	.LVL38:
 334              		.loc 1 54 30 view .LVU83
 335 0066 04A9     		add	r1, sp, #16
 336 0068 0E44     		add	r6, r6, r1
 337              	.LVL39:
 338              		.loc 1 53 30 view .LVU84
 339 006a 1944     		add	r1, r1, r3
 340 006c 0233     		adds	r3, r3, #2
 341              	.LVL40:
 342              		.loc 1 54 13 is_stmt 1 view .LVU85
ARM GAS  /tmp/ccZDaYQB.s 			page 7


 343              		.loc 1 53 30 is_stmt 0 view .LVU86
 344 006e 01F8105C 		strb	r5, [r1, #-16]
 345              		.loc 1 54 30 view .LVU87
 346 0072 06F8102C 		strb	r2, [r6, #-16]
 347 0076 E1E7     		b	.L19
 348              	.L26:
 349              		.loc 1 56 13 is_stmt 1 view .LVU88
 350              		.loc 1 56 26 is_stmt 0 view .LVU89
 351 0078 591C     		adds	r1, r3, #1
 352              	.LVL41:
 353              		.loc 1 57 30 view .LVU90
 354 007a 04AD     		add	r5, sp, #16
 355 007c 2944     		add	r1, r1, r5
 356              	.LVL42:
 357              		.loc 1 56 30 view .LVU91
 358 007e 1D44     		add	r5, r5, r3
 359 0080 0233     		adds	r3, r3, #2
 360              	.LVL43:
 361              		.loc 1 57 13 is_stmt 1 view .LVU92
 362              		.loc 1 56 30 is_stmt 0 view .LVU93
 363 0082 05F810EC 		strb	lr, [r5, #-16]
 364              		.loc 1 57 30 view .LVU94
 365 0086 01F810CC 		strb	ip, [r1, #-16]
 366 008a D7E7     		b	.L19
 367              	.LVL44:
 368              	.L27:
 369              		.loc 1 64 1 view .LVU95
 370 008c FFF7FEFF 		bl	__stack_chk_fail
 371              	.LVL45:
 372              	.L29:
 373              		.align	2
 374              	.L28:
 375 0090 00000000 		.word	.LC1
 376              		.cfi_endproc
 377              	.LFE2:
 378              		.size	serial_datagram_send_end, .-serial_datagram_send_end
 379              		.section	.rodata.serial_datagram_send.cst4,"aM",%progbits,4
 380              		.align	2
 381              	.LC2:
 382 0000 00000000 		.word	__stack_chk_guard
 383              		.section	.text.serial_datagram_send,"ax",%progbits
 384              		.align	1
 385              		.p2align 4,,15
 386              		.global	serial_datagram_send
 387              		.syntax unified
 388              		.thumb
 389              		.thumb_func
 390              		.fpu fpv4-sp-d16
 391              		.type	serial_datagram_send, %function
 392              	serial_datagram_send:
 393              	.LVL46:
 394              	.LFB3:
 395              		.loc 1 68 1 is_stmt 1 view -0
 396              		.cfi_startproc
 397              		@ args = 0, pretend = 0, frame = 8
 398              		@ frame_needed = 0, uses_anonymous_args = 0
 399              		.loc 1 68 1 is_stmt 0 view .LVU97
ARM GAS  /tmp/ccZDaYQB.s 			page 8


 400 0000 70B5     		push	{r4, r5, r6, lr}
 401              		.cfi_def_cfa_offset 16
 402              		.cfi_offset 4, -16
 403              		.cfi_offset 5, -12
 404              		.cfi_offset 6, -8
 405              		.cfi_offset 14, -4
 406 0002 84B0     		sub	sp, sp, #16
 407              		.cfi_def_cfa_offset 32
 408              		.loc 1 68 1 view .LVU98
 409 0004 DFF83CC0 		ldr	ip, .L34
 410              		.loc 1 70 5 view .LVU99
 411 0008 0093     		str	r3, [sp]
 412              		.loc 1 68 1 view .LVU100
 413 000a 1446     		mov	r4, r2
 414 000c 1D46     		mov	r5, r3
 415              		.loc 1 69 14 view .LVU101
 416 000e 0026     		movs	r6, #0
 417              		.loc 1 70 5 view .LVU102
 418 0010 1346     		mov	r3, r2
 419              	.LVL47:
 420              		.loc 1 70 5 view .LVU103
 421 0012 02AA     		add	r2, sp, #8
 422              	.LVL48:
 423              		.loc 1 68 1 view .LVU104
 424 0014 DCF800C0 		ldr	ip, [ip]
 425 0018 CDF80CC0 		str	ip, [sp, #12]
 426 001c 4FF0000C 		mov	ip,#0
 427              		.loc 1 69 5 is_stmt 1 view .LVU105
 428              		.loc 1 69 14 is_stmt 0 view .LVU106
 429 0020 0296     		str	r6, [sp, #8]
 430              		.loc 1 70 5 is_stmt 1 view .LVU107
 431 0022 FFF7FEFF 		bl	serial_datagram_send_chunk
 432              	.LVL49:
 433              		.loc 1 71 5 view .LVU108
 434 0026 2A46     		mov	r2, r5
 435 0028 0298     		ldr	r0, [sp, #8]
 436 002a 2146     		mov	r1, r4
 437 002c FFF7FEFF 		bl	serial_datagram_send_end
 438              	.LVL50:
 439              		.loc 1 72 1 is_stmt 0 view .LVU109
 440 0030 044B     		ldr	r3, .L34
 441 0032 1A68     		ldr	r2, [r3]
 442 0034 039B     		ldr	r3, [sp, #12]
 443 0036 5A40     		eors	r2, r3, r2
 444 0038 01D1     		bne	.L33
 445 003a 04B0     		add	sp, sp, #16
 446              		.cfi_remember_state
 447              		.cfi_def_cfa_offset 16
 448              		@ sp needed
 449 003c 70BD     		pop	{r4, r5, r6, pc}
 450              	.LVL51:
 451              	.L33:
 452              		.cfi_restore_state
 453              		.loc 1 72 1 view .LVU110
 454 003e FFF7FEFF 		bl	__stack_chk_fail
 455              	.LVL52:
 456              	.L35:
ARM GAS  /tmp/ccZDaYQB.s 			page 9


 457 0042 00BF     		.align	2
 458              	.L34:
 459 0044 00000000 		.word	.LC2
 460              		.cfi_endproc
 461              	.LFE3:
 462              		.size	serial_datagram_send, .-serial_datagram_send
 463              		.section	.rodata.serial_datagram_rcv_handler_init.cst4,"aM",%progbits,4
 464              		.align	2
 465              	.LC3:
 466 0000 00000000 		.word	__stack_chk_guard
 467              		.section	.text.serial_datagram_rcv_handler_init,"ax",%progbits
 468              		.align	1
 469              		.p2align 4,,15
 470              		.global	serial_datagram_rcv_handler_init
 471              		.syntax unified
 472              		.thumb
 473              		.thumb_func
 474              		.fpu fpv4-sp-d16
 475              		.type	serial_datagram_rcv_handler_init, %function
 476              	serial_datagram_rcv_handler_init:
 477              	.LVL53:
 478              	.LFB5:
 479              		.loc 1 83 1 is_stmt 1 view -0
 480              		.cfi_startproc
 481              		@ args = 4, pretend = 0, frame = 8
 482              		@ frame_needed = 0, uses_anonymous_args = 0
 483              		.loc 1 83 1 is_stmt 0 view .LVU112
 484 0000 10B5     		push	{r4, lr}
 485              		.cfi_def_cfa_offset 8
 486              		.cfi_offset 4, -8
 487              		.cfi_offset 14, -4
 488 0002 0B4C     		ldr	r4, .L40
 489 0004 82B0     		sub	sp, sp, #8
 490              		.cfi_def_cfa_offset 16
 491              		.loc 1 83 1 view .LVU113
 492 0006 2468     		ldr	r4, [r4]
 493 0008 0194     		str	r4, [sp, #4]
 494 000a 4FF00004 		mov	r4,#0
 495              		.loc 1 84 5 is_stmt 1 view .LVU114
 496              		.loc 1 83 1 is_stmt 0 view .LVU115
 497 000e 049C     		ldr	r4, [sp, #16]
 498              		.loc 1 84 15 view .LVU116
 499 0010 0160     		str	r1, [r0]
 500              		.loc 1 85 5 is_stmt 1 view .LVU117
 501              		.loc 1 87 21 is_stmt 0 view .LVU118
 502 0012 C0E90334 		strd	r3, r4, [r0, #12]
 503              	.LBB12:
 504              	.LBB13:
 505              		.loc 1 76 20 view .LVU119
 506 0016 0021     		movs	r1, #0
 507              	.LVL54:
 508              		.loc 1 76 20 view .LVU120
 509              	.LBE13:
 510              	.LBE12:
 511              		.loc 1 89 1 view .LVU121
 512 0018 054B     		ldr	r3, .L40
 513              	.LVL55:
ARM GAS  /tmp/ccZDaYQB.s 			page 10


 514              		.loc 1 85 13 view .LVU122
 515 001a 4260     		str	r2, [r0, #4]
 516              		.loc 1 86 5 is_stmt 1 view .LVU123
 517              		.loc 1 88 5 view .LVU124
 518              	.LVL56:
 519              	.LBB15:
 520              	.LBI12:
 521              		.loc 1 74 13 view .LVU125
 522              	.LBB14:
 523              		.loc 1 76 5 view .LVU126
 524              		.loc 1 76 20 is_stmt 0 view .LVU127
 525 001c 8160     		str	r1, [r0, #8]
 526              		.loc 1 77 5 is_stmt 1 view .LVU128
 527              		.loc 1 78 5 view .LVU129
 528              		.loc 1 77 19 is_stmt 0 view .LVU130
 529 001e 8182     		strh	r1, [r0, #20]	@ movhi
 530              	.LVL57:
 531              		.loc 1 77 19 view .LVU131
 532              	.LBE14:
 533              	.LBE15:
 534              		.loc 1 89 1 view .LVU132
 535 0020 1A68     		ldr	r2, [r3]
 536 0022 019B     		ldr	r3, [sp, #4]
 537 0024 5A40     		eors	r2, r3, r2
 538              	.LVL58:
 539              		.loc 1 89 1 view .LVU133
 540 0026 01D1     		bne	.L39
 541 0028 02B0     		add	sp, sp, #8
 542              		.cfi_remember_state
 543              		.cfi_def_cfa_offset 8
 544              		@ sp needed
 545 002a 10BD     		pop	{r4, pc}
 546              	.LVL59:
 547              	.L39:
 548              		.cfi_restore_state
 549              		.loc 1 89 1 view .LVU134
 550 002c FFF7FEFF 		bl	__stack_chk_fail
 551              	.LVL60:
 552              	.L41:
 553              		.loc 1 89 1 view .LVU135
 554              		.align	2
 555              	.L40:
 556 0030 00000000 		.word	.LC3
 557              		.cfi_endproc
 558              	.LFE5:
 559              		.size	serial_datagram_rcv_handler_init, .-serial_datagram_rcv_handler_init
 560              		.section	.rodata.serial_datagram_receive.cst4,"aM",%progbits,4
 561              		.align	2
 562              	.LC4:
 563 0000 00000000 		.word	__stack_chk_guard
 564              		.section	.text.serial_datagram_receive,"ax",%progbits
 565              		.align	1
 566              		.p2align 4,,15
 567              		.global	serial_datagram_receive
 568              		.syntax unified
 569              		.thumb
 570              		.thumb_func
ARM GAS  /tmp/ccZDaYQB.s 			page 11


 571              		.fpu fpv4-sp-d16
 572              		.type	serial_datagram_receive, %function
 573              	serial_datagram_receive:
 574              	.LVL61:
 575              	.LFB6:
 576              		.loc 1 93 1 is_stmt 1 view -0
 577              		.cfi_startproc
 578              		@ args = 0, pretend = 0, frame = 8
 579              		@ frame_needed = 0, uses_anonymous_args = 0
 580              		.loc 1 93 1 is_stmt 0 view .LVU137
 581 0000 2DE9F047 		push	{r4, r5, r6, r7, r8, r9, r10, lr}
 582              		.cfi_def_cfa_offset 32
 583              		.cfi_offset 4, -32
 584              		.cfi_offset 5, -28
 585              		.cfi_offset 6, -24
 586              		.cfi_offset 7, -20
 587              		.cfi_offset 8, -16
 588              		.cfi_offset 9, -12
 589              		.cfi_offset 10, -8
 590              		.cfi_offset 14, -4
 591 0004 424B     		ldr	r3, .L71
 592 0006 82B0     		sub	sp, sp, #8
 593              		.cfi_def_cfa_offset 40
 594              		.loc 1 93 1 view .LVU138
 595 0008 1B68     		ldr	r3, [r3]
 596 000a 0193     		str	r3, [sp, #4]
 597 000c 4FF00003 		mov	r3,#0
 598              		.loc 1 94 5 is_stmt 1 view .LVU139
 599              	.LVL62:
 600              		.loc 1 95 5 view .LVU140
 601              		.loc 1 96 5 view .LVU141
 602              		.loc 1 96 11 view .LVU142
 603              		.loc 1 96 11 is_stmt 0 view .LVU143
 604 0010 002A     		cmp	r2, #0
 605 0012 79D0     		beq	.L56
 606              		.loc 1 95 9 view .LVU144
 607 0014 4FF00008 		mov	r8, #0
 608 0018 0546     		mov	r5, r0
 609 001a 0C46     		mov	r4, r1
 610 001c 8E18     		adds	r6, r1, r2
 611              		.loc 1 131 25 view .LVU145
 612 001e 4746     		mov	r7, r8
 613              		.loc 1 133 25 view .LVU146
 614 0020 4FF00109 		mov	r9, #1
 615 0024 04E0     		b	.L54
 616              	.LVL63:
 617              	.L61:
 618              		.loc 1 98 13 is_stmt 1 view .LVU147
 619              		.loc 1 98 16 is_stmt 0 view .LVU148
 620 0026 C02B     		cmp	r3, #192
 621 0028 28D0     		beq	.L47
 622              	.L45:
 623              		.loc 1 137 9 is_stmt 1 view .LVU149
 624              		.loc 1 137 13 is_stmt 0 view .LVU150
 625 002a 0134     		adds	r4, r4, #1
 626              	.LVL64:
 627              		.loc 1 96 11 is_stmt 1 view .LVU151
ARM GAS  /tmp/ccZDaYQB.s 			page 12


 628              		.loc 1 96 11 is_stmt 0 view .LVU152
 629 002c A642     		cmp	r6, r4
 630 002e 17D0     		beq	.L42
 631              	.LVL65:
 632              	.L54:
 633              		.loc 1 97 9 is_stmt 1 view .LVU153
 634              		.loc 1 97 12 is_stmt 0 view .LVU154
 635 0030 287D     		ldrb	r0, [r5, #20]	@ zero_extendqisi2
 636              		.loc 1 98 16 view .LVU155
 637 0032 2378     		ldrb	r3, [r4]	@ zero_extendqisi2
 638              		.loc 1 97 12 view .LVU156
 639 0034 0028     		cmp	r0, #0
 640 0036 F6D1     		bne	.L61
 641              		.loc 1 101 16 is_stmt 1 view .LVU157
 642              		.loc 1 101 19 is_stmt 0 view .LVU158
 643 0038 C02B     		cmp	r3, #192
 644              	.LBB16:
 645              		.loc 1 102 47 view .LVU159
 646 003a AA68     		ldr	r2, [r5, #8]
 647              	.LBE16:
 648              		.loc 1 101 19 view .LVU160
 649 003c 19D0     		beq	.L62
 650              		.loc 1 119 16 is_stmt 1 view .LVU161
 651              		.loc 1 119 19 is_stmt 0 view .LVU162
 652 003e 6968     		ldr	r1, [r5, #4]
 653 0040 8A42     		cmp	r2, r1
 654 0042 1ED0     		beq	.L63
 655              		.loc 1 122 16 is_stmt 1 view .LVU163
 656              		.loc 1 122 19 is_stmt 0 view .LVU164
 657 0044 697D     		ldrb	r1, [r5, #21]	@ zero_extendqisi2
 658 0046 09B3     		cbz	r1, .L49
 659              		.loc 1 123 13 is_stmt 1 view .LVU165
 660              		.loc 1 123 16 is_stmt 0 view .LVU166
 661 0048 DD2B     		cmp	r3, #221
 662 004a 44D0     		beq	.L64
 663              		.loc 1 125 20 is_stmt 1 view .LVU167
 664              		.loc 1 125 23 is_stmt 0 view .LVU168
 665 004c DC2B     		cmp	r3, #220
 666 004e 4CD0     		beq	.L65
 667              		.loc 1 128 17 is_stmt 1 view .LVU169
 668              	.LVL66:
 669              		.loc 1 129 17 view .LVU170
 670              		.loc 1 129 31 is_stmt 0 view .LVU171
 671 0050 85F81490 		strb	r9, [r5, #20]
 672              		.loc 1 128 28 view .LVU172
 673 0054 4FF00308 		mov	r8, #3
 674              	.LVL67:
 675              		.loc 1 131 13 is_stmt 1 view .LVU173
 676              		.loc 1 131 25 is_stmt 0 view .LVU174
 677 0058 6F75     		strb	r7, [r5, #21]
 678              	.L70:
 679              		.loc 1 137 9 is_stmt 1 view .LVU175
 680              		.loc 1 137 13 is_stmt 0 view .LVU176
 681 005a 0134     		adds	r4, r4, #1
 682              	.LVL68:
 683              		.loc 1 96 11 is_stmt 1 view .LVU177
 684              		.loc 1 96 11 is_stmt 0 view .LVU178
ARM GAS  /tmp/ccZDaYQB.s 			page 13


 685 005c A642     		cmp	r6, r4
 686 005e E7D1     		bne	.L54
 687              	.LVL69:
 688              	.L42:
 689              		.loc 1 140 1 view .LVU179
 690 0060 2B4B     		ldr	r3, .L71
 691 0062 1A68     		ldr	r2, [r3]
 692 0064 019B     		ldr	r3, [sp, #4]
 693 0066 5A40     		eors	r2, r3, r2
 694 0068 50D1     		bne	.L66
 695 006a 4046     		mov	r0, r8
 696 006c 02B0     		add	sp, sp, #8
 697              		.cfi_remember_state
 698              		.cfi_def_cfa_offset 32
 699              		@ sp needed
 700 006e BDE8F087 		pop	{r4, r5, r6, r7, r8, r9, r10, pc}
 701              	.LVL70:
 702              	.L62:
 703              		.cfi_restore_state
 704              	.LBB27:
 705              		.loc 1 102 13 is_stmt 1 view .LVU180
 706              		.loc 1 103 13 view .LVU181
 707              		.loc 1 103 16 is_stmt 0 view .LVU182
 708 0072 B2F1040A 		subs	r10, r2, #4
 709              	.LVL71:
 710              		.loc 1 103 16 view .LVU183
 711 0076 11D5     		bpl	.L67
 712              		.loc 1 116 28 view .LVU184
 713 0078 4FF00308 		mov	r8, #3
 714              	.LVL72:
 715              	.L47:
 716              		.loc 1 118 13 is_stmt 1 view .LVU185
 717              	.LBB17:
 718              	.LBI17:
 719              		.loc 1 74 13 view .LVU186
 720              	.LBB18:
 721              		.loc 1 76 5 view .LVU187
 722              		.loc 1 76 20 is_stmt 0 view .LVU188
 723 007c AF60     		str	r7, [r5, #8]
 724              		.loc 1 77 5 is_stmt 1 view .LVU189
 725              		.loc 1 78 5 view .LVU190
 726              		.loc 1 77 19 is_stmt 0 view .LVU191
 727 007e AF82     		strh	r7, [r5, #20]	@ movhi
 728              		.loc 1 79 1 view .LVU192
 729 0080 D3E7     		b	.L45
 730              	.LVL73:
 731              	.L63:
 732              		.loc 1 79 1 view .LVU193
 733              	.LBE18:
 734              	.LBE17:
 735              	.LBE27:
 736              		.loc 1 120 13 is_stmt 1 view .LVU194
 737              		.loc 1 120 27 is_stmt 0 view .LVU195
 738 0082 85F81490 		strb	r9, [r5, #20]
 739              		.loc 1 121 13 is_stmt 1 view .LVU196
 740              	.LVL74:
 741              		.loc 1 121 24 is_stmt 0 view .LVU197
ARM GAS  /tmp/ccZDaYQB.s 			page 14


 742 0086 4FF00108 		mov	r8, #1
 743 008a CEE7     		b	.L45
 744              	.LVL75:
 745              	.L49:
 746              		.loc 1 132 16 is_stmt 1 view .LVU198
 747              		.loc 1 132 19 is_stmt 0 view .LVU199
 748 008c DB2B     		cmp	r3, #219
 749 008e 29D0     		beq	.L68
 750              		.loc 1 135 14 is_stmt 1 view .LVU200
 751              		.loc 1 135 38 is_stmt 0 view .LVU201
 752 0090 531C     		adds	r3, r2, #1
 753 0092 AB60     		str	r3, [r5, #8]
 754              		.loc 1 135 15 view .LVU202
 755 0094 2B68     		ldr	r3, [r5]
 756              		.loc 1 135 44 view .LVU203
 757 0096 2178     		ldrb	r1, [r4]	@ zero_extendqisi2
 758              		.loc 1 135 42 view .LVU204
 759 0098 9954     		strb	r1, [r3, r2]
 760 009a C6E7     		b	.L45
 761              	.LVL76:
 762              	.L67:
 763              	.LBB28:
 764              	.LBB21:
 765              		.loc 1 104 17 is_stmt 1 view .LVU205
 766              	.LBB22:
 767              	.LBI22:
 768              		.loc 1 12 17 view .LVU206
 769              	.LBB23:
 770              		.loc 1 14 5 view .LVU207
 771              		.loc 1 14 12 is_stmt 0 view .LVU208
 772 009c 2968     		ldr	r1, [r5]
 773 009e 5246     		mov	r2, r10
 774 00a0 FFF7FEFF 		bl	crc32
 775              	.LVL77:
 776              		.loc 1 14 12 view .LVU209
 777              	.LBE23:
 778              	.LBE22:
 779              		.loc 1 105 17 is_stmt 1 view .LVU210
 780              		.loc 1 106 43 is_stmt 0 view .LVU211
 781 00a4 AB68     		ldr	r3, [r5, #8]
 782              		.loc 1 106 33 view .LVU212
 783 00a6 2A68     		ldr	r2, [r5]
 784              	.LVL78:
 785              		.loc 1 110 17 is_stmt 1 view .LVU213
 786              		.loc 1 106 41 is_stmt 0 view .LVU214
 787 00a8 D118     		adds	r1, r2, r3
 788              	.LVL79:
 789              		.loc 1 107 62 view .LVU215
 790 00aa 11F8033C 		ldrb	r3, [r1, #-3]	@ zero_extendqisi2
 791              	.LVL80:
 792              		.loc 1 106 62 view .LVU216
 793 00ae 11F804EC 		ldrb	lr, [r1, #-4]	@ zero_extendqisi2
 794              		.loc 1 109 62 view .LVU217
 795 00b2 11F801CC 		ldrb	ip, [r1, #-1]	@ zero_extendqisi2
 796              		.loc 1 108 62 view .LVU218
 797 00b6 11F8021C 		ldrb	r1, [r1, #-2]	@ zero_extendqisi2
 798              	.LVL81:
ARM GAS  /tmp/ccZDaYQB.s 			page 15


 799              		.loc 1 107 70 view .LVU219
 800 00ba 1B04     		lsls	r3, r3, #16
 801              		.loc 1 106 77 view .LVU220
 802 00bc 43EA0E63 		orr	r3, r3, lr, lsl #24
 803              		.loc 1 105 26 view .LVU221
 804 00c0 43EA0C03 		orr	r3, r3, ip
 805 00c4 43EA0123 		orr	r3, r3, r1, lsl #8
 806              		.loc 1 110 20 view .LVU222
 807 00c8 8342     		cmp	r3, r0
 808 00ca 15D0     		beq	.L69
 809              		.loc 1 111 32 view .LVU223
 810 00cc 4FF00208 		mov	r8, #2
 811              	.LBE21:
 812              		.loc 1 118 13 is_stmt 1 view .LVU224
 813              	.LVL82:
 814              	.LBB24:
 815              		.loc 1 74 13 view .LVU225
 816              	.LBB19:
 817              		.loc 1 76 5 view .LVU226
 818              		.loc 1 76 20 is_stmt 0 view .LVU227
 819 00d0 AF60     		str	r7, [r5, #8]
 820              	.LVL83:
 821              		.loc 1 77 5 is_stmt 1 view .LVU228
 822              		.loc 1 78 5 view .LVU229
 823              		.loc 1 77 19 is_stmt 0 view .LVU230
 824 00d2 AF82     		strh	r7, [r5, #20]	@ movhi
 825 00d4 A9E7     		b	.L45
 826              	.LVL84:
 827              	.L64:
 828              		.loc 1 77 19 view .LVU231
 829              	.LBE19:
 830              	.LBE24:
 831              	.LBE28:
 832              		.loc 1 124 17 is_stmt 1 view .LVU232
 833              		.loc 1 124 18 is_stmt 0 view .LVU233
 834 00d6 2B68     		ldr	r3, [r5]
 835              		.loc 1 124 41 view .LVU234
 836 00d8 501C     		adds	r0, r2, #1
 837              		.loc 1 124 45 view .LVU235
 838 00da DB21     		movs	r1, #219
 839              		.loc 1 124 41 view .LVU236
 840 00dc A860     		str	r0, [r5, #8]
 841              		.loc 1 124 45 view .LVU237
 842 00de 9954     		strb	r1, [r3, r2]
 843              		.loc 1 131 13 is_stmt 1 view .LVU238
 844              		.loc 1 131 25 is_stmt 0 view .LVU239
 845 00e0 6F75     		strb	r7, [r5, #21]
 846 00e2 BAE7     		b	.L70
 847              	.L68:
 848              		.loc 1 133 13 is_stmt 1 view .LVU240
 849              		.loc 1 133 25 is_stmt 0 view .LVU241
 850 00e4 85F81590 		strb	r9, [r5, #21]
 851 00e8 9FE7     		b	.L45
 852              	.L65:
 853              		.loc 1 126 17 is_stmt 1 view .LVU242
 854              		.loc 1 126 18 is_stmt 0 view .LVU243
 855 00ea 2B68     		ldr	r3, [r5]
ARM GAS  /tmp/ccZDaYQB.s 			page 16


 856              		.loc 1 126 41 view .LVU244
 857 00ec 501C     		adds	r0, r2, #1
 858              		.loc 1 126 45 view .LVU245
 859 00ee C021     		movs	r1, #192
 860              		.loc 1 126 41 view .LVU246
 861 00f0 A860     		str	r0, [r5, #8]
 862              		.loc 1 126 45 view .LVU247
 863 00f2 9954     		strb	r1, [r3, r2]
 864              		.loc 1 131 13 is_stmt 1 view .LVU248
 865              		.loc 1 131 25 is_stmt 0 view .LVU249
 866 00f4 6F75     		strb	r7, [r5, #21]
 867 00f6 B0E7     		b	.L70
 868              	.LVL85:
 869              	.L69:
 870              	.LBB29:
 871              	.LBB25:
 872              		.loc 1 113 21 is_stmt 1 view .LVU250
 873 00f8 1046     		mov	r0, r2
 874              	.LVL86:
 875              		.loc 1 113 21 is_stmt 0 view .LVU251
 876 00fa 5146     		mov	r1, r10
 877 00fc D5E90332 		ldrd	r3, r2, [r5, #12]
 878              	.LVL87:
 879              		.loc 1 113 21 view .LVU252
 880 0100 9847     		blx	r3
 881              	.LVL88:
 882              		.loc 1 113 21 view .LVU253
 883              	.LBE25:
 884              		.loc 1 118 13 is_stmt 1 view .LVU254
 885              	.LBB26:
 886              		.loc 1 74 13 view .LVU255
 887              	.LBB20:
 888              		.loc 1 76 5 view .LVU256
 889              		.loc 1 76 20 is_stmt 0 view .LVU257
 890 0102 AF60     		str	r7, [r5, #8]
 891              		.loc 1 77 5 is_stmt 1 view .LVU258
 892              		.loc 1 78 5 view .LVU259
 893              		.loc 1 77 19 is_stmt 0 view .LVU260
 894 0104 AF82     		strh	r7, [r5, #20]	@ movhi
 895 0106 90E7     		b	.L45
 896              	.LVL89:
 897              	.L56:
 898              		.loc 1 77 19 view .LVU261
 899              	.LBE20:
 900              	.LBE26:
 901              	.LBE29:
 902              		.loc 1 95 9 view .LVU262
 903 0108 9046     		mov	r8, r2
 904              		.loc 1 139 5 is_stmt 1 view .LVU263
 905              		.loc 1 139 12 is_stmt 0 view .LVU264
 906 010a A9E7     		b	.L42
 907              	.LVL90:
 908              	.L66:
 909              		.loc 1 140 1 view .LVU265
 910 010c FFF7FEFF 		bl	__stack_chk_fail
 911              	.LVL91:
 912              	.L72:
ARM GAS  /tmp/ccZDaYQB.s 			page 17


 913              		.align	2
 914              	.L71:
 915 0110 00000000 		.word	.LC4
 916              		.cfi_endproc
 917              	.LFE6:
 918              		.size	serial_datagram_receive, .-serial_datagram_receive
 919              		.section	.rodata.esc_end,"a"
 920              		.align	2
 921              		.set	.LANCHOR0,. + 0
 922              		.type	esc_end, %object
 923              		.size	esc_end, 2
 924              	esc_end:
 925 0000 DBDC     		.ascii	"\333\334"
 926              		.section	.rodata.esc_esc,"a"
 927              		.align	2
 928              		.set	.LANCHOR1,. + 0
 929              		.type	esc_esc, %object
 930              		.size	esc_esc, 2
 931              	esc_esc:
 932 0000 DBDD     		.ascii	"\333\335"
 933              		.text
 934              	.Letext0:
 935              		.file 2 "/usr/lib/gcc/arm-none-eabi/9.2.1/include/stdint.h"
 936              		.file 3 "/usr/lib/gcc/arm-none-eabi/9.2.1/include/stddef.h"
 937              		.file 4 "/usr/include/newlib/sys/_types.h"
 938              		.file 5 "/usr/include/newlib/sys/reent.h"
 939              		.file 6 "/usr/include/newlib/sys/lock.h"
 940              		.file 7 "/usr/include/newlib/stdlib.h"
 941              		.file 8 ".//src/serial-datagram/serial_datagram.h"
 942              		.file 9 ".//src/crc/crc32.h"