ARM GAS  /tmp/ccaKuZVb.s 			page 1


   1              		.cpu cortex-m4
   2              		.eabi_attribute 27, 1
   3              		.eabi_attribute 28, 1
   4              		.eabi_attribute 20, 1
   5              		.eabi_attribute 21, 1
   6              		.eabi_attribute 23, 3
   7              		.eabi_attribute 24, 1
   8              		.eabi_attribute 25, 1
   9              		.eabi_attribute 26, 1
  10              		.eabi_attribute 30, 2
  11              		.eabi_attribute 34, 1
  12              		.eabi_attribute 18, 4
  13              		.file	"serial_usb.c"
  14              		.text
  15              	.Ltext0:
  16              		.cfi_sections	.debug_frame
  17              		.section	.rodata.inotify.cst4,"aM",%progbits,4
  18              		.align	2
  19              	.LC0:
  20 0000 00000000 		.word	__stack_chk_guard
  21              		.section	.text.inotify,"ax",%progbits
  22              		.align	1
  23              		.p2align 4,,15
  24              		.arch armv7e-m
  25              		.syntax unified
  26              		.thumb
  27              		.thumb_func
  28              		.fpu fpv4-sp-d16
  29              		.type	inotify, %function
  30              	inotify:
  31              	.LVL0:
  32              	.LFB264:
  33              		.file 1 ".//ChibiOS//os/hal/src/serial_usb.c"
  34              		.loc 1 109 37 view -0
  35              		.cfi_startproc
  36              		@ args = 0, pretend = 0, frame = 8
  37              		@ frame_needed = 0, uses_anonymous_args = 0
  38              		.loc 1 109 37 is_stmt 0 view .LVU1
  39 0000 70B5     		push	{r4, r5, r6, lr}
  40              		.cfi_def_cfa_offset 16
  41              		.cfi_offset 4, -16
  42              		.cfi_offset 5, -12
  43              		.cfi_offset 6, -8
  44              		.cfi_offset 14, -4
  45              		.loc 1 111 20 view .LVU2
  46 0002 046A     		ldr	r4, [r0, #32]
  47              		.loc 1 109 37 view .LVU3
  48 0004 2F4B     		ldr	r3, .L13
  49              		.loc 1 115 8 view .LVU4
  50 0006 D4F85422 		ldr	r2, [r4, #596]
  51              		.loc 1 109 37 view .LVU5
  52 000a 82B0     		sub	sp, sp, #8
  53              		.cfi_def_cfa_offset 24
  54              		.loc 1 109 37 view .LVU6
  55 000c 1B68     		ldr	r3, [r3]
  56 000e 0193     		str	r3, [sp, #4]
  57 0010 4FF00003 		mov	r3,#0
ARM GAS  /tmp/ccaKuZVb.s 			page 2


  58              		.loc 1 110 3 is_stmt 1 view .LVU7
  59              		.loc 1 111 3 view .LVU8
  60              	.LVL1:
  61              		.loc 1 115 3 view .LVU9
  62              		.loc 1 115 8 is_stmt 0 view .LVU10
  63 0014 1368     		ldr	r3, [r2]
  64              		.loc 1 115 6 view .LVU11
  65 0016 1978     		ldrb	r1, [r3]	@ zero_extendqisi2
  66 0018 0429     		cmp	r1, #4
  67 001a 02D1     		bne	.L1
  68              		.loc 1 115 62 discriminator 1 view .LVU12
  69 001c 217A     		ldrb	r1, [r4, #8]	@ zero_extendqisi2
  70 001e 0229     		cmp	r1, #2
  71 0020 06D0     		beq	.L11
  72              	.LVL2:
  73              	.L1:
  74              		.loc 1 137 1 view .LVU13
  75 0022 284B     		ldr	r3, .L13
  76 0024 1A68     		ldr	r2, [r3]
  77 0026 019B     		ldr	r3, [sp, #4]
  78 0028 5A40     		eors	r2, r3, r2
  79 002a 49D1     		bne	.L9
  80 002c 02B0     		add	sp, sp, #8
  81              		.cfi_remember_state
  82              		.cfi_def_cfa_offset 16
  83              		@ sp needed
  84 002e 70BD     		pop	{r4, r5, r6, pc}
  85              	.LVL3:
  86              	.L11:
  87              		.cfi_restore_state
  88              		.loc 1 123 3 is_stmt 1 view .LVU14
  89              		.loc 1 123 49 is_stmt 0 view .LVU15
  90 0030 5179     		ldrb	r1, [r2, #5]	@ zero_extendqisi2
  91              	.LVL4:
  92              		.loc 1 124 3 is_stmt 1 view .LVU16
  93              		.loc 1 124 7 is_stmt 0 view .LVU17
  94 0032 5889     		ldrh	r0, [r3, #10]
  95              	.LVL5:
  96              		.loc 1 124 8 view .LVU18
  97 0034 0122     		movs	r2, #1
  98 0036 8A40     		lsls	r2, r2, r1
  99              		.loc 1 124 6 view .LVU19
 100 0038 0242     		tst	r2, r0
 101 003a F2D1     		bne	.L1
 102              		.loc 1 123 36 view .LVU20
 103 003c 03EB8103 		add	r3, r3, r1, lsl #2
 104              	.LVL6:
 105              		.loc 1 123 60 view .LVU21
 106 0040 DB68     		ldr	r3, [r3, #12]
 107              		.loc 1 123 11 view .LVU22
 108 0042 5E8A     		ldrh	r6, [r3, #18]
 109              		.loc 1 125 5 is_stmt 1 view .LVU23
 110              	.LVL7:
 111              	.LBB204:
 112              	.LBI204:
 113              		.file 2 ".//ChibiOS//os/rt/include/chqueues.h"
 114              		.loc 2 286 22 view .LVU24
ARM GAS  /tmp/ccaKuZVb.s 			page 3


 115              	.LBB205:
 116              		.loc 2 288 3 view .LVU25
 117 0044 FFF7FEFF 		bl	chDbgCheckClassI
 118              	.LVL8:
 119              		.loc 2 290 3 view .LVU26
 120              		.loc 2 290 19 is_stmt 0 view .LVU27
 121 0048 D4E90623 		ldrd	r2, r3, [r4, #24]
 122              		.loc 2 290 10 view .LVU28
 123 004c 6569     		ldr	r5, [r4, #20]
 124              		.loc 2 290 19 view .LVU29
 125 004e 9B1A     		subs	r3, r3, r2
 126              		.loc 2 290 10 view .LVU30
 127 0050 5D1B     		subs	r5, r3, r5
 128              	.LVL9:
 129              		.loc 2 290 10 view .LVU31
 130              	.LBE205:
 131              	.LBE204:
 132              		.loc 1 125 8 view .LVU32
 133 0052 AE42     		cmp	r6, r5
 134 0054 E5D8     		bhi	.L1
 135              		.loc 1 126 7 is_stmt 1 view .LVU33
 136              	.LBB206:
 137              	.LBI206:
 138              		.file 3 ".//ChibiOS//os/hal/osal/rt/osal.h"
 139              		.loc 3 456 20 view .LVU34
 140              	.LBE206:
 141              		.loc 3 458 3 view .LVU35
 142              	.LBB217:
 143              	.LBB207:
 144              	.LBI207:
 145              		.file 4 ".//ChibiOS//os/rt/include/chsys.h"
 146              		.loc 4 358 20 view .LVU36
 147              	.LBB208:
 148              		.loc 4 360 3 view .LVU37
 149 0056 FFF7FEFF 		bl	_dbg_check_unlock
 150              	.LVL10:
 151              		.loc 4 361 3 view .LVU38
 152 005a FFF7FEFF 		bl	_stats_stop_measure_crit_thd
 153              	.LVL11:
 154              		.loc 4 367 3 view .LVU39
 155              		.loc 4 367 3 view .LVU40
 156              		.loc 4 367 3 view .LVU41
 157 005e 1A4B     		ldr	r3, .L13+4
 158 0060 1A68     		ldr	r2, [r3]
 159 0062 9A42     		cmp	r2, r3
 160 0064 04D0     		beq	.L5
 161 0066 9969     		ldr	r1, [r3, #24]
 162 0068 9368     		ldr	r3, [r2, #8]
 163 006a 8A68     		ldr	r2, [r1, #8]
 164 006c 9A42     		cmp	r2, r3
 165 006e 23D3     		bcc	.L12
 166              	.L5:
 167              		.loc 4 367 3 view .LVU42
 168              		.loc 4 371 3 view .LVU43
 169              	.LBB209:
 170              	.LBI209:
 171              		.file 5 ".//ChibiOS//os/rt/ports/ARMCMx/chcore_v7m.h"
ARM GAS  /tmp/ccaKuZVb.s 			page 4


 172              		.loc 5 458 20 view .LVU44
 173              	.LBE209:
 174              	.LBE208:
 175              	.LBE207:
 176              	.LBE217:
 177              		.loc 5 461 3 view .LVU45
 178              	.LVL12:
 179              	.LBB218:
 180              	.LBB215:
 181              	.LBB213:
 182              	.LBB212:
 183              	.LBB210:
 184              	.LBI210:
 185              		.file 6 ".//ChibiOS//os/ext/CMSIS/include/core_cmFunc.h"
 186              		.loc 6 544 57 view .LVU46
 187              	.LBB211:
 188              		.loc 6 546 3 view .LVU47
 189 0070 0023     		movs	r3, #0
 190              		.syntax unified
 191              	@ 546 ".//ChibiOS//os/ext/CMSIS/include/core_cmFunc.h" 1
 192 0072 83F31188 		MSR basepri, r3
 193              	@ 0 "" 2
 194              	.LVL13:
 195              		.loc 6 546 3 is_stmt 0 view .LVU48
 196              		.thumb
 197              		.syntax unified
 198              	.LBE211:
 199              	.LBE210:
 200              	.LBE212:
 201              	.LBE213:
 202              	.LBE215:
 203              	.LBE218:
 204              		.loc 1 128 7 is_stmt 1 view .LVU49
 205              		.loc 1 129 7 view .LVU50
 206              		.loc 1 129 35 is_stmt 0 view .LVU51
 207 0076 D4F85422 		ldr	r2, [r4, #596]
 208              		.loc 1 128 14 view .LVU52
 209 007a B5FBF6F3 		udiv	r3, r5, r6
 210              		.loc 1 129 7 view .LVU53
 211 007e 5179     		ldrb	r1, [r2, #5]	@ zero_extendqisi2
 212 0080 1068     		ldr	r0, [r2]
 213 0082 06FB03F3 		mul	r3, r6, r3
 214              	.LVL14:
 215              		.loc 1 129 7 view .LVU54
 216 0086 04F10C02 		add	r2, r4, #12
 217 008a FFF7FEFF 		bl	usbPrepareQueuedReceive
 218              	.LVL15:
 219              		.loc 1 133 7 is_stmt 1 view .LVU55
 220              	.LBB219:
 221              	.LBI219:
 222              		.loc 3 445 20 view .LVU56
 223              	.LBE219:
 224              		.loc 3 447 3 view .LVU57
 225              	.LBB228:
 226              	.LBB220:
 227              	.LBI220:
 228              		.loc 4 346 20 view .LVU58
ARM GAS  /tmp/ccaKuZVb.s 			page 5


 229              	.LBB221:
 230              		.loc 4 348 3 view .LVU59
 231              	.LBB222:
 232              	.LBI222:
 233              		.loc 5 444 20 view .LVU60
 234              	.LBE222:
 235              	.LBE221:
 236              	.LBE220:
 237              	.LBE228:
 238              		.loc 5 447 3 view .LVU61
 239              	.LBB229:
 240              	.LBB227:
 241              	.LBB226:
 242              	.LBB225:
 243              	.LBB223:
 244              	.LBI223:
 245              		.loc 6 544 57 view .LVU62
 246              	.LBB224:
 247              		.loc 6 546 3 view .LVU63
 248 008e 2023     		movs	r3, #32
 249              		.syntax unified
 250              	@ 546 ".//ChibiOS//os/ext/CMSIS/include/core_cmFunc.h" 1
 251 0090 83F31188 		MSR basepri, r3
 252              	@ 0 "" 2
 253              	.LVL16:
 254              		.loc 6 546 3 is_stmt 0 view .LVU64
 255              		.thumb
 256              		.syntax unified
 257              	.LBE224:
 258              	.LBE223:
 259              	.LBE225:
 260              		.loc 4 349 3 is_stmt 1 view .LVU65
 261 0094 FFF7FEFF 		bl	_stats_start_measure_crit_thd
 262              	.LVL17:
 263              		.loc 4 350 3 view .LVU66
 264 0098 FFF7FEFF 		bl	_dbg_check_lock
 265              	.LVL18:
 266              	.LBE226:
 267              	.LBE227:
 268              	.LBE229:
 269              		.loc 1 134 7 view .LVU67
 270              		.loc 1 134 14 is_stmt 0 view .LVU68
 271 009c 094A     		ldr	r2, .L13
 272              		.loc 1 134 35 view .LVU69
 273 009e D4F85432 		ldr	r3, [r4, #596]
 274              		.loc 1 134 14 view .LVU70
 275 00a2 1168     		ldr	r1, [r2]
 276 00a4 019A     		ldr	r2, [sp, #4]
 277 00a6 5140     		eors	r1, r2, r1
 278 00a8 0AD1     		bne	.L9
 279 00aa 5979     		ldrb	r1, [r3, #5]	@ zero_extendqisi2
 280 00ac 1868     		ldr	r0, [r3]
 281              		.loc 1 137 1 view .LVU71
 282 00ae 02B0     		add	sp, sp, #8
 283              		.cfi_remember_state
 284              		.cfi_def_cfa_offset 16
 285              		@ sp needed
ARM GAS  /tmp/ccaKuZVb.s 			page 6


 286 00b0 BDE87040 		pop	{r4, r5, r6, lr}
 287              		.cfi_restore 14
 288              		.cfi_restore 6
 289              		.cfi_restore 5
 290              		.cfi_restore 4
 291              		.cfi_def_cfa_offset 0
 292              	.LVL19:
 293              		.loc 1 134 14 view .LVU72
 294 00b4 FFF7FEBF 		b	usbStartReceiveI
 295              	.LVL20:
 296              	.L12:
 297              		.cfi_restore_state
 298              	.LBB230:
 299              	.LBB216:
 300              	.LBB214:
 301              		.loc 4 367 3 is_stmt 1 view .LVU73
 302 00b8 0448     		ldr	r0, .L13+8
 303 00ba FFF7FEFF 		bl	chSysHalt
 304              	.LVL21:
 305 00be D7E7     		b	.L5
 306              	.LVL22:
 307              	.L9:
 308              		.loc 4 367 3 is_stmt 0 view .LVU74
 309              	.LBE214:
 310              	.LBE216:
 311              	.LBE230:
 312              		.loc 1 137 1 view .LVU75
 313 00c0 FFF7FEFF 		bl	__stack_chk_fail
 314              	.LVL23:
 315              	.L14:
 316              		.align	2
 317              	.L13:
 318 00c4 00000000 		.word	.LC0
 319 00c8 00000000 		.word	ch
 320 00cc 00000000 		.word	.LANCHOR0
 321              		.cfi_endproc
 322              	.LFE264:
 323              		.size	inotify, .-inotify
 324              		.section	.rodata.readt.cst4,"aM",%progbits,4
 325              		.align	2
 326              	.LC1:
 327 0000 00000000 		.word	__stack_chk_guard
 328              		.section	.text.readt,"ax",%progbits
 329              		.align	1
 330              		.p2align 4,,15
 331              		.syntax unified
 332              		.thumb
 333              		.thumb_func
 334              		.fpu fpv4-sp-d16
 335              		.type	readt, %function
 336              	readt:
 337              	.LVL24:
 338              	.LFB263:
 339              		.loc 1 94 73 is_stmt 1 view -0
 340              		.cfi_startproc
 341              		@ args = 0, pretend = 0, frame = 8
 342              		@ frame_needed = 0, uses_anonymous_args = 0
ARM GAS  /tmp/ccaKuZVb.s 			page 7


 343              		.loc 1 94 73 is_stmt 0 view .LVU77
 344 0000 00B5     		push	{lr}
 345              		.cfi_def_cfa_offset 4
 346              		.cfi_offset 14, -4
 347 0002 DFF834C0 		ldr	ip, .L20
 348 0006 83B0     		sub	sp, sp, #12
 349              		.cfi_def_cfa_offset 16
 350              		.loc 1 94 73 view .LVU78
 351 0008 DCF800C0 		ldr	ip, [ip]
 352 000c CDF804C0 		str	ip, [sp, #4]
 353 0010 4FF0000C 		mov	ip,#0
 354              		.loc 1 96 3 is_stmt 1 view .LVU79
 355              		.loc 1 96 10 is_stmt 0 view .LVU80
 356 0014 DFF820C0 		ldr	ip, .L20
 357 0018 DCF800E0 		ldr	lr, [ip]
 358 001c DDF804C0 		ldr	ip, [sp, #4]
 359 0020 9CEA0E0E 		eors	lr, ip, lr
 360 0024 05D1     		bne	.L19
 361 0026 0C30     		adds	r0, r0, #12
 362              	.LVL25:
 363              		.loc 1 97 1 view .LVU81
 364 0028 03B0     		add	sp, sp, #12
 365              		.cfi_remember_state
 366              		.cfi_def_cfa_offset 4
 367              		@ sp needed
 368 002a 5DF804EB 		ldr	lr, [sp], #4
 369              		.cfi_restore 14
 370              		.cfi_def_cfa_offset 0
 371              		.loc 1 96 10 view .LVU82
 372 002e FFF7FEBF 		b	chIQReadTimeout
 373              	.LVL26:
 374              	.L19:
 375              		.cfi_restore_state
 376              		.loc 1 96 10 view .LVU83
 377 0032 FFF7FEFF 		bl	__stack_chk_fail
 378              	.LVL27:
 379              	.L21:
 380              		.loc 1 96 10 view .LVU84
 381 0036 00BF     		.align	2
 382              	.L20:
 383 0038 00000000 		.word	.LC1
 384              		.cfi_endproc
 385              	.LFE263:
 386              		.size	readt, .-readt
 387              		.section	.rodata.read.cst4,"aM",%progbits,4
 388              		.align	2
 389              	.LC2:
 390 0000 00000000 		.word	__stack_chk_guard
 391              		.section	.text.read,"ax",%progbits
 392              		.align	1
 393              		.p2align 4,,15
 394              		.syntax unified
 395              		.thumb
 396              		.thumb_func
 397              		.fpu fpv4-sp-d16
 398              		.type	read, %function
 399              	read:
ARM GAS  /tmp/ccaKuZVb.s 			page 8


 400              	.LVL28:
 401              	.LFB257:
 402              		.loc 1 63 53 is_stmt 1 view -0
 403              		.cfi_startproc
 404              		@ args = 0, pretend = 0, frame = 8
 405              		@ frame_needed = 0, uses_anonymous_args = 0
 406              		.loc 1 63 53 is_stmt 0 view .LVU86
 407 0000 00B5     		push	{lr}
 408              		.cfi_def_cfa_offset 4
 409              		.cfi_offset 14, -4
 410 0002 0B4B     		ldr	r3, .L27
 411 0004 83B0     		sub	sp, sp, #12
 412              		.cfi_def_cfa_offset 16
 413              		.loc 1 63 53 view .LVU87
 414 0006 1B68     		ldr	r3, [r3]
 415 0008 0193     		str	r3, [sp, #4]
 416 000a 4FF00003 		mov	r3,#0
 417              		.loc 1 65 3 is_stmt 1 view .LVU88
 418              		.loc 1 65 10 is_stmt 0 view .LVU89
 419 000e 084B     		ldr	r3, .L27
 420 0010 D3F800C0 		ldr	ip, [r3]
 421 0014 019B     		ldr	r3, [sp, #4]
 422 0016 93EA0C0C 		eors	ip, r3, ip
 423 001a 07D1     		bne	.L26
 424 001c 0C30     		adds	r0, r0, #12
 425              	.LVL29:
 426              		.loc 1 65 10 view .LVU90
 427 001e 4FF0FF33 		mov	r3, #-1
 428              		.loc 1 67 1 view .LVU91
 429 0022 03B0     		add	sp, sp, #12
 430              		.cfi_remember_state
 431              		.cfi_def_cfa_offset 4
 432              		@ sp needed
 433 0024 5DF804EB 		ldr	lr, [sp], #4
 434              		.cfi_restore 14
 435              		.cfi_def_cfa_offset 0
 436              		.loc 1 65 10 view .LVU92
 437 0028 FFF7FEBF 		b	chIQReadTimeout
 438              	.LVL30:
 439              	.L26:
 440              		.cfi_restore_state
 441              		.loc 1 65 10 view .LVU93
 442 002c FFF7FEFF 		bl	__stack_chk_fail
 443              	.LVL31:
 444              	.L28:
 445              		.loc 1 65 10 view .LVU94
 446              		.align	2
 447              	.L27:
 448 0030 00000000 		.word	.LC2
 449              		.cfi_endproc
 450              	.LFE257:
 451              		.size	read, .-read
 452              		.section	.rodata.writet.cst4,"aM",%progbits,4
 453              		.align	2
 454              	.LC3:
 455 0000 00000000 		.word	__stack_chk_guard
 456              		.section	.text.writet,"ax",%progbits
ARM GAS  /tmp/ccaKuZVb.s 			page 9


 457              		.align	1
 458              		.p2align 4,,15
 459              		.syntax unified
 460              		.thumb
 461              		.thumb_func
 462              		.fpu fpv4-sp-d16
 463              		.type	writet, %function
 464              	writet:
 465              	.LVL32:
 466              	.LFB262:
 467              		.loc 1 89 80 is_stmt 1 view -0
 468              		.cfi_startproc
 469              		@ args = 0, pretend = 0, frame = 8
 470              		@ frame_needed = 0, uses_anonymous_args = 0
 471              		.loc 1 89 80 is_stmt 0 view .LVU96
 472 0000 00B5     		push	{lr}
 473              		.cfi_def_cfa_offset 4
 474              		.cfi_offset 14, -4
 475 0002 DFF834C0 		ldr	ip, .L34
 476 0006 83B0     		sub	sp, sp, #12
 477              		.cfi_def_cfa_offset 16
 478              		.loc 1 89 80 view .LVU97
 479 0008 DCF800C0 		ldr	ip, [ip]
 480 000c CDF804C0 		str	ip, [sp, #4]
 481 0010 4FF0000C 		mov	ip,#0
 482              		.loc 1 91 3 is_stmt 1 view .LVU98
 483              		.loc 1 91 10 is_stmt 0 view .LVU99
 484 0014 DFF820C0 		ldr	ip, .L34
 485 0018 DCF800E0 		ldr	lr, [ip]
 486 001c DDF804C0 		ldr	ip, [sp, #4]
 487 0020 9CEA0E0E 		eors	lr, ip, lr
 488 0024 05D1     		bne	.L33
 489 0026 3030     		adds	r0, r0, #48
 490              	.LVL33:
 491              		.loc 1 92 1 view .LVU100
 492 0028 03B0     		add	sp, sp, #12
 493              		.cfi_remember_state
 494              		.cfi_def_cfa_offset 4
 495              		@ sp needed
 496 002a 5DF804EB 		ldr	lr, [sp], #4
 497              		.cfi_restore 14
 498              		.cfi_def_cfa_offset 0
 499              		.loc 1 91 10 view .LVU101
 500 002e FFF7FEBF 		b	chOQWriteTimeout
 501              	.LVL34:
 502              	.L33:
 503              		.cfi_restore_state
 504              		.loc 1 91 10 view .LVU102
 505 0032 FFF7FEFF 		bl	__stack_chk_fail
 506              	.LVL35:
 507              	.L35:
 508              		.loc 1 91 10 view .LVU103
 509 0036 00BF     		.align	2
 510              	.L34:
 511 0038 00000000 		.word	.LC3
 512              		.cfi_endproc
 513              	.LFE262:
ARM GAS  /tmp/ccaKuZVb.s 			page 10


 514              		.size	writet, .-writet
 515              		.section	.rodata.write.cst4,"aM",%progbits,4
 516              		.align	2
 517              	.LC4:
 518 0000 00000000 		.word	__stack_chk_guard
 519              		.section	.text.write,"ax",%progbits
 520              		.align	1
 521              		.p2align 4,,15
 522              		.syntax unified
 523              		.thumb
 524              		.thumb_func
 525              		.fpu fpv4-sp-d16
 526              		.type	write, %function
 527              	write:
 528              	.LVL36:
 529              	.LFB256:
 530              		.loc 1 57 60 is_stmt 1 view -0
 531              		.cfi_startproc
 532              		@ args = 0, pretend = 0, frame = 8
 533              		@ frame_needed = 0, uses_anonymous_args = 0
 534              		.loc 1 57 60 is_stmt 0 view .LVU105
 535 0000 00B5     		push	{lr}
 536              		.cfi_def_cfa_offset 4
 537              		.cfi_offset 14, -4
 538 0002 0B4B     		ldr	r3, .L41
 539 0004 83B0     		sub	sp, sp, #12
 540              		.cfi_def_cfa_offset 16
 541              		.loc 1 57 60 view .LVU106
 542 0006 1B68     		ldr	r3, [r3]
 543 0008 0193     		str	r3, [sp, #4]
 544 000a 4FF00003 		mov	r3,#0
 545              		.loc 1 59 3 is_stmt 1 view .LVU107
 546              		.loc 1 59 10 is_stmt 0 view .LVU108
 547 000e 084B     		ldr	r3, .L41
 548 0010 D3F800C0 		ldr	ip, [r3]
 549 0014 019B     		ldr	r3, [sp, #4]
 550 0016 93EA0C0C 		eors	ip, r3, ip
 551 001a 07D1     		bne	.L40
 552 001c 3030     		adds	r0, r0, #48
 553              	.LVL37:
 554              		.loc 1 59 10 view .LVU109
 555 001e 4FF0FF33 		mov	r3, #-1
 556              		.loc 1 61 1 view .LVU110
 557 0022 03B0     		add	sp, sp, #12
 558              		.cfi_remember_state
 559              		.cfi_def_cfa_offset 4
 560              		@ sp needed
 561 0024 5DF804EB 		ldr	lr, [sp], #4
 562              		.cfi_restore 14
 563              		.cfi_def_cfa_offset 0
 564              		.loc 1 59 10 view .LVU111
 565 0028 FFF7FEBF 		b	chOQWriteTimeout
 566              	.LVL38:
 567              	.L40:
 568              		.cfi_restore_state
 569              		.loc 1 59 10 view .LVU112
 570 002c FFF7FEFF 		bl	__stack_chk_fail
ARM GAS  /tmp/ccaKuZVb.s 			page 11


 571              	.LVL39:
 572              	.L42:
 573              		.loc 1 59 10 view .LVU113
 574              		.align	2
 575              	.L41:
 576 0030 00000000 		.word	.LC4
 577              		.cfi_endproc
 578              	.LFE256:
 579              		.size	write, .-write
 580              		.section	.rodata.gett.cst4,"aM",%progbits,4
 581              		.align	2
 582              	.LC5:
 583 0000 00000000 		.word	__stack_chk_guard
 584              		.section	.text.gett,"ax",%progbits
 585              		.align	1
 586              		.p2align 4,,15
 587              		.syntax unified
 588              		.thumb
 589              		.thumb_func
 590              		.fpu fpv4-sp-d16
 591              		.type	gett, %function
 592              	gett:
 593              	.LVL40:
 594              	.LFB261:
 595              		.loc 1 84 48 is_stmt 1 view -0
 596              		.cfi_startproc
 597              		@ args = 0, pretend = 0, frame = 8
 598              		@ frame_needed = 0, uses_anonymous_args = 0
 599              		.loc 1 84 48 is_stmt 0 view .LVU115
 600 0000 00B5     		push	{lr}
 601              		.cfi_def_cfa_offset 4
 602              		.cfi_offset 14, -4
 603 0002 094B     		ldr	r3, .L48
 604 0004 83B0     		sub	sp, sp, #12
 605              		.cfi_def_cfa_offset 16
 606              		.loc 1 84 48 view .LVU116
 607 0006 1B68     		ldr	r3, [r3]
 608 0008 0193     		str	r3, [sp, #4]
 609 000a 4FF00003 		mov	r3,#0
 610              		.loc 1 86 3 is_stmt 1 view .LVU117
 611              		.loc 1 86 10 is_stmt 0 view .LVU118
 612 000e 064B     		ldr	r3, .L48
 613 0010 1A68     		ldr	r2, [r3]
 614 0012 019B     		ldr	r3, [sp, #4]
 615 0014 5A40     		eors	r2, r3, r2
 616 0016 05D1     		bne	.L47
 617 0018 0C30     		adds	r0, r0, #12
 618              	.LVL41:
 619              		.loc 1 87 1 view .LVU119
 620 001a 03B0     		add	sp, sp, #12
 621              		.cfi_remember_state
 622              		.cfi_def_cfa_offset 4
 623              		@ sp needed
 624 001c 5DF804EB 		ldr	lr, [sp], #4
 625              		.cfi_restore 14
 626              		.cfi_def_cfa_offset 0
 627              		.loc 1 86 10 view .LVU120
ARM GAS  /tmp/ccaKuZVb.s 			page 12


 628 0020 FFF7FEBF 		b	chIQGetTimeout
 629              	.LVL42:
 630              	.L47:
 631              		.cfi_restore_state
 632              		.loc 1 86 10 view .LVU121
 633 0024 FFF7FEFF 		bl	__stack_chk_fail
 634              	.LVL43:
 635              	.L49:
 636              		.loc 1 86 10 view .LVU122
 637              		.align	2
 638              	.L48:
 639 0028 00000000 		.word	.LC5
 640              		.cfi_endproc
 641              	.LFE261:
 642              		.size	gett, .-gett
 643              		.section	.rodata.get.cst4,"aM",%progbits,4
 644              		.align	2
 645              	.LC6:
 646 0000 00000000 		.word	__stack_chk_guard
 647              		.section	.text.get,"ax",%progbits
 648              		.align	1
 649              		.p2align 4,,15
 650              		.syntax unified
 651              		.thumb
 652              		.thumb_func
 653              		.fpu fpv4-sp-d16
 654              		.type	get, %function
 655              	get:
 656              	.LVL44:
 657              	.LFB259:
 658              		.loc 1 74 28 is_stmt 1 view -0
 659              		.cfi_startproc
 660              		@ args = 0, pretend = 0, frame = 8
 661              		@ frame_needed = 0, uses_anonymous_args = 0
 662              		.loc 1 74 28 is_stmt 0 view .LVU124
 663 0000 00B5     		push	{lr}
 664              		.cfi_def_cfa_offset 4
 665              		.cfi_offset 14, -4
 666 0002 0A4B     		ldr	r3, .L55
 667 0004 83B0     		sub	sp, sp, #12
 668              		.cfi_def_cfa_offset 16
 669              		.loc 1 74 28 view .LVU125
 670 0006 1B68     		ldr	r3, [r3]
 671 0008 0193     		str	r3, [sp, #4]
 672 000a 4FF00003 		mov	r3,#0
 673              		.loc 1 76 3 is_stmt 1 view .LVU126
 674              		.loc 1 76 10 is_stmt 0 view .LVU127
 675 000e 074B     		ldr	r3, .L55
 676 0010 1A68     		ldr	r2, [r3]
 677 0012 019B     		ldr	r3, [sp, #4]
 678 0014 5A40     		eors	r2, r3, r2
 679 0016 07D1     		bne	.L54
 680 0018 0C30     		adds	r0, r0, #12
 681              	.LVL45:
 682              		.loc 1 76 10 view .LVU128
 683 001a 4FF0FF31 		mov	r1, #-1
 684              		.loc 1 77 1 view .LVU129
ARM GAS  /tmp/ccaKuZVb.s 			page 13


 685 001e 03B0     		add	sp, sp, #12
 686              		.cfi_remember_state
 687              		.cfi_def_cfa_offset 4
 688              		@ sp needed
 689 0020 5DF804EB 		ldr	lr, [sp], #4
 690              		.cfi_restore 14
 691              		.cfi_def_cfa_offset 0
 692              		.loc 1 76 10 view .LVU130
 693 0024 FFF7FEBF 		b	chIQGetTimeout
 694              	.LVL46:
 695              	.L54:
 696              		.cfi_restore_state
 697              		.loc 1 76 10 view .LVU131
 698 0028 FFF7FEFF 		bl	__stack_chk_fail
 699              	.LVL47:
 700              	.L56:
 701              		.loc 1 76 10 view .LVU132
 702              		.align	2
 703              	.L55:
 704 002c 00000000 		.word	.LC6
 705              		.cfi_endproc
 706              	.LFE259:
 707              		.size	get, .-get
 708              		.section	.rodata.putt.cst4,"aM",%progbits,4
 709              		.align	2
 710              	.LC7:
 711 0000 00000000 		.word	__stack_chk_guard
 712              		.section	.text.putt,"ax",%progbits
 713              		.align	1
 714              		.p2align 4,,15
 715              		.syntax unified
 716              		.thumb
 717              		.thumb_func
 718              		.fpu fpv4-sp-d16
 719              		.type	putt, %function
 720              	putt:
 721              	.LVL48:
 722              	.LFB260:
 723              		.loc 1 79 59 is_stmt 1 view -0
 724              		.cfi_startproc
 725              		@ args = 0, pretend = 0, frame = 8
 726              		@ frame_needed = 0, uses_anonymous_args = 0
 727              		.loc 1 79 59 is_stmt 0 view .LVU134
 728 0000 00B5     		push	{lr}
 729              		.cfi_def_cfa_offset 4
 730              		.cfi_offset 14, -4
 731 0002 0A4B     		ldr	r3, .L62
 732 0004 83B0     		sub	sp, sp, #12
 733              		.cfi_def_cfa_offset 16
 734              		.loc 1 79 59 view .LVU135
 735 0006 1B68     		ldr	r3, [r3]
 736 0008 0193     		str	r3, [sp, #4]
 737 000a 4FF00003 		mov	r3,#0
 738              		.loc 1 81 3 is_stmt 1 view .LVU136
 739              		.loc 1 81 10 is_stmt 0 view .LVU137
 740 000e 074B     		ldr	r3, .L62
 741 0010 D3F800C0 		ldr	ip, [r3]
ARM GAS  /tmp/ccaKuZVb.s 			page 14


 742 0014 019B     		ldr	r3, [sp, #4]
 743 0016 93EA0C0C 		eors	ip, r3, ip
 744 001a 05D1     		bne	.L61
 745 001c 3030     		adds	r0, r0, #48
 746              	.LVL49:
 747              		.loc 1 82 1 view .LVU138
 748 001e 03B0     		add	sp, sp, #12
 749              		.cfi_remember_state
 750              		.cfi_def_cfa_offset 4
 751              		@ sp needed
 752 0020 5DF804EB 		ldr	lr, [sp], #4
 753              		.cfi_restore 14
 754              		.cfi_def_cfa_offset 0
 755              		.loc 1 81 10 view .LVU139
 756 0024 FFF7FEBF 		b	chOQPutTimeout
 757              	.LVL50:
 758              	.L61:
 759              		.cfi_restore_state
 760              		.loc 1 81 10 view .LVU140
 761 0028 FFF7FEFF 		bl	__stack_chk_fail
 762              	.LVL51:
 763              	.L63:
 764              		.loc 1 81 10 view .LVU141
 765              		.align	2
 766              	.L62:
 767 002c 00000000 		.word	.LC7
 768              		.cfi_endproc
 769              	.LFE260:
 770              		.size	putt, .-putt
 771              		.section	.rodata.put.cst4,"aM",%progbits,4
 772              		.align	2
 773              	.LC8:
 774 0000 00000000 		.word	__stack_chk_guard
 775              		.section	.text.put,"ax",%progbits
 776              		.align	1
 777              		.p2align 4,,15
 778              		.syntax unified
 779              		.thumb
 780              		.thumb_func
 781              		.fpu fpv4-sp-d16
 782              		.type	put, %function
 783              	put:
 784              	.LVL52:
 785              	.LFB258:
 786              		.loc 1 69 39 is_stmt 1 view -0
 787              		.cfi_startproc
 788              		@ args = 0, pretend = 0, frame = 8
 789              		@ frame_needed = 0, uses_anonymous_args = 0
 790              		.loc 1 69 39 is_stmt 0 view .LVU143
 791 0000 00B5     		push	{lr}
 792              		.cfi_def_cfa_offset 4
 793              		.cfi_offset 14, -4
 794 0002 0A4B     		ldr	r3, .L69
 795 0004 83B0     		sub	sp, sp, #12
 796              		.cfi_def_cfa_offset 16
 797              		.loc 1 69 39 view .LVU144
 798 0006 1B68     		ldr	r3, [r3]
ARM GAS  /tmp/ccaKuZVb.s 			page 15


 799 0008 0193     		str	r3, [sp, #4]
 800 000a 4FF00003 		mov	r3,#0
 801              		.loc 1 71 3 is_stmt 1 view .LVU145
 802              		.loc 1 71 10 is_stmt 0 view .LVU146
 803 000e 074B     		ldr	r3, .L69
 804 0010 1A68     		ldr	r2, [r3]
 805 0012 019B     		ldr	r3, [sp, #4]
 806 0014 5A40     		eors	r2, r3, r2
 807 0016 07D1     		bne	.L68
 808 0018 3030     		adds	r0, r0, #48
 809              	.LVL53:
 810              		.loc 1 71 10 view .LVU147
 811 001a 4FF0FF32 		mov	r2, #-1
 812              		.loc 1 72 1 view .LVU148
 813 001e 03B0     		add	sp, sp, #12
 814              		.cfi_remember_state
 815              		.cfi_def_cfa_offset 4
 816              		@ sp needed
 817 0020 5DF804EB 		ldr	lr, [sp], #4
 818              		.cfi_restore 14
 819              		.cfi_def_cfa_offset 0
 820              		.loc 1 71 10 view .LVU149
 821 0024 FFF7FEBF 		b	chOQPutTimeout
 822              	.LVL54:
 823              	.L68:
 824              		.cfi_restore_state
 825              		.loc 1 71 10 view .LVU150
 826 0028 FFF7FEFF 		bl	__stack_chk_fail
 827              	.LVL55:
 828              	.L70:
 829              		.loc 1 71 10 view .LVU151
 830              		.align	2
 831              	.L69:
 832 002c 00000000 		.word	.LC8
 833              		.cfi_endproc
 834              	.LFE258:
 835              		.size	put, .-put
 836              		.section	.rodata.onotify.cst4,"aM",%progbits,4
 837              		.align	2
 838              	.LC9:
 839 0000 00000000 		.word	__stack_chk_guard
 840              		.section	.text.onotify,"ax",%progbits
 841              		.align	1
 842              		.p2align 4,,15
 843              		.syntax unified
 844              		.thumb
 845              		.thumb_func
 846              		.fpu fpv4-sp-d16
 847              		.type	onotify, %function
 848              	onotify:
 849              	.LVL56:
 850              	.LFB265:
 851              		.loc 1 144 37 is_stmt 1 view -0
 852              		.cfi_startproc
 853              		@ args = 0, pretend = 0, frame = 8
 854              		@ frame_needed = 0, uses_anonymous_args = 0
 855              		.loc 1 144 37 is_stmt 0 view .LVU153
ARM GAS  /tmp/ccaKuZVb.s 			page 16


 856 0000 30B5     		push	{r4, r5, lr}
 857              		.cfi_def_cfa_offset 12
 858              		.cfi_offset 4, -12
 859              		.cfi_offset 5, -8
 860              		.cfi_offset 14, -4
 861              		.loc 1 146 20 view .LVU154
 862 0002 046A     		ldr	r4, [r0, #32]
 863              		.loc 1 144 37 view .LVU155
 864 0004 2B4B     		ldr	r3, .L85
 865              		.loc 1 150 8 view .LVU156
 866 0006 D4F85422 		ldr	r2, [r4, #596]
 867              		.loc 1 144 37 view .LVU157
 868 000a 83B0     		sub	sp, sp, #12
 869              		.cfi_def_cfa_offset 24
 870              		.loc 1 144 37 view .LVU158
 871 000c 1B68     		ldr	r3, [r3]
 872 000e 0193     		str	r3, [sp, #4]
 873 0010 4FF00003 		mov	r3,#0
 874              		.loc 1 145 3 is_stmt 1 view .LVU159
 875              		.loc 1 146 3 view .LVU160
 876              	.LVL57:
 877              		.loc 1 150 3 view .LVU161
 878              		.loc 1 150 8 is_stmt 0 view .LVU162
 879 0014 1368     		ldr	r3, [r2]
 880              		.loc 1 150 6 view .LVU163
 881 0016 1978     		ldrb	r1, [r3]	@ zero_extendqisi2
 882 0018 0429     		cmp	r1, #4
 883 001a 02D1     		bne	.L71
 884              		.loc 1 150 62 discriminator 1 view .LVU164
 885 001c 217A     		ldrb	r1, [r4, #8]	@ zero_extendqisi2
 886 001e 0229     		cmp	r1, #2
 887 0020 06D0     		beq	.L83
 888              	.LVL58:
 889              	.L71:
 890              		.loc 1 169 1 view .LVU165
 891 0022 244B     		ldr	r3, .L85
 892 0024 1A68     		ldr	r2, [r3]
 893 0026 019B     		ldr	r3, [sp, #4]
 894 0028 5A40     		eors	r2, r3, r2
 895 002a 41D1     		bne	.L82
 896 002c 03B0     		add	sp, sp, #12
 897              		.cfi_remember_state
 898              		.cfi_def_cfa_offset 12
 899              		@ sp needed
 900 002e 30BD     		pop	{r4, r5, pc}
 901              	.LVL59:
 902              	.L83:
 903              		.cfi_restore_state
 904              		.loc 1 157 3 is_stmt 1 view .LVU166
 905              		.loc 1 157 8 is_stmt 0 view .LVU167
 906 0030 1179     		ldrb	r1, [r2, #4]	@ zero_extendqisi2
 907              		.loc 1 157 7 view .LVU168
 908 0032 1A89     		ldrh	r2, [r3, #8]
 909              		.loc 1 157 8 view .LVU169
 910 0034 0123     		movs	r3, #1
 911 0036 8B40     		lsls	r3, r3, r1
 912              		.loc 1 157 6 view .LVU170
ARM GAS  /tmp/ccaKuZVb.s 			page 17


 913 0038 1342     		tst	r3, r2
 914 003a F2D1     		bne	.L71
 915              		.loc 1 158 5 is_stmt 1 view .LVU171
 916              	.LVL60:
 917              	.LBB246:
 918              	.LBI246:
 919              		.loc 2 353 22 view .LVU172
 920              	.LBB247:
 921              		.loc 2 355 3 view .LVU173
 922 003c FFF7FEFF 		bl	chDbgCheckClassI
 923              	.LVL61:
 924              		.loc 2 357 3 view .LVU174
 925              		.loc 2 357 19 is_stmt 0 view .LVU175
 926 0040 D4E90F23 		ldrd	r2, r3, [r4, #60]
 927              		.loc 2 357 10 view .LVU176
 928 0044 A56B     		ldr	r5, [r4, #56]
 929              		.loc 2 357 19 view .LVU177
 930 0046 9B1A     		subs	r3, r3, r2
 931              	.LVL62:
 932              		.loc 2 357 19 view .LVU178
 933              	.LBE247:
 934              	.LBE246:
 935              		.loc 1 158 8 view .LVU179
 936 0048 5D1B     		subs	r5, r3, r5
 937              	.LVL63:
 938              		.loc 1 158 8 view .LVU180
 939 004a EAD0     		beq	.L71
 940              		.loc 1 159 7 is_stmt 1 view .LVU181
 941              	.LBB248:
 942              	.LBI248:
 943              		.loc 3 456 20 view .LVU182
 944              	.LBE248:
 945              		.loc 3 458 3 view .LVU183
 946              	.LBB259:
 947              	.LBB249:
 948              	.LBI249:
 949              		.loc 4 358 20 view .LVU184
 950              	.LBB250:
 951              		.loc 4 360 3 view .LVU185
 952 004c FFF7FEFF 		bl	_dbg_check_unlock
 953              	.LVL64:
 954              		.loc 4 361 3 view .LVU186
 955 0050 FFF7FEFF 		bl	_stats_stop_measure_crit_thd
 956              	.LVL65:
 957              		.loc 4 367 3 view .LVU187
 958              		.loc 4 367 3 view .LVU188
 959              		.loc 4 367 3 view .LVU189
 960 0054 184B     		ldr	r3, .L85+4
 961 0056 1A68     		ldr	r2, [r3]
 962 0058 9A42     		cmp	r2, r3
 963 005a 04D0     		beq	.L75
 964 005c 9969     		ldr	r1, [r3, #24]
 965 005e 9368     		ldr	r3, [r2, #8]
 966 0060 8A68     		ldr	r2, [r1, #8]
 967 0062 9A42     		cmp	r2, r3
 968 0064 20D3     		bcc	.L84
 969              	.L75:
ARM GAS  /tmp/ccaKuZVb.s 			page 18


 970              		.loc 4 367 3 view .LVU190
 971              		.loc 4 371 3 view .LVU191
 972              	.LBB251:
 973              	.LBI251:
 974              		.loc 5 458 20 view .LVU192
 975              	.LBE251:
 976              	.LBE250:
 977              	.LBE249:
 978              	.LBE259:
 979              		.loc 5 461 3 view .LVU193
 980              	.LVL66:
 981              	.LBB260:
 982              	.LBB257:
 983              	.LBB255:
 984              	.LBB254:
 985              	.LBB252:
 986              	.LBI252:
 987              		.loc 6 544 57 view .LVU194
 988              	.LBB253:
 989              		.loc 6 546 3 view .LVU195
 990 0066 0023     		movs	r3, #0
 991              		.syntax unified
 992              	@ 546 ".//ChibiOS//os/ext/CMSIS/include/core_cmFunc.h" 1
 993 0068 83F31188 		MSR basepri, r3
 994              	@ 0 "" 2
 995              	.LVL67:
 996              		.loc 6 546 3 is_stmt 0 view .LVU196
 997              		.thumb
 998              		.syntax unified
 999              	.LBE253:
 1000              	.LBE252:
 1001              	.LBE254:
 1002              	.LBE255:
 1003              	.LBE257:
 1004              	.LBE260:
 1005              		.loc 1 161 7 is_stmt 1 view .LVU197
 1006              		.loc 1 161 36 is_stmt 0 view .LVU198
 1007 006c D4F85422 		ldr	r2, [r4, #596]
 1008              		.loc 1 161 7 view .LVU199
 1009 0070 2B46     		mov	r3, r5
 1010 0072 1179     		ldrb	r1, [r2, #4]	@ zero_extendqisi2
 1011 0074 1068     		ldr	r0, [r2]
 1012 0076 04F13002 		add	r2, r4, #48
 1013 007a FFF7FEFF 		bl	usbPrepareQueuedTransmit
 1014              	.LVL68:
 1015              		.loc 1 165 7 is_stmt 1 view .LVU200
 1016              	.LBB261:
 1017              	.LBI261:
 1018              		.loc 3 445 20 view .LVU201
 1019              	.LBE261:
 1020              		.loc 3 447 3 view .LVU202
 1021              	.LBB270:
 1022              	.LBB262:
 1023              	.LBI262:
 1024              		.loc 4 346 20 view .LVU203
 1025              	.LBB263:
 1026              		.loc 4 348 3 view .LVU204
ARM GAS  /tmp/ccaKuZVb.s 			page 19


 1027              	.LBB264:
 1028              	.LBI264:
 1029              		.loc 5 444 20 view .LVU205
 1030              	.LBE264:
 1031              	.LBE263:
 1032              	.LBE262:
 1033              	.LBE270:
 1034              		.loc 5 447 3 view .LVU206
 1035              	.LBB271:
 1036              	.LBB269:
 1037              	.LBB268:
 1038              	.LBB267:
 1039              	.LBB265:
 1040              	.LBI265:
 1041              		.loc 6 544 57 view .LVU207
 1042              	.LBB266:
 1043              		.loc 6 546 3 view .LVU208
 1044 007e 2023     		movs	r3, #32
 1045              		.syntax unified
 1046              	@ 546 ".//ChibiOS//os/ext/CMSIS/include/core_cmFunc.h" 1
 1047 0080 83F31188 		MSR basepri, r3
 1048              	@ 0 "" 2
 1049              	.LVL69:
 1050              		.loc 6 546 3 is_stmt 0 view .LVU209
 1051              		.thumb
 1052              		.syntax unified
 1053              	.LBE266:
 1054              	.LBE265:
 1055              	.LBE267:
 1056              		.loc 4 349 3 is_stmt 1 view .LVU210
 1057 0084 FFF7FEFF 		bl	_stats_start_measure_crit_thd
 1058              	.LVL70:
 1059              		.loc 4 350 3 view .LVU211
 1060 0088 FFF7FEFF 		bl	_dbg_check_lock
 1061              	.LVL71:
 1062              	.LBE268:
 1063              	.LBE269:
 1064              	.LBE271:
 1065              		.loc 1 166 7 view .LVU212
 1066              		.loc 1 166 14 is_stmt 0 view .LVU213
 1067 008c 094A     		ldr	r2, .L85
 1068              		.loc 1 166 36 view .LVU214
 1069 008e D4F85432 		ldr	r3, [r4, #596]
 1070              		.loc 1 166 14 view .LVU215
 1071 0092 1168     		ldr	r1, [r2]
 1072 0094 019A     		ldr	r2, [sp, #4]
 1073 0096 5140     		eors	r1, r2, r1
 1074 0098 0AD1     		bne	.L82
 1075 009a 1979     		ldrb	r1, [r3, #4]	@ zero_extendqisi2
 1076 009c 1868     		ldr	r0, [r3]
 1077              		.loc 1 169 1 view .LVU216
 1078 009e 03B0     		add	sp, sp, #12
 1079              		.cfi_remember_state
 1080              		.cfi_def_cfa_offset 12
 1081              		@ sp needed
 1082 00a0 BDE83040 		pop	{r4, r5, lr}
 1083              		.cfi_restore 14
ARM GAS  /tmp/ccaKuZVb.s 			page 20


 1084              		.cfi_restore 5
 1085              		.cfi_restore 4
 1086              		.cfi_def_cfa_offset 0
 1087              	.LVL72:
 1088              		.loc 1 166 14 view .LVU217
 1089 00a4 FFF7FEBF 		b	usbStartTransmitI
 1090              	.LVL73:
 1091              	.L84:
 1092              		.cfi_restore_state
 1093              	.LBB272:
 1094              	.LBB258:
 1095              	.LBB256:
 1096              		.loc 4 367 3 is_stmt 1 view .LVU218
 1097 00a8 0448     		ldr	r0, .L85+8
 1098 00aa FFF7FEFF 		bl	chSysHalt
 1099              	.LVL74:
 1100 00ae DAE7     		b	.L75
 1101              	.LVL75:
 1102              	.L82:
 1103              		.loc 4 367 3 is_stmt 0 view .LVU219
 1104              	.LBE256:
 1105              	.LBE258:
 1106              	.LBE272:
 1107              		.loc 1 169 1 view .LVU220
 1108 00b0 FFF7FEFF 		bl	__stack_chk_fail
 1109              	.LVL76:
 1110              	.L86:
 1111              		.align	2
 1112              	.L85:
 1113 00b4 00000000 		.word	.LC9
 1114 00b8 00000000 		.word	ch
 1115 00bc 00000000 		.word	.LANCHOR0
 1116              		.cfi_endproc
 1117              	.LFE265:
 1118              		.size	onotify, .-onotify
 1119              		.section	.rodata.sduInit.cst4,"aM",%progbits,4
 1120              		.align	2
 1121              	.LC10:
 1122 0000 00000000 		.word	__stack_chk_guard
 1123              		.section	.text.sduInit,"ax",%progbits
 1124              		.align	1
 1125              		.p2align 4,,15
 1126              		.global	sduInit
 1127              		.syntax unified
 1128              		.thumb
 1129              		.thumb_func
 1130              		.fpu fpv4-sp-d16
 1131              		.type	sduInit, %function
 1132              	sduInit:
 1133              	.LFB266:
 1134              		.loc 1 182 20 is_stmt 1 view -0
 1135              		.cfi_startproc
 1136              		@ args = 0, pretend = 0, frame = 8
 1137              		@ frame_needed = 0, uses_anonymous_args = 0
 1138 0000 00B5     		push	{lr}
 1139              		.cfi_def_cfa_offset 4
 1140              		.cfi_offset 14, -4
ARM GAS  /tmp/ccaKuZVb.s 			page 21


 1141 0002 084B     		ldr	r3, .L91
 1142 0004 83B0     		sub	sp, sp, #12
 1143              		.cfi_def_cfa_offset 16
 1144              		.loc 1 182 20 is_stmt 0 view .LVU222
 1145 0006 1B68     		ldr	r3, [r3]
 1146 0008 0193     		str	r3, [sp, #4]
 1147 000a 4FF00003 		mov	r3,#0
 1148              		.loc 1 183 1 is_stmt 1 view .LVU223
 1149 000e 054B     		ldr	r3, .L91
 1150 0010 1A68     		ldr	r2, [r3]
 1151 0012 019B     		ldr	r3, [sp, #4]
 1152 0014 5A40     		eors	r2, r3, r2
 1153 0016 02D1     		bne	.L90
 1154 0018 03B0     		add	sp, sp, #12
 1155              		.cfi_remember_state
 1156              		.cfi_def_cfa_offset 4
 1157              		@ sp needed
 1158 001a 5DF804FB 		ldr	pc, [sp], #4
 1159              	.L90:
 1160              		.cfi_restore_state
 1161 001e FFF7FEFF 		bl	__stack_chk_fail
 1162              	.LVL77:
 1163              	.L92:
 1164 0022 00BF     		.align	2
 1165              	.L91:
 1166 0024 00000000 		.word	.LC10
 1167              		.cfi_endproc
 1168              	.LFE266:
 1169              		.size	sduInit, .-sduInit
 1170              		.section	.rodata.sduObjectInit.cst4,"aM",%progbits,4
 1171              		.align	2
 1172              	.LC11:
 1173 0000 00000000 		.word	__stack_chk_guard
 1174              		.section	.text.sduObjectInit,"ax",%progbits
 1175              		.align	1
 1176              		.p2align 4,,15
 1177              		.global	sduObjectInit
 1178              		.syntax unified
 1179              		.thumb
 1180              		.thumb_func
 1181              		.fpu fpv4-sp-d16
 1182              		.type	sduObjectInit, %function
 1183              	sduObjectInit:
 1184              	.LVL78:
 1185              	.LFB267:
 1186              		.loc 1 194 43 view -0
 1187              		.cfi_startproc
 1188              		@ args = 0, pretend = 0, frame = 8
 1189              		@ frame_needed = 0, uses_anonymous_args = 0
 1190              		.loc 1 194 43 is_stmt 0 view .LVU225
 1191 0000 10B5     		push	{r4, lr}
 1192              		.cfi_def_cfa_offset 8
 1193              		.cfi_offset 4, -8
 1194              		.cfi_offset 14, -4
 1195              		.loc 1 196 13 view .LVU226
 1196 0002 0346     		mov	r3, r0
 1197              		.loc 1 194 43 view .LVU227
ARM GAS  /tmp/ccaKuZVb.s 			page 22


 1198 0004 1449     		ldr	r1, .L97
 1199              		.loc 1 196 13 view .LVU228
 1200 0006 154A     		ldr	r2, .L97+4
 1201              		.loc 1 194 43 view .LVU229
 1202 0008 84B0     		sub	sp, sp, #16
 1203              		.cfi_def_cfa_offset 24
 1204              		.loc 1 194 43 view .LVU230
 1205 000a 0968     		ldr	r1, [r1]
 1206 000c 0391     		str	r1, [sp, #12]
 1207 000e 4FF00001 		mov	r1,#0
 1208              		.loc 1 196 3 is_stmt 1 view .LVU231
 1209              		.loc 1 196 13 is_stmt 0 view .LVU232
 1210 0012 43F8042B 		str	r2, [r3], #4
 1211              		.loc 1 197 3 is_stmt 1 view .LVU233
 1212              	.LVL79:
 1213              	.LBB273:
 1214              	.LBI273:
 1215              		.loc 3 775 20 view .LVU234
 1216              	.LBE273:
 1217              		.loc 3 777 3 view .LVU235
 1218              	.LBB278:
 1219              	.LBB274:
 1220              	.LBI274:
 1221              		.file 7 ".//ChibiOS//os/rt/include/chevents.h"
 1222              		.loc 7 170 20 view .LVU236
 1223              	.LBB275:
 1224              		.loc 7 172 3 view .LVU237
 1225              	.LBE275:
 1226              	.LBE274:
 1227              	.LBE278:
 1228              		.loc 1 198 15 is_stmt 0 view .LVU238
 1229 0016 0122     		movs	r2, #1
 1230              		.loc 1 194 43 view .LVU239
 1231 0018 0446     		mov	r4, r0
 1232              		.loc 1 199 3 view .LVU240
 1233 001a 0090     		str	r0, [sp]
 1234 001c 00F15401 		add	r1, r0, #84
 1235              	.LBB279:
 1236              	.LBB277:
 1237              	.LBB276:
 1238              		.loc 7 172 16 view .LVU241
 1239 0020 4360     		str	r3, [r0, #4]
 1240              	.LVL80:
 1241              		.loc 7 172 16 view .LVU242
 1242              	.LBE276:
 1243              	.LBE277:
 1244              	.LBE279:
 1245              		.loc 1 198 3 is_stmt 1 view .LVU243
 1246              		.loc 1 198 15 is_stmt 0 view .LVU244
 1247 0022 0272     		strb	r2, [r0, #8]
 1248              		.loc 1 199 3 is_stmt 1 view .LVU245
 1249 0024 0E4B     		ldr	r3, .L97+8
 1250 0026 0C30     		adds	r0, r0, #12
 1251              	.LVL81:
 1252              		.loc 1 199 3 is_stmt 0 view .LVU246
 1253 0028 4FF48072 		mov	r2, #256
 1254 002c FFF7FEFF 		bl	chIQObjectInit
ARM GAS  /tmp/ccaKuZVb.s 			page 23


 1255              	.LVL82:
 1256              		.loc 1 200 3 is_stmt 1 view .LVU247
 1257 0030 0C4B     		ldr	r3, .L97+12
 1258 0032 0094     		str	r4, [sp]
 1259 0034 4FF48072 		mov	r2, #256
 1260 0038 04F5AA71 		add	r1, r4, #340
 1261 003c 04F13000 		add	r0, r4, #48
 1262 0040 FFF7FEFF 		bl	chOQObjectInit
 1263              	.LVL83:
 1264              		.loc 1 201 1 is_stmt 0 view .LVU248
 1265 0044 044B     		ldr	r3, .L97
 1266 0046 1A68     		ldr	r2, [r3]
 1267 0048 039B     		ldr	r3, [sp, #12]
 1268 004a 5A40     		eors	r2, r3, r2
 1269 004c 01D1     		bne	.L96
 1270 004e 04B0     		add	sp, sp, #16
 1271              		.cfi_remember_state
 1272              		.cfi_def_cfa_offset 8
 1273              		@ sp needed
 1274 0050 10BD     		pop	{r4, pc}
 1275              	.LVL84:
 1276              	.L96:
 1277              		.cfi_restore_state
 1278              		.loc 1 201 1 view .LVU249
 1279 0052 FFF7FEFF 		bl	__stack_chk_fail
 1280              	.LVL85:
 1281              	.L98:
 1282 0056 00BF     		.align	2
 1283              	.L97:
 1284 0058 00000000 		.word	.LC11
 1285 005c 00000000 		.word	.LANCHOR1
 1286 0060 00000000 		.word	inotify
 1287 0064 00000000 		.word	onotify
 1288              		.cfi_endproc
 1289              	.LFE267:
 1290              		.size	sduObjectInit, .-sduObjectInit
 1291              		.section	.rodata.sduStart.cst4,"aM",%progbits,4
 1292              		.align	2
 1293              	.LC12:
 1294 0000 00000000 		.word	__stack_chk_guard
 1295              		.section	.text.sduStart,"ax",%progbits
 1296              		.align	1
 1297              		.p2align 4,,15
 1298              		.global	sduStart
 1299              		.syntax unified
 1300              		.thumb
 1301              		.thumb_func
 1302              		.fpu fpv4-sp-d16
 1303              		.type	sduStart, %function
 1304              	sduStart:
 1305              	.LVL86:
 1306              	.LFB268:
 1307              		.loc 1 211 69 is_stmt 1 view -0
 1308              		.cfi_startproc
 1309              		@ args = 0, pretend = 0, frame = 8
 1310              		@ frame_needed = 0, uses_anonymous_args = 0
 1311              		.loc 1 211 69 is_stmt 0 view .LVU251
ARM GAS  /tmp/ccaKuZVb.s 			page 24


 1312 0000 70B5     		push	{r4, r5, r6, lr}
 1313              		.cfi_def_cfa_offset 16
 1314              		.cfi_offset 4, -16
 1315              		.cfi_offset 5, -12
 1316              		.cfi_offset 6, -8
 1317              		.cfi_offset 14, -4
 1318 0002 254B     		ldr	r3, .L112
 1319              		.loc 1 212 14 view .LVU252
 1320 0004 0E68     		ldr	r6, [r1]
 1321              		.loc 1 211 69 view .LVU253
 1322 0006 82B0     		sub	sp, sp, #8
 1323              		.cfi_def_cfa_offset 24
 1324              		.loc 1 211 69 view .LVU254
 1325 0008 0D46     		mov	r5, r1
 1326 000a 1B68     		ldr	r3, [r3]
 1327 000c 0193     		str	r3, [sp, #4]
 1328 000e 4FF00003 		mov	r3,#0
 1329              		.loc 1 212 3 is_stmt 1 view .LVU255
 1330              	.LVL87:
 1331              		.loc 1 214 3 view .LVU256
 1332              		.loc 1 214 3 view .LVU257
 1333              		.loc 1 214 3 view .LVU258
 1334 0012 0446     		mov	r4, r0
 1335 0014 0028     		cmp	r0, #0
 1336 0016 39D0     		beq	.L109
 1337              	.LVL88:
 1338              	.L100:
 1339              		.loc 1 214 3 discriminator 5 view .LVU259
 1340              		.loc 1 216 3 discriminator 5 view .LVU260
 1341              	.LBB293:
 1342              	.LBI293:
 1343              		.loc 3 445 20 discriminator 5 view .LVU261
 1344              	.LBE293:
 1345              		.loc 3 447 3 discriminator 5 view .LVU262
 1346              	.LBB302:
 1347              	.LBB294:
 1348              	.LBI294:
 1349              		.loc 4 346 20 discriminator 5 view .LVU263
 1350              	.LBB295:
 1351              		.loc 4 348 3 discriminator 5 view .LVU264
 1352              	.LBB296:
 1353              	.LBI296:
 1354              		.loc 5 444 20 discriminator 5 view .LVU265
 1355              	.LBE296:
 1356              	.LBE295:
 1357              	.LBE294:
 1358              	.LBE302:
 1359              		.loc 5 447 3 discriminator 5 view .LVU266
 1360              	.LBB303:
 1361              	.LBB301:
 1362              	.LBB300:
 1363              	.LBB299:
 1364              	.LBB297:
 1365              	.LBI297:
 1366              		.loc 6 544 57 discriminator 5 view .LVU267
 1367              	.LBB298:
 1368              		.loc 6 546 3 discriminator 5 view .LVU268
ARM GAS  /tmp/ccaKuZVb.s 			page 25


 1369 0018 2023     		movs	r3, #32
 1370              		.syntax unified
 1371              	@ 546 ".//ChibiOS//os/ext/CMSIS/include/core_cmFunc.h" 1
 1372 001a 83F31188 		MSR basepri, r3
 1373              	@ 0 "" 2
 1374              	.LVL89:
 1375              		.loc 6 546 3 is_stmt 0 discriminator 5 view .LVU269
 1376              		.thumb
 1377              		.syntax unified
 1378              	.LBE298:
 1379              	.LBE297:
 1380              	.LBE299:
 1381              		.loc 4 349 3 is_stmt 1 discriminator 5 view .LVU270
 1382 001e FFF7FEFF 		bl	_stats_start_measure_crit_thd
 1383              	.LVL90:
 1384              		.loc 4 350 3 discriminator 5 view .LVU271
 1385 0022 FFF7FEFF 		bl	_dbg_check_lock
 1386              	.LVL91:
 1387              	.LBE300:
 1388              	.LBE301:
 1389              	.LBE303:
 1390              		.loc 1 217 3 discriminator 5 view .LVU272
 1391              		.loc 1 217 3 discriminator 5 view .LVU273
 1392              		.loc 1 217 3 discriminator 5 view .LVU274
 1393 0026 237A     		ldrb	r3, [r4, #8]	@ zero_extendqisi2
 1394 0028 013B     		subs	r3, r3, #1
 1395 002a 012B     		cmp	r3, #1
 1396 002c 02D9     		bls	.L101
 1397              		.loc 1 217 3 discriminator 3 view .LVU275
 1398 002e 1B48     		ldr	r0, .L112+4
 1399 0030 FFF7FEFF 		bl	chSysHalt
 1400              	.LVL92:
 1401              	.L101:
 1402              		.loc 1 217 3 discriminator 5 view .LVU276
 1403              		.loc 1 219 3 discriminator 5 view .LVU277
 1404              		.loc 1 219 25 is_stmt 0 discriminator 5 view .LVU278
 1405 0034 2B79     		ldrb	r3, [r5, #4]	@ zero_extendqisi2
 1406              		.loc 1 219 43 discriminator 5 view .LVU279
 1407 0036 06EB8303 		add	r3, r6, r3, lsl #2
 1408 003a 9C61     		str	r4, [r3, #24]
 1409              		.loc 1 220 3 is_stmt 1 discriminator 5 view .LVU280
 1410              		.loc 1 220 26 is_stmt 0 discriminator 5 view .LVU281
 1411 003c 6B79     		ldrb	r3, [r5, #5]	@ zero_extendqisi2
 1412              		.loc 1 220 43 discriminator 5 view .LVU282
 1413 003e 0933     		adds	r3, r3, #9
 1414 0040 46F82340 		str	r4, [r6, r3, lsl #2]
 1415              		.loc 1 221 3 is_stmt 1 discriminator 5 view .LVU283
 1416              		.loc 1 221 13 is_stmt 0 discriminator 5 view .LVU284
 1417 0044 AB79     		ldrb	r3, [r5, #6]	@ zero_extendqisi2
 1418              		.loc 1 221 6 discriminator 5 view .LVU285
 1419 0046 13B1     		cbz	r3, .L102
 1420              		.loc 1 222 5 is_stmt 1 view .LVU286
 1421              		.loc 1 222 43 is_stmt 0 view .LVU287
 1422 0048 06EB8306 		add	r6, r6, r3, lsl #2
 1423              	.LVL93:
 1424              		.loc 1 222 43 view .LVU288
 1425 004c B461     		str	r4, [r6, #24]
ARM GAS  /tmp/ccaKuZVb.s 			page 26


 1426              	.L102:
 1427              		.loc 1 224 3 is_stmt 1 view .LVU289
 1428              		.loc 1 225 15 is_stmt 0 view .LVU290
 1429 004e 0223     		movs	r3, #2
 1430 0050 2372     		strb	r3, [r4, #8]
 1431              		.loc 1 224 16 view .LVU291
 1432 0052 C4F85452 		str	r5, [r4, #596]
 1433              		.loc 1 225 3 is_stmt 1 view .LVU292
 1434              		.loc 1 226 3 view .LVU293
 1435              	.LBB304:
 1436              	.LBI304:
 1437              		.loc 3 456 20 view .LVU294
 1438              	.LBE304:
 1439              		.loc 3 458 3 view .LVU295
 1440              	.LBB315:
 1441              	.LBB305:
 1442              	.LBI305:
 1443              		.loc 4 358 20 view .LVU296
 1444              	.LBB306:
 1445              		.loc 4 360 3 view .LVU297
 1446 0056 FFF7FEFF 		bl	_dbg_check_unlock
 1447              	.LVL94:
 1448              		.loc 4 361 3 view .LVU298
 1449 005a FFF7FEFF 		bl	_stats_stop_measure_crit_thd
 1450              	.LVL95:
 1451              		.loc 4 367 3 view .LVU299
 1452              		.loc 4 367 3 view .LVU300
 1453              		.loc 4 367 3 view .LVU301
 1454 005e 104B     		ldr	r3, .L112+8
 1455 0060 1A68     		ldr	r2, [r3]
 1456 0062 9A42     		cmp	r2, r3
 1457 0064 04D0     		beq	.L103
 1458 0066 9969     		ldr	r1, [r3, #24]
 1459 0068 9368     		ldr	r3, [r2, #8]
 1460 006a 8A68     		ldr	r2, [r1, #8]
 1461 006c 9A42     		cmp	r2, r3
 1462 006e 09D3     		bcc	.L110
 1463              	.L103:
 1464              		.loc 4 367 3 view .LVU302
 1465              		.loc 4 371 3 view .LVU303
 1466              	.LBB307:
 1467              	.LBI307:
 1468              		.loc 5 458 20 view .LVU304
 1469              	.LBE307:
 1470              	.LBE306:
 1471              	.LBE305:
 1472              	.LBE315:
 1473              		.loc 5 461 3 view .LVU305
 1474              	.LVL96:
 1475              	.LBB316:
 1476              	.LBB313:
 1477              	.LBB311:
 1478              	.LBB310:
 1479              	.LBB308:
 1480              	.LBI308:
 1481              		.loc 6 544 57 view .LVU306
 1482              	.LBB309:
ARM GAS  /tmp/ccaKuZVb.s 			page 27


 1483              		.loc 6 546 3 view .LVU307
 1484 0070 0023     		movs	r3, #0
 1485              		.syntax unified
 1486              	@ 546 ".//ChibiOS//os/ext/CMSIS/include/core_cmFunc.h" 1
 1487 0072 83F31188 		MSR basepri, r3
 1488              	@ 0 "" 2
 1489              	.LVL97:
 1490              		.loc 6 546 3 is_stmt 0 view .LVU308
 1491              		.thumb
 1492              		.syntax unified
 1493              	.LBE309:
 1494              	.LBE308:
 1495              	.LBE310:
 1496              	.LBE311:
 1497              	.LBE313:
 1498              	.LBE316:
 1499              		.loc 1 227 1 view .LVU309
 1500 0076 084B     		ldr	r3, .L112
 1501 0078 1A68     		ldr	r2, [r3]
 1502 007a 019B     		ldr	r3, [sp, #4]
 1503 007c 5A40     		eors	r2, r3, r2
 1504 007e 09D1     		bne	.L111
 1505 0080 02B0     		add	sp, sp, #8
 1506              		.cfi_remember_state
 1507              		.cfi_def_cfa_offset 16
 1508              		@ sp needed
 1509 0082 70BD     		pop	{r4, r5, r6, pc}
 1510              	.LVL98:
 1511              	.L110:
 1512              		.cfi_restore_state
 1513              	.LBB317:
 1514              	.LBB314:
 1515              	.LBB312:
 1516              		.loc 4 367 3 is_stmt 1 view .LVU310
 1517 0084 0748     		ldr	r0, .L112+12
 1518 0086 FFF7FEFF 		bl	chSysHalt
 1519              	.LVL99:
 1520 008a F1E7     		b	.L103
 1521              	.LVL100:
 1522              	.L109:
 1523              		.loc 4 367 3 is_stmt 0 view .LVU311
 1524              	.LBE312:
 1525              	.LBE314:
 1526              	.LBE317:
 1527              		.loc 1 214 3 is_stmt 1 discriminator 3 view .LVU312
 1528 008c 0348     		ldr	r0, .L112+4
 1529              	.LVL101:
 1530              		.loc 1 214 3 is_stmt 0 discriminator 3 view .LVU313
 1531 008e FFF7FEFF 		bl	chSysHalt
 1532              	.LVL102:
 1533              		.loc 1 214 3 discriminator 3 view .LVU314
 1534 0092 C1E7     		b	.L100
 1535              	.LVL103:
 1536              	.L111:
 1537              		.loc 1 227 1 view .LVU315
 1538 0094 FFF7FEFF 		bl	__stack_chk_fail
 1539              	.LVL104:
ARM GAS  /tmp/ccaKuZVb.s 			page 28


 1540              	.L113:
 1541              		.align	2
 1542              	.L112:
 1543 0098 00000000 		.word	.LC12
 1544 009c 00000000 		.word	.LANCHOR2
 1545 00a0 00000000 		.word	ch
 1546 00a4 00000000 		.word	.LANCHOR0
 1547              		.cfi_endproc
 1548              	.LFE268:
 1549              		.size	sduStart, .-sduStart
 1550              		.section	.rodata.sduStop.cst4,"aM",%progbits,4
 1551              		.align	2
 1552              	.LC13:
 1553 0000 00000000 		.word	__stack_chk_guard
 1554              		.section	.text.sduStop,"ax",%progbits
 1555              		.align	1
 1556              		.p2align 4,,15
 1557              		.global	sduStop
 1558              		.syntax unified
 1559              		.thumb
 1560              		.thumb_func
 1561              		.fpu fpv4-sp-d16
 1562              		.type	sduStop, %function
 1563              	sduStop:
 1564              	.LVL105:
 1565              	.LFB269:
 1566              		.loc 1 238 37 is_stmt 1 view -0
 1567              		.cfi_startproc
 1568              		@ args = 0, pretend = 0, frame = 8
 1569              		@ frame_needed = 0, uses_anonymous_args = 0
 1570              		.loc 1 238 37 is_stmt 0 view .LVU317
 1571 0000 30B5     		push	{r4, r5, lr}
 1572              		.cfi_def_cfa_offset 12
 1573              		.cfi_offset 4, -12
 1574              		.cfi_offset 5, -8
 1575              		.cfi_offset 14, -4
 1576 0002 2D4B     		ldr	r3, .L125
 1577              		.loc 1 239 14 view .LVU318
 1578 0004 D0F85422 		ldr	r2, [r0, #596]
 1579              		.loc 1 238 37 view .LVU319
 1580 0008 83B0     		sub	sp, sp, #12
 1581              		.cfi_def_cfa_offset 24
 1582              		.loc 1 238 37 view .LVU320
 1583 000a 1B68     		ldr	r3, [r3]
 1584 000c 0193     		str	r3, [sp, #4]
 1585 000e 4FF00003 		mov	r3,#0
 1586              		.loc 1 239 3 is_stmt 1 view .LVU321
 1587              		.loc 1 239 14 is_stmt 0 view .LVU322
 1588 0012 1568     		ldr	r5, [r2]
 1589              	.LVL106:
 1590              		.loc 1 241 3 is_stmt 1 view .LVU323
 1591              		.loc 1 241 3 view .LVU324
 1592              		.loc 1 241 3 view .LVU325
 1593              		.loc 1 241 3 view .LVU326
 1594              		.loc 1 243 3 view .LVU327
 1595              	.LBB335:
 1596              	.LBI335:
ARM GAS  /tmp/ccaKuZVb.s 			page 29


 1597              		.loc 3 445 20 view .LVU328
 1598              	.LBE335:
 1599              		.loc 3 447 3 view .LVU329
 1600              	.LBB349:
 1601              	.LBB336:
 1602              	.LBI336:
 1603              		.loc 4 346 20 view .LVU330
 1604              	.LBB337:
 1605              		.loc 4 348 3 view .LVU331
 1606              	.LBB338:
 1607              	.LBI338:
 1608              		.loc 5 444 20 view .LVU332
 1609              	.LBE338:
 1610              	.LBE337:
 1611              	.LBE336:
 1612              	.LBE349:
 1613              		.loc 5 447 3 view .LVU333
 1614              	.LBB350:
 1615              	.LBB347:
 1616              	.LBB345:
 1617              	.LBB343:
 1618              	.LBB339:
 1619              	.LBI339:
 1620              		.loc 6 544 57 view .LVU334
 1621              	.LBB340:
 1622              		.loc 6 546 3 view .LVU335
 1623              	.LBE340:
 1624              	.LBE339:
 1625              	.LBE343:
 1626              	.LBE345:
 1627              	.LBE347:
 1628              	.LBE350:
 1629              		.loc 1 238 37 is_stmt 0 view .LVU336
 1630 0014 0446     		mov	r4, r0
 1631              	.LBB351:
 1632              	.LBB348:
 1633              	.LBB346:
 1634              	.LBB344:
 1635              	.LBB342:
 1636              	.LBB341:
 1637              		.loc 6 546 3 view .LVU337
 1638 0016 2023     		movs	r3, #32
 1639              		.syntax unified
 1640              	@ 546 ".//ChibiOS//os/ext/CMSIS/include/core_cmFunc.h" 1
 1641 0018 83F31188 		MSR basepri, r3
 1642              	@ 0 "" 2
 1643              	.LVL107:
 1644              		.loc 6 546 3 view .LVU338
 1645              		.thumb
 1646              		.syntax unified
 1647              	.LBE341:
 1648              	.LBE342:
 1649              	.LBE344:
 1650              		.loc 4 349 3 is_stmt 1 view .LVU339
 1651 001c FFF7FEFF 		bl	_stats_start_measure_crit_thd
 1652              	.LVL108:
 1653              		.loc 4 350 3 view .LVU340
ARM GAS  /tmp/ccaKuZVb.s 			page 30


 1654 0020 FFF7FEFF 		bl	_dbg_check_lock
 1655              	.LVL109:
 1656              	.LBE346:
 1657              	.LBE348:
 1658              	.LBE351:
 1659              		.loc 1 244 3 view .LVU341
 1660              		.loc 1 244 3 view .LVU342
 1661              		.loc 1 244 3 view .LVU343
 1662 0024 237A     		ldrb	r3, [r4, #8]	@ zero_extendqisi2
 1663 0026 013B     		subs	r3, r3, #1
 1664 0028 012B     		cmp	r3, #1
 1665 002a 02D9     		bls	.L115
 1666              		.loc 1 244 3 discriminator 3 view .LVU344
 1667 002c 2348     		ldr	r0, .L125+4
 1668 002e FFF7FEFF 		bl	chSysHalt
 1669              	.LVL110:
 1670              	.L115:
 1671              		.loc 1 244 3 discriminator 5 view .LVU345
 1672              		.loc 1 248 3 discriminator 5 view .LVU346
 1673              		.loc 1 248 31 is_stmt 0 discriminator 5 view .LVU347
 1674 0032 D4F85432 		ldr	r3, [r4, #596]
 1675 0036 1B79     		ldrb	r3, [r3, #4]	@ zero_extendqisi2
 1676              		.loc 1 248 49 discriminator 5 view .LVU348
 1677 0038 0533     		adds	r3, r3, #5
 1678 003a 05EB8303 		add	r3, r5, r3, lsl #2
 1679 003e 0022     		movs	r2, #0
 1680 0040 5A60     		str	r2, [r3, #4]
 1681              		.loc 1 249 3 is_stmt 1 discriminator 5 view .LVU349
 1682              		.loc 1 249 32 is_stmt 0 discriminator 5 view .LVU350
 1683 0042 D4F85432 		ldr	r3, [r4, #596]
 1684 0046 5B79     		ldrb	r3, [r3, #5]	@ zero_extendqisi2
 1685              		.loc 1 249 49 discriminator 5 view .LVU351
 1686 0048 0933     		adds	r3, r3, #9
 1687 004a 45F82320 		str	r2, [r5, r3, lsl #2]
 1688              		.loc 1 250 3 is_stmt 1 discriminator 5 view .LVU352
 1689              		.loc 1 250 19 is_stmt 0 discriminator 5 view .LVU353
 1690 004e D4F85432 		ldr	r3, [r4, #596]
 1691 0052 9B79     		ldrb	r3, [r3, #6]	@ zero_extendqisi2
 1692              		.loc 1 250 6 discriminator 5 view .LVU354
 1693 0054 1BB1     		cbz	r3, .L116
 1694              		.loc 1 251 5 is_stmt 1 view .LVU355
 1695              		.loc 1 251 49 is_stmt 0 view .LVU356
 1696 0056 0533     		adds	r3, r3, #5
 1697 0058 05EB8305 		add	r5, r5, r3, lsl #2
 1698              	.LVL111:
 1699              		.loc 1 251 49 view .LVU357
 1700 005c 6A60     		str	r2, [r5, #4]
 1701              	.L116:
 1702              		.loc 1 253 3 is_stmt 1 view .LVU358
 1703              		.loc 1 253 15 is_stmt 0 view .LVU359
 1704 005e 0123     		movs	r3, #1
 1705 0060 2372     		strb	r3, [r4, #8]
 1706              		.loc 1 256 3 is_stmt 1 view .LVU360
 1707              	.LVL112:
 1708              	.LBB352:
 1709              	.LBI352:
 1710              		.loc 3 795 20 view .LVU361
ARM GAS  /tmp/ccaKuZVb.s 			page 31


 1711              	.LBB353:
 1712              		.loc 3 798 3 view .LVU362
 1713 0062 0221     		movs	r1, #2
 1714 0064 201D     		adds	r0, r4, #4
 1715              	.LVL113:
 1716              		.loc 3 798 3 is_stmt 0 view .LVU363
 1717 0066 FFF7FEFF 		bl	chEvtBroadcastFlagsI
 1718              	.LVL114:
 1719              		.loc 3 798 3 view .LVU364
 1720              	.LBE353:
 1721              	.LBE352:
 1722              		.loc 1 256 39 is_stmt 1 view .LVU365
 1723              		.loc 1 257 3 view .LVU366
 1724 006a 04F10C00 		add	r0, r4, #12
 1725 006e FFF7FEFF 		bl	chIQResetI
 1726              	.LVL115:
 1727              		.loc 1 258 3 view .LVU367
 1728 0072 04F13000 		add	r0, r4, #48
 1729 0076 FFF7FEFF 		bl	chIQResetI
 1730              	.LVL116:
 1731              		.loc 1 259 3 view .LVU368
 1732              	.LBB354:
 1733              	.LBI354:
 1734              		.loc 3 552 20 view .LVU369
 1735              	.LBB355:
 1736              		.loc 3 554 3 view .LVU370
 1737 007a FFF7FEFF 		bl	chSchRescheduleS
 1738              	.LVL117:
 1739              	.LBE355:
 1740              	.LBE354:
 1741              		.loc 1 260 3 view .LVU371
 1742              	.LBB356:
 1743              	.LBI356:
 1744              		.loc 3 456 20 view .LVU372
 1745              	.LBE356:
 1746              		.loc 3 458 3 view .LVU373
 1747              	.LBB367:
 1748              	.LBB357:
 1749              	.LBI357:
 1750              		.loc 4 358 20 view .LVU374
 1751              	.LBB358:
 1752              		.loc 4 360 3 view .LVU375
 1753 007e FFF7FEFF 		bl	_dbg_check_unlock
 1754              	.LVL118:
 1755              		.loc 4 361 3 view .LVU376
 1756 0082 FFF7FEFF 		bl	_stats_stop_measure_crit_thd
 1757              	.LVL119:
 1758              		.loc 4 367 3 view .LVU377
 1759              		.loc 4 367 3 view .LVU378
 1760              		.loc 4 367 3 view .LVU379
 1761 0086 0E4B     		ldr	r3, .L125+8
 1762 0088 1A68     		ldr	r2, [r3]
 1763 008a 9A42     		cmp	r2, r3
 1764 008c 04D0     		beq	.L117
 1765 008e 9969     		ldr	r1, [r3, #24]
 1766 0090 9368     		ldr	r3, [r2, #8]
 1767 0092 8A68     		ldr	r2, [r1, #8]
ARM GAS  /tmp/ccaKuZVb.s 			page 32


 1768 0094 9A42     		cmp	r2, r3
 1769 0096 09D3     		bcc	.L123
 1770              	.L117:
 1771              		.loc 4 367 3 view .LVU380
 1772              		.loc 4 371 3 view .LVU381
 1773              	.LBB359:
 1774              	.LBI359:
 1775              		.loc 5 458 20 view .LVU382
 1776              	.LBE359:
 1777              	.LBE358:
 1778              	.LBE357:
 1779              	.LBE367:
 1780              		.loc 5 461 3 view .LVU383
 1781              	.LVL120:
 1782              	.LBB368:
 1783              	.LBB365:
 1784              	.LBB363:
 1785              	.LBB362:
 1786              	.LBB360:
 1787              	.LBI360:
 1788              		.loc 6 544 57 view .LVU384
 1789              	.LBB361:
 1790              		.loc 6 546 3 view .LVU385
 1791 0098 0023     		movs	r3, #0
 1792              		.syntax unified
 1793              	@ 546 ".//ChibiOS//os/ext/CMSIS/include/core_cmFunc.h" 1
 1794 009a 83F31188 		MSR basepri, r3
 1795              	@ 0 "" 2
 1796              	.LVL121:
 1797              		.loc 6 546 3 is_stmt 0 view .LVU386
 1798              		.thumb
 1799              		.syntax unified
 1800              	.LBE361:
 1801              	.LBE360:
 1802              	.LBE362:
 1803              	.LBE363:
 1804              	.LBE365:
 1805              	.LBE368:
 1806              		.loc 1 261 1 view .LVU387
 1807 009e 064B     		ldr	r3, .L125
 1808 00a0 1A68     		ldr	r2, [r3]
 1809 00a2 019B     		ldr	r3, [sp, #4]
 1810 00a4 5A40     		eors	r2, r3, r2
 1811 00a6 05D1     		bne	.L124
 1812 00a8 03B0     		add	sp, sp, #12
 1813              		.cfi_remember_state
 1814              		.cfi_def_cfa_offset 12
 1815              		@ sp needed
 1816 00aa 30BD     		pop	{r4, r5, pc}
 1817              	.LVL122:
 1818              	.L123:
 1819              		.cfi_restore_state
 1820              	.LBB369:
 1821              	.LBB366:
 1822              	.LBB364:
 1823              		.loc 4 367 3 is_stmt 1 view .LVU388
 1824 00ac 0548     		ldr	r0, .L125+12
ARM GAS  /tmp/ccaKuZVb.s 			page 33


 1825 00ae FFF7FEFF 		bl	chSysHalt
 1826              	.LVL123:
 1827 00b2 F1E7     		b	.L117
 1828              	.L124:
 1829              	.LBE364:
 1830              	.LBE366:
 1831              	.LBE369:
 1832              		.loc 1 261 1 is_stmt 0 view .LVU389
 1833 00b4 FFF7FEFF 		bl	__stack_chk_fail
 1834              	.LVL124:
 1835              	.L126:
 1836              		.align	2
 1837              	.L125:
 1838 00b8 00000000 		.word	.LC13
 1839 00bc 00000000 		.word	.LANCHOR3
 1840 00c0 00000000 		.word	ch
 1841 00c4 00000000 		.word	.LANCHOR0
 1842              		.cfi_endproc
 1843              	.LFE269:
 1844              		.size	sduStop, .-sduStop
 1845              		.section	.rodata.sduConfigureHookI.cst4,"aM",%progbits,4
 1846              		.align	2
 1847              	.LC14:
 1848 0000 00000000 		.word	__stack_chk_guard
 1849              		.section	.text.sduConfigureHookI,"ax",%progbits
 1850              		.align	1
 1851              		.p2align 4,,15
 1852              		.global	sduConfigureHookI
 1853              		.syntax unified
 1854              		.thumb
 1855              		.thumb_func
 1856              		.fpu fpv4-sp-d16
 1857              		.type	sduConfigureHookI, %function
 1858              	sduConfigureHookI:
 1859              	.LVL125:
 1860              	.LFB270:
 1861              		.loc 1 270 47 is_stmt 1 view -0
 1862              		.cfi_startproc
 1863              		@ args = 0, pretend = 0, frame = 16
 1864              		@ frame_needed = 0, uses_anonymous_args = 0
 1865              		.loc 1 270 47 is_stmt 0 view .LVU391
 1866 0000 30B5     		push	{r4, r5, lr}
 1867              		.cfi_def_cfa_offset 12
 1868              		.cfi_offset 4, -12
 1869              		.cfi_offset 5, -8
 1870              		.cfi_offset 14, -4
 1871              		.loc 1 273 3 view .LVU392
 1872 0002 00F10C02 		add	r2, r0, #12
 1873              		.loc 1 270 47 view .LVU393
 1874 0006 85B0     		sub	sp, sp, #20
 1875              		.cfi_def_cfa_offset 32
 1876              		.loc 1 271 14 view .LVU394
 1877 0008 D0F85432 		ldr	r3, [r0, #596]
 1878              		.loc 1 270 47 view .LVU395
 1879 000c 1649     		ldr	r1, .L132
 1880              		.loc 1 271 14 view .LVU396
 1881 000e 1D68     		ldr	r5, [r3]
ARM GAS  /tmp/ccaKuZVb.s 			page 34


 1882              		.loc 1 270 47 view .LVU397
 1883 0010 0446     		mov	r4, r0
 1884              		.loc 1 273 3 view .LVU398
 1885 0012 1046     		mov	r0, r2
 1886              	.LVL126:
 1887              		.loc 1 270 47 view .LVU399
 1888 0014 0968     		ldr	r1, [r1]
 1889 0016 0391     		str	r1, [sp, #12]
 1890 0018 4FF00001 		mov	r1,#0
 1891              		.loc 1 271 3 is_stmt 1 view .LVU400
 1892              	.LVL127:
 1893              		.loc 1 273 3 view .LVU401
 1894 001c 0192     		str	r2, [sp, #4]
 1895 001e FFF7FEFF 		bl	chIQResetI
 1896              	.LVL128:
 1897              		.loc 1 274 3 view .LVU402
 1898 0022 04F13000 		add	r0, r4, #48
 1899 0026 FFF7FEFF 		bl	chOQResetI
 1900              	.LVL129:
 1901              		.loc 1 275 3 view .LVU403
 1902              	.LBB370:
 1903              	.LBI370:
 1904              		.loc 3 795 20 view .LVU404
 1905              	.LBB371:
 1906              		.loc 3 798 3 view .LVU405
 1907 002a 201D     		adds	r0, r4, #4
 1908              	.LVL130:
 1909              		.loc 3 798 3 is_stmt 0 view .LVU406
 1910 002c 0121     		movs	r1, #1
 1911 002e FFF7FEFF 		bl	chEvtBroadcastFlagsI
 1912              	.LVL131:
 1913              		.loc 3 798 3 view .LVU407
 1914              	.LBE371:
 1915              	.LBE370:
 1916              		.loc 1 275 36 is_stmt 1 view .LVU408
 1917              		.loc 1 278 3 view .LVU409
 1918 0032 D4F85432 		ldr	r3, [r4, #596]
 1919 0036 019A     		ldr	r2, [sp, #4]
 1920 0038 5979     		ldrb	r1, [r3, #5]	@ zero_extendqisi2
 1921              		.loc 1 279 36 is_stmt 0 view .LVU410
 1922 003a 05EB8103 		add	r3, r5, r1, lsl #2
 1923              		.loc 1 278 3 view .LVU411
 1924 003e 2846     		mov	r0, r5
 1925              		.loc 1 279 60 view .LVU412
 1926 0040 DB68     		ldr	r3, [r3, #12]
 1927              		.loc 1 278 3 view .LVU413
 1928 0042 5B8A     		ldrh	r3, [r3, #18]
 1929 0044 FFF7FEFF 		bl	usbPrepareQueuedReceive
 1930              	.LVL132:
 1931              		.loc 1 280 3 is_stmt 1 view .LVU414
 1932              		.loc 1 280 10 is_stmt 0 view .LVU415
 1933 0048 074B     		ldr	r3, .L132
 1934 004a 1A68     		ldr	r2, [r3]
 1935 004c 039B     		ldr	r3, [sp, #12]
 1936 004e 5A40     		eors	r2, r3, r2
 1937 0050 08D1     		bne	.L131
 1938 0052 D4F85432 		ldr	r3, [r4, #596]
ARM GAS  /tmp/ccaKuZVb.s 			page 35


 1939 0056 5979     		ldrb	r1, [r3, #5]	@ zero_extendqisi2
 1940 0058 2846     		mov	r0, r5
 1941              		.loc 1 281 1 view .LVU416
 1942 005a 05B0     		add	sp, sp, #20
 1943              		.cfi_remember_state
 1944              		.cfi_def_cfa_offset 12
 1945              		@ sp needed
 1946 005c BDE83040 		pop	{r4, r5, lr}
 1947              		.cfi_restore 14
 1948              		.cfi_restore 5
 1949              		.cfi_restore 4
 1950              		.cfi_def_cfa_offset 0
 1951              	.LVL133:
 1952              		.loc 1 280 10 view .LVU417
 1953 0060 FFF7FEBF 		b	usbStartReceiveI
 1954              	.LVL134:
 1955              	.L131:
 1956              		.cfi_restore_state
 1957              		.loc 1 280 10 view .LVU418
 1958 0064 FFF7FEFF 		bl	__stack_chk_fail
 1959              	.LVL135:
 1960              	.L133:
 1961              		.align	2
 1962              	.L132:
 1963 0068 00000000 		.word	.LC14
 1964              		.cfi_endproc
 1965              	.LFE270:
 1966              		.size	sduConfigureHookI, .-sduConfigureHookI
 1967              		.section	.rodata.sduRequestsHook.cst4,"aM",%progbits,4
 1968              		.align	2
 1969              	.LC15:
 1970 0000 00000000 		.word	__stack_chk_guard
 1971              		.section	.text.sduRequestsHook,"ax",%progbits
 1972              		.align	1
 1973              		.p2align 4,,15
 1974              		.global	sduRequestsHook
 1975              		.syntax unified
 1976              		.thumb
 1977              		.thumb_func
 1978              		.fpu fpv4-sp-d16
 1979              		.type	sduRequestsHook, %function
 1980              	sduRequestsHook:
 1981              	.LVL136:
 1982              	.LFB271:
 1983              		.loc 1 298 39 is_stmt 1 view -0
 1984              		.cfi_startproc
 1985              		@ args = 0, pretend = 0, frame = 8
 1986              		@ frame_needed = 0, uses_anonymous_args = 0
 1987              		.loc 1 298 39 is_stmt 0 view .LVU420
 1988 0000 00B5     		push	{lr}
 1989              		.cfi_def_cfa_offset 4
 1990              		.cfi_offset 14, -4
 1991 0002 164B     		ldr	r3, .L144
 1992 0004 83B0     		sub	sp, sp, #12
 1993              		.cfi_def_cfa_offset 16
 1994              		.loc 1 298 39 view .LVU421
 1995 0006 1B68     		ldr	r3, [r3]
ARM GAS  /tmp/ccaKuZVb.s 			page 36


 1996 0008 0193     		str	r3, [sp, #4]
 1997 000a 4FF00003 		mov	r3,#0
 1998              		.loc 1 300 3 is_stmt 1 view .LVU422
 1999              		.loc 1 300 6 is_stmt 0 view .LVU423
 2000 000e 90F84430 		ldrb	r3, [r0, #68]	@ zero_extendqisi2
 2001 0012 03F06003 		and	r3, r3, #96
 2002 0016 202B     		cmp	r3, #32
 2003 0018 08D0     		beq	.L142
 2004              	.L140:
 2005              		.loc 1 316 10 view .LVU424
 2006 001a 0020     		movs	r0, #0
 2007              	.LVL137:
 2008              	.L135:
 2009              		.loc 1 317 1 view .LVU425
 2010 001c 0F4B     		ldr	r3, .L144
 2011 001e 1A68     		ldr	r2, [r3]
 2012 0020 019B     		ldr	r3, [sp, #4]
 2013 0022 5A40     		eors	r2, r3, r2
 2014 0024 18D1     		bne	.L143
 2015 0026 03B0     		add	sp, sp, #12
 2016              		.cfi_remember_state
 2017              		.cfi_def_cfa_offset 4
 2018              		@ sp needed
 2019 0028 5DF804FB 		ldr	pc, [sp], #4
 2020              	.LVL138:
 2021              	.L142:
 2022              		.cfi_restore_state
 2023              		.loc 1 301 5 is_stmt 1 view .LVU426
 2024              		.loc 1 301 24 is_stmt 0 view .LVU427
 2025 002c 90F84530 		ldrb	r3, [r0, #69]	@ zero_extendqisi2
 2026              		.loc 1 301 5 view .LVU428
 2027 0030 212B     		cmp	r3, #33
 2028 0032 09D8     		bhi	.L136
 2029 0034 1F2B     		cmp	r3, #31
 2030 0036 F0D9     		bls	.L140
 2031              		.loc 1 303 7 is_stmt 1 view .LVU429
 2032 0038 094B     		ldr	r3, .L144+4
 2033 003a 8363     		str	r3, [r0, #56]
 2034              		.loc 1 303 7 view .LVU430
 2035 003c 0722     		movs	r2, #7
 2036 003e 0023     		movs	r3, #0
 2037 0040 C0E90F23 		strd	r2, r3, [r0, #60]
 2038              		.loc 1 303 79 view .LVU431
 2039              		.loc 1 304 7 view .LVU432
 2040              		.loc 1 304 14 is_stmt 0 view .LVU433
 2041 0044 0120     		movs	r0, #1
 2042              	.LVL139:
 2043              		.loc 1 304 14 view .LVU434
 2044 0046 E9E7     		b	.L135
 2045              	.LVL140:
 2046              	.L136:
 2047              		.loc 1 301 5 view .LVU435
 2048 0048 222B     		cmp	r3, #34
 2049 004a E6D1     		bne	.L140
 2050              		.loc 1 310 7 is_stmt 1 view .LVU436
 2051 004c 0023     		movs	r3, #0
 2052 004e C0E90E33 		strd	r3, r3, [r0, #56]
ARM GAS  /tmp/ccaKuZVb.s 			page 37


 2053              		.loc 1 310 7 view .LVU437
 2054 0052 0364     		str	r3, [r0, #64]
 2055              		.loc 1 310 44 view .LVU438
 2056              		.loc 1 311 7 view .LVU439
 2057              		.loc 1 311 14 is_stmt 0 view .LVU440
 2058 0054 0120     		movs	r0, #1
 2059              	.LVL141:
 2060              		.loc 1 311 14 view .LVU441
 2061 0056 E1E7     		b	.L135
 2062              	.L143:
 2063              		.loc 1 317 1 view .LVU442
 2064 0058 FFF7FEFF 		bl	__stack_chk_fail
 2065              	.LVL142:
 2066              	.L145:
 2067              		.align	2
 2068              	.L144:
 2069 005c 00000000 		.word	.LC15
 2070 0060 00000000 		.word	.LANCHOR4
 2071              		.cfi_endproc
 2072              	.LFE271:
 2073              		.size	sduRequestsHook, .-sduRequestsHook
 2074              		.section	.rodata.sduDataTransmitted.cst4,"aM",%progbits,4
 2075              		.align	2
 2076              	.LC16:
 2077 0000 00000000 		.word	__stack_chk_guard
 2078              		.section	.text.sduDataTransmitted,"ax",%progbits
 2079              		.align	1
 2080              		.p2align 4,,15
 2081              		.global	sduDataTransmitted
 2082              		.syntax unified
 2083              		.thumb
 2084              		.thumb_func
 2085              		.fpu fpv4-sp-d16
 2086              		.type	sduDataTransmitted, %function
 2087              	sduDataTransmitted:
 2088              	.LVL143:
 2089              	.LFB272:
 2090              		.loc 1 327 54 is_stmt 1 view -0
 2091              		.cfi_startproc
 2092              		@ args = 0, pretend = 0, frame = 8
 2093              		@ frame_needed = 0, uses_anonymous_args = 0
 2094              		.loc 1 327 54 is_stmt 0 view .LVU444
 2095 0000 2DE9F041 		push	{r4, r5, r6, r7, r8, lr}
 2096              		.cfi_def_cfa_offset 24
 2097              		.cfi_offset 4, -24
 2098              		.cfi_offset 5, -20
 2099              		.cfi_offset 6, -16
 2100              		.cfi_offset 7, -12
 2101              		.cfi_offset 8, -8
 2102              		.cfi_offset 14, -4
 2103              		.loc 1 329 20 view .LVU445
 2104 0004 00EB8103 		add	r3, r0, r1, lsl #2
 2105              		.loc 1 327 54 view .LVU446
 2106 0008 2C4A     		ldr	r2, .L161
 2107              		.loc 1 329 20 view .LVU447
 2108 000a 9E69     		ldr	r6, [r3, #24]
 2109              		.loc 1 327 54 view .LVU448
ARM GAS  /tmp/ccaKuZVb.s 			page 38


 2110 000c 82B0     		sub	sp, sp, #8
 2111              		.cfi_def_cfa_offset 32
 2112              		.loc 1 327 54 view .LVU449
 2113 000e 1268     		ldr	r2, [r2]
 2114 0010 0192     		str	r2, [sp, #4]
 2115 0012 4FF00002 		mov	r2,#0
 2116              		.loc 1 328 3 is_stmt 1 view .LVU450
 2117              		.loc 1 329 3 view .LVU451
 2118              	.LVL144:
 2119              		.loc 1 331 3 view .LVU452
 2120              		.loc 1 331 6 is_stmt 0 view .LVU453
 2121 0016 002E     		cmp	r6, #0
 2122 0018 45D0     		beq	.L146
 2123              		.loc 1 335 3 is_stmt 1 view .LVU454
 2124              	.LBB372:
 2125              	.LBI372:
 2126              		.loc 3 467 20 view .LVU455
 2127              	.LBE372:
 2128              		.loc 3 469 3 view .LVU456
 2129              	.LBB386:
 2130              	.LBB373:
 2131              	.LBI373:
 2132              		.loc 4 386 20 view .LVU457
 2133              	.LBB374:
 2134              		.loc 4 388 3 view .LVU458
 2135              	.LBB375:
 2136              	.LBI375:
 2137              		.loc 5 473 20 view .LVU459
 2138              	.LBE375:
 2139              	.LBE374:
 2140              	.LBE373:
 2141              	.LBE386:
 2142              		.loc 5 475 3 view .LVU460
 2143              	.LBB387:
 2144              	.LBB384:
 2145              	.LBB382:
 2146              	.LBB380:
 2147              	.LBB376:
 2148              	.LBI376:
 2149              		.loc 5 444 20 view .LVU461
 2150              	.LBE376:
 2151              	.LBE380:
 2152              	.LBE382:
 2153              	.LBE384:
 2154              	.LBE387:
 2155              		.loc 5 447 3 view .LVU462
 2156              	.LVL145:
 2157              	.LBB388:
 2158              	.LBB385:
 2159              	.LBB383:
 2160              	.LBB381:
 2161              	.LBB379:
 2162              	.LBB377:
 2163              	.LBI377:
 2164              		.loc 6 544 57 view .LVU463
 2165              	.LBB378:
 2166              		.loc 6 546 3 view .LVU464
ARM GAS  /tmp/ccaKuZVb.s 			page 39


 2167 001a 0446     		mov	r4, r0
 2168 001c 0D46     		mov	r5, r1
 2169 001e 4FF02008 		mov	r8, #32
 2170              		.syntax unified
 2171              	@ 546 ".//ChibiOS//os/ext/CMSIS/include/core_cmFunc.h" 1
 2172 0022 88F31188 		MSR basepri, r8
 2173              	@ 0 "" 2
 2174              	.LVL146:
 2175              		.loc 6 546 3 is_stmt 0 view .LVU465
 2176              		.thumb
 2177              		.syntax unified
 2178              	.LBE378:
 2179              	.LBE377:
 2180              	.LBE379:
 2181              	.LBE381:
 2182              		.loc 4 389 3 is_stmt 1 view .LVU466
 2183 0026 FFF7FEFF 		bl	_stats_start_measure_crit_isr
 2184              	.LVL147:
 2185              		.loc 4 390 3 view .LVU467
 2186 002a FFF7FEFF 		bl	_dbg_check_lock_from_isr
 2187              	.LVL148:
 2188              	.LBE383:
 2189              	.LBE385:
 2190              	.LBE388:
 2191              		.loc 1 336 3 view .LVU468
 2192              	.LBB389:
 2193              	.LBI389:
 2194              		.loc 3 795 20 view .LVU469
 2195              	.LBB390:
 2196              		.loc 3 798 3 view .LVU470
 2197 002e 301D     		adds	r0, r6, #4
 2198              	.LVL149:
 2199              		.loc 3 798 3 is_stmt 0 view .LVU471
 2200 0030 0821     		movs	r1, #8
 2201 0032 FFF7FEFF 		bl	chEvtBroadcastFlagsI
 2202              	.LVL150:
 2203              		.loc 3 798 3 view .LVU472
 2204              	.LBE390:
 2205              	.LBE389:
 2206              		.loc 1 336 39 is_stmt 1 view .LVU473
 2207              		.loc 1 339 3 view .LVU474
 2208              	.LBB391:
 2209              	.LBI391:
 2210              		.loc 2 353 22 view .LVU475
 2211              	.LBB392:
 2212              		.loc 2 355 3 view .LVU476
 2213 0036 FFF7FEFF 		bl	chDbgCheckClassI
 2214              	.LVL151:
 2215              		.loc 2 357 3 view .LVU477
 2216              		.loc 2 357 19 is_stmt 0 view .LVU478
 2217 003a D6E90F23 		ldrd	r2, r3, [r6, #60]
 2218              		.loc 2 357 10 view .LVU479
 2219 003e B76B     		ldr	r7, [r6, #56]
 2220              		.loc 2 357 19 view .LVU480
 2221 0040 9B1A     		subs	r3, r3, r2
 2222              	.LVL152:
 2223              		.loc 2 357 19 view .LVU481
ARM GAS  /tmp/ccaKuZVb.s 			page 40


 2224              	.LBE392:
 2225              	.LBE391:
 2226              		.loc 1 339 6 view .LVU482
 2227 0042 DF1B     		subs	r7, r3, r7
 2228              	.LVL153:
 2229              		.loc 1 339 6 view .LVU483
 2230 0044 10D1     		bne	.L159
 2231              		.loc 1 349 8 is_stmt 1 view .LVU484
 2232              		.loc 1 349 22 is_stmt 0 view .LVU485
 2233 0046 04EB8503 		add	r3, r4, r5, lsl #2
 2234 004a DB68     		ldr	r3, [r3, #12]
 2235              		.loc 1 349 36 view .LVU486
 2236 004c 5A69     		ldr	r2, [r3, #20]
 2237 004e 5768     		ldr	r7, [r2, #4]
 2238              	.LVL154:
 2239              		.loc 1 349 11 view .LVU487
 2240 0050 17B3     		cbz	r7, .L149
 2241              		.loc 1 351 14 discriminator 1 view .LVU488
 2242 0052 1B8A     		ldrh	r3, [r3, #16]
 2243              		.loc 1 351 48 discriminator 1 view .LVU489
 2244 0054 013B     		subs	r3, r3, #1
 2245              		.loc 1 349 51 discriminator 1 view .LVU490
 2246 0056 1F40     		ands	r7, r3, r7
 2247 0058 1ED1     		bne	.L149
 2248              		.loc 1 356 5 is_stmt 1 view .LVU491
 2249              	.LBB393:
 2250              	.LBI393:
 2251              		.loc 3 478 20 view .LVU492
 2252              	.LBE393:
 2253              		.loc 3 480 3 view .LVU493
 2254              	.LBB407:
 2255              	.LBB394:
 2256              	.LBI394:
 2257              		.loc 4 406 20 view .LVU494
 2258              	.LBB395:
 2259              		.loc 4 408 3 view .LVU495
 2260 005a FFF7FEFF 		bl	_dbg_check_unlock_from_isr
 2261              	.LVL155:
 2262              		.loc 4 409 3 view .LVU496
 2263 005e FFF7FEFF 		bl	_stats_stop_measure_crit_isr
 2264              	.LVL156:
 2265              		.loc 4 410 3 view .LVU497
 2266              	.LBB396:
 2267              	.LBI396:
 2268              		.loc 5 484 20 view .LVU498
 2269              	.LBE396:
 2270              	.LBE395:
 2271              	.LBE394:
 2272              	.LBE407:
 2273              		.loc 5 486 3 view .LVU499
 2274              	.LBB408:
 2275              	.LBB405:
 2276              	.LBB403:
 2277              	.LBB401:
 2278              	.LBB397:
 2279              	.LBI397:
 2280              		.loc 5 458 20 view .LVU500
ARM GAS  /tmp/ccaKuZVb.s 			page 41


 2281              	.LBE397:
 2282              	.LBE401:
 2283              	.LBE403:
 2284              	.LBE405:
 2285              	.LBE408:
 2286              		.loc 5 461 3 view .LVU501
 2287              	.LBB409:
 2288              	.LBB406:
 2289              	.LBB404:
 2290              	.LBB402:
 2291              	.LBB400:
 2292              	.LBB398:
 2293              	.LBI398:
 2294              		.loc 6 544 57 view .LVU502
 2295              	.LBB399:
 2296              		.loc 6 546 3 view .LVU503
 2297              		.syntax unified
 2298              	@ 546 ".//ChibiOS//os/ext/CMSIS/include/core_cmFunc.h" 1
 2299 0062 87F31188 		MSR basepri, r7
 2300              	@ 0 "" 2
 2301              		.thumb
 2302              		.syntax unified
 2303 0066 06E0     		b	.L158
 2304              	.LVL157:
 2305              	.L159:
 2306              		.loc 6 546 3 is_stmt 0 view .LVU504
 2307              	.LBE399:
 2308              	.LBE398:
 2309              	.LBE400:
 2310              	.LBE402:
 2311              	.LBE404:
 2312              	.LBE406:
 2313              	.LBE409:
 2314              		.loc 1 342 5 is_stmt 1 view .LVU505
 2315              	.LBB410:
 2316              	.LBI410:
 2317              		.loc 3 478 20 view .LVU506
 2318              	.LBE410:
 2319              		.loc 3 480 3 view .LVU507
 2320              	.LBB424:
 2321              	.LBB411:
 2322              	.LBI411:
 2323              		.loc 4 406 20 view .LVU508
 2324              	.LBB412:
 2325              		.loc 4 408 3 view .LVU509
 2326 0068 FFF7FEFF 		bl	_dbg_check_unlock_from_isr
 2327              	.LVL158:
 2328              		.loc 4 409 3 view .LVU510
 2329 006c FFF7FEFF 		bl	_stats_stop_measure_crit_isr
 2330              	.LVL159:
 2331              		.loc 4 410 3 view .LVU511
 2332              	.LBB413:
 2333              	.LBI413:
 2334              		.loc 5 484 20 view .LVU512
 2335              	.LBE413:
 2336              	.LBE412:
 2337              	.LBE411:
ARM GAS  /tmp/ccaKuZVb.s 			page 42


 2338              	.LBE424:
 2339              		.loc 5 486 3 view .LVU513
 2340              	.LBB425:
 2341              	.LBB422:
 2342              	.LBB420:
 2343              	.LBB418:
 2344              	.LBB414:
 2345              	.LBI414:
 2346              		.loc 5 458 20 view .LVU514
 2347              	.LBE414:
 2348              	.LBE418:
 2349              	.LBE420:
 2350              	.LBE422:
 2351              	.LBE425:
 2352              		.loc 5 461 3 view .LVU515
 2353              	.LBB426:
 2354              	.LBB423:
 2355              	.LBB421:
 2356              	.LBB419:
 2357              	.LBB417:
 2358              	.LBB415:
 2359              	.LBI415:
 2360              		.loc 6 544 57 view .LVU516
 2361              	.LBB416:
 2362              		.loc 6 546 3 view .LVU517
 2363 0070 0023     		movs	r3, #0
 2364              		.syntax unified
 2365              	@ 546 ".//ChibiOS//os/ext/CMSIS/include/core_cmFunc.h" 1
 2366 0072 83F31188 		MSR basepri, r3
 2367              	@ 0 "" 2
 2368              	.LVL160:
 2369              		.loc 6 546 3 is_stmt 0 view .LVU518
 2370              		.thumb
 2371              		.syntax unified
 2372              	.LBE416:
 2373              	.LBE415:
 2374              	.LBE417:
 2375              	.LBE419:
 2376              	.LBE421:
 2377              	.LBE423:
 2378              	.LBE426:
 2379              		.loc 1 344 5 is_stmt 1 view .LVU519
 2380              	.L158:
 2381              		.loc 1 358 5 view .LVU520
 2382 0076 3B46     		mov	r3, r7
 2383 0078 06F13002 		add	r2, r6, #48
 2384 007c 2946     		mov	r1, r5
 2385 007e 2046     		mov	r0, r4
 2386 0080 FFF7FEFF 		bl	usbPrepareQueuedTransmit
 2387              	.LVL161:
 2388              		.loc 1 360 5 view .LVU521
 2389              	.LBB427:
 2390              	.LBI427:
 2391              		.loc 3 467 20 view .LVU522
 2392              	.LBE427:
 2393              		.loc 3 469 3 view .LVU523
 2394              	.LBB441:
ARM GAS  /tmp/ccaKuZVb.s 			page 43


 2395              	.LBB428:
 2396              	.LBI428:
 2397              		.loc 4 386 20 view .LVU524
 2398              	.LBB429:
 2399              		.loc 4 388 3 view .LVU525
 2400              	.LBB430:
 2401              	.LBI430:
 2402              		.loc 5 473 20 view .LVU526
 2403              	.LBE430:
 2404              	.LBE429:
 2405              	.LBE428:
 2406              	.LBE441:
 2407              		.loc 5 475 3 view .LVU527
 2408              	.LBB442:
 2409              	.LBB439:
 2410              	.LBB437:
 2411              	.LBB435:
 2412              	.LBB431:
 2413              	.LBI431:
 2414              		.loc 5 444 20 view .LVU528
 2415              	.LBE431:
 2416              	.LBE435:
 2417              	.LBE437:
 2418              	.LBE439:
 2419              	.LBE442:
 2420              		.loc 5 447 3 view .LVU529
 2421              	.LBB443:
 2422              	.LBB440:
 2423              	.LBB438:
 2424              	.LBB436:
 2425              	.LBB434:
 2426              	.LBB432:
 2427              	.LBI432:
 2428              		.loc 6 544 57 view .LVU530
 2429              	.LBB433:
 2430              		.loc 6 546 3 view .LVU531
 2431              		.syntax unified
 2432              	@ 546 ".//ChibiOS//os/ext/CMSIS/include/core_cmFunc.h" 1
 2433 0084 88F31188 		MSR basepri, r8
 2434              	@ 0 "" 2
 2435              	.LVL162:
 2436              		.loc 6 546 3 is_stmt 0 view .LVU532
 2437              		.thumb
 2438              		.syntax unified
 2439              	.LBE433:
 2440              	.LBE432:
 2441              	.LBE434:
 2442              	.LBE436:
 2443              		.loc 4 389 3 is_stmt 1 view .LVU533
 2444 0088 FFF7FEFF 		bl	_stats_start_measure_crit_isr
 2445              	.LVL163:
 2446              		.loc 4 390 3 view .LVU534
 2447 008c FFF7FEFF 		bl	_dbg_check_lock_from_isr
 2448              	.LVL164:
 2449              	.LBE438:
 2450              	.LBE440:
 2451              	.LBE443:
ARM GAS  /tmp/ccaKuZVb.s 			page 44


 2452              		.loc 1 361 5 view .LVU535
 2453              		.loc 1 361 12 is_stmt 0 view .LVU536
 2454 0090 2946     		mov	r1, r5
 2455 0092 2046     		mov	r0, r4
 2456 0094 FFF7FEFF 		bl	usbStartTransmitI
 2457              	.LVL165:
 2458              	.L149:
 2459              		.loc 1 365 3 is_stmt 1 view .LVU537
 2460              	.LBB444:
 2461              	.LBI444:
 2462              		.loc 3 478 20 view .LVU538
 2463              	.LBB445:
 2464              		.loc 3 480 3 view .LVU539
 2465              	.LBB446:
 2466              	.LBI446:
 2467              		.loc 4 406 20 view .LVU540
 2468              	.LBB447:
 2469              		.loc 4 408 3 view .LVU541
 2470 0098 FFF7FEFF 		bl	_dbg_check_unlock_from_isr
 2471              	.LVL166:
 2472              		.loc 4 409 3 view .LVU542
 2473 009c FFF7FEFF 		bl	_stats_stop_measure_crit_isr
 2474              	.LVL167:
 2475              		.loc 4 410 3 view .LVU543
 2476              	.LBB448:
 2477              	.LBI448:
 2478              		.loc 5 484 20 view .LVU544
 2479              	.LBE448:
 2480              	.LBE447:
 2481              	.LBE446:
 2482              	.LBE445:
 2483              	.LBE444:
 2484              		.loc 5 486 3 view .LVU545
 2485              	.LBB461:
 2486              	.LBB459:
 2487              	.LBB457:
 2488              	.LBB455:
 2489              	.LBB453:
 2490              	.LBB449:
 2491              	.LBI449:
 2492              		.loc 5 458 20 view .LVU546
 2493              	.LBE449:
 2494              	.LBE453:
 2495              	.LBE455:
 2496              	.LBE457:
 2497              	.LBE459:
 2498              	.LBE461:
 2499              		.loc 5 461 3 view .LVU547
 2500              	.LBB462:
 2501              	.LBB460:
 2502              	.LBB458:
 2503              	.LBB456:
 2504              	.LBB454:
 2505              	.LBB452:
 2506              	.LBB450:
 2507              	.LBI450:
 2508              		.loc 6 544 57 view .LVU548
ARM GAS  /tmp/ccaKuZVb.s 			page 45


 2509              	.LBB451:
 2510              		.loc 6 546 3 view .LVU549
 2511 00a0 0023     		movs	r3, #0
 2512              		.syntax unified
 2513              	@ 546 ".//ChibiOS//os/ext/CMSIS/include/core_cmFunc.h" 1
 2514 00a2 83F31188 		MSR basepri, r3
 2515              	@ 0 "" 2
 2516              	.LVL168:
 2517              		.thumb
 2518              		.syntax unified
 2519              	.L146:
 2520              		.loc 6 546 3 is_stmt 0 view .LVU550
 2521              	.LBE451:
 2522              	.LBE450:
 2523              	.LBE452:
 2524              	.LBE454:
 2525              	.LBE456:
 2526              	.LBE458:
 2527              	.LBE460:
 2528              	.LBE462:
 2529              		.loc 1 366 1 view .LVU551
 2530 00a6 054B     		ldr	r3, .L161
 2531 00a8 1A68     		ldr	r2, [r3]
 2532 00aa 019B     		ldr	r3, [sp, #4]
 2533 00ac 5A40     		eors	r2, r3, r2
 2534 00ae 02D1     		bne	.L160
 2535 00b0 02B0     		add	sp, sp, #8
 2536              		.cfi_remember_state
 2537              		.cfi_def_cfa_offset 24
 2538              		@ sp needed
 2539 00b2 BDE8F081 		pop	{r4, r5, r6, r7, r8, pc}
 2540              	.LVL169:
 2541              	.L160:
 2542              		.cfi_restore_state
 2543              		.loc 1 366 1 view .LVU552
 2544 00b6 FFF7FEFF 		bl	__stack_chk_fail
 2545              	.LVL170:
 2546              	.L162:
 2547 00ba 00BF     		.align	2
 2548              	.L161:
 2549 00bc 00000000 		.word	.LC16
 2550              		.cfi_endproc
 2551              	.LFE272:
 2552              		.size	sduDataTransmitted, .-sduDataTransmitted
 2553              		.section	.rodata.sduDataReceived.cst4,"aM",%progbits,4
 2554              		.align	2
 2555              	.LC17:
 2556 0000 00000000 		.word	__stack_chk_guard
 2557              		.section	.text.sduDataReceived,"ax",%progbits
 2558              		.align	1
 2559              		.p2align 4,,15
 2560              		.global	sduDataReceived
 2561              		.syntax unified
 2562              		.thumb
 2563              		.thumb_func
 2564              		.fpu fpv4-sp-d16
 2565              		.type	sduDataReceived, %function
ARM GAS  /tmp/ccaKuZVb.s 			page 46


 2566              	sduDataReceived:
 2567              	.LVL171:
 2568              	.LFB273:
 2569              		.loc 1 376 51 is_stmt 1 view -0
 2570              		.cfi_startproc
 2571              		@ args = 0, pretend = 0, frame = 8
 2572              		@ frame_needed = 0, uses_anonymous_args = 0
 2573              		.loc 1 376 51 is_stmt 0 view .LVU554
 2574 0000 2DE9F043 		push	{r4, r5, r6, r7, r8, r9, lr}
 2575              		.cfi_def_cfa_offset 28
 2576              		.cfi_offset 4, -28
 2577              		.cfi_offset 5, -24
 2578              		.cfi_offset 6, -20
 2579              		.cfi_offset 7, -16
 2580              		.cfi_offset 8, -12
 2581              		.cfi_offset 9, -8
 2582              		.cfi_offset 14, -4
 2583              		.loc 1 378 20 view .LVU555
 2584 0004 01F10903 		add	r3, r1, #9
 2585              		.loc 1 376 51 view .LVU556
 2586 0008 284A     		ldr	r2, .L173
 2587              		.loc 1 378 20 view .LVU557
 2588 000a 50F82360 		ldr	r6, [r0, r3, lsl #2]
 2589              		.loc 1 376 51 view .LVU558
 2590 000e 83B0     		sub	sp, sp, #12
 2591              		.cfi_def_cfa_offset 40
 2592              		.loc 1 376 51 view .LVU559
 2593 0010 1268     		ldr	r2, [r2]
 2594 0012 0192     		str	r2, [sp, #4]
 2595 0014 4FF00002 		mov	r2,#0
 2596              		.loc 1 377 3 is_stmt 1 view .LVU560
 2597              		.loc 1 378 3 view .LVU561
 2598              	.LVL172:
 2599              		.loc 1 380 3 view .LVU562
 2600              		.loc 1 380 6 is_stmt 0 view .LVU563
 2601 0018 16B3     		cbz	r6, .L163
 2602              		.loc 1 384 3 is_stmt 1 view .LVU564
 2603              	.LBB463:
 2604              	.LBI463:
 2605              		.loc 3 467 20 view .LVU565
 2606              	.LBE463:
 2607              		.loc 3 469 3 view .LVU566
 2608              	.LBB477:
 2609              	.LBB464:
 2610              	.LBI464:
 2611              		.loc 4 386 20 view .LVU567
 2612              	.LBB465:
 2613              		.loc 4 388 3 view .LVU568
 2614              	.LBB466:
 2615              	.LBI466:
 2616              		.loc 5 473 20 view .LVU569
 2617              	.LBE466:
 2618              	.LBE465:
 2619              	.LBE464:
 2620              	.LBE477:
 2621              		.loc 5 475 3 view .LVU570
 2622              	.LBB478:
ARM GAS  /tmp/ccaKuZVb.s 			page 47


 2623              	.LBB475:
 2624              	.LBB473:
 2625              	.LBB471:
 2626              	.LBB467:
 2627              	.LBI467:
 2628              		.loc 5 444 20 view .LVU571
 2629              	.LBE467:
 2630              	.LBE471:
 2631              	.LBE473:
 2632              	.LBE475:
 2633              	.LBE478:
 2634              		.loc 5 447 3 view .LVU572
 2635              	.LVL173:
 2636              	.LBB479:
 2637              	.LBB476:
 2638              	.LBB474:
 2639              	.LBB472:
 2640              	.LBB470:
 2641              	.LBB468:
 2642              	.LBI468:
 2643              		.loc 6 544 57 view .LVU573
 2644              	.LBB469:
 2645              		.loc 6 546 3 view .LVU574
 2646 001a 0D46     		mov	r5, r1
 2647 001c 0446     		mov	r4, r0
 2648 001e 4FF02008 		mov	r8, #32
 2649              		.syntax unified
 2650              	@ 546 ".//ChibiOS//os/ext/CMSIS/include/core_cmFunc.h" 1
 2651 0022 88F31188 		MSR basepri, r8
 2652              	@ 0 "" 2
 2653              	.LVL174:
 2654              		.loc 6 546 3 is_stmt 0 view .LVU575
 2655              		.thumb
 2656              		.syntax unified
 2657              	.LBE469:
 2658              	.LBE468:
 2659              	.LBE470:
 2660              	.LBE472:
 2661              		.loc 4 389 3 is_stmt 1 view .LVU576
 2662 0026 FFF7FEFF 		bl	_stats_start_measure_crit_isr
 2663              	.LVL175:
 2664              		.loc 4 390 3 view .LVU577
 2665 002a FFF7FEFF 		bl	_dbg_check_lock_from_isr
 2666              	.LVL176:
 2667              	.LBE474:
 2668              	.LBE476:
 2669              	.LBE479:
 2670              		.loc 1 385 3 view .LVU578
 2671              	.LBB480:
 2672              	.LBI480:
 2673              		.loc 3 795 20 view .LVU579
 2674              	.LBB481:
 2675              		.loc 3 798 3 view .LVU580
 2676 002e 301D     		adds	r0, r6, #4
 2677              	.LVL177:
 2678              		.loc 3 798 3 is_stmt 0 view .LVU581
 2679 0030 0421     		movs	r1, #4
ARM GAS  /tmp/ccaKuZVb.s 			page 48


 2680 0032 FFF7FEFF 		bl	chEvtBroadcastFlagsI
 2681              	.LVL178:
 2682              		.loc 3 798 3 view .LVU582
 2683              	.LBE481:
 2684              	.LBE480:
 2685              		.loc 1 385 42 is_stmt 1 view .LVU583
 2686              		.loc 1 389 3 view .LVU584
 2687              		.loc 1 389 22 is_stmt 0 view .LVU585
 2688 0036 04EB8503 		add	r3, r4, r5, lsl #2
 2689              		.loc 1 389 26 view .LVU586
 2690 003a DB68     		ldr	r3, [r3, #12]
 2691              		.loc 1 389 11 view .LVU587
 2692 003c B3F81290 		ldrh	r9, [r3, #18]
 2693              	.LVL179:
 2694              		.loc 1 390 3 is_stmt 1 view .LVU588
 2695              	.LBB482:
 2696              	.LBI482:
 2697              		.loc 2 286 22 view .LVU589
 2698              	.LBB483:
 2699              		.loc 2 288 3 view .LVU590
 2700 0040 FFF7FEFF 		bl	chDbgCheckClassI
 2701              	.LVL180:
 2702              		.loc 2 290 3 view .LVU591
 2703              		.loc 2 290 19 is_stmt 0 view .LVU592
 2704 0044 D6E90632 		ldrd	r3, r2, [r6, #24]
 2705              		.loc 2 290 10 view .LVU593
 2706 0048 7769     		ldr	r7, [r6, #20]
 2707              		.loc 2 290 19 view .LVU594
 2708 004a D21A     		subs	r2, r2, r3
 2709              		.loc 2 290 10 view .LVU595
 2710 004c D71B     		subs	r7, r2, r7
 2711              	.LVL181:
 2712              		.loc 2 290 10 view .LVU596
 2713              	.LBE483:
 2714              	.LBE482:
 2715              		.loc 1 390 6 view .LVU597
 2716 004e B945     		cmp	r9, r7
 2717 0050 0ED9     		bls	.L171
 2718              	.LVL182:
 2719              	.L165:
 2720              		.loc 1 401 3 is_stmt 1 view .LVU598
 2721              	.LBB484:
 2722              	.LBI484:
 2723              		.loc 3 478 20 view .LVU599
 2724              	.LBB485:
 2725              		.loc 3 480 3 view .LVU600
 2726              	.LBB486:
 2727              	.LBI486:
 2728              		.loc 4 406 20 view .LVU601
 2729              	.LBB487:
 2730              		.loc 4 408 3 view .LVU602
 2731 0052 FFF7FEFF 		bl	_dbg_check_unlock_from_isr
 2732              	.LVL183:
 2733              		.loc 4 409 3 view .LVU603
 2734 0056 FFF7FEFF 		bl	_stats_stop_measure_crit_isr
 2735              	.LVL184:
 2736              		.loc 4 410 3 view .LVU604
ARM GAS  /tmp/ccaKuZVb.s 			page 49


 2737              	.LBB488:
 2738              	.LBI488:
 2739              		.loc 5 484 20 view .LVU605
 2740              	.LBE488:
 2741              	.LBE487:
 2742              	.LBE486:
 2743              	.LBE485:
 2744              	.LBE484:
 2745              		.loc 5 486 3 view .LVU606
 2746              	.LBB501:
 2747              	.LBB499:
 2748              	.LBB497:
 2749              	.LBB495:
 2750              	.LBB493:
 2751              	.LBB489:
 2752              	.LBI489:
 2753              		.loc 5 458 20 view .LVU607
 2754              	.LBE489:
 2755              	.LBE493:
 2756              	.LBE495:
 2757              	.LBE497:
 2758              	.LBE499:
 2759              	.LBE501:
 2760              		.loc 5 461 3 view .LVU608
 2761              	.LBB502:
 2762              	.LBB500:
 2763              	.LBB498:
 2764              	.LBB496:
 2765              	.LBB494:
 2766              	.LBB492:
 2767              	.LBB490:
 2768              	.LBI490:
 2769              		.loc 6 544 57 view .LVU609
 2770              	.LBB491:
 2771              		.loc 6 546 3 view .LVU610
 2772 005a 0023     		movs	r3, #0
 2773              		.syntax unified
 2774              	@ 546 ".//ChibiOS//os/ext/CMSIS/include/core_cmFunc.h" 1
 2775 005c 83F31188 		MSR basepri, r3
 2776              	@ 0 "" 2
 2777              	.LVL185:
 2778              		.thumb
 2779              		.syntax unified
 2780              	.L163:
 2781              		.loc 6 546 3 is_stmt 0 view .LVU611
 2782              	.LBE491:
 2783              	.LBE490:
 2784              	.LBE492:
 2785              	.LBE494:
 2786              	.LBE496:
 2787              	.LBE498:
 2788              	.LBE500:
 2789              	.LBE502:
 2790              		.loc 1 402 1 view .LVU612
 2791 0060 124B     		ldr	r3, .L173
 2792 0062 1A68     		ldr	r2, [r3]
 2793 0064 019B     		ldr	r3, [sp, #4]
ARM GAS  /tmp/ccaKuZVb.s 			page 50


 2794 0066 5A40     		eors	r2, r3, r2
 2795 0068 1ED1     		bne	.L172
 2796 006a 03B0     		add	sp, sp, #12
 2797              		.cfi_remember_state
 2798              		.cfi_def_cfa_offset 28
 2799              		@ sp needed
 2800 006c BDE8F083 		pop	{r4, r5, r6, r7, r8, r9, pc}
 2801              	.LVL186:
 2802              	.L171:
 2803              		.cfi_restore_state
 2804              		.loc 1 393 5 is_stmt 1 view .LVU613
 2805              	.LBB503:
 2806              	.LBI503:
 2807              		.loc 3 478 20 view .LVU614
 2808              	.LBE503:
 2809              		.loc 3 480 3 view .LVU615
 2810              	.LBB517:
 2811              	.LBB504:
 2812              	.LBI504:
 2813              		.loc 4 406 20 view .LVU616
 2814              	.LBB505:
 2815              		.loc 4 408 3 view .LVU617
 2816 0070 FFF7FEFF 		bl	_dbg_check_unlock_from_isr
 2817              	.LVL187:
 2818              		.loc 4 409 3 view .LVU618
 2819 0074 FFF7FEFF 		bl	_stats_stop_measure_crit_isr
 2820              	.LVL188:
 2821              		.loc 4 410 3 view .LVU619
 2822              	.LBB506:
 2823              	.LBI506:
 2824              		.loc 5 484 20 view .LVU620
 2825              	.LBE506:
 2826              	.LBE505:
 2827              	.LBE504:
 2828              	.LBE517:
 2829              		.loc 5 486 3 view .LVU621
 2830              	.LBB518:
 2831              	.LBB515:
 2832              	.LBB513:
 2833              	.LBB511:
 2834              	.LBB507:
 2835              	.LBI507:
 2836              		.loc 5 458 20 view .LVU622
 2837              	.LBE507:
 2838              	.LBE511:
 2839              	.LBE513:
 2840              	.LBE515:
 2841              	.LBE518:
 2842              		.loc 5 461 3 view .LVU623
 2843              	.LBB519:
 2844              	.LBB516:
 2845              	.LBB514:
 2846              	.LBB512:
 2847              	.LBB510:
 2848              	.LBB508:
 2849              	.LBI508:
 2850              		.loc 6 544 57 view .LVU624
ARM GAS  /tmp/ccaKuZVb.s 			page 51


 2851              	.LBB509:
 2852              		.loc 6 546 3 view .LVU625
 2853 0078 0023     		movs	r3, #0
 2854              		.syntax unified
 2855              	@ 546 ".//ChibiOS//os/ext/CMSIS/include/core_cmFunc.h" 1
 2856 007a 83F31188 		MSR basepri, r3
 2857              	@ 0 "" 2
 2858              	.LVL189:
 2859              		.loc 6 546 3 is_stmt 0 view .LVU626
 2860              		.thumb
 2861              		.syntax unified
 2862              	.LBE509:
 2863              	.LBE508:
 2864              	.LBE510:
 2865              	.LBE512:
 2866              	.LBE514:
 2867              	.LBE516:
 2868              	.LBE519:
 2869              		.loc 1 395 5 is_stmt 1 view .LVU627
 2870              		.loc 1 396 5 view .LVU628
 2871 007e 06F10C02 		add	r2, r6, #12
 2872 0082 2946     		mov	r1, r5
 2873 0084 2046     		mov	r0, r4
 2874              		.loc 1 395 12 is_stmt 0 view .LVU629
 2875 0086 B7FBF9F7 		udiv	r7, r7, r9
 2876              	.LVL190:
 2877              		.loc 1 396 5 view .LVU630
 2878 008a 09FB07F3 		mul	r3, r9, r7
 2879              	.LVL191:
 2880              		.loc 1 396 5 view .LVU631
 2881 008e FFF7FEFF 		bl	usbPrepareQueuedReceive
 2882              	.LVL192:
 2883              		.loc 1 398 5 is_stmt 1 view .LVU632
 2884              	.LBB520:
 2885              	.LBI520:
 2886              		.loc 3 467 20 view .LVU633
 2887              	.LBE520:
 2888              		.loc 3 469 3 view .LVU634
 2889              	.LBB534:
 2890              	.LBB521:
 2891              	.LBI521:
 2892              		.loc 4 386 20 view .LVU635
 2893              	.LBB522:
 2894              		.loc 4 388 3 view .LVU636
 2895              	.LBB523:
 2896              	.LBI523:
 2897              		.loc 5 473 20 view .LVU637
 2898              	.LBE523:
 2899              	.LBE522:
 2900              	.LBE521:
 2901              	.LBE534:
 2902              		.loc 5 475 3 view .LVU638
 2903              	.LBB535:
 2904              	.LBB532:
 2905              	.LBB530:
 2906              	.LBB528:
 2907              	.LBB524:
ARM GAS  /tmp/ccaKuZVb.s 			page 52


 2908              	.LBI524:
 2909              		.loc 5 444 20 view .LVU639
 2910              	.LBE524:
 2911              	.LBE528:
 2912              	.LBE530:
 2913              	.LBE532:
 2914              	.LBE535:
 2915              		.loc 5 447 3 view .LVU640
 2916              	.LBB536:
 2917              	.LBB533:
 2918              	.LBB531:
 2919              	.LBB529:
 2920              	.LBB527:
 2921              	.LBB525:
 2922              	.LBI525:
 2923              		.loc 6 544 57 view .LVU641
 2924              	.LBB526:
 2925              		.loc 6 546 3 view .LVU642
 2926              		.syntax unified
 2927              	@ 546 ".//ChibiOS//os/ext/CMSIS/include/core_cmFunc.h" 1
 2928 0092 88F31188 		MSR basepri, r8
 2929              	@ 0 "" 2
 2930              	.LVL193:
 2931              		.loc 6 546 3 is_stmt 0 view .LVU643
 2932              		.thumb
 2933              		.syntax unified
 2934              	.LBE526:
 2935              	.LBE525:
 2936              	.LBE527:
 2937              	.LBE529:
 2938              		.loc 4 389 3 is_stmt 1 view .LVU644
 2939 0096 FFF7FEFF 		bl	_stats_start_measure_crit_isr
 2940              	.LVL194:
 2941              		.loc 4 390 3 view .LVU645
 2942 009a FFF7FEFF 		bl	_dbg_check_lock_from_isr
 2943              	.LVL195:
 2944              	.LBE531:
 2945              	.LBE533:
 2946              	.LBE536:
 2947              		.loc 1 399 5 view .LVU646
 2948              		.loc 1 399 12 is_stmt 0 view .LVU647
 2949 009e 2946     		mov	r1, r5
 2950 00a0 2046     		mov	r0, r4
 2951 00a2 FFF7FEFF 		bl	usbStartReceiveI
 2952              	.LVL196:
 2953 00a6 D4E7     		b	.L165
 2954              	.LVL197:
 2955              	.L172:
 2956              		.loc 1 402 1 view .LVU648
 2957 00a8 FFF7FEFF 		bl	__stack_chk_fail
 2958              	.LVL198:
 2959              	.L174:
 2960              		.align	2
 2961              	.L173:
 2962 00ac 00000000 		.word	.LC17
 2963              		.cfi_endproc
 2964              	.LFE273:
ARM GAS  /tmp/ccaKuZVb.s 			page 53


 2965              		.size	sduDataReceived, .-sduDataReceived
 2966              		.section	.rodata.sduInterruptTransmitted.cst4,"aM",%progbits,4
 2967              		.align	2
 2968              	.LC18:
 2969 0000 00000000 		.word	__stack_chk_guard
 2970              		.section	.text.sduInterruptTransmitted,"ax",%progbits
 2971              		.align	1
 2972              		.p2align 4,,15
 2973              		.global	sduInterruptTransmitted
 2974              		.syntax unified
 2975              		.thumb
 2976              		.thumb_func
 2977              		.fpu fpv4-sp-d16
 2978              		.type	sduInterruptTransmitted, %function
 2979              	sduInterruptTransmitted:
 2980              	.LVL199:
 2981              	.LFB274:
 2982              		.loc 1 412 59 is_stmt 1 view -0
 2983              		.cfi_startproc
 2984              		@ args = 0, pretend = 0, frame = 8
 2985              		@ frame_needed = 0, uses_anonymous_args = 0
 2986              		.loc 1 412 59 is_stmt 0 view .LVU650
 2987 0000 00B5     		push	{lr}
 2988              		.cfi_def_cfa_offset 4
 2989              		.cfi_offset 14, -4
 2990 0002 084B     		ldr	r3, .L179
 2991 0004 83B0     		sub	sp, sp, #12
 2992              		.cfi_def_cfa_offset 16
 2993              		.loc 1 412 59 view .LVU651
 2994 0006 1B68     		ldr	r3, [r3]
 2995 0008 0193     		str	r3, [sp, #4]
 2996 000a 4FF00003 		mov	r3,#0
 2997              		.loc 1 414 3 is_stmt 1 view .LVU652
 2998              		.loc 1 415 3 view .LVU653
 2999              		.loc 1 416 1 is_stmt 0 view .LVU654
 3000 000e 054B     		ldr	r3, .L179
 3001 0010 1A68     		ldr	r2, [r3]
 3002 0012 019B     		ldr	r3, [sp, #4]
 3003 0014 5A40     		eors	r2, r3, r2
 3004 0016 02D1     		bne	.L178
 3005 0018 03B0     		add	sp, sp, #12
 3006              		.cfi_remember_state
 3007              		.cfi_def_cfa_offset 4
 3008              		@ sp needed
 3009 001a 5DF804FB 		ldr	pc, [sp], #4
 3010              	.L178:
 3011              		.cfi_restore_state
 3012 001e FFF7FEFF 		bl	__stack_chk_fail
 3013              	.LVL200:
 3014              	.L180:
 3015              		.loc 1 416 1 view .LVU655
 3016 0022 00BF     		.align	2
 3017              	.L179:
 3018 0024 00000000 		.word	.LC18
 3019              		.cfi_endproc
 3020              	.LFE274:
 3021              		.size	sduInterruptTransmitted, .-sduInterruptTransmitted
ARM GAS  /tmp/ccaKuZVb.s 			page 54


 3022              		.section	.data.linecoding,"aw"
 3023              		.align	2
 3024              		.set	.LANCHOR4,. + 0
 3025              		.type	linecoding, %object
 3026              		.size	linecoding, 7
 3027              	linecoding:
 3028 0000 00960000 		.ascii	"\000\226\000\000"
 3029 0004 00       		.byte	0
 3030 0005 00       		.byte	0
 3031 0006 08       		.byte	8
 3032              		.section	.rodata.__func__.10008,"a"
 3033              		.align	2
 3034              		.set	.LANCHOR2,. + 0
 3035              		.type	__func__.10008, %object
 3036              		.size	__func__.10008, 9
 3037              	__func__.10008:
 3038 0000 73647553 		.ascii	"sduStart\000"
 3038      74617274 
 3038      00
 3039              		.section	.rodata.__func__.10013,"a"
 3040              		.align	2
 3041              		.set	.LANCHOR3,. + 0
 3042              		.type	__func__.10013, %object
 3043              		.size	__func__.10013, 8
 3044              	__func__.10013:
 3045 0000 73647553 		.ascii	"sduStop\000"
 3045      746F7000 
 3046              		.section	.rodata.__func__.7261,"a"
 3047              		.align	2
 3048              		.set	.LANCHOR0,. + 0
 3049              		.type	__func__.7261, %object
 3050              		.size	__func__.7261, 12
 3051              	__func__.7261:
 3052 0000 63685379 		.ascii	"chSysUnlock\000"
 3052      73556E6C 
 3052      6F636B00 
 3053              		.section	.rodata.vmt,"a"
 3054              		.align	2
 3055              		.set	.LANCHOR1,. + 0
 3056              		.type	vmt, %object
 3057              		.size	vmt, 32
 3058              	vmt:
 3059 0000 00000000 		.word	write
 3060 0004 00000000 		.word	read
 3061 0008 00000000 		.word	put
 3062 000c 00000000 		.word	get
 3063 0010 00000000 		.word	putt
 3064 0014 00000000 		.word	gett
 3065 0018 00000000 		.word	writet
 3066 001c 00000000 		.word	readt
 3067              		.text
 3068              	.Letext0:
 3069              		.file 8 "/usr/lib/gcc/arm-none-eabi/9.2.1/include/stddef.h"
 3070              		.file 9 "/usr/lib/gcc/arm-none-eabi/9.2.1/include/stdint.h"
 3071              		.file 10 ".//ChibiOS//os/rt/ports/ARMCMx/compilers/GCC/chtypes.h"
 3072              		.file 11 ".//ChibiOS//os/rt/include/chsystypes.h"
 3073              		.file 12 ".//ChibiOS//os/rt/include/chschd.h"
ARM GAS  /tmp/ccaKuZVb.s 			page 55


 3074              		.file 13 ".//ChibiOS//os/ext/CMSIS/include/core_cm4.h"
 3075              		.file 14 ".//ChibiOS//os/ext/CMSIS/ST/system_stm32f4xx.h"
 3076              		.file 15 ".//ChibiOS//os/ext/CMSIS/ST/stm32f407xx.h"
 3077              		.file 16 ".//ChibiOS//os/rt/ports/ARMCMx/chcore.h"
 3078              		.file 17 ".//ChibiOS//os/rt/include/chdebug.h"
 3079              		.file 18 ".//ChibiOS//os/rt/include/chtm.h"
 3080              		.file 19 ".//ChibiOS//os/rt/include/chstats.h"
 3081              		.file 20 ".//ChibiOS//os/rt/include/chsem.h"
 3082              		.file 21 ".//ChibiOS//os/rt/include/chmtx.h"
 3083              		.file 22 ".//ChibiOS//os/rt/include/chregistry.h"
 3084              		.file 23 ".//ChibiOS//os/hal/ports/STM32/STM32F4xx/stm32_dma.h"
 3085              		.file 24 ".//ChibiOS//os/hal/include/hal_ioblock.h"
 3086              		.file 25 ".//ChibiOS//os/hal/ports/STM32/LLD/GPIOv2/pal_lld.h"
 3087              		.file 26 ".//ChibiOS//os/hal/include/adc.h"
 3088              		.file 27 ".//ChibiOS//os/hal/ports/STM32/STM32F4xx/adc_lld.h"
 3089              		.file 28 ".//ChibiOS//os/hal/include/can.h"
 3090              		.file 29 ".//ChibiOS//os/hal/ports/STM32/LLD/can_lld.h"
 3091              		.file 30 ".//ChibiOS//os/hal/include/dac.h"
 3092              		.file 31 ".//ChibiOS//os/hal/ports/STM32/LLD/DACv1/dac_lld.h"
 3093              		.file 32 ".//ChibiOS//os/hal/include/ext.h"
 3094              		.file 33 ".//ChibiOS//os/hal/ports/STM32/LLD/ext_lld.h"
 3095              		.file 34 ".//ChibiOS//os/hal/include/gpt.h"
 3096              		.file 35 ".//ChibiOS//os/hal/ports/STM32/LLD/TIMv1/gpt_lld.h"
 3097              		.file 36 ".//ChibiOS//os/hal/ports/STM32/LLD/TIMv1/stm32_tim.h"
 3098              		.file 37 ".//ChibiOS//os/hal/include/i2c.h"
 3099              		.file 38 ".//ChibiOS//os/hal/ports/STM32/LLD/I2Cv1/i2c_lld.h"
 3100              		.file 39 ".//ChibiOS//os/hal/include/i2s.h"
 3101              		.file 40 ".//ChibiOS//os/hal/ports/STM32/LLD/SPIv1/i2s_lld.h"
 3102              		.file 41 ".//ChibiOS//os/hal/include/pwm.h"
 3103              		.file 42 ".//ChibiOS//os/hal/ports/STM32/LLD/TIMv1/pwm_lld.h"
 3104              		.file 43 ".//ChibiOS//os/hal/include/serial.h"
 3105              		.file 44 ".//ChibiOS//os/hal/ports/STM32/LLD/USARTv1/serial_lld.h"
 3106              		.file 45 ".//ChibiOS//os/hal/include/sdc.h"
 3107              		.file 46 ".//ChibiOS//os/hal/ports/STM32/LLD/sdc_lld.h"
 3108              		.file 47 ".//ChibiOS//os/hal/include/spi.h"
 3109              		.file 48 ".//ChibiOS//os/hal/ports/STM32/LLD/SPIv1/spi_lld.h"
 3110              		.file 49 ".//ChibiOS//os/hal/include/usb.h"
 3111              		.file 50 ".//ChibiOS//os/hal/ports/STM32/LLD/OTGv1/usb_lld.h"
 3112              		.file 51 ".//ChibiOS//os/hal/ports/STM32/LLD/OTGv1/stm32_otg.h"
 3113              		.file 52 ".//ChibiOS//os/hal/include/serial_usb.h"