ARM GAS  /tmp/ccjKqlYN.s 			page 1


   1              		.cpu cortex-m4
   2              		.eabi_attribute 27, 1
   3              		.eabi_attribute 28, 1
   4              		.eabi_attribute 20, 1
   5              		.eabi_attribute 21, 1
   6              		.eabi_attribute 23, 3
   7              		.eabi_attribute 24, 1
   8              		.eabi_attribute 25, 1
   9              		.eabi_attribute 26, 1
  10              		.eabi_attribute 30, 2
  11              		.eabi_attribute 34, 1
  12              		.eabi_attribute 18, 4
  13              		.file	"serial_lld.c"
  14              		.text
  15              	.Ltext0:
  16              		.cfi_sections	.debug_frame
  17              		.section	.rodata.notify3.cst4,"aM",%progbits,4
  18              		.align	2
  19              	.LC0:
  20 0000 00000000 		.word	__stack_chk_guard
  21              		.section	.text.notify3,"ax",%progbits
  22              		.align	1
  23              		.p2align 4,,15
  24              		.arch armv7e-m
  25              		.syntax unified
  26              		.thumb
  27              		.thumb_func
  28              		.fpu fpv4-sp-d16
  29              		.type	notify3, %function
  30              	notify3:
  31              	.LVL0:
  32              	.LFB260:
  33              		.file 1 ".//ChibiOS//os/hal/ports/STM32/LLD/USARTv1/serial_lld.c"
  34              		.loc 1 224 37 view -0
  35              		.cfi_startproc
  36              		@ args = 0, pretend = 0, frame = 8
  37              		@ frame_needed = 0, uses_anonymous_args = 0
  38              		.loc 1 224 37 is_stmt 0 view .LVU1
  39 0000 00B5     		push	{lr}
  40              		.cfi_def_cfa_offset 4
  41              		.cfi_offset 14, -4
  42 0002 0A4B     		ldr	r3, .L6
  43              		.loc 1 227 15 view .LVU2
  44 0004 0A4A     		ldr	r2, .L6+4
  45              		.loc 1 224 37 view .LVU3
  46 0006 83B0     		sub	sp, sp, #12
  47              		.cfi_def_cfa_offset 16
  48              		.loc 1 224 37 view .LVU4
  49 0008 1B68     		ldr	r3, [r3]
  50 000a 0193     		str	r3, [sp, #4]
  51 000c 4FF00003 		mov	r3,#0
  52              		.loc 1 226 3 is_stmt 1 view .LVU5
  53              		.loc 1 227 3 view .LVU6
  54              		.loc 1 227 15 is_stmt 0 view .LVU7
  55 0010 D368     		ldr	r3, [r2, #12]
  56 0012 43F08003 		orr	r3, r3, #128
  57 0016 D360     		str	r3, [r2, #12]
ARM GAS  /tmp/ccjKqlYN.s 			page 2


  58              		.loc 1 228 1 view .LVU8
  59 0018 044B     		ldr	r3, .L6
  60 001a 1A68     		ldr	r2, [r3]
  61 001c 019B     		ldr	r3, [sp, #4]
  62 001e 5A40     		eors	r2, r3, r2
  63 0020 02D1     		bne	.L5
  64 0022 03B0     		add	sp, sp, #12
  65              		.cfi_remember_state
  66              		.cfi_def_cfa_offset 4
  67              		@ sp needed
  68 0024 5DF804FB 		ldr	pc, [sp], #4
  69              	.L5:
  70              		.cfi_restore_state
  71 0028 FFF7FEFF 		bl	__stack_chk_fail
  72              	.LVL1:
  73              	.L7:
  74              		.loc 1 228 1 view .LVU9
  75              		.align	2
  76              	.L6:
  77 002c 00000000 		.word	.LC0
  78 0030 00480040 		.word	1073760256
  79              		.cfi_endproc
  80              	.LFE260:
  81              		.size	notify3, .-notify3
  82              		.section	.rodata.VectorDC.cst4,"aM",%progbits,4
  83              		.align	2
  84              	.LC1:
  85 0000 00000000 		.word	__stack_chk_guard
  86              		.section	.text.VectorDC,"ax",%progbits
  87              		.align	1
  88              		.p2align 4,,15
  89              		.global	VectorDC
  90              		.syntax unified
  91              		.thumb
  92              		.thumb_func
  93              		.fpu fpv4-sp-d16
  94              		.type	VectorDC, %function
  95              	VectorDC:
  96              	.LFB261:
  97              		.loc 1 306 40 is_stmt 1 view -0
  98              		.cfi_startproc
  99              		@ args = 0, pretend = 0, frame = 8
 100              		@ frame_needed = 0, uses_anonymous_args = 0
 101 0000 2DE9F043 		push	{r4, r5, r6, r7, r8, r9, lr}
 102              		.cfi_def_cfa_offset 28
 103              		.cfi_offset 4, -28
 104              		.cfi_offset 5, -24
 105              		.cfi_offset 6, -20
 106              		.cfi_offset 7, -16
 107              		.cfi_offset 8, -12
 108              		.cfi_offset 9, -8
 109              		.cfi_offset 14, -4
 110 0004 624B     		ldr	r3, .L66
 111              	.LBB264:
 112              	.LBB265:
 113              		.loc 1 154 18 is_stmt 0 view .LVU11
 114 0006 634E     		ldr	r6, .L66+4
ARM GAS  /tmp/ccjKqlYN.s 			page 3


 115              	.LBE265:
 116              	.LBE264:
 117              		.loc 1 306 40 view .LVU12
 118 0008 83B0     		sub	sp, sp, #12
 119              		.cfi_def_cfa_offset 40
 120              		.loc 1 306 40 view .LVU13
 121 000a 1B68     		ldr	r3, [r3]
 122 000c 0193     		str	r3, [sp, #4]
 123 000e 4FF00003 		mov	r3,#0
 124              		.loc 1 308 3 is_stmt 1 view .LVU14
 125              		.loc 1 308 3 view .LVU15
 126 0012 FFF7FEFF 		bl	_stats_increase_irq
 127              	.LVL2:
 128              		.loc 1 308 3 view .LVU16
 129 0016 FFF7FEFF 		bl	_dbg_check_enter_isr
 130              	.LVL3:
 131              		.loc 1 310 3 view .LVU17
 132              	.LBB460:
 133              	.LBI264:
 134              		.loc 1 153 13 view .LVU18
 135              	.LBB437:
 136              		.loc 1 154 3 view .LVU19
 137              		.loc 1 154 18 is_stmt 0 view .LVU20
 138 001a 756F     		ldr	r5, [r6, #116]
 139              	.LVL4:
 140              		.loc 1 155 3 is_stmt 1 view .LVU21
 141              		.loc 1 155 19 is_stmt 0 view .LVU22
 142 001c D5F80C80 		ldr	r8, [r5, #12]
 143              	.LVL5:
 144              		.loc 1 156 3 is_stmt 1 view .LVU23
 145              		.loc 1 156 18 is_stmt 0 view .LVU24
 146 0020 2B68     		ldr	r3, [r5]
 147              		.loc 1 159 6 view .LVU25
 148 0022 DA05     		lsls	r2, r3, #23
 149              		.loc 1 156 12 view .LVU26
 150 0024 9CB2     		uxth	r4, r3
 151              	.LVL6:
 152              		.loc 1 159 3 is_stmt 1 view .LVU27
 153              		.loc 1 159 6 is_stmt 0 view .LVU28
 154 0026 00F18580 		bmi	.L59
 155              	.L9:
 156              		.loc 1 167 3 is_stmt 1 view .LVU29
 157              	.LBB266:
 158              	.LBI266:
 159              		.file 2 ".//ChibiOS//os/hal/osal/rt/osal.h"
 160              		.loc 2 467 20 view .LVU30
 161              	.LBE266:
 162              	.LBE437:
 163              	.LBE460:
 164              		.loc 2 469 3 view .LVU31
 165              	.LBB461:
 166              	.LBB438:
 167              	.LBB280:
 168              	.LBB267:
 169              	.LBI267:
 170              		.file 3 ".//ChibiOS//os/rt/include/chsys.h"
 171              		.loc 3 386 20 view .LVU32
ARM GAS  /tmp/ccjKqlYN.s 			page 4


 172              	.LBB268:
 173              		.loc 3 388 3 view .LVU33
 174              	.LBB269:
 175              	.LBI269:
 176              		.file 4 ".//ChibiOS//os/rt/ports/ARMCMx/chcore_v7m.h"
 177              		.loc 4 473 20 view .LVU34
 178              	.LBE269:
 179              	.LBE268:
 180              	.LBE267:
 181              	.LBE280:
 182              	.LBE438:
 183              	.LBE461:
 184              		.loc 4 475 3 view .LVU35
 185              	.LBB462:
 186              	.LBB439:
 187              	.LBB281:
 188              	.LBB278:
 189              	.LBB276:
 190              	.LBB274:
 191              	.LBB270:
 192              	.LBI270:
 193              		.loc 4 444 20 view .LVU36
 194              	.LBE270:
 195              	.LBE274:
 196              	.LBE276:
 197              	.LBE278:
 198              	.LBE281:
 199              	.LBE439:
 200              	.LBE462:
 201              		.loc 4 447 3 view .LVU37
 202              	.LVL7:
 203              	.LBB463:
 204              	.LBB440:
 205              	.LBB282:
 206              	.LBB279:
 207              	.LBB277:
 208              	.LBB275:
 209              	.LBB273:
 210              	.LBB271:
 211              	.LBI271:
 212              		.file 5 ".//ChibiOS//os/ext/CMSIS/include/core_cmFunc.h"
 213              		.loc 5 544 57 view .LVU38
 214              	.LBB272:
 215              		.loc 5 546 3 view .LVU39
 216 002a 2023     		movs	r3, #32
 217              		.syntax unified
 218              	@ 546 ".//ChibiOS//os/ext/CMSIS/include/core_cmFunc.h" 1
 219 002c 83F31188 		MSR basepri, r3
 220              	@ 0 "" 2
 221              	.LVL8:
 222              		.loc 5 546 3 is_stmt 0 view .LVU40
 223              		.thumb
 224              		.syntax unified
 225              	.LBE272:
 226              	.LBE271:
 227              	.LBE273:
 228              	.LBE275:
ARM GAS  /tmp/ccjKqlYN.s 			page 5


 229              		.loc 3 389 3 is_stmt 1 view .LVU41
 230 0030 FFF7FEFF 		bl	_stats_start_measure_crit_isr
 231              	.LVL9:
 232              		.loc 3 390 3 view .LVU42
 233 0034 FFF7FEFF 		bl	_dbg_check_lock_from_isr
 234              	.LVL10:
 235              		.loc 3 390 3 is_stmt 0 view .LVU43
 236              	.LBE277:
 237              	.LBE279:
 238              	.LBE282:
 239              		.loc 1 168 9 is_stmt 1 view .LVU44
 240 0038 14F02F0F 		tst	r4, #47
 241 003c 2DD0     		beq	.L10
 242              	.LBB283:
 243              	.LBB284:
 244              	.LBB285:
 245              	.LBB286:
 246              	.LBB287:
 247              		.loc 2 798 3 is_stmt 0 view .LVU45
 248 003e 564F     		ldr	r7, .L66+8
 249              	.LBE287:
 250              	.LBE286:
 251              	.LBE285:
 252              	.LBE284:
 253              		.loc 1 177 7 view .LVU46
 254 0040 A7F10409 		sub	r9, r7, #4
 255 0044 07E0     		b	.L17
 256              	.L11:
 257              		.loc 1 175 5 is_stmt 1 view .LVU47
 258              		.loc 1 176 8 is_stmt 0 view .LVU48
 259 0046 A006     		lsls	r0, r4, #26
 260              		.loc 1 175 10 view .LVU49
 261 0048 6968     		ldr	r1, [r5, #4]
 262              	.LVL11:
 263              		.loc 1 176 5 is_stmt 1 view .LVU50
 264              		.loc 1 176 8 is_stmt 0 view .LVU51
 265 004a 1DD4     		bmi	.L60
 266              	.L16:
 267              		.loc 1 178 5 is_stmt 1 view .LVU52
 268              		.loc 1 178 11 is_stmt 0 view .LVU53
 269 004c 2B68     		ldr	r3, [r5]
 270              	.LBE283:
 271              		.loc 1 168 9 view .LVU54
 272 004e 13F02F0F 		tst	r3, #47
 273              	.LBB292:
 274              		.loc 1 178 8 view .LVU55
 275 0052 9CB2     		uxth	r4, r3
 276              	.LVL12:
 277              		.loc 1 178 8 view .LVU56
 278              	.LBE292:
 279              		.loc 1 168 9 is_stmt 1 view .LVU57
 280 0054 21D0     		beq	.L10
 281              	.LVL13:
 282              	.L17:
 283              	.LBB293:
 284              		.loc 1 170 5 view .LVU58
 285              		.loc 1 173 5 view .LVU59
ARM GAS  /tmp/ccjKqlYN.s 			page 6


 286              		.loc 1 173 8 is_stmt 0 view .LVU60
 287 0056 2307     		lsls	r3, r4, #28
 288 0058 F5D0     		beq	.L11
 289              		.loc 1 174 7 is_stmt 1 view .LVU61
 290              	.LVL14:
 291              	.LBB291:
 292              	.LBI284:
 293              		.loc 1 134 13 view .LVU62
 294              	.LBB290:
 295              		.loc 1 135 3 view .LVU63
 296              		.loc 1 137 3 view .LVU64
 297              		.loc 1 138 9 is_stmt 0 view .LVU65
 298 005a 14F0080F 		tst	r4, #8
 299 005e 0CBF     		ite	eq
 300 0060 0021     		moveq	r1, #0
 301 0062 8021     		movne	r1, #128
 302              	.LVL15:
 303              		.loc 1 139 3 is_stmt 1 view .LVU66
 304              		.loc 1 139 6 is_stmt 0 view .LVU67
 305 0064 E007     		lsls	r0, r4, #31
 306              		.loc 1 140 5 is_stmt 1 view .LVU68
 307              		.loc 1 140 9 is_stmt 0 view .LVU69
 308 0066 48BF     		it	mi
 309 0068 41F02001 		orrmi	r1, r1, #32
 310              	.LVL16:
 311              		.loc 1 141 3 is_stmt 1 view .LVU70
 312              		.loc 1 141 6 is_stmt 0 view .LVU71
 313 006c A207     		lsls	r2, r4, #30
 314              		.loc 1 142 5 is_stmt 1 view .LVU72
 315              		.loc 1 142 9 is_stmt 0 view .LVU73
 316 006e 48BF     		it	mi
 317 0070 41F04001 		orrmi	r1, r1, #64
 318              	.LVL17:
 319              		.loc 1 143 3 is_stmt 1 view .LVU74
 320              		.loc 1 143 6 is_stmt 0 view .LVU75
 321 0074 6307     		lsls	r3, r4, #29
 322              		.loc 1 144 5 is_stmt 1 view .LVU76
 323              		.loc 1 144 9 is_stmt 0 view .LVU77
 324 0076 48BF     		it	mi
 325 0078 41F48071 		orrmi	r1, r1, #256
 326              	.LVL18:
 327              		.loc 1 145 3 is_stmt 1 view .LVU78
 328              	.LBB289:
 329              	.LBI286:
 330              		.loc 2 795 20 view .LVU79
 331              	.LBB288:
 332              		.loc 2 798 3 view .LVU80
 333 007c 3846     		mov	r0, r7
 334 007e FFF7FEFF 		bl	chEvtBroadcastFlagsI
 335              	.LVL19:
 336              		.loc 2 798 3 is_stmt 0 view .LVU81
 337              	.LBE288:
 338              	.LBE289:
 339              		.loc 1 145 25 is_stmt 1 view .LVU82
 340              		.loc 1 145 25 is_stmt 0 view .LVU83
 341              	.LBE290:
 342              	.LBE291:
ARM GAS  /tmp/ccjKqlYN.s 			page 7


 343              		.loc 1 175 5 is_stmt 1 view .LVU84
 344              		.loc 1 176 8 is_stmt 0 view .LVU85
 345 0082 A006     		lsls	r0, r4, #26
 346              		.loc 1 175 10 view .LVU86
 347 0084 6968     		ldr	r1, [r5, #4]
 348              	.LVL20:
 349              		.loc 1 176 5 is_stmt 1 view .LVU87
 350              		.loc 1 176 8 is_stmt 0 view .LVU88
 351 0086 E1D5     		bpl	.L16
 352              	.L60:
 353              		.loc 1 177 7 is_stmt 1 view .LVU89
 354 0088 C9B2     		uxtb	r1, r1
 355              		.loc 1 177 7 is_stmt 0 view .LVU90
 356 008a 4846     		mov	r0, r9
 357 008c FFF7FEFF 		bl	sdIncomingDataI
 358              	.LVL21:
 359              		.loc 1 178 5 is_stmt 1 view .LVU91
 360              		.loc 1 178 11 is_stmt 0 view .LVU92
 361 0090 2B68     		ldr	r3, [r5]
 362              	.LBE293:
 363              		.loc 1 168 9 view .LVU93
 364 0092 13F02F0F 		tst	r3, #47
 365              	.LBB294:
 366              		.loc 1 178 8 view .LVU94
 367 0096 9CB2     		uxth	r4, r3
 368              	.LVL22:
 369              		.loc 1 178 8 view .LVU95
 370              	.LBE294:
 371              		.loc 1 168 9 is_stmt 1 view .LVU96
 372 0098 DDD1     		bne	.L17
 373              	.L10:
 374              		.loc 1 180 3 view .LVU97
 375              	.LBB295:
 376              	.LBI295:
 377              		.loc 2 478 20 view .LVU98
 378              	.LBE295:
 379              	.LBE440:
 380              	.LBE463:
 381              		.loc 2 480 3 view .LVU99
 382              	.LBB464:
 383              	.LBB441:
 384              	.LBB309:
 385              	.LBB296:
 386              	.LBI296:
 387              		.loc 3 406 20 view .LVU100
 388              	.LBB297:
 389              		.loc 3 408 3 view .LVU101
 390 009a FFF7FEFF 		bl	_dbg_check_unlock_from_isr
 391              	.LVL23:
 392              		.loc 3 409 3 view .LVU102
 393 009e FFF7FEFF 		bl	_stats_stop_measure_crit_isr
 394              	.LVL24:
 395              		.loc 3 410 3 view .LVU103
 396              	.LBB298:
 397              	.LBI298:
 398              		.loc 4 484 20 view .LVU104
 399              	.LBE298:
ARM GAS  /tmp/ccjKqlYN.s 			page 8


 400              	.LBE297:
 401              	.LBE296:
 402              	.LBE309:
 403              	.LBE441:
 404              	.LBE464:
 405              		.loc 4 486 3 view .LVU105
 406              	.LBB465:
 407              	.LBB442:
 408              	.LBB310:
 409              	.LBB307:
 410              	.LBB305:
 411              	.LBB303:
 412              	.LBB299:
 413              	.LBI299:
 414              		.loc 4 458 20 view .LVU106
 415              	.LBE299:
 416              	.LBE303:
 417              	.LBE305:
 418              	.LBE307:
 419              	.LBE310:
 420              	.LBE442:
 421              	.LBE465:
 422              		.loc 4 461 3 view .LVU107
 423              	.LBB466:
 424              	.LBB443:
 425              	.LBB311:
 426              	.LBB308:
 427              	.LBB306:
 428              	.LBB304:
 429              	.LBB302:
 430              	.LBB300:
 431              	.LBI300:
 432              		.loc 5 544 57 view .LVU108
 433              	.LBB301:
 434              		.loc 5 546 3 view .LVU109
 435 00a2 0023     		movs	r3, #0
 436              		.syntax unified
 437              	@ 546 ".//ChibiOS//os/ext/CMSIS/include/core_cmFunc.h" 1
 438 00a4 83F31188 		MSR basepri, r3
 439              	@ 0 "" 2
 440              	.LVL25:
 441              		.loc 5 546 3 is_stmt 0 view .LVU110
 442              		.thumb
 443              		.syntax unified
 444              	.LBE301:
 445              	.LBE300:
 446              	.LBE302:
 447              	.LBE304:
 448              	.LBE306:
 449              	.LBE308:
 450              	.LBE311:
 451              		.loc 1 183 3 is_stmt 1 view .LVU111
 452              		.loc 1 183 6 is_stmt 0 view .LVU112
 453 00a8 18F0800F 		tst	r8, #128
 454 00ac 0DD1     		bne	.L61
 455              	.L18:
 456              		.loc 1 197 3 is_stmt 1 view .LVU113
ARM GAS  /tmp/ccjKqlYN.s 			page 9


 457              		.loc 1 197 6 is_stmt 0 view .LVU114
 458 00ae 6306     		lsls	r3, r4, #25
 459 00b0 23D4     		bmi	.L62
 460              	.L21:
 461              	.LVL26:
 462              		.loc 1 197 6 view .LVU115
 463              	.LBE443:
 464              	.LBE466:
 465              		.loc 1 312 3 is_stmt 1 view .LVU116
 466 00b2 FFF7FEFF 		bl	_dbg_check_leave_isr
 467              	.LVL27:
 468              		.loc 1 312 3 view .LVU117
 469 00b6 364B     		ldr	r3, .L66
 470 00b8 1A68     		ldr	r2, [r3]
 471 00ba 019B     		ldr	r3, [sp, #4]
 472 00bc 5A40     		eors	r2, r3, r2
 473 00be 64D1     		bne	.L63
 474              		.loc 1 313 1 is_stmt 0 view .LVU118
 475 00c0 03B0     		add	sp, sp, #12
 476              		.cfi_remember_state
 477              		.cfi_def_cfa_offset 28
 478              		@ sp needed
 479 00c2 BDE8F043 		pop	{r4, r5, r6, r7, r8, r9, lr}
 480              		.cfi_restore 14
 481              		.cfi_restore 9
 482              		.cfi_restore 8
 483              		.cfi_restore 7
 484              		.cfi_restore 6
 485              		.cfi_restore 5
 486              		.cfi_restore 4
 487              		.cfi_def_cfa_offset 0
 488              	.LVL28:
 489              		.loc 1 312 3 view .LVU119
 490 00c6 FFF7FEBF 		b	_port_irq_epilogue
 491              	.LVL29:
 492              	.L61:
 493              		.cfi_restore_state
 494              	.LBB467:
 495              	.LBB444:
 496              		.loc 1 183 31 view .LVU120
 497 00ca 2206     		lsls	r2, r4, #24
 498 00cc EFD5     		bpl	.L18
 499              	.LBB312:
 500              		.loc 1 184 5 is_stmt 1 view .LVU121
 501              		.loc 1 185 5 view .LVU122
 502              	.LBB313:
 503              	.LBI313:
 504              		.loc 2 467 20 view .LVU123
 505              	.LBE313:
 506              	.LBE312:
 507              	.LBE444:
 508              	.LBE467:
 509              		.loc 2 469 3 view .LVU124
 510              	.LBB468:
 511              	.LBB445:
 512              	.LBB351:
 513              	.LBB327:
ARM GAS  /tmp/ccjKqlYN.s 			page 10


 514              	.LBB314:
 515              	.LBI314:
 516              		.loc 3 386 20 view .LVU125
 517              	.LBB315:
 518              		.loc 3 388 3 view .LVU126
 519              	.LBB316:
 520              	.LBI316:
 521              		.loc 4 473 20 view .LVU127
 522              	.LBE316:
 523              	.LBE315:
 524              	.LBE314:
 525              	.LBE327:
 526              	.LBE351:
 527              	.LBE445:
 528              	.LBE468:
 529              		.loc 4 475 3 view .LVU128
 530              	.LBB469:
 531              	.LBB446:
 532              	.LBB352:
 533              	.LBB328:
 534              	.LBB325:
 535              	.LBB323:
 536              	.LBB321:
 537              	.LBB317:
 538              	.LBI317:
 539              		.loc 4 444 20 view .LVU129
 540              	.LBE317:
 541              	.LBE321:
 542              	.LBE323:
 543              	.LBE325:
 544              	.LBE328:
 545              	.LBE352:
 546              	.LBE446:
 547              	.LBE469:
 548              		.loc 4 447 3 view .LVU130
 549              	.LVL30:
 550              	.LBB470:
 551              	.LBB447:
 552              	.LBB353:
 553              	.LBB329:
 554              	.LBB326:
 555              	.LBB324:
 556              	.LBB322:
 557              	.LBB320:
 558              	.LBB318:
 559              	.LBI318:
 560              		.loc 5 544 57 view .LVU131
 561              	.LBB319:
 562              		.loc 5 546 3 view .LVU132
 563 00ce 2023     		movs	r3, #32
 564              		.syntax unified
 565              	@ 546 ".//ChibiOS//os/ext/CMSIS/include/core_cmFunc.h" 1
 566 00d0 83F31188 		MSR basepri, r3
 567              	@ 0 "" 2
 568              	.LVL31:
 569              		.loc 5 546 3 is_stmt 0 view .LVU133
 570              		.thumb
ARM GAS  /tmp/ccjKqlYN.s 			page 11


 571              		.syntax unified
 572              	.LBE319:
 573              	.LBE318:
 574              	.LBE320:
 575              	.LBE322:
 576              		.loc 3 389 3 is_stmt 1 view .LVU134
 577 00d4 FFF7FEFF 		bl	_stats_start_measure_crit_isr
 578              	.LVL32:
 579              		.loc 3 390 3 view .LVU135
 580 00d8 FFF7FEFF 		bl	_dbg_check_lock_from_isr
 581              	.LVL33:
 582              	.LBE324:
 583              	.LBE326:
 584              	.LBE329:
 585              		.loc 1 186 5 view .LVU136
 586              		.loc 1 186 9 is_stmt 0 view .LVU137
 587 00dc 2F48     		ldr	r0, .L66+12
 588 00de FFF7FEFF 		bl	chOQGetI
 589              	.LVL34:
 590              		.loc 1 187 5 is_stmt 1 view .LVU138
 591              		.loc 1 187 8 is_stmt 0 view .LVU139
 592 00e2 0028     		cmp	r0, #0
 593              		.loc 1 187 8 view .LVU140
 594 00e4 45DB     		blt	.L64
 595              		.loc 1 192 7 is_stmt 1 view .LVU141
 596              		.loc 1 192 13 is_stmt 0 view .LVU142
 597 00e6 6860     		str	r0, [r5, #4]
 598              	.LVL35:
 599              	.L20:
 600              		.loc 1 193 5 is_stmt 1 view .LVU143
 601              	.LBB330:
 602              	.LBI330:
 603              		.loc 2 478 20 view .LVU144
 604              	.LBB331:
 605              		.loc 2 480 3 view .LVU145
 606              	.LBB332:
 607              	.LBI332:
 608              		.loc 3 406 20 view .LVU146
 609              	.LBB333:
 610              		.loc 3 408 3 view .LVU147
 611 00e8 FFF7FEFF 		bl	_dbg_check_unlock_from_isr
 612              	.LVL36:
 613              		.loc 3 409 3 view .LVU148
 614 00ec FFF7FEFF 		bl	_stats_stop_measure_crit_isr
 615              	.LVL37:
 616              		.loc 3 410 3 view .LVU149
 617              	.LBB334:
 618              	.LBI334:
 619              		.loc 4 484 20 view .LVU150
 620              	.LBE334:
 621              	.LBE333:
 622              	.LBE332:
 623              	.LBE331:
 624              	.LBE330:
 625              	.LBE353:
 626              	.LBE447:
 627              	.LBE470:
ARM GAS  /tmp/ccjKqlYN.s 			page 12


 628              		.loc 4 486 3 view .LVU151
 629              	.LBB471:
 630              	.LBB448:
 631              	.LBB354:
 632              	.LBB347:
 633              	.LBB345:
 634              	.LBB343:
 635              	.LBB341:
 636              	.LBB339:
 637              	.LBB335:
 638              	.LBI335:
 639              		.loc 4 458 20 view .LVU152
 640              	.LBE335:
 641              	.LBE339:
 642              	.LBE341:
 643              	.LBE343:
 644              	.LBE345:
 645              	.LBE347:
 646              	.LBE354:
 647              	.LBE448:
 648              	.LBE471:
 649              		.loc 4 461 3 view .LVU153
 650              	.LBB472:
 651              	.LBB449:
 652              	.LBB355:
 653              	.LBB348:
 654              	.LBB346:
 655              	.LBB344:
 656              	.LBB342:
 657              	.LBB340:
 658              	.LBB338:
 659              	.LBB336:
 660              	.LBI336:
 661              		.loc 5 544 57 view .LVU154
 662              	.LBB337:
 663              		.loc 5 546 3 view .LVU155
 664 00f0 0023     		movs	r3, #0
 665              		.syntax unified
 666              	@ 546 ".//ChibiOS//os/ext/CMSIS/include/core_cmFunc.h" 1
 667 00f2 83F31188 		MSR basepri, r3
 668              	@ 0 "" 2
 669              	.LVL38:
 670              		.loc 5 546 3 is_stmt 0 view .LVU156
 671              		.thumb
 672              		.syntax unified
 673              	.LBE337:
 674              	.LBE336:
 675              	.LBE338:
 676              	.LBE340:
 677              	.LBE342:
 678              	.LBE344:
 679              	.LBE346:
 680              	.LBE348:
 681              	.LBE355:
 682              		.loc 1 197 3 is_stmt 1 view .LVU157
 683              		.loc 1 197 6 is_stmt 0 view .LVU158
 684 00f6 6306     		lsls	r3, r4, #25
ARM GAS  /tmp/ccjKqlYN.s 			page 13


 685 00f8 DBD5     		bpl	.L21
 686              	.L62:
 687              		.loc 1 198 5 is_stmt 1 view .LVU159
 688              	.LBB356:
 689              	.LBI356:
 690              		.loc 2 467 20 view .LVU160
 691              	.LBE356:
 692              	.LBE449:
 693              	.LBE472:
 694              		.loc 2 469 3 view .LVU161
 695              	.LBB473:
 696              	.LBB450:
 697              	.LBB370:
 698              	.LBB357:
 699              	.LBI357:
 700              		.loc 3 386 20 view .LVU162
 701              	.LBB358:
 702              		.loc 3 388 3 view .LVU163
 703              	.LBB359:
 704              	.LBI359:
 705              		.loc 4 473 20 view .LVU164
 706              	.LBE359:
 707              	.LBE358:
 708              	.LBE357:
 709              	.LBE370:
 710              	.LBE450:
 711              	.LBE473:
 712              		.loc 4 475 3 view .LVU165
 713              	.LBB474:
 714              	.LBB451:
 715              	.LBB371:
 716              	.LBB368:
 717              	.LBB366:
 718              	.LBB364:
 719              	.LBB360:
 720              	.LBI360:
 721              		.loc 4 444 20 view .LVU166
 722              	.LBE360:
 723              	.LBE364:
 724              	.LBE366:
 725              	.LBE368:
 726              	.LBE371:
 727              	.LBE451:
 728              	.LBE474:
 729              		.loc 4 447 3 view .LVU167
 730              	.LVL39:
 731              	.LBB475:
 732              	.LBB452:
 733              	.LBB372:
 734              	.LBB369:
 735              	.LBB367:
 736              	.LBB365:
 737              	.LBB363:
 738              	.LBB361:
 739              	.LBI361:
 740              		.loc 5 544 57 view .LVU168
 741              	.LBB362:
ARM GAS  /tmp/ccjKqlYN.s 			page 14


 742              		.loc 5 546 3 view .LVU169
 743 00fa 2023     		movs	r3, #32
 744              		.syntax unified
 745              	@ 546 ".//ChibiOS//os/ext/CMSIS/include/core_cmFunc.h" 1
 746 00fc 83F31188 		MSR basepri, r3
 747              	@ 0 "" 2
 748              	.LVL40:
 749              		.loc 5 546 3 is_stmt 0 view .LVU170
 750              		.thumb
 751              		.syntax unified
 752              	.LBE362:
 753              	.LBE361:
 754              	.LBE363:
 755              	.LBE365:
 756              		.loc 3 389 3 is_stmt 1 view .LVU171
 757 0100 FFF7FEFF 		bl	_stats_start_measure_crit_isr
 758              	.LVL41:
 759              		.loc 3 390 3 view .LVU172
 760 0104 FFF7FEFF 		bl	_dbg_check_lock_from_isr
 761              	.LVL42:
 762              	.LBE367:
 763              	.LBE369:
 764              	.LBE372:
 765              		.loc 1 199 5 view .LVU173
 766              	.LBB373:
 767              	.LBI373:
 768              		.file 6 ".//ChibiOS//os/rt/include/chqueues.h"
 769              		.loc 6 386 20 view .LVU174
 770              	.LBB374:
 771              		.loc 6 388 3 view .LVU175
 772 0108 FFF7FEFF 		bl	chDbgCheckClassI
 773              	.LVL43:
 774              		.loc 6 390 3 view .LVU176
 775              		.loc 6 390 48 is_stmt 0 view .LVU177
 776 010c D6E91123 		ldrd	r2, r3, [r6, #68]
 777 0110 9A42     		cmp	r2, r3
 778 0112 26D0     		beq	.L65
 779              	.LVL44:
 780              	.L22:
 781              		.loc 6 390 48 view .LVU178
 782              	.LBE374:
 783              	.LBE373:
 784              		.loc 1 200 46 is_stmt 1 view .LVU179
 785              		.loc 1 201 5 view .LVU180
 786              		.loc 1 201 18 is_stmt 0 view .LVU181
 787 0114 4FF6BF73 		movw	r3, #65471
 788 0118 08EA0303 		and	r3, r8, r3
 789              		.loc 1 202 11 view .LVU182
 790 011c 6FF04002 		mvn	r2, #64
 791              		.loc 1 201 12 view .LVU183
 792 0120 EB60     		str	r3, [r5, #12]
 793              		.loc 1 202 5 is_stmt 1 view .LVU184
 794              		.loc 1 202 11 is_stmt 0 view .LVU185
 795 0122 2A60     		str	r2, [r5]
 796              		.loc 1 203 5 is_stmt 1 view .LVU186
 797              	.LBB376:
 798              	.LBI376:
ARM GAS  /tmp/ccjKqlYN.s 			page 15


 799              		.loc 2 478 20 view .LVU187
 800              	.LBB377:
 801              		.loc 2 480 3 view .LVU188
 802              	.LBB378:
 803              	.LBI378:
 804              		.loc 3 406 20 view .LVU189
 805              	.LBB379:
 806              		.loc 3 408 3 view .LVU190
 807 0124 FFF7FEFF 		bl	_dbg_check_unlock_from_isr
 808              	.LVL45:
 809              		.loc 3 409 3 view .LVU191
 810 0128 FFF7FEFF 		bl	_stats_stop_measure_crit_isr
 811              	.LVL46:
 812              		.loc 3 410 3 view .LVU192
 813              	.LBB380:
 814              	.LBI380:
 815              		.loc 4 484 20 view .LVU193
 816              	.LBE380:
 817              	.LBE379:
 818              	.LBE378:
 819              	.LBE377:
 820              	.LBE376:
 821              	.LBE452:
 822              	.LBE475:
 823              		.loc 4 486 3 view .LVU194
 824              	.LBB476:
 825              	.LBB453:
 826              	.LBB393:
 827              	.LBB391:
 828              	.LBB389:
 829              	.LBB387:
 830              	.LBB385:
 831              	.LBB381:
 832              	.LBI381:
 833              		.loc 4 458 20 view .LVU195
 834              	.LBE381:
 835              	.LBE385:
 836              	.LBE387:
 837              	.LBE389:
 838              	.LBE391:
 839              	.LBE393:
 840              	.LBE453:
 841              	.LBE476:
 842              		.loc 4 461 3 view .LVU196
 843              	.LBB477:
 844              	.LBB454:
 845              	.LBB394:
 846              	.LBB392:
 847              	.LBB390:
 848              	.LBB388:
 849              	.LBB386:
 850              	.LBB384:
 851              	.LBB382:
 852              	.LBI382:
 853              		.loc 5 544 57 view .LVU197
 854              	.LBB383:
 855              		.loc 5 546 3 view .LVU198
ARM GAS  /tmp/ccjKqlYN.s 			page 16


 856 012c 0023     		movs	r3, #0
 857              		.syntax unified
 858              	@ 546 ".//ChibiOS//os/ext/CMSIS/include/core_cmFunc.h" 1
 859 012e 83F31188 		MSR basepri, r3
 860              	@ 0 "" 2
 861              	.LVL47:
 862              		.loc 5 546 3 is_stmt 0 view .LVU199
 863              		.thumb
 864              		.syntax unified
 865              	.LBE383:
 866              	.LBE382:
 867              	.LBE384:
 868              	.LBE386:
 869              	.LBE388:
 870              	.LBE390:
 871              		.loc 2 481 1 view .LVU200
 872 0132 BEE7     		b	.L21
 873              	.L59:
 874              		.loc 2 481 1 view .LVU201
 875              	.LBE392:
 876              	.LBE394:
 877              		.loc 1 160 5 is_stmt 1 view .LVU202
 878              	.LBB395:
 879              	.LBI395:
 880              		.loc 2 467 20 view .LVU203
 881              	.LBE395:
 882              	.LBE454:
 883              	.LBE477:
 884              		.loc 2 469 3 view .LVU204
 885              	.LBB478:
 886              	.LBB455:
 887              	.LBB409:
 888              	.LBB396:
 889              	.LBI396:
 890              		.loc 3 386 20 view .LVU205
 891              	.LBB397:
 892              		.loc 3 388 3 view .LVU206
 893              	.LBB398:
 894              	.LBI398:
 895              		.loc 4 473 20 view .LVU207
 896              	.LBE398:
 897              	.LBE397:
 898              	.LBE396:
 899              	.LBE409:
 900              	.LBE455:
 901              	.LBE478:
 902              		.loc 4 475 3 view .LVU208
 903              	.LBB479:
 904              	.LBB456:
 905              	.LBB410:
 906              	.LBB407:
 907              	.LBB405:
 908              	.LBB403:
 909              	.LBB399:
 910              	.LBI399:
 911              		.loc 4 444 20 view .LVU209
 912              	.LBE399:
ARM GAS  /tmp/ccjKqlYN.s 			page 17


 913              	.LBE403:
 914              	.LBE405:
 915              	.LBE407:
 916              	.LBE410:
 917              	.LBE456:
 918              	.LBE479:
 919              		.loc 4 447 3 view .LVU210
 920              	.LVL48:
 921              	.LBB480:
 922              	.LBB457:
 923              	.LBB411:
 924              	.LBB408:
 925              	.LBB406:
 926              	.LBB404:
 927              	.LBB402:
 928              	.LBB400:
 929              	.LBI400:
 930              		.loc 5 544 57 view .LVU211
 931              	.LBB401:
 932              		.loc 5 546 3 view .LVU212
 933 0134 2023     		movs	r3, #32
 934              		.syntax unified
 935              	@ 546 ".//ChibiOS//os/ext/CMSIS/include/core_cmFunc.h" 1
 936 0136 83F31188 		MSR basepri, r3
 937              	@ 0 "" 2
 938              	.LVL49:
 939              		.loc 5 546 3 is_stmt 0 view .LVU213
 940              		.thumb
 941              		.syntax unified
 942              	.LBE401:
 943              	.LBE400:
 944              	.LBE402:
 945              	.LBE404:
 946              		.loc 3 389 3 is_stmt 1 view .LVU214
 947 013a FFF7FEFF 		bl	_stats_start_measure_crit_isr
 948              	.LVL50:
 949              		.loc 3 390 3 view .LVU215
 950 013e FFF7FEFF 		bl	_dbg_check_lock_from_isr
 951              	.LVL51:
 952              	.LBE406:
 953              	.LBE408:
 954              	.LBE411:
 955              		.loc 1 161 5 view .LVU216
 956              	.LBB412:
 957              	.LBI412:
 958              		.loc 2 795 20 view .LVU217
 959              	.LBB413:
 960              		.loc 2 798 3 view .LVU218
 961 0142 301D     		adds	r0, r6, #4
 962 0144 4FF40071 		mov	r1, #512
 963 0148 FFF7FEFF 		bl	chEvtBroadcastFlagsI
 964              	.LVL52:
 965              		.loc 2 798 3 is_stmt 0 view .LVU219
 966              	.LBE413:
 967              	.LBE412:
 968              		.loc 1 161 41 is_stmt 1 view .LVU220
 969              		.loc 1 162 5 view .LVU221
ARM GAS  /tmp/ccjKqlYN.s 			page 18


 970              		.loc 1 162 11 is_stmt 0 view .LVU222
 971 014c 6FF48073 		mvn	r3, #256
 972 0150 2B60     		str	r3, [r5]
 973              		.loc 1 163 5 is_stmt 1 view .LVU223
 974              	.LBB414:
 975              	.LBI414:
 976              		.loc 2 478 20 view .LVU224
 977              	.LBB415:
 978              		.loc 2 480 3 view .LVU225
 979              	.LBB416:
 980              	.LBI416:
 981              		.loc 3 406 20 view .LVU226
 982              	.LBB417:
 983              		.loc 3 408 3 view .LVU227
 984 0152 FFF7FEFF 		bl	_dbg_check_unlock_from_isr
 985              	.LVL53:
 986              		.loc 3 409 3 view .LVU228
 987 0156 FFF7FEFF 		bl	_stats_stop_measure_crit_isr
 988              	.LVL54:
 989              		.loc 3 410 3 view .LVU229
 990              	.LBB418:
 991              	.LBI418:
 992              		.loc 4 484 20 view .LVU230
 993              	.LBE418:
 994              	.LBE417:
 995              	.LBE416:
 996              	.LBE415:
 997              	.LBE414:
 998              	.LBE457:
 999              	.LBE480:
 1000              		.loc 4 486 3 view .LVU231
 1001              	.LBB481:
 1002              	.LBB458:
 1003              	.LBB431:
 1004              	.LBB429:
 1005              	.LBB427:
 1006              	.LBB425:
 1007              	.LBB423:
 1008              	.LBB419:
 1009              	.LBI419:
 1010              		.loc 4 458 20 view .LVU232
 1011              	.LBE419:
 1012              	.LBE423:
 1013              	.LBE425:
 1014              	.LBE427:
 1015              	.LBE429:
 1016              	.LBE431:
 1017              	.LBE458:
 1018              	.LBE481:
 1019              		.loc 4 461 3 view .LVU233
 1020              	.LBB482:
 1021              	.LBB459:
 1022              	.LBB432:
 1023              	.LBB430:
 1024              	.LBB428:
 1025              	.LBB426:
 1026              	.LBB424:
ARM GAS  /tmp/ccjKqlYN.s 			page 19


 1027              	.LBB422:
 1028              	.LBB420:
 1029              	.LBI420:
 1030              		.loc 5 544 57 view .LVU234
 1031              	.LBB421:
 1032              		.loc 5 546 3 view .LVU235
 1033 015a 0023     		movs	r3, #0
 1034              		.syntax unified
 1035              	@ 546 ".//ChibiOS//os/ext/CMSIS/include/core_cmFunc.h" 1
 1036 015c 83F31188 		MSR basepri, r3
 1037              	@ 0 "" 2
 1038              	.LVL55:
 1039              		.loc 5 546 3 is_stmt 0 view .LVU236
 1040              		.thumb
 1041              		.syntax unified
 1042              	.LBE421:
 1043              	.LBE420:
 1044              	.LBE422:
 1045              	.LBE424:
 1046              	.LBE426:
 1047              	.LBE428:
 1048              		.loc 2 481 1 view .LVU237
 1049 0160 63E7     		b	.L9
 1050              	.LVL56:
 1051              	.L65:
 1052              		.loc 2 481 1 view .LVU238
 1053              	.LBE430:
 1054              	.LBE432:
 1055              	.LBB433:
 1056              	.LBB375:
 1057              		.loc 6 390 48 view .LVU239
 1058 0162 B36B     		ldr	r3, [r6, #56]
 1059 0164 002B     		cmp	r3, #0
 1060 0166 D5D0     		beq	.L22
 1061              	.LVL57:
 1062              		.loc 6 390 48 view .LVU240
 1063              	.LBE375:
 1064              	.LBE433:
 1065              		.loc 1 200 7 is_stmt 1 view .LVU241
 1066              	.LBB434:
 1067              	.LBI434:
 1068              		.loc 2 795 20 view .LVU242
 1069              	.LBB435:
 1070              		.loc 2 798 3 view .LVU243
 1071 0168 0B48     		ldr	r0, .L66+8
 1072 016a 1021     		movs	r1, #16
 1073 016c FFF7FEFF 		bl	chEvtBroadcastFlagsI
 1074              	.LVL58:
 1075              		.loc 2 799 1 is_stmt 0 view .LVU244
 1076 0170 D0E7     		b	.L22
 1077              	.LVL59:
 1078              	.L64:
 1079              		.loc 2 799 1 view .LVU245
 1080              	.LBE435:
 1081              	.LBE434:
 1082              	.LBB436:
 1083              		.loc 1 188 7 is_stmt 1 view .LVU246
ARM GAS  /tmp/ccjKqlYN.s 			page 20


 1084              	.LBB349:
 1085              	.LBI349:
 1086              		.loc 2 795 20 view .LVU247
 1087              	.LBB350:
 1088              		.loc 2 798 3 view .LVU248
 1089 0172 0948     		ldr	r0, .L66+8
 1090              	.LVL60:
 1091              		.loc 2 798 3 is_stmt 0 view .LVU249
 1092 0174 0821     		movs	r1, #8
 1093 0176 FFF7FEFF 		bl	chEvtBroadcastFlagsI
 1094              	.LVL61:
 1095              		.loc 2 798 3 view .LVU250
 1096              	.LBE350:
 1097              	.LBE349:
 1098              		.loc 1 188 42 is_stmt 1 view .LVU251
 1099              		.loc 1 189 7 view .LVU252
 1100              		.loc 1 189 41 is_stmt 0 view .LVU253
 1101 017a 4FF63F73 		movw	r3, #65343
 1102 017e 08EA0303 		and	r3, r8, r3
 1103 0182 43F04003 		orr	r3, r3, #64
 1104              		.loc 1 189 14 view .LVU254
 1105 0186 EB60     		str	r3, [r5, #12]
 1106 0188 AEE7     		b	.L20
 1107              	.LVL62:
 1108              	.L63:
 1109              		.loc 1 189 14 view .LVU255
 1110              	.LBE436:
 1111              	.LBE459:
 1112              	.LBE482:
 1113              		.loc 1 312 3 view .LVU256
 1114 018a FFF7FEFF 		bl	__stack_chk_fail
 1115              	.LVL63:
 1116              	.L67:
 1117 018e 00BF     		.align	2
 1118              	.L66:
 1119 0190 00000000 		.word	.LC1
 1120 0194 00000000 		.word	.LANCHOR0
 1121 0198 04000000 		.word	.LANCHOR0+4
 1122 019c 30000000 		.word	.LANCHOR0+48
 1123              		.cfi_endproc
 1124              	.LFE261:
 1125              		.size	VectorDC, .-VectorDC
 1126              		.section	.rodata.sd_lld_init.cst4,"aM",%progbits,4
 1127              		.align	2
 1128              	.LC2:
 1129 0000 00000000 		.word	__stack_chk_guard
 1130              		.section	.text.sd_lld_init,"ax",%progbits
 1131              		.align	1
 1132              		.p2align 4,,15
 1133              		.global	sd_lld_init
 1134              		.syntax unified
 1135              		.thumb
 1136              		.thumb_func
 1137              		.fpu fpv4-sp-d16
 1138              		.type	sd_lld_init, %function
 1139              	sd_lld_init:
 1140              	.LFB262:
ARM GAS  /tmp/ccjKqlYN.s 			page 21


 1141              		.loc 1 382 24 is_stmt 1 view -0
 1142              		.cfi_startproc
 1143              		@ args = 0, pretend = 0, frame = 8
 1144              		@ frame_needed = 0, uses_anonymous_args = 0
 1145 0000 10B5     		push	{r4, lr}
 1146              		.cfi_def_cfa_offset 8
 1147              		.cfi_offset 4, -8
 1148              		.cfi_offset 14, -4
 1149              		.loc 1 395 3 is_stmt 0 view .LVU258
 1150 0002 0B4C     		ldr	r4, .L72
 1151              		.loc 1 382 24 view .LVU259
 1152 0004 0B4B     		ldr	r3, .L72+4
 1153              		.loc 1 395 3 view .LVU260
 1154 0006 0C4A     		ldr	r2, .L72+8
 1155              		.loc 1 382 24 view .LVU261
 1156 0008 82B0     		sub	sp, sp, #8
 1157              		.cfi_def_cfa_offset 16
 1158              		.loc 1 395 3 view .LVU262
 1159 000a 2046     		mov	r0, r4
 1160 000c 0021     		movs	r1, #0
 1161              		.loc 1 382 24 view .LVU263
 1162 000e 1B68     		ldr	r3, [r3]
 1163 0010 0193     		str	r3, [sp, #4]
 1164 0012 4FF00003 		mov	r3,#0
 1165              		.loc 1 395 3 is_stmt 1 view .LVU264
 1166 0016 FFF7FEFF 		bl	sdObjectInit
 1167              	.LVL64:
 1168              		.loc 1 396 3 view .LVU265
 1169              		.loc 1 396 13 is_stmt 0 view .LVU266
 1170 001a 084B     		ldr	r3, .L72+12
 1171 001c 6367     		str	r3, [r4, #116]
 1172              		.loc 1 413 1 view .LVU267
 1173 001e 054B     		ldr	r3, .L72+4
 1174 0020 1A68     		ldr	r2, [r3]
 1175 0022 019B     		ldr	r3, [sp, #4]
 1176 0024 5A40     		eors	r2, r3, r2
 1177 0026 01D1     		bne	.L71
 1178 0028 02B0     		add	sp, sp, #8
 1179              		.cfi_remember_state
 1180              		.cfi_def_cfa_offset 8
 1181              		@ sp needed
 1182 002a 10BD     		pop	{r4, pc}
 1183              	.L71:
 1184              		.cfi_restore_state
 1185 002c FFF7FEFF 		bl	__stack_chk_fail
 1186              	.LVL65:
 1187              	.L73:
 1188              		.align	2
 1189              	.L72:
 1190 0030 00000000 		.word	.LANCHOR0
 1191 0034 00000000 		.word	.LC2
 1192 0038 00000000 		.word	notify3
 1193 003c 00480040 		.word	1073760256
 1194              		.cfi_endproc
 1195              	.LFE262:
 1196              		.size	sd_lld_init, .-sd_lld_init
 1197              		.section	.rodata.sd_lld_start.cst4,"aM",%progbits,4
ARM GAS  /tmp/ccjKqlYN.s 			page 22


 1198              		.align	2
 1199              	.LC3:
 1200 0000 00000000 		.word	__stack_chk_guard
 1201              		.section	.text.sd_lld_start,"ax",%progbits
 1202              		.align	1
 1203              		.p2align 4,,15
 1204              		.global	sd_lld_start
 1205              		.syntax unified
 1206              		.thumb
 1207              		.thumb_func
 1208              		.fpu fpv4-sp-d16
 1209              		.type	sd_lld_start, %function
 1210              	sd_lld_start:
 1211              	.LVL66:
 1212              	.LFB263:
 1213              		.loc 1 425 66 is_stmt 1 view -0
 1214              		.cfi_startproc
 1215              		@ args = 0, pretend = 0, frame = 8
 1216              		@ frame_needed = 0, uses_anonymous_args = 0
 1217              		.loc 1 425 66 is_stmt 0 view .LVU269
 1218 0000 30B5     		push	{r4, r5, lr}
 1219              		.cfi_def_cfa_offset 12
 1220              		.cfi_offset 4, -12
 1221              		.cfi_offset 5, -8
 1222              		.cfi_offset 14, -4
 1223              		.loc 1 428 12 view .LVU270
 1224 0002 244C     		ldr	r4, .L84
 1225              		.loc 1 430 6 view .LVU271
 1226 0004 037A     		ldrb	r3, [r0, #8]	@ zero_extendqisi2
 1227              		.loc 1 425 66 view .LVU272
 1228 0006 244A     		ldr	r2, .L84+4
 1229 0008 83B0     		sub	sp, sp, #12
 1230              		.cfi_def_cfa_offset 24
 1231              		.loc 1 428 12 view .LVU273
 1232 000a 0029     		cmp	r1, #0
 1233 000c 18BF     		it	ne
 1234 000e 0C46     		movne	r4, r1
 1235              		.loc 1 430 6 view .LVU274
 1236 0010 012B     		cmp	r3, #1
 1237              		.loc 1 425 66 view .LVU275
 1238 0012 0546     		mov	r5, r0
 1239 0014 1268     		ldr	r2, [r2]
 1240 0016 0192     		str	r2, [sp, #4]
 1241 0018 4FF00002 		mov	r2,#0
 1242              		.loc 1 427 3 is_stmt 1 view .LVU276
 1243              	.LVL67:
 1244              		.loc 1 430 3 view .LVU277
 1245              		.loc 1 430 6 is_stmt 0 view .LVU278
 1246 001c 2BD0     		beq	.L82
 1247              	.LVL68:
 1248              	.L76:
 1249              		.loc 1 468 3 is_stmt 1 view .LVU279
 1250 001e 6B6F     		ldr	r3, [r5, #116]
 1251              	.LVL69:
 1252              	.LBB483:
 1253              	.LBI483:
 1254              		.loc 1 91 13 view .LVU280
ARM GAS  /tmp/ccjKqlYN.s 			page 23


 1255              	.LBB484:
 1256              		.loc 1 92 3 view .LVU281
 1257              		.loc 1 96 3 view .LVU282
 1258              		.loc 1 96 6 is_stmt 0 view .LVU283
 1259 0020 1E4A     		ldr	r2, .L84+8
 1260 0022 9342     		cmp	r3, r2
 1261 0024 09D0     		beq	.L77
 1262              		.loc 1 96 30 view .LVU284
 1263 0026 02F58062 		add	r2, r2, #1024
 1264 002a 9342     		cmp	r3, r2
 1265 002c 05D0     		beq	.L77
 1266              		.loc 1 102 5 is_stmt 1 view .LVU285
 1267              		.loc 1 102 26 is_stmt 0 view .LVU286
 1268 002e 2168     		ldr	r1, [r4]
 1269 0030 1B4A     		ldr	r2, .L84+12
 1270 0032 B2FBF1F2 		udiv	r2, r2, r1
 1271              		.loc 1 102 12 view .LVU287
 1272 0036 9A60     		str	r2, [r3, #8]
 1273 0038 04E0     		b	.L79
 1274              	.L77:
 1275              		.loc 1 100 5 is_stmt 1 view .LVU288
 1276              		.loc 1 100 26 is_stmt 0 view .LVU289
 1277 003a 2168     		ldr	r1, [r4]
 1278 003c 194A     		ldr	r2, .L84+16
 1279 003e B2FBF1F2 		udiv	r2, r2, r1
 1280              		.loc 1 100 12 view .LVU290
 1281 0042 9A60     		str	r2, [r3, #8]
 1282              	.L79:
 1283              		.loc 1 105 3 is_stmt 1 view .LVU291
 1284              		.loc 1 105 24 is_stmt 0 view .LVU292
 1285 0044 E288     		ldrh	r2, [r4, #6]
 1286 0046 42F04002 		orr	r2, r2, #64
 1287              		.loc 1 105 10 view .LVU293
 1288 004a 1A61     		str	r2, [r3, #16]
 1289              		.loc 1 106 3 is_stmt 1 view .LVU294
 1290              		.loc 1 106 24 is_stmt 0 view .LVU295
 1291 004c 2289     		ldrh	r2, [r4, #8]
 1292 004e 42F00102 		orr	r2, r2, #1
 1293              		.loc 1 106 10 view .LVU296
 1294 0052 5A61     		str	r2, [r3, #20]
 1295              		.loc 1 107 3 is_stmt 1 view .LVU297
 1296              		.loc 1 108 58 is_stmt 0 view .LVU298
 1297 0054 A288     		ldrh	r2, [r4, #4]
 1298 0056 42F40452 		orr	r2, r2, #8448
 1299 005a 42F02C02 		orr	r2, r2, #44
 1300              		.loc 1 110 9 view .LVU299
 1301 005e 0021     		movs	r1, #0
 1302              		.loc 1 107 10 view .LVU300
 1303 0060 DA60     		str	r2, [r3, #12]
 1304              		.loc 1 110 3 is_stmt 1 view .LVU301
 1305              		.loc 1 110 9 is_stmt 0 view .LVU302
 1306 0062 1960     		str	r1, [r3]
 1307              		.loc 1 111 3 is_stmt 1 view .LVU303
 1308 0064 1A68     		ldr	r2, [r3]
 1309              		.loc 1 112 3 view .LVU304
 1310 0066 5B68     		ldr	r3, [r3, #4]
 1311              	.LVL70:
ARM GAS  /tmp/ccjKqlYN.s 			page 24


 1312              		.loc 1 112 3 is_stmt 0 view .LVU305
 1313              	.LBE484:
 1314              	.LBE483:
 1315              		.loc 1 469 1 view .LVU306
 1316 0068 0B4B     		ldr	r3, .L84+4
 1317 006a 1A68     		ldr	r2, [r3]
 1318 006c 019B     		ldr	r3, [sp, #4]
 1319 006e 5A40     		eors	r2, r3, r2
 1320 0070 0ED1     		bne	.L83
 1321 0072 03B0     		add	sp, sp, #12
 1322              		.cfi_remember_state
 1323              		.cfi_def_cfa_offset 12
 1324              		@ sp needed
 1325 0074 30BD     		pop	{r4, r5, pc}
 1326              	.LVL71:
 1327              	.L82:
 1328              		.cfi_restore_state
 1329              		.loc 1 444 5 is_stmt 1 view .LVU307
 1330              		.loc 1 444 8 is_stmt 0 view .LVU308
 1331 0076 0C4B     		ldr	r3, .L84+20
 1332 0078 9842     		cmp	r0, r3
 1333 007a D0D1     		bne	.L76
 1334              		.loc 1 445 7 is_stmt 1 view .LVU309
 1335 007c 0B4A     		ldr	r2, .L84+24
 1336 007e 136C     		ldr	r3, [r2, #64]
 1337 0080 43F48023 		orr	r3, r3, #262144
 1338 0084 1364     		str	r3, [r2, #64]
 1339              		.loc 1 445 7 view .LVU310
 1340              		.loc 1 445 29 view .LVU311
 1341              		.loc 1 446 7 view .LVU312
 1342 0086 0C21     		movs	r1, #12
 1343 0088 2720     		movs	r0, #39
 1344              	.LVL72:
 1345              		.loc 1 446 7 is_stmt 0 view .LVU313
 1346 008a FFF7FEFF 		bl	nvicEnableVector
 1347              	.LVL73:
 1348 008e C6E7     		b	.L76
 1349              	.LVL74:
 1350              	.L83:
 1351              		.loc 1 469 1 view .LVU314
 1352 0090 FFF7FEFF 		bl	__stack_chk_fail
 1353              	.LVL75:
 1354              	.L85:
 1355              		.align	2
 1356              	.L84:
 1357 0094 00000000 		.word	.LANCHOR1
 1358 0098 00000000 		.word	.LC3
 1359 009c 00100140 		.word	1073811456
 1360 00a0 80DE8002 		.word	42000000
 1361 00a4 00BD0105 		.word	84000000
 1362 00a8 00000000 		.word	.LANCHOR0
 1363 00ac 00380240 		.word	1073887232
 1364              		.cfi_endproc
 1365              	.LFE263:
 1366              		.size	sd_lld_start, .-sd_lld_start
 1367              		.section	.rodata.sd_lld_stop.cst4,"aM",%progbits,4
 1368              		.align	2
ARM GAS  /tmp/ccjKqlYN.s 			page 25


 1369              	.LC4:
 1370 0000 00000000 		.word	__stack_chk_guard
 1371              		.section	.text.sd_lld_stop,"ax",%progbits
 1372              		.align	1
 1373              		.p2align 4,,15
 1374              		.global	sd_lld_stop
 1375              		.syntax unified
 1376              		.thumb
 1377              		.thumb_func
 1378              		.fpu fpv4-sp-d16
 1379              		.type	sd_lld_stop, %function
 1380              	sd_lld_stop:
 1381              	.LVL76:
 1382              	.LFB264:
 1383              		.loc 1 480 37 is_stmt 1 view -0
 1384              		.cfi_startproc
 1385              		@ args = 0, pretend = 0, frame = 8
 1386              		@ frame_needed = 0, uses_anonymous_args = 0
 1387              		.loc 1 480 37 is_stmt 0 view .LVU316
 1388 0000 00B5     		push	{lr}
 1389              		.cfi_def_cfa_offset 4
 1390              		.cfi_offset 14, -4
 1391 0002 154B     		ldr	r3, .L95
 1392 0004 83B0     		sub	sp, sp, #12
 1393              		.cfi_def_cfa_offset 16
 1394              		.loc 1 480 37 view .LVU317
 1395 0006 1B68     		ldr	r3, [r3]
 1396 0008 0193     		str	r3, [sp, #4]
 1397 000a 4FF00003 		mov	r3,#0
 1398              		.loc 1 482 3 is_stmt 1 view .LVU318
 1399              		.loc 1 482 6 is_stmt 0 view .LVU319
 1400 000e 037A     		ldrb	r3, [r0, #8]	@ zero_extendqisi2
 1401 0010 022B     		cmp	r3, #2
 1402 0012 07D0     		beq	.L94
 1403              	.L86:
 1404              		.loc 1 527 1 view .LVU320
 1405 0014 104B     		ldr	r3, .L95
 1406 0016 1A68     		ldr	r2, [r3]
 1407 0018 019B     		ldr	r3, [sp, #4]
 1408 001a 5A40     		eors	r2, r3, r2
 1409 001c 1AD1     		bne	.L93
 1410 001e 03B0     		add	sp, sp, #12
 1411              		.cfi_remember_state
 1412              		.cfi_def_cfa_offset 4
 1413              		@ sp needed
 1414 0020 5DF804FB 		ldr	pc, [sp], #4
 1415              	.L94:
 1416              		.cfi_restore_state
 1417              		.loc 1 483 5 is_stmt 1 view .LVU321
 1418              		.loc 1 499 8 is_stmt 0 view .LVU322
 1419 0024 0D49     		ldr	r1, .L95+4
 1420              		.loc 1 483 5 view .LVU323
 1421 0026 436F     		ldr	r3, [r0, #116]
 1422              	.LVL77:
 1423              	.LBB485:
 1424              	.LBI485:
 1425              		.loc 1 121 13 is_stmt 1 view .LVU324
ARM GAS  /tmp/ccjKqlYN.s 			page 26


 1426              	.LBB486:
 1427              		.loc 1 123 3 view .LVU325
 1428              		.loc 1 123 10 is_stmt 0 view .LVU326
 1429 0028 0022     		movs	r2, #0
 1430              	.LBE486:
 1431              	.LBE485:
 1432              		.loc 1 499 8 view .LVU327
 1433 002a 8842     		cmp	r0, r1
 1434              	.LBB488:
 1435              	.LBB487:
 1436              		.loc 1 123 10 view .LVU328
 1437 002c DA60     		str	r2, [r3, #12]
 1438              		.loc 1 124 3 is_stmt 1 view .LVU329
 1439              		.loc 1 124 10 is_stmt 0 view .LVU330
 1440 002e 1A61     		str	r2, [r3, #16]
 1441              		.loc 1 125 3 is_stmt 1 view .LVU331
 1442              		.loc 1 125 10 is_stmt 0 view .LVU332
 1443 0030 5A61     		str	r2, [r3, #20]
 1444              	.LVL78:
 1445              		.loc 1 125 10 view .LVU333
 1446              	.LBE487:
 1447              	.LBE488:
 1448              		.loc 1 499 5 is_stmt 1 view .LVU334
 1449              		.loc 1 499 8 is_stmt 0 view .LVU335
 1450 0032 EFD1     		bne	.L86
 1451              		.loc 1 500 7 is_stmt 1 view .LVU336
 1452 0034 0A4A     		ldr	r2, .L95+8
 1453 0036 136C     		ldr	r3, [r2, #64]
 1454 0038 23F48023 		bic	r3, r3, #262144
 1455 003c 1364     		str	r3, [r2, #64]
 1456              		.loc 1 500 7 view .LVU337
 1457              		.loc 1 500 30 view .LVU338
 1458              		.loc 1 501 7 view .LVU339
 1459 003e 064B     		ldr	r3, .L95
 1460 0040 1A68     		ldr	r2, [r3]
 1461 0042 019B     		ldr	r3, [sp, #4]
 1462 0044 5A40     		eors	r2, r3, r2
 1463 0046 05D1     		bne	.L93
 1464 0048 2720     		movs	r0, #39
 1465              	.LVL79:
 1466              		.loc 1 527 1 is_stmt 0 view .LVU340
 1467 004a 03B0     		add	sp, sp, #12
 1468              		.cfi_remember_state
 1469              		.cfi_def_cfa_offset 4
 1470              		@ sp needed
 1471 004c 5DF804EB 		ldr	lr, [sp], #4
 1472              		.cfi_restore 14
 1473              		.cfi_def_cfa_offset 0
 1474              		.loc 1 501 7 view .LVU341
 1475 0050 FFF7FEBF 		b	nvicDisableVector
 1476              	.LVL80:
 1477              	.L93:
 1478              		.cfi_restore_state
 1479              		.loc 1 527 1 view .LVU342
 1480 0054 FFF7FEFF 		bl	__stack_chk_fail
 1481              	.LVL81:
 1482              	.L96:
ARM GAS  /tmp/ccjKqlYN.s 			page 27


 1483              		.loc 1 527 1 view .LVU343
 1484              		.align	2
 1485              	.L95:
 1486 0058 00000000 		.word	.LC4
 1487 005c 00000000 		.word	.LANCHOR0
 1488 0060 00380240 		.word	1073887232
 1489              		.cfi_endproc
 1490              	.LFE264:
 1491              		.size	sd_lld_stop, .-sd_lld_stop
 1492              		.global	SD3
 1493              		.section	.bss.SD3,"aw",%nobits
 1494              		.align	2
 1495              		.set	.LANCHOR0,. + 0
 1496              		.type	SD3, %object
 1497              		.size	SD3, 120
 1498              	SD3:
 1499 0000 00000000 		.space	120
 1499      00000000 
 1499      00000000 
 1499      00000000 
 1499      00000000 
 1500              		.section	.rodata.default_config,"a"
 1501              		.align	2
 1502              		.set	.LANCHOR1,. + 0
 1503              		.type	default_config, %object
 1504              		.size	default_config, 12
 1505              	default_config:
 1506 0000 00C20100 		.word	115200
 1507 0004 0000     		.short	0
 1508 0006 0040     		.short	16384
 1509 0008 0000     		.short	0
 1510 000a 0000     		.space	2
 1511              		.text
 1512              	.Letext0:
 1513              		.file 7 "/usr/lib/gcc/arm-none-eabi/9.2.1/include/stddef.h"
 1514              		.file 8 "/usr/lib/gcc/arm-none-eabi/9.2.1/include/stdint.h"
 1515              		.file 9 ".//ChibiOS//os/rt/ports/ARMCMx/compilers/GCC/chtypes.h"
 1516              		.file 10 ".//ChibiOS//os/rt/include/chsystypes.h"
 1517              		.file 11 ".//ChibiOS//os/rt/include/chschd.h"
 1518              		.file 12 ".//ChibiOS//os/ext/CMSIS/include/core_cm4.h"
 1519              		.file 13 ".//ChibiOS//os/ext/CMSIS/ST/system_stm32f4xx.h"
 1520              		.file 14 ".//ChibiOS//os/ext/CMSIS/ST/stm32f407xx.h"
 1521              		.file 15 ".//ChibiOS//os/rt/ports/ARMCMx/chcore.h"
 1522              		.file 16 ".//ChibiOS//os/rt/include/chdebug.h"
 1523              		.file 17 ".//ChibiOS//os/rt/include/chtm.h"
 1524              		.file 18 ".//ChibiOS//os/rt/include/chstats.h"
 1525              		.file 19 ".//ChibiOS//os/rt/include/chsem.h"
 1526              		.file 20 ".//ChibiOS//os/rt/include/chmtx.h"
 1527              		.file 21 ".//ChibiOS//os/rt/include/chregistry.h"
 1528              		.file 22 ".//ChibiOS//os/rt/include/chevents.h"
 1529              		.file 23 ".//ChibiOS//os/hal/ports/STM32/STM32F4xx/stm32_dma.h"
 1530              		.file 24 ".//ChibiOS//os/hal/include/hal_ioblock.h"
 1531              		.file 25 ".//ChibiOS//os/hal/ports/STM32/LLD/GPIOv2/pal_lld.h"
 1532              		.file 26 ".//ChibiOS//os/hal/include/adc.h"
 1533              		.file 27 ".//ChibiOS//os/hal/ports/STM32/STM32F4xx/adc_lld.h"
 1534              		.file 28 ".//ChibiOS//os/hal/include/can.h"
 1535              		.file 29 ".//ChibiOS//os/hal/ports/STM32/LLD/can_lld.h"
ARM GAS  /tmp/ccjKqlYN.s 			page 28


 1536              		.file 30 ".//ChibiOS//os/hal/include/dac.h"
 1537              		.file 31 ".//ChibiOS//os/hal/ports/STM32/LLD/DACv1/dac_lld.h"
 1538              		.file 32 ".//ChibiOS//os/hal/include/ext.h"
 1539              		.file 33 ".//ChibiOS//os/hal/ports/STM32/LLD/ext_lld.h"
 1540              		.file 34 ".//ChibiOS//os/hal/include/gpt.h"
 1541              		.file 35 ".//ChibiOS//os/hal/ports/STM32/LLD/TIMv1/gpt_lld.h"
 1542              		.file 36 ".//ChibiOS//os/hal/ports/STM32/LLD/TIMv1/stm32_tim.h"
 1543              		.file 37 ".//ChibiOS//os/hal/include/i2c.h"
 1544              		.file 38 ".//ChibiOS//os/hal/ports/STM32/LLD/I2Cv1/i2c_lld.h"
 1545              		.file 39 ".//ChibiOS//os/hal/include/i2s.h"
 1546              		.file 40 ".//ChibiOS//os/hal/ports/STM32/LLD/SPIv1/i2s_lld.h"
 1547              		.file 41 ".//ChibiOS//os/hal/include/pwm.h"
 1548              		.file 42 ".//ChibiOS//os/hal/ports/STM32/LLD/TIMv1/pwm_lld.h"
 1549              		.file 43 ".//ChibiOS//os/hal/include/serial.h"
 1550              		.file 44 ".//ChibiOS//os/hal/ports/STM32/LLD/USARTv1/serial_lld.h"
 1551              		.file 45 ".//ChibiOS//os/hal/include/sdc.h"
 1552              		.file 46 ".//ChibiOS//os/hal/ports/STM32/LLD/sdc_lld.h"
 1553              		.file 47 ".//ChibiOS//os/hal/include/spi.h"
 1554              		.file 48 ".//ChibiOS//os/hal/ports/STM32/LLD/SPIv1/spi_lld.h"
 1555              		.file 49 ".//ChibiOS//os/hal/include/usb.h"
 1556              		.file 50 ".//ChibiOS//os/hal/ports/STM32/LLD/OTGv1/usb_lld.h"
 1557              		.file 51 ".//ChibiOS//os/hal/ports/STM32/LLD/OTGv1/stm32_otg.h"
 1558              		.file 52 ".//ChibiOS//os/hal/ports/common/ARMCMx/nvic.h"