ARM GAS  /tmp/cco1TM6T.s 			page 1


   1              		.cpu cortex-m4
   2              		.eabi_attribute 27, 1
   3              		.eabi_attribute 28, 1
   4              		.eabi_attribute 20, 1
   5              		.eabi_attribute 21, 1
   6              		.eabi_attribute 23, 3
   7              		.eabi_attribute 24, 1
   8              		.eabi_attribute 25, 1
   9              		.eabi_attribute 26, 1
  10              		.eabi_attribute 30, 2
  11              		.eabi_attribute 34, 1
  12              		.eabi_attribute 18, 4
  13              		.file	"serial.c"
  14              		.text
  15              	.Ltext0:
  16              		.cfi_sections	.debug_frame
  17              		.section	.rodata.readt.cst4,"aM",%progbits,4
  18              		.align	2
  19              	.LC0:
  20 0000 00000000 		.word	__stack_chk_guard
  21              		.section	.text.readt,"ax",%progbits
  22              		.align	1
  23              		.p2align 4,,15
  24              		.arch armv7e-m
  25              		.syntax unified
  26              		.thumb
  27              		.thumb_func
  28              		.fpu fpv4-sp-d16
  29              		.type	readt, %function
  30              	readt:
  31              	.LVL0:
  32              	.LFB263:
  33              		.file 1 ".//ChibiOS//os/hal/src/serial.c"
  34              		.loc 1 87 73 view -0
  35              		.cfi_startproc
  36              		@ args = 0, pretend = 0, frame = 8
  37              		@ frame_needed = 0, uses_anonymous_args = 0
  38              		.loc 1 87 73 is_stmt 0 view .LVU1
  39 0000 00B5     		push	{lr}
  40              		.cfi_def_cfa_offset 4
  41              		.cfi_offset 14, -4
  42 0002 DFF834C0 		ldr	ip, .L7
  43 0006 83B0     		sub	sp, sp, #12
  44              		.cfi_def_cfa_offset 16
  45              		.loc 1 87 73 view .LVU2
  46 0008 DCF800C0 		ldr	ip, [ip]
  47 000c CDF804C0 		str	ip, [sp, #4]
  48 0010 4FF0000C 		mov	ip,#0
  49              		.loc 1 89 3 is_stmt 1 view .LVU3
  50              		.loc 1 89 10 is_stmt 0 view .LVU4
  51 0014 DFF820C0 		ldr	ip, .L7
  52 0018 DCF800E0 		ldr	lr, [ip]
  53 001c DDF804C0 		ldr	ip, [sp, #4]
  54 0020 9CEA0E0E 		eors	lr, ip, lr
  55 0024 05D1     		bne	.L6
  56 0026 0C30     		adds	r0, r0, #12
  57              	.LVL1:
ARM GAS  /tmp/cco1TM6T.s 			page 2


  58              		.loc 1 90 1 view .LVU5
  59 0028 03B0     		add	sp, sp, #12
  60              		.cfi_remember_state
  61              		.cfi_def_cfa_offset 4
  62              		@ sp needed
  63 002a 5DF804EB 		ldr	lr, [sp], #4
  64              		.cfi_restore 14
  65              		.cfi_def_cfa_offset 0
  66              		.loc 1 89 10 view .LVU6
  67 002e FFF7FEBF 		b	chIQReadTimeout
  68              	.LVL2:
  69              	.L6:
  70              		.cfi_restore_state
  71              		.loc 1 89 10 view .LVU7
  72 0032 FFF7FEFF 		bl	__stack_chk_fail
  73              	.LVL3:
  74              	.L8:
  75              		.loc 1 89 10 view .LVU8
  76 0036 00BF     		.align	2
  77              	.L7:
  78 0038 00000000 		.word	.LC0
  79              		.cfi_endproc
  80              	.LFE263:
  81              		.size	readt, .-readt
  82              		.section	.rodata.read.cst4,"aM",%progbits,4
  83              		.align	2
  84              	.LC1:
  85 0000 00000000 		.word	__stack_chk_guard
  86              		.section	.text.read,"ax",%progbits
  87              		.align	1
  88              		.p2align 4,,15
  89              		.syntax unified
  90              		.thumb
  91              		.thumb_func
  92              		.fpu fpv4-sp-d16
  93              		.type	read, %function
  94              	read:
  95              	.LVL4:
  96              	.LFB257:
  97              		.loc 1 56 53 is_stmt 1 view -0
  98              		.cfi_startproc
  99              		@ args = 0, pretend = 0, frame = 8
 100              		@ frame_needed = 0, uses_anonymous_args = 0
 101              		.loc 1 56 53 is_stmt 0 view .LVU10
 102 0000 00B5     		push	{lr}
 103              		.cfi_def_cfa_offset 4
 104              		.cfi_offset 14, -4
 105 0002 0B4B     		ldr	r3, .L14
 106 0004 83B0     		sub	sp, sp, #12
 107              		.cfi_def_cfa_offset 16
 108              		.loc 1 56 53 view .LVU11
 109 0006 1B68     		ldr	r3, [r3]
 110 0008 0193     		str	r3, [sp, #4]
 111 000a 4FF00003 		mov	r3,#0
 112              		.loc 1 58 3 is_stmt 1 view .LVU12
 113              		.loc 1 58 10 is_stmt 0 view .LVU13
 114 000e 084B     		ldr	r3, .L14
ARM GAS  /tmp/cco1TM6T.s 			page 3


 115 0010 D3F800C0 		ldr	ip, [r3]
 116 0014 019B     		ldr	r3, [sp, #4]
 117 0016 93EA0C0C 		eors	ip, r3, ip
 118 001a 07D1     		bne	.L13
 119 001c 0C30     		adds	r0, r0, #12
 120              	.LVL5:
 121              		.loc 1 58 10 view .LVU14
 122 001e 4FF0FF33 		mov	r3, #-1
 123              		.loc 1 60 1 view .LVU15
 124 0022 03B0     		add	sp, sp, #12
 125              		.cfi_remember_state
 126              		.cfi_def_cfa_offset 4
 127              		@ sp needed
 128 0024 5DF804EB 		ldr	lr, [sp], #4
 129              		.cfi_restore 14
 130              		.cfi_def_cfa_offset 0
 131              		.loc 1 58 10 view .LVU16
 132 0028 FFF7FEBF 		b	chIQReadTimeout
 133              	.LVL6:
 134              	.L13:
 135              		.cfi_restore_state
 136              		.loc 1 58 10 view .LVU17
 137 002c FFF7FEFF 		bl	__stack_chk_fail
 138              	.LVL7:
 139              	.L15:
 140              		.loc 1 58 10 view .LVU18
 141              		.align	2
 142              	.L14:
 143 0030 00000000 		.word	.LC1
 144              		.cfi_endproc
 145              	.LFE257:
 146              		.size	read, .-read
 147              		.section	.rodata.writet.cst4,"aM",%progbits,4
 148              		.align	2
 149              	.LC2:
 150 0000 00000000 		.word	__stack_chk_guard
 151              		.section	.text.writet,"ax",%progbits
 152              		.align	1
 153              		.p2align 4,,15
 154              		.syntax unified
 155              		.thumb
 156              		.thumb_func
 157              		.fpu fpv4-sp-d16
 158              		.type	writet, %function
 159              	writet:
 160              	.LVL8:
 161              	.LFB262:
 162              		.loc 1 82 80 is_stmt 1 view -0
 163              		.cfi_startproc
 164              		@ args = 0, pretend = 0, frame = 8
 165              		@ frame_needed = 0, uses_anonymous_args = 0
 166              		.loc 1 82 80 is_stmt 0 view .LVU20
 167 0000 00B5     		push	{lr}
 168              		.cfi_def_cfa_offset 4
 169              		.cfi_offset 14, -4
 170 0002 DFF834C0 		ldr	ip, .L21
 171 0006 83B0     		sub	sp, sp, #12
ARM GAS  /tmp/cco1TM6T.s 			page 4


 172              		.cfi_def_cfa_offset 16
 173              		.loc 1 82 80 view .LVU21
 174 0008 DCF800C0 		ldr	ip, [ip]
 175 000c CDF804C0 		str	ip, [sp, #4]
 176 0010 4FF0000C 		mov	ip,#0
 177              		.loc 1 84 3 is_stmt 1 view .LVU22
 178              		.loc 1 84 10 is_stmt 0 view .LVU23
 179 0014 DFF820C0 		ldr	ip, .L21
 180 0018 DCF800E0 		ldr	lr, [ip]
 181 001c DDF804C0 		ldr	ip, [sp, #4]
 182 0020 9CEA0E0E 		eors	lr, ip, lr
 183 0024 05D1     		bne	.L20
 184 0026 3030     		adds	r0, r0, #48
 185              	.LVL9:
 186              		.loc 1 85 1 view .LVU24
 187 0028 03B0     		add	sp, sp, #12
 188              		.cfi_remember_state
 189              		.cfi_def_cfa_offset 4
 190              		@ sp needed
 191 002a 5DF804EB 		ldr	lr, [sp], #4
 192              		.cfi_restore 14
 193              		.cfi_def_cfa_offset 0
 194              		.loc 1 84 10 view .LVU25
 195 002e FFF7FEBF 		b	chOQWriteTimeout
 196              	.LVL10:
 197              	.L20:
 198              		.cfi_restore_state
 199              		.loc 1 84 10 view .LVU26
 200 0032 FFF7FEFF 		bl	__stack_chk_fail
 201              	.LVL11:
 202              	.L22:
 203              		.loc 1 84 10 view .LVU27
 204 0036 00BF     		.align	2
 205              	.L21:
 206 0038 00000000 		.word	.LC2
 207              		.cfi_endproc
 208              	.LFE262:
 209              		.size	writet, .-writet
 210              		.section	.rodata.write.cst4,"aM",%progbits,4
 211              		.align	2
 212              	.LC3:
 213 0000 00000000 		.word	__stack_chk_guard
 214              		.section	.text.write,"ax",%progbits
 215              		.align	1
 216              		.p2align 4,,15
 217              		.syntax unified
 218              		.thumb
 219              		.thumb_func
 220              		.fpu fpv4-sp-d16
 221              		.type	write, %function
 222              	write:
 223              	.LVL12:
 224              	.LFB256:
 225              		.loc 1 50 60 is_stmt 1 view -0
 226              		.cfi_startproc
 227              		@ args = 0, pretend = 0, frame = 8
 228              		@ frame_needed = 0, uses_anonymous_args = 0
ARM GAS  /tmp/cco1TM6T.s 			page 5


 229              		.loc 1 50 60 is_stmt 0 view .LVU29
 230 0000 00B5     		push	{lr}
 231              		.cfi_def_cfa_offset 4
 232              		.cfi_offset 14, -4
 233 0002 0B4B     		ldr	r3, .L28
 234 0004 83B0     		sub	sp, sp, #12
 235              		.cfi_def_cfa_offset 16
 236              		.loc 1 50 60 view .LVU30
 237 0006 1B68     		ldr	r3, [r3]
 238 0008 0193     		str	r3, [sp, #4]
 239 000a 4FF00003 		mov	r3,#0
 240              		.loc 1 52 3 is_stmt 1 view .LVU31
 241              		.loc 1 52 10 is_stmt 0 view .LVU32
 242 000e 084B     		ldr	r3, .L28
 243 0010 D3F800C0 		ldr	ip, [r3]
 244 0014 019B     		ldr	r3, [sp, #4]
 245 0016 93EA0C0C 		eors	ip, r3, ip
 246 001a 07D1     		bne	.L27
 247 001c 3030     		adds	r0, r0, #48
 248              	.LVL13:
 249              		.loc 1 52 10 view .LVU33
 250 001e 4FF0FF33 		mov	r3, #-1
 251              		.loc 1 54 1 view .LVU34
 252 0022 03B0     		add	sp, sp, #12
 253              		.cfi_remember_state
 254              		.cfi_def_cfa_offset 4
 255              		@ sp needed
 256 0024 5DF804EB 		ldr	lr, [sp], #4
 257              		.cfi_restore 14
 258              		.cfi_def_cfa_offset 0
 259              		.loc 1 52 10 view .LVU35
 260 0028 FFF7FEBF 		b	chOQWriteTimeout
 261              	.LVL14:
 262              	.L27:
 263              		.cfi_restore_state
 264              		.loc 1 52 10 view .LVU36
 265 002c FFF7FEFF 		bl	__stack_chk_fail
 266              	.LVL15:
 267              	.L29:
 268              		.loc 1 52 10 view .LVU37
 269              		.align	2
 270              	.L28:
 271 0030 00000000 		.word	.LC3
 272              		.cfi_endproc
 273              	.LFE256:
 274              		.size	write, .-write
 275              		.section	.rodata.gett.cst4,"aM",%progbits,4
 276              		.align	2
 277              	.LC4:
 278 0000 00000000 		.word	__stack_chk_guard
 279              		.section	.text.gett,"ax",%progbits
 280              		.align	1
 281              		.p2align 4,,15
 282              		.syntax unified
 283              		.thumb
 284              		.thumb_func
 285              		.fpu fpv4-sp-d16
ARM GAS  /tmp/cco1TM6T.s 			page 6


 286              		.type	gett, %function
 287              	gett:
 288              	.LVL16:
 289              	.LFB261:
 290              		.loc 1 77 48 is_stmt 1 view -0
 291              		.cfi_startproc
 292              		@ args = 0, pretend = 0, frame = 8
 293              		@ frame_needed = 0, uses_anonymous_args = 0
 294              		.loc 1 77 48 is_stmt 0 view .LVU39
 295 0000 00B5     		push	{lr}
 296              		.cfi_def_cfa_offset 4
 297              		.cfi_offset 14, -4
 298 0002 094B     		ldr	r3, .L35
 299 0004 83B0     		sub	sp, sp, #12
 300              		.cfi_def_cfa_offset 16
 301              		.loc 1 77 48 view .LVU40
 302 0006 1B68     		ldr	r3, [r3]
 303 0008 0193     		str	r3, [sp, #4]
 304 000a 4FF00003 		mov	r3,#0
 305              		.loc 1 79 3 is_stmt 1 view .LVU41
 306              		.loc 1 79 10 is_stmt 0 view .LVU42
 307 000e 064B     		ldr	r3, .L35
 308 0010 1A68     		ldr	r2, [r3]
 309 0012 019B     		ldr	r3, [sp, #4]
 310 0014 5A40     		eors	r2, r3, r2
 311 0016 05D1     		bne	.L34
 312 0018 0C30     		adds	r0, r0, #12
 313              	.LVL17:
 314              		.loc 1 80 1 view .LVU43
 315 001a 03B0     		add	sp, sp, #12
 316              		.cfi_remember_state
 317              		.cfi_def_cfa_offset 4
 318              		@ sp needed
 319 001c 5DF804EB 		ldr	lr, [sp], #4
 320              		.cfi_restore 14
 321              		.cfi_def_cfa_offset 0
 322              		.loc 1 79 10 view .LVU44
 323 0020 FFF7FEBF 		b	chIQGetTimeout
 324              	.LVL18:
 325              	.L34:
 326              		.cfi_restore_state
 327              		.loc 1 79 10 view .LVU45
 328 0024 FFF7FEFF 		bl	__stack_chk_fail
 329              	.LVL19:
 330              	.L36:
 331              		.loc 1 79 10 view .LVU46
 332              		.align	2
 333              	.L35:
 334 0028 00000000 		.word	.LC4
 335              		.cfi_endproc
 336              	.LFE261:
 337              		.size	gett, .-gett
 338              		.section	.rodata.get.cst4,"aM",%progbits,4
 339              		.align	2
 340              	.LC5:
 341 0000 00000000 		.word	__stack_chk_guard
 342              		.section	.text.get,"ax",%progbits
ARM GAS  /tmp/cco1TM6T.s 			page 7


 343              		.align	1
 344              		.p2align 4,,15
 345              		.syntax unified
 346              		.thumb
 347              		.thumb_func
 348              		.fpu fpv4-sp-d16
 349              		.type	get, %function
 350              	get:
 351              	.LVL20:
 352              	.LFB259:
 353              		.loc 1 67 28 is_stmt 1 view -0
 354              		.cfi_startproc
 355              		@ args = 0, pretend = 0, frame = 8
 356              		@ frame_needed = 0, uses_anonymous_args = 0
 357              		.loc 1 67 28 is_stmt 0 view .LVU48
 358 0000 00B5     		push	{lr}
 359              		.cfi_def_cfa_offset 4
 360              		.cfi_offset 14, -4
 361 0002 0A4B     		ldr	r3, .L42
 362 0004 83B0     		sub	sp, sp, #12
 363              		.cfi_def_cfa_offset 16
 364              		.loc 1 67 28 view .LVU49
 365 0006 1B68     		ldr	r3, [r3]
 366 0008 0193     		str	r3, [sp, #4]
 367 000a 4FF00003 		mov	r3,#0
 368              		.loc 1 69 3 is_stmt 1 view .LVU50
 369              		.loc 1 69 10 is_stmt 0 view .LVU51
 370 000e 074B     		ldr	r3, .L42
 371 0010 1A68     		ldr	r2, [r3]
 372 0012 019B     		ldr	r3, [sp, #4]
 373 0014 5A40     		eors	r2, r3, r2
 374 0016 07D1     		bne	.L41
 375 0018 0C30     		adds	r0, r0, #12
 376              	.LVL21:
 377              		.loc 1 69 10 view .LVU52
 378 001a 4FF0FF31 		mov	r1, #-1
 379              		.loc 1 70 1 view .LVU53
 380 001e 03B0     		add	sp, sp, #12
 381              		.cfi_remember_state
 382              		.cfi_def_cfa_offset 4
 383              		@ sp needed
 384 0020 5DF804EB 		ldr	lr, [sp], #4
 385              		.cfi_restore 14
 386              		.cfi_def_cfa_offset 0
 387              		.loc 1 69 10 view .LVU54
 388 0024 FFF7FEBF 		b	chIQGetTimeout
 389              	.LVL22:
 390              	.L41:
 391              		.cfi_restore_state
 392              		.loc 1 69 10 view .LVU55
 393 0028 FFF7FEFF 		bl	__stack_chk_fail
 394              	.LVL23:
 395              	.L43:
 396              		.loc 1 69 10 view .LVU56
 397              		.align	2
 398              	.L42:
 399 002c 00000000 		.word	.LC5
ARM GAS  /tmp/cco1TM6T.s 			page 8


 400              		.cfi_endproc
 401              	.LFE259:
 402              		.size	get, .-get
 403              		.section	.rodata.putt.cst4,"aM",%progbits,4
 404              		.align	2
 405              	.LC6:
 406 0000 00000000 		.word	__stack_chk_guard
 407              		.section	.text.putt,"ax",%progbits
 408              		.align	1
 409              		.p2align 4,,15
 410              		.syntax unified
 411              		.thumb
 412              		.thumb_func
 413              		.fpu fpv4-sp-d16
 414              		.type	putt, %function
 415              	putt:
 416              	.LVL24:
 417              	.LFB260:
 418              		.loc 1 72 59 is_stmt 1 view -0
 419              		.cfi_startproc
 420              		@ args = 0, pretend = 0, frame = 8
 421              		@ frame_needed = 0, uses_anonymous_args = 0
 422              		.loc 1 72 59 is_stmt 0 view .LVU58
 423 0000 00B5     		push	{lr}
 424              		.cfi_def_cfa_offset 4
 425              		.cfi_offset 14, -4
 426 0002 0A4B     		ldr	r3, .L49
 427 0004 83B0     		sub	sp, sp, #12
 428              		.cfi_def_cfa_offset 16
 429              		.loc 1 72 59 view .LVU59
 430 0006 1B68     		ldr	r3, [r3]
 431 0008 0193     		str	r3, [sp, #4]
 432 000a 4FF00003 		mov	r3,#0
 433              		.loc 1 74 3 is_stmt 1 view .LVU60
 434              		.loc 1 74 10 is_stmt 0 view .LVU61
 435 000e 074B     		ldr	r3, .L49
 436 0010 D3F800C0 		ldr	ip, [r3]
 437 0014 019B     		ldr	r3, [sp, #4]
 438 0016 93EA0C0C 		eors	ip, r3, ip
 439 001a 05D1     		bne	.L48
 440 001c 3030     		adds	r0, r0, #48
 441              	.LVL25:
 442              		.loc 1 75 1 view .LVU62
 443 001e 03B0     		add	sp, sp, #12
 444              		.cfi_remember_state
 445              		.cfi_def_cfa_offset 4
 446              		@ sp needed
 447 0020 5DF804EB 		ldr	lr, [sp], #4
 448              		.cfi_restore 14
 449              		.cfi_def_cfa_offset 0
 450              		.loc 1 74 10 view .LVU63
 451 0024 FFF7FEBF 		b	chOQPutTimeout
 452              	.LVL26:
 453              	.L48:
 454              		.cfi_restore_state
 455              		.loc 1 74 10 view .LVU64
 456 0028 FFF7FEFF 		bl	__stack_chk_fail
ARM GAS  /tmp/cco1TM6T.s 			page 9


 457              	.LVL27:
 458              	.L50:
 459              		.loc 1 74 10 view .LVU65
 460              		.align	2
 461              	.L49:
 462 002c 00000000 		.word	.LC6
 463              		.cfi_endproc
 464              	.LFE260:
 465              		.size	putt, .-putt
 466              		.section	.rodata.put.cst4,"aM",%progbits,4
 467              		.align	2
 468              	.LC7:
 469 0000 00000000 		.word	__stack_chk_guard
 470              		.section	.text.put,"ax",%progbits
 471              		.align	1
 472              		.p2align 4,,15
 473              		.syntax unified
 474              		.thumb
 475              		.thumb_func
 476              		.fpu fpv4-sp-d16
 477              		.type	put, %function
 478              	put:
 479              	.LVL28:
 480              	.LFB258:
 481              		.loc 1 62 39 is_stmt 1 view -0
 482              		.cfi_startproc
 483              		@ args = 0, pretend = 0, frame = 8
 484              		@ frame_needed = 0, uses_anonymous_args = 0
 485              		.loc 1 62 39 is_stmt 0 view .LVU67
 486 0000 00B5     		push	{lr}
 487              		.cfi_def_cfa_offset 4
 488              		.cfi_offset 14, -4
 489 0002 0A4B     		ldr	r3, .L56
 490 0004 83B0     		sub	sp, sp, #12
 491              		.cfi_def_cfa_offset 16
 492              		.loc 1 62 39 view .LVU68
 493 0006 1B68     		ldr	r3, [r3]
 494 0008 0193     		str	r3, [sp, #4]
 495 000a 4FF00003 		mov	r3,#0
 496              		.loc 1 64 3 is_stmt 1 view .LVU69
 497              		.loc 1 64 10 is_stmt 0 view .LVU70
 498 000e 074B     		ldr	r3, .L56
 499 0010 1A68     		ldr	r2, [r3]
 500 0012 019B     		ldr	r3, [sp, #4]
 501 0014 5A40     		eors	r2, r3, r2
 502 0016 07D1     		bne	.L55
 503 0018 3030     		adds	r0, r0, #48
 504              	.LVL29:
 505              		.loc 1 64 10 view .LVU71
 506 001a 4FF0FF32 		mov	r2, #-1
 507              		.loc 1 65 1 view .LVU72
 508 001e 03B0     		add	sp, sp, #12
 509              		.cfi_remember_state
 510              		.cfi_def_cfa_offset 4
 511              		@ sp needed
 512 0020 5DF804EB 		ldr	lr, [sp], #4
 513              		.cfi_restore 14
ARM GAS  /tmp/cco1TM6T.s 			page 10


 514              		.cfi_def_cfa_offset 0
 515              		.loc 1 64 10 view .LVU73
 516 0024 FFF7FEBF 		b	chOQPutTimeout
 517              	.LVL30:
 518              	.L55:
 519              		.cfi_restore_state
 520              		.loc 1 64 10 view .LVU74
 521 0028 FFF7FEFF 		bl	__stack_chk_fail
 522              	.LVL31:
 523              	.L57:
 524              		.loc 1 64 10 view .LVU75
 525              		.align	2
 526              	.L56:
 527 002c 00000000 		.word	.LC7
 528              		.cfi_endproc
 529              	.LFE258:
 530              		.size	put, .-put
 531              		.section	.rodata.sdInit.cst4,"aM",%progbits,4
 532              		.align	2
 533              	.LC8:
 534 0000 00000000 		.word	__stack_chk_guard
 535              		.section	.text.sdInit,"ax",%progbits
 536              		.align	1
 537              		.p2align 4,,15
 538              		.global	sdInit
 539              		.syntax unified
 540              		.thumb
 541              		.thumb_func
 542              		.fpu fpv4-sp-d16
 543              		.type	sdInit, %function
 544              	sdInit:
 545              	.LFB264:
 546              		.loc 1 108 19 is_stmt 1 view -0
 547              		.cfi_startproc
 548              		@ args = 0, pretend = 0, frame = 8
 549              		@ frame_needed = 0, uses_anonymous_args = 0
 550 0000 00B5     		push	{lr}
 551              		.cfi_def_cfa_offset 4
 552              		.cfi_offset 14, -4
 553 0002 094B     		ldr	r3, .L63
 554 0004 83B0     		sub	sp, sp, #12
 555              		.cfi_def_cfa_offset 16
 556              		.loc 1 108 19 is_stmt 0 view .LVU77
 557 0006 1B68     		ldr	r3, [r3]
 558 0008 0193     		str	r3, [sp, #4]
 559 000a 4FF00003 		mov	r3,#0
 560              		.loc 1 110 3 is_stmt 1 view .LVU78
 561 000e 064B     		ldr	r3, .L63
 562 0010 1A68     		ldr	r2, [r3]
 563 0012 019B     		ldr	r3, [sp, #4]
 564 0014 5A40     		eors	r2, r3, r2
 565 0016 04D1     		bne	.L62
 566              		.loc 1 111 1 is_stmt 0 view .LVU79
 567 0018 03B0     		add	sp, sp, #12
 568              		.cfi_remember_state
 569              		.cfi_def_cfa_offset 4
 570              		@ sp needed
ARM GAS  /tmp/cco1TM6T.s 			page 11


 571 001a 5DF804EB 		ldr	lr, [sp], #4
 572              		.cfi_restore 14
 573              		.cfi_def_cfa_offset 0
 574              		.loc 1 110 3 view .LVU80
 575 001e FFF7FEBF 		b	sd_lld_init
 576              	.LVL32:
 577              	.L62:
 578              		.cfi_restore_state
 579 0022 FFF7FEFF 		bl	__stack_chk_fail
 580              	.LVL33:
 581              	.L64:
 582 0026 00BF     		.align	2
 583              	.L63:
 584 0028 00000000 		.word	.LC8
 585              		.cfi_endproc
 586              	.LFE264:
 587              		.size	sdInit, .-sdInit
 588              		.section	.rodata.sdObjectInit.cst4,"aM",%progbits,4
 589              		.align	2
 590              	.LC9:
 591 0000 00000000 		.word	__stack_chk_guard
 592              		.section	.text.sdObjectInit,"ax",%progbits
 593              		.align	1
 594              		.p2align 4,,15
 595              		.global	sdObjectInit
 596              		.syntax unified
 597              		.thumb
 598              		.thumb_func
 599              		.fpu fpv4-sp-d16
 600              		.type	sdObjectInit, %function
 601              	sdObjectInit:
 602              	.LVL34:
 603              	.LFB265:
 604              		.loc 1 128 76 is_stmt 1 view -0
 605              		.cfi_startproc
 606              		@ args = 0, pretend = 0, frame = 8
 607              		@ frame_needed = 0, uses_anonymous_args = 0
 608              		.loc 1 128 76 is_stmt 0 view .LVU82
 609 0000 70B5     		push	{r4, r5, r6, lr}
 610              		.cfi_def_cfa_offset 16
 611              		.cfi_offset 4, -16
 612              		.cfi_offset 5, -12
 613              		.cfi_offset 6, -8
 614              		.cfi_offset 14, -4
 615 0002 144D     		ldr	r5, .L69
 616              		.loc 1 130 12 view .LVU83
 617 0004 144B     		ldr	r3, .L69+4
 618              		.loc 1 128 76 view .LVU84
 619 0006 84B0     		sub	sp, sp, #16
 620              		.cfi_def_cfa_offset 32
 621              		.loc 1 128 76 view .LVU85
 622 0008 0446     		mov	r4, r0
 623 000a 2D68     		ldr	r5, [r5]
 624 000c 0395     		str	r5, [sp, #12]
 625 000e 4FF00005 		mov	r5,#0
 626              		.loc 1 130 3 is_stmt 1 view .LVU86
 627              		.loc 1 130 12 is_stmt 0 view .LVU87
ARM GAS  /tmp/cco1TM6T.s 			page 12


 628 0012 40F8043B 		str	r3, [r0], #4
 629              	.LVL35:
 630              		.loc 1 131 3 is_stmt 1 view .LVU88
 631              	.LBB53:
 632              	.LBI53:
 633              		.file 2 ".//ChibiOS//os/hal/osal/rt/osal.h"
 634              		.loc 2 775 20 view .LVU89
 635              	.LBE53:
 636              		.loc 2 777 3 view .LVU90
 637              	.LBB58:
 638              	.LBB54:
 639              	.LBI54:
 640              		.file 3 ".//ChibiOS//os/rt/include/chevents.h"
 641              		.loc 3 170 20 view .LVU91
 642              	.LBB55:
 643              		.loc 3 172 3 view .LVU92
 644              	.LBE55:
 645              	.LBE54:
 646              	.LBE58:
 647              		.loc 1 132 14 is_stmt 0 view .LVU93
 648 0016 0126     		movs	r6, #1
 649              		.loc 1 128 76 view .LVU94
 650 0018 0B46     		mov	r3, r1
 651              		.loc 1 133 3 view .LVU95
 652 001a 0094     		str	r4, [sp]
 653              		.loc 1 128 76 view .LVU96
 654 001c 1546     		mov	r5, r2
 655              	.LBB59:
 656              	.LBB57:
 657              	.LBB56:
 658              		.loc 3 172 16 view .LVU97
 659 001e 6060     		str	r0, [r4, #4]
 660              	.LVL36:
 661              		.loc 3 172 16 view .LVU98
 662              	.LBE56:
 663              	.LBE57:
 664              	.LBE59:
 665              		.loc 1 132 3 is_stmt 1 view .LVU99
 666              		.loc 1 133 3 is_stmt 0 view .LVU100
 667 0020 04F15401 		add	r1, r4, #84
 668              	.LVL37:
 669              		.loc 1 133 3 view .LVU101
 670 0024 04F10C00 		add	r0, r4, #12
 671 0028 1022     		movs	r2, #16
 672              	.LVL38:
 673              		.loc 1 132 14 view .LVU102
 674 002a 2672     		strb	r6, [r4, #8]
 675              		.loc 1 133 3 is_stmt 1 view .LVU103
 676 002c FFF7FEFF 		bl	chIQObjectInit
 677              	.LVL39:
 678              		.loc 1 134 3 view .LVU104
 679 0030 2B46     		mov	r3, r5
 680 0032 1022     		movs	r2, #16
 681 0034 0094     		str	r4, [sp]
 682 0036 04F16401 		add	r1, r4, #100
 683 003a 04F13000 		add	r0, r4, #48
 684 003e FFF7FEFF 		bl	chOQObjectInit
ARM GAS  /tmp/cco1TM6T.s 			page 13


 685              	.LVL40:
 686              		.loc 1 135 1 is_stmt 0 view .LVU105
 687 0042 044B     		ldr	r3, .L69
 688 0044 1A68     		ldr	r2, [r3]
 689 0046 039B     		ldr	r3, [sp, #12]
 690 0048 5A40     		eors	r2, r3, r2
 691 004a 01D1     		bne	.L68
 692 004c 04B0     		add	sp, sp, #16
 693              		.cfi_remember_state
 694              		.cfi_def_cfa_offset 16
 695              		@ sp needed
 696 004e 70BD     		pop	{r4, r5, r6, pc}
 697              	.LVL41:
 698              	.L68:
 699              		.cfi_restore_state
 700              		.loc 1 135 1 view .LVU106
 701 0050 FFF7FEFF 		bl	__stack_chk_fail
 702              	.LVL42:
 703              	.L70:
 704              		.align	2
 705              	.L69:
 706 0054 00000000 		.word	.LC9
 707 0058 00000000 		.word	.LANCHOR0
 708              		.cfi_endproc
 709              	.LFE265:
 710              		.size	sdObjectInit, .-sdObjectInit
 711              		.section	.rodata.sdStart.cst4,"aM",%progbits,4
 712              		.align	2
 713              	.LC10:
 714 0000 00000000 		.word	__stack_chk_guard
 715              		.section	.text.sdStart,"ax",%progbits
 716              		.align	1
 717              		.p2align 4,,15
 718              		.global	sdStart
 719              		.syntax unified
 720              		.thumb
 721              		.thumb_func
 722              		.fpu fpv4-sp-d16
 723              		.type	sdStart, %function
 724              	sdStart:
 725              	.LVL43:
 726              	.LFB266:
 727              		.loc 1 147 61 is_stmt 1 view -0
 728              		.cfi_startproc
 729              		@ args = 0, pretend = 0, frame = 16
 730              		@ frame_needed = 0, uses_anonymous_args = 0
 731              		.loc 1 147 61 is_stmt 0 view .LVU108
 732 0000 10B5     		push	{r4, lr}
 733              		.cfi_def_cfa_offset 8
 734              		.cfi_offset 4, -8
 735              		.cfi_offset 14, -4
 736 0002 204B     		ldr	r3, .L80
 737 0004 84B0     		sub	sp, sp, #16
 738              		.cfi_def_cfa_offset 24
 739              		.loc 1 147 61 view .LVU109
 740 0006 1B68     		ldr	r3, [r3]
 741 0008 0393     		str	r3, [sp, #12]
ARM GAS  /tmp/cco1TM6T.s 			page 14


 742 000a 4FF00003 		mov	r3,#0
 743              		.loc 1 149 3 is_stmt 1 view .LVU110
 744              		.loc 1 149 3 view .LVU111
 745              		.loc 1 149 3 view .LVU112
 746 000e 0446     		mov	r4, r0
 747 0010 80B3     		cbz	r0, .L77
 748              	.LVL44:
 749              	.L72:
 750              		.loc 1 149 3 discriminator 5 view .LVU113
 751              		.loc 1 151 3 discriminator 5 view .LVU114
 752              	.LBB73:
 753              	.LBI73:
 754              		.loc 2 445 20 discriminator 5 view .LVU115
 755              	.LBE73:
 756              		.loc 2 447 3 discriminator 5 view .LVU116
 757              	.LBB82:
 758              	.LBB74:
 759              	.LBI74:
 760              		.file 4 ".//ChibiOS//os/rt/include/chsys.h"
 761              		.loc 4 346 20 discriminator 5 view .LVU117
 762              	.LBB75:
 763              		.loc 4 348 3 discriminator 5 view .LVU118
 764              	.LBB76:
 765              	.LBI76:
 766              		.file 5 ".//ChibiOS//os/rt/ports/ARMCMx/chcore_v7m.h"
 767              		.loc 5 444 20 discriminator 5 view .LVU119
 768              	.LBE76:
 769              	.LBE75:
 770              	.LBE74:
 771              	.LBE82:
 772              		.loc 5 447 3 discriminator 5 view .LVU120
 773              	.LBB83:
 774              	.LBB81:
 775              	.LBB80:
 776              	.LBB79:
 777              	.LBB77:
 778              	.LBI77:
 779              		.file 6 ".//ChibiOS//os/ext/CMSIS/include/core_cmFunc.h"
 780              		.loc 6 544 57 discriminator 5 view .LVU121
 781              	.LBB78:
 782              		.loc 6 546 3 discriminator 5 view .LVU122
 783 0012 0191     		str	r1, [sp, #4]
 784 0014 2023     		movs	r3, #32
 785              		.syntax unified
 786              	@ 546 ".//ChibiOS//os/ext/CMSIS/include/core_cmFunc.h" 1
 787 0016 83F31188 		MSR basepri, r3
 788              	@ 0 "" 2
 789              	.LVL45:
 790              		.loc 6 546 3 is_stmt 0 discriminator 5 view .LVU123
 791              		.thumb
 792              		.syntax unified
 793              	.LBE78:
 794              	.LBE77:
 795              	.LBE79:
 796              		.loc 4 349 3 is_stmt 1 discriminator 5 view .LVU124
 797 001a FFF7FEFF 		bl	_stats_start_measure_crit_thd
 798              	.LVL46:
ARM GAS  /tmp/cco1TM6T.s 			page 15


 799              		.loc 4 350 3 discriminator 5 view .LVU125
 800 001e FFF7FEFF 		bl	_dbg_check_lock
 801              	.LVL47:
 802              	.LBE80:
 803              	.LBE81:
 804              	.LBE83:
 805              		.loc 1 152 3 discriminator 5 view .LVU126
 806              		.loc 1 152 3 discriminator 5 view .LVU127
 807              		.loc 1 152 3 discriminator 5 view .LVU128
 808 0022 237A     		ldrb	r3, [r4, #8]	@ zero_extendqisi2
 809 0024 0199     		ldr	r1, [sp, #4]
 810 0026 013B     		subs	r3, r3, #1
 811 0028 012B     		cmp	r3, #1
 812 002a 03D9     		bls	.L73
 813              		.loc 1 152 3 discriminator 3 view .LVU129
 814 002c 1648     		ldr	r0, .L80+4
 815 002e FFF7FEFF 		bl	chSysHalt
 816              	.LVL48:
 817 0032 0199     		ldr	r1, [sp, #4]
 818              	.L73:
 819              		.loc 1 152 3 discriminator 5 view .LVU130
 820              		.loc 1 154 3 discriminator 5 view .LVU131
 821 0034 2046     		mov	r0, r4
 822 0036 FFF7FEFF 		bl	sd_lld_start
 823              	.LVL49:
 824              		.loc 1 155 3 discriminator 5 view .LVU132
 825              		.loc 1 155 14 is_stmt 0 discriminator 5 view .LVU133
 826 003a 0223     		movs	r3, #2
 827 003c 2372     		strb	r3, [r4, #8]
 828              		.loc 1 156 3 is_stmt 1 discriminator 5 view .LVU134
 829              	.LBB84:
 830              	.LBI84:
 831              		.loc 2 456 20 discriminator 5 view .LVU135
 832              	.LBE84:
 833              		.loc 2 458 3 discriminator 5 view .LVU136
 834              	.LBB95:
 835              	.LBB85:
 836              	.LBI85:
 837              		.loc 4 358 20 discriminator 5 view .LVU137
 838              	.LBB86:
 839              		.loc 4 360 3 discriminator 5 view .LVU138
 840 003e FFF7FEFF 		bl	_dbg_check_unlock
 841              	.LVL50:
 842              		.loc 4 361 3 discriminator 5 view .LVU139
 843 0042 FFF7FEFF 		bl	_stats_stop_measure_crit_thd
 844              	.LVL51:
 845              		.loc 4 367 3 discriminator 5 view .LVU140
 846              		.loc 4 367 3 discriminator 5 view .LVU141
 847              		.loc 4 367 3 discriminator 5 view .LVU142
 848 0046 114B     		ldr	r3, .L80+8
 849 0048 1A68     		ldr	r2, [r3]
 850 004a 9A42     		cmp	r2, r3
 851 004c 04D0     		beq	.L74
 852              		.loc 4 367 3 is_stmt 0 view .LVU143
 853 004e 9969     		ldr	r1, [r3, #24]
 854 0050 9368     		ldr	r3, [r2, #8]
 855 0052 8A68     		ldr	r2, [r1, #8]
ARM GAS  /tmp/cco1TM6T.s 			page 16


 856 0054 9A42     		cmp	r2, r3
 857 0056 09D3     		bcc	.L78
 858              	.L74:
 859              		.loc 4 367 3 is_stmt 1 view .LVU144
 860              		.loc 4 371 3 view .LVU145
 861              	.LBB87:
 862              	.LBI87:
 863              		.loc 5 458 20 view .LVU146
 864              	.LBE87:
 865              	.LBE86:
 866              	.LBE85:
 867              	.LBE95:
 868              		.loc 5 461 3 view .LVU147
 869              	.LVL52:
 870              	.LBB96:
 871              	.LBB93:
 872              	.LBB91:
 873              	.LBB90:
 874              	.LBB88:
 875              	.LBI88:
 876              		.loc 6 544 57 view .LVU148
 877              	.LBB89:
 878              		.loc 6 546 3 view .LVU149
 879 0058 0023     		movs	r3, #0
 880              		.syntax unified
 881              	@ 546 ".//ChibiOS//os/ext/CMSIS/include/core_cmFunc.h" 1
 882 005a 83F31188 		MSR basepri, r3
 883              	@ 0 "" 2
 884              	.LVL53:
 885              		.loc 6 546 3 is_stmt 0 view .LVU150
 886              		.thumb
 887              		.syntax unified
 888              	.LBE89:
 889              	.LBE88:
 890              	.LBE90:
 891              	.LBE91:
 892              	.LBE93:
 893              	.LBE96:
 894              		.loc 1 157 1 view .LVU151
 895 005e 094B     		ldr	r3, .L80
 896 0060 1A68     		ldr	r2, [r3]
 897 0062 039B     		ldr	r3, [sp, #12]
 898 0064 5A40     		eors	r2, r3, r2
 899 0066 0BD1     		bne	.L79
 900 0068 04B0     		add	sp, sp, #16
 901              		.cfi_remember_state
 902              		.cfi_def_cfa_offset 8
 903              		@ sp needed
 904 006a 10BD     		pop	{r4, pc}
 905              	.LVL54:
 906              	.L78:
 907              		.cfi_restore_state
 908              	.LBB97:
 909              	.LBB94:
 910              	.LBB92:
 911              		.loc 4 367 3 is_stmt 1 view .LVU152
 912 006c 0848     		ldr	r0, .L80+12
ARM GAS  /tmp/cco1TM6T.s 			page 17


 913 006e FFF7FEFF 		bl	chSysHalt
 914              	.LVL55:
 915 0072 F1E7     		b	.L74
 916              	.LVL56:
 917              	.L77:
 918              		.loc 4 367 3 is_stmt 0 view .LVU153
 919              	.LBE92:
 920              	.LBE94:
 921              	.LBE97:
 922              		.loc 1 149 3 discriminator 3 view .LVU154
 923 0074 0448     		ldr	r0, .L80+4
 924              	.LVL57:
 925              		.loc 1 149 3 discriminator 3 view .LVU155
 926 0076 0191     		str	r1, [sp, #4]
 927              		.loc 1 149 3 is_stmt 1 discriminator 3 view .LVU156
 928 0078 FFF7FEFF 		bl	chSysHalt
 929              	.LVL58:
 930              		.loc 1 149 3 is_stmt 0 discriminator 3 view .LVU157
 931 007c 0199     		ldr	r1, [sp, #4]
 932 007e C8E7     		b	.L72
 933              	.LVL59:
 934              	.L79:
 935              		.loc 1 157 1 view .LVU158
 936 0080 FFF7FEFF 		bl	__stack_chk_fail
 937              	.LVL60:
 938              	.L81:
 939              		.align	2
 940              	.L80:
 941 0084 00000000 		.word	.LC10
 942 0088 00000000 		.word	.LANCHOR1
 943 008c 00000000 		.word	ch
 944 0090 00000000 		.word	.LANCHOR2
 945              		.cfi_endproc
 946              	.LFE266:
 947              		.size	sdStart, .-sdStart
 948              		.section	.rodata.sdStop.cst4,"aM",%progbits,4
 949              		.align	2
 950              	.LC11:
 951 0000 00000000 		.word	__stack_chk_guard
 952              		.section	.text.sdStop,"ax",%progbits
 953              		.align	1
 954              		.p2align 4,,15
 955              		.global	sdStop
 956              		.syntax unified
 957              		.thumb
 958              		.thumb_func
 959              		.fpu fpv4-sp-d16
 960              		.type	sdStop, %function
 961              	sdStop:
 962              	.LVL61:
 963              	.LFB267:
 964              		.loc 1 168 32 is_stmt 1 view -0
 965              		.cfi_startproc
 966              		@ args = 0, pretend = 0, frame = 8
 967              		@ frame_needed = 0, uses_anonymous_args = 0
 968              		.loc 1 168 32 is_stmt 0 view .LVU160
 969 0000 10B5     		push	{r4, lr}
ARM GAS  /tmp/cco1TM6T.s 			page 18


 970              		.cfi_def_cfa_offset 8
 971              		.cfi_offset 4, -8
 972              		.cfi_offset 14, -4
 973 0002 234B     		ldr	r3, .L91
 974 0004 82B0     		sub	sp, sp, #8
 975              		.cfi_def_cfa_offset 16
 976              		.loc 1 168 32 view .LVU161
 977 0006 1B68     		ldr	r3, [r3]
 978 0008 0193     		str	r3, [sp, #4]
 979 000a 4FF00003 		mov	r3,#0
 980              		.loc 1 170 3 is_stmt 1 view .LVU162
 981              		.loc 1 170 3 view .LVU163
 982              		.loc 1 170 3 view .LVU164
 983 000e 0446     		mov	r4, r0
 984 0010 0028     		cmp	r0, #0
 985 0012 37D0     		beq	.L88
 986              	.LVL62:
 987              	.L83:
 988              		.loc 1 170 3 discriminator 5 view .LVU165
 989              		.loc 1 172 3 discriminator 5 view .LVU166
 990              	.LBB113:
 991              	.LBI113:
 992              		.loc 2 445 20 discriminator 5 view .LVU167
 993              	.LBE113:
 994              		.loc 2 447 3 discriminator 5 view .LVU168
 995              	.LBB122:
 996              	.LBB114:
 997              	.LBI114:
 998              		.loc 4 346 20 discriminator 5 view .LVU169
 999              	.LBB115:
 1000              		.loc 4 348 3 discriminator 5 view .LVU170
 1001              	.LBB116:
 1002              	.LBI116:
 1003              		.loc 5 444 20 discriminator 5 view .LVU171
 1004              	.LBE116:
 1005              	.LBE115:
 1006              	.LBE114:
 1007              	.LBE122:
 1008              		.loc 5 447 3 discriminator 5 view .LVU172
 1009              	.LBB123:
 1010              	.LBB121:
 1011              	.LBB120:
 1012              	.LBB119:
 1013              	.LBB117:
 1014              	.LBI117:
 1015              		.loc 6 544 57 discriminator 5 view .LVU173
 1016              	.LBB118:
 1017              		.loc 6 546 3 discriminator 5 view .LVU174
 1018 0014 2023     		movs	r3, #32
 1019              		.syntax unified
 1020              	@ 546 ".//ChibiOS//os/ext/CMSIS/include/core_cmFunc.h" 1
 1021 0016 83F31188 		MSR basepri, r3
 1022              	@ 0 "" 2
 1023              	.LVL63:
 1024              		.loc 6 546 3 is_stmt 0 discriminator 5 view .LVU175
 1025              		.thumb
 1026              		.syntax unified
ARM GAS  /tmp/cco1TM6T.s 			page 19


 1027              	.LBE118:
 1028              	.LBE117:
 1029              	.LBE119:
 1030              		.loc 4 349 3 is_stmt 1 discriminator 5 view .LVU176
 1031 001a FFF7FEFF 		bl	_stats_start_measure_crit_thd
 1032              	.LVL64:
 1033              		.loc 4 350 3 discriminator 5 view .LVU177
 1034 001e FFF7FEFF 		bl	_dbg_check_lock
 1035              	.LVL65:
 1036              	.LBE120:
 1037              	.LBE121:
 1038              	.LBE123:
 1039              		.loc 1 173 3 discriminator 5 view .LVU178
 1040              		.loc 1 173 3 discriminator 5 view .LVU179
 1041              		.loc 1 173 3 discriminator 5 view .LVU180
 1042 0022 237A     		ldrb	r3, [r4, #8]	@ zero_extendqisi2
 1043 0024 013B     		subs	r3, r3, #1
 1044 0026 012B     		cmp	r3, #1
 1045 0028 02D9     		bls	.L84
 1046              		.loc 1 173 3 discriminator 3 view .LVU181
 1047 002a 1A48     		ldr	r0, .L91+4
 1048 002c FFF7FEFF 		bl	chSysHalt
 1049              	.LVL66:
 1050              	.L84:
 1051              		.loc 1 173 3 discriminator 5 view .LVU182
 1052              		.loc 1 175 3 discriminator 5 view .LVU183
 1053 0030 2046     		mov	r0, r4
 1054 0032 FFF7FEFF 		bl	sd_lld_stop
 1055              	.LVL67:
 1056              		.loc 1 176 3 discriminator 5 view .LVU184
 1057              		.loc 1 176 14 is_stmt 0 discriminator 5 view .LVU185
 1058 0036 0123     		movs	r3, #1
 1059 0038 2372     		strb	r3, [r4, #8]
 1060              		.loc 1 177 3 is_stmt 1 discriminator 5 view .LVU186
 1061 003a 04F13000 		add	r0, r4, #48
 1062 003e FFF7FEFF 		bl	chOQResetI
 1063              	.LVL68:
 1064              		.loc 1 178 3 discriminator 5 view .LVU187
 1065 0042 04F10C00 		add	r0, r4, #12
 1066 0046 FFF7FEFF 		bl	chIQResetI
 1067              	.LVL69:
 1068              		.loc 1 179 3 discriminator 5 view .LVU188
 1069              	.LBB124:
 1070              	.LBI124:
 1071              		.loc 2 552 20 discriminator 5 view .LVU189
 1072              	.LBB125:
 1073              		.loc 2 554 3 discriminator 5 view .LVU190
 1074 004a FFF7FEFF 		bl	chSchRescheduleS
 1075              	.LVL70:
 1076              	.LBE125:
 1077              	.LBE124:
 1078              		.loc 1 180 3 discriminator 5 view .LVU191
 1079              	.LBB126:
 1080              	.LBI126:
 1081              		.loc 2 456 20 discriminator 5 view .LVU192
 1082              	.LBE126:
 1083              		.loc 2 458 3 discriminator 5 view .LVU193
ARM GAS  /tmp/cco1TM6T.s 			page 20


 1084              	.LBB137:
 1085              	.LBB127:
 1086              	.LBI127:
 1087              		.loc 4 358 20 discriminator 5 view .LVU194
 1088              	.LBB128:
 1089              		.loc 4 360 3 discriminator 5 view .LVU195
 1090 004e FFF7FEFF 		bl	_dbg_check_unlock
 1091              	.LVL71:
 1092              		.loc 4 361 3 discriminator 5 view .LVU196
 1093 0052 FFF7FEFF 		bl	_stats_stop_measure_crit_thd
 1094              	.LVL72:
 1095              		.loc 4 367 3 discriminator 5 view .LVU197
 1096              		.loc 4 367 3 discriminator 5 view .LVU198
 1097              		.loc 4 367 3 discriminator 5 view .LVU199
 1098 0056 104B     		ldr	r3, .L91+8
 1099 0058 1A68     		ldr	r2, [r3]
 1100 005a 9A42     		cmp	r2, r3
 1101 005c 04D0     		beq	.L85
 1102              		.loc 4 367 3 is_stmt 0 view .LVU200
 1103 005e 9969     		ldr	r1, [r3, #24]
 1104 0060 9368     		ldr	r3, [r2, #8]
 1105 0062 8A68     		ldr	r2, [r1, #8]
 1106 0064 9A42     		cmp	r2, r3
 1107 0066 09D3     		bcc	.L89
 1108              	.L85:
 1109              		.loc 4 367 3 is_stmt 1 view .LVU201
 1110              		.loc 4 371 3 view .LVU202
 1111              	.LBB129:
 1112              	.LBI129:
 1113              		.loc 5 458 20 view .LVU203
 1114              	.LBE129:
 1115              	.LBE128:
 1116              	.LBE127:
 1117              	.LBE137:
 1118              		.loc 5 461 3 view .LVU204
 1119              	.LVL73:
 1120              	.LBB138:
 1121              	.LBB135:
 1122              	.LBB133:
 1123              	.LBB132:
 1124              	.LBB130:
 1125              	.LBI130:
 1126              		.loc 6 544 57 view .LVU205
 1127              	.LBB131:
 1128              		.loc 6 546 3 view .LVU206
 1129 0068 0023     		movs	r3, #0
 1130              		.syntax unified
 1131              	@ 546 ".//ChibiOS//os/ext/CMSIS/include/core_cmFunc.h" 1
 1132 006a 83F31188 		MSR basepri, r3
 1133              	@ 0 "" 2
 1134              	.LVL74:
 1135              		.loc 6 546 3 is_stmt 0 view .LVU207
 1136              		.thumb
 1137              		.syntax unified
 1138              	.LBE131:
 1139              	.LBE130:
 1140              	.LBE132:
ARM GAS  /tmp/cco1TM6T.s 			page 21


 1141              	.LBE133:
 1142              	.LBE135:
 1143              	.LBE138:
 1144              		.loc 1 181 1 view .LVU208
 1145 006e 084B     		ldr	r3, .L91
 1146 0070 1A68     		ldr	r2, [r3]
 1147 0072 019B     		ldr	r3, [sp, #4]
 1148 0074 5A40     		eors	r2, r3, r2
 1149 0076 09D1     		bne	.L90
 1150 0078 02B0     		add	sp, sp, #8
 1151              		.cfi_remember_state
 1152              		.cfi_def_cfa_offset 8
 1153              		@ sp needed
 1154 007a 10BD     		pop	{r4, pc}
 1155              	.LVL75:
 1156              	.L89:
 1157              		.cfi_restore_state
 1158              	.LBB139:
 1159              	.LBB136:
 1160              	.LBB134:
 1161              		.loc 4 367 3 is_stmt 1 view .LVU209
 1162 007c 0748     		ldr	r0, .L91+12
 1163 007e FFF7FEFF 		bl	chSysHalt
 1164              	.LVL76:
 1165 0082 F1E7     		b	.L85
 1166              	.LVL77:
 1167              	.L88:
 1168              		.loc 4 367 3 is_stmt 0 view .LVU210
 1169              	.LBE134:
 1170              	.LBE136:
 1171              	.LBE139:
 1172              		.loc 1 170 3 is_stmt 1 discriminator 3 view .LVU211
 1173 0084 0348     		ldr	r0, .L91+4
 1174              	.LVL78:
 1175              		.loc 1 170 3 is_stmt 0 discriminator 3 view .LVU212
 1176 0086 FFF7FEFF 		bl	chSysHalt
 1177              	.LVL79:
 1178 008a C3E7     		b	.L83
 1179              	.L90:
 1180              		.loc 1 181 1 view .LVU213
 1181 008c FFF7FEFF 		bl	__stack_chk_fail
 1182              	.LVL80:
 1183              	.L92:
 1184              		.align	2
 1185              	.L91:
 1186 0090 00000000 		.word	.LC11
 1187 0094 00000000 		.word	.LANCHOR3
 1188 0098 00000000 		.word	ch
 1189 009c 00000000 		.word	.LANCHOR2
 1190              		.cfi_endproc
 1191              	.LFE267:
 1192              		.size	sdStop, .-sdStop
 1193              		.section	.rodata.sdIncomingDataI.cst4,"aM",%progbits,4
 1194              		.align	2
 1195              	.LC12:
 1196 0000 00000000 		.word	__stack_chk_guard
 1197              		.section	.text.sdIncomingDataI,"ax",%progbits
ARM GAS  /tmp/cco1TM6T.s 			page 22


 1198              		.align	1
 1199              		.p2align 4,,15
 1200              		.global	sdIncomingDataI
 1201              		.syntax unified
 1202              		.thumb
 1203              		.thumb_func
 1204              		.fpu fpv4-sp-d16
 1205              		.type	sdIncomingDataI, %function
 1206              	sdIncomingDataI:
 1207              	.LVL81:
 1208              	.LFB268:
 1209              		.loc 1 199 52 is_stmt 1 view -0
 1210              		.cfi_startproc
 1211              		@ args = 0, pretend = 0, frame = 8
 1212              		@ frame_needed = 0, uses_anonymous_args = 0
 1213              		.loc 1 199 52 is_stmt 0 view .LVU215
 1214 0000 30B5     		push	{r4, r5, lr}
 1215              		.cfi_def_cfa_offset 12
 1216              		.cfi_offset 4, -12
 1217              		.cfi_offset 5, -8
 1218              		.cfi_offset 14, -4
 1219 0002 194B     		ldr	r3, .L104
 1220 0004 83B0     		sub	sp, sp, #12
 1221              		.cfi_def_cfa_offset 24
 1222              		.loc 1 199 52 view .LVU216
 1223 0006 0446     		mov	r4, r0
 1224 0008 0D46     		mov	r5, r1
 1225 000a 1B68     		ldr	r3, [r3]
 1226 000c 0193     		str	r3, [sp, #4]
 1227 000e 4FF00003 		mov	r3,#0
 1228              		.loc 1 201 3 is_stmt 1 view .LVU217
 1229 0012 FFF7FEFF 		bl	chDbgCheckClassI
 1230              	.LVL82:
 1231              		.loc 1 202 3 view .LVU218
 1232              		.loc 1 202 3 view .LVU219
 1233              		.loc 1 202 3 view .LVU220
 1234 0016 0CB3     		cbz	r4, .L101
 1235              	.L94:
 1236              		.loc 1 202 3 discriminator 5 view .LVU221
 1237              		.loc 1 204 3 discriminator 5 view .LVU222
 1238              	.LBB140:
 1239              	.LBI140:
 1240              		.file 7 ".//ChibiOS//os/rt/include/chqueues.h"
 1241              		.loc 7 303 20 discriminator 5 view .LVU223
 1242              	.LVL83:
 1243              	.LBB141:
 1244              		.loc 7 305 3 discriminator 5 view .LVU224
 1245 0018 FFF7FEFF 		bl	chDbgCheckClassI
 1246              	.LVL84:
 1247              		.loc 7 307 3 discriminator 5 view .LVU225
 1248              	.LBE141:
 1249              	.LBE140:
 1250              		.loc 1 204 6 is_stmt 0 discriminator 5 view .LVU226
 1251 001c 6369     		ldr	r3, [r4, #20]
 1252 001e 6BB1     		cbz	r3, .L102
 1253              	.L95:
 1254              		.loc 1 205 43 is_stmt 1 discriminator 1 view .LVU227
ARM GAS  /tmp/cco1TM6T.s 			page 23


 1255              		.loc 1 206 3 discriminator 1 view .LVU228
 1256              		.loc 1 206 7 is_stmt 0 discriminator 1 view .LVU229
 1257 0020 2946     		mov	r1, r5
 1258 0022 04F10C00 		add	r0, r4, #12
 1259 0026 FFF7FEFF 		bl	chIQPutI
 1260              	.LVL85:
 1261              		.loc 1 206 6 discriminator 1 view .LVU230
 1262 002a 0028     		cmp	r0, #0
 1263              	.LBB142:
 1264              	.LBB143:
 1265              		.loc 2 798 3 discriminator 1 view .LVU231
 1266 002c 0E4B     		ldr	r3, .L104
 1267              	.LBE143:
 1268              	.LBE142:
 1269              		.loc 1 206 6 discriminator 1 view .LVU232
 1270 002e 0ADB     		blt	.L103
 1271              		.loc 1 208 1 view .LVU233
 1272 0030 1A68     		ldr	r2, [r3]
 1273 0032 019B     		ldr	r3, [sp, #4]
 1274 0034 5A40     		eors	r2, r3, r2
 1275 0036 15D1     		bne	.L100
 1276 0038 03B0     		add	sp, sp, #12
 1277              		.cfi_remember_state
 1278              		.cfi_def_cfa_offset 12
 1279              		@ sp needed
 1280 003a 30BD     		pop	{r4, r5, pc}
 1281              	.LVL86:
 1282              	.L102:
 1283              		.cfi_restore_state
 1284              		.loc 1 205 5 is_stmt 1 view .LVU234
 1285              	.LBB146:
 1286              	.LBI146:
 1287              		.loc 2 795 20 view .LVU235
 1288              	.LBB147:
 1289              		.loc 2 798 3 view .LVU236
 1290 003c 0421     		movs	r1, #4
 1291 003e 6018     		adds	r0, r4, r1
 1292              	.LVL87:
 1293              		.loc 2 798 3 is_stmt 0 view .LVU237
 1294 0040 FFF7FEFF 		bl	chEvtBroadcastFlagsI
 1295              	.LVL88:
 1296              		.loc 2 799 1 view .LVU238
 1297 0044 ECE7     		b	.L95
 1298              	.LVL89:
 1299              	.L103:
 1300              		.loc 2 799 1 view .LVU239
 1301              	.LBE147:
 1302              	.LBE146:
 1303              		.loc 1 207 5 is_stmt 1 view .LVU240
 1304              	.LBB148:
 1305              	.LBI142:
 1306              		.loc 2 795 20 view .LVU241
 1307              	.LBB144:
 1308              		.loc 2 798 3 view .LVU242
 1309 0046 1A68     		ldr	r2, [r3]
 1310 0048 019B     		ldr	r3, [sp, #4]
 1311 004a 5A40     		eors	r2, r3, r2
ARM GAS  /tmp/cco1TM6T.s 			page 24


 1312 004c 0AD1     		bne	.L100
 1313 004e 201D     		adds	r0, r4, #4
 1314              	.LVL90:
 1315              		.loc 2 798 3 is_stmt 0 view .LVU243
 1316 0050 8021     		movs	r1, #128
 1317              	.LBE144:
 1318              	.LBE148:
 1319              		.loc 1 208 1 view .LVU244
 1320 0052 03B0     		add	sp, sp, #12
 1321              		.cfi_remember_state
 1322              		.cfi_def_cfa_offset 12
 1323              		@ sp needed
 1324 0054 BDE83040 		pop	{r4, r5, lr}
 1325              		.cfi_restore 14
 1326              		.cfi_restore 5
 1327              		.cfi_restore 4
 1328              		.cfi_def_cfa_offset 0
 1329              	.LVL91:
 1330              	.LBB149:
 1331              	.LBB145:
 1332              		.loc 2 798 3 view .LVU245
 1333 0058 FFF7FEBF 		b	chEvtBroadcastFlagsI
 1334              	.LVL92:
 1335              	.L101:
 1336              		.cfi_restore_state
 1337              		.loc 2 798 3 view .LVU246
 1338              	.LBE145:
 1339              	.LBE149:
 1340              		.loc 1 202 3 is_stmt 1 discriminator 3 view .LVU247
 1341 005c 0348     		ldr	r0, .L104+4
 1342 005e FFF7FEFF 		bl	chSysHalt
 1343              	.LVL93:
 1344 0062 D9E7     		b	.L94
 1345              	.LVL94:
 1346              	.L100:
 1347              		.loc 1 208 1 is_stmt 0 view .LVU248
 1348 0064 FFF7FEFF 		bl	__stack_chk_fail
 1349              	.LVL95:
 1350              	.L105:
 1351              		.align	2
 1352              	.L104:
 1353 0068 00000000 		.word	.LC12
 1354 006c 00000000 		.word	.LANCHOR4
 1355              		.cfi_endproc
 1356              	.LFE268:
 1357              		.size	sdIncomingDataI, .-sdIncomingDataI
 1358              		.section	.rodata.sdRequestDataI.cst4,"aM",%progbits,4
 1359              		.align	2
 1360              	.LC13:
 1361 0000 00000000 		.word	__stack_chk_guard
 1362              		.section	.text.sdRequestDataI,"ax",%progbits
 1363              		.align	1
 1364              		.p2align 4,,15
 1365              		.global	sdRequestDataI
 1366              		.syntax unified
 1367              		.thumb
 1368              		.thumb_func
ARM GAS  /tmp/cco1TM6T.s 			page 25


 1369              		.fpu fpv4-sp-d16
 1370              		.type	sdRequestDataI, %function
 1371              	sdRequestDataI:
 1372              	.LVL96:
 1373              	.LFB269:
 1374              		.loc 1 225 41 is_stmt 1 view -0
 1375              		.cfi_startproc
 1376              		@ args = 0, pretend = 0, frame = 8
 1377              		@ frame_needed = 0, uses_anonymous_args = 0
 1378              		.loc 1 225 41 is_stmt 0 view .LVU250
 1379 0000 30B5     		push	{r4, r5, lr}
 1380              		.cfi_def_cfa_offset 12
 1381              		.cfi_offset 4, -12
 1382              		.cfi_offset 5, -8
 1383              		.cfi_offset 14, -4
 1384 0002 114B     		ldr	r3, .L114
 1385 0004 83B0     		sub	sp, sp, #12
 1386              		.cfi_def_cfa_offset 24
 1387              		.loc 1 225 41 view .LVU251
 1388 0006 0446     		mov	r4, r0
 1389 0008 1B68     		ldr	r3, [r3]
 1390 000a 0193     		str	r3, [sp, #4]
 1391 000c 4FF00003 		mov	r3,#0
 1392              		.loc 1 226 3 is_stmt 1 view .LVU252
 1393              		.loc 1 228 3 view .LVU253
 1394 0010 FFF7FEFF 		bl	chDbgCheckClassI
 1395              	.LVL97:
 1396              		.loc 1 229 3 view .LVU254
 1397              		.loc 1 229 3 view .LVU255
 1398              		.loc 1 229 3 view .LVU256
 1399 0014 94B1     		cbz	r4, .L111
 1400              	.L107:
 1401              		.loc 1 229 3 discriminator 5 view .LVU257
 1402              		.loc 1 231 3 discriminator 5 view .LVU258
 1403              		.loc 1 231 7 is_stmt 0 discriminator 5 view .LVU259
 1404 0016 04F13000 		add	r0, r4, #48
 1405 001a FFF7FEFF 		bl	chOQGetI
 1406              	.LVL98:
 1407              		.loc 1 232 3 is_stmt 1 discriminator 5 view .LVU260
 1408              		.loc 1 232 6 is_stmt 0 discriminator 5 view .LVU261
 1409 001e 051E     		subs	r5, r0, #0
 1410 0020 07DB     		blt	.L112
 1411              	.LVL99:
 1412              	.L106:
 1413              		.loc 1 235 1 view .LVU262
 1414 0022 094B     		ldr	r3, .L114
 1415 0024 1A68     		ldr	r2, [r3]
 1416 0026 019B     		ldr	r3, [sp, #4]
 1417 0028 5A40     		eors	r2, r3, r2
 1418 002a 0BD1     		bne	.L113
 1419 002c 2846     		mov	r0, r5
 1420 002e 03B0     		add	sp, sp, #12
 1421              		.cfi_remember_state
 1422              		.cfi_def_cfa_offset 12
 1423              		@ sp needed
 1424 0030 30BD     		pop	{r4, r5, pc}
 1425              	.LVL100:
ARM GAS  /tmp/cco1TM6T.s 			page 26


 1426              	.L112:
 1427              		.cfi_restore_state
 1428              		.loc 1 233 5 is_stmt 1 view .LVU263
 1429              	.LBB150:
 1430              	.LBI150:
 1431              		.loc 2 795 20 view .LVU264
 1432              	.LBB151:
 1433              		.loc 2 798 3 view .LVU265
 1434 0032 201D     		adds	r0, r4, #4
 1435              	.LVL101:
 1436              		.loc 2 798 3 is_stmt 0 view .LVU266
 1437 0034 0821     		movs	r1, #8
 1438 0036 FFF7FEFF 		bl	chEvtBroadcastFlagsI
 1439              	.LVL102:
 1440              		.loc 2 798 3 view .LVU267
 1441              	.LBE151:
 1442              	.LBE150:
 1443              		.loc 1 233 40 is_stmt 1 view .LVU268
 1444              		.loc 1 234 3 view .LVU269
 1445              		.loc 1 234 10 is_stmt 0 view .LVU270
 1446 003a F2E7     		b	.L106
 1447              	.LVL103:
 1448              	.L111:
 1449              		.loc 1 229 3 is_stmt 1 discriminator 3 view .LVU271
 1450 003c 0348     		ldr	r0, .L114+4
 1451 003e FFF7FEFF 		bl	chSysHalt
 1452              	.LVL104:
 1453 0042 E8E7     		b	.L107
 1454              	.LVL105:
 1455              	.L113:
 1456              		.loc 1 235 1 is_stmt 0 view .LVU272
 1457 0044 FFF7FEFF 		bl	__stack_chk_fail
 1458              	.LVL106:
 1459              	.L115:
 1460              		.align	2
 1461              	.L114:
 1462 0048 00000000 		.word	.LC13
 1463 004c 00000000 		.word	.LANCHOR5
 1464              		.cfi_endproc
 1465              	.LFE269:
 1466              		.size	sdRequestDataI, .-sdRequestDataI
 1467              		.section	.rodata.__func__.10001,"a"
 1468              		.align	2
 1469              		.set	.LANCHOR3,. + 0
 1470              		.type	__func__.10001, %object
 1471              		.size	__func__.10001, 7
 1472              	__func__.10001:
 1473 0000 73645374 		.ascii	"sdStop\000"
 1473      6F7000
 1474              		.section	.rodata.__func__.10006,"a"
 1475              		.align	2
 1476              		.set	.LANCHOR4,. + 0
 1477              		.type	__func__.10006, %object
 1478              		.size	__func__.10006, 16
 1479              	__func__.10006:
 1480 0000 7364496E 		.ascii	"sdIncomingDataI\000"
 1480      636F6D69 
ARM GAS  /tmp/cco1TM6T.s 			page 27


 1480      6E674461 
 1480      74614900 
 1481              		.section	.rodata.__func__.10011,"a"
 1482              		.align	2
 1483              		.set	.LANCHOR5,. + 0
 1484              		.type	__func__.10011, %object
 1485              		.size	__func__.10011, 15
 1486              	__func__.10011:
 1487 0000 73645265 		.ascii	"sdRequestDataI\000"
 1487      71756573 
 1487      74446174 
 1487      614900
 1488              		.section	.rodata.__func__.7261,"a"
 1489              		.align	2
 1490              		.set	.LANCHOR2,. + 0
 1491              		.type	__func__.7261, %object
 1492              		.size	__func__.7261, 12
 1493              	__func__.7261:
 1494 0000 63685379 		.ascii	"chSysUnlock\000"
 1494      73556E6C 
 1494      6F636B00 
 1495              		.section	.rodata.__func__.9997,"a"
 1496              		.align	2
 1497              		.set	.LANCHOR1,. + 0
 1498              		.type	__func__.9997, %object
 1499              		.size	__func__.9997, 8
 1500              	__func__.9997:
 1501 0000 73645374 		.ascii	"sdStart\000"
 1501      61727400 
 1502              		.section	.rodata.vmt,"a"
 1503              		.align	2
 1504              		.set	.LANCHOR0,. + 0
 1505              		.type	vmt, %object
 1506              		.size	vmt, 32
 1507              	vmt:
 1508 0000 00000000 		.word	write
 1509 0004 00000000 		.word	read
 1510 0008 00000000 		.word	put
 1511 000c 00000000 		.word	get
 1512 0010 00000000 		.word	putt
 1513 0014 00000000 		.word	gett
 1514 0018 00000000 		.word	writet
 1515 001c 00000000 		.word	readt
 1516              		.text
 1517              	.Letext0:
 1518              		.file 8 "/usr/lib/gcc/arm-none-eabi/9.2.1/include/stddef.h"
 1519              		.file 9 "/usr/lib/gcc/arm-none-eabi/9.2.1/include/stdint.h"
 1520              		.file 10 ".//ChibiOS//os/rt/ports/ARMCMx/compilers/GCC/chtypes.h"
 1521              		.file 11 ".//ChibiOS//os/rt/include/chsystypes.h"
 1522              		.file 12 ".//ChibiOS//os/rt/include/chschd.h"
 1523              		.file 13 ".//ChibiOS//os/ext/CMSIS/include/core_cm4.h"
 1524              		.file 14 ".//ChibiOS//os/ext/CMSIS/ST/system_stm32f4xx.h"
 1525              		.file 15 ".//ChibiOS//os/ext/CMSIS/ST/stm32f407xx.h"
 1526              		.file 16 ".//ChibiOS//os/rt/ports/ARMCMx/chcore.h"
 1527              		.file 17 ".//ChibiOS//os/rt/include/chdebug.h"
 1528              		.file 18 ".//ChibiOS//os/rt/include/chtm.h"
 1529              		.file 19 ".//ChibiOS//os/rt/include/chstats.h"
ARM GAS  /tmp/cco1TM6T.s 			page 28


 1530              		.file 20 ".//ChibiOS//os/rt/include/chsem.h"
 1531              		.file 21 ".//ChibiOS//os/rt/include/chmtx.h"
 1532              		.file 22 ".//ChibiOS//os/rt/include/chregistry.h"
 1533              		.file 23 ".//ChibiOS//os/hal/ports/STM32/STM32F4xx/stm32_dma.h"
 1534              		.file 24 ".//ChibiOS//os/hal/include/hal_ioblock.h"
 1535              		.file 25 ".//ChibiOS//os/hal/ports/STM32/LLD/GPIOv2/pal_lld.h"
 1536              		.file 26 ".//ChibiOS//os/hal/include/adc.h"
 1537              		.file 27 ".//ChibiOS//os/hal/ports/STM32/STM32F4xx/adc_lld.h"
 1538              		.file 28 ".//ChibiOS//os/hal/include/can.h"
 1539              		.file 29 ".//ChibiOS//os/hal/ports/STM32/LLD/can_lld.h"
 1540              		.file 30 ".//ChibiOS//os/hal/include/dac.h"
 1541              		.file 31 ".//ChibiOS//os/hal/ports/STM32/LLD/DACv1/dac_lld.h"
 1542              		.file 32 ".//ChibiOS//os/hal/include/ext.h"
 1543              		.file 33 ".//ChibiOS//os/hal/ports/STM32/LLD/ext_lld.h"
 1544              		.file 34 ".//ChibiOS//os/hal/include/gpt.h"
 1545              		.file 35 ".//ChibiOS//os/hal/ports/STM32/LLD/TIMv1/gpt_lld.h"
 1546              		.file 36 ".//ChibiOS//os/hal/ports/STM32/LLD/TIMv1/stm32_tim.h"
 1547              		.file 37 ".//ChibiOS//os/hal/include/i2c.h"
 1548              		.file 38 ".//ChibiOS//os/hal/ports/STM32/LLD/I2Cv1/i2c_lld.h"
 1549              		.file 39 ".//ChibiOS//os/hal/include/i2s.h"
 1550              		.file 40 ".//ChibiOS//os/hal/ports/STM32/LLD/SPIv1/i2s_lld.h"
 1551              		.file 41 ".//ChibiOS//os/hal/include/pwm.h"
 1552              		.file 42 ".//ChibiOS//os/hal/ports/STM32/LLD/TIMv1/pwm_lld.h"
 1553              		.file 43 ".//ChibiOS//os/hal/include/serial.h"
 1554              		.file 44 ".//ChibiOS//os/hal/ports/STM32/LLD/USARTv1/serial_lld.h"
 1555              		.file 45 ".//ChibiOS//os/hal/include/sdc.h"
 1556              		.file 46 ".//ChibiOS//os/hal/ports/STM32/LLD/sdc_lld.h"
 1557              		.file 47 ".//ChibiOS//os/hal/include/spi.h"
 1558              		.file 48 ".//ChibiOS//os/hal/ports/STM32/LLD/SPIv1/spi_lld.h"
 1559              		.file 49 ".//ChibiOS//os/hal/include/usb.h"
 1560              		.file 50 ".//ChibiOS//os/hal/ports/STM32/LLD/OTGv1/usb_lld.h"
 1561              		.file 51 ".//ChibiOS//os/hal/ports/STM32/LLD/OTGv1/stm32_otg.h"