ARM GAS  /tmp/ccHQwEQl.s 			page 1


   1              		.cpu cortex-m4
   2              		.eabi_attribute 27, 1
   3              		.eabi_attribute 28, 1
   4              		.eabi_attribute 20, 1
   5              		.eabi_attribute 21, 1
   6              		.eabi_attribute 23, 3
   7              		.eabi_attribute 24, 1
   8              		.eabi_attribute 25, 1
   9              		.eabi_attribute 26, 1
  10              		.eabi_attribute 30, 2
  11              		.eabi_attribute 34, 1
  12              		.eabi_attribute 18, 4
  13              		.file	"shell.c"
  14              		.text
  15              	.Ltext0:
  16              		.cfi_sections	.debug_frame
  17              		.section	.rodata.chprintf.cst4,"aM",%progbits,4
  18              		.align	2
  19              	.LC0:
  20 0000 00000000 		.word	__stack_chk_guard
  21              		.section	.text.chprintf,"ax",%progbits
  22              		.align	1
  23              		.p2align 4,,15
  24              		.arch armv7e-m
  25              		.syntax unified
  26              		.thumb
  27              		.thumb_func
  28              		.fpu fpv4-sp-d16
  29              		.type	chprintf, %function
  30              	chprintf:
  31              	.LVL0:
  32              	.LFB256:
  33              		.file 1 ".//ChibiOS//os/hal/lib/streams/chprintf.h"
  34              		.loc 1 69 77 view -0
  35              		.cfi_startproc
  36              		@ args = 4, pretend = 12, frame = 8
  37              		@ frame_needed = 0, uses_anonymous_args = 1
  38              		.loc 1 69 77 is_stmt 0 view .LVU1
  39 0000 0EB4     		push	{r1, r2, r3}
  40              		.cfi_def_cfa_offset 12
  41              		.cfi_offset 1, -12
  42              		.cfi_offset 2, -8
  43              		.cfi_offset 3, -4
  44 0002 00B5     		push	{lr}
  45              		.cfi_def_cfa_offset 16
  46              		.cfi_offset 14, -16
  47 0004 82B0     		sub	sp, sp, #8
  48              		.cfi_def_cfa_offset 24
  49              		.loc 1 69 77 view .LVU2
  50 0006 03AA     		add	r2, sp, #12
  51 0008 0A4B     		ldr	r3, .L6
  52 000a 52F8041B 		ldr	r1, [r2], #4
  53 000e 1B68     		ldr	r3, [r3]
  54 0010 0193     		str	r3, [sp, #4]
  55 0012 4FF00003 		mov	r3,#0
  56              		.loc 1 70 3 is_stmt 1 view .LVU3
  57              		.loc 1 71 3 view .LVU4
ARM GAS  /tmp/ccHQwEQl.s 			page 2


  58              		.loc 1 73 3 view .LVU5
  59 0016 0092     		str	r2, [sp]
  60              		.loc 1 74 3 view .LVU6
  61              		.loc 1 74 21 is_stmt 0 view .LVU7
  62 0018 FFF7FEFF 		bl	chvprintf
  63              	.LVL1:
  64              		.loc 1 75 3 is_stmt 1 view .LVU8
  65              		.loc 1 77 3 view .LVU9
  66              		.loc 1 78 1 is_stmt 0 view .LVU10
  67 001c 054B     		ldr	r3, .L6
  68 001e 1A68     		ldr	r2, [r3]
  69 0020 019B     		ldr	r3, [sp, #4]
  70 0022 5A40     		eors	r2, r3, r2
  71 0024 04D1     		bne	.L5
  72 0026 02B0     		add	sp, sp, #8
  73              		.cfi_remember_state
  74              		.cfi_def_cfa_offset 16
  75              		@ sp needed
  76 0028 5DF804EB 		ldr	lr, [sp], #4
  77              		.cfi_restore 14
  78              		.cfi_def_cfa_offset 12
  79 002c 03B0     		add	sp, sp, #12
  80              		.cfi_restore 3
  81              		.cfi_restore 2
  82              		.cfi_restore 1
  83              		.cfi_def_cfa_offset 0
  84 002e 7047     		bx	lr
  85              	.L5:
  86              		.cfi_restore_state
  87 0030 FFF7FEFF 		bl	__stack_chk_fail
  88              	.LVL2:
  89              	.L7:
  90              		.loc 1 78 1 view .LVU11
  91              		.align	2
  92              	.L6:
  93 0034 00000000 		.word	.LC0
  94              		.cfi_endproc
  95              	.LFE256:
  96              		.size	chprintf, .-chprintf
  97              		.section	.rodata.cmd_systime.str1.4,"aMS",%progbits,1
  98              		.align	2
  99              	.LC1:
 100 0000 73797374 		.ascii	"systime\000"
 100      696D6500 
 101              		.align	2
 102              	.LC2:
 103 0008 55736167 		.ascii	"Usage: %s\015\012\000"
 103      653A2025 
 103      730D0A00 
 104              		.align	2
 105              	.LC3:
 106 0014 256C750D 		.ascii	"%lu\015\012\000"
 106      0A00
 107              		.section	.rodata.cmd_systime.cst4,"aM",%progbits,4
 108              		.align	2
 109              	.LC4:
 110 0000 00000000 		.word	__stack_chk_guard
ARM GAS  /tmp/ccHQwEQl.s 			page 3


 111              		.section	.text.cmd_systime,"ax",%progbits
 112              		.align	1
 113              		.p2align 4,,15
 114              		.syntax unified
 115              		.thumb
 116              		.thumb_func
 117              		.fpu fpv4-sp-d16
 118              		.type	cmd_systime, %function
 119              	cmd_systime:
 120              	.LVL3:
 121              	.LFB261:
 122              		.file 2 ".//ChibiOS//os/various/shell.c"
 123              		.loc 2 99 76 is_stmt 1 view -0
 124              		.cfi_startproc
 125              		@ args = 0, pretend = 0, frame = 16
 126              		@ frame_needed = 0, uses_anonymous_args = 0
 127              		.loc 2 99 76 is_stmt 0 view .LVU13
 128 0000 30B5     		push	{r4, r5, lr}
 129              		.cfi_def_cfa_offset 12
 130              		.cfi_offset 4, -12
 131              		.cfi_offset 5, -8
 132              		.cfi_offset 14, -4
 133 0002 214B     		ldr	r3, .L19
 134 0004 85B0     		sub	sp, sp, #20
 135              		.cfi_def_cfa_offset 32
 136              		.loc 2 102 6 view .LVU14
 137 0006 0029     		cmp	r1, #0
 138              		.loc 2 99 76 view .LVU15
 139 0008 1B68     		ldr	r3, [r3]
 140 000a 0393     		str	r3, [sp, #12]
 141 000c 4FF00003 		mov	r3,#0
 142              		.loc 2 101 3 is_stmt 1 view .LVU16
 143              		.loc 2 102 3 view .LVU17
 144              		.loc 2 102 6 is_stmt 0 view .LVU18
 145 0010 26DC     		bgt	.L17
 146 0012 0446     		mov	r4, r0
 147              		.loc 2 106 3 is_stmt 1 view .LVU19
 148              	.LBB93:
 149              	.LBI93:
 150              		.file 3 ".//ChibiOS//os/rt/include/chvt.h"
 151              		.loc 3 247 25 view .LVU20
 152              	.LBB94:
 153              		.loc 3 248 3 view .LVU21
 154              		.loc 3 250 3 view .LVU22
 155              	.LBB95:
 156              	.LBI95:
 157              		.file 4 ".//ChibiOS//os/rt/include/chsys.h"
 158              		.loc 4 346 20 view .LVU23
 159              	.LBB96:
 160              		.loc 4 348 3 view .LVU24
 161              	.LBB97:
 162              	.LBI97:
 163              		.file 5 ".//ChibiOS//os/rt/ports/ARMCMx/chcore_v7m.h"
 164              		.loc 5 444 20 view .LVU25
 165              	.LBE97:
 166              	.LBE96:
 167              	.LBE95:
ARM GAS  /tmp/ccHQwEQl.s 			page 4


 168              	.LBE94:
 169              	.LBE93:
 170              		.loc 5 447 3 view .LVU26
 171              	.LVL4:
 172              	.LBB122:
 173              	.LBB119:
 174              	.LBB103:
 175              	.LBB101:
 176              	.LBB100:
 177              	.LBB98:
 178              	.LBI98:
 179              		.file 6 ".//ChibiOS//os/ext/CMSIS/include/core_cmFunc.h"
 180              		.loc 6 544 57 view .LVU27
 181              	.LBB99:
 182              		.loc 6 546 3 view .LVU28
 183 0014 2023     		movs	r3, #32
 184              		.syntax unified
 185              	@ 546 ".//ChibiOS//os/ext/CMSIS/include/core_cmFunc.h" 1
 186 0016 83F31188 		MSR basepri, r3
 187              	@ 0 "" 2
 188              	.LVL5:
 189              		.loc 6 546 3 is_stmt 0 view .LVU29
 190              		.thumb
 191              		.syntax unified
 192              	.LBE99:
 193              	.LBE98:
 194              	.LBE100:
 195              		.loc 4 349 3 is_stmt 1 view .LVU30
 196              	.LBE101:
 197              	.LBE103:
 198              	.LBB104:
 199              	.LBB105:
 200              		.loc 3 231 19 is_stmt 0 view .LVU31
 201 001a 1C4D     		ldr	r5, .L19+4
 202              	.LBE105:
 203              	.LBE104:
 204              	.LBB107:
 205              	.LBB102:
 206              		.loc 4 349 3 view .LVU32
 207 001c FFF7FEFF 		bl	_stats_start_measure_crit_thd
 208              	.LVL6:
 209              		.loc 4 350 3 is_stmt 1 view .LVU33
 210 0020 FFF7FEFF 		bl	_dbg_check_lock
 211              	.LVL7:
 212              	.LBE102:
 213              	.LBE107:
 214              		.loc 3 251 3 view .LVU34
 215              	.LBB108:
 216              	.LBI104:
 217              		.loc 3 228 25 view .LVU35
 218              	.LBB106:
 219              		.loc 3 231 3 view .LVU36
 220              		.loc 3 231 19 is_stmt 0 view .LVU37
 221 0024 AA6A     		ldr	r2, [r5, #40]
 222 0026 0192     		str	r2, [sp, #4]
 223              	.LVL8:
 224              		.loc 3 231 19 view .LVU38
ARM GAS  /tmp/ccHQwEQl.s 			page 5


 225              	.LBE106:
 226              	.LBE108:
 227              		.loc 3 252 3 is_stmt 1 view .LVU39
 228              	.LBB109:
 229              	.LBI109:
 230              		.loc 4 358 20 view .LVU40
 231              	.LBB110:
 232              		.loc 4 360 3 view .LVU41
 233 0028 FFF7FEFF 		bl	_dbg_check_unlock
 234              	.LVL9:
 235              		.loc 4 361 3 view .LVU42
 236 002c FFF7FEFF 		bl	_stats_stop_measure_crit_thd
 237              	.LVL10:
 238              		.loc 4 367 3 view .LVU43
 239              		.loc 4 367 3 view .LVU44
 240              		.loc 4 367 3 view .LVU45
 241 0030 2B68     		ldr	r3, [r5]
 242 0032 019A     		ldr	r2, [sp, #4]
 243 0034 AB42     		cmp	r3, r5
 244 0036 04D0     		beq	.L11
 245 0038 A969     		ldr	r1, [r5, #24]
 246 003a 9B68     		ldr	r3, [r3, #8]
 247 003c 8968     		ldr	r1, [r1, #8]
 248 003e 9942     		cmp	r1, r3
 249 0040 1AD3     		bcc	.L18
 250              	.L11:
 251              		.loc 4 367 3 view .LVU46
 252              		.loc 4 371 3 view .LVU47
 253              	.LBB111:
 254              	.LBI111:
 255              		.loc 5 458 20 view .LVU48
 256              	.LBE111:
 257              	.LBE110:
 258              	.LBE109:
 259              	.LBE119:
 260              	.LBE122:
 261              		.loc 5 461 3 view .LVU49
 262              	.LVL11:
 263              	.LBB123:
 264              	.LBB120:
 265              	.LBB117:
 266              	.LBB115:
 267              	.LBB114:
 268              	.LBB112:
 269              	.LBI112:
 270              		.loc 6 544 57 view .LVU50
 271              	.LBB113:
 272              		.loc 6 546 3 view .LVU51
 273 0042 0023     		movs	r3, #0
 274              		.syntax unified
 275              	@ 546 ".//ChibiOS//os/ext/CMSIS/include/core_cmFunc.h" 1
 276 0044 83F31188 		MSR basepri, r3
 277              	@ 0 "" 2
 278              	.LVL12:
 279              		.loc 6 546 3 is_stmt 0 view .LVU52
 280              		.thumb
 281              		.syntax unified
ARM GAS  /tmp/ccHQwEQl.s 			page 6


 282              	.LBE113:
 283              	.LBE112:
 284              	.LBE114:
 285              	.LBE115:
 286              	.LBE117:
 287              		.loc 3 254 3 is_stmt 1 view .LVU53
 288              	.LBE120:
 289              	.LBE123:
 290              		.loc 2 106 3 is_stmt 0 view .LVU54
 291 0048 0F4B     		ldr	r3, .L19
 292 004a 1968     		ldr	r1, [r3]
 293 004c 039B     		ldr	r3, [sp, #12]
 294 004e 5940     		eors	r1, r3, r1
 295 0050 17D1     		bne	.L16
 296 0052 0F49     		ldr	r1, .L19+8
 297 0054 2046     		mov	r0, r4
 298              		.loc 2 107 1 view .LVU55
 299 0056 05B0     		add	sp, sp, #20
 300              		.cfi_remember_state
 301              		.cfi_def_cfa_offset 12
 302              		@ sp needed
 303 0058 BDE83040 		pop	{r4, r5, lr}
 304              		.cfi_restore 14
 305              		.cfi_restore 5
 306              		.cfi_restore 4
 307              		.cfi_def_cfa_offset 0
 308              	.LVL13:
 309              		.loc 2 106 3 view .LVU56
 310 005c FFF7FEBF 		b	chprintf
 311              	.LVL14:
 312              	.L17:
 313              		.cfi_restore_state
 314              	.LBB124:
 315              	.LBI124:
 316              		.loc 2 99 13 is_stmt 1 view .LVU57
 317              	.LBB125:
 318              		.loc 2 103 5 view .LVU58
 319              	.LBB126:
 320              	.LBI126:
 321              		.loc 2 54 13 view .LVU59
 322              	.LBB127:
 323              		.loc 2 56 3 view .LVU60
 324 0060 094B     		ldr	r3, .L19
 325 0062 1A68     		ldr	r2, [r3]
 326 0064 039B     		ldr	r3, [sp, #12]
 327 0066 5A40     		eors	r2, r3, r2
 328              	.LVL15:
 329              		.loc 2 56 3 is_stmt 0 view .LVU61
 330 0068 0BD1     		bne	.L16
 331 006a 0A4A     		ldr	r2, .L19+12
 332 006c 0A49     		ldr	r1, .L19+16
 333              	.LVL16:
 334              		.loc 2 56 3 view .LVU62
 335              	.LBE127:
 336              	.LBE126:
 337              	.LBE125:
 338              	.LBE124:
ARM GAS  /tmp/ccHQwEQl.s 			page 7


 339              		.loc 2 107 1 view .LVU63
 340 006e 05B0     		add	sp, sp, #20
 341              		.cfi_remember_state
 342              		.cfi_def_cfa_offset 12
 343              		@ sp needed
 344 0070 BDE83040 		pop	{r4, r5, lr}
 345              		.cfi_restore 14
 346              		.cfi_restore 5
 347              		.cfi_restore 4
 348              		.cfi_def_cfa_offset 0
 349              		.loc 2 106 3 view .LVU64
 350 0074 FFF7FEBF 		b	chprintf
 351              	.LVL17:
 352              	.L18:
 353              		.cfi_restore_state
 354              	.LBB128:
 355              	.LBB121:
 356              	.LBB118:
 357              	.LBB116:
 358              		.loc 4 367 3 is_stmt 1 view .LVU65
 359 0078 0848     		ldr	r0, .L19+20
 360 007a FFF7FEFF 		bl	chSysHalt
 361              	.LVL18:
 362 007e 019A     		ldr	r2, [sp, #4]
 363 0080 DFE7     		b	.L11
 364              	.LVL19:
 365              	.L16:
 366              		.loc 4 367 3 is_stmt 0 view .LVU66
 367              	.LBE116:
 368              	.LBE118:
 369              	.LBE121:
 370              	.LBE128:
 371              		.loc 2 106 3 view .LVU67
 372 0082 FFF7FEFF 		bl	__stack_chk_fail
 373              	.LVL20:
 374              	.L20:
 375 0086 00BF     		.align	2
 376              	.L19:
 377 0088 00000000 		.word	.LC4
 378 008c 00000000 		.word	ch
 379 0090 14000000 		.word	.LC3
 380 0094 00000000 		.word	.LC1
 381 0098 08000000 		.word	.LC2
 382 009c 00000000 		.word	.LANCHOR0
 383              		.cfi_endproc
 384              	.LFE261:
 385              		.size	cmd_systime, .-cmd_systime
 386              		.section	.rodata.cmd_info.str1.4,"aMS",%progbits,1
 387              		.align	2
 388              	.LC5:
 389 0000 696E666F 		.ascii	"info\000"
 389      00
 390 0005 000000   		.align	2
 391              	.LC6:
 392 0008 332E302E 		.ascii	"3.0.0\000"
 392      3000
 393 000e 0000     		.align	2
ARM GAS  /tmp/ccHQwEQl.s 			page 8


 394              	.LC7:
 395 0010 4B65726E 		.ascii	"Kernel:       %s\015\012\000"
 395      656C3A20 
 395      20202020 
 395      20202573 
 395      0D0A00
 396 0023 00       		.align	2
 397              	.LC8:
 398 0024 47434320 		.ascii	"GCC 9.2.1 20191025 (release) [ARM/arm-9-branch revi"
 398      392E322E 
 398      31203230 
 398      31393130 
 398      32352028 
 399 0057 73696F6E 		.ascii	"sion 277599]\000"
 399      20323737 
 399      3539395D 
 399      00
 400              		.align	2
 401              	.LC9:
 402 0064 436F6D70 		.ascii	"Compiler:     %s\015\012\000"
 402      696C6572 
 402      3A202020 
 402      20202573 
 402      0D0A00
 403 0077 00       		.align	2
 404              	.LC10:
 405 0078 41524D76 		.ascii	"ARMv7-ME\000"
 405      372D4D45 
 405      00
 406 0081 000000   		.align	2
 407              	.LC11:
 408 0084 41726368 		.ascii	"Architecture: %s\015\012\000"
 408      69746563 
 408      74757265 
 408      3A202573 
 408      0D0A00
 409 0097 00       		.align	2
 410              	.LC12:
 411 0098 436F7274 		.ascii	"Cortex-M4F\000"
 411      65782D4D 
 411      344600
 412 00a3 00       		.align	2
 413              	.LC13:
 414 00a4 436F7265 		.ascii	"Core Variant: %s\015\012\000"
 414      20566172 
 414      69616E74 
 414      3A202573 
 414      0D0A00
 415 00b7 00       		.align	2
 416              	.LC14:
 417 00b8 41647661 		.ascii	"Advanced kernel mode\000"
 417      6E636564 
 417      206B6572 
 417      6E656C20 
 417      6D6F6465 
 418 00cd 000000   		.align	2
 419              	.LC15:
ARM GAS  /tmp/ccHQwEQl.s 			page 9


 420 00d0 506F7274 		.ascii	"Port Info:    %s\015\012\000"
 420      20496E66 
 420      6F3A2020 
 420      20202573 
 420      0D0A00
 421 00e3 00       		.align	2
 422              	.LC16:
 423 00e4 53544D33 		.ascii	"STM32F407 High Performance with DSP and FPU\000"
 423      32463430 
 423      37204869 
 423      67682050 
 423      6572666F 
 424              		.align	2
 425              	.LC17:
 426 0110 506C6174 		.ascii	"Platform:     %s\015\012\000"
 426      666F726D 
 426      3A202020 
 426      20202573 
 426      0D0A00
 427 0123 00       		.align	2
 428              	.LC18:
 429 0124 47435472 		.ascii	"GCTronic-MobotsEPFL e-puck V2.0_F\000"
 429      6F6E6963 
 429      2D4D6F62 
 429      6F747345 
 429      50464C20 
 430 0146 0000     		.align	2
 431              	.LC19:
 432 0148 426F6172 		.ascii	"Board:        %s\015\012\000"
 432      643A2020 
 432      20202020 
 432      20202573 
 432      0D0A00
 433 015b 00       		.align	2
 434              	.LC20:
 435 015c 202D2000 		.ascii	" - \000"
 436              		.align	2
 437              	.LC21:
 438 0160 41707220 		.ascii	"Apr  6 2022\000"
 438      20362032 
 438      30323200 
 439              		.align	2
 440              	.LC22:
 441 016c 4275696C 		.ascii	"Build time:   %s%s%s\015\012\000"
 441      64207469 
 441      6D653A20 
 441      20202573 
 441      25732573 
 442 0183 00       		.align	2
 443              	.LC23:
 444 0184 31353A32 		.ascii	"15:27:22\000"
 444      373A3232 
 444      00
 445              		.section	.rodata.cmd_info.cst4,"aM",%progbits,4
 446              		.align	2
 447              	.LC24:
 448 0000 00000000 		.word	__stack_chk_guard
ARM GAS  /tmp/ccHQwEQl.s 			page 10


 449              		.section	.text.cmd_info,"ax",%progbits
 450              		.align	1
 451              		.p2align 4,,15
 452              		.syntax unified
 453              		.thumb
 454              		.thumb_func
 455              		.fpu fpv4-sp-d16
 456              		.type	cmd_info, %function
 457              	cmd_info:
 458              	.LVL21:
 459              	.LFB260:
 460              		.loc 2 67 73 is_stmt 1 view -0
 461              		.cfi_startproc
 462              		@ args = 0, pretend = 0, frame = 8
 463              		@ frame_needed = 0, uses_anonymous_args = 0
 464              		.loc 2 67 73 is_stmt 0 view .LVU69
 465 0000 10B5     		push	{r4, lr}
 466              		.cfi_def_cfa_offset 8
 467              		.cfi_offset 4, -8
 468              		.cfi_offset 14, -4
 469 0002 244B     		ldr	r3, .L28
 470 0004 84B0     		sub	sp, sp, #16
 471              		.cfi_def_cfa_offset 24
 472              		.loc 2 70 6 view .LVU70
 473 0006 0029     		cmp	r1, #0
 474              		.loc 2 67 73 view .LVU71
 475 0008 1B68     		ldr	r3, [r3]
 476 000a 0393     		str	r3, [sp, #12]
 477 000c 4FF00003 		mov	r3,#0
 478              		.loc 2 69 3 is_stmt 1 view .LVU72
 479              		.loc 2 70 3 view .LVU73
 480              		.loc 2 70 6 is_stmt 0 view .LVU74
 481 0010 31DC     		bgt	.L27
 482 0012 0446     		mov	r4, r0
 483              	.LVL22:
 484              	.LBB135:
 485              	.LBI135:
 486              		.loc 2 67 13 is_stmt 1 view .LVU75
 487              	.LBB136:
 488              		.loc 2 75 3 view .LVU76
 489 0014 204A     		ldr	r2, .L28+4
 490              	.LVL23:
 491              		.loc 2 75 3 is_stmt 0 view .LVU77
 492 0016 2149     		ldr	r1, .L28+8
 493              	.LVL24:
 494              		.loc 2 75 3 view .LVU78
 495 0018 FFF7FEFF 		bl	chprintf
 496              	.LVL25:
 497              		.loc 2 77 3 is_stmt 1 view .LVU79
 498 001c 204A     		ldr	r2, .L28+12
 499 001e 2149     		ldr	r1, .L28+16
 500 0020 2046     		mov	r0, r4
 501 0022 FFF7FEFF 		bl	chprintf
 502              	.LVL26:
 503              		.loc 2 79 3 view .LVU80
 504 0026 204A     		ldr	r2, .L28+20
 505 0028 2049     		ldr	r1, .L28+24
ARM GAS  /tmp/ccHQwEQl.s 			page 11


 506 002a 2046     		mov	r0, r4
 507 002c FFF7FEFF 		bl	chprintf
 508              	.LVL27:
 509              		.loc 2 81 3 view .LVU81
 510 0030 1F4A     		ldr	r2, .L28+28
 511 0032 2049     		ldr	r1, .L28+32
 512 0034 2046     		mov	r0, r4
 513 0036 FFF7FEFF 		bl	chprintf
 514              	.LVL28:
 515              		.loc 2 84 3 view .LVU82
 516 003a 1F4A     		ldr	r2, .L28+36
 517 003c 1F49     		ldr	r1, .L28+40
 518 003e 2046     		mov	r0, r4
 519 0040 FFF7FEFF 		bl	chprintf
 520              	.LVL29:
 521              		.loc 2 87 3 view .LVU83
 522 0044 1E4A     		ldr	r2, .L28+44
 523 0046 1F49     		ldr	r1, .L28+48
 524 0048 2046     		mov	r0, r4
 525 004a FFF7FEFF 		bl	chprintf
 526              	.LVL30:
 527              		.loc 2 90 3 view .LVU84
 528 004e 1E4A     		ldr	r2, .L28+52
 529 0050 1E49     		ldr	r1, .L28+56
 530 0052 2046     		mov	r0, r4
 531 0054 FFF7FEFF 		bl	chprintf
 532              	.LVL31:
 533              		.loc 2 94 3 view .LVU85
 534 0058 1D4B     		ldr	r3, .L28+60
 535 005a 1E4A     		ldr	r2, .L28+64
 536 005c 0093     		str	r3, [sp]
 537 005e 1E49     		ldr	r1, .L28+68
 538 0060 1E4B     		ldr	r3, .L28+72
 539 0062 2046     		mov	r0, r4
 540 0064 FFF7FEFF 		bl	chprintf
 541              	.LVL32:
 542              		.loc 2 94 3 is_stmt 0 view .LVU86
 543              	.LBE136:
 544              	.LBE135:
 545              		.loc 2 97 1 view .LVU87
 546 0068 0A4B     		ldr	r3, .L28
 547 006a 1A68     		ldr	r2, [r3]
 548 006c 039B     		ldr	r3, [sp, #12]
 549 006e 5A40     		eors	r2, r3, r2
 550 0070 0DD1     		bne	.L26
 551 0072 04B0     		add	sp, sp, #16
 552              		.cfi_remember_state
 553              		.cfi_def_cfa_offset 8
 554              		@ sp needed
 555 0074 10BD     		pop	{r4, pc}
 556              	.LVL33:
 557              	.L27:
 558              		.cfi_restore_state
 559              		.loc 2 71 5 is_stmt 1 view .LVU88
 560              	.LBB137:
 561              	.LBI137:
 562              		.loc 2 54 13 view .LVU89
ARM GAS  /tmp/ccHQwEQl.s 			page 12


 563              	.LBB138:
 564              		.loc 2 56 3 view .LVU90
 565 0076 074B     		ldr	r3, .L28
 566 0078 1A68     		ldr	r2, [r3]
 567 007a 039B     		ldr	r3, [sp, #12]
 568 007c 5A40     		eors	r2, r3, r2
 569              	.LVL34:
 570              		.loc 2 56 3 is_stmt 0 view .LVU91
 571 007e 06D1     		bne	.L26
 572 0080 174A     		ldr	r2, .L28+76
 573 0082 1849     		ldr	r1, .L28+80
 574              	.LVL35:
 575              		.loc 2 56 3 view .LVU92
 576              	.LBE138:
 577              	.LBE137:
 578              		.loc 2 97 1 view .LVU93
 579 0084 04B0     		add	sp, sp, #16
 580              		.cfi_remember_state
 581              		.cfi_def_cfa_offset 8
 582              		@ sp needed
 583 0086 BDE81040 		pop	{r4, lr}
 584              		.cfi_restore 14
 585              		.cfi_restore 4
 586              		.cfi_def_cfa_offset 0
 587              	.LBB140:
 588              	.LBB139:
 589              		.loc 2 56 3 view .LVU94
 590 008a FFF7FEBF 		b	chprintf
 591              	.LVL36:
 592              	.L26:
 593              		.cfi_restore_state
 594              		.loc 2 56 3 view .LVU95
 595              	.LBE139:
 596              	.LBE140:
 597              		.loc 2 97 1 view .LVU96
 598 008e FFF7FEFF 		bl	__stack_chk_fail
 599              	.LVL37:
 600              	.L29:
 601 0092 00BF     		.align	2
 602              	.L28:
 603 0094 00000000 		.word	.LC24
 604 0098 08000000 		.word	.LC6
 605 009c 10000000 		.word	.LC7
 606 00a0 24000000 		.word	.LC8
 607 00a4 64000000 		.word	.LC9
 608 00a8 78000000 		.word	.LC10
 609 00ac 84000000 		.word	.LC11
 610 00b0 98000000 		.word	.LC12
 611 00b4 A4000000 		.word	.LC13
 612 00b8 B8000000 		.word	.LC14
 613 00bc D0000000 		.word	.LC15
 614 00c0 E4000000 		.word	.LC16
 615 00c4 10010000 		.word	.LC17
 616 00c8 24010000 		.word	.LC18
 617 00cc 48010000 		.word	.LC19
 618 00d0 84010000 		.word	.LC23
 619 00d4 60010000 		.word	.LC21
ARM GAS  /tmp/ccHQwEQl.s 			page 13


 620 00d8 6C010000 		.word	.LC22
 621 00dc 5C010000 		.word	.LC20
 622 00e0 00000000 		.word	.LC5
 623 00e4 08000000 		.word	.LC2
 624              		.cfi_endproc
 625              	.LFE260:
 626              		.size	cmd_info, .-cmd_info
 627              		.section	.rodata._strtok.constprop.0.str1.4,"aMS",%progbits,1
 628              		.align	2
 629              	.LC25:
 630 0000 200900   		.ascii	" \011\000"
 631              		.section	.rodata._strtok.constprop.0.cst4,"aM",%progbits,4
 632              		.align	2
 633              	.LC26:
 634 0000 00000000 		.word	__stack_chk_guard
 635              		.section	.text._strtok.constprop.0,"ax",%progbits
 636              		.align	1
 637              		.p2align 4,,15
 638              		.syntax unified
 639              		.thumb
 640              		.thumb_func
 641              		.fpu fpv4-sp-d16
 642              		.type	_strtok.constprop.0, %function
 643              	_strtok.constprop.0:
 644              	.LVL38:
 645              	.LFB271:
 646              		.loc 2 37 14 is_stmt 1 view -0
 647              		.cfi_startproc
 648              		@ args = 0, pretend = 0, frame = 8
 649              		@ frame_needed = 0, uses_anonymous_args = 0
 650              		.loc 2 37 14 is_stmt 0 view .LVU98
 651 0000 30B5     		push	{r4, r5, lr}
 652              		.cfi_def_cfa_offset 12
 653              		.cfi_offset 4, -12
 654              		.cfi_offset 5, -8
 655              		.cfi_offset 14, -4
 656 0002 154B     		ldr	r3, .L44
 657 0004 83B0     		sub	sp, sp, #12
 658              		.cfi_def_cfa_offset 24
 659              		.loc 2 37 14 view .LVU99
 660 0006 0D46     		mov	r5, r1
 661 0008 1B68     		ldr	r3, [r3]
 662 000a 0193     		str	r3, [sp, #4]
 663 000c 4FF00003 		mov	r3,#0
 664              	.LVL39:
 665              		.loc 2 38 3 is_stmt 1 view .LVU100
 666              		.loc 2 39 3 view .LVU101
 667              		.loc 2 39 6 is_stmt 0 view .LVU102
 668 0010 C8B1     		cbz	r0, .L31
 669 0012 0446     		mov	r4, r0
 670              		.loc 2 40 5 is_stmt 1 view .LVU103
 671              		.loc 2 40 14 is_stmt 0 view .LVU104
 672 0014 2860     		str	r0, [r5]
 673              		.loc 2 41 3 is_stmt 1 view .LVU105
 674              	.LVL40:
 675              		.loc 2 43 3 view .LVU106
 676              	.L32:
ARM GAS  /tmp/ccHQwEQl.s 			page 14


 677              		.loc 2 46 3 view .LVU107
 678              		.loc 2 46 12 is_stmt 0 view .LVU108
 679 0016 1149     		ldr	r1, .L44+4
 680              	.LVL41:
 681              		.loc 2 46 12 view .LVU109
 682 0018 2046     		mov	r0, r4
 683              	.LVL42:
 684              		.loc 2 46 12 view .LVU110
 685 001a FFF7FEFF 		bl	strspn
 686              	.LVL43:
 687              		.loc 2 46 9 view .LVU111
 688 001e 0444     		add	r4, r4, r0
 689              	.LVL44:
 690              		.loc 2 47 3 is_stmt 1 view .LVU112
 691              		.loc 2 47 14 is_stmt 0 view .LVU113
 692 0020 0E49     		ldr	r1, .L44+4
 693 0022 2046     		mov	r0, r4
 694 0024 FFF7FEFF 		bl	strpbrk
 695              	.LVL45:
 696              		.loc 2 48 3 is_stmt 1 view .LVU114
 697              		.loc 2 48 6 is_stmt 0 view .LVU115
 698 0028 90B1     		cbz	r0, .L42
 699              		.loc 2 49 5 is_stmt 1 view .LVU116
 700              		.loc 2 49 16 is_stmt 0 view .LVU117
 701 002a 421C     		adds	r2, r0, #1
 702              		.loc 2 49 19 view .LVU118
 703 002c 0023     		movs	r3, #0
 704              		.loc 2 49 16 view .LVU119
 705 002e 2A60     		str	r2, [r5]
 706              		.loc 2 49 19 view .LVU120
 707 0030 0370     		strb	r3, [r0]
 708              	.L35:
 709              		.loc 2 51 3 is_stmt 1 view .LVU121
 710              		.loc 2 51 25 is_stmt 0 view .LVU122
 711 0032 2378     		ldrb	r3, [r4]	@ zero_extendqisi2
 712 0034 53B1     		cbz	r3, .L36
 713              	.LVL46:
 714              	.L30:
 715              		.loc 2 52 1 view .LVU123
 716 0036 084B     		ldr	r3, .L44
 717 0038 1A68     		ldr	r2, [r3]
 718 003a 019B     		ldr	r3, [sp, #4]
 719 003c 5A40     		eors	r2, r3, r2
 720 003e 09D1     		bne	.L43
 721 0040 2046     		mov	r0, r4
 722 0042 03B0     		add	sp, sp, #12
 723              		.cfi_remember_state
 724              		.cfi_def_cfa_offset 12
 725              		@ sp needed
 726 0044 30BD     		pop	{r4, r5, pc}
 727              	.LVL47:
 728              	.L31:
 729              		.cfi_restore_state
 730              		.loc 2 41 3 is_stmt 1 view .LVU124
 731              		.loc 2 41 9 is_stmt 0 view .LVU125
 732 0046 0C68     		ldr	r4, [r1]
 733              	.LVL48:
ARM GAS  /tmp/ccHQwEQl.s 			page 15


 734              		.loc 2 43 3 is_stmt 1 view .LVU126
 735              		.loc 2 43 6 is_stmt 0 view .LVU127
 736 0048 002C     		cmp	r4, #0
 737 004a E4D1     		bne	.L32
 738              	.LVL49:
 739              	.L36:
 740              		.loc 2 44 12 view .LVU128
 741 004c 0024     		movs	r4, #0
 742              	.LVL50:
 743              		.loc 2 44 12 view .LVU129
 744 004e F2E7     		b	.L30
 745              	.LVL51:
 746              	.L42:
 747              		.loc 2 47 12 view .LVU130
 748 0050 2860     		str	r0, [r5]
 749 0052 EEE7     		b	.L35
 750              	.LVL52:
 751              	.L43:
 752              		.loc 2 52 1 view .LVU131
 753 0054 FFF7FEFF 		bl	__stack_chk_fail
 754              	.LVL53:
 755              	.L45:
 756              		.align	2
 757              	.L44:
 758 0058 00000000 		.word	.LC26
 759 005c 00000000 		.word	.LC25
 760              		.cfi_endproc
 761              	.LFE271:
 762              		.size	_strtok.constprop.0, .-_strtok.constprop.0
 763              		.section	.rodata.shellInit.cst4,"aM",%progbits,4
 764              		.align	2
 765              	.LC27:
 766 0000 00000000 		.word	__stack_chk_guard
 767              		.section	.text.shellInit,"ax",%progbits
 768              		.align	1
 769              		.p2align 4,,15
 770              		.global	shellInit
 771              		.syntax unified
 772              		.thumb
 773              		.thumb_func
 774              		.fpu fpv4-sp-d16
 775              		.type	shellInit, %function
 776              	shellInit:
 777              	.LFB264:
 778              		.loc 2 197 22 is_stmt 1 view -0
 779              		.cfi_startproc
 780              		@ args = 0, pretend = 0, frame = 8
 781              		@ frame_needed = 0, uses_anonymous_args = 0
 782 0000 00B5     		push	{lr}
 783              		.cfi_def_cfa_offset 4
 784              		.cfi_offset 14, -4
 785              	.LBB141:
 786              	.LBB142:
 787              		.file 7 ".//ChibiOS//os/rt/include/chevents.h"
 788              		.loc 7 172 16 is_stmt 0 view .LVU133
 789 0002 094B     		ldr	r3, .L50
 790              	.LBE142:
ARM GAS  /tmp/ccHQwEQl.s 			page 16


 791              	.LBE141:
 792              		.loc 2 197 22 view .LVU134
 793 0004 094A     		ldr	r2, .L50+4
 794 0006 83B0     		sub	sp, sp, #12
 795              		.cfi_def_cfa_offset 16
 796              		.loc 2 197 22 view .LVU135
 797 0008 1268     		ldr	r2, [r2]
 798 000a 0192     		str	r2, [sp, #4]
 799 000c 4FF00002 		mov	r2,#0
 800              		.loc 2 199 3 is_stmt 1 view .LVU136
 801              	.LVL54:
 802              	.LBB144:
 803              	.LBI141:
 804              		.loc 7 170 20 view .LVU137
 805              	.LBB143:
 806              		.loc 7 172 3 view .LVU138
 807              		.loc 7 172 16 is_stmt 0 view .LVU139
 808 0010 1B60     		str	r3, [r3]
 809              	.LVL55:
 810              		.loc 7 172 16 view .LVU140
 811              	.LBE143:
 812              	.LBE144:
 813              		.loc 2 200 1 view .LVU141
 814 0012 064B     		ldr	r3, .L50+4
 815 0014 1A68     		ldr	r2, [r3]
 816 0016 019B     		ldr	r3, [sp, #4]
 817 0018 5A40     		eors	r2, r3, r2
 818 001a 02D1     		bne	.L49
 819 001c 03B0     		add	sp, sp, #12
 820              		.cfi_remember_state
 821              		.cfi_def_cfa_offset 4
 822              		@ sp needed
 823 001e 5DF804FB 		ldr	pc, [sp], #4
 824              	.L49:
 825              		.cfi_restore_state
 826 0022 FFF7FEFF 		bl	__stack_chk_fail
 827              	.LVL56:
 828              	.L51:
 829 0026 00BF     		.align	2
 830              	.L50:
 831 0028 00000000 		.word	.LANCHOR1
 832 002c 00000000 		.word	.LC27
 833              		.cfi_endproc
 834              	.LFE264:
 835              		.size	shellInit, .-shellInit
 836              		.section	.rodata.shellExit.cst4,"aM",%progbits,4
 837              		.align	2
 838              	.LC28:
 839 0000 00000000 		.word	__stack_chk_guard
 840              		.section	.text.shellExit,"ax",%progbits
 841              		.align	1
 842              		.p2align 4,,15
 843              		.global	shellExit
 844              		.syntax unified
 845              		.thumb
 846              		.thumb_func
 847              		.fpu fpv4-sp-d16
ARM GAS  /tmp/ccHQwEQl.s 			page 17


 848              		.type	shellExit, %function
 849              	shellExit:
 850              	.LVL57:
 851              	.LFB265:
 852              		.loc 2 211 27 is_stmt 1 view -0
 853              		.cfi_startproc
 854              		@ args = 0, pretend = 0, frame = 8
 855              		@ frame_needed = 0, uses_anonymous_args = 0
 856              		.loc 2 211 27 is_stmt 0 view .LVU143
 857 0000 10B5     		push	{r4, lr}
 858              		.cfi_def_cfa_offset 8
 859              		.cfi_offset 4, -8
 860              		.cfi_offset 14, -4
 861 0002 0F4B     		ldr	r3, .L57
 862 0004 82B0     		sub	sp, sp, #8
 863              		.cfi_def_cfa_offset 16
 864              		.loc 2 211 27 view .LVU144
 865 0006 1B68     		ldr	r3, [r3]
 866 0008 0193     		str	r3, [sp, #4]
 867 000a 4FF00003 		mov	r3,#0
 868              		.loc 2 215 3 is_stmt 1 view .LVU145
 869              	.LBB145:
 870              	.LBI145:
 871              		.loc 4 346 20 view .LVU146
 872              	.LBB146:
 873              		.loc 4 348 3 view .LVU147
 874              	.LBB147:
 875              	.LBI147:
 876              		.loc 5 444 20 view .LVU148
 877              	.LBE147:
 878              	.LBE146:
 879              	.LBE145:
 880              		.loc 5 447 3 view .LVU149
 881              	.LVL58:
 882              	.LBB156:
 883              	.LBB154:
 884              	.LBB152:
 885              	.LBB148:
 886              	.LBI148:
 887              		.loc 6 544 57 view .LVU150
 888              	.LBB149:
 889              		.loc 6 546 3 view .LVU151
 890              	.LBE149:
 891              	.LBE148:
 892              	.LBE152:
 893              	.LBE154:
 894              	.LBE156:
 895              		.loc 2 211 27 is_stmt 0 view .LVU152
 896 000e 0446     		mov	r4, r0
 897              	.LBB157:
 898              	.LBB155:
 899              	.LBB153:
 900              	.LBB151:
 901              	.LBB150:
 902              		.loc 6 546 3 view .LVU153
 903 0010 2023     		movs	r3, #32
 904              		.syntax unified
ARM GAS  /tmp/ccHQwEQl.s 			page 18


 905              	@ 546 ".//ChibiOS//os/ext/CMSIS/include/core_cmFunc.h" 1
 906 0012 83F31188 		MSR basepri, r3
 907              	@ 0 "" 2
 908              	.LVL59:
 909              		.loc 6 546 3 view .LVU154
 910              		.thumb
 911              		.syntax unified
 912              	.LBE150:
 913              	.LBE151:
 914              	.LBE153:
 915              		.loc 4 349 3 is_stmt 1 view .LVU155
 916 0016 FFF7FEFF 		bl	_stats_start_measure_crit_thd
 917              	.LVL60:
 918              		.loc 4 350 3 view .LVU156
 919 001a FFF7FEFF 		bl	_dbg_check_lock
 920              	.LVL61:
 921              	.LBE155:
 922              	.LBE157:
 923              		.loc 2 216 3 view .LVU157
 924              	.LBB158:
 925              	.LBI158:
 926              		.loc 7 254 20 view .LVU158
 927              	.LBB159:
 928              		.loc 7 256 3 view .LVU159
 929 001e 0948     		ldr	r0, .L57+4
 930 0020 0021     		movs	r1, #0
 931 0022 FFF7FEFF 		bl	chEvtBroadcastFlagsI
 932              	.LVL62:
 933              		.loc 7 256 3 is_stmt 0 view .LVU160
 934              	.LBE159:
 935              	.LBE158:
 936              		.loc 2 217 3 is_stmt 1 view .LVU161
 937 0026 064B     		ldr	r3, .L57
 938 0028 1A68     		ldr	r2, [r3]
 939 002a 019B     		ldr	r3, [sp, #4]
 940 002c 5A40     		eors	r2, r3, r2
 941 002e 05D1     		bne	.L56
 942 0030 2046     		mov	r0, r4
 943              		.loc 2 218 1 is_stmt 0 view .LVU162
 944 0032 02B0     		add	sp, sp, #8
 945              		.cfi_remember_state
 946              		.cfi_def_cfa_offset 8
 947              		@ sp needed
 948 0034 BDE81040 		pop	{r4, lr}
 949              		.cfi_restore 14
 950              		.cfi_restore 4
 951              		.cfi_def_cfa_offset 0
 952              	.LVL63:
 953              		.loc 2 217 3 view .LVU163
 954 0038 FFF7FEBF 		b	chThdExitS
 955              	.LVL64:
 956              	.L56:
 957              		.cfi_restore_state
 958              		.loc 2 217 3 view .LVU164
 959 003c FFF7FEFF 		bl	__stack_chk_fail
 960              	.LVL65:
 961              	.L58:
ARM GAS  /tmp/ccHQwEQl.s 			page 19


 962              		.align	2
 963              	.L57:
 964 0040 00000000 		.word	.LC28
 965 0044 00000000 		.word	.LANCHOR1
 966              		.cfi_endproc
 967              	.LFE265:
 968              		.size	shellExit, .-shellExit
 969              		.section	.rodata.shellCreate.cst4,"aM",%progbits,4
 970              		.align	2
 971              	.LC29:
 972 0000 00000000 		.word	__stack_chk_guard
 973              		.section	.text.shellCreate,"ax",%progbits
 974              		.align	1
 975              		.p2align 4,,15
 976              		.global	shellCreate
 977              		.syntax unified
 978              		.thumb
 979              		.thumb_func
 980              		.fpu fpv4-sp-d16
 981              		.type	shellCreate, %function
 982              	shellCreate:
 983              	.LVL66:
 984              	.LFB266:
 985              		.loc 2 233 74 is_stmt 1 view -0
 986              		.cfi_startproc
 987              		@ args = 0, pretend = 0, frame = 8
 988              		@ frame_needed = 0, uses_anonymous_args = 0
 989              		.loc 2 233 74 is_stmt 0 view .LVU166
 990 0000 00B5     		push	{lr}
 991              		.cfi_def_cfa_offset 4
 992              		.cfi_offset 14, -4
 993 0002 85B0     		sub	sp, sp, #20
 994              		.cfi_def_cfa_offset 24
 995              		.loc 2 235 10 view .LVU167
 996 0004 094B     		ldr	r3, .L63
 997 0006 0090     		str	r0, [sp]
 998              		.loc 2 233 74 view .LVU168
 999 0008 0948     		ldr	r0, .L63+4
 1000              	.LVL67:
 1001              		.loc 2 233 74 view .LVU169
 1002 000a 0068     		ldr	r0, [r0]
 1003 000c 0390     		str	r0, [sp, #12]
 1004 000e 4FF00000 		mov	r0,#0
 1005              		.loc 2 235 3 is_stmt 1 view .LVU170
 1006              		.loc 2 235 10 is_stmt 0 view .LVU171
 1007 0012 0020     		movs	r0, #0
 1008 0014 FFF7FEFF 		bl	chThdCreateFromHeap
 1009              	.LVL68:
 1010              		.loc 2 236 1 view .LVU172
 1011 0018 054B     		ldr	r3, .L63+4
 1012 001a 1A68     		ldr	r2, [r3]
 1013 001c 039B     		ldr	r3, [sp, #12]
 1014 001e 5A40     		eors	r2, r3, r2
 1015 0020 02D1     		bne	.L62
 1016 0022 05B0     		add	sp, sp, #20
 1017              		.cfi_remember_state
 1018              		.cfi_def_cfa_offset 4
ARM GAS  /tmp/ccHQwEQl.s 			page 20


 1019              		@ sp needed
 1020 0024 5DF804FB 		ldr	pc, [sp], #4
 1021              	.L62:
 1022              		.cfi_restore_state
 1023 0028 FFF7FEFF 		bl	__stack_chk_fail
 1024              	.LVL69:
 1025              	.L64:
 1026              		.align	2
 1027              	.L63:
 1028 002c 00000000 		.word	shell_thread
 1029 0030 00000000 		.word	.LC29
 1030              		.cfi_endproc
 1031              	.LFE266:
 1032              		.size	shellCreate, .-shellCreate
 1033              		.section	.rodata.shellCreateStatic.cst4,"aM",%progbits,4
 1034              		.align	2
 1035              	.LC30:
 1036 0000 00000000 		.word	__stack_chk_guard
 1037              		.section	.text.shellCreateStatic,"ax",%progbits
 1038              		.align	1
 1039              		.p2align 4,,15
 1040              		.global	shellCreateStatic
 1041              		.syntax unified
 1042              		.thumb
 1043              		.thumb_func
 1044              		.fpu fpv4-sp-d16
 1045              		.type	shellCreateStatic, %function
 1046              	shellCreateStatic:
 1047              	.LVL70:
 1048              	.LFB267:
 1049              		.loc 2 251 56 is_stmt 1 view -0
 1050              		.cfi_startproc
 1051              		@ args = 0, pretend = 0, frame = 8
 1052              		@ frame_needed = 0, uses_anonymous_args = 0
 1053              		.loc 2 251 56 is_stmt 0 view .LVU174
 1054 0000 00B5     		push	{lr}
 1055              		.cfi_def_cfa_offset 4
 1056              		.cfi_offset 14, -4
 1057 0002 85B0     		sub	sp, sp, #20
 1058              		.cfi_def_cfa_offset 24
 1059              		.loc 2 251 56 view .LVU175
 1060 0004 DFF834C0 		ldr	ip, .L69+4
 1061              		.loc 2 253 10 view .LVU176
 1062 0008 0090     		str	r0, [sp]
 1063 000a 0846     		mov	r0, r1
 1064              	.LVL71:
 1065              		.loc 2 253 10 view .LVU177
 1066 000c 1146     		mov	r1, r2
 1067              	.LVL72:
 1068              		.loc 2 253 10 view .LVU178
 1069 000e 1A46     		mov	r2, r3
 1070              	.LVL73:
 1071              		.loc 2 253 10 view .LVU179
 1072 0010 094B     		ldr	r3, .L69
 1073              	.LVL74:
 1074              		.loc 2 251 56 view .LVU180
 1075 0012 DCF800C0 		ldr	ip, [ip]
ARM GAS  /tmp/ccHQwEQl.s 			page 21


 1076 0016 CDF80CC0 		str	ip, [sp, #12]
 1077 001a 4FF0000C 		mov	ip,#0
 1078              		.loc 2 253 3 is_stmt 1 view .LVU181
 1079              		.loc 2 253 10 is_stmt 0 view .LVU182
 1080 001e FFF7FEFF 		bl	chThdCreateStatic
 1081              	.LVL75:
 1082              		.loc 2 254 1 view .LVU183
 1083 0022 064B     		ldr	r3, .L69+4
 1084 0024 1A68     		ldr	r2, [r3]
 1085 0026 039B     		ldr	r3, [sp, #12]
 1086 0028 5A40     		eors	r2, r3, r2
 1087 002a 02D1     		bne	.L68
 1088 002c 05B0     		add	sp, sp, #20
 1089              		.cfi_remember_state
 1090              		.cfi_def_cfa_offset 4
 1091              		@ sp needed
 1092 002e 5DF804FB 		ldr	pc, [sp], #4
 1093              	.L68:
 1094              		.cfi_restore_state
 1095 0032 FFF7FEFF 		bl	__stack_chk_fail
 1096              	.LVL76:
 1097              	.L70:
 1098 0036 00BF     		.align	2
 1099              	.L69:
 1100 0038 00000000 		.word	shell_thread
 1101 003c 00000000 		.word	.LC30
 1102              		.cfi_endproc
 1103              	.LFE267:
 1104              		.size	shellCreateStatic, .-shellCreateStatic
 1105              		.section	.rodata.shellGetLine.str1.4,"aMS",%progbits,1
 1106              		.align	2
 1107              	.LC31:
 1108 0000 5E4400   		.ascii	"^D\000"
 1109 0003 00       		.align	2
 1110              	.LC32:
 1111 0004 0D0A00   		.ascii	"\015\012\000"
 1112              		.section	.rodata.shellGetLine.cst4,"aM",%progbits,4
 1113              		.align	2
 1114              	.LC33:
 1115 0000 00000000 		.word	__stack_chk_guard
 1116              		.section	.text.shellGetLine,"ax",%progbits
 1117              		.align	1
 1118              		.p2align 4,,15
 1119              		.global	shellGetLine
 1120              		.syntax unified
 1121              		.thumb
 1122              		.thumb_func
 1123              		.fpu fpv4-sp-d16
 1124              		.type	shellGetLine, %function
 1125              	shellGetLine:
 1126              	.LVL77:
 1127              	.LFB268:
 1128              		.loc 2 268 73 is_stmt 1 view -0
 1129              		.cfi_startproc
 1130              		@ args = 0, pretend = 0, frame = 8
 1131              		@ frame_needed = 0, uses_anonymous_args = 0
 1132              		.loc 2 268 73 is_stmt 0 view .LVU185
ARM GAS  /tmp/ccHQwEQl.s 			page 22


 1133 0000 F0B5     		push	{r4, r5, r6, r7, lr}
 1134              		.cfi_def_cfa_offset 20
 1135              		.cfi_offset 4, -20
 1136              		.cfi_offset 5, -16
 1137              		.cfi_offset 6, -12
 1138              		.cfi_offset 7, -8
 1139              		.cfi_offset 14, -4
 1140 0002 2A4B     		ldr	r3, .L91
 1141 0004 83B0     		sub	sp, sp, #12
 1142              		.cfi_def_cfa_offset 32
 1143              	.LBB160:
 1144              		.loc 2 296 25 view .LVU186
 1145 0006 013A     		subs	r2, r2, #1
 1146              	.LVL78:
 1147              		.loc 2 296 25 view .LVU187
 1148              	.LBE160:
 1149              		.loc 2 268 73 view .LVU188
 1150 0008 0F46     		mov	r7, r1
 1151              	.LBB161:
 1152              		.loc 2 296 25 view .LVU189
 1153 000a 8E18     		adds	r6, r1, r2
 1154              	.LBE161:
 1155              		.loc 2 268 73 view .LVU190
 1156 000c 0446     		mov	r4, r0
 1157 000e 0D46     		mov	r5, r1
 1158 0010 1B68     		ldr	r3, [r3]
 1159 0012 0193     		str	r3, [sp, #4]
 1160 0014 4FF00003 		mov	r3,#0
 1161              		.loc 2 269 3 is_stmt 1 view .LVU191
 1162              	.LVL79:
 1163              	.L72:
 1164              		.loc 2 271 3 view .LVU192
 1165              	.LBB162:
 1166              		.loc 2 272 5 view .LVU193
 1167              		.loc 2 274 5 view .LVU194
 1168              		.loc 2 274 9 is_stmt 0 view .LVU195
 1169 0018 2368     		ldr	r3, [r4]
 1170 001a 0122     		movs	r2, #1
 1171 001c 5B68     		ldr	r3, [r3, #4]
 1172 001e 0DF10301 		add	r1, sp, #3
 1173 0022 2046     		mov	r0, r4
 1174 0024 9847     		blx	r3
 1175              	.LVL80:
 1176              		.loc 2 274 8 view .LVU196
 1177 0026 48B3     		cbz	r0, .L82
 1178              		.loc 2 276 5 is_stmt 1 view .LVU197
 1179              		.loc 2 276 11 is_stmt 0 view .LVU198
 1180 0028 9DF80310 		ldrb	r1, [sp, #3]	@ zero_extendqisi2
 1181              		.loc 2 276 8 view .LVU199
 1182 002c 0429     		cmp	r1, #4
 1183 002e 2DD0     		beq	.L88
 1184              		.loc 2 280 5 is_stmt 1 view .LVU200
 1185              		.loc 2 280 8 is_stmt 0 view .LVU201
 1186 0030 0829     		cmp	r1, #8
 1187 0032 10D0     		beq	.L75
 1188              		.loc 2 280 18 discriminator 1 view .LVU202
 1189 0034 7F29     		cmp	r1, #127
ARM GAS  /tmp/ccHQwEQl.s 			page 23


 1190 0036 0ED0     		beq	.L75
 1191              		.loc 2 289 5 is_stmt 1 view .LVU203
 1192              		.loc 2 289 8 is_stmt 0 view .LVU204
 1193 0038 0D29     		cmp	r1, #13
 1194 003a 2DD0     		beq	.L89
 1195              		.loc 2 294 5 is_stmt 1 view .LVU205
 1196              		.loc 2 294 8 is_stmt 0 view .LVU206
 1197 003c 1F29     		cmp	r1, #31
 1198 003e EBD9     		bls	.L72
 1199              		.loc 2 296 5 is_stmt 1 view .LVU207
 1200              		.loc 2 296 8 is_stmt 0 view .LVU208
 1201 0040 B542     		cmp	r5, r6
 1202 0042 E9D2     		bcs	.L72
 1203              		.loc 2 297 7 is_stmt 1 view .LVU209
 1204 0044 2368     		ldr	r3, [r4]
 1205 0046 2046     		mov	r0, r4
 1206 0048 9B68     		ldr	r3, [r3, #8]
 1207 004a 9847     		blx	r3
 1208              	.LVL81:
 1209              		.loc 2 298 7 view .LVU210
 1210              		.loc 2 298 12 is_stmt 0 view .LVU211
 1211 004c 9DF80330 		ldrb	r3, [sp, #3]	@ zero_extendqisi2
 1212 0050 05F8013B 		strb	r3, [r5], #1
 1213              	.LVL82:
 1214              		.loc 2 298 12 view .LVU212
 1215 0054 E0E7     		b	.L72
 1216              	.L75:
 1217              		.loc 2 281 7 is_stmt 1 view .LVU213
 1218              		.loc 2 281 10 is_stmt 0 view .LVU214
 1219 0056 BD42     		cmp	r5, r7
 1220 0058 DED0     		beq	.L72
 1221              		.loc 2 282 9 is_stmt 1 view .LVU215
 1222 005a 2368     		ldr	r3, [r4]
 1223 005c 2046     		mov	r0, r4
 1224 005e 9B68     		ldr	r3, [r3, #8]
 1225 0060 9847     		blx	r3
 1226              	.LVL83:
 1227              		.loc 2 283 9 view .LVU216
 1228 0062 2368     		ldr	r3, [r4]
 1229 0064 2021     		movs	r1, #32
 1230 0066 9B68     		ldr	r3, [r3, #8]
 1231 0068 2046     		mov	r0, r4
 1232 006a 9847     		blx	r3
 1233              	.LVL84:
 1234              		.loc 2 284 9 view .LVU217
 1235 006c 2368     		ldr	r3, [r4]
 1236 006e 9DF80310 		ldrb	r1, [sp, #3]	@ zero_extendqisi2
 1237 0072 9B68     		ldr	r3, [r3, #8]
 1238 0074 2046     		mov	r0, r4
 1239              		.loc 2 285 10 is_stmt 0 view .LVU218
 1240 0076 013D     		subs	r5, r5, #1
 1241              	.LVL85:
 1242              		.loc 2 284 9 view .LVU219
 1243 0078 9847     		blx	r3
 1244              	.LVL86:
 1245              		.loc 2 285 9 is_stmt 1 view .LVU220
 1246              		.loc 2 285 9 is_stmt 0 view .LVU221
ARM GAS  /tmp/ccHQwEQl.s 			page 24


 1247 007a CDE7     		b	.L72
 1248              	.L82:
 1249              		.loc 2 275 14 view .LVU222
 1250 007c 0120     		movs	r0, #1
 1251              	.L73:
 1252              	.LBE162:
 1253              		.loc 2 301 1 discriminator 1 view .LVU223
 1254 007e 0B4B     		ldr	r3, .L91
 1255 0080 1A68     		ldr	r2, [r3]
 1256 0082 019B     		ldr	r3, [sp, #4]
 1257 0084 5A40     		eors	r2, r3, r2
 1258 0086 0ED1     		bne	.L90
 1259              		.loc 2 301 1 view .LVU224
 1260 0088 03B0     		add	sp, sp, #12
 1261              		.cfi_remember_state
 1262              		.cfi_def_cfa_offset 20
 1263              		@ sp needed
 1264 008a F0BD     		pop	{r4, r5, r6, r7, pc}
 1265              	.LVL87:
 1266              	.L88:
 1267              		.cfi_restore_state
 1268              	.LBB163:
 1269              		.loc 2 277 7 is_stmt 1 view .LVU225
 1270 008c 0849     		ldr	r1, .L91+4
 1271 008e 2046     		mov	r0, r4
 1272 0090 FFF7FEFF 		bl	chprintf
 1273              	.LVL88:
 1274              		.loc 2 278 7 view .LVU226
 1275              		.loc 2 278 14 is_stmt 0 view .LVU227
 1276 0094 0120     		movs	r0, #1
 1277 0096 F2E7     		b	.L73
 1278              	.L89:
 1279              		.loc 2 290 7 is_stmt 1 view .LVU228
 1280 0098 0649     		ldr	r1, .L91+8
 1281 009a 2046     		mov	r0, r4
 1282 009c FFF7FEFF 		bl	chprintf
 1283              	.LVL89:
 1284              		.loc 2 291 7 view .LVU229
 1285              		.loc 2 291 10 is_stmt 0 view .LVU230
 1286 00a0 0020     		movs	r0, #0
 1287 00a2 2870     		strb	r0, [r5]
 1288              		.loc 2 292 7 is_stmt 1 view .LVU231
 1289              		.loc 2 292 14 is_stmt 0 view .LVU232
 1290 00a4 EBE7     		b	.L73
 1291              	.L90:
 1292              		.loc 2 292 14 view .LVU233
 1293              	.LBE163:
 1294              		.loc 2 301 1 view .LVU234
 1295 00a6 FFF7FEFF 		bl	__stack_chk_fail
 1296              	.LVL90:
 1297              	.L92:
 1298 00aa 00BF     		.align	2
 1299              	.L91:
 1300 00ac 00000000 		.word	.LC33
 1301 00b0 00000000 		.word	.LC31
 1302 00b4 04000000 		.word	.LC32
 1303              		.cfi_endproc
ARM GAS  /tmp/ccHQwEQl.s 			page 25


 1304              	.LFE268:
 1305              		.size	shellGetLine, .-shellGetLine
 1306              		.section	.rodata.shell_thread.str1.4,"aMS",%progbits,1
 1307              		.align	2
 1308              	.LC34:
 1309 0000 7368656C 		.ascii	"shell\000"
 1309      6C00
 1310 0006 0000     		.align	2
 1311              	.LC35:
 1312 0008 0D0A4368 		.ascii	"\015\012ChibiOS/RT Shell\015\012\000"
 1312      6962694F 
 1312      532F5254 
 1312      20536865 
 1312      6C6C0D0A 
 1313 001d 000000   		.align	2
 1314              	.LC36:
 1315 0020 63683E20 		.ascii	"ch> \000"
 1315      00
 1316 0025 000000   		.align	2
 1317              	.LC37:
 1318 0028 0D0A6C6F 		.ascii	"\015\012logout\000"
 1318      676F7574 
 1318      00
 1319 0031 000000   		.align	2
 1320              	.LC38:
 1321 0034 746F6F20 		.ascii	"too many arguments\015\012\000"
 1321      6D616E79 
 1321      20617267 
 1321      756D656E 
 1321      74730D0A 
 1322 0049 000000   		.align	2
 1323              	.LC39:
 1324 004c 65786974 		.ascii	"exit\000"
 1324      00
 1325 0051 000000   		.align	2
 1326              	.LC40:
 1327 0054 68656C70 		.ascii	"help\000"
 1327      00
 1328 0059 000000   		.align	2
 1329              	.LC41:
 1330 005c 436F6D6D 		.ascii	"Commands: help exit \000"
 1330      616E6473 
 1330      3A206865 
 1330      6C702065 
 1330      78697420 
 1331 0071 000000   		.align	2
 1332              	.LC42:
 1333 0074 25732000 		.ascii	"%s \000"
 1334              		.align	2
 1335              	.LC43:
 1336 0078 257300   		.ascii	"%s\000"
 1337 007b 00       		.align	2
 1338              	.LC44:
 1339 007c 203F0D0A 		.ascii	" ?\015\012\000"
 1339      00
 1340              		.section	.rodata.shell_thread.cst4,"aM",%progbits,4
 1341              		.align	2
ARM GAS  /tmp/ccHQwEQl.s 			page 26


 1342              	.LC45:
 1343 0000 00000000 		.word	__stack_chk_guard
 1344              		.section	.text.shell_thread,"ax",%progbits
 1345              		.align	1
 1346              		.p2align 4,,15
 1347              		.syntax unified
 1348              		.thumb
 1349              		.thumb_func
 1350              		.fpu fpv4-sp-d16
 1351              		.type	shell_thread, %function
 1352              	shell_thread:
 1353              	.LVL91:
 1354              	.LFB263:
 1355              		.loc 2 136 38 is_stmt 1 view -0
 1356              		.cfi_startproc
 1357              		@ args = 0, pretend = 0, frame = 96
 1358              		@ frame_needed = 0, uses_anonymous_args = 0
 1359              		.loc 2 136 38 is_stmt 0 view .LVU236
 1360 0000 2DE9F04F 		push	{r4, r5, r6, r7, r8, r9, r10, fp, lr}
 1361              		.cfi_def_cfa_offset 36
 1362              		.cfi_offset 4, -36
 1363              		.cfi_offset 5, -32
 1364              		.cfi_offset 6, -28
 1365              		.cfi_offset 7, -24
 1366              		.cfi_offset 8, -20
 1367              		.cfi_offset 9, -16
 1368              		.cfi_offset 10, -12
 1369              		.cfi_offset 11, -8
 1370              		.cfi_offset 14, -4
 1371              	.LBB178:
 1372              	.LBB179:
 1373              		.file 8 ".//ChibiOS//os/rt/include/chregistry.h"
 1374              		.loc 8 135 11 view .LVU237
 1375 0004 644B     		ldr	r3, .L150
 1376              	.LBE179:
 1377              	.LBE178:
 1378              		.loc 2 138 25 view .LVU238
 1379 0006 0668     		ldr	r6, [r0]
 1380              	.LBB183:
 1381              	.LBB180:
 1382              		.loc 8 135 11 view .LVU239
 1383 0008 9B69     		ldr	r3, [r3, #24]
 1384              		.loc 8 135 30 view .LVU240
 1385 000a 644A     		ldr	r2, .L150+4
 1386              	.LBE180:
 1387              	.LBE183:
 1388              		.loc 2 139 23 view .LVU241
 1389 000c D0F804A0 		ldr	r10, [r0, #4]
 1390              	.LBB184:
 1391              	.LBB181:
 1392              		.loc 8 135 30 view .LVU242
 1393 0010 9A61     		str	r2, [r3, #24]
 1394              	.LBE181:
 1395              	.LBE184:
 1396              		.loc 2 136 38 view .LVU243
 1397 0012 634B     		ldr	r3, .L150+8
 1398              		.loc 2 144 3 view .LVU244
ARM GAS  /tmp/ccHQwEQl.s 			page 27


 1399 0014 6349     		ldr	r1, .L150+12
 1400              		.loc 2 146 5 view .LVU245
 1401 0016 644F     		ldr	r7, .L150+16
 1402              		.loc 2 164 11 view .LVU246
 1403 0018 DFF8B481 		ldr	r8, .L150+56
 1404              		.loc 2 171 16 view .LVU247
 1405 001c DFF8B491 		ldr	r9, .L150+60
 1406              		.loc 2 136 38 view .LVU248
 1407 0020 99B0     		sub	sp, sp, #100
 1408              		.cfi_def_cfa_offset 136
 1409              		.loc 2 144 3 view .LVU249
 1410 0022 3046     		mov	r0, r6
 1411              	.LVL92:
 1412              		.loc 2 136 38 view .LVU250
 1413 0024 1B68     		ldr	r3, [r3]
 1414 0026 1793     		str	r3, [sp, #92]
 1415 0028 4FF00003 		mov	r3,#0
 1416              		.loc 2 137 3 is_stmt 1 view .LVU251
 1417              		.loc 2 138 3 view .LVU252
 1418              	.LVL93:
 1419              		.loc 2 139 3 view .LVU253
 1420              		.loc 2 140 3 view .LVU254
 1421              		.loc 2 141 3 view .LVU255
 1422              		.loc 2 143 3 view .LVU256
 1423              	.LBB185:
 1424              	.LBI178:
 1425              		.loc 8 132 20 view .LVU257
 1426              	.LBB182:
 1427              		.loc 8 135 3 view .LVU258
 1428              		.loc 8 135 3 is_stmt 0 view .LVU259
 1429              	.LBE182:
 1430              	.LBE185:
 1431              		.loc 2 144 3 is_stmt 1 view .LVU260
 1432 002c FFF7FEFF 		bl	chprintf
 1433              	.LVL94:
 1434              	.L94:
 1435              		.loc 2 145 3 view .LVU261
 1436              		.loc 2 146 5 view .LVU262
 1437 0030 3946     		mov	r1, r7
 1438 0032 3046     		mov	r0, r6
 1439 0034 FFF7FEFF 		bl	chprintf
 1440              	.LVL95:
 1441              		.loc 2 147 5 view .LVU263
 1442              		.loc 2 147 9 is_stmt 0 view .LVU264
 1443 0038 4022     		movs	r2, #64
 1444 003a 07A9     		add	r1, sp, #28
 1445 003c 3046     		mov	r0, r6
 1446 003e FFF7FEFF 		bl	shellGetLine
 1447              	.LVL96:
 1448              		.loc 2 147 8 view .LVU265
 1449 0042 8346     		mov	fp, r0
 1450 0044 0028     		cmp	r0, #0
 1451 0046 58D1     		bne	.L143
 1452              		.loc 2 151 5 is_stmt 1 view .LVU266
 1453              		.loc 2 151 10 is_stmt 0 view .LVU267
 1454 0048 01A9     		add	r1, sp, #4
 1455 004a 07A8     		add	r0, sp, #28
ARM GAS  /tmp/ccHQwEQl.s 			page 28


 1456 004c FFF7FEFF 		bl	_strtok.constprop.0
 1457              	.LVL97:
 1458              		.loc 2 154 18 view .LVU268
 1459 0050 01A9     		add	r1, sp, #4
 1460              		.loc 2 151 10 view .LVU269
 1461 0052 0546     		mov	r5, r0
 1462              	.LVL98:
 1463              		.loc 2 152 5 is_stmt 1 view .LVU270
 1464              		.loc 2 153 5 view .LVU271
 1465              		.loc 2 154 5 view .LVU272
 1466              		.loc 2 154 11 view .LVU273
 1467              		.loc 2 154 18 is_stmt 0 view .LVU274
 1468 0054 0020     		movs	r0, #0
 1469              	.LVL99:
 1470              		.loc 2 154 18 view .LVU275
 1471 0056 02AC     		add	r4, sp, #8
 1472 0058 FFF7FEFF 		bl	_strtok.constprop.0
 1473              	.LVL100:
 1474              		.loc 2 154 11 view .LVU276
 1475 005c 60B1     		cbz	r0, .L144
 1476              	.L100:
 1477              		.loc 2 155 7 is_stmt 1 view .LVU277
 1478              		.loc 2 155 10 is_stmt 0 view .LVU278
 1479 005e BBF1040F 		cmp	fp, #4
 1480 0062 23D0     		beq	.L145
 1481              		.loc 2 160 7 is_stmt 1 view .LVU279
 1482              		.loc 2 160 17 is_stmt 0 view .LVU280
 1483 0064 44F8040B 		str	r0, [r4], #4
 1484              		.loc 2 154 18 view .LVU281
 1485 0068 01A9     		add	r1, sp, #4
 1486 006a 0020     		movs	r0, #0
 1487              	.LVL101:
 1488              		.loc 2 160 13 view .LVU282
 1489 006c 0BF1010B 		add	fp, fp, #1
 1490              	.LVL102:
 1491              		.loc 2 154 11 is_stmt 1 view .LVU283
 1492              		.loc 2 154 18 is_stmt 0 view .LVU284
 1493 0070 FFF7FEFF 		bl	_strtok.constprop.0
 1494              	.LVL103:
 1495              		.loc 2 154 11 view .LVU285
 1496 0074 0028     		cmp	r0, #0
 1497 0076 F2D1     		bne	.L100
 1498              	.L144:
 1499              		.loc 2 162 5 is_stmt 1 view .LVU286
 1500              		.loc 2 162 13 is_stmt 0 view .LVU287
 1501 0078 18AB     		add	r3, sp, #96
 1502 007a 03EB8B03 		add	r3, r3, fp, lsl #2
 1503 007e 43F8580C 		str	r0, [r3, #-88]
 1504              		.loc 2 163 5 is_stmt 1 view .LVU288
 1505              		.loc 2 163 8 is_stmt 0 view .LVU289
 1506 0082 002D     		cmp	r5, #0
 1507 0084 D4D0     		beq	.L94
 1508              		.loc 2 164 7 is_stmt 1 view .LVU290
 1509              		.loc 2 164 11 is_stmt 0 view .LVU291
 1510 0086 4146     		mov	r1, r8
 1511 0088 2846     		mov	r0, r5
 1512              	.LVL104:
ARM GAS  /tmp/ccHQwEQl.s 			page 29


 1513              		.loc 2 164 11 view .LVU292
 1514 008a FFF7FEFF 		bl	strcasecmp
 1515              	.LVL105:
 1516              		.loc 2 164 10 view .LVU293
 1517 008e A0B9     		cbnz	r0, .L101
 1518              		.loc 2 165 9 is_stmt 1 view .LVU294
 1519              		.loc 2 165 12 is_stmt 0 view .LVU295
 1520 0090 BBF1000F 		cmp	fp, #0
 1521 0094 4ED1     		bne	.L146
 1522              	.LVL106:
 1523              	.L96:
 1524              		.loc 2 189 3 is_stmt 1 view .LVU296
 1525 0096 0020     		movs	r0, #0
 1526 0098 FFF7FEFF 		bl	shellExit
 1527              	.LVL107:
 1528              		.loc 2 190 1 is_stmt 0 view .LVU297
 1529 009c 404B     		ldr	r3, .L150+8
 1530 009e 1A68     		ldr	r2, [r3]
 1531 00a0 179B     		ldr	r3, [sp, #92]
 1532 00a2 5A40     		eors	r2, r3, r2
 1533 00a4 76D1     		bne	.L147
 1534 00a6 19B0     		add	sp, sp, #100
 1535              		.cfi_remember_state
 1536              		.cfi_def_cfa_offset 36
 1537              		@ sp needed
 1538 00a8 BDE8F08F 		pop	{r4, r5, r6, r7, r8, r9, r10, fp, pc}
 1539              	.LVL108:
 1540              	.L145:
 1541              		.cfi_restore_state
 1542              		.loc 2 156 9 is_stmt 1 view .LVU298
 1543 00ac 3F49     		ldr	r1, .L150+20
 1544 00ae 3046     		mov	r0, r6
 1545              	.LVL109:
 1546              		.loc 2 156 9 is_stmt 0 view .LVU299
 1547 00b0 FFF7FEFF 		bl	chprintf
 1548              	.LVL110:
 1549              		.loc 2 157 9 is_stmt 1 view .LVU300
 1550              		.loc 2 158 9 view .LVU301
 1551              		.loc 2 162 5 view .LVU302
 1552              		.loc 2 162 13 is_stmt 0 view .LVU303
 1553 00b4 0023     		movs	r3, #0
 1554 00b6 0693     		str	r3, [sp, #24]
 1555              		.loc 2 163 5 is_stmt 1 view .LVU304
 1556 00b8 BAE7     		b	.L94
 1557              	.LVL111:
 1558              	.L101:
 1559              		.loc 2 171 12 view .LVU305
 1560              		.loc 2 171 16 is_stmt 0 view .LVU306
 1561 00ba 4946     		mov	r1, r9
 1562 00bc 2846     		mov	r0, r5
 1563 00be FFF7FEFF 		bl	strcasecmp
 1564              	.LVL112:
 1565              		.loc 2 171 15 view .LVU307
 1566 00c2 40B9     		cbnz	r0, .L148
 1567              		.loc 2 172 9 is_stmt 1 view .LVU308
 1568              		.loc 2 172 12 is_stmt 0 view .LVU309
 1569 00c4 BBF1000F 		cmp	fp, #0
ARM GAS  /tmp/ccHQwEQl.s 			page 30


 1570 00c8 1CD0     		beq	.L105
 1571              		.loc 2 173 11 is_stmt 1 view .LVU310
 1572              	.LVL113:
 1573              	.LBB186:
 1574              	.LBI186:
 1575              		.loc 2 54 13 view .LVU311
 1576              	.LBB187:
 1577              		.loc 2 56 3 view .LVU312
 1578 00ca 3949     		ldr	r1, .L150+24
 1579 00cc 4A46     		mov	r2, r9
 1580 00ce 3046     		mov	r0, r6
 1581 00d0 FFF7FEFF 		bl	chprintf
 1582              	.LVL114:
 1583              		.loc 2 56 3 is_stmt 0 view .LVU313
 1584              	.LBE187:
 1585              	.LBE186:
 1586              		.loc 2 174 11 is_stmt 1 view .LVU314
 1587 00d4 ACE7     		b	.L94
 1588              	.L148:
 1589              	.LVL115:
 1590              	.LBB188:
 1591              	.LBB189:
 1592              		.loc 2 121 9 view .LVU315
 1593              		.loc 2 121 13 is_stmt 0 view .LVU316
 1594 00d6 374C     		ldr	r4, .L150+28
 1595 00d8 2068     		ldr	r0, [r4]
 1596              		.loc 2 121 9 view .LVU317
 1597 00da 18B9     		cbnz	r0, .L111
 1598 00dc 30E0     		b	.L104
 1599              	.LVL116:
 1600              	.L110:
 1601              		.loc 2 126 5 is_stmt 1 view .LVU318
 1602              		.loc 2 121 9 view .LVU319
 1603              		.loc 2 121 13 is_stmt 0 view .LVU320
 1604 00de 54F8080F 		ldr	r0, [r4, #8]!
 1605              	.LVL117:
 1606              		.loc 2 121 9 view .LVU321
 1607 00e2 68B3     		cbz	r0, .L104
 1608              	.LVL118:
 1609              	.L111:
 1610              		.loc 2 122 5 is_stmt 1 view .LVU322
 1611              		.loc 2 122 9 is_stmt 0 view .LVU323
 1612 00e4 2946     		mov	r1, r5
 1613 00e6 FFF7FEFF 		bl	strcasecmp
 1614              	.LVL119:
 1615              		.loc 2 122 8 view .LVU324
 1616 00ea 0028     		cmp	r0, #0
 1617 00ec F7D1     		bne	.L110
 1618              	.LVL120:
 1619              	.L142:
 1620              		.loc 2 122 8 view .LVU325
 1621              	.LBE189:
 1622              	.LBE188:
 1623              	.LBB190:
 1624              	.LBB191:
 1625              		.loc 2 123 7 is_stmt 1 view .LVU326
 1626 00ee 6368     		ldr	r3, [r4, #4]
ARM GAS  /tmp/ccHQwEQl.s 			page 31


 1627 00f0 02AA     		add	r2, sp, #8
 1628 00f2 5946     		mov	r1, fp
 1629 00f4 3046     		mov	r0, r6
 1630 00f6 9847     		blx	r3
 1631              	.LVL121:
 1632              		.loc 2 124 7 view .LVU327
 1633 00f8 9AE7     		b	.L94
 1634              	.LVL122:
 1635              	.L143:
 1636              		.loc 2 124 7 is_stmt 0 view .LVU328
 1637              	.LBE191:
 1638              	.LBE190:
 1639              		.loc 2 148 7 is_stmt 1 view .LVU329
 1640 00fa 2F49     		ldr	r1, .L150+32
 1641 00fc 3046     		mov	r0, r6
 1642 00fe FFF7FEFF 		bl	chprintf
 1643              	.LVL123:
 1644              		.loc 2 149 7 view .LVU330
 1645 0102 C8E7     		b	.L96
 1646              	.LVL124:
 1647              	.L105:
 1648              		.loc 2 176 9 view .LVU331
 1649              	.LBB193:
 1650              	.LBB194:
 1651              		.loc 2 61 13 is_stmt 0 view .LVU332
 1652 0104 2B4C     		ldr	r4, .L150+28
 1653              	.LBE194:
 1654              	.LBE193:
 1655              		.loc 2 176 9 view .LVU333
 1656 0106 2D49     		ldr	r1, .L150+36
 1657 0108 3046     		mov	r0, r6
 1658 010a FFF7FEFF 		bl	chprintf
 1659              	.LVL125:
 1660              		.loc 2 177 9 is_stmt 1 view .LVU334
 1661              	.LBB196:
 1662              	.LBI193:
 1663              		.loc 2 59 13 view .LVU335
 1664              	.LBB195:
 1665              		.loc 2 61 3 view .LVU336
 1666              		.loc 2 61 9 view .LVU337
 1667              		.loc 2 61 13 is_stmt 0 view .LVU338
 1668 010e 2268     		ldr	r2, [r4]
 1669              		.loc 2 61 9 view .LVU339
 1670 0110 42B1     		cbz	r2, .L106
 1671              		.loc 2 62 5 view .LVU340
 1672 0112 2B4D     		ldr	r5, .L150+40
 1673              	.LVL126:
 1674              	.L107:
 1675              		.loc 2 62 5 is_stmt 1 view .LVU341
 1676 0114 2946     		mov	r1, r5
 1677 0116 3046     		mov	r0, r6
 1678 0118 FFF7FEFF 		bl	chprintf
 1679              	.LVL127:
 1680              		.loc 2 63 5 view .LVU342
 1681              		.loc 2 61 9 view .LVU343
 1682              		.loc 2 61 13 is_stmt 0 view .LVU344
 1683 011c 54F8082F 		ldr	r2, [r4, #8]!
ARM GAS  /tmp/ccHQwEQl.s 			page 32


 1684              	.LVL128:
 1685              		.loc 2 61 9 view .LVU345
 1686 0120 002A     		cmp	r2, #0
 1687 0122 F7D1     		bne	.L107
 1688              	.LVL129:
 1689              	.L106:
 1690              		.loc 2 61 9 view .LVU346
 1691              	.LBE195:
 1692              	.LBE196:
 1693              		.loc 2 178 9 is_stmt 1 view .LVU347
 1694              		.loc 2 178 12 is_stmt 0 view .LVU348
 1695 0124 BAF1000F 		cmp	r10, #0
 1696 0128 1BD1     		bne	.L149
 1697              	.L108:
 1698              		.loc 2 180 9 is_stmt 1 view .LVU349
 1699 012a 2649     		ldr	r1, .L150+44
 1700 012c 3046     		mov	r0, r6
 1701 012e FFF7FEFF 		bl	chprintf
 1702              	.LVL130:
 1703 0132 7DE7     		b	.L94
 1704              	.LVL131:
 1705              	.L146:
 1706              		.loc 2 166 11 view .LVU350
 1707              	.LBB197:
 1708              	.LBI197:
 1709              		.loc 2 54 13 view .LVU351
 1710              	.LBB198:
 1711              		.loc 2 56 3 view .LVU352
 1712 0134 1E49     		ldr	r1, .L150+24
 1713 0136 4246     		mov	r2, r8
 1714 0138 3046     		mov	r0, r6
 1715 013a FFF7FEFF 		bl	chprintf
 1716              	.LVL132:
 1717              		.loc 2 56 3 is_stmt 0 view .LVU353
 1718              	.LBE198:
 1719              	.LBE197:
 1720              		.loc 2 167 11 is_stmt 1 view .LVU354
 1721 013e 77E7     		b	.L94
 1722              	.L104:
 1723              		.loc 2 182 59 is_stmt 0 view .LVU355
 1724 0140 BAF1000F 		cmp	r10, #0
 1725 0144 1CD0     		beq	.L112
 1726              	.LVL133:
 1727              	.LBB199:
 1728              	.LBB192:
 1729              		.loc 2 121 9 is_stmt 1 view .LVU356
 1730              		.loc 2 121 13 is_stmt 0 view .LVU357
 1731 0146 DAF80000 		ldr	r0, [r10]
 1732              		.loc 2 121 9 view .LVU358
 1733 014a C8B1     		cbz	r0, .L112
 1734 014c 5446     		mov	r4, r10
 1735 014e 02E0     		b	.L114
 1736              	.LVL134:
 1737              	.L113:
 1738              		.loc 2 126 5 is_stmt 1 view .LVU359
 1739              		.loc 2 121 9 view .LVU360
 1740              		.loc 2 121 13 is_stmt 0 view .LVU361
ARM GAS  /tmp/ccHQwEQl.s 			page 33


 1741 0150 54F8080F 		ldr	r0, [r4, #8]!
 1742              	.LVL135:
 1743              		.loc 2 121 9 view .LVU362
 1744 0154 A0B1     		cbz	r0, .L112
 1745              	.L114:
 1746              		.loc 2 122 5 is_stmt 1 view .LVU363
 1747              		.loc 2 122 9 is_stmt 0 view .LVU364
 1748 0156 2946     		mov	r1, r5
 1749 0158 FFF7FEFF 		bl	strcasecmp
 1750              	.LVL136:
 1751              		.loc 2 122 8 view .LVU365
 1752 015c 0028     		cmp	r0, #0
 1753 015e F7D1     		bne	.L113
 1754              		.loc 2 122 8 view .LVU366
 1755 0160 C5E7     		b	.L142
 1756              	.LVL137:
 1757              	.L149:
 1758              		.loc 2 122 8 view .LVU367
 1759              	.LBE192:
 1760              	.LBE199:
 1761              	.LBB200:
 1762              	.LBB201:
 1763              		.loc 2 61 9 is_stmt 1 view .LVU368
 1764              		.loc 2 61 13 is_stmt 0 view .LVU369
 1765 0162 DAF80020 		ldr	r2, [r10]
 1766              		.loc 2 61 9 view .LVU370
 1767 0166 002A     		cmp	r2, #0
 1768 0168 DFD0     		beq	.L108
 1769              		.loc 2 62 5 view .LVU371
 1770 016a 154D     		ldr	r5, .L150+40
 1771 016c 5446     		mov	r4, r10
 1772              	.LVL138:
 1773              	.L109:
 1774              		.loc 2 62 5 is_stmt 1 view .LVU372
 1775 016e 2946     		mov	r1, r5
 1776 0170 3046     		mov	r0, r6
 1777 0172 FFF7FEFF 		bl	chprintf
 1778              	.LVL139:
 1779              		.loc 2 63 5 view .LVU373
 1780              		.loc 2 61 9 view .LVU374
 1781              		.loc 2 61 13 is_stmt 0 view .LVU375
 1782 0176 54F8082F 		ldr	r2, [r4, #8]!
 1783              	.LVL140:
 1784              		.loc 2 61 9 view .LVU376
 1785 017a 002A     		cmp	r2, #0
 1786 017c F7D1     		bne	.L109
 1787 017e D4E7     		b	.L108
 1788              	.LVL141:
 1789              	.L112:
 1790              		.loc 2 61 9 view .LVU377
 1791              	.LBE201:
 1792              	.LBE200:
 1793              		.loc 2 184 9 is_stmt 1 view .LVU378
 1794 0180 1149     		ldr	r1, .L150+48
 1795 0182 2A46     		mov	r2, r5
 1796 0184 3046     		mov	r0, r6
 1797 0186 FFF7FEFF 		bl	chprintf
ARM GAS  /tmp/ccHQwEQl.s 			page 34


 1798              	.LVL142:
 1799              		.loc 2 185 9 view .LVU379
 1800 018a 1049     		ldr	r1, .L150+52
 1801 018c 3046     		mov	r0, r6
 1802 018e FFF7FEFF 		bl	chprintf
 1803              	.LVL143:
 1804 0192 4DE7     		b	.L94
 1805              	.LVL144:
 1806              	.L147:
 1807              		.loc 2 190 1 is_stmt 0 view .LVU380
 1808 0194 FFF7FEFF 		bl	__stack_chk_fail
 1809              	.LVL145:
 1810              	.L151:
 1811              		.align	2
 1812              	.L150:
 1813 0198 00000000 		.word	ch
 1814 019c 00000000 		.word	.LC34
 1815 01a0 00000000 		.word	.LC45
 1816 01a4 08000000 		.word	.LC35
 1817 01a8 20000000 		.word	.LC36
 1818 01ac 34000000 		.word	.LC38
 1819 01b0 08000000 		.word	.LC2
 1820 01b4 00000000 		.word	.LANCHOR2
 1821 01b8 28000000 		.word	.LC37
 1822 01bc 5C000000 		.word	.LC41
 1823 01c0 74000000 		.word	.LC42
 1824 01c4 04000000 		.word	.LC32
 1825 01c8 78000000 		.word	.LC43
 1826 01cc 7C000000 		.word	.LC44
 1827 01d0 4C000000 		.word	.LC39
 1828 01d4 54000000 		.word	.LC40
 1829              		.cfi_endproc
 1830              	.LFE263:
 1831              		.size	shell_thread, .-shell_thread
 1832              		.global	shell_terminated
 1833              		.section	.bss.shell_terminated,"aw",%nobits
 1834              		.align	2
 1835              		.set	.LANCHOR1,. + 0
 1836              		.type	shell_terminated, %object
 1837              		.size	shell_terminated, 4
 1838              	shell_terminated:
 1839 0000 00000000 		.space	4
 1840              		.section	.data.local_commands,"aw"
 1841              		.align	2
 1842              		.set	.LANCHOR2,. + 0
 1843              		.type	local_commands, %object
 1844              		.size	local_commands, 24
 1845              	local_commands:
 1846 0000 00000000 		.word	.LC5
 1847 0004 00000000 		.word	cmd_info
 1848 0008 00000000 		.word	.LC1
 1849 000c 00000000 		.word	cmd_systime
 1850 0010 00000000 		.word	0
 1851 0014 00000000 		.word	0
 1852              		.section	.rodata.__func__.7663,"a"
 1853              		.align	2
 1854              		.set	.LANCHOR0,. + 0
ARM GAS  /tmp/ccHQwEQl.s 			page 35


 1855              		.type	__func__.7663, %object
 1856              		.size	__func__.7663, 12
 1857              	__func__.7663:
 1858 0000 63685379 		.ascii	"chSysUnlock\000"
 1858      73556E6C 
 1858      6F636B00 
 1859              		.text
 1860              	.Letext0:
 1861              		.file 9 "/usr/lib/gcc/arm-none-eabi/9.2.1/include/stddef.h"
 1862              		.file 10 "/usr/include/newlib/sys/_types.h"
 1863              		.file 11 "/usr/include/newlib/sys/reent.h"
 1864              		.file 12 "/usr/include/newlib/sys/lock.h"
 1865              		.file 13 "/usr/lib/gcc/arm-none-eabi/9.2.1/include/stdint.h"
 1866              		.file 14 ".//ChibiOS//os/rt/ports/ARMCMx/compilers/GCC/chtypes.h"
 1867              		.file 15 ".//ChibiOS//os/rt/include/chsystypes.h"
 1868              		.file 16 ".//ChibiOS//os/rt/include/chschd.h"
 1869              		.file 17 ".//ChibiOS//os/ext/CMSIS/include/core_cm4.h"
 1870              		.file 18 ".//ChibiOS//os/ext/CMSIS/ST/system_stm32f4xx.h"
 1871              		.file 19 ".//ChibiOS//os/ext/CMSIS/ST/stm32f407xx.h"
 1872              		.file 20 ".//ChibiOS//os/rt/ports/ARMCMx/chcore.h"
 1873              		.file 21 ".//ChibiOS//os/rt/include/chdebug.h"
 1874              		.file 22 ".//ChibiOS//os/rt/include/chtm.h"
 1875              		.file 23 ".//ChibiOS//os/rt/include/chstats.h"
 1876              		.file 24 ".//ChibiOS//os/rt/include/chsem.h"
 1877              		.file 25 ".//ChibiOS//os/rt/include/chmtx.h"
 1878              		.file 26 ".//ChibiOS//os/rt/include/chqueues.h"
 1879              		.file 27 ".//ChibiOS//os/rt/include/chstreams.h"
 1880              		.file 28 ".//ChibiOS//os/hal/ports/STM32/STM32F4xx/stm32_dma.h"
 1881              		.file 29 ".//ChibiOS//os/hal/include/hal_ioblock.h"
 1882              		.file 30 ".//ChibiOS//os/hal/ports/STM32/LLD/GPIOv2/pal_lld.h"
 1883              		.file 31 ".//ChibiOS//os/hal/include/adc.h"
 1884              		.file 32 ".//ChibiOS//os/hal/ports/STM32/STM32F4xx/adc_lld.h"
 1885              		.file 33 ".//ChibiOS//os/hal/include/can.h"
 1886              		.file 34 ".//ChibiOS//os/hal/ports/STM32/LLD/can_lld.h"
 1887              		.file 35 ".//ChibiOS//os/hal/include/dac.h"
 1888              		.file 36 ".//ChibiOS//os/hal/ports/STM32/LLD/DACv1/dac_lld.h"
 1889              		.file 37 ".//ChibiOS//os/hal/include/ext.h"
 1890              		.file 38 ".//ChibiOS//os/hal/ports/STM32/LLD/ext_lld.h"
 1891              		.file 39 ".//ChibiOS//os/hal/include/gpt.h"
 1892              		.file 40 ".//ChibiOS//os/hal/ports/STM32/LLD/TIMv1/gpt_lld.h"
 1893              		.file 41 ".//ChibiOS//os/hal/ports/STM32/LLD/TIMv1/stm32_tim.h"
 1894              		.file 42 ".//ChibiOS//os/hal/include/i2c.h"
 1895              		.file 43 ".//ChibiOS//os/hal/ports/STM32/LLD/I2Cv1/i2c_lld.h"
 1896              		.file 44 ".//ChibiOS//os/hal/include/i2s.h"
 1897              		.file 45 ".//ChibiOS//os/hal/ports/STM32/LLD/SPIv1/i2s_lld.h"
 1898              		.file 46 ".//ChibiOS//os/hal/include/pwm.h"
 1899              		.file 47 ".//ChibiOS//os/hal/ports/STM32/LLD/TIMv1/pwm_lld.h"
 1900              		.file 48 ".//ChibiOS//os/hal/include/serial.h"
 1901              		.file 49 ".//ChibiOS//os/hal/ports/STM32/LLD/USARTv1/serial_lld.h"
 1902              		.file 50 ".//ChibiOS//os/hal/include/sdc.h"
 1903              		.file 51 ".//ChibiOS//os/hal/ports/STM32/LLD/sdc_lld.h"
 1904              		.file 52 ".//ChibiOS//os/hal/include/spi.h"
 1905              		.file 53 ".//ChibiOS//os/hal/ports/STM32/LLD/SPIv1/spi_lld.h"
 1906              		.file 54 ".//ChibiOS//os/hal/include/usb.h"
 1907              		.file 55 ".//ChibiOS//os/hal/ports/STM32/LLD/OTGv1/usb_lld.h"
 1908              		.file 56 ".//ChibiOS//os/hal/ports/STM32/LLD/OTGv1/stm32_otg.h"
 1909              		.file 57 ".//ChibiOS//os/various/shell.h"
ARM GAS  /tmp/ccHQwEQl.s 			page 36


 1910              		.file 58 "/usr/lib/gcc/arm-none-eabi/9.2.1/include/stdarg.h"
 1911              		.file 59 ".//ChibiOS//os/rt/include/chthreads.h"
 1912              		.file 60 ".//ChibiOS//os/rt/include/chdynamic.h"
 1913              		.file 61 "/usr/include/newlib/strings.h"
 1914              		.file 62 "/usr/include/newlib/string.h"
 1915              		.file 63 "<built-in>"