ARM GAS  /tmp/cci3bWBW.s 			page 1


   1              		.cpu cortex-m4
   2              		.eabi_attribute 27, 1
   3              		.eabi_attribute 28, 1
   4              		.eabi_attribute 20, 1
   5              		.eabi_attribute 21, 1
   6              		.eabi_attribute 23, 3
   7              		.eabi_attribute 24, 1
   8              		.eabi_attribute 25, 1
   9              		.eabi_attribute 26, 1
  10              		.eabi_attribute 30, 2
  11              		.eabi_attribute 34, 1
  12              		.eabi_attribute 18, 4
  13              		.file	"skel_user.c"
  14              		.text
  15              	.Ltext0:
  16              		.cfi_sections	.debug_frame
  17              		.section	.rodata.AsebaNative__system_reboot.cst4,"aM",%progbits,4
  18              		.align	2
  19              	.LC0:
  20 0000 00000000 		.word	__stack_chk_guard
  21              		.section	.text.AsebaNative__system_reboot,"ax",%progbits
  22              		.align	1
  23              		.p2align 4,,15
  24              		.global	AsebaNative__system_reboot
  25              		.arch armv7e-m
  26              		.syntax unified
  27              		.thumb
  28              		.thumb_func
  29              		.fpu fpv4-sp-d16
  30              		.type	AsebaNative__system_reboot, %function
  31              	AsebaNative__system_reboot:
  32              	.LVL0:
  33              	.LFB266:
  34              		.file 1 ".//src/aseba_vm/skel_user.c"
  35              		.loc 1 134 1 view -0
  36              		.cfi_startproc
  37              		@ Volatile: function does not return.
  38              		@ args = 0, pretend = 0, frame = 8
  39              		@ frame_needed = 0, uses_anonymous_args = 0
  40              		@ link register save eliminated.
  41              		.loc 1 134 1 is_stmt 0 view .LVU1
  42 0000 084B     		ldr	r3, .L6
  43 0002 82B0     		sub	sp, sp, #8
  44              		.cfi_def_cfa_offset 8
  45              		.loc 1 134 1 view .LVU2
  46 0004 1B68     		ldr	r3, [r3]
  47 0006 0193     		str	r3, [sp, #4]
  48 0008 4FF00003 		mov	r3,#0
  49              		.loc 1 135 5 is_stmt 1 view .LVU3
  50              		.loc 1 135 21 view .LVU4
  51              		.loc 1 136 5 view .LVU5
  52              	.LBB20:
  53              	.LBI20:
  54              		.file 2 ".//ChibiOS//os/ext/CMSIS/include/core_cm4.h"
  55              		.loc 2 1638 22 view .LVU6
  56              	.LBB21:
  57              		.loc 2 1640 3 view .LVU7
ARM GAS  /tmp/cci3bWBW.s 			page 2


  58              	.LBB22:
  59              	.LBI22:
  60              		.file 3 ".//ChibiOS//os/ext/CMSIS/include/core_cmInstr.h"
  61              		.loc 3 380 57 view .LVU8
  62              	.LBB23:
  63              		.loc 3 382 3 view .LVU9
  64              		.syntax unified
  65              	@ 382 ".//ChibiOS//os/ext/CMSIS/include/core_cmInstr.h" 1
  66 000c BFF34F8F 		dsb
  67              	@ 0 "" 2
  68              		.thumb
  69              		.syntax unified
  70              	.LBE23:
  71              	.LBE22:
  72              		.loc 2 1642 3 view .LVU10
  73              		.loc 2 1643 22 is_stmt 0 view .LVU11
  74 0010 0549     		ldr	r1, .L6+4
  75              		.loc 2 1643 56 view .LVU12
  76 0012 064B     		ldr	r3, .L6+8
  77              		.loc 2 1643 22 view .LVU13
  78 0014 CA68     		ldr	r2, [r1, #12]
  79              		.loc 2 1643 30 view .LVU14
  80 0016 02F4E062 		and	r2, r2, #1792
  81              		.loc 2 1643 56 view .LVU15
  82 001a 1343     		orrs	r3, r3, r2
  83              		.loc 2 1642 15 view .LVU16
  84 001c CB60     		str	r3, [r1, #12]
  85              		.loc 2 1645 3 is_stmt 1 view .LVU17
  86              	.LBB24:
  87              	.LBI24:
  88              		.loc 3 380 57 view .LVU18
  89              	.LBB25:
  90              		.loc 3 382 3 view .LVU19
  91              		.syntax unified
  92              	@ 382 ".//ChibiOS//os/ext/CMSIS/include/core_cmInstr.h" 1
  93 001e BFF34F8F 		dsb
  94              	@ 0 "" 2
  95              		.thumb
  96              		.syntax unified
  97              	.L2:
  98              	.LBE25:
  99              	.LBE24:
 100              		.loc 2 1646 3 view .LVU20
 101              		.loc 2 1646 11 view .LVU21
 102              		.loc 2 1646 8 view .LVU22
 103              		.loc 2 1646 3 view .LVU23
 104              		.loc 2 1646 11 view .LVU24
 105              		.loc 2 1646 8 view .LVU25
 106 0022 FEE7     		b	.L2
 107              	.L7:
 108              		.align	2
 109              	.L6:
 110 0024 00000000 		.word	.LC0
 111 0028 00ED00E0 		.word	-536810240
 112 002c 0400FA05 		.word	100270084
 113              	.LBE21:
 114              	.LBE20:
ARM GAS  /tmp/cci3bWBW.s 			page 3


 115              		.cfi_endproc
 116              	.LFE266:
 117              		.size	AsebaNative__system_reboot, .-AsebaNative__system_reboot
 118              		.section	.rodata.clear_all_leds.cst4,"aM",%progbits,4
 119              		.align	2
 120              	.LC1:
 121 0000 00000000 		.word	__stack_chk_guard
 122              		.section	.text.clear_all_leds,"ax",%progbits
 123              		.align	1
 124              		.p2align 4,,15
 125              		.global	clear_all_leds
 126              		.syntax unified
 127              		.thumb
 128              		.thumb_func
 129              		.fpu fpv4-sp-d16
 130              		.type	clear_all_leds, %function
 131              	clear_all_leds:
 132              	.LVL1:
 133              	.LFB271:
 134              		.loc 1 242 1 view -0
 135              		.cfi_startproc
 136              		@ args = 0, pretend = 0, frame = 8
 137              		@ frame_needed = 0, uses_anonymous_args = 0
 138              		.loc 1 242 1 is_stmt 0 view .LVU27
 139 0000 00B5     		push	{lr}
 140              		.cfi_def_cfa_offset 4
 141              		.cfi_offset 14, -4
 142 0002 0E4A     		ldr	r2, .L12
 143              		.loc 1 245 22 view .LVU28
 144 0004 0E4B     		ldr	r3, .L12+4
 145              		.loc 1 242 1 view .LVU29
 146 0006 83B0     		sub	sp, sp, #12
 147              		.cfi_def_cfa_offset 16
 148              		.loc 1 242 1 view .LVU30
 149 0008 1268     		ldr	r2, [r2]
 150 000a 0192     		str	r2, [sp, #4]
 151 000c 4FF00002 		mov	r2,#0
 152              		.loc 1 243 5 is_stmt 1 view .LVU31
 153              		.loc 1 243 21 view .LVU32
 154              		.loc 1 245 5 view .LVU33
 155              		.loc 1 246 5 view .LVU34
 156              		.loc 1 247 5 view .LVU35
 157              		.loc 1 248 5 view .LVU36
 158              		.loc 1 249 5 view .LVU37
 159              		.loc 1 250 5 view .LVU38
 160              		.loc 1 251 5 view .LVU39
 161              		.loc 1 252 5 view .LVU40
 162              		.loc 1 253 5 view .LVU41
 163              		.loc 1 254 5 view .LVU42
 164              		.loc 1 255 5 view .LVU43
 165              		.loc 1 256 5 view .LVU44
 166              		.loc 1 257 5 view .LVU45
 167              		.loc 1 258 5 view .LVU46
 168              		.loc 1 259 5 view .LVU47
 169              		.loc 1 260 5 view .LVU48
 170              		.loc 1 245 22 is_stmt 0 view .LVU49
 171 0010 0022     		movs	r2, #0
ARM GAS  /tmp/cci3bWBW.s 			page 4


 172              		.loc 1 248 32 view .LVU50
 173 0012 C3E91322 		strd	r2, r2, [r3, #76]
 174              		.loc 1 252 32 view .LVU51
 175 0016 C3E91522 		strd	r2, r2, [r3, #84]
 176              		.loc 1 256 32 view .LVU52
 177 001a C3E91722 		strd	r2, r2, [r3, #92]
 178              		.loc 1 245 22 view .LVU53
 179 001e A3F84A20 		strh	r2, [r3, #74]	@ movhi
 180              		.loc 1 258 31 view .LVU54
 181 0022 5A66     		str	r2, [r3, #100]
 182              		.loc 1 260 32 view .LVU55
 183 0024 A3F86820 		strh	r2, [r3, #104]	@ movhi
 184              		.loc 1 262 1 view .LVU56
 185 0028 044B     		ldr	r3, .L12
 186 002a 1A68     		ldr	r2, [r3]
 187 002c 019B     		ldr	r3, [sp, #4]
 188 002e 5A40     		eors	r2, r3, r2
 189 0030 02D1     		bne	.L11
 190 0032 03B0     		add	sp, sp, #12
 191              		.cfi_remember_state
 192              		.cfi_def_cfa_offset 4
 193              		@ sp needed
 194 0034 5DF804FB 		ldr	pc, [sp], #4
 195              	.L11:
 196              		.cfi_restore_state
 197 0038 FFF7FEFF 		bl	__stack_chk_fail
 198              	.LVL2:
 199              	.L13:
 200              		.loc 1 262 1 view .LVU57
 201              		.align	2
 202              	.L12:
 203 003c 00000000 		.word	.LC1
 204 0040 00000000 		.word	.LANCHOR0
 205              		.cfi_endproc
 206              	.LFE271:
 207              		.size	clear_all_leds, .-clear_all_leds
 208              		.section	.rodata.AsebaNative_settings_save.str1.4,"aMS",%progbits,1
 209              		.align	2
 210              	.LC2:
 211 0000 436F6E66 		.ascii	"Config save failed!\000"
 211      69672073 
 211      61766520 
 211      6661696C 
 211      65642100 
 212              		.section	.rodata.AsebaNative_settings_save.cst4,"aM",%progbits,4
 213              		.align	2
 214              	.LC3:
 215 0000 00000000 		.word	__stack_chk_guard
 216              		.section	.text.AsebaNative_settings_save,"ax",%progbits
 217              		.align	1
 218              		.p2align 4,,15
 219              		.global	AsebaNative_settings_save
 220              		.syntax unified
 221              		.thumb
 222              		.thumb_func
 223              		.fpu fpv4-sp-d16
 224              		.type	AsebaNative_settings_save, %function
ARM GAS  /tmp/cci3bWBW.s 			page 5


 225              	AsebaNative_settings_save:
 226              	.LVL3:
 227              	.LFB269:
 228              		.loc 1 197 1 is_stmt 1 view -0
 229              		.cfi_startproc
 230              		@ args = 0, pretend = 0, frame = 8
 231              		@ frame_needed = 0, uses_anonymous_args = 0
 232              		.loc 1 197 1 is_stmt 0 view .LVU59
 233 0000 30B5     		push	{r4, r5, lr}
 234              		.cfi_def_cfa_offset 12
 235              		.cfi_offset 4, -12
 236              		.cfi_offset 5, -8
 237              		.cfi_offset 14, -4
 238              		.loc 1 199 40 view .LVU60
 239 0002 1449     		ldr	r1, .L21
 240 0004 144C     		ldr	r4, .L21+4
 241              		.loc 1 197 1 view .LVU61
 242 0006 154B     		ldr	r3, .L21+8
 243              		.loc 1 203 5 view .LVU62
 244 0008 154A     		ldr	r2, .L21+12
 245              		.loc 1 199 40 view .LVU63
 246 000a 091B     		subs	r1, r1, r4
 247              		.loc 1 197 1 view .LVU64
 248 000c 83B0     		sub	sp, sp, #12
 249              		.cfi_def_cfa_offset 24
 250              		.loc 1 203 5 view .LVU65
 251 000e 8910     		asrs	r1, r1, #2
 252              		.loc 1 197 1 view .LVU66
 253 0010 0546     		mov	r5, r0
 254              		.loc 1 203 5 view .LVU67
 255 0012 2046     		mov	r0, r4
 256              	.LVL4:
 257              		.loc 1 197 1 view .LVU68
 258 0014 1B68     		ldr	r3, [r3]
 259 0016 0193     		str	r3, [sp, #4]
 260 0018 4FF00003 		mov	r3,#0
 261              		.loc 1 198 5 is_stmt 1 view .LVU69
 262              		.loc 1 199 5 view .LVU70
 263              	.LVL5:
 264              		.loc 1 200 5 view .LVU71
 265              		.loc 1 203 5 view .LVU72
 266 001c FFF7FEFF 		bl	config_save
 267              	.LVL6:
 268              		.loc 1 206 5 view .LVU73
 269              		.loc 1 206 15 is_stmt 0 view .LVU74
 270 0020 0F48     		ldr	r0, .L21+12
 271 0022 2146     		mov	r1, r4
 272 0024 FFF7FEFF 		bl	config_load
 273              	.LVL7:
 274              		.loc 1 208 5 is_stmt 1 view .LVU75
 275              		.loc 1 209 9 is_stmt 0 view .LVU76
 276 0028 0C4B     		ldr	r3, .L21+8
 277              		.loc 1 208 8 view .LVU77
 278 002a 28B1     		cbz	r0, .L20
 279              		.loc 1 211 1 view .LVU78
 280 002c 1A68     		ldr	r2, [r3]
 281 002e 019B     		ldr	r3, [sp, #4]
ARM GAS  /tmp/cci3bWBW.s 			page 6


 282 0030 5A40     		eors	r2, r3, r2
 283 0032 0CD1     		bne	.L19
 284 0034 03B0     		add	sp, sp, #12
 285              		.cfi_remember_state
 286              		.cfi_def_cfa_offset 12
 287              		@ sp needed
 288 0036 30BD     		pop	{r4, r5, pc}
 289              	.LVL8:
 290              	.L20:
 291              		.cfi_restore_state
 292              		.loc 1 209 9 is_stmt 1 view .LVU79
 293 0038 1A68     		ldr	r2, [r3]
 294 003a 019B     		ldr	r3, [sp, #4]
 295 003c 5A40     		eors	r2, r3, r2
 296 003e 06D1     		bne	.L19
 297 0040 0849     		ldr	r1, .L21+16
 298 0042 2846     		mov	r0, r5
 299              	.LVL9:
 300              		.loc 1 211 1 is_stmt 0 view .LVU80
 301 0044 03B0     		add	sp, sp, #12
 302              		.cfi_remember_state
 303              		.cfi_def_cfa_offset 12
 304              		@ sp needed
 305 0046 BDE83040 		pop	{r4, r5, lr}
 306              		.cfi_restore 14
 307              		.cfi_restore 5
 308              		.cfi_restore 4
 309              		.cfi_def_cfa_offset 0
 310              	.LVL10:
 311              		.loc 1 209 9 view .LVU81
 312 004a FFF7FEBF 		b	AsebaVMEmitNodeSpecificError
 313              	.LVL11:
 314              	.L19:
 315              		.cfi_restore_state
 316              		.loc 1 211 1 view .LVU82
 317 004e FFF7FEFF 		bl	__stack_chk_fail
 318              	.LVL12:
 319              	.L22:
 320              		.loc 1 211 1 view .LVU83
 321 0052 00BF     		.align	2
 322              	.L21:
 323 0054 00000000 		.word	_config_end
 324 0058 00000000 		.word	_config_start
 325 005c 00000000 		.word	.LC3
 326 0060 00000000 		.word	parameter_root
 327 0064 00000000 		.word	.LC2
 328              		.cfi_endproc
 329              	.LFE269:
 330              		.size	AsebaNative_settings_save, .-AsebaNative_settings_save
 331              		.section	.rodata.AsebaNative_settings_erase.cst4,"aM",%progbits,4
 332              		.align	2
 333              	.LC4:
 334 0000 00000000 		.word	__stack_chk_guard
 335              		.section	.text.AsebaNative_settings_erase,"ax",%progbits
 336              		.align	1
 337              		.p2align 4,,15
 338              		.global	AsebaNative_settings_erase
ARM GAS  /tmp/cci3bWBW.s 			page 7


 339              		.syntax unified
 340              		.thumb
 341              		.thumb_func
 342              		.fpu fpv4-sp-d16
 343              		.type	AsebaNative_settings_erase, %function
 344              	AsebaNative_settings_erase:
 345              	.LVL13:
 346              	.LFB270:
 347              		.loc 1 224 1 is_stmt 1 view -0
 348              		.cfi_startproc
 349              		@ args = 0, pretend = 0, frame = 8
 350              		@ frame_needed = 0, uses_anonymous_args = 0
 351              		.loc 1 224 1 is_stmt 0 view .LVU85
 352 0000 00B5     		push	{lr}
 353              		.cfi_def_cfa_offset 4
 354              		.cfi_offset 14, -4
 355 0002 094B     		ldr	r3, .L28
 356 0004 83B0     		sub	sp, sp, #12
 357              		.cfi_def_cfa_offset 16
 358              		.loc 1 224 1 view .LVU86
 359 0006 1B68     		ldr	r3, [r3]
 360 0008 0193     		str	r3, [sp, #4]
 361 000a 4FF00003 		mov	r3,#0
 362              		.loc 1 225 5 is_stmt 1 view .LVU87
 363              		.loc 1 225 21 view .LVU88
 364              		.loc 1 227 5 view .LVU89
 365              		.loc 1 229 5 view .LVU90
 366 000e 064B     		ldr	r3, .L28
 367 0010 1A68     		ldr	r2, [r3]
 368 0012 019B     		ldr	r3, [sp, #4]
 369 0014 5A40     		eors	r2, r3, r2
 370 0016 05D1     		bne	.L27
 371 0018 0448     		ldr	r0, .L28+4
 372              	.LVL14:
 373              		.loc 1 230 1 is_stmt 0 view .LVU91
 374 001a 03B0     		add	sp, sp, #12
 375              		.cfi_remember_state
 376              		.cfi_def_cfa_offset 4
 377              		@ sp needed
 378 001c 5DF804EB 		ldr	lr, [sp], #4
 379              		.cfi_restore 14
 380              		.cfi_def_cfa_offset 0
 381              		.loc 1 229 5 view .LVU92
 382 0020 FFF7FEBF 		b	config_erase
 383              	.LVL15:
 384              	.L27:
 385              		.cfi_restore_state
 386              		.loc 1 229 5 view .LVU93
 387 0024 FFF7FEFF 		bl	__stack_chk_fail
 388              	.LVL16:
 389              	.L29:
 390              		.loc 1 229 5 view .LVU94
 391              		.align	2
 392              	.L28:
 393 0028 00000000 		.word	.LC4
 394 002c 00000000 		.word	_config_start
 395              		.cfi_endproc
ARM GAS  /tmp/cci3bWBW.s 			page 8


 396              	.LFE270:
 397              		.size	AsebaNative_settings_erase, .-AsebaNative_settings_erase
 398              		.section	.rodata.AsebaNative__system_settings_write.str1.4,"aMS",%progbits,1
 399              		.align	2
 400              	.LC5:
 401 0000 496E7661 		.ascii	"Invalid settings address.\000"
 401      6C696420 
 401      73657474 
 401      696E6773 
 401      20616464 
 402              		.section	.rodata.AsebaNative__system_settings_write.cst4,"aM",%progbits,4
 403              		.align	2
 404              	.LC6:
 405 0000 00000000 		.word	__stack_chk_guard
 406              		.section	.text.AsebaNative__system_settings_write,"ax",%progbits
 407              		.align	1
 408              		.p2align 4,,15
 409              		.syntax unified
 410              		.thumb
 411              		.thumb_func
 412              		.fpu fpv4-sp-d16
 413              		.type	AsebaNative__system_settings_write, %function
 414              	AsebaNative__system_settings_write:
 415              	.LVL17:
 416              	.LFB268:
 417              		.loc 1 173 1 is_stmt 1 view -0
 418              		.cfi_startproc
 419              		@ args = 0, pretend = 0, frame = 8
 420              		@ frame_needed = 0, uses_anonymous_args = 0
 421              		.loc 1 173 1 is_stmt 0 view .LVU96
 422 0000 70B5     		push	{r4, r5, r6, lr}
 423              		.cfi_def_cfa_offset 16
 424              		.cfi_offset 4, -16
 425              		.cfi_offset 5, -12
 426              		.cfi_offset 6, -8
 427              		.cfi_offset 14, -4
 428 0002 1A4A     		ldr	r2, .L37
 429              	.LBB26:
 430              	.LBB27:
 431              		.file 4 ".//aseba/vm/natives.h"
 432              		.loc 4 90 21 view .LVU97
 433 0004 B0F91C40 		ldrsh	r4, [r0, #28]
 434              	.LBE27:
 435              	.LBE26:
 436              		.loc 1 174 36 view .LVU98
 437 0008 4669     		ldr	r6, [r0, #20]
 438              		.loc 1 174 24 view .LVU99
 439 000a C568     		ldr	r5, [r0, #12]
 440              		.loc 1 178 9 view .LVU100
 441 000c 174B     		ldr	r3, .L37
 442              		.loc 1 173 1 view .LVU101
 443 000e 82B0     		sub	sp, sp, #8
 444              		.cfi_def_cfa_offset 24
 445              		.loc 1 173 1 view .LVU102
 446 0010 1268     		ldr	r2, [r2]
 447 0012 0192     		str	r2, [sp, #4]
 448 0014 4FF00002 		mov	r2,#0
ARM GAS  /tmp/cci3bWBW.s 			page 9


 449              		.loc 1 174 5 is_stmt 1 view .LVU103
 450              	.LBB29:
 451              	.LBI26:
 452              		.loc 4 88 22 view .LVU104
 453              	.LVL18:
 454              	.LBB28:
 455              		.loc 4 90 2 view .LVU105
 456              		.loc 4 90 25 is_stmt 0 view .LVU106
 457 0018 A2B2     		uxth	r2, r4
 458 001a 511E     		subs	r1, r2, #1
 459 001c 09B2     		sxth	r1, r1
 460 001e 8183     		strh	r1, [r0, #28]	@ movhi
 461              	.LBE28:
 462              	.LBE29:
 463              		.loc 1 174 35 view .LVU107
 464 0020 36F91440 		ldrsh	r4, [r6, r4, lsl #1]
 465              		.loc 1 174 12 view .LVU108
 466 0024 35F81440 		ldrh	r4, [r5, r4, lsl #1]
 467              	.LVL19:
 468              		.loc 1 175 5 is_stmt 1 view .LVU109
 469              	.LBB30:
 470              	.LBI30:
 471              		.loc 4 88 22 view .LVU110
 472              	.LBB31:
 473              		.loc 4 90 2 view .LVU111
 474              		.loc 4 90 25 is_stmt 0 view .LVU112
 475 0028 023A     		subs	r2, r2, #2
 476              	.LBE31:
 477              	.LBE30:
 478              		.loc 1 177 8 view .LVU113
 479 002a 1F2C     		cmp	r4, #31
 480              	.LBB33:
 481              	.LBB32:
 482              		.loc 4 90 25 view .LVU114
 483 002c 8283     		strh	r2, [r0, #28]	@ movhi
 484              	.LVL20:
 485              		.loc 4 90 25 view .LVU115
 486              	.LBE32:
 487              	.LBE33:
 488              		.loc 1 177 5 is_stmt 1 view .LVU116
 489              		.loc 1 177 8 is_stmt 0 view .LVU117
 490 002e 11D8     		bhi	.L31
 491              		.loc 1 178 9 is_stmt 1 view .LVU118
 492 0030 1A68     		ldr	r2, [r3]
 493 0032 019B     		ldr	r3, [sp, #4]
 494 0034 5A40     		eors	r2, r3, r2
 495 0036 17D1     		bne	.L36
 496              		.loc 1 175 33 is_stmt 0 view .LVU119
 497 0038 36F91130 		ldrsh	r3, [r6, r1, lsl #1]
 498              		.loc 1 178 9 view .LVU120
 499 003c 0C48     		ldr	r0, .L37+4
 500              	.LVL21:
 501              		.loc 1 178 9 view .LVU121
 502 003e 35F81310 		ldrh	r1, [r5, r3, lsl #1]
 503              	.LVL22:
 504              		.loc 1 178 9 view .LVU122
 505 0042 04EB4404 		add	r4, r4, r4, lsl #1
ARM GAS  /tmp/cci3bWBW.s 			page 10


 506              	.LVL23:
 507              		.loc 1 178 9 view .LVU123
 508 0046 00EBC400 		add	r0, r0, r4, lsl #3
 509              		.loc 1 182 1 view .LVU124
 510 004a 02B0     		add	sp, sp, #8
 511              		.cfi_remember_state
 512              		.cfi_def_cfa_offset 16
 513              		@ sp needed
 514 004c BDE87040 		pop	{r4, r5, r6, lr}
 515              		.cfi_restore 14
 516              		.cfi_restore 6
 517              		.cfi_restore 5
 518              		.cfi_restore 4
 519              		.cfi_def_cfa_offset 0
 520              		.loc 1 178 9 view .LVU125
 521 0050 FFF7FEBF 		b	parameter_integer_set
 522              	.LVL24:
 523              	.L31:
 524              		.cfi_restore_state
 525              		.loc 1 180 9 is_stmt 1 view .LVU126
 526 0054 1A68     		ldr	r2, [r3]
 527 0056 019B     		ldr	r3, [sp, #4]
 528 0058 5A40     		eors	r2, r3, r2
 529 005a 05D1     		bne	.L36
 530 005c 0549     		ldr	r1, .L37+8
 531              	.LVL25:
 532              		.loc 1 182 1 is_stmt 0 view .LVU127
 533 005e 02B0     		add	sp, sp, #8
 534              		.cfi_remember_state
 535              		.cfi_def_cfa_offset 16
 536              		@ sp needed
 537 0060 BDE87040 		pop	{r4, r5, r6, lr}
 538              		.cfi_restore 14
 539              		.cfi_restore 6
 540              		.cfi_restore 5
 541              		.cfi_restore 4
 542              		.cfi_def_cfa_offset 0
 543              	.LVL26:
 544              		.loc 1 180 9 view .LVU128
 545 0064 FFF7FEBF 		b	AsebaVMEmitNodeSpecificError
 546              	.LVL27:
 547              	.L36:
 548              		.cfi_restore_state
 549              		.loc 1 180 9 view .LVU129
 550 0068 FFF7FEFF 		bl	__stack_chk_fail
 551              	.LVL28:
 552              	.L38:
 553              		.loc 1 180 9 view .LVU130
 554              		.align	2
 555              	.L37:
 556 006c 00000000 		.word	.LC6
 557 0070 00000000 		.word	.LANCHOR1
 558 0074 00000000 		.word	.LC5
 559              		.cfi_endproc
 560              	.LFE268:
 561              		.size	AsebaNative__system_settings_write, .-AsebaNative__system_settings_write
 562              		.section	.rodata.AsebaNative__system_settings_read.cst4,"aM",%progbits,4
ARM GAS  /tmp/cci3bWBW.s 			page 11


 563              		.align	2
 564              	.LC7:
 565 0000 00000000 		.word	__stack_chk_guard
 566              		.section	.text.AsebaNative__system_settings_read,"ax",%progbits
 567              		.align	1
 568              		.p2align 4,,15
 569              		.syntax unified
 570              		.thumb
 571              		.thumb_func
 572              		.fpu fpv4-sp-d16
 573              		.type	AsebaNative__system_settings_read, %function
 574              	AsebaNative__system_settings_read:
 575              	.LVL29:
 576              	.LFB267:
 577              		.loc 1 151 1 is_stmt 1 view -0
 578              		.cfi_startproc
 579              		@ args = 0, pretend = 0, frame = 8
 580              		@ frame_needed = 0, uses_anonymous_args = 0
 581              		.loc 1 151 1 is_stmt 0 view .LVU132
 582 0000 70B5     		push	{r4, r5, r6, lr}
 583              		.cfi_def_cfa_offset 16
 584              		.cfi_offset 4, -16
 585              		.cfi_offset 5, -12
 586              		.cfi_offset 6, -8
 587              		.cfi_offset 14, -4
 588 0002 1C4B     		ldr	r3, .L46
 589              	.LBB34:
 590              	.LBB35:
 591              		.loc 4 90 21 view .LVU133
 592 0004 B0F91C10 		ldrsh	r1, [r0, #28]
 593              	.LBE35:
 594              	.LBE34:
 595              		.loc 1 152 36 view .LVU134
 596 0008 4569     		ldr	r5, [r0, #20]
 597              		.loc 1 152 24 view .LVU135
 598 000a C668     		ldr	r6, [r0, #12]
 599              		.loc 1 151 1 view .LVU136
 600 000c 82B0     		sub	sp, sp, #8
 601              		.cfi_def_cfa_offset 24
 602              		.loc 1 151 1 view .LVU137
 603 000e 1B68     		ldr	r3, [r3]
 604 0010 0193     		str	r3, [sp, #4]
 605 0012 4FF00003 		mov	r3,#0
 606              		.loc 1 152 5 is_stmt 1 view .LVU138
 607              	.LBB37:
 608              	.LBI34:
 609              		.loc 4 88 22 view .LVU139
 610              	.LVL30:
 611              	.LBB36:
 612              		.loc 4 90 2 view .LVU140
 613              		.loc 4 90 25 is_stmt 0 view .LVU141
 614 0016 8BB2     		uxth	r3, r1
 615 0018 5A1E     		subs	r2, r3, #1
 616 001a 12B2     		sxth	r2, r2
 617 001c 8283     		strh	r2, [r0, #28]	@ movhi
 618              	.LBE36:
 619              	.LBE37:
ARM GAS  /tmp/cci3bWBW.s 			page 12


 620              		.loc 1 152 35 view .LVU142
 621 001e 35F91110 		ldrsh	r1, [r5, r1, lsl #1]
 622              		.loc 1 152 12 view .LVU143
 623 0022 36F81110 		ldrh	r1, [r6, r1, lsl #1]
 624              	.LVL31:
 625              		.loc 1 153 5 is_stmt 1 view .LVU144
 626              	.LBB38:
 627              	.LBI38:
 628              		.loc 4 88 22 view .LVU145
 629              	.LBB39:
 630              		.loc 4 90 2 view .LVU146
 631              		.loc 4 90 25 is_stmt 0 view .LVU147
 632 0026 023B     		subs	r3, r3, #2
 633              	.LBE39:
 634              	.LBE38:
 635              		.loc 1 154 8 view .LVU148
 636 0028 1F29     		cmp	r1, #31
 637              	.LBB42:
 638              	.LBB40:
 639              		.loc 4 90 25 view .LVU149
 640 002a 8383     		strh	r3, [r0, #28]	@ movhi
 641              	.LVL32:
 642              		.loc 4 90 25 view .LVU150
 643              	.LBE40:
 644              	.LBE42:
 645              		.loc 1 154 5 is_stmt 1 view .LVU151
 646              		.loc 1 154 8 is_stmt 0 view .LVU152
 647 002c 14D8     		bhi	.L40
 648 002e 0446     		mov	r4, r0
 649              		.loc 1 155 34 view .LVU153
 650 0030 1148     		ldr	r0, .L46+4
 651              	.LVL33:
 652              	.LBB43:
 653              	.LBB41:
 654              		.loc 4 90 18 view .LVU154
 655 0032 35F91250 		ldrsh	r5, [r5, r2, lsl #1]
 656              	.LVL34:
 657              		.loc 4 90 18 view .LVU155
 658              	.LBE41:
 659              	.LBE43:
 660              		.loc 1 155 9 is_stmt 1 view .LVU156
 661              		.loc 1 155 34 is_stmt 0 view .LVU157
 662 0036 01EB4101 		add	r1, r1, r1, lsl #1
 663              	.LVL35:
 664              		.loc 1 155 34 view .LVU158
 665 003a 00EBC100 		add	r0, r0, r1, lsl #3
 666 003e FFF7FEFF 		bl	parameter_integer_get
 667              	.LVL36:
 668              		.loc 1 155 22 view .LVU159
 669 0042 ADB2     		uxth	r5, r5
 670              		.loc 1 155 32 view .LVU160
 671 0044 E368     		ldr	r3, [r4, #12]
 672 0046 23F81500 		strh	r0, [r3, r5, lsl #1]	@ movhi
 673              		.loc 1 159 1 view .LVU161
 674 004a 0A4B     		ldr	r3, .L46
 675 004c 1A68     		ldr	r2, [r3]
 676 004e 019B     		ldr	r3, [sp, #4]
ARM GAS  /tmp/cci3bWBW.s 			page 13


 677 0050 5A40     		eors	r2, r3, r2
 678 0052 0CD1     		bne	.L44
 679 0054 02B0     		add	sp, sp, #8
 680              		.cfi_remember_state
 681              		.cfi_def_cfa_offset 16
 682              		@ sp needed
 683 0056 70BD     		pop	{r4, r5, r6, pc}
 684              	.LVL37:
 685              	.L40:
 686              		.cfi_restore_state
 687              		.loc 1 157 9 is_stmt 1 view .LVU162
 688 0058 064B     		ldr	r3, .L46
 689 005a 1A68     		ldr	r2, [r3]
 690 005c 019B     		ldr	r3, [sp, #4]
 691 005e 5A40     		eors	r2, r3, r2
 692              	.LVL38:
 693              		.loc 1 157 9 is_stmt 0 view .LVU163
 694 0060 05D1     		bne	.L44
 695 0062 0649     		ldr	r1, .L46+8
 696              	.LVL39:
 697              		.loc 1 159 1 view .LVU164
 698 0064 02B0     		add	sp, sp, #8
 699              		.cfi_remember_state
 700              		.cfi_def_cfa_offset 16
 701              		@ sp needed
 702 0066 BDE87040 		pop	{r4, r5, r6, lr}
 703              		.cfi_restore 14
 704              		.cfi_restore 6
 705              		.cfi_restore 5
 706              		.cfi_restore 4
 707              		.cfi_def_cfa_offset 0
 708              		.loc 1 157 9 view .LVU165
 709 006a FFF7FEBF 		b	AsebaVMEmitNodeSpecificError
 710              	.LVL40:
 711              	.L44:
 712              		.cfi_restore_state
 713              		.loc 1 159 1 view .LVU166
 714 006e FFF7FEFF 		bl	__stack_chk_fail
 715              	.LVL41:
 716              	.L47:
 717 0072 00BF     		.align	2
 718              	.L46:
 719 0074 00000000 		.word	.LC7
 720 0078 00000000 		.word	.LANCHOR1
 721 007c 00000000 		.word	.LC5
 722              		.cfi_endproc
 723              	.LFE267:
 724              		.size	AsebaNative__system_settings_read, .-AsebaNative__system_settings_read
 725              		.section	.rodata.aseba_variables_init.str1.4,"aMS",%progbits,1
 726              		.align	2
 727              	.LC8:
 728 0000 256400   		.ascii	"%d\000"
 729              		.section	.rodata.aseba_variables_init.cst4,"aM",%progbits,4
 730              		.align	2
 731              	.LC9:
 732 0000 00000000 		.word	__stack_chk_guard
 733              		.section	.text.aseba_variables_init,"ax",%progbits
ARM GAS  /tmp/cci3bWBW.s 			page 14


 734              		.align	1
 735              		.p2align 4,,15
 736              		.global	aseba_variables_init
 737              		.syntax unified
 738              		.thumb
 739              		.thumb_func
 740              		.fpu fpv4-sp-d16
 741              		.type	aseba_variables_init, %function
 742              	aseba_variables_init:
 743              	.LVL42:
 744              	.LFB260:
 745              		.loc 1 57 1 is_stmt 1 view -0
 746              		.cfi_startproc
 747              		@ args = 0, pretend = 0, frame = 8
 748              		@ frame_needed = 0, uses_anonymous_args = 0
 749              		.loc 1 57 1 is_stmt 0 view .LVU168
 750 0000 2DE9F047 		push	{r4, r5, r6, r7, r8, r9, r10, lr}
 751              		.cfi_def_cfa_offset 32
 752              		.cfi_offset 4, -32
 753              		.cfi_offset 5, -28
 754              		.cfi_offset 6, -24
 755              		.cfi_offset 7, -20
 756              		.cfi_offset 8, -16
 757              		.cfi_offset 9, -12
 758              		.cfi_offset 10, -8
 759              		.cfi_offset 14, -4
 760              		.loc 1 59 5 view .LVU169
 761 0004 1B4B     		ldr	r3, .L54
 762              		.loc 1 57 1 view .LVU170
 763 0006 1C4A     		ldr	r2, .L54+4
 764 0008 1C4C     		ldr	r4, .L54+8
 765 000a 1D4F     		ldr	r7, .L54+12
 766              		.loc 1 70 9 view .LVU171
 767 000c DFF874A0 		ldr	r10, .L54+16
 768              		.loc 1 57 1 view .LVU172
 769 0010 82B0     		sub	sp, sp, #8
 770              		.cfi_def_cfa_offset 40
 771              		.loc 1 57 1 view .LVU173
 772 0012 1268     		ldr	r2, [r2]
 773 0014 0192     		str	r2, [sp, #4]
 774 0016 4FF00002 		mov	r2,#0
 775              		.loc 1 59 5 is_stmt 1 view .LVU174
 776 001a 0021     		movs	r1, #0
 777 001c 40F27622 		movw	r2, #630
 778              		.loc 1 57 1 is_stmt 0 view .LVU175
 779 0020 8046     		mov	r8, r0
 780              		.loc 1 59 5 view .LVU176
 781 0022 1846     		mov	r0, r3
 782              	.LVL43:
 783              		.loc 1 59 5 view .LVU177
 784 0024 FFF7FEFF 		bl	memset
 785              	.LVL44:
 786              		.loc 1 61 5 is_stmt 1 view .LVU178
 787              		.loc 1 62 5 view .LVU179
 788              		.loc 1 63 5 view .LVU180
 789              		.loc 1 62 30 is_stmt 0 view .LVU181
 790 0028 4FF48031 		mov	r1, #65536
ARM GAS  /tmp/cci3bWBW.s 			page 15


 791              		.loc 1 61 27 view .LVU182
 792 002c 0022     		movs	r2, #0
 793              		.loc 1 62 30 view .LVU183
 794 002e 4164     		str	r1, [r0, #68]
 795              		.loc 1 61 27 view .LVU184
 796 0030 A0F84820 		strh	r2, [r0, #72]	@ movhi
 797              		.loc 1 66 5 is_stmt 1 view .LVU185
 798              		.loc 1 69 5 view .LVU186
 799              	.LVL45:
 800              		.loc 1 69 34 view .LVU187
 801 0034 A4F59B79 		sub	r9, r4, #310
 802              		.loc 1 69 12 is_stmt 0 view .LVU188
 803 0038 1F26     		movs	r6, #31
 804              	.LVL46:
 805              	.L49:
 806              		.loc 1 70 9 is_stmt 1 discriminator 3 view .LVU189
 807 003a 3246     		mov	r2, r6
 808 003c 5146     		mov	r1, r10
 809 003e 2046     		mov	r0, r4
 810 0040 FFF7FEFF 		bl	sprintf
 811              	.LVL47:
 812              		.loc 1 71 9 discriminator 3 view .LVU190
 813 0044 2246     		mov	r2, r4
 814 0046 3846     		mov	r0, r7
 815 0048 0023     		movs	r3, #0
 816 004a 4146     		mov	r1, r8
 817 004c FFF7FEFF 		bl	parameter_integer_declare_with_default
 818              	.LVL48:
 819              		.loc 1 69 42 discriminator 3 view .LVU191
 820              		.loc 1 69 5 is_stmt 0 discriminator 3 view .LVU192
 821 0050 4C45     		cmp	r4, r9
 822              		.loc 1 69 43 discriminator 3 view .LVU193
 823 0052 06F1FF36 		add	r6, r6, #-1
 824              	.LVL49:
 825              		.loc 1 69 34 is_stmt 1 discriminator 3 view .LVU194
 826 0056 A7F11807 		sub	r7, r7, #24
 827              		.loc 1 69 5 is_stmt 0 discriminator 3 view .LVU195
 828 005a A4F10A04 		sub	r4, r4, #10
 829 005e ECD1     		bne	.L49
 830              		.loc 1 76 1 view .LVU196
 831 0060 054B     		ldr	r3, .L54+4
 832 0062 1A68     		ldr	r2, [r3]
 833 0064 019B     		ldr	r3, [sp, #4]
 834 0066 5A40     		eors	r2, r3, r2
 835 0068 02D1     		bne	.L53
 836 006a 02B0     		add	sp, sp, #8
 837              		.cfi_remember_state
 838              		.cfi_def_cfa_offset 32
 839              		@ sp needed
 840 006c BDE8F087 		pop	{r4, r5, r6, r7, r8, r9, r10, pc}
 841              	.LVL50:
 842              	.L53:
 843              		.cfi_restore_state
 844              		.loc 1 76 1 view .LVU197
 845 0070 FFF7FEFF 		bl	__stack_chk_fail
 846              	.LVL51:
 847              	.L55:
ARM GAS  /tmp/cci3bWBW.s 			page 16


 848              		.align	2
 849              	.L54:
 850 0074 00000000 		.word	.LANCHOR0
 851 0078 00000000 		.word	.LC9
 852 007c 36010000 		.word	.LANCHOR2+310
 853 0080 E8020000 		.word	.LANCHOR1+744
 854 0084 00000000 		.word	.LC8
 855              		.cfi_endproc
 856              	.LFE260:
 857              		.size	aseba_variables_init, .-aseba_variables_init
 858              		.section	.rodata.aseba_read_variables_from_system.cst4,"aM",%progbits,4
 859              		.align	2
 860              	.LC10:
 861 0000 00000000 		.word	__stack_chk_guard
 862              		.section	.text.aseba_read_variables_from_system,"ax",%progbits
 863              		.align	1
 864              		.p2align 4,,15
 865              		.global	aseba_read_variables_from_system
 866              		.syntax unified
 867              		.thumb
 868              		.thumb_func
 869              		.fpu fpv4-sp-d16
 870              		.type	aseba_read_variables_from_system, %function
 871              	aseba_read_variables_from_system:
 872              	.LVL52:
 873              	.LFB261:
 874              		.loc 1 79 1 is_stmt 1 view -0
 875              		.cfi_startproc
 876              		@ args = 0, pretend = 0, frame = 8
 877              		@ frame_needed = 0, uses_anonymous_args = 0
 878              		.loc 1 79 1 is_stmt 0 view .LVU199
 879 0000 00B5     		push	{lr}
 880              		.cfi_def_cfa_offset 4
 881              		.cfi_offset 14, -4
 882              		.loc 1 80 20 view .LVU200
 883 0002 094B     		ldr	r3, .L60
 884              		.loc 1 79 1 view .LVU201
 885 0004 0949     		ldr	r1, .L60+4
 886              		.loc 1 80 20 view .LVU202
 887 0006 0288     		ldrh	r2, [r0]
 888              		.loc 1 79 1 view .LVU203
 889 0008 83B0     		sub	sp, sp, #12
 890              		.cfi_def_cfa_offset 16
 891              		.loc 1 79 1 view .LVU204
 892 000a 0968     		ldr	r1, [r1]
 893 000c 0191     		str	r1, [sp, #4]
 894 000e 4FF00001 		mov	r1,#0
 895              		.loc 1 80 5 is_stmt 1 view .LVU205
 896              		.loc 1 80 20 is_stmt 0 view .LVU206
 897 0012 1A80     		strh	r2, [r3]	@ movhi
 898              		.loc 1 81 1 view .LVU207
 899 0014 054B     		ldr	r3, .L60+4
 900 0016 1A68     		ldr	r2, [r3]
 901 0018 019B     		ldr	r3, [sp, #4]
 902 001a 5A40     		eors	r2, r3, r2
 903 001c 02D1     		bne	.L59
 904 001e 03B0     		add	sp, sp, #12
ARM GAS  /tmp/cci3bWBW.s 			page 17


 905              		.cfi_remember_state
 906              		.cfi_def_cfa_offset 4
 907              		@ sp needed
 908 0020 5DF804FB 		ldr	pc, [sp], #4
 909              	.L59:
 910              		.cfi_restore_state
 911 0024 FFF7FEFF 		bl	__stack_chk_fail
 912              	.LVL53:
 913              	.L61:
 914              		.loc 1 81 1 view .LVU208
 915              		.align	2
 916              	.L60:
 917 0028 00000000 		.word	.LANCHOR0
 918 002c 00000000 		.word	.LC10
 919              		.cfi_endproc
 920              	.LFE261:
 921              		.size	aseba_read_variables_from_system, .-aseba_read_variables_from_system
 922              		.section	.rodata.imu_cb.cst4,"aM",%progbits,4
 923              		.align	2
 924              	.LC11:
 925 0000 00000000 		.word	__stack_chk_guard
 926              		.section	.text.imu_cb,"ax",%progbits
 927              		.align	1
 928              		.p2align 4,,15
 929              		.global	imu_cb
 930              		.syntax unified
 931              		.thumb
 932              		.thumb_func
 933              		.fpu fpv4-sp-d16
 934              		.type	imu_cb, %function
 935              	imu_cb:
 936              	.LFB263:
 937              		.loc 1 93 1 is_stmt 1 view -0
 938              		.cfi_startproc
 939              		@ args = 0, pretend = 0, frame = 8
 940              		@ frame_needed = 0, uses_anonymous_args = 0
 941 0000 10B5     		push	{r4, lr}
 942              		.cfi_def_cfa_offset 8
 943              		.cfi_offset 4, -8
 944              		.cfi_offset 14, -4
 945 0002 2DED028B 		vpush.64	{d8}
 946              		.cfi_def_cfa_offset 16
 947              		.cfi_offset 80, -16
 948              		.cfi_offset 81, -12
 949 0006 254B     		ldr	r3, .L66
 950              		.loc 1 94 46 is_stmt 0 view .LVU210
 951 0008 9FED258A 		vldr.32	s16, .L66+4
 952              		.loc 1 94 29 view .LVU211
 953 000c 254C     		ldr	r4, .L66+8
 954              		.loc 1 93 1 view .LVU212
 955 000e 82B0     		sub	sp, sp, #8
 956              		.cfi_def_cfa_offset 24
 957              		.loc 1 94 48 view .LVU213
 958 0010 0020     		movs	r0, #0
 959              		.loc 1 93 1 view .LVU214
 960 0012 1B68     		ldr	r3, [r3]
 961 0014 0193     		str	r3, [sp, #4]
ARM GAS  /tmp/cci3bWBW.s 			page 18


 962 0016 4FF00003 		mov	r3,#0
 963              		.loc 1 94 5 is_stmt 1 view .LVU215
 964              		.loc 1 94 48 is_stmt 0 view .LVU216
 965 001a FFF7FEFF 		bl	get_acceleration
 966              	.LVL54:
 967              		.loc 1 94 46 view .LVU217
 968 001e 20EE080A 		vmul.f32	s0, s0, s16
 969              		.loc 1 95 48 view .LVU218
 970 0022 0120     		movs	r0, #1
 971              		.loc 1 94 31 view .LVU219
 972 0024 BDEEC00A 		vcvt.s32.f32	s0, s0
 973 0028 10EE103A 		vmov	r3, s0	@ int
 974 002c A4F86A30 		strh	r3, [r4, #106]	@ movhi
 975              		.loc 1 95 5 is_stmt 1 view .LVU220
 976              		.loc 1 95 48 is_stmt 0 view .LVU221
 977 0030 FFF7FEFF 		bl	get_acceleration
 978              	.LVL55:
 979              		.loc 1 95 46 view .LVU222
 980 0034 20EE080A 		vmul.f32	s0, s0, s16
 981              		.loc 1 96 48 view .LVU223
 982 0038 0220     		movs	r0, #2
 983              		.loc 1 95 31 view .LVU224
 984 003a BDEEC00A 		vcvt.s32.f32	s0, s0
 985 003e 10EE103A 		vmov	r3, s0	@ int
 986 0042 A4F86C30 		strh	r3, [r4, #108]	@ movhi
 987              		.loc 1 96 5 is_stmt 1 view .LVU225
 988              		.loc 1 96 48 is_stmt 0 view .LVU226
 989 0046 FFF7FEFF 		bl	get_acceleration
 990              	.LVL56:
 991              		.loc 1 96 46 view .LVU227
 992 004a 20EE080A 		vmul.f32	s0, s0, s16
 993              		.loc 1 98 41 view .LVU228
 994 004e 0020     		movs	r0, #0
 995              		.loc 1 96 31 view .LVU229
 996 0050 BDEEC00A 		vcvt.s32.f32	s0, s0
 997 0054 10EE103A 		vmov	r3, s0	@ int
 998 0058 A4F86E30 		strh	r3, [r4, #110]	@ movhi
 999              		.loc 1 98 5 is_stmt 1 view .LVU230
 1000              		.loc 1 98 41 is_stmt 0 view .LVU231
 1001 005c FFF7FEFF 		bl	get_gyro
 1002              	.LVL57:
 1003 0060 0346     		mov	r3, r0
 1004              		.loc 1 99 41 view .LVU232
 1005 0062 0120     		movs	r0, #1
 1006              		.loc 1 98 30 view .LVU233
 1007 0064 A4F87030 		strh	r3, [r4, #112]	@ movhi
 1008              		.loc 1 99 5 is_stmt 1 view .LVU234
 1009              		.loc 1 99 41 is_stmt 0 view .LVU235
 1010 0068 FFF7FEFF 		bl	get_gyro
 1011              	.LVL58:
 1012 006c 0346     		mov	r3, r0
 1013              		.loc 1 100 41 view .LVU236
 1014 006e 0220     		movs	r0, #2
 1015              		.loc 1 99 30 view .LVU237
 1016 0070 A4F87230 		strh	r3, [r4, #114]	@ movhi
 1017              		.loc 1 100 5 is_stmt 1 view .LVU238
 1018              		.loc 1 100 41 is_stmt 0 view .LVU239
ARM GAS  /tmp/cci3bWBW.s 			page 19


 1019 0074 FFF7FEFF 		bl	get_gyro
 1020              	.LVL59:
 1021              		.loc 1 102 5 view .LVU240
 1022 0078 0B4A     		ldr	r2, .L66+12
 1023              		.loc 1 100 30 view .LVU241
 1024 007a A4F87400 		strh	r0, [r4, #116]	@ movhi
 1025              		.loc 1 102 5 is_stmt 1 view .LVU242
 1026 007e 1368     		ldr	r3, [r2]
 1027 0080 43F00103 		orr	r3, r3, #1
 1028 0084 1360     		str	r3, [r2]
 1029              		.loc 1 103 1 is_stmt 0 view .LVU243
 1030 0086 054B     		ldr	r3, .L66
 1031 0088 1A68     		ldr	r2, [r3]
 1032 008a 019B     		ldr	r3, [sp, #4]
 1033 008c 5A40     		eors	r2, r3, r2
 1034 008e 03D1     		bne	.L65
 1035 0090 02B0     		add	sp, sp, #8
 1036              		.cfi_remember_state
 1037              		.cfi_def_cfa_offset 16
 1038              		@ sp needed
 1039 0092 BDEC028B 		vldm	sp!, {d8}
 1040              		.cfi_restore 80
 1041              		.cfi_restore 81
 1042              		.cfi_def_cfa_offset 8
 1043 0096 10BD     		pop	{r4, pc}
 1044              	.L65:
 1045              		.cfi_restore_state
 1046 0098 FFF7FEFF 		bl	__stack_chk_fail
 1047              	.LVL60:
 1048              	.L67:
 1049              		.align	2
 1050              	.L66:
 1051 009c 00000000 		.word	.LC11
 1052 00a0 00007A44 		.word	1148846080
 1053 00a4 00000000 		.word	.LANCHOR0
 1054 00a8 00000000 		.word	events_flags
 1055              		.cfi_endproc
 1056              	.LFE263:
 1057              		.size	imu_cb, .-imu_cb
 1058              		.section	.rodata.leds_cb.cst4,"aM",%progbits,4
 1059              		.align	2
 1060              	.LC12:
 1061 0000 00000000 		.word	__stack_chk_guard
 1062              		.section	.text.leds_cb,"ax",%progbits
 1063              		.align	1
 1064              		.p2align 4,,15
 1065              		.global	leds_cb
 1066              		.syntax unified
 1067              		.thumb
 1068              		.thumb_func
 1069              		.fpu fpv4-sp-d16
 1070              		.type	leds_cb, %function
 1071              	leds_cb:
 1072              	.LFB264:
 1073              		.loc 1 105 19 is_stmt 1 view -0
 1074              		.cfi_startproc
 1075              		@ args = 0, pretend = 0, frame = 8
ARM GAS  /tmp/cci3bWBW.s 			page 20


 1076              		@ frame_needed = 0, uses_anonymous_args = 0
 1077 0000 10B5     		push	{r4, lr}
 1078              		.cfi_def_cfa_offset 8
 1079              		.cfi_offset 4, -8
 1080              		.cfi_offset 14, -4
 1081              		.loc 1 107 30 is_stmt 0 view .LVU245
 1082 0002 244C     		ldr	r4, .L73
 1083              		.loc 1 105 19 view .LVU246
 1084 0004 244B     		ldr	r3, .L73+4
 1085              		.loc 1 107 5 view .LVU247
 1086 0006 B4F84A10 		ldrh	r1, [r4, #74]
 1087              		.loc 1 105 19 view .LVU248
 1088 000a 82B0     		sub	sp, sp, #8
 1089              		.cfi_def_cfa_offset 16
 1090              		.loc 1 107 5 view .LVU249
 1091 000c 0020     		movs	r0, #0
 1092              		.loc 1 105 19 view .LVU250
 1093 000e 1B68     		ldr	r3, [r3]
 1094 0010 0193     		str	r3, [sp, #4]
 1095 0012 4FF00003 		mov	r3,#0
 1096              		.loc 1 107 5 is_stmt 1 view .LVU251
 1097 0016 FFF7FEFF 		bl	set_led
 1098              	.LVL61:
 1099              		.loc 1 108 5 view .LVU252
 1100 001a 94F85030 		ldrb	r3, [r4, #80]	@ zero_extendqisi2
 1101 001e 94F84E20 		ldrb	r2, [r4, #78]	@ zero_extendqisi2
 1102 0022 94F84C10 		ldrb	r1, [r4, #76]	@ zero_extendqisi2
 1103 0026 0020     		movs	r0, #0
 1104 0028 FFF7FEFF 		bl	set_rgb_led
 1105              	.LVL62:
 1106              		.loc 1 109 5 view .LVU253
 1107 002c B4F85210 		ldrh	r1, [r4, #82]
 1108 0030 0120     		movs	r0, #1
 1109 0032 FFF7FEFF 		bl	set_led
 1110              	.LVL63:
 1111              		.loc 1 110 5 view .LVU254
 1112 0036 94F85830 		ldrb	r3, [r4, #88]	@ zero_extendqisi2
 1113 003a 94F85620 		ldrb	r2, [r4, #86]	@ zero_extendqisi2
 1114 003e 94F85410 		ldrb	r1, [r4, #84]	@ zero_extendqisi2
 1115 0042 0120     		movs	r0, #1
 1116 0044 FFF7FEFF 		bl	set_rgb_led
 1117              	.LVL64:
 1118              		.loc 1 111 5 view .LVU255
 1119 0048 B4F85A10 		ldrh	r1, [r4, #90]
 1120 004c 0220     		movs	r0, #2
 1121 004e FFF7FEFF 		bl	set_led
 1122              	.LVL65:
 1123              		.loc 1 112 5 view .LVU256
 1124 0052 94F86030 		ldrb	r3, [r4, #96]	@ zero_extendqisi2
 1125 0056 94F85E20 		ldrb	r2, [r4, #94]	@ zero_extendqisi2
 1126 005a 94F85C10 		ldrb	r1, [r4, #92]	@ zero_extendqisi2
 1127 005e 0220     		movs	r0, #2
 1128 0060 FFF7FEFF 		bl	set_rgb_led
 1129              	.LVL66:
 1130              		.loc 1 113 5 view .LVU257
 1131 0064 B4F86210 		ldrh	r1, [r4, #98]
 1132 0068 0320     		movs	r0, #3
ARM GAS  /tmp/cci3bWBW.s 			page 21


 1133 006a FFF7FEFF 		bl	set_led
 1134              	.LVL67:
 1135              		.loc 1 114 5 view .LVU258
 1136 006e 0A4B     		ldr	r3, .L73+4
 1137 0070 1A68     		ldr	r2, [r3]
 1138 0072 019B     		ldr	r3, [sp, #4]
 1139 0074 5A40     		eors	r2, r3, r2
 1140 0076 0BD1     		bne	.L72
 1141 0078 94F86830 		ldrb	r3, [r4, #104]	@ zero_extendqisi2
 1142 007c 94F86620 		ldrb	r2, [r4, #102]	@ zero_extendqisi2
 1143 0080 94F86410 		ldrb	r1, [r4, #100]	@ zero_extendqisi2
 1144 0084 0320     		movs	r0, #3
 1145              		.loc 1 115 1 is_stmt 0 view .LVU259
 1146 0086 02B0     		add	sp, sp, #8
 1147              		.cfi_remember_state
 1148              		.cfi_def_cfa_offset 8
 1149              		@ sp needed
 1150 0088 BDE81040 		pop	{r4, lr}
 1151              		.cfi_restore 14
 1152              		.cfi_restore 4
 1153              		.cfi_def_cfa_offset 0
 1154              		.loc 1 114 5 view .LVU260
 1155 008c FFF7FEBF 		b	set_rgb_led
 1156              	.LVL68:
 1157              	.L72:
 1158              		.cfi_restore_state
 1159 0090 FFF7FEFF 		bl	__stack_chk_fail
 1160              	.LVL69:
 1161              	.L74:
 1162              		.align	2
 1163              	.L73:
 1164 0094 00000000 		.word	.LANCHOR0
 1165 0098 00000000 		.word	.LC12
 1166              		.cfi_endproc
 1167              	.LFE264:
 1168              		.size	leds_cb, .-leds_cb
 1169              		.section	.rodata.aseba_write_variables_to_system.cst4,"aM",%progbits,4
 1170              		.align	2
 1171              	.LC13:
 1172 0000 00000000 		.word	__stack_chk_guard
 1173              		.section	.text.aseba_write_variables_to_system,"ax",%progbits
 1174              		.align	1
 1175              		.p2align 4,,15
 1176              		.global	aseba_write_variables_to_system
 1177              		.syntax unified
 1178              		.thumb
 1179              		.thumb_func
 1180              		.fpu fpv4-sp-d16
 1181              		.type	aseba_write_variables_to_system, %function
 1182              	aseba_write_variables_to_system:
 1183              	.LVL70:
 1184              	.LFB262:
 1185              		.loc 1 84 1 is_stmt 1 view -0
 1186              		.cfi_startproc
 1187              		@ args = 0, pretend = 0, frame = 8
 1188              		@ frame_needed = 0, uses_anonymous_args = 0
 1189              		.loc 1 84 1 is_stmt 0 view .LVU262
ARM GAS  /tmp/cci3bWBW.s 			page 22


 1190 0000 00B5     		push	{lr}
 1191              		.cfi_def_cfa_offset 4
 1192              		.cfi_offset 14, -4
 1193 0002 0A4B     		ldr	r3, .L80
 1194 0004 83B0     		sub	sp, sp, #12
 1195              		.cfi_def_cfa_offset 16
 1196              		.loc 1 84 1 view .LVU263
 1197 0006 1B68     		ldr	r3, [r3]
 1198 0008 0193     		str	r3, [sp, #4]
 1199 000a 4FF00003 		mov	r3,#0
 1200              		.loc 1 85 5 is_stmt 1 view .LVU264
 1201              		.loc 1 85 21 view .LVU265
 1202              		.loc 1 87 5 view .LVU266
 1203 000e FFF7FEFF 		bl	imu_cb
 1204              	.LVL71:
 1205              		.loc 1 88 5 view .LVU267
 1206 0012 064B     		ldr	r3, .L80
 1207 0014 1A68     		ldr	r2, [r3]
 1208 0016 019B     		ldr	r3, [sp, #4]
 1209 0018 5A40     		eors	r2, r3, r2
 1210 001a 04D1     		bne	.L79
 1211              		.loc 1 89 1 is_stmt 0 view .LVU268
 1212 001c 03B0     		add	sp, sp, #12
 1213              		.cfi_remember_state
 1214              		.cfi_def_cfa_offset 4
 1215              		@ sp needed
 1216 001e 5DF804EB 		ldr	lr, [sp], #4
 1217              		.cfi_restore 14
 1218              		.cfi_def_cfa_offset 0
 1219              		.loc 1 88 5 view .LVU269
 1220 0022 FFF7FEBF 		b	leds_cb
 1221              	.LVL72:
 1222              	.L79:
 1223              		.cfi_restore_state
 1224 0026 FFF7FEFF 		bl	__stack_chk_fail
 1225              	.LVL73:
 1226              	.L81:
 1227 002a 00BF     		.align	2
 1228              	.L80:
 1229 002c 00000000 		.word	.LC13
 1230              		.cfi_endproc
 1231              	.LFE262:
 1232              		.size	aseba_write_variables_to_system, .-aseba_write_variables_to_system
 1233              		.section	.rodata.button_cb.cst4,"aM",%progbits,4
 1234              		.align	2
 1235              	.LC14:
 1236 0000 00000000 		.word	__stack_chk_guard
 1237              		.section	.text.button_cb,"ax",%progbits
 1238              		.align	1
 1239              		.p2align 4,,15
 1240              		.global	button_cb
 1241              		.syntax unified
 1242              		.thumb
 1243              		.thumb_func
 1244              		.fpu fpv4-sp-d16
 1245              		.type	button_cb, %function
 1246              	button_cb:
ARM GAS  /tmp/cci3bWBW.s 			page 23


 1247              	.LFB265:
 1248              		.loc 1 118 1 is_stmt 1 view -0
 1249              		.cfi_startproc
 1250              		@ args = 0, pretend = 0, frame = 8
 1251              		@ frame_needed = 0, uses_anonymous_args = 0
 1252 0000 00B5     		push	{lr}
 1253              		.cfi_def_cfa_offset 4
 1254              		.cfi_offset 14, -4
 1255              		.loc 1 119 5 is_stmt 0 view .LVU271
 1256 0002 0A4A     		ldr	r2, .L86
 1257              		.loc 1 118 1 view .LVU272
 1258 0004 0A4B     		ldr	r3, .L86+4
 1259 0006 83B0     		sub	sp, sp, #12
 1260              		.cfi_def_cfa_offset 16
 1261              		.loc 1 118 1 view .LVU273
 1262 0008 1B68     		ldr	r3, [r3]
 1263 000a 0193     		str	r3, [sp, #4]
 1264 000c 4FF00003 		mov	r3,#0
 1265              		.loc 1 119 5 is_stmt 1 view .LVU274
 1266 0010 1368     		ldr	r3, [r2]
 1267 0012 43F00203 		orr	r3, r3, #2
 1268 0016 1360     		str	r3, [r2]
 1269              		.loc 1 120 1 is_stmt 0 view .LVU275
 1270 0018 054B     		ldr	r3, .L86+4
 1271 001a 1A68     		ldr	r2, [r3]
 1272 001c 019B     		ldr	r3, [sp, #4]
 1273 001e 5A40     		eors	r2, r3, r2
 1274 0020 02D1     		bne	.L85
 1275 0022 03B0     		add	sp, sp, #12
 1276              		.cfi_remember_state
 1277              		.cfi_def_cfa_offset 4
 1278              		@ sp needed
 1279 0024 5DF804FB 		ldr	pc, [sp], #4
 1280              	.L85:
 1281              		.cfi_restore_state
 1282 0028 FFF7FEFF 		bl	__stack_chk_fail
 1283              	.LVL74:
 1284              	.L87:
 1285              		.align	2
 1286              	.L86:
 1287 002c 00000000 		.word	events_flags
 1288 0030 00000000 		.word	.LC14
 1289              		.cfi_endproc
 1290              	.LFE265:
 1291              		.size	button_cb, .-button_cb
 1292              		.global	nativeFunctions_length
 1293              		.global	nativeFunctions
 1294              		.global	nativeFunctionsDescription
 1295              		.global	AsebaNativeDescription_clear_all_leds
 1296              		.section	.rodata.str1.4,"aMS",%progbits,1
 1297              		.align	2
 1298              	.LC15:
 1299 0000 6C656473 		.ascii	"leds.clear_all\000"
 1299      2E636C65 
 1299      61725F61 
 1299      6C6C00
 1300 000f 00       		.align	2
ARM GAS  /tmp/cci3bWBW.s 			page 24


 1301              	.LC16:
 1302 0010 436C6561 		.ascii	"Clear all the LEDs\000"
 1302      7220616C 
 1302      6C207468 
 1302      65204C45 
 1302      447300
 1303 0023 00       		.align	2
 1304              	.LC17:
 1305 0024 5F737973 		.ascii	"_system.settings.erase\000"
 1305      74656D2E 
 1305      73657474 
 1305      696E6773 
 1305      2E657261 
 1306 003b 00       		.align	2
 1307              	.LC18:
 1308 003c 52657374 		.ascii	"Restore settings to default value (erases flash)\000"
 1308      6F726520 
 1308      73657474 
 1308      696E6773 
 1308      20746F20 
 1309 006d 000000   		.align	2
 1310              	.LC19:
 1311 0070 5F737973 		.ascii	"_system.settings.flash\000"
 1311      74656D2E 
 1311      73657474 
 1311      696E6773 
 1311      2E666C61 
 1312 0087 00       		.align	2
 1313              	.LC20:
 1314 0088 53617665 		.ascii	"Save settings into flash\000"
 1314      20736574 
 1314      74696E67 
 1314      7320696E 
 1314      746F2066 
 1315 00a1 000000   		.align	2
 1316              	.LC21:
 1317 00a4 5F737973 		.ascii	"_system.settings.write\000"
 1317      74656D2E 
 1317      73657474 
 1317      696E6773 
 1317      2E777269 
 1318 00bb 00       		.align	2
 1319              	.LC22:
 1320 00bc 57726974 		.ascii	"Write a setting\000"
 1320      65206120 
 1320      73657474 
 1320      696E6700 
 1321              		.align	2
 1322              	.LC23:
 1323 00cc 61646472 		.ascii	"address\000"
 1323      65737300 
 1324              		.align	2
 1325              	.LC24:
 1326 00d4 76616C75 		.ascii	"value\000"
 1326      6500
 1327 00da 0000     		.align	2
 1328              	.LC25:
ARM GAS  /tmp/cci3bWBW.s 			page 25


 1329 00dc 5F737973 		.ascii	"_system.settings.read\000"
 1329      74656D2E 
 1329      73657474 
 1329      696E6773 
 1329      2E726561 
 1330 00f2 0000     		.align	2
 1331              	.LC26:
 1332 00f4 52656164 		.ascii	"Read a setting\000"
 1332      20612073 
 1332      65747469 
 1332      6E6700
 1333 0103 00       		.align	2
 1334              	.LC27:
 1335 0104 5F737973 		.ascii	"_system.reboot\000"
 1335      74656D2E 
 1335      7265626F 
 1335      6F7400
 1336 0113 00       		.align	2
 1337              	.LC28:
 1338 0114 5265626F 		.ascii	"Reboot the microcontroller\000"
 1338      6F742074 
 1338      6865206D 
 1338      6963726F 
 1338      636F6E74 
 1339              		.global	localEvents
 1340 012f 00       		.align	2
 1341              	.LC29:
 1342 0130 6E65775F 		.ascii	"new_imu\000"
 1342      696D7500 
 1343              		.align	2
 1344              	.LC30:
 1345 0138 4E657720 		.ascii	"New imu measurement\000"
 1345      696D7520 
 1345      6D656173 
 1345      7572656D 
 1345      656E7400 
 1346              		.align	2
 1347              	.LC31:
 1348 014c 62757474 		.ascii	"button\000"
 1348      6F6E00
 1349 0153 00       		.align	2
 1350              	.LC32:
 1351 0154 55736572 		.ascii	"User button clicked\000"
 1351      20627574 
 1351      746F6E20 
 1351      636C6963 
 1351      6B656400 
 1352              		.global	vmDescription
 1353              		.align	2
 1354              	.LC33:
 1355 0168 47435472 		.ascii	"GCTronic-MobotsEPFL e-puck V2.0_F\000"
 1355      6F6E6963 
 1355      2D4D6F62 
 1355      6F747345 
 1355      50464C20 
 1356 018a 0000     		.align	2
 1357              	.LC34:
ARM GAS  /tmp/cci3bWBW.s 			page 26


 1358 018c 5F696400 		.ascii	"_id\000"
 1359              		.align	2
 1360              	.LC35:
 1361 0190 6576656E 		.ascii	"event.source\000"
 1361      742E736F 
 1361      75726365 
 1361      00
 1362 019d 000000   		.align	2
 1363              	.LC36:
 1364 01a0 6576656E 		.ascii	"event.args\000"
 1364      742E6172 
 1364      677300
 1365 01ab 00       		.align	2
 1366              	.LC37:
 1367 01ac 5F667776 		.ascii	"_fwversion\000"
 1367      65727369 
 1367      6F6E00
 1368 01b7 00       		.align	2
 1369              	.LC38:
 1370 01b8 5F70726F 		.ascii	"_productId\000"
 1370      64756374 
 1370      496400
 1371 01c3 00       		.align	2
 1372              	.LC39:
 1373 01c4 6C656431 		.ascii	"led1\000"
 1373      00
 1374 01c9 000000   		.align	2
 1375              	.LC40:
 1376 01cc 6C656432 		.ascii	"led2\000"
 1376      00
 1377 01d1 000000   		.align	2
 1378              	.LC41:
 1379 01d4 6C656433 		.ascii	"led3\000"
 1379      00
 1380 01d9 000000   		.align	2
 1381              	.LC42:
 1382 01dc 6C656434 		.ascii	"led4\000"
 1382      00
 1383 01e1 000000   		.align	2
 1384              	.LC43:
 1385 01e4 6C656435 		.ascii	"led5\000"
 1385      00
 1386 01e9 000000   		.align	2
 1387              	.LC44:
 1388 01ec 6C656436 		.ascii	"led6\000"
 1388      00
 1389 01f1 000000   		.align	2
 1390              	.LC45:
 1391 01f4 6C656437 		.ascii	"led7\000"
 1391      00
 1392 01f9 000000   		.align	2
 1393              	.LC46:
 1394 01fc 6C656438 		.ascii	"led8\000"
 1394      00
 1395 0201 000000   		.align	2
 1396              	.LC47:
 1397 0204 61636300 		.ascii	"acc\000"
ARM GAS  /tmp/cci3bWBW.s 			page 27


 1398              		.align	2
 1399              	.LC48:
 1400 0208 6779726F 		.ascii	"gyro\000"
 1400      00
 1401              		.global	vmVariables
 1402              		.section	.bss.aseba_settings,"aw",%nobits
 1403              		.align	2
 1404              		.set	.LANCHOR1,. + 0
 1405              		.type	aseba_settings, %object
 1406              		.size	aseba_settings, 768
 1407              	aseba_settings:
 1408 0000 00000000 		.space	768
 1408      00000000 
 1408      00000000 
 1408      00000000 
 1408      00000000 
 1409              		.section	.bss.aseba_settings_name,"aw",%nobits
 1410              		.align	2
 1411              		.set	.LANCHOR2,. + 0
 1412              		.type	aseba_settings_name, %object
 1413              		.size	aseba_settings_name, 320
 1414              	aseba_settings_name:
 1415 0000 00000000 		.space	320
 1415      00000000 
 1415      00000000 
 1415      00000000 
 1415      00000000 
 1416              		.section	.bss.vmVariables,"aw",%nobits
 1417              		.align	2
 1418              		.set	.LANCHOR0,. + 0
 1419              		.type	vmVariables, %object
 1420              		.size	vmVariables, 630
 1421              	vmVariables:
 1422 0000 00000000 		.space	630
 1422      00000000 
 1422      00000000 
 1422      00000000 
 1422      00000000 
 1423              		.section	.data.AsebaNativeDescription__system_reboot,"aw"
 1424              		.align	2
 1425              		.type	AsebaNativeDescription__system_reboot, %object
 1426              		.size	AsebaNativeDescription__system_reboot, 16
 1427              	AsebaNativeDescription__system_reboot:
 1428 0000 04010000 		.word	.LC27
 1429 0004 14010000 		.word	.LC28
 1430 0008 0000     		.short	0
 1431 000a 0000     		.space	2
 1432 000c 00000000 		.word	0
 1433              		.section	.data.AsebaNativeDescription__system_settings_read,"aw"
 1434              		.align	2
 1435              		.type	AsebaNativeDescription__system_settings_read, %object
 1436              		.size	AsebaNativeDescription__system_settings_read, 32
 1437              	AsebaNativeDescription__system_settings_read:
 1438 0000 DC000000 		.word	.LC25
 1439 0004 F4000000 		.word	.LC26
 1440 0008 0100     		.short	1
 1441 000a 0000     		.space	2
ARM GAS  /tmp/cci3bWBW.s 			page 28


 1442 000c CC000000 		.word	.LC23
 1443 0010 0100     		.short	1
 1444 0012 0000     		.space	2
 1445 0014 D4000000 		.word	.LC24
 1446 0018 0000     		.short	0
 1447 001a 0000     		.space	2
 1448 001c 00000000 		.word	0
 1449              		.section	.data.AsebaNativeDescription__system_settings_write,"aw"
 1450              		.align	2
 1451              		.type	AsebaNativeDescription__system_settings_write, %object
 1452              		.size	AsebaNativeDescription__system_settings_write, 32
 1453              	AsebaNativeDescription__system_settings_write:
 1454 0000 A4000000 		.word	.LC21
 1455 0004 BC000000 		.word	.LC22
 1456 0008 0100     		.short	1
 1457 000a 0000     		.space	2
 1458 000c CC000000 		.word	.LC23
 1459 0010 0100     		.short	1
 1460 0012 0000     		.space	2
 1461 0014 D4000000 		.word	.LC24
 1462 0018 0000     		.short	0
 1463 001a 0000     		.space	2
 1464 001c 00000000 		.word	0
 1465              		.section	.data.AsebaNativeDescription_clear_all_leds,"aw"
 1466              		.align	2
 1467              		.type	AsebaNativeDescription_clear_all_leds, %object
 1468              		.size	AsebaNativeDescription_clear_all_leds, 16
 1469              	AsebaNativeDescription_clear_all_leds:
 1470 0000 00000000 		.word	.LC15
 1471 0004 10000000 		.word	.LC16
 1472 0008 0000     		.short	0
 1473 000a 0000     		.space	2
 1474 000c 00000000 		.word	0
 1475              		.section	.data.AsebaNativeDescription_settings_erase,"aw"
 1476              		.align	2
 1477              		.type	AsebaNativeDescription_settings_erase, %object
 1478              		.size	AsebaNativeDescription_settings_erase, 16
 1479              	AsebaNativeDescription_settings_erase:
 1480 0000 24000000 		.word	.LC17
 1481 0004 3C000000 		.word	.LC18
 1482 0008 0000     		.short	0
 1483 000a 0000     		.space	2
 1484 000c 00000000 		.word	0
 1485              		.section	.data.AsebaNativeDescription_settings_save,"aw"
 1486              		.align	2
 1487              		.type	AsebaNativeDescription_settings_save, %object
 1488              		.size	AsebaNativeDescription_settings_save, 16
 1489              	AsebaNativeDescription_settings_save:
 1490 0000 70000000 		.word	.LC19
 1491 0004 88000000 		.word	.LC20
 1492 0008 0000     		.short	0
 1493 000a 0000     		.space	2
 1494 000c 00000000 		.word	0
 1495              		.section	.data.nativeFunctions,"aw"
 1496              		.align	2
 1497              		.type	nativeFunctions, %object
 1498              		.size	nativeFunctions, 108
ARM GAS  /tmp/cci3bWBW.s 			page 29


 1499              	nativeFunctions:
 1500 0000 00000000 		.word	AsebaNative__system_reboot
 1501 0004 00000000 		.word	AsebaNative__system_settings_read
 1502 0008 00000000 		.word	AsebaNative__system_settings_write
 1503 000c 00000000 		.word	AsebaNative_settings_save
 1504 0010 00000000 		.word	AsebaNative_settings_erase
 1505 0014 00000000 		.word	clear_all_leds
 1506 0018 00000000 		.word	AsebaNative_veccopy
 1507 001c 00000000 		.word	AsebaNative_vecfill
 1508 0020 00000000 		.word	AsebaNative_vecaddscalar
 1509 0024 00000000 		.word	AsebaNative_vecadd
 1510 0028 00000000 		.word	AsebaNative_vecsub
 1511 002c 00000000 		.word	AsebaNative_vecmul
 1512 0030 00000000 		.word	AsebaNative_vecdiv
 1513 0034 00000000 		.word	AsebaNative_vecmin
 1514 0038 00000000 		.word	AsebaNative_vecmax
 1515 003c 00000000 		.word	AsebaNative_vecclamp
 1516 0040 00000000 		.word	AsebaNative_vecdot
 1517 0044 00000000 		.word	AsebaNative_vecstat
 1518 0048 00000000 		.word	AsebaNative_vecargbounds
 1519 004c 00000000 		.word	AsebaNative_vecsort
 1520 0050 00000000 		.word	AsebaNative_mathmuldiv
 1521 0054 00000000 		.word	AsebaNative_mathatan2
 1522 0058 00000000 		.word	AsebaNative_mathsin
 1523 005c 00000000 		.word	AsebaNative_mathcos
 1524 0060 00000000 		.word	AsebaNative_mathrot2
 1525 0064 00000000 		.word	AsebaNative_mathsqrt
 1526 0068 00000000 		.word	AsebaNative_rand
 1527              		.section	.data.nativeFunctionsDescription,"aw"
 1528              		.align	2
 1529              		.type	nativeFunctionsDescription, %object
 1530              		.size	nativeFunctionsDescription, 112
 1531              	nativeFunctionsDescription:
 1532 0000 00000000 		.word	AsebaNativeDescription__system_reboot
 1533 0004 00000000 		.word	AsebaNativeDescription__system_settings_read
 1534 0008 00000000 		.word	AsebaNativeDescription__system_settings_write
 1535 000c 00000000 		.word	AsebaNativeDescription_settings_save
 1536 0010 00000000 		.word	AsebaNativeDescription_settings_erase
 1537 0014 00000000 		.word	AsebaNativeDescription_clear_all_leds
 1538 0018 00000000 		.word	AsebaNativeDescription_veccopy
 1539 001c 00000000 		.word	AsebaNativeDescription_vecfill
 1540 0020 00000000 		.word	AsebaNativeDescription_vecaddscalar
 1541 0024 00000000 		.word	AsebaNativeDescription_vecadd
 1542 0028 00000000 		.word	AsebaNativeDescription_vecsub
 1543 002c 00000000 		.word	AsebaNativeDescription_vecmul
 1544 0030 00000000 		.word	AsebaNativeDescription_vecdiv
 1545 0034 00000000 		.word	AsebaNativeDescription_vecmin
 1546 0038 00000000 		.word	AsebaNativeDescription_vecmax
 1547 003c 00000000 		.word	AsebaNativeDescription_vecclamp
 1548 0040 00000000 		.word	AsebaNativeDescription_vecdot
 1549 0044 00000000 		.word	AsebaNativeDescription_vecstat
 1550 0048 00000000 		.word	AsebaNativeDescription_vecargbounds
 1551 004c 00000000 		.word	AsebaNativeDescription_vecsort
 1552 0050 00000000 		.word	AsebaNativeDescription_mathmuldiv
 1553 0054 00000000 		.word	AsebaNativeDescription_mathatan2
 1554 0058 00000000 		.word	AsebaNativeDescription_mathsin
 1555 005c 00000000 		.word	AsebaNativeDescription_mathcos
ARM GAS  /tmp/cci3bWBW.s 			page 30


 1556 0060 00000000 		.word	AsebaNativeDescription_mathrot2
 1557 0064 00000000 		.word	AsebaNativeDescription_mathsqrt
 1558 0068 00000000 		.word	AsebaNativeDescription_rand
 1559 006c 00000000 		.word	0
 1560              		.section	.rodata.localEvents,"a"
 1561              		.align	2
 1562              		.type	localEvents, %object
 1563              		.size	localEvents, 24
 1564              	localEvents:
 1565 0000 30010000 		.word	.LC29
 1566 0004 38010000 		.word	.LC30
 1567 0008 4C010000 		.word	.LC31
 1568 000c 54010000 		.word	.LC32
 1569 0010 00000000 		.word	0
 1570 0014 00000000 		.word	0
 1571              		.section	.rodata.nativeFunctions_length,"a"
 1572              		.align	2
 1573              		.type	nativeFunctions_length, %object
 1574              		.size	nativeFunctions_length, 4
 1575              	nativeFunctions_length:
 1576 0000 1B000000 		.word	27
 1577              		.section	.rodata.vmDescription,"a"
 1578              		.align	2
 1579              		.type	vmDescription, %object
 1580              		.size	vmDescription, 132
 1581              	vmDescription:
 1582 0000 68010000 		.word	.LC33
 1583 0004 0100     		.short	1
 1584 0006 0000     		.space	2
 1585 0008 8C010000 		.word	.LC34
 1586 000c 0100     		.short	1
 1587 000e 0000     		.space	2
 1588 0010 90010000 		.word	.LC35
 1589 0014 2000     		.short	32
 1590 0016 0000     		.space	2
 1591 0018 A0010000 		.word	.LC36
 1592 001c 0200     		.short	2
 1593 001e 0000     		.space	2
 1594 0020 AC010000 		.word	.LC37
 1595 0024 0100     		.short	1
 1596 0026 0000     		.space	2
 1597 0028 B8010000 		.word	.LC38
 1598 002c 0100     		.short	1
 1599 002e 0000     		.space	2
 1600 0030 C4010000 		.word	.LC39
 1601 0034 0300     		.short	3
 1602 0036 0000     		.space	2
 1603 0038 CC010000 		.word	.LC40
 1604 003c 0100     		.short	1
 1605 003e 0000     		.space	2
 1606 0040 D4010000 		.word	.LC41
 1607 0044 0300     		.short	3
 1608 0046 0000     		.space	2
 1609 0048 DC010000 		.word	.LC42
 1610 004c 0100     		.short	1
 1611 004e 0000     		.space	2
 1612 0050 E4010000 		.word	.LC43
ARM GAS  /tmp/cci3bWBW.s 			page 31


 1613 0054 0300     		.short	3
 1614 0056 0000     		.space	2
 1615 0058 EC010000 		.word	.LC44
 1616 005c 0100     		.short	1
 1617 005e 0000     		.space	2
 1618 0060 F4010000 		.word	.LC45
 1619 0064 0300     		.short	3
 1620 0066 0000     		.space	2
 1621 0068 FC010000 		.word	.LC46
 1622 006c 0300     		.short	3
 1623 006e 0000     		.space	2
 1624 0070 04020000 		.word	.LC47
 1625 0074 0300     		.short	3
 1626 0076 0000     		.space	2
 1627 0078 08020000 		.word	.LC48
 1628 007c 0000     		.short	0
 1629 007e 0000     		.space	2
 1630 0080 00000000 		.word	0
 1631              		.text
 1632              	.Letext0:
 1633              		.file 5 "/usr/lib/gcc/arm-none-eabi/9.2.1/include/stddef.h"
 1634              		.file 6 "/usr/include/newlib/machine/_default_types.h"
 1635              		.file 7 "/usr/include/newlib/sys/_types.h"
 1636              		.file 8 "/usr/include/newlib/sys/reent.h"
 1637              		.file 9 "/usr/include/newlib/sys/lock.h"
 1638              		.file 10 "/usr/include/newlib/sys/_stdint.h"
 1639              		.file 11 ".//ChibiOS//os/rt/ports/ARMCMx/compilers/GCC/chtypes.h"
 1640              		.file 12 ".//ChibiOS//os/rt/include/chsystypes.h"
 1641              		.file 13 ".//ChibiOS//os/rt/include/chschd.h"
 1642              		.file 14 ".//ChibiOS//os/ext/CMSIS/ST/system_stm32f4xx.h"
 1643              		.file 15 ".//ChibiOS//os/ext/CMSIS/ST/stm32f407xx.h"
 1644              		.file 16 ".//ChibiOS//os/rt/ports/ARMCMx/chcore.h"
 1645              		.file 17 ".//ChibiOS//os/rt/ports/ARMCMx/chcore_v7m.h"
 1646              		.file 18 ".//ChibiOS//os/rt/include/chdebug.h"
 1647              		.file 19 ".//ChibiOS//os/rt/include/chtm.h"
 1648              		.file 20 ".//ChibiOS//os/rt/include/chstats.h"
 1649              		.file 21 ".//ChibiOS//os/rt/include/chsem.h"
 1650              		.file 22 ".//ChibiOS//os/rt/include/chmtx.h"
 1651              		.file 23 ".//ChibiOS//os/rt/include/chregistry.h"
 1652              		.file 24 ".//ChibiOS//os/rt/include/chevents.h"
 1653              		.file 25 ".//ChibiOS//os/rt/include/chqueues.h"
 1654              		.file 26 ".//ChibiOS//os/hal/ports/STM32/STM32F4xx/stm32_dma.h"
 1655              		.file 27 ".//ChibiOS//os/hal/include/hal_ioblock.h"
 1656              		.file 28 ".//ChibiOS//os/hal/ports/STM32/LLD/GPIOv2/pal_lld.h"
 1657              		.file 29 ".//ChibiOS//os/hal/include/adc.h"
 1658              		.file 30 ".//ChibiOS//os/hal/ports/STM32/STM32F4xx/adc_lld.h"
 1659              		.file 31 ".//ChibiOS//os/hal/include/can.h"
 1660              		.file 32 ".//ChibiOS//os/hal/ports/STM32/LLD/can_lld.h"
 1661              		.file 33 ".//ChibiOS//os/hal/include/dac.h"
 1662              		.file 34 ".//ChibiOS//os/hal/ports/STM32/LLD/DACv1/dac_lld.h"
 1663              		.file 35 ".//ChibiOS//os/hal/include/ext.h"
 1664              		.file 36 ".//ChibiOS//os/hal/ports/STM32/LLD/ext_lld.h"
 1665              		.file 37 ".//ChibiOS//os/hal/include/gpt.h"
 1666              		.file 38 ".//ChibiOS//os/hal/ports/STM32/LLD/TIMv1/gpt_lld.h"
 1667              		.file 39 ".//ChibiOS//os/hal/ports/STM32/LLD/TIMv1/stm32_tim.h"
 1668              		.file 40 ".//ChibiOS//os/hal/include/i2c.h"
 1669              		.file 41 ".//ChibiOS//os/hal/ports/STM32/LLD/I2Cv1/i2c_lld.h"
ARM GAS  /tmp/cci3bWBW.s 			page 32


 1670              		.file 42 ".//ChibiOS//os/hal/include/i2s.h"
 1671              		.file 43 ".//ChibiOS//os/hal/ports/STM32/LLD/SPIv1/i2s_lld.h"
 1672              		.file 44 ".//ChibiOS//os/hal/include/pwm.h"
 1673              		.file 45 ".//ChibiOS//os/hal/ports/STM32/LLD/TIMv1/pwm_lld.h"
 1674              		.file 46 ".//ChibiOS//os/hal/include/serial.h"
 1675              		.file 47 ".//ChibiOS//os/hal/ports/STM32/LLD/USARTv1/serial_lld.h"
 1676              		.file 48 ".//ChibiOS//os/hal/include/sdc.h"
 1677              		.file 49 ".//ChibiOS//os/hal/ports/STM32/LLD/sdc_lld.h"
 1678              		.file 50 ".//ChibiOS//os/hal/include/spi.h"
 1679              		.file 51 ".//ChibiOS//os/hal/ports/STM32/LLD/SPIv1/spi_lld.h"
 1680              		.file 52 ".//ChibiOS//os/hal/include/usb.h"
 1681              		.file 53 ".//ChibiOS//os/hal/ports/STM32/LLD/OTGv1/usb_lld.h"
 1682              		.file 54 ".//ChibiOS//os/hal/ports/STM32/LLD/OTGv1/stm32_otg.h"
 1683              		.file 55 "/usr/include/newlib/stdlib.h"
 1684              		.file 56 ".//aseba/common/types.h"
 1685              		.file 57 ".//aseba/vm/vm.h"
 1686              		.file 58 ".//src/parameter/parameter.h"
 1687              		.file 59 ".//src/aseba_vm/aseba_node.h"
 1688              		.file 60 ".//src/sensors/mpu9250.h"
 1689              		.file 61 ".//src/leds.h"
 1690              		.file 62 ".//src/aseba_vm/skel_user.h"
 1691              		.file 63 ".//aseba/common/productids.h"
 1692              		.file 64 ".//ChibiOS_ext/os/hal/include/../ports/STM32/STM32F4xx/dcmi_lld.h"
 1693              		.file 65 "/usr/include/newlib/sys/unistd.h"
 1694              		.file 66 ".//src/msgbus/messagebus.h"
 1695              		.file 67 ".//src/main.h"
 1696              		.file 68 ".//src/config_flash_storage.h"
 1697              		.file 69 ".//src/sensors/imu.h"
 1698              		.file 70 "/usr/include/newlib/stdio.h"
 1699              		.file 71 "<built-in>"