ARM GAS  /tmp/ccNDTFpx.s 			page 1


   1              		.cpu cortex-m4
   2              		.eabi_attribute 27, 1
   3              		.eabi_attribute 28, 1
   4              		.eabi_attribute 20, 1
   5              		.eabi_attribute 21, 1
   6              		.eabi_attribute 23, 3
   7              		.eabi_attribute 24, 1
   8              		.eabi_attribute 25, 1
   9              		.eabi_attribute 26, 1
  10              		.eabi_attribute 30, 2
  11              		.eabi_attribute 34, 1
  12              		.eabi_attribute 18, 4
  13              		.file	"spi.c"
  14              		.text
  15              	.Ltext0:
  16              		.cfi_sections	.debug_frame
  17              		.section	.rodata.spiInit.cst4,"aM",%progbits,4
  18              		.align	2
  19              	.LC0:
  20 0000 00000000 		.word	__stack_chk_guard
  21              		.section	.text.spiInit,"ax",%progbits
  22              		.align	1
  23              		.p2align 4,,15
  24              		.global	spiInit
  25              		.arch armv7e-m
  26              		.syntax unified
  27              		.thumb
  28              		.thumb_func
  29              		.fpu fpv4-sp-d16
  30              		.type	spiInit, %function
  31              	spiInit:
  32              	.LFB256:
  33              		.file 1 ".//ChibiOS//os/hal/src/spi.c"
  34              		.loc 1 56 20 view -0
  35              		.cfi_startproc
  36              		@ args = 0, pretend = 0, frame = 8
  37              		@ frame_needed = 0, uses_anonymous_args = 0
  38 0000 00B5     		push	{lr}
  39              		.cfi_def_cfa_offset 4
  40              		.cfi_offset 14, -4
  41 0002 094B     		ldr	r3, .L7
  42 0004 83B0     		sub	sp, sp, #12
  43              		.cfi_def_cfa_offset 16
  44              		.loc 1 56 20 is_stmt 0 view .LVU1
  45 0006 1B68     		ldr	r3, [r3]
  46 0008 0193     		str	r3, [sp, #4]
  47 000a 4FF00003 		mov	r3,#0
  48              		.loc 1 58 3 is_stmt 1 view .LVU2
  49 000e 064B     		ldr	r3, .L7
  50 0010 1A68     		ldr	r2, [r3]
  51 0012 019B     		ldr	r3, [sp, #4]
  52 0014 5A40     		eors	r2, r3, r2
  53 0016 04D1     		bne	.L6
  54              		.loc 1 59 1 is_stmt 0 view .LVU3
  55 0018 03B0     		add	sp, sp, #12
  56              		.cfi_remember_state
  57              		.cfi_def_cfa_offset 4
ARM GAS  /tmp/ccNDTFpx.s 			page 2


  58              		@ sp needed
  59 001a 5DF804EB 		ldr	lr, [sp], #4
  60              		.cfi_restore 14
  61              		.cfi_def_cfa_offset 0
  62              		.loc 1 58 3 view .LVU4
  63 001e FFF7FEBF 		b	spi_lld_init
  64              	.LVL0:
  65              	.L6:
  66              		.cfi_restore_state
  67 0022 FFF7FEFF 		bl	__stack_chk_fail
  68              	.LVL1:
  69              	.L8:
  70 0026 00BF     		.align	2
  71              	.L7:
  72 0028 00000000 		.word	.LC0
  73              		.cfi_endproc
  74              	.LFE256:
  75              		.size	spiInit, .-spiInit
  76              		.section	.rodata.spiObjectInit.cst4,"aM",%progbits,4
  77              		.align	2
  78              	.LC1:
  79 0000 00000000 		.word	__stack_chk_guard
  80              		.section	.text.spiObjectInit,"ax",%progbits
  81              		.align	1
  82              		.p2align 4,,15
  83              		.global	spiObjectInit
  84              		.syntax unified
  85              		.thumb
  86              		.thumb_func
  87              		.fpu fpv4-sp-d16
  88              		.type	spiObjectInit, %function
  89              	spiObjectInit:
  90              	.LVL2:
  91              	.LFB257:
  92              		.loc 1 68 37 is_stmt 1 view -0
  93              		.cfi_startproc
  94              		@ args = 0, pretend = 0, frame = 8
  95              		@ frame_needed = 0, uses_anonymous_args = 0
  96              		.loc 1 68 37 is_stmt 0 view .LVU6
  97 0000 00B5     		push	{lr}
  98              		.cfi_def_cfa_offset 4
  99              		.cfi_offset 14, -4
 100 0002 0C4B     		ldr	r3, .L14
 101 0004 83B0     		sub	sp, sp, #12
 102              		.cfi_def_cfa_offset 16
 103              		.loc 1 68 37 view .LVU7
 104 0006 1B68     		ldr	r3, [r3]
 105 0008 0193     		str	r3, [sp, #4]
 106 000a 4FF00003 		mov	r3,#0
 107              		.loc 1 70 3 is_stmt 1 view .LVU8
 108              		.loc 1 71 16 is_stmt 0 view .LVU9
 109 000e 0023     		movs	r3, #0
 110              		.loc 1 73 16 view .LVU10
 111 0010 C0E90133 		strd	r3, r3, [r0, #4]
 112              		.loc 1 70 15 view .LVU11
 113 0014 0122     		movs	r2, #1
 114              	.LBB141:
ARM GAS  /tmp/ccNDTFpx.s 			page 3


 115              	.LBB142:
 116              		.file 2 ".//ChibiOS//os/hal/osal/rt/osal.h"
 117              		.loc 2 841 3 view .LVU12
 118 0016 074B     		ldr	r3, .L14
 119              	.LBE142:
 120              	.LBE141:
 121              		.loc 1 70 15 view .LVU13
 122 0018 0270     		strb	r2, [r0]
 123              		.loc 1 71 3 is_stmt 1 view .LVU14
 124              		.loc 1 76 3 view .LVU15
 125              	.LVL3:
 126              	.LBB145:
 127              	.LBI141:
 128              		.loc 2 838 20 view .LVU16
 129              	.LBB143:
 130              		.loc 2 841 3 view .LVU17
 131 001a 1A68     		ldr	r2, [r3]
 132 001c 019B     		ldr	r3, [sp, #4]
 133 001e 5A40     		eors	r2, r3, r2
 134 0020 05D1     		bne	.L13
 135 0022 0C30     		adds	r0, r0, #12
 136              	.LVL4:
 137              		.loc 2 841 3 is_stmt 0 view .LVU18
 138              	.LBE143:
 139              	.LBE145:
 140              		.loc 1 81 1 view .LVU19
 141 0024 03B0     		add	sp, sp, #12
 142              		.cfi_remember_state
 143              		.cfi_def_cfa_offset 4
 144              		@ sp needed
 145 0026 5DF804EB 		ldr	lr, [sp], #4
 146              		.cfi_restore 14
 147              		.cfi_def_cfa_offset 0
 148              	.LBB146:
 149              	.LBB144:
 150              		.loc 2 841 3 view .LVU20
 151 002a FFF7FEBF 		b	chMtxObjectInit
 152              	.LVL5:
 153              	.L13:
 154              		.cfi_restore_state
 155              		.loc 2 841 3 view .LVU21
 156 002e FFF7FEFF 		bl	__stack_chk_fail
 157              	.LVL6:
 158              	.L15:
 159              		.loc 2 841 3 view .LVU22
 160 0032 00BF     		.align	2
 161              	.L14:
 162 0034 00000000 		.word	.LC1
 163              	.LBE144:
 164              	.LBE146:
 165              		.cfi_endproc
 166              	.LFE257:
 167              		.size	spiObjectInit, .-spiObjectInit
 168              		.section	.rodata.spiStart.cst4,"aM",%progbits,4
 169              		.align	2
 170              	.LC2:
 171 0000 00000000 		.word	__stack_chk_guard
ARM GAS  /tmp/ccNDTFpx.s 			page 4


 172              		.section	.text.spiStart,"ax",%progbits
 173              		.align	1
 174              		.p2align 4,,15
 175              		.global	spiStart
 176              		.syntax unified
 177              		.thumb
 178              		.thumb_func
 179              		.fpu fpv4-sp-d16
 180              		.type	spiStart, %function
 181              	spiStart:
 182              	.LVL7:
 183              	.LFB258:
 184              		.loc 1 91 57 is_stmt 1 view -0
 185              		.cfi_startproc
 186              		@ args = 0, pretend = 0, frame = 8
 187              		@ frame_needed = 0, uses_anonymous_args = 0
 188              		.loc 1 91 57 is_stmt 0 view .LVU24
 189 0000 30B5     		push	{r4, r5, lr}
 190              		.cfi_def_cfa_offset 12
 191              		.cfi_offset 4, -12
 192              		.cfi_offset 5, -8
 193              		.cfi_offset 14, -4
 194 0002 1F4B     		ldr	r3, .L28
 195 0004 83B0     		sub	sp, sp, #12
 196              		.cfi_def_cfa_offset 24
 197              		.loc 1 91 57 view .LVU25
 198 0006 0D46     		mov	r5, r1
 199 0008 1B68     		ldr	r3, [r3]
 200 000a 0193     		str	r3, [sp, #4]
 201 000c 4FF00003 		mov	r3,#0
 202              		.loc 1 93 3 is_stmt 1 view .LVU26
 203              		.loc 1 93 3 view .LVU27
 204              		.loc 1 93 3 view .LVU28
 205 0010 0446     		mov	r4, r0
 206 0012 78B3     		cbz	r0, .L17
 207              		.loc 1 93 3 is_stmt 0 discriminator 4 view .LVU29
 208 0014 71B3     		cbz	r1, .L17
 209              	.LVL8:
 210              	.L18:
 211              		.loc 1 93 3 is_stmt 1 discriminator 7 view .LVU30
 212              		.loc 1 95 3 discriminator 7 view .LVU31
 213              	.LBB160:
 214              	.LBI160:
 215              		.loc 2 445 20 discriminator 7 view .LVU32
 216              	.LBE160:
 217              		.loc 2 447 3 discriminator 7 view .LVU33
 218              	.LBB169:
 219              	.LBB161:
 220              	.LBI161:
 221              		.file 3 ".//ChibiOS//os/rt/include/chsys.h"
 222              		.loc 3 346 20 discriminator 7 view .LVU34
 223              	.LBB162:
 224              		.loc 3 348 3 discriminator 7 view .LVU35
 225              	.LBB163:
 226              	.LBI163:
 227              		.file 4 ".//ChibiOS//os/rt/ports/ARMCMx/chcore_v7m.h"
 228              		.loc 4 444 20 discriminator 7 view .LVU36
ARM GAS  /tmp/ccNDTFpx.s 			page 5


 229              	.LBE163:
 230              	.LBE162:
 231              	.LBE161:
 232              	.LBE169:
 233              		.loc 4 447 3 discriminator 7 view .LVU37
 234              	.LBB170:
 235              	.LBB168:
 236              	.LBB167:
 237              	.LBB166:
 238              	.LBB164:
 239              	.LBI164:
 240              		.file 5 ".//ChibiOS//os/ext/CMSIS/include/core_cmFunc.h"
 241              		.loc 5 544 57 discriminator 7 view .LVU38
 242              	.LBB165:
 243              		.loc 5 546 3 discriminator 7 view .LVU39
 244 0016 2023     		movs	r3, #32
 245              		.syntax unified
 246              	@ 546 ".//ChibiOS//os/ext/CMSIS/include/core_cmFunc.h" 1
 247 0018 83F31188 		MSR basepri, r3
 248              	@ 0 "" 2
 249              	.LVL9:
 250              		.loc 5 546 3 is_stmt 0 discriminator 7 view .LVU40
 251              		.thumb
 252              		.syntax unified
 253              	.LBE165:
 254              	.LBE164:
 255              	.LBE166:
 256              		.loc 3 349 3 is_stmt 1 discriminator 7 view .LVU41
 257 001c FFF7FEFF 		bl	_stats_start_measure_crit_thd
 258              	.LVL10:
 259              		.loc 3 350 3 discriminator 7 view .LVU42
 260 0020 FFF7FEFF 		bl	_dbg_check_lock
 261              	.LVL11:
 262              	.LBE167:
 263              	.LBE168:
 264              	.LBE170:
 265              		.loc 1 96 3 discriminator 7 view .LVU43
 266              		.loc 1 96 3 discriminator 7 view .LVU44
 267              		.loc 1 96 3 discriminator 7 view .LVU45
 268 0024 2378     		ldrb	r3, [r4]	@ zero_extendqisi2
 269 0026 013B     		subs	r3, r3, #1
 270 0028 012B     		cmp	r3, #1
 271 002a 02D9     		bls	.L19
 272              		.loc 1 96 3 discriminator 3 view .LVU46
 273 002c 1548     		ldr	r0, .L28+4
 274 002e FFF7FEFF 		bl	chSysHalt
 275              	.LVL12:
 276              	.L19:
 277              		.loc 1 96 3 discriminator 5 view .LVU47
 278              		.loc 1 98 3 discriminator 5 view .LVU48
 279              		.loc 1 99 3 is_stmt 0 discriminator 5 view .LVU49
 280 0032 2046     		mov	r0, r4
 281              		.loc 1 98 16 discriminator 5 view .LVU50
 282 0034 6560     		str	r5, [r4, #4]
 283              		.loc 1 99 3 is_stmt 1 discriminator 5 view .LVU51
 284 0036 FFF7FEFF 		bl	spi_lld_start
 285              	.LVL13:
ARM GAS  /tmp/ccNDTFpx.s 			page 6


 286              		.loc 1 100 3 discriminator 5 view .LVU52
 287              		.loc 1 100 15 is_stmt 0 discriminator 5 view .LVU53
 288 003a 0223     		movs	r3, #2
 289 003c 2370     		strb	r3, [r4]
 290              		.loc 1 101 3 is_stmt 1 discriminator 5 view .LVU54
 291              	.LBB171:
 292              	.LBI171:
 293              		.loc 2 456 20 discriminator 5 view .LVU55
 294              	.LBE171:
 295              		.loc 2 458 3 discriminator 5 view .LVU56
 296              	.LBB182:
 297              	.LBB172:
 298              	.LBI172:
 299              		.loc 3 358 20 discriminator 5 view .LVU57
 300              	.LBB173:
 301              		.loc 3 360 3 discriminator 5 view .LVU58
 302 003e FFF7FEFF 		bl	_dbg_check_unlock
 303              	.LVL14:
 304              		.loc 3 361 3 discriminator 5 view .LVU59
 305 0042 FFF7FEFF 		bl	_stats_stop_measure_crit_thd
 306              	.LVL15:
 307              		.loc 3 367 3 discriminator 5 view .LVU60
 308              		.loc 3 367 3 discriminator 5 view .LVU61
 309              		.loc 3 367 3 discriminator 5 view .LVU62
 310 0046 104B     		ldr	r3, .L28+8
 311 0048 1A68     		ldr	r2, [r3]
 312 004a 9A42     		cmp	r2, r3
 313 004c 04D0     		beq	.L20
 314              		.loc 3 367 3 is_stmt 0 view .LVU63
 315 004e 9969     		ldr	r1, [r3, #24]
 316 0050 9368     		ldr	r3, [r2, #8]
 317 0052 8A68     		ldr	r2, [r1, #8]
 318 0054 9A42     		cmp	r2, r3
 319 0056 09D3     		bcc	.L26
 320              	.L20:
 321              		.loc 3 367 3 is_stmt 1 view .LVU64
 322              		.loc 3 371 3 view .LVU65
 323              	.LBB174:
 324              	.LBI174:
 325              		.loc 4 458 20 view .LVU66
 326              	.LBE174:
 327              	.LBE173:
 328              	.LBE172:
 329              	.LBE182:
 330              		.loc 4 461 3 view .LVU67
 331              	.LVL16:
 332              	.LBB183:
 333              	.LBB180:
 334              	.LBB178:
 335              	.LBB177:
 336              	.LBB175:
 337              	.LBI175:
 338              		.loc 5 544 57 view .LVU68
 339              	.LBB176:
 340              		.loc 5 546 3 view .LVU69
 341 0058 0023     		movs	r3, #0
 342              		.syntax unified
ARM GAS  /tmp/ccNDTFpx.s 			page 7


 343              	@ 546 ".//ChibiOS//os/ext/CMSIS/include/core_cmFunc.h" 1
 344 005a 83F31188 		MSR basepri, r3
 345              	@ 0 "" 2
 346              	.LVL17:
 347              		.loc 5 546 3 is_stmt 0 view .LVU70
 348              		.thumb
 349              		.syntax unified
 350              	.LBE176:
 351              	.LBE175:
 352              	.LBE177:
 353              	.LBE178:
 354              	.LBE180:
 355              	.LBE183:
 356              		.loc 1 102 1 view .LVU71
 357 005e 084B     		ldr	r3, .L28
 358 0060 1A68     		ldr	r2, [r3]
 359 0062 019B     		ldr	r3, [sp, #4]
 360 0064 5A40     		eors	r2, r3, r2
 361 0066 09D1     		bne	.L27
 362 0068 03B0     		add	sp, sp, #12
 363              		.cfi_remember_state
 364              		.cfi_def_cfa_offset 12
 365              		@ sp needed
 366 006a 30BD     		pop	{r4, r5, pc}
 367              	.LVL18:
 368              	.L26:
 369              		.cfi_restore_state
 370              	.LBB184:
 371              	.LBB181:
 372              	.LBB179:
 373              		.loc 3 367 3 is_stmt 1 view .LVU72
 374 006c 0748     		ldr	r0, .L28+12
 375 006e FFF7FEFF 		bl	chSysHalt
 376              	.LVL19:
 377 0072 F1E7     		b	.L20
 378              	.LVL20:
 379              	.L17:
 380              		.loc 3 367 3 is_stmt 0 view .LVU73
 381              	.LBE179:
 382              	.LBE181:
 383              	.LBE184:
 384              		.loc 1 93 3 is_stmt 1 discriminator 5 view .LVU74
 385 0074 0348     		ldr	r0, .L28+4
 386              	.LVL21:
 387              		.loc 1 93 3 is_stmt 0 discriminator 5 view .LVU75
 388 0076 FFF7FEFF 		bl	chSysHalt
 389              	.LVL22:
 390              		.loc 1 93 3 discriminator 5 view .LVU76
 391 007a CCE7     		b	.L18
 392              	.L27:
 393              		.loc 1 102 1 view .LVU77
 394 007c FFF7FEFF 		bl	__stack_chk_fail
 395              	.LVL23:
 396              	.L29:
 397              		.align	2
 398              	.L28:
 399 0080 00000000 		.word	.LC2
ARM GAS  /tmp/ccNDTFpx.s 			page 8


 400 0084 00000000 		.word	.LANCHOR0
 401 0088 00000000 		.word	ch
 402 008c 00000000 		.word	.LANCHOR1
 403              		.cfi_endproc
 404              	.LFE258:
 405              		.size	spiStart, .-spiStart
 406              		.section	.rodata.spiStop.cst4,"aM",%progbits,4
 407              		.align	2
 408              	.LC3:
 409 0000 00000000 		.word	__stack_chk_guard
 410              		.section	.text.spiStop,"ax",%progbits
 411              		.align	1
 412              		.p2align 4,,15
 413              		.global	spiStop
 414              		.syntax unified
 415              		.thumb
 416              		.thumb_func
 417              		.fpu fpv4-sp-d16
 418              		.type	spiStop, %function
 419              	spiStop:
 420              	.LVL24:
 421              	.LFB259:
 422              		.loc 1 113 31 is_stmt 1 view -0
 423              		.cfi_startproc
 424              		@ args = 0, pretend = 0, frame = 8
 425              		@ frame_needed = 0, uses_anonymous_args = 0
 426              		.loc 1 113 31 is_stmt 0 view .LVU79
 427 0000 10B5     		push	{r4, lr}
 428              		.cfi_def_cfa_offset 8
 429              		.cfi_offset 4, -8
 430              		.cfi_offset 14, -4
 431 0002 1E4B     		ldr	r3, .L39
 432 0004 82B0     		sub	sp, sp, #8
 433              		.cfi_def_cfa_offset 16
 434              		.loc 1 113 31 view .LVU80
 435 0006 1B68     		ldr	r3, [r3]
 436 0008 0193     		str	r3, [sp, #4]
 437 000a 4FF00003 		mov	r3,#0
 438              		.loc 1 115 3 is_stmt 1 view .LVU81
 439              		.loc 1 115 3 view .LVU82
 440              		.loc 1 115 3 view .LVU83
 441 000e 0446     		mov	r4, r0
 442 0010 68B3     		cbz	r0, .L36
 443              	.LVL25:
 444              	.L31:
 445              		.loc 1 115 3 discriminator 5 view .LVU84
 446              		.loc 1 117 3 discriminator 5 view .LVU85
 447              	.LBB198:
 448              	.LBI198:
 449              		.loc 2 445 20 discriminator 5 view .LVU86
 450              	.LBE198:
 451              		.loc 2 447 3 discriminator 5 view .LVU87
 452              	.LBB207:
 453              	.LBB199:
 454              	.LBI199:
 455              		.loc 3 346 20 discriminator 5 view .LVU88
 456              	.LBB200:
ARM GAS  /tmp/ccNDTFpx.s 			page 9


 457              		.loc 3 348 3 discriminator 5 view .LVU89
 458              	.LBB201:
 459              	.LBI201:
 460              		.loc 4 444 20 discriminator 5 view .LVU90
 461              	.LBE201:
 462              	.LBE200:
 463              	.LBE199:
 464              	.LBE207:
 465              		.loc 4 447 3 discriminator 5 view .LVU91
 466              	.LBB208:
 467              	.LBB206:
 468              	.LBB205:
 469              	.LBB204:
 470              	.LBB202:
 471              	.LBI202:
 472              		.loc 5 544 57 discriminator 5 view .LVU92
 473              	.LBB203:
 474              		.loc 5 546 3 discriminator 5 view .LVU93
 475 0012 2023     		movs	r3, #32
 476              		.syntax unified
 477              	@ 546 ".//ChibiOS//os/ext/CMSIS/include/core_cmFunc.h" 1
 478 0014 83F31188 		MSR basepri, r3
 479              	@ 0 "" 2
 480              	.LVL26:
 481              		.loc 5 546 3 is_stmt 0 discriminator 5 view .LVU94
 482              		.thumb
 483              		.syntax unified
 484              	.LBE203:
 485              	.LBE202:
 486              	.LBE204:
 487              		.loc 3 349 3 is_stmt 1 discriminator 5 view .LVU95
 488 0018 FFF7FEFF 		bl	_stats_start_measure_crit_thd
 489              	.LVL27:
 490              		.loc 3 350 3 discriminator 5 view .LVU96
 491 001c FFF7FEFF 		bl	_dbg_check_lock
 492              	.LVL28:
 493              	.LBE205:
 494              	.LBE206:
 495              	.LBE208:
 496              		.loc 1 118 3 discriminator 5 view .LVU97
 497              		.loc 1 118 3 discriminator 5 view .LVU98
 498              		.loc 1 118 3 discriminator 5 view .LVU99
 499 0020 2378     		ldrb	r3, [r4]	@ zero_extendqisi2
 500 0022 013B     		subs	r3, r3, #1
 501 0024 012B     		cmp	r3, #1
 502 0026 02D9     		bls	.L32
 503              		.loc 1 118 3 discriminator 3 view .LVU100
 504 0028 1548     		ldr	r0, .L39+4
 505 002a FFF7FEFF 		bl	chSysHalt
 506              	.LVL29:
 507              	.L32:
 508              		.loc 1 118 3 discriminator 5 view .LVU101
 509              		.loc 1 120 3 discriminator 5 view .LVU102
 510 002e 2046     		mov	r0, r4
 511 0030 FFF7FEFF 		bl	spi_lld_stop
 512              	.LVL30:
 513              		.loc 1 121 3 discriminator 5 view .LVU103
ARM GAS  /tmp/ccNDTFpx.s 			page 10


 514              		.loc 1 121 15 is_stmt 0 discriminator 5 view .LVU104
 515 0034 0123     		movs	r3, #1
 516 0036 2370     		strb	r3, [r4]
 517              		.loc 1 122 3 is_stmt 1 discriminator 5 view .LVU105
 518              	.LBB209:
 519              	.LBI209:
 520              		.loc 2 456 20 discriminator 5 view .LVU106
 521              	.LBE209:
 522              		.loc 2 458 3 discriminator 5 view .LVU107
 523              	.LBB220:
 524              	.LBB210:
 525              	.LBI210:
 526              		.loc 3 358 20 discriminator 5 view .LVU108
 527              	.LBB211:
 528              		.loc 3 360 3 discriminator 5 view .LVU109
 529 0038 FFF7FEFF 		bl	_dbg_check_unlock
 530              	.LVL31:
 531              		.loc 3 361 3 discriminator 5 view .LVU110
 532 003c FFF7FEFF 		bl	_stats_stop_measure_crit_thd
 533              	.LVL32:
 534              		.loc 3 367 3 discriminator 5 view .LVU111
 535              		.loc 3 367 3 discriminator 5 view .LVU112
 536              		.loc 3 367 3 discriminator 5 view .LVU113
 537 0040 104B     		ldr	r3, .L39+8
 538 0042 1A68     		ldr	r2, [r3]
 539 0044 9A42     		cmp	r2, r3
 540 0046 04D0     		beq	.L33
 541              		.loc 3 367 3 is_stmt 0 view .LVU114
 542 0048 9969     		ldr	r1, [r3, #24]
 543 004a 9368     		ldr	r3, [r2, #8]
 544 004c 8A68     		ldr	r2, [r1, #8]
 545 004e 9A42     		cmp	r2, r3
 546 0050 09D3     		bcc	.L37
 547              	.L33:
 548              		.loc 3 367 3 is_stmt 1 view .LVU115
 549              		.loc 3 371 3 view .LVU116
 550              	.LBB212:
 551              	.LBI212:
 552              		.loc 4 458 20 view .LVU117
 553              	.LBE212:
 554              	.LBE211:
 555              	.LBE210:
 556              	.LBE220:
 557              		.loc 4 461 3 view .LVU118
 558              	.LVL33:
 559              	.LBB221:
 560              	.LBB218:
 561              	.LBB216:
 562              	.LBB215:
 563              	.LBB213:
 564              	.LBI213:
 565              		.loc 5 544 57 view .LVU119
 566              	.LBB214:
 567              		.loc 5 546 3 view .LVU120
 568 0052 0023     		movs	r3, #0
 569              		.syntax unified
 570              	@ 546 ".//ChibiOS//os/ext/CMSIS/include/core_cmFunc.h" 1
ARM GAS  /tmp/ccNDTFpx.s 			page 11


 571 0054 83F31188 		MSR basepri, r3
 572              	@ 0 "" 2
 573              	.LVL34:
 574              		.loc 5 546 3 is_stmt 0 view .LVU121
 575              		.thumb
 576              		.syntax unified
 577              	.LBE214:
 578              	.LBE213:
 579              	.LBE215:
 580              	.LBE216:
 581              	.LBE218:
 582              	.LBE221:
 583              		.loc 1 123 1 view .LVU122
 584 0058 084B     		ldr	r3, .L39
 585 005a 1A68     		ldr	r2, [r3]
 586 005c 019B     		ldr	r3, [sp, #4]
 587 005e 5A40     		eors	r2, r3, r2
 588 0060 09D1     		bne	.L38
 589 0062 02B0     		add	sp, sp, #8
 590              		.cfi_remember_state
 591              		.cfi_def_cfa_offset 8
 592              		@ sp needed
 593 0064 10BD     		pop	{r4, pc}
 594              	.LVL35:
 595              	.L37:
 596              		.cfi_restore_state
 597              	.LBB222:
 598              	.LBB219:
 599              	.LBB217:
 600              		.loc 3 367 3 is_stmt 1 view .LVU123
 601 0066 0848     		ldr	r0, .L39+12
 602 0068 FFF7FEFF 		bl	chSysHalt
 603              	.LVL36:
 604 006c F1E7     		b	.L33
 605              	.LVL37:
 606              	.L36:
 607              		.loc 3 367 3 is_stmt 0 view .LVU124
 608              	.LBE217:
 609              	.LBE219:
 610              	.LBE222:
 611              		.loc 1 115 3 is_stmt 1 discriminator 3 view .LVU125
 612 006e 0448     		ldr	r0, .L39+4
 613              	.LVL38:
 614              		.loc 1 115 3 is_stmt 0 discriminator 3 view .LVU126
 615 0070 FFF7FEFF 		bl	chSysHalt
 616              	.LVL39:
 617 0074 CDE7     		b	.L31
 618              	.L38:
 619              		.loc 1 123 1 view .LVU127
 620 0076 FFF7FEFF 		bl	__stack_chk_fail
 621              	.LVL40:
 622              	.L40:
 623 007a 00BF     		.align	2
 624              	.L39:
 625 007c 00000000 		.word	.LC3
 626 0080 00000000 		.word	.LANCHOR2
 627 0084 00000000 		.word	ch
ARM GAS  /tmp/ccNDTFpx.s 			page 12


 628 0088 00000000 		.word	.LANCHOR1
 629              		.cfi_endproc
 630              	.LFE259:
 631              		.size	spiStop, .-spiStop
 632              		.section	.rodata.spiSelect.cst4,"aM",%progbits,4
 633              		.align	2
 634              	.LC4:
 635 0000 00000000 		.word	__stack_chk_guard
 636              		.section	.text.spiSelect,"ax",%progbits
 637              		.align	1
 638              		.p2align 4,,15
 639              		.global	spiSelect
 640              		.syntax unified
 641              		.thumb
 642              		.thumb_func
 643              		.fpu fpv4-sp-d16
 644              		.type	spiSelect, %function
 645              	spiSelect:
 646              	.LVL41:
 647              	.LFB260:
 648              		.loc 1 132 33 is_stmt 1 view -0
 649              		.cfi_startproc
 650              		@ args = 0, pretend = 0, frame = 8
 651              		@ frame_needed = 0, uses_anonymous_args = 0
 652              		.loc 1 132 33 is_stmt 0 view .LVU129
 653 0000 10B5     		push	{r4, lr}
 654              		.cfi_def_cfa_offset 8
 655              		.cfi_offset 4, -8
 656              		.cfi_offset 14, -4
 657 0002 1C4B     		ldr	r3, .L53
 658 0004 82B0     		sub	sp, sp, #8
 659              		.cfi_def_cfa_offset 16
 660              		.loc 1 132 33 view .LVU130
 661 0006 1B68     		ldr	r3, [r3]
 662 0008 0193     		str	r3, [sp, #4]
 663 000a 4FF00003 		mov	r3,#0
 664              		.loc 1 134 3 is_stmt 1 view .LVU131
 665              		.loc 1 134 3 view .LVU132
 666              		.loc 1 134 3 view .LVU133
 667 000e 0446     		mov	r4, r0
 668 0010 50B3     		cbz	r0, .L50
 669              	.LVL42:
 670              	.L42:
 671              		.loc 1 134 3 discriminator 5 view .LVU134
 672              		.loc 1 136 3 discriminator 5 view .LVU135
 673              	.LBB236:
 674              	.LBI236:
 675              		.loc 2 445 20 discriminator 5 view .LVU136
 676              	.LBE236:
 677              		.loc 2 447 3 discriminator 5 view .LVU137
 678              	.LBB245:
 679              	.LBB237:
 680              	.LBI237:
 681              		.loc 3 346 20 discriminator 5 view .LVU138
 682              	.LBB238:
 683              		.loc 3 348 3 discriminator 5 view .LVU139
 684              	.LBB239:
ARM GAS  /tmp/ccNDTFpx.s 			page 13


 685              	.LBI239:
 686              		.loc 4 444 20 discriminator 5 view .LVU140
 687              	.LBE239:
 688              	.LBE238:
 689              	.LBE237:
 690              	.LBE245:
 691              		.loc 4 447 3 discriminator 5 view .LVU141
 692              	.LBB246:
 693              	.LBB244:
 694              	.LBB243:
 695              	.LBB242:
 696              	.LBB240:
 697              	.LBI240:
 698              		.loc 5 544 57 discriminator 5 view .LVU142
 699              	.LBB241:
 700              		.loc 5 546 3 discriminator 5 view .LVU143
 701 0012 2023     		movs	r3, #32
 702              		.syntax unified
 703              	@ 546 ".//ChibiOS//os/ext/CMSIS/include/core_cmFunc.h" 1
 704 0014 83F31188 		MSR basepri, r3
 705              	@ 0 "" 2
 706              	.LVL43:
 707              		.loc 5 546 3 is_stmt 0 discriminator 5 view .LVU144
 708              		.thumb
 709              		.syntax unified
 710              	.LBE241:
 711              	.LBE240:
 712              	.LBE242:
 713              		.loc 3 349 3 is_stmt 1 discriminator 5 view .LVU145
 714 0018 FFF7FEFF 		bl	_stats_start_measure_crit_thd
 715              	.LVL44:
 716              		.loc 3 350 3 discriminator 5 view .LVU146
 717 001c FFF7FEFF 		bl	_dbg_check_lock
 718              	.LVL45:
 719              	.LBE243:
 720              	.LBE244:
 721              	.LBE246:
 722              		.loc 1 137 3 discriminator 5 view .LVU147
 723              		.loc 1 137 3 discriminator 5 view .LVU148
 724              		.loc 1 137 3 discriminator 5 view .LVU149
 725 0020 2378     		ldrb	r3, [r4]	@ zero_extendqisi2
 726 0022 022B     		cmp	r3, #2
 727 0024 02D0     		beq	.L43
 728              		.loc 1 137 3 discriminator 3 view .LVU150
 729 0026 1448     		ldr	r0, .L53+4
 730 0028 FFF7FEFF 		bl	chSysHalt
 731              	.LVL46:
 732              	.L43:
 733              		.loc 1 137 3 discriminator 5 view .LVU151
 734              		.loc 1 138 3 discriminator 5 view .LVU152
 735 002c 2046     		mov	r0, r4
 736 002e FFF7FEFF 		bl	spi_lld_select
 737              	.LVL47:
 738              		.loc 1 138 19 discriminator 5 view .LVU153
 739              		.loc 1 139 3 discriminator 5 view .LVU154
 740              	.LBB247:
 741              	.LBI247:
ARM GAS  /tmp/ccNDTFpx.s 			page 14


 742              		.loc 2 456 20 discriminator 5 view .LVU155
 743              	.LBE247:
 744              		.loc 2 458 3 discriminator 5 view .LVU156
 745              	.LBB258:
 746              	.LBB248:
 747              	.LBI248:
 748              		.loc 3 358 20 discriminator 5 view .LVU157
 749              	.LBB249:
 750              		.loc 3 360 3 discriminator 5 view .LVU158
 751 0032 FFF7FEFF 		bl	_dbg_check_unlock
 752              	.LVL48:
 753              		.loc 3 361 3 discriminator 5 view .LVU159
 754 0036 FFF7FEFF 		bl	_stats_stop_measure_crit_thd
 755              	.LVL49:
 756              		.loc 3 367 3 discriminator 5 view .LVU160
 757              		.loc 3 367 3 discriminator 5 view .LVU161
 758              		.loc 3 367 3 discriminator 5 view .LVU162
 759 003a 104B     		ldr	r3, .L53+8
 760 003c 1A68     		ldr	r2, [r3]
 761 003e 9A42     		cmp	r2, r3
 762 0040 04D0     		beq	.L44
 763              		.loc 3 367 3 is_stmt 0 view .LVU163
 764 0042 9969     		ldr	r1, [r3, #24]
 765 0044 9368     		ldr	r3, [r2, #8]
 766 0046 8A68     		ldr	r2, [r1, #8]
 767 0048 9A42     		cmp	r2, r3
 768 004a 09D3     		bcc	.L51
 769              	.L44:
 770              		.loc 3 367 3 is_stmt 1 view .LVU164
 771              		.loc 3 371 3 view .LVU165
 772              	.LBB250:
 773              	.LBI250:
 774              		.loc 4 458 20 view .LVU166
 775              	.LBE250:
 776              	.LBE249:
 777              	.LBE248:
 778              	.LBE258:
 779              		.loc 4 461 3 view .LVU167
 780              	.LVL50:
 781              	.LBB259:
 782              	.LBB256:
 783              	.LBB254:
 784              	.LBB253:
 785              	.LBB251:
 786              	.LBI251:
 787              		.loc 5 544 57 view .LVU168
 788              	.LBB252:
 789              		.loc 5 546 3 view .LVU169
 790 004c 0023     		movs	r3, #0
 791              		.syntax unified
 792              	@ 546 ".//ChibiOS//os/ext/CMSIS/include/core_cmFunc.h" 1
 793 004e 83F31188 		MSR basepri, r3
 794              	@ 0 "" 2
 795              	.LVL51:
 796              		.loc 5 546 3 is_stmt 0 view .LVU170
 797              		.thumb
 798              		.syntax unified
ARM GAS  /tmp/ccNDTFpx.s 			page 15


 799              	.LBE252:
 800              	.LBE251:
 801              	.LBE253:
 802              	.LBE254:
 803              	.LBE256:
 804              	.LBE259:
 805              		.loc 1 140 1 view .LVU171
 806 0052 084B     		ldr	r3, .L53
 807 0054 1A68     		ldr	r2, [r3]
 808 0056 019B     		ldr	r3, [sp, #4]
 809 0058 5A40     		eors	r2, r3, r2
 810 005a 09D1     		bne	.L52
 811 005c 02B0     		add	sp, sp, #8
 812              		.cfi_remember_state
 813              		.cfi_def_cfa_offset 8
 814              		@ sp needed
 815 005e 10BD     		pop	{r4, pc}
 816              	.LVL52:
 817              	.L51:
 818              		.cfi_restore_state
 819              	.LBB260:
 820              	.LBB257:
 821              	.LBB255:
 822              		.loc 3 367 3 is_stmt 1 view .LVU172
 823 0060 0748     		ldr	r0, .L53+12
 824 0062 FFF7FEFF 		bl	chSysHalt
 825              	.LVL53:
 826 0066 F1E7     		b	.L44
 827              	.LVL54:
 828              	.L50:
 829              		.loc 3 367 3 is_stmt 0 view .LVU173
 830              	.LBE255:
 831              	.LBE257:
 832              	.LBE260:
 833              		.loc 1 134 3 is_stmt 1 discriminator 3 view .LVU174
 834 0068 0348     		ldr	r0, .L53+4
 835              	.LVL55:
 836              		.loc 1 134 3 is_stmt 0 discriminator 3 view .LVU175
 837 006a FFF7FEFF 		bl	chSysHalt
 838              	.LVL56:
 839 006e D0E7     		b	.L42
 840              	.L52:
 841              		.loc 1 140 1 view .LVU176
 842 0070 FFF7FEFF 		bl	__stack_chk_fail
 843              	.LVL57:
 844              	.L54:
 845              		.align	2
 846              	.L53:
 847 0074 00000000 		.word	.LC4
 848 0078 00000000 		.word	.LANCHOR3
 849 007c 00000000 		.word	ch
 850 0080 00000000 		.word	.LANCHOR1
 851              		.cfi_endproc
 852              	.LFE260:
 853              		.size	spiSelect, .-spiSelect
 854              		.section	.rodata.spiUnselect.cst4,"aM",%progbits,4
 855              		.align	2
ARM GAS  /tmp/ccNDTFpx.s 			page 16


 856              	.LC5:
 857 0000 00000000 		.word	__stack_chk_guard
 858              		.section	.text.spiUnselect,"ax",%progbits
 859              		.align	1
 860              		.p2align 4,,15
 861              		.global	spiUnselect
 862              		.syntax unified
 863              		.thumb
 864              		.thumb_func
 865              		.fpu fpv4-sp-d16
 866              		.type	spiUnselect, %function
 867              	spiUnselect:
 868              	.LVL58:
 869              	.LFB261:
 870              		.loc 1 150 35 is_stmt 1 view -0
 871              		.cfi_startproc
 872              		@ args = 0, pretend = 0, frame = 8
 873              		@ frame_needed = 0, uses_anonymous_args = 0
 874              		.loc 1 150 35 is_stmt 0 view .LVU178
 875 0000 10B5     		push	{r4, lr}
 876              		.cfi_def_cfa_offset 8
 877              		.cfi_offset 4, -8
 878              		.cfi_offset 14, -4
 879 0002 1C4B     		ldr	r3, .L67
 880 0004 82B0     		sub	sp, sp, #8
 881              		.cfi_def_cfa_offset 16
 882              		.loc 1 150 35 view .LVU179
 883 0006 1B68     		ldr	r3, [r3]
 884 0008 0193     		str	r3, [sp, #4]
 885 000a 4FF00003 		mov	r3,#0
 886              		.loc 1 152 3 is_stmt 1 view .LVU180
 887              		.loc 1 152 3 view .LVU181
 888              		.loc 1 152 3 view .LVU182
 889 000e 0446     		mov	r4, r0
 890 0010 50B3     		cbz	r0, .L64
 891              	.LVL59:
 892              	.L56:
 893              		.loc 1 152 3 discriminator 5 view .LVU183
 894              		.loc 1 154 3 discriminator 5 view .LVU184
 895              	.LBB274:
 896              	.LBI274:
 897              		.loc 2 445 20 discriminator 5 view .LVU185
 898              	.LBE274:
 899              		.loc 2 447 3 discriminator 5 view .LVU186
 900              	.LBB283:
 901              	.LBB275:
 902              	.LBI275:
 903              		.loc 3 346 20 discriminator 5 view .LVU187
 904              	.LBB276:
 905              		.loc 3 348 3 discriminator 5 view .LVU188
 906              	.LBB277:
 907              	.LBI277:
 908              		.loc 4 444 20 discriminator 5 view .LVU189
 909              	.LBE277:
 910              	.LBE276:
 911              	.LBE275:
 912              	.LBE283:
ARM GAS  /tmp/ccNDTFpx.s 			page 17


 913              		.loc 4 447 3 discriminator 5 view .LVU190
 914              	.LBB284:
 915              	.LBB282:
 916              	.LBB281:
 917              	.LBB280:
 918              	.LBB278:
 919              	.LBI278:
 920              		.loc 5 544 57 discriminator 5 view .LVU191
 921              	.LBB279:
 922              		.loc 5 546 3 discriminator 5 view .LVU192
 923 0012 2023     		movs	r3, #32
 924              		.syntax unified
 925              	@ 546 ".//ChibiOS//os/ext/CMSIS/include/core_cmFunc.h" 1
 926 0014 83F31188 		MSR basepri, r3
 927              	@ 0 "" 2
 928              	.LVL60:
 929              		.loc 5 546 3 is_stmt 0 discriminator 5 view .LVU193
 930              		.thumb
 931              		.syntax unified
 932              	.LBE279:
 933              	.LBE278:
 934              	.LBE280:
 935              		.loc 3 349 3 is_stmt 1 discriminator 5 view .LVU194
 936 0018 FFF7FEFF 		bl	_stats_start_measure_crit_thd
 937              	.LVL61:
 938              		.loc 3 350 3 discriminator 5 view .LVU195
 939 001c FFF7FEFF 		bl	_dbg_check_lock
 940              	.LVL62:
 941              	.LBE281:
 942              	.LBE282:
 943              	.LBE284:
 944              		.loc 1 155 3 discriminator 5 view .LVU196
 945              		.loc 1 155 3 discriminator 5 view .LVU197
 946              		.loc 1 155 3 discriminator 5 view .LVU198
 947 0020 2378     		ldrb	r3, [r4]	@ zero_extendqisi2
 948 0022 022B     		cmp	r3, #2
 949 0024 02D0     		beq	.L57
 950              		.loc 1 155 3 discriminator 3 view .LVU199
 951 0026 1448     		ldr	r0, .L67+4
 952 0028 FFF7FEFF 		bl	chSysHalt
 953              	.LVL63:
 954              	.L57:
 955              		.loc 1 155 3 discriminator 5 view .LVU200
 956              		.loc 1 156 3 discriminator 5 view .LVU201
 957 002c 2046     		mov	r0, r4
 958 002e FFF7FEFF 		bl	spi_lld_unselect
 959              	.LVL64:
 960              		.loc 1 156 21 discriminator 5 view .LVU202
 961              		.loc 1 157 3 discriminator 5 view .LVU203
 962              	.LBB285:
 963              	.LBI285:
 964              		.loc 2 456 20 discriminator 5 view .LVU204
 965              	.LBE285:
 966              		.loc 2 458 3 discriminator 5 view .LVU205
 967              	.LBB296:
 968              	.LBB286:
 969              	.LBI286:
ARM GAS  /tmp/ccNDTFpx.s 			page 18


 970              		.loc 3 358 20 discriminator 5 view .LVU206
 971              	.LBB287:
 972              		.loc 3 360 3 discriminator 5 view .LVU207
 973 0032 FFF7FEFF 		bl	_dbg_check_unlock
 974              	.LVL65:
 975              		.loc 3 361 3 discriminator 5 view .LVU208
 976 0036 FFF7FEFF 		bl	_stats_stop_measure_crit_thd
 977              	.LVL66:
 978              		.loc 3 367 3 discriminator 5 view .LVU209
 979              		.loc 3 367 3 discriminator 5 view .LVU210
 980              		.loc 3 367 3 discriminator 5 view .LVU211
 981 003a 104B     		ldr	r3, .L67+8
 982 003c 1A68     		ldr	r2, [r3]
 983 003e 9A42     		cmp	r2, r3
 984 0040 04D0     		beq	.L58
 985              		.loc 3 367 3 is_stmt 0 view .LVU212
 986 0042 9969     		ldr	r1, [r3, #24]
 987 0044 9368     		ldr	r3, [r2, #8]
 988 0046 8A68     		ldr	r2, [r1, #8]
 989 0048 9A42     		cmp	r2, r3
 990 004a 09D3     		bcc	.L65
 991              	.L58:
 992              		.loc 3 367 3 is_stmt 1 view .LVU213
 993              		.loc 3 371 3 view .LVU214
 994              	.LBB288:
 995              	.LBI288:
 996              		.loc 4 458 20 view .LVU215
 997              	.LBE288:
 998              	.LBE287:
 999              	.LBE286:
 1000              	.LBE296:
 1001              		.loc 4 461 3 view .LVU216
 1002              	.LVL67:
 1003              	.LBB297:
 1004              	.LBB294:
 1005              	.LBB292:
 1006              	.LBB291:
 1007              	.LBB289:
 1008              	.LBI289:
 1009              		.loc 5 544 57 view .LVU217
 1010              	.LBB290:
 1011              		.loc 5 546 3 view .LVU218
 1012 004c 0023     		movs	r3, #0
 1013              		.syntax unified
 1014              	@ 546 ".//ChibiOS//os/ext/CMSIS/include/core_cmFunc.h" 1
 1015 004e 83F31188 		MSR basepri, r3
 1016              	@ 0 "" 2
 1017              	.LVL68:
 1018              		.loc 5 546 3 is_stmt 0 view .LVU219
 1019              		.thumb
 1020              		.syntax unified
 1021              	.LBE290:
 1022              	.LBE289:
 1023              	.LBE291:
 1024              	.LBE292:
 1025              	.LBE294:
 1026              	.LBE297:
ARM GAS  /tmp/ccNDTFpx.s 			page 19


 1027              		.loc 1 158 1 view .LVU220
 1028 0052 084B     		ldr	r3, .L67
 1029 0054 1A68     		ldr	r2, [r3]
 1030 0056 019B     		ldr	r3, [sp, #4]
 1031 0058 5A40     		eors	r2, r3, r2
 1032 005a 09D1     		bne	.L66
 1033 005c 02B0     		add	sp, sp, #8
 1034              		.cfi_remember_state
 1035              		.cfi_def_cfa_offset 8
 1036              		@ sp needed
 1037 005e 10BD     		pop	{r4, pc}
 1038              	.LVL69:
 1039              	.L65:
 1040              		.cfi_restore_state
 1041              	.LBB298:
 1042              	.LBB295:
 1043              	.LBB293:
 1044              		.loc 3 367 3 is_stmt 1 view .LVU221
 1045 0060 0748     		ldr	r0, .L67+12
 1046 0062 FFF7FEFF 		bl	chSysHalt
 1047              	.LVL70:
 1048 0066 F1E7     		b	.L58
 1049              	.LVL71:
 1050              	.L64:
 1051              		.loc 3 367 3 is_stmt 0 view .LVU222
 1052              	.LBE293:
 1053              	.LBE295:
 1054              	.LBE298:
 1055              		.loc 1 152 3 is_stmt 1 discriminator 3 view .LVU223
 1056 0068 0348     		ldr	r0, .L67+4
 1057              	.LVL72:
 1058              		.loc 1 152 3 is_stmt 0 discriminator 3 view .LVU224
 1059 006a FFF7FEFF 		bl	chSysHalt
 1060              	.LVL73:
 1061 006e D0E7     		b	.L56
 1062              	.L66:
 1063              		.loc 1 158 1 view .LVU225
 1064 0070 FFF7FEFF 		bl	__stack_chk_fail
 1065              	.LVL74:
 1066              	.L68:
 1067              		.align	2
 1068              	.L67:
 1069 0074 00000000 		.word	.LC5
 1070 0078 00000000 		.word	.LANCHOR4
 1071 007c 00000000 		.word	ch
 1072 0080 00000000 		.word	.LANCHOR1
 1073              		.cfi_endproc
 1074              	.LFE261:
 1075              		.size	spiUnselect, .-spiUnselect
 1076              		.section	.rodata.spiStartIgnore.cst4,"aM",%progbits,4
 1077              		.align	2
 1078              	.LC6:
 1079 0000 00000000 		.word	__stack_chk_guard
 1080              		.section	.text.spiStartIgnore,"ax",%progbits
 1081              		.align	1
 1082              		.p2align 4,,15
 1083              		.global	spiStartIgnore
ARM GAS  /tmp/ccNDTFpx.s 			page 20


 1084              		.syntax unified
 1085              		.thumb
 1086              		.thumb_func
 1087              		.fpu fpv4-sp-d16
 1088              		.type	spiStartIgnore, %function
 1089              	spiStartIgnore:
 1090              	.LVL75:
 1091              	.LFB262:
 1092              		.loc 1 173 48 is_stmt 1 view -0
 1093              		.cfi_startproc
 1094              		@ args = 0, pretend = 0, frame = 8
 1095              		@ frame_needed = 0, uses_anonymous_args = 0
 1096              		.loc 1 173 48 is_stmt 0 view .LVU227
 1097 0000 30B5     		push	{r4, r5, lr}
 1098              		.cfi_def_cfa_offset 12
 1099              		.cfi_offset 4, -12
 1100              		.cfi_offset 5, -8
 1101              		.cfi_offset 14, -4
 1102 0002 1F4B     		ldr	r3, .L84
 1103 0004 83B0     		sub	sp, sp, #12
 1104              		.cfi_def_cfa_offset 24
 1105              		.loc 1 173 48 view .LVU228
 1106 0006 0D46     		mov	r5, r1
 1107 0008 1B68     		ldr	r3, [r3]
 1108 000a 0193     		str	r3, [sp, #4]
 1109 000c 4FF00003 		mov	r3,#0
 1110              		.loc 1 175 3 is_stmt 1 view .LVU229
 1111              		.loc 1 175 3 view .LVU230
 1112              		.loc 1 175 3 view .LVU231
 1113 0010 0446     		mov	r4, r0
 1114 0012 50B3     		cbz	r0, .L70
 1115              		.loc 1 175 3 is_stmt 0 discriminator 4 view .LVU232
 1116 0014 49B3     		cbz	r1, .L70
 1117              	.LVL76:
 1118              	.L71:
 1119              		.loc 1 175 3 is_stmt 1 discriminator 7 view .LVU233
 1120              		.loc 1 177 3 discriminator 7 view .LVU234
 1121              	.LBB312:
 1122              	.LBI312:
 1123              		.loc 2 445 20 discriminator 7 view .LVU235
 1124              	.LBE312:
 1125              		.loc 2 447 3 discriminator 7 view .LVU236
 1126              	.LBB321:
 1127              	.LBB313:
 1128              	.LBI313:
 1129              		.loc 3 346 20 discriminator 7 view .LVU237
 1130              	.LBB314:
 1131              		.loc 3 348 3 discriminator 7 view .LVU238
 1132              	.LBB315:
 1133              	.LBI315:
 1134              		.loc 4 444 20 discriminator 7 view .LVU239
 1135              	.LBE315:
 1136              	.LBE314:
 1137              	.LBE313:
 1138              	.LBE321:
 1139              		.loc 4 447 3 discriminator 7 view .LVU240
 1140              	.LBB322:
ARM GAS  /tmp/ccNDTFpx.s 			page 21


 1141              	.LBB320:
 1142              	.LBB319:
 1143              	.LBB318:
 1144              	.LBB316:
 1145              	.LBI316:
 1146              		.loc 5 544 57 discriminator 7 view .LVU241
 1147              	.LBB317:
 1148              		.loc 5 546 3 discriminator 7 view .LVU242
 1149 0016 2023     		movs	r3, #32
 1150              		.syntax unified
 1151              	@ 546 ".//ChibiOS//os/ext/CMSIS/include/core_cmFunc.h" 1
 1152 0018 83F31188 		MSR basepri, r3
 1153              	@ 0 "" 2
 1154              	.LVL77:
 1155              		.loc 5 546 3 is_stmt 0 discriminator 7 view .LVU243
 1156              		.thumb
 1157              		.syntax unified
 1158              	.LBE317:
 1159              	.LBE316:
 1160              	.LBE318:
 1161              		.loc 3 349 3 is_stmt 1 discriminator 7 view .LVU244
 1162 001c FFF7FEFF 		bl	_stats_start_measure_crit_thd
 1163              	.LVL78:
 1164              		.loc 3 350 3 discriminator 7 view .LVU245
 1165 0020 FFF7FEFF 		bl	_dbg_check_lock
 1166              	.LVL79:
 1167              	.LBE319:
 1168              	.LBE320:
 1169              	.LBE322:
 1170              		.loc 1 178 3 discriminator 7 view .LVU246
 1171              		.loc 1 178 3 discriminator 7 view .LVU247
 1172              		.loc 1 178 3 discriminator 7 view .LVU248
 1173 0024 2378     		ldrb	r3, [r4]	@ zero_extendqisi2
 1174 0026 022B     		cmp	r3, #2
 1175 0028 02D0     		beq	.L72
 1176              		.loc 1 178 3 discriminator 3 view .LVU249
 1177 002a 1648     		ldr	r0, .L84+4
 1178 002c FFF7FEFF 		bl	chSysHalt
 1179              	.LVL80:
 1180              	.L72:
 1181              		.loc 1 178 3 discriminator 5 view .LVU250
 1182              		.loc 1 179 3 discriminator 5 view .LVU251
 1183 0030 0323     		movs	r3, #3
 1184 0032 2370     		strb	r3, [r4]
 1185              		.loc 1 179 3 discriminator 5 view .LVU252
 1186 0034 2946     		mov	r1, r5
 1187 0036 2046     		mov	r0, r4
 1188 0038 FFF7FEFF 		bl	spi_lld_ignore
 1189              	.LVL81:
 1190              		.loc 1 179 27 discriminator 5 view .LVU253
 1191              		.loc 1 180 3 discriminator 5 view .LVU254
 1192              	.LBB323:
 1193              	.LBI323:
 1194              		.loc 2 456 20 discriminator 5 view .LVU255
 1195              	.LBE323:
 1196              		.loc 2 458 3 discriminator 5 view .LVU256
 1197              	.LBB334:
ARM GAS  /tmp/ccNDTFpx.s 			page 22


 1198              	.LBB324:
 1199              	.LBI324:
 1200              		.loc 3 358 20 discriminator 5 view .LVU257
 1201              	.LBB325:
 1202              		.loc 3 360 3 discriminator 5 view .LVU258
 1203 003c FFF7FEFF 		bl	_dbg_check_unlock
 1204              	.LVL82:
 1205              		.loc 3 361 3 discriminator 5 view .LVU259
 1206 0040 FFF7FEFF 		bl	_stats_stop_measure_crit_thd
 1207              	.LVL83:
 1208              		.loc 3 367 3 discriminator 5 view .LVU260
 1209              		.loc 3 367 3 discriminator 5 view .LVU261
 1210              		.loc 3 367 3 discriminator 5 view .LVU262
 1211 0044 104B     		ldr	r3, .L84+8
 1212 0046 1A68     		ldr	r2, [r3]
 1213 0048 9A42     		cmp	r2, r3
 1214 004a 04D0     		beq	.L73
 1215              		.loc 3 367 3 is_stmt 0 view .LVU263
 1216 004c 9969     		ldr	r1, [r3, #24]
 1217 004e 9368     		ldr	r3, [r2, #8]
 1218 0050 8A68     		ldr	r2, [r1, #8]
 1219 0052 9A42     		cmp	r2, r3
 1220 0054 0DD3     		bcc	.L82
 1221              	.L73:
 1222              		.loc 3 367 3 is_stmt 1 view .LVU264
 1223              		.loc 3 371 3 view .LVU265
 1224              	.LBB326:
 1225              	.LBI326:
 1226              		.loc 4 458 20 view .LVU266
 1227              	.LBE326:
 1228              	.LBE325:
 1229              	.LBE324:
 1230              	.LBE334:
 1231              		.loc 4 461 3 view .LVU267
 1232              	.LVL84:
 1233              	.LBB335:
 1234              	.LBB332:
 1235              	.LBB330:
 1236              	.LBB329:
 1237              	.LBB327:
 1238              	.LBI327:
 1239              		.loc 5 544 57 view .LVU268
 1240              	.LBB328:
 1241              		.loc 5 546 3 view .LVU269
 1242 0056 0023     		movs	r3, #0
 1243              		.syntax unified
 1244              	@ 546 ".//ChibiOS//os/ext/CMSIS/include/core_cmFunc.h" 1
 1245 0058 83F31188 		MSR basepri, r3
 1246              	@ 0 "" 2
 1247              	.LVL85:
 1248              		.loc 5 546 3 is_stmt 0 view .LVU270
 1249              		.thumb
 1250              		.syntax unified
 1251              	.LBE328:
 1252              	.LBE327:
 1253              	.LBE329:
 1254              	.LBE330:
ARM GAS  /tmp/ccNDTFpx.s 			page 23


 1255              	.LBE332:
 1256              	.LBE335:
 1257              		.loc 1 181 1 view .LVU271
 1258 005c 084B     		ldr	r3, .L84
 1259 005e 1A68     		ldr	r2, [r3]
 1260 0060 019B     		ldr	r3, [sp, #4]
 1261 0062 5A40     		eors	r2, r3, r2
 1262 0064 09D1     		bne	.L83
 1263 0066 03B0     		add	sp, sp, #12
 1264              		.cfi_remember_state
 1265              		.cfi_def_cfa_offset 12
 1266              		@ sp needed
 1267 0068 30BD     		pop	{r4, r5, pc}
 1268              	.LVL86:
 1269              	.L70:
 1270              		.cfi_restore_state
 1271              		.loc 1 175 3 is_stmt 1 discriminator 5 view .LVU272
 1272 006a 0648     		ldr	r0, .L84+4
 1273              	.LVL87:
 1274              		.loc 1 175 3 is_stmt 0 discriminator 5 view .LVU273
 1275 006c FFF7FEFF 		bl	chSysHalt
 1276              	.LVL88:
 1277              		.loc 1 175 3 discriminator 5 view .LVU274
 1278 0070 D1E7     		b	.L71
 1279              	.L82:
 1280              	.LBB336:
 1281              	.LBB333:
 1282              	.LBB331:
 1283              		.loc 3 367 3 is_stmt 1 view .LVU275
 1284 0072 0648     		ldr	r0, .L84+12
 1285 0074 FFF7FEFF 		bl	chSysHalt
 1286              	.LVL89:
 1287 0078 EDE7     		b	.L73
 1288              	.L83:
 1289              	.LBE331:
 1290              	.LBE333:
 1291              	.LBE336:
 1292              		.loc 1 181 1 is_stmt 0 view .LVU276
 1293 007a FFF7FEFF 		bl	__stack_chk_fail
 1294              	.LVL90:
 1295              	.L85:
 1296 007e 00BF     		.align	2
 1297              	.L84:
 1298 0080 00000000 		.word	.LC6
 1299 0084 00000000 		.word	.LANCHOR5
 1300 0088 00000000 		.word	ch
 1301 008c 00000000 		.word	.LANCHOR1
 1302              		.cfi_endproc
 1303              	.LFE262:
 1304              		.size	spiStartIgnore, .-spiStartIgnore
 1305              		.section	.rodata.spiStartExchange.cst4,"aM",%progbits,4
 1306              		.align	2
 1307              	.LC7:
 1308 0000 00000000 		.word	__stack_chk_guard
 1309              		.section	.text.spiStartExchange,"ax",%progbits
 1310              		.align	1
 1311              		.p2align 4,,15
ARM GAS  /tmp/ccNDTFpx.s 			page 24


 1312              		.global	spiStartExchange
 1313              		.syntax unified
 1314              		.thumb
 1315              		.thumb_func
 1316              		.fpu fpv4-sp-d16
 1317              		.type	spiStartExchange, %function
 1318              	spiStartExchange:
 1319              	.LVL91:
 1320              	.LFB263:
 1321              		.loc 1 201 55 is_stmt 1 view -0
 1322              		.cfi_startproc
 1323              		@ args = 0, pretend = 0, frame = 8
 1324              		@ frame_needed = 0, uses_anonymous_args = 0
 1325              		.loc 1 201 55 is_stmt 0 view .LVU278
 1326 0000 F0B5     		push	{r4, r5, r6, r7, lr}
 1327              		.cfi_def_cfa_offset 20
 1328              		.cfi_offset 4, -20
 1329              		.cfi_offset 5, -16
 1330              		.cfi_offset 6, -12
 1331              		.cfi_offset 7, -8
 1332              		.cfi_offset 14, -4
 1333 0002 1E46     		mov	r6, r3
 1334 0004 224B     		ldr	r3, .L108
 1335              	.LVL92:
 1336              		.loc 1 201 55 view .LVU279
 1337 0006 83B0     		sub	sp, sp, #12
 1338              		.cfi_def_cfa_offset 32
 1339              		.loc 1 201 55 view .LVU280
 1340 0008 0D46     		mov	r5, r1
 1341 000a 1746     		mov	r7, r2
 1342 000c 1B68     		ldr	r3, [r3]
 1343 000e 0193     		str	r3, [sp, #4]
 1344 0010 4FF00003 		mov	r3,#0
 1345              		.loc 1 203 3 is_stmt 1 view .LVU281
 1346              		.loc 1 203 3 view .LVU282
 1347              		.loc 1 203 3 view .LVU283
 1348 0014 0446     		mov	r4, r0
 1349 0016 00B1     		cbz	r0, .L87
 1350              		.loc 1 203 3 is_stmt 0 discriminator 4 view .LVU284
 1351 0018 71BB     		cbnz	r1, .L105
 1352              	.L87:
 1353              		.loc 1 203 3 is_stmt 1 discriminator 9 view .LVU285
 1354 001a 1E48     		ldr	r0, .L108+4
 1355              	.LVL93:
 1356              		.loc 1 203 3 is_stmt 0 discriminator 9 view .LVU286
 1357 001c FFF7FEFF 		bl	chSysHalt
 1358              	.LVL94:
 1359              	.L88:
 1360              		.loc 1 203 3 is_stmt 1 discriminator 11 view .LVU287
 1361              		.loc 1 206 3 discriminator 11 view .LVU288
 1362              	.LBB350:
 1363              	.LBI350:
 1364              		.loc 2 445 20 discriminator 11 view .LVU289
 1365              	.LBE350:
 1366              		.loc 2 447 3 discriminator 11 view .LVU290
 1367              	.LBB359:
 1368              	.LBB351:
ARM GAS  /tmp/ccNDTFpx.s 			page 25


 1369              	.LBI351:
 1370              		.loc 3 346 20 discriminator 11 view .LVU291
 1371              	.LBB352:
 1372              		.loc 3 348 3 discriminator 11 view .LVU292
 1373              	.LBB353:
 1374              	.LBI353:
 1375              		.loc 4 444 20 discriminator 11 view .LVU293
 1376              	.LBE353:
 1377              	.LBE352:
 1378              	.LBE351:
 1379              	.LBE359:
 1380              		.loc 4 447 3 discriminator 11 view .LVU294
 1381              	.LBB360:
 1382              	.LBB358:
 1383              	.LBB357:
 1384              	.LBB356:
 1385              	.LBB354:
 1386              	.LBI354:
 1387              		.loc 5 544 57 discriminator 11 view .LVU295
 1388              	.LBB355:
 1389              		.loc 5 546 3 discriminator 11 view .LVU296
 1390 0020 2023     		movs	r3, #32
 1391              		.syntax unified
 1392              	@ 546 ".//ChibiOS//os/ext/CMSIS/include/core_cmFunc.h" 1
 1393 0022 83F31188 		MSR basepri, r3
 1394              	@ 0 "" 2
 1395              	.LVL95:
 1396              		.loc 5 546 3 is_stmt 0 discriminator 11 view .LVU297
 1397              		.thumb
 1398              		.syntax unified
 1399              	.LBE355:
 1400              	.LBE354:
 1401              	.LBE356:
 1402              		.loc 3 349 3 is_stmt 1 discriminator 11 view .LVU298
 1403 0026 FFF7FEFF 		bl	_stats_start_measure_crit_thd
 1404              	.LVL96:
 1405              		.loc 3 350 3 discriminator 11 view .LVU299
 1406 002a FFF7FEFF 		bl	_dbg_check_lock
 1407              	.LVL97:
 1408              	.LBE357:
 1409              	.LBE358:
 1410              	.LBE360:
 1411              		.loc 1 207 3 discriminator 11 view .LVU300
 1412              		.loc 1 207 3 discriminator 11 view .LVU301
 1413              		.loc 1 207 3 discriminator 11 view .LVU302
 1414 002e 2378     		ldrb	r3, [r4]	@ zero_extendqisi2
 1415 0030 022B     		cmp	r3, #2
 1416 0032 02D0     		beq	.L89
 1417              		.loc 1 207 3 discriminator 3 view .LVU303
 1418 0034 1748     		ldr	r0, .L108+4
 1419 0036 FFF7FEFF 		bl	chSysHalt
 1420              	.LVL98:
 1421              	.L89:
 1422              		.loc 1 207 3 discriminator 5 view .LVU304
 1423              		.loc 1 208 3 discriminator 5 view .LVU305
 1424 003a 0320     		movs	r0, #3
 1425 003c 3346     		mov	r3, r6
ARM GAS  /tmp/ccNDTFpx.s 			page 26


 1426 003e 3A46     		mov	r2, r7
 1427 0040 2946     		mov	r1, r5
 1428 0042 2070     		strb	r0, [r4]
 1429              		.loc 1 208 3 discriminator 5 view .LVU306
 1430 0044 2046     		mov	r0, r4
 1431 0046 FFF7FEFF 		bl	spi_lld_exchange
 1432              	.LVL99:
 1433              		.loc 1 208 43 discriminator 5 view .LVU307
 1434              		.loc 1 209 3 discriminator 5 view .LVU308
 1435              	.LBB361:
 1436              	.LBI361:
 1437              		.loc 2 456 20 discriminator 5 view .LVU309
 1438              	.LBE361:
 1439              		.loc 2 458 3 discriminator 5 view .LVU310
 1440              	.LBB372:
 1441              	.LBB362:
 1442              	.LBI362:
 1443              		.loc 3 358 20 discriminator 5 view .LVU311
 1444              	.LBB363:
 1445              		.loc 3 360 3 discriminator 5 view .LVU312
 1446 004a FFF7FEFF 		bl	_dbg_check_unlock
 1447              	.LVL100:
 1448              		.loc 3 361 3 discriminator 5 view .LVU313
 1449 004e FFF7FEFF 		bl	_stats_stop_measure_crit_thd
 1450              	.LVL101:
 1451              		.loc 3 367 3 discriminator 5 view .LVU314
 1452              		.loc 3 367 3 discriminator 5 view .LVU315
 1453              		.loc 3 367 3 discriminator 5 view .LVU316
 1454 0052 114B     		ldr	r3, .L108+8
 1455 0054 1A68     		ldr	r2, [r3]
 1456 0056 9A42     		cmp	r2, r3
 1457 0058 04D0     		beq	.L90
 1458              		.loc 3 367 3 is_stmt 0 view .LVU317
 1459 005a 9969     		ldr	r1, [r3, #24]
 1460 005c 9368     		ldr	r3, [r2, #8]
 1461 005e 8A68     		ldr	r2, [r1, #8]
 1462 0060 9A42     		cmp	r2, r3
 1463 0062 0ED3     		bcc	.L106
 1464              	.L90:
 1465              		.loc 3 367 3 is_stmt 1 view .LVU318
 1466              		.loc 3 371 3 view .LVU319
 1467              	.LBB364:
 1468              	.LBI364:
 1469              		.loc 4 458 20 view .LVU320
 1470              	.LBE364:
 1471              	.LBE363:
 1472              	.LBE362:
 1473              	.LBE372:
 1474              		.loc 4 461 3 view .LVU321
 1475              	.LVL102:
 1476              	.LBB373:
 1477              	.LBB370:
 1478              	.LBB368:
 1479              	.LBB367:
 1480              	.LBB365:
 1481              	.LBI365:
 1482              		.loc 5 544 57 view .LVU322
ARM GAS  /tmp/ccNDTFpx.s 			page 27


 1483              	.LBB366:
 1484              		.loc 5 546 3 view .LVU323
 1485 0064 0023     		movs	r3, #0
 1486              		.syntax unified
 1487              	@ 546 ".//ChibiOS//os/ext/CMSIS/include/core_cmFunc.h" 1
 1488 0066 83F31188 		MSR basepri, r3
 1489              	@ 0 "" 2
 1490              	.LVL103:
 1491              		.loc 5 546 3 is_stmt 0 view .LVU324
 1492              		.thumb
 1493              		.syntax unified
 1494              	.LBE366:
 1495              	.LBE365:
 1496              	.LBE367:
 1497              	.LBE368:
 1498              	.LBE370:
 1499              	.LBE373:
 1500              		.loc 1 210 1 view .LVU325
 1501 006a 094B     		ldr	r3, .L108
 1502 006c 1A68     		ldr	r2, [r3]
 1503 006e 019B     		ldr	r3, [sp, #4]
 1504 0070 5A40     		eors	r2, r3, r2
 1505 0072 0AD1     		bne	.L107
 1506 0074 03B0     		add	sp, sp, #12
 1507              		.cfi_remember_state
 1508              		.cfi_def_cfa_offset 20
 1509              		@ sp needed
 1510 0076 F0BD     		pop	{r4, r5, r6, r7, pc}
 1511              	.LVL104:
 1512              	.L105:
 1513              		.cfi_restore_state
 1514              		.loc 1 203 3 discriminator 6 view .LVU326
 1515 0078 002E     		cmp	r6, #0
 1516 007a CED0     		beq	.L87
 1517              		.loc 1 203 3 discriminator 8 view .LVU327
 1518 007c 002A     		cmp	r2, #0
 1519 007e CFD1     		bne	.L88
 1520 0080 CBE7     		b	.L87
 1521              	.LVL105:
 1522              	.L106:
 1523              	.LBB374:
 1524              	.LBB371:
 1525              	.LBB369:
 1526              		.loc 3 367 3 is_stmt 1 view .LVU328
 1527 0082 0648     		ldr	r0, .L108+12
 1528 0084 FFF7FEFF 		bl	chSysHalt
 1529              	.LVL106:
 1530 0088 ECE7     		b	.L90
 1531              	.L107:
 1532              	.LBE369:
 1533              	.LBE371:
 1534              	.LBE374:
 1535              		.loc 1 210 1 is_stmt 0 view .LVU329
 1536 008a FFF7FEFF 		bl	__stack_chk_fail
 1537              	.LVL107:
 1538              	.L109:
 1539 008e 00BF     		.align	2
ARM GAS  /tmp/ccNDTFpx.s 			page 28


 1540              	.L108:
 1541 0090 00000000 		.word	.LC7
 1542 0094 00000000 		.word	.LANCHOR6
 1543 0098 00000000 		.word	ch
 1544 009c 00000000 		.word	.LANCHOR1
 1545              		.cfi_endproc
 1546              	.LFE263:
 1547              		.size	spiStartExchange, .-spiStartExchange
 1548              		.section	.rodata.spiStartSend.cst4,"aM",%progbits,4
 1549              		.align	2
 1550              	.LC8:
 1551 0000 00000000 		.word	__stack_chk_guard
 1552              		.section	.text.spiStartSend,"ax",%progbits
 1553              		.align	1
 1554              		.p2align 4,,15
 1555              		.global	spiStartSend
 1556              		.syntax unified
 1557              		.thumb
 1558              		.thumb_func
 1559              		.fpu fpv4-sp-d16
 1560              		.type	spiStartSend, %function
 1561              	spiStartSend:
 1562              	.LVL108:
 1563              	.LFB264:
 1564              		.loc 1 227 65 is_stmt 1 view -0
 1565              		.cfi_startproc
 1566              		@ args = 0, pretend = 0, frame = 8
 1567              		@ frame_needed = 0, uses_anonymous_args = 0
 1568              		.loc 1 227 65 is_stmt 0 view .LVU331
 1569 0000 70B5     		push	{r4, r5, r6, lr}
 1570              		.cfi_def_cfa_offset 16
 1571              		.cfi_offset 4, -16
 1572              		.cfi_offset 5, -12
 1573              		.cfi_offset 6, -8
 1574              		.cfi_offset 14, -4
 1575 0002 214B     		ldr	r3, .L129
 1576 0004 82B0     		sub	sp, sp, #8
 1577              		.cfi_def_cfa_offset 24
 1578              		.loc 1 227 65 view .LVU332
 1579 0006 0D46     		mov	r5, r1
 1580 0008 1646     		mov	r6, r2
 1581 000a 1B68     		ldr	r3, [r3]
 1582 000c 0193     		str	r3, [sp, #4]
 1583 000e 4FF00003 		mov	r3,#0
 1584              		.loc 1 229 3 is_stmt 1 view .LVU333
 1585              		.loc 1 229 3 view .LVU334
 1586              		.loc 1 229 3 view .LVU335
 1587 0012 0446     		mov	r4, r0
 1588 0014 00B1     		cbz	r0, .L111
 1589              		.loc 1 229 3 is_stmt 0 discriminator 4 view .LVU336
 1590 0016 69BB     		cbnz	r1, .L126
 1591              	.L111:
 1592              		.loc 1 229 3 is_stmt 1 discriminator 7 view .LVU337
 1593 0018 1C48     		ldr	r0, .L129+4
 1594              	.LVL109:
 1595              		.loc 1 229 3 is_stmt 0 discriminator 7 view .LVU338
 1596 001a FFF7FEFF 		bl	chSysHalt
ARM GAS  /tmp/ccNDTFpx.s 			page 29


 1597              	.LVL110:
 1598              	.L112:
 1599              		.loc 1 229 3 is_stmt 1 discriminator 9 view .LVU339
 1600              		.loc 1 231 3 discriminator 9 view .LVU340
 1601              	.LBB388:
 1602              	.LBI388:
 1603              		.loc 2 445 20 discriminator 9 view .LVU341
 1604              	.LBE388:
 1605              		.loc 2 447 3 discriminator 9 view .LVU342
 1606              	.LBB397:
 1607              	.LBB389:
 1608              	.LBI389:
 1609              		.loc 3 346 20 discriminator 9 view .LVU343
 1610              	.LBB390:
 1611              		.loc 3 348 3 discriminator 9 view .LVU344
 1612              	.LBB391:
 1613              	.LBI391:
 1614              		.loc 4 444 20 discriminator 9 view .LVU345
 1615              	.LBE391:
 1616              	.LBE390:
 1617              	.LBE389:
 1618              	.LBE397:
 1619              		.loc 4 447 3 discriminator 9 view .LVU346
 1620              	.LBB398:
 1621              	.LBB396:
 1622              	.LBB395:
 1623              	.LBB394:
 1624              	.LBB392:
 1625              	.LBI392:
 1626              		.loc 5 544 57 discriminator 9 view .LVU347
 1627              	.LBB393:
 1628              		.loc 5 546 3 discriminator 9 view .LVU348
 1629 001e 2023     		movs	r3, #32
 1630              		.syntax unified
 1631              	@ 546 ".//ChibiOS//os/ext/CMSIS/include/core_cmFunc.h" 1
 1632 0020 83F31188 		MSR basepri, r3
 1633              	@ 0 "" 2
 1634              	.LVL111:
 1635              		.loc 5 546 3 is_stmt 0 discriminator 9 view .LVU349
 1636              		.thumb
 1637              		.syntax unified
 1638              	.LBE393:
 1639              	.LBE392:
 1640              	.LBE394:
 1641              		.loc 3 349 3 is_stmt 1 discriminator 9 view .LVU350
 1642 0024 FFF7FEFF 		bl	_stats_start_measure_crit_thd
 1643              	.LVL112:
 1644              		.loc 3 350 3 discriminator 9 view .LVU351
 1645 0028 FFF7FEFF 		bl	_dbg_check_lock
 1646              	.LVL113:
 1647              	.LBE395:
 1648              	.LBE396:
 1649              	.LBE398:
 1650              		.loc 1 232 3 discriminator 9 view .LVU352
 1651              		.loc 1 232 3 discriminator 9 view .LVU353
 1652              		.loc 1 232 3 discriminator 9 view .LVU354
 1653 002c 2378     		ldrb	r3, [r4]	@ zero_extendqisi2
ARM GAS  /tmp/ccNDTFpx.s 			page 30


 1654 002e 022B     		cmp	r3, #2
 1655 0030 02D0     		beq	.L113
 1656              		.loc 1 232 3 discriminator 3 view .LVU355
 1657 0032 1648     		ldr	r0, .L129+4
 1658 0034 FFF7FEFF 		bl	chSysHalt
 1659              	.LVL114:
 1660              	.L113:
 1661              		.loc 1 232 3 discriminator 5 view .LVU356
 1662              		.loc 1 233 3 discriminator 5 view .LVU357
 1663 0038 0323     		movs	r3, #3
 1664 003a 3246     		mov	r2, r6
 1665 003c 2370     		strb	r3, [r4]
 1666              		.loc 1 233 3 discriminator 5 view .LVU358
 1667 003e 2946     		mov	r1, r5
 1668 0040 2046     		mov	r0, r4
 1669 0042 FFF7FEFF 		bl	spi_lld_send
 1670              	.LVL115:
 1671              		.loc 1 233 32 discriminator 5 view .LVU359
 1672              		.loc 1 234 3 discriminator 5 view .LVU360
 1673              	.LBB399:
 1674              	.LBI399:
 1675              		.loc 2 456 20 discriminator 5 view .LVU361
 1676              	.LBE399:
 1677              		.loc 2 458 3 discriminator 5 view .LVU362
 1678              	.LBB410:
 1679              	.LBB400:
 1680              	.LBI400:
 1681              		.loc 3 358 20 discriminator 5 view .LVU363
 1682              	.LBB401:
 1683              		.loc 3 360 3 discriminator 5 view .LVU364
 1684 0046 FFF7FEFF 		bl	_dbg_check_unlock
 1685              	.LVL116:
 1686              		.loc 3 361 3 discriminator 5 view .LVU365
 1687 004a FFF7FEFF 		bl	_stats_stop_measure_crit_thd
 1688              	.LVL117:
 1689              		.loc 3 367 3 discriminator 5 view .LVU366
 1690              		.loc 3 367 3 discriminator 5 view .LVU367
 1691              		.loc 3 367 3 discriminator 5 view .LVU368
 1692 004e 104B     		ldr	r3, .L129+8
 1693 0050 1A68     		ldr	r2, [r3]
 1694 0052 9A42     		cmp	r2, r3
 1695 0054 04D0     		beq	.L114
 1696              		.loc 3 367 3 is_stmt 0 view .LVU369
 1697 0056 9969     		ldr	r1, [r3, #24]
 1698 0058 9368     		ldr	r3, [r2, #8]
 1699 005a 8A68     		ldr	r2, [r1, #8]
 1700 005c 9A42     		cmp	r2, r3
 1701 005e 0CD3     		bcc	.L127
 1702              	.L114:
 1703              		.loc 3 367 3 is_stmt 1 view .LVU370
 1704              		.loc 3 371 3 view .LVU371
 1705              	.LBB402:
 1706              	.LBI402:
 1707              		.loc 4 458 20 view .LVU372
 1708              	.LBE402:
 1709              	.LBE401:
 1710              	.LBE400:
ARM GAS  /tmp/ccNDTFpx.s 			page 31


 1711              	.LBE410:
 1712              		.loc 4 461 3 view .LVU373
 1713              	.LVL118:
 1714              	.LBB411:
 1715              	.LBB408:
 1716              	.LBB406:
 1717              	.LBB405:
 1718              	.LBB403:
 1719              	.LBI403:
 1720              		.loc 5 544 57 view .LVU374
 1721              	.LBB404:
 1722              		.loc 5 546 3 view .LVU375
 1723 0060 0023     		movs	r3, #0
 1724              		.syntax unified
 1725              	@ 546 ".//ChibiOS//os/ext/CMSIS/include/core_cmFunc.h" 1
 1726 0062 83F31188 		MSR basepri, r3
 1727              	@ 0 "" 2
 1728              	.LVL119:
 1729              		.loc 5 546 3 is_stmt 0 view .LVU376
 1730              		.thumb
 1731              		.syntax unified
 1732              	.LBE404:
 1733              	.LBE403:
 1734              	.LBE405:
 1735              	.LBE406:
 1736              	.LBE408:
 1737              	.LBE411:
 1738              		.loc 1 235 1 view .LVU377
 1739 0066 084B     		ldr	r3, .L129
 1740 0068 1A68     		ldr	r2, [r3]
 1741 006a 019B     		ldr	r3, [sp, #4]
 1742 006c 5A40     		eors	r2, r3, r2
 1743 006e 08D1     		bne	.L128
 1744 0070 02B0     		add	sp, sp, #8
 1745              		.cfi_remember_state
 1746              		.cfi_def_cfa_offset 16
 1747              		@ sp needed
 1748 0072 70BD     		pop	{r4, r5, r6, pc}
 1749              	.LVL120:
 1750              	.L126:
 1751              		.cfi_restore_state
 1752              		.loc 1 229 3 discriminator 6 view .LVU378
 1753 0074 002A     		cmp	r2, #0
 1754 0076 D2D1     		bne	.L112
 1755 0078 CEE7     		b	.L111
 1756              	.LVL121:
 1757              	.L127:
 1758              	.LBB412:
 1759              	.LBB409:
 1760              	.LBB407:
 1761              		.loc 3 367 3 is_stmt 1 view .LVU379
 1762 007a 0648     		ldr	r0, .L129+12
 1763 007c FFF7FEFF 		bl	chSysHalt
 1764              	.LVL122:
 1765 0080 EEE7     		b	.L114
 1766              	.L128:
 1767              	.LBE407:
ARM GAS  /tmp/ccNDTFpx.s 			page 32


 1768              	.LBE409:
 1769              	.LBE412:
 1770              		.loc 1 235 1 is_stmt 0 view .LVU380
 1771 0082 FFF7FEFF 		bl	__stack_chk_fail
 1772              	.LVL123:
 1773              	.L130:
 1774 0086 00BF     		.align	2
 1775              	.L129:
 1776 0088 00000000 		.word	.LC8
 1777 008c 00000000 		.word	.LANCHOR7
 1778 0090 00000000 		.word	ch
 1779 0094 00000000 		.word	.LANCHOR1
 1780              		.cfi_endproc
 1781              	.LFE264:
 1782              		.size	spiStartSend, .-spiStartSend
 1783              		.section	.rodata.spiStartReceive.cst4,"aM",%progbits,4
 1784              		.align	2
 1785              	.LC9:
 1786 0000 00000000 		.word	__stack_chk_guard
 1787              		.section	.text.spiStartReceive,"ax",%progbits
 1788              		.align	1
 1789              		.p2align 4,,15
 1790              		.global	spiStartReceive
 1791              		.syntax unified
 1792              		.thumb
 1793              		.thumb_func
 1794              		.fpu fpv4-sp-d16
 1795              		.type	spiStartReceive, %function
 1796              	spiStartReceive:
 1797              	.LVL124:
 1798              	.LFB265:
 1799              		.loc 1 252 62 is_stmt 1 view -0
 1800              		.cfi_startproc
 1801              		@ args = 0, pretend = 0, frame = 8
 1802              		@ frame_needed = 0, uses_anonymous_args = 0
 1803              		.loc 1 252 62 is_stmt 0 view .LVU382
 1804 0000 70B5     		push	{r4, r5, r6, lr}
 1805              		.cfi_def_cfa_offset 16
 1806              		.cfi_offset 4, -16
 1807              		.cfi_offset 5, -12
 1808              		.cfi_offset 6, -8
 1809              		.cfi_offset 14, -4
 1810 0002 214B     		ldr	r3, .L150
 1811 0004 82B0     		sub	sp, sp, #8
 1812              		.cfi_def_cfa_offset 24
 1813              		.loc 1 252 62 view .LVU383
 1814 0006 0D46     		mov	r5, r1
 1815 0008 1646     		mov	r6, r2
 1816 000a 1B68     		ldr	r3, [r3]
 1817 000c 0193     		str	r3, [sp, #4]
 1818 000e 4FF00003 		mov	r3,#0
 1819              		.loc 1 254 3 is_stmt 1 view .LVU384
 1820              		.loc 1 254 3 view .LVU385
 1821              		.loc 1 254 3 view .LVU386
 1822 0012 0446     		mov	r4, r0
 1823 0014 00B1     		cbz	r0, .L132
 1824              		.loc 1 254 3 is_stmt 0 discriminator 4 view .LVU387
ARM GAS  /tmp/ccNDTFpx.s 			page 33


 1825 0016 69BB     		cbnz	r1, .L147
 1826              	.L132:
 1827              		.loc 1 254 3 is_stmt 1 discriminator 7 view .LVU388
 1828 0018 1C48     		ldr	r0, .L150+4
 1829              	.LVL125:
 1830              		.loc 1 254 3 is_stmt 0 discriminator 7 view .LVU389
 1831 001a FFF7FEFF 		bl	chSysHalt
 1832              	.LVL126:
 1833              	.L133:
 1834              		.loc 1 254 3 is_stmt 1 discriminator 9 view .LVU390
 1835              		.loc 1 256 3 discriminator 9 view .LVU391
 1836              	.LBB426:
 1837              	.LBI426:
 1838              		.loc 2 445 20 discriminator 9 view .LVU392
 1839              	.LBE426:
 1840              		.loc 2 447 3 discriminator 9 view .LVU393
 1841              	.LBB435:
 1842              	.LBB427:
 1843              	.LBI427:
 1844              		.loc 3 346 20 discriminator 9 view .LVU394
 1845              	.LBB428:
 1846              		.loc 3 348 3 discriminator 9 view .LVU395
 1847              	.LBB429:
 1848              	.LBI429:
 1849              		.loc 4 444 20 discriminator 9 view .LVU396
 1850              	.LBE429:
 1851              	.LBE428:
 1852              	.LBE427:
 1853              	.LBE435:
 1854              		.loc 4 447 3 discriminator 9 view .LVU397
 1855              	.LBB436:
 1856              	.LBB434:
 1857              	.LBB433:
 1858              	.LBB432:
 1859              	.LBB430:
 1860              	.LBI430:
 1861              		.loc 5 544 57 discriminator 9 view .LVU398
 1862              	.LBB431:
 1863              		.loc 5 546 3 discriminator 9 view .LVU399
 1864 001e 2023     		movs	r3, #32
 1865              		.syntax unified
 1866              	@ 546 ".//ChibiOS//os/ext/CMSIS/include/core_cmFunc.h" 1
 1867 0020 83F31188 		MSR basepri, r3
 1868              	@ 0 "" 2
 1869              	.LVL127:
 1870              		.loc 5 546 3 is_stmt 0 discriminator 9 view .LVU400
 1871              		.thumb
 1872              		.syntax unified
 1873              	.LBE431:
 1874              	.LBE430:
 1875              	.LBE432:
 1876              		.loc 3 349 3 is_stmt 1 discriminator 9 view .LVU401
 1877 0024 FFF7FEFF 		bl	_stats_start_measure_crit_thd
 1878              	.LVL128:
 1879              		.loc 3 350 3 discriminator 9 view .LVU402
 1880 0028 FFF7FEFF 		bl	_dbg_check_lock
 1881              	.LVL129:
ARM GAS  /tmp/ccNDTFpx.s 			page 34


 1882              	.LBE433:
 1883              	.LBE434:
 1884              	.LBE436:
 1885              		.loc 1 257 3 discriminator 9 view .LVU403
 1886              		.loc 1 257 3 discriminator 9 view .LVU404
 1887              		.loc 1 257 3 discriminator 9 view .LVU405
 1888 002c 2378     		ldrb	r3, [r4]	@ zero_extendqisi2
 1889 002e 022B     		cmp	r3, #2
 1890 0030 02D0     		beq	.L134
 1891              		.loc 1 257 3 discriminator 3 view .LVU406
 1892 0032 1648     		ldr	r0, .L150+4
 1893 0034 FFF7FEFF 		bl	chSysHalt
 1894              	.LVL130:
 1895              	.L134:
 1896              		.loc 1 257 3 discriminator 5 view .LVU407
 1897              		.loc 1 258 3 discriminator 5 view .LVU408
 1898 0038 0323     		movs	r3, #3
 1899 003a 3246     		mov	r2, r6
 1900 003c 2370     		strb	r3, [r4]
 1901              		.loc 1 258 3 discriminator 5 view .LVU409
 1902 003e 2946     		mov	r1, r5
 1903 0040 2046     		mov	r0, r4
 1904 0042 FFF7FEFF 		bl	spi_lld_receive
 1905              	.LVL131:
 1906              		.loc 1 258 35 discriminator 5 view .LVU410
 1907              		.loc 1 259 3 discriminator 5 view .LVU411
 1908              	.LBB437:
 1909              	.LBI437:
 1910              		.loc 2 456 20 discriminator 5 view .LVU412
 1911              	.LBE437:
 1912              		.loc 2 458 3 discriminator 5 view .LVU413
 1913              	.LBB448:
 1914              	.LBB438:
 1915              	.LBI438:
 1916              		.loc 3 358 20 discriminator 5 view .LVU414
 1917              	.LBB439:
 1918              		.loc 3 360 3 discriminator 5 view .LVU415
 1919 0046 FFF7FEFF 		bl	_dbg_check_unlock
 1920              	.LVL132:
 1921              		.loc 3 361 3 discriminator 5 view .LVU416
 1922 004a FFF7FEFF 		bl	_stats_stop_measure_crit_thd
 1923              	.LVL133:
 1924              		.loc 3 367 3 discriminator 5 view .LVU417
 1925              		.loc 3 367 3 discriminator 5 view .LVU418
 1926              		.loc 3 367 3 discriminator 5 view .LVU419
 1927 004e 104B     		ldr	r3, .L150+8
 1928 0050 1A68     		ldr	r2, [r3]
 1929 0052 9A42     		cmp	r2, r3
 1930 0054 04D0     		beq	.L135
 1931              		.loc 3 367 3 is_stmt 0 view .LVU420
 1932 0056 9969     		ldr	r1, [r3, #24]
 1933 0058 9368     		ldr	r3, [r2, #8]
 1934 005a 8A68     		ldr	r2, [r1, #8]
 1935 005c 9A42     		cmp	r2, r3
 1936 005e 0CD3     		bcc	.L148
 1937              	.L135:
 1938              		.loc 3 367 3 is_stmt 1 view .LVU421
ARM GAS  /tmp/ccNDTFpx.s 			page 35


 1939              		.loc 3 371 3 view .LVU422
 1940              	.LBB440:
 1941              	.LBI440:
 1942              		.loc 4 458 20 view .LVU423
 1943              	.LBE440:
 1944              	.LBE439:
 1945              	.LBE438:
 1946              	.LBE448:
 1947              		.loc 4 461 3 view .LVU424
 1948              	.LVL134:
 1949              	.LBB449:
 1950              	.LBB446:
 1951              	.LBB444:
 1952              	.LBB443:
 1953              	.LBB441:
 1954              	.LBI441:
 1955              		.loc 5 544 57 view .LVU425
 1956              	.LBB442:
 1957              		.loc 5 546 3 view .LVU426
 1958 0060 0023     		movs	r3, #0
 1959              		.syntax unified
 1960              	@ 546 ".//ChibiOS//os/ext/CMSIS/include/core_cmFunc.h" 1
 1961 0062 83F31188 		MSR basepri, r3
 1962              	@ 0 "" 2
 1963              	.LVL135:
 1964              		.loc 5 546 3 is_stmt 0 view .LVU427
 1965              		.thumb
 1966              		.syntax unified
 1967              	.LBE442:
 1968              	.LBE441:
 1969              	.LBE443:
 1970              	.LBE444:
 1971              	.LBE446:
 1972              	.LBE449:
 1973              		.loc 1 260 1 view .LVU428
 1974 0066 084B     		ldr	r3, .L150
 1975 0068 1A68     		ldr	r2, [r3]
 1976 006a 019B     		ldr	r3, [sp, #4]
 1977 006c 5A40     		eors	r2, r3, r2
 1978 006e 08D1     		bne	.L149
 1979 0070 02B0     		add	sp, sp, #8
 1980              		.cfi_remember_state
 1981              		.cfi_def_cfa_offset 16
 1982              		@ sp needed
 1983 0072 70BD     		pop	{r4, r5, r6, pc}
 1984              	.LVL136:
 1985              	.L147:
 1986              		.cfi_restore_state
 1987              		.loc 1 254 3 discriminator 6 view .LVU429
 1988 0074 002A     		cmp	r2, #0
 1989 0076 D2D1     		bne	.L133
 1990 0078 CEE7     		b	.L132
 1991              	.LVL137:
 1992              	.L148:
 1993              	.LBB450:
 1994              	.LBB447:
 1995              	.LBB445:
ARM GAS  /tmp/ccNDTFpx.s 			page 36


 1996              		.loc 3 367 3 is_stmt 1 view .LVU430
 1997 007a 0648     		ldr	r0, .L150+12
 1998 007c FFF7FEFF 		bl	chSysHalt
 1999              	.LVL138:
 2000 0080 EEE7     		b	.L135
 2001              	.L149:
 2002              	.LBE445:
 2003              	.LBE447:
 2004              	.LBE450:
 2005              		.loc 1 260 1 is_stmt 0 view .LVU431
 2006 0082 FFF7FEFF 		bl	__stack_chk_fail
 2007              	.LVL139:
 2008              	.L151:
 2009 0086 00BF     		.align	2
 2010              	.L150:
 2011 0088 00000000 		.word	.LC9
 2012 008c 00000000 		.word	.LANCHOR8
 2013 0090 00000000 		.word	ch
 2014 0094 00000000 		.word	.LANCHOR1
 2015              		.cfi_endproc
 2016              	.LFE265:
 2017              		.size	spiStartReceive, .-spiStartReceive
 2018              		.section	.rodata.spiIgnore.cst4,"aM",%progbits,4
 2019              		.align	2
 2020              	.LC10:
 2021 0000 00000000 		.word	__stack_chk_guard
 2022              		.section	.text.spiIgnore,"ax",%progbits
 2023              		.align	1
 2024              		.p2align 4,,15
 2025              		.global	spiIgnore
 2026              		.syntax unified
 2027              		.thumb
 2028              		.thumb_func
 2029              		.fpu fpv4-sp-d16
 2030              		.type	spiIgnore, %function
 2031              	spiIgnore:
 2032              	.LVL140:
 2033              	.LFB266:
 2034              		.loc 1 277 43 is_stmt 1 view -0
 2035              		.cfi_startproc
 2036              		@ args = 0, pretend = 0, frame = 8
 2037              		@ frame_needed = 0, uses_anonymous_args = 0
 2038              		.loc 1 277 43 is_stmt 0 view .LVU433
 2039 0000 30B5     		push	{r4, r5, lr}
 2040              		.cfi_def_cfa_offset 12
 2041              		.cfi_offset 4, -12
 2042              		.cfi_offset 5, -8
 2043              		.cfi_offset 14, -4
 2044 0002 254B     		ldr	r3, .L171
 2045 0004 83B0     		sub	sp, sp, #12
 2046              		.cfi_def_cfa_offset 24
 2047              		.loc 1 277 43 view .LVU434
 2048 0006 0D46     		mov	r5, r1
 2049 0008 1B68     		ldr	r3, [r3]
 2050 000a 0193     		str	r3, [sp, #4]
 2051 000c 4FF00003 		mov	r3,#0
 2052              		.loc 1 279 3 is_stmt 1 view .LVU435
ARM GAS  /tmp/ccNDTFpx.s 			page 37


 2053              		.loc 1 279 3 view .LVU436
 2054              		.loc 1 279 3 view .LVU437
 2055 0010 0446     		mov	r4, r0
 2056 0012 0028     		cmp	r0, #0
 2057 0014 35D0     		beq	.L153
 2058              		.loc 1 279 3 is_stmt 0 discriminator 4 view .LVU438
 2059 0016 0029     		cmp	r1, #0
 2060 0018 33D0     		beq	.L153
 2061              	.LVL141:
 2062              	.L154:
 2063              		.loc 1 279 3 is_stmt 1 discriminator 7 view .LVU439
 2064              		.loc 1 281 3 discriminator 7 view .LVU440
 2065              	.LBB466:
 2066              	.LBI466:
 2067              		.loc 2 445 20 discriminator 7 view .LVU441
 2068              	.LBE466:
 2069              		.loc 2 447 3 discriminator 7 view .LVU442
 2070              	.LBB475:
 2071              	.LBB467:
 2072              	.LBI467:
 2073              		.loc 3 346 20 discriminator 7 view .LVU443
 2074              	.LBB468:
 2075              		.loc 3 348 3 discriminator 7 view .LVU444
 2076              	.LBB469:
 2077              	.LBI469:
 2078              		.loc 4 444 20 discriminator 7 view .LVU445
 2079              	.LBE469:
 2080              	.LBE468:
 2081              	.LBE467:
 2082              	.LBE475:
 2083              		.loc 4 447 3 discriminator 7 view .LVU446
 2084              	.LBB476:
 2085              	.LBB474:
 2086              	.LBB473:
 2087              	.LBB472:
 2088              	.LBB470:
 2089              	.LBI470:
 2090              		.loc 5 544 57 discriminator 7 view .LVU447
 2091              	.LBB471:
 2092              		.loc 5 546 3 discriminator 7 view .LVU448
 2093 001a 2023     		movs	r3, #32
 2094              		.syntax unified
 2095              	@ 546 ".//ChibiOS//os/ext/CMSIS/include/core_cmFunc.h" 1
 2096 001c 83F31188 		MSR basepri, r3
 2097              	@ 0 "" 2
 2098              	.LVL142:
 2099              		.loc 5 546 3 is_stmt 0 discriminator 7 view .LVU449
 2100              		.thumb
 2101              		.syntax unified
 2102              	.LBE471:
 2103              	.LBE470:
 2104              	.LBE472:
 2105              		.loc 3 349 3 is_stmt 1 discriminator 7 view .LVU450
 2106 0020 FFF7FEFF 		bl	_stats_start_measure_crit_thd
 2107              	.LVL143:
 2108              		.loc 3 350 3 discriminator 7 view .LVU451
 2109 0024 FFF7FEFF 		bl	_dbg_check_lock
ARM GAS  /tmp/ccNDTFpx.s 			page 38


 2110              	.LVL144:
 2111              	.LBE473:
 2112              	.LBE474:
 2113              	.LBE476:
 2114              		.loc 1 282 3 discriminator 7 view .LVU452
 2115              		.loc 1 282 3 discriminator 7 view .LVU453
 2116              		.loc 1 282 3 discriminator 7 view .LVU454
 2117 0028 2378     		ldrb	r3, [r4]	@ zero_extendqisi2
 2118 002a 022B     		cmp	r3, #2
 2119 002c 02D0     		beq	.L155
 2120              		.loc 1 282 3 discriminator 3 view .LVU455
 2121 002e 1B48     		ldr	r0, .L171+4
 2122 0030 FFF7FEFF 		bl	chSysHalt
 2123              	.LVL145:
 2124              	.L155:
 2125              		.loc 1 282 3 discriminator 1 view .LVU456
 2126              		.loc 1 283 3 discriminator 1 view .LVU457
 2127              		.loc 1 283 3 discriminator 1 view .LVU458
 2128              		.loc 1 283 3 discriminator 1 view .LVU459
 2129 0034 6368     		ldr	r3, [r4, #4]
 2130 0036 1B68     		ldr	r3, [r3]
 2131 0038 13B1     		cbz	r3, .L156
 2132              		.loc 1 283 3 discriminator 3 view .LVU460
 2133 003a 1848     		ldr	r0, .L171+4
 2134 003c FFF7FEFF 		bl	chSysHalt
 2135              	.LVL146:
 2136              	.L156:
 2137              		.loc 1 283 3 discriminator 5 view .LVU461
 2138              		.loc 1 284 3 discriminator 5 view .LVU462
 2139 0040 0323     		movs	r3, #3
 2140 0042 2370     		strb	r3, [r4]
 2141              		.loc 1 284 3 discriminator 5 view .LVU463
 2142 0044 2946     		mov	r1, r5
 2143 0046 2046     		mov	r0, r4
 2144 0048 FFF7FEFF 		bl	spi_lld_ignore
 2145              	.LVL147:
 2146              		.loc 1 284 27 discriminator 5 view .LVU464
 2147              		.loc 1 285 3 discriminator 5 view .LVU465
 2148              	.LBB477:
 2149              	.LBI477:
 2150              		.loc 2 640 21 discriminator 5 view .LVU466
 2151              	.LBB478:
 2152              		.loc 2 642 3 discriminator 5 view .LVU467
 2153              		.loc 2 642 10 is_stmt 0 discriminator 5 view .LVU468
 2154 004c 04F10800 		add	r0, r4, #8
 2155              	.LVL148:
 2156              		.loc 2 642 10 discriminator 5 view .LVU469
 2157 0050 FFF7FEFF 		bl	chThdSuspendS
 2158              	.LVL149:
 2159              		.loc 2 642 10 discriminator 5 view .LVU470
 2160              	.LBE478:
 2161              	.LBE477:
 2162              		.loc 1 286 3 is_stmt 1 discriminator 5 view .LVU471
 2163              	.LBB479:
 2164              	.LBI479:
 2165              		.loc 2 456 20 discriminator 5 view .LVU472
 2166              	.LBE479:
ARM GAS  /tmp/ccNDTFpx.s 			page 39


 2167              		.loc 2 458 3 discriminator 5 view .LVU473
 2168              	.LBB490:
 2169              	.LBB480:
 2170              	.LBI480:
 2171              		.loc 3 358 20 discriminator 5 view .LVU474
 2172              	.LBB481:
 2173              		.loc 3 360 3 discriminator 5 view .LVU475
 2174 0054 FFF7FEFF 		bl	_dbg_check_unlock
 2175              	.LVL150:
 2176              		.loc 3 361 3 discriminator 5 view .LVU476
 2177 0058 FFF7FEFF 		bl	_stats_stop_measure_crit_thd
 2178              	.LVL151:
 2179              		.loc 3 367 3 discriminator 5 view .LVU477
 2180              		.loc 3 367 3 discriminator 5 view .LVU478
 2181              		.loc 3 367 3 discriminator 5 view .LVU479
 2182 005c 104B     		ldr	r3, .L171+8
 2183 005e 1A68     		ldr	r2, [r3]
 2184 0060 9A42     		cmp	r2, r3
 2185 0062 04D0     		beq	.L157
 2186              		.loc 3 367 3 is_stmt 0 view .LVU480
 2187 0064 9969     		ldr	r1, [r3, #24]
 2188 0066 9368     		ldr	r3, [r2, #8]
 2189 0068 8A68     		ldr	r2, [r1, #8]
 2190 006a 9A42     		cmp	r2, r3
 2191 006c 0DD3     		bcc	.L169
 2192              	.L157:
 2193              		.loc 3 367 3 is_stmt 1 view .LVU481
 2194              		.loc 3 371 3 view .LVU482
 2195              	.LBB482:
 2196              	.LBI482:
 2197              		.loc 4 458 20 view .LVU483
 2198              	.LBE482:
 2199              	.LBE481:
 2200              	.LBE480:
 2201              	.LBE490:
 2202              		.loc 4 461 3 view .LVU484
 2203              	.LVL152:
 2204              	.LBB491:
 2205              	.LBB488:
 2206              	.LBB486:
 2207              	.LBB485:
 2208              	.LBB483:
 2209              	.LBI483:
 2210              		.loc 5 544 57 view .LVU485
 2211              	.LBB484:
 2212              		.loc 5 546 3 view .LVU486
 2213 006e 0023     		movs	r3, #0
 2214              		.syntax unified
 2215              	@ 546 ".//ChibiOS//os/ext/CMSIS/include/core_cmFunc.h" 1
 2216 0070 83F31188 		MSR basepri, r3
 2217              	@ 0 "" 2
 2218              	.LVL153:
 2219              		.loc 5 546 3 is_stmt 0 view .LVU487
 2220              		.thumb
 2221              		.syntax unified
 2222              	.LBE484:
 2223              	.LBE483:
ARM GAS  /tmp/ccNDTFpx.s 			page 40


 2224              	.LBE485:
 2225              	.LBE486:
 2226              	.LBE488:
 2227              	.LBE491:
 2228              		.loc 1 287 1 view .LVU488
 2229 0074 084B     		ldr	r3, .L171
 2230 0076 1A68     		ldr	r2, [r3]
 2231 0078 019B     		ldr	r3, [sp, #4]
 2232 007a 5A40     		eors	r2, r3, r2
 2233 007c 09D1     		bne	.L170
 2234 007e 03B0     		add	sp, sp, #12
 2235              		.cfi_remember_state
 2236              		.cfi_def_cfa_offset 12
 2237              		@ sp needed
 2238 0080 30BD     		pop	{r4, r5, pc}
 2239              	.LVL154:
 2240              	.L153:
 2241              		.cfi_restore_state
 2242              		.loc 1 279 3 is_stmt 1 discriminator 5 view .LVU489
 2243 0082 0648     		ldr	r0, .L171+4
 2244              	.LVL155:
 2245              		.loc 1 279 3 is_stmt 0 discriminator 5 view .LVU490
 2246 0084 FFF7FEFF 		bl	chSysHalt
 2247              	.LVL156:
 2248              		.loc 1 279 3 discriminator 5 view .LVU491
 2249 0088 C7E7     		b	.L154
 2250              	.L169:
 2251              	.LBB492:
 2252              	.LBB489:
 2253              	.LBB487:
 2254              		.loc 3 367 3 is_stmt 1 view .LVU492
 2255 008a 0648     		ldr	r0, .L171+12
 2256 008c FFF7FEFF 		bl	chSysHalt
 2257              	.LVL157:
 2258 0090 EDE7     		b	.L157
 2259              	.L170:
 2260              	.LBE487:
 2261              	.LBE489:
 2262              	.LBE492:
 2263              		.loc 1 287 1 is_stmt 0 view .LVU493
 2264 0092 FFF7FEFF 		bl	__stack_chk_fail
 2265              	.LVL158:
 2266              	.L172:
 2267 0096 00BF     		.align	2
 2268              	.L171:
 2269 0098 00000000 		.word	.LC10
 2270 009c 00000000 		.word	.LANCHOR9
 2271 00a0 00000000 		.word	ch
 2272 00a4 00000000 		.word	.LANCHOR1
 2273              		.cfi_endproc
 2274              	.LFE266:
 2275              		.size	spiIgnore, .-spiIgnore
 2276              		.section	.rodata.spiExchange.cst4,"aM",%progbits,4
 2277              		.align	2
 2278              	.LC11:
 2279 0000 00000000 		.word	__stack_chk_guard
 2280              		.section	.text.spiExchange,"ax",%progbits
ARM GAS  /tmp/ccNDTFpx.s 			page 41


 2281              		.align	1
 2282              		.p2align 4,,15
 2283              		.global	spiExchange
 2284              		.syntax unified
 2285              		.thumb
 2286              		.thumb_func
 2287              		.fpu fpv4-sp-d16
 2288              		.type	spiExchange, %function
 2289              	spiExchange:
 2290              	.LVL159:
 2291              	.LFB267:
 2292              		.loc 1 308 50 is_stmt 1 view -0
 2293              		.cfi_startproc
 2294              		@ args = 0, pretend = 0, frame = 8
 2295              		@ frame_needed = 0, uses_anonymous_args = 0
 2296              		.loc 1 308 50 is_stmt 0 view .LVU495
 2297 0000 F0B5     		push	{r4, r5, r6, r7, lr}
 2298              		.cfi_def_cfa_offset 20
 2299              		.cfi_offset 4, -20
 2300              		.cfi_offset 5, -16
 2301              		.cfi_offset 6, -12
 2302              		.cfi_offset 7, -8
 2303              		.cfi_offset 14, -4
 2304 0002 1E46     		mov	r6, r3
 2305 0004 274B     		ldr	r3, .L199
 2306              	.LVL160:
 2307              		.loc 1 308 50 view .LVU496
 2308 0006 83B0     		sub	sp, sp, #12
 2309              		.cfi_def_cfa_offset 32
 2310              		.loc 1 308 50 view .LVU497
 2311 0008 0D46     		mov	r5, r1
 2312 000a 1746     		mov	r7, r2
 2313 000c 1B68     		ldr	r3, [r3]
 2314 000e 0193     		str	r3, [sp, #4]
 2315 0010 4FF00003 		mov	r3,#0
 2316              		.loc 1 310 3 is_stmt 1 view .LVU498
 2317              		.loc 1 310 3 view .LVU499
 2318              		.loc 1 310 3 view .LVU500
 2319 0014 0446     		mov	r4, r0
 2320 0016 08B1     		cbz	r0, .L174
 2321              		.loc 1 310 3 is_stmt 0 discriminator 4 view .LVU501
 2322 0018 0029     		cmp	r1, #0
 2323 001a 38D1     		bne	.L196
 2324              	.L174:
 2325              		.loc 1 310 3 is_stmt 1 discriminator 9 view .LVU502
 2326 001c 2248     		ldr	r0, .L199+4
 2327              	.LVL161:
 2328              		.loc 1 310 3 is_stmt 0 discriminator 9 view .LVU503
 2329 001e FFF7FEFF 		bl	chSysHalt
 2330              	.LVL162:
 2331              	.L175:
 2332              		.loc 1 310 3 is_stmt 1 discriminator 11 view .LVU504
 2333              		.loc 1 313 3 discriminator 11 view .LVU505
 2334              	.LBB508:
 2335              	.LBI508:
 2336              		.loc 2 445 20 discriminator 11 view .LVU506
 2337              	.LBE508:
ARM GAS  /tmp/ccNDTFpx.s 			page 42


 2338              		.loc 2 447 3 discriminator 11 view .LVU507
 2339              	.LBB517:
 2340              	.LBB509:
 2341              	.LBI509:
 2342              		.loc 3 346 20 discriminator 11 view .LVU508
 2343              	.LBB510:
 2344              		.loc 3 348 3 discriminator 11 view .LVU509
 2345              	.LBB511:
 2346              	.LBI511:
 2347              		.loc 4 444 20 discriminator 11 view .LVU510
 2348              	.LBE511:
 2349              	.LBE510:
 2350              	.LBE509:
 2351              	.LBE517:
 2352              		.loc 4 447 3 discriminator 11 view .LVU511
 2353              	.LBB518:
 2354              	.LBB516:
 2355              	.LBB515:
 2356              	.LBB514:
 2357              	.LBB512:
 2358              	.LBI512:
 2359              		.loc 5 544 57 discriminator 11 view .LVU512
 2360              	.LBB513:
 2361              		.loc 5 546 3 discriminator 11 view .LVU513
 2362 0022 2023     		movs	r3, #32
 2363              		.syntax unified
 2364              	@ 546 ".//ChibiOS//os/ext/CMSIS/include/core_cmFunc.h" 1
 2365 0024 83F31188 		MSR basepri, r3
 2366              	@ 0 "" 2
 2367              	.LVL163:
 2368              		.loc 5 546 3 is_stmt 0 discriminator 11 view .LVU514
 2369              		.thumb
 2370              		.syntax unified
 2371              	.LBE513:
 2372              	.LBE512:
 2373              	.LBE514:
 2374              		.loc 3 349 3 is_stmt 1 discriminator 11 view .LVU515
 2375 0028 FFF7FEFF 		bl	_stats_start_measure_crit_thd
 2376              	.LVL164:
 2377              		.loc 3 350 3 discriminator 11 view .LVU516
 2378 002c FFF7FEFF 		bl	_dbg_check_lock
 2379              	.LVL165:
 2380              	.LBE515:
 2381              	.LBE516:
 2382              	.LBE518:
 2383              		.loc 1 314 3 discriminator 11 view .LVU517
 2384              		.loc 1 314 3 discriminator 11 view .LVU518
 2385              		.loc 1 314 3 discriminator 11 view .LVU519
 2386 0030 2378     		ldrb	r3, [r4]	@ zero_extendqisi2
 2387 0032 022B     		cmp	r3, #2
 2388 0034 02D0     		beq	.L176
 2389              		.loc 1 314 3 discriminator 3 view .LVU520
 2390 0036 1C48     		ldr	r0, .L199+4
 2391 0038 FFF7FEFF 		bl	chSysHalt
 2392              	.LVL166:
 2393              	.L176:
 2394              		.loc 1 314 3 discriminator 1 view .LVU521
ARM GAS  /tmp/ccNDTFpx.s 			page 43


 2395              		.loc 1 315 3 discriminator 1 view .LVU522
 2396              		.loc 1 315 3 discriminator 1 view .LVU523
 2397              		.loc 1 315 3 discriminator 1 view .LVU524
 2398 003c 6368     		ldr	r3, [r4, #4]
 2399 003e 1B68     		ldr	r3, [r3]
 2400 0040 13B1     		cbz	r3, .L177
 2401              		.loc 1 315 3 discriminator 3 view .LVU525
 2402 0042 1948     		ldr	r0, .L199+4
 2403 0044 FFF7FEFF 		bl	chSysHalt
 2404              	.LVL167:
 2405              	.L177:
 2406              		.loc 1 315 3 discriminator 5 view .LVU526
 2407              		.loc 1 316 3 discriminator 5 view .LVU527
 2408 0048 0320     		movs	r0, #3
 2409 004a 3346     		mov	r3, r6
 2410 004c 3A46     		mov	r2, r7
 2411 004e 2946     		mov	r1, r5
 2412 0050 2070     		strb	r0, [r4]
 2413              		.loc 1 316 3 discriminator 5 view .LVU528
 2414 0052 2046     		mov	r0, r4
 2415 0054 FFF7FEFF 		bl	spi_lld_exchange
 2416              	.LVL168:
 2417              		.loc 1 316 43 discriminator 5 view .LVU529
 2418              		.loc 1 317 3 discriminator 5 view .LVU530
 2419              	.LBB519:
 2420              	.LBI519:
 2421              		.loc 2 640 21 discriminator 5 view .LVU531
 2422              	.LBB520:
 2423              		.loc 2 642 3 discriminator 5 view .LVU532
 2424              		.loc 2 642 10 is_stmt 0 discriminator 5 view .LVU533
 2425 0058 04F10800 		add	r0, r4, #8
 2426              	.LVL169:
 2427              		.loc 2 642 10 discriminator 5 view .LVU534
 2428 005c FFF7FEFF 		bl	chThdSuspendS
 2429              	.LVL170:
 2430              		.loc 2 642 10 discriminator 5 view .LVU535
 2431              	.LBE520:
 2432              	.LBE519:
 2433              		.loc 1 318 3 is_stmt 1 discriminator 5 view .LVU536
 2434              	.LBB521:
 2435              	.LBI521:
 2436              		.loc 2 456 20 discriminator 5 view .LVU537
 2437              	.LBE521:
 2438              		.loc 2 458 3 discriminator 5 view .LVU538
 2439              	.LBB532:
 2440              	.LBB522:
 2441              	.LBI522:
 2442              		.loc 3 358 20 discriminator 5 view .LVU539
 2443              	.LBB523:
 2444              		.loc 3 360 3 discriminator 5 view .LVU540
 2445 0060 FFF7FEFF 		bl	_dbg_check_unlock
 2446              	.LVL171:
 2447              		.loc 3 361 3 discriminator 5 view .LVU541
 2448 0064 FFF7FEFF 		bl	_stats_stop_measure_crit_thd
 2449              	.LVL172:
 2450              		.loc 3 367 3 discriminator 5 view .LVU542
 2451              		.loc 3 367 3 discriminator 5 view .LVU543
ARM GAS  /tmp/ccNDTFpx.s 			page 44


 2452              		.loc 3 367 3 discriminator 5 view .LVU544
 2453 0068 104B     		ldr	r3, .L199+8
 2454 006a 1A68     		ldr	r2, [r3]
 2455 006c 9A42     		cmp	r2, r3
 2456 006e 04D0     		beq	.L178
 2457              		.loc 3 367 3 is_stmt 0 view .LVU545
 2458 0070 9969     		ldr	r1, [r3, #24]
 2459 0072 9368     		ldr	r3, [r2, #8]
 2460 0074 8A68     		ldr	r2, [r1, #8]
 2461 0076 9A42     		cmp	r2, r3
 2462 0078 0ED3     		bcc	.L197
 2463              	.L178:
 2464              		.loc 3 367 3 is_stmt 1 view .LVU546
 2465              		.loc 3 371 3 view .LVU547
 2466              	.LBB524:
 2467              	.LBI524:
 2468              		.loc 4 458 20 view .LVU548
 2469              	.LBE524:
 2470              	.LBE523:
 2471              	.LBE522:
 2472              	.LBE532:
 2473              		.loc 4 461 3 view .LVU549
 2474              	.LVL173:
 2475              	.LBB533:
 2476              	.LBB530:
 2477              	.LBB528:
 2478              	.LBB527:
 2479              	.LBB525:
 2480              	.LBI525:
 2481              		.loc 5 544 57 view .LVU550
 2482              	.LBB526:
 2483              		.loc 5 546 3 view .LVU551
 2484 007a 0023     		movs	r3, #0
 2485              		.syntax unified
 2486              	@ 546 ".//ChibiOS//os/ext/CMSIS/include/core_cmFunc.h" 1
 2487 007c 83F31188 		MSR basepri, r3
 2488              	@ 0 "" 2
 2489              	.LVL174:
 2490              		.loc 5 546 3 is_stmt 0 view .LVU552
 2491              		.thumb
 2492              		.syntax unified
 2493              	.LBE526:
 2494              	.LBE525:
 2495              	.LBE527:
 2496              	.LBE528:
 2497              	.LBE530:
 2498              	.LBE533:
 2499              		.loc 1 319 1 view .LVU553
 2500 0080 084B     		ldr	r3, .L199
 2501 0082 1A68     		ldr	r2, [r3]
 2502 0084 019B     		ldr	r3, [sp, #4]
 2503 0086 5A40     		eors	r2, r3, r2
 2504 0088 0AD1     		bne	.L198
 2505 008a 03B0     		add	sp, sp, #12
 2506              		.cfi_remember_state
 2507              		.cfi_def_cfa_offset 20
 2508              		@ sp needed
ARM GAS  /tmp/ccNDTFpx.s 			page 45


 2509 008c F0BD     		pop	{r4, r5, r6, r7, pc}
 2510              	.LVL175:
 2511              	.L196:
 2512              		.cfi_restore_state
 2513              		.loc 1 310 3 discriminator 6 view .LVU554
 2514 008e 002E     		cmp	r6, #0
 2515 0090 C4D0     		beq	.L174
 2516              		.loc 1 310 3 discriminator 8 view .LVU555
 2517 0092 002A     		cmp	r2, #0
 2518 0094 C5D1     		bne	.L175
 2519 0096 C1E7     		b	.L174
 2520              	.LVL176:
 2521              	.L197:
 2522              	.LBB534:
 2523              	.LBB531:
 2524              	.LBB529:
 2525              		.loc 3 367 3 is_stmt 1 view .LVU556
 2526 0098 0548     		ldr	r0, .L199+12
 2527 009a FFF7FEFF 		bl	chSysHalt
 2528              	.LVL177:
 2529 009e ECE7     		b	.L178
 2530              	.L198:
 2531              	.LBE529:
 2532              	.LBE531:
 2533              	.LBE534:
 2534              		.loc 1 319 1 is_stmt 0 view .LVU557
 2535 00a0 FFF7FEFF 		bl	__stack_chk_fail
 2536              	.LVL178:
 2537              	.L200:
 2538              		.align	2
 2539              	.L199:
 2540 00a4 00000000 		.word	.LC11
 2541 00a8 00000000 		.word	.LANCHOR10
 2542 00ac 00000000 		.word	ch
 2543 00b0 00000000 		.word	.LANCHOR1
 2544              		.cfi_endproc
 2545              	.LFE267:
 2546              		.size	spiExchange, .-spiExchange
 2547              		.section	.rodata.spiSend.cst4,"aM",%progbits,4
 2548              		.align	2
 2549              	.LC12:
 2550 0000 00000000 		.word	__stack_chk_guard
 2551              		.section	.text.spiSend,"ax",%progbits
 2552              		.align	1
 2553              		.p2align 4,,15
 2554              		.global	spiSend
 2555              		.syntax unified
 2556              		.thumb
 2557              		.thumb_func
 2558              		.fpu fpv4-sp-d16
 2559              		.type	spiSend, %function
 2560              	spiSend:
 2561              	.LVL179:
 2562              	.LFB268:
 2563              		.loc 1 337 60 is_stmt 1 view -0
 2564              		.cfi_startproc
 2565              		@ args = 0, pretend = 0, frame = 8
ARM GAS  /tmp/ccNDTFpx.s 			page 46


 2566              		@ frame_needed = 0, uses_anonymous_args = 0
 2567              		.loc 1 337 60 is_stmt 0 view .LVU559
 2568 0000 70B5     		push	{r4, r5, r6, lr}
 2569              		.cfi_def_cfa_offset 16
 2570              		.cfi_offset 4, -16
 2571              		.cfi_offset 5, -12
 2572              		.cfi_offset 6, -8
 2573              		.cfi_offset 14, -4
 2574 0002 264B     		ldr	r3, .L224
 2575 0004 82B0     		sub	sp, sp, #8
 2576              		.cfi_def_cfa_offset 24
 2577              		.loc 1 337 60 view .LVU560
 2578 0006 0D46     		mov	r5, r1
 2579 0008 1646     		mov	r6, r2
 2580 000a 1B68     		ldr	r3, [r3]
 2581 000c 0193     		str	r3, [sp, #4]
 2582 000e 4FF00003 		mov	r3,#0
 2583              		.loc 1 339 3 is_stmt 1 view .LVU561
 2584              		.loc 1 339 3 view .LVU562
 2585              		.loc 1 339 3 view .LVU563
 2586 0012 0446     		mov	r4, r0
 2587 0014 08B1     		cbz	r0, .L202
 2588              		.loc 1 339 3 is_stmt 0 discriminator 4 view .LVU564
 2589 0016 0029     		cmp	r1, #0
 2590 0018 37D1     		bne	.L221
 2591              	.L202:
 2592              		.loc 1 339 3 is_stmt 1 discriminator 7 view .LVU565
 2593 001a 2148     		ldr	r0, .L224+4
 2594              	.LVL180:
 2595              		.loc 1 339 3 is_stmt 0 discriminator 7 view .LVU566
 2596 001c FFF7FEFF 		bl	chSysHalt
 2597              	.LVL181:
 2598              	.L203:
 2599              		.loc 1 339 3 is_stmt 1 discriminator 9 view .LVU567
 2600              		.loc 1 341 3 discriminator 9 view .LVU568
 2601              	.LBB550:
 2602              	.LBI550:
 2603              		.loc 2 445 20 discriminator 9 view .LVU569
 2604              	.LBE550:
 2605              		.loc 2 447 3 discriminator 9 view .LVU570
 2606              	.LBB559:
 2607              	.LBB551:
 2608              	.LBI551:
 2609              		.loc 3 346 20 discriminator 9 view .LVU571
 2610              	.LBB552:
 2611              		.loc 3 348 3 discriminator 9 view .LVU572
 2612              	.LBB553:
 2613              	.LBI553:
 2614              		.loc 4 444 20 discriminator 9 view .LVU573
 2615              	.LBE553:
 2616              	.LBE552:
 2617              	.LBE551:
 2618              	.LBE559:
 2619              		.loc 4 447 3 discriminator 9 view .LVU574
 2620              	.LBB560:
 2621              	.LBB558:
 2622              	.LBB557:
ARM GAS  /tmp/ccNDTFpx.s 			page 47


 2623              	.LBB556:
 2624              	.LBB554:
 2625              	.LBI554:
 2626              		.loc 5 544 57 discriminator 9 view .LVU575
 2627              	.LBB555:
 2628              		.loc 5 546 3 discriminator 9 view .LVU576
 2629 0020 2023     		movs	r3, #32
 2630              		.syntax unified
 2631              	@ 546 ".//ChibiOS//os/ext/CMSIS/include/core_cmFunc.h" 1
 2632 0022 83F31188 		MSR basepri, r3
 2633              	@ 0 "" 2
 2634              	.LVL182:
 2635              		.loc 5 546 3 is_stmt 0 discriminator 9 view .LVU577
 2636              		.thumb
 2637              		.syntax unified
 2638              	.LBE555:
 2639              	.LBE554:
 2640              	.LBE556:
 2641              		.loc 3 349 3 is_stmt 1 discriminator 9 view .LVU578
 2642 0026 FFF7FEFF 		bl	_stats_start_measure_crit_thd
 2643              	.LVL183:
 2644              		.loc 3 350 3 discriminator 9 view .LVU579
 2645 002a FFF7FEFF 		bl	_dbg_check_lock
 2646              	.LVL184:
 2647              	.LBE557:
 2648              	.LBE558:
 2649              	.LBE560:
 2650              		.loc 1 342 3 discriminator 9 view .LVU580
 2651              		.loc 1 342 3 discriminator 9 view .LVU581
 2652              		.loc 1 342 3 discriminator 9 view .LVU582
 2653 002e 2378     		ldrb	r3, [r4]	@ zero_extendqisi2
 2654 0030 022B     		cmp	r3, #2
 2655 0032 02D0     		beq	.L204
 2656              		.loc 1 342 3 discriminator 3 view .LVU583
 2657 0034 1A48     		ldr	r0, .L224+4
 2658 0036 FFF7FEFF 		bl	chSysHalt
 2659              	.LVL185:
 2660              	.L204:
 2661              		.loc 1 342 3 discriminator 1 view .LVU584
 2662              		.loc 1 343 3 discriminator 1 view .LVU585
 2663              		.loc 1 343 3 discriminator 1 view .LVU586
 2664              		.loc 1 343 3 discriminator 1 view .LVU587
 2665 003a 6368     		ldr	r3, [r4, #4]
 2666 003c 1B68     		ldr	r3, [r3]
 2667 003e 13B1     		cbz	r3, .L205
 2668              		.loc 1 343 3 discriminator 3 view .LVU588
 2669 0040 1748     		ldr	r0, .L224+4
 2670 0042 FFF7FEFF 		bl	chSysHalt
 2671              	.LVL186:
 2672              	.L205:
 2673              		.loc 1 343 3 discriminator 5 view .LVU589
 2674              		.loc 1 344 3 discriminator 5 view .LVU590
 2675 0046 0323     		movs	r3, #3
 2676 0048 3246     		mov	r2, r6
 2677 004a 2370     		strb	r3, [r4]
 2678              		.loc 1 344 3 discriminator 5 view .LVU591
 2679 004c 2946     		mov	r1, r5
ARM GAS  /tmp/ccNDTFpx.s 			page 48


 2680 004e 2046     		mov	r0, r4
 2681 0050 FFF7FEFF 		bl	spi_lld_send
 2682              	.LVL187:
 2683              		.loc 1 344 32 discriminator 5 view .LVU592
 2684              		.loc 1 345 3 discriminator 5 view .LVU593
 2685              	.LBB561:
 2686              	.LBI561:
 2687              		.loc 2 640 21 discriminator 5 view .LVU594
 2688              	.LBB562:
 2689              		.loc 2 642 3 discriminator 5 view .LVU595
 2690              		.loc 2 642 10 is_stmt 0 discriminator 5 view .LVU596
 2691 0054 04F10800 		add	r0, r4, #8
 2692              	.LVL188:
 2693              		.loc 2 642 10 discriminator 5 view .LVU597
 2694 0058 FFF7FEFF 		bl	chThdSuspendS
 2695              	.LVL189:
 2696              		.loc 2 642 10 discriminator 5 view .LVU598
 2697              	.LBE562:
 2698              	.LBE561:
 2699              		.loc 1 346 3 is_stmt 1 discriminator 5 view .LVU599
 2700              	.LBB563:
 2701              	.LBI563:
 2702              		.loc 2 456 20 discriminator 5 view .LVU600
 2703              	.LBE563:
 2704              		.loc 2 458 3 discriminator 5 view .LVU601
 2705              	.LBB574:
 2706              	.LBB564:
 2707              	.LBI564:
 2708              		.loc 3 358 20 discriminator 5 view .LVU602
 2709              	.LBB565:
 2710              		.loc 3 360 3 discriminator 5 view .LVU603
 2711 005c FFF7FEFF 		bl	_dbg_check_unlock
 2712              	.LVL190:
 2713              		.loc 3 361 3 discriminator 5 view .LVU604
 2714 0060 FFF7FEFF 		bl	_stats_stop_measure_crit_thd
 2715              	.LVL191:
 2716              		.loc 3 367 3 discriminator 5 view .LVU605
 2717              		.loc 3 367 3 discriminator 5 view .LVU606
 2718              		.loc 3 367 3 discriminator 5 view .LVU607
 2719 0064 0F4B     		ldr	r3, .L224+8
 2720 0066 1A68     		ldr	r2, [r3]
 2721 0068 9A42     		cmp	r2, r3
 2722 006a 04D0     		beq	.L206
 2723              		.loc 3 367 3 is_stmt 0 view .LVU608
 2724 006c 9969     		ldr	r1, [r3, #24]
 2725 006e 9368     		ldr	r3, [r2, #8]
 2726 0070 8A68     		ldr	r2, [r1, #8]
 2727 0072 9A42     		cmp	r2, r3
 2728 0074 0CD3     		bcc	.L222
 2729              	.L206:
 2730              		.loc 3 367 3 is_stmt 1 view .LVU609
 2731              		.loc 3 371 3 view .LVU610
 2732              	.LBB566:
 2733              	.LBI566:
 2734              		.loc 4 458 20 view .LVU611
 2735              	.LBE566:
 2736              	.LBE565:
ARM GAS  /tmp/ccNDTFpx.s 			page 49


 2737              	.LBE564:
 2738              	.LBE574:
 2739              		.loc 4 461 3 view .LVU612
 2740              	.LVL192:
 2741              	.LBB575:
 2742              	.LBB572:
 2743              	.LBB570:
 2744              	.LBB569:
 2745              	.LBB567:
 2746              	.LBI567:
 2747              		.loc 5 544 57 view .LVU613
 2748              	.LBB568:
 2749              		.loc 5 546 3 view .LVU614
 2750 0076 0023     		movs	r3, #0
 2751              		.syntax unified
 2752              	@ 546 ".//ChibiOS//os/ext/CMSIS/include/core_cmFunc.h" 1
 2753 0078 83F31188 		MSR basepri, r3
 2754              	@ 0 "" 2
 2755              	.LVL193:
 2756              		.loc 5 546 3 is_stmt 0 view .LVU615
 2757              		.thumb
 2758              		.syntax unified
 2759              	.LBE568:
 2760              	.LBE567:
 2761              	.LBE569:
 2762              	.LBE570:
 2763              	.LBE572:
 2764              	.LBE575:
 2765              		.loc 1 347 1 view .LVU616
 2766 007c 074B     		ldr	r3, .L224
 2767 007e 1A68     		ldr	r2, [r3]
 2768 0080 019B     		ldr	r3, [sp, #4]
 2769 0082 5A40     		eors	r2, r3, r2
 2770 0084 08D1     		bne	.L223
 2771 0086 02B0     		add	sp, sp, #8
 2772              		.cfi_remember_state
 2773              		.cfi_def_cfa_offset 16
 2774              		@ sp needed
 2775 0088 70BD     		pop	{r4, r5, r6, pc}
 2776              	.LVL194:
 2777              	.L221:
 2778              		.cfi_restore_state
 2779              		.loc 1 339 3 discriminator 6 view .LVU617
 2780 008a 002A     		cmp	r2, #0
 2781 008c C8D1     		bne	.L203
 2782 008e C4E7     		b	.L202
 2783              	.LVL195:
 2784              	.L222:
 2785              	.LBB576:
 2786              	.LBB573:
 2787              	.LBB571:
 2788              		.loc 3 367 3 is_stmt 1 view .LVU618
 2789 0090 0548     		ldr	r0, .L224+12
 2790 0092 FFF7FEFF 		bl	chSysHalt
 2791              	.LVL196:
 2792 0096 EEE7     		b	.L206
 2793              	.L223:
ARM GAS  /tmp/ccNDTFpx.s 			page 50


 2794              	.LBE571:
 2795              	.LBE573:
 2796              	.LBE576:
 2797              		.loc 1 347 1 is_stmt 0 view .LVU619
 2798 0098 FFF7FEFF 		bl	__stack_chk_fail
 2799              	.LVL197:
 2800              	.L225:
 2801              		.align	2
 2802              	.L224:
 2803 009c 00000000 		.word	.LC12
 2804 00a0 00000000 		.word	.LANCHOR11
 2805 00a4 00000000 		.word	ch
 2806 00a8 00000000 		.word	.LANCHOR1
 2807              		.cfi_endproc
 2808              	.LFE268:
 2809              		.size	spiSend, .-spiSend
 2810              		.section	.rodata.spiReceive.cst4,"aM",%progbits,4
 2811              		.align	2
 2812              	.LC13:
 2813 0000 00000000 		.word	__stack_chk_guard
 2814              		.section	.text.spiReceive,"ax",%progbits
 2815              		.align	1
 2816              		.p2align 4,,15
 2817              		.global	spiReceive
 2818              		.syntax unified
 2819              		.thumb
 2820              		.thumb_func
 2821              		.fpu fpv4-sp-d16
 2822              		.type	spiReceive, %function
 2823              	spiReceive:
 2824              	.LVL198:
 2825              	.LFB269:
 2826              		.loc 1 365 57 is_stmt 1 view -0
 2827              		.cfi_startproc
 2828              		@ args = 0, pretend = 0, frame = 8
 2829              		@ frame_needed = 0, uses_anonymous_args = 0
 2830              		.loc 1 365 57 is_stmt 0 view .LVU621
 2831 0000 70B5     		push	{r4, r5, r6, lr}
 2832              		.cfi_def_cfa_offset 16
 2833              		.cfi_offset 4, -16
 2834              		.cfi_offset 5, -12
 2835              		.cfi_offset 6, -8
 2836              		.cfi_offset 14, -4
 2837 0002 264B     		ldr	r3, .L249
 2838 0004 82B0     		sub	sp, sp, #8
 2839              		.cfi_def_cfa_offset 24
 2840              		.loc 1 365 57 view .LVU622
 2841 0006 0D46     		mov	r5, r1
 2842 0008 1646     		mov	r6, r2
 2843 000a 1B68     		ldr	r3, [r3]
 2844 000c 0193     		str	r3, [sp, #4]
 2845 000e 4FF00003 		mov	r3,#0
 2846              		.loc 1 367 3 is_stmt 1 view .LVU623
 2847              		.loc 1 367 3 view .LVU624
 2848              		.loc 1 367 3 view .LVU625
 2849 0012 0446     		mov	r4, r0
 2850 0014 08B1     		cbz	r0, .L227
ARM GAS  /tmp/ccNDTFpx.s 			page 51


 2851              		.loc 1 367 3 is_stmt 0 discriminator 4 view .LVU626
 2852 0016 0029     		cmp	r1, #0
 2853 0018 37D1     		bne	.L246
 2854              	.L227:
 2855              		.loc 1 367 3 is_stmt 1 discriminator 7 view .LVU627
 2856 001a 2148     		ldr	r0, .L249+4
 2857              	.LVL199:
 2858              		.loc 1 367 3 is_stmt 0 discriminator 7 view .LVU628
 2859 001c FFF7FEFF 		bl	chSysHalt
 2860              	.LVL200:
 2861              	.L228:
 2862              		.loc 1 367 3 is_stmt 1 discriminator 9 view .LVU629
 2863              		.loc 1 369 3 discriminator 9 view .LVU630
 2864              	.LBB592:
 2865              	.LBI592:
 2866              		.loc 2 445 20 discriminator 9 view .LVU631
 2867              	.LBE592:
 2868              		.loc 2 447 3 discriminator 9 view .LVU632
 2869              	.LBB601:
 2870              	.LBB593:
 2871              	.LBI593:
 2872              		.loc 3 346 20 discriminator 9 view .LVU633
 2873              	.LBB594:
 2874              		.loc 3 348 3 discriminator 9 view .LVU634
 2875              	.LBB595:
 2876              	.LBI595:
 2877              		.loc 4 444 20 discriminator 9 view .LVU635
 2878              	.LBE595:
 2879              	.LBE594:
 2880              	.LBE593:
 2881              	.LBE601:
 2882              		.loc 4 447 3 discriminator 9 view .LVU636
 2883              	.LBB602:
 2884              	.LBB600:
 2885              	.LBB599:
 2886              	.LBB598:
 2887              	.LBB596:
 2888              	.LBI596:
 2889              		.loc 5 544 57 discriminator 9 view .LVU637
 2890              	.LBB597:
 2891              		.loc 5 546 3 discriminator 9 view .LVU638
 2892 0020 2023     		movs	r3, #32
 2893              		.syntax unified
 2894              	@ 546 ".//ChibiOS//os/ext/CMSIS/include/core_cmFunc.h" 1
 2895 0022 83F31188 		MSR basepri, r3
 2896              	@ 0 "" 2
 2897              	.LVL201:
 2898              		.loc 5 546 3 is_stmt 0 discriminator 9 view .LVU639
 2899              		.thumb
 2900              		.syntax unified
 2901              	.LBE597:
 2902              	.LBE596:
 2903              	.LBE598:
 2904              		.loc 3 349 3 is_stmt 1 discriminator 9 view .LVU640
 2905 0026 FFF7FEFF 		bl	_stats_start_measure_crit_thd
 2906              	.LVL202:
 2907              		.loc 3 350 3 discriminator 9 view .LVU641
ARM GAS  /tmp/ccNDTFpx.s 			page 52


 2908 002a FFF7FEFF 		bl	_dbg_check_lock
 2909              	.LVL203:
 2910              	.LBE599:
 2911              	.LBE600:
 2912              	.LBE602:
 2913              		.loc 1 370 3 discriminator 9 view .LVU642
 2914              		.loc 1 370 3 discriminator 9 view .LVU643
 2915              		.loc 1 370 3 discriminator 9 view .LVU644
 2916 002e 2378     		ldrb	r3, [r4]	@ zero_extendqisi2
 2917 0030 022B     		cmp	r3, #2
 2918 0032 02D0     		beq	.L229
 2919              		.loc 1 370 3 discriminator 3 view .LVU645
 2920 0034 1A48     		ldr	r0, .L249+4
 2921 0036 FFF7FEFF 		bl	chSysHalt
 2922              	.LVL204:
 2923              	.L229:
 2924              		.loc 1 370 3 discriminator 1 view .LVU646
 2925              		.loc 1 371 3 discriminator 1 view .LVU647
 2926              		.loc 1 371 3 discriminator 1 view .LVU648
 2927              		.loc 1 371 3 discriminator 1 view .LVU649
 2928 003a 6368     		ldr	r3, [r4, #4]
 2929 003c 1B68     		ldr	r3, [r3]
 2930 003e 13B1     		cbz	r3, .L230
 2931              		.loc 1 371 3 discriminator 3 view .LVU650
 2932 0040 1748     		ldr	r0, .L249+4
 2933 0042 FFF7FEFF 		bl	chSysHalt
 2934              	.LVL205:
 2935              	.L230:
 2936              		.loc 1 371 3 discriminator 5 view .LVU651
 2937              		.loc 1 372 3 discriminator 5 view .LVU652
 2938 0046 0323     		movs	r3, #3
 2939 0048 3246     		mov	r2, r6
 2940 004a 2370     		strb	r3, [r4]
 2941              		.loc 1 372 3 discriminator 5 view .LVU653
 2942 004c 2946     		mov	r1, r5
 2943 004e 2046     		mov	r0, r4
 2944 0050 FFF7FEFF 		bl	spi_lld_receive
 2945              	.LVL206:
 2946              		.loc 1 372 35 discriminator 5 view .LVU654
 2947              		.loc 1 373 3 discriminator 5 view .LVU655
 2948              	.LBB603:
 2949              	.LBI603:
 2950              		.loc 2 640 21 discriminator 5 view .LVU656
 2951              	.LBB604:
 2952              		.loc 2 642 3 discriminator 5 view .LVU657
 2953              		.loc 2 642 10 is_stmt 0 discriminator 5 view .LVU658
 2954 0054 04F10800 		add	r0, r4, #8
 2955              	.LVL207:
 2956              		.loc 2 642 10 discriminator 5 view .LVU659
 2957 0058 FFF7FEFF 		bl	chThdSuspendS
 2958              	.LVL208:
 2959              		.loc 2 642 10 discriminator 5 view .LVU660
 2960              	.LBE604:
 2961              	.LBE603:
 2962              		.loc 1 374 3 is_stmt 1 discriminator 5 view .LVU661
 2963              	.LBB605:
 2964              	.LBI605:
ARM GAS  /tmp/ccNDTFpx.s 			page 53


 2965              		.loc 2 456 20 discriminator 5 view .LVU662
 2966              	.LBE605:
 2967              		.loc 2 458 3 discriminator 5 view .LVU663
 2968              	.LBB616:
 2969              	.LBB606:
 2970              	.LBI606:
 2971              		.loc 3 358 20 discriminator 5 view .LVU664
 2972              	.LBB607:
 2973              		.loc 3 360 3 discriminator 5 view .LVU665
 2974 005c FFF7FEFF 		bl	_dbg_check_unlock
 2975              	.LVL209:
 2976              		.loc 3 361 3 discriminator 5 view .LVU666
 2977 0060 FFF7FEFF 		bl	_stats_stop_measure_crit_thd
 2978              	.LVL210:
 2979              		.loc 3 367 3 discriminator 5 view .LVU667
 2980              		.loc 3 367 3 discriminator 5 view .LVU668
 2981              		.loc 3 367 3 discriminator 5 view .LVU669
 2982 0064 0F4B     		ldr	r3, .L249+8
 2983 0066 1A68     		ldr	r2, [r3]
 2984 0068 9A42     		cmp	r2, r3
 2985 006a 04D0     		beq	.L231
 2986              		.loc 3 367 3 is_stmt 0 view .LVU670
 2987 006c 9969     		ldr	r1, [r3, #24]
 2988 006e 9368     		ldr	r3, [r2, #8]
 2989 0070 8A68     		ldr	r2, [r1, #8]
 2990 0072 9A42     		cmp	r2, r3
 2991 0074 0CD3     		bcc	.L247
 2992              	.L231:
 2993              		.loc 3 367 3 is_stmt 1 view .LVU671
 2994              		.loc 3 371 3 view .LVU672
 2995              	.LBB608:
 2996              	.LBI608:
 2997              		.loc 4 458 20 view .LVU673
 2998              	.LBE608:
 2999              	.LBE607:
 3000              	.LBE606:
 3001              	.LBE616:
 3002              		.loc 4 461 3 view .LVU674
 3003              	.LVL211:
 3004              	.LBB617:
 3005              	.LBB614:
 3006              	.LBB612:
 3007              	.LBB611:
 3008              	.LBB609:
 3009              	.LBI609:
 3010              		.loc 5 544 57 view .LVU675
 3011              	.LBB610:
 3012              		.loc 5 546 3 view .LVU676
 3013 0076 0023     		movs	r3, #0
 3014              		.syntax unified
 3015              	@ 546 ".//ChibiOS//os/ext/CMSIS/include/core_cmFunc.h" 1
 3016 0078 83F31188 		MSR basepri, r3
 3017              	@ 0 "" 2
 3018              	.LVL212:
 3019              		.loc 5 546 3 is_stmt 0 view .LVU677
 3020              		.thumb
 3021              		.syntax unified
ARM GAS  /tmp/ccNDTFpx.s 			page 54


 3022              	.LBE610:
 3023              	.LBE609:
 3024              	.LBE611:
 3025              	.LBE612:
 3026              	.LBE614:
 3027              	.LBE617:
 3028              		.loc 1 375 1 view .LVU678
 3029 007c 074B     		ldr	r3, .L249
 3030 007e 1A68     		ldr	r2, [r3]
 3031 0080 019B     		ldr	r3, [sp, #4]
 3032 0082 5A40     		eors	r2, r3, r2
 3033 0084 08D1     		bne	.L248
 3034 0086 02B0     		add	sp, sp, #8
 3035              		.cfi_remember_state
 3036              		.cfi_def_cfa_offset 16
 3037              		@ sp needed
 3038 0088 70BD     		pop	{r4, r5, r6, pc}
 3039              	.LVL213:
 3040              	.L246:
 3041              		.cfi_restore_state
 3042              		.loc 1 367 3 discriminator 6 view .LVU679
 3043 008a 002A     		cmp	r2, #0
 3044 008c C8D1     		bne	.L228
 3045 008e C4E7     		b	.L227
 3046              	.LVL214:
 3047              	.L247:
 3048              	.LBB618:
 3049              	.LBB615:
 3050              	.LBB613:
 3051              		.loc 3 367 3 is_stmt 1 view .LVU680
 3052 0090 0548     		ldr	r0, .L249+12
 3053 0092 FFF7FEFF 		bl	chSysHalt
 3054              	.LVL215:
 3055 0096 EEE7     		b	.L231
 3056              	.L248:
 3057              	.LBE613:
 3058              	.LBE615:
 3059              	.LBE618:
 3060              		.loc 1 375 1 is_stmt 0 view .LVU681
 3061 0098 FFF7FEFF 		bl	__stack_chk_fail
 3062              	.LVL216:
 3063              	.L250:
 3064              		.align	2
 3065              	.L249:
 3066 009c 00000000 		.word	.LC13
 3067 00a0 00000000 		.word	.LANCHOR12
 3068 00a4 00000000 		.word	ch
 3069 00a8 00000000 		.word	.LANCHOR1
 3070              		.cfi_endproc
 3071              	.LFE269:
 3072              		.size	spiReceive, .-spiReceive
 3073              		.section	.rodata.spiAcquireBus.cst4,"aM",%progbits,4
 3074              		.align	2
 3075              	.LC14:
 3076 0000 00000000 		.word	__stack_chk_guard
 3077              		.section	.text.spiAcquireBus,"ax",%progbits
 3078              		.align	1
ARM GAS  /tmp/ccNDTFpx.s 			page 55


 3079              		.p2align 4,,15
 3080              		.global	spiAcquireBus
 3081              		.syntax unified
 3082              		.thumb
 3083              		.thumb_func
 3084              		.fpu fpv4-sp-d16
 3085              		.type	spiAcquireBus, %function
 3086              	spiAcquireBus:
 3087              	.LVL217:
 3088              	.LFB270:
 3089              		.loc 1 390 37 is_stmt 1 view -0
 3090              		.cfi_startproc
 3091              		@ args = 0, pretend = 0, frame = 8
 3092              		@ frame_needed = 0, uses_anonymous_args = 0
 3093              		.loc 1 390 37 is_stmt 0 view .LVU683
 3094 0000 10B5     		push	{r4, lr}
 3095              		.cfi_def_cfa_offset 8
 3096              		.cfi_offset 4, -8
 3097              		.cfi_offset 14, -4
 3098 0002 0D4B     		ldr	r3, .L258
 3099 0004 82B0     		sub	sp, sp, #8
 3100              		.cfi_def_cfa_offset 16
 3101              		.loc 1 390 37 view .LVU684
 3102 0006 1B68     		ldr	r3, [r3]
 3103 0008 0193     		str	r3, [sp, #4]
 3104 000a 4FF00003 		mov	r3,#0
 3105              		.loc 1 392 3 is_stmt 1 view .LVU685
 3106              		.loc 1 392 3 view .LVU686
 3107              		.loc 1 392 3 view .LVU687
 3108 000e 0446     		mov	r4, r0
 3109 0010 58B1     		cbz	r0, .L256
 3110              	.LVL218:
 3111              	.L252:
 3112              		.loc 1 392 3 discriminator 5 view .LVU688
 3113              		.loc 1 394 3 discriminator 5 view .LVU689
 3114              	.LBB619:
 3115              	.LBI619:
 3116              		.loc 2 858 20 discriminator 5 view .LVU690
 3117              	.LBB620:
 3118              		.loc 2 861 3 discriminator 5 view .LVU691
 3119 0012 094B     		ldr	r3, .L258
 3120 0014 1A68     		ldr	r2, [r3]
 3121 0016 019B     		ldr	r3, [sp, #4]
 3122 0018 5A40     		eors	r2, r3, r2
 3123 001a 0AD1     		bne	.L257
 3124 001c 04F10C00 		add	r0, r4, #12
 3125              	.LVL219:
 3126              		.loc 2 861 3 is_stmt 0 discriminator 5 view .LVU692
 3127              	.LBE620:
 3128              	.LBE619:
 3129              		.loc 1 395 1 discriminator 5 view .LVU693
 3130 0020 02B0     		add	sp, sp, #8
 3131              		.cfi_remember_state
 3132              		.cfi_def_cfa_offset 8
 3133              		@ sp needed
 3134 0022 BDE81040 		pop	{r4, lr}
 3135              		.cfi_restore 14
ARM GAS  /tmp/ccNDTFpx.s 			page 56


 3136              		.cfi_restore 4
 3137              		.cfi_def_cfa_offset 0
 3138              	.LVL220:
 3139              	.LBB623:
 3140              	.LBB621:
 3141              		.loc 2 861 3 discriminator 5 view .LVU694
 3142 0026 FFF7FEBF 		b	chMtxLock
 3143              	.LVL221:
 3144              	.L256:
 3145              		.cfi_restore_state
 3146              		.loc 2 861 3 discriminator 5 view .LVU695
 3147              	.LBE621:
 3148              	.LBE623:
 3149              		.loc 1 392 3 is_stmt 1 discriminator 3 view .LVU696
 3150 002a 0448     		ldr	r0, .L258+4
 3151              	.LVL222:
 3152              		.loc 1 392 3 is_stmt 0 discriminator 3 view .LVU697
 3153 002c FFF7FEFF 		bl	chSysHalt
 3154              	.LVL223:
 3155 0030 EFE7     		b	.L252
 3156              	.LVL224:
 3157              	.L257:
 3158              	.LBB624:
 3159              	.LBB622:
 3160              		.loc 2 861 3 discriminator 5 view .LVU698
 3161 0032 FFF7FEFF 		bl	__stack_chk_fail
 3162              	.LVL225:
 3163              	.L259:
 3164 0036 00BF     		.align	2
 3165              	.L258:
 3166 0038 00000000 		.word	.LC14
 3167 003c 00000000 		.word	.LANCHOR13
 3168              	.LBE622:
 3169              	.LBE624:
 3170              		.cfi_endproc
 3171              	.LFE270:
 3172              		.size	spiAcquireBus, .-spiAcquireBus
 3173              		.section	.rodata.spiReleaseBus.cst4,"aM",%progbits,4
 3174              		.align	2
 3175              	.LC15:
 3176 0000 00000000 		.word	__stack_chk_guard
 3177              		.section	.text.spiReleaseBus,"ax",%progbits
 3178              		.align	1
 3179              		.p2align 4,,15
 3180              		.global	spiReleaseBus
 3181              		.syntax unified
 3182              		.thumb
 3183              		.thumb_func
 3184              		.fpu fpv4-sp-d16
 3185              		.type	spiReleaseBus, %function
 3186              	spiReleaseBus:
 3187              	.LVL226:
 3188              	.LFB271:
 3189              		.loc 1 406 37 is_stmt 1 view -0
 3190              		.cfi_startproc
 3191              		@ args = 0, pretend = 0, frame = 8
 3192              		@ frame_needed = 0, uses_anonymous_args = 0
ARM GAS  /tmp/ccNDTFpx.s 			page 57


 3193              		.loc 1 406 37 is_stmt 0 view .LVU700
 3194 0000 10B5     		push	{r4, lr}
 3195              		.cfi_def_cfa_offset 8
 3196              		.cfi_offset 4, -8
 3197              		.cfi_offset 14, -4
 3198 0002 0D4B     		ldr	r3, .L267
 3199 0004 82B0     		sub	sp, sp, #8
 3200              		.cfi_def_cfa_offset 16
 3201              		.loc 1 406 37 view .LVU701
 3202 0006 1B68     		ldr	r3, [r3]
 3203 0008 0193     		str	r3, [sp, #4]
 3204 000a 4FF00003 		mov	r3,#0
 3205              		.loc 1 408 3 is_stmt 1 view .LVU702
 3206              		.loc 1 408 3 view .LVU703
 3207              		.loc 1 408 3 view .LVU704
 3208 000e 0446     		mov	r4, r0
 3209 0010 58B1     		cbz	r0, .L265
 3210              	.LVL227:
 3211              	.L261:
 3212              		.loc 1 408 3 discriminator 5 view .LVU705
 3213              		.loc 1 410 3 discriminator 5 view .LVU706
 3214              	.LBB625:
 3215              	.LBI625:
 3216              		.loc 2 882 20 discriminator 5 view .LVU707
 3217              	.LBB626:
 3218              		.loc 2 885 3 discriminator 5 view .LVU708
 3219 0012 094B     		ldr	r3, .L267
 3220 0014 1A68     		ldr	r2, [r3]
 3221 0016 019B     		ldr	r3, [sp, #4]
 3222 0018 5A40     		eors	r2, r3, r2
 3223 001a 0AD1     		bne	.L266
 3224 001c 04F10C00 		add	r0, r4, #12
 3225              	.LVL228:
 3226              		.loc 2 885 3 is_stmt 0 discriminator 5 view .LVU709
 3227              	.LBE626:
 3228              	.LBE625:
 3229              		.loc 1 411 1 discriminator 5 view .LVU710
 3230 0020 02B0     		add	sp, sp, #8
 3231              		.cfi_remember_state
 3232              		.cfi_def_cfa_offset 8
 3233              		@ sp needed
 3234 0022 BDE81040 		pop	{r4, lr}
 3235              		.cfi_restore 14
 3236              		.cfi_restore 4
 3237              		.cfi_def_cfa_offset 0
 3238              	.LVL229:
 3239              	.LBB629:
 3240              	.LBB627:
 3241              		.loc 2 885 3 discriminator 5 view .LVU711
 3242 0026 FFF7FEBF 		b	chMtxUnlock
 3243              	.LVL230:
 3244              	.L265:
 3245              		.cfi_restore_state
 3246              		.loc 2 885 3 discriminator 5 view .LVU712
 3247              	.LBE627:
 3248              	.LBE629:
 3249              		.loc 1 408 3 is_stmt 1 discriminator 3 view .LVU713
ARM GAS  /tmp/ccNDTFpx.s 			page 58


 3250 002a 0448     		ldr	r0, .L267+4
 3251              	.LVL231:
 3252              		.loc 1 408 3 is_stmt 0 discriminator 3 view .LVU714
 3253 002c FFF7FEFF 		bl	chSysHalt
 3254              	.LVL232:
 3255 0030 EFE7     		b	.L261
 3256              	.LVL233:
 3257              	.L266:
 3258              	.LBB630:
 3259              	.LBB628:
 3260              		.loc 2 885 3 discriminator 5 view .LVU715
 3261 0032 FFF7FEFF 		bl	__stack_chk_fail
 3262              	.LVL234:
 3263              	.L268:
 3264 0036 00BF     		.align	2
 3265              	.L267:
 3266 0038 00000000 		.word	.LC15
 3267 003c 00000000 		.word	.LANCHOR14
 3268              	.LBE628:
 3269              	.LBE630:
 3270              		.cfi_endproc
 3271              	.LFE271:
 3272              		.size	spiReleaseBus, .-spiReleaseBus
 3273              		.section	.rodata.__func__.10004,"a"
 3274              		.align	2
 3275              		.set	.LANCHOR10,. + 0
 3276              		.type	__func__.10004, %object
 3277              		.size	__func__.10004, 12
 3278              	__func__.10004:
 3279 0000 73706945 		.ascii	"spiExchange\000"
 3279      78636861 
 3279      6E676500 
 3280              		.section	.rodata.__func__.10010,"a"
 3281              		.align	2
 3282              		.set	.LANCHOR11,. + 0
 3283              		.type	__func__.10010, %object
 3284              		.size	__func__.10010, 8
 3285              	__func__.10010:
 3286 0000 73706953 		.ascii	"spiSend\000"
 3286      656E6400 
 3287              		.section	.rodata.__func__.10016,"a"
 3288              		.align	2
 3289              		.set	.LANCHOR12,. + 0
 3290              		.type	__func__.10016, %object
 3291              		.size	__func__.10016, 11
 3292              	__func__.10016:
 3293 0000 73706952 		.ascii	"spiReceive\000"
 3293      65636569 
 3293      766500
 3294              		.section	.rodata.__func__.10020,"a"
 3295              		.align	2
 3296              		.set	.LANCHOR13,. + 0
 3297              		.type	__func__.10020, %object
 3298              		.size	__func__.10020, 14
 3299              	__func__.10020:
 3300 0000 73706941 		.ascii	"spiAcquireBus\000"
 3300      63717569 
ARM GAS  /tmp/ccNDTFpx.s 			page 59


 3300      72654275 
 3300      7300
 3301              		.section	.rodata.__func__.10024,"a"
 3302              		.align	2
 3303              		.set	.LANCHOR14,. + 0
 3304              		.type	__func__.10024, %object
 3305              		.size	__func__.10024, 14
 3306              	__func__.10024:
 3307 0000 73706952 		.ascii	"spiReleaseBus\000"
 3307      656C6561 
 3307      73654275 
 3307      7300
 3308              		.section	.rodata.__func__.7261,"a"
 3309              		.align	2
 3310              		.set	.LANCHOR1,. + 0
 3311              		.type	__func__.7261, %object
 3312              		.size	__func__.7261, 12
 3313              	__func__.7261:
 3314 0000 63685379 		.ascii	"chSysUnlock\000"
 3314      73556E6C 
 3314      6F636B00 
 3315              		.section	.rodata.__func__.9956,"a"
 3316              		.align	2
 3317              		.set	.LANCHOR0,. + 0
 3318              		.type	__func__.9956, %object
 3319              		.size	__func__.9956, 9
 3320              	__func__.9956:
 3321 0000 73706953 		.ascii	"spiStart\000"
 3321      74617274 
 3321      00
 3322              		.section	.rodata.__func__.9960,"a"
 3323              		.align	2
 3324              		.set	.LANCHOR2,. + 0
 3325              		.type	__func__.9960, %object
 3326              		.size	__func__.9960, 8
 3327              	__func__.9960:
 3328 0000 73706953 		.ascii	"spiStop\000"
 3328      746F7000 
 3329              		.section	.rodata.__func__.9964,"a"
 3330              		.align	2
 3331              		.set	.LANCHOR3,. + 0
 3332              		.type	__func__.9964, %object
 3333              		.size	__func__.9964, 10
 3334              	__func__.9964:
 3335 0000 73706953 		.ascii	"spiSelect\000"
 3335      656C6563 
 3335      7400
 3336              		.section	.rodata.__func__.9968,"a"
 3337              		.align	2
 3338              		.set	.LANCHOR4,. + 0
 3339              		.type	__func__.9968, %object
 3340              		.size	__func__.9968, 12
 3341              	__func__.9968:
 3342 0000 73706955 		.ascii	"spiUnselect\000"
 3342      6E73656C 
 3342      65637400 
 3343              		.section	.rodata.__func__.9973,"a"
ARM GAS  /tmp/ccNDTFpx.s 			page 60


 3344              		.align	2
 3345              		.set	.LANCHOR5,. + 0
 3346              		.type	__func__.9973, %object
 3347              		.size	__func__.9973, 15
 3348              	__func__.9973:
 3349 0000 73706953 		.ascii	"spiStartIgnore\000"
 3349      74617274 
 3349      49676E6F 
 3349      726500
 3350              		.section	.rodata.__func__.9980,"a"
 3351              		.align	2
 3352              		.set	.LANCHOR6,. + 0
 3353              		.type	__func__.9980, %object
 3354              		.size	__func__.9980, 17
 3355              	__func__.9980:
 3356 0000 73706953 		.ascii	"spiStartExchange\000"
 3356      74617274 
 3356      45786368 
 3356      616E6765 
 3356      00
 3357              		.section	.rodata.__func__.9986,"a"
 3358              		.align	2
 3359              		.set	.LANCHOR7,. + 0
 3360              		.type	__func__.9986, %object
 3361              		.size	__func__.9986, 13
 3362              	__func__.9986:
 3363 0000 73706953 		.ascii	"spiStartSend\000"
 3363      74617274 
 3363      53656E64 
 3363      00
 3364              		.section	.rodata.__func__.9992,"a"
 3365              		.align	2
 3366              		.set	.LANCHOR8,. + 0
 3367              		.type	__func__.9992, %object
 3368              		.size	__func__.9992, 16
 3369              	__func__.9992:
 3370 0000 73706953 		.ascii	"spiStartReceive\000"
 3370      74617274 
 3370      52656365 
 3370      69766500 
 3371              		.section	.rodata.__func__.9997,"a"
 3372              		.align	2
 3373              		.set	.LANCHOR9,. + 0
 3374              		.type	__func__.9997, %object
 3375              		.size	__func__.9997, 10
 3376              	__func__.9997:
 3377 0000 73706949 		.ascii	"spiIgnore\000"
 3377      676E6F72 
 3377      6500
 3378              		.text
 3379              	.Letext0:
 3380              		.file 6 "/usr/lib/gcc/arm-none-eabi/9.2.1/include/stddef.h"
 3381              		.file 7 "/usr/lib/gcc/arm-none-eabi/9.2.1/include/stdint.h"
 3382              		.file 8 ".//ChibiOS//os/rt/ports/ARMCMx/compilers/GCC/chtypes.h"
 3383              		.file 9 ".//ChibiOS//os/rt/include/chsystypes.h"
 3384              		.file 10 ".//ChibiOS//os/rt/include/chschd.h"
 3385              		.file 11 ".//ChibiOS//os/ext/CMSIS/include/core_cm4.h"
ARM GAS  /tmp/ccNDTFpx.s 			page 61


 3386              		.file 12 ".//ChibiOS//os/ext/CMSIS/ST/system_stm32f4xx.h"
 3387              		.file 13 ".//ChibiOS//os/ext/CMSIS/ST/stm32f407xx.h"
 3388              		.file 14 ".//ChibiOS//os/rt/ports/ARMCMx/chcore.h"
 3389              		.file 15 ".//ChibiOS//os/rt/include/chdebug.h"
 3390              		.file 16 ".//ChibiOS//os/rt/include/chtm.h"
 3391              		.file 17 ".//ChibiOS//os/rt/include/chstats.h"
 3392              		.file 18 ".//ChibiOS//os/rt/include/chsem.h"
 3393              		.file 19 ".//ChibiOS//os/rt/include/chmtx.h"
 3394              		.file 20 ".//ChibiOS//os/rt/include/chregistry.h"
 3395              		.file 21 ".//ChibiOS//os/rt/include/chevents.h"
 3396              		.file 22 ".//ChibiOS//os/rt/include/chqueues.h"
 3397              		.file 23 ".//ChibiOS//os/hal/ports/STM32/STM32F4xx/stm32_dma.h"
 3398              		.file 24 ".//ChibiOS//os/hal/include/hal_ioblock.h"
 3399              		.file 25 ".//ChibiOS//os/hal/ports/STM32/LLD/GPIOv2/pal_lld.h"
 3400              		.file 26 ".//ChibiOS//os/hal/include/adc.h"
 3401              		.file 27 ".//ChibiOS//os/hal/ports/STM32/STM32F4xx/adc_lld.h"
 3402              		.file 28 ".//ChibiOS//os/hal/include/can.h"
 3403              		.file 29 ".//ChibiOS//os/hal/ports/STM32/LLD/can_lld.h"
 3404              		.file 30 ".//ChibiOS//os/hal/include/dac.h"
 3405              		.file 31 ".//ChibiOS//os/hal/ports/STM32/LLD/DACv1/dac_lld.h"
 3406              		.file 32 ".//ChibiOS//os/hal/include/ext.h"
 3407              		.file 33 ".//ChibiOS//os/hal/ports/STM32/LLD/ext_lld.h"
 3408              		.file 34 ".//ChibiOS//os/hal/include/gpt.h"
 3409              		.file 35 ".//ChibiOS//os/hal/ports/STM32/LLD/TIMv1/gpt_lld.h"
 3410              		.file 36 ".//ChibiOS//os/hal/ports/STM32/LLD/TIMv1/stm32_tim.h"
 3411              		.file 37 ".//ChibiOS//os/hal/include/i2c.h"
 3412              		.file 38 ".//ChibiOS//os/hal/ports/STM32/LLD/I2Cv1/i2c_lld.h"
 3413              		.file 39 ".//ChibiOS//os/hal/include/i2s.h"
 3414              		.file 40 ".//ChibiOS//os/hal/ports/STM32/LLD/SPIv1/i2s_lld.h"
 3415              		.file 41 ".//ChibiOS//os/hal/include/pwm.h"
 3416              		.file 42 ".//ChibiOS//os/hal/ports/STM32/LLD/TIMv1/pwm_lld.h"
 3417              		.file 43 ".//ChibiOS//os/hal/include/serial.h"
 3418              		.file 44 ".//ChibiOS//os/hal/ports/STM32/LLD/USARTv1/serial_lld.h"
 3419              		.file 45 ".//ChibiOS//os/hal/include/sdc.h"
 3420              		.file 46 ".//ChibiOS//os/hal/ports/STM32/LLD/sdc_lld.h"
 3421              		.file 47 ".//ChibiOS//os/hal/include/spi.h"
 3422              		.file 48 ".//ChibiOS//os/hal/ports/STM32/LLD/SPIv1/spi_lld.h"
 3423              		.file 49 ".//ChibiOS//os/hal/include/usb.h"
 3424              		.file 50 ".//ChibiOS//os/hal/ports/STM32/LLD/OTGv1/usb_lld.h"
 3425              		.file 51 ".//ChibiOS//os/hal/ports/STM32/LLD/OTGv1/stm32_otg.h"
 3426              		.file 52 ".//ChibiOS//os/rt/include/chthreads.h"