ARM GAS  /tmp/ccSSSITj.s 			page 1


   1              		.cpu cortex-m4
   2              		.eabi_attribute 27, 1
   3              		.eabi_attribute 28, 1
   4              		.eabi_attribute 20, 1
   5              		.eabi_attribute 21, 1
   6              		.eabi_attribute 23, 3
   7              		.eabi_attribute 24, 1
   8              		.eabi_attribute 25, 1
   9              		.eabi_attribute 26, 1
  10              		.eabi_attribute 30, 2
  11              		.eabi_attribute 34, 1
  12              		.eabi_attribute 18, 4
  13              		.file	"spi3_slave_lld.c"
  14              		.text
  15              	.Ltext0:
  16              		.cfi_sections	.debug_frame
  17              		.section	.rodata.spi3_slave_lld_serve_tx_interrupt.part.0.cst4,"aM",%progbits,4
  18              		.align	2
  19              	.LC0:
  20 0000 00000000 		.word	__stack_chk_guard
  21              		.section	.text.spi3_slave_lld_serve_tx_interrupt.part.0,"ax",%progbits
  22              		.align	1
  23              		.p2align 4,,15
  24              		.arch armv7e-m
  25              		.syntax unified
  26              		.thumb
  27              		.thumb_func
  28              		.fpu fpv4-sp-d16
  29              		.type	spi3_slave_lld_serve_tx_interrupt.part.0, %function
  30              	spi3_slave_lld_serve_tx_interrupt.part.0:
  31              	.LVL0:
  32              	.LFB267:
  33              		.file 1 ".//ChibiOS_ext/os/hal/ports/STM32/LLD/SPIv1/spi3_slave_lld.c"
  34              		.loc 1 92 13 view -0
  35              		.cfi_startproc
  36              		@ args = 0, pretend = 0, frame = 8
  37              		@ frame_needed = 0, uses_anonymous_args = 0
  38              		.loc 1 92 13 is_stmt 0 view .LVU1
  39 0000 10B5     		push	{r4, lr}
  40              		.cfi_def_cfa_offset 8
  41              		.cfi_offset 4, -8
  42              		.cfi_offset 14, -4
  43 0002 194B     		ldr	r3, .L11
  44 0004 82B0     		sub	sp, sp, #8
  45              		.cfi_def_cfa_offset 16
  46              		.loc 1 92 13 view .LVU2
  47 0006 1B68     		ldr	r3, [r3]
  48 0008 0193     		str	r3, [sp, #4]
  49 000a 4FF00003 		mov	r3,#0
  50              	.LVL1:
  51              		.loc 1 109 5 is_stmt 1 view .LVU3
  52 000e 4368     		ldr	r3, [r0, #4]
  53 0010 1A68     		ldr	r2, [r3]
  54              		.loc 1 92 13 is_stmt 0 view .LVU4
  55 0012 0446     		mov	r4, r0
  56              		.loc 1 109 5 view .LVU5
  57 0014 1AB3     		cbz	r2, .L2
ARM GAS  /tmp/ccSSSITj.s 			page 2


  58              		.loc 1 109 5 is_stmt 1 view .LVU6
  59 0016 0422     		movs	r2, #4
  60 0018 0270     		strb	r2, [r0]
  61              		.loc 1 109 5 view .LVU7
  62 001a DA68     		ldr	r2, [r3, #12]
  63 001c 1B68     		ldr	r3, [r3]
  64 001e 5208     		lsrs	r2, r2, #1
  65 0020 1146     		mov	r1, r2
  66 0022 9847     		blx	r3
  67              	.LVL2:
  68              		.loc 1 109 5 view .LVU8
  69 0024 2378     		ldrb	r3, [r4]	@ zero_extendqisi2
  70 0026 042B     		cmp	r3, #4
  71 0028 19D0     		beq	.L2
  72              	.L3:
  73              		.loc 1 109 5 view .LVU9
  74              	.LBB114:
  75              	.LBI114:
  76              		.file 2 ".//ChibiOS//os/hal/osal/rt/osal.h"
  77              		.loc 2 467 20 view .LVU10
  78              	.LBE114:
  79              		.loc 2 469 3 view .LVU11
  80              	.LBB128:
  81              	.LBB115:
  82              	.LBI115:
  83              		.file 3 ".//ChibiOS//os/rt/include/chsys.h"
  84              		.loc 3 386 20 view .LVU12
  85              	.LBB116:
  86              		.loc 3 388 3 view .LVU13
  87              	.LBB117:
  88              	.LBI117:
  89              		.file 4 ".//ChibiOS//os/rt/ports/ARMCMx/chcore_v7m.h"
  90              		.loc 4 473 20 view .LVU14
  91              	.LBE117:
  92              	.LBE116:
  93              	.LBE115:
  94              	.LBE128:
  95              		.loc 4 475 3 view .LVU15
  96              	.LBB129:
  97              	.LBB126:
  98              	.LBB124:
  99              	.LBB122:
 100              	.LBB118:
 101              	.LBI118:
 102              		.loc 4 444 20 view .LVU16
 103              	.LBE118:
 104              	.LBE122:
 105              	.LBE124:
 106              	.LBE126:
 107              	.LBE129:
 108              		.loc 4 447 3 view .LVU17
 109              	.LVL3:
 110              	.LBB130:
 111              	.LBB127:
 112              	.LBB125:
 113              	.LBB123:
 114              	.LBB121:
ARM GAS  /tmp/ccSSSITj.s 			page 3


 115              	.LBB119:
 116              	.LBI119:
 117              		.file 5 ".//ChibiOS//os/ext/CMSIS/include/core_cmFunc.h"
 118              		.loc 5 544 57 view .LVU18
 119              	.LBB120:
 120              		.loc 5 546 3 view .LVU19
 121 002a 2023     		movs	r3, #32
 122              		.syntax unified
 123              	@ 546 ".//ChibiOS//os/ext/CMSIS/include/core_cmFunc.h" 1
 124 002c 83F31188 		MSR basepri, r3
 125              	@ 0 "" 2
 126              	.LVL4:
 127              		.loc 5 546 3 is_stmt 0 view .LVU20
 128              		.thumb
 129              		.syntax unified
 130              	.LBE120:
 131              	.LBE119:
 132              	.LBE121:
 133              	.LBE123:
 134              		.loc 3 389 3 is_stmt 1 view .LVU21
 135 0030 FFF7FEFF 		bl	_stats_start_measure_crit_isr
 136              	.LVL5:
 137              		.loc 3 390 3 view .LVU22
 138 0034 FFF7FEFF 		bl	_dbg_check_lock_from_isr
 139              	.LVL6:
 140              	.LBE125:
 141              	.LBE127:
 142              	.LBE130:
 143              		.loc 1 109 5 view .LVU23
 144              	.LBB131:
 145              	.LBI131:
 146              		.loc 2 680 20 view .LVU24
 147              	.LBB132:
 148              		.loc 2 682 3 view .LVU25
 149 0038 04F10800 		add	r0, r4, #8
 150              	.LVL7:
 151              		.loc 2 682 3 is_stmt 0 view .LVU26
 152 003c 0021     		movs	r1, #0
 153 003e FFF7FEFF 		bl	chThdResumeI
 154              	.LVL8:
 155              		.loc 2 682 3 view .LVU27
 156              	.LBE132:
 157              	.LBE131:
 158              		.loc 1 109 5 is_stmt 1 view .LVU28
 159              	.LBB133:
 160              	.LBI133:
 161              		.loc 2 478 20 view .LVU29
 162              	.LBE133:
 163              		.loc 2 480 3 view .LVU30
 164              	.LBB147:
 165              	.LBB134:
 166              	.LBI134:
 167              		.loc 3 406 20 view .LVU31
 168              	.LBB135:
 169              		.loc 3 408 3 view .LVU32
 170 0042 FFF7FEFF 		bl	_dbg_check_unlock_from_isr
 171              	.LVL9:
ARM GAS  /tmp/ccSSSITj.s 			page 4


 172              		.loc 3 409 3 view .LVU33
 173 0046 FFF7FEFF 		bl	_stats_stop_measure_crit_isr
 174              	.LVL10:
 175              		.loc 3 410 3 view .LVU34
 176              	.LBB136:
 177              	.LBI136:
 178              		.loc 4 484 20 view .LVU35
 179              	.LBE136:
 180              	.LBE135:
 181              	.LBE134:
 182              	.LBE147:
 183              		.loc 4 486 3 view .LVU36
 184              	.LBB148:
 185              	.LBB145:
 186              	.LBB143:
 187              	.LBB141:
 188              	.LBB137:
 189              	.LBI137:
 190              		.loc 4 458 20 view .LVU37
 191              	.LBE137:
 192              	.LBE141:
 193              	.LBE143:
 194              	.LBE145:
 195              	.LBE148:
 196              		.loc 4 461 3 view .LVU38
 197              	.LBB149:
 198              	.LBB146:
 199              	.LBB144:
 200              	.LBB142:
 201              	.LBB140:
 202              	.LBB138:
 203              	.LBI138:
 204              		.loc 5 544 57 view .LVU39
 205              	.LBB139:
 206              		.loc 5 546 3 view .LVU40
 207 004a 0023     		movs	r3, #0
 208              		.syntax unified
 209              	@ 546 ".//ChibiOS//os/ext/CMSIS/include/core_cmFunc.h" 1
 210 004c 83F31188 		MSR basepri, r3
 211              	@ 0 "" 2
 212              	.LVL11:
 213              		.loc 5 546 3 is_stmt 0 view .LVU41
 214              		.thumb
 215              		.syntax unified
 216              	.LBE139:
 217              	.LBE138:
 218              	.LBE140:
 219              	.LBE142:
 220              	.LBE144:
 221              	.LBE146:
 222              	.LBE149:
 223              		.loc 1 113 36 is_stmt 1 view .LVU42
 224              		.loc 1 115 1 is_stmt 0 view .LVU43
 225 0050 054B     		ldr	r3, .L11
 226 0052 1A68     		ldr	r2, [r3]
 227 0054 019B     		ldr	r3, [sp, #4]
 228 0056 5A40     		eors	r2, r3, r2
ARM GAS  /tmp/ccSSSITj.s 			page 5


 229 0058 04D1     		bne	.L10
 230 005a 02B0     		add	sp, sp, #8
 231              		.cfi_remember_state
 232              		.cfi_def_cfa_offset 8
 233              		@ sp needed
 234 005c 10BD     		pop	{r4, pc}
 235              	.LVL12:
 236              	.L2:
 237              		.cfi_restore_state
 238              		.loc 1 109 5 is_stmt 1 view .LVU44
 239 005e 0223     		movs	r3, #2
 240 0060 2370     		strb	r3, [r4]
 241 0062 E2E7     		b	.L3
 242              	.L10:
 243              		.loc 1 115 1 is_stmt 0 view .LVU45
 244 0064 FFF7FEFF 		bl	__stack_chk_fail
 245              	.LVL13:
 246              	.L12:
 247              		.align	2
 248              	.L11:
 249 0068 00000000 		.word	.LC0
 250              		.cfi_endproc
 251              	.LFE267:
 252              		.size	spi3_slave_lld_serve_tx_interrupt.part.0, .-spi3_slave_lld_serve_tx_interrupt.part.0
 253              		.thumb_set spi3_slave_lld_serve_rx_interrupt.part.0,spi3_slave_lld_serve_tx_interrupt.part.0
 254              		.section	.rodata.spi3_slave_lld_serve_tx_interrupt.str1.4,"aMS",%progbits,1
 255              		.align	2
 256              	.LC1:
 257 0000 444D4120 		.ascii	"DMA failure\000"
 257      6661696C 
 257      75726500 
 258              		.section	.rodata.spi3_slave_lld_serve_tx_interrupt.cst4,"aM",%progbits,4
 259              		.align	2
 260              	.LC2:
 261 0000 00000000 		.word	__stack_chk_guard
 262              		.section	.text.spi3_slave_lld_serve_tx_interrupt,"ax",%progbits
 263              		.align	1
 264              		.p2align 4,,15
 265              		.syntax unified
 266              		.thumb
 267              		.thumb_func
 268              		.fpu fpv4-sp-d16
 269              		.type	spi3_slave_lld_serve_tx_interrupt, %function
 270              	spi3_slave_lld_serve_tx_interrupt:
 271              	.LVL14:
 272              	.LFB257:
 273              		.loc 1 92 85 is_stmt 1 view -0
 274              		.cfi_startproc
 275              		@ args = 0, pretend = 0, frame = 8
 276              		@ frame_needed = 0, uses_anonymous_args = 0
 277              		.loc 1 92 85 is_stmt 0 view .LVU47
 278 0000 30B5     		push	{r4, r5, lr}
 279              		.cfi_def_cfa_offset 12
 280              		.cfi_offset 4, -12
 281              		.cfi_offset 5, -8
 282              		.cfi_offset 14, -4
 283 0002 1C4B     		ldr	r3, .L34
ARM GAS  /tmp/ccSSSITj.s 			page 6


 284 0004 83B0     		sub	sp, sp, #12
 285              		.cfi_def_cfa_offset 24
 286              		.loc 1 97 6 view .LVU48
 287 0006 11F00C0F 		tst	r1, #12
 288              		.loc 1 92 85 view .LVU49
 289 000a 0C46     		mov	r4, r1
 290 000c 0546     		mov	r5, r0
 291 000e 1B68     		ldr	r3, [r3]
 292 0010 0193     		str	r3, [sp, #4]
 293 0012 4FF00003 		mov	r3,#0
 294              		.loc 1 96 3 is_stmt 1 view .LVU50
 295              		.loc 1 97 3 view .LVU51
 296              		.loc 1 97 6 is_stmt 0 view .LVU52
 297 0016 26D1     		bne	.L32
 298              	.LVL15:
 299              	.L14:
 300              		.loc 1 107 3 is_stmt 1 view .LVU53
 301              		.loc 1 107 6 is_stmt 0 view .LVU54
 302 0018 14F02001 		ands	r1, r4, #32
 303 001c 0AD0     		beq	.L15
 304 001e 154B     		ldr	r3, .L34
 305 0020 1A68     		ldr	r2, [r3]
 306 0022 019B     		ldr	r3, [sp, #4]
 307 0024 5A40     		eors	r2, r3, r2
 308 0026 22D1     		bne	.L31
 309 0028 2846     		mov	r0, r5
 310              		.loc 1 115 1 view .LVU55
 311 002a 03B0     		add	sp, sp, #12
 312              		.cfi_remember_state
 313              		.cfi_def_cfa_offset 12
 314              		@ sp needed
 315 002c BDE83040 		pop	{r4, r5, lr}
 316              		.cfi_restore 14
 317              		.cfi_restore 5
 318              		.cfi_restore 4
 319              		.cfi_def_cfa_offset 0
 320              	.LVL16:
 321              		.loc 1 115 1 view .LVU56
 322 0030 FFF7FEBF 		b	spi3_slave_lld_serve_tx_interrupt.part.0
 323              	.LVL17:
 324              	.L15:
 325              		.cfi_restore_state
 326              		.loc 1 111 8 is_stmt 1 view .LVU57
 327              		.loc 1 111 11 is_stmt 0 view .LVU58
 328 0034 E306     		lsls	r3, r4, #27
 329 0036 06D4     		bmi	.L33
 330              	.L13:
 331              		.loc 1 115 1 view .LVU59
 332 0038 0E4B     		ldr	r3, .L34
 333 003a 1A68     		ldr	r2, [r3]
 334 003c 019B     		ldr	r3, [sp, #4]
 335 003e 5A40     		eors	r2, r3, r2
 336 0040 15D1     		bne	.L31
 337 0042 03B0     		add	sp, sp, #12
 338              		.cfi_remember_state
 339              		.cfi_def_cfa_offset 12
 340              		@ sp needed
ARM GAS  /tmp/ccSSSITj.s 			page 7


 341 0044 30BD     		pop	{r4, r5, pc}
 342              	.LVL18:
 343              	.L33:
 344              		.cfi_restore_state
 345              		.loc 1 113 5 is_stmt 1 view .LVU60
 346 0046 6A68     		ldr	r2, [r5, #4]
 347 0048 1368     		ldr	r3, [r2]
 348 004a 002B     		cmp	r3, #0
 349 004c F4D0     		beq	.L13
 350              		.loc 1 113 5 discriminator 1 view .LVU61
 351 004e 0948     		ldr	r0, .L34
 352 0050 0468     		ldr	r4, [r0]
 353 0052 0198     		ldr	r0, [sp, #4]
 354 0054 4440     		eors	r4, r0, r4
 355              	.LVL19:
 356              		.loc 1 113 5 is_stmt 0 discriminator 1 view .LVU62
 357 0056 0AD1     		bne	.L31
 358 0058 D268     		ldr	r2, [r2, #12]
 359 005a 2846     		mov	r0, r5
 360 005c 5208     		lsrs	r2, r2, #1
 361              		.loc 1 115 1 discriminator 1 view .LVU63
 362 005e 03B0     		add	sp, sp, #12
 363              		.cfi_remember_state
 364              		.cfi_def_cfa_offset 12
 365              		@ sp needed
 366 0060 BDE83040 		pop	{r4, r5, lr}
 367              		.cfi_restore 14
 368              		.cfi_restore 5
 369              		.cfi_restore 4
 370              		.cfi_def_cfa_offset 0
 371              	.LVL20:
 372              		.loc 1 113 5 discriminator 1 view .LVU64
 373 0064 1847     		bx	r3	@ indirect register sibling call
 374              	.LVL21:
 375              	.L32:
 376              		.cfi_restore_state
 377              		.loc 1 98 5 is_stmt 1 view .LVU65
 378              	.LBB150:
 379              	.LBI150:
 380              		.loc 2 414 20 view .LVU66
 381              	.LBB151:
 382              		.loc 2 416 3 view .LVU67
 383 0066 0448     		ldr	r0, .L34+4
 384              	.LVL22:
 385              		.loc 2 416 3 is_stmt 0 view .LVU68
 386 0068 FFF7FEFF 		bl	chSysHalt
 387              	.LVL23:
 388              		.loc 2 417 1 view .LVU69
 389 006c D4E7     		b	.L14
 390              	.LVL24:
 391              	.L31:
 392              		.loc 2 417 1 view .LVU70
 393              	.LBE151:
 394              	.LBE150:
 395              		.loc 1 115 1 view .LVU71
 396 006e FFF7FEFF 		bl	__stack_chk_fail
 397              	.LVL25:
ARM GAS  /tmp/ccSSSITj.s 			page 8


 398              	.L35:
 399 0072 00BF     		.align	2
 400              	.L34:
 401 0074 00000000 		.word	.LC2
 402 0078 00000000 		.word	.LC1
 403              		.cfi_endproc
 404              	.LFE257:
 405              		.size	spi3_slave_lld_serve_tx_interrupt, .-spi3_slave_lld_serve_tx_interrupt
 406              		.section	.rodata.spi3_slave_lld_serve_rx_interrupt.cst4,"aM",%progbits,4
 407              		.align	2
 408              	.LC3:
 409 0000 00000000 		.word	__stack_chk_guard
 410              		.section	.text.spi3_slave_lld_serve_rx_interrupt,"ax",%progbits
 411              		.align	1
 412              		.p2align 4,,15
 413              		.syntax unified
 414              		.thumb
 415              		.thumb_func
 416              		.fpu fpv4-sp-d16
 417              		.type	spi3_slave_lld_serve_rx_interrupt, %function
 418              	spi3_slave_lld_serve_rx_interrupt:
 419              	.LVL26:
 420              	.LFB256:
 421              		.loc 1 62 85 is_stmt 1 view -0
 422              		.cfi_startproc
 423              		@ args = 0, pretend = 0, frame = 8
 424              		@ frame_needed = 0, uses_anonymous_args = 0
 425              		.loc 1 62 85 is_stmt 0 view .LVU73
 426 0000 30B5     		push	{r4, r5, lr}
 427              		.cfi_def_cfa_offset 12
 428              		.cfi_offset 4, -12
 429              		.cfi_offset 5, -8
 430              		.cfi_offset 14, -4
 431 0002 1C4B     		ldr	r3, .L57
 432 0004 83B0     		sub	sp, sp, #12
 433              		.cfi_def_cfa_offset 24
 434              		.loc 1 66 6 view .LVU74
 435 0006 11F00C0F 		tst	r1, #12
 436              		.loc 1 62 85 view .LVU75
 437 000a 0C46     		mov	r4, r1
 438 000c 0546     		mov	r5, r0
 439 000e 1B68     		ldr	r3, [r3]
 440 0010 0193     		str	r3, [sp, #4]
 441 0012 4FF00003 		mov	r3,#0
 442              		.loc 1 66 3 is_stmt 1 view .LVU76
 443              		.loc 1 66 6 is_stmt 0 view .LVU77
 444 0016 26D1     		bne	.L55
 445              	.LVL27:
 446              	.L37:
 447              		.loc 1 75 3 is_stmt 1 view .LVU78
 448              		.loc 1 75 6 is_stmt 0 view .LVU79
 449 0018 14F02001 		ands	r1, r4, #32
 450 001c 0AD0     		beq	.L38
 451 001e 154B     		ldr	r3, .L57
 452 0020 1A68     		ldr	r2, [r3]
 453 0022 019B     		ldr	r3, [sp, #4]
 454 0024 5A40     		eors	r2, r3, r2
ARM GAS  /tmp/ccSSSITj.s 			page 9


 455 0026 22D1     		bne	.L54
 456 0028 2846     		mov	r0, r5
 457              		.loc 1 84 1 view .LVU80
 458 002a 03B0     		add	sp, sp, #12
 459              		.cfi_remember_state
 460              		.cfi_def_cfa_offset 12
 461              		@ sp needed
 462 002c BDE83040 		pop	{r4, r5, lr}
 463              		.cfi_restore 14
 464              		.cfi_restore 5
 465              		.cfi_restore 4
 466              		.cfi_def_cfa_offset 0
 467              	.LVL28:
 468              		.loc 1 84 1 view .LVU81
 469 0030 FFF7FEBF 		b	spi3_slave_lld_serve_rx_interrupt.part.0
 470              	.LVL29:
 471              	.L38:
 472              		.cfi_restore_state
 473              		.loc 1 79 8 is_stmt 1 view .LVU82
 474              		.loc 1 79 11 is_stmt 0 view .LVU83
 475 0034 E306     		lsls	r3, r4, #27
 476 0036 06D4     		bmi	.L56
 477              	.L36:
 478              		.loc 1 84 1 view .LVU84
 479 0038 0E4B     		ldr	r3, .L57
 480 003a 1A68     		ldr	r2, [r3]
 481 003c 019B     		ldr	r3, [sp, #4]
 482 003e 5A40     		eors	r2, r3, r2
 483 0040 15D1     		bne	.L54
 484 0042 03B0     		add	sp, sp, #12
 485              		.cfi_remember_state
 486              		.cfi_def_cfa_offset 12
 487              		@ sp needed
 488 0044 30BD     		pop	{r4, r5, pc}
 489              	.LVL30:
 490              	.L56:
 491              		.cfi_restore_state
 492              		.loc 1 81 5 is_stmt 1 view .LVU85
 493 0046 6A68     		ldr	r2, [r5, #4]
 494 0048 1368     		ldr	r3, [r2]
 495 004a 002B     		cmp	r3, #0
 496 004c F4D0     		beq	.L36
 497              		.loc 1 81 5 discriminator 1 view .LVU86
 498 004e 0948     		ldr	r0, .L57
 499 0050 0468     		ldr	r4, [r0]
 500 0052 0198     		ldr	r0, [sp, #4]
 501 0054 4440     		eors	r4, r0, r4
 502              	.LVL31:
 503              		.loc 1 81 5 is_stmt 0 discriminator 1 view .LVU87
 504 0056 0AD1     		bne	.L54
 505 0058 D268     		ldr	r2, [r2, #12]
 506 005a 2846     		mov	r0, r5
 507 005c 5208     		lsrs	r2, r2, #1
 508              		.loc 1 84 1 discriminator 1 view .LVU88
 509 005e 03B0     		add	sp, sp, #12
 510              		.cfi_remember_state
 511              		.cfi_def_cfa_offset 12
ARM GAS  /tmp/ccSSSITj.s 			page 10


 512              		@ sp needed
 513 0060 BDE83040 		pop	{r4, r5, lr}
 514              		.cfi_restore 14
 515              		.cfi_restore 5
 516              		.cfi_restore 4
 517              		.cfi_def_cfa_offset 0
 518              	.LVL32:
 519              		.loc 1 81 5 discriminator 1 view .LVU89
 520 0064 1847     		bx	r3	@ indirect register sibling call
 521              	.LVL33:
 522              	.L55:
 523              		.cfi_restore_state
 524              		.loc 1 67 5 is_stmt 1 view .LVU90
 525              	.LBB152:
 526              	.LBI152:
 527              		.loc 2 414 20 view .LVU91
 528              	.LBB153:
 529              		.loc 2 416 3 view .LVU92
 530 0066 0448     		ldr	r0, .L57+4
 531              	.LVL34:
 532              		.loc 2 416 3 is_stmt 0 view .LVU93
 533 0068 FFF7FEFF 		bl	chSysHalt
 534              	.LVL35:
 535              		.loc 2 417 1 view .LVU94
 536 006c D4E7     		b	.L37
 537              	.LVL36:
 538              	.L54:
 539              		.loc 2 417 1 view .LVU95
 540              	.LBE153:
 541              	.LBE152:
 542              		.loc 1 84 1 view .LVU96
 543 006e FFF7FEFF 		bl	__stack_chk_fail
 544              	.LVL37:
 545              	.L58:
 546 0072 00BF     		.align	2
 547              	.L57:
 548 0074 00000000 		.word	.LC3
 549 0078 00000000 		.word	.LC1
 550              		.cfi_endproc
 551              	.LFE256:
 552              		.size	spi3_slave_lld_serve_rx_interrupt, .-spi3_slave_lld_serve_rx_interrupt
 553              		.section	.rodata.spi3_slave_lld_init.cst4,"aM",%progbits,4
 554              		.align	2
 555              	.LC4:
 556 0000 00000000 		.word	__stack_chk_guard
 557              		.section	.text.spi3_slave_lld_init,"ax",%progbits
 558              		.align	1
 559              		.p2align 4,,15
 560              		.global	spi3_slave_lld_init
 561              		.syntax unified
 562              		.thumb
 563              		.thumb_func
 564              		.fpu fpv4-sp-d16
 565              		.type	spi3_slave_lld_init, %function
 566              	spi3_slave_lld_init:
 567              	.LFB258:
 568              		.loc 1 130 32 is_stmt 1 view -0
ARM GAS  /tmp/ccSSSITj.s 			page 11


 569              		.cfi_startproc
 570              		@ args = 0, pretend = 0, frame = 8
 571              		@ frame_needed = 0, uses_anonymous_args = 0
 572 0000 10B5     		push	{r4, lr}
 573              		.cfi_def_cfa_offset 8
 574              		.cfi_offset 4, -8
 575              		.cfi_offset 14, -4
 576 0002 114A     		ldr	r2, .L63
 577              		.loc 1 135 3 is_stmt 0 view .LVU98
 578 0004 114C     		ldr	r4, .L63+4
 579              		.loc 1 132 11 view .LVU99
 580 0006 124B     		ldr	r3, .L63+8
 581              		.loc 1 130 32 view .LVU100
 582 0008 82B0     		sub	sp, sp, #8
 583              		.cfi_def_cfa_offset 16
 584              		.loc 1 130 32 view .LVU101
 585 000a 1268     		ldr	r2, [r2]
 586 000c 0192     		str	r2, [sp, #4]
 587 000e 4FF00002 		mov	r2,#0
 588              		.loc 1 132 3 is_stmt 1 view .LVU102
 589              		.loc 1 135 3 is_stmt 0 view .LVU103
 590 0012 2046     		mov	r0, r4
 591              		.loc 1 132 11 view .LVU104
 592 0014 4FF6FF72 		movw	r2, #65535
 593 0018 1A80     		strh	r2, [r3]	@ movhi
 594              		.loc 1 135 3 is_stmt 1 view .LVU105
 595 001a FFF7FEFF 		bl	spi3SlaveObjectInit
 596              	.LVL38:
 597              		.loc 1 136 3 view .LVU106
 598              		.loc 1 137 24 is_stmt 0 view .LVU107
 599 001e 0D4B     		ldr	r3, .L63+12
 600              		.loc 1 136 24 view .LVU108
 601 0020 0D48     		ldr	r0, .L63+16
 602              		.loc 1 147 24 view .LVU109
 603 0022 0E4A     		ldr	r2, .L63+20
 604              		.loc 1 139 24 view .LVU110
 605 0024 0E49     		ldr	r1, .L63+24
 606              		.loc 1 136 24 view .LVU111
 607 0026 2062     		str	r0, [r4, #32]
 608              		.loc 1 137 3 is_stmt 1 view .LVU112
 609              		.loc 1 138 24 is_stmt 0 view .LVU113
 610 0028 03F12400 		add	r0, r3, #36
 611 002c C4E90930 		strd	r3, r0, [r4, #36]
 612              		.loc 1 139 3 is_stmt 1 view .LVU114
 613              		.loc 1 147 24 is_stmt 0 view .LVU115
 614 0030 C4E90B12 		strd	r1, r2, [r4, #44]
 615              		.loc 1 154 1 view .LVU116
 616 0034 044B     		ldr	r3, .L63
 617 0036 1A68     		ldr	r2, [r3]
 618 0038 019B     		ldr	r3, [sp, #4]
 619 003a 5A40     		eors	r2, r3, r2
 620 003c 01D1     		bne	.L62
 621 003e 02B0     		add	sp, sp, #8
 622              		.cfi_remember_state
 623              		.cfi_def_cfa_offset 8
 624              		@ sp needed
 625 0040 10BD     		pop	{r4, pc}
ARM GAS  /tmp/ccSSSITj.s 			page 12


 626              	.L62:
 627              		.cfi_restore_state
 628 0042 FFF7FEFF 		bl	__stack_chk_fail
 629              	.LVL39:
 630              	.L64:
 631 0046 00BF     		.align	2
 632              	.L63:
 633 0048 00000000 		.word	.LC4
 634 004c 00000000 		.word	SPISLAVED3
 635 0050 00000000 		.word	.LANCHOR0
 636 0054 18000000 		.word	_stm32_dma_streams+24
 637 0058 003C0040 		.word	1073757184
 638 005c 46000100 		.word	65606
 639 0060 1E010100 		.word	65822
 640              		.cfi_endproc
 641              	.LFE258:
 642              		.size	spi3_slave_lld_init, .-spi3_slave_lld_init
 643              		.section	.rodata.spi3_slave_lld_start.cst4,"aM",%progbits,4
 644              		.align	2
 645              	.LC5:
 646 0000 00000000 		.word	__stack_chk_guard
 647              		.section	.text.spi3_slave_lld_start,"ax",%progbits
 648              		.align	1
 649              		.p2align 4,,15
 650              		.global	spi3_slave_lld_start
 651              		.syntax unified
 652              		.thumb
 653              		.thumb_func
 654              		.fpu fpv4-sp-d16
 655              		.type	spi3_slave_lld_start, %function
 656              	spi3_slave_lld_start:
 657              	.LVL40:
 658              	.LFB259:
 659              		.loc 1 163 49 is_stmt 1 view -0
 660              		.cfi_startproc
 661              		@ args = 0, pretend = 0, frame = 8
 662              		@ frame_needed = 0, uses_anonymous_args = 0
 663              		.loc 1 163 49 is_stmt 0 view .LVU118
 664 0000 30B5     		push	{r4, r5, lr}
 665              		.cfi_def_cfa_offset 12
 666              		.cfi_offset 4, -12
 667              		.cfi_offset 5, -8
 668              		.cfi_offset 14, -4
 669 0002 2E4B     		ldr	r3, .L86
 670 0004 83B0     		sub	sp, sp, #12
 671              		.cfi_def_cfa_offset 24
 672              		.loc 1 163 49 view .LVU119
 673 0006 1B68     		ldr	r3, [r3]
 674 0008 0193     		str	r3, [sp, #4]
 675 000a 4FF00003 		mov	r3,#0
 676              		.loc 1 166 3 is_stmt 1 view .LVU120
 677              		.loc 1 166 6 is_stmt 0 view .LVU121
 678 000e 0378     		ldrb	r3, [r0]	@ zero_extendqisi2
 679 0010 012B     		cmp	r3, #1
 680              		.loc 1 163 49 view .LVU122
 681 0012 0446     		mov	r4, r0
 682              		.loc 1 166 6 view .LVU123
ARM GAS  /tmp/ccSSSITj.s 			page 13


 683 0014 26D0     		beq	.L81
 684              	.LVL41:
 685              	.L66:
 686              		.loc 1 186 56 is_stmt 1 discriminator 1 view .LVU124
 687              		.loc 1 190 3 discriminator 1 view .LVU125
 688              		.loc 1 190 20 is_stmt 0 discriminator 1 view .LVU126
 689 0016 6368     		ldr	r3, [r4, #4]
 690              		.loc 1 193 47 discriminator 1 view .LVU127
 691 0018 E26A     		ldr	r2, [r4, #44]
 692              		.loc 1 190 6 discriminator 1 view .LVU128
 693 001a 5B89     		ldrh	r3, [r3, #10]
 694 001c 13F4006F 		tst	r3, #2048
 695              		.loc 1 195 47 discriminator 1 view .LVU129
 696 0020 236B     		ldr	r3, [r4, #48]
 697              		.loc 1 193 47 discriminator 1 view .LVU130
 698 0022 22F4F042 		bic	r2, r2, #30720
 699              		.loc 1 195 47 discriminator 1 view .LVU131
 700 0026 23F4F043 		bic	r3, r3, #30720
 701              		.loc 1 192 5 is_stmt 1 discriminator 1 view .LVU132
 702              		.loc 1 199 5 discriminator 1 view .LVU133
 703              		.loc 1 200 48 is_stmt 0 discriminator 1 view .LVU134
 704 002a 1CBF     		itt	ne
 705 002c 42F42052 		orrne	r2, r2, #10240
 706              		.loc 1 202 48 discriminator 1 view .LVU135
 707 0030 43F42053 		orrne	r3, r3, #10240
 708              		.loc 1 201 21 discriminator 1 view .LVU136
 709 0034 C4E90B23 		strd	r2, r3, [r4, #44]
 710              		.loc 1 205 3 is_stmt 1 discriminator 1 view .LVU137
 711              		.loc 1 205 7 is_stmt 0 discriminator 1 view .LVU138
 712 0038 236A     		ldr	r3, [r4, #32]
 713              		.loc 1 205 19 discriminator 1 view .LVU139
 714 003a 0022     		movs	r2, #0
 715 003c 1A60     		str	r2, [r3]
 716              		.loc 1 206 3 is_stmt 1 discriminator 1 view .LVU140
 717              		.loc 1 206 33 is_stmt 0 discriminator 1 view .LVU141
 718 003e 6268     		ldr	r2, [r4, #4]
 719              		.loc 1 206 7 discriminator 1 view .LVU142
 720 0040 236A     		ldr	r3, [r4, #32]
 721              		.loc 1 206 33 discriminator 1 view .LVU143
 722 0042 5289     		ldrh	r2, [r2, #10]
 723              		.loc 1 206 19 discriminator 1 view .LVU144
 724 0044 1A60     		str	r2, [r3]
 725              		.loc 1 207 3 is_stmt 1 discriminator 1 view .LVU145
 726              		.loc 1 207 7 is_stmt 0 discriminator 1 view .LVU146
 727 0046 236A     		ldr	r3, [r4, #32]
 728              		.loc 1 207 19 discriminator 1 view .LVU147
 729 0048 0322     		movs	r2, #3
 730 004a 5A60     		str	r2, [r3, #4]
 731              		.loc 1 208 3 is_stmt 1 discriminator 1 view .LVU148
 732              		.loc 1 208 7 is_stmt 0 discriminator 1 view .LVU149
 733 004c 226A     		ldr	r2, [r4, #32]
 734              		.loc 1 208 18 discriminator 1 view .LVU150
 735 004e 1368     		ldr	r3, [r2]
 736 0050 43F04003 		orr	r3, r3, #64
 737 0054 1360     		str	r3, [r2]
 738              		.loc 1 209 1 discriminator 1 view .LVU151
 739 0056 194B     		ldr	r3, .L86
ARM GAS  /tmp/ccSSSITj.s 			page 14


 740 0058 1A68     		ldr	r2, [r3]
 741 005a 019B     		ldr	r3, [sp, #4]
 742 005c 5A40     		eors	r2, r3, r2
 743 005e 2BD1     		bne	.L82
 744              		.loc 1 209 1 view .LVU152
 745 0060 03B0     		add	sp, sp, #12
 746              		.cfi_remember_state
 747              		.cfi_def_cfa_offset 12
 748              		@ sp needed
 749 0062 30BD     		pop	{r4, r5, pc}
 750              	.LVL42:
 751              	.L81:
 752              		.cfi_restore_state
 753              		.loc 1 168 5 is_stmt 1 view .LVU153
 754              		.loc 1 168 8 is_stmt 0 view .LVU154
 755 0064 164D     		ldr	r5, .L86+4
 756 0066 A842     		cmp	r0, r5
 757 0068 0AD0     		beq	.L83
 758              	.LVL43:
 759              	.L67:
 760              	.LBB154:
 761              		.loc 1 180 27 is_stmt 1 discriminator 3 view .LVU155
 762              	.LBE154:
 763              		.loc 1 185 5 discriminator 3 view .LVU156
 764 006a D4E90832 		ldrd	r3, r2, [r4, #32]
 765 006e 1268     		ldr	r2, [r2]
 766 0070 0C33     		adds	r3, r3, #12
 767 0072 9360     		str	r3, [r2, #8]
 768              		.loc 1 185 56 discriminator 3 view .LVU157
 769              		.loc 1 186 5 discriminator 3 view .LVU158
 770 0074 A26A     		ldr	r2, [r4, #40]
 771 0076 236A     		ldr	r3, [r4, #32]
 772 0078 1268     		ldr	r2, [r2]
 773 007a 0C33     		adds	r3, r3, #12
 774 007c 9360     		str	r3, [r2, #8]
 775 007e CAE7     		b	.L66
 776              	.LVL44:
 777              	.L83:
 778              	.LBB155:
 779              		.loc 1 169 7 view .LVU159
 780              		.loc 1 170 7 view .LVU160
 781              		.loc 1 170 11 is_stmt 0 view .LVU161
 782 0080 0346     		mov	r3, r0
 783 0082 104A     		ldr	r2, .L86+8
 784 0084 406A     		ldr	r0, [r0, #36]
 785              	.LVL45:
 786              		.loc 1 170 11 view .LVU162
 787 0086 0A21     		movs	r1, #10
 788 0088 FFF7FEFF 		bl	dmaStreamAllocate
 789              	.LVL46:
 790              		.loc 1 174 7 is_stmt 1 view .LVU163
 791              		.loc 1 174 7 view .LVU164
 792              		.loc 1 174 7 view .LVU165
 793 008c 80B9     		cbnz	r0, .L84
 794              	.LVL47:
 795              	.L68:
 796              		.loc 1 174 7 discriminator 5 view .LVU166
ARM GAS  /tmp/ccSSSITj.s 			page 15


 797              		.loc 1 175 7 discriminator 5 view .LVU167
 798              		.loc 1 175 11 is_stmt 0 discriminator 5 view .LVU168
 799 008e A86A     		ldr	r0, [r5, #40]
 800 0090 0B4B     		ldr	r3, .L86+4
 801 0092 0D4A     		ldr	r2, .L86+12
 802 0094 0A21     		movs	r1, #10
 803 0096 FFF7FEFF 		bl	dmaStreamAllocate
 804              	.LVL48:
 805              		.loc 1 179 7 is_stmt 1 discriminator 5 view .LVU169
 806              		.loc 1 179 7 discriminator 5 view .LVU170
 807              		.loc 1 179 7 discriminator 5 view .LVU171
 808 009a 28B9     		cbnz	r0, .L85
 809              	.LVL49:
 810              	.L69:
 811              		.loc 1 179 7 discriminator 5 view .LVU172
 812              		.loc 1 180 7 discriminator 5 view .LVU173
 813 009c 0B4A     		ldr	r2, .L86+16
 814 009e 136C     		ldr	r3, [r2, #64]
 815 00a0 43F40043 		orr	r3, r3, #32768
 816 00a4 1364     		str	r3, [r2, #64]
 817              		.loc 1 180 7 discriminator 5 view .LVU174
 818 00a6 E0E7     		b	.L67
 819              	.LVL50:
 820              	.L85:
 821              		.loc 1 179 7 discriminator 3 view .LVU175
 822 00a8 0948     		ldr	r0, .L86+20
 823              	.LVL51:
 824              		.loc 1 179 7 is_stmt 0 discriminator 3 view .LVU176
 825 00aa FFF7FEFF 		bl	chSysHalt
 826              	.LVL52:
 827 00ae F5E7     		b	.L69
 828              	.LVL53:
 829              	.L84:
 830              		.loc 1 174 7 is_stmt 1 discriminator 3 view .LVU177
 831 00b0 0748     		ldr	r0, .L86+20
 832              	.LVL54:
 833              		.loc 1 174 7 is_stmt 0 discriminator 3 view .LVU178
 834 00b2 FFF7FEFF 		bl	chSysHalt
 835              	.LVL55:
 836 00b6 EAE7     		b	.L68
 837              	.L82:
 838              		.loc 1 174 7 discriminator 3 view .LVU179
 839              	.LBE155:
 840              		.loc 1 209 1 view .LVU180
 841 00b8 FFF7FEFF 		bl	__stack_chk_fail
 842              	.LVL56:
 843              	.L87:
 844              		.align	2
 845              	.L86:
 846 00bc 00000000 		.word	.LC5
 847 00c0 00000000 		.word	SPISLAVED3
 848 00c4 00000000 		.word	spi3_slave_lld_serve_rx_interrupt
 849 00c8 00000000 		.word	spi3_slave_lld_serve_tx_interrupt
 850 00cc 00380240 		.word	1073887232
 851 00d0 00000000 		.word	.LANCHOR1
 852              		.cfi_endproc
 853              	.LFE259:
ARM GAS  /tmp/ccSSSITj.s 			page 16


 854              		.size	spi3_slave_lld_start, .-spi3_slave_lld_start
 855              		.section	.rodata.spi3_slave_lld_stop.cst4,"aM",%progbits,4
 856              		.align	2
 857              	.LC6:
 858 0000 00000000 		.word	__stack_chk_guard
 859              		.section	.text.spi3_slave_lld_stop,"ax",%progbits
 860              		.align	1
 861              		.p2align 4,,15
 862              		.global	spi3_slave_lld_stop
 863              		.syntax unified
 864              		.thumb
 865              		.thumb_func
 866              		.fpu fpv4-sp-d16
 867              		.type	spi3_slave_lld_stop, %function
 868              	spi3_slave_lld_stop:
 869              	.LVL57:
 870              	.LFB260:
 871              		.loc 1 218 48 is_stmt 1 view -0
 872              		.cfi_startproc
 873              		@ args = 0, pretend = 0, frame = 8
 874              		@ frame_needed = 0, uses_anonymous_args = 0
 875              		.loc 1 218 48 is_stmt 0 view .LVU182
 876 0000 10B5     		push	{r4, lr}
 877              		.cfi_def_cfa_offset 8
 878              		.cfi_offset 4, -8
 879              		.cfi_offset 14, -4
 880 0002 134B     		ldr	r3, .L96
 881 0004 82B0     		sub	sp, sp, #8
 882              		.cfi_def_cfa_offset 16
 883              		.loc 1 218 48 view .LVU183
 884 0006 1B68     		ldr	r3, [r3]
 885 0008 0193     		str	r3, [sp, #4]
 886 000a 4FF00003 		mov	r3,#0
 887              		.loc 1 221 3 is_stmt 1 view .LVU184
 888              		.loc 1 221 6 is_stmt 0 view .LVU185
 889 000e 0378     		ldrb	r3, [r0]	@ zero_extendqisi2
 890 0010 022B     		cmp	r3, #2
 891 0012 06D0     		beq	.L94
 892              	.LVL58:
 893              	.L88:
 894              		.loc 1 235 1 view .LVU186
 895 0014 0E4B     		ldr	r3, .L96
 896 0016 1A68     		ldr	r2, [r3]
 897 0018 019B     		ldr	r3, [sp, #4]
 898 001a 5A40     		eors	r2, r3, r2
 899 001c 16D1     		bne	.L95
 900 001e 02B0     		add	sp, sp, #8
 901              		.cfi_remember_state
 902              		.cfi_def_cfa_offset 8
 903              		@ sp needed
 904 0020 10BD     		pop	{r4, pc}
 905              	.LVL59:
 906              	.L94:
 907              		.cfi_restore_state
 908              		.loc 1 224 5 is_stmt 1 view .LVU187
 909              		.loc 1 224 9 is_stmt 0 view .LVU188
 910 0022 026A     		ldr	r2, [r0, #32]
ARM GAS  /tmp/ccSSSITj.s 			page 17


 911              		.loc 1 224 20 view .LVU189
 912 0024 0023     		movs	r3, #0
 913 0026 1360     		str	r3, [r2]
 914              		.loc 1 225 5 is_stmt 1 view .LVU190
 915              		.loc 1 225 9 is_stmt 0 view .LVU191
 916 0028 026A     		ldr	r2, [r0, #32]
 917 002a 0446     		mov	r4, r0
 918              		.loc 1 225 20 view .LVU192
 919 002c 5360     		str	r3, [r2, #4]
 920              		.loc 1 226 5 is_stmt 1 view .LVU193
 921 002e 406A     		ldr	r0, [r0, #36]
 922              	.LVL60:
 923              		.loc 1 226 5 is_stmt 0 view .LVU194
 924 0030 FFF7FEFF 		bl	dmaStreamRelease
 925              	.LVL61:
 926              		.loc 1 227 5 is_stmt 1 view .LVU195
 927 0034 A06A     		ldr	r0, [r4, #40]
 928 0036 FFF7FEFF 		bl	dmaStreamRelease
 929              	.LVL62:
 930              		.loc 1 230 5 view .LVU196
 931              		.loc 1 230 8 is_stmt 0 view .LVU197
 932 003a 064B     		ldr	r3, .L96+4
 933 003c 9C42     		cmp	r4, r3
 934 003e E9D1     		bne	.L88
 935              		.loc 1 231 7 is_stmt 1 view .LVU198
 936 0040 054A     		ldr	r2, .L96+8
 937 0042 136C     		ldr	r3, [r2, #64]
 938 0044 23F40043 		bic	r3, r3, #32768
 939 0048 1364     		str	r3, [r2, #64]
 940              		.loc 1 231 7 view .LVU199
 941              		.loc 1 231 28 view .LVU200
 942              		.loc 1 235 1 is_stmt 0 view .LVU201
 943 004a E3E7     		b	.L88
 944              	.LVL63:
 945              	.L95:
 946              		.loc 1 235 1 view .LVU202
 947 004c FFF7FEFF 		bl	__stack_chk_fail
 948              	.LVL64:
 949              	.L97:
 950              		.align	2
 951              	.L96:
 952 0050 00000000 		.word	.LC6
 953 0054 00000000 		.word	SPISLAVED3
 954 0058 00380240 		.word	1073887232
 955              		.cfi_endproc
 956              	.LFE260:
 957              		.size	spi3_slave_lld_stop, .-spi3_slave_lld_stop
 958              		.section	.rodata.spi3_slave_lld_ignore.cst4,"aM",%progbits,4
 959              		.align	2
 960              	.LC7:
 961 0000 00000000 		.word	__stack_chk_guard
 962              		.section	.text.spi3_slave_lld_ignore,"ax",%progbits
 963              		.align	1
 964              		.p2align 4,,15
 965              		.global	spi3_slave_lld_ignore
 966              		.syntax unified
 967              		.thumb
ARM GAS  /tmp/ccSSSITj.s 			page 18


 968              		.thumb_func
 969              		.fpu fpv4-sp-d16
 970              		.type	spi3_slave_lld_ignore, %function
 971              	spi3_slave_lld_ignore:
 972              	.LVL65:
 973              	.LFB261:
 974              		.loc 1 248 60 is_stmt 1 view -0
 975              		.cfi_startproc
 976              		@ args = 0, pretend = 0, frame = 8
 977              		@ frame_needed = 0, uses_anonymous_args = 0
 978              		.loc 1 248 60 is_stmt 0 view .LVU204
 979 0000 10B5     		push	{r4, lr}
 980              		.cfi_def_cfa_offset 8
 981              		.cfi_offset 4, -8
 982              		.cfi_offset 14, -4
 983              		.loc 1 250 3 view .LVU205
 984 0002 436A     		ldr	r3, [r0, #36]
 985              		.loc 1 248 60 view .LVU206
 986 0004 174A     		ldr	r2, .L102
 987              		.loc 1 250 3 view .LVU207
 988 0006 1B68     		ldr	r3, [r3]
 989 0008 174C     		ldr	r4, .L102+4
 990              		.loc 1 248 60 view .LVU208
 991 000a 82B0     		sub	sp, sp, #8
 992              		.cfi_def_cfa_offset 16
 993              		.loc 1 248 60 view .LVU209
 994 000c 1268     		ldr	r2, [r2]
 995 000e 0192     		str	r2, [sp, #4]
 996 0010 4FF00002 		mov	r2,#0
 997              		.loc 1 250 3 is_stmt 1 view .LVU210
 998 0014 DC60     		str	r4, [r3, #12]
 999              		.loc 1 250 45 view .LVU211
 1000              		.loc 1 251 3 view .LVU212
 1001 0016 436A     		ldr	r3, [r0, #36]
 1002              		.loc 1 254 3 is_stmt 0 view .LVU213
 1003 0018 144A     		ldr	r2, .L102+8
 1004              		.loc 1 251 3 view .LVU214
 1005 001a 1B68     		ldr	r3, [r3]
 1006 001c 5960     		str	r1, [r3, #4]
 1007              		.loc 1 251 46 is_stmt 1 view .LVU215
 1008              		.loc 1 252 3 view .LVU216
 1009 001e 436A     		ldr	r3, [r0, #36]
 1010 0020 C46A     		ldr	r4, [r0, #44]
 1011 0022 1B68     		ldr	r3, [r3]
 1012 0024 1C60     		str	r4, [r3]
 1013              		.loc 1 252 49 view .LVU217
 1014              		.loc 1 254 3 view .LVU218
 1015 0026 836A     		ldr	r3, [r0, #40]
 1016 0028 1B68     		ldr	r3, [r3]
 1017 002a DA60     		str	r2, [r3, #12]
 1018              		.loc 1 254 45 view .LVU219
 1019              		.loc 1 255 3 view .LVU220
 1020 002c 836A     		ldr	r3, [r0, #40]
 1021 002e 1B68     		ldr	r3, [r3]
 1022 0030 5960     		str	r1, [r3, #4]
 1023              		.loc 1 255 46 view .LVU221
 1024              		.loc 1 256 3 view .LVU222
ARM GAS  /tmp/ccSSSITj.s 			page 19


 1025 0032 836A     		ldr	r3, [r0, #40]
 1026 0034 026B     		ldr	r2, [r0, #48]
 1027 0036 1B68     		ldr	r3, [r3]
 1028 0038 1A60     		str	r2, [r3]
 1029              		.loc 1 256 49 view .LVU223
 1030              		.loc 1 258 3 view .LVU224
 1031 003a 436A     		ldr	r3, [r0, #36]
 1032 003c 1A68     		ldr	r2, [r3]
 1033 003e 1368     		ldr	r3, [r2]
 1034 0040 43F00103 		orr	r3, r3, #1
 1035 0044 1360     		str	r3, [r2]
 1036              		.loc 1 258 31 view .LVU225
 1037              		.loc 1 259 3 view .LVU226
 1038 0046 836A     		ldr	r3, [r0, #40]
 1039 0048 1A68     		ldr	r2, [r3]
 1040 004a 1368     		ldr	r3, [r2]
 1041 004c 43F00103 		orr	r3, r3, #1
 1042 0050 1360     		str	r3, [r2]
 1043              		.loc 1 259 31 view .LVU227
 1044              		.loc 1 260 1 is_stmt 0 view .LVU228
 1045 0052 044B     		ldr	r3, .L102
 1046 0054 1A68     		ldr	r2, [r3]
 1047 0056 019B     		ldr	r3, [sp, #4]
 1048 0058 5A40     		eors	r2, r3, r2
 1049 005a 01D1     		bne	.L101
 1050 005c 02B0     		add	sp, sp, #8
 1051              		.cfi_remember_state
 1052              		.cfi_def_cfa_offset 8
 1053              		@ sp needed
 1054 005e 10BD     		pop	{r4, pc}
 1055              	.L101:
 1056              		.cfi_restore_state
 1057 0060 FFF7FEFF 		bl	__stack_chk_fail
 1058              	.LVL66:
 1059              	.L103:
 1060              		.loc 1 260 1 view .LVU229
 1061              		.align	2
 1062              	.L102:
 1063 0064 00000000 		.word	.LC7
 1064 0068 00000000 		.word	.LANCHOR2
 1065 006c 00000000 		.word	.LANCHOR0
 1066              		.cfi_endproc
 1067              	.LFE261:
 1068              		.size	spi3_slave_lld_ignore, .-spi3_slave_lld_ignore
 1069              		.section	.rodata.spi3_slave_lld_exchange.cst4,"aM",%progbits,4
 1070              		.align	2
 1071              	.LC8:
 1072 0000 00000000 		.word	__stack_chk_guard
 1073              		.section	.text.spi3_slave_lld_exchange,"ax",%progbits
 1074              		.align	1
 1075              		.p2align 4,,15
 1076              		.global	spi3_slave_lld_exchange
 1077              		.syntax unified
 1078              		.thumb
 1079              		.thumb_func
 1080              		.fpu fpv4-sp-d16
 1081              		.type	spi3_slave_lld_exchange, %function
ARM GAS  /tmp/ccSSSITj.s 			page 20


 1082              	spi3_slave_lld_exchange:
 1083              	.LVL67:
 1084              	.LFB262:
 1085              		.loc 1 278 55 is_stmt 1 view -0
 1086              		.cfi_startproc
 1087              		@ args = 0, pretend = 0, frame = 8
 1088              		@ frame_needed = 0, uses_anonymous_args = 0
 1089              		.loc 1 278 55 is_stmt 0 view .LVU231
 1090 0000 10B5     		push	{r4, lr}
 1091              		.cfi_def_cfa_offset 8
 1092              		.cfi_offset 4, -8
 1093              		.cfi_offset 14, -4
 1094              		.loc 1 280 3 view .LVU232
 1095 0002 446A     		ldr	r4, [r0, #36]
 1096              		.loc 1 278 55 view .LVU233
 1097 0004 DFF868C0 		ldr	ip, .L108
 1098              		.loc 1 280 3 view .LVU234
 1099 0008 2468     		ldr	r4, [r4]
 1100              		.loc 1 278 55 view .LVU235
 1101 000a 82B0     		sub	sp, sp, #8
 1102              		.cfi_def_cfa_offset 16
 1103              		.loc 1 278 55 view .LVU236
 1104 000c DCF800C0 		ldr	ip, [ip]
 1105 0010 CDF804C0 		str	ip, [sp, #4]
 1106 0014 4FF0000C 		mov	ip,#0
 1107              		.loc 1 280 3 is_stmt 1 view .LVU237
 1108 0018 E360     		str	r3, [r4, #12]
 1109              		.loc 1 280 42 view .LVU238
 1110              		.loc 1 281 3 view .LVU239
 1111 001a 436A     		ldr	r3, [r0, #36]
 1112              	.LVL68:
 1113              		.loc 1 281 3 is_stmt 0 view .LVU240
 1114 001c 1B68     		ldr	r3, [r3]
 1115 001e 5960     		str	r1, [r3, #4]
 1116              	.LVL69:
 1117              		.loc 1 281 46 is_stmt 1 view .LVU241
 1118              		.loc 1 282 3 view .LVU242
 1119 0020 446A     		ldr	r4, [r0, #36]
 1120 0022 C36A     		ldr	r3, [r0, #44]
 1121 0024 2468     		ldr	r4, [r4]
 1122 0026 43F48063 		orr	r3, r3, #1024
 1123 002a 2360     		str	r3, [r4]
 1124              		.loc 1 282 68 view .LVU243
 1125              		.loc 1 284 3 view .LVU244
 1126 002c 836A     		ldr	r3, [r0, #40]
 1127 002e 1B68     		ldr	r3, [r3]
 1128 0030 DA60     		str	r2, [r3, #12]
 1129              		.loc 1 284 42 view .LVU245
 1130              		.loc 1 285 3 view .LVU246
 1131 0032 836A     		ldr	r3, [r0, #40]
 1132 0034 1B68     		ldr	r3, [r3]
 1133 0036 5960     		str	r1, [r3, #4]
 1134              		.loc 1 285 46 view .LVU247
 1135              		.loc 1 286 3 view .LVU248
 1136 0038 826A     		ldr	r2, [r0, #40]
 1137              	.LVL70:
 1138              		.loc 1 286 3 is_stmt 0 view .LVU249
ARM GAS  /tmp/ccSSSITj.s 			page 21


 1139 003a 036B     		ldr	r3, [r0, #48]
 1140 003c 1268     		ldr	r2, [r2]
 1141 003e 43F48063 		orr	r3, r3, #1024
 1142 0042 1360     		str	r3, [r2]
 1143              		.loc 1 286 69 is_stmt 1 view .LVU250
 1144              		.loc 1 288 3 view .LVU251
 1145 0044 436A     		ldr	r3, [r0, #36]
 1146 0046 1A68     		ldr	r2, [r3]
 1147 0048 1368     		ldr	r3, [r2]
 1148 004a 43F00103 		orr	r3, r3, #1
 1149 004e 1360     		str	r3, [r2]
 1150              		.loc 1 288 31 view .LVU252
 1151              		.loc 1 289 3 view .LVU253
 1152 0050 836A     		ldr	r3, [r0, #40]
 1153 0052 1A68     		ldr	r2, [r3]
 1154 0054 1368     		ldr	r3, [r2]
 1155 0056 43F00103 		orr	r3, r3, #1
 1156 005a 1360     		str	r3, [r2]
 1157              		.loc 1 289 31 view .LVU254
 1158              		.loc 1 290 1 is_stmt 0 view .LVU255
 1159 005c 044B     		ldr	r3, .L108
 1160 005e 1A68     		ldr	r2, [r3]
 1161 0060 019B     		ldr	r3, [sp, #4]
 1162 0062 5A40     		eors	r2, r3, r2
 1163 0064 01D1     		bne	.L107
 1164 0066 02B0     		add	sp, sp, #8
 1165              		.cfi_remember_state
 1166              		.cfi_def_cfa_offset 8
 1167              		@ sp needed
 1168 0068 10BD     		pop	{r4, pc}
 1169              	.L107:
 1170              		.cfi_restore_state
 1171 006a FFF7FEFF 		bl	__stack_chk_fail
 1172              	.LVL71:
 1173              	.L109:
 1174              		.loc 1 290 1 view .LVU256
 1175 006e 00BF     		.align	2
 1176              	.L108:
 1177 0070 00000000 		.word	.LC8
 1178              		.cfi_endproc
 1179              	.LFE262:
 1180              		.size	spi3_slave_lld_exchange, .-spi3_slave_lld_exchange
 1181              		.section	.rodata.spi3_slave_lld_send.cst4,"aM",%progbits,4
 1182              		.align	2
 1183              	.LC9:
 1184 0000 00000000 		.word	__stack_chk_guard
 1185              		.section	.text.spi3_slave_lld_send,"ax",%progbits
 1186              		.align	1
 1187              		.p2align 4,,15
 1188              		.global	spi3_slave_lld_send
 1189              		.syntax unified
 1190              		.thumb
 1191              		.thumb_func
 1192              		.fpu fpv4-sp-d16
 1193              		.type	spi3_slave_lld_send, %function
 1194              	spi3_slave_lld_send:
 1195              	.LVL72:
ARM GAS  /tmp/ccSSSITj.s 			page 22


 1196              	.LFB263:
 1197              		.loc 1 305 77 is_stmt 1 view -0
 1198              		.cfi_startproc
 1199              		@ args = 0, pretend = 0, frame = 8
 1200              		@ frame_needed = 0, uses_anonymous_args = 0
 1201              		.loc 1 305 77 is_stmt 0 view .LVU258
 1202 0000 10B5     		push	{r4, lr}
 1203              		.cfi_def_cfa_offset 8
 1204              		.cfi_offset 4, -8
 1205              		.cfi_offset 14, -4
 1206              		.loc 1 307 3 view .LVU259
 1207 0002 436A     		ldr	r3, [r0, #36]
 1208              		.loc 1 305 77 view .LVU260
 1209 0004 DFF868C0 		ldr	ip, .L114+4
 1210              		.loc 1 307 3 view .LVU261
 1211 0008 1B68     		ldr	r3, [r3]
 1212 000a 184C     		ldr	r4, .L114
 1213              		.loc 1 305 77 view .LVU262
 1214 000c 82B0     		sub	sp, sp, #8
 1215              		.cfi_def_cfa_offset 16
 1216              		.loc 1 305 77 view .LVU263
 1217 000e DCF800C0 		ldr	ip, [ip]
 1218 0012 CDF804C0 		str	ip, [sp, #4]
 1219 0016 4FF0000C 		mov	ip,#0
 1220              		.loc 1 307 3 is_stmt 1 view .LVU264
 1221 001a DC60     		str	r4, [r3, #12]
 1222              		.loc 1 307 45 view .LVU265
 1223              		.loc 1 308 3 view .LVU266
 1224 001c 436A     		ldr	r3, [r0, #36]
 1225 001e 1B68     		ldr	r3, [r3]
 1226 0020 5960     		str	r1, [r3, #4]
 1227              		.loc 1 308 46 view .LVU267
 1228              		.loc 1 309 3 view .LVU268
 1229 0022 436A     		ldr	r3, [r0, #36]
 1230 0024 C46A     		ldr	r4, [r0, #44]
 1231 0026 1B68     		ldr	r3, [r3]
 1232 0028 1C60     		str	r4, [r3]
 1233              		.loc 1 309 49 view .LVU269
 1234              		.loc 1 311 3 view .LVU270
 1235 002a 836A     		ldr	r3, [r0, #40]
 1236 002c 1B68     		ldr	r3, [r3]
 1237 002e DA60     		str	r2, [r3, #12]
 1238              		.loc 1 311 42 view .LVU271
 1239              		.loc 1 312 3 view .LVU272
 1240 0030 836A     		ldr	r3, [r0, #40]
 1241 0032 1B68     		ldr	r3, [r3]
 1242 0034 5960     		str	r1, [r3, #4]
 1243              		.loc 1 312 46 view .LVU273
 1244              		.loc 1 313 3 view .LVU274
 1245 0036 826A     		ldr	r2, [r0, #40]
 1246              	.LVL73:
 1247              		.loc 1 313 3 is_stmt 0 view .LVU275
 1248 0038 036B     		ldr	r3, [r0, #48]
 1249 003a 1268     		ldr	r2, [r2]
 1250 003c 43F48063 		orr	r3, r3, #1024
 1251 0040 1360     		str	r3, [r2]
 1252              		.loc 1 313 69 is_stmt 1 view .LVU276
ARM GAS  /tmp/ccSSSITj.s 			page 23


 1253              		.loc 1 315 3 view .LVU277
 1254 0042 436A     		ldr	r3, [r0, #36]
 1255 0044 1A68     		ldr	r2, [r3]
 1256 0046 1368     		ldr	r3, [r2]
 1257 0048 43F00103 		orr	r3, r3, #1
 1258 004c 1360     		str	r3, [r2]
 1259              		.loc 1 315 31 view .LVU278
 1260              		.loc 1 316 3 view .LVU279
 1261 004e 836A     		ldr	r3, [r0, #40]
 1262 0050 1A68     		ldr	r2, [r3]
 1263 0052 1368     		ldr	r3, [r2]
 1264 0054 43F00103 		orr	r3, r3, #1
 1265 0058 1360     		str	r3, [r2]
 1266              		.loc 1 316 31 view .LVU280
 1267              		.loc 1 317 1 is_stmt 0 view .LVU281
 1268 005a 054B     		ldr	r3, .L114+4
 1269 005c 1A68     		ldr	r2, [r3]
 1270 005e 019B     		ldr	r3, [sp, #4]
 1271 0060 5A40     		eors	r2, r3, r2
 1272 0062 01D1     		bne	.L113
 1273 0064 02B0     		add	sp, sp, #8
 1274              		.cfi_remember_state
 1275              		.cfi_def_cfa_offset 8
 1276              		@ sp needed
 1277 0066 10BD     		pop	{r4, pc}
 1278              	.L113:
 1279              		.cfi_restore_state
 1280 0068 FFF7FEFF 		bl	__stack_chk_fail
 1281              	.LVL74:
 1282              	.L115:
 1283              		.loc 1 317 1 view .LVU282
 1284              		.align	2
 1285              	.L114:
 1286 006c 00000000 		.word	.LANCHOR2
 1287 0070 00000000 		.word	.LC9
 1288              		.cfi_endproc
 1289              	.LFE263:
 1290              		.size	spi3_slave_lld_send, .-spi3_slave_lld_send
 1291              		.section	.rodata.spi3_slave_lld_receive.cst4,"aM",%progbits,4
 1292              		.align	2
 1293              	.LC10:
 1294 0000 00000000 		.word	__stack_chk_guard
 1295              		.section	.text.spi3_slave_lld_receive,"ax",%progbits
 1296              		.align	1
 1297              		.p2align 4,,15
 1298              		.global	spi3_slave_lld_receive
 1299              		.syntax unified
 1300              		.thumb
 1301              		.thumb_func
 1302              		.fpu fpv4-sp-d16
 1303              		.type	spi3_slave_lld_receive, %function
 1304              	spi3_slave_lld_receive:
 1305              	.LVL75:
 1306              	.LFB264:
 1307              		.loc 1 332 74 is_stmt 1 view -0
 1308              		.cfi_startproc
 1309              		@ args = 0, pretend = 0, frame = 8
ARM GAS  /tmp/ccSSSITj.s 			page 24


 1310              		@ frame_needed = 0, uses_anonymous_args = 0
 1311              		.loc 1 332 74 is_stmt 0 view .LVU284
 1312 0000 10B5     		push	{r4, lr}
 1313              		.cfi_def_cfa_offset 8
 1314              		.cfi_offset 4, -8
 1315              		.cfi_offset 14, -4
 1316              		.loc 1 334 3 view .LVU285
 1317 0002 436A     		ldr	r3, [r0, #36]
 1318              		.loc 1 332 74 view .LVU286
 1319 0004 184C     		ldr	r4, .L120
 1320              		.loc 1 334 3 view .LVU287
 1321 0006 1B68     		ldr	r3, [r3]
 1322              		.loc 1 332 74 view .LVU288
 1323 0008 82B0     		sub	sp, sp, #8
 1324              		.cfi_def_cfa_offset 16
 1325              		.loc 1 332 74 view .LVU289
 1326 000a 2468     		ldr	r4, [r4]
 1327 000c 0194     		str	r4, [sp, #4]
 1328 000e 4FF00004 		mov	r4,#0
 1329              		.loc 1 334 3 is_stmt 1 view .LVU290
 1330 0012 DA60     		str	r2, [r3, #12]
 1331              		.loc 1 334 42 view .LVU291
 1332              		.loc 1 335 3 view .LVU292
 1333 0014 436A     		ldr	r3, [r0, #36]
 1334              		.loc 1 338 3 is_stmt 0 view .LVU293
 1335 0016 154C     		ldr	r4, .L120+4
 1336              		.loc 1 335 3 view .LVU294
 1337 0018 1B68     		ldr	r3, [r3]
 1338 001a 5960     		str	r1, [r3, #4]
 1339              		.loc 1 335 46 is_stmt 1 view .LVU295
 1340              		.loc 1 336 3 view .LVU296
 1341 001c 426A     		ldr	r2, [r0, #36]
 1342              	.LVL76:
 1343              		.loc 1 336 3 is_stmt 0 view .LVU297
 1344 001e C36A     		ldr	r3, [r0, #44]
 1345 0020 1268     		ldr	r2, [r2]
 1346 0022 43F48063 		orr	r3, r3, #1024
 1347 0026 1360     		str	r3, [r2]
 1348              		.loc 1 336 69 is_stmt 1 view .LVU298
 1349              		.loc 1 338 3 view .LVU299
 1350 0028 836A     		ldr	r3, [r0, #40]
 1351 002a 1B68     		ldr	r3, [r3]
 1352 002c DC60     		str	r4, [r3, #12]
 1353              		.loc 1 338 45 view .LVU300
 1354              		.loc 1 339 3 view .LVU301
 1355 002e 836A     		ldr	r3, [r0, #40]
 1356 0030 1B68     		ldr	r3, [r3]
 1357 0032 5960     		str	r1, [r3, #4]
 1358              		.loc 1 339 46 view .LVU302
 1359              		.loc 1 340 3 view .LVU303
 1360 0034 836A     		ldr	r3, [r0, #40]
 1361 0036 026B     		ldr	r2, [r0, #48]
 1362 0038 1B68     		ldr	r3, [r3]
 1363 003a 1A60     		str	r2, [r3]
 1364              		.loc 1 340 49 view .LVU304
 1365              		.loc 1 342 3 view .LVU305
 1366 003c 436A     		ldr	r3, [r0, #36]
ARM GAS  /tmp/ccSSSITj.s 			page 25


 1367 003e 1A68     		ldr	r2, [r3]
 1368 0040 1368     		ldr	r3, [r2]
 1369 0042 43F00103 		orr	r3, r3, #1
 1370 0046 1360     		str	r3, [r2]
 1371              		.loc 1 342 31 view .LVU306
 1372              		.loc 1 343 3 view .LVU307
 1373 0048 836A     		ldr	r3, [r0, #40]
 1374 004a 1A68     		ldr	r2, [r3]
 1375 004c 1368     		ldr	r3, [r2]
 1376 004e 43F00103 		orr	r3, r3, #1
 1377 0052 1360     		str	r3, [r2]
 1378              		.loc 1 343 31 view .LVU308
 1379              		.loc 1 344 1 is_stmt 0 view .LVU309
 1380 0054 044B     		ldr	r3, .L120
 1381 0056 1A68     		ldr	r2, [r3]
 1382 0058 019B     		ldr	r3, [sp, #4]
 1383 005a 5A40     		eors	r2, r3, r2
 1384 005c 01D1     		bne	.L119
 1385 005e 02B0     		add	sp, sp, #8
 1386              		.cfi_remember_state
 1387              		.cfi_def_cfa_offset 8
 1388              		@ sp needed
 1389 0060 10BD     		pop	{r4, pc}
 1390              	.L119:
 1391              		.cfi_restore_state
 1392 0062 FFF7FEFF 		bl	__stack_chk_fail
 1393              	.LVL77:
 1394              	.L121:
 1395              		.loc 1 344 1 view .LVU310
 1396 0066 00BF     		.align	2
 1397              	.L120:
 1398 0068 00000000 		.word	.LC10
 1399 006c 00000000 		.word	.LANCHOR0
 1400              		.cfi_endproc
 1401              	.LFE264:
 1402              		.size	spi3_slave_lld_receive, .-spi3_slave_lld_receive
 1403              		.section	.rodata.spi3_slave_lld_polled_exchange.cst4,"aM",%progbits,4
 1404              		.align	2
 1405              	.LC11:
 1406 0000 00000000 		.word	__stack_chk_guard
 1407              		.section	.text.spi3_slave_lld_polled_exchange,"ax",%progbits
 1408              		.align	1
 1409              		.p2align 4,,15
 1410              		.global	spi3_slave_lld_polled_exchange
 1411              		.syntax unified
 1412              		.thumb
 1413              		.thumb_func
 1414              		.fpu fpv4-sp-d16
 1415              		.type	spi3_slave_lld_polled_exchange, %function
 1416              	spi3_slave_lld_polled_exchange:
 1417              	.LVL78:
 1418              	.LFB265:
 1419              		.loc 1 358 79 is_stmt 1 view -0
 1420              		.cfi_startproc
 1421              		@ args = 0, pretend = 0, frame = 8
 1422              		@ frame_needed = 0, uses_anonymous_args = 0
 1423              		.loc 1 358 79 is_stmt 0 view .LVU312
ARM GAS  /tmp/ccSSSITj.s 			page 26


 1424 0000 00B5     		push	{lr}
 1425              		.cfi_def_cfa_offset 4
 1426              		.cfi_offset 14, -4
 1427 0002 0C4A     		ldr	r2, .L129
 1428              		.loc 1 360 7 view .LVU313
 1429 0004 036A     		ldr	r3, [r0, #32]
 1430              		.loc 1 358 79 view .LVU314
 1431 0006 83B0     		sub	sp, sp, #12
 1432              		.cfi_def_cfa_offset 16
 1433              		.loc 1 358 79 view .LVU315
 1434 0008 1268     		ldr	r2, [r2]
 1435 000a 0192     		str	r2, [sp, #4]
 1436 000c 4FF00002 		mov	r2,#0
 1437              		.loc 1 360 3 is_stmt 1 view .LVU316
 1438              		.loc 1 360 17 is_stmt 0 view .LVU317
 1439 0010 D960     		str	r1, [r3, #12]
 1440              		.loc 1 361 3 is_stmt 1 view .LVU318
 1441              		.loc 1 361 15 is_stmt 0 view .LVU319
 1442 0012 026A     		ldr	r2, [r0, #32]
 1443              	.L123:
 1444              		.loc 1 362 5 is_stmt 1 discriminator 1 view .LVU320
 1445              		.loc 1 361 9 discriminator 1 view .LVU321
 1446              		.loc 1 361 20 is_stmt 0 discriminator 1 view .LVU322
 1447 0014 9368     		ldr	r3, [r2, #8]
 1448              		.loc 1 361 9 discriminator 1 view .LVU323
 1449 0016 DB07     		lsls	r3, r3, #31
 1450 0018 FCD5     		bpl	.L123
 1451              		.loc 1 363 3 is_stmt 1 view .LVU324
 1452              		.loc 1 364 1 is_stmt 0 view .LVU325
 1453 001a 064B     		ldr	r3, .L129
 1454              		.loc 1 363 19 view .LVU326
 1455 001c D068     		ldr	r0, [r2, #12]
 1456              	.LVL79:
 1457              		.loc 1 364 1 view .LVU327
 1458 001e 1A68     		ldr	r2, [r3]
 1459 0020 019B     		ldr	r3, [sp, #4]
 1460 0022 5A40     		eors	r2, r3, r2
 1461              		.loc 1 363 19 view .LVU328
 1462 0024 80B2     		uxth	r0, r0
 1463              		.loc 1 364 1 view .LVU329
 1464 0026 02D1     		bne	.L128
 1465 0028 03B0     		add	sp, sp, #12
 1466              		.cfi_remember_state
 1467              		.cfi_def_cfa_offset 4
 1468              		@ sp needed
 1469 002a 5DF804FB 		ldr	pc, [sp], #4
 1470              	.L128:
 1471              		.cfi_restore_state
 1472 002e FFF7FEFF 		bl	__stack_chk_fail
 1473              	.LVL80:
 1474              	.L130:
 1475              		.loc 1 364 1 view .LVU330
 1476 0032 00BF     		.align	2
 1477              	.L129:
 1478 0034 00000000 		.word	.LC11
 1479              		.cfi_endproc
 1480              	.LFE265:
ARM GAS  /tmp/ccSSSITj.s 			page 27


 1481              		.size	spi3_slave_lld_polled_exchange, .-spi3_slave_lld_polled_exchange
 1482              		.section	.rodata.spi3_slave_lld_stop_exchange.cst4,"aM",%progbits,4
 1483              		.align	2
 1484              	.LC12:
 1485 0000 00000000 		.word	__stack_chk_guard
 1486              		.section	.text.spi3_slave_lld_stop_exchange,"ax",%progbits
 1487              		.align	1
 1488              		.p2align 4,,15
 1489              		.global	spi3_slave_lld_stop_exchange
 1490              		.syntax unified
 1491              		.thumb
 1492              		.thumb_func
 1493              		.fpu fpv4-sp-d16
 1494              		.type	spi3_slave_lld_stop_exchange, %function
 1495              	spi3_slave_lld_stop_exchange:
 1496              	.LVL81:
 1497              	.LFB266:
 1498              		.loc 1 375 57 is_stmt 1 view -0
 1499              		.cfi_startproc
 1500              		@ args = 0, pretend = 0, frame = 8
 1501              		@ frame_needed = 0, uses_anonymous_args = 0
 1502              		.loc 1 375 57 is_stmt 0 view .LVU332
 1503 0000 10B5     		push	{r4, lr}
 1504              		.cfi_def_cfa_offset 8
 1505              		.cfi_offset 4, -8
 1506              		.cfi_offset 14, -4
 1507 0002 184B     		ldr	r3, .L147
 1508 0004 82B0     		sub	sp, sp, #8
 1509              		.cfi_def_cfa_offset 16
 1510              		.loc 1 375 57 view .LVU333
 1511 0006 1B68     		ldr	r3, [r3]
 1512 0008 0193     		str	r3, [sp, #4]
 1513 000a 4FF00003 		mov	r3,#0
 1514              		.loc 1 378 3 is_stmt 1 view .LVU334
 1515              		.loc 1 378 19 is_stmt 0 view .LVU335
 1516 000e 836A     		ldr	r3, [r0, #40]
 1517              		.loc 1 378 6 view .LVU336
 1518 0010 73B1     		cbz	r3, .L132
 1519              		.loc 1 379 5 is_stmt 1 view .LVU337
 1520 0012 1A68     		ldr	r2, [r3]
 1521 0014 1368     		ldr	r3, [r2]
 1522 0016 23F01F03 		bic	r3, r3, #31
 1523 001a 1360     		str	r3, [r2]
 1524              		.loc 1 379 5 view .LVU338
 1525 001c 816A     		ldr	r1, [r0, #40]
 1526 001e 0A68     		ldr	r2, [r1]
 1527              	.L133:
 1528              		.loc 1 379 5 discriminator 2 view .LVU339
 1529              		.loc 1 379 5 discriminator 2 view .LVU340
 1530 0020 1368     		ldr	r3, [r2]
 1531 0022 DC07     		lsls	r4, r3, #31
 1532 0024 FCD4     		bmi	.L133
 1533              		.loc 1 379 5 discriminator 3 view .LVU341
 1534 0026 0C7A     		ldrb	r4, [r1, #8]	@ zero_extendqisi2
 1535 0028 4A68     		ldr	r2, [r1, #4]
 1536 002a 3D23     		movs	r3, #61
 1537 002c A340     		lsls	r3, r3, r4
ARM GAS  /tmp/ccSSSITj.s 			page 28


 1538 002e 1360     		str	r3, [r2]
 1539              	.L132:
 1540              		.loc 1 379 5 discriminator 4 view .LVU342
 1541              		.loc 1 382 3 discriminator 4 view .LVU343
 1542              		.loc 1 382 19 is_stmt 0 discriminator 4 view .LVU344
 1543 0030 436A     		ldr	r3, [r0, #36]
 1544              		.loc 1 382 6 discriminator 4 view .LVU345
 1545 0032 73B1     		cbz	r3, .L131
 1546              		.loc 1 383 5 is_stmt 1 view .LVU346
 1547 0034 1A68     		ldr	r2, [r3]
 1548 0036 1368     		ldr	r3, [r2]
 1549 0038 23F01F03 		bic	r3, r3, #31
 1550 003c 1360     		str	r3, [r2]
 1551              		.loc 1 383 5 view .LVU347
 1552 003e 416A     		ldr	r1, [r0, #36]
 1553 0040 0A68     		ldr	r2, [r1]
 1554              	.L135:
 1555              		.loc 1 383 5 discriminator 2 view .LVU348
 1556              		.loc 1 383 5 discriminator 2 view .LVU349
 1557 0042 1368     		ldr	r3, [r2]
 1558 0044 DB07     		lsls	r3, r3, #31
 1559 0046 FCD4     		bmi	.L135
 1560              		.loc 1 383 5 discriminator 3 view .LVU350
 1561 0048 087A     		ldrb	r0, [r1, #8]	@ zero_extendqisi2
 1562              	.LVL82:
 1563              		.loc 1 383 5 is_stmt 0 discriminator 3 view .LVU351
 1564 004a 4A68     		ldr	r2, [r1, #4]
 1565 004c 3D23     		movs	r3, #61
 1566 004e 8340     		lsls	r3, r3, r0
 1567 0050 1360     		str	r3, [r2]
 1568              		.loc 1 383 5 is_stmt 1 discriminator 3 view .LVU352
 1569              		.loc 1 383 34 discriminator 3 view .LVU353
 1570              	.L131:
 1571              		.loc 1 384 1 is_stmt 0 view .LVU354
 1572 0052 044B     		ldr	r3, .L147
 1573 0054 1A68     		ldr	r2, [r3]
 1574 0056 019B     		ldr	r3, [sp, #4]
 1575 0058 5A40     		eors	r2, r3, r2
 1576 005a 01D1     		bne	.L146
 1577 005c 02B0     		add	sp, sp, #8
 1578              		.cfi_remember_state
 1579              		.cfi_def_cfa_offset 8
 1580              		@ sp needed
 1581 005e 10BD     		pop	{r4, pc}
 1582              	.L146:
 1583              		.cfi_restore_state
 1584 0060 FFF7FEFF 		bl	__stack_chk_fail
 1585              	.LVL83:
 1586              	.L148:
 1587              		.align	2
 1588              	.L147:
 1589 0064 00000000 		.word	.LC12
 1590              		.cfi_endproc
 1591              	.LFE266:
 1592              		.size	spi3_slave_lld_stop_exchange, .-spi3_slave_lld_stop_exchange
 1593              		.section	.bss.dummyrx,"aw",%nobits
 1594              		.align	1
ARM GAS  /tmp/ccSSSITj.s 			page 29


 1595              		.set	.LANCHOR2,. + 0
 1596              		.type	dummyrx, %object
 1597              		.size	dummyrx, 2
 1598              	dummyrx:
 1599 0000 0000     		.space	2
 1600              		.section	.bss.dummytx,"aw",%nobits
 1601              		.align	1
 1602              		.set	.LANCHOR0,. + 0
 1603              		.type	dummytx, %object
 1604              		.size	dummytx, 2
 1605              	dummytx:
 1606 0000 0000     		.space	2
 1607              		.section	.rodata.__func__.10068,"a"
 1608              		.align	2
 1609              		.set	.LANCHOR1,. + 0
 1610              		.type	__func__.10068, %object
 1611              		.size	__func__.10068, 21
 1612              	__func__.10068:
 1613 0000 73706933 		.ascii	"spi3_slave_lld_start\000"
 1613      5F736C61 
 1613      76655F6C 
 1613      6C645F73 
 1613      74617274 
 1614              		.text
 1615              	.Letext0:
 1616              		.file 6 "/usr/lib/gcc/arm-none-eabi/9.2.1/include/stddef.h"
 1617              		.file 7 "/usr/lib/gcc/arm-none-eabi/9.2.1/include/stdint.h"
 1618              		.file 8 ".//ChibiOS//os/rt/ports/ARMCMx/compilers/GCC/chtypes.h"
 1619              		.file 9 ".//ChibiOS//os/rt/include/chsystypes.h"
 1620              		.file 10 ".//ChibiOS//os/rt/include/chschd.h"
 1621              		.file 11 ".//ChibiOS//os/ext/CMSIS/include/core_cm4.h"
 1622              		.file 12 ".//ChibiOS//os/ext/CMSIS/ST/system_stm32f4xx.h"
 1623              		.file 13 ".//ChibiOS//os/ext/CMSIS/ST/stm32f407xx.h"
 1624              		.file 14 ".//ChibiOS//os/rt/ports/ARMCMx/chcore.h"
 1625              		.file 15 ".//ChibiOS//os/rt/include/chdebug.h"
 1626              		.file 16 ".//ChibiOS//os/rt/include/chtm.h"
 1627              		.file 17 ".//ChibiOS//os/rt/include/chstats.h"
 1628              		.file 18 ".//ChibiOS//os/rt/include/chsem.h"
 1629              		.file 19 ".//ChibiOS//os/rt/include/chmtx.h"
 1630              		.file 20 ".//ChibiOS//os/rt/include/chregistry.h"
 1631              		.file 21 ".//ChibiOS//os/rt/include/chevents.h"
 1632              		.file 22 ".//ChibiOS//os/rt/include/chqueues.h"
 1633              		.file 23 ".//ChibiOS//os/hal/ports/STM32/STM32F4xx/stm32_dma.h"
 1634              		.file 24 ".//ChibiOS//os/hal/include/hal_ioblock.h"
 1635              		.file 25 ".//ChibiOS//os/hal/ports/STM32/LLD/GPIOv2/pal_lld.h"
 1636              		.file 26 ".//ChibiOS//os/hal/include/adc.h"
 1637              		.file 27 ".//ChibiOS//os/hal/ports/STM32/STM32F4xx/adc_lld.h"
 1638              		.file 28 ".//ChibiOS//os/hal/include/can.h"
 1639              		.file 29 ".//ChibiOS//os/hal/ports/STM32/LLD/can_lld.h"
 1640              		.file 30 ".//ChibiOS//os/hal/include/dac.h"
 1641              		.file 31 ".//ChibiOS//os/hal/ports/STM32/LLD/DACv1/dac_lld.h"
 1642              		.file 32 ".//ChibiOS//os/hal/include/ext.h"
 1643              		.file 33 ".//ChibiOS//os/hal/ports/STM32/LLD/ext_lld.h"
 1644              		.file 34 ".//ChibiOS//os/hal/include/gpt.h"
 1645              		.file 35 ".//ChibiOS//os/hal/ports/STM32/LLD/TIMv1/gpt_lld.h"
 1646              		.file 36 ".//ChibiOS//os/hal/ports/STM32/LLD/TIMv1/stm32_tim.h"
 1647              		.file 37 ".//ChibiOS//os/hal/include/i2c.h"
ARM GAS  /tmp/ccSSSITj.s 			page 30


 1648              		.file 38 ".//ChibiOS//os/hal/ports/STM32/LLD/I2Cv1/i2c_lld.h"
 1649              		.file 39 ".//ChibiOS//os/hal/include/i2s.h"
 1650              		.file 40 ".//ChibiOS//os/hal/ports/STM32/LLD/SPIv1/i2s_lld.h"
 1651              		.file 41 ".//ChibiOS//os/hal/include/pwm.h"
 1652              		.file 42 ".//ChibiOS//os/hal/ports/STM32/LLD/TIMv1/pwm_lld.h"
 1653              		.file 43 ".//ChibiOS//os/hal/include/serial.h"
 1654              		.file 44 ".//ChibiOS//os/hal/ports/STM32/LLD/USARTv1/serial_lld.h"
 1655              		.file 45 ".//ChibiOS//os/hal/include/sdc.h"
 1656              		.file 46 ".//ChibiOS//os/hal/ports/STM32/LLD/sdc_lld.h"
 1657              		.file 47 ".//ChibiOS//os/hal/include/spi.h"
 1658              		.file 48 ".//ChibiOS//os/hal/ports/STM32/LLD/SPIv1/spi_lld.h"
 1659              		.file 49 ".//ChibiOS//os/hal/include/usb.h"
 1660              		.file 50 ".//ChibiOS//os/hal/ports/STM32/LLD/OTGv1/usb_lld.h"
 1661              		.file 51 ".//ChibiOS//os/hal/ports/STM32/LLD/OTGv1/stm32_otg.h"
 1662              		.file 52 ".//ChibiOS_ext/os/hal/include/spi3_slave.h"
 1663              		.file 53 ".//ChibiOS//os/rt/include/chthreads.h"