ARM GAS  /tmp/cckr9U5t.s 			page 1


   1              		.cpu cortex-m4
   2              		.eabi_attribute 27, 1
   3              		.eabi_attribute 28, 1
   4              		.eabi_attribute 20, 1
   5              		.eabi_attribute 21, 1
   6              		.eabi_attribute 23, 3
   7              		.eabi_attribute 24, 1
   8              		.eabi_attribute 25, 1
   9              		.eabi_attribute 26, 1
  10              		.eabi_attribute 30, 2
  11              		.eabi_attribute 34, 1
  12              		.eabi_attribute 18, 4
  13              		.file	"spi_comm.c"
  14              		.text
  15              	.Ltext0:
  16              		.cfi_sections	.debug_frame
  17              		.section	.rodata.spi_thread.str1.4,"aMS",%progbits,1
  18              		.align	2
  19              	.LC0:
  20 0000 53504920 		.ascii	"SPI thread\000"
  20      74687265 
  20      616400
  21              		.section	.rodata.spi_thread.cst4,"aM",%progbits,4
  22              		.align	2
  23              	.LC1:
  24 0000 00000000 		.word	__stack_chk_guard
  25              		.section	.text.spi_thread,"ax",%progbits
  26              		.align	1
  27              		.p2align 4,,15
  28              		.arch armv7e-m
  29              		.syntax unified
  30              		.thumb
  31              		.thumb_func
  32              		.fpu fpv4-sp-d16
  33              		.type	spi_thread, %function
  34              	spi_thread:
  35              	.LVL0:
  36              	.LFB256:
  37              		.file 1 ".//src/spi_comm.c"
  38              		.loc 1 23 36 view -0
  39              		.cfi_startproc
  40              		@ Volatile: function does not return.
  41              		@ args = 0, pretend = 0, frame = 8
  42              		@ frame_needed = 0, uses_anonymous_args = 0
  43              		.loc 1 23 36 is_stmt 0 view .LVU1
  44 0000 80B5     		push	{r7, lr}
  45              		.cfi_def_cfa_offset 8
  46              		.cfi_offset 7, -8
  47              		.cfi_offset 14, -4
  48              	.LBB4:
  49              	.LBB5:
  50              		.file 2 ".//ChibiOS//os/rt/include/chregistry.h"
  51              		.loc 2 135 11 view .LVU2
  52 0002 174B     		ldr	r3, .L8
  53              		.loc 2 135 30 view .LVU3
  54 0004 174A     		ldr	r2, .L8+4
  55              		.loc 2 135 11 view .LVU4
ARM GAS  /tmp/cckr9U5t.s 			page 2


  56 0006 9B69     		ldr	r3, [r3, #24]
  57 0008 174E     		ldr	r6, .L8+8
  58              		.loc 2 135 30 view .LVU5
  59 000a 9A61     		str	r2, [r3, #24]
  60              	.LBE5:
  61              	.LBE4:
  62              		.loc 1 23 36 view .LVU6
  63 000c 174B     		ldr	r3, .L8+12
  64 000e DFF86880 		ldr	r8, .L8+24
  65              		.loc 1 74 3 view .LVU7
  66 0012 174D     		ldr	r5, .L8+16
  67              		.loc 1 81 3 view .LVU8
  68 0014 174C     		ldr	r4, .L8+20
  69              		.loc 1 23 36 view .LVU9
  70 0016 82B0     		sub	sp, sp, #8
  71              		.cfi_def_cfa_offset 16
  72              		.loc 1 85 3 view .LVU10
  73 0018 3746     		mov	r7, r6
  74              		.loc 1 23 36 view .LVU11
  75 001a 1B68     		ldr	r3, [r3]
  76 001c 0193     		str	r3, [sp, #4]
  77 001e 4FF00003 		mov	r3,#0
  78              		.loc 1 24 2 is_stmt 1 view .LVU12
  79              		.loc 1 25 2 view .LVU13
  80              	.LVL1:
  81              	.LBB7:
  82              	.LBI4:
  83              		.loc 2 132 20 view .LVU14
  84              	.LBB6:
  85              		.loc 2 135 3 view .LVU15
  86              	.L2:
  87              		.loc 2 135 3 is_stmt 0 view .LVU16
  88              	.LBE6:
  89              	.LBE7:
  90              		.loc 1 71 2 is_stmt 1 view .LVU17
  91              		.loc 1 74 3 view .LVU18
  92 0022 2846     		mov	r0, r5
  93 0024 FFF7FEFF 		bl	get_all_rgb_state
  94              	.LVL2:
  95              		.loc 1 81 3 view .LVU19
  96 0028 2046     		mov	r0, r4
  97 002a FFF7FEFF 		bl	spiSelect
  98              	.LVL3:
  99              		.loc 1 85 3 view .LVU20
 100 002e 3B46     		mov	r3, r7
 101 0030 2A46     		mov	r2, r5
 102 0032 0C21     		movs	r1, #12
 103 0034 2046     		mov	r0, r4
 104 0036 FFF7FEFF 		bl	spiExchange
 105              	.LVL4:
 106              		.loc 1 89 3 view .LVU21
 107 003a 2046     		mov	r0, r4
 108 003c FFF7FEFF 		bl	spiUnselect
 109              	.LVL5:
 110              		.loc 1 97 3 view .LVU22
 111 0040 3078     		ldrb	r0, [r6]	@ zero_extendqisi2
 112 0042 FFF7FEFF 		bl	button_set_state
ARM GAS  /tmp/cckr9U5t.s 			page 3


 113              	.LVL6:
 114              		.loc 1 102 3 view .LVU23
 115              		.loc 1 104 4 view .LVU24
 116              		.loc 1 108 4 view .LVU25
 117              		.loc 1 102 40 is_stmt 0 view .LVU26
 118 0046 98F80030 		ldrb	r3, [r8]	@ zero_extendqisi2
 119              		.loc 1 102 5 view .LVU27
 120 004a 033B     		subs	r3, r3, #3
 121 004c 012B     		cmp	r3, #1
 122              		.loc 1 108 4 view .LVU28
 123 004e 4FF01400 		mov	r0, #20
 124              		.loc 1 102 5 view .LVU29
 125 0052 02D8     		bhi	.L3
 126              		.loc 1 104 4 view .LVU30
 127 0054 FFF7FEFF 		bl	wait_image_ready
 128              	.LVL7:
 129 0058 E3E7     		b	.L2
 130              	.L3:
 131              		.loc 1 108 4 view .LVU31
 132 005a FFF7FEFF 		bl	chThdSleep
 133              	.LVL8:
 134 005e E0E7     		b	.L2
 135              	.L9:
 136              		.align	2
 137              	.L8:
 138 0060 00000000 		.word	ch
 139 0064 00000000 		.word	.LC0
 140 0068 00000000 		.word	.LANCHOR1
 141 006c 00000000 		.word	.LC1
 142 0070 00000000 		.word	.LANCHOR0
 143 0074 00000000 		.word	SPID1
 144 0078 00000000 		.word	DCMID
 145              		.cfi_endproc
 146              	.LFE256:
 147              		.size	spi_thread, .-spi_thread
 148              		.section	.rodata.spi_comm_start.cst4,"aM",%progbits,4
 149              		.align	2
 150              	.LC2:
 151 0000 00000000 		.word	__stack_chk_guard
 152              		.section	.text.spi_comm_start,"ax",%progbits
 153              		.align	1
 154              		.p2align 4,,15
 155              		.global	spi_comm_start
 156              		.syntax unified
 157              		.thumb
 158              		.thumb_func
 159              		.fpu fpv4-sp-d16
 160              		.type	spi_comm_start, %function
 161              	spi_comm_start:
 162              	.LFB257:
 163              		.loc 1 268 27 is_stmt 1 view -0
 164              		.cfi_startproc
 165              		@ args = 0, pretend = 0, frame = 8
 166              		@ frame_needed = 0, uses_anonymous_args = 0
 167 0000 00B5     		push	{lr}
 168              		.cfi_def_cfa_offset 4
 169              		.cfi_offset 14, -4
ARM GAS  /tmp/cckr9U5t.s 			page 4


 170 0002 0E4B     		ldr	r3, .L14
 171              		.loc 1 280 2 is_stmt 0 view .LVU33
 172 0004 0E49     		ldr	r1, .L14+4
 173 0006 0F48     		ldr	r0, .L14+8
 174              		.loc 1 268 27 view .LVU34
 175 0008 85B0     		sub	sp, sp, #20
 176              		.cfi_def_cfa_offset 24
 177              		.loc 1 268 27 view .LVU35
 178 000a 1B68     		ldr	r3, [r3]
 179 000c 0393     		str	r3, [sp, #12]
 180 000e 4FF00003 		mov	r3,#0
 181              		.loc 1 273 2 is_stmt 1 view .LVU36
 182              		.loc 1 280 2 view .LVU37
 183 0012 FFF7FEFF 		bl	spiStart
 184              	.LVL9:
 185              		.loc 1 281 2 view .LVU38
 186 0016 0023     		movs	r3, #0
 187 0018 0093     		str	r3, [sp]
 188 001a 4122     		movs	r2, #65
 189 001c 0A4B     		ldr	r3, .L14+12
 190 001e 0B48     		ldr	r0, .L14+16
 191 0020 4FF4AF61 		mov	r1, #1400
 192 0024 FFF7FEFF 		bl	chThdCreateStatic
 193              	.LVL10:
 194              		.loc 1 283 1 is_stmt 0 view .LVU39
 195 0028 044B     		ldr	r3, .L14
 196 002a 1A68     		ldr	r2, [r3]
 197 002c 039B     		ldr	r3, [sp, #12]
 198 002e 5A40     		eors	r2, r3, r2
 199 0030 02D1     		bne	.L13
 200 0032 05B0     		add	sp, sp, #20
 201              		.cfi_remember_state
 202              		.cfi_def_cfa_offset 4
 203              		@ sp needed
 204 0034 5DF804FB 		ldr	pc, [sp], #4
 205              	.L13:
 206              		.cfi_restore_state
 207 0038 FFF7FEFF 		bl	__stack_chk_fail
 208              	.LVL11:
 209              	.L15:
 210              		.align	2
 211              	.L14:
 212 003c 00000000 		.word	.LC2
 213 0040 00000000 		.word	.LANCHOR2
 214 0044 00000000 		.word	SPID1
 215 0048 00000000 		.word	spi_thread
 216 004c 00000000 		.word	.LANCHOR3
 217              		.cfi_endproc
 218              	.LFE257:
 219              		.size	spi_comm_start, .-spi_comm_start
 220              		.global	ss_event
 221              		.global	spi_tx_buff
 222              		.global	spi_rx_buff
 223              		.section	.bss.spi_rx_buff,"aw",%nobits
 224              		.align	2
 225              		.set	.LANCHOR1,. + 0
 226              		.type	spi_rx_buff, %object
ARM GAS  /tmp/cckr9U5t.s 			page 5


 227              		.size	spi_rx_buff, 4092
 228              	spi_rx_buff:
 229 0000 00000000 		.space	4092
 229      00000000 
 229      00000000 
 229      00000000 
 229      00000000 
 230              		.section	.bss.spi_thread_wa,"aw",%nobits
 231              		.align	3
 232              		.set	.LANCHOR3,. + 0
 233              		.type	spi_thread_wa, %object
 234              		.size	spi_thread_wa, 1400
 235              	spi_thread_wa:
 236 0000 00000000 		.space	1400
 236      00000000 
 236      00000000 
 236      00000000 
 236      00000000 
 237              		.section	.bss.spi_tx_buff,"aw",%nobits
 238              		.align	2
 239              		.set	.LANCHOR0,. + 0
 240              		.type	spi_tx_buff, %object
 241              		.size	spi_tx_buff, 4092
 242              	spi_tx_buff:
 243 0000 00000000 		.space	4092
 243      00000000 
 243      00000000 
 243      00000000 
 243      00000000 
 244              		.section	.bss.ss_event,"aw",%nobits
 245              		.align	2
 246              		.type	ss_event, %object
 247              		.size	ss_event, 4
 248              	ss_event:
 249 0000 00000000 		.space	4
 250              		.section	.rodata.hs_spicfg.10988,"a"
 251              		.align	2
 252              		.set	.LANCHOR2,. + 0
 253              		.type	hs_spicfg.10988, %object
 254              		.size	hs_spicfg.10988, 12
 255              	hs_spicfg.10988:
 256 0000 00000000 		.word	0
 257 0004 00000240 		.word	1073872896
 258 0008 0F00     		.short	15
 259 000a 1000     		.short	16
 260              		.text
 261              	.Letext0:
 262              		.file 3 "/usr/lib/gcc/arm-none-eabi/9.2.1/include/stddef.h"
 263              		.file 4 "/usr/include/newlib/sys/_types.h"
 264              		.file 5 "/usr/include/newlib/sys/reent.h"
 265              		.file 6 "/usr/include/newlib/sys/lock.h"
 266              		.file 7 "/usr/include/newlib/stdlib.h"
 267              		.file 8 "/usr/lib/gcc/arm-none-eabi/9.2.1/include/stdint.h"
 268              		.file 9 ".//ChibiOS//os/rt/ports/ARMCMx/compilers/GCC/chtypes.h"
 269              		.file 10 ".//ChibiOS//os/rt/include/chsystypes.h"
 270              		.file 11 ".//ChibiOS//os/rt/include/chschd.h"
 271              		.file 12 ".//ChibiOS//os/ext/CMSIS/include/core_cm4.h"
ARM GAS  /tmp/cckr9U5t.s 			page 6


 272              		.file 13 ".//ChibiOS//os/ext/CMSIS/ST/system_stm32f4xx.h"
 273              		.file 14 ".//ChibiOS//os/ext/CMSIS/ST/stm32f407xx.h"
 274              		.file 15 ".//ChibiOS//os/rt/ports/ARMCMx/chcore.h"
 275              		.file 16 ".//ChibiOS//os/rt/ports/ARMCMx/chcore_v7m.h"
 276              		.file 17 ".//ChibiOS//os/rt/include/chdebug.h"
 277              		.file 18 ".//ChibiOS//os/rt/include/chtm.h"
 278              		.file 19 ".//ChibiOS//os/rt/include/chstats.h"
 279              		.file 20 ".//ChibiOS//os/rt/include/chsem.h"
 280              		.file 21 ".//ChibiOS//os/rt/include/chmtx.h"
 281              		.file 22 ".//ChibiOS//os/rt/include/chevents.h"
 282              		.file 23 ".//ChibiOS//os/rt/include/chqueues.h"
 283              		.file 24 ".//ChibiOS//os/hal/ports/STM32/STM32F4xx/stm32_dma.h"
 284              		.file 25 ".//ChibiOS//os/hal/include/hal_ioblock.h"
 285              		.file 26 ".//ChibiOS//os/hal/ports/STM32/LLD/GPIOv2/pal_lld.h"
 286              		.file 27 ".//ChibiOS//os/hal/include/adc.h"
 287              		.file 28 ".//ChibiOS//os/hal/ports/STM32/STM32F4xx/adc_lld.h"
 288              		.file 29 ".//ChibiOS//os/hal/include/can.h"
 289              		.file 30 ".//ChibiOS//os/hal/ports/STM32/LLD/can_lld.h"
 290              		.file 31 ".//ChibiOS//os/hal/include/dac.h"
 291              		.file 32 ".//ChibiOS//os/hal/ports/STM32/LLD/DACv1/dac_lld.h"
 292              		.file 33 ".//ChibiOS//os/hal/include/ext.h"
 293              		.file 34 ".//ChibiOS//os/hal/ports/STM32/LLD/ext_lld.h"
 294              		.file 35 ".//ChibiOS//os/hal/include/gpt.h"
 295              		.file 36 ".//ChibiOS//os/hal/ports/STM32/LLD/TIMv1/gpt_lld.h"
 296              		.file 37 ".//ChibiOS//os/hal/ports/STM32/LLD/TIMv1/stm32_tim.h"
 297              		.file 38 ".//ChibiOS//os/hal/include/i2c.h"
 298              		.file 39 ".//ChibiOS//os/hal/ports/STM32/LLD/I2Cv1/i2c_lld.h"
 299              		.file 40 ".//ChibiOS//os/hal/include/i2s.h"
 300              		.file 41 ".//ChibiOS//os/hal/ports/STM32/LLD/SPIv1/i2s_lld.h"
 301              		.file 42 ".//ChibiOS//os/hal/include/pwm.h"
 302              		.file 43 ".//ChibiOS//os/hal/ports/STM32/LLD/TIMv1/pwm_lld.h"
 303              		.file 44 ".//ChibiOS//os/hal/include/serial.h"
 304              		.file 45 ".//ChibiOS//os/hal/ports/STM32/LLD/USARTv1/serial_lld.h"
 305              		.file 46 ".//ChibiOS//os/hal/include/sdc.h"
 306              		.file 47 ".//ChibiOS//os/hal/ports/STM32/LLD/sdc_lld.h"
 307              		.file 48 ".//ChibiOS//os/hal/include/spi.h"
 308              		.file 49 ".//ChibiOS//os/hal/ports/STM32/LLD/SPIv1/spi_lld.h"
 309              		.file 50 ".//ChibiOS//os/hal/include/usb.h"
 310              		.file 51 ".//ChibiOS//os/hal/ports/STM32/LLD/OTGv1/usb_lld.h"
 311              		.file 52 ".//ChibiOS//os/hal/ports/STM32/LLD/OTGv1/stm32_otg.h"
 312              		.file 53 ".//ChibiOS_ext/os/hal/include/../ports/STM32/STM32F4xx/dcmi_lld.h"
 313              		.file 54 ".//ChibiOS//os/rt/include/chthreads.h"
 314              		.file 55 ".//src/leds.h"
 315              		.file 56 ".//src/button.h"
 316              		.file 57 ".//src/camera/dcmi_camera.h"