ARM GAS  /tmp/ccPU9iWP.s 			page 1


   1              		.cpu cortex-m4
   2              		.eabi_attribute 27, 1
   3              		.eabi_attribute 28, 1
   4              		.eabi_attribute 20, 1
   5              		.eabi_attribute 21, 1
   6              		.eabi_attribute 23, 3
   7              		.eabi_attribute 24, 1
   8              		.eabi_attribute 25, 1
   9              		.eabi_attribute 26, 1
  10              		.eabi_attribute 30, 2
  11              		.eabi_attribute 34, 1
  12              		.eabi_attribute 18, 4
  13              		.file	"st.c"
  14              		.text
  15              	.Ltext0:
  16              		.cfi_sections	.debug_frame
  17              		.section	.rodata.stInit.cst4,"aM",%progbits,4
  18              		.align	2
  19              	.LC0:
  20 0000 00000000 		.word	__stack_chk_guard
  21              		.section	.text.stInit,"ax",%progbits
  22              		.align	1
  23              		.p2align 4,,15
  24              		.global	stInit
  25              		.arch armv7e-m
  26              		.syntax unified
  27              		.thumb
  28              		.thumb_func
  29              		.fpu fpv4-sp-d16
  30              		.type	stInit, %function
  31              	stInit:
  32              	.LFB256:
  33              		.file 1 ".//ChibiOS//os/hal/src/st.c"
  34              		.loc 1 60 19 view -0
  35              		.cfi_startproc
  36              		@ args = 0, pretend = 0, frame = 8
  37              		@ frame_needed = 0, uses_anonymous_args = 0
  38 0000 00B5     		push	{lr}
  39              		.cfi_def_cfa_offset 4
  40              		.cfi_offset 14, -4
  41 0002 094B     		ldr	r3, .L7
  42 0004 83B0     		sub	sp, sp, #12
  43              		.cfi_def_cfa_offset 16
  44              		.loc 1 60 19 is_stmt 0 view .LVU1
  45 0006 1B68     		ldr	r3, [r3]
  46 0008 0193     		str	r3, [sp, #4]
  47 000a 4FF00003 		mov	r3,#0
  48              		.loc 1 62 3 is_stmt 1 view .LVU2
  49 000e 064B     		ldr	r3, .L7
  50 0010 1A68     		ldr	r2, [r3]
  51 0012 019B     		ldr	r3, [sp, #4]
  52 0014 5A40     		eors	r2, r3, r2
  53 0016 04D1     		bne	.L6
  54              		.loc 1 63 1 is_stmt 0 view .LVU3
  55 0018 03B0     		add	sp, sp, #12
  56              		.cfi_remember_state
  57              		.cfi_def_cfa_offset 4
ARM GAS  /tmp/ccPU9iWP.s 			page 2


  58              		@ sp needed
  59 001a 5DF804EB 		ldr	lr, [sp], #4
  60              		.cfi_restore 14
  61              		.cfi_def_cfa_offset 0
  62              		.loc 1 62 3 view .LVU4
  63 001e FFF7FEBF 		b	st_lld_init
  64              	.LVL0:
  65              	.L6:
  66              		.cfi_restore_state
  67 0022 FFF7FEFF 		bl	__stack_chk_fail
  68              	.LVL1:
  69              	.L8:
  70 0026 00BF     		.align	2
  71              	.L7:
  72 0028 00000000 		.word	.LC0
  73              		.cfi_endproc
  74              	.LFE256:
  75              		.size	stInit, .-stInit
  76              		.section	.rodata.stStartAlarm.cst4,"aM",%progbits,4
  77              		.align	2
  78              	.LC1:
  79 0000 00000000 		.word	__stack_chk_guard
  80              		.section	.text.stStartAlarm,"ax",%progbits
  81              		.align	1
  82              		.p2align 4,,15
  83              		.global	stStartAlarm
  84              		.syntax unified
  85              		.thumb
  86              		.thumb_func
  87              		.fpu fpv4-sp-d16
  88              		.type	stStartAlarm, %function
  89              	stStartAlarm:
  90              	.LVL2:
  91              	.LFB257:
  92              		.loc 1 77 38 is_stmt 1 view -0
  93              		.cfi_startproc
  94              		@ args = 0, pretend = 0, frame = 8
  95              		@ frame_needed = 0, uses_anonymous_args = 0
  96              		.loc 1 77 38 is_stmt 0 view .LVU6
  97 0000 10B5     		push	{r4, lr}
  98              		.cfi_def_cfa_offset 8
  99              		.cfi_offset 4, -8
 100              		.cfi_offset 14, -4
 101 0002 104A     		ldr	r2, .L18
 102 0004 82B0     		sub	sp, sp, #8
 103              		.cfi_def_cfa_offset 16
 104              	.LBB16:
 105              	.LBB17:
 106              		.file 2 ".//ChibiOS//os/hal/ports/STM32/LLD/TIMv1/st_lld.h"
 107              		.loc 2 193 30 view .LVU7
 108 0006 4FF08043 		mov	r3, #1073741824
 109              	.LBE17:
 110              	.LBE16:
 111              		.loc 1 77 38 view .LVU8
 112 000a 1268     		ldr	r2, [r2]
 113 000c 0192     		str	r2, [sp, #4]
 114 000e 4FF00002 		mov	r2,#0
ARM GAS  /tmp/ccPU9iWP.s 			page 3


 115              		.loc 1 79 3 is_stmt 1 view .LVU9
 116              		.loc 1 79 3 view .LVU10
 117              		.loc 1 79 3 view .LVU11
 118              	.LBB20:
 119              	.LBI16:
 120              		.loc 2 191 20 view .LVU12
 121              	.LBB18:
 122              		.loc 2 193 3 view .LVU13
 123              	.LBE18:
 124              	.LBE20:
 125              		.loc 1 77 38 is_stmt 0 view .LVU14
 126 0012 0446     		mov	r4, r0
 127              	.LBB21:
 128              	.LBB19:
 129              		.loc 2 193 30 view .LVU15
 130 0014 DB68     		ldr	r3, [r3, #12]
 131              	.LBE19:
 132              	.LBE21:
 133              		.loc 1 79 3 view .LVU16
 134 0016 9B07     		lsls	r3, r3, #30
 135 0018 0DD4     		bmi	.L16
 136              	.LVL3:
 137              	.L10:
 138              		.loc 1 79 3 is_stmt 1 discriminator 5 view .LVU17
 139              		.loc 1 81 3 discriminator 5 view .LVU18
 140              	.LBB22:
 141              	.LBI22:
 142              		.loc 2 141 20 discriminator 5 view .LVU19
 143              	.LBB23:
 144              		.loc 2 143 3 discriminator 5 view .LVU20
 145              		.loc 2 143 24 is_stmt 0 discriminator 5 view .LVU21
 146 001a 4FF08043 		mov	r3, #1073741824
 147              		.loc 2 145 24 discriminator 5 view .LVU22
 148 001e 0222     		movs	r2, #2
 149              		.loc 2 144 24 discriminator 5 view .LVU23
 150 0020 0021     		movs	r1, #0
 151              		.loc 2 143 24 discriminator 5 view .LVU24
 152 0022 5C63     		str	r4, [r3, #52]
 153              		.loc 2 144 3 is_stmt 1 discriminator 5 view .LVU25
 154              		.loc 2 144 24 is_stmt 0 discriminator 5 view .LVU26
 155 0024 1961     		str	r1, [r3, #16]
 156              		.loc 2 145 3 is_stmt 1 discriminator 5 view .LVU27
 157              		.loc 2 145 24 is_stmt 0 discriminator 5 view .LVU28
 158 0026 DA60     		str	r2, [r3, #12]
 159              	.LVL4:
 160              		.loc 2 145 24 discriminator 5 view .LVU29
 161              	.LBE23:
 162              	.LBE22:
 163              		.loc 1 82 1 discriminator 5 view .LVU30
 164 0028 064B     		ldr	r3, .L18
 165 002a 1A68     		ldr	r2, [r3]
 166 002c 019B     		ldr	r3, [sp, #4]
 167 002e 5A40     		eors	r2, r3, r2
 168 0030 05D1     		bne	.L17
 169              		.loc 1 82 1 view .LVU31
 170 0032 02B0     		add	sp, sp, #8
 171              		.cfi_remember_state
ARM GAS  /tmp/ccPU9iWP.s 			page 4


 172              		.cfi_def_cfa_offset 8
 173              		@ sp needed
 174 0034 10BD     		pop	{r4, pc}
 175              	.LVL5:
 176              	.L16:
 177              		.cfi_restore_state
 178              		.loc 1 79 3 is_stmt 1 discriminator 3 view .LVU32
 179 0036 0448     		ldr	r0, .L18+4
 180              	.LVL6:
 181              		.loc 1 79 3 is_stmt 0 discriminator 3 view .LVU33
 182 0038 FFF7FEFF 		bl	chSysHalt
 183              	.LVL7:
 184 003c EDE7     		b	.L10
 185              	.L17:
 186              		.loc 1 82 1 view .LVU34
 187 003e FFF7FEFF 		bl	__stack_chk_fail
 188              	.LVL8:
 189              	.L19:
 190 0042 00BF     		.align	2
 191              	.L18:
 192 0044 00000000 		.word	.LC1
 193 0048 00000000 		.word	.LANCHOR0
 194              		.cfi_endproc
 195              	.LFE257:
 196              		.size	stStartAlarm, .-stStartAlarm
 197              		.section	.rodata.stStopAlarm.cst4,"aM",%progbits,4
 198              		.align	2
 199              	.LC2:
 200 0000 00000000 		.word	__stack_chk_guard
 201              		.section	.text.stStopAlarm,"ax",%progbits
 202              		.align	1
 203              		.p2align 4,,15
 204              		.global	stStopAlarm
 205              		.syntax unified
 206              		.thumb
 207              		.thumb_func
 208              		.fpu fpv4-sp-d16
 209              		.type	stStopAlarm, %function
 210              	stStopAlarm:
 211              	.LFB258:
 212              		.loc 1 91 24 is_stmt 1 view -0
 213              		.cfi_startproc
 214              		@ args = 0, pretend = 0, frame = 8
 215              		@ frame_needed = 0, uses_anonymous_args = 0
 216 0000 00B5     		push	{lr}
 217              		.cfi_def_cfa_offset 4
 218              		.cfi_offset 14, -4
 219              	.LBB24:
 220              	.LBB25:
 221              		.loc 2 155 22 is_stmt 0 view .LVU36
 222 0002 4FF08043 		mov	r3, #1073741824
 223              	.LBE25:
 224              	.LBE24:
 225              		.loc 1 91 24 view .LVU37
 226 0006 0949     		ldr	r1, .L24
 227 0008 83B0     		sub	sp, sp, #12
 228              		.cfi_def_cfa_offset 16
ARM GAS  /tmp/ccPU9iWP.s 			page 5


 229              	.LBB28:
 230              	.LBB26:
 231              		.loc 2 155 22 view .LVU38
 232 000a 0022     		movs	r2, #0
 233              	.LBE26:
 234              	.LBE28:
 235              		.loc 1 91 24 view .LVU39
 236 000c 0968     		ldr	r1, [r1]
 237 000e 0191     		str	r1, [sp, #4]
 238 0010 4FF00001 		mov	r1,#0
 239              		.loc 1 93 3 is_stmt 1 view .LVU40
 240              	.LBB29:
 241              	.LBI24:
 242              		.loc 2 153 20 view .LVU41
 243              	.LBB27:
 244              		.loc 2 155 3 view .LVU42
 245              		.loc 2 155 22 is_stmt 0 view .LVU43
 246 0014 DA60     		str	r2, [r3, #12]
 247              	.LBE27:
 248              	.LBE29:
 249              		.loc 1 94 1 view .LVU44
 250 0016 054B     		ldr	r3, .L24
 251 0018 1A68     		ldr	r2, [r3]
 252 001a 019B     		ldr	r3, [sp, #4]
 253 001c 5A40     		eors	r2, r3, r2
 254 001e 02D1     		bne	.L23
 255 0020 03B0     		add	sp, sp, #12
 256              		.cfi_remember_state
 257              		.cfi_def_cfa_offset 4
 258              		@ sp needed
 259 0022 5DF804FB 		ldr	pc, [sp], #4
 260              	.L23:
 261              		.cfi_restore_state
 262 0026 FFF7FEFF 		bl	__stack_chk_fail
 263              	.LVL9:
 264              	.L25:
 265 002a 00BF     		.align	2
 266              	.L24:
 267 002c 00000000 		.word	.LC2
 268              		.cfi_endproc
 269              	.LFE258:
 270              		.size	stStopAlarm, .-stStopAlarm
 271              		.section	.rodata.stSetAlarm.cst4,"aM",%progbits,4
 272              		.align	2
 273              	.LC3:
 274 0000 00000000 		.word	__stack_chk_guard
 275              		.section	.text.stSetAlarm,"ax",%progbits
 276              		.align	1
 277              		.p2align 4,,15
 278              		.global	stSetAlarm
 279              		.syntax unified
 280              		.thumb
 281              		.thumb_func
 282              		.fpu fpv4-sp-d16
 283              		.type	stSetAlarm, %function
 284              	stSetAlarm:
 285              	.LVL10:
ARM GAS  /tmp/ccPU9iWP.s 			page 6


 286              	.LFB259:
 287              		.loc 1 105 36 is_stmt 1 view -0
 288              		.cfi_startproc
 289              		@ args = 0, pretend = 0, frame = 8
 290              		@ frame_needed = 0, uses_anonymous_args = 0
 291              		.loc 1 105 36 is_stmt 0 view .LVU46
 292 0000 10B5     		push	{r4, lr}
 293              		.cfi_def_cfa_offset 8
 294              		.cfi_offset 4, -8
 295              		.cfi_offset 14, -4
 296 0002 0E4A     		ldr	r2, .L32
 297 0004 82B0     		sub	sp, sp, #8
 298              		.cfi_def_cfa_offset 16
 299              	.LBB30:
 300              	.LBB31:
 301              		.loc 2 193 30 view .LVU47
 302 0006 4FF08043 		mov	r3, #1073741824
 303              	.LBE31:
 304              	.LBE30:
 305              		.loc 1 105 36 view .LVU48
 306 000a 1268     		ldr	r2, [r2]
 307 000c 0192     		str	r2, [sp, #4]
 308 000e 4FF00002 		mov	r2,#0
 309              		.loc 1 107 3 is_stmt 1 view .LVU49
 310              		.loc 1 107 3 view .LVU50
 311              		.loc 1 107 3 view .LVU51
 312              	.LBB34:
 313              	.LBI30:
 314              		.loc 2 191 20 view .LVU52
 315              	.LBB32:
 316              		.loc 2 193 3 view .LVU53
 317              	.LBE32:
 318              	.LBE34:
 319              		.loc 1 105 36 is_stmt 0 view .LVU54
 320 0012 0446     		mov	r4, r0
 321              	.LBB35:
 322              	.LBB33:
 323              		.loc 2 193 30 view .LVU55
 324 0014 DB68     		ldr	r3, [r3, #12]
 325              	.LBE33:
 326              	.LBE35:
 327              		.loc 1 107 3 view .LVU56
 328 0016 9B07     		lsls	r3, r3, #30
 329 0018 09D5     		bpl	.L30
 330              	.LVL11:
 331              	.L27:
 332              		.loc 1 107 3 is_stmt 1 discriminator 5 view .LVU57
 333              		.loc 1 109 3 discriminator 5 view .LVU58
 334              	.LBB36:
 335              	.LBI36:
 336              		.loc 2 165 20 discriminator 5 view .LVU59
 337              	.LBB37:
 338              		.loc 2 167 3 discriminator 5 view .LVU60
 339              		.loc 2 167 24 is_stmt 0 discriminator 5 view .LVU61
 340 001a 4FF08043 		mov	r3, #1073741824
 341 001e 5C63     		str	r4, [r3, #52]
 342              	.LVL12:
ARM GAS  /tmp/ccPU9iWP.s 			page 7


 343              		.loc 2 167 24 discriminator 5 view .LVU62
 344              	.LBE37:
 345              	.LBE36:
 346              		.loc 1 110 1 discriminator 5 view .LVU63
 347 0020 064B     		ldr	r3, .L32
 348 0022 1A68     		ldr	r2, [r3]
 349 0024 019B     		ldr	r3, [sp, #4]
 350 0026 5A40     		eors	r2, r3, r2
 351 0028 05D1     		bne	.L31
 352              		.loc 1 110 1 view .LVU64
 353 002a 02B0     		add	sp, sp, #8
 354              		.cfi_remember_state
 355              		.cfi_def_cfa_offset 8
 356              		@ sp needed
 357 002c 10BD     		pop	{r4, pc}
 358              	.LVL13:
 359              	.L30:
 360              		.cfi_restore_state
 361              		.loc 1 107 3 is_stmt 1 discriminator 3 view .LVU65
 362 002e 0448     		ldr	r0, .L32+4
 363              	.LVL14:
 364              		.loc 1 107 3 is_stmt 0 discriminator 3 view .LVU66
 365 0030 FFF7FEFF 		bl	chSysHalt
 366              	.LVL15:
 367 0034 F1E7     		b	.L27
 368              	.L31:
 369              		.loc 1 110 1 view .LVU67
 370 0036 FFF7FEFF 		bl	__stack_chk_fail
 371              	.LVL16:
 372              	.L33:
 373 003a 00BF     		.align	2
 374              	.L32:
 375 003c 00000000 		.word	.LC3
 376 0040 00000000 		.word	.LANCHOR1
 377              		.cfi_endproc
 378              	.LFE259:
 379              		.size	stSetAlarm, .-stSetAlarm
 380              		.section	.rodata.stGetAlarm.cst4,"aM",%progbits,4
 381              		.align	2
 382              	.LC4:
 383 0000 00000000 		.word	__stack_chk_guard
 384              		.section	.text.stGetAlarm,"ax",%progbits
 385              		.align	1
 386              		.p2align 4,,15
 387              		.global	stGetAlarm
 388              		.syntax unified
 389              		.thumb
 390              		.thumb_func
 391              		.fpu fpv4-sp-d16
 392              		.type	stGetAlarm, %function
 393              	stGetAlarm:
 394              	.LFB260:
 395              		.loc 1 121 28 is_stmt 1 view -0
 396              		.cfi_startproc
 397              		@ args = 0, pretend = 0, frame = 8
 398              		@ frame_needed = 0, uses_anonymous_args = 0
 399 0000 00B5     		push	{lr}
ARM GAS  /tmp/ccPU9iWP.s 			page 8


 400              		.cfi_def_cfa_offset 4
 401              		.cfi_offset 14, -4
 402 0002 0E4A     		ldr	r2, .L40
 403 0004 83B0     		sub	sp, sp, #12
 404              		.cfi_def_cfa_offset 16
 405              	.LBB38:
 406              	.LBB39:
 407              		.loc 2 193 30 is_stmt 0 view .LVU69
 408 0006 4FF08043 		mov	r3, #1073741824
 409              	.LBE39:
 410              	.LBE38:
 411              		.loc 1 121 28 view .LVU70
 412 000a 1268     		ldr	r2, [r2]
 413 000c 0192     		str	r2, [sp, #4]
 414 000e 4FF00002 		mov	r2,#0
 415              		.loc 1 123 3 is_stmt 1 view .LVU71
 416              		.loc 1 123 3 view .LVU72
 417              		.loc 1 123 3 view .LVU73
 418              	.LBB41:
 419              	.LBI38:
 420              		.loc 2 191 20 view .LVU74
 421              	.LBB40:
 422              		.loc 2 193 3 view .LVU75
 423              		.loc 2 193 30 is_stmt 0 view .LVU76
 424 0012 DB68     		ldr	r3, [r3, #12]
 425              	.LBE40:
 426              	.LBE41:
 427              		.loc 1 123 3 view .LVU77
 428 0014 9B07     		lsls	r3, r3, #30
 429 0016 0AD5     		bpl	.L38
 430              	.L35:
 431              		.loc 1 123 3 is_stmt 1 discriminator 5 view .LVU78
 432              		.loc 1 125 3 discriminator 5 view .LVU79
 433              	.LBB42:
 434              	.LBI42:
 435              		.loc 2 177 25 discriminator 5 view .LVU80
 436              	.LBB43:
 437              		.loc 2 179 3 discriminator 5 view .LVU81
 438              		.loc 2 179 10 is_stmt 0 discriminator 5 view .LVU82
 439 0018 4FF08043 		mov	r3, #1073741824
 440 001c 586B     		ldr	r0, [r3, #52]
 441              	.LBE43:
 442              	.LBE42:
 443              		.loc 1 126 1 discriminator 5 view .LVU83
 444 001e 074B     		ldr	r3, .L40
 445 0020 1A68     		ldr	r2, [r3]
 446 0022 019B     		ldr	r3, [sp, #4]
 447 0024 5A40     		eors	r2, r3, r2
 448 0026 06D1     		bne	.L39
 449              		.loc 1 126 1 view .LVU84
 450 0028 03B0     		add	sp, sp, #12
 451              		.cfi_remember_state
 452              		.cfi_def_cfa_offset 4
 453              		@ sp needed
 454 002a 5DF804FB 		ldr	pc, [sp], #4
 455              	.L38:
 456              		.cfi_restore_state
ARM GAS  /tmp/ccPU9iWP.s 			page 9


 457              		.loc 1 123 3 is_stmt 1 discriminator 3 view .LVU85
 458 002e 0448     		ldr	r0, .L40+4
 459 0030 FFF7FEFF 		bl	chSysHalt
 460              	.LVL17:
 461 0034 F0E7     		b	.L35
 462              	.L39:
 463              		.loc 1 126 1 is_stmt 0 view .LVU86
 464 0036 FFF7FEFF 		bl	__stack_chk_fail
 465              	.LVL18:
 466              	.L41:
 467 003a 00BF     		.align	2
 468              	.L40:
 469 003c 00000000 		.word	.LC4
 470 0040 00000000 		.word	.LANCHOR2
 471              		.cfi_endproc
 472              	.LFE260:
 473              		.size	stGetAlarm, .-stGetAlarm
 474              		.section	.rodata.__func__.9952,"a"
 475              		.align	2
 476              		.set	.LANCHOR0,. + 0
 477              		.type	__func__.9952, %object
 478              		.size	__func__.9952, 13
 479              	__func__.9952:
 480 0000 73745374 		.ascii	"stStartAlarm\000"
 480      61727441 
 480      6C61726D 
 480      00
 481              		.section	.rodata.__func__.9959,"a"
 482              		.align	2
 483              		.set	.LANCHOR1,. + 0
 484              		.type	__func__.9959, %object
 485              		.size	__func__.9959, 11
 486              	__func__.9959:
 487 0000 73745365 		.ascii	"stSetAlarm\000"
 487      74416C61 
 487      726D00
 488              		.section	.rodata.__func__.9963,"a"
 489              		.align	2
 490              		.set	.LANCHOR2,. + 0
 491              		.type	__func__.9963, %object
 492              		.size	__func__.9963, 11
 493              	__func__.9963:
 494 0000 73744765 		.ascii	"stGetAlarm\000"
 494      74416C61 
 494      726D00
 495              		.text
 496              	.Letext0:
 497              		.file 3 "/usr/lib/gcc/arm-none-eabi/9.2.1/include/stddef.h"
 498              		.file 4 "/usr/lib/gcc/arm-none-eabi/9.2.1/include/stdint.h"
 499              		.file 5 ".//ChibiOS//os/rt/ports/ARMCMx/compilers/GCC/chtypes.h"
 500              		.file 6 ".//ChibiOS//os/rt/include/chsystypes.h"
 501              		.file 7 ".//ChibiOS//os/rt/include/chschd.h"
 502              		.file 8 ".//ChibiOS//os/ext/CMSIS/include/core_cm4.h"
 503              		.file 9 ".//ChibiOS//os/ext/CMSIS/ST/system_stm32f4xx.h"
 504              		.file 10 ".//ChibiOS//os/ext/CMSIS/ST/stm32f407xx.h"
 505              		.file 11 ".//ChibiOS//os/rt/ports/ARMCMx/chcore.h"
 506              		.file 12 ".//ChibiOS//os/rt/ports/ARMCMx/chcore_v7m.h"
ARM GAS  /tmp/ccPU9iWP.s 			page 10


 507              		.file 13 ".//ChibiOS//os/rt/include/chdebug.h"
 508              		.file 14 ".//ChibiOS//os/rt/include/chtm.h"
 509              		.file 15 ".//ChibiOS//os/rt/include/chstats.h"
 510              		.file 16 ".//ChibiOS//os/rt/include/chsem.h"
 511              		.file 17 ".//ChibiOS//os/rt/include/chmtx.h"
 512              		.file 18 ".//ChibiOS//os/rt/include/chregistry.h"
 513              		.file 19 ".//ChibiOS//os/rt/include/chevents.h"
 514              		.file 20 ".//ChibiOS//os/rt/include/chqueues.h"
 515              		.file 21 ".//ChibiOS//os/hal/ports/STM32/STM32F4xx/stm32_dma.h"
 516              		.file 22 ".//ChibiOS//os/hal/include/hal_ioblock.h"
 517              		.file 23 ".//ChibiOS//os/hal/ports/STM32/LLD/GPIOv2/pal_lld.h"
 518              		.file 24 ".//ChibiOS//os/hal/include/adc.h"
 519              		.file 25 ".//ChibiOS//os/hal/ports/STM32/STM32F4xx/adc_lld.h"
 520              		.file 26 ".//ChibiOS//os/hal/include/can.h"
 521              		.file 27 ".//ChibiOS//os/hal/ports/STM32/LLD/can_lld.h"
 522              		.file 28 ".//ChibiOS//os/hal/include/dac.h"
 523              		.file 29 ".//ChibiOS//os/hal/ports/STM32/LLD/DACv1/dac_lld.h"
 524              		.file 30 ".//ChibiOS//os/hal/include/ext.h"
 525              		.file 31 ".//ChibiOS//os/hal/ports/STM32/LLD/ext_lld.h"
 526              		.file 32 ".//ChibiOS//os/hal/include/gpt.h"
 527              		.file 33 ".//ChibiOS//os/hal/ports/STM32/LLD/TIMv1/gpt_lld.h"
 528              		.file 34 ".//ChibiOS//os/hal/ports/STM32/LLD/TIMv1/stm32_tim.h"
 529              		.file 35 ".//ChibiOS//os/hal/include/i2c.h"
 530              		.file 36 ".//ChibiOS//os/hal/ports/STM32/LLD/I2Cv1/i2c_lld.h"
 531              		.file 37 ".//ChibiOS//os/hal/include/i2s.h"
 532              		.file 38 ".//ChibiOS//os/hal/ports/STM32/LLD/SPIv1/i2s_lld.h"
 533              		.file 39 ".//ChibiOS//os/hal/include/pwm.h"
 534              		.file 40 ".//ChibiOS//os/hal/ports/STM32/LLD/TIMv1/pwm_lld.h"
 535              		.file 41 ".//ChibiOS//os/hal/include/serial.h"
 536              		.file 42 ".//ChibiOS//os/hal/ports/STM32/LLD/USARTv1/serial_lld.h"
 537              		.file 43 ".//ChibiOS//os/hal/include/sdc.h"
 538              		.file 44 ".//ChibiOS//os/hal/ports/STM32/LLD/sdc_lld.h"
 539              		.file 45 ".//ChibiOS//os/hal/include/spi.h"
 540              		.file 46 ".//ChibiOS//os/hal/ports/STM32/LLD/SPIv1/spi_lld.h"
 541              		.file 47 ".//ChibiOS//os/hal/include/usb.h"
 542              		.file 48 ".//ChibiOS//os/hal/ports/STM32/LLD/OTGv1/usb_lld.h"
 543              		.file 49 ".//ChibiOS//os/hal/ports/STM32/LLD/OTGv1/stm32_otg.h"
 544              		.file 50 ".//ChibiOS//os/rt/include/chsys.h"