ARM GAS  /tmp/ccRuYz8u.s 			page 1


   1              		.cpu cortex-m4
   2              		.eabi_attribute 27, 1
   3              		.eabi_attribute 28, 1
   4              		.eabi_attribute 20, 1
   5              		.eabi_attribute 21, 1
   6              		.eabi_attribute 23, 3
   7              		.eabi_attribute 24, 1
   8              		.eabi_attribute 25, 1
   9              		.eabi_attribute 26, 1
  10              		.eabi_attribute 30, 2
  11              		.eabi_attribute 34, 1
  12              		.eabi_attribute 18, 4
  13              		.file	"st_lld.c"
  14              		.text
  15              	.Ltext0:
  16              		.cfi_sections	.debug_frame
  17              		.section	.rodata.SysTick_Handler.cst4,"aM",%progbits,4
  18              		.align	2
  19              	.LC0:
  20 0000 00000000 		.word	__stack_chk_guard
  21              		.section	.text.SysTick_Handler,"ax",%progbits
  22              		.align	1
  23              		.p2align 4,,15
  24              		.global	SysTick_Handler
  25              		.arch armv7e-m
  26              		.syntax unified
  27              		.thumb
  28              		.thumb_func
  29              		.fpu fpv4-sp-d16
  30              		.type	SysTick_Handler, %function
  31              	SysTick_Handler:
  32              	.LFB256:
  33              		.file 1 ".//ChibiOS//os/hal/ports/STM32/LLD/TIMv1/st_lld.c"
  34              		.loc 1 154 35 view -0
  35              		.cfi_startproc
  36              		@ args = 0, pretend = 0, frame = 8
  37              		@ frame_needed = 0, uses_anonymous_args = 0
  38 0000 00B5     		push	{lr}
  39              		.cfi_def_cfa_offset 4
  40              		.cfi_offset 14, -4
  41 0002 144B     		ldr	r3, .L7
  42 0004 83B0     		sub	sp, sp, #12
  43              		.cfi_def_cfa_offset 16
  44              		.loc 1 154 35 is_stmt 0 view .LVU1
  45 0006 1B68     		ldr	r3, [r3]
  46 0008 0193     		str	r3, [sp, #4]
  47 000a 4FF00003 		mov	r3,#0
  48              		.loc 1 156 3 is_stmt 1 view .LVU2
  49              		.loc 1 156 3 view .LVU3
  50 000e FFF7FEFF 		bl	_stats_increase_irq
  51              	.LVL0:
  52              		.loc 1 156 3 view .LVU4
  53 0012 FFF7FEFF 		bl	_dbg_check_enter_isr
  54              	.LVL1:
  55              		.loc 1 158 3 view .LVU5
  56              	.LBB54:
  57              	.LBI54:
ARM GAS  /tmp/ccRuYz8u.s 			page 2


  58              		.file 2 ".//ChibiOS//os/hal/osal/rt/osal.h"
  59              		.loc 2 467 20 view .LVU6
  60              	.LBE54:
  61              		.loc 2 469 3 view .LVU7
  62              	.LBB68:
  63              	.LBB55:
  64              	.LBI55:
  65              		.file 3 ".//ChibiOS//os/rt/include/chsys.h"
  66              		.loc 3 386 20 view .LVU8
  67              	.LBB56:
  68              		.loc 3 388 3 view .LVU9
  69              	.LBB57:
  70              	.LBI57:
  71              		.file 4 ".//ChibiOS//os/rt/ports/ARMCMx/chcore_v7m.h"
  72              		.loc 4 473 20 view .LVU10
  73              	.LBE57:
  74              	.LBE56:
  75              	.LBE55:
  76              	.LBE68:
  77              		.loc 4 475 3 view .LVU11
  78              	.LBB69:
  79              	.LBB66:
  80              	.LBB64:
  81              	.LBB62:
  82              	.LBB58:
  83              	.LBI58:
  84              		.loc 4 444 20 view .LVU12
  85              	.LBE58:
  86              	.LBE62:
  87              	.LBE64:
  88              	.LBE66:
  89              	.LBE69:
  90              		.loc 4 447 3 view .LVU13
  91              	.LBB70:
  92              	.LBB67:
  93              	.LBB65:
  94              	.LBB63:
  95              	.LBB61:
  96              	.LBB59:
  97              	.LBI59:
  98              		.file 5 ".//ChibiOS//os/ext/CMSIS/include/core_cmFunc.h"
  99              		.loc 5 544 57 view .LVU14
 100              	.LBB60:
 101              		.loc 5 546 3 view .LVU15
 102 0016 2023     		movs	r3, #32
 103              		.syntax unified
 104              	@ 546 ".//ChibiOS//os/ext/CMSIS/include/core_cmFunc.h" 1
 105 0018 83F31188 		MSR basepri, r3
 106              	@ 0 "" 2
 107              	.LVL2:
 108              		.loc 5 546 3 is_stmt 0 view .LVU16
 109              		.thumb
 110              		.syntax unified
 111              	.LBE60:
 112              	.LBE59:
 113              	.LBE61:
 114              	.LBE63:
ARM GAS  /tmp/ccRuYz8u.s 			page 3


 115              		.loc 3 389 3 is_stmt 1 view .LVU17
 116 001c FFF7FEFF 		bl	_stats_start_measure_crit_isr
 117              	.LVL3:
 118              		.loc 3 390 3 view .LVU18
 119 0020 FFF7FEFF 		bl	_dbg_check_lock_from_isr
 120              	.LVL4:
 121              	.LBE65:
 122              	.LBE67:
 123              	.LBE70:
 124              		.loc 1 159 3 view .LVU19
 125              	.LBB71:
 126              	.LBI71:
 127              		.loc 2 537 20 view .LVU20
 128              	.LBB72:
 129              		.loc 2 539 3 view .LVU21
 130 0024 FFF7FEFF 		bl	chSysTimerHandlerI
 131              	.LVL5:
 132              	.LBE72:
 133              	.LBE71:
 134              		.loc 1 160 3 view .LVU22
 135              	.LBB73:
 136              	.LBI73:
 137              		.loc 2 478 20 view .LVU23
 138              	.LBE73:
 139              		.loc 2 480 3 view .LVU24
 140              	.LBB87:
 141              	.LBB74:
 142              	.LBI74:
 143              		.loc 3 406 20 view .LVU25
 144              	.LBB75:
 145              		.loc 3 408 3 view .LVU26
 146 0028 FFF7FEFF 		bl	_dbg_check_unlock_from_isr
 147              	.LVL6:
 148              		.loc 3 409 3 view .LVU27
 149 002c FFF7FEFF 		bl	_stats_stop_measure_crit_isr
 150              	.LVL7:
 151              		.loc 3 410 3 view .LVU28
 152              	.LBB76:
 153              	.LBI76:
 154              		.loc 4 484 20 view .LVU29
 155              	.LBE76:
 156              	.LBE75:
 157              	.LBE74:
 158              	.LBE87:
 159              		.loc 4 486 3 view .LVU30
 160              	.LBB88:
 161              	.LBB85:
 162              	.LBB83:
 163              	.LBB81:
 164              	.LBB77:
 165              	.LBI77:
 166              		.loc 4 458 20 view .LVU31
 167              	.LBE77:
 168              	.LBE81:
 169              	.LBE83:
 170              	.LBE85:
 171              	.LBE88:
ARM GAS  /tmp/ccRuYz8u.s 			page 4


 172              		.loc 4 461 3 view .LVU32
 173              	.LBB89:
 174              	.LBB86:
 175              	.LBB84:
 176              	.LBB82:
 177              	.LBB80:
 178              	.LBB78:
 179              	.LBI78:
 180              		.loc 5 544 57 view .LVU33
 181              	.LBB79:
 182              		.loc 5 546 3 view .LVU34
 183 0030 0023     		movs	r3, #0
 184              		.syntax unified
 185              	@ 546 ".//ChibiOS//os/ext/CMSIS/include/core_cmFunc.h" 1
 186 0032 83F31188 		MSR basepri, r3
 187              	@ 0 "" 2
 188              	.LVL8:
 189              		.loc 5 546 3 is_stmt 0 view .LVU35
 190              		.thumb
 191              		.syntax unified
 192              	.LBE79:
 193              	.LBE78:
 194              	.LBE80:
 195              	.LBE82:
 196              	.LBE84:
 197              	.LBE86:
 198              	.LBE89:
 199              		.loc 1 162 3 is_stmt 1 view .LVU36
 200 0036 FFF7FEFF 		bl	_dbg_check_leave_isr
 201              	.LVL9:
 202              		.loc 1 162 3 view .LVU37
 203 003a 064B     		ldr	r3, .L7
 204 003c 1A68     		ldr	r2, [r3]
 205 003e 019B     		ldr	r3, [sp, #4]
 206 0040 5A40     		eors	r2, r3, r2
 207 0042 04D1     		bne	.L6
 208              		.loc 1 163 1 is_stmt 0 view .LVU38
 209 0044 03B0     		add	sp, sp, #12
 210              		.cfi_remember_state
 211              		.cfi_def_cfa_offset 4
 212              		@ sp needed
 213 0046 5DF804EB 		ldr	lr, [sp], #4
 214              		.cfi_restore 14
 215              		.cfi_def_cfa_offset 0
 216              		.loc 1 162 3 view .LVU39
 217 004a FFF7FEBF 		b	_port_irq_epilogue
 218              	.LVL10:
 219              	.L6:
 220              		.cfi_restore_state
 221 004e FFF7FEFF 		bl	__stack_chk_fail
 222              	.LVL11:
 223              	.L8:
 224 0052 00BF     		.align	2
 225              	.L7:
 226 0054 00000000 		.word	.LC0
 227              		.cfi_endproc
 228              	.LFE256:
ARM GAS  /tmp/ccRuYz8u.s 			page 5


 229              		.size	SysTick_Handler, .-SysTick_Handler
 230              		.section	.rodata.st_lld_init.cst4,"aM",%progbits,4
 231              		.align	2
 232              	.LC1:
 233 0000 00000000 		.word	__stack_chk_guard
 234              		.section	.text.st_lld_init,"ax",%progbits
 235              		.align	1
 236              		.p2align 4,,15
 237              		.global	st_lld_init
 238              		.syntax unified
 239              		.thumb
 240              		.thumb_func
 241              		.fpu fpv4-sp-d16
 242              		.type	st_lld_init, %function
 243              	st_lld_init:
 244              	.LFB257:
 245              		.loc 1 201 24 is_stmt 1 view -0
 246              		.cfi_startproc
 247              		@ args = 0, pretend = 0, frame = 8
 248              		@ frame_needed = 0, uses_anonymous_args = 0
 249 0000 00B5     		push	{lr}
 250              		.cfi_def_cfa_offset 4
 251              		.cfi_offset 14, -4
 252 0002 0D4A     		ldr	r2, .L14
 253              		.loc 1 229 17 is_stmt 0 view .LVU41
 254 0004 0D4B     		ldr	r3, .L14+4
 255 0006 0E48     		ldr	r0, .L14+8
 256              		.loc 1 201 24 view .LVU42
 257 0008 83B0     		sub	sp, sp, #12
 258              		.cfi_def_cfa_offset 16
 259              		.loc 1 201 24 view .LVU43
 260 000a 1268     		ldr	r2, [r2]
 261 000c 0192     		str	r2, [sp, #4]
 262 000e 4FF00002 		mov	r2,#0
 263              		.loc 1 229 3 is_stmt 1 view .LVU44
 264              		.loc 1 230 16 is_stmt 0 view .LVU45
 265 0012 0021     		movs	r1, #0
 266              		.loc 1 231 17 view .LVU46
 267 0014 0722     		movs	r2, #7
 268              		.loc 1 229 17 view .LVU47
 269 0016 5860     		str	r0, [r3, #4]
 270              		.loc 1 230 3 is_stmt 1 view .LVU48
 271              		.loc 1 230 16 is_stmt 0 view .LVU49
 272 0018 9960     		str	r1, [r3, #8]
 273              		.loc 1 231 3 is_stmt 1 view .LVU50
 274              		.loc 1 231 17 is_stmt 0 view .LVU51
 275 001a 1A60     		str	r2, [r3]
 276              		.loc 1 236 3 is_stmt 1 view .LVU52
 277 001c 064B     		ldr	r3, .L14
 278 001e 1A68     		ldr	r2, [r3]
 279 0020 019B     		ldr	r3, [sp, #4]
 280 0022 5A40     		eors	r2, r3, r2
 281 0024 06D1     		bne	.L13
 282 0026 0821     		movs	r1, #8
 283 0028 0B20     		movs	r0, #11
 284              		.loc 1 238 1 is_stmt 0 view .LVU53
 285 002a 03B0     		add	sp, sp, #12
ARM GAS  /tmp/ccRuYz8u.s 			page 6


 286              		.cfi_remember_state
 287              		.cfi_def_cfa_offset 4
 288              		@ sp needed
 289 002c 5DF804EB 		ldr	lr, [sp], #4
 290              		.cfi_restore 14
 291              		.cfi_def_cfa_offset 0
 292              		.loc 1 236 3 view .LVU54
 293 0030 FFF7FEBF 		b	nvicSetSystemHandlerPriority
 294              	.LVL12:
 295              	.L13:
 296              		.cfi_restore_state
 297 0034 FFF7FEFF 		bl	__stack_chk_fail
 298              	.LVL13:
 299              	.L15:
 300              		.align	2
 301              	.L14:
 302 0038 00000000 		.word	.LC1
 303 003c 10E000E0 		.word	-536813552
 304 0040 3F900200 		.word	167999
 305              		.cfi_endproc
 306              	.LFE257:
 307              		.size	st_lld_init, .-st_lld_init
 308              		.text
 309              	.Letext0:
 310              		.file 6 "/usr/lib/gcc/arm-none-eabi/9.2.1/include/stddef.h"
 311              		.file 7 "/usr/lib/gcc/arm-none-eabi/9.2.1/include/stdint.h"
 312              		.file 8 ".//ChibiOS//os/rt/ports/ARMCMx/compilers/GCC/chtypes.h"
 313              		.file 9 ".//ChibiOS//os/rt/include/chsystypes.h"
 314              		.file 10 ".//ChibiOS//os/rt/include/chschd.h"
 315              		.file 11 ".//ChibiOS//os/ext/CMSIS/include/core_cm4.h"
 316              		.file 12 ".//ChibiOS//os/ext/CMSIS/ST/system_stm32f4xx.h"
 317              		.file 13 ".//ChibiOS//os/ext/CMSIS/ST/stm32f407xx.h"
 318              		.file 14 ".//ChibiOS//os/rt/ports/ARMCMx/chcore.h"
 319              		.file 15 ".//ChibiOS//os/rt/include/chdebug.h"
 320              		.file 16 ".//ChibiOS//os/rt/include/chtm.h"
 321              		.file 17 ".//ChibiOS//os/rt/include/chstats.h"
 322              		.file 18 ".//ChibiOS//os/rt/include/chsem.h"
 323              		.file 19 ".//ChibiOS//os/rt/include/chmtx.h"
 324              		.file 20 ".//ChibiOS//os/rt/include/chregistry.h"
 325              		.file 21 ".//ChibiOS//os/rt/include/chevents.h"
 326              		.file 22 ".//ChibiOS//os/rt/include/chqueues.h"
 327              		.file 23 ".//ChibiOS//os/hal/ports/STM32/STM32F4xx/stm32_dma.h"
 328              		.file 24 ".//ChibiOS//os/hal/include/hal_ioblock.h"
 329              		.file 25 ".//ChibiOS//os/hal/ports/STM32/LLD/GPIOv2/pal_lld.h"
 330              		.file 26 ".//ChibiOS//os/hal/include/adc.h"
 331              		.file 27 ".//ChibiOS//os/hal/ports/STM32/STM32F4xx/adc_lld.h"
 332              		.file 28 ".//ChibiOS//os/hal/include/can.h"
 333              		.file 29 ".//ChibiOS//os/hal/ports/STM32/LLD/can_lld.h"
 334              		.file 30 ".//ChibiOS//os/hal/include/dac.h"
 335              		.file 31 ".//ChibiOS//os/hal/ports/STM32/LLD/DACv1/dac_lld.h"
 336              		.file 32 ".//ChibiOS//os/hal/include/ext.h"
 337              		.file 33 ".//ChibiOS//os/hal/ports/STM32/LLD/ext_lld.h"
 338              		.file 34 ".//ChibiOS//os/hal/include/gpt.h"
 339              		.file 35 ".//ChibiOS//os/hal/ports/STM32/LLD/TIMv1/gpt_lld.h"
 340              		.file 36 ".//ChibiOS//os/hal/ports/STM32/LLD/TIMv1/stm32_tim.h"
 341              		.file 37 ".//ChibiOS//os/hal/include/i2c.h"
 342              		.file 38 ".//ChibiOS//os/hal/ports/STM32/LLD/I2Cv1/i2c_lld.h"
ARM GAS  /tmp/ccRuYz8u.s 			page 7


 343              		.file 39 ".//ChibiOS//os/hal/include/i2s.h"
 344              		.file 40 ".//ChibiOS//os/hal/ports/STM32/LLD/SPIv1/i2s_lld.h"
 345              		.file 41 ".//ChibiOS//os/hal/include/pwm.h"
 346              		.file 42 ".//ChibiOS//os/hal/ports/STM32/LLD/TIMv1/pwm_lld.h"
 347              		.file 43 ".//ChibiOS//os/hal/include/serial.h"
 348              		.file 44 ".//ChibiOS//os/hal/ports/STM32/LLD/USARTv1/serial_lld.h"
 349              		.file 45 ".//ChibiOS//os/hal/include/sdc.h"
 350              		.file 46 ".//ChibiOS//os/hal/ports/STM32/LLD/sdc_lld.h"
 351              		.file 47 ".//ChibiOS//os/hal/include/spi.h"
 352              		.file 48 ".//ChibiOS//os/hal/ports/STM32/LLD/SPIv1/spi_lld.h"
 353              		.file 49 ".//ChibiOS//os/hal/include/usb.h"
 354              		.file 50 ".//ChibiOS//os/hal/ports/STM32/LLD/OTGv1/usb_lld.h"
 355              		.file 51 ".//ChibiOS//os/hal/ports/STM32/LLD/OTGv1/stm32_otg.h"
 356              		.file 52 ".//ChibiOS//os/hal/ports/common/ARMCMx/nvic.h"