ARM GAS  /tmp/ccyM7dK0.s 			page 1


   1              		.cpu cortex-m4
   2              		.eabi_attribute 27, 1
   3              		.eabi_attribute 28, 1
   4              		.eabi_attribute 20, 1
   5              		.eabi_attribute 21, 1
   6              		.eabi_attribute 23, 3
   7              		.eabi_attribute 24, 1
   8              		.eabi_attribute 25, 1
   9              		.eabi_attribute 26, 1
  10              		.eabi_attribute 30, 2
  11              		.eabi_attribute 34, 1
  12              		.eabi_attribute 18, 4
  13              		.file	"stm32_dma.c"
  14              		.text
  15              	.Ltext0:
  16              		.cfi_sections	.debug_frame
  17              		.section	.rodata.Vector6C.cst4,"aM",%progbits,4
  18              		.align	2
  19              	.LC0:
  20 0000 00000000 		.word	__stack_chk_guard
  21              		.section	.text.Vector6C,"ax",%progbits
  22              		.align	1
  23              		.p2align 4,,15
  24              		.global	Vector6C
  25              		.arch armv7e-m
  26              		.syntax unified
  27              		.thumb
  28              		.thumb_func
  29              		.fpu fpv4-sp-d16
  30              		.type	Vector6C, %function
  31              	Vector6C:
  32              	.LFB256:
  33              		.file 1 ".//ChibiOS//os/hal/ports/STM32/STM32F4xx/stm32_dma.c"
  34              		.loc 1 127 28 view -0
  35              		.cfi_startproc
  36              		@ args = 0, pretend = 0, frame = 8
  37              		@ frame_needed = 0, uses_anonymous_args = 0
  38 0000 00B5     		push	{lr}
  39              		.cfi_def_cfa_offset 4
  40              		.cfi_offset 14, -4
  41 0002 114B     		ldr	r3, .L11
  42 0004 83B0     		sub	sp, sp, #12
  43              		.cfi_def_cfa_offset 16
  44              		.loc 1 127 28 is_stmt 0 view .LVU1
  45 0006 1B68     		ldr	r3, [r3]
  46 0008 0193     		str	r3, [sp, #4]
  47 000a 4FF00003 		mov	r3,#0
  48              		.loc 1 128 3 is_stmt 1 view .LVU2
  49              		.loc 1 130 3 view .LVU3
  50              		.loc 1 130 3 view .LVU4
  51 000e FFF7FEFF 		bl	_stats_increase_irq
  52              	.LVL0:
  53              		.loc 1 130 3 view .LVU5
  54 0012 FFF7FEFF 		bl	_dbg_check_enter_isr
  55              	.LVL1:
  56              		.loc 1 132 3 view .LVU6
  57              		.loc 1 132 23 is_stmt 0 view .LVU7
ARM GAS  /tmp/ccyM7dK0.s 			page 2


  58 0016 0D4B     		ldr	r3, .L11+4
  59              		.loc 1 134 23 view .LVU8
  60 0018 0D4A     		ldr	r2, .L11+8
  61              		.loc 1 132 23 view .LVU9
  62 001a 1968     		ldr	r1, [r3]
  63              		.loc 1 132 9 view .LVU10
  64 001c 01F03D01 		and	r1, r1, #61
  65              	.LVL2:
  66              		.loc 1 133 3 is_stmt 1 view .LVU11
  67              		.loc 1 133 15 is_stmt 0 view .LVU12
  68 0020 9960     		str	r1, [r3, #8]
  69              		.loc 1 134 3 is_stmt 1 view .LVU13
  70              		.loc 1 134 23 is_stmt 0 view .LVU14
  71 0022 1368     		ldr	r3, [r2]
  72              		.loc 1 134 6 view .LVU15
  73 0024 0BB1     		cbz	r3, .L2
  74              		.loc 1 135 5 is_stmt 1 view .LVU16
  75 0026 5068     		ldr	r0, [r2, #4]
  76 0028 9847     		blx	r3
  77              	.LVL3:
  78              	.L2:
  79              		.loc 1 137 3 view .LVU17
  80 002a FFF7FEFF 		bl	_dbg_check_leave_isr
  81              	.LVL4:
  82              		.loc 1 137 3 view .LVU18
  83 002e 064B     		ldr	r3, .L11
  84 0030 1A68     		ldr	r2, [r3]
  85 0032 019B     		ldr	r3, [sp, #4]
  86 0034 5A40     		eors	r2, r3, r2
  87 0036 04D1     		bne	.L10
  88              		.loc 1 138 1 is_stmt 0 view .LVU19
  89 0038 03B0     		add	sp, sp, #12
  90              		.cfi_remember_state
  91              		.cfi_def_cfa_offset 4
  92              		@ sp needed
  93 003a 5DF804EB 		ldr	lr, [sp], #4
  94              		.cfi_restore 14
  95              		.cfi_def_cfa_offset 0
  96              		.loc 1 137 3 view .LVU20
  97 003e FFF7FEBF 		b	_port_irq_epilogue
  98              	.LVL5:
  99              	.L10:
 100              		.cfi_restore_state
 101 0042 FFF7FEFF 		bl	__stack_chk_fail
 102              	.LVL6:
 103              	.L12:
 104 0046 00BF     		.align	2
 105              	.L11:
 106 0048 00000000 		.word	.LC0
 107 004c 00600240 		.word	1073897472
 108 0050 00000000 		.word	.LANCHOR0
 109              		.cfi_endproc
 110              	.LFE256:
 111              		.size	Vector6C, .-Vector6C
 112              		.section	.rodata.Vector70.cst4,"aM",%progbits,4
 113              		.align	2
 114              	.LC1:
ARM GAS  /tmp/ccyM7dK0.s 			page 3


 115 0000 00000000 		.word	__stack_chk_guard
 116              		.section	.text.Vector70,"ax",%progbits
 117              		.align	1
 118              		.p2align 4,,15
 119              		.global	Vector70
 120              		.syntax unified
 121              		.thumb
 122              		.thumb_func
 123              		.fpu fpv4-sp-d16
 124              		.type	Vector70, %function
 125              	Vector70:
 126              	.LFB257:
 127              		.loc 1 145 28 is_stmt 1 view -0
 128              		.cfi_startproc
 129              		@ args = 0, pretend = 0, frame = 8
 130              		@ frame_needed = 0, uses_anonymous_args = 0
 131 0000 10B5     		push	{r4, lr}
 132              		.cfi_def_cfa_offset 8
 133              		.cfi_offset 4, -8
 134              		.cfi_offset 14, -4
 135 0002 124B     		ldr	r3, .L22
 136 0004 82B0     		sub	sp, sp, #8
 137              		.cfi_def_cfa_offset 16
 138              		.loc 1 145 28 is_stmt 0 view .LVU22
 139 0006 1B68     		ldr	r3, [r3]
 140 0008 0193     		str	r3, [sp, #4]
 141 000a 4FF00003 		mov	r3,#0
 142              		.loc 1 146 3 is_stmt 1 view .LVU23
 143              		.loc 1 148 3 view .LVU24
 144              		.loc 1 148 3 view .LVU25
 145 000e FFF7FEFF 		bl	_stats_increase_irq
 146              	.LVL7:
 147              		.loc 1 148 3 view .LVU26
 148 0012 FFF7FEFF 		bl	_dbg_check_enter_isr
 149              	.LVL8:
 150              		.loc 1 150 3 view .LVU27
 151              		.loc 1 150 16 is_stmt 0 view .LVU28
 152 0016 0E4B     		ldr	r3, .L22+4
 153              		.loc 1 152 23 view .LVU29
 154 0018 0E48     		ldr	r0, .L22+8
 155              		.loc 1 150 16 view .LVU30
 156 001a 1968     		ldr	r1, [r3]
 157              		.loc 1 152 23 view .LVU31
 158 001c 8268     		ldr	r2, [r0, #8]
 159              		.loc 1 150 23 view .LVU32
 160 001e 8909     		lsrs	r1, r1, #6
 161              		.loc 1 150 9 view .LVU33
 162 0020 01F03D01 		and	r1, r1, #61
 163              	.LVL9:
 164              		.loc 1 151 3 is_stmt 1 view .LVU34
 165              		.loc 1 151 23 is_stmt 0 view .LVU35
 166 0024 8C01     		lsls	r4, r1, #6
 167              		.loc 1 151 15 view .LVU36
 168 0026 9C60     		str	r4, [r3, #8]
 169              		.loc 1 152 3 is_stmt 1 view .LVU37
 170              		.loc 1 152 6 is_stmt 0 view .LVU38
 171 0028 0AB1     		cbz	r2, .L14
ARM GAS  /tmp/ccyM7dK0.s 			page 4


 172              		.loc 1 153 5 is_stmt 1 view .LVU39
 173 002a C068     		ldr	r0, [r0, #12]
 174 002c 9047     		blx	r2
 175              	.LVL10:
 176              	.L14:
 177              		.loc 1 155 3 view .LVU40
 178 002e FFF7FEFF 		bl	_dbg_check_leave_isr
 179              	.LVL11:
 180              		.loc 1 155 3 view .LVU41
 181 0032 064B     		ldr	r3, .L22
 182 0034 1A68     		ldr	r2, [r3]
 183 0036 019B     		ldr	r3, [sp, #4]
 184 0038 5A40     		eors	r2, r3, r2
 185 003a 04D1     		bne	.L21
 186              		.loc 1 156 1 is_stmt 0 view .LVU42
 187 003c 02B0     		add	sp, sp, #8
 188              		.cfi_remember_state
 189              		.cfi_def_cfa_offset 8
 190              		@ sp needed
 191 003e BDE81040 		pop	{r4, lr}
 192              		.cfi_restore 14
 193              		.cfi_restore 4
 194              		.cfi_def_cfa_offset 0
 195              		.loc 1 155 3 view .LVU43
 196 0042 FFF7FEBF 		b	_port_irq_epilogue
 197              	.LVL12:
 198              	.L21:
 199              		.cfi_restore_state
 200 0046 FFF7FEFF 		bl	__stack_chk_fail
 201              	.LVL13:
 202              	.L23:
 203 004a 00BF     		.align	2
 204              	.L22:
 205 004c 00000000 		.word	.LC1
 206 0050 00600240 		.word	1073897472
 207 0054 00000000 		.word	.LANCHOR0
 208              		.cfi_endproc
 209              	.LFE257:
 210              		.size	Vector70, .-Vector70
 211              		.section	.rodata.Vector74.cst4,"aM",%progbits,4
 212              		.align	2
 213              	.LC2:
 214 0000 00000000 		.word	__stack_chk_guard
 215              		.section	.text.Vector74,"ax",%progbits
 216              		.align	1
 217              		.p2align 4,,15
 218              		.global	Vector74
 219              		.syntax unified
 220              		.thumb
 221              		.thumb_func
 222              		.fpu fpv4-sp-d16
 223              		.type	Vector74, %function
 224              	Vector74:
 225              	.LFB258:
 226              		.loc 1 163 28 is_stmt 1 view -0
 227              		.cfi_startproc
 228              		@ args = 0, pretend = 0, frame = 8
ARM GAS  /tmp/ccyM7dK0.s 			page 5


 229              		@ frame_needed = 0, uses_anonymous_args = 0
 230 0000 10B5     		push	{r4, lr}
 231              		.cfi_def_cfa_offset 8
 232              		.cfi_offset 4, -8
 233              		.cfi_offset 14, -4
 234 0002 124B     		ldr	r3, .L33
 235 0004 82B0     		sub	sp, sp, #8
 236              		.cfi_def_cfa_offset 16
 237              		.loc 1 163 28 is_stmt 0 view .LVU45
 238 0006 1B68     		ldr	r3, [r3]
 239 0008 0193     		str	r3, [sp, #4]
 240 000a 4FF00003 		mov	r3,#0
 241              		.loc 1 164 3 is_stmt 1 view .LVU46
 242              		.loc 1 166 3 view .LVU47
 243              		.loc 1 166 3 view .LVU48
 244 000e FFF7FEFF 		bl	_stats_increase_irq
 245              	.LVL14:
 246              		.loc 1 166 3 view .LVU49
 247 0012 FFF7FEFF 		bl	_dbg_check_enter_isr
 248              	.LVL15:
 249              		.loc 1 168 3 view .LVU50
 250              		.loc 1 168 16 is_stmt 0 view .LVU51
 251 0016 0E4B     		ldr	r3, .L33+4
 252              		.loc 1 170 23 view .LVU52
 253 0018 0E48     		ldr	r0, .L33+8
 254              		.loc 1 168 16 view .LVU53
 255 001a 1968     		ldr	r1, [r3]
 256              		.loc 1 170 23 view .LVU54
 257 001c 0269     		ldr	r2, [r0, #16]
 258              		.loc 1 168 23 view .LVU55
 259 001e 090C     		lsrs	r1, r1, #16
 260              		.loc 1 168 9 view .LVU56
 261 0020 01F03D01 		and	r1, r1, #61
 262              	.LVL16:
 263              		.loc 1 169 3 is_stmt 1 view .LVU57
 264              		.loc 1 169 23 is_stmt 0 view .LVU58
 265 0024 0C04     		lsls	r4, r1, #16
 266              		.loc 1 169 15 view .LVU59
 267 0026 9C60     		str	r4, [r3, #8]
 268              		.loc 1 170 3 is_stmt 1 view .LVU60
 269              		.loc 1 170 6 is_stmt 0 view .LVU61
 270 0028 0AB1     		cbz	r2, .L25
 271              		.loc 1 171 5 is_stmt 1 view .LVU62
 272 002a 4069     		ldr	r0, [r0, #20]
 273 002c 9047     		blx	r2
 274              	.LVL17:
 275              	.L25:
 276              		.loc 1 173 3 view .LVU63
 277 002e FFF7FEFF 		bl	_dbg_check_leave_isr
 278              	.LVL18:
 279              		.loc 1 173 3 view .LVU64
 280 0032 064B     		ldr	r3, .L33
 281 0034 1A68     		ldr	r2, [r3]
 282 0036 019B     		ldr	r3, [sp, #4]
 283 0038 5A40     		eors	r2, r3, r2
 284 003a 04D1     		bne	.L32
 285              		.loc 1 174 1 is_stmt 0 view .LVU65
ARM GAS  /tmp/ccyM7dK0.s 			page 6


 286 003c 02B0     		add	sp, sp, #8
 287              		.cfi_remember_state
 288              		.cfi_def_cfa_offset 8
 289              		@ sp needed
 290 003e BDE81040 		pop	{r4, lr}
 291              		.cfi_restore 14
 292              		.cfi_restore 4
 293              		.cfi_def_cfa_offset 0
 294              		.loc 1 173 3 view .LVU66
 295 0042 FFF7FEBF 		b	_port_irq_epilogue
 296              	.LVL19:
 297              	.L32:
 298              		.cfi_restore_state
 299 0046 FFF7FEFF 		bl	__stack_chk_fail
 300              	.LVL20:
 301              	.L34:
 302 004a 00BF     		.align	2
 303              	.L33:
 304 004c 00000000 		.word	.LC2
 305 0050 00600240 		.word	1073897472
 306 0054 00000000 		.word	.LANCHOR0
 307              		.cfi_endproc
 308              	.LFE258:
 309              		.size	Vector74, .-Vector74
 310              		.section	.rodata.Vector78.cst4,"aM",%progbits,4
 311              		.align	2
 312              	.LC3:
 313 0000 00000000 		.word	__stack_chk_guard
 314              		.section	.text.Vector78,"ax",%progbits
 315              		.align	1
 316              		.p2align 4,,15
 317              		.global	Vector78
 318              		.syntax unified
 319              		.thumb
 320              		.thumb_func
 321              		.fpu fpv4-sp-d16
 322              		.type	Vector78, %function
 323              	Vector78:
 324              	.LFB259:
 325              		.loc 1 181 28 is_stmt 1 view -0
 326              		.cfi_startproc
 327              		@ args = 0, pretend = 0, frame = 8
 328              		@ frame_needed = 0, uses_anonymous_args = 0
 329 0000 10B5     		push	{r4, lr}
 330              		.cfi_def_cfa_offset 8
 331              		.cfi_offset 4, -8
 332              		.cfi_offset 14, -4
 333 0002 124B     		ldr	r3, .L44
 334 0004 82B0     		sub	sp, sp, #8
 335              		.cfi_def_cfa_offset 16
 336              		.loc 1 181 28 is_stmt 0 view .LVU68
 337 0006 1B68     		ldr	r3, [r3]
 338 0008 0193     		str	r3, [sp, #4]
 339 000a 4FF00003 		mov	r3,#0
 340              		.loc 1 182 3 is_stmt 1 view .LVU69
 341              		.loc 1 184 3 view .LVU70
 342              		.loc 1 184 3 view .LVU71
ARM GAS  /tmp/ccyM7dK0.s 			page 7


 343 000e FFF7FEFF 		bl	_stats_increase_irq
 344              	.LVL21:
 345              		.loc 1 184 3 view .LVU72
 346 0012 FFF7FEFF 		bl	_dbg_check_enter_isr
 347              	.LVL22:
 348              		.loc 1 186 3 view .LVU73
 349              		.loc 1 186 16 is_stmt 0 view .LVU74
 350 0016 0E4B     		ldr	r3, .L44+4
 351              		.loc 1 188 23 view .LVU75
 352 0018 0E48     		ldr	r0, .L44+8
 353              		.loc 1 186 16 view .LVU76
 354 001a 1968     		ldr	r1, [r3]
 355              		.loc 1 188 23 view .LVU77
 356 001c 8269     		ldr	r2, [r0, #24]
 357              		.loc 1 186 23 view .LVU78
 358 001e 890D     		lsrs	r1, r1, #22
 359              		.loc 1 186 9 view .LVU79
 360 0020 01F03D01 		and	r1, r1, #61
 361              	.LVL23:
 362              		.loc 1 187 3 is_stmt 1 view .LVU80
 363              		.loc 1 187 23 is_stmt 0 view .LVU81
 364 0024 8C05     		lsls	r4, r1, #22
 365              		.loc 1 187 15 view .LVU82
 366 0026 9C60     		str	r4, [r3, #8]
 367              		.loc 1 188 3 is_stmt 1 view .LVU83
 368              		.loc 1 188 6 is_stmt 0 view .LVU84
 369 0028 0AB1     		cbz	r2, .L36
 370              		.loc 1 189 5 is_stmt 1 view .LVU85
 371 002a C069     		ldr	r0, [r0, #28]
 372 002c 9047     		blx	r2
 373              	.LVL24:
 374              	.L36:
 375              		.loc 1 191 3 view .LVU86
 376 002e FFF7FEFF 		bl	_dbg_check_leave_isr
 377              	.LVL25:
 378              		.loc 1 191 3 view .LVU87
 379 0032 064B     		ldr	r3, .L44
 380 0034 1A68     		ldr	r2, [r3]
 381 0036 019B     		ldr	r3, [sp, #4]
 382 0038 5A40     		eors	r2, r3, r2
 383 003a 04D1     		bne	.L43
 384              		.loc 1 192 1 is_stmt 0 view .LVU88
 385 003c 02B0     		add	sp, sp, #8
 386              		.cfi_remember_state
 387              		.cfi_def_cfa_offset 8
 388              		@ sp needed
 389 003e BDE81040 		pop	{r4, lr}
 390              		.cfi_restore 14
 391              		.cfi_restore 4
 392              		.cfi_def_cfa_offset 0
 393              		.loc 1 191 3 view .LVU89
 394 0042 FFF7FEBF 		b	_port_irq_epilogue
 395              	.LVL26:
 396              	.L43:
 397              		.cfi_restore_state
 398 0046 FFF7FEFF 		bl	__stack_chk_fail
 399              	.LVL27:
ARM GAS  /tmp/ccyM7dK0.s 			page 8


 400              	.L45:
 401 004a 00BF     		.align	2
 402              	.L44:
 403 004c 00000000 		.word	.LC3
 404 0050 00600240 		.word	1073897472
 405 0054 00000000 		.word	.LANCHOR0
 406              		.cfi_endproc
 407              	.LFE259:
 408              		.size	Vector78, .-Vector78
 409              		.section	.rodata.Vector7C.cst4,"aM",%progbits,4
 410              		.align	2
 411              	.LC4:
 412 0000 00000000 		.word	__stack_chk_guard
 413              		.section	.text.Vector7C,"ax",%progbits
 414              		.align	1
 415              		.p2align 4,,15
 416              		.global	Vector7C
 417              		.syntax unified
 418              		.thumb
 419              		.thumb_func
 420              		.fpu fpv4-sp-d16
 421              		.type	Vector7C, %function
 422              	Vector7C:
 423              	.LFB260:
 424              		.loc 1 199 28 is_stmt 1 view -0
 425              		.cfi_startproc
 426              		@ args = 0, pretend = 0, frame = 8
 427              		@ frame_needed = 0, uses_anonymous_args = 0
 428 0000 00B5     		push	{lr}
 429              		.cfi_def_cfa_offset 4
 430              		.cfi_offset 14, -4
 431 0002 114B     		ldr	r3, .L55
 432 0004 83B0     		sub	sp, sp, #12
 433              		.cfi_def_cfa_offset 16
 434              		.loc 1 199 28 is_stmt 0 view .LVU91
 435 0006 1B68     		ldr	r3, [r3]
 436 0008 0193     		str	r3, [sp, #4]
 437 000a 4FF00003 		mov	r3,#0
 438              		.loc 1 200 3 is_stmt 1 view .LVU92
 439              		.loc 1 202 3 view .LVU93
 440              		.loc 1 202 3 view .LVU94
 441 000e FFF7FEFF 		bl	_stats_increase_irq
 442              	.LVL28:
 443              		.loc 1 202 3 view .LVU95
 444 0012 FFF7FEFF 		bl	_dbg_check_enter_isr
 445              	.LVL29:
 446              		.loc 1 204 3 view .LVU96
 447              		.loc 1 204 23 is_stmt 0 view .LVU97
 448 0016 0D4B     		ldr	r3, .L55+4
 449              		.loc 1 206 23 view .LVU98
 450 0018 0D48     		ldr	r0, .L55+8
 451              		.loc 1 204 23 view .LVU99
 452 001a 5968     		ldr	r1, [r3, #4]
 453              		.loc 1 206 23 view .LVU100
 454 001c 026A     		ldr	r2, [r0, #32]
 455              		.loc 1 204 9 view .LVU101
 456 001e 01F03D01 		and	r1, r1, #61
ARM GAS  /tmp/ccyM7dK0.s 			page 9


 457              	.LVL30:
 458              		.loc 1 205 3 is_stmt 1 view .LVU102
 459              		.loc 1 205 15 is_stmt 0 view .LVU103
 460 0022 D960     		str	r1, [r3, #12]
 461              		.loc 1 206 3 is_stmt 1 view .LVU104
 462              		.loc 1 206 6 is_stmt 0 view .LVU105
 463 0024 0AB1     		cbz	r2, .L47
 464              		.loc 1 207 5 is_stmt 1 view .LVU106
 465 0026 406A     		ldr	r0, [r0, #36]
 466 0028 9047     		blx	r2
 467              	.LVL31:
 468              	.L47:
 469              		.loc 1 209 3 view .LVU107
 470 002a FFF7FEFF 		bl	_dbg_check_leave_isr
 471              	.LVL32:
 472              		.loc 1 209 3 view .LVU108
 473 002e 064B     		ldr	r3, .L55
 474 0030 1A68     		ldr	r2, [r3]
 475 0032 019B     		ldr	r3, [sp, #4]
 476 0034 5A40     		eors	r2, r3, r2
 477 0036 04D1     		bne	.L54
 478              		.loc 1 210 1 is_stmt 0 view .LVU109
 479 0038 03B0     		add	sp, sp, #12
 480              		.cfi_remember_state
 481              		.cfi_def_cfa_offset 4
 482              		@ sp needed
 483 003a 5DF804EB 		ldr	lr, [sp], #4
 484              		.cfi_restore 14
 485              		.cfi_def_cfa_offset 0
 486              		.loc 1 209 3 view .LVU110
 487 003e FFF7FEBF 		b	_port_irq_epilogue
 488              	.LVL33:
 489              	.L54:
 490              		.cfi_restore_state
 491 0042 FFF7FEFF 		bl	__stack_chk_fail
 492              	.LVL34:
 493              	.L56:
 494 0046 00BF     		.align	2
 495              	.L55:
 496 0048 00000000 		.word	.LC4
 497 004c 00600240 		.word	1073897472
 498 0050 00000000 		.word	.LANCHOR0
 499              		.cfi_endproc
 500              	.LFE260:
 501              		.size	Vector7C, .-Vector7C
 502              		.section	.rodata.Vector80.cst4,"aM",%progbits,4
 503              		.align	2
 504              	.LC5:
 505 0000 00000000 		.word	__stack_chk_guard
 506              		.section	.text.Vector80,"ax",%progbits
 507              		.align	1
 508              		.p2align 4,,15
 509              		.global	Vector80
 510              		.syntax unified
 511              		.thumb
 512              		.thumb_func
 513              		.fpu fpv4-sp-d16
ARM GAS  /tmp/ccyM7dK0.s 			page 10


 514              		.type	Vector80, %function
 515              	Vector80:
 516              	.LFB261:
 517              		.loc 1 217 28 is_stmt 1 view -0
 518              		.cfi_startproc
 519              		@ args = 0, pretend = 0, frame = 8
 520              		@ frame_needed = 0, uses_anonymous_args = 0
 521 0000 10B5     		push	{r4, lr}
 522              		.cfi_def_cfa_offset 8
 523              		.cfi_offset 4, -8
 524              		.cfi_offset 14, -4
 525 0002 124B     		ldr	r3, .L66
 526 0004 82B0     		sub	sp, sp, #8
 527              		.cfi_def_cfa_offset 16
 528              		.loc 1 217 28 is_stmt 0 view .LVU112
 529 0006 1B68     		ldr	r3, [r3]
 530 0008 0193     		str	r3, [sp, #4]
 531 000a 4FF00003 		mov	r3,#0
 532              		.loc 1 218 3 is_stmt 1 view .LVU113
 533              		.loc 1 220 3 view .LVU114
 534              		.loc 1 220 3 view .LVU115
 535 000e FFF7FEFF 		bl	_stats_increase_irq
 536              	.LVL35:
 537              		.loc 1 220 3 view .LVU116
 538 0012 FFF7FEFF 		bl	_dbg_check_enter_isr
 539              	.LVL36:
 540              		.loc 1 222 3 view .LVU117
 541              		.loc 1 222 16 is_stmt 0 view .LVU118
 542 0016 0E4B     		ldr	r3, .L66+4
 543              		.loc 1 224 23 view .LVU119
 544 0018 0E48     		ldr	r0, .L66+8
 545              		.loc 1 222 16 view .LVU120
 546 001a 5968     		ldr	r1, [r3, #4]
 547              		.loc 1 224 23 view .LVU121
 548 001c 826A     		ldr	r2, [r0, #40]
 549              		.loc 1 222 23 view .LVU122
 550 001e 8909     		lsrs	r1, r1, #6
 551              		.loc 1 222 9 view .LVU123
 552 0020 01F03D01 		and	r1, r1, #61
 553              	.LVL37:
 554              		.loc 1 223 3 is_stmt 1 view .LVU124
 555              		.loc 1 223 23 is_stmt 0 view .LVU125
 556 0024 8C01     		lsls	r4, r1, #6
 557              		.loc 1 223 15 view .LVU126
 558 0026 DC60     		str	r4, [r3, #12]
 559              		.loc 1 224 3 is_stmt 1 view .LVU127
 560              		.loc 1 224 6 is_stmt 0 view .LVU128
 561 0028 0AB1     		cbz	r2, .L58
 562              		.loc 1 225 5 is_stmt 1 view .LVU129
 563 002a C06A     		ldr	r0, [r0, #44]
 564 002c 9047     		blx	r2
 565              	.LVL38:
 566              	.L58:
 567              		.loc 1 227 3 view .LVU130
 568 002e FFF7FEFF 		bl	_dbg_check_leave_isr
 569              	.LVL39:
 570              		.loc 1 227 3 view .LVU131
ARM GAS  /tmp/ccyM7dK0.s 			page 11


 571 0032 064B     		ldr	r3, .L66
 572 0034 1A68     		ldr	r2, [r3]
 573 0036 019B     		ldr	r3, [sp, #4]
 574 0038 5A40     		eors	r2, r3, r2
 575 003a 04D1     		bne	.L65
 576              		.loc 1 228 1 is_stmt 0 view .LVU132
 577 003c 02B0     		add	sp, sp, #8
 578              		.cfi_remember_state
 579              		.cfi_def_cfa_offset 8
 580              		@ sp needed
 581 003e BDE81040 		pop	{r4, lr}
 582              		.cfi_restore 14
 583              		.cfi_restore 4
 584              		.cfi_def_cfa_offset 0
 585              		.loc 1 227 3 view .LVU133
 586 0042 FFF7FEBF 		b	_port_irq_epilogue
 587              	.LVL40:
 588              	.L65:
 589              		.cfi_restore_state
 590 0046 FFF7FEFF 		bl	__stack_chk_fail
 591              	.LVL41:
 592              	.L67:
 593 004a 00BF     		.align	2
 594              	.L66:
 595 004c 00000000 		.word	.LC5
 596 0050 00600240 		.word	1073897472
 597 0054 00000000 		.word	.LANCHOR0
 598              		.cfi_endproc
 599              	.LFE261:
 600              		.size	Vector80, .-Vector80
 601              		.section	.rodata.Vector84.cst4,"aM",%progbits,4
 602              		.align	2
 603              	.LC6:
 604 0000 00000000 		.word	__stack_chk_guard
 605              		.section	.text.Vector84,"ax",%progbits
 606              		.align	1
 607              		.p2align 4,,15
 608              		.global	Vector84
 609              		.syntax unified
 610              		.thumb
 611              		.thumb_func
 612              		.fpu fpv4-sp-d16
 613              		.type	Vector84, %function
 614              	Vector84:
 615              	.LFB262:
 616              		.loc 1 235 28 is_stmt 1 view -0
 617              		.cfi_startproc
 618              		@ args = 0, pretend = 0, frame = 8
 619              		@ frame_needed = 0, uses_anonymous_args = 0
 620 0000 10B5     		push	{r4, lr}
 621              		.cfi_def_cfa_offset 8
 622              		.cfi_offset 4, -8
 623              		.cfi_offset 14, -4
 624 0002 124B     		ldr	r3, .L77
 625 0004 82B0     		sub	sp, sp, #8
 626              		.cfi_def_cfa_offset 16
 627              		.loc 1 235 28 is_stmt 0 view .LVU135
ARM GAS  /tmp/ccyM7dK0.s 			page 12


 628 0006 1B68     		ldr	r3, [r3]
 629 0008 0193     		str	r3, [sp, #4]
 630 000a 4FF00003 		mov	r3,#0
 631              		.loc 1 236 3 is_stmt 1 view .LVU136
 632              		.loc 1 238 3 view .LVU137
 633              		.loc 1 238 3 view .LVU138
 634 000e FFF7FEFF 		bl	_stats_increase_irq
 635              	.LVL42:
 636              		.loc 1 238 3 view .LVU139
 637 0012 FFF7FEFF 		bl	_dbg_check_enter_isr
 638              	.LVL43:
 639              		.loc 1 240 3 view .LVU140
 640              		.loc 1 240 16 is_stmt 0 view .LVU141
 641 0016 0E4B     		ldr	r3, .L77+4
 642              		.loc 1 242 23 view .LVU142
 643 0018 0E48     		ldr	r0, .L77+8
 644              		.loc 1 240 16 view .LVU143
 645 001a 5968     		ldr	r1, [r3, #4]
 646              		.loc 1 242 23 view .LVU144
 647 001c 026B     		ldr	r2, [r0, #48]
 648              		.loc 1 240 23 view .LVU145
 649 001e 090C     		lsrs	r1, r1, #16
 650              		.loc 1 240 9 view .LVU146
 651 0020 01F03D01 		and	r1, r1, #61
 652              	.LVL44:
 653              		.loc 1 241 3 is_stmt 1 view .LVU147
 654              		.loc 1 241 23 is_stmt 0 view .LVU148
 655 0024 0C04     		lsls	r4, r1, #16
 656              		.loc 1 241 15 view .LVU149
 657 0026 DC60     		str	r4, [r3, #12]
 658              		.loc 1 242 3 is_stmt 1 view .LVU150
 659              		.loc 1 242 6 is_stmt 0 view .LVU151
 660 0028 0AB1     		cbz	r2, .L69
 661              		.loc 1 243 5 is_stmt 1 view .LVU152
 662 002a 406B     		ldr	r0, [r0, #52]
 663 002c 9047     		blx	r2
 664              	.LVL45:
 665              	.L69:
 666              		.loc 1 245 3 view .LVU153
 667 002e FFF7FEFF 		bl	_dbg_check_leave_isr
 668              	.LVL46:
 669              		.loc 1 245 3 view .LVU154
 670 0032 064B     		ldr	r3, .L77
 671 0034 1A68     		ldr	r2, [r3]
 672 0036 019B     		ldr	r3, [sp, #4]
 673 0038 5A40     		eors	r2, r3, r2
 674 003a 04D1     		bne	.L76
 675              		.loc 1 246 1 is_stmt 0 view .LVU155
 676 003c 02B0     		add	sp, sp, #8
 677              		.cfi_remember_state
 678              		.cfi_def_cfa_offset 8
 679              		@ sp needed
 680 003e BDE81040 		pop	{r4, lr}
 681              		.cfi_restore 14
 682              		.cfi_restore 4
 683              		.cfi_def_cfa_offset 0
 684              		.loc 1 245 3 view .LVU156
ARM GAS  /tmp/ccyM7dK0.s 			page 13


 685 0042 FFF7FEBF 		b	_port_irq_epilogue
 686              	.LVL47:
 687              	.L76:
 688              		.cfi_restore_state
 689 0046 FFF7FEFF 		bl	__stack_chk_fail
 690              	.LVL48:
 691              	.L78:
 692 004a 00BF     		.align	2
 693              	.L77:
 694 004c 00000000 		.word	.LC6
 695 0050 00600240 		.word	1073897472
 696 0054 00000000 		.word	.LANCHOR0
 697              		.cfi_endproc
 698              	.LFE262:
 699              		.size	Vector84, .-Vector84
 700              		.section	.rodata.VectorFC.cst4,"aM",%progbits,4
 701              		.align	2
 702              	.LC7:
 703 0000 00000000 		.word	__stack_chk_guard
 704              		.section	.text.VectorFC,"ax",%progbits
 705              		.align	1
 706              		.p2align 4,,15
 707              		.global	VectorFC
 708              		.syntax unified
 709              		.thumb
 710              		.thumb_func
 711              		.fpu fpv4-sp-d16
 712              		.type	VectorFC, %function
 713              	VectorFC:
 714              	.LFB263:
 715              		.loc 1 253 28 is_stmt 1 view -0
 716              		.cfi_startproc
 717              		@ args = 0, pretend = 0, frame = 8
 718              		@ frame_needed = 0, uses_anonymous_args = 0
 719 0000 10B5     		push	{r4, lr}
 720              		.cfi_def_cfa_offset 8
 721              		.cfi_offset 4, -8
 722              		.cfi_offset 14, -4
 723 0002 124B     		ldr	r3, .L88
 724 0004 82B0     		sub	sp, sp, #8
 725              		.cfi_def_cfa_offset 16
 726              		.loc 1 253 28 is_stmt 0 view .LVU158
 727 0006 1B68     		ldr	r3, [r3]
 728 0008 0193     		str	r3, [sp, #4]
 729 000a 4FF00003 		mov	r3,#0
 730              		.loc 1 254 3 is_stmt 1 view .LVU159
 731              		.loc 1 256 3 view .LVU160
 732              		.loc 1 256 3 view .LVU161
 733 000e FFF7FEFF 		bl	_stats_increase_irq
 734              	.LVL49:
 735              		.loc 1 256 3 view .LVU162
 736 0012 FFF7FEFF 		bl	_dbg_check_enter_isr
 737              	.LVL50:
 738              		.loc 1 258 3 view .LVU163
 739              		.loc 1 258 16 is_stmt 0 view .LVU164
 740 0016 0E4B     		ldr	r3, .L88+4
 741              		.loc 1 260 23 view .LVU165
ARM GAS  /tmp/ccyM7dK0.s 			page 14


 742 0018 0E48     		ldr	r0, .L88+8
 743              		.loc 1 258 16 view .LVU166
 744 001a 5968     		ldr	r1, [r3, #4]
 745              		.loc 1 260 23 view .LVU167
 746 001c 826B     		ldr	r2, [r0, #56]
 747              		.loc 1 258 23 view .LVU168
 748 001e 890D     		lsrs	r1, r1, #22
 749              		.loc 1 258 9 view .LVU169
 750 0020 01F03D01 		and	r1, r1, #61
 751              	.LVL51:
 752              		.loc 1 259 3 is_stmt 1 view .LVU170
 753              		.loc 1 259 23 is_stmt 0 view .LVU171
 754 0024 8C05     		lsls	r4, r1, #22
 755              		.loc 1 259 15 view .LVU172
 756 0026 DC60     		str	r4, [r3, #12]
 757              		.loc 1 260 3 is_stmt 1 view .LVU173
 758              		.loc 1 260 6 is_stmt 0 view .LVU174
 759 0028 0AB1     		cbz	r2, .L80
 760              		.loc 1 261 5 is_stmt 1 view .LVU175
 761 002a C06B     		ldr	r0, [r0, #60]
 762 002c 9047     		blx	r2
 763              	.LVL52:
 764              	.L80:
 765              		.loc 1 263 3 view .LVU176
 766 002e FFF7FEFF 		bl	_dbg_check_leave_isr
 767              	.LVL53:
 768              		.loc 1 263 3 view .LVU177
 769 0032 064B     		ldr	r3, .L88
 770 0034 1A68     		ldr	r2, [r3]
 771 0036 019B     		ldr	r3, [sp, #4]
 772 0038 5A40     		eors	r2, r3, r2
 773 003a 04D1     		bne	.L87
 774              		.loc 1 264 1 is_stmt 0 view .LVU178
 775 003c 02B0     		add	sp, sp, #8
 776              		.cfi_remember_state
 777              		.cfi_def_cfa_offset 8
 778              		@ sp needed
 779 003e BDE81040 		pop	{r4, lr}
 780              		.cfi_restore 14
 781              		.cfi_restore 4
 782              		.cfi_def_cfa_offset 0
 783              		.loc 1 263 3 view .LVU179
 784 0042 FFF7FEBF 		b	_port_irq_epilogue
 785              	.LVL54:
 786              	.L87:
 787              		.cfi_restore_state
 788 0046 FFF7FEFF 		bl	__stack_chk_fail
 789              	.LVL55:
 790              	.L89:
 791 004a 00BF     		.align	2
 792              	.L88:
 793 004c 00000000 		.word	.LC7
 794 0050 00600240 		.word	1073897472
 795 0054 00000000 		.word	.LANCHOR0
 796              		.cfi_endproc
 797              	.LFE263:
 798              		.size	VectorFC, .-VectorFC
ARM GAS  /tmp/ccyM7dK0.s 			page 15


 799              		.section	.rodata.Vector120.cst4,"aM",%progbits,4
 800              		.align	2
 801              	.LC8:
 802 0000 00000000 		.word	__stack_chk_guard
 803              		.section	.text.Vector120,"ax",%progbits
 804              		.align	1
 805              		.p2align 4,,15
 806              		.global	Vector120
 807              		.syntax unified
 808              		.thumb
 809              		.thumb_func
 810              		.fpu fpv4-sp-d16
 811              		.type	Vector120, %function
 812              	Vector120:
 813              	.LFB264:
 814              		.loc 1 271 29 is_stmt 1 view -0
 815              		.cfi_startproc
 816              		@ args = 0, pretend = 0, frame = 8
 817              		@ frame_needed = 0, uses_anonymous_args = 0
 818 0000 00B5     		push	{lr}
 819              		.cfi_def_cfa_offset 4
 820              		.cfi_offset 14, -4
 821 0002 114B     		ldr	r3, .L99
 822 0004 83B0     		sub	sp, sp, #12
 823              		.cfi_def_cfa_offset 16
 824              		.loc 1 271 29 is_stmt 0 view .LVU181
 825 0006 1B68     		ldr	r3, [r3]
 826 0008 0193     		str	r3, [sp, #4]
 827 000a 4FF00003 		mov	r3,#0
 828              		.loc 1 272 3 is_stmt 1 view .LVU182
 829              		.loc 1 274 3 view .LVU183
 830              		.loc 1 274 3 view .LVU184
 831 000e FFF7FEFF 		bl	_stats_increase_irq
 832              	.LVL56:
 833              		.loc 1 274 3 view .LVU185
 834 0012 FFF7FEFF 		bl	_dbg_check_enter_isr
 835              	.LVL57:
 836              		.loc 1 276 3 view .LVU186
 837              		.loc 1 276 23 is_stmt 0 view .LVU187
 838 0016 0D4B     		ldr	r3, .L99+4
 839              		.loc 1 278 23 view .LVU188
 840 0018 0D48     		ldr	r0, .L99+8
 841              		.loc 1 276 23 view .LVU189
 842 001a 1968     		ldr	r1, [r3]
 843              		.loc 1 278 23 view .LVU190
 844 001c 026C     		ldr	r2, [r0, #64]
 845              		.loc 1 276 9 view .LVU191
 846 001e 01F03D01 		and	r1, r1, #61
 847              	.LVL58:
 848              		.loc 1 277 3 is_stmt 1 view .LVU192
 849              		.loc 1 277 15 is_stmt 0 view .LVU193
 850 0022 9960     		str	r1, [r3, #8]
 851              		.loc 1 278 3 is_stmt 1 view .LVU194
 852              		.loc 1 278 6 is_stmt 0 view .LVU195
 853 0024 0AB1     		cbz	r2, .L91
 854              		.loc 1 279 5 is_stmt 1 view .LVU196
 855 0026 406C     		ldr	r0, [r0, #68]
ARM GAS  /tmp/ccyM7dK0.s 			page 16


 856 0028 9047     		blx	r2
 857              	.LVL59:
 858              	.L91:
 859              		.loc 1 281 3 view .LVU197
 860 002a FFF7FEFF 		bl	_dbg_check_leave_isr
 861              	.LVL60:
 862              		.loc 1 281 3 view .LVU198
 863 002e 064B     		ldr	r3, .L99
 864 0030 1A68     		ldr	r2, [r3]
 865 0032 019B     		ldr	r3, [sp, #4]
 866 0034 5A40     		eors	r2, r3, r2
 867 0036 04D1     		bne	.L98
 868              		.loc 1 282 1 is_stmt 0 view .LVU199
 869 0038 03B0     		add	sp, sp, #12
 870              		.cfi_remember_state
 871              		.cfi_def_cfa_offset 4
 872              		@ sp needed
 873 003a 5DF804EB 		ldr	lr, [sp], #4
 874              		.cfi_restore 14
 875              		.cfi_def_cfa_offset 0
 876              		.loc 1 281 3 view .LVU200
 877 003e FFF7FEBF 		b	_port_irq_epilogue
 878              	.LVL61:
 879              	.L98:
 880              		.cfi_restore_state
 881 0042 FFF7FEFF 		bl	__stack_chk_fail
 882              	.LVL62:
 883              	.L100:
 884 0046 00BF     		.align	2
 885              	.L99:
 886 0048 00000000 		.word	.LC8
 887 004c 00640240 		.word	1073898496
 888 0050 00000000 		.word	.LANCHOR0
 889              		.cfi_endproc
 890              	.LFE264:
 891              		.size	Vector120, .-Vector120
 892              		.section	.rodata.Vector124.cst4,"aM",%progbits,4
 893              		.align	2
 894              	.LC9:
 895 0000 00000000 		.word	__stack_chk_guard
 896              		.section	.text.Vector124,"ax",%progbits
 897              		.align	1
 898              		.p2align 4,,15
 899              		.global	Vector124
 900              		.syntax unified
 901              		.thumb
 902              		.thumb_func
 903              		.fpu fpv4-sp-d16
 904              		.type	Vector124, %function
 905              	Vector124:
 906              	.LFB265:
 907              		.loc 1 289 29 is_stmt 1 view -0
 908              		.cfi_startproc
 909              		@ args = 0, pretend = 0, frame = 8
 910              		@ frame_needed = 0, uses_anonymous_args = 0
 911 0000 10B5     		push	{r4, lr}
 912              		.cfi_def_cfa_offset 8
ARM GAS  /tmp/ccyM7dK0.s 			page 17


 913              		.cfi_offset 4, -8
 914              		.cfi_offset 14, -4
 915 0002 124B     		ldr	r3, .L110
 916 0004 82B0     		sub	sp, sp, #8
 917              		.cfi_def_cfa_offset 16
 918              		.loc 1 289 29 is_stmt 0 view .LVU202
 919 0006 1B68     		ldr	r3, [r3]
 920 0008 0193     		str	r3, [sp, #4]
 921 000a 4FF00003 		mov	r3,#0
 922              		.loc 1 290 3 is_stmt 1 view .LVU203
 923              		.loc 1 292 3 view .LVU204
 924              		.loc 1 292 3 view .LVU205
 925 000e FFF7FEFF 		bl	_stats_increase_irq
 926              	.LVL63:
 927              		.loc 1 292 3 view .LVU206
 928 0012 FFF7FEFF 		bl	_dbg_check_enter_isr
 929              	.LVL64:
 930              		.loc 1 294 3 view .LVU207
 931              		.loc 1 294 16 is_stmt 0 view .LVU208
 932 0016 0E4B     		ldr	r3, .L110+4
 933              		.loc 1 296 23 view .LVU209
 934 0018 0E48     		ldr	r0, .L110+8
 935              		.loc 1 294 16 view .LVU210
 936 001a 1968     		ldr	r1, [r3]
 937              		.loc 1 296 23 view .LVU211
 938 001c 826C     		ldr	r2, [r0, #72]
 939              		.loc 1 294 23 view .LVU212
 940 001e 8909     		lsrs	r1, r1, #6
 941              		.loc 1 294 9 view .LVU213
 942 0020 01F03D01 		and	r1, r1, #61
 943              	.LVL65:
 944              		.loc 1 295 3 is_stmt 1 view .LVU214
 945              		.loc 1 295 23 is_stmt 0 view .LVU215
 946 0024 8C01     		lsls	r4, r1, #6
 947              		.loc 1 295 15 view .LVU216
 948 0026 9C60     		str	r4, [r3, #8]
 949              		.loc 1 296 3 is_stmt 1 view .LVU217
 950              		.loc 1 296 6 is_stmt 0 view .LVU218
 951 0028 0AB1     		cbz	r2, .L102
 952              		.loc 1 297 5 is_stmt 1 view .LVU219
 953 002a C06C     		ldr	r0, [r0, #76]
 954 002c 9047     		blx	r2
 955              	.LVL66:
 956              	.L102:
 957              		.loc 1 299 3 view .LVU220
 958 002e FFF7FEFF 		bl	_dbg_check_leave_isr
 959              	.LVL67:
 960              		.loc 1 299 3 view .LVU221
 961 0032 064B     		ldr	r3, .L110
 962 0034 1A68     		ldr	r2, [r3]
 963 0036 019B     		ldr	r3, [sp, #4]
 964 0038 5A40     		eors	r2, r3, r2
 965 003a 04D1     		bne	.L109
 966              		.loc 1 300 1 is_stmt 0 view .LVU222
 967 003c 02B0     		add	sp, sp, #8
 968              		.cfi_remember_state
 969              		.cfi_def_cfa_offset 8
ARM GAS  /tmp/ccyM7dK0.s 			page 18


 970              		@ sp needed
 971 003e BDE81040 		pop	{r4, lr}
 972              		.cfi_restore 14
 973              		.cfi_restore 4
 974              		.cfi_def_cfa_offset 0
 975              		.loc 1 299 3 view .LVU223
 976 0042 FFF7FEBF 		b	_port_irq_epilogue
 977              	.LVL68:
 978              	.L109:
 979              		.cfi_restore_state
 980 0046 FFF7FEFF 		bl	__stack_chk_fail
 981              	.LVL69:
 982              	.L111:
 983 004a 00BF     		.align	2
 984              	.L110:
 985 004c 00000000 		.word	.LC9
 986 0050 00640240 		.word	1073898496
 987 0054 00000000 		.word	.LANCHOR0
 988              		.cfi_endproc
 989              	.LFE265:
 990              		.size	Vector124, .-Vector124
 991              		.section	.rodata.Vector128.cst4,"aM",%progbits,4
 992              		.align	2
 993              	.LC10:
 994 0000 00000000 		.word	__stack_chk_guard
 995              		.section	.text.Vector128,"ax",%progbits
 996              		.align	1
 997              		.p2align 4,,15
 998              		.global	Vector128
 999              		.syntax unified
 1000              		.thumb
 1001              		.thumb_func
 1002              		.fpu fpv4-sp-d16
 1003              		.type	Vector128, %function
 1004              	Vector128:
 1005              	.LFB266:
 1006              		.loc 1 307 29 is_stmt 1 view -0
 1007              		.cfi_startproc
 1008              		@ args = 0, pretend = 0, frame = 8
 1009              		@ frame_needed = 0, uses_anonymous_args = 0
 1010 0000 10B5     		push	{r4, lr}
 1011              		.cfi_def_cfa_offset 8
 1012              		.cfi_offset 4, -8
 1013              		.cfi_offset 14, -4
 1014 0002 124B     		ldr	r3, .L121
 1015 0004 82B0     		sub	sp, sp, #8
 1016              		.cfi_def_cfa_offset 16
 1017              		.loc 1 307 29 is_stmt 0 view .LVU225
 1018 0006 1B68     		ldr	r3, [r3]
 1019 0008 0193     		str	r3, [sp, #4]
 1020 000a 4FF00003 		mov	r3,#0
 1021              		.loc 1 308 3 is_stmt 1 view .LVU226
 1022              		.loc 1 310 3 view .LVU227
 1023              		.loc 1 310 3 view .LVU228
 1024 000e FFF7FEFF 		bl	_stats_increase_irq
 1025              	.LVL70:
 1026              		.loc 1 310 3 view .LVU229
ARM GAS  /tmp/ccyM7dK0.s 			page 19


 1027 0012 FFF7FEFF 		bl	_dbg_check_enter_isr
 1028              	.LVL71:
 1029              		.loc 1 312 3 view .LVU230
 1030              		.loc 1 312 16 is_stmt 0 view .LVU231
 1031 0016 0E4B     		ldr	r3, .L121+4
 1032              		.loc 1 314 24 view .LVU232
 1033 0018 0E48     		ldr	r0, .L121+8
 1034              		.loc 1 312 16 view .LVU233
 1035 001a 1968     		ldr	r1, [r3]
 1036              		.loc 1 314 24 view .LVU234
 1037 001c 026D     		ldr	r2, [r0, #80]
 1038              		.loc 1 312 23 view .LVU235
 1039 001e 090C     		lsrs	r1, r1, #16
 1040              		.loc 1 312 9 view .LVU236
 1041 0020 01F03D01 		and	r1, r1, #61
 1042              	.LVL72:
 1043              		.loc 1 313 3 is_stmt 1 view .LVU237
 1044              		.loc 1 313 23 is_stmt 0 view .LVU238
 1045 0024 0C04     		lsls	r4, r1, #16
 1046              		.loc 1 313 15 view .LVU239
 1047 0026 9C60     		str	r4, [r3, #8]
 1048              		.loc 1 314 3 is_stmt 1 view .LVU240
 1049              		.loc 1 314 6 is_stmt 0 view .LVU241
 1050 0028 0AB1     		cbz	r2, .L113
 1051              		.loc 1 315 5 is_stmt 1 view .LVU242
 1052 002a 406D     		ldr	r0, [r0, #84]
 1053 002c 9047     		blx	r2
 1054              	.LVL73:
 1055              	.L113:
 1056              		.loc 1 317 3 view .LVU243
 1057 002e FFF7FEFF 		bl	_dbg_check_leave_isr
 1058              	.LVL74:
 1059              		.loc 1 317 3 view .LVU244
 1060 0032 064B     		ldr	r3, .L121
 1061 0034 1A68     		ldr	r2, [r3]
 1062 0036 019B     		ldr	r3, [sp, #4]
 1063 0038 5A40     		eors	r2, r3, r2
 1064 003a 04D1     		bne	.L120
 1065              		.loc 1 318 1 is_stmt 0 view .LVU245
 1066 003c 02B0     		add	sp, sp, #8
 1067              		.cfi_remember_state
 1068              		.cfi_def_cfa_offset 8
 1069              		@ sp needed
 1070 003e BDE81040 		pop	{r4, lr}
 1071              		.cfi_restore 14
 1072              		.cfi_restore 4
 1073              		.cfi_def_cfa_offset 0
 1074              		.loc 1 317 3 view .LVU246
 1075 0042 FFF7FEBF 		b	_port_irq_epilogue
 1076              	.LVL75:
 1077              	.L120:
 1078              		.cfi_restore_state
 1079 0046 FFF7FEFF 		bl	__stack_chk_fail
 1080              	.LVL76:
 1081              	.L122:
 1082 004a 00BF     		.align	2
 1083              	.L121:
ARM GAS  /tmp/ccyM7dK0.s 			page 20


 1084 004c 00000000 		.word	.LC10
 1085 0050 00640240 		.word	1073898496
 1086 0054 00000000 		.word	.LANCHOR0
 1087              		.cfi_endproc
 1088              	.LFE266:
 1089              		.size	Vector128, .-Vector128
 1090              		.section	.rodata.Vector12C.cst4,"aM",%progbits,4
 1091              		.align	2
 1092              	.LC11:
 1093 0000 00000000 		.word	__stack_chk_guard
 1094              		.section	.text.Vector12C,"ax",%progbits
 1095              		.align	1
 1096              		.p2align 4,,15
 1097              		.global	Vector12C
 1098              		.syntax unified
 1099              		.thumb
 1100              		.thumb_func
 1101              		.fpu fpv4-sp-d16
 1102              		.type	Vector12C, %function
 1103              	Vector12C:
 1104              	.LFB267:
 1105              		.loc 1 325 29 is_stmt 1 view -0
 1106              		.cfi_startproc
 1107              		@ args = 0, pretend = 0, frame = 8
 1108              		@ frame_needed = 0, uses_anonymous_args = 0
 1109 0000 10B5     		push	{r4, lr}
 1110              		.cfi_def_cfa_offset 8
 1111              		.cfi_offset 4, -8
 1112              		.cfi_offset 14, -4
 1113 0002 124B     		ldr	r3, .L132
 1114 0004 82B0     		sub	sp, sp, #8
 1115              		.cfi_def_cfa_offset 16
 1116              		.loc 1 325 29 is_stmt 0 view .LVU248
 1117 0006 1B68     		ldr	r3, [r3]
 1118 0008 0193     		str	r3, [sp, #4]
 1119 000a 4FF00003 		mov	r3,#0
 1120              		.loc 1 326 3 is_stmt 1 view .LVU249
 1121              		.loc 1 328 3 view .LVU250
 1122              		.loc 1 328 3 view .LVU251
 1123 000e FFF7FEFF 		bl	_stats_increase_irq
 1124              	.LVL77:
 1125              		.loc 1 328 3 view .LVU252
 1126 0012 FFF7FEFF 		bl	_dbg_check_enter_isr
 1127              	.LVL78:
 1128              		.loc 1 330 3 view .LVU253
 1129              		.loc 1 330 16 is_stmt 0 view .LVU254
 1130 0016 0E4B     		ldr	r3, .L132+4
 1131              		.loc 1 332 24 view .LVU255
 1132 0018 0E48     		ldr	r0, .L132+8
 1133              		.loc 1 330 16 view .LVU256
 1134 001a 1968     		ldr	r1, [r3]
 1135              		.loc 1 332 24 view .LVU257
 1136 001c 826D     		ldr	r2, [r0, #88]
 1137              		.loc 1 330 23 view .LVU258
 1138 001e 890D     		lsrs	r1, r1, #22
 1139              		.loc 1 330 9 view .LVU259
 1140 0020 01F03D01 		and	r1, r1, #61
ARM GAS  /tmp/ccyM7dK0.s 			page 21


 1141              	.LVL79:
 1142              		.loc 1 331 3 is_stmt 1 view .LVU260
 1143              		.loc 1 331 23 is_stmt 0 view .LVU261
 1144 0024 8C05     		lsls	r4, r1, #22
 1145              		.loc 1 331 15 view .LVU262
 1146 0026 9C60     		str	r4, [r3, #8]
 1147              		.loc 1 332 3 is_stmt 1 view .LVU263
 1148              		.loc 1 332 6 is_stmt 0 view .LVU264
 1149 0028 0AB1     		cbz	r2, .L124
 1150              		.loc 1 333 5 is_stmt 1 view .LVU265
 1151 002a C06D     		ldr	r0, [r0, #92]
 1152 002c 9047     		blx	r2
 1153              	.LVL80:
 1154              	.L124:
 1155              		.loc 1 335 3 view .LVU266
 1156 002e FFF7FEFF 		bl	_dbg_check_leave_isr
 1157              	.LVL81:
 1158              		.loc 1 335 3 view .LVU267
 1159 0032 064B     		ldr	r3, .L132
 1160 0034 1A68     		ldr	r2, [r3]
 1161 0036 019B     		ldr	r3, [sp, #4]
 1162 0038 5A40     		eors	r2, r3, r2
 1163 003a 04D1     		bne	.L131
 1164              		.loc 1 336 1 is_stmt 0 view .LVU268
 1165 003c 02B0     		add	sp, sp, #8
 1166              		.cfi_remember_state
 1167              		.cfi_def_cfa_offset 8
 1168              		@ sp needed
 1169 003e BDE81040 		pop	{r4, lr}
 1170              		.cfi_restore 14
 1171              		.cfi_restore 4
 1172              		.cfi_def_cfa_offset 0
 1173              		.loc 1 335 3 view .LVU269
 1174 0042 FFF7FEBF 		b	_port_irq_epilogue
 1175              	.LVL82:
 1176              	.L131:
 1177              		.cfi_restore_state
 1178 0046 FFF7FEFF 		bl	__stack_chk_fail
 1179              	.LVL83:
 1180              	.L133:
 1181 004a 00BF     		.align	2
 1182              	.L132:
 1183 004c 00000000 		.word	.LC11
 1184 0050 00640240 		.word	1073898496
 1185 0054 00000000 		.word	.LANCHOR0
 1186              		.cfi_endproc
 1187              	.LFE267:
 1188              		.size	Vector12C, .-Vector12C
 1189              		.section	.rodata.Vector130.cst4,"aM",%progbits,4
 1190              		.align	2
 1191              	.LC12:
 1192 0000 00000000 		.word	__stack_chk_guard
 1193              		.section	.text.Vector130,"ax",%progbits
 1194              		.align	1
 1195              		.p2align 4,,15
 1196              		.global	Vector130
 1197              		.syntax unified
ARM GAS  /tmp/ccyM7dK0.s 			page 22


 1198              		.thumb
 1199              		.thumb_func
 1200              		.fpu fpv4-sp-d16
 1201              		.type	Vector130, %function
 1202              	Vector130:
 1203              	.LFB268:
 1204              		.loc 1 343 29 is_stmt 1 view -0
 1205              		.cfi_startproc
 1206              		@ args = 0, pretend = 0, frame = 8
 1207              		@ frame_needed = 0, uses_anonymous_args = 0
 1208 0000 00B5     		push	{lr}
 1209              		.cfi_def_cfa_offset 4
 1210              		.cfi_offset 14, -4
 1211 0002 114B     		ldr	r3, .L143
 1212 0004 83B0     		sub	sp, sp, #12
 1213              		.cfi_def_cfa_offset 16
 1214              		.loc 1 343 29 is_stmt 0 view .LVU271
 1215 0006 1B68     		ldr	r3, [r3]
 1216 0008 0193     		str	r3, [sp, #4]
 1217 000a 4FF00003 		mov	r3,#0
 1218              		.loc 1 344 3 is_stmt 1 view .LVU272
 1219              		.loc 1 346 3 view .LVU273
 1220              		.loc 1 346 3 view .LVU274
 1221 000e FFF7FEFF 		bl	_stats_increase_irq
 1222              	.LVL84:
 1223              		.loc 1 346 3 view .LVU275
 1224 0012 FFF7FEFF 		bl	_dbg_check_enter_isr
 1225              	.LVL85:
 1226              		.loc 1 348 3 view .LVU276
 1227              		.loc 1 348 23 is_stmt 0 view .LVU277
 1228 0016 0D4B     		ldr	r3, .L143+4
 1229              		.loc 1 350 24 view .LVU278
 1230 0018 0D48     		ldr	r0, .L143+8
 1231              		.loc 1 348 23 view .LVU279
 1232 001a 5968     		ldr	r1, [r3, #4]
 1233              		.loc 1 350 24 view .LVU280
 1234 001c 026E     		ldr	r2, [r0, #96]
 1235              		.loc 1 348 9 view .LVU281
 1236 001e 01F03D01 		and	r1, r1, #61
 1237              	.LVL86:
 1238              		.loc 1 349 3 is_stmt 1 view .LVU282
 1239              		.loc 1 349 15 is_stmt 0 view .LVU283
 1240 0022 D960     		str	r1, [r3, #12]
 1241              		.loc 1 350 3 is_stmt 1 view .LVU284
 1242              		.loc 1 350 6 is_stmt 0 view .LVU285
 1243 0024 0AB1     		cbz	r2, .L135
 1244              		.loc 1 351 5 is_stmt 1 view .LVU286
 1245 0026 406E     		ldr	r0, [r0, #100]
 1246 0028 9047     		blx	r2
 1247              	.LVL87:
 1248              	.L135:
 1249              		.loc 1 353 3 view .LVU287
 1250 002a FFF7FEFF 		bl	_dbg_check_leave_isr
 1251              	.LVL88:
 1252              		.loc 1 353 3 view .LVU288
 1253 002e 064B     		ldr	r3, .L143
 1254 0030 1A68     		ldr	r2, [r3]
ARM GAS  /tmp/ccyM7dK0.s 			page 23


 1255 0032 019B     		ldr	r3, [sp, #4]
 1256 0034 5A40     		eors	r2, r3, r2
 1257 0036 04D1     		bne	.L142
 1258              		.loc 1 354 1 is_stmt 0 view .LVU289
 1259 0038 03B0     		add	sp, sp, #12
 1260              		.cfi_remember_state
 1261              		.cfi_def_cfa_offset 4
 1262              		@ sp needed
 1263 003a 5DF804EB 		ldr	lr, [sp], #4
 1264              		.cfi_restore 14
 1265              		.cfi_def_cfa_offset 0
 1266              		.loc 1 353 3 view .LVU290
 1267 003e FFF7FEBF 		b	_port_irq_epilogue
 1268              	.LVL89:
 1269              	.L142:
 1270              		.cfi_restore_state
 1271 0042 FFF7FEFF 		bl	__stack_chk_fail
 1272              	.LVL90:
 1273              	.L144:
 1274 0046 00BF     		.align	2
 1275              	.L143:
 1276 0048 00000000 		.word	.LC12
 1277 004c 00640240 		.word	1073898496
 1278 0050 00000000 		.word	.LANCHOR0
 1279              		.cfi_endproc
 1280              	.LFE268:
 1281              		.size	Vector130, .-Vector130
 1282              		.section	.rodata.Vector150.cst4,"aM",%progbits,4
 1283              		.align	2
 1284              	.LC13:
 1285 0000 00000000 		.word	__stack_chk_guard
 1286              		.section	.text.Vector150,"ax",%progbits
 1287              		.align	1
 1288              		.p2align 4,,15
 1289              		.global	Vector150
 1290              		.syntax unified
 1291              		.thumb
 1292              		.thumb_func
 1293              		.fpu fpv4-sp-d16
 1294              		.type	Vector150, %function
 1295              	Vector150:
 1296              	.LFB269:
 1297              		.loc 1 361 29 is_stmt 1 view -0
 1298              		.cfi_startproc
 1299              		@ args = 0, pretend = 0, frame = 8
 1300              		@ frame_needed = 0, uses_anonymous_args = 0
 1301 0000 10B5     		push	{r4, lr}
 1302              		.cfi_def_cfa_offset 8
 1303              		.cfi_offset 4, -8
 1304              		.cfi_offset 14, -4
 1305 0002 124B     		ldr	r3, .L154
 1306 0004 82B0     		sub	sp, sp, #8
 1307              		.cfi_def_cfa_offset 16
 1308              		.loc 1 361 29 is_stmt 0 view .LVU292
 1309 0006 1B68     		ldr	r3, [r3]
 1310 0008 0193     		str	r3, [sp, #4]
 1311 000a 4FF00003 		mov	r3,#0
ARM GAS  /tmp/ccyM7dK0.s 			page 24


 1312              		.loc 1 362 3 is_stmt 1 view .LVU293
 1313              		.loc 1 364 3 view .LVU294
 1314              		.loc 1 364 3 view .LVU295
 1315 000e FFF7FEFF 		bl	_stats_increase_irq
 1316              	.LVL91:
 1317              		.loc 1 364 3 view .LVU296
 1318 0012 FFF7FEFF 		bl	_dbg_check_enter_isr
 1319              	.LVL92:
 1320              		.loc 1 366 3 view .LVU297
 1321              		.loc 1 366 16 is_stmt 0 view .LVU298
 1322 0016 0E4B     		ldr	r3, .L154+4
 1323              		.loc 1 368 24 view .LVU299
 1324 0018 0E48     		ldr	r0, .L154+8
 1325              		.loc 1 366 16 view .LVU300
 1326 001a 5968     		ldr	r1, [r3, #4]
 1327              		.loc 1 368 24 view .LVU301
 1328 001c 826E     		ldr	r2, [r0, #104]
 1329              		.loc 1 366 23 view .LVU302
 1330 001e 8909     		lsrs	r1, r1, #6
 1331              		.loc 1 366 9 view .LVU303
 1332 0020 01F03D01 		and	r1, r1, #61
 1333              	.LVL93:
 1334              		.loc 1 367 3 is_stmt 1 view .LVU304
 1335              		.loc 1 367 23 is_stmt 0 view .LVU305
 1336 0024 8C01     		lsls	r4, r1, #6
 1337              		.loc 1 367 15 view .LVU306
 1338 0026 DC60     		str	r4, [r3, #12]
 1339              		.loc 1 368 3 is_stmt 1 view .LVU307
 1340              		.loc 1 368 6 is_stmt 0 view .LVU308
 1341 0028 0AB1     		cbz	r2, .L146
 1342              		.loc 1 369 5 is_stmt 1 view .LVU309
 1343 002a C06E     		ldr	r0, [r0, #108]
 1344 002c 9047     		blx	r2
 1345              	.LVL94:
 1346              	.L146:
 1347              		.loc 1 371 3 view .LVU310
 1348 002e FFF7FEFF 		bl	_dbg_check_leave_isr
 1349              	.LVL95:
 1350              		.loc 1 371 3 view .LVU311
 1351 0032 064B     		ldr	r3, .L154
 1352 0034 1A68     		ldr	r2, [r3]
 1353 0036 019B     		ldr	r3, [sp, #4]
 1354 0038 5A40     		eors	r2, r3, r2
 1355 003a 04D1     		bne	.L153
 1356              		.loc 1 372 1 is_stmt 0 view .LVU312
 1357 003c 02B0     		add	sp, sp, #8
 1358              		.cfi_remember_state
 1359              		.cfi_def_cfa_offset 8
 1360              		@ sp needed
 1361 003e BDE81040 		pop	{r4, lr}
 1362              		.cfi_restore 14
 1363              		.cfi_restore 4
 1364              		.cfi_def_cfa_offset 0
 1365              		.loc 1 371 3 view .LVU313
 1366 0042 FFF7FEBF 		b	_port_irq_epilogue
 1367              	.LVL96:
 1368              	.L153:
ARM GAS  /tmp/ccyM7dK0.s 			page 25


 1369              		.cfi_restore_state
 1370 0046 FFF7FEFF 		bl	__stack_chk_fail
 1371              	.LVL97:
 1372              	.L155:
 1373 004a 00BF     		.align	2
 1374              	.L154:
 1375 004c 00000000 		.word	.LC13
 1376 0050 00640240 		.word	1073898496
 1377 0054 00000000 		.word	.LANCHOR0
 1378              		.cfi_endproc
 1379              	.LFE269:
 1380              		.size	Vector150, .-Vector150
 1381              		.section	.rodata.Vector154.cst4,"aM",%progbits,4
 1382              		.align	2
 1383              	.LC14:
 1384 0000 00000000 		.word	__stack_chk_guard
 1385              		.section	.text.Vector154,"ax",%progbits
 1386              		.align	1
 1387              		.p2align 4,,15
 1388              		.global	Vector154
 1389              		.syntax unified
 1390              		.thumb
 1391              		.thumb_func
 1392              		.fpu fpv4-sp-d16
 1393              		.type	Vector154, %function
 1394              	Vector154:
 1395              	.LFB270:
 1396              		.loc 1 379 29 is_stmt 1 view -0
 1397              		.cfi_startproc
 1398              		@ args = 0, pretend = 0, frame = 8
 1399              		@ frame_needed = 0, uses_anonymous_args = 0
 1400 0000 10B5     		push	{r4, lr}
 1401              		.cfi_def_cfa_offset 8
 1402              		.cfi_offset 4, -8
 1403              		.cfi_offset 14, -4
 1404 0002 124B     		ldr	r3, .L165
 1405 0004 82B0     		sub	sp, sp, #8
 1406              		.cfi_def_cfa_offset 16
 1407              		.loc 1 379 29 is_stmt 0 view .LVU315
 1408 0006 1B68     		ldr	r3, [r3]
 1409 0008 0193     		str	r3, [sp, #4]
 1410 000a 4FF00003 		mov	r3,#0
 1411              		.loc 1 380 3 is_stmt 1 view .LVU316
 1412              		.loc 1 382 3 view .LVU317
 1413              		.loc 1 382 3 view .LVU318
 1414 000e FFF7FEFF 		bl	_stats_increase_irq
 1415              	.LVL98:
 1416              		.loc 1 382 3 view .LVU319
 1417 0012 FFF7FEFF 		bl	_dbg_check_enter_isr
 1418              	.LVL99:
 1419              		.loc 1 384 3 view .LVU320
 1420              		.loc 1 384 16 is_stmt 0 view .LVU321
 1421 0016 0E4B     		ldr	r3, .L165+4
 1422              		.loc 1 386 24 view .LVU322
 1423 0018 0E48     		ldr	r0, .L165+8
 1424              		.loc 1 384 16 view .LVU323
 1425 001a 5968     		ldr	r1, [r3, #4]
ARM GAS  /tmp/ccyM7dK0.s 			page 26


 1426              		.loc 1 386 24 view .LVU324
 1427 001c 026F     		ldr	r2, [r0, #112]
 1428              		.loc 1 384 23 view .LVU325
 1429 001e 090C     		lsrs	r1, r1, #16
 1430              		.loc 1 384 9 view .LVU326
 1431 0020 01F03D01 		and	r1, r1, #61
 1432              	.LVL100:
 1433              		.loc 1 385 3 is_stmt 1 view .LVU327
 1434              		.loc 1 385 23 is_stmt 0 view .LVU328
 1435 0024 0C04     		lsls	r4, r1, #16
 1436              		.loc 1 385 15 view .LVU329
 1437 0026 DC60     		str	r4, [r3, #12]
 1438              		.loc 1 386 3 is_stmt 1 view .LVU330
 1439              		.loc 1 386 6 is_stmt 0 view .LVU331
 1440 0028 0AB1     		cbz	r2, .L157
 1441              		.loc 1 387 5 is_stmt 1 view .LVU332
 1442 002a 406F     		ldr	r0, [r0, #116]
 1443 002c 9047     		blx	r2
 1444              	.LVL101:
 1445              	.L157:
 1446              		.loc 1 389 3 view .LVU333
 1447 002e FFF7FEFF 		bl	_dbg_check_leave_isr
 1448              	.LVL102:
 1449              		.loc 1 389 3 view .LVU334
 1450 0032 064B     		ldr	r3, .L165
 1451 0034 1A68     		ldr	r2, [r3]
 1452 0036 019B     		ldr	r3, [sp, #4]
 1453 0038 5A40     		eors	r2, r3, r2
 1454 003a 04D1     		bne	.L164
 1455              		.loc 1 390 1 is_stmt 0 view .LVU335
 1456 003c 02B0     		add	sp, sp, #8
 1457              		.cfi_remember_state
 1458              		.cfi_def_cfa_offset 8
 1459              		@ sp needed
 1460 003e BDE81040 		pop	{r4, lr}
 1461              		.cfi_restore 14
 1462              		.cfi_restore 4
 1463              		.cfi_def_cfa_offset 0
 1464              		.loc 1 389 3 view .LVU336
 1465 0042 FFF7FEBF 		b	_port_irq_epilogue
 1466              	.LVL103:
 1467              	.L164:
 1468              		.cfi_restore_state
 1469 0046 FFF7FEFF 		bl	__stack_chk_fail
 1470              	.LVL104:
 1471              	.L166:
 1472 004a 00BF     		.align	2
 1473              	.L165:
 1474 004c 00000000 		.word	.LC14
 1475 0050 00640240 		.word	1073898496
 1476 0054 00000000 		.word	.LANCHOR0
 1477              		.cfi_endproc
 1478              	.LFE270:
 1479              		.size	Vector154, .-Vector154
 1480              		.section	.rodata.Vector158.cst4,"aM",%progbits,4
 1481              		.align	2
 1482              	.LC15:
ARM GAS  /tmp/ccyM7dK0.s 			page 27


 1483 0000 00000000 		.word	__stack_chk_guard
 1484              		.section	.text.Vector158,"ax",%progbits
 1485              		.align	1
 1486              		.p2align 4,,15
 1487              		.global	Vector158
 1488              		.syntax unified
 1489              		.thumb
 1490              		.thumb_func
 1491              		.fpu fpv4-sp-d16
 1492              		.type	Vector158, %function
 1493              	Vector158:
 1494              	.LFB271:
 1495              		.loc 1 397 29 is_stmt 1 view -0
 1496              		.cfi_startproc
 1497              		@ args = 0, pretend = 0, frame = 8
 1498              		@ frame_needed = 0, uses_anonymous_args = 0
 1499 0000 10B5     		push	{r4, lr}
 1500              		.cfi_def_cfa_offset 8
 1501              		.cfi_offset 4, -8
 1502              		.cfi_offset 14, -4
 1503 0002 124B     		ldr	r3, .L176
 1504 0004 82B0     		sub	sp, sp, #8
 1505              		.cfi_def_cfa_offset 16
 1506              		.loc 1 397 29 is_stmt 0 view .LVU338
 1507 0006 1B68     		ldr	r3, [r3]
 1508 0008 0193     		str	r3, [sp, #4]
 1509 000a 4FF00003 		mov	r3,#0
 1510              		.loc 1 398 3 is_stmt 1 view .LVU339
 1511              		.loc 1 400 3 view .LVU340
 1512              		.loc 1 400 3 view .LVU341
 1513 000e FFF7FEFF 		bl	_stats_increase_irq
 1514              	.LVL105:
 1515              		.loc 1 400 3 view .LVU342
 1516 0012 FFF7FEFF 		bl	_dbg_check_enter_isr
 1517              	.LVL106:
 1518              		.loc 1 402 3 view .LVU343
 1519              		.loc 1 402 16 is_stmt 0 view .LVU344
 1520 0016 0E4B     		ldr	r3, .L176+4
 1521              		.loc 1 404 24 view .LVU345
 1522 0018 0E48     		ldr	r0, .L176+8
 1523              		.loc 1 402 16 view .LVU346
 1524 001a 5968     		ldr	r1, [r3, #4]
 1525              		.loc 1 404 24 view .LVU347
 1526 001c 826F     		ldr	r2, [r0, #120]
 1527              		.loc 1 402 23 view .LVU348
 1528 001e 890D     		lsrs	r1, r1, #22
 1529              		.loc 1 402 9 view .LVU349
 1530 0020 01F03D01 		and	r1, r1, #61
 1531              	.LVL107:
 1532              		.loc 1 403 3 is_stmt 1 view .LVU350
 1533              		.loc 1 403 23 is_stmt 0 view .LVU351
 1534 0024 8C05     		lsls	r4, r1, #22
 1535              		.loc 1 403 15 view .LVU352
 1536 0026 DC60     		str	r4, [r3, #12]
 1537              		.loc 1 404 3 is_stmt 1 view .LVU353
 1538              		.loc 1 404 6 is_stmt 0 view .LVU354
 1539 0028 0AB1     		cbz	r2, .L168
ARM GAS  /tmp/ccyM7dK0.s 			page 28


 1540              		.loc 1 405 5 is_stmt 1 view .LVU355
 1541 002a C06F     		ldr	r0, [r0, #124]
 1542 002c 9047     		blx	r2
 1543              	.LVL108:
 1544              	.L168:
 1545              		.loc 1 407 3 view .LVU356
 1546 002e FFF7FEFF 		bl	_dbg_check_leave_isr
 1547              	.LVL109:
 1548              		.loc 1 407 3 view .LVU357
 1549 0032 064B     		ldr	r3, .L176
 1550 0034 1A68     		ldr	r2, [r3]
 1551 0036 019B     		ldr	r3, [sp, #4]
 1552 0038 5A40     		eors	r2, r3, r2
 1553 003a 04D1     		bne	.L175
 1554              		.loc 1 408 1 is_stmt 0 view .LVU358
 1555 003c 02B0     		add	sp, sp, #8
 1556              		.cfi_remember_state
 1557              		.cfi_def_cfa_offset 8
 1558              		@ sp needed
 1559 003e BDE81040 		pop	{r4, lr}
 1560              		.cfi_restore 14
 1561              		.cfi_restore 4
 1562              		.cfi_def_cfa_offset 0
 1563              		.loc 1 407 3 view .LVU359
 1564 0042 FFF7FEBF 		b	_port_irq_epilogue
 1565              	.LVL110:
 1566              	.L175:
 1567              		.cfi_restore_state
 1568 0046 FFF7FEFF 		bl	__stack_chk_fail
 1569              	.LVL111:
 1570              	.L177:
 1571 004a 00BF     		.align	2
 1572              	.L176:
 1573 004c 00000000 		.word	.LC15
 1574 0050 00640240 		.word	1073898496
 1575 0054 00000000 		.word	.LANCHOR0
 1576              		.cfi_endproc
 1577              	.LFE271:
 1578              		.size	Vector158, .-Vector158
 1579              		.section	.rodata.dmaInit.cst4,"aM",%progbits,4
 1580              		.align	2
 1581              	.LC16:
 1582 0000 00000000 		.word	__stack_chk_guard
 1583              		.section	.text.dmaInit,"ax",%progbits
 1584              		.align	1
 1585              		.p2align 4,,15
 1586              		.global	dmaInit
 1587              		.syntax unified
 1588              		.thumb
 1589              		.thumb_func
 1590              		.fpu fpv4-sp-d16
 1591              		.type	dmaInit, %function
 1592              	dmaInit:
 1593              	.LFB272:
 1594              		.loc 1 419 20 is_stmt 1 view -0
 1595              		.cfi_startproc
 1596              		@ args = 0, pretend = 0, frame = 8
ARM GAS  /tmp/ccyM7dK0.s 			page 29


 1597              		@ frame_needed = 0, uses_anonymous_args = 0
 1598 0000 10B5     		push	{r4, lr}
 1599              		.cfi_def_cfa_offset 8
 1600              		.cfi_offset 4, -8
 1601              		.cfi_offset 14, -4
 1602              		.loc 1 422 20 is_stmt 0 view .LVU361
 1603 0002 1649     		ldr	r1, .L186
 1604              		.loc 1 419 20 view .LVU362
 1605 0004 DFF86CC0 		ldr	ip, .L186+24
 1606 0008 154A     		ldr	r2, .L186+4
 1607              		.loc 1 422 20 view .LVU363
 1608 000a 1648     		ldr	r0, .L186+8
 1609 000c 164C     		ldr	r4, .L186+12
 1610 000e 0023     		movs	r3, #0
 1611 0010 0B60     		str	r3, [r1]
 1612              		.loc 1 419 20 view .LVU364
 1613 0012 82B0     		sub	sp, sp, #8
 1614              		.cfi_def_cfa_offset 16
 1615              		.loc 1 424 38 view .LVU365
 1616 0014 1946     		mov	r1, r3
 1617              		.loc 1 419 20 view .LVU366
 1618 0016 DCF800C0 		ldr	ip, [ip]
 1619 001a CDF804C0 		str	ip, [sp, #4]
 1620 001e 4FF0000C 		mov	ip,#0
 1621              		.loc 1 420 3 is_stmt 1 view .LVU367
 1622              		.loc 1 422 3 view .LVU368
 1623              		.loc 1 423 3 view .LVU369
 1624              	.LVL112:
 1625              		.loc 1 423 15 view .LVU370
 1626 0022 01E0     		b	.L180
 1627              	.LVL113:
 1628              	.L184:
 1629              		.loc 1 423 15 is_stmt 0 view .LVU371
 1630 0024 52F80C0C 		ldr	r0, [r2, #-12]
 1631              	.LVL114:
 1632              	.L180:
 1633              		.loc 1 424 5 is_stmt 1 discriminator 3 view .LVU372
 1634              		.loc 1 424 38 is_stmt 0 discriminator 3 view .LVU373
 1635 0028 0160     		str	r1, [r0]
 1636              		.loc 1 425 5 is_stmt 1 discriminator 3 view .LVU374
 1637              		.loc 1 425 31 is_stmt 0 discriminator 3 view .LVU375
 1638 002a 44F83310 		str	r1, [r4, r3, lsl #3]
 1639              		.loc 1 423 38 is_stmt 1 discriminator 3 view .LVU376
 1640              		.loc 1 423 39 is_stmt 0 discriminator 3 view .LVU377
 1641 002e 0133     		adds	r3, r3, #1
 1642              	.LVL115:
 1643              		.loc 1 423 15 is_stmt 1 discriminator 3 view .LVU378
 1644              		.loc 1 423 3 is_stmt 0 discriminator 3 view .LVU379
 1645 0030 102B     		cmp	r3, #16
 1646 0032 02F10C02 		add	r2, r2, #12
 1647 0036 F5D1     		bne	.L184
 1648              		.loc 1 427 3 is_stmt 1 view .LVU380
 1649              		.loc 1 429 15 is_stmt 0 view .LVU381
 1650 0038 0C4A     		ldr	r2, .L186+16
 1651              		.loc 1 427 15 view .LVU382
 1652 003a 0D49     		ldr	r1, .L186+20
 1653 003c 4FF0FF33 		mov	r3, #-1
ARM GAS  /tmp/ccyM7dK0.s 			page 30


 1654              	.LVL116:
 1655              		.loc 1 427 15 view .LVU383
 1656 0040 8B60     		str	r3, [r1, #8]
 1657              		.loc 1 428 3 is_stmt 1 view .LVU384
 1658              		.loc 1 428 15 is_stmt 0 view .LVU385
 1659 0042 CB60     		str	r3, [r1, #12]
 1660              		.loc 1 429 3 is_stmt 1 view .LVU386
 1661              		.loc 1 429 15 is_stmt 0 view .LVU387
 1662 0044 9360     		str	r3, [r2, #8]
 1663              		.loc 1 430 3 is_stmt 1 view .LVU388
 1664              		.loc 1 430 15 is_stmt 0 view .LVU389
 1665 0046 D360     		str	r3, [r2, #12]
 1666              		.loc 1 431 1 view .LVU390
 1667 0048 0A4B     		ldr	r3, .L186+24
 1668 004a 1A68     		ldr	r2, [r3]
 1669 004c 019B     		ldr	r3, [sp, #4]
 1670 004e 5A40     		eors	r2, r3, r2
 1671 0050 01D1     		bne	.L185
 1672 0052 02B0     		add	sp, sp, #8
 1673              		.cfi_remember_state
 1674              		.cfi_def_cfa_offset 8
 1675              		@ sp needed
 1676 0054 10BD     		pop	{r4, pc}
 1677              	.L185:
 1678              		.cfi_restore_state
 1679 0056 FFF7FEFF 		bl	__stack_chk_fail
 1680              	.LVL117:
 1681              	.L187:
 1682 005a 00BF     		.align	2
 1683              	.L186:
 1684 005c 00000000 		.word	.LANCHOR1
 1685 0060 0C000000 		.word	.LANCHOR2+12
 1686 0064 10600240 		.word	1073897488
 1687 0068 00000000 		.word	.LANCHOR0
 1688 006c 00640240 		.word	1073898496
 1689 0070 00600240 		.word	1073897472
 1690 0074 00000000 		.word	.LC16
 1691              		.cfi_endproc
 1692              	.LFE272:
 1693              		.size	dmaInit, .-dmaInit
 1694              		.section	.rodata.dmaStreamAllocate.cst4,"aM",%progbits,4
 1695              		.align	2
 1696              	.LC17:
 1697 0000 00000000 		.word	__stack_chk_guard
 1698              		.section	.text.dmaStreamAllocate,"ax",%progbits
 1699              		.align	1
 1700              		.p2align 4,,15
 1701              		.global	dmaStreamAllocate
 1702              		.syntax unified
 1703              		.thumb
 1704              		.thumb_func
 1705              		.fpu fpv4-sp-d16
 1706              		.type	dmaStreamAllocate, %function
 1707              	dmaStreamAllocate:
 1708              	.LVL118:
 1709              	.LFB273:
 1710              		.loc 1 460 37 is_stmt 1 view -0
ARM GAS  /tmp/ccyM7dK0.s 			page 31


 1711              		.cfi_startproc
 1712              		@ args = 0, pretend = 0, frame = 16
 1713              		@ frame_needed = 0, uses_anonymous_args = 0
 1714              		.loc 1 460 37 is_stmt 0 view .LVU392
 1715 0000 2DE9F043 		push	{r4, r5, r6, r7, r8, r9, lr}
 1716              		.cfi_def_cfa_offset 28
 1717              		.cfi_offset 4, -28
 1718              		.cfi_offset 5, -24
 1719              		.cfi_offset 6, -20
 1720              		.cfi_offset 7, -16
 1721              		.cfi_offset 8, -12
 1722              		.cfi_offset 9, -8
 1723              		.cfi_offset 14, -4
 1724 0004 9946     		mov	r9, r3
 1725 0006 2F4B     		ldr	r3, .L208
 1726              	.LVL119:
 1727              		.loc 1 460 37 view .LVU393
 1728 0008 85B0     		sub	sp, sp, #20
 1729              		.cfi_def_cfa_offset 48
 1730              		.loc 1 460 37 view .LVU394
 1731 000a 8846     		mov	r8, r1
 1732 000c 1B68     		ldr	r3, [r3]
 1733 000e 0393     		str	r3, [sp, #12]
 1734 0010 4FF00003 		mov	r3,#0
 1735              		.loc 1 462 3 is_stmt 1 view .LVU395
 1736              		.loc 1 462 3 view .LVU396
 1737              		.loc 1 462 3 view .LVU397
 1738 0014 0646     		mov	r6, r0
 1739 0016 0028     		cmp	r0, #0
 1740 0018 4BD0     		beq	.L205
 1741              	.LVL120:
 1742              	.L189:
 1743              		.loc 1 462 3 discriminator 5 view .LVU398
 1744              		.loc 1 465 3 discriminator 5 view .LVU399
 1745              		.loc 1 465 25 is_stmt 0 discriminator 5 view .LVU400
 1746 001a 2B4F     		ldr	r7, .L208+4
 1747              		.loc 1 465 39 discriminator 5 view .LVU401
 1748 001c 757A     		ldrb	r5, [r6, #9]	@ zero_extendqisi2
 1749              		.loc 1 465 25 discriminator 5 view .LVU402
 1750 001e 3968     		ldr	r1, [r7]
 1751              		.loc 1 465 30 discriminator 5 view .LVU403
 1752 0020 0124     		movs	r4, #1
 1753 0022 04FA05F0 		lsl	r0, r4, r5
 1754              		.loc 1 465 6 discriminator 5 view .LVU404
 1755 0026 0842     		tst	r0, r1
 1756 0028 41D1     		bne	.L195
 1757              		.loc 1 469 3 is_stmt 1 view .LVU405
 1758              		.loc 1 469 46 is_stmt 0 view .LVU406
 1759 002a 2848     		ldr	r0, .L208+8
 1760 002c 40F83520 		str	r2, [r0, r5, lsl #3]
 1761              		.loc 1 470 3 is_stmt 1 view .LVU407
 1762              		.loc 1 470 23 is_stmt 0 view .LVU408
 1763 0030 757A     		ldrb	r5, [r6, #9]	@ zero_extendqisi2
 1764              		.loc 1 470 46 view .LVU409
 1765 0032 00EBC500 		add	r0, r0, r5, lsl #3
 1766 0036 C0F80490 		str	r9, [r0, #4]
 1767              		.loc 1 471 3 is_stmt 1 view .LVU410
ARM GAS  /tmp/ccyM7dK0.s 			page 32


 1768              		.loc 1 471 35 is_stmt 0 view .LVU411
 1769 003a 757A     		ldrb	r5, [r6, #9]	@ zero_extendqisi2
 1770              		.loc 1 471 26 view .LVU412
 1771 003c 04FA05F5 		lsl	r5, r4, r5
 1772              		.loc 1 471 20 view .LVU413
 1773 0040 0D43     		orrs	r5, r5, r1
 1774              		.loc 1 474 6 view .LVU414
 1775 0042 15F0FF0F 		tst	r5, #255
 1776              		.loc 1 471 20 view .LVU415
 1777 0046 3D60     		str	r5, [r7]
 1778              		.loc 1 474 3 is_stmt 1 view .LVU416
 1779              		.loc 1 474 6 is_stmt 0 view .LVU417
 1780 0048 04D0     		beq	.L191
 1781              		.loc 1 475 5 is_stmt 1 view .LVU418
 1782 004a 2148     		ldr	r0, .L208+12
 1783 004c 036B     		ldr	r3, [r0, #48]
 1784 004e 43F40013 		orr	r3, r3, #2097152
 1785 0052 0363     		str	r3, [r0, #48]
 1786              		.loc 1 475 5 view .LVU419
 1787              	.L191:
 1788              		.loc 1 475 25 discriminator 3 view .LVU420
 1789              		.loc 1 476 3 discriminator 3 view .LVU421
 1790              		.loc 1 476 6 is_stmt 0 discriminator 3 view .LVU422
 1791 0054 15F47F4F 		tst	r5, #65280
 1792 0058 21D1     		bne	.L206
 1793              	.L192:
 1794              		.loc 1 477 25 is_stmt 1 discriminator 3 view .LVU423
 1795              		.loc 1 480 3 discriminator 3 view .LVU424
 1796 005a 3068     		ldr	r0, [r6]
 1797 005c 0368     		ldr	r3, [r0]
 1798 005e 23F01F03 		bic	r3, r3, #31
 1799 0062 0360     		str	r3, [r0]
 1800              		.loc 1 480 3 discriminator 3 view .LVU425
 1801 0064 3568     		ldr	r5, [r6]
 1802              	.L193:
 1803              		.loc 1 480 3 discriminator 2 view .LVU426
 1804              		.loc 1 480 3 discriminator 2 view .LVU427
 1805 0066 2C68     		ldr	r4, [r5]
 1806 0068 14F00104 		ands	r4, r4, #1
 1807 006c FBD1     		bne	.L193
 1808              		.loc 1 480 3 discriminator 3 view .LVU428
 1809 006e 357A     		ldrb	r5, [r6, #8]	@ zero_extendqisi2
 1810 0070 7068     		ldr	r0, [r6, #4]
 1811 0072 3D23     		movs	r3, #61
 1812 0074 AB40     		lsls	r3, r3, r5
 1813 0076 0360     		str	r3, [r0]
 1814              		.loc 1 480 3 discriminator 3 view .LVU429
 1815              		.loc 1 480 27 discriminator 3 view .LVU430
 1816              		.loc 1 481 3 discriminator 3 view .LVU431
 1817              		.loc 1 481 9 is_stmt 0 discriminator 3 view .LVU432
 1818 0078 3368     		ldr	r3, [r6]
 1819              		.loc 1 481 22 discriminator 3 view .LVU433
 1820 007a 1C60     		str	r4, [r3]
 1821              		.loc 1 482 3 is_stmt 1 discriminator 3 view .LVU434
 1822              		.loc 1 482 9 is_stmt 0 discriminator 3 view .LVU435
 1823 007c 3368     		ldr	r3, [r6]
 1824              		.loc 1 482 23 discriminator 3 view .LVU436
ARM GAS  /tmp/ccyM7dK0.s 			page 33


 1825 007e 2120     		movs	r0, #33
 1826 0080 5861     		str	r0, [r3, #20]
 1827              		.loc 1 485 3 is_stmt 1 discriminator 3 view .LVU437
 1828              		.loc 1 485 6 is_stmt 0 discriminator 3 view .LVU438
 1829 0082 92B1     		cbz	r2, .L196
 1830              		.loc 1 486 5 is_stmt 1 view .LVU439
 1831 0084 B07A     		ldrb	r0, [r6, #10]	@ zero_extendqisi2
 1832 0086 4146     		mov	r1, r8
 1833 0088 FFF7FEFF 		bl	nvicEnableVector
 1834              	.LVL121:
 1835              		.loc 1 488 10 is_stmt 0 view .LVU440
 1836 008c 2046     		mov	r0, r4
 1837              	.L190:
 1838              		.loc 1 489 1 view .LVU441
 1839 008e 0D4B     		ldr	r3, .L208
 1840 0090 1A68     		ldr	r2, [r3]
 1841 0092 039B     		ldr	r3, [sp, #12]
 1842 0094 5A40     		eors	r2, r3, r2
 1843 0096 12D1     		bne	.L207
 1844 0098 05B0     		add	sp, sp, #20
 1845              		.cfi_remember_state
 1846              		.cfi_def_cfa_offset 28
 1847              		@ sp needed
 1848 009a BDE8F083 		pop	{r4, r5, r6, r7, r8, r9, pc}
 1849              	.LVL122:
 1850              	.L206:
 1851              		.cfi_restore_state
 1852              		.loc 1 477 5 is_stmt 1 view .LVU442
 1853 009e 0C48     		ldr	r0, .L208+12
 1854 00a0 036B     		ldr	r3, [r0, #48]
 1855 00a2 43F48003 		orr	r3, r3, #4194304
 1856 00a6 0363     		str	r3, [r0, #48]
 1857              		.loc 1 477 5 view .LVU443
 1858 00a8 D7E7     		b	.L192
 1859              	.L196:
 1860              		.loc 1 488 10 is_stmt 0 view .LVU444
 1861 00aa 1046     		mov	r0, r2
 1862 00ac EFE7     		b	.L190
 1863              	.L195:
 1864              		.loc 1 466 12 view .LVU445
 1865 00ae 2046     		mov	r0, r4
 1866 00b0 EDE7     		b	.L190
 1867              	.LVL123:
 1868              	.L205:
 1869              		.loc 1 462 3 discriminator 3 view .LVU446
 1870 00b2 0848     		ldr	r0, .L208+16
 1871              	.LVL124:
 1872              		.loc 1 462 3 discriminator 3 view .LVU447
 1873 00b4 0192     		str	r2, [sp, #4]
 1874              		.loc 1 462 3 is_stmt 1 discriminator 3 view .LVU448
 1875 00b6 FFF7FEFF 		bl	chSysHalt
 1876              	.LVL125:
 1877              		.loc 1 462 3 is_stmt 0 discriminator 3 view .LVU449
 1878 00ba 019A     		ldr	r2, [sp, #4]
 1879 00bc ADE7     		b	.L189
 1880              	.LVL126:
 1881              	.L207:
ARM GAS  /tmp/ccyM7dK0.s 			page 34


 1882              		.loc 1 489 1 view .LVU450
 1883 00be FFF7FEFF 		bl	__stack_chk_fail
 1884              	.LVL127:
 1885              	.L209:
 1886 00c2 00BF     		.align	2
 1887              	.L208:
 1888 00c4 00000000 		.word	.LC17
 1889 00c8 00000000 		.word	.LANCHOR1
 1890 00cc 00000000 		.word	.LANCHOR0
 1891 00d0 00380240 		.word	1073887232
 1892 00d4 00000000 		.word	.LANCHOR3
 1893              		.cfi_endproc
 1894              	.LFE273:
 1895              		.size	dmaStreamAllocate, .-dmaStreamAllocate
 1896              		.section	.rodata.dmaStreamRelease.cst4,"aM",%progbits,4
 1897              		.align	2
 1898              	.LC18:
 1899 0000 00000000 		.word	__stack_chk_guard
 1900              		.section	.text.dmaStreamRelease,"ax",%progbits
 1901              		.align	1
 1902              		.p2align 4,,15
 1903              		.global	dmaStreamRelease
 1904              		.syntax unified
 1905              		.thumb
 1906              		.thumb_func
 1907              		.fpu fpv4-sp-d16
 1908              		.type	dmaStreamRelease, %function
 1909              	dmaStreamRelease:
 1910              	.LVL128:
 1911              	.LFB274:
 1912              		.loc 1 504 57 is_stmt 1 view -0
 1913              		.cfi_startproc
 1914              		@ args = 0, pretend = 0, frame = 8
 1915              		@ frame_needed = 0, uses_anonymous_args = 0
 1916              		.loc 1 504 57 is_stmt 0 view .LVU452
 1917 0000 30B5     		push	{r4, r5, lr}
 1918              		.cfi_def_cfa_offset 12
 1919              		.cfi_offset 4, -12
 1920              		.cfi_offset 5, -8
 1921              		.cfi_offset 14, -4
 1922 0002 1D4B     		ldr	r3, .L220
 1923 0004 83B0     		sub	sp, sp, #12
 1924              		.cfi_def_cfa_offset 24
 1925              		.loc 1 504 57 view .LVU453
 1926 0006 1B68     		ldr	r3, [r3]
 1927 0008 0193     		str	r3, [sp, #4]
 1928 000a 4FF00003 		mov	r3,#0
 1929              		.loc 1 506 3 is_stmt 1 view .LVU454
 1930              		.loc 1 506 3 view .LVU455
 1931              		.loc 1 506 3 view .LVU456
 1932 000e 0446     		mov	r4, r0
 1933 0010 58B3     		cbz	r0, .L217
 1934              	.LVL129:
 1935              	.L211:
 1936              		.loc 1 506 3 discriminator 1 view .LVU457
 1937              		.loc 1 509 3 discriminator 1 view .LVU458
 1938              		.loc 1 509 3 discriminator 1 view .LVU459
ARM GAS  /tmp/ccyM7dK0.s 			page 35


 1939              		.loc 1 509 3 discriminator 1 view .LVU460
 1940 0012 1A4D     		ldr	r5, .L220+4
 1941 0014 617A     		ldrb	r1, [r4, #9]	@ zero_extendqisi2
 1942 0016 2A68     		ldr	r2, [r5]
 1943 0018 0123     		movs	r3, #1
 1944 001a 8B40     		lsls	r3, r3, r1
 1945 001c 1342     		tst	r3, r2
 1946 001e 20D0     		beq	.L218
 1947              	.L212:
 1948              		.loc 1 509 3 discriminator 5 view .LVU461
 1949              		.loc 1 513 3 discriminator 5 view .LVU462
 1950 0020 A07A     		ldrb	r0, [r4, #10]	@ zero_extendqisi2
 1951 0022 FFF7FEFF 		bl	nvicDisableVector
 1952              	.LVL130:
 1953              		.loc 1 516 3 discriminator 5 view .LVU463
 1954              		.loc 1 516 36 is_stmt 0 discriminator 5 view .LVU464
 1955 0026 617A     		ldrb	r1, [r4, #9]	@ zero_extendqisi2
 1956              		.loc 1 516 20 discriminator 5 view .LVU465
 1957 0028 2B68     		ldr	r3, [r5]
 1958              		.loc 1 516 27 discriminator 5 view .LVU466
 1959 002a 0122     		movs	r2, #1
 1960 002c 8A40     		lsls	r2, r2, r1
 1961              		.loc 1 516 20 discriminator 5 view .LVU467
 1962 002e 23EA0203 		bic	r3, r3, r2
 1963              		.loc 1 519 6 discriminator 5 view .LVU468
 1964 0032 13F0FF0F 		tst	r3, #255
 1965              		.loc 1 516 20 discriminator 5 view .LVU469
 1966 0036 2B60     		str	r3, [r5]
 1967              		.loc 1 519 3 is_stmt 1 discriminator 5 view .LVU470
 1968              		.loc 1 519 6 is_stmt 0 discriminator 5 view .LVU471
 1969 0038 04D1     		bne	.L213
 1970              		.loc 1 520 5 is_stmt 1 view .LVU472
 1971 003a 1149     		ldr	r1, .L220+8
 1972 003c 0A6B     		ldr	r2, [r1, #48]
 1973 003e 22F40012 		bic	r2, r2, #2097152
 1974 0042 0A63     		str	r2, [r1, #48]
 1975              		.loc 1 520 5 view .LVU473
 1976              	.L213:
 1977              		.loc 1 520 26 discriminator 3 view .LVU474
 1978              		.loc 1 521 3 discriminator 3 view .LVU475
 1979              		.loc 1 521 6 is_stmt 0 discriminator 3 view .LVU476
 1980 0044 13F47F4F 		tst	r3, #65280
 1981 0048 04D1     		bne	.L210
 1982              		.loc 1 522 5 is_stmt 1 view .LVU477
 1983 004a 0D4A     		ldr	r2, .L220+8
 1984 004c 136B     		ldr	r3, [r2, #48]
 1985 004e 23F48003 		bic	r3, r3, #4194304
 1986 0052 1363     		str	r3, [r2, #48]
 1987              		.loc 1 522 5 view .LVU478
 1988              		.loc 1 522 26 view .LVU479
 1989              	.L210:
 1990              		.loc 1 523 1 is_stmt 0 view .LVU480
 1991 0054 084B     		ldr	r3, .L220
 1992 0056 1A68     		ldr	r2, [r3]
 1993 0058 019B     		ldr	r3, [sp, #4]
 1994 005a 5A40     		eors	r2, r3, r2
 1995 005c 09D1     		bne	.L219
ARM GAS  /tmp/ccyM7dK0.s 			page 36


 1996 005e 03B0     		add	sp, sp, #12
 1997              		.cfi_remember_state
 1998              		.cfi_def_cfa_offset 12
 1999              		@ sp needed
 2000 0060 30BD     		pop	{r4, r5, pc}
 2001              	.LVL131:
 2002              	.L218:
 2003              		.cfi_restore_state
 2004              		.loc 1 509 3 is_stmt 1 discriminator 3 view .LVU481
 2005 0062 0848     		ldr	r0, .L220+12
 2006 0064 FFF7FEFF 		bl	chSysHalt
 2007              	.LVL132:
 2008 0068 DAE7     		b	.L212
 2009              	.LVL133:
 2010              	.L217:
 2011              		.loc 1 506 3 discriminator 3 view .LVU482
 2012 006a 0648     		ldr	r0, .L220+12
 2013              	.LVL134:
 2014              		.loc 1 506 3 is_stmt 0 discriminator 3 view .LVU483
 2015 006c FFF7FEFF 		bl	chSysHalt
 2016              	.LVL135:
 2017 0070 CFE7     		b	.L211
 2018              	.L219:
 2019              		.loc 1 523 1 view .LVU484
 2020 0072 FFF7FEFF 		bl	__stack_chk_fail
 2021              	.LVL136:
 2022              	.L221:
 2023 0076 00BF     		.align	2
 2024              	.L220:
 2025 0078 00000000 		.word	.LC18
 2026 007c 00000000 		.word	.LANCHOR1
 2027 0080 00380240 		.word	1073887232
 2028 0084 00000000 		.word	.LANCHOR4
 2029              		.cfi_endproc
 2030              	.LFE274:
 2031              		.size	dmaStreamRelease, .-dmaStreamRelease
 2032              		.global	_stm32_dma_streams
 2033              		.section	.bss.dma_isr_redir,"aw",%nobits
 2034              		.align	2
 2035              		.set	.LANCHOR0,. + 0
 2036              		.type	dma_isr_redir, %object
 2037              		.size	dma_isr_redir, 128
 2038              	dma_isr_redir:
 2039 0000 00000000 		.space	128
 2039      00000000 
 2039      00000000 
 2039      00000000 
 2039      00000000 
 2040              		.section	.bss.dma_streams_mask,"aw",%nobits
 2041              		.align	2
 2042              		.set	.LANCHOR1,. + 0
 2043              		.type	dma_streams_mask, %object
 2044              		.size	dma_streams_mask, 4
 2045              	dma_streams_mask:
 2046 0000 00000000 		.space	4
 2047              		.section	.rodata.__func__.10030,"a"
 2048              		.align	2
ARM GAS  /tmp/ccyM7dK0.s 			page 37


 2049              		.set	.LANCHOR3,. + 0
 2050              		.type	__func__.10030, %object
 2051              		.size	__func__.10030, 18
 2052              	__func__.10030:
 2053 0000 646D6153 		.ascii	"dmaStreamAllocate\000"
 2053      74726561 
 2053      6D416C6C 
 2053      6F636174 
 2053      6500
 2054              		.section	.rodata.__func__.10037,"a"
 2055              		.align	2
 2056              		.set	.LANCHOR4,. + 0
 2057              		.type	__func__.10037, %object
 2058              		.size	__func__.10037, 17
 2059              	__func__.10037:
 2060 0000 646D6153 		.ascii	"dmaStreamRelease\000"
 2060      74726561 
 2060      6D52656C 
 2060      65617365 
 2060      00
 2061              		.section	.rodata._stm32_dma_streams,"a"
 2062              		.align	2
 2063              		.set	.LANCHOR2,. + 0
 2064              		.type	_stm32_dma_streams, %object
 2065              		.size	_stm32_dma_streams, 192
 2066              	_stm32_dma_streams:
 2067 0000 10600240 		.word	1073897488
 2068 0004 08600240 		.word	1073897480
 2069 0008 00       		.byte	0
 2070 0009 00       		.byte	0
 2071 000a 0B       		.byte	11
 2072 000b 00       		.space	1
 2073 000c 28600240 		.word	1073897512
 2074 0010 08600240 		.word	1073897480
 2075 0014 06       		.byte	6
 2076 0015 01       		.byte	1
 2077 0016 0C       		.byte	12
 2078 0017 00       		.space	1
 2079 0018 40600240 		.word	1073897536
 2080 001c 08600240 		.word	1073897480
 2081 0020 10       		.byte	16
 2082 0021 02       		.byte	2
 2083 0022 0D       		.byte	13
 2084 0023 00       		.space	1
 2085 0024 58600240 		.word	1073897560
 2086 0028 08600240 		.word	1073897480
 2087 002c 16       		.byte	22
 2088 002d 03       		.byte	3
 2089 002e 0E       		.byte	14
 2090 002f 00       		.space	1
 2091 0030 70600240 		.word	1073897584
 2092 0034 0C600240 		.word	1073897484
 2093 0038 00       		.byte	0
 2094 0039 04       		.byte	4
 2095 003a 0F       		.byte	15
 2096 003b 00       		.space	1
 2097 003c 88600240 		.word	1073897608
ARM GAS  /tmp/ccyM7dK0.s 			page 38


 2098 0040 0C600240 		.word	1073897484
 2099 0044 06       		.byte	6
 2100 0045 05       		.byte	5
 2101 0046 10       		.byte	16
 2102 0047 00       		.space	1
 2103 0048 A0600240 		.word	1073897632
 2104 004c 0C600240 		.word	1073897484
 2105 0050 10       		.byte	16
 2106 0051 06       		.byte	6
 2107 0052 11       		.byte	17
 2108 0053 00       		.space	1
 2109 0054 B8600240 		.word	1073897656
 2110 0058 0C600240 		.word	1073897484
 2111 005c 16       		.byte	22
 2112 005d 07       		.byte	7
 2113 005e 2F       		.byte	47
 2114 005f 00       		.space	1
 2115 0060 10640240 		.word	1073898512
 2116 0064 08640240 		.word	1073898504
 2117 0068 00       		.byte	0
 2118 0069 08       		.byte	8
 2119 006a 38       		.byte	56
 2120 006b 00       		.space	1
 2121 006c 28640240 		.word	1073898536
 2122 0070 08640240 		.word	1073898504
 2123 0074 06       		.byte	6
 2124 0075 09       		.byte	9
 2125 0076 39       		.byte	57
 2126 0077 00       		.space	1
 2127 0078 40640240 		.word	1073898560
 2128 007c 08640240 		.word	1073898504
 2129 0080 10       		.byte	16
 2130 0081 0A       		.byte	10
 2131 0082 3A       		.byte	58
 2132 0083 00       		.space	1
 2133 0084 58640240 		.word	1073898584
 2134 0088 08640240 		.word	1073898504
 2135 008c 16       		.byte	22
 2136 008d 0B       		.byte	11
 2137 008e 3B       		.byte	59
 2138 008f 00       		.space	1
 2139 0090 70640240 		.word	1073898608
 2140 0094 0C640240 		.word	1073898508
 2141 0098 00       		.byte	0
 2142 0099 0C       		.byte	12
 2143 009a 3C       		.byte	60
 2144 009b 00       		.space	1
 2145 009c 88640240 		.word	1073898632
 2146 00a0 0C640240 		.word	1073898508
 2147 00a4 06       		.byte	6
 2148 00a5 0D       		.byte	13
 2149 00a6 44       		.byte	68
 2150 00a7 00       		.space	1
 2151 00a8 A0640240 		.word	1073898656
 2152 00ac 0C640240 		.word	1073898508
 2153 00b0 10       		.byte	16
 2154 00b1 0E       		.byte	14
ARM GAS  /tmp/ccyM7dK0.s 			page 39


 2155 00b2 45       		.byte	69
 2156 00b3 00       		.space	1
 2157 00b4 B8640240 		.word	1073898680
 2158 00b8 0C640240 		.word	1073898508
 2159 00bc 16       		.byte	22
 2160 00bd 0F       		.byte	15
 2161 00be 46       		.byte	70
 2162 00bf 00       		.space	1
 2163              		.text
 2164              	.Letext0:
 2165              		.file 2 "/usr/lib/gcc/arm-none-eabi/9.2.1/include/stddef.h"
 2166              		.file 3 "/usr/lib/gcc/arm-none-eabi/9.2.1/include/stdint.h"
 2167              		.file 4 ".//ChibiOS//os/rt/ports/ARMCMx/compilers/GCC/chtypes.h"
 2168              		.file 5 ".//ChibiOS//os/rt/include/chsystypes.h"
 2169              		.file 6 ".//ChibiOS//os/rt/include/chschd.h"
 2170              		.file 7 ".//ChibiOS//os/ext/CMSIS/include/core_cm4.h"
 2171              		.file 8 ".//ChibiOS//os/ext/CMSIS/ST/system_stm32f4xx.h"
 2172              		.file 9 ".//ChibiOS//os/ext/CMSIS/ST/stm32f407xx.h"
 2173              		.file 10 ".//ChibiOS//os/rt/ports/ARMCMx/chcore.h"
 2174              		.file 11 ".//ChibiOS//os/rt/ports/ARMCMx/chcore_v7m.h"
 2175              		.file 12 ".//ChibiOS//os/rt/include/chdebug.h"
 2176              		.file 13 ".//ChibiOS//os/rt/include/chtm.h"
 2177              		.file 14 ".//ChibiOS//os/rt/include/chstats.h"
 2178              		.file 15 ".//ChibiOS//os/rt/include/chsem.h"
 2179              		.file 16 ".//ChibiOS//os/rt/include/chmtx.h"
 2180              		.file 17 ".//ChibiOS//os/rt/include/chregistry.h"
 2181              		.file 18 ".//ChibiOS//os/rt/include/chevents.h"
 2182              		.file 19 ".//ChibiOS//os/rt/include/chqueues.h"
 2183              		.file 20 ".//ChibiOS//os/hal/ports/STM32/STM32F4xx/stm32_dma.h"
 2184              		.file 21 ".//ChibiOS//os/hal/include/hal_ioblock.h"
 2185              		.file 22 ".//ChibiOS//os/hal/ports/STM32/LLD/GPIOv2/pal_lld.h"
 2186              		.file 23 ".//ChibiOS//os/hal/include/adc.h"
 2187              		.file 24 ".//ChibiOS//os/hal/ports/STM32/STM32F4xx/adc_lld.h"
 2188              		.file 25 ".//ChibiOS//os/hal/include/can.h"
 2189              		.file 26 ".//ChibiOS//os/hal/ports/STM32/LLD/can_lld.h"
 2190              		.file 27 ".//ChibiOS//os/hal/include/dac.h"
 2191              		.file 28 ".//ChibiOS//os/hal/ports/STM32/LLD/DACv1/dac_lld.h"
 2192              		.file 29 ".//ChibiOS//os/hal/include/ext.h"
 2193              		.file 30 ".//ChibiOS//os/hal/ports/STM32/LLD/ext_lld.h"
 2194              		.file 31 ".//ChibiOS//os/hal/include/gpt.h"
 2195              		.file 32 ".//ChibiOS//os/hal/ports/STM32/LLD/TIMv1/gpt_lld.h"
 2196              		.file 33 ".//ChibiOS//os/hal/ports/STM32/LLD/TIMv1/stm32_tim.h"
 2197              		.file 34 ".//ChibiOS//os/hal/include/i2c.h"
 2198              		.file 35 ".//ChibiOS//os/hal/ports/STM32/LLD/I2Cv1/i2c_lld.h"
 2199              		.file 36 ".//ChibiOS//os/hal/include/i2s.h"
 2200              		.file 37 ".//ChibiOS//os/hal/ports/STM32/LLD/SPIv1/i2s_lld.h"
 2201              		.file 38 ".//ChibiOS//os/hal/include/pwm.h"
 2202              		.file 39 ".//ChibiOS//os/hal/ports/STM32/LLD/TIMv1/pwm_lld.h"
 2203              		.file 40 ".//ChibiOS//os/hal/include/serial.h"
 2204              		.file 41 ".//ChibiOS//os/hal/ports/STM32/LLD/USARTv1/serial_lld.h"
 2205              		.file 42 ".//ChibiOS//os/hal/include/sdc.h"
 2206              		.file 43 ".//ChibiOS//os/hal/ports/STM32/LLD/sdc_lld.h"
 2207              		.file 44 ".//ChibiOS//os/hal/include/spi.h"
 2208              		.file 45 ".//ChibiOS//os/hal/ports/STM32/LLD/SPIv1/spi_lld.h"
 2209              		.file 46 ".//ChibiOS//os/hal/include/usb.h"
 2210              		.file 47 ".//ChibiOS//os/hal/ports/STM32/LLD/OTGv1/usb_lld.h"
 2211              		.file 48 ".//ChibiOS//os/hal/ports/STM32/LLD/OTGv1/stm32_otg.h"
ARM GAS  /tmp/ccyM7dK0.s 			page 40


 2212              		.file 49 ".//ChibiOS//os/hal/ports/common/ARMCMx/nvic.h"
 2213              		.file 50 ".//ChibiOS//os/rt/include/chsys.h"